
midiTest.elf:	file format elf32-mos

SYMBOL TABLE:
00000000 l    df *ABS*	00000000 zero-bss.c
00000000 l    df *ABS*	00000000 zero-zp-bss.c
00000000 l    df *ABS*	00000000 copy-zp-data.c
00000000 l    df *ABS*	00000000 ld-temp.o
0000056e l     F .text	000003a0 f256Init
00000083 l     O .zp.bss	00000007 kernelEventData
00000030 l     O .zp.data	00000001 _ccolor
0000825b l     O .rodata	00000030 textColors
00000033 l     O .zp.bss	00000001 _col
00000034 l     O .zp.bss	00000001 _row
0000863d l     O .bss	00000004 _BITMAP_BASE.0
00008641 l     O .bss	00000001 kernelError
00000914 l     F .text	00002688 f256main
00005e7f l     F .text	000001d3 malloc
0000006a l     O .zp.bss	00000002 gPtr
0000007e l     O .zp.bss	00000002 theBeats
00005253 l     F .text	00000c2c printf
0000841f l     O .rodata	0000000c beat60_notes
0000842b l     O .rodata	0000000c beat60_delays
00004594 l     F .text	00000246 setupMem4Track
00008437 l     O .rodata	00000008 beat61_notes
0000843f l     O .rodata	00000008 beat61_delays
00008447 l     O .rodata	0000000c beat62_notes
00008453 l     O .rodata	0000000c beat62_delays
0000845f l     O .rodata	0000000c beat63_notes
0000846b l     O .rodata	0000000c beat63_delays
00008477 l     O .rodata	0000000c beat64_notes
00008483 l     O .rodata	0000000c beat64_delays
0000848f l     O .rodata	00000020 beat65_notes
000084af l     O .rodata	00000020 beat65_delays
00003dc1 l     F .text	000001c0 escReset
00003f81 l     F .text	00000103 prepTempoLUT
00000080 l     O .zp.bss	00000001 refTimer.1
0000429b l     F .text	00000067 sid_setInstrumentAllChannels
000084fc l     O .rodata	0000000b opl3_instrument_defs
0000413f l     F .text	000000d4 opl3_setInstrument
000083e7 l     O .rodata	00000038 rtmplugin
00000031 l     O .zp.data	00000002 note
00000081 l     O .zp.bss	00000002 oldCursorNote
00000061 l     O .zp.bss	00000001 instSelectMode
00002f9c l     F .text	000001b8 textPrint
00003154 l     F .text	000005a6 dispatchNote
00004084 l     F .text	000000bb textPrintUInt
00008297 l     O .rodata	00000058 noteColors
00000063 l     O .zp.bss	00000001 altHit
0000006c l     O .zp.bss	00000012 mainTempoLUT
00000064 l     O .zp.bss	00000001 shiftHit
00000065 l     O .zp.bss	00000001 chipAct.0
00000066 l     O .zp.bss	00000001 chipAct.1
00000043 l     O .zp.bss	00000006 polySIDBuffer
00000067 l     O .zp.bss	00000001 chipAct.2
00000037 l     O .zp.bss	00000006 polyPSGBuffer
00000068 l     O .zp.bss	00000001 chipAct.3
0000004f l     O .zp.bss	00000009 polyOPL3Buffer
00000069 l     O .zp.bss	00000001 chipAct.4
00004972 l     F .text	000000f8 showChipChoiceText
00004302 l     F .text	00000292 getBeatTrackNoteInfo
00000062 l     O .zp.bss	00000001 needsToWaitExpiration
000036fa l     F .text	000006c7 launchBeat
00004aec l     F .text	000002d4 textTitle
00004918 l     F .text	0000005a updateTempoText
00004dc0 l     F .text	000001d1 highLightInstChoice
00008507 l     O .rodata	00000100 midi_instruments
00008607 l     O .rodata	0000000a sid_instruments_names
00004a6a l     F .text	00000082 showMIDIChoiceText
00000035 l     O .zp.bss	00000002 __putchar.s
000047da l     F .text	000000d7 channelTextMenu
00004f91 l     F .text	0000006b modalMoveUp
000060e7 l     F .text	00000032 __mulhi3
00004ffc l     F .text	0000006b modalMoveDown
000048b1 l     F .text	00000067 refreshBeatTextChoice
00006552 l     F .text	000000db __udivmodhi4
000082ef l     O .rodata	00000018 opl3_fnums
00000058 l     O .zp.bss	00000009 reservedOPL3
00000049 l     O .zp.bss	00000006 reservedSID
0000003d l     O .zp.bss	00000006 reservedPSG
00008291 l     O .rodata	00000006 sidChoiceToVoice
00008387 l     O .rodata	00000060 sidLow
00007a0c l     O .rodata	00000060 sidHigh
000084cf l     O .rodata	0000002d sid_instrument_defs
0000828b l     O .rodata	00000006 polyPSGChanBits
00008307 l     O .rodata	00000040 psgLow
00008347 l     O .rodata	00000040 psgHigh
00006281 l     F .text	0000005c __udivqi3
00004213 l     F .text	00000088 sid_setInstrument
00000456 l     F .text	000000db _ZN12_GLOBAL__N_19FreeChunk6removeEv
00008642 l     O .bss	00000001 _ZN12_GLOBAL__N_19last_freeE
0000031c l     F .text	00000139 _ZN12_GLOBAL__N_19FreeChunk6insertEPvj
0000723b l     F .text	00000353 __floatunsisf
0000662d l     F .text	00000b92 __divsf3
000071bf l     F .text	0000007c __fixunssfsi
000062dd l     F .text	000000c0 __udivhi3
0000639d l     F .text	00000147 __umodsi3
000064e4 l     F .text	0000006e __udivmodqi4
000060cc l     F .text	0000001b __mulqi3
00008611 l     O .rodata	0000002c opl3_instrument_names
0000506c l     F .text	000000db _ZN12_GLOBAL__N_13putEcP6Status
00005147 l     F .text	0000010c _ZN12_GLOBAL__N_112print_stringEPKcP6Status
0000008a l     O .zp.bss	00000001 _ZN12_GLOBAL__N_111initializedE
00008643 l     O .bss	00000002 _ZN12_GLOBAL__N_19free_listE
0000008b l     O .zp.bss	00000002 _ZN12_GLOBAL__N_19free_sizeE
0000609e l     F .text	00000017 __ashlsi3
000060b5 l     F .text	00000017 __lshrsi3
00006119 l     F .text	00000070 __mulsi3
00006189 l     F .text	000000f8 __muldi3
0000090e g     F .text	00000006 main
0004ac00 g       .pia1	00000000 pia1_end
000303fc g       .palpiano	00000000 palpiano_end
00038000 g       .pia1	00000000 pia1_start
00030000 g       .palpiano	00000000 palpiano_start
00000318 g       .text	00000000 __after_main
00000304 g       .text	00000000 __do_init_stack
00000312 g       .text	00000000 __do_copy_zp_data
00000557 g     F .text	00000017 __copy_zp_data
0000030c g       .text	00000000 __do_zero_bss
00000531 g     F .text	00000013 __zero_bss
0000030f g       .text	00000000 __do_zero_zp_bss
00000544 g     F .text	00000013 __zero_zp_bss
00005067 g     F .text	00000005 exit
0000031b g       .text	00000000 _fini
0000758e g       .rodata	00000000 __set_v
0000607e  w    F .text	00000020 __memset
00001000  w      *ABS*	00000000 __heap_default_limit
00008646 g       .noinit	00000000 __heap_start
00006052  w    F .text	0000002c memcpy
00000010 g       *ABS*	00000000 __rc0
00000012 g       *ABS*	00000000 __rc2
00000014 g       *ABS*	00000000 __rc4
00000016 g       *ABS*	00000000 __rc6
00000018 g       *ABS*	00000000 __rc8
0000001a g       *ABS*	00000000 __rc10
0000001c g       *ABS*	00000000 __rc12
0000001e g       *ABS*	00000000 __rc14
00000020 g       *ABS*	00000000 __rc16
00000022 g       *ABS*	00000000 __rc18
00000024 g       *ABS*	00000000 __rc20
00000026 g       *ABS*	00000000 __rc22
00000028 g       *ABS*	00000000 __rc24
0000002a g       *ABS*	00000000 __rc26
0000002c g       *ABS*	00000000 __rc28
0000002e g       *ABS*	00000000 __rc30
0000002f g       *ABS*	00000000 __rc31
00000300 g       *ABS*	00000000 __f256_start
0000c000 g       *ABS*	00000000 __stack
0000c000 g       *ABS*	00000000 __SLOT_ADDR
0800c000 g       *ABS*	00000000 __block8_lma
00002000 g       *ABS*	00000000 __BLOCK_SIZE
0900c000 g       *ABS*	00000000 __block9_lma
0a00c000 g       *ABS*	00000000 __block10_lma
0b00c000 g       *ABS*	00000000 __block11_lma
0c00c000 g       *ABS*	00000000 __block12_lma
0d00c000 g       *ABS*	00000000 __block13_lma
0e00c000 g       *ABS*	00000000 __block14_lma
0f00c000 g       *ABS*	00000000 __block15_lma
1000c000 g       *ABS*	00000000 __block16_lma
1100c000 g       *ABS*	00000000 __block17_lma
1200c000 g       *ABS*	00000000 __block18_lma
1300c000 g       *ABS*	00000000 __block19_lma
1400c000 g       *ABS*	00000000 __block20_lma
1500c000 g       *ABS*	00000000 __block21_lma
1600c000 g       *ABS*	00000000 __block22_lma
1700c000 g       *ABS*	00000000 __block23_lma
00030000 g       *ABS*	00000000 __palpiano_lma
000003fc g       *ABS*	00000000 __palpiano_size
00038000 g       *ABS*	00000000 __pia1_lma
00012c00 g       *ABS*	00000000 __pia1_size
0000863d g       .bss	00000000 __bss_start
000303fc g       .palpiano	00000000 end_palpiano
0004ac00 g       .pia1	00000000 end_pia1
00000304 g       .text	00000000 _start
0000002d g       *ABS*	00000000 __rc29
0000002b g       *ABS*	00000000 __rc27
00000029 g       *ABS*	00000000 __rc25
00000027 g       *ABS*	00000000 __rc23
00000025 g       *ABS*	00000000 __rc21
00000023 g       *ABS*	00000000 __rc19
00000021 g       *ABS*	00000000 __rc17
0000001f g       *ABS*	00000000 __rc15
0000001d g       *ABS*	00000000 __rc13
0000001b g       *ABS*	00000000 __rc11
00000019 g       *ABS*	00000000 __rc9
00000017 g       *ABS*	00000000 __rc7
00000015 g       *ABS*	00000000 __rc5
00000013 g       *ABS*	00000000 __rc3
00000011 g       *ABS*	00000000 __rc1
00000030 g       .zp.data	00000000 __zp_data_start
00000300 g       *ABS*	00000000 __zp_data_load_start
00000003 g       *ABS*	00000000 __zp_data_size
00000033 g       .zp.bss	00000000 __zp_bss_start
0000005a g       *ABS*	00000000 __zp_bss_size
00000304 g       .text	00000000 _init
0000758e g       .text	00000000 __init_array_start
0000758e g       .text	00000000 __init_array_end
0000758e g       .text	00000000 __fini_array_start
0000758e g       .text	00000000 __fini_array_end
0000863d g       .data	00000000 __data_start
0000863d g       .data	00000000 __data_end
0000863d g       *ABS*	00000000 __data_load_start
00000000 g       *ABS*	00000000 __data_size
00008645 g       .bss	00000000 __bss_end
00000008 g       *ABS*	00000000 __bss_size
00008645 g       .noinit	00000000 end_block8
00008645 g       .noinit	00000000 end_block9
00008645 g       .noinit	00000000 end_block10
00008645 g       .noinit	00000000 end_block11
00008645 g       .noinit	00000000 end_block12
00008645 g       .noinit	00000000 end_block13
00008645 g       .noinit	00000000 end_block14
00008645 g       .noinit	00000000 end_block15
00008645 g       .noinit	00000000 end_block16
00008645 g       .noinit	00000000 end_block17
00008645 g       .noinit	00000000 end_block18
00008645 g       .noinit	00000000 end_block19
00008645 g       .noinit	00000000 end_block20
00008645 g       .noinit	00000000 end_block21
00008645 g       .noinit	00000000 end_block22
00008645 g       .noinit	00000000 end_block23

Disassembly of section .text:

00000304 <_start>:
     304: a9 00        	lda	#$0
     306: 85 10        	sta	$10                     ; 0x2010 <f256main+0x16fc>
     308: a9 c0        	lda	#$c0
     30a: 85 11        	sta	$11                     ; 0x2011 <f256main+0x16fd>

0000030c <__do_zero_bss>:
     30c: 20 31 05     	jsr	$531 <__zero_bss>

0000030f <__do_zero_zp_bss>:
     30f: 20 44 05     	jsr	$544 <__zero_zp_bss>

00000312 <__do_copy_zp_data>:
     312: 20 57 05     	jsr	$557 <__copy_zp_data>
     315: 20 0e 09     	jsr	$90e <main>

00000318 <__after_main>:
     318: 4c 67 50     	jmp	$5067 <exit>

0000031b <_fini>:
     31b: 60           	rts

0000031c <_ZN12_GLOBAL__N_19FreeChunk6insertEPvj>:
     31c: 85 16        	sta	$16                     ; 0x2016 <f256main+0x1702>
     31e: 29 fe        	and	#$fe
     320: 85 14        	sta	$14                     ; 0x2014 <f256main+0x1700>
     322: a0 01        	ldy	#$1
     324: 98           	tya
     325: 32 12        	and	($12)                   ; 0x2012 <f256main+0x16fe>
     327: 05 14        	ora	$14                     ; 0x2014 <f256main+0x1700>
     329: 92 12        	sta	($12)                   ; 0x2012 <f256main+0x16fe>
     32b: a5 12        	lda	$12                     ; 0x2012 <f256main+0x16fe>
     32d: 18           	clc
     32e: 65 14        	adc	$14                     ; 0x2014 <f256main+0x1700>
     330: 85 15        	sta	$15                     ; 0x2015 <f256main+0x1701>
     332: 8a           	txa
     333: 65 13        	adc	$13                     ; 0x2013 <f256main+0x16ff>
     335: 85 14        	sta	$14                     ; 0x2014 <f256main+0x1700>
     337: 18           	clc
     338: a5 15        	lda	$15                     ; 0x2015 <f256main+0x1701>
     33a: 69 fe        	adc	#$fe
     33c: 85 17        	sta	$17                     ; 0x2017 <f256main+0x1703>
     33e: a5 14        	lda	$14                     ; 0x2014 <f256main+0x1700>
     340: 69 ff        	adc	#$ff
     342: 85 15        	sta	$15                     ; 0x2015 <f256main+0x1701>
     344: a5 17        	lda	$17                     ; 0x2017 <f256main+0x1703>
     346: 85 14        	sta	$14                     ; 0x2014 <f256main+0x1700>
     348: 8a           	txa
     349: 91 12        	sta	($12),y                 ; 0x2012 <f256main+0x16fe>
     34b: a5 16        	lda	$16                     ; 0x2016 <f256main+0x1702>
     34d: 92 14        	sta	($14)                   ; 0x2014 <f256main+0x1700>
     34f: 8a           	txa
     350: 91 14        	sta	($14),y                 ; 0x2014 <f256main+0x1700>
     352: b1 12        	lda	($12),y                 ; 0x2012 <f256main+0x16fe>
     354: 85 14        	sta	$14                     ; 0x2014 <f256main+0x1700>
     356: a9 fe        	lda	#$fe
     358: 32 12        	and	($12)                   ; 0x2012 <f256main+0x16fe>
     35a: 18           	clc
     35b: 65 8b        	adc	$8b                     ; 0x208b <f256main+0x1777>
     35d: aa           	tax
     35e: a5 14        	lda	$14                     ; 0x2014 <f256main+0x1700>
     360: 65 8c        	adc	$8c                     ; 0x208c <f256main+0x1778>
     362: a8           	tay
     363: 18           	clc
     364: 8a           	txa
     365: 69 fe        	adc	#$fe
     367: aa           	tax
     368: 98           	tya
     369: 69 ff        	adc	#$ff
     36b: 86 8b        	stx	$8b                     ; 0x208b <f256main+0x1777>
     36d: 85 8c        	sta	$8c                     ; 0x208c <f256main+0x1778>
     36f: ae 43 86     	ldx	$8643                   ; 0x8643 <_ZN12_GLOBAL__N_19free_listE>
     372: 86 16        	stx	$16                     ; 0x2016 <f256main+0x1702>
     374: ac 44 86     	ldy	$8644                   ; 0x8644 <_ZN12_GLOBAL__N_19free_listE+0x1>
     377: a2 00        	ldx	#$0
     379: 86 14        	stx	$14                     ; 0x2014 <f256main+0x1700>
     37b: a2 00        	ldx	#$0
     37d: 86 15        	stx	$15                     ; 0x2015 <f256main+0x1701>
     37f: c4 15        	cpy	$15                     ; 0x2015 <f256main+0x1701>
     381: d0 3e        	bne	$3c1 <_ZN12_GLOBAL__N_19FreeChunk6insertEPvj+0xa5>
     383: a6 16        	ldx	$16                     ; 0x2016 <f256main+0x1702>
     385: e4 14        	cpx	$14                     ; 0x2014 <f256main+0x1700>
     387: d0 38        	bne	$3c1 <_ZN12_GLOBAL__N_19FreeChunk6insertEPvj+0xa5>
     389: a0 04        	ldy	#$4
     38b: a5 12        	lda	$12                     ; 0x2012 <f256main+0x16fe>
     38d: 18           	clc
     38e: 69 04        	adc	#$4
     390: 85 14        	sta	$14                     ; 0x2014 <f256main+0x1700>
     392: a5 13        	lda	$13                     ; 0x2013 <f256main+0x16ff>
     394: 69 00        	adc	#$0
     396: 18           	clc
     397: 85 15        	sta	$15                     ; 0x2015 <f256main+0x1701>
     399: a5 12        	lda	$12                     ; 0x2012 <f256main+0x16fe>
     39b: 91 12        	sta	($12),y                 ; 0x2012 <f256main+0x16fe>
     39d: a0 02        	ldy	#$2
     39f: 85 17        	sta	$17                     ; 0x2017 <f256main+0x1703>
     3a1: 69 02        	adc	#$2
     3a3: 85 16        	sta	$16                     ; 0x2016 <f256main+0x1702>
     3a5: a5 17        	lda	$17                     ; 0x2017 <f256main+0x1703>
     3a7: 91 12        	sta	($12),y                 ; 0x2012 <f256main+0x16fe>
     3a9: a5 13        	lda	$13                     ; 0x2013 <f256main+0x16ff>
     3ab: 69 00        	adc	#$0
     3ad: 85 17        	sta	$17                     ; 0x2017 <f256main+0x1703>
     3af: 88           	dey
     3b0: a5 13        	lda	$13                     ; 0x2013 <f256main+0x16ff>
     3b2: 91 14        	sta	($14),y                 ; 0x2014 <f256main+0x1700>
     3b4: 91 16        	sta	($16),y                 ; 0x2016 <f256main+0x1702>
     3b6: a6 12        	ldx	$12                     ; 0x2012 <f256main+0x16fe>
     3b8: 8e 43 86     	stx	$8643                   ; 0x8643 <_ZN12_GLOBAL__N_19free_listE>
     3bb: a6 13        	ldx	$13                     ; 0x2013 <f256main+0x16ff>
     3bd: 8e 44 86     	stx	$8644                   ; 0x8644 <_ZN12_GLOBAL__N_19free_listE+0x1>
     3c0: 60           	rts
     3c1: a6 12        	ldx	$12                     ; 0x2012 <f256main+0x16fe>
     3c3: a5 12        	lda	$12                     ; 0x2012 <f256main+0x16fe>
     3c5: 18           	clc
     3c6: 69 02        	adc	#$2
     3c8: 85 14        	sta	$14                     ; 0x2014 <f256main+0x1700>
     3ca: 84 18        	sty	$18                     ; 0x2018 <f256main+0x1704>
     3cc: a5 13        	lda	$13                     ; 0x2013 <f256main+0x16ff>
     3ce: 69 00        	adc	#$0
     3d0: 85 15        	sta	$15                     ; 0x2015 <f256main+0x1701>
     3d2: a5 16        	lda	$16                     ; 0x2016 <f256main+0x1702>
     3d4: 84 17        	sty	$17                     ; 0x2017 <f256main+0x1703>
     3d6: a0 02        	ldy	#$2
     3d8: 91 12        	sta	($12),y                 ; 0x2012 <f256main+0x16fe>
     3da: 85 19        	sta	$19                     ; 0x2019 <f256main+0x1705>
     3dc: 88           	dey
     3dd: a5 18        	lda	$18                     ; 0x2018 <f256main+0x1704>
     3df: 91 14        	sta	($14),y                 ; 0x2014 <f256main+0x1700>
     3e1: 18           	clc
     3e2: a5 19        	lda	$19                     ; 0x2019 <f256main+0x1705>
     3e4: 69 04        	adc	#$4
     3e6: a8           	tay
     3e7: a5 18        	lda	$18                     ; 0x2018 <f256main+0x1704>
     3e9: 69 00        	adc	#$0
     3eb: 85 19        	sta	$19                     ; 0x2019 <f256main+0x1705>
     3ed: 84 18        	sty	$18                     ; 0x2018 <f256main+0x1704>
     3ef: 8a           	txa
     3f0: 18           	clc
     3f1: 69 04        	adc	#$4
     3f3: 85 1a        	sta	$1a                     ; 0x201a <f256main+0x1706>
     3f5: a5 13        	lda	$13                     ; 0x2013 <f256main+0x16ff>
     3f7: 69 00        	adc	#$0
     3f9: 85 1b        	sta	$1b                     ; 0x201b <f256main+0x1707>
     3fb: a0 04        	ldy	#$4
     3fd: b1 16        	lda	($16),y                 ; 0x2016 <f256main+0x1702>
     3ff: 85 16        	sta	$16                     ; 0x2016 <f256main+0x1702>
     401: 85 1d        	sta	$1d                     ; 0x201d <f256main+0x1709>
     403: a0 01        	ldy	#$1
     405: b1 18        	lda	($18),y                 ; 0x2018 <f256main+0x1704>
     407: 85 17        	sta	$17                     ; 0x2017 <f256main+0x1703>
     409: 85 19        	sta	$19                     ; 0x2019 <f256main+0x1705>
     40b: a0 04        	ldy	#$4
     40d: a5 1d        	lda	$1d                     ; 0x201d <f256main+0x1709>
     40f: 91 12        	sta	($12),y                 ; 0x2012 <f256main+0x16fe>
     411: a5 19        	lda	$19                     ; 0x2019 <f256main+0x1705>
     413: a0 01        	ldy	#$1
     415: 91 1a        	sta	($1a),y                 ; 0x201a <f256main+0x1706>
     417: 18           	clc
     418: a5 1d        	lda	$1d                     ; 0x201d <f256main+0x1709>
     41a: 69 02        	adc	#$2
     41c: 85 18        	sta	$18                     ; 0x2018 <f256main+0x1704>
     41e: a5 19        	lda	$19                     ; 0x2019 <f256main+0x1705>
     420: 69 00        	adc	#$0
     422: 85 19        	sta	$19                     ; 0x2019 <f256main+0x1705>
     424: 8a           	txa
     425: c8           	iny
     426: 91 16        	sta	($16),y                 ; 0x2016 <f256main+0x1702>
     428: a5 13        	lda	$13                     ; 0x2013 <f256main+0x16ff>
     42a: 88           	dey
     42b: 91 18        	sta	($18),y                 ; 0x2018 <f256main+0x1704>
     42d: c8           	iny
     42e: b1 12        	lda	($12),y                 ; 0x2012 <f256main+0x16fe>
     430: 85 16        	sta	$16                     ; 0x2016 <f256main+0x1702>
     432: 85 18        	sta	$18                     ; 0x2018 <f256main+0x1704>
     434: 88           	dey
     435: b1 14        	lda	($14),y                 ; 0x2014 <f256main+0x1700>
     437: 85 17        	sta	$17                     ; 0x2017 <f256main+0x1703>
     439: 85 14        	sta	$14                     ; 0x2014 <f256main+0x1700>
     43b: 8a           	txa
     43c: a0 04        	ldy	#$4
     43e: 91 16        	sta	($16),y                 ; 0x2016 <f256main+0x1702>
     440: 18           	clc
     441: a5 18        	lda	$18                     ; 0x2018 <f256main+0x1704>
     443: 69 04        	adc	#$4
     445: a8           	tay
     446: a5 14        	lda	$14                     ; 0x2014 <f256main+0x1700>
     448: 69 00        	adc	#$0
     44a: 84 14        	sty	$14                     ; 0x2014 <f256main+0x1700>
     44c: 85 15        	sta	$15                     ; 0x2015 <f256main+0x1701>
     44e: a5 13        	lda	$13                     ; 0x2013 <f256main+0x16ff>
     450: a0 01        	ldy	#$1
     452: 91 14        	sta	($14),y                 ; 0x2014 <f256main+0x1700>
     454: 60           	rts
     455: 00           	brk

00000456 <_ZN12_GLOBAL__N_19FreeChunk6removeEv>:
     456: a0 01        	ldy	#$1
     458: a9 fe        	lda	#$fe
     45a: 32 12        	and	($12)                   ; 0x2012 <f256main+0x16fe>
     45c: 85 14        	sta	$14                     ; 0x2014 <f256main+0x1700>
     45e: a5 8b        	lda	$8b                     ; 0x208b <f256main+0x1777>
     460: a6 8c        	ldx	$8c                     ; 0x208c <f256main+0x1778>
     462: 86 15        	stx	$15                     ; 0x2015 <f256main+0x1701>
     464: 38           	sec
     465: e5 14        	sbc	$14                     ; 0x2014 <f256main+0x1700>
     467: aa           	tax
     468: a5 15        	lda	$15                     ; 0x2015 <f256main+0x1701>
     46a: f1 12        	sbc	($12),y                 ; 0x2012 <f256main+0x16fe>
     46c: 85 14        	sta	$14                     ; 0x2014 <f256main+0x1700>
     46e: 18           	clc
     46f: 8a           	txa
     470: 69 02        	adc	#$2
     472: 85 15        	sta	$15                     ; 0x2015 <f256main+0x1701>
     474: a5 14        	lda	$14                     ; 0x2014 <f256main+0x1700>
     476: 69 00        	adc	#$0
     478: a6 15        	ldx	$15                     ; 0x2015 <f256main+0x1701>
     47a: 86 8b        	stx	$8b                     ; 0x208b <f256main+0x1777>
     47c: 85 8c        	sta	$8c                     ; 0x208c <f256main+0x1778>
     47e: a5 12        	lda	$12                     ; 0x2012 <f256main+0x16fe>
     480: 18           	clc
     481: 69 02        	adc	#$2
     483: 85 14        	sta	$14                     ; 0x2014 <f256main+0x1700>
     485: a5 13        	lda	$13                     ; 0x2013 <f256main+0x16ff>
     487: 69 00        	adc	#$0
     489: c8           	iny
     48a: 85 15        	sta	$15                     ; 0x2015 <f256main+0x1701>
     48c: b1 12        	lda	($12),y                 ; 0x2012 <f256main+0x16fe>
     48e: aa           	tax
     48f: 88           	dey
     490: b1 14        	lda	($14),y                 ; 0x2014 <f256main+0x1700>
     492: 85 19        	sta	$19                     ; 0x2019 <f256main+0x1705>
     494: c5 13        	cmp	$13                     ; 0x2013 <f256main+0x16ff>
     496: d0 0f        	bne	$4a7 <_ZN12_GLOBAL__N_19FreeChunk6removeEv+0x51>
     498: e4 12        	cpx	$12                     ; 0x2012 <f256main+0x16fe>
     49a: d0 0b        	bne	$4a7 <_ZN12_GLOBAL__N_19FreeChunk6removeEv+0x51>
     49c: a2 00        	ldx	#$0
     49e: 86 14        	stx	$14                     ; 0x2014 <f256main+0x1700>
     4a0: a2 00        	ldx	#$0
     4a2: 86 15        	stx	$15                     ; 0x2015 <f256main+0x1701>
     4a4: 4c 26 05     	jmp	$526 <_ZN12_GLOBAL__N_19FreeChunk6removeEv+0xd0>
     4a7: 86 18        	stx	$18                     ; 0x2018 <f256main+0x1704>
     4a9: a6 12        	ldx	$12                     ; 0x2012 <f256main+0x16fe>
     4ab: a5 12        	lda	$12                     ; 0x2012 <f256main+0x16fe>
     4ad: 86 1b        	stx	$1b                     ; 0x201b <f256main+0x1707>
     4af: 18           	clc
     4b0: 69 04        	adc	#$4
     4b2: 85 14        	sta	$14                     ; 0x2014 <f256main+0x1700>
     4b4: a5 13        	lda	$13                     ; 0x2013 <f256main+0x16ff>
     4b6: 69 00        	adc	#$0
     4b8: a0 04        	ldy	#$4
     4ba: 85 15        	sta	$15                     ; 0x2015 <f256main+0x1701>
     4bc: b1 12        	lda	($12),y                 ; 0x2012 <f256main+0x16fe>
     4be: 85 1c        	sta	$1c                     ; 0x201c <f256main+0x1708>
     4c0: 18           	clc
     4c1: 69 02        	adc	#$2
     4c3: 85 16        	sta	$16                     ; 0x2016 <f256main+0x1702>
     4c5: a0 01        	ldy	#$1
     4c7: b1 14        	lda	($14),y                 ; 0x2014 <f256main+0x1700>
     4c9: aa           	tax
     4ca: 69 00        	adc	#$0
     4cc: a4 16        	ldy	$16                     ; 0x2016 <f256main+0x1702>
     4ce: 84 14        	sty	$14                     ; 0x2014 <f256main+0x1700>
     4d0: 85 15        	sta	$15                     ; 0x2015 <f256main+0x1701>
     4d2: a4 1c        	ldy	$1c                     ; 0x201c <f256main+0x1708>
     4d4: 84 16        	sty	$16                     ; 0x2016 <f256main+0x1702>
     4d6: 86 17        	stx	$17                     ; 0x2017 <f256main+0x1703>
     4d8: a0 02        	ldy	#$2
     4da: a5 18        	lda	$18                     ; 0x2018 <f256main+0x1704>
     4dc: 91 16        	sta	($16),y                 ; 0x2016 <f256main+0x1702>
     4de: a5 19        	lda	$19                     ; 0x2019 <f256main+0x1705>
     4e0: 88           	dey
     4e1: 91 14        	sta	($14),y                 ; 0x2014 <f256main+0x1700>
     4e3: 18           	clc
     4e4: a5 1b        	lda	$1b                     ; 0x201b <f256main+0x1707>
     4e6: 69 02        	adc	#$2
     4e8: 85 14        	sta	$14                     ; 0x2014 <f256main+0x1700>
     4ea: a5 13        	lda	$13                     ; 0x2013 <f256main+0x16ff>
     4ec: 69 00        	adc	#$0
     4ee: 85 15        	sta	$15                     ; 0x2015 <f256main+0x1701>
     4f0: c8           	iny
     4f1: b1 12        	lda	($12),y                 ; 0x2012 <f256main+0x16fe>
     4f3: 85 16        	sta	$16                     ; 0x2016 <f256main+0x1702>
     4f5: 88           	dey
     4f6: b1 14        	lda	($14),y                 ; 0x2014 <f256main+0x1700>
     4f8: a4 16        	ldy	$16                     ; 0x2016 <f256main+0x1702>
     4fa: 84 14        	sty	$14                     ; 0x2014 <f256main+0x1700>
     4fc: 85 15        	sta	$15                     ; 0x2015 <f256main+0x1701>
     4fe: 85 17        	sta	$17                     ; 0x2017 <f256main+0x1703>
     500: a0 04        	ldy	#$4
     502: a5 1c        	lda	$1c                     ; 0x201c <f256main+0x1708>
     504: 91 14        	sta	($14),y                 ; 0x2014 <f256main+0x1700>
     506: 18           	clc
     507: a5 16        	lda	$16                     ; 0x2016 <f256main+0x1702>
     509: 69 04        	adc	#$4
     50b: 85 16        	sta	$16                     ; 0x2016 <f256main+0x1702>
     50d: a5 17        	lda	$17                     ; 0x2017 <f256main+0x1703>
     50f: 69 00        	adc	#$0
     511: 85 17        	sta	$17                     ; 0x2017 <f256main+0x1703>
     513: 8a           	txa
     514: a0 01        	ldy	#$1
     516: 91 16        	sta	($16),y                 ; 0x2016 <f256main+0x1702>
     518: ae 44 86     	ldx	$8644                   ; 0x8644 <_ZN12_GLOBAL__N_19free_listE+0x1>
     51b: e4 13        	cpx	$13                     ; 0x2013 <f256main+0x16ff>
     51d: d0 11        	bne	$530 <_ZN12_GLOBAL__N_19FreeChunk6removeEv+0xda>
     51f: ae 43 86     	ldx	$8643                   ; 0x8643 <_ZN12_GLOBAL__N_19free_listE>
     522: e4 12        	cpx	$12                     ; 0x2012 <f256main+0x16fe>
     524: d0 0a        	bne	$530 <_ZN12_GLOBAL__N_19FreeChunk6removeEv+0xda>
     526: a6 14        	ldx	$14                     ; 0x2014 <f256main+0x1700>
     528: a4 15        	ldy	$15                     ; 0x2015 <f256main+0x1701>
     52a: 8e 43 86     	stx	$8643                   ; 0x8643 <_ZN12_GLOBAL__N_19free_listE>
     52d: 8c 44 86     	sty	$8644                   ; 0x8644 <_ZN12_GLOBAL__N_19free_listE+0x1>
     530: 60           	rts

00000531 <__zero_bss>:
     531: a2 08        	ldx	#$8
     533: a0 00        	ldy	#$0
     535: a9 3d        	lda	#$3d
     537: 85 12        	sta	$12                     ; 0x2012 <f256main+0x16fe>
     539: a9 86        	lda	#$86
     53b: 85 13        	sta	$13                     ; 0x2013 <f256main+0x16ff>
     53d: a9 00        	lda	#$0
     53f: 84 14        	sty	$14                     ; 0x2014 <f256main+0x1700>
     541: 4c 7e 60     	jmp	$607e <__memset>

00000544 <__zero_zp_bss>:
     544: a2 5a        	ldx	#$5a
     546: a0 00        	ldy	#$0
     548: a9 33        	lda	#$33
     54a: 85 12        	sta	$12                     ; 0x2012 <f256main+0x16fe>
     54c: a9 00        	lda	#$0
     54e: 85 13        	sta	$13                     ; 0x2013 <f256main+0x16ff>
     550: a9 00        	lda	#$0
     552: 84 14        	sty	$14                     ; 0x2014 <f256main+0x1700>
     554: 4c 7e 60     	jmp	$607e <__memset>

00000557 <__copy_zp_data>:
     557: a9 03        	lda	#$3
     559: a2 00        	ldx	#$0
     55b: a0 30        	ldy	#$30
     55d: 84 12        	sty	$12                     ; 0x2012 <f256main+0x16fe>
     55f: a0 00        	ldy	#$0
     561: 84 13        	sty	$13                     ; 0x2013 <f256main+0x16ff>
     563: a0 00        	ldy	#$0
     565: 84 14        	sty	$14                     ; 0x2014 <f256main+0x1700>
     567: a0 03        	ldy	#$3
     569: 84 15        	sty	$15                     ; 0x2015 <f256main+0x1701>
     56b: 4c 52 60     	jmp	$6052 <memcpy>

0000056e <f256Init>:
     56e: 64 14        	stz	$14                     ; 0x2014 <f256main+0x1700>
     570: a2 00        	ldx	#$0
     572: 86 12        	stx	$12                     ; 0x2012 <f256main+0x16fe>
     574: a2 c0        	ldx	#$c0
     576: 86 13        	stx	$13                     ; 0x2013 <f256main+0x16ff>
     578: 64 01        	stz	$1                      ; 0x2001 <f256main+0x16ed>
     57a: a2 3f        	ldx	#$3f
     57c: 8e 00 d0     	stx	$d000                   ; 0xd000 <__heap_start+0x49ba>
     57f: a2 b3        	ldx	#$b3
     581: 86 00        	stx	$0                      ; 0x2000 <f256main+0x16ec>
     583: 64 08        	stz	$8                      ; 0x2008 <f256main+0x16f4>
     585: a2 01        	ldx	#$1
     587: 86 09        	stx	$9                      ; 0x2009 <f256main+0x16f5>
     589: e8           	inx
     58a: 86 0a        	stx	$a                      ; 0x200a <f256main+0x16f6>
     58c: e8           	inx
     58d: 86 0b        	stx	$b                      ; 0x200b <f256main+0x16f7>
     58f: e8           	inx
     590: 86 0c        	stx	$c                      ; 0x200c <f256main+0x16f8>
     592: e8           	inx
     593: 86 0d        	stx	$d                      ; 0x200d <f256main+0x16f9>
     595: a2 83        	ldx	#$83
     597: a0 00        	ldy	#$0
     599: 86 f0        	stx	$f0                     ; 0x20f0 <f256main+0x17dc>
     59b: 84 f1        	sty	$f1                     ; 0x20f1 <f256main+0x17dd>
     59d: a2 00        	ldx	#$0
     59f: 86 18        	stx	$18                     ; 0x2018 <f256main+0x1704>
     5a1: ca           	dex
     5a2: 86 19        	stx	$19                     ; 0x2019 <f256main+0x1705>
     5a4: 8a           	txa
     5a5: 0a           	asl
     5a6: 0a           	asl
     5a7: 18           	clc
     5a8: 69 d4        	adc	#$d4
     5aa: 85 1a        	sta	$1a                     ; 0x201a <f256main+0x1706>
     5ac: a0 00        	ldy	#$0
     5ae: 64 17        	stz	$17                     ; 0x2017 <f256main+0x1703>
     5b0: 64 16        	stz	$16                     ; 0x2016 <f256main+0x1702>
     5b2: a6 19        	ldx	$19                     ; 0x2019 <f256main+0x1705>
     5b4: e0 03        	cpx	#$3
     5b6: a6 01        	ldx	$1                      ; 0x2001 <f256main+0x16ed>
     5b8: 86 1c        	stx	$1c                     ; 0x201c <f256main+0x1708>
     5ba: a2 d0        	ldx	#$d0
     5bc: 84 1b        	sty	$1b                     ; 0x201b <f256main+0x1707>
     5be: b0 02        	bcs	$5c2 <f256Init+0x54>
     5c0: a6 1a        	ldx	$1a                     ; 0x201a <f256main+0x1706>
     5c2: 86 15        	stx	$15                     ; 0x2015 <f256main+0x1701>
     5c4: a5 17        	lda	$17                     ; 0x2017 <f256main+0x1703>
     5c6: 18           	clc
     5c7: 65 14        	adc	$14                     ; 0x2014 <f256main+0x1700>
     5c9: a8           	tay
     5ca: a6 17        	ldx	$17                     ; 0x2017 <f256main+0x1703>
     5cc: a5 16        	lda	$16                     ; 0x2016 <f256main+0x1702>
     5ce: 85 1d        	sta	$1d                     ; 0x201d <f256main+0x1709>
     5d0: a5 16        	lda	$16                     ; 0x2016 <f256main+0x1702>
     5d2: 65 15        	adc	$15                     ; 0x2015 <f256main+0x1701>
     5d4: 84 16        	sty	$16                     ; 0x2016 <f256main+0x1702>
     5d6: a0 01        	ldy	#$1
     5d8: 84 01        	sty	$1                      ; 0x2001 <f256main+0x16ed>
     5da: 85 17        	sta	$17                     ; 0x2017 <f256main+0x1703>
     5dc: a5 1b        	lda	$1b                     ; 0x201b <f256main+0x1707>
     5de: 92 16        	sta	($16)                   ; 0x2016 <f256main+0x1702>
     5e0: 91 16        	sta	($16),y                 ; 0x2016 <f256main+0x1702>
     5e2: c8           	iny
     5e3: 91 16        	sta	($16),y                 ; 0x2016 <f256main+0x1702>
     5e5: 85 15        	sta	$15                     ; 0x2015 <f256main+0x1701>
     5e7: c8           	iny
     5e8: a9 ff        	lda	#$ff
     5ea: 91 16        	sta	($16),y                 ; 0x2016 <f256main+0x1702>
     5ec: 8a           	txa
     5ed: a6 1c        	ldx	$1c                     ; 0x201c <f256main+0x1708>
     5ef: 86 01        	stx	$1                      ; 0x2001 <f256main+0x16ed>
     5f1: 18           	clc
     5f2: 69 04        	adc	#$4
     5f4: 85 17        	sta	$17                     ; 0x2017 <f256main+0x1703>
     5f6: a5 1d        	lda	$1d                     ; 0x201d <f256main+0x1709>
     5f8: 69 00        	adc	#$0
     5fa: e6 15        	inc	$15                     ; 0x2015 <f256main+0x1701>
     5fc: a4 15        	ldy	$15                     ; 0x2015 <f256main+0x1701>
     5fe: 85 16        	sta	$16                     ; 0x2016 <f256main+0x1702>
     600: c9 04        	cmp	#$4
     602: f0 03        	beq	$607 <f256Init+0x99>
     604: 4c b2 05     	jmp	$5b2 <f256Init+0x44>
     607: a5 17        	lda	$17                     ; 0x2017 <f256main+0x1703>
     609: f0 03        	beq	$60e <f256Init+0xa0>
     60b: 4c b2 05     	jmp	$5b2 <f256Init+0x44>
     60e: a6 18        	ldx	$18                     ; 0x2018 <f256main+0x1704>
     610: e8           	inx
     611: e0 04        	cpx	#$4
     613: f0 03        	beq	$618 <f256Init+0xaa>
     615: 4c 9f 05     	jmp	$59f <f256Init+0x31>
     618: ad 02 d0     	lda	$d002                   ; 0xd002 <__heap_start+0x49bc>
     61b: a2 f0        	ldx	#$f0
     61d: 29 f0        	and	#$f0
     61f: 8d 02 d0     	sta	$d002                   ; 0xd002 <__heap_start+0x49bc>
     622: ad 02 d0     	lda	$d002                   ; 0xd002 <__heap_start+0x49bc>
     625: 29 0f        	and	#$f
     627: 09 10        	ora	#$10
     629: 8d 02 d0     	sta	$d002                   ; 0xd002 <__heap_start+0x49bc>
     62c: a0 02        	ldy	#$2
     62e: 8c 03 d0     	sty	$d003                   ; 0xd003 <__heap_start+0x49bd>
     631: 86 30        	stx	$30                     ; 0x2030 <f256main+0x171c>
     633: ad 01 d0     	lda	$d001                   ; 0xd001 <__heap_start+0x49bb>
     636: 29 f9        	and	#$f9
     638: 09 04        	ora	#$4
     63a: 8d 01 d0     	sta	$d001                   ; 0xd001 <__heap_start+0x49bb>
     63d: 64 14        	stz	$14                     ; 0x2014 <f256main+0x1700>
     63f: 9c 10 d0     	stz	$d010                   ; 0xd010 <__heap_start+0x49ca>
     642: a2 00        	ldx	#$0
     644: 64 15        	stz	$15                     ; 0x2015 <f256main+0x1701>
     646: 86 18        	stx	$18                     ; 0x2018 <f256main+0x1704>
     648: a4 18        	ldy	$18                     ; 0x2018 <f256main+0x1704>
     64a: be 5b 82     	ldx	$825b,y                 ; 0x825b <textColors>
     64d: 86 19        	stx	$19                     ; 0x2019 <f256main+0x1705>
     64f: be 5c 82     	ldx	$825c,y                 ; 0x825c <textColors+0x1>
     652: 86 1a        	stx	$1a                     ; 0x201a <f256main+0x1706>
     654: be 5d 82     	ldx	$825d,y                 ; 0x825d <textColors+0x2>
     657: 86 1b        	stx	$1b                     ; 0x201b <f256main+0x1707>
     659: a6 15        	ldx	$15                     ; 0x2015 <f256main+0x1701>
     65b: 8e 00 de     	stx	$de00                   ; 0xde00 <__heap_start+0x57ba>
     65e: 86 17        	stx	$17                     ; 0x2017 <f256main+0x1703>
     660: 9c 01 de     	stz	$de01                   ; 0xde01 <__heap_start+0x57bb>
     663: a2 04        	ldx	#$4
     665: 8e 02 de     	stx	$de02                   ; 0xde02 <__heap_start+0x57bc>
     668: 9c 03 de     	stz	$de03                   ; 0xde03 <__heap_start+0x57bd>
     66b: ad 10 de     	lda	$de10                   ; 0xde10 <__heap_start+0x57ca>
     66e: ac 11 de     	ldy	$de11                   ; 0xde11 <__heap_start+0x57cb>
     671: 84 15        	sty	$15                     ; 0x2015 <f256main+0x1701>
     673: ac 12 de     	ldy	$de12                   ; 0xde12 <__heap_start+0x57cc>
     676: ac 13 de     	ldy	$de13                   ; 0xde13 <__heap_start+0x57cd>
     679: 18           	clc
     67a: 65 14        	adc	$14                     ; 0x2014 <f256main+0x1700>
     67c: 85 16        	sta	$16                     ; 0x2016 <f256main+0x1702>
     67e: a6 17        	ldx	$17                     ; 0x2017 <f256main+0x1703>
     680: a9 d8        	lda	#$d8
     682: 65 15        	adc	$15                     ; 0x2015 <f256main+0x1701>
     684: 85 17        	sta	$17                     ; 0x2017 <f256main+0x1703>
     686: a5 1b        	lda	$1b                     ; 0x201b <f256main+0x1707>
     688: 92 16        	sta	($16)                   ; 0x2016 <f256main+0x1702>
     68a: a0 01        	ldy	#$1
     68c: a5 1a        	lda	$1a                     ; 0x201a <f256main+0x1706>
     68e: 91 16        	sta	($16),y                 ; 0x2016 <f256main+0x1702>
     690: c8           	iny
     691: a5 19        	lda	$19                     ; 0x2019 <f256main+0x1705>
     693: 91 16        	sta	($16),y                 ; 0x2016 <f256main+0x1702>
     695: c8           	iny
     696: a9 ff        	lda	#$ff
     698: 91 16        	sta	($16),y                 ; 0x2016 <f256main+0x1702>
     69a: 8e 00 de     	stx	$de00                   ; 0xde00 <__heap_start+0x57ba>
     69d: 9c 01 de     	stz	$de01                   ; 0xde01 <__heap_start+0x57bb>
     6a0: c8           	iny
     6a1: 8c 02 de     	sty	$de02                   ; 0xde02 <__heap_start+0x57bc>
     6a4: 9c 03 de     	stz	$de03                   ; 0xde03 <__heap_start+0x57bd>
     6a7: ad 10 de     	lda	$de10                   ; 0xde10 <__heap_start+0x57ca>
     6aa: 85 15        	sta	$15                     ; 0x2015 <f256main+0x1701>
     6ac: ad 11 de     	lda	$de11                   ; 0xde11 <__heap_start+0x57cb>
     6af: 85 16        	sta	$16                     ; 0x2016 <f256main+0x1702>
     6b1: a9 40        	lda	#$40
     6b3: 18           	clc
     6b4: 65 15        	adc	$15                     ; 0x2015 <f256main+0x1701>
     6b6: a8           	tay
     6b7: a9 d8        	lda	#$d8
     6b9: 65 16        	adc	$16                     ; 0x2016 <f256main+0x1702>
     6bb: 85 17        	sta	$17                     ; 0x2017 <f256main+0x1703>
     6bd: 84 16        	sty	$16                     ; 0x2016 <f256main+0x1702>
     6bf: ad 12 de     	lda	$de12                   ; 0xde12 <__heap_start+0x57cc>
     6c2: ad 13 de     	lda	$de13                   ; 0xde13 <__heap_start+0x57cd>
     6c5: a5 1b        	lda	$1b                     ; 0x201b <f256main+0x1707>
     6c7: 92 16        	sta	($16)                   ; 0x2016 <f256main+0x1702>
     6c9: a5 1a        	lda	$1a                     ; 0x201a <f256main+0x1706>
     6cb: a0 01        	ldy	#$1
     6cd: 91 16        	sta	($16),y                 ; 0x2016 <f256main+0x1702>
     6cf: a5 19        	lda	$19                     ; 0x2019 <f256main+0x1705>
     6d1: c8           	iny
     6d2: 91 16        	sta	($16),y                 ; 0x2016 <f256main+0x1702>
     6d4: c8           	iny
     6d5: a9 ff        	lda	#$ff
     6d7: 91 16        	sta	($16),y                 ; 0x2016 <f256main+0x1702>
     6d9: e8           	inx
     6da: 86 15        	stx	$15                     ; 0x2015 <f256main+0x1701>
     6dc: 18           	clc
     6dd: a5 18        	lda	$18                     ; 0x2018 <f256main+0x1704>
     6df: 69 03        	adc	#$3
     6e1: aa           	tax
     6e2: c9 30        	cmp	#$30
     6e4: f0 03        	beq	$6e9 <f256Init+0x17b>
     6e6: 4c 46 06     	jmp	$646 <f256Init+0xd8>
     6e9: a6 01        	ldx	$1                      ; 0x2001 <f256main+0x16ed>
     6eb: 86 18        	stx	$18                     ; 0x2018 <f256main+0x1704>
     6ed: a2 50        	ldx	#$50
     6ef: 8e 00 de     	stx	$de00                   ; 0xde00 <__heap_start+0x57ba>
     6f2: 9c 01 de     	stz	$de01                   ; 0xde01 <__heap_start+0x57bb>
     6f5: a2 1e        	ldx	#$1e
     6f7: 8e 02 de     	stx	$de02                   ; 0xde02 <__heap_start+0x57bc>
     6fa: 9c 03 de     	stz	$de03                   ; 0xde03 <__heap_start+0x57bd>
     6fd: ae 10 de     	ldx	$de10                   ; 0xde10 <__heap_start+0x57ca>
     700: ac 11 de     	ldy	$de11                   ; 0xde11 <__heap_start+0x57cb>
     703: ad 12 de     	lda	$de12                   ; 0xde12 <__heap_start+0x57cc>
     706: ad 13 de     	lda	$de13                   ; 0xde13 <__heap_start+0x57cd>
     709: a9 02        	lda	#$2
     70b: 85 01        	sta	$1                      ; 0x2001 <f256main+0x16ed>
     70d: e0 01        	cpx	#$1
     70f: 98           	tya
     710: e9 00        	sbc	#$0
     712: 50 02        	bvc	$716 <f256Init+0x1a8>
     714: 49 80        	eor	#$80
     716: c9 00        	cmp	#$0
     718: 30 4c        	bmi	$766 <f256Init+0x1f8>
     71a: a9 20        	lda	#$20
     71c: 86 19        	stx	$19                     ; 0x2019 <f256main+0x1705>
     71e: 86 14        	stx	$14                     ; 0x2014 <f256main+0x1700>
     720: 84 15        	sty	$15                     ; 0x2015 <f256main+0x1701>
     722: a2 00        	ldx	#$0
     724: 86 16        	stx	$16                     ; 0x2016 <f256main+0x1702>
     726: a2 c0        	ldx	#$c0
     728: 86 17        	stx	$17                     ; 0x2017 <f256main+0x1703>
     72a: 92 16        	sta	($16)                   ; 0x2016 <f256main+0x1702>
     72c: e6 16        	inc	$16                     ; 0x2016 <f256main+0x1702>
     72e: d0 02        	bne	$732 <f256Init+0x1c4>
     730: e6 17        	inc	$17                     ; 0x2017 <f256main+0x1703>
     732: a2 ff        	ldx	#$ff
     734: c6 14        	dec	$14                     ; 0x2014 <f256main+0x1700>
     736: e4 14        	cpx	$14                     ; 0x2014 <f256main+0x1700>
     738: d0 02        	bne	$73c <f256Init+0x1ce>
     73a: c6 15        	dec	$15                     ; 0x2015 <f256main+0x1701>
     73c: a6 15        	ldx	$15                     ; 0x2015 <f256main+0x1701>
     73e: d0 ea        	bne	$72a <f256Init+0x1bc>
     740: a6 14        	ldx	$14                     ; 0x2014 <f256main+0x1700>
     742: d0 e6        	bne	$72a <f256Init+0x1bc>
     744: a2 03        	ldx	#$3
     746: 86 01        	stx	$1                      ; 0x2001 <f256main+0x16ed>
     748: a6 30        	ldx	$30                     ; 0x2030 <f256main+0x171c>
     74a: 86 14        	stx	$14                     ; 0x2014 <f256main+0x1700>
     74c: a6 19        	ldx	$19                     ; 0x2019 <f256main+0x1705>
     74e: a5 14        	lda	$14                     ; 0x2014 <f256main+0x1700>
     750: 92 12        	sta	($12)                   ; 0x2012 <f256main+0x16fe>
     752: e6 12        	inc	$12                     ; 0x2012 <f256main+0x16fe>
     754: d0 02        	bne	$758 <f256Init+0x1ea>
     756: e6 13        	inc	$13                     ; 0x2013 <f256main+0x16ff>
     758: ca           	dex
     759: e0 ff        	cpx	#$ff
     75b: d0 01        	bne	$75e <f256Init+0x1f0>
     75d: 88           	dey
     75e: 98           	tya
     75f: d0 ed        	bne	$74e <f256Init+0x1e0>
     761: 8a           	txa
     762: d0 ea        	bne	$74e <f256Init+0x1e0>
     764: 80 04        	bra	$76a <f256Init+0x1fc>
     766: a2 03        	ldx	#$3
     768: 86 01        	stx	$1                      ; 0x2001 <f256main+0x16ed>
     76a: a6 18        	ldx	$18                     ; 0x2018 <f256main+0x1704>
     76c: 86 01        	stx	$1                      ; 0x2001 <f256main+0x16ed>
     76e: 64 33        	stz	$33                     ; 0x2033 <f256main+0x171f>
     770: 9c 14 d0     	stz	$d014                   ; 0xd014 <__heap_start+0x49ce>
     773: 9c 15 d0     	stz	$d015                   ; 0xd015 <__heap_start+0x49cf>
     776: 64 34        	stz	$34                     ; 0x2034 <f256main+0x1720>
     778: 9c 16 d0     	stz	$d016                   ; 0xd016 <__heap_start+0x49d0>
     77b: 9c 17 d0     	stz	$d017                   ; 0xd017 <__heap_start+0x49d1>
     77e: a2 40        	ldx	#$40
     780: 8e 00 de     	stx	$de00                   ; 0xde00 <__heap_start+0x57ba>
     783: a2 01        	ldx	#$1
     785: 8e 01 de     	stx	$de01                   ; 0xde01 <__heap_start+0x57bb>
     788: a2 f0        	ldx	#$f0
     78a: 8e 02 de     	stx	$de02                   ; 0xde02 <__heap_start+0x57bc>
     78d: 9c 03 de     	stz	$de03                   ; 0xde03 <__heap_start+0x57bd>
     790: ae 10 de     	ldx	$de10                   ; 0xde10 <__heap_start+0x57ca>
     793: 86 17        	stx	$17                     ; 0x2017 <f256main+0x1703>
     795: ae 11 de     	ldx	$de11                   ; 0xde11 <__heap_start+0x57cb>
     798: 86 12        	stx	$12                     ; 0x2012 <f256main+0x16fe>
     79a: ae 12 de     	ldx	$de12                   ; 0xde12 <__heap_start+0x57cc>
     79d: 86 13        	stx	$13                     ; 0x2013 <f256main+0x16ff>
     79f: ae 13 de     	ldx	$de13                   ; 0xde13 <__heap_start+0x57cd>
     7a2: 86 14        	stx	$14                     ; 0x2014 <f256main+0x1700>
     7a4: a4 12        	ldy	$12                     ; 0x2012 <f256main+0x16fe>
     7a6: 84 15        	sty	$15                     ; 0x2015 <f256main+0x1701>
     7a8: 06 15        	asl	$15                     ; 0x2015 <f256main+0x1701>
     7aa: a5 13        	lda	$13                     ; 0x2013 <f256main+0x16ff>
     7ac: 2a           	rol
     7ad: 86 16        	stx	$16                     ; 0x2016 <f256main+0x1702>
     7af: 26 16        	rol	$16                     ; 0x2016 <f256main+0x1702>
     7b1: 06 15        	asl	$15                     ; 0x2015 <f256main+0x1701>
     7b3: 2a           	rol
     7b4: 26 16        	rol	$16                     ; 0x2016 <f256main+0x1702>
     7b6: 06 15        	asl	$15                     ; 0x2015 <f256main+0x1701>
     7b8: 2a           	rol
     7b9: 26 16        	rol	$16                     ; 0x2016 <f256main+0x1702>
     7bb: 85 15        	sta	$15                     ; 0x2015 <f256main+0x1701>
     7bd: 8d 00 de     	sta	$de00                   ; 0xde00 <__heap_start+0x57ba>
     7c0: a5 16        	lda	$16                     ; 0x2016 <f256main+0x1702>
     7c2: 8d 01 de     	sta	$de01                   ; 0xde01 <__heap_start+0x57bb>
     7c5: 9c 02 de     	stz	$de02                   ; 0xde02 <__heap_start+0x57bc>
     7c8: a2 20        	ldx	#$20
     7ca: 8e 03 de     	stx	$de03                   ; 0xde03 <__heap_start+0x57bd>
     7cd: ae 10 de     	ldx	$de10                   ; 0xde10 <__heap_start+0x57ca>
     7d0: 86 16        	stx	$16                     ; 0x2016 <f256main+0x1702>
     7d2: ae 11 de     	ldx	$de11                   ; 0xde11 <__heap_start+0x57cb>
     7d5: 86 18        	stx	$18                     ; 0x2018 <f256main+0x1704>
     7d7: ac 12 de     	ldy	$de12                   ; 0xde12 <__heap_start+0x57cc>
     7da: ae 13 de     	ldx	$de13                   ; 0xde13 <__heap_start+0x57cd>
     7dd: e4 14        	cpx	$14                     ; 0x2014 <f256main+0x1700>
     7df: d0 14        	bne	$7f5 <f256Init+0x287>
     7e1: c4 13        	cpy	$13                     ; 0x2013 <f256main+0x16ff>
     7e3: d0 10        	bne	$7f5 <f256Init+0x287>
     7e5: a6 18        	ldx	$18                     ; 0x2018 <f256main+0x1704>
     7e7: e4 12        	cpx	$12                     ; 0x2012 <f256main+0x16fe>
     7e9: d0 0a        	bne	$7f5 <f256Init+0x287>
     7eb: a6 16        	ldx	$16                     ; 0x2016 <f256main+0x1702>
     7ed: e4 17        	cpx	$17                     ; 0x2017 <f256main+0x1703>
     7ef: d0 04        	bne	$7f5 <f256Init+0x287>
     7f1: a6 15        	ldx	$15                     ; 0x2015 <f256main+0x1701>
     7f3: 80 06        	bra	$7fb <f256Init+0x28d>
     7f5: a6 15        	ldx	$15                     ; 0x2015 <f256main+0x1701>
     7f7: e8           	inx
     7f8: d0 01        	bne	$7fb <f256Init+0x28d>
     7fa: 1a           	inc
     7fb: 8e 00 de     	stx	$de00                   ; 0xde00 <__heap_start+0x57ba>
     7fe: 8d 01 de     	sta	$de01                   ; 0xde01 <__heap_start+0x57bb>
     801: 9c 02 de     	stz	$de02                   ; 0xde02 <__heap_start+0x57bc>
     804: a2 20        	ldx	#$20
     806: 8e 03 de     	stx	$de03                   ; 0xde03 <__heap_start+0x57bd>
     809: ae 10 de     	ldx	$de10                   ; 0xde10 <__heap_start+0x57ca>
     80c: 86 12        	stx	$12                     ; 0x2012 <f256main+0x16fe>
     80e: ae 11 de     	ldx	$de11                   ; 0xde11 <__heap_start+0x57cb>
     811: 86 13        	stx	$13                     ; 0x2013 <f256main+0x16ff>
     813: ae 12 de     	ldx	$de12                   ; 0xde12 <__heap_start+0x57cc>
     816: 86 14        	stx	$14                     ; 0x2014 <f256main+0x1700>
     818: ae 13 de     	ldx	$de13                   ; 0xde13 <__heap_start+0x57cd>
     81b: 86 15        	stx	$15                     ; 0x2015 <f256main+0x1701>
     81d: a9 00        	lda	#$0
     81f: 38           	sec
     820: e5 12        	sbc	$12                     ; 0x2012 <f256main+0x16fe>
     822: 85 17        	sta	$17                     ; 0x2017 <f256main+0x1703>
     824: a9 00        	lda	#$0
     826: e5 13        	sbc	$13                     ; 0x2013 <f256main+0x16ff>
     828: aa           	tax
     829: a9 08        	lda	#$8
     82b: e5 14        	sbc	$14                     ; 0x2014 <f256main+0x1700>
     82d: 85 16        	sta	$16                     ; 0x2016 <f256main+0x1702>
     82f: a9 00        	lda	#$0
     831: e5 15        	sbc	$15                     ; 0x2015 <f256main+0x1701>
     833: 8e 3e 86     	stx	$863e                   ; 0x863e <__bss_start+0x1>
     836: a4 16        	ldy	$16                     ; 0x2016 <f256main+0x1702>
     838: 8c 3f 86     	sty	$863f                   ; 0x863f <__bss_start+0x2>
     83b: 8d 40 86     	sta	$8640                   ; 0x8640 <__bss_start+0x3>
     83e: 38           	sec
     83f: a5 17        	lda	$17                     ; 0x2017 <f256main+0x1703>
     841: e5 12        	sbc	$12                     ; 0x2012 <f256main+0x16fe>
     843: a8           	tay
     844: 8a           	txa
     845: e5 13        	sbc	$13                     ; 0x2013 <f256main+0x16ff>
     847: 85 18        	sta	$18                     ; 0x2018 <f256main+0x1704>
     849: a5 16        	lda	$16                     ; 0x2016 <f256main+0x1702>
     84b: e5 14        	sbc	$14                     ; 0x2014 <f256main+0x1700>
     84d: 85 15        	sta	$15                     ; 0x2015 <f256main+0x1701>
     84f: 98           	tya
     850: 84 16        	sty	$16                     ; 0x2016 <f256main+0x1702>
     852: 38           	sec
     853: e5 12        	sbc	$12                     ; 0x2012 <f256main+0x16fe>
     855: 85 12        	sta	$12                     ; 0x2012 <f256main+0x16fe>
     857: a5 18        	lda	$18                     ; 0x2018 <f256main+0x1704>
     859: e5 13        	sbc	$13                     ; 0x2013 <f256main+0x16ff>
     85b: 85 13        	sta	$13                     ; 0x2013 <f256main+0x16ff>
     85d: a4 15        	ldy	$15                     ; 0x2015 <f256main+0x1701>
     85f: a5 15        	lda	$15                     ; 0x2015 <f256main+0x1701>
     861: e5 14        	sbc	$14                     ; 0x2014 <f256main+0x1700>
     863: a6 17        	ldx	$17                     ; 0x2017 <f256main+0x1703>
     865: 8e 3d 86     	stx	$863d                   ; 0x863d <__bss_start>
     868: 8e 01 d1     	stx	$d101                   ; 0xd101 <__heap_start+0x4abb>
     86b: ae 3e 86     	ldx	$863e                   ; 0x863e <__bss_start+0x1>
     86e: 8e 02 d1     	stx	$d102                   ; 0xd102 <__heap_start+0x4abc>
     871: ae 3f 86     	ldx	$863f                   ; 0x863f <__bss_start+0x2>
     874: 8e 03 d1     	stx	$d103                   ; 0xd103 <__heap_start+0x4abd>
     877: a6 16        	ldx	$16                     ; 0x2016 <f256main+0x1702>
     879: 8e 09 d1     	stx	$d109                   ; 0xd109 <__heap_start+0x4ac3>
     87c: a6 18        	ldx	$18                     ; 0x2018 <f256main+0x1704>
     87e: 8e 0a d1     	stx	$d10a                   ; 0xd10a <__heap_start+0x4ac4>
     881: 8c 0b d1     	sty	$d10b                   ; 0xd10b <__heap_start+0x4ac5>
     884: a6 12        	ldx	$12                     ; 0x2012 <f256main+0x16fe>
     886: 8e 11 d1     	stx	$d111                   ; 0xd111 <__heap_start+0x4acb>
     889: a6 13        	ldx	$13                     ; 0x2013 <f256main+0x16ff>
     88b: 8e 12 d1     	stx	$d112                   ; 0xd112 <__heap_start+0x4acc>
     88e: 8d 13 d1     	sta	$d113                   ; 0xd113 <__heap_start+0x4acd>
     891: 9c 00 d1     	stz	$d100                   ; 0xd100 <__heap_start+0x4aba>
     894: 9c 08 d1     	stz	$d108                   ; 0xd108 <__heap_start+0x4ac2>
     897: 9c 10 d1     	stz	$d110                   ; 0xd110 <__heap_start+0x4aca>
     89a: a2 10        	ldx	#$10
     89c: 8e 00 d2     	stx	$d200                   ; 0xd200 <__heap_start+0x4bba>
     89f: 8e 0c d2     	stx	$d20c                   ; 0xd20c <__heap_start+0x4bc6>
     8a2: 8e 18 d2     	stx	$d218                   ; 0xd218 <__heap_start+0x4bd2>
     8a5: a0 d9        	ldy	#$d9
     8a7: a2 40        	ldx	#$40
     8a9: 64 12        	stz	$12                     ; 0x2012 <f256main+0x16fe>
     8ab: 84 13        	sty	$13                     ; 0x2013 <f256main+0x16ff>
     8ad: a9 00        	lda	#$0
     8af: 92 12        	sta	($12)                   ; 0x2012 <f256main+0x16fe>
     8b1: ca           	dex
     8b2: 18           	clc
     8b3: a5 12        	lda	$12                     ; 0x2012 <f256main+0x16fe>
     8b5: 69 08        	adc	#$8
     8b7: 85 12        	sta	$12                     ; 0x2012 <f256main+0x16fe>
     8b9: 98           	tya
     8ba: 69 00        	adc	#$0
     8bc: a8           	tay
     8bd: 8a           	txa
     8be: d0 eb        	bne	$8ab <f256Init+0x33d>
     8c0: a2 8d        	ldx	#$8d
     8c2: a0 00        	ldy	#$0
     8c4: 86 fb        	stx	$fb                     ; 0x20fb <f256main+0x17e7>
     8c6: 84 fc        	sty	$fc                     ; 0x20fc <f256main+0x17e8>
     8c8: a2 08        	ldx	#$8
     8ca: 86 fd        	stx	$fd                     ; 0x20fd <f256main+0x17e9>
     8cc: a2 95        	ldx	#$95
     8ce: a0 00        	ldy	#$0
     8d0: 86 12        	stx	$12                     ; 0x2012 <f256main+0x16fe>
     8d2: 84 13        	sty	$13                     ; 0x2013 <f256main+0x16ff>
     8d4: a2 41        	ldx	#$41
     8d6: 86 14        	stx	$14                     ; 0x2014 <f256main+0x1700>
     8d8: a2 86        	ldx	#$86
     8da: 86 15        	stx	$15                     ; 0x2015 <f256main+0x1701>
     8dc: 20 dc ff     	jsr	$ffdc <__heap_start+0x7996>
     8df: 92 12        	sta	($12)                   ; 0x2012 <f256main+0x16fe>
     8e1: a9 00        	lda	#$0
     8e3: 6a           	ror
     8e4: 85 14        	sta	$14                     ; 0x2014 <f256main+0x1700>
     8e6: a6 93        	ldx	$93                     ; 0x2093 <f256main+0x177f>
     8e8: a4 94        	ldy	$94                     ; 0x2094 <f256main+0x1780>
     8ea: 8e 00 de     	stx	$de00                   ; 0xde00 <__heap_start+0x57ba>
     8ed: 9c 01 de     	stz	$de01                   ; 0xde01 <__heap_start+0x57bb>
     8f0: 8c 02 de     	sty	$de02                   ; 0xde02 <__heap_start+0x57bc>
     8f3: 9c 03 de     	stz	$de03                   ; 0xde03 <__heap_start+0x57bd>
     8f6: ae 10 de     	ldx	$de10                   ; 0xde10 <__heap_start+0x57ca>
     8f9: ac 11 de     	ldy	$de11                   ; 0xde11 <__heap_start+0x57cb>
     8fc: ad 12 de     	lda	$de12                   ; 0xde12 <__heap_start+0x57cc>
     8ff: ad 13 de     	lda	$de13                   ; 0xde13 <__heap_start+0x57cd>
     902: 8e a4 d6     	stx	$d6a4                   ; 0xd6a4 <__heap_start+0x505e>
     905: 8c a5 d6     	sty	$d6a5                   ; 0xd6a5 <__heap_start+0x505f>
     908: a2 03        	ldx	#$3
     90a: 8e a6 d6     	stx	$d6a6                   ; 0xd6a6 <__heap_start+0x5060>
     90d: 60           	rts

0000090e <main>:
     90e: 20 6e 05     	jsr	$56e <f256Init>
     911: 20 14 09     	jsr	$914 <f256main>

00000914 <f256main>:
     914: 18           	clc
     915: a5 10        	lda	$10                     ; 0x2010 <f256main+0x16fc>
     917: 69 de        	adc	#$de
     919: 85 10        	sta	$10                     ; 0x2010 <f256main+0x16fc>
     91b: a5 11        	lda	$11                     ; 0x2011 <f256main+0x16fd>
     91d: 69 ff        	adc	#$ff
     91f: 85 11        	sta	$11                     ; 0x2011 <f256main+0x16fd>
     921: a9 00        	lda	#$0
     923: 64 01        	stz	$1                      ; 0x2001 <f256main+0x16ed>
     925: 18           	clc
     926: 48           	pha
     927: a5 10        	lda	$10                     ; 0x2010 <f256main+0x16fc>
     929: 69 15        	adc	#$15
     92b: 85 14        	sta	$14                     ; 0x2014 <f256main+0x1700>
     92d: a5 11        	lda	$11                     ; 0x2011 <f256main+0x16fd>
     92f: 69 00        	adc	#$0
     931: 85 15        	sta	$15                     ; 0x2015 <f256main+0x1701>
     933: a5 14        	lda	$14                     ; 0x2014 <f256main+0x1700>
     935: a0 04        	ldy	#$4
     937: 91 10        	sta	($10),y                 ; 0x2010 <f256main+0x16fc>
     939: a5 15        	lda	$15                     ; 0x2015 <f256main+0x1701>
     93b: c8           	iny
     93c: 91 10        	sta	($10),y                 ; 0x2010 <f256main+0x16fc>
     93e: 68           	pla
     93f: 92 14        	sta	($14)                   ; 0x2014 <f256main+0x1700>
     941: 18           	clc
     942: 48           	pha
     943: a5 10        	lda	$10                     ; 0x2010 <f256main+0x16fc>
     945: 69 14        	adc	#$14
     947: 85 28        	sta	$28                     ; 0x2028 <f256main+0x1714>
     949: a5 11        	lda	$11                     ; 0x2011 <f256main+0x16fd>
     94b: 69 00        	adc	#$0
     94d: 85 29        	sta	$29                     ; 0x2029 <f256main+0x1715>
     94f: 68           	pla
     950: 92 28        	sta	($28)                   ; 0x2028 <f256main+0x1714>
     952: aa           	tax
     953: a9 04        	lda	#$4
     955: 20 7f 5e     	jsr	$5e7f <malloc>
     958: a0 00        	ldy	#$0
     95a: 5a           	phy
     95b: a5 12        	lda	$12                     ; 0x2012 <f256main+0x16fe>
     95d: a0 08        	ldy	#$8
     95f: 91 10        	sta	($10),y                 ; 0x2010 <f256main+0x16fc>
     961: a5 13        	lda	$13                     ; 0x2013 <f256main+0x16ff>
     963: c8           	iny
     964: 91 10        	sta	($10),y                 ; 0x2010 <f256main+0x16fc>
     966: 7a           	ply
     967: 64 01        	stz	$1                      ; 0x2001 <f256main+0x16ed>
     969: a2 0f        	ldx	#$f
     96b: 8e 00 d0     	stx	$d000                   ; 0xd000 <__heap_start+0x49ba>
     96e: 9c 01 d0     	stz	$d001                   ; 0xd001 <__heap_start+0x49bb>
     971: e8           	inx
     972: 8e 02 d0     	stx	$d002                   ; 0xd002 <__heap_start+0x49bc>
     975: a2 02        	ldx	#$2
     977: 8e 03 d0     	stx	$d003                   ; 0xd003 <__heap_start+0x49bd>
     97a: 9c 0d d0     	stz	$d00d                   ; 0xd00d <__heap_start+0x49c7>
     97d: 9c 0e d0     	stz	$d00e                   ; 0xd00e <__heap_start+0x49c8>
     980: 9c 0f d0     	stz	$d00f                   ; 0xd00f <__heap_start+0x49c9>
     983: ca           	dex
     984: 86 01        	stx	$1                      ; 0x2001 <f256main+0x16ed>
     986: a2 d0        	ldx	#$d0
     988: 18           	clc
     989: 84 16        	sty	$16                     ; 0x2016 <f256main+0x1702>
     98b: 98           	tya
     98c: 69 00        	adc	#$0
     98e: 85 14        	sta	$14                     ; 0x2014 <f256main+0x1700>
     990: 8a           	txa
     991: 69 10        	adc	#$10
     993: 85 15        	sta	$15                     ; 0x2015 <f256main+0x1701>
     995: 84 12        	sty	$12                     ; 0x2012 <f256main+0x16fe>
     997: 86 13        	stx	$13                     ; 0x2013 <f256main+0x16ff>
     999: a4 0f        	ldy	$f                      ; 0x200f <f256main+0x16fb>
     99b: 78           	sei
     99c: a9 18        	lda	#$18
     99e: 85 0f        	sta	$f                      ; 0x200f <f256main+0x16fb>
     9a0: b2 14        	lda	($14)                   ; 0x2014 <f256main+0x1700>
     9a2: 84 0f        	sty	$f                      ; 0x200f <f256main+0x16fb>
     9a4: 58           	cli
     9a5: 92 12        	sta	($12)                   ; 0x2012 <f256main+0x16fe>
     9a7: a4 16        	ldy	$16                     ; 0x2016 <f256main+0x1702>
     9a9: c8           	iny
     9aa: d0 01        	bne	$9ad <f256main+0x99>
     9ac: e8           	inx
     9ad: e0 d3        	cpx	#$d3
     9af: d0 d7        	bne	$988 <f256main+0x74>
     9b1: c0 ff        	cpy	#$ff
     9b3: d0 d3        	bne	$988 <f256main+0x74>
     9b5: 64 01        	stz	$1                      ; 0x2001 <f256main+0x16ed>
     9b7: a2 ff        	ldx	#$ff
     9b9: 8e 40 d8     	stx	$d840                   ; 0xd840 <__heap_start+0x51fa>
     9bc: 8e 41 d8     	stx	$d841                   ; 0xd841 <__heap_start+0x51fb>
     9bf: 8e 42 d8     	stx	$d842                   ; 0xd842 <__heap_start+0x51fc>
     9c2: 9c 43 d8     	stz	$d843                   ; 0xd843 <__heap_start+0x51fd>
     9c5: 9c 3d 86     	stz	$863d                   ; 0x863d <__bss_start>
     9c8: a2 80        	ldx	#$80
     9ca: 8e 3e 86     	stx	$863e                   ; 0x863e <__bss_start+0x1>
     9cd: a0 03        	ldy	#$3
     9cf: 8c 3f 86     	sty	$863f                   ; 0x863f <__bss_start+0x2>
     9d2: 9c 40 86     	stz	$8640                   ; 0x8640 <__bss_start+0x3>
     9d5: 9c 01 d1     	stz	$d101                   ; 0xd101 <__heap_start+0x4abb>
     9d8: 8e 02 d1     	stx	$d102                   ; 0xd102 <__heap_start+0x4abc>
     9db: 8c 03 d1     	sty	$d103                   ; 0xd103 <__heap_start+0x4abd>
     9de: a2 01        	ldx	#$1
     9e0: 8e 00 d1     	stx	$d100                   ; 0xd100 <__heap_start+0x4aba>
     9e3: ad 00 d1     	lda	$d100                   ; 0xd100 <__heap_start+0x4aba>
     9e6: 29 f9        	and	#$f9
     9e8: 8d 00 d1     	sta	$d100                   ; 0xd100 <__heap_start+0x4aba>
     9eb: 9c 08 d1     	stz	$d108                   ; 0xd108 <__heap_start+0x4ac2>
     9ee: 9c 10 d1     	stz	$d110                   ; 0xd110 <__heap_start+0x4aca>
     9f1: a9 0a        	lda	#$a
     9f3: ca           	dex
     9f4: 20 7f 5e     	jsr	$5e7f <malloc>
     9f7: a6 12        	ldx	$12                     ; 0x2012 <f256main+0x16fe>
     9f9: a4 13        	ldy	$13                     ; 0x2013 <f256main+0x16ff>
     9fb: 86 6a        	stx	$6a                     ; 0x206a <f256main+0x1756>
     9fd: 84 6b        	sty	$6b                     ; 0x206b <f256main+0x1757>
     9ff: a9 0f        	lda	#$f
     a01: a2 00        	ldx	#$0
     a03: 20 7f 5e     	jsr	$5e7f <malloc>
     a06: a6 12        	ldx	$12                     ; 0x2012 <f256main+0x16fe>
     a08: 86 2c        	stx	$2c                     ; 0x202c <f256main+0x1718>
     a0a: a6 13        	ldx	$13                     ; 0x2013 <f256main+0x16ff>
     a0c: 86 2d        	stx	$2d                     ; 0x202d <f256main+0x1719>
     a0e: 18           	clc
     a0f: a5 10        	lda	$10                     ; 0x2010 <f256main+0x16fc>
     a11: 69 16        	adc	#$16
     a13: 85 2a        	sta	$2a                     ; 0x202a <f256main+0x1716>
     a15: a5 11        	lda	$11                     ; 0x2011 <f256main+0x16fd>
     a17: 69 00        	adc	#$0
     a19: 85 2b        	sta	$2b                     ; 0x202b <f256main+0x1717>
     a1b: a0 04        	ldy	#$4
     a1d: a9 06        	lda	#$6
     a1f: 91 12        	sta	($12),y                 ; 0x2012 <f256main+0x16fe>
     a21: a5 2c        	lda	$2c                     ; 0x202c <f256main+0x1718>
     a23: 18           	clc
     a24: 69 05        	adc	#$5
     a26: 85 12        	sta	$12                     ; 0x2012 <f256main+0x16fe>
     a28: a5 2d        	lda	$2d                     ; 0x202d <f256main+0x1719>
     a2a: 69 00        	adc	#$0
     a2c: 85 13        	sta	$13                     ; 0x2013 <f256main+0x16ff>
     a2e: c8           	iny
     a2f: a9 00        	lda	#$0
     a31: 91 2c        	sta	($2c),y                 ; 0x202c <f256main+0x1718>
     a33: a0 02        	ldy	#$2
     a35: 98           	tya
     a36: 91 2a        	sta	($2a),y                 ; 0x202a <f256main+0x1716>
     a38: a9 00        	lda	#$0
     a3a: 91 2c        	sta	($2c),y                 ; 0x202c <f256main+0x1718>
     a3c: 98           	tya
     a3d: 91 12        	sta	($12),y                 ; 0x2012 <f256main+0x16fe>
     a3f: a9 78        	lda	#$78
     a41: c8           	iny
     a42: 91 2c        	sta	($2c),y                 ; 0x202c <f256main+0x1718>
     a44: a9 00        	lda	#$0
     a46: 91 2a        	sta	($2a),y                 ; 0x202a <f256main+0x1716>
     a48: 91 12        	sta	($12),y                 ; 0x2012 <f256main+0x16fe>
     a4a: a6 2c        	ldx	$2c                     ; 0x202c <f256main+0x1718>
     a4c: 86 7e        	stx	$7e                     ; 0x207e <f256main+0x176a>
     a4e: a6 2d        	ldx	$2d                     ; 0x202d <f256main+0x1719>
     a50: 86 7f        	stx	$7f                     ; 0x207f <f256main+0x176b>
     a52: 92 2a        	sta	($2a)                   ; 0x202a <f256main+0x1716>
     a54: a0 01        	ldy	#$1
     a56: 91 2a        	sta	($2a),y                 ; 0x202a <f256main+0x1716>
     a58: 92 2c        	sta	($2c)                   ; 0x202c <f256main+0x1718>
     a5a: 91 2c        	sta	($2c),y                 ; 0x202c <f256main+0x1718>
     a5c: 91 12        	sta	($12),y                 ; 0x2012 <f256main+0x16fe>
     a5e: a9 06        	lda	#$6
     a60: a2 00        	ldx	#$0
     a62: 20 7f 5e     	jsr	$5e7f <malloc>
     a65: a0 09        	ldy	#$9
     a67: a5 2c        	lda	$2c                     ; 0x202c <f256main+0x1718>
     a69: 18           	clc
     a6a: 69 09        	adc	#$9
     a6c: 85 14        	sta	$14                     ; 0x2014 <f256main+0x1700>
     a6e: a5 2d        	lda	$2d                     ; 0x202d <f256main+0x1719>
     a70: 69 00        	adc	#$0
     a72: 85 15        	sta	$15                     ; 0x2015 <f256main+0x1701>
     a74: a5 12        	lda	$12                     ; 0x2012 <f256main+0x16fe>
     a76: 91 2c        	sta	($2c),y                 ; 0x202c <f256main+0x1718>
     a78: a0 01        	ldy	#$1
     a7a: a5 13        	lda	$13                     ; 0x2013 <f256main+0x16ff>
     a7c: 91 14        	sta	($14),y                 ; 0x2014 <f256main+0x1700>
     a7e: a2 00        	ldx	#$0
     a80: 86 14        	stx	$14                     ; 0x2014 <f256main+0x1700>
     a82: a2 00        	ldx	#$0
     a84: 86 15        	stx	$15                     ; 0x2015 <f256main+0x1701>
     a86: a6 13        	ldx	$13                     ; 0x2013 <f256main+0x16ff>
     a88: e4 15        	cpx	$15                     ; 0x2015 <f256main+0x1701>
     a8a: d0 09        	bne	$a95 <f256main+0x181>
     a8c: a6 12        	ldx	$12                     ; 0x2012 <f256main+0x16fe>
     a8e: e4 14        	cpx	$14                     ; 0x2014 <f256main+0x1700>
     a90: d0 03        	bne	$a95 <f256main+0x181>
     a92: 4c fd 0a     	jmp	$afd <f256main+0x1e9>
     a95: a9 06        	lda	#$6
     a97: a2 00        	ldx	#$0
     a99: 20 7f 5e     	jsr	$5e7f <malloc>
     a9c: a0 0b        	ldy	#$b
     a9e: a5 2c        	lda	$2c                     ; 0x202c <f256main+0x1718>
     aa0: 18           	clc
     aa1: 69 0b        	adc	#$b
     aa3: 85 14        	sta	$14                     ; 0x2014 <f256main+0x1700>
     aa5: a5 2d        	lda	$2d                     ; 0x202d <f256main+0x1719>
     aa7: 69 00        	adc	#$0
     aa9: 85 15        	sta	$15                     ; 0x2015 <f256main+0x1701>
     aab: a5 12        	lda	$12                     ; 0x2012 <f256main+0x16fe>
     aad: 91 2c        	sta	($2c),y                 ; 0x202c <f256main+0x1718>
     aaf: a0 01        	ldy	#$1
     ab1: a5 13        	lda	$13                     ; 0x2013 <f256main+0x16ff>
     ab3: 91 14        	sta	($14),y                 ; 0x2014 <f256main+0x1700>
     ab5: a2 00        	ldx	#$0
     ab7: 86 14        	stx	$14                     ; 0x2014 <f256main+0x1700>
     ab9: a2 00        	ldx	#$0
     abb: 86 15        	stx	$15                     ; 0x2015 <f256main+0x1701>
     abd: a6 13        	ldx	$13                     ; 0x2013 <f256main+0x16ff>
     abf: e4 15        	cpx	$15                     ; 0x2015 <f256main+0x1701>
     ac1: d0 06        	bne	$ac9 <f256main+0x1b5>
     ac3: a6 12        	ldx	$12                     ; 0x2012 <f256main+0x16fe>
     ac5: e4 14        	cpx	$14                     ; 0x2014 <f256main+0x1700>
     ac7: f0 34        	beq	$afd <f256main+0x1e9>
     ac9: a9 12        	lda	#$12
     acb: a2 00        	ldx	#$0
     acd: 20 7f 5e     	jsr	$5e7f <malloc>
     ad0: a0 0d        	ldy	#$d
     ad2: a5 2c        	lda	$2c                     ; 0x202c <f256main+0x1718>
     ad4: 18           	clc
     ad5: 69 0d        	adc	#$d
     ad7: 85 14        	sta	$14                     ; 0x2014 <f256main+0x1700>
     ad9: a5 2d        	lda	$2d                     ; 0x202d <f256main+0x1719>
     adb: 69 00        	adc	#$0
     add: 85 15        	sta	$15                     ; 0x2015 <f256main+0x1701>
     adf: a5 12        	lda	$12                     ; 0x2012 <f256main+0x16fe>
     ae1: 91 2c        	sta	($2c),y                 ; 0x202c <f256main+0x1718>
     ae3: a0 01        	ldy	#$1
     ae5: a5 13        	lda	$13                     ; 0x2013 <f256main+0x16ff>
     ae7: 91 14        	sta	($14),y                 ; 0x2014 <f256main+0x1700>
     ae9: a2 00        	ldx	#$0
     aeb: 86 14        	stx	$14                     ; 0x2014 <f256main+0x1700>
     aed: a2 00        	ldx	#$0
     aef: 86 15        	stx	$15                     ; 0x2015 <f256main+0x1701>
     af1: a6 13        	ldx	$13                     ; 0x2013 <f256main+0x16ff>
     af3: e4 15        	cpx	$15                     ; 0x2015 <f256main+0x1701>
     af5: d0 14        	bne	$b0b <f256main+0x1f7>
     af7: a6 12        	ldx	$12                     ; 0x2012 <f256main+0x16fe>
     af9: e4 14        	cpx	$14                     ; 0x2014 <f256main+0x1700>
     afb: d0 0e        	bne	$b0b <f256main+0x1f7>
     afd: a2 27        	ldx	#$27
     aff: 86 12        	stx	$12                     ; 0x2012 <f256main+0x16fe>
     b01: a2 7c        	ldx	#$7c
     b03: 86 13        	stx	$13                     ; 0x2013 <f256main+0x16ff>
     b05: 20 53 52     	jsr	$5253 <printf>
     b08: 4c 9a 0b     	jmp	$b9a <f256main+0x286>
     b0b: a2 02        	ldx	#$2
     b0d: 64 17        	stz	$17                     ; 0x2017 <f256main+0x1703>
     b0f: 64 18        	stz	$18                     ; 0x2018 <f256main+0x1704>
     b11: 18           	clc
     b12: a5 2c        	lda	$2c                     ; 0x202c <f256main+0x1718>
     b14: 69 09        	adc	#$9
     b16: 85 12        	sta	$12                     ; 0x2012 <f256main+0x16fe>
     b18: a5 2d        	lda	$2d                     ; 0x202d <f256main+0x1719>
     b1a: 69 00        	adc	#$0
     b1c: 85 13        	sta	$13                     ; 0x2013 <f256main+0x16ff>
     b1e: a0 09        	ldy	#$9
     b20: b1 2c        	lda	($2c),y                 ; 0x202c <f256main+0x1718>
     b22: 85 19        	sta	$19                     ; 0x2019 <f256main+0x1705>
     b24: a0 01        	ldy	#$1
     b26: b1 12        	lda	($12),y                 ; 0x2012 <f256main+0x16fe>
     b28: a4 19        	ldy	$19                     ; 0x2019 <f256main+0x1705>
     b2a: 84 12        	sty	$12                     ; 0x2012 <f256main+0x16fe>
     b2c: 85 13        	sta	$13                     ; 0x2013 <f256main+0x16ff>
     b2e: a9 00        	lda	#$0
     b30: a4 18        	ldy	$18                     ; 0x2018 <f256main+0x1704>
     b32: 91 12        	sta	($12),y                 ; 0x2012 <f256main+0x16fe>
     b34: 18           	clc
     b35: a5 2c        	lda	$2c                     ; 0x202c <f256main+0x1718>
     b37: 69 0b        	adc	#$b
     b39: 85 12        	sta	$12                     ; 0x2012 <f256main+0x16fe>
     b3b: a5 2d        	lda	$2d                     ; 0x202d <f256main+0x1719>
     b3d: 69 00        	adc	#$0
     b3f: 85 13        	sta	$13                     ; 0x2013 <f256main+0x16ff>
     b41: a0 0b        	ldy	#$b
     b43: b1 2c        	lda	($2c),y                 ; 0x202c <f256main+0x1718>
     b45: 85 1a        	sta	$1a                     ; 0x201a <f256main+0x1706>
     b47: a0 01        	ldy	#$1
     b49: b1 12        	lda	($12),y                 ; 0x2012 <f256main+0x16fe>
     b4b: a4 1a        	ldy	$1a                     ; 0x201a <f256main+0x1706>
     b4d: 84 12        	sty	$12                     ; 0x2012 <f256main+0x16fe>
     b4f: 85 13        	sta	$13                     ; 0x2013 <f256main+0x16ff>
     b51: a4 18        	ldy	$18                     ; 0x2018 <f256main+0x1704>
     b53: a9 00        	lda	#$0
     b55: 91 12        	sta	($12),y                 ; 0x2012 <f256main+0x16fe>
     b57: 18           	clc
     b58: a5 2c        	lda	$2c                     ; 0x202c <f256main+0x1718>
     b5a: 69 0d        	adc	#$d
     b5c: 85 12        	sta	$12                     ; 0x2012 <f256main+0x16fe>
     b5e: a5 2d        	lda	$2d                     ; 0x202d <f256main+0x1719>
     b60: 69 00        	adc	#$0
     b62: 85 13        	sta	$13                     ; 0x2013 <f256main+0x16ff>
     b64: a0 0d        	ldy	#$d
     b66: b1 2c        	lda	($2c),y                 ; 0x202c <f256main+0x1718>
     b68: 85 14        	sta	$14                     ; 0x2014 <f256main+0x1700>
     b6a: a0 01        	ldy	#$1
     b6c: b1 12        	lda	($12),y                 ; 0x2012 <f256main+0x16fe>
     b6e: a4 14        	ldy	$14                     ; 0x2014 <f256main+0x1700>
     b70: 84 12        	sty	$12                     ; 0x2012 <f256main+0x16fe>
     b72: 85 13        	sta	$13                     ; 0x2013 <f256main+0x16ff>
     b74: a4 17        	ldy	$17                     ; 0x2017 <f256main+0x1703>
     b76: a9 00        	lda	#$0
     b78: 91 12        	sta	($12),y                 ; 0x2012 <f256main+0x16fe>
     b7a: 18           	clc
     b7b: a5 18        	lda	$18                     ; 0x2018 <f256main+0x1704>
     b7d: 69 06        	adc	#$6
     b7f: da           	phx
     b80: 7a           	ply
     b81: 91 12        	sta	($12),y                 ; 0x2012 <f256main+0x16fe>
     b83: e6 18        	inc	$18                     ; 0x2018 <f256main+0x1704>
     b85: 18           	clc
     b86: 8a           	txa
     b87: 69 03        	adc	#$3
     b89: a8           	tay
     b8a: 18           	clc
     b8b: a5 17        	lda	$17                     ; 0x2017 <f256main+0x1703>
     b8d: 69 03        	adc	#$3
     b8f: 85 17        	sta	$17                     ; 0x2017 <f256main+0x1703>
     b91: 5a           	phy
     b92: fa           	plx
     b93: c0 14        	cpy	#$14
     b95: f0 03        	beq	$b9a <f256main+0x286>
     b97: 4c 11 0b     	jmp	$b11 <f256main+0x1fd>
     b9a: a9 03        	lda	#$3
     b9c: a6 2a        	ldx	$2a                     ; 0x202a <f256main+0x1716>
     b9e: 86 14        	stx	$14                     ; 0x2014 <f256main+0x1700>
     ba0: a6 2b        	ldx	$2b                     ; 0x202b <f256main+0x1717>
     ba2: 86 15        	stx	$15                     ; 0x2015 <f256main+0x1701>
     ba4: a2 1f        	ldx	#$1f
     ba6: 86 16        	stx	$16                     ; 0x2016 <f256main+0x1702>
     ba8: a2 84        	ldx	#$84
     baa: 86 17        	stx	$17                     ; 0x2017 <f256main+0x1703>
     bac: a2 2b        	ldx	#$2b
     bae: 86 18        	stx	$18                     ; 0x2018 <f256main+0x1704>
     bb0: a2 84        	ldx	#$84
     bb2: 86 19        	stx	$19                     ; 0x2019 <f256main+0x1705>
     bb4: a2 0c        	ldx	#$c
     bb6: 86 12        	stx	$12                     ; 0x2012 <f256main+0x16fe>
     bb8: 86 13        	stx	$13                     ; 0x2013 <f256main+0x16ff>
     bba: a2 01        	ldx	#$1
     bbc: 20 94 45     	jsr	$4594 <setupMem4Track>
     bbf: a6 2a        	ldx	$2a                     ; 0x202a <f256main+0x1716>
     bc1: 86 14        	stx	$14                     ; 0x2014 <f256main+0x1700>
     bc3: a6 2b        	ldx	$2b                     ; 0x202b <f256main+0x1717>
     bc5: 86 15        	stx	$15                     ; 0x2015 <f256main+0x1701>
     bc7: a2 37        	ldx	#$37
     bc9: 86 16        	stx	$16                     ; 0x2016 <f256main+0x1702>
     bcb: a2 84        	ldx	#$84
     bcd: 86 17        	stx	$17                     ; 0x2017 <f256main+0x1703>
     bcf: a2 3f        	ldx	#$3f
     bd1: 86 18        	stx	$18                     ; 0x2018 <f256main+0x1704>
     bd3: a2 84        	ldx	#$84
     bd5: 86 19        	stx	$19                     ; 0x2019 <f256main+0x1705>
     bd7: a2 08        	ldx	#$8
     bd9: a0 01        	ldy	#$1
     bdb: 84 12        	sty	$12                     ; 0x2012 <f256main+0x16fe>
     bdd: 86 13        	stx	$13                     ; 0x2013 <f256main+0x16ff>
     bdf: e8           	inx
     be0: a9 00        	lda	#$0
     be2: 20 94 45     	jsr	$4594 <setupMem4Track>
     be5: a0 0a        	ldy	#$a
     be7: a6 2a        	ldx	$2a                     ; 0x202a <f256main+0x1716>
     be9: 86 14        	stx	$14                     ; 0x2014 <f256main+0x1700>
     beb: a6 2b        	ldx	$2b                     ; 0x202b <f256main+0x1717>
     bed: 86 15        	stx	$15                     ; 0x2015 <f256main+0x1701>
     bef: a2 47        	ldx	#$47
     bf1: 86 16        	stx	$16                     ; 0x2016 <f256main+0x1702>
     bf3: a2 84        	ldx	#$84
     bf5: 86 17        	stx	$17                     ; 0x2017 <f256main+0x1703>
     bf7: a2 53        	ldx	#$53
     bf9: 86 18        	stx	$18                     ; 0x2018 <f256main+0x1704>
     bfb: a2 84        	ldx	#$84
     bfd: 86 19        	stx	$19                     ; 0x2019 <f256main+0x1705>
     bff: 84 12        	sty	$12                     ; 0x2012 <f256main+0x16fe>
     c01: a2 0c        	ldx	#$c
     c03: 86 13        	stx	$13                     ; 0x2013 <f256main+0x16ff>
     c05: a2 02        	ldx	#$2
     c07: a9 00        	lda	#$0
     c09: 20 94 45     	jsr	$4594 <setupMem4Track>
     c0c: a6 2a        	ldx	$2a                     ; 0x202a <f256main+0x1716>
     c0e: 86 14        	stx	$14                     ; 0x2014 <f256main+0x1700>
     c10: a6 2b        	ldx	$2b                     ; 0x202b <f256main+0x1717>
     c12: 86 15        	stx	$15                     ; 0x2015 <f256main+0x1701>
     c14: a2 5f        	ldx	#$5f
     c16: 86 16        	stx	$16                     ; 0x2016 <f256main+0x1702>
     c18: a2 84        	ldx	#$84
     c1a: 86 17        	stx	$17                     ; 0x2017 <f256main+0x1703>
     c1c: a2 6b        	ldx	#$6b
     c1e: 86 18        	stx	$18                     ; 0x2018 <f256main+0x1704>
     c20: a2 84        	ldx	#$84
     c22: 86 19        	stx	$19                     ; 0x2019 <f256main+0x1705>
     c24: a2 0a        	ldx	#$a
     c26: 86 12        	stx	$12                     ; 0x2012 <f256main+0x16fe>
     c28: a2 0c        	ldx	#$c
     c2a: 86 13        	stx	$13                     ; 0x2013 <f256main+0x16ff>
     c2c: a2 02        	ldx	#$2
     c2e: a9 00        	lda	#$0
     c30: 20 94 45     	jsr	$4594 <setupMem4Track>
     c33: a6 2a        	ldx	$2a                     ; 0x202a <f256main+0x1716>
     c35: 86 14        	stx	$14                     ; 0x2014 <f256main+0x1700>
     c37: a6 2b        	ldx	$2b                     ; 0x202b <f256main+0x1717>
     c39: 86 15        	stx	$15                     ; 0x2015 <f256main+0x1701>
     c3b: a2 77        	ldx	#$77
     c3d: 86 16        	stx	$16                     ; 0x2016 <f256main+0x1702>
     c3f: a2 84        	ldx	#$84
     c41: 86 17        	stx	$17                     ; 0x2017 <f256main+0x1703>
     c43: a2 83        	ldx	#$83
     c45: 86 18        	stx	$18                     ; 0x2018 <f256main+0x1704>
     c47: a2 84        	ldx	#$84
     c49: 86 19        	stx	$19                     ; 0x2019 <f256main+0x1705>
     c4b: a2 0a        	ldx	#$a
     c4d: 86 12        	stx	$12                     ; 0x2012 <f256main+0x16fe>
     c4f: a2 0c        	ldx	#$c
     c51: 86 13        	stx	$13                     ; 0x2013 <f256main+0x16ff>
     c53: a2 02        	ldx	#$2
     c55: a9 00        	lda	#$0
     c57: 20 94 45     	jsr	$4594 <setupMem4Track>
     c5a: a6 2a        	ldx	$2a                     ; 0x202a <f256main+0x1716>
     c5c: 86 14        	stx	$14                     ; 0x2014 <f256main+0x1700>
     c5e: a6 2b        	ldx	$2b                     ; 0x202b <f256main+0x1717>
     c60: 86 15        	stx	$15                     ; 0x2015 <f256main+0x1701>
     c62: a2 8f        	ldx	#$8f
     c64: 86 16        	stx	$16                     ; 0x2016 <f256main+0x1702>
     c66: a2 84        	ldx	#$84
     c68: 86 17        	stx	$17                     ; 0x2017 <f256main+0x1703>
     c6a: a2 af        	ldx	#$af
     c6c: 86 18        	stx	$18                     ; 0x2018 <f256main+0x1704>
     c6e: a2 84        	ldx	#$84
     c70: 86 19        	stx	$19                     ; 0x2019 <f256main+0x1705>
     c72: a2 20        	ldx	#$20
     c74: 64 12        	stz	$12                     ; 0x2012 <f256main+0x16fe>
     c76: 86 13        	stx	$13                     ; 0x2013 <f256main+0x16ff>
     c78: a2 01        	ldx	#$1
     c7a: a9 02        	lda	#$2
     c7c: 20 94 45     	jsr	$4594 <setupMem4Track>
     c7f: 20 c1 3d     	jsr	$3dc1 <escReset>
     c82: 20 81 3f     	jsr	$3f81 <prepTempoLUT>
     c85: a2 80        	ldx	#$80
     c87: 86 f3        	stx	$f3                     ; 0x20f3 <f256main+0x17df>
     c89: 18           	clc
     c8a: a5 10        	lda	$10                     ; 0x2010 <f256main+0x16fc>
     c8c: 69 1a        	adc	#$1a
     c8e: 85 12        	sta	$12                     ; 0x2012 <f256main+0x16fe>
     c90: a5 11        	lda	$11                     ; 0x2011 <f256main+0x16fd>
     c92: 69 00        	adc	#$0
     c94: 85 13        	sta	$13                     ; 0x2013 <f256main+0x16ff>
     c96: a2 41        	ldx	#$41
     c98: 86 14        	stx	$14                     ; 0x2014 <f256main+0x1700>
     c9a: a2 86        	ldx	#$86
     c9c: 86 15        	stx	$15                     ; 0x2015 <f256main+0x1701>
     c9e: 20 f0 ff     	jsr	$fff0 <__heap_start+0x79aa>
     ca1: 92 12        	sta	($12)                   ; 0x2012 <f256main+0x16fe>
     ca3: a9 00        	lda	#$0
     ca5: 6a           	ror
     ca6: 85 14        	sta	$14                     ; 0x2014 <f256main+0x1700>
     ca8: a9 09        	lda	#$9
     caa: 18           	clc
     cab: 72 12        	adc	($12)                   ; 0x2012 <f256main+0x16fe>
     cad: 85 80        	sta	$80                     ; 0x2080 <f256main+0x176c>
     caf: 64 f3        	stz	$f3                     ; 0x20f3 <f256main+0x17df>
     cb1: a6 80        	ldx	$80                     ; 0x2080 <f256main+0x176c>
     cb3: 86 f4        	stx	$f4                     ; 0x20f4 <f256main+0x17e0>
     cb5: 64 f5        	stz	$f5                     ; 0x20f5 <f256main+0x17e1>
     cb7: 18           	clc
     cb8: a5 10        	lda	$10                     ; 0x2010 <f256main+0x16fc>
     cba: 69 1b        	adc	#$1b
     cbc: 85 12        	sta	$12                     ; 0x2012 <f256main+0x16fe>
     cbe: a5 11        	lda	$11                     ; 0x2011 <f256main+0x16fd>
     cc0: 69 00        	adc	#$0
     cc2: 85 13        	sta	$13                     ; 0x2013 <f256main+0x16ff>
     cc4: a2 90        	ldx	#$90
     cc6: 20 f0 ff     	jsr	$fff0 <__heap_start+0x79aa>
     cc9: 92 12        	sta	($12)                   ; 0x2012 <f256main+0x16fe>
     ccb: a9 00        	lda	#$0
     ccd: 6a           	ror
     cce: 85 14        	sta	$14                     ; 0x2014 <f256main+0x1700>
     cd0: 86 30        	stx	$30                     ; 0x2030 <f256main+0x171c>
     cd2: ad a0 dd     	lda	$dda0                   ; 0xdda0 <__heap_start+0x575a>
     cd5: 29 02        	and	#$2
     cd7: d0 1e        	bne	$cf7 <f256main+0x3e3>
     cd9: ae a2 dd     	ldx	$dda2                   ; 0xdda2 <__heap_start+0x575c>
     cdc: ad a3 dd     	lda	$dda3                   ; 0xdda3 <__heap_start+0x575d>
     cdf: 29 0f        	and	#$f
     ce1: d0 04        	bne	$ce7 <f256main+0x3d3>
     ce3: e0 00        	cpx	#$0
     ce5: f0 10        	beq	$cf7 <f256main+0x3e3>
     ce7: ac a1 dd     	ldy	$dda1                   ; 0xdda1 <__heap_start+0x575b>
     cea: ca           	dex
     ceb: e0 ff        	cpx	#$ff
     ced: d0 01        	bne	$cf0 <f256main+0x3dc>
     cef: 3a           	dec
     cf0: a8           	tay
     cf1: d0 f4        	bne	$ce7 <f256main+0x3d3>
     cf3: e0 00        	cpx	#$0
     cf5: d0 f0        	bne	$ce7 <f256main+0x3d3>
     cf7: a2 d4        	ldx	#$d4
     cf9: a0 00        	ldy	#$0
     cfb: 18           	clc
     cfc: 98           	tya
     cfd: 69 00        	adc	#$0
     cff: 85 14        	sta	$14                     ; 0x2014 <f256main+0x1700>
     d01: 8a           	txa
     d02: 69 01        	adc	#$1
     d04: 85 15        	sta	$15                     ; 0x2015 <f256main+0x1701>
     d06: 84 12        	sty	$12                     ; 0x2012 <f256main+0x16fe>
     d08: 86 13        	stx	$13                     ; 0x2013 <f256main+0x16ff>
     d0a: a9 00        	lda	#$0
     d0c: 92 12        	sta	($12)                   ; 0x2012 <f256main+0x16fe>
     d0e: 5a           	phy
     d0f: a4 14        	ldy	$14                     ; 0x2014 <f256main+0x1700>
     d11: 84 12        	sty	$12                     ; 0x2012 <f256main+0x16fe>
     d13: a4 15        	ldy	$15                     ; 0x2015 <f256main+0x1701>
     d15: 84 13        	sty	$13                     ; 0x2013 <f256main+0x16ff>
     d17: 7a           	ply
     d18: 92 12        	sta	($12)                   ; 0x2012 <f256main+0x16fe>
     d1a: c8           	iny
     d1b: d0 01        	bne	$d1e <f256main+0x40a>
     d1d: e8           	inx
     d1e: c0 19        	cpy	#$19
     d20: d0 d9        	bne	$cfb <f256main+0x3e7>
     d22: 20 9b 42     	jsr	$429b <sid_setInstrumentAllChannels>
     d25: ad a1 d6     	lda	$d6a1                   ; 0xd6a1 <__heap_start+0x505b>
     d28: 29 f7        	and	#$f7
     d2a: 8d a1 d6     	sta	$d6a1                   ; 0xd6a1 <__heap_start+0x505b>
     d2d: ad a1 d6     	lda	$d6a1                   ; 0xd6a1 <__heap_start+0x505b>
     d30: 29 fb        	and	#$fb
     d32: 8d a1 d6     	sta	$d6a1                   ; 0xd6a1 <__heap_start+0x505b>
     d35: a2 01        	ldx	#$1
     d37: 8e 80 d5     	stx	$d580                   ; 0xd580 <__heap_start+0x4f3a>
     d3a: a0 20        	ldy	#$20
     d3c: 8c 81 d5     	sty	$d581                   ; 0xd581 <__heap_start+0x4f3b>
     d3f: a0 02        	ldy	#$2
     d41: 8c 80 d5     	sty	$d580                   ; 0xd580 <__heap_start+0x4f3a>
     d44: 9c 81 d5     	stz	$d581                   ; 0xd581 <__heap_start+0x4f3b>
     d47: c8           	iny
     d48: 8c 80 d5     	sty	$d580                   ; 0xd580 <__heap_start+0x4f3a>
     d4b: 9c 81 d5     	stz	$d581                   ; 0xd581 <__heap_start+0x4f3b>
     d4e: c8           	iny
     d4f: 8c 82 d5     	sty	$d582                   ; 0xd582 <__heap_start+0x4f3c>
     d52: 9c 81 d5     	stz	$d581                   ; 0xd581 <__heap_start+0x4f3b>
     d55: c8           	iny
     d56: 8c 82 d5     	sty	$d582                   ; 0xd582 <__heap_start+0x4f3c>
     d59: 8e 81 d5     	stx	$d581                   ; 0xd581 <__heap_start+0x4f3b>
     d5c: a2 08        	ldx	#$8
     d5e: 8e 80 d5     	stx	$d580                   ; 0xd580 <__heap_start+0x4f3a>
     d61: 9c 81 d5     	stz	$d581                   ; 0xd581 <__heap_start+0x4f3b>
     d64: a2 c0        	ldx	#$c0
     d66: a0 30        	ldy	#$30
     d68: 8e 80 d5     	stx	$d580                   ; 0xd580 <__heap_start+0x4f3a>
     d6b: 8c 81 d5     	sty	$d581                   ; 0xd581 <__heap_start+0x4f3b>
     d6e: e8           	inx
     d6f: e0 c9        	cpx	#$c9
     d71: d0 f5        	bne	$d68 <f256main+0x454>
     d73: a2 b0        	ldx	#$b0
     d75: 8e 80 d5     	stx	$d580                   ; 0xd580 <__heap_start+0x4f3a>
     d78: 9c 81 d5     	stz	$d581                   ; 0xd581 <__heap_start+0x4f3b>
     d7b: e8           	inx
     d7c: e0 b9        	cpx	#$b9
     d7e: d0 f5        	bne	$d75 <f256main+0x461>
     d80: a0 00        	ldy	#$0
     d82: a2 fc        	ldx	#$fc
     d84: 86 12        	stx	$12                     ; 0x2012 <f256main+0x16fe>
     d86: a2 84        	ldx	#$84
     d88: 86 13        	stx	$13                     ; 0x2013 <f256main+0x16ff>
     d8a: 84 24        	sty	$24                     ; 0x2024 <f256main+0x1710>
     d8c: 98           	tya
     d8d: 20 3f 41     	jsr	$413f <opl3_setInstrument>
     d90: 18           	clc
     d91: a5 24        	lda	$24                     ; 0x2024 <f256main+0x1710>
     d93: 69 c0        	adc	#$c0
     d95: 8d 80 d5     	sta	$d580                   ; 0xd580 <__heap_start+0x4f3a>
     d98: a4 24        	ldy	$24                     ; 0x2024 <f256main+0x1710>
     d9a: a2 30        	ldx	#$30
     d9c: 8e 81 d5     	stx	$d581                   ; 0xd581 <__heap_start+0x4f3b>
     d9f: c8           	iny
     da0: c0 09        	cpy	#$9
     da2: d0 de        	bne	$d82 <f256main+0x46e>
     da4: ad a7 d6     	lda	$d6a7                   ; 0xd6a7 <__heap_start+0x5061>
     da7: 29 3f        	and	#$3f
     da9: c9 22        	cmp	#$22
     dab: f0 07        	beq	$db4 <f256main+0x4a0>
     dad: c9 11        	cmp	#$11
     daf: f0 03        	beq	$db4 <f256main+0x4a0>
     db1: 4c b8 0e     	jmp	$eb8 <f256main+0x5a4>
     db4: a2 03        	ldx	#$3
     db6: 8e 01 d7     	stx	$d701                   ; 0xd701 <__heap_start+0x50bb>
     db9: 9c 02 d7     	stz	$d702                   ; 0xd702 <__heap_start+0x50bc>
     dbc: 9c 02 d7     	stz	$d702                   ; 0xd702 <__heap_start+0x50bc>
     dbf: a2 40        	ldx	#$40
     dc1: 8e 03 d7     	stx	$d703                   ; 0xd703 <__heap_start+0x50bd>
     dc4: a2 01        	ldx	#$1
     dc6: 8e 00 d7     	stx	$d700                   ; 0xd700 <__heap_start+0x50ba>
     dc9: 9c 00 d7     	stz	$d700                   ; 0xd700 <__heap_start+0x50ba>
     dcc: ae 00 d7     	ldx	$d700                   ; 0xd700 <__heap_start+0x50ba>
     dcf: 30 fb        	bmi	$dcc <f256main+0x4b8>
     dd1: a9 00        	lda	#$0
     dd3: aa           	tax
     dd4: a8           	tay
     dd5: 0a           	asl
     dd6: 85 12        	sta	$12                     ; 0x2012 <f256main+0x16fe>
     dd8: 86 15        	stx	$15                     ; 0x2015 <f256main+0x1701>
     dda: 8a           	txa
     ddb: 2a           	rol
     ddc: 85 13        	sta	$13                     ; 0x2013 <f256main+0x16ff>
     dde: a9 e7        	lda	#$e7
     de0: 18           	clc
     de1: 65 12        	adc	$12                     ; 0x2012 <f256main+0x16fe>
     de3: 85 14        	sta	$14                     ; 0x2014 <f256main+0x1700>
     de5: a9 83        	lda	#$83
     de7: 65 13        	adc	$13                     ; 0x2013 <f256main+0x16ff>
     de9: a6 14        	ldx	$14                     ; 0x2014 <f256main+0x1700>
     deb: 86 12        	stx	$12                     ; 0x2012 <f256main+0x16fe>
     ded: 85 13        	sta	$13                     ; 0x2013 <f256main+0x16ff>
     def: 85 17        	sta	$17                     ; 0x2017 <f256main+0x1703>
     df1: 18           	clc
     df2: 98           	tya
     df3: 69 02        	adc	#$2
     df5: aa           	tax
     df6: a5 15        	lda	$15                     ; 0x2015 <f256main+0x1701>
     df8: 69 00        	adc	#$0
     dfa: 85 16        	sta	$16                     ; 0x2016 <f256main+0x1702>
     dfc: 18           	clc
     dfd: a5 14        	lda	$14                     ; 0x2014 <f256main+0x1700>
     dff: 69 02        	adc	#$2
     e01: 85 14        	sta	$14                     ; 0x2014 <f256main+0x1700>
     e03: a5 17        	lda	$17                     ; 0x2017 <f256main+0x1703>
     e05: 69 00        	adc	#$0
     e07: 85 15        	sta	$15                     ; 0x2015 <f256main+0x1701>
     e09: a0 02        	ldy	#$2
     e0b: b1 12        	lda	($12),y                 ; 0x2012 <f256main+0x16fe>
     e0d: 85 19        	sta	$19                     ; 0x2019 <f256main+0x1705>
     e0f: 88           	dey
     e10: b1 14        	lda	($14),y                 ; 0x2014 <f256main+0x1700>
     e12: d0 09        	bne	$e1d <f256main+0x509>
     e14: e6 19        	inc	$19                     ; 0x2019 <f256main+0x1705>
     e16: c6 19        	dec	$19                     ; 0x2019 <f256main+0x1705>
     e18: d0 03        	bne	$e1d <f256main+0x509>
     e1a: 4c b3 0e     	jmp	$eb3 <f256main+0x59f>
     e1d: 5a           	phy
     e1e: a4 19        	ldy	$19                     ; 0x2019 <f256main+0x1705>
     e20: 84 17        	sty	$17                     ; 0x2017 <f256main+0x1703>
     e22: 7a           	ply
     e23: 85 18        	sta	$18                     ; 0x2018 <f256main+0x1704>
     e25: b2 12        	lda	($12)                   ; 0x2012 <f256main+0x16fe>
     e27: 85 19        	sta	$19                     ; 0x2019 <f256main+0x1705>
     e29: b1 12        	lda	($12),y                 ; 0x2012 <f256main+0x16fe>
     e2b: 85 1a        	sta	$1a                     ; 0x201a <f256main+0x1706>
     e2d: 8a           	txa
     e2e: a6 16        	ldx	$16                     ; 0x2016 <f256main+0x1702>
     e30: 85 14        	sta	$14                     ; 0x2014 <f256main+0x1700>
     e32: 0a           	asl
     e33: 85 12        	sta	$12                     ; 0x2012 <f256main+0x16fe>
     e35: 86 15        	stx	$15                     ; 0x2015 <f256main+0x1701>
     e37: 8a           	txa
     e38: 2a           	rol
     e39: 85 13        	sta	$13                     ; 0x2013 <f256main+0x16ff>
     e3b: a9 e7        	lda	#$e7
     e3d: 18           	clc
     e3e: 65 12        	adc	$12                     ; 0x2012 <f256main+0x16fe>
     e40: 85 12        	sta	$12                     ; 0x2012 <f256main+0x16fe>
     e42: a9 83        	lda	#$83
     e44: 65 13        	adc	$13                     ; 0x2013 <f256main+0x16ff>
     e46: 85 13        	sta	$13                     ; 0x2013 <f256main+0x16ff>
     e48: b2 12        	lda	($12)                   ; 0x2012 <f256main+0x16fe>
     e4a: 85 16        	sta	$16                     ; 0x2016 <f256main+0x1702>
     e4c: b1 12        	lda	($12),y                 ; 0x2012 <f256main+0x16fe>
     e4e: a6 19        	ldx	$19                     ; 0x2019 <f256main+0x1705>
     e50: 8e 01 d7     	stx	$d701                   ; 0xd701 <__heap_start+0x50bb>
     e53: a6 1a        	ldx	$1a                     ; 0x201a <f256main+0x1706>
     e55: 8e 02 d7     	stx	$d702                   ; 0xd702 <__heap_start+0x50bc>
     e58: a6 16        	ldx	$16                     ; 0x2016 <f256main+0x1702>
     e5a: 8e 02 d7     	stx	$d702                   ; 0xd702 <__heap_start+0x50bc>
     e5d: 8d 03 d7     	sta	$d703                   ; 0xd703 <__heap_start+0x50bd>
     e60: 8c 00 d7     	sty	$d700                   ; 0xd700 <__heap_start+0x50ba>
     e63: 9c 00 d7     	stz	$d700                   ; 0xd700 <__heap_start+0x50ba>
     e66: ae 00 d7     	ldx	$d700                   ; 0xd700 <__heap_start+0x50ba>
     e69: 30 fb        	bmi	$e66 <f256main+0x552>
     e6b: 5a           	phy
     e6c: a6 17        	ldx	$17                     ; 0x2017 <f256main+0x1703>
     e6e: 86 12        	stx	$12                     ; 0x2012 <f256main+0x16fe>
     e70: a6 18        	ldx	$18                     ; 0x2018 <f256main+0x1704>
     e72: 86 13        	stx	$13                     ; 0x2013 <f256main+0x16ff>
     e74: a2 ff        	ldx	#$ff
     e76: c6 12        	dec	$12                     ; 0x2012 <f256main+0x16fe>
     e78: e4 12        	cpx	$12                     ; 0x2012 <f256main+0x16fe>
     e7a: d0 02        	bne	$e7e <f256main+0x56a>
     e7c: c6 13        	dec	$13                     ; 0x2013 <f256main+0x16ff>
     e7e: a5 14        	lda	$14                     ; 0x2014 <f256main+0x1700>
     e80: a6 15        	ldx	$15                     ; 0x2015 <f256main+0x1701>
     e82: 1a           	inc
     e83: d0 01        	bne	$e86 <f256main+0x572>
     e85: e8           	inx
     e86: a4 12        	ldy	$12                     ; 0x2012 <f256main+0x16fe>
     e88: 84 17        	sty	$17                     ; 0x2017 <f256main+0x1703>
     e8a: a4 13        	ldy	$13                     ; 0x2013 <f256main+0x16ff>
     e8c: 84 18        	sty	$18                     ; 0x2018 <f256main+0x1704>
     e8e: 7a           	ply
     e8f: e6 13        	inc	$13                     ; 0x2013 <f256main+0x16ff>
     e91: c6 13        	dec	$13                     ; 0x2013 <f256main+0x16ff>
     e93: f0 03        	beq	$e98 <f256main+0x584>
     e95: 4c 30 0e     	jmp	$e30 <f256main+0x51c>
     e98: e6 12        	inc	$12                     ; 0x2012 <f256main+0x16fe>
     e9a: c6 12        	dec	$12                     ; 0x2012 <f256main+0x16fe>
     e9c: f0 03        	beq	$ea1 <f256main+0x58d>
     e9e: 4c 30 0e     	jmp	$e30 <f256main+0x51c>
     ea1: e0 00        	cpx	#$0
     ea3: d0 07        	bne	$eac <f256main+0x598>
     ea5: c9 1c        	cmp	#$1c
     ea7: b0 0f        	bcs	$eb8 <f256main+0x5a4>
     ea9: 4c d4 0d     	jmp	$dd4 <f256main+0x4c0>
     eac: e0 00        	cpx	#$0
     eae: b0 08        	bcs	$eb8 <f256main+0x5a4>
     eb0: 4c d4 0d     	jmp	$dd4 <f256main+0x4c0>
     eb3: 8a           	txa
     eb4: a6 16        	ldx	$16                     ; 0x2016 <f256main+0x1702>
     eb6: 80 e9        	bra	$ea1 <f256main+0x58d>
     eb8: a2 27        	ldx	#$27
     eba: 86 31        	stx	$31                     ; 0x2031 <f256main+0x171d>
     ebc: 64 32        	stz	$32                     ; 0x2032 <f256main+0x171e>
     ebe: 86 81        	stx	$81                     ; 0x2081 <f256main+0x176d>
     ec0: 64 82        	stz	$82                     ; 0x2082 <f256main+0x176e>
     ec2: a6 01        	ldx	$1                      ; 0x2001 <f256main+0x16ed>
     ec4: a0 01        	ldy	#$1
     ec6: 84 01        	sty	$1                      ; 0x2001 <f256main+0x16ed>
     ec8: 9c 20 d2     	stz	$d220                   ; 0xd220 <__heap_start+0x4bda>
     ecb: 9c 21 d2     	stz	$d221                   ; 0xd221 <__heap_start+0x4bdb>
     ece: a9 ff        	lda	#$ff
     ed0: 8d 22 d2     	sta	$d222                   ; 0xd222 <__heap_start+0x4bdc>
     ed3: 8d 23 d2     	sta	$d223                   ; 0xd223 <__heap_start+0x4bdd>
     ed6: 86 01        	stx	$1                      ; 0x2001 <f256main+0x16ed>
     ed8: a2 41        	ldx	#$41
     eda: 86 2e        	stx	$2e                     ; 0x202e <f256main+0x171a>
     edc: a2 86        	ldx	#$86
     ede: 86 2f        	stx	$2f                     ; 0x202f <f256main+0x171b>
     ee0: 64 12        	stz	$12                     ; 0x2012 <f256main+0x16fe>
     ee2: 1a           	inc
     ee3: a0 12        	ldy	#$12
     ee5: 91 10        	sta	($10),y                 ; 0x2010 <f256main+0x16fc>
     ee7: 88           	dey
     ee8: 91 10        	sta	($10),y                 ; 0x2010 <f256main+0x16fc>
     eea: 64 26        	stz	$26                     ; 0x2026 <f256main+0x1712>
     eec: 88           	dey
     eed: 91 10        	sta	($10),y                 ; 0x2010 <f256main+0x16fc>
     eef: a2 90        	ldx	#$90
     ef1: 8a           	txa
     ef2: 88           	dey
     ef3: 91 10        	sta	($10),y                 ; 0x2010 <f256main+0x16fc>
     ef5: ad a0 dd     	lda	$dda0                   ; 0xdda0 <__heap_start+0x575a>
     ef8: 29 02        	and	#$2
     efa: f0 03        	beq	$eff <f256main+0x5eb>
     efc: 4c 12 11     	jmp	$1112 <f256main+0x7fe>
     eff: ae a2 dd     	ldx	$dda2                   ; 0xdda2 <__heap_start+0x575c>
     f02: 86 24        	stx	$24                     ; 0x2024 <f256main+0x1710>
     f04: ad a3 dd     	lda	$dda3                   ; 0xdda3 <__heap_start+0x575d>
     f07: a6 61        	ldx	$61                     ; 0x2061 <f256main+0x174d>
     f09: d0 35        	bne	$f40 <f256main+0x62c>
     f0b: a2 05        	ldx	#$5
     f0d: 86 33        	stx	$33                     ; 0x2033 <f256main+0x171f>
     f0f: 8e 14 d0     	stx	$d014                   ; 0xd014 <__heap_start+0x49ce>
     f12: 9c 15 d0     	stz	$d015                   ; 0xd015 <__heap_start+0x49cf>
     f15: ca           	dex
     f16: 86 34        	stx	$34                     ; 0x2034 <f256main+0x1720>
     f18: 8e 16 d0     	stx	$d016                   ; 0xd016 <__heap_start+0x49d0>
     f1b: 9c 17 d0     	stz	$d017                   ; 0xd017 <__heap_start+0x49d1>
     f1e: a2 90        	ldx	#$90
     f20: 86 12        	stx	$12                     ; 0x2012 <f256main+0x16fe>
     f22: a2 7d        	ldx	#$7d
     f24: 86 13        	stx	$13                     ; 0x2013 <f256main+0x16ff>
     f26: 85 2b        	sta	$2b                     ; 0x202b <f256main+0x1717>
     f28: 20 9c 2f     	jsr	$2f9c <textPrint>
     f2b: a5 2b        	lda	$2b                     ; 0x202b <f256main+0x1717>
     f2d: a2 05        	ldx	#$5
     f2f: 86 33        	stx	$33                     ; 0x2033 <f256main+0x171f>
     f31: 8e 14 d0     	stx	$d014                   ; 0xd014 <__heap_start+0x49ce>
     f34: 9c 15 d0     	stz	$d015                   ; 0xd015 <__heap_start+0x49cf>
     f37: ca           	dex
     f38: 86 34        	stx	$34                     ; 0x2034 <f256main+0x1720>
     f3a: 8e 16 d0     	stx	$d016                   ; 0xd016 <__heap_start+0x49d0>
     f3d: 9c 17 d0     	stz	$d017                   ; 0xd017 <__heap_start+0x49d1>
     f40: 29 0f        	and	#$f
     f42: a6 24        	ldx	$24                     ; 0x2024 <f256main+0x1710>
     f44: 86 2b        	stx	$2b                     ; 0x202b <f256main+0x1717>
     f46: aa           	tax
     f47: d0 36        	bne	$f7f <f256main+0x66b>
     f49: a6 2b        	ldx	$2b                     ; 0x202b <f256main+0x1717>
     f4b: d0 32        	bne	$f7f <f256main+0x66b>
     f4d: 4c 12 11     	jmp	$1112 <f256main+0x7fe>
     f50: a5 16        	lda	$16                     ; 0x2016 <f256main+0x1702>
     f52: 30 18        	bmi	$f6c <f256main+0x658>
     f54: a0 0f        	ldy	#$f
     f56: b1 10        	lda	($10),y                 ; 0x2010 <f256main+0x16fc>
     f58: 29 f0        	and	#$f0
     f5a: c9 80        	cmp	#$80
     f5c: f0 04        	beq	$f62 <f256main+0x64e>
     f5e: c9 90        	cmp	#$90
     f60: d0 15        	bne	$f77 <f256main+0x663>
     f62: a2 01        	ldx	#$1
     f64: 8a           	txa
     f65: a0 12        	ldy	#$12
     f67: 91 10        	sta	($10),y                 ; 0x2010 <f256main+0x16fc>
     f69: 4c d1 10     	jmp	$10d1 <f256main+0x7bd>
     f6c: 64 12        	stz	$12                     ; 0x2012 <f256main+0x16fe>
     f6e: a9 00        	lda	#$0
     f70: a0 12        	ldy	#$12
     f72: 91 10        	sta	($10),y                 ; 0x2010 <f256main+0x16fc>
     f74: 4c db 10     	jmp	$10db <f256main+0x7c7>
     f77: a2 01        	ldx	#$1
     f79: 8a           	txa
     f7a: a0 12        	ldy	#$12
     f7c: 4c d3 10     	jmp	$10d3 <f256main+0x7bf>
     f7f: ae a1 dd     	ldx	$dda1                   ; 0xdda1 <__heap_start+0x575b>
     f82: e0 fe        	cpx	#$fe
     f84: d0 03        	bne	$f89 <f256main+0x675>
     f86: 4c fc 10     	jmp	$10fc <f256main+0x7e8>
     f89: 86 16        	stx	$16                     ; 0x2016 <f256main+0x1702>
     f8b: a6 26        	ldx	$26                     ; 0x2026 <f256main+0x1712>
     f8d: e0 ff        	cpx	#$ff
     f8f: d0 02        	bne	$f93 <f256main+0x67f>
     f91: a2 00        	ldx	#$0
     f93: e8           	inx
     f94: 48           	pha
     f95: a0 12        	ldy	#$12
     f97: b1 10        	lda	($10),y                 ; 0x2010 <f256main+0x16fc>
     f99: a8           	tay
     f9a: 68           	pla
     f9b: c0 00        	cpy	#$0
     f9d: f0 40        	beq	$fdf <f256main+0x6cb>
     f9f: 85 25        	sta	$25                     ; 0x2025 <f256main+0x1711>
     fa1: 86 26        	stx	$26                     ; 0x2026 <f256main+0x1712>
     fa3: a6 6a        	ldx	$6a                     ; 0x206a <f256main+0x1756>
     fa5: a4 6b        	ldy	$6b                     ; 0x206b <f256main+0x1757>
     fa7: 86 12        	stx	$12                     ; 0x2012 <f256main+0x16fe>
     fa9: 84 13        	sty	$13                     ; 0x2013 <f256main+0x16ff>
     fab: a2 40        	ldx	#$40
     fad: a5 16        	lda	$16                     ; 0x2016 <f256main+0x1702>
     faf: c9 40        	cmp	#$40
     fb1: 90 01        	bcc	$fb4 <f256main+0x6a0>
     fb3: aa           	tax
     fb4: a0 05        	ldy	#$5
     fb6: b1 12        	lda	($12),y                 ; 0x2012 <f256main+0x16fe>
     fb8: 85 18        	sta	$18                     ; 0x2018 <f256main+0x1704>
     fba: b2 12        	lda	($12)                   ; 0x2012 <f256main+0x16fe>
     fbc: 85 14        	sta	$14                     ; 0x2014 <f256main+0x1700>
     fbe: c8           	iny
     fbf: b1 12        	lda	($12),y                 ; 0x2012 <f256main+0x16fe>
     fc1: 86 13        	stx	$13                     ; 0x2013 <f256main+0x16ff>
     fc3: a6 2a        	ldx	$2a                     ; 0x202a <f256main+0x1716>
     fc5: 86 12        	stx	$12                     ; 0x2012 <f256main+0x16fe>
     fc7: 85 15        	sta	$15                     ; 0x2015 <f256main+0x1701>
     fc9: 64 16        	stz	$16                     ; 0x2016 <f256main+0x1702>
     fcb: 64 17        	stz	$17                     ; 0x2017 <f256main+0x1703>
     fcd: a6 18        	ldx	$18                     ; 0x2018 <f256main+0x1704>
     fcf: a0 11        	ldy	#$11
     fd1: b1 10        	lda	($10),y                 ; 0x2010 <f256main+0x16fc>
     fd3: 20 54 31     	jsr	$3154 <dispatchNote>
     fd6: 64 12        	stz	$12                     ; 0x2012 <f256main+0x16fe>
     fd8: a9 00        	lda	#$0
     fda: a0 12        	ldy	#$12
     fdc: 4c f8 10     	jmp	$10f8 <f256main+0x7e4>
     fdf: 85 25        	sta	$25                     ; 0x2025 <f256main+0x1711>
     fe1: a0 10        	ldy	#$10
     fe3: b1 10        	lda	($10),y                 ; 0x2010 <f256main+0x16fc>
     fe5: d0 03        	bne	$fea <f256main+0x6d6>
     fe7: 4c 4c 10     	jmp	$104c <f256main+0x738>
     fea: 86 26        	stx	$26                     ; 0x2026 <f256main+0x1712>
     fec: 18           	clc
     fed: a5 16        	lda	$16                     ; 0x2016 <f256main+0x1702>
     fef: 69 ec        	adc	#$ec
     ff1: a0 01        	ldy	#$1
     ff3: 48           	pha
     ff4: 5a           	phy
     ff5: a0 11        	ldy	#$11
     ff7: b1 10        	lda	($10),y                 ; 0x2010 <f256main+0x16fc>
     ff9: 7a           	ply
     ffa: aa           	tax
     ffb: 68           	pla
     ffc: e0 00        	cpx	#$0
     ffe: d0 03        	bne	$1003 <f256main+0x6ef>
    1000: 4c 72 10     	jmp	$1072 <f256main+0x75e>
    1003: a6 16        	ldx	$16                     ; 0x2016 <f256main+0x1702>
    1005: 86 2a        	stx	$2a                     ; 0x202a <f256main+0x1716>
    1007: 0a           	asl
    1008: 64 12        	stz	$12                     ; 0x2012 <f256main+0x16fe>
    100a: 26 12        	rol	$12                     ; 0x2012 <f256main+0x16fe>
    100c: 0a           	asl
    100d: 85 13        	sta	$13                     ; 0x2013 <f256main+0x16ff>
    100f: 26 12        	rol	$12                     ; 0x2012 <f256main+0x16fe>
    1011: a9 00        	lda	#$0
    1013: 18           	clc
    1014: 65 13        	adc	$13                     ; 0x2013 <f256main+0x16ff>
    1016: aa           	tax
    1017: a9 d0        	lda	#$d0
    1019: 65 12        	adc	$12                     ; 0x2012 <f256main+0x16fe>
    101b: 86 12        	stx	$12                     ; 0x2012 <f256main+0x16fe>
    101d: 85 13        	sta	$13                     ; 0x2013 <f256main+0x16ff>
    101f: a6 01        	ldx	$1                      ; 0x2001 <f256main+0x16ed>
    1021: 84 01        	sty	$1                      ; 0x2001 <f256main+0x16ed>
    1023: a9 ff        	lda	#$ff
    1025: 92 12        	sta	($12)                   ; 0x2012 <f256main+0x16fe>
    1027: 1a           	inc
    1028: 91 12        	sta	($12),y                 ; 0x2012 <f256main+0x16fe>
    102a: a0 02        	ldy	#$2
    102c: 3a           	dec
    102d: 91 12        	sta	($12),y                 ; 0x2012 <f256main+0x16fe>
    102f: c8           	iny
    1030: 91 12        	sta	($12),y                 ; 0x2012 <f256main+0x16fe>
    1032: 86 01        	stx	$1                      ; 0x2001 <f256main+0x16ed>
    1034: 64 12        	stz	$12                     ; 0x2012 <f256main+0x16fe>
    1036: 64 13        	stz	$13                     ; 0x2013 <f256main+0x16ff>
    1038: a2 00        	ldx	#$0
    103a: a5 16        	lda	$16                     ; 0x2016 <f256main+0x1702>
    103c: 20 84 40     	jsr	$4084 <textPrintUInt>
    103f: a2 01        	ldx	#$1
    1041: 8a           	txa
    1042: a0 12        	ldy	#$12
    1044: 91 10        	sta	($10),y                 ; 0x2010 <f256main+0x16fc>
    1046: 88           	dey
    1047: 91 10        	sta	($10),y                 ; 0x2010 <f256main+0x16fc>
    1049: 4c d9 10     	jmp	$10d9 <f256main+0x7c5>
    104c: 86 26        	stx	$26                     ; 0x2026 <f256main+0x1712>
    104e: a5 16        	lda	$16                     ; 0x2016 <f256main+0x1702>
    1050: 29 f0        	and	#$f0
    1052: c9 90        	cmp	#$90
    1054: d0 03        	bne	$1059 <f256main+0x745>
    1056: 4c e1 10     	jmp	$10e1 <f256main+0x7cd>
    1059: c9 80        	cmp	#$80
    105b: f0 03        	beq	$1060 <f256main+0x74c>
    105d: 4c 50 0f     	jmp	$f50 <f256main+0x63c>
    1060: a2 01        	ldx	#$1
    1062: 8a           	txa
    1063: a0 10        	ldy	#$10
    1065: 91 10        	sta	($10),y                 ; 0x2010 <f256main+0x16fc>
    1067: 64 12        	stz	$12                     ; 0x2012 <f256main+0x16fe>
    1069: a9 00        	lda	#$0
    106b: c8           	iny
    106c: 91 10        	sta	($10),y                 ; 0x2010 <f256main+0x16fc>
    106e: c8           	iny
    106f: 4c f2 10     	jmp	$10f2 <f256main+0x7de>
    1072: aa           	tax
    1073: bc 96 82     	ldy	$8296,x                 ; 0x8296 <sidChoiceToVoice+0x5>
    1076: a2 01        	ldx	#$1
    1078: c0 00        	cpy	#$0
    107a: f0 02        	beq	$107e <f256main+0x76a>
    107c: a2 00        	ldx	#$0
    107e: 64 12        	stz	$12                     ; 0x2012 <f256main+0x16fe>
    1080: a0 01        	ldy	#$1
    1082: 64 13        	stz	$13                     ; 0x2013 <f256main+0x16ff>
    1084: e0 00        	cpx	#$0
    1086: d0 02        	bne	$108a <f256main+0x776>
    1088: 84 13        	sty	$13                     ; 0x2013 <f256main+0x16ff>
    108a: 46 13        	lsr	$13                     ; 0x2013 <f256main+0x16ff>
    108c: 64 13        	stz	$13                     ; 0x2013 <f256main+0x16ff>
    108e: 66 13        	ror	$13                     ; 0x2013 <f256main+0x16ff>
    1090: 10 04        	bpl	$1096 <f256main+0x782>
    1092: a2 ff        	ldx	#$ff
    1094: 80 02        	bra	$1098 <f256main+0x784>
    1096: a2 00        	ldx	#$0
    1098: 06 13        	asl	$13                     ; 0x2013 <f256main+0x16ff>
    109a: 86 17        	stx	$17                     ; 0x2017 <f256main+0x1703>
    109c: 26 17        	rol	$17                     ; 0x2017 <f256main+0x1703>
    109e: 0a           	asl
    109f: 26 12        	rol	$12                     ; 0x2012 <f256main+0x16fe>
    10a1: 0a           	asl
    10a2: 26 12        	rol	$12                     ; 0x2012 <f256main+0x16fe>
    10a4: 64 13        	stz	$13                     ; 0x2013 <f256main+0x16ff>
    10a6: 18           	clc
    10a7: 65 13        	adc	$13                     ; 0x2013 <f256main+0x16ff>
    10a9: 85 14        	sta	$14                     ; 0x2014 <f256main+0x1700>
    10ab: a9 d0        	lda	#$d0
    10ad: 65 12        	adc	$12                     ; 0x2012 <f256main+0x16fe>
    10af: 85 15        	sta	$15                     ; 0x2015 <f256main+0x1701>
    10b1: a6 01        	ldx	$1                      ; 0x2001 <f256main+0x16ed>
    10b3: a9 01        	lda	#$1
    10b5: 85 01        	sta	$1                      ; 0x2001 <f256main+0x16ed>
    10b7: a5 17        	lda	$17                     ; 0x2017 <f256main+0x1703>
    10b9: 91 14        	sta	($14),y                 ; 0x2014 <f256main+0x1700>
    10bb: 92 14        	sta	($14)                   ; 0x2014 <f256main+0x1700>
    10bd: a0 02        	ldy	#$2
    10bf: 91 14        	sta	($14),y                 ; 0x2014 <f256main+0x1700>
    10c1: a9 ff        	lda	#$ff
    10c3: c8           	iny
    10c4: 91 14        	sta	($14),y                 ; 0x2014 <f256main+0x1700>
    10c6: 86 01        	stx	$1                      ; 0x2001 <f256main+0x16ed>
    10c8: a2 01        	ldx	#$1
    10ca: 8a           	txa
    10cb: a0 12        	ldy	#$12
    10cd: 91 10        	sta	($10),y                 ; 0x2010 <f256main+0x16fc>
    10cf: a9 00        	lda	#$0
    10d1: a0 11        	ldy	#$11
    10d3: 91 10        	sta	($10),y                 ; 0x2010 <f256main+0x16fc>
    10d5: a6 16        	ldx	$16                     ; 0x2016 <f256main+0x1702>
    10d7: 86 2a        	stx	$2a                     ; 0x202a <f256main+0x1716>
    10d9: 64 12        	stz	$12                     ; 0x2012 <f256main+0x16fe>
    10db: a9 00        	lda	#$0
    10dd: a0 10        	ldy	#$10
    10df: 80 17        	bra	$10f8 <f256main+0x7e4>
    10e1: a2 01        	ldx	#$1
    10e3: 8a           	txa
    10e4: a0 10        	ldy	#$10
    10e6: 91 10        	sta	($10),y                 ; 0x2010 <f256main+0x16fc>
    10e8: 64 12        	stz	$12                     ; 0x2012 <f256main+0x16fe>
    10ea: a9 00        	lda	#$0
    10ec: a0 12        	ldy	#$12
    10ee: 91 10        	sta	($10),y                 ; 0x2010 <f256main+0x16fc>
    10f0: 8a           	txa
    10f1: 88           	dey
    10f2: 91 10        	sta	($10),y                 ; 0x2010 <f256main+0x16fc>
    10f4: a5 16        	lda	$16                     ; 0x2016 <f256main+0x1702>
    10f6: a0 0f        	ldy	#$f
    10f8: 91 10        	sta	($10),y                 ; 0x2010 <f256main+0x16fc>
    10fa: a5 25        	lda	$25                     ; 0x2025 <f256main+0x1711>
    10fc: a2 ff        	ldx	#$ff
    10fe: c6 2b        	dec	$2b                     ; 0x202b <f256main+0x1717>
    1100: e4 2b        	cpx	$2b                     ; 0x202b <f256main+0x1717>
    1102: d0 01        	bne	$1105 <f256main+0x7f1>
    1104: 3a           	dec
    1105: aa           	tax
    1106: f0 03        	beq	$110b <f256main+0x7f7>
    1108: 4c 7f 0f     	jmp	$f7f <f256main+0x66b>
    110b: a6 2b        	ldx	$2b                     ; 0x202b <f256main+0x1717>
    110d: f0 03        	beq	$1112 <f256main+0x7fe>
    110f: 4c 7f 0f     	jmp	$f7f <f256main+0x66b>
    1112: 64 83        	stz	$83                     ; 0x2083 <f256main+0x176f>
    1114: 18           	clc
    1115: a5 10        	lda	$10                     ; 0x2010 <f256main+0x16fc>
    1117: 69 13        	adc	#$13
    1119: 85 12        	sta	$12                     ; 0x2012 <f256main+0x16fe>
    111b: a5 11        	lda	$11                     ; 0x2011 <f256main+0x16fd>
    111d: 69 00        	adc	#$0
    111f: 85 13        	sta	$13                     ; 0x2013 <f256main+0x16ff>
    1121: 20 00 ff     	jsr	$ff00 <__heap_start+0x78ba>
    1124: 92 12        	sta	($12)                   ; 0x2012 <f256main+0x16fe>
    1126: a9 00        	lda	#$0
    1128: 6a           	ror
    1129: 85 2e        	sta	$2e                     ; 0x202e <f256main+0x171a>
    112b: a6 83        	ldx	$83                     ; 0x2083 <f256main+0x176f>
    112d: e0 08        	cpx	#$8
    112f: f0 4c        	beq	$117d <f256main+0x869>
    1131: e0 0a        	cpx	#$a
    1133: f0 2c        	beq	$1161 <f256main+0x84d>
    1135: e0 52        	cpx	#$52
    1137: f0 03        	beq	$113c <f256main+0x828>
    1139: 4c f5 0e     	jmp	$ef5 <f256main+0x5e1>
    113c: a6 87        	ldx	$87                     ; 0x2087 <f256main+0x1773>
    113e: d0 03        	bne	$1143 <f256main+0x82f>
    1140: 4c fc 11     	jmp	$11fc <f256main+0x8e8>
    1143: 18           	clc
    1144: 86 2d        	stx	$2d                     ; 0x202d <f256main+0x1719>
    1146: 8a           	txa
    1147: 69 fa        	adc	#$fa
    1149: aa           	tax
    114a: 85 2b        	sta	$2b                     ; 0x202b <f256main+0x1717>
    114c: a9 00        	lda	#$0
    114e: 69 ff        	adc	#$ff
    1150: 85 2c        	sta	$2c                     ; 0x202c <f256main+0x1718>
    1152: f0 03        	beq	$1157 <f256main+0x843>
    1154: 4c 40 12     	jmp	$1240 <f256main+0x92c>
    1157: e0 fa        	cpx	#$fa
    1159: 90 03        	bcc	$115e <f256main+0x84a>
    115b: 4c f5 0e     	jmp	$ef5 <f256main+0x5e1>
    115e: 4c 47 12     	jmp	$1247 <f256main+0x933>
    1161: a6 87        	ldx	$87                     ; 0x2087 <f256main+0x1773>
    1163: e0 01        	cpx	#$1
    1165: d0 03        	bne	$116a <f256main+0x856>
    1167: 4c 0d 15     	jmp	$150d <f256main+0xbf9>
    116a: e0 20        	cpx	#$20
    116c: d0 03        	bne	$1171 <f256main+0x85d>
    116e: 4c dc 14     	jmp	$14dc <f256main+0xbc8>
    1171: e0 05        	cpx	#$5
    1173: f0 03        	beq	$1178 <f256main+0x864>
    1175: 4c f5 0e     	jmp	$ef5 <f256main+0x5e1>
    1178: 64 63        	stz	$63                     ; 0x2063 <f256main+0x174f>
    117a: 4c f5 0e     	jmp	$ef5 <f256main+0x5e1>
    117d: a5 87        	lda	$87                     ; 0x2087 <f256main+0x1773>
    117f: aa           	tax
    1180: 38           	sec
    1181: e9 01        	sbc	#$1
    1183: 50 02        	bvc	$1187 <f256main+0x873>
    1185: 49 80        	eor	#$80
    1187: a8           	tay
    1188: 10 3b        	bpl	$11c5 <f256main+0x8b1>
    118a: 8a           	txa
    118b: 38           	sec
    118c: e9 94        	sbc	#$94
    118e: 50 02        	bvc	$1192 <f256main+0x87e>
    1190: 49 80        	eor	#$80
    1192: a8           	tay
    1193: 30 03        	bmi	$1198 <f256main+0x884>
    1195: 4c 62 14     	jmp	$1462 <f256main+0xb4e>
    1198: a0 12        	ldy	#$12
    119a: b1 10        	lda	($10),y                 ; 0x2010 <f256main+0x16fc>
    119c: 85 25        	sta	$25                     ; 0x2025 <f256main+0x1711>
    119e: 8a           	txa
    119f: 18           	clc
    11a0: 69 7f        	adc	#$7f
    11a2: c9 07        	cmp	#$7
    11a4: 90 03        	bcc	$11a9 <f256main+0x895>
    11a6: 4c e2 18     	jmp	$18e2 <f256main+0xfce>
    11a9: 0a           	asl
    11aa: aa           	tax
    11ab: 7c 8f 75     	jmp	($758f,x)               ; 0x758f <__set_v+0x1>
    11ae: a4 61        	ldy	$61                     ; 0x2061 <f256main+0x174d>
    11b0: a2 01        	ldx	#$1
    11b2: 98           	tya
    11b3: f0 02        	beq	$11b7 <f256main+0x8a3>
    11b5: a2 00        	ldx	#$0
    11b7: a9 20        	lda	#$20
    11b9: e0 00        	cpx	#$0
    11bb: d0 03        	bne	$11c0 <f256main+0x8ac>
    11bd: 4c 24 1e     	jmp	$1e24 <f256main+0x1510>
    11c0: a0 01        	ldy	#$1
    11c2: 4c 26 1e     	jmp	$1e26 <f256main+0x1512>
    11c5: 8a           	txa
    11c6: 38           	sec
    11c7: e9 5d        	sbc	#$5d
    11c9: 50 02        	bvc	$11cd <f256main+0x8b9>
    11cb: 49 80        	eor	#$80
    11cd: a8           	tay
    11ce: 30 03        	bmi	$11d3 <f256main+0x8bf>
    11d0: 4c 12 15     	jmp	$1512 <f256main+0xbfe>
    11d3: 8a           	txa
    11d4: 38           	sec
    11d5: e9 20        	sbc	#$20
    11d7: 50 02        	bvc	$11db <f256main+0x8c7>
    11d9: 49 80        	eor	#$80
    11db: a8           	tay
    11dc: 30 03        	bmi	$11e1 <f256main+0x8cd>
    11de: 4c 26 16     	jmp	$1626 <f256main+0xd12>
    11e1: a0 12        	ldy	#$12
    11e3: b1 10        	lda	($10),y                 ; 0x2010 <f256main+0x16fc>
    11e5: 85 25        	sta	$25                     ; 0x2025 <f256main+0x1711>
    11e7: e0 01        	cpx	#$1
    11e9: d0 03        	bne	$11ee <f256main+0x8da>
    11eb: 4c 86 19     	jmp	$1986 <f256main+0x1072>
    11ee: e0 05        	cpx	#$5
    11f0: f0 03        	beq	$11f5 <f256main+0x8e1>
    11f2: 4c 6a 2a     	jmp	$2a6a <f256main+0x2156>
    11f5: a2 01        	ldx	#$1
    11f7: 86 63        	stx	$63                     ; 0x2063 <f256main+0x174f>
    11f9: 4c 6a 2a     	jmp	$2a6a <f256main+0x2156>
    11fc: a2 80        	ldx	#$80
    11fe: 86 f3        	stx	$f3                     ; 0x20f3 <f256main+0x17df>
    1200: 18           	clc
    1201: a5 10        	lda	$10                     ; 0x2010 <f256main+0x16fc>
    1203: 69 1c        	adc	#$1c
    1205: 85 12        	sta	$12                     ; 0x2012 <f256main+0x16fe>
    1207: a5 11        	lda	$11                     ; 0x2011 <f256main+0x16fd>
    1209: 69 00        	adc	#$0
    120b: 85 13        	sta	$13                     ; 0x2013 <f256main+0x16ff>
    120d: 20 f0 ff     	jsr	$fff0 <__heap_start+0x79aa>
    1210: 92 12        	sta	($12)                   ; 0x2012 <f256main+0x16fe>
    1212: a9 00        	lda	#$0
    1214: 6a           	ror
    1215: 85 2e        	sta	$2e                     ; 0x202e <f256main+0x171a>
    1217: 18           	clc
    1218: a9 09        	lda	#$9
    121a: 72 12        	adc	($12)                   ; 0x2012 <f256main+0x16fe>
    121c: 85 80        	sta	$80                     ; 0x2080 <f256main+0x176c>
    121e: 64 f3        	stz	$f3                     ; 0x20f3 <f256main+0x17df>
    1220: a6 80        	ldx	$80                     ; 0x2080 <f256main+0x176c>
    1222: 86 f4        	stx	$f4                     ; 0x20f4 <f256main+0x17e0>
    1224: 64 f5        	stz	$f5                     ; 0x20f5 <f256main+0x17e1>
    1226: 18           	clc
    1227: a5 10        	lda	$10                     ; 0x2010 <f256main+0x16fc>
    1229: 69 1d        	adc	#$1d
    122b: 85 12        	sta	$12                     ; 0x2012 <f256main+0x16fe>
    122d: a5 11        	lda	$11                     ; 0x2011 <f256main+0x16fd>
    122f: 69 00        	adc	#$0
    1231: 85 13        	sta	$13                     ; 0x2013 <f256main+0x16ff>
    1233: 20 f0 ff     	jsr	$fff0 <__heap_start+0x79aa>
    1236: 92 12        	sta	($12)                   ; 0x2012 <f256main+0x16fe>
    1238: a9 00        	lda	#$0
    123a: 6a           	ror
    123b: 85 2e        	sta	$2e                     ; 0x202e <f256main+0x171a>
    123d: 4c f5 0e     	jmp	$ef5 <f256main+0x5e1>
    1240: c9 00        	cmp	#$0
    1242: 90 03        	bcc	$1247 <f256main+0x933>
    1244: 4c f5 0e     	jmp	$ef5 <f256main+0x5e1>
    1247: a5 7e        	lda	$7e                     ; 0x207e <f256main+0x176a>
    1249: a6 7f        	ldx	$7f                     ; 0x207f <f256main+0x176b>
    124b: 85 12        	sta	$12                     ; 0x2012 <f256main+0x16fe>
    124d: 85 1b        	sta	$1b                     ; 0x201b <f256main+0x1707>
    124f: 86 13        	stx	$13                     ; 0x2013 <f256main+0x16ff>
    1251: 86 19        	stx	$19                     ; 0x2019 <f256main+0x1705>
    1253: a6 6a        	ldx	$6a                     ; 0x206a <f256main+0x1756>
    1255: a0 12        	ldy	#$12
    1257: b1 10        	lda	($10),y                 ; 0x2010 <f256main+0x16fc>
    1259: 85 27        	sta	$27                     ; 0x2027 <f256main+0x1713>
    125b: a4 6b        	ldy	$6b                     ; 0x206b <f256main+0x1757>
    125d: 86 16        	stx	$16                     ; 0x2016 <f256main+0x1702>
    125f: 84 17        	sty	$17                     ; 0x2017 <f256main+0x1703>
    1261: a0 08        	ldy	#$8
    1263: b1 16        	lda	($16),y                 ; 0x2016 <f256main+0x1702>
    1265: 85 1a        	sta	$1a                     ; 0x201a <f256main+0x1706>
    1267: 64 14        	stz	$14                     ; 0x2014 <f256main+0x1700>
    1269: 0a           	asl
    126a: 64 18        	stz	$18                     ; 0x2018 <f256main+0x1704>
    126c: 26 18        	rol	$18                     ; 0x2018 <f256main+0x1704>
    126e: 0a           	asl
    126f: 26 18        	rol	$18                     ; 0x2018 <f256main+0x1704>
    1271: 0a           	asl
    1272: 26 18        	rol	$18                     ; 0x2018 <f256main+0x1704>
    1274: 0a           	asl
    1275: 26 18        	rol	$18                     ; 0x2018 <f256main+0x1704>
    1277: 38           	sec
    1278: e5 1a        	sbc	$1a                     ; 0x201a <f256main+0x1706>
    127a: 85 15        	sta	$15                     ; 0x2015 <f256main+0x1701>
    127c: a5 18        	lda	$18                     ; 0x2018 <f256main+0x1704>
    127e: e9 00        	sbc	#$0
    1280: 85 18        	sta	$18                     ; 0x2018 <f256main+0x1704>
    1282: a5 1b        	lda	$1b                     ; 0x201b <f256main+0x1707>
    1284: 18           	clc
    1285: 65 15        	adc	$15                     ; 0x2015 <f256main+0x1701>
    1287: 85 15        	sta	$15                     ; 0x2015 <f256main+0x1701>
    1289: a5 19        	lda	$19                     ; 0x2019 <f256main+0x1705>
    128b: 85 1e        	sta	$1e                     ; 0x201e <f256main+0x170a>
    128d: 65 18        	adc	$18                     ; 0x2018 <f256main+0x1704>
    128f: a6 15        	ldx	$15                     ; 0x2015 <f256main+0x1701>
    1291: a4 15        	ldy	$15                     ; 0x2015 <f256main+0x1701>
    1293: 84 18        	sty	$18                     ; 0x2018 <f256main+0x1704>
    1295: 85 15        	sta	$15                     ; 0x2015 <f256main+0x1701>
    1297: 85 19        	sta	$19                     ; 0x2019 <f256main+0x1705>
    1299: b2 18        	lda	($18)                   ; 0x2018 <f256main+0x1704>
    129b: d0 03        	bne	$12a0 <f256main+0x98c>
    129d: 4c f5 0e     	jmp	$ef5 <f256main+0x5e1>
    12a0: 18           	clc
    12a1: 8a           	txa
    12a2: 69 0b        	adc	#$b
    12a4: 85 1c        	sta	$1c                     ; 0x201c <f256main+0x1708>
    12a6: a5 15        	lda	$15                     ; 0x2015 <f256main+0x1701>
    12a8: 69 00        	adc	#$0
    12aa: 85 1d        	sta	$1d                     ; 0x201d <f256main+0x1709>
    12ac: a0 01        	ldy	#$1
    12ae: b1 1c        	lda	($1c),y                 ; 0x201c <f256main+0x1708>
    12b0: 85 15        	sta	$15                     ; 0x2015 <f256main+0x1701>
    12b2: 18           	clc
    12b3: a5 2d        	lda	$2d                     ; 0x202d <f256main+0x1719>
    12b5: a0 0b        	ldy	#$b
    12b7: 71 18        	adc	($18),y                 ; 0x2018 <f256main+0x1704>
    12b9: aa           	tax
    12ba: a5 15        	lda	$15                     ; 0x2015 <f256main+0x1701>
    12bc: 69 00        	adc	#$0
    12be: 85 15        	sta	$15                     ; 0x2015 <f256main+0x1701>
    12c0: 18           	clc
    12c1: 8a           	txa
    12c2: 69 fa        	adc	#$fa
    12c4: 85 18        	sta	$18                     ; 0x2018 <f256main+0x1704>
    12c6: a5 15        	lda	$15                     ; 0x2015 <f256main+0x1701>
    12c8: 69 ff        	adc	#$ff
    12ca: 85 19        	sta	$19                     ; 0x2019 <f256main+0x1705>
    12cc: b2 18        	lda	($18)                   ; 0x2018 <f256main+0x1704>
    12ce: c9 02        	cmp	#$2
    12d0: d0 0a        	bne	$12dc <f256main+0x9c8>
    12d2: a9 00        	lda	#$0
    12d4: 92 18        	sta	($18)                   ; 0x2018 <f256main+0x1704>
    12d6: a0 08        	ldy	#$8
    12d8: b1 16        	lda	($16),y                 ; 0x2016 <f256main+0x1702>
    12da: 85 1a        	sta	$1a                     ; 0x201a <f256main+0x1706>
    12dc: a5 1a        	lda	$1a                     ; 0x201a <f256main+0x1706>
    12de: 0a           	asl
    12df: 64 16        	stz	$16                     ; 0x2016 <f256main+0x1702>
    12e1: 26 16        	rol	$16                     ; 0x2016 <f256main+0x1702>
    12e3: 0a           	asl
    12e4: 26 16        	rol	$16                     ; 0x2016 <f256main+0x1702>
    12e6: 0a           	asl
    12e7: 26 16        	rol	$16                     ; 0x2016 <f256main+0x1702>
    12e9: 0a           	asl
    12ea: 26 16        	rol	$16                     ; 0x2016 <f256main+0x1702>
    12ec: 38           	sec
    12ed: e5 1a        	sbc	$1a                     ; 0x201a <f256main+0x1706>
    12ef: 85 15        	sta	$15                     ; 0x2015 <f256main+0x1701>
    12f1: a5 16        	lda	$16                     ; 0x2016 <f256main+0x1702>
    12f3: e5 14        	sbc	$14                     ; 0x2014 <f256main+0x1700>
    12f5: 85 14        	sta	$14                     ; 0x2014 <f256main+0x1700>
    12f7: 18           	clc
    12f8: a5 1b        	lda	$1b                     ; 0x201b <f256main+0x1707>
    12fa: 65 15        	adc	$15                     ; 0x2015 <f256main+0x1701>
    12fc: aa           	tax
    12fd: a5 1e        	lda	$1e                     ; 0x201e <f256main+0x170a>
    12ff: 65 14        	adc	$14                     ; 0x2014 <f256main+0x1700>
    1301: 86 14        	stx	$14                     ; 0x2014 <f256main+0x1700>
    1303: 85 15        	sta	$15                     ; 0x2015 <f256main+0x1701>
    1305: a8           	tay
    1306: 18           	clc
    1307: 8a           	txa
    1308: 69 0b        	adc	#$b
    130a: 85 16        	sta	$16                     ; 0x2016 <f256main+0x1702>
    130c: 98           	tya
    130d: 69 00        	adc	#$0
    130f: 85 17        	sta	$17                     ; 0x2017 <f256main+0x1703>
    1311: a0 01        	ldy	#$1
    1313: b1 16        	lda	($16),y                 ; 0x2016 <f256main+0x1702>
    1315: 85 17        	sta	$17                     ; 0x2017 <f256main+0x1703>
    1317: 18           	clc
    1318: a5 2d        	lda	$2d                     ; 0x202d <f256main+0x1719>
    131a: 85 16        	sta	$16                     ; 0x2016 <f256main+0x1702>
    131c: a0 0b        	ldy	#$b
    131e: 71 14        	adc	($14),y                 ; 0x2014 <f256main+0x1700>
    1320: aa           	tax
    1321: a5 17        	lda	$17                     ; 0x2017 <f256main+0x1703>
    1323: 69 00        	adc	#$0
    1325: 85 14        	sta	$14                     ; 0x2014 <f256main+0x1700>
    1327: 18           	clc
    1328: 8a           	txa
    1329: 69 fa        	adc	#$fa
    132b: aa           	tax
    132c: a5 14        	lda	$14                     ; 0x2014 <f256main+0x1700>
    132e: 69 ff        	adc	#$ff
    1330: 85 15        	sta	$15                     ; 0x2015 <f256main+0x1701>
    1332: 86 14        	stx	$14                     ; 0x2014 <f256main+0x1700>
    1334: a5 2b        	lda	$2b                     ; 0x202b <f256main+0x1717>
    1336: 0a           	asl
    1337: 85 17        	sta	$17                     ; 0x2017 <f256main+0x1703>
    1339: a5 2c        	lda	$2c                     ; 0x202c <f256main+0x1718>
    133b: 2a           	rol
    133c: 85 18        	sta	$18                     ; 0x2018 <f256main+0x1704>
    133e: b2 14        	lda	($14)                   ; 0x2014 <f256main+0x1700>
    1340: c9 01        	cmp	#$1
    1342: f0 03        	beq	$1347 <f256main+0xa33>
    1344: 4c ca 16     	jmp	$16ca <f256main+0xdb6>
    1347: a2 80        	ldx	#$80
    1349: 86 f3        	stx	$f3                     ; 0x20f3 <f256main+0x17df>
    134b: 18           	clc
    134c: a5 10        	lda	$10                     ; 0x2010 <f256main+0x16fc>
    134e: 69 1e        	adc	#$1e
    1350: 85 12        	sta	$12                     ; 0x2012 <f256main+0x16fe>
    1352: a5 11        	lda	$11                     ; 0x2011 <f256main+0x16fd>
    1354: 69 00        	adc	#$0
    1356: 85 13        	sta	$13                     ; 0x2013 <f256main+0x16ff>
    1358: 20 f0 ff     	jsr	$fff0 <__heap_start+0x79aa>
    135b: 92 12        	sta	($12)                   ; 0x2012 <f256main+0x16fe>
    135d: a9 00        	lda	#$0
    135f: 6a           	ror
    1360: 85 2e        	sta	$2e                     ; 0x202e <f256main+0x171a>
    1362: b2 12        	lda	($12)                   ; 0x2012 <f256main+0x16fe>
    1364: 85 12        	sta	$12                     ; 0x2012 <f256main+0x16fe>
    1366: b2 28        	lda	($28)                   ; 0x2028 <f256main+0x1714>
    1368: aa           	tax
    1369: 18           	clc
    136a: a5 12        	lda	$12                     ; 0x2012 <f256main+0x16fe>
    136c: 75 6c        	adc	$6c,x                   ; 0x206c <f256main+0x1758>
    136e: 85 19        	sta	$19                     ; 0x2019 <f256main+0x1705>
    1370: a6 6a        	ldx	$6a                     ; 0x206a <f256main+0x1756>
    1372: a4 6b        	ldy	$6b                     ; 0x206b <f256main+0x1757>
    1374: 86 12        	stx	$12                     ; 0x2012 <f256main+0x16fe>
    1376: 84 13        	sty	$13                     ; 0x2013 <f256main+0x16ff>
    1378: a0 08        	ldy	#$8
    137a: b1 12        	lda	($12),y                 ; 0x2012 <f256main+0x16fe>
    137c: 85 12        	sta	$12                     ; 0x2012 <f256main+0x16fe>
    137e: 0a           	asl
    137f: aa           	tax
    1380: a9 00        	lda	#$0
    1382: 2a           	rol
    1383: 86 13        	stx	$13                     ; 0x2013 <f256main+0x16ff>
    1385: 06 13        	asl	$13                     ; 0x2013 <f256main+0x16ff>
    1387: 2a           	rol
    1388: 06 13        	asl	$13                     ; 0x2013 <f256main+0x16ff>
    138a: 2a           	rol
    138b: 06 13        	asl	$13                     ; 0x2013 <f256main+0x16ff>
    138d: 2a           	rol
    138e: aa           	tax
    138f: 38           	sec
    1390: a5 13        	lda	$13                     ; 0x2013 <f256main+0x16ff>
    1392: e5 12        	sbc	$12                     ; 0x2012 <f256main+0x16fe>
    1394: 85 12        	sta	$12                     ; 0x2012 <f256main+0x16fe>
    1396: 8a           	txa
    1397: e9 00        	sbc	#$0
    1399: a8           	tay
    139a: 18           	clc
    139b: a5 12        	lda	$12                     ; 0x2012 <f256main+0x16fe>
    139d: 65 7e        	adc	$7e                     ; 0x207e <f256main+0x176a>
    139f: aa           	tax
    13a0: 98           	tya
    13a1: 65 7f        	adc	$7f                     ; 0x207f <f256main+0x176b>
    13a3: 86 12        	stx	$12                     ; 0x2012 <f256main+0x16fe>
    13a5: 85 13        	sta	$13                     ; 0x2013 <f256main+0x16ff>
    13a7: a8           	tay
    13a8: 18           	clc
    13a9: 8a           	txa
    13aa: 69 0d        	adc	#$d
    13ac: 85 14        	sta	$14                     ; 0x2014 <f256main+0x1700>
    13ae: 98           	tya
    13af: 69 00        	adc	#$0
    13b1: 85 15        	sta	$15                     ; 0x2015 <f256main+0x1701>
    13b3: 18           	clc
    13b4: a5 17        	lda	$17                     ; 0x2017 <f256main+0x1703>
    13b6: 65 2b        	adc	$2b                     ; 0x202b <f256main+0x1717>
    13b8: aa           	tax
    13b9: a5 18        	lda	$18                     ; 0x2018 <f256main+0x1704>
    13bb: 65 2c        	adc	$2c                     ; 0x202c <f256main+0x1718>
    13bd: 85 17        	sta	$17                     ; 0x2017 <f256main+0x1703>
    13bf: 18           	clc
    13c0: a0 0d        	ldy	#$d
    13c2: 8a           	txa
    13c3: 71 12        	adc	($12),y                 ; 0x2012 <f256main+0x16fe>
    13c5: 85 12        	sta	$12                     ; 0x2012 <f256main+0x16fe>
    13c7: a0 01        	ldy	#$1
    13c9: a5 17        	lda	$17                     ; 0x2017 <f256main+0x1703>
    13cb: 71 14        	adc	($14),y                 ; 0x2014 <f256main+0x1700>
    13cd: 85 13        	sta	$13                     ; 0x2013 <f256main+0x16ff>
    13cf: a5 19        	lda	$19                     ; 0x2019 <f256main+0x1705>
    13d1: 91 12        	sta	($12),y                 ; 0x2012 <f256main+0x16fe>
    13d3: b2 12        	lda	($12)                   ; 0x2012 <f256main+0x16fe>
    13d5: 85 f3        	sta	$f3                     ; 0x20f3 <f256main+0x17df>
    13d7: b1 12        	lda	($12),y                 ; 0x2012 <f256main+0x16fe>
    13d9: 85 f4        	sta	$f4                     ; 0x20f4 <f256main+0x17e0>
    13db: c8           	iny
    13dc: b1 12        	lda	($12),y                 ; 0x2012 <f256main+0x16fe>
    13de: 85 f5        	sta	$f5                     ; 0x20f5 <f256main+0x17e1>
    13e0: 18           	clc
    13e1: a5 10        	lda	$10                     ; 0x2010 <f256main+0x16fc>
    13e3: 69 1f        	adc	#$1f
    13e5: 85 12        	sta	$12                     ; 0x2012 <f256main+0x16fe>
    13e7: a5 11        	lda	$11                     ; 0x2011 <f256main+0x16fd>
    13e9: 69 00        	adc	#$0
    13eb: 85 13        	sta	$13                     ; 0x2013 <f256main+0x16ff>
    13ed: 20 f0 ff     	jsr	$fff0 <__heap_start+0x79aa>
    13f0: 92 12        	sta	($12)                   ; 0x2012 <f256main+0x16fe>
    13f2: a9 00        	lda	#$0
    13f4: 6a           	ror
    13f5: 85 2e        	sta	$2e                     ; 0x202e <f256main+0x171a>
    13f7: a6 6a        	ldx	$6a                     ; 0x206a <f256main+0x1756>
    13f9: a4 6b        	ldy	$6b                     ; 0x206b <f256main+0x1757>
    13fb: 86 12        	stx	$12                     ; 0x2012 <f256main+0x16fe>
    13fd: 84 13        	sty	$13                     ; 0x2013 <f256main+0x16ff>
    13ff: a0 08        	ldy	#$8
    1401: b1 12        	lda	($12),y                 ; 0x2012 <f256main+0x16fe>
    1403: 85 12        	sta	$12                     ; 0x2012 <f256main+0x16fe>
    1405: 0a           	asl
    1406: aa           	tax
    1407: a9 00        	lda	#$0
    1409: 2a           	rol
    140a: 86 13        	stx	$13                     ; 0x2013 <f256main+0x16ff>
    140c: 06 13        	asl	$13                     ; 0x2013 <f256main+0x16ff>
    140e: 2a           	rol
    140f: 06 13        	asl	$13                     ; 0x2013 <f256main+0x16ff>
    1411: 2a           	rol
    1412: 06 13        	asl	$13                     ; 0x2013 <f256main+0x16ff>
    1414: 2a           	rol
    1415: aa           	tax
    1416: 38           	sec
    1417: a5 13        	lda	$13                     ; 0x2013 <f256main+0x16ff>
    1419: e5 12        	sbc	$12                     ; 0x2012 <f256main+0x16fe>
    141b: 85 12        	sta	$12                     ; 0x2012 <f256main+0x16fe>
    141d: 8a           	txa
    141e: e9 00        	sbc	#$0
    1420: a8           	tay
    1421: 18           	clc
    1422: a5 12        	lda	$12                     ; 0x2012 <f256main+0x16fe>
    1424: 65 7e        	adc	$7e                     ; 0x207e <f256main+0x176a>
    1426: aa           	tax
    1427: 98           	tya
    1428: 65 7f        	adc	$7f                     ; 0x207f <f256main+0x176b>
    142a: 86 12        	stx	$12                     ; 0x2012 <f256main+0x16fe>
    142c: 85 13        	sta	$13                     ; 0x2013 <f256main+0x16ff>
    142e: a8           	tay
    142f: 18           	clc
    1430: 8a           	txa
    1431: 69 0b        	adc	#$b
    1433: 85 14        	sta	$14                     ; 0x2014 <f256main+0x1700>
    1435: 98           	tya
    1436: 69 00        	adc	#$0
    1438: 85 15        	sta	$15                     ; 0x2015 <f256main+0x1701>
    143a: a0 01        	ldy	#$1
    143c: b1 14        	lda	($14),y                 ; 0x2014 <f256main+0x1700>
    143e: 85 14        	sta	$14                     ; 0x2014 <f256main+0x1700>
    1440: 18           	clc
    1441: a5 16        	lda	$16                     ; 0x2016 <f256main+0x1702>
    1443: a0 0b        	ldy	#$b
    1445: 71 12        	adc	($12),y                 ; 0x2012 <f256main+0x16fe>
    1447: aa           	tax
    1448: a5 14        	lda	$14                     ; 0x2014 <f256main+0x1700>
    144a: 69 00        	adc	#$0
    144c: 85 12        	sta	$12                     ; 0x2012 <f256main+0x16fe>
    144e: 18           	clc
    144f: 8a           	txa
    1450: 69 fa        	adc	#$fa
    1452: aa           	tax
    1453: a5 12        	lda	$12                     ; 0x2012 <f256main+0x16fe>
    1455: 69 ff        	adc	#$ff
    1457: 85 13        	sta	$13                     ; 0x2013 <f256main+0x16ff>
    1459: 86 12        	stx	$12                     ; 0x2012 <f256main+0x16fe>
    145b: a9 02        	lda	#$2
    145d: 92 12        	sta	($12)                   ; 0x2012 <f256main+0x16fe>
    145f: 4c f5 0e     	jmp	$ef5 <f256main+0x5e1>
    1462: 8a           	txa
    1463: 18           	clc
    1464: 69 4a        	adc	#$4a
    1466: c9 04        	cmp	#$4
    1468: 90 03        	bcc	$146d <f256main+0xb59>
    146a: 4c a0 18     	jmp	$18a0 <f256main+0xf8c>
    146d: 0a           	asl
    146e: aa           	tax
    146f: 7c 9d 75     	jmp	($759d,x)               ; 0x759d <__set_v+0xf>
    1472: a0 12        	ldy	#$12
    1474: b1 10        	lda	($10),y                 ; 0x2010 <f256main+0x16fc>
    1476: 85 25        	sta	$25                     ; 0x2025 <f256main+0x1711>
    1478: a6 61        	ldx	$61                     ; 0x2061 <f256main+0x174d>
    147a: a4 6a        	ldy	$6a                     ; 0x206a <f256main+0x1756>
    147c: a5 6b        	lda	$6b                     ; 0x206b <f256main+0x1757>
    147e: 84 12        	sty	$12                     ; 0x2012 <f256main+0x16fe>
    1480: 85 13        	sta	$13                     ; 0x2013 <f256main+0x16ff>
    1482: a0 06        	ldy	#$6
    1484: b1 12        	lda	($12),y                 ; 0x2012 <f256main+0x16fe>
    1486: e0 00        	cpx	#$0
    1488: d0 03        	bne	$148d <f256main+0xb79>
    148a: 4c e3 24     	jmp	$24e3 <f256main+0x1bcf>
    148d: aa           	tax
    148e: f0 03        	beq	$1493 <f256main+0xb7f>
    1490: 4c 03 28     	jmp	$2803 <f256main+0x1eef>
    1493: a6 12        	ldx	$12                     ; 0x2012 <f256main+0x16fe>
    1495: 86 14        	stx	$14                     ; 0x2014 <f256main+0x1700>
    1497: a6 13        	ldx	$13                     ; 0x2013 <f256main+0x16ff>
    1499: 86 15        	stx	$15                     ; 0x2015 <f256main+0x1701>
    149b: e6 14        	inc	$14                     ; 0x2014 <f256main+0x1700>
    149d: d0 02        	bne	$14a1 <f256main+0xb8d>
    149f: e6 15        	inc	$15                     ; 0x2015 <f256main+0x1701>
    14a1: a5 64        	lda	$64                     ; 0x2064 <f256main+0x1750>
    14a3: 29 01        	and	#$1
    14a5: a2 1d        	ldx	#$1d
    14a7: a0 00        	ldy	#$0
    14a9: c9 00        	cmp	#$0
    14ab: d0 02        	bne	$14af <f256main+0xb9b>
    14ad: a2 02        	ldx	#$2
    14af: a9 01        	lda	#$1
    14b1: 25 64        	and	$64                     ; 0x2064 <f256main+0x1750>
    14b3: 85 17        	sta	$17                     ; 0x2017 <f256main+0x1703>
    14b5: 98           	tya
    14b6: f0 03        	beq	$14bb <f256main+0xba7>
    14b8: 4c 46 27     	jmp	$2746 <f256main+0x1e32>
    14bb: a0 01        	ldy	#$1
    14bd: b1 12        	lda	($12),y                 ; 0x2012 <f256main+0x16fe>
    14bf: 85 16        	sta	$16                     ; 0x2016 <f256main+0x1702>
    14c1: b1 14        	lda	($14),y                 ; 0x2014 <f256main+0x1700>
    14c3: a4 16        	ldy	$16                     ; 0x2016 <f256main+0x1702>
    14c5: 84 14        	sty	$14                     ; 0x2014 <f256main+0x1700>
    14c7: 85 15        	sta	$15                     ; 0x2015 <f256main+0x1701>
    14c9: a0 05        	ldy	#$5
    14cb: b1 12        	lda	($12),y                 ; 0x2012 <f256main+0x16fe>
    14cd: a8           	tay
    14ce: b1 14        	lda	($14),y                 ; 0x2014 <f256main+0x1700>
    14d0: 85 14        	sta	$14                     ; 0x2014 <f256main+0x1700>
    14d2: e4 14        	cpx	$14                     ; 0x2014 <f256main+0x1700>
    14d4: b0 03        	bcs	$14d9 <f256main+0xbc5>
    14d6: 4c 4d 27     	jmp	$274d <f256main+0x1e39>
    14d9: 4c 6a 2a     	jmp	$2a6a <f256main+0x2156>
    14dc: a6 6a        	ldx	$6a                     ; 0x206a <f256main+0x1756>
    14de: a4 6b        	ldy	$6b                     ; 0x206b <f256main+0x1757>
    14e0: 86 12        	stx	$12                     ; 0x2012 <f256main+0x16fe>
    14e2: 84 13        	sty	$13                     ; 0x2013 <f256main+0x16ff>
    14e4: a0 05        	ldy	#$5
    14e6: b1 12        	lda	($12),y                 ; 0x2012 <f256main+0x16fe>
    14e8: 85 18        	sta	$18                     ; 0x2018 <f256main+0x1704>
    14ea: a9 15        	lda	#$15
    14ec: 18           	clc
    14ed: 65 31        	adc	$31                     ; 0x2031 <f256main+0x171d>
    14ef: aa           	tax
    14f0: b2 12        	lda	($12)                   ; 0x2012 <f256main+0x16fe>
    14f2: 85 14        	sta	$14                     ; 0x2014 <f256main+0x1700>
    14f4: c8           	iny
    14f5: b1 12        	lda	($12),y                 ; 0x2012 <f256main+0x16fe>
    14f7: 86 12        	stx	$12                     ; 0x2012 <f256main+0x16fe>
    14f9: a2 3f        	ldx	#$3f
    14fb: 86 13        	stx	$13                     ; 0x2013 <f256main+0x16ff>
    14fd: 85 15        	sta	$15                     ; 0x2015 <f256main+0x1701>
    14ff: 64 16        	stz	$16                     ; 0x2016 <f256main+0x1702>
    1501: 64 17        	stz	$17                     ; 0x2017 <f256main+0x1703>
    1503: a6 18        	ldx	$18                     ; 0x2018 <f256main+0x1704>
    1505: a9 00        	lda	#$0
    1507: 20 54 31     	jsr	$3154 <dispatchNote>
    150a: 4c f5 0e     	jmp	$ef5 <f256main+0x5e1>
    150d: 64 64        	stz	$64                     ; 0x2064 <f256main+0x1750>
    150f: 4c f5 0e     	jmp	$ef5 <f256main+0x5e1>
    1512: 8a           	txa
    1513: 38           	sec
    1514: e9 6d        	sbc	#$6d
    1516: 50 02        	bvc	$151a <f256main+0xc06>
    1518: 49 80        	eor	#$80
    151a: a8           	tay
    151b: 30 03        	bmi	$1520 <f256main+0xc0c>
    151d: 4c 8e 16     	jmp	$168e <f256main+0xd7a>
    1520: a0 12        	ldy	#$12
    1522: b1 10        	lda	($10),y                 ; 0x2010 <f256main+0x16fc>
    1524: 85 25        	sta	$25                     ; 0x2025 <f256main+0x1711>
    1526: e0 5d        	cpx	#$5d
    1528: d0 03        	bne	$152d <f256main+0xc19>
    152a: 4c 8d 19     	jmp	$198d <f256main+0x1079>
    152d: e0 63        	cpx	#$63
    152f: f0 03        	beq	$1534 <f256main+0xc20>
    1531: 4c 6a 2a     	jmp	$2a6a <f256main+0x2156>
    1534: a6 61        	ldx	$61                     ; 0x2061 <f256main+0x174d>
    1536: f0 03        	beq	$153b <f256main+0xc27>
    1538: 4c 6a 2a     	jmp	$2a6a <f256main+0x2156>
    153b: a6 6a        	ldx	$6a                     ; 0x206a <f256main+0x1756>
    153d: a4 6b        	ldy	$6b                     ; 0x206b <f256main+0x1757>
    153f: 86 12        	stx	$12                     ; 0x2012 <f256main+0x16fe>
    1541: 84 13        	sty	$13                     ; 0x2013 <f256main+0x16ff>
    1543: a0 06        	ldy	#$6
    1545: b1 12        	lda	($12),y                 ; 0x2012 <f256main+0x16fe>
    1547: aa           	tax
    1548: 1a           	inc
    1549: 91 12        	sta	($12),y                 ; 0x2012 <f256main+0x16fe>
    154b: e0 00        	cpx	#$0
    154d: d0 15        	bne	$1564 <f256main+0xc50>
    154f: a9 00        	lda	#$0
    1551: 20 9b 42     	jsr	$429b <sid_setInstrumentAllChannels>
    1554: 64 65        	stz	$65                     ; 0x2065 <f256main+0x1751>
    1556: 64 66        	stz	$66                     ; 0x2066 <f256main+0x1752>
    1558: a6 6a        	ldx	$6a                     ; 0x206a <f256main+0x1756>
    155a: a4 6b        	ldy	$6b                     ; 0x206b <f256main+0x1757>
    155c: 86 12        	stx	$12                     ; 0x2012 <f256main+0x16fe>
    155e: 84 13        	sty	$13                     ; 0x2013 <f256main+0x16ff>
    1560: a0 06        	ldy	#$6
    1562: b1 12        	lda	($12),y                 ; 0x2012 <f256main+0x16fe>
    1564: c9 02        	cmp	#$2
    1566: d0 48        	bne	$15b0 <f256main+0xc9c>
    1568: a2 d4        	ldx	#$d4
    156a: a0 00        	ldy	#$0
    156c: 18           	clc
    156d: 98           	tya
    156e: 69 00        	adc	#$0
    1570: 85 14        	sta	$14                     ; 0x2014 <f256main+0x1700>
    1572: 8a           	txa
    1573: 69 01        	adc	#$1
    1575: 85 15        	sta	$15                     ; 0x2015 <f256main+0x1701>
    1577: 84 12        	sty	$12                     ; 0x2012 <f256main+0x16fe>
    1579: 86 13        	stx	$13                     ; 0x2013 <f256main+0x16ff>
    157b: a9 00        	lda	#$0
    157d: 92 12        	sta	($12)                   ; 0x2012 <f256main+0x16fe>
    157f: 5a           	phy
    1580: a4 14        	ldy	$14                     ; 0x2014 <f256main+0x1700>
    1582: 84 12        	sty	$12                     ; 0x2012 <f256main+0x16fe>
    1584: a4 15        	ldy	$15                     ; 0x2015 <f256main+0x1701>
    1586: 84 13        	sty	$13                     ; 0x2013 <f256main+0x16ff>
    1588: 7a           	ply
    1589: 92 12        	sta	($12)                   ; 0x2012 <f256main+0x16fe>
    158b: c8           	iny
    158c: d0 01        	bne	$158f <f256main+0xc7b>
    158e: e8           	inx
    158f: c0 19        	cpy	#$19
    1591: d0 d9        	bne	$156c <f256main+0xc58>
    1593: a2 43        	ldx	#$43
    1595: 86 12        	stx	$12                     ; 0x2012 <f256main+0x16fe>
    1597: a2 00        	ldx	#$0
    1599: 86 13        	stx	$13                     ; 0x2013 <f256main+0x16ff>
    159b: 64 14        	stz	$14                     ; 0x2014 <f256main+0x1700>
    159d: a2 06        	ldx	#$6
    159f: 20 7e 60     	jsr	$607e <__memset>
    15a2: 64 67        	stz	$67                     ; 0x2067 <f256main+0x1753>
    15a4: a6 6a        	ldx	$6a                     ; 0x206a <f256main+0x1756>
    15a6: a4 6b        	ldy	$6b                     ; 0x206b <f256main+0x1757>
    15a8: 86 12        	stx	$12                     ; 0x2012 <f256main+0x16fe>
    15aa: 84 13        	sty	$13                     ; 0x2013 <f256main+0x16ff>
    15ac: a0 06        	ldy	#$6
    15ae: b1 12        	lda	($12),y                 ; 0x2012 <f256main+0x16fe>
    15b0: c9 03        	cmp	#$3
    15b2: d0 3a        	bne	$15ee <f256main+0xcda>
    15b4: a2 37        	ldx	#$37
    15b6: 86 12        	stx	$12                     ; 0x2012 <f256main+0x16fe>
    15b8: a2 00        	ldx	#$0
    15ba: 86 13        	stx	$13                     ; 0x2013 <f256main+0x16ff>
    15bc: 64 14        	stz	$14                     ; 0x2014 <f256main+0x1700>
    15be: a2 06        	ldx	#$6
    15c0: a9 00        	lda	#$0
    15c2: 20 7e 60     	jsr	$607e <__memset>
    15c5: a2 ff        	ldx	#$ff
    15c7: a0 10        	ldy	#$10
    15c9: 98           	tya
    15ca: 09 9f        	ora	#$9f
    15cc: 8d 00 d6     	sta	$d600                   ; 0xd600 <__heap_start+0x4fba>
    15cf: 8d 10 d6     	sta	$d610                   ; 0xd610 <__heap_start+0x4fca>
    15d2: 8a           	txa
    15d3: 18           	clc
    15d4: 69 02        	adc	#$2
    15d6: aa           	tax
    15d7: 18           	clc
    15d8: 98           	tya
    15d9: 69 20        	adc	#$20
    15db: a8           	tay
    15dc: e0 06        	cpx	#$6
    15de: 90 e9        	bcc	$15c9 <f256main+0xcb5>
    15e0: 64 68        	stz	$68                     ; 0x2068 <f256main+0x1754>
    15e2: a6 6a        	ldx	$6a                     ; 0x206a <f256main+0x1756>
    15e4: a4 6b        	ldy	$6b                     ; 0x206b <f256main+0x1757>
    15e6: 86 12        	stx	$12                     ; 0x2012 <f256main+0x16fe>
    15e8: 84 13        	sty	$13                     ; 0x2013 <f256main+0x16ff>
    15ea: a0 06        	ldy	#$6
    15ec: b1 12        	lda	($12),y                 ; 0x2012 <f256main+0x16fe>
    15ee: c9 04        	cmp	#$4
    15f0: 90 2e        	bcc	$1620 <f256main+0xd0c>
    15f2: a2 b0        	ldx	#$b0
    15f4: 8e 80 d5     	stx	$d580                   ; 0xd580 <__heap_start+0x4f3a>
    15f7: 9c 81 d5     	stz	$d581                   ; 0xd581 <__heap_start+0x4f3b>
    15fa: e8           	inx
    15fb: e0 b9        	cpx	#$b9
    15fd: d0 f5        	bne	$15f4 <f256main+0xce0>
    15ff: a2 4f        	ldx	#$4f
    1601: 86 12        	stx	$12                     ; 0x2012 <f256main+0x16fe>
    1603: a2 00        	ldx	#$0
    1605: 86 13        	stx	$13                     ; 0x2013 <f256main+0x16ff>
    1607: 64 14        	stz	$14                     ; 0x2014 <f256main+0x1700>
    1609: a9 00        	lda	#$0
    160b: a2 09        	ldx	#$9
    160d: 20 7e 60     	jsr	$607e <__memset>
    1610: a6 6a        	ldx	$6a                     ; 0x206a <f256main+0x1756>
    1612: a4 6b        	ldy	$6b                     ; 0x206b <f256main+0x1757>
    1614: 86 12        	stx	$12                     ; 0x2012 <f256main+0x16fe>
    1616: 84 13        	sty	$13                     ; 0x2013 <f256main+0x16ff>
    1618: a0 06        	ldy	#$6
    161a: a9 00        	lda	#$0
    161c: 91 12        	sta	($12),y                 ; 0x2012 <f256main+0x16fe>
    161e: 64 69        	stz	$69                     ; 0x2069 <f256main+0x1755>
    1620: 20 72 49     	jsr	$4972 <showChipChoiceText>
    1623: 4c 6a 2a     	jmp	$2a6a <f256main+0x2156>
    1626: a0 12        	ldy	#$12
    1628: b1 10        	lda	($10),y                 ; 0x2010 <f256main+0x16fc>
    162a: 85 25        	sta	$25                     ; 0x2025 <f256main+0x1711>
    162c: e0 20        	cpx	#$20
    162e: d0 03        	bne	$1633 <f256main+0xd1f>
    1630: 4c 2f 1a     	jmp	$1a2f <f256main+0x111b>
    1633: e0 5b        	cpx	#$5b
    1635: f0 03        	beq	$163a <f256main+0xd26>
    1637: 4c 6a 2a     	jmp	$2a6a <f256main+0x2156>
    163a: a6 7e        	ldx	$7e                     ; 0x207e <f256main+0x176a>
    163c: 86 16        	stx	$16                     ; 0x2016 <f256main+0x1702>
    163e: a6 7f        	ldx	$7f                     ; 0x207f <f256main+0x176b>
    1640: 86 17        	stx	$17                     ; 0x2017 <f256main+0x1703>
    1642: a6 6a        	ldx	$6a                     ; 0x206a <f256main+0x1756>
    1644: a4 6b        	ldy	$6b                     ; 0x206b <f256main+0x1757>
    1646: 86 12        	stx	$12                     ; 0x2012 <f256main+0x16fe>
    1648: 84 13        	sty	$13                     ; 0x2013 <f256main+0x16ff>
    164a: a0 08        	ldy	#$8
    164c: b1 12        	lda	($12),y                 ; 0x2012 <f256main+0x16fe>
    164e: 85 14        	sta	$14                     ; 0x2014 <f256main+0x1700>
    1650: 0a           	asl
    1651: 64 15        	stz	$15                     ; 0x2015 <f256main+0x1701>
    1653: 26 15        	rol	$15                     ; 0x2015 <f256main+0x1701>
    1655: 0a           	asl
    1656: 26 15        	rol	$15                     ; 0x2015 <f256main+0x1701>
    1658: 0a           	asl
    1659: 26 15        	rol	$15                     ; 0x2015 <f256main+0x1701>
    165b: 0a           	asl
    165c: 26 15        	rol	$15                     ; 0x2015 <f256main+0x1701>
    165e: 38           	sec
    165f: e5 14        	sbc	$14                     ; 0x2014 <f256main+0x1700>
    1661: 85 14        	sta	$14                     ; 0x2014 <f256main+0x1700>
    1663: a5 15        	lda	$15                     ; 0x2015 <f256main+0x1701>
    1665: e9 00        	sbc	#$0
    1667: a8           	tay
    1668: a6 14        	ldx	$14                     ; 0x2014 <f256main+0x1700>
    166a: a5 14        	lda	$14                     ; 0x2014 <f256main+0x1700>
    166c: 18           	clc
    166d: 65 7e        	adc	$7e                     ; 0x207e <f256main+0x176a>
    166f: 85 14        	sta	$14                     ; 0x2014 <f256main+0x1700>
    1671: 98           	tya
    1672: 65 7f        	adc	$7f                     ; 0x207f <f256main+0x176b>
    1674: 85 15        	sta	$15                     ; 0x2015 <f256main+0x1701>
    1676: b2 14        	lda	($14)                   ; 0x2014 <f256main+0x1700>
    1678: d0 03        	bne	$167d <f256main+0xd69>
    167a: 4c 80 24     	jmp	$2480 <f256main+0x1b6c>
    167d: a5 64        	lda	$64                     ; 0x2064 <f256main+0x1750>
    167f: 29 01        	and	#$1
    1681: a2 f6        	ldx	#$f6
    1683: a8           	tay
    1684: f0 03        	beq	$1689 <f256main+0xd75>
    1686: 4c db 19     	jmp	$19db <f256main+0x10c7>
    1689: a2 ff        	ldx	#$ff
    168b: 4c db 19     	jmp	$19db <f256main+0x10c7>
    168e: a0 12        	ldy	#$12
    1690: b1 10        	lda	($10),y                 ; 0x2010 <f256main+0x16fc>
    1692: 85 25        	sta	$25                     ; 0x2025 <f256main+0x1711>
    1694: e0 6d        	cpx	#$6d
    1696: d0 03        	bne	$169b <f256main+0xd87>
    1698: 4c 5a 1a     	jmp	$1a5a <f256main+0x1146>
    169b: e0 78        	cpx	#$78
    169d: f0 03        	beq	$16a2 <f256main+0xd8e>
    169f: 4c 6a 2a     	jmp	$2a6a <f256main+0x2156>
    16a2: a6 61        	ldx	$61                     ; 0x2061 <f256main+0x174d>
    16a4: f0 03        	beq	$16a9 <f256main+0xd95>
    16a6: 4c 6a 2a     	jmp	$2a6a <f256main+0x2156>
    16a9: a6 6a        	ldx	$6a                     ; 0x206a <f256main+0x1756>
    16ab: a4 6b        	ldy	$6b                     ; 0x206b <f256main+0x1757>
    16ad: 86 12        	stx	$12                     ; 0x2012 <f256main+0x16fe>
    16af: 84 13        	sty	$13                     ; 0x2013 <f256main+0x16ff>
    16b1: a0 07        	ldy	#$7
    16b3: b1 12        	lda	($12),y                 ; 0x2012 <f256main+0x16fe>
    16b5: a2 01        	ldx	#$1
    16b7: c9 00        	cmp	#$0
    16b9: f0 02        	beq	$16bd <f256main+0xda9>
    16bb: a2 00        	ldx	#$0
    16bd: 8a           	txa
    16be: d0 03        	bne	$16c3 <f256main+0xdaf>
    16c0: 4c b5 25     	jmp	$25b5 <f256main+0x1ca1>
    16c3: 86 2b        	stx	$2b                     ; 0x202b <f256main+0x1717>
    16c5: a9 01        	lda	#$1
    16c7: 4c b9 25     	jmp	$25b9 <f256main+0x1ca5>
    16ca: a5 18        	lda	$18                     ; 0x2018 <f256main+0x1704>
    16cc: 91 10        	sta	($10),y                 ; 0x2010 <f256main+0x16fc>
    16ce: a5 17        	lda	$17                     ; 0x2017 <f256main+0x1703>
    16d0: a0 0d        	ldy	#$d
    16d2: 91 10        	sta	($10),y                 ; 0x2010 <f256main+0x16fc>
    16d4: a0 04        	ldy	#$4
    16d6: b1 10        	lda	($10),y                 ; 0x2010 <f256main+0x16fc>
    16d8: 85 24        	sta	$24                     ; 0x2024 <f256main+0x1710>
    16da: c8           	iny
    16db: b1 10        	lda	($10),y                 ; 0x2010 <f256main+0x16fc>
    16dd: 85 25        	sta	$25                     ; 0x2025 <f256main+0x1711>
    16df: a6 24        	ldx	$24                     ; 0x2024 <f256main+0x1710>
    16e1: 86 14        	stx	$14                     ; 0x2014 <f256main+0x1700>
    16e3: 85 15        	sta	$15                     ; 0x2015 <f256main+0x1701>
    16e5: a6 28        	ldx	$28                     ; 0x2028 <f256main+0x1714>
    16e7: 86 16        	stx	$16                     ; 0x2016 <f256main+0x1702>
    16e9: a6 29        	ldx	$29                     ; 0x2029 <f256main+0x1715>
    16eb: 86 17        	stx	$17                     ; 0x2017 <f256main+0x1703>
    16ed: a0 08        	ldy	#$8
    16ef: b1 10        	lda	($10),y                 ; 0x2010 <f256main+0x16fc>
    16f1: 85 2e        	sta	$2e                     ; 0x202e <f256main+0x171a>
    16f3: c8           	iny
    16f4: b1 10        	lda	($10),y                 ; 0x2010 <f256main+0x16fc>
    16f6: 85 2f        	sta	$2f                     ; 0x202f <f256main+0x171b>
    16f8: a6 2e        	ldx	$2e                     ; 0x202e <f256main+0x171a>
    16fa: 86 18        	stx	$18                     ; 0x2018 <f256main+0x1704>
    16fc: 85 19        	sta	$19                     ; 0x2019 <f256main+0x1705>
    16fe: a6 2b        	ldx	$2b                     ; 0x202b <f256main+0x1717>
    1700: a5 1a        	lda	$1a                     ; 0x201a <f256main+0x1706>
    1702: 20 02 43     	jsr	$4302 <getBeatTrackNoteInfo>
    1705: a0 01        	ldy	#$1
    1707: b1 2e        	lda	($2e),y                 ; 0x202e <f256main+0x171a>
    1709: 85 18        	sta	$18                     ; 0x2018 <f256main+0x1704>
    170b: a9 7f        	lda	#$7f
    170d: 32 24        	and	($24)                   ; 0x2024 <f256main+0x1710>
    170f: 85 12        	sta	$12                     ; 0x2012 <f256main+0x16fe>
    1711: a6 6a        	ldx	$6a                     ; 0x206a <f256main+0x1756>
    1713: a4 6b        	ldy	$6b                     ; 0x206b <f256main+0x1757>
    1715: 86 14        	stx	$14                     ; 0x2014 <f256main+0x1700>
    1717: 84 15        	sty	$15                     ; 0x2015 <f256main+0x1701>
    1719: b2 14        	lda	($14)                   ; 0x2014 <f256main+0x1700>
    171b: 85 14        	sta	$14                     ; 0x2014 <f256main+0x1700>
    171d: b2 2e        	lda	($2e)                   ; 0x202e <f256main+0x171a>
    171f: 85 15        	sta	$15                     ; 0x2015 <f256main+0x1701>
    1721: a0 02        	ldy	#$2
    1723: b1 2e        	lda	($2e),y                 ; 0x202e <f256main+0x171a>
    1725: a2 7f        	ldx	#$7f
    1727: 86 13        	stx	$13                     ; 0x2013 <f256main+0x16ff>
    1729: a2 01        	ldx	#$1
    172b: 86 16        	stx	$16                     ; 0x2016 <f256main+0x1702>
    172d: 85 17        	sta	$17                     ; 0x2017 <f256main+0x1703>
    172f: a6 18        	ldx	$18                     ; 0x2018 <f256main+0x1704>
    1731: a9 00        	lda	#$0
    1733: 20 54 31     	jsr	$3154 <dispatchNote>
    1736: a6 6a        	ldx	$6a                     ; 0x206a <f256main+0x1756>
    1738: a4 6b        	ldy	$6b                     ; 0x206b <f256main+0x1757>
    173a: 86 12        	stx	$12                     ; 0x2012 <f256main+0x16fe>
    173c: 84 13        	sty	$13                     ; 0x2013 <f256main+0x16ff>
    173e: a0 08        	ldy	#$8
    1740: b1 12        	lda	($12),y                 ; 0x2012 <f256main+0x16fe>
    1742: 85 12        	sta	$12                     ; 0x2012 <f256main+0x16fe>
    1744: 0a           	asl
    1745: aa           	tax
    1746: a9 00        	lda	#$0
    1748: 2a           	rol
    1749: 86 13        	stx	$13                     ; 0x2013 <f256main+0x16ff>
    174b: 06 13        	asl	$13                     ; 0x2013 <f256main+0x16ff>
    174d: 2a           	rol
    174e: 06 13        	asl	$13                     ; 0x2013 <f256main+0x16ff>
    1750: 2a           	rol
    1751: 06 13        	asl	$13                     ; 0x2013 <f256main+0x16ff>
    1753: 2a           	rol
    1754: aa           	tax
    1755: 38           	sec
    1756: a5 13        	lda	$13                     ; 0x2013 <f256main+0x16ff>
    1758: e5 12        	sbc	$12                     ; 0x2012 <f256main+0x16fe>
    175a: 85 12        	sta	$12                     ; 0x2012 <f256main+0x16fe>
    175c: 8a           	txa
    175d: e9 00        	sbc	#$0
    175f: aa           	tax
    1760: 18           	clc
    1761: a5 12        	lda	$12                     ; 0x2012 <f256main+0x16fe>
    1763: 65 7e        	adc	$7e                     ; 0x207e <f256main+0x176a>
    1765: 85 12        	sta	$12                     ; 0x2012 <f256main+0x16fe>
    1767: 8a           	txa
    1768: 65 7f        	adc	$7f                     ; 0x207f <f256main+0x176b>
    176a: 85 13        	sta	$13                     ; 0x2013 <f256main+0x16ff>
    176c: a0 02        	ldy	#$2
    176e: b1 12        	lda	($12),y                 ; 0x2012 <f256main+0x16fe>
    1770: 3a           	dec
    1771: 91 12        	sta	($12),y                 ; 0x2012 <f256main+0x16fe>
    1773: 64 33        	stz	$33                     ; 0x2033 <f256main+0x171f>
    1775: 9c 14 d0     	stz	$d014                   ; 0xd014 <__heap_start+0x49ce>
    1778: 9c 15 d0     	stz	$d015                   ; 0xd015 <__heap_start+0x49cf>
    177b: a2 10        	ldx	#$10
    177d: 86 34        	stx	$34                     ; 0x2034 <f256main+0x1720>
    177f: 8e 16 d0     	stx	$d016                   ; 0xd016 <__heap_start+0x49d0>
    1782: 9c 17 d0     	stz	$d017                   ; 0xd017 <__heap_start+0x49d1>
    1785: a6 6a        	ldx	$6a                     ; 0x206a <f256main+0x1756>
    1787: a5 6b        	lda	$6b                     ; 0x206b <f256main+0x1757>
    1789: 86 12        	stx	$12                     ; 0x2012 <f256main+0x16fe>
    178b: 85 13        	sta	$13                     ; 0x2013 <f256main+0x16ff>
    178d: a0 08        	ldy	#$8
    178f: b1 12        	lda	($12),y                 ; 0x2012 <f256main+0x16fe>
    1791: 85 12        	sta	$12                     ; 0x2012 <f256main+0x16fe>
    1793: 0a           	asl
    1794: aa           	tax
    1795: a9 00        	lda	#$0
    1797: 2a           	rol
    1798: 86 13        	stx	$13                     ; 0x2013 <f256main+0x16ff>
    179a: 06 13        	asl	$13                     ; 0x2013 <f256main+0x16ff>
    179c: 2a           	rol
    179d: 06 13        	asl	$13                     ; 0x2013 <f256main+0x16ff>
    179f: 2a           	rol
    17a0: 06 13        	asl	$13                     ; 0x2013 <f256main+0x16ff>
    17a2: 2a           	rol
    17a3: aa           	tax
    17a4: 38           	sec
    17a5: a5 13        	lda	$13                     ; 0x2013 <f256main+0x16ff>
    17a7: e5 12        	sbc	$12                     ; 0x2012 <f256main+0x16fe>
    17a9: 85 12        	sta	$12                     ; 0x2012 <f256main+0x16fe>
    17ab: 8a           	txa
    17ac: e9 00        	sbc	#$0
    17ae: aa           	tax
    17af: 18           	clc
    17b0: a5 12        	lda	$12                     ; 0x2012 <f256main+0x16fe>
    17b2: 65 7e        	adc	$7e                     ; 0x207e <f256main+0x176a>
    17b4: 85 12        	sta	$12                     ; 0x2012 <f256main+0x16fe>
    17b6: 8a           	txa
    17b7: 65 7f        	adc	$7f                     ; 0x207f <f256main+0x176b>
    17b9: 85 13        	sta	$13                     ; 0x2013 <f256main+0x16ff>
    17bb: a0 02        	ldy	#$2
    17bd: b1 12        	lda	($12),y                 ; 0x2012 <f256main+0x16fe>
    17bf: 92 10        	sta	($10)                   ; 0x2010 <f256main+0x16fc>
    17c1: 88           	dey
    17c2: a9 00        	lda	#$0
    17c4: 91 10        	sta	($10),y                 ; 0x2010 <f256main+0x16fc>
    17c6: a2 b0        	ldx	#$b0
    17c8: 86 12        	stx	$12                     ; 0x2012 <f256main+0x16fe>
    17ca: a2 81        	ldx	#$81
    17cc: 86 13        	stx	$13                     ; 0x2013 <f256main+0x16ff>
    17ce: 20 53 52     	jsr	$5253 <printf>
    17d1: a5 62        	lda	$62                     ; 0x2062 <f256main+0x174e>
    17d3: 29 01        	and	#$1
    17d5: 85 13        	sta	$13                     ; 0x2013 <f256main+0x16ff>
    17d7: a6 7e        	ldx	$7e                     ; 0x207e <f256main+0x176a>
    17d9: 86 17        	stx	$17                     ; 0x2017 <f256main+0x1703>
    17db: a6 6a        	ldx	$6a                     ; 0x206a <f256main+0x1756>
    17dd: a4 6b        	ldy	$6b                     ; 0x206b <f256main+0x1757>
    17df: 86 14        	stx	$14                     ; 0x2014 <f256main+0x1700>
    17e1: 84 15        	sty	$15                     ; 0x2015 <f256main+0x1701>
    17e3: a0 08        	ldy	#$8
    17e5: b1 14        	lda	($14),y                 ; 0x2014 <f256main+0x1700>
    17e7: 85 16        	sta	$16                     ; 0x2016 <f256main+0x1702>
    17e9: 0a           	asl
    17ea: 64 12        	stz	$12                     ; 0x2012 <f256main+0x16fe>
    17ec: 26 12        	rol	$12                     ; 0x2012 <f256main+0x16fe>
    17ee: 0a           	asl
    17ef: 26 12        	rol	$12                     ; 0x2012 <f256main+0x16fe>
    17f1: 0a           	asl
    17f2: 26 12        	rol	$12                     ; 0x2012 <f256main+0x16fe>
    17f4: 0a           	asl
    17f5: 26 12        	rol	$12                     ; 0x2012 <f256main+0x16fe>
    17f7: a4 12        	ldy	$12                     ; 0x2012 <f256main+0x16fe>
    17f9: a6 7f        	ldx	$7f                     ; 0x207f <f256main+0x176b>
    17fb: e6 13        	inc	$13                     ; 0x2013 <f256main+0x16ff>
    17fd: c6 13        	dec	$13                     ; 0x2013 <f256main+0x16ff>
    17ff: d0 03        	bne	$1804 <f256main+0xef0>
    1801: 4c de 1c     	jmp	$1cde <f256main+0x13ca>
    1804: 38           	sec
    1805: e5 16        	sbc	$16                     ; 0x2016 <f256main+0x1702>
    1807: 85 12        	sta	$12                     ; 0x2012 <f256main+0x16fe>
    1809: 98           	tya
    180a: e9 00        	sbc	#$0
    180c: 85 13        	sta	$13                     ; 0x2013 <f256main+0x16ff>
    180e: 18           	clc
    180f: a5 17        	lda	$17                     ; 0x2017 <f256main+0x1703>
    1811: 65 12        	adc	$12                     ; 0x2012 <f256main+0x16fe>
    1813: 85 12        	sta	$12                     ; 0x2012 <f256main+0x16fe>
    1815: 8a           	txa
    1816: 65 13        	adc	$13                     ; 0x2013 <f256main+0x16ff>
    1818: 85 13        	sta	$13                     ; 0x2013 <f256main+0x16ff>
    181a: a0 02        	ldy	#$2
    181c: b1 12        	lda	($12),y                 ; 0x2012 <f256main+0x16fe>
    181e: a2 41        	ldx	#$41
    1820: 86 2e        	stx	$2e                     ; 0x202e <f256main+0x171a>
    1822: a2 86        	ldx	#$86
    1824: 86 2f        	stx	$2f                     ; 0x202f <f256main+0x171b>
    1826: aa           	tax
    1827: f0 03        	beq	$182c <f256main+0xf18>
    1829: 4c f5 0e     	jmp	$ef5 <f256main+0x5e1>
    182c: 64 33        	stz	$33                     ; 0x2033 <f256main+0x171f>
    182e: 9c 14 d0     	stz	$d014                   ; 0xd014 <__heap_start+0x49ce>
    1831: 9c 15 d0     	stz	$d015                   ; 0xd015 <__heap_start+0x49cf>
    1834: a2 11        	ldx	#$11
    1836: 86 34        	stx	$34                     ; 0x2034 <f256main+0x1720>
    1838: 8e 16 d0     	stx	$d016                   ; 0xd016 <__heap_start+0x49d0>
    183b: 9c 17 d0     	stz	$d017                   ; 0xd017 <__heap_start+0x49d1>
    183e: a2 44        	ldx	#$44
    1840: 86 12        	stx	$12                     ; 0x2012 <f256main+0x16fe>
    1842: a2 81        	ldx	#$81
    1844: 86 13        	stx	$13                     ; 0x2013 <f256main+0x16ff>
    1846: 20 53 52     	jsr	$5253 <printf>
    1849: 64 62        	stz	$62                     ; 0x2062 <f256main+0x174e>
    184b: a6 6a        	ldx	$6a                     ; 0x206a <f256main+0x1756>
    184d: a4 6b        	ldy	$6b                     ; 0x206b <f256main+0x1757>
    184f: 86 12        	stx	$12                     ; 0x2012 <f256main+0x16fe>
    1851: 84 13        	sty	$13                     ; 0x2013 <f256main+0x16ff>
    1853: a0 08        	ldy	#$8
    1855: b1 12        	lda	($12),y                 ; 0x2012 <f256main+0x16fe>
    1857: 48           	pha
    1858: a5 27        	lda	$27                     ; 0x2027 <f256main+0x1713>
    185a: a0 12        	ldy	#$12
    185c: 91 10        	sta	($10),y                 ; 0x2010 <f256main+0x16fc>
    185e: 68           	pla
    185f: 85 12        	sta	$12                     ; 0x2012 <f256main+0x16fe>
    1861: 0a           	asl
    1862: a8           	tay
    1863: a9 00        	lda	#$0
    1865: 2a           	rol
    1866: 84 13        	sty	$13                     ; 0x2013 <f256main+0x16ff>
    1868: 06 13        	asl	$13                     ; 0x2013 <f256main+0x16ff>
    186a: 2a           	rol
    186b: 06 13        	asl	$13                     ; 0x2013 <f256main+0x16ff>
    186d: 2a           	rol
    186e: 06 13        	asl	$13                     ; 0x2013 <f256main+0x16ff>
    1870: 2a           	rol
    1871: a8           	tay
    1872: 38           	sec
    1873: a5 13        	lda	$13                     ; 0x2013 <f256main+0x16ff>
    1875: e5 12        	sbc	$12                     ; 0x2012 <f256main+0x16fe>
    1877: 85 12        	sta	$12                     ; 0x2012 <f256main+0x16fe>
    1879: 98           	tya
    187a: e9 00        	sbc	#$0
    187c: a8           	tay
    187d: 18           	clc
    187e: a5 12        	lda	$12                     ; 0x2012 <f256main+0x16fe>
    1880: 65 7e        	adc	$7e                     ; 0x207e <f256main+0x176a>
    1882: 85 12        	sta	$12                     ; 0x2012 <f256main+0x16fe>
    1884: 98           	tya
    1885: 65 7f        	adc	$7f                     ; 0x207f <f256main+0x176b>
    1887: 85 13        	sta	$13                     ; 0x2013 <f256main+0x16ff>
    1889: a9 00        	lda	#$0
    188b: 92 12        	sta	($12)                   ; 0x2012 <f256main+0x16fe>
    188d: a0 01        	ldy	#$1
    188f: b1 12        	lda	($12),y                 ; 0x2012 <f256main+0x16fe>
    1891: d0 03        	bne	$1896 <f256main+0xf82>
    1893: 4c f5 0e     	jmp	$ef5 <f256main+0x5e1>
    1896: a9 00        	lda	#$0
    1898: 91 12        	sta	($12),y                 ; 0x2012 <f256main+0x16fe>
    189a: 20 fa 36     	jsr	$36fa <launchBeat>
    189d: 4c f5 0e     	jmp	$ef5 <f256main+0x5e1>
    18a0: a0 12        	ldy	#$12
    18a2: b1 10        	lda	($10),y                 ; 0x2010 <f256main+0x16fc>
    18a4: 85 25        	sta	$25                     ; 0x2025 <f256main+0x1711>
    18a6: e0 94        	cpx	#$94
    18a8: f0 03        	beq	$18ad <f256main+0xf99>
    18aa: 4c 6a 2a     	jmp	$2a6a <f256main+0x2156>
    18ad: a6 61        	ldx	$61                     ; 0x2061 <f256main+0x174d>
    18af: d0 03        	bne	$18b4 <f256main+0xfa0>
    18b1: 4c 6a 2a     	jmp	$2a6a <f256main+0x2156>
    18b4: a2 02        	ldx	#$2
    18b6: 86 01        	stx	$1                      ; 0x2001 <f256main+0x16ed>
    18b8: a2 c0        	ldx	#$c0
    18ba: a0 00        	ldy	#$0
    18bc: a9 20        	lda	#$20
    18be: 84 12        	sty	$12                     ; 0x2012 <f256main+0x16fe>
    18c0: 86 13        	stx	$13                     ; 0x2013 <f256main+0x16ff>
    18c2: 92 12        	sta	($12)                   ; 0x2012 <f256main+0x16fe>
    18c4: c8           	iny
    18c5: d0 01        	bne	$18c8 <f256main+0xfb4>
    18c7: e8           	inx
    18c8: e0 d2        	cpx	#$d2
    18ca: d0 f2        	bne	$18be <f256main+0xfaa>
    18cc: c0 c0        	cpy	#$c0
    18ce: d0 ee        	bne	$18be <f256main+0xfaa>
    18d0: 64 01        	stz	$1                      ; 0x2001 <f256main+0x16ed>
    18d2: a6 6a        	ldx	$6a                     ; 0x206a <f256main+0x1756>
    18d4: a4 6b        	ldy	$6b                     ; 0x206b <f256main+0x1757>
    18d6: 86 12        	stx	$12                     ; 0x2012 <f256main+0x16fe>
    18d8: 84 13        	sty	$13                     ; 0x2013 <f256main+0x16ff>
    18da: 20 ec 4a     	jsr	$4aec <textTitle>
    18dd: 64 61        	stz	$61                     ; 0x2061 <f256main+0x174d>
    18df: 4c 6a 2a     	jmp	$2a6a <f256main+0x2156>
    18e2: e0 92        	cpx	#$92
    18e4: f0 03        	beq	$18e9 <f256main+0xfd5>
    18e6: 4c 6a 2a     	jmp	$2a6a <f256main+0x2156>
    18e9: 20 c1 3d     	jsr	$3dc1 <escReset>
    18ec: 4c 6a 2a     	jmp	$2a6a <f256main+0x2156>
    18ef: a6 61        	ldx	$61                     ; 0x2061 <f256main+0x174d>
    18f1: f0 03        	beq	$18f6 <f256main+0xfe2>
    18f3: 4c 6a 2a     	jmp	$2a6a <f256main+0x2156>
    18f6: a6 6a        	ldx	$6a                     ; 0x206a <f256main+0x1756>
    18f8: a4 6b        	ldy	$6b                     ; 0x206b <f256main+0x1757>
    18fa: 86 12        	stx	$12                     ; 0x2012 <f256main+0x16fe>
    18fc: 84 13        	sty	$13                     ; 0x2013 <f256main+0x16ff>
    18fe: a9 00        	lda	#$0
    1900: a0 07        	ldy	#$7
    1902: 91 12        	sta	($12),y                 ; 0x2012 <f256main+0x16fe>
    1904: a0 05        	ldy	#$5
    1906: b1 12        	lda	($12),y                 ; 0x2012 <f256main+0x16fe>
    1908: aa           	tax
    1909: 1a           	inc
    190a: 91 12        	sta	($12),y                 ; 0x2012 <f256main+0x16fe>
    190c: e0 01        	cpx	#$1
    190e: d0 03        	bne	$1913 <f256main+0xfff>
    1910: 4c ff 26     	jmp	$26ff <f256main+0x1deb>
    1913: e0 09        	cpx	#$9
    1915: f0 03        	beq	$191a <f256main+0x1006>
    1917: 4c 03 27     	jmp	$2703 <f256main+0x1def>
    191a: a9 00        	lda	#$0
    191c: 4c 01 27     	jmp	$2701 <f256main+0x1ded>
    191f: a6 61        	ldx	$61                     ; 0x2061 <f256main+0x174d>
    1921: f0 03        	beq	$1926 <f256main+0x1012>
    1923: 4c 6a 2a     	jmp	$2a6a <f256main+0x2156>
    1926: a6 6a        	ldx	$6a                     ; 0x206a <f256main+0x1756>
    1928: a4 6b        	ldy	$6b                     ; 0x206b <f256main+0x1757>
    192a: 86 12        	stx	$12                     ; 0x2012 <f256main+0x16fe>
    192c: 84 13        	sty	$13                     ; 0x2013 <f256main+0x16ff>
    192e: a0 08        	ldy	#$8
    1930: b1 12        	lda	($12),y                 ; 0x2012 <f256main+0x16fe>
    1932: 85 14        	sta	$14                     ; 0x2014 <f256main+0x1700>
    1934: 0a           	asl
    1935: aa           	tax
    1936: a9 00        	lda	#$0
    1938: 2a           	rol
    1939: 86 15        	stx	$15                     ; 0x2015 <f256main+0x1701>
    193b: 06 15        	asl	$15                     ; 0x2015 <f256main+0x1701>
    193d: 2a           	rol
    193e: 06 15        	asl	$15                     ; 0x2015 <f256main+0x1701>
    1940: 2a           	rol
    1941: 06 15        	asl	$15                     ; 0x2015 <f256main+0x1701>
    1943: 2a           	rol
    1944: aa           	tax
    1945: 38           	sec
    1946: a5 15        	lda	$15                     ; 0x2015 <f256main+0x1701>
    1948: e5 14        	sbc	$14                     ; 0x2014 <f256main+0x1700>
    194a: 85 15        	sta	$15                     ; 0x2015 <f256main+0x1701>
    194c: 8a           	txa
    194d: e9 00        	sbc	#$0
    194f: aa           	tax
    1950: 18           	clc
    1951: a5 15        	lda	$15                     ; 0x2015 <f256main+0x1701>
    1953: 65 7e        	adc	$7e                     ; 0x207e <f256main+0x176a>
    1955: 85 16        	sta	$16                     ; 0x2016 <f256main+0x1702>
    1957: 8a           	txa
    1958: 65 7f        	adc	$7f                     ; 0x207f <f256main+0x176b>
    195a: 85 17        	sta	$17                     ; 0x2017 <f256main+0x1703>
    195c: b2 16        	lda	($16)                   ; 0x2016 <f256main+0x1702>
    195e: f0 03        	beq	$1963 <f256main+0x104f>
    1960: 4c b3 24     	jmp	$24b3 <f256main+0x1b9f>
    1963: a5 62        	lda	$62                     ; 0x2062 <f256main+0x174e>
    1965: 29 01        	and	#$1
    1967: f0 03        	beq	$196c <f256main+0x1058>
    1969: 4c 6a 2a     	jmp	$2a6a <f256main+0x2156>
    196c: a5 14        	lda	$14                     ; 0x2014 <f256main+0x1700>
    196e: d0 03        	bne	$1973 <f256main+0x105f>
    1970: 4c e7 2c     	jmp	$2ce7 <f256main+0x23d3>
    1973: a5 14        	lda	$14                     ; 0x2014 <f256main+0x1700>
    1975: 1a           	inc
    1976: 4c e9 2c     	jmp	$2ce9 <f256main+0x23d5>
    1979: a6 61        	ldx	$61                     ; 0x2061 <f256main+0x174d>
    197b: f0 03        	beq	$1980 <f256main+0x106c>
    197d: 4c 6a 2a     	jmp	$2a6a <f256main+0x2156>
    1980: 20 fa 36     	jsr	$36fa <launchBeat>
    1983: 4c 6a 2a     	jmp	$2a6a <f256main+0x2156>
    1986: a2 01        	ldx	#$1
    1988: 86 64        	stx	$64                     ; 0x2064 <f256main+0x1750>
    198a: 4c 6a 2a     	jmp	$2a6a <f256main+0x2156>
    198d: a6 7e        	ldx	$7e                     ; 0x207e <f256main+0x176a>
    198f: 86 16        	stx	$16                     ; 0x2016 <f256main+0x1702>
    1991: a6 7f        	ldx	$7f                     ; 0x207f <f256main+0x176b>
    1993: 86 17        	stx	$17                     ; 0x2017 <f256main+0x1703>
    1995: a6 6a        	ldx	$6a                     ; 0x206a <f256main+0x1756>
    1997: a4 6b        	ldy	$6b                     ; 0x206b <f256main+0x1757>
    1999: 86 12        	stx	$12                     ; 0x2012 <f256main+0x16fe>
    199b: 84 13        	sty	$13                     ; 0x2013 <f256main+0x16ff>
    199d: a0 08        	ldy	#$8
    199f: b1 12        	lda	($12),y                 ; 0x2012 <f256main+0x16fe>
    19a1: 85 14        	sta	$14                     ; 0x2014 <f256main+0x1700>
    19a3: 0a           	asl
    19a4: 64 15        	stz	$15                     ; 0x2015 <f256main+0x1701>
    19a6: 26 15        	rol	$15                     ; 0x2015 <f256main+0x1701>
    19a8: 0a           	asl
    19a9: 26 15        	rol	$15                     ; 0x2015 <f256main+0x1701>
    19ab: 0a           	asl
    19ac: 26 15        	rol	$15                     ; 0x2015 <f256main+0x1701>
    19ae: 0a           	asl
    19af: 26 15        	rol	$15                     ; 0x2015 <f256main+0x1701>
    19b1: 38           	sec
    19b2: e5 14        	sbc	$14                     ; 0x2014 <f256main+0x1700>
    19b4: 85 14        	sta	$14                     ; 0x2014 <f256main+0x1700>
    19b6: a5 15        	lda	$15                     ; 0x2015 <f256main+0x1701>
    19b8: e9 00        	sbc	#$0
    19ba: a8           	tay
    19bb: a6 14        	ldx	$14                     ; 0x2014 <f256main+0x1700>
    19bd: a5 14        	lda	$14                     ; 0x2014 <f256main+0x1700>
    19bf: 18           	clc
    19c0: 65 7e        	adc	$7e                     ; 0x207e <f256main+0x176a>
    19c2: 85 14        	sta	$14                     ; 0x2014 <f256main+0x1700>
    19c4: 98           	tya
    19c5: 65 7f        	adc	$7f                     ; 0x207f <f256main+0x176b>
    19c7: 85 15        	sta	$15                     ; 0x2015 <f256main+0x1701>
    19c9: b2 14        	lda	($14)                   ; 0x2014 <f256main+0x1700>
    19cb: d0 03        	bne	$19d0 <f256main+0x10bc>
    19cd: 4c 34 24     	jmp	$2434 <f256main+0x1b20>
    19d0: a5 64        	lda	$64                     ; 0x2064 <f256main+0x1750>
    19d2: 29 01        	and	#$1
    19d4: a2 0a        	ldx	#$a
    19d6: a8           	tay
    19d7: d0 02        	bne	$19db <f256main+0x10c7>
    19d9: a2 01        	ldx	#$1
    19db: 18           	clc
    19dc: a0 09        	ldy	#$9
    19de: 8a           	txa
    19df: 71 12        	adc	($12),y                 ; 0x2012 <f256main+0x16fe>
    19e1: 91 12        	sta	($12),y                 ; 0x2012 <f256main+0x16fe>
    19e3: 20 81 3f     	jsr	$3f81 <prepTempoLUT>
    19e6: a6 6a        	ldx	$6a                     ; 0x206a <f256main+0x1756>
    19e8: a4 6b        	ldy	$6b                     ; 0x206b <f256main+0x1757>
    19ea: 86 2c        	stx	$2c                     ; 0x202c <f256main+0x1718>
    19ec: 84 2d        	sty	$2d                     ; 0x202d <f256main+0x1719>
    19ee: a0 09        	ldy	#$9
    19f0: b1 2c        	lda	($2c),y                 ; 0x202c <f256main+0x1718>
    19f2: 20 18 49     	jsr	$4918 <updateTempoText>
    19f5: a2 01        	ldx	#$1
    19f7: 86 62        	stx	$62                     ; 0x2062 <f256main+0x174e>
    19f9: a0 08        	ldy	#$8
    19fb: b1 2c        	lda	($2c),y                 ; 0x202c <f256main+0x1718>
    19fd: 85 12        	sta	$12                     ; 0x2012 <f256main+0x16fe>
    19ff: 0a           	asl
    1a00: aa           	tax
    1a01: a9 00        	lda	#$0
    1a03: 2a           	rol
    1a04: 86 13        	stx	$13                     ; 0x2013 <f256main+0x16ff>
    1a06: 06 13        	asl	$13                     ; 0x2013 <f256main+0x16ff>
    1a08: 2a           	rol
    1a09: 06 13        	asl	$13                     ; 0x2013 <f256main+0x16ff>
    1a0b: 2a           	rol
    1a0c: 06 13        	asl	$13                     ; 0x2013 <f256main+0x16ff>
    1a0e: 2a           	rol
    1a0f: aa           	tax
    1a10: 38           	sec
    1a11: a5 13        	lda	$13                     ; 0x2013 <f256main+0x16ff>
    1a13: e5 12        	sbc	$12                     ; 0x2012 <f256main+0x16fe>
    1a15: 85 12        	sta	$12                     ; 0x2012 <f256main+0x16fe>
    1a17: 8a           	txa
    1a18: e9 00        	sbc	#$0
    1a1a: aa           	tax
    1a1b: 18           	clc
    1a1c: a5 12        	lda	$12                     ; 0x2012 <f256main+0x16fe>
    1a1e: 65 7e        	adc	$7e                     ; 0x207e <f256main+0x176a>
    1a20: 85 12        	sta	$12                     ; 0x2012 <f256main+0x16fe>
    1a22: 8a           	txa
    1a23: 65 7f        	adc	$7f                     ; 0x207f <f256main+0x176b>
    1a25: 85 13        	sta	$13                     ; 0x2013 <f256main+0x16ff>
    1a27: a9 01        	lda	#$1
    1a29: a8           	tay
    1a2a: 91 12        	sta	($12),y                 ; 0x2012 <f256main+0x16fe>
    1a2c: 4c 6a 2a     	jmp	$2a6a <f256main+0x2156>
    1a2f: a6 6a        	ldx	$6a                     ; 0x206a <f256main+0x1756>
    1a31: a4 6b        	ldy	$6b                     ; 0x206b <f256main+0x1757>
    1a33: 86 12        	stx	$12                     ; 0x2012 <f256main+0x16fe>
    1a35: 84 13        	sty	$13                     ; 0x2013 <f256main+0x16ff>
    1a37: a0 06        	ldy	#$6
    1a39: b1 12        	lda	($12),y                 ; 0x2012 <f256main+0x16fe>
    1a3b: c9 03        	cmp	#$3
    1a3d: f0 03        	beq	$1a42 <f256main+0x112e>
    1a3f: 4c 59 1e     	jmp	$1e59 <f256main+0x1545>
    1a42: a9 15        	lda	#$15
    1a44: 18           	clc
    1a45: 65 31        	adc	$31                     ; 0x2031 <f256main+0x171d>
    1a47: 85 12        	sta	$12                     ; 0x2012 <f256main+0x16fe>
    1a49: 64 13        	stz	$13                     ; 0x2013 <f256main+0x16ff>
    1a4b: 64 14        	stz	$14                     ; 0x2014 <f256main+0x1700>
    1a4d: a2 03        	ldx	#$3
    1a4f: 86 15        	stx	$15                     ; 0x2015 <f256main+0x1701>
    1a51: 64 16        	stz	$16                     ; 0x2016 <f256main+0x1702>
    1a53: 64 17        	stz	$17                     ; 0x2017 <f256main+0x1703>
    1a55: a2 00        	ldx	#$0
    1a57: 4c 79 1e     	jmp	$1e79 <f256main+0x1565>
    1a5a: a0 b0        	ldy	#$b0
    1a5c: 8c b1 dd     	sty	$ddb1                   ; 0xddb1 <__heap_start+0x576b>
    1a5f: a2 7b        	ldx	#$7b
    1a61: 8e b1 dd     	stx	$ddb1                   ; 0xddb1 <__heap_start+0x576b>
    1a64: 9c b1 dd     	stz	$ddb1                   ; 0xddb1 <__heap_start+0x576b>
    1a67: 8c a1 dd     	sty	$dda1                   ; 0xdda1 <__heap_start+0x575b>
    1a6a: 8e a1 dd     	stx	$dda1                   ; 0xdda1 <__heap_start+0x575b>
    1a6d: 9c a1 dd     	stz	$dda1                   ; 0xdda1 <__heap_start+0x575b>
    1a70: c8           	iny
    1a71: 8c b1 dd     	sty	$ddb1                   ; 0xddb1 <__heap_start+0x576b>
    1a74: 8e b1 dd     	stx	$ddb1                   ; 0xddb1 <__heap_start+0x576b>
    1a77: 9c b1 dd     	stz	$ddb1                   ; 0xddb1 <__heap_start+0x576b>
    1a7a: 8c a1 dd     	sty	$dda1                   ; 0xdda1 <__heap_start+0x575b>
    1a7d: 8e a1 dd     	stx	$dda1                   ; 0xdda1 <__heap_start+0x575b>
    1a80: 9c a1 dd     	stz	$dda1                   ; 0xdda1 <__heap_start+0x575b>
    1a83: a0 b9        	ldy	#$b9
    1a85: 8c b1 dd     	sty	$ddb1                   ; 0xddb1 <__heap_start+0x576b>
    1a88: 8e b1 dd     	stx	$ddb1                   ; 0xddb1 <__heap_start+0x576b>
    1a8b: 9c b1 dd     	stz	$ddb1                   ; 0xddb1 <__heap_start+0x576b>
    1a8e: 8c a1 dd     	sty	$dda1                   ; 0xdda1 <__heap_start+0x575b>
    1a91: 8e a1 dd     	stx	$dda1                   ; 0xdda1 <__heap_start+0x575b>
    1a94: 9c a1 dd     	stz	$dda1                   ; 0xdda1 <__heap_start+0x575b>
    1a97: a5 6a        	lda	$6a                     ; 0x206a <f256main+0x1756>
    1a99: a4 6b        	ldy	$6b                     ; 0x206b <f256main+0x1757>
    1a9b: 85 12        	sta	$12                     ; 0x2012 <f256main+0x16fe>
    1a9d: 84 13        	sty	$13                     ; 0x2013 <f256main+0x16ff>
    1a9f: a9 ff        	lda	#$ff
    1aa1: 52 12        	eor	($12)                   ; 0x2012 <f256main+0x16fe>
    1aa3: 92 12        	sta	($12)                   ; 0x2012 <f256main+0x16fe>
    1aa5: a0 b0        	ldy	#$b0
    1aa7: 8c b1 dd     	sty	$ddb1                   ; 0xddb1 <__heap_start+0x576b>
    1aaa: 8e b1 dd     	stx	$ddb1                   ; 0xddb1 <__heap_start+0x576b>
    1aad: 9c b1 dd     	stz	$ddb1                   ; 0xddb1 <__heap_start+0x576b>
    1ab0: 8c a1 dd     	sty	$dda1                   ; 0xdda1 <__heap_start+0x575b>
    1ab3: 8e a1 dd     	stx	$dda1                   ; 0xdda1 <__heap_start+0x575b>
    1ab6: 9c a1 dd     	stz	$dda1                   ; 0xdda1 <__heap_start+0x575b>
    1ab9: c8           	iny
    1aba: 8c b1 dd     	sty	$ddb1                   ; 0xddb1 <__heap_start+0x576b>
    1abd: 8e b1 dd     	stx	$ddb1                   ; 0xddb1 <__heap_start+0x576b>
    1ac0: 9c b1 dd     	stz	$ddb1                   ; 0xddb1 <__heap_start+0x576b>
    1ac3: 8c a1 dd     	sty	$dda1                   ; 0xdda1 <__heap_start+0x575b>
    1ac6: 8e a1 dd     	stx	$dda1                   ; 0xdda1 <__heap_start+0x575b>
    1ac9: 9c a1 dd     	stz	$dda1                   ; 0xdda1 <__heap_start+0x575b>
    1acc: a0 b9        	ldy	#$b9
    1ace: 8c b1 dd     	sty	$ddb1                   ; 0xddb1 <__heap_start+0x576b>
    1ad1: 8e b1 dd     	stx	$ddb1                   ; 0xddb1 <__heap_start+0x576b>
    1ad4: 9c b1 dd     	stz	$ddb1                   ; 0xddb1 <__heap_start+0x576b>
    1ad7: 8c a1 dd     	sty	$dda1                   ; 0xdda1 <__heap_start+0x575b>
    1ada: 8e a1 dd     	stx	$dda1                   ; 0xdda1 <__heap_start+0x575b>
    1add: 9c a1 dd     	stz	$dda1                   ; 0xdda1 <__heap_start+0x575b>
    1ae0: a6 6a        	ldx	$6a                     ; 0x206a <f256main+0x1756>
    1ae2: a4 6b        	ldy	$6b                     ; 0x206b <f256main+0x1757>
    1ae4: 86 12        	stx	$12                     ; 0x2012 <f256main+0x16fe>
    1ae6: 84 13        	sty	$13                     ; 0x2013 <f256main+0x16ff>
    1ae8: b2 12        	lda	($12)                   ; 0x2012 <f256main+0x16fe>
    1aea: d0 03        	bne	$1aef <f256main+0x11db>
    1aec: 4c 6e 24     	jmp	$246e <f256main+0x1b5a>
    1aef: a2 65        	ldx	#$65
    1af1: 86 14        	stx	$14                     ; 0x2014 <f256main+0x1700>
    1af3: a2 00        	ldx	#$0
    1af5: 4c 74 24     	jmp	$2474 <f256main+0x1b60>
    1af8: a6 61        	ldx	$61                     ; 0x2061 <f256main+0x174d>
    1afa: d0 03        	bne	$1aff <f256main+0x11eb>
    1afc: 4c ba 24     	jmp	$24ba <f256main+0x1ba6>
    1aff: a0 12        	ldy	#$12
    1b01: b1 10        	lda	($10),y                 ; 0x2010 <f256main+0x16fc>
    1b03: 85 25        	sta	$25                     ; 0x2025 <f256main+0x1711>
    1b05: a6 6a        	ldx	$6a                     ; 0x206a <f256main+0x1756>
    1b07: a0 01        	ldy	#$1
    1b09: a5 6b        	lda	$6b                     ; 0x206b <f256main+0x1757>
    1b0b: 86 2c        	stx	$2c                     ; 0x202c <f256main+0x1718>
    1b0d: 85 2d        	sta	$2d                     ; 0x202d <f256main+0x1719>
    1b0f: 86 12        	stx	$12                     ; 0x2012 <f256main+0x16fe>
    1b11: 85 13        	sta	$13                     ; 0x2013 <f256main+0x16ff>
    1b13: e6 12        	inc	$12                     ; 0x2012 <f256main+0x16fe>
    1b15: d0 02        	bne	$1b19 <f256main+0x1205>
    1b17: e6 13        	inc	$13                     ; 0x2013 <f256main+0x16ff>
    1b19: b1 2c        	lda	($2c),y                 ; 0x202c <f256main+0x1718>
    1b1b: aa           	tax
    1b1c: b1 12        	lda	($12),y                 ; 0x2012 <f256main+0x16fe>
    1b1e: 86 12        	stx	$12                     ; 0x2012 <f256main+0x16fe>
    1b20: 85 13        	sta	$13                     ; 0x2013 <f256main+0x16ff>
    1b22: a0 05        	ldy	#$5
    1b24: b1 2c        	lda	($2c),y                 ; 0x202c <f256main+0x1718>
    1b26: a8           	tay
    1b27: b1 12        	lda	($12),y                 ; 0x2012 <f256main+0x16fe>
    1b29: d0 03        	bne	$1b2e <f256main+0x121a>
    1b2b: 4c 2e 25     	jmp	$252e <f256main+0x1c1a>
    1b2e: a6 2c        	ldx	$2c                     ; 0x202c <f256main+0x1718>
    1b30: 86 12        	stx	$12                     ; 0x2012 <f256main+0x16fe>
    1b32: a6 2d        	ldx	$2d                     ; 0x202d <f256main+0x1719>
    1b34: 86 13        	stx	$13                     ; 0x2013 <f256main+0x16ff>
    1b36: a9 00        	lda	#$0
    1b38: 20 c0 4d     	jsr	$4dc0 <highLightInstChoice>
    1b3b: a0 06        	ldy	#$6
    1b3d: b1 2c        	lda	($2c),y                 ; 0x202c <f256main+0x1718>
    1b3f: d0 23        	bne	$1b64 <f256main+0x1250>
    1b41: a6 2c        	ldx	$2c                     ; 0x202c <f256main+0x1718>
    1b43: 86 12        	stx	$12                     ; 0x2012 <f256main+0x16fe>
    1b45: a6 2d        	ldx	$2d                     ; 0x202d <f256main+0x1719>
    1b47: 86 13        	stx	$13                     ; 0x2013 <f256main+0x16ff>
    1b49: e6 12        	inc	$12                     ; 0x2012 <f256main+0x16fe>
    1b4b: d0 02        	bne	$1b4f <f256main+0x123b>
    1b4d: e6 13        	inc	$13                     ; 0x2013 <f256main+0x16ff>
    1b4f: a0 01        	ldy	#$1
    1b51: b1 2c        	lda	($2c),y                 ; 0x202c <f256main+0x1718>
    1b53: aa           	tax
    1b54: b1 12        	lda	($12),y                 ; 0x2012 <f256main+0x16fe>
    1b56: 86 12        	stx	$12                     ; 0x2012 <f256main+0x16fe>
    1b58: 85 13        	sta	$13                     ; 0x2013 <f256main+0x16ff>
    1b5a: a0 05        	ldy	#$5
    1b5c: b1 2c        	lda	($2c),y                 ; 0x202c <f256main+0x1718>
    1b5e: a8           	tay
    1b5f: b1 12        	lda	($12),y                 ; 0x2012 <f256main+0x16fe>
    1b61: 3a           	dec
    1b62: 91 12        	sta	($12),y                 ; 0x2012 <f256main+0x16fe>
    1b64: a6 2c        	ldx	$2c                     ; 0x202c <f256main+0x1718>
    1b66: 86 12        	stx	$12                     ; 0x2012 <f256main+0x16fe>
    1b68: a6 2d        	ldx	$2d                     ; 0x202d <f256main+0x1719>
    1b6a: 86 13        	stx	$13                     ; 0x2013 <f256main+0x16ff>
    1b6c: a9 01        	lda	#$1
    1b6e: 20 c0 4d     	jsr	$4dc0 <highLightInstChoice>
    1b71: a6 6a        	ldx	$6a                     ; 0x206a <f256main+0x1756>
    1b73: a4 6b        	ldy	$6b                     ; 0x206b <f256main+0x1757>
    1b75: 86 2c        	stx	$2c                     ; 0x202c <f256main+0x1718>
    1b77: 84 2d        	sty	$2d                     ; 0x202d <f256main+0x1719>
    1b79: 86 12        	stx	$12                     ; 0x2012 <f256main+0x16fe>
    1b7b: 84 13        	sty	$13                     ; 0x2013 <f256main+0x16ff>
    1b7d: e6 12        	inc	$12                     ; 0x2012 <f256main+0x16fe>
    1b7f: d0 02        	bne	$1b83 <f256main+0x126f>
    1b81: e6 13        	inc	$13                     ; 0x2013 <f256main+0x16ff>
    1b83: a0 01        	ldy	#$1
    1b85: b1 2c        	lda	($2c),y                 ; 0x202c <f256main+0x1718>
    1b87: aa           	tax
    1b88: b1 12        	lda	($12),y                 ; 0x2012 <f256main+0x16fe>
    1b8a: 86 12        	stx	$12                     ; 0x2012 <f256main+0x16fe>
    1b8c: 85 13        	sta	$13                     ; 0x2013 <f256main+0x16ff>
    1b8e: a0 05        	ldy	#$5
    1b90: b1 2c        	lda	($2c),y                 ; 0x202c <f256main+0x1718>
    1b92: a8           	tay
    1b93: b1 12        	lda	($12),y                 ; 0x2012 <f256main+0x16fe>
    1b95: 85 18        	sta	$18                     ; 0x2018 <f256main+0x1704>
    1b97: 4c 30 25     	jmp	$2530 <f256main+0x1c1c>
    1b9a: a6 61        	ldx	$61                     ; 0x2061 <f256main+0x174d>
    1b9c: d0 03        	bne	$1ba1 <f256main+0x128d>
    1b9e: 4c d0 24     	jmp	$24d0 <f256main+0x1bbc>
    1ba1: a0 12        	ldy	#$12
    1ba3: b1 10        	lda	($10),y                 ; 0x2010 <f256main+0x16fc>
    1ba5: 85 25        	sta	$25                     ; 0x2025 <f256main+0x1711>
    1ba7: a6 6a        	ldx	$6a                     ; 0x206a <f256main+0x1756>
    1ba9: a0 01        	ldy	#$1
    1bab: a5 6b        	lda	$6b                     ; 0x206b <f256main+0x1757>
    1bad: 86 2c        	stx	$2c                     ; 0x202c <f256main+0x1718>
    1baf: 85 2d        	sta	$2d                     ; 0x202d <f256main+0x1719>
    1bb1: 86 12        	stx	$12                     ; 0x2012 <f256main+0x16fe>
    1bb3: 85 13        	sta	$13                     ; 0x2013 <f256main+0x16ff>
    1bb5: e6 12        	inc	$12                     ; 0x2012 <f256main+0x16fe>
    1bb7: d0 02        	bne	$1bbb <f256main+0x12a7>
    1bb9: e6 13        	inc	$13                     ; 0x2013 <f256main+0x16ff>
    1bbb: b1 2c        	lda	($2c),y                 ; 0x202c <f256main+0x1718>
    1bbd: aa           	tax
    1bbe: b1 12        	lda	($12),y                 ; 0x2012 <f256main+0x16fe>
    1bc0: 86 12        	stx	$12                     ; 0x2012 <f256main+0x16fe>
    1bc2: 85 13        	sta	$13                     ; 0x2013 <f256main+0x16ff>
    1bc4: a0 05        	ldy	#$5
    1bc6: b1 2c        	lda	($2c),y                 ; 0x202c <f256main+0x1718>
    1bc8: a8           	tay
    1bc9: b1 12        	lda	($12),y                 ; 0x2012 <f256main+0x16fe>
    1bcb: c9 7f        	cmp	#$7f
    1bcd: 90 03        	bcc	$1bd2 <f256main+0x12be>
    1bcf: 4c 39 1c     	jmp	$1c39 <f256main+0x1325>
    1bd2: a6 2c        	ldx	$2c                     ; 0x202c <f256main+0x1718>
    1bd4: 86 12        	stx	$12                     ; 0x2012 <f256main+0x16fe>
    1bd6: a6 2d        	ldx	$2d                     ; 0x202d <f256main+0x1719>
    1bd8: 86 13        	stx	$13                     ; 0x2013 <f256main+0x16ff>
    1bda: a9 00        	lda	#$0
    1bdc: 20 c0 4d     	jsr	$4dc0 <highLightInstChoice>
    1bdf: a0 06        	ldy	#$6
    1be1: b1 2c        	lda	($2c),y                 ; 0x202c <f256main+0x1718>
    1be3: d0 23        	bne	$1c08 <f256main+0x12f4>
    1be5: a6 2c        	ldx	$2c                     ; 0x202c <f256main+0x1718>
    1be7: 86 12        	stx	$12                     ; 0x2012 <f256main+0x16fe>
    1be9: a6 2d        	ldx	$2d                     ; 0x202d <f256main+0x1719>
    1beb: 86 13        	stx	$13                     ; 0x2013 <f256main+0x16ff>
    1bed: e6 12        	inc	$12                     ; 0x2012 <f256main+0x16fe>
    1bef: d0 02        	bne	$1bf3 <f256main+0x12df>
    1bf1: e6 13        	inc	$13                     ; 0x2013 <f256main+0x16ff>
    1bf3: a0 01        	ldy	#$1
    1bf5: b1 2c        	lda	($2c),y                 ; 0x202c <f256main+0x1718>
    1bf7: aa           	tax
    1bf8: b1 12        	lda	($12),y                 ; 0x2012 <f256main+0x16fe>
    1bfa: 86 12        	stx	$12                     ; 0x2012 <f256main+0x16fe>
    1bfc: 85 13        	sta	$13                     ; 0x2013 <f256main+0x16ff>
    1bfe: a0 05        	ldy	#$5
    1c00: b1 2c        	lda	($2c),y                 ; 0x202c <f256main+0x1718>
    1c02: a8           	tay
    1c03: b1 12        	lda	($12),y                 ; 0x2012 <f256main+0x16fe>
    1c05: 1a           	inc
    1c06: 91 12        	sta	($12),y                 ; 0x2012 <f256main+0x16fe>
    1c08: a6 2c        	ldx	$2c                     ; 0x202c <f256main+0x1718>
    1c0a: 86 12        	stx	$12                     ; 0x2012 <f256main+0x16fe>
    1c0c: a6 2d        	ldx	$2d                     ; 0x202d <f256main+0x1719>
    1c0e: 86 13        	stx	$13                     ; 0x2013 <f256main+0x16ff>
    1c10: a9 01        	lda	#$1
    1c12: 20 c0 4d     	jsr	$4dc0 <highLightInstChoice>
    1c15: a6 6a        	ldx	$6a                     ; 0x206a <f256main+0x1756>
    1c17: a4 6b        	ldy	$6b                     ; 0x206b <f256main+0x1757>
    1c19: 86 2c        	stx	$2c                     ; 0x202c <f256main+0x1718>
    1c1b: 84 2d        	sty	$2d                     ; 0x202d <f256main+0x1719>
    1c1d: 86 12        	stx	$12                     ; 0x2012 <f256main+0x16fe>
    1c1f: 84 13        	sty	$13                     ; 0x2013 <f256main+0x16ff>
    1c21: e6 12        	inc	$12                     ; 0x2012 <f256main+0x16fe>
    1c23: d0 02        	bne	$1c27 <f256main+0x1313>
    1c25: e6 13        	inc	$13                     ; 0x2013 <f256main+0x16ff>
    1c27: a0 01        	ldy	#$1
    1c29: b1 2c        	lda	($2c),y                 ; 0x202c <f256main+0x1718>
    1c2b: aa           	tax
    1c2c: b1 12        	lda	($12),y                 ; 0x2012 <f256main+0x16fe>
    1c2e: 86 12        	stx	$12                     ; 0x2012 <f256main+0x16fe>
    1c30: 85 13        	sta	$13                     ; 0x2013 <f256main+0x16ff>
    1c32: a0 05        	ldy	#$5
    1c34: b1 2c        	lda	($2c),y                 ; 0x202c <f256main+0x1718>
    1c36: a8           	tay
    1c37: b1 12        	lda	($12),y                 ; 0x2012 <f256main+0x16fe>
    1c39: 85 14        	sta	$14                     ; 0x2014 <f256main+0x1700>
    1c3b: b2 2c        	lda	($2c)                   ; 0x202c <f256main+0x1718>
    1c3d: a2 a1        	ldx	#$a1
    1c3f: 86 12        	stx	$12                     ; 0x2012 <f256main+0x16fe>
    1c41: a2 dd        	ldx	#$dd
    1c43: 86 13        	stx	$13                     ; 0x2013 <f256main+0x16ff>
    1c45: a2 b1        	ldx	#$b1
    1c47: 86 16        	stx	$16                     ; 0x2016 <f256main+0x1702>
    1c49: a2 dd        	ldx	#$dd
    1c4b: 86 17        	stx	$17                     ; 0x2017 <f256main+0x1703>
    1c4d: 48           	pha
    1c4e: 5a           	phy
    1c4f: a5 16        	lda	$16                     ; 0x2016 <f256main+0x1702>
    1c51: a0 0d        	ldy	#$d
    1c53: 91 10        	sta	($10),y                 ; 0x2010 <f256main+0x16fc>
    1c55: a5 17        	lda	$17                     ; 0x2017 <f256main+0x1703>
    1c57: c8           	iny
    1c58: 91 10        	sta	($10),y                 ; 0x2010 <f256main+0x16fc>
    1c5a: 7a           	ply
    1c5b: 68           	pla
    1c5c: f0 0d        	beq	$1c6b <f256main+0x1357>
    1c5e: 5a           	phy
    1c5f: a0 0d        	ldy	#$d
    1c61: b1 10        	lda	($10),y                 ; 0x2010 <f256main+0x16fc>
    1c63: 85 12        	sta	$12                     ; 0x2012 <f256main+0x16fe>
    1c65: c8           	iny
    1c66: b1 10        	lda	($10),y                 ; 0x2010 <f256main+0x16fc>
    1c68: 7a           	ply
    1c69: 85 13        	sta	$13                     ; 0x2013 <f256main+0x16ff>
    1c6b: 98           	tya
    1c6c: 09 c0        	ora	#$c0
    1c6e: 92 12        	sta	($12)                   ; 0x2012 <f256main+0x16fe>
    1c70: a5 14        	lda	$14                     ; 0x2014 <f256main+0x1700>
    1c72: 4c 67 25     	jmp	$2567 <f256main+0x1c53>
    1c75: a0 12        	ldy	#$12
    1c77: b1 10        	lda	($10),y                 ; 0x2010 <f256main+0x16fc>
    1c79: 85 25        	sta	$25                     ; 0x2025 <f256main+0x1711>
    1c7b: a6 61        	ldx	$61                     ; 0x2061 <f256main+0x174d>
    1c7d: a4 6a        	ldy	$6a                     ; 0x206a <f256main+0x1756>
    1c7f: a5 6b        	lda	$6b                     ; 0x206b <f256main+0x1757>
    1c81: 84 12        	sty	$12                     ; 0x2012 <f256main+0x16fe>
    1c83: 85 13        	sta	$13                     ; 0x2013 <f256main+0x16ff>
    1c85: a0 06        	ldy	#$6
    1c87: b1 12        	lda	($12),y                 ; 0x2012 <f256main+0x16fe>
    1c89: e0 00        	cpx	#$0
    1c8b: d0 03        	bne	$1c90 <f256main+0x137c>
    1c8d: 4c 0b 25     	jmp	$250b <f256main+0x1bf7>
    1c90: aa           	tax
    1c91: f0 03        	beq	$1c96 <f256main+0x1382>
    1c93: 4c 55 29     	jmp	$2955 <f256main+0x2041>
    1c96: a6 12        	ldx	$12                     ; 0x2012 <f256main+0x16fe>
    1c98: 86 14        	stx	$14                     ; 0x2014 <f256main+0x1700>
    1c9a: a6 13        	ldx	$13                     ; 0x2013 <f256main+0x16ff>
    1c9c: 86 15        	stx	$15                     ; 0x2015 <f256main+0x1701>
    1c9e: e6 14        	inc	$14                     ; 0x2014 <f256main+0x1700>
    1ca0: d0 02        	bne	$1ca4 <f256main+0x1390>
    1ca2: e6 15        	inc	$15                     ; 0x2015 <f256main+0x1701>
    1ca4: a5 64        	lda	$64                     ; 0x2064 <f256main+0x1750>
    1ca6: 29 01        	and	#$1
    1ca8: a2 62        	ldx	#$62
    1caa: 64 17        	stz	$17                     ; 0x2017 <f256main+0x1703>
    1cac: a8           	tay
    1cad: d0 02        	bne	$1cb1 <f256main+0x139d>
    1caf: a2 7d        	ldx	#$7d
    1cb1: 86 16        	stx	$16                     ; 0x2016 <f256main+0x1702>
    1cb3: a9 01        	lda	#$1
    1cb5: 25 64        	and	$64                     ; 0x2064 <f256main+0x1750>
    1cb7: 85 18        	sta	$18                     ; 0x2018 <f256main+0x1704>
    1cb9: a2 00        	ldx	#$0
    1cbb: e4 17        	cpx	$17                     ; 0x2017 <f256main+0x1703>
    1cbd: f0 03        	beq	$1cc2 <f256main+0x13ae>
    1cbf: 4c 98 28     	jmp	$2898 <f256main+0x1f84>
    1cc2: a0 01        	ldy	#$1
    1cc4: b1 12        	lda	($12),y                 ; 0x2012 <f256main+0x16fe>
    1cc6: aa           	tax
    1cc7: b1 14        	lda	($14),y                 ; 0x2014 <f256main+0x1700>
    1cc9: 86 14        	stx	$14                     ; 0x2014 <f256main+0x1700>
    1ccb: 85 15        	sta	$15                     ; 0x2015 <f256main+0x1701>
    1ccd: a0 05        	ldy	#$5
    1ccf: b1 12        	lda	($12),y                 ; 0x2012 <f256main+0x16fe>
    1cd1: a8           	tay
    1cd2: b1 14        	lda	($14),y                 ; 0x2014 <f256main+0x1700>
    1cd4: c5 16        	cmp	$16                     ; 0x2016 <f256main+0x1702>
    1cd6: b0 03        	bcs	$1cdb <f256main+0x13c7>
    1cd8: 4c 9f 28     	jmp	$289f <f256main+0x1f8b>
    1cdb: 4c 6a 2a     	jmp	$2a6a <f256main+0x2156>
    1cde: 5a           	phy
    1cdf: a4 17        	ldy	$17                     ; 0x2017 <f256main+0x1703>
    1ce1: 84 19        	sty	$19                     ; 0x2019 <f256main+0x1705>
    1ce3: a4 17        	ldy	$17                     ; 0x2017 <f256main+0x1703>
    1ce5: 84 12        	sty	$12                     ; 0x2012 <f256main+0x16fe>
    1ce7: 7a           	ply
    1ce8: 86 13        	stx	$13                     ; 0x2013 <f256main+0x16ff>
    1cea: 38           	sec
    1ceb: e5 16        	sbc	$16                     ; 0x2016 <f256main+0x1702>
    1ced: 85 16        	sta	$16                     ; 0x2016 <f256main+0x1702>
    1cef: 98           	tya
    1cf0: e9 00        	sbc	#$0
    1cf2: 85 17        	sta	$17                     ; 0x2017 <f256main+0x1703>
    1cf4: 18           	clc
    1cf5: a5 19        	lda	$19                     ; 0x2019 <f256main+0x1705>
    1cf7: 65 16        	adc	$16                     ; 0x2016 <f256main+0x1702>
    1cf9: a8           	tay
    1cfa: 8a           	txa
    1cfb: 65 17        	adc	$17                     ; 0x2017 <f256main+0x1703>
    1cfd: 84 1a        	sty	$1a                     ; 0x201a <f256main+0x1706>
    1cff: 85 1b        	sta	$1b                     ; 0x201b <f256main+0x1707>
    1d01: aa           	tax
    1d02: 18           	clc
    1d03: 98           	tya
    1d04: 69 09        	adc	#$9
    1d06: 85 18        	sta	$18                     ; 0x2018 <f256main+0x1704>
    1d08: 8a           	txa
    1d09: 69 00        	adc	#$0
    1d0b: 85 19        	sta	$19                     ; 0x2019 <f256main+0x1705>
    1d0d: a0 01        	ldy	#$1
    1d0f: b1 18        	lda	($18),y                 ; 0x2018 <f256main+0x1704>
    1d11: 85 1c        	sta	$1c                     ; 0x201c <f256main+0x1708>
    1d13: 18           	clc
    1d14: a6 28        	ldx	$28                     ; 0x2028 <f256main+0x1714>
    1d16: 86 16        	stx	$16                     ; 0x2016 <f256main+0x1702>
    1d18: a6 29        	ldx	$29                     ; 0x2029 <f256main+0x1715>
    1d1a: 86 17        	stx	$17                     ; 0x2017 <f256main+0x1703>
    1d1c: a0 08        	ldy	#$8
    1d1e: b1 10        	lda	($10),y                 ; 0x2010 <f256main+0x16fc>
    1d20: 85 28        	sta	$28                     ; 0x2028 <f256main+0x1714>
    1d22: c8           	iny
    1d23: b1 10        	lda	($10),y                 ; 0x2010 <f256main+0x16fc>
    1d25: 85 29        	sta	$29                     ; 0x2029 <f256main+0x1715>
    1d27: a5 2d        	lda	$2d                     ; 0x202d <f256main+0x1719>
    1d29: 71 1a        	adc	($1a),y                 ; 0x201a <f256main+0x1706>
    1d2b: aa           	tax
    1d2c: a5 1c        	lda	$1c                     ; 0x201c <f256main+0x1708>
    1d2e: 69 00        	adc	#$0
    1d30: 85 18        	sta	$18                     ; 0x2018 <f256main+0x1704>
    1d32: 18           	clc
    1d33: 8a           	txa
    1d34: 69 fa        	adc	#$fa
    1d36: aa           	tax
    1d37: a5 18        	lda	$18                     ; 0x2018 <f256main+0x1704>
    1d39: 69 ff        	adc	#$ff
    1d3b: 86 18        	stx	$18                     ; 0x2018 <f256main+0x1704>
    1d3d: 85 19        	sta	$19                     ; 0x2019 <f256main+0x1705>
    1d3f: b2 18        	lda	($18)                   ; 0x2018 <f256main+0x1704>
    1d41: 1a           	inc
    1d42: 92 18        	sta	($18)                   ; 0x2018 <f256main+0x1704>
    1d44: 88           	dey
    1d45: b1 14        	lda	($14),y                 ; 0x2014 <f256main+0x1700>
    1d47: a6 24        	ldx	$24                     ; 0x2024 <f256main+0x1710>
    1d49: 86 14        	stx	$14                     ; 0x2014 <f256main+0x1700>
    1d4b: a6 25        	ldx	$25                     ; 0x2025 <f256main+0x1711>
    1d4d: 86 15        	stx	$15                     ; 0x2015 <f256main+0x1701>
    1d4f: 48           	pha
    1d50: a5 16        	lda	$16                     ; 0x2016 <f256main+0x1702>
    1d52: a0 06        	ldy	#$6
    1d54: 91 10        	sta	($10),y                 ; 0x2010 <f256main+0x16fc>
    1d56: a5 17        	lda	$17                     ; 0x2017 <f256main+0x1703>
    1d58: c8           	iny
    1d59: 91 10        	sta	($10),y                 ; 0x2010 <f256main+0x16fc>
    1d5b: 68           	pla
    1d5c: a6 28        	ldx	$28                     ; 0x2028 <f256main+0x1714>
    1d5e: 86 18        	stx	$18                     ; 0x2018 <f256main+0x1704>
    1d60: a6 29        	ldx	$29                     ; 0x2029 <f256main+0x1715>
    1d62: 86 19        	stx	$19                     ; 0x2019 <f256main+0x1705>
    1d64: a6 2b        	ldx	$2b                     ; 0x202b <f256main+0x1717>
    1d66: 20 02 43     	jsr	$4302 <getBeatTrackNoteInfo>
    1d69: a6 7e        	ldx	$7e                     ; 0x207e <f256main+0x176a>
    1d6b: 86 1a        	stx	$1a                     ; 0x201a <f256main+0x1706>
    1d6d: a6 7f        	ldx	$7f                     ; 0x207f <f256main+0x176b>
    1d6f: 86 1b        	stx	$1b                     ; 0x201b <f256main+0x1707>
    1d71: a5 6a        	lda	$6a                     ; 0x206a <f256main+0x1756>
    1d73: a6 6b        	ldx	$6b                     ; 0x206b <f256main+0x1757>
    1d75: 85 14        	sta	$14                     ; 0x2014 <f256main+0x1700>
    1d77: 86 15        	stx	$15                     ; 0x2015 <f256main+0x1701>
    1d79: a0 08        	ldy	#$8
    1d7b: b1 14        	lda	($14),y                 ; 0x2014 <f256main+0x1700>
    1d7d: 85 12        	sta	$12                     ; 0x2012 <f256main+0x16fe>
    1d7f: 0a           	asl
    1d80: aa           	tax
    1d81: a9 00        	lda	#$0
    1d83: 2a           	rol
    1d84: 86 13        	stx	$13                     ; 0x2013 <f256main+0x16ff>
    1d86: 06 13        	asl	$13                     ; 0x2013 <f256main+0x16ff>
    1d88: 2a           	rol
    1d89: 06 13        	asl	$13                     ; 0x2013 <f256main+0x16ff>
    1d8b: 2a           	rol
    1d8c: 06 13        	asl	$13                     ; 0x2013 <f256main+0x16ff>
    1d8e: 2a           	rol
    1d8f: aa           	tax
    1d90: 38           	sec
    1d91: a5 13        	lda	$13                     ; 0x2013 <f256main+0x16ff>
    1d93: e5 12        	sbc	$12                     ; 0x2012 <f256main+0x16fe>
    1d95: 85 12        	sta	$12                     ; 0x2012 <f256main+0x16fe>
    1d97: 8a           	txa
    1d98: e9 00        	sbc	#$0
    1d9a: a8           	tay
    1d9b: 18           	clc
    1d9c: a5 12        	lda	$12                     ; 0x2012 <f256main+0x16fe>
    1d9e: 65 7e        	adc	$7e                     ; 0x207e <f256main+0x176a>
    1da0: aa           	tax
    1da1: 98           	tya
    1da2: 65 7f        	adc	$7f                     ; 0x207f <f256main+0x176b>
    1da4: 86 12        	stx	$12                     ; 0x2012 <f256main+0x16fe>
    1da6: 85 13        	sta	$13                     ; 0x2013 <f256main+0x16ff>
    1da8: a8           	tay
    1da9: 18           	clc
    1daa: 8a           	txa
    1dab: 69 09        	adc	#$9
    1dad: 85 16        	sta	$16                     ; 0x2016 <f256main+0x1702>
    1daf: 98           	tya
    1db0: 69 00        	adc	#$0
    1db2: 85 17        	sta	$17                     ; 0x2017 <f256main+0x1703>
    1db4: a0 01        	ldy	#$1
    1db6: b1 16        	lda	($16),y                 ; 0x2016 <f256main+0x1702>
    1db8: 85 16        	sta	$16                     ; 0x2016 <f256main+0x1702>
    1dba: 18           	clc
    1dbb: a5 2d        	lda	$2d                     ; 0x202d <f256main+0x1719>
    1dbd: a0 09        	ldy	#$9
    1dbf: 71 12        	adc	($12),y                 ; 0x2012 <f256main+0x16fe>
    1dc1: aa           	tax
    1dc2: a5 16        	lda	$16                     ; 0x2016 <f256main+0x1702>
    1dc4: 69 00        	adc	#$0
    1dc6: 85 12        	sta	$12                     ; 0x2012 <f256main+0x16fe>
    1dc8: 18           	clc
    1dc9: 8a           	txa
    1dca: 69 fa        	adc	#$fa
    1dcc: 85 16        	sta	$16                     ; 0x2016 <f256main+0x1702>
    1dce: a5 12        	lda	$12                     ; 0x2012 <f256main+0x16fe>
    1dd0: 69 ff        	adc	#$ff
    1dd2: 85 17        	sta	$17                     ; 0x2017 <f256main+0x1703>
    1dd4: b2 16        	lda	($16)                   ; 0x2016 <f256main+0x1702>
    1dd6: a0 03        	ldy	#$3
    1dd8: d1 28        	cmp	($28),y                 ; 0x2028 <f256main+0x1714>
    1dda: f0 03        	beq	$1ddf <f256main+0x14cb>
    1ddc: 4c 81 1e     	jmp	$1e81 <f256main+0x156d>
    1ddf: a6 1a        	ldx	$1a                     ; 0x201a <f256main+0x1706>
    1de1: 86 12        	stx	$12                     ; 0x2012 <f256main+0x16fe>
    1de3: a6 1b        	ldx	$1b                     ; 0x201b <f256main+0x1707>
    1de5: 86 13        	stx	$13                     ; 0x2013 <f256main+0x16ff>
    1de7: a9 00        	lda	#$0
    1de9: 92 16        	sta	($16)                   ; 0x2016 <f256main+0x1702>
    1deb: a0 08        	ldy	#$8
    1ded: b1 14        	lda	($14),y                 ; 0x2014 <f256main+0x1700>
    1def: a6 24        	ldx	$24                     ; 0x2024 <f256main+0x1710>
    1df1: 86 14        	stx	$14                     ; 0x2014 <f256main+0x1700>
    1df3: a6 25        	ldx	$25                     ; 0x2025 <f256main+0x1711>
    1df5: 86 15        	stx	$15                     ; 0x2015 <f256main+0x1701>
    1df7: 48           	pha
    1df8: a0 06        	ldy	#$6
    1dfa: b1 10        	lda	($10),y                 ; 0x2010 <f256main+0x16fc>
    1dfc: 85 16        	sta	$16                     ; 0x2016 <f256main+0x1702>
    1dfe: c8           	iny
    1dff: b1 10        	lda	($10),y                 ; 0x2010 <f256main+0x16fc>
    1e01: 85 17        	sta	$17                     ; 0x2017 <f256main+0x1703>
    1e03: 68           	pla
    1e04: a6 16        	ldx	$16                     ; 0x2016 <f256main+0x1702>
    1e06: 86 2e        	stx	$2e                     ; 0x202e <f256main+0x171a>
    1e08: a6 17        	ldx	$17                     ; 0x2017 <f256main+0x1703>
    1e0a: 86 2f        	stx	$2f                     ; 0x202f <f256main+0x171b>
    1e0c: a6 28        	ldx	$28                     ; 0x2028 <f256main+0x1714>
    1e0e: 86 18        	stx	$18                     ; 0x2018 <f256main+0x1704>
    1e10: a6 29        	ldx	$29                     ; 0x2029 <f256main+0x1715>
    1e12: 86 19        	stx	$19                     ; 0x2019 <f256main+0x1705>
    1e14: a6 2b        	ldx	$2b                     ; 0x202b <f256main+0x1717>
    1e16: 20 02 43     	jsr	$4302 <getBeatTrackNoteInfo>
    1e19: a6 6a        	ldx	$6a                     ; 0x206a <f256main+0x1756>
    1e1b: a4 6b        	ldy	$6b                     ; 0x206b <f256main+0x1757>
    1e1d: 86 14        	stx	$14                     ; 0x2014 <f256main+0x1700>
    1e1f: 84 15        	sty	$15                     ; 0x2015 <f256main+0x1701>
    1e21: 4c 8c 1e     	jmp	$1e8c <f256main+0x1578>
    1e24: a0 00        	ldy	#$0
    1e26: 84 61        	sty	$61                     ; 0x2061 <f256main+0x174d>
    1e28: e0 00        	cpx	#$0
    1e2a: f0 03        	beq	$1e2f <f256main+0x151b>
    1e2c: 4c 5b 20     	jmp	$205b <f256main+0x1747>
    1e2f: a2 02        	ldx	#$2
    1e31: 86 01        	stx	$1                      ; 0x2001 <f256main+0x16ed>
    1e33: a2 c0        	ldx	#$c0
    1e35: a0 00        	ldy	#$0
    1e37: 84 12        	sty	$12                     ; 0x2012 <f256main+0x16fe>
    1e39: 86 13        	stx	$13                     ; 0x2013 <f256main+0x16ff>
    1e3b: 92 12        	sta	($12)                   ; 0x2012 <f256main+0x16fe>
    1e3d: c8           	iny
    1e3e: d0 01        	bne	$1e41 <f256main+0x152d>
    1e40: e8           	inx
    1e41: e0 d2        	cpx	#$d2
    1e43: d0 f2        	bne	$1e37 <f256main+0x1523>
    1e45: c0 c0        	cpy	#$c0
    1e47: d0 ee        	bne	$1e37 <f256main+0x1523>
    1e49: 64 01        	stz	$1                      ; 0x2001 <f256main+0x16ed>
    1e4b: a6 6a        	ldx	$6a                     ; 0x206a <f256main+0x1756>
    1e4d: a4 6b        	ldy	$6b                     ; 0x206b <f256main+0x1757>
    1e4f: 86 12        	stx	$12                     ; 0x2012 <f256main+0x16fe>
    1e51: 84 13        	sty	$13                     ; 0x2013 <f256main+0x16ff>
    1e53: 20 ec 4a     	jsr	$4aec <textTitle>
    1e56: 4c 6a 2a     	jmp	$2a6a <f256main+0x2156>
    1e59: 85 15        	sta	$15                     ; 0x2015 <f256main+0x1701>
    1e5b: a0 05        	ldy	#$5
    1e5d: a9 90        	lda	#$90
    1e5f: 11 12        	ora	($12),y                 ; 0x2012 <f256main+0x16fe>
    1e61: 85 18        	sta	$18                     ; 0x2018 <f256main+0x1704>
    1e63: a9 15        	lda	#$15
    1e65: 18           	clc
    1e66: 65 31        	adc	$31                     ; 0x2031 <f256main+0x171d>
    1e68: aa           	tax
    1e69: b2 12        	lda	($12)                   ; 0x2012 <f256main+0x16fe>
    1e6b: 86 12        	stx	$12                     ; 0x2012 <f256main+0x16fe>
    1e6d: 85 14        	sta	$14                     ; 0x2014 <f256main+0x1700>
    1e6f: a2 7f        	ldx	#$7f
    1e71: 86 13        	stx	$13                     ; 0x2013 <f256main+0x16ff>
    1e73: 64 16        	stz	$16                     ; 0x2016 <f256main+0x1702>
    1e75: 64 17        	stz	$17                     ; 0x2017 <f256main+0x1703>
    1e77: a6 18        	ldx	$18                     ; 0x2018 <f256main+0x1704>
    1e79: a9 01        	lda	#$1
    1e7b: 20 54 31     	jsr	$3154 <dispatchNote>
    1e7e: 4c 6a 2a     	jmp	$2a6a <f256main+0x2156>
    1e81: a0 06        	ldy	#$6
    1e83: b1 10        	lda	($10),y                 ; 0x2010 <f256main+0x16fc>
    1e85: 85 2e        	sta	$2e                     ; 0x202e <f256main+0x171a>
    1e87: c8           	iny
    1e88: b1 10        	lda	($10),y                 ; 0x2010 <f256main+0x16fc>
    1e8a: 85 2f        	sta	$2f                     ; 0x202f <f256main+0x171b>
    1e8c: b2 24        	lda	($24)                   ; 0x2024 <f256main+0x1710>
    1e8e: a0 01        	ldy	#$1
    1e90: aa           	tax
    1e91: 30 03        	bmi	$1e96 <f256main+0x1582>
    1e93: 4c 07 1f     	jmp	$1f07 <f256main+0x15f3>
    1e96: a0 08        	ldy	#$8
    1e98: b1 14        	lda	($14),y                 ; 0x2014 <f256main+0x1700>
    1e9a: 85 12        	sta	$12                     ; 0x2012 <f256main+0x16fe>
    1e9c: 0a           	asl
    1e9d: a8           	tay
    1e9e: a9 00        	lda	#$0
    1ea0: 2a           	rol
    1ea1: 84 13        	sty	$13                     ; 0x2013 <f256main+0x16ff>
    1ea3: 06 13        	asl	$13                     ; 0x2013 <f256main+0x16ff>
    1ea5: 2a           	rol
    1ea6: 06 13        	asl	$13                     ; 0x2013 <f256main+0x16ff>
    1ea8: 2a           	rol
    1ea9: 06 13        	asl	$13                     ; 0x2013 <f256main+0x16ff>
    1eab: 2a           	rol
    1eac: a8           	tay
    1ead: 38           	sec
    1eae: a5 13        	lda	$13                     ; 0x2013 <f256main+0x16ff>
    1eb0: e5 12        	sbc	$12                     ; 0x2012 <f256main+0x16fe>
    1eb2: 85 12        	sta	$12                     ; 0x2012 <f256main+0x16fe>
    1eb4: 98           	tya
    1eb5: e9 00        	sbc	#$0
    1eb7: 85 13        	sta	$13                     ; 0x2013 <f256main+0x16ff>
    1eb9: 18           	clc
    1eba: a5 12        	lda	$12                     ; 0x2012 <f256main+0x16fe>
    1ebc: 65 7e        	adc	$7e                     ; 0x207e <f256main+0x176a>
    1ebe: a8           	tay
    1ebf: a5 13        	lda	$13                     ; 0x2013 <f256main+0x16ff>
    1ec1: 65 7f        	adc	$7f                     ; 0x207f <f256main+0x176b>
    1ec3: 84 12        	sty	$12                     ; 0x2012 <f256main+0x16fe>
    1ec5: 85 13        	sta	$13                     ; 0x2013 <f256main+0x16ff>
    1ec7: 85 17        	sta	$17                     ; 0x2017 <f256main+0x1703>
    1ec9: 18           	clc
    1eca: 98           	tya
    1ecb: 69 0b        	adc	#$b
    1ecd: 85 16        	sta	$16                     ; 0x2016 <f256main+0x1702>
    1ecf: a5 17        	lda	$17                     ; 0x2017 <f256main+0x1703>
    1ed1: 69 00        	adc	#$0
    1ed3: 85 17        	sta	$17                     ; 0x2017 <f256main+0x1703>
    1ed5: a0 01        	ldy	#$1
    1ed7: b1 16        	lda	($16),y                 ; 0x2016 <f256main+0x1702>
    1ed9: 85 16        	sta	$16                     ; 0x2016 <f256main+0x1702>
    1edb: 18           	clc
    1edc: a0 0b        	ldy	#$b
    1ede: a5 2d        	lda	$2d                     ; 0x202d <f256main+0x1719>
    1ee0: 71 12        	adc	($12),y                 ; 0x2012 <f256main+0x16fe>
    1ee2: 85 13        	sta	$13                     ; 0x2013 <f256main+0x16ff>
    1ee4: a0 01        	ldy	#$1
    1ee6: a5 16        	lda	$16                     ; 0x2016 <f256main+0x1702>
    1ee8: 69 00        	adc	#$0
    1eea: 85 12        	sta	$12                     ; 0x2012 <f256main+0x16fe>
    1eec: 18           	clc
    1eed: a5 13        	lda	$13                     ; 0x2013 <f256main+0x16ff>
    1eef: 69 fa        	adc	#$fa
    1ef1: 85 16        	sta	$16                     ; 0x2016 <f256main+0x1702>
    1ef3: a5 12        	lda	$12                     ; 0x2012 <f256main+0x16fe>
    1ef5: 69 ff        	adc	#$ff
    1ef7: 5a           	phy
    1ef8: a4 16        	ldy	$16                     ; 0x2016 <f256main+0x1702>
    1efa: 84 12        	sty	$12                     ; 0x2012 <f256main+0x16fe>
    1efc: 7a           	ply
    1efd: 85 13        	sta	$13                     ; 0x2013 <f256main+0x16ff>
    1eff: b2 12        	lda	($12)                   ; 0x2012 <f256main+0x16fe>
    1f01: d0 04        	bne	$1f07 <f256main+0x15f3>
    1f03: a9 01        	lda	#$1
    1f05: 92 12        	sta	($12)                   ; 0x2012 <f256main+0x16fe>
    1f07: 5a           	phy
    1f08: a0 08        	ldy	#$8
    1f0a: b1 10        	lda	($10),y                 ; 0x2010 <f256main+0x16fc>
    1f0c: 85 16        	sta	$16                     ; 0x2016 <f256main+0x1702>
    1f0e: c8           	iny
    1f0f: b1 10        	lda	($10),y                 ; 0x2010 <f256main+0x16fc>
    1f11: 7a           	ply
    1f12: 85 17        	sta	$17                     ; 0x2017 <f256main+0x1703>
    1f14: b1 16        	lda	($16),y                 ; 0x2016 <f256main+0x1702>
    1f16: 85 19        	sta	$19                     ; 0x2019 <f256main+0x1705>
    1f18: 8a           	txa
    1f19: 29 7f        	and	#$7f
    1f1b: 85 18        	sta	$18                     ; 0x2018 <f256main+0x1704>
    1f1d: b2 16        	lda	($16)                   ; 0x2016 <f256main+0x1702>
    1f1f: a2 4c        	ldx	#$4c
    1f21: a4 2e        	ldy	$2e                     ; 0x202e <f256main+0x171a>
    1f23: 84 28        	sty	$28                     ; 0x2028 <f256main+0x1714>
    1f25: a4 2f        	ldy	$2f                     ; 0x202f <f256main+0x171b>
    1f27: 84 29        	sty	$29                     ; 0x2029 <f256main+0x1715>
    1f29: a0 41        	ldy	#$41
    1f2b: 84 2e        	sty	$2e                     ; 0x202e <f256main+0x171a>
    1f2d: a0 86        	ldy	#$86
    1f2f: 84 2f        	sty	$2f                     ; 0x202f <f256main+0x171b>
    1f31: 85 16        	sta	$16                     ; 0x2016 <f256main+0x1702>
    1f33: c9 02        	cmp	#$2
    1f35: f0 02        	beq	$1f39 <f256main+0x1625>
    1f37: a2 7f        	ldx	#$7f
    1f39: b2 14        	lda	($14)                   ; 0x2014 <f256main+0x1700>
    1f3b: 85 1a        	sta	$1a                     ; 0x201a <f256main+0x1706>
    1f3d: a0 02        	ldy	#$2
    1f3f: 5a           	phy
    1f40: a0 08        	ldy	#$8
    1f42: b1 10        	lda	($10),y                 ; 0x2010 <f256main+0x16fc>
    1f44: 85 12        	sta	$12                     ; 0x2012 <f256main+0x16fe>
    1f46: c8           	iny
    1f47: b1 10        	lda	($10),y                 ; 0x2010 <f256main+0x16fc>
    1f49: 7a           	ply
    1f4a: 85 13        	sta	$13                     ; 0x2013 <f256main+0x16ff>
    1f4c: b1 12        	lda	($12),y                 ; 0x2012 <f256main+0x16fe>
    1f4e: 85 17        	sta	$17                     ; 0x2017 <f256main+0x1703>
    1f50: a4 18        	ldy	$18                     ; 0x2018 <f256main+0x1704>
    1f52: 84 12        	sty	$12                     ; 0x2012 <f256main+0x16fe>
    1f54: 86 13        	stx	$13                     ; 0x2013 <f256main+0x16ff>
    1f56: a6 1a        	ldx	$1a                     ; 0x201a <f256main+0x1706>
    1f58: 86 14        	stx	$14                     ; 0x2014 <f256main+0x1700>
    1f5a: a6 16        	ldx	$16                     ; 0x2016 <f256main+0x1702>
    1f5c: 86 15        	stx	$15                     ; 0x2015 <f256main+0x1701>
    1f5e: a9 01        	lda	#$1
    1f60: 85 16        	sta	$16                     ; 0x2016 <f256main+0x1702>
    1f62: a6 19        	ldx	$19                     ; 0x2019 <f256main+0x1705>
    1f64: 20 54 31     	jsr	$3154 <dispatchNote>
    1f67: a6 6a        	ldx	$6a                     ; 0x206a <f256main+0x1756>
    1f69: a4 6b        	ldy	$6b                     ; 0x206b <f256main+0x1757>
    1f6b: 86 12        	stx	$12                     ; 0x2012 <f256main+0x16fe>
    1f6d: 84 13        	sty	$13                     ; 0x2013 <f256main+0x16ff>
    1f6f: a0 08        	ldy	#$8
    1f71: b1 12        	lda	($12),y                 ; 0x2012 <f256main+0x16fe>
    1f73: 85 12        	sta	$12                     ; 0x2012 <f256main+0x16fe>
    1f75: 0a           	asl
    1f76: aa           	tax
    1f77: a9 00        	lda	#$0
    1f79: 2a           	rol
    1f7a: 86 13        	stx	$13                     ; 0x2013 <f256main+0x16ff>
    1f7c: 06 13        	asl	$13                     ; 0x2013 <f256main+0x16ff>
    1f7e: 2a           	rol
    1f7f: 06 13        	asl	$13                     ; 0x2013 <f256main+0x16ff>
    1f81: 2a           	rol
    1f82: 06 13        	asl	$13                     ; 0x2013 <f256main+0x16ff>
    1f84: 2a           	rol
    1f85: aa           	tax
    1f86: 38           	sec
    1f87: a5 13        	lda	$13                     ; 0x2013 <f256main+0x16ff>
    1f89: e5 12        	sbc	$12                     ; 0x2012 <f256main+0x16fe>
    1f8b: 85 12        	sta	$12                     ; 0x2012 <f256main+0x16fe>
    1f8d: 8a           	txa
    1f8e: e9 00        	sbc	#$0
    1f90: aa           	tax
    1f91: 18           	clc
    1f92: a5 12        	lda	$12                     ; 0x2012 <f256main+0x16fe>
    1f94: 65 7e        	adc	$7e                     ; 0x207e <f256main+0x176a>
    1f96: 85 12        	sta	$12                     ; 0x2012 <f256main+0x16fe>
    1f98: 8a           	txa
    1f99: 65 7f        	adc	$7f                     ; 0x207f <f256main+0x176b>
    1f9b: 85 13        	sta	$13                     ; 0x2013 <f256main+0x16ff>
    1f9d: a0 02        	ldy	#$2
    1f9f: b1 12        	lda	($12),y                 ; 0x2012 <f256main+0x16fe>
    1fa1: 1a           	inc
    1fa2: 91 12        	sta	($12),y                 ; 0x2012 <f256main+0x16fe>
    1fa4: a2 80        	ldx	#$80
    1fa6: 86 f3        	stx	$f3                     ; 0x20f3 <f256main+0x17df>
    1fa8: 18           	clc
    1fa9: a5 10        	lda	$10                     ; 0x2010 <f256main+0x16fc>
    1fab: 69 20        	adc	#$20
    1fad: 85 12        	sta	$12                     ; 0x2012 <f256main+0x16fe>
    1faf: a5 11        	lda	$11                     ; 0x2011 <f256main+0x16fd>
    1fb1: 69 00        	adc	#$0
    1fb3: 85 13        	sta	$13                     ; 0x2013 <f256main+0x16ff>
    1fb5: 20 f0 ff     	jsr	$fff0 <__heap_start+0x79aa>
    1fb8: 92 12        	sta	($12)                   ; 0x2012 <f256main+0x16fe>
    1fba: a9 00        	lda	#$0
    1fbc: 6a           	ror
    1fbd: 85 2e        	sta	$2e                     ; 0x202e <f256main+0x171a>
    1fbf: b2 12        	lda	($12)                   ; 0x2012 <f256main+0x16fe>
    1fc1: 85 12        	sta	$12                     ; 0x2012 <f256main+0x16fe>
    1fc3: b2 28        	lda	($28)                   ; 0x2028 <f256main+0x1714>
    1fc5: aa           	tax
    1fc6: 18           	clc
    1fc7: a5 12        	lda	$12                     ; 0x2012 <f256main+0x16fe>
    1fc9: 75 6c        	adc	$6c,x                   ; 0x206c <f256main+0x1758>
    1fcb: 85 18        	sta	$18                     ; 0x2018 <f256main+0x1704>
    1fcd: a6 6a        	ldx	$6a                     ; 0x206a <f256main+0x1756>
    1fcf: a4 6b        	ldy	$6b                     ; 0x206b <f256main+0x1757>
    1fd1: 86 12        	stx	$12                     ; 0x2012 <f256main+0x16fe>
    1fd3: 84 13        	sty	$13                     ; 0x2013 <f256main+0x16ff>
    1fd5: a0 08        	ldy	#$8
    1fd7: b1 12        	lda	($12),y                 ; 0x2012 <f256main+0x16fe>
    1fd9: 85 12        	sta	$12                     ; 0x2012 <f256main+0x16fe>
    1fdb: 0a           	asl
    1fdc: aa           	tax
    1fdd: a9 00        	lda	#$0
    1fdf: 2a           	rol
    1fe0: 86 13        	stx	$13                     ; 0x2013 <f256main+0x16ff>
    1fe2: 06 13        	asl	$13                     ; 0x2013 <f256main+0x16ff>
    1fe4: 2a           	rol
    1fe5: 06 13        	asl	$13                     ; 0x2013 <f256main+0x16ff>
    1fe7: 2a           	rol
    1fe8: 06 13        	asl	$13                     ; 0x2013 <f256main+0x16ff>
    1fea: 2a           	rol
    1feb: aa           	tax
    1fec: 38           	sec
    1fed: a5 13        	lda	$13                     ; 0x2013 <f256main+0x16ff>
    1fef: e5 12        	sbc	$12                     ; 0x2012 <f256main+0x16fe>
    1ff1: 85 12        	sta	$12                     ; 0x2012 <f256main+0x16fe>
    1ff3: 8a           	txa
    1ff4: e9 00        	sbc	#$0
    1ff6: a8           	tay
    1ff7: 18           	clc
    1ff8: a5 12        	lda	$12                     ; 0x2012 <f256main+0x16fe>
    1ffa: 65 7e        	adc	$7e                     ; 0x207e <f256main+0x176a>
    1ffc: aa           	tax
    1ffd: 98           	tya
    1ffe: 65 7f        	adc	$7f                     ; 0x207f <f256main+0x176b>
    2000: 86 12        	stx	$12                     ; 0x2012 <f256main+0x16fe>
    2002: 85 13        	sta	$13                     ; 0x2013 <f256main+0x16ff>
    2004: a8           	tay
    2005: 18           	clc
    2006: 8a           	txa
    2007: 69 0d        	adc	#$d
    2009: 85 14        	sta	$14                     ; 0x2014 <f256main+0x1700>
    200b: 98           	tya
    200c: 69 00        	adc	#$0
    200e: 85 15        	sta	$15                     ; 0x2015 <f256main+0x1701>
    2010: 18           	clc
    2011: a0 0d        	ldy	#$d
    2013: b1 10        	lda	($10),y                 ; 0x2010 <f256main+0x16fc>
    2015: 65 2b        	adc	$2b                     ; 0x202b <f256main+0x1717>
    2017: aa           	tax
    2018: a0 0b        	ldy	#$b
    201a: b1 10        	lda	($10),y                 ; 0x2010 <f256main+0x16fc>
    201c: 65 2c        	adc	$2c                     ; 0x202c <f256main+0x1718>
    201e: 85 16        	sta	$16                     ; 0x2016 <f256main+0x1702>
    2020: 18           	clc
    2021: a0 0d        	ldy	#$d
    2023: 8a           	txa
    2024: 71 12        	adc	($12),y                 ; 0x2012 <f256main+0x16fe>
    2026: 85 12        	sta	$12                     ; 0x2012 <f256main+0x16fe>
    2028: a0 01        	ldy	#$1
    202a: a5 16        	lda	$16                     ; 0x2016 <f256main+0x1702>
    202c: 71 14        	adc	($14),y                 ; 0x2014 <f256main+0x1700>
    202e: 85 13        	sta	$13                     ; 0x2013 <f256main+0x16ff>
    2030: a5 18        	lda	$18                     ; 0x2018 <f256main+0x1704>
    2032: 91 12        	sta	($12),y                 ; 0x2012 <f256main+0x16fe>
    2034: b2 12        	lda	($12)                   ; 0x2012 <f256main+0x16fe>
    2036: 85 f3        	sta	$f3                     ; 0x20f3 <f256main+0x17df>
    2038: b1 12        	lda	($12),y                 ; 0x2012 <f256main+0x16fe>
    203a: 85 f4        	sta	$f4                     ; 0x20f4 <f256main+0x17e0>
    203c: c8           	iny
    203d: b1 12        	lda	($12),y                 ; 0x2012 <f256main+0x16fe>
    203f: 85 f5        	sta	$f5                     ; 0x20f5 <f256main+0x17e1>
    2041: 18           	clc
    2042: a5 10        	lda	$10                     ; 0x2010 <f256main+0x16fc>
    2044: 69 21        	adc	#$21
    2046: 85 12        	sta	$12                     ; 0x2012 <f256main+0x16fe>
    2048: a5 11        	lda	$11                     ; 0x2011 <f256main+0x16fd>
    204a: 69 00        	adc	#$0
    204c: 85 13        	sta	$13                     ; 0x2013 <f256main+0x16ff>
    204e: 20 f0 ff     	jsr	$fff0 <__heap_start+0x79aa>
    2051: 92 12        	sta	($12)                   ; 0x2012 <f256main+0x16fe>
    2053: a9 00        	lda	#$0
    2055: 6a           	ror
    2056: 85 2e        	sta	$2e                     ; 0x202e <f256main+0x171a>
    2058: 4c f5 0e     	jmp	$ef5 <f256main+0x5e1>
    205b: a6 6a        	ldx	$6a                     ; 0x206a <f256main+0x1756>
    205d: a4 6b        	ldy	$6b                     ; 0x206b <f256main+0x1757>
    205f: 86 2c        	stx	$2c                     ; 0x202c <f256main+0x1718>
    2061: 84 2d        	sty	$2d                     ; 0x202d <f256main+0x1719>
    2063: a0 06        	ldy	#$6
    2065: b1 2c        	lda	($2c),y                 ; 0x202c <f256main+0x1718>
    2067: f0 03        	beq	$206c <f256main+0x1758>
    2069: 4c d1 20     	jmp	$20d1 <f256main+0x17bd>
    206c: b2 2c        	lda	($2c)                   ; 0x202c <f256main+0x1718>
    206e: a2 a1        	ldx	#$a1
    2070: 86 12        	stx	$12                     ; 0x2012 <f256main+0x16fe>
    2072: a2 dd        	ldx	#$dd
    2074: 86 13        	stx	$13                     ; 0x2013 <f256main+0x16ff>
    2076: aa           	tax
    2077: f0 08        	beq	$2081 <f256main+0x176d>
    2079: a2 b1        	ldx	#$b1
    207b: 86 12        	stx	$12                     ; 0x2012 <f256main+0x16fe>
    207d: a2 dd        	ldx	#$dd
    207f: 86 13        	stx	$13                     ; 0x2013 <f256main+0x16ff>
    2081: a9 b0        	lda	#$b0
    2083: 92 12        	sta	($12)                   ; 0x2012 <f256main+0x16fe>
    2085: a9 7b        	lda	#$7b
    2087: 92 12        	sta	($12)                   ; 0x2012 <f256main+0x16fe>
    2089: a9 00        	lda	#$0
    208b: 92 12        	sta	($12)                   ; 0x2012 <f256main+0x16fe>
    208d: b2 2c        	lda	($2c)                   ; 0x202c <f256main+0x1718>
    208f: a2 a1        	ldx	#$a1
    2091: 86 12        	stx	$12                     ; 0x2012 <f256main+0x16fe>
    2093: a2 dd        	ldx	#$dd
    2095: 86 13        	stx	$13                     ; 0x2013 <f256main+0x16ff>
    2097: aa           	tax
    2098: f0 08        	beq	$20a2 <f256main+0x178e>
    209a: a2 b1        	ldx	#$b1
    209c: 86 12        	stx	$12                     ; 0x2012 <f256main+0x16fe>
    209e: a2 dd        	ldx	#$dd
    20a0: 86 13        	stx	$13                     ; 0x2013 <f256main+0x16ff>
    20a2: a9 b1        	lda	#$b1
    20a4: 92 12        	sta	($12)                   ; 0x2012 <f256main+0x16fe>
    20a6: a9 7b        	lda	#$7b
    20a8: 92 12        	sta	($12)                   ; 0x2012 <f256main+0x16fe>
    20aa: a9 00        	lda	#$0
    20ac: 92 12        	sta	($12)                   ; 0x2012 <f256main+0x16fe>
    20ae: b2 2c        	lda	($2c)                   ; 0x202c <f256main+0x1718>
    20b0: a2 a1        	ldx	#$a1
    20b2: 86 12        	stx	$12                     ; 0x2012 <f256main+0x16fe>
    20b4: a2 dd        	ldx	#$dd
    20b6: 86 13        	stx	$13                     ; 0x2013 <f256main+0x16ff>
    20b8: aa           	tax
    20b9: f0 08        	beq	$20c3 <f256main+0x17af>
    20bb: a2 b1        	ldx	#$b1
    20bd: 86 12        	stx	$12                     ; 0x2012 <f256main+0x16fe>
    20bf: a2 dd        	ldx	#$dd
    20c1: 86 13        	stx	$13                     ; 0x2013 <f256main+0x16ff>
    20c3: a9 b9        	lda	#$b9
    20c5: 92 12        	sta	($12)                   ; 0x2012 <f256main+0x16fe>
    20c7: a9 7b        	lda	#$7b
    20c9: 92 12        	sta	($12)                   ; 0x2012 <f256main+0x16fe>
    20cb: a9 00        	lda	#$0
    20cd: 92 12        	sta	($12)                   ; 0x2012 <f256main+0x16fe>
    20cf: b1 2c        	lda	($2c),y                 ; 0x202c <f256main+0x1718>
    20d1: c9 01        	cmp	#$1
    20d3: d0 32        	bne	$2107 <f256main+0x17f3>
    20d5: ad 04 d4     	lda	$d404                   ; 0xd404 <__heap_start+0x4dbe>
    20d8: 29 fe        	and	#$fe
    20da: 8d 04 d4     	sta	$d404                   ; 0xd404 <__heap_start+0x4dbe>
    20dd: ad 0b d4     	lda	$d40b                   ; 0xd40b <__heap_start+0x4dc5>
    20e0: 29 fe        	and	#$fe
    20e2: 8d 0b d4     	sta	$d40b                   ; 0xd40b <__heap_start+0x4dc5>
    20e5: ad 12 d4     	lda	$d412                   ; 0xd412 <__heap_start+0x4dcc>
    20e8: 29 fe        	and	#$fe
    20ea: 8d 12 d4     	sta	$d412                   ; 0xd412 <__heap_start+0x4dcc>
    20ed: ad 04 d5     	lda	$d504                   ; 0xd504 <__heap_start+0x4ebe>
    20f0: 29 fe        	and	#$fe
    20f2: 8d 04 d5     	sta	$d504                   ; 0xd504 <__heap_start+0x4ebe>
    20f5: ad 0b d5     	lda	$d50b                   ; 0xd50b <__heap_start+0x4ec5>
    20f8: 29 fe        	and	#$fe
    20fa: 8d 0b d5     	sta	$d50b                   ; 0xd50b <__heap_start+0x4ec5>
    20fd: ad 12 d5     	lda	$d512                   ; 0xd512 <__heap_start+0x4ecc>
    2100: 29 fe        	and	#$fe
    2102: 8d 12 d5     	sta	$d512                   ; 0xd512 <__heap_start+0x4ecc>
    2105: b1 2c        	lda	($2c),y                 ; 0x202c <f256main+0x1718>
    2107: a0 02        	ldy	#$2
    2109: c9 03        	cmp	#$3
    210b: d0 0d        	bne	$211a <f256main+0x1806>
    210d: a2 b0        	ldx	#$b0
    210f: 8e 80 d5     	stx	$d580                   ; 0xd580 <__heap_start+0x4f3a>
    2112: 9c 81 d5     	stz	$d581                   ; 0xd581 <__heap_start+0x4f3b>
    2115: e8           	inx
    2116: e0 b9        	cpx	#$b9
    2118: d0 f5        	bne	$210f <f256main+0x17fb>
    211a: 84 01        	sty	$1                      ; 0x2001 <f256main+0x16ed>
    211c: a2 c0        	ldx	#$c0
    211e: a0 00        	ldy	#$0
    2120: a9 20        	lda	#$20
    2122: 84 12        	sty	$12                     ; 0x2012 <f256main+0x16fe>
    2124: 86 13        	stx	$13                     ; 0x2013 <f256main+0x16ff>
    2126: 92 12        	sta	($12)                   ; 0x2012 <f256main+0x16fe>
    2128: c8           	iny
    2129: d0 01        	bne	$212c <f256main+0x1818>
    212b: e8           	inx
    212c: e0 d2        	cpx	#$d2
    212e: d0 f2        	bne	$2122 <f256main+0x180e>
    2130: c0 c0        	cpy	#$c0
    2132: d0 ee        	bne	$2122 <f256main+0x180e>
    2134: 64 01        	stz	$1                      ; 0x2001 <f256main+0x16ed>
    2136: a2 90        	ldx	#$90
    2138: 86 30        	stx	$30                     ; 0x2030 <f256main+0x171c>
    213a: a0 06        	ldy	#$6
    213c: b1 2c        	lda	($2c),y                 ; 0x202c <f256main+0x1718>
    213e: a2 02        	ldx	#$2
    2140: c9 00        	cmp	#$0
    2142: f0 03        	beq	$2147 <f256main+0x1833>
    2144: 4c 07 23     	jmp	$2307 <f256main+0x19f3>
    2147: a5 28        	lda	$28                     ; 0x2028 <f256main+0x1714>
    2149: 91 10        	sta	($10),y                 ; 0x2010 <f256main+0x16fc>
    214b: a5 29        	lda	$29                     ; 0x2029 <f256main+0x1715>
    214d: a0 07        	ldy	#$7
    214f: 91 10        	sta	($10),y                 ; 0x2010 <f256main+0x16fc>
    2151: 64 2b        	stz	$2b                     ; 0x202b <f256main+0x1717>
    2153: 64 33        	stz	$33                     ; 0x2033 <f256main+0x171f>
    2155: 9c 14 d0     	stz	$d014                   ; 0xd014 <__heap_start+0x49ce>
    2158: 9c 15 d0     	stz	$d015                   ; 0xd015 <__heap_start+0x49cf>
    215b: 64 34        	stz	$34                     ; 0x2034 <f256main+0x1720>
    215d: 9c 16 d0     	stz	$d016                   ; 0xd016 <__heap_start+0x49d0>
    2160: 9c 17 d0     	stz	$d017                   ; 0xd017 <__heap_start+0x49d1>
    2163: a2 28        	ldx	#$28
    2165: 86 12        	stx	$12                     ; 0x2012 <f256main+0x16fe>
    2167: a2 79        	ldx	#$79
    2169: 86 13        	stx	$13                     ; 0x2013 <f256main+0x16ff>
    216b: 20 9c 2f     	jsr	$2f9c <textPrint>
    216e: a0 05        	ldy	#$5
    2170: b1 2c        	lda	($2c),y                 ; 0x202c <f256main+0x1718>
    2172: 92 10        	sta	($10)                   ; 0x2010 <f256main+0x16fc>
    2174: a9 00        	lda	#$0
    2176: a0 01        	ldy	#$1
    2178: 91 10        	sta	($10),y                 ; 0x2010 <f256main+0x16fc>
    217a: a2 8c        	ldx	#$8c
    217c: 86 12        	stx	$12                     ; 0x2012 <f256main+0x16fe>
    217e: a2 7d        	ldx	#$7d
    2180: 86 13        	stx	$13                     ; 0x2013 <f256main+0x16ff>
    2182: 20 53 52     	jsr	$5253 <printf>
    2185: a2 17        	ldx	#$17
    2187: 86 12        	stx	$12                     ; 0x2012 <f256main+0x16fe>
    2189: a2 77        	ldx	#$77
    218b: 86 13        	stx	$13                     ; 0x2013 <f256main+0x16ff>
    218d: 20 9c 2f     	jsr	$2f9c <textPrint>
    2190: a2 50        	ldx	#$50
    2192: 86 30        	stx	$30                     ; 0x2030 <f256main+0x171c>
    2194: a2 82        	ldx	#$82
    2196: 8a           	txa
    2197: a0 0d        	ldy	#$d
    2199: 91 10        	sta	($10),y                 ; 0x2010 <f256main+0x16fc>
    219b: a2 01        	ldx	#$1
    219d: 8a           	txa
    219e: a0 0a        	ldy	#$a
    21a0: 91 10        	sta	($10),y                 ; 0x2010 <f256main+0x16fc>
    21a2: a2 5d        	ldx	#$5d
    21a4: 86 12        	stx	$12                     ; 0x2012 <f256main+0x16fe>
    21a6: a2 76        	ldx	#$76
    21a8: 86 13        	stx	$13                     ; 0x2013 <f256main+0x16ff>
    21aa: a5 12        	lda	$12                     ; 0x2012 <f256main+0x16fe>
    21ac: c8           	iny
    21ad: 91 10        	sta	($10),y                 ; 0x2010 <f256main+0x16fc>
    21af: a5 13        	lda	$13                     ; 0x2013 <f256main+0x16ff>
    21b1: c8           	iny
    21b2: 4c 29 22     	jmp	$2229 <f256main+0x1915>
    21b5: b1 10        	lda	($10),y                 ; 0x2010 <f256main+0x16fc>
    21b7: 85 28        	sta	$28                     ; 0x2028 <f256main+0x1714>
    21b9: 49 80        	eor	#$80
    21bb: a2 34        	ldx	#$34
    21bd: 86 33        	stx	$33                     ; 0x2033 <f256main+0x171f>
    21bf: 8e 14 d0     	stx	$d014                   ; 0xd014 <__heap_start+0x49ce>
    21c2: 9c 15 d0     	stz	$d015                   ; 0xd015 <__heap_start+0x49cf>
    21c5: 48           	pha
    21c6: a0 0a        	ldy	#$a
    21c8: b1 10        	lda	($10),y                 ; 0x2010 <f256main+0x16fc>
    21ca: aa           	tax
    21cb: 68           	pla
    21cc: 86 34        	stx	$34                     ; 0x2034 <f256main+0x1720>
    21ce: 8e 16 d0     	stx	$d016                   ; 0xd016 <__heap_start+0x49d0>
    21d1: 86 29        	stx	$29                     ; 0x2029 <f256main+0x1715>
    21d3: 9c 17 d0     	stz	$d017                   ; 0xd017 <__heap_start+0x49d1>
    21d6: a6 2b        	ldx	$2b                     ; 0x202b <f256main+0x1717>
    21d8: bc 0b 85     	ldy	$850b,x                 ; 0x850b <midi_instruments+0x4>
    21db: 84 14        	sty	$14                     ; 0x2014 <f256main+0x1700>
    21dd: 48           	pha
    21de: bd 0c 85     	lda	$850c,x                 ; 0x850c <midi_instruments+0x5>
    21e1: aa           	tax
    21e2: 68           	pla
    21e3: 86 15        	stx	$15                     ; 0x2015 <f256main+0x1701>
    21e5: a6 10        	ldx	$10                     ; 0x2010 <f256main+0x16fc>
    21e7: 92 10        	sta	($10)                   ; 0x2010 <f256main+0x16fc>
    21e9: a9 00        	lda	#$0
    21eb: a0 01        	ldy	#$1
    21ed: 91 10        	sta	($10),y                 ; 0x2010 <f256main+0x16fc>
    21ef: 18           	clc
    21f0: 8a           	txa
    21f1: 69 02        	adc	#$2
    21f3: 85 12        	sta	$12                     ; 0x2012 <f256main+0x16fe>
    21f5: a5 11        	lda	$11                     ; 0x2011 <f256main+0x16fd>
    21f7: 69 00        	adc	#$0
    21f9: 85 13        	sta	$13                     ; 0x2013 <f256main+0x16ff>
    21fb: c8           	iny
    21fc: a5 14        	lda	$14                     ; 0x2014 <f256main+0x1700>
    21fe: 91 10        	sta	($10),y                 ; 0x2010 <f256main+0x16fc>
    2200: a5 15        	lda	$15                     ; 0x2015 <f256main+0x1701>
    2202: 88           	dey
    2203: 91 12        	sta	($12),y                 ; 0x2012 <f256main+0x16fe>
    2205: a0 0b        	ldy	#$b
    2207: b1 10        	lda	($10),y                 ; 0x2010 <f256main+0x16fc>
    2209: 85 12        	sta	$12                     ; 0x2012 <f256main+0x16fe>
    220b: c8           	iny
    220c: b1 10        	lda	($10),y                 ; 0x2010 <f256main+0x16fc>
    220e: 85 13        	sta	$13                     ; 0x2013 <f256main+0x16ff>
    2210: 20 53 52     	jsr	$5253 <printf>
    2213: e6 29        	inc	$29                     ; 0x2029 <f256main+0x1715>
    2215: a5 29        	lda	$29                     ; 0x2029 <f256main+0x1715>
    2217: a0 0a        	ldy	#$a
    2219: 91 10        	sta	($10),y                 ; 0x2010 <f256main+0x16fc>
    221b: 18           	clc
    221c: a5 2b        	lda	$2b                     ; 0x202b <f256main+0x1717>
    221e: 69 06        	adc	#$6
    2220: 85 2b        	sta	$2b                     ; 0x202b <f256main+0x1717>
    2222: 18           	clc
    2223: a5 28        	lda	$28                     ; 0x2028 <f256main+0x1714>
    2225: 69 03        	adc	#$3
    2227: a0 0d        	ldy	#$d
    2229: 91 10        	sta	($10),y                 ; 0x2010 <f256main+0x16fc>
    222b: a0 0d        	ldy	#$d
    222d: b1 10        	lda	($10),y                 ; 0x2010 <f256main+0x16fc>
    222f: 85 28        	sta	$28                     ; 0x2028 <f256main+0x1714>
    2231: 18           	clc
    2232: 69 7e        	adc	#$7e
    2234: a2 02        	ldx	#$2
    2236: 86 33        	stx	$33                     ; 0x2033 <f256main+0x171f>
    2238: 8e 14 d0     	stx	$d014                   ; 0xd014 <__heap_start+0x49ce>
    223b: 9c 15 d0     	stz	$d015                   ; 0xd015 <__heap_start+0x49cf>
    223e: 48           	pha
    223f: a0 0a        	ldy	#$a
    2241: b1 10        	lda	($10),y                 ; 0x2010 <f256main+0x16fc>
    2243: aa           	tax
    2244: 68           	pla
    2245: 86 34        	stx	$34                     ; 0x2034 <f256main+0x1720>
    2247: 8e 16 d0     	stx	$d016                   ; 0xd016 <__heap_start+0x49d0>
    224a: 86 24        	stx	$24                     ; 0x2024 <f256main+0x1710>
    224c: 9c 17 d0     	stz	$d017                   ; 0xd017 <__heap_start+0x49d1>
    224f: a6 2b        	ldx	$2b                     ; 0x202b <f256main+0x1717>
    2251: bc 07 85     	ldy	$8507,x                 ; 0x8507 <midi_instruments>
    2254: 84 14        	sty	$14                     ; 0x2014 <f256main+0x1700>
    2256: bc 08 85     	ldy	$8508,x                 ; 0x8508 <midi_instruments+0x1>
    2259: 84 15        	sty	$15                     ; 0x2015 <f256main+0x1701>
    225b: 86 29        	stx	$29                     ; 0x2029 <f256main+0x1715>
    225d: a6 10        	ldx	$10                     ; 0x2010 <f256main+0x16fc>
    225f: 92 10        	sta	($10)                   ; 0x2010 <f256main+0x16fc>
    2261: a0 01        	ldy	#$1
    2263: a9 00        	lda	#$0
    2265: 91 10        	sta	($10),y                 ; 0x2010 <f256main+0x16fc>
    2267: 18           	clc
    2268: 8a           	txa
    2269: 69 02        	adc	#$2
    226b: aa           	tax
    226c: a5 11        	lda	$11                     ; 0x2011 <f256main+0x16fd>
    226e: 69 00        	adc	#$0
    2270: 86 12        	stx	$12                     ; 0x2012 <f256main+0x16fe>
    2272: 85 13        	sta	$13                     ; 0x2013 <f256main+0x16ff>
    2274: c8           	iny
    2275: a5 14        	lda	$14                     ; 0x2014 <f256main+0x1700>
    2277: 91 10        	sta	($10),y                 ; 0x2010 <f256main+0x16fc>
    2279: a5 15        	lda	$15                     ; 0x2015 <f256main+0x1701>
    227b: 88           	dey
    227c: 91 12        	sta	($12),y                 ; 0x2012 <f256main+0x16fe>
    227e: a0 0b        	ldy	#$b
    2280: b1 10        	lda	($10),y                 ; 0x2010 <f256main+0x16fc>
    2282: 85 2e        	sta	$2e                     ; 0x202e <f256main+0x171a>
    2284: c8           	iny
    2285: b1 10        	lda	($10),y                 ; 0x2010 <f256main+0x16fc>
    2287: 85 2f        	sta	$2f                     ; 0x202f <f256main+0x171b>
    2289: a6 2e        	ldx	$2e                     ; 0x202e <f256main+0x171a>
    228b: 86 12        	stx	$12                     ; 0x2012 <f256main+0x16fe>
    228d: 85 13        	sta	$13                     ; 0x2013 <f256main+0x16ff>
    228f: 20 53 52     	jsr	$5253 <printf>
    2292: a2 1b        	ldx	#$1b
    2294: 86 33        	stx	$33                     ; 0x2033 <f256main+0x171f>
    2296: 8e 14 d0     	stx	$d014                   ; 0xd014 <__heap_start+0x49ce>
    2299: 9c 15 d0     	stz	$d015                   ; 0xd015 <__heap_start+0x49cf>
    229c: a6 24        	ldx	$24                     ; 0x2024 <f256main+0x1710>
    229e: 86 34        	stx	$34                     ; 0x2034 <f256main+0x1720>
    22a0: 8e 16 d0     	stx	$d016                   ; 0xd016 <__heap_start+0x49d0>
    22a3: 9c 17 d0     	stz	$d017                   ; 0xd017 <__heap_start+0x49d1>
    22a6: a5 28        	lda	$28                     ; 0x2028 <f256main+0x1714>
    22a8: 18           	clc
    22a9: 69 7f        	adc	#$7f
    22ab: a6 29        	ldx	$29                     ; 0x2029 <f256main+0x1715>
    22ad: bc 09 85     	ldy	$8509,x                 ; 0x8509 <midi_instruments+0x2>
    22b0: 84 14        	sty	$14                     ; 0x2014 <f256main+0x1700>
    22b2: 48           	pha
    22b3: bd 0a 85     	lda	$850a,x                 ; 0x850a <midi_instruments+0x3>
    22b6: aa           	tax
    22b7: 68           	pla
    22b8: 86 15        	stx	$15                     ; 0x2015 <f256main+0x1701>
    22ba: a6 10        	ldx	$10                     ; 0x2010 <f256main+0x16fc>
    22bc: 92 10        	sta	($10)                   ; 0x2010 <f256main+0x16fc>
    22be: a0 01        	ldy	#$1
    22c0: a9 00        	lda	#$0
    22c2: 91 10        	sta	($10),y                 ; 0x2010 <f256main+0x16fc>
    22c4: 18           	clc
    22c5: 8a           	txa
    22c6: 69 02        	adc	#$2
    22c8: 85 12        	sta	$12                     ; 0x2012 <f256main+0x16fe>
    22ca: a5 11        	lda	$11                     ; 0x2011 <f256main+0x16fd>
    22cc: 69 00        	adc	#$0
    22ce: 85 13        	sta	$13                     ; 0x2013 <f256main+0x16ff>
    22d0: c8           	iny
    22d1: a5 14        	lda	$14                     ; 0x2014 <f256main+0x1700>
    22d3: 91 10        	sta	($10),y                 ; 0x2010 <f256main+0x16fc>
    22d5: a5 15        	lda	$15                     ; 0x2015 <f256main+0x1701>
    22d7: 88           	dey
    22d8: 91 12        	sta	($12),y                 ; 0x2012 <f256main+0x16fe>
    22da: a6 2e        	ldx	$2e                     ; 0x202e <f256main+0x171a>
    22dc: 86 12        	stx	$12                     ; 0x2012 <f256main+0x16fe>
    22de: a6 2f        	ldx	$2f                     ; 0x202f <f256main+0x171b>
    22e0: 86 13        	stx	$13                     ; 0x2013 <f256main+0x16ff>
    22e2: 20 53 52     	jsr	$5253 <printf>
    22e5: a0 0d        	ldy	#$d
    22e7: b1 10        	lda	($10),y                 ; 0x2010 <f256main+0x16fc>
    22e9: f0 03        	beq	$22ee <f256main+0x19da>
    22eb: 4c b5 21     	jmp	$21b5 <f256main+0x18a1>
    22ee: a0 06        	ldy	#$6
    22f0: b1 2c        	lda	($2c),y                 ; 0x202c <f256main+0x1718>
    22f2: a2 2c        	ldx	#$2c
    22f4: 48           	pha
    22f5: b1 10        	lda	($10),y                 ; 0x2010 <f256main+0x16fc>
    22f7: 85 28        	sta	$28                     ; 0x2028 <f256main+0x1714>
    22f9: c8           	iny
    22fa: b1 10        	lda	($10),y                 ; 0x2010 <f256main+0x16fc>
    22fc: 85 29        	sta	$29                     ; 0x2029 <f256main+0x1715>
    22fe: 68           	pla
    22ff: a0 41        	ldy	#$41
    2301: 84 2e        	sty	$2e                     ; 0x202e <f256main+0x171a>
    2303: a0 86        	ldy	#$86
    2305: 84 2f        	sty	$2f                     ; 0x202f <f256main+0x171b>
    2307: c9 01        	cmp	#$1
    2309: f0 03        	beq	$230e <f256main+0x19fa>
    230b: 4c bd 23     	jmp	$23bd <f256main+0x1aa9>
    230e: 64 2e        	stz	$2e                     ; 0x202e <f256main+0x171a>
    2310: 64 33        	stz	$33                     ; 0x2033 <f256main+0x171f>
    2312: 9c 14 d0     	stz	$d014                   ; 0xd014 <__heap_start+0x49ce>
    2315: 9c 15 d0     	stz	$d015                   ; 0xd015 <__heap_start+0x49cf>
    2318: 64 34        	stz	$34                     ; 0x2034 <f256main+0x1720>
    231a: 9c 16 d0     	stz	$d016                   ; 0xd016 <__heap_start+0x49d0>
    231d: 9c 17 d0     	stz	$d017                   ; 0xd017 <__heap_start+0x49d1>
    2320: a0 d2        	ldy	#$d2
    2322: 84 12        	sty	$12                     ; 0x2012 <f256main+0x16fe>
    2324: a0 7f        	ldy	#$7f
    2326: 84 13        	sty	$13                     ; 0x2013 <f256main+0x16ff>
    2328: 86 2b        	stx	$2b                     ; 0x202b <f256main+0x1717>
    232a: 20 9c 2f     	jsr	$2f9c <textPrint>
    232d: a2 50        	ldx	#$50
    232f: 86 30        	stx	$30                     ; 0x2030 <f256main+0x171c>
    2331: a2 00        	ldx	#$0
    2333: a0 5d        	ldy	#$5d
    2335: 84 12        	sty	$12                     ; 0x2012 <f256main+0x16fe>
    2337: a0 76        	ldy	#$76
    2339: 84 13        	sty	$13                     ; 0x2013 <f256main+0x16ff>
    233b: a5 12        	lda	$12                     ; 0x2012 <f256main+0x16fe>
    233d: a0 0b        	ldy	#$b
    233f: 91 10        	sta	($10),y                 ; 0x2010 <f256main+0x16fc>
    2341: a5 13        	lda	$13                     ; 0x2013 <f256main+0x16ff>
    2343: c8           	iny
    2344: 91 10        	sta	($10),y                 ; 0x2010 <f256main+0x16fc>
    2346: 86 12        	stx	$12                     ; 0x2012 <f256main+0x16fe>
    2348: 86 2f        	stx	$2f                     ; 0x202f <f256main+0x171b>
    234a: a5 2b        	lda	$2b                     ; 0x202b <f256main+0x1717>
    234c: 18           	clc
    234d: 65 12        	adc	$12                     ; 0x2012 <f256main+0x16fe>
    234f: a2 02        	ldx	#$2
    2351: 86 33        	stx	$33                     ; 0x2033 <f256main+0x171f>
    2353: 8e 14 d0     	stx	$d014                   ; 0xd014 <__heap_start+0x49ce>
    2356: 9c 15 d0     	stz	$d015                   ; 0xd015 <__heap_start+0x49cf>
    2359: 85 34        	sta	$34                     ; 0x2034 <f256main+0x1720>
    235b: 8d 16 d0     	sta	$d016                   ; 0xd016 <__heap_start+0x49d0>
    235e: 9c 17 d0     	stz	$d017                   ; 0xd017 <__heap_start+0x49d1>
    2361: a6 2e        	ldx	$2e                     ; 0x202e <f256main+0x171a>
    2363: bc 07 86     	ldy	$8607,x                 ; 0x8607 <sid_instruments_names>
    2366: 84 14        	sty	$14                     ; 0x2014 <f256main+0x1700>
    2368: bd 08 86     	lda	$8608,x                 ; 0x8608 <sid_instruments_names+0x1>
    236b: aa           	tax
    236c: 86 15        	stx	$15                     ; 0x2015 <f256main+0x1701>
    236e: a5 10        	lda	$10                     ; 0x2010 <f256main+0x16fc>
    2370: a6 11        	ldx	$11                     ; 0x2011 <f256main+0x16fd>
    2372: 18           	clc
    2373: 69 02        	adc	#$2
    2375: 85 12        	sta	$12                     ; 0x2012 <f256main+0x16fe>
    2377: 8a           	txa
    2378: 69 00        	adc	#$0
    237a: 85 13        	sta	$13                     ; 0x2013 <f256main+0x16ff>
    237c: a5 2f        	lda	$2f                     ; 0x202f <f256main+0x171b>
    237e: 92 10        	sta	($10)                   ; 0x2010 <f256main+0x16fc>
    2380: a9 00        	lda	#$0
    2382: a0 01        	ldy	#$1
    2384: 91 10        	sta	($10),y                 ; 0x2010 <f256main+0x16fc>
    2386: c8           	iny
    2387: a5 14        	lda	$14                     ; 0x2014 <f256main+0x1700>
    2389: 91 10        	sta	($10),y                 ; 0x2010 <f256main+0x16fc>
    238b: a5 15        	lda	$15                     ; 0x2015 <f256main+0x1701>
    238d: 88           	dey
    238e: 91 12        	sta	($12),y                 ; 0x2012 <f256main+0x16fe>
    2390: a0 0b        	ldy	#$b
    2392: b1 10        	lda	($10),y                 ; 0x2010 <f256main+0x16fc>
    2394: 85 12        	sta	$12                     ; 0x2012 <f256main+0x16fe>
    2396: c8           	iny
    2397: b1 10        	lda	($10),y                 ; 0x2010 <f256main+0x16fc>
    2399: 85 13        	sta	$13                     ; 0x2013 <f256main+0x16ff>
    239b: 20 53 52     	jsr	$5253 <printf>
    239e: a6 2f        	ldx	$2f                     ; 0x202f <f256main+0x171b>
    23a0: e8           	inx
    23a1: 18           	clc
    23a2: a5 2e        	lda	$2e                     ; 0x202e <f256main+0x171a>
    23a4: 69 02        	adc	#$2
    23a6: 85 2e        	sta	$2e                     ; 0x202e <f256main+0x171a>
    23a8: c9 0a        	cmp	#$a
    23aa: f0 03        	beq	$23af <f256main+0x1a9b>
    23ac: 4c 46 23     	jmp	$2346 <f256main+0x1a32>
    23af: a0 06        	ldy	#$6
    23b1: b1 2c        	lda	($2c),y                 ; 0x202c <f256main+0x1718>
    23b3: a6 2b        	ldx	$2b                     ; 0x202b <f256main+0x1717>
    23b5: a0 41        	ldy	#$41
    23b7: 84 2e        	sty	$2e                     ; 0x202e <f256main+0x171a>
    23b9: a0 86        	ldy	#$86
    23bb: 84 2f        	sty	$2f                     ; 0x202f <f256main+0x171b>
    23bd: c9 03        	cmp	#$3
    23bf: f0 03        	beq	$23c4 <f256main+0x1ab0>
    23c1: 4c 24 24     	jmp	$2424 <f256main+0x1b10>
    23c4: 64 33        	stz	$33                     ; 0x2033 <f256main+0x171f>
    23c6: 9c 14 d0     	stz	$d014                   ; 0xd014 <__heap_start+0x49ce>
    23c9: 9c 15 d0     	stz	$d015                   ; 0xd015 <__heap_start+0x49cf>
    23cc: 64 34        	stz	$34                     ; 0x2034 <f256main+0x1720>
    23ce: 9c 16 d0     	stz	$d016                   ; 0xd016 <__heap_start+0x49d0>
    23d1: 9c 17 d0     	stz	$d017                   ; 0xd017 <__heap_start+0x49d1>
    23d4: a0 39        	ldy	#$39
    23d6: 84 12        	sty	$12                     ; 0x2012 <f256main+0x16fe>
    23d8: a0 77        	ldy	#$77
    23da: 84 13        	sty	$13                     ; 0x2013 <f256main+0x16ff>
    23dc: 86 24        	stx	$24                     ; 0x2024 <f256main+0x1710>
    23de: 20 9c 2f     	jsr	$2f9c <textPrint>
    23e1: a2 50        	ldx	#$50
    23e3: 86 30        	stx	$30                     ; 0x2030 <f256main+0x171c>
    23e5: a2 02        	ldx	#$2
    23e7: 86 33        	stx	$33                     ; 0x2033 <f256main+0x171f>
    23e9: 8e 14 d0     	stx	$d014                   ; 0xd014 <__heap_start+0x49ce>
    23ec: 9c 15 d0     	stz	$d015                   ; 0xd015 <__heap_start+0x49cf>
    23ef: a6 24        	ldx	$24                     ; 0x2024 <f256main+0x1710>
    23f1: 86 34        	stx	$34                     ; 0x2034 <f256main+0x1720>
    23f3: 8e 16 d0     	stx	$d016                   ; 0xd016 <__heap_start+0x49d0>
    23f6: 9c 17 d0     	stz	$d017                   ; 0xd017 <__heap_start+0x49d1>
    23f9: a5 10        	lda	$10                     ; 0x2010 <f256main+0x16fc>
    23fb: a6 11        	ldx	$11                     ; 0x2011 <f256main+0x16fd>
    23fd: 18           	clc
    23fe: 69 02        	adc	#$2
    2400: 85 12        	sta	$12                     ; 0x2012 <f256main+0x16fe>
    2402: 8a           	txa
    2403: 69 00        	adc	#$0
    2405: 85 13        	sta	$13                     ; 0x2013 <f256main+0x16ff>
    2407: a9 00        	lda	#$0
    2409: 92 10        	sta	($10)                   ; 0x2010 <f256main+0x16fc>
    240b: a0 01        	ldy	#$1
    240d: 91 10        	sta	($10),y                 ; 0x2010 <f256main+0x16fc>
    240f: a9 5a        	lda	#$5a
    2411: c8           	iny
    2412: 91 10        	sta	($10),y                 ; 0x2010 <f256main+0x16fc>
    2414: a9 80        	lda	#$80
    2416: 88           	dey
    2417: 91 12        	sta	($12),y                 ; 0x2012 <f256main+0x16fe>
    2419: a2 5d        	ldx	#$5d
    241b: 86 12        	stx	$12                     ; 0x2012 <f256main+0x16fe>
    241d: a2 76        	ldx	#$76
    241f: 86 13        	stx	$13                     ; 0x2013 <f256main+0x16ff>
    2421: 20 53 52     	jsr	$5253 <printf>
    2424: a6 2c        	ldx	$2c                     ; 0x202c <f256main+0x1718>
    2426: 86 12        	stx	$12                     ; 0x2012 <f256main+0x16fe>
    2428: a6 2d        	ldx	$2d                     ; 0x202d <f256main+0x1719>
    242a: 86 13        	stx	$13                     ; 0x2013 <f256main+0x16ff>
    242c: a9 01        	lda	#$1
    242e: 20 c0 4d     	jsr	$4dc0 <highLightInstChoice>
    2431: 4c 6a 2a     	jmp	$2a6a <f256main+0x2156>
    2434: a5 62        	lda	$62                     ; 0x2062 <f256main+0x174e>
    2436: 29 01        	and	#$1
    2438: f0 03        	beq	$243d <f256main+0x1b29>
    243a: 4c 6a 2a     	jmp	$2a6a <f256main+0x2156>
    243d: 84 15        	sty	$15                     ; 0x2015 <f256main+0x1701>
    243f: 86 14        	stx	$14                     ; 0x2014 <f256main+0x1700>
    2441: 18           	clc
    2442: a5 16        	lda	$16                     ; 0x2016 <f256main+0x1702>
    2444: 65 14        	adc	$14                     ; 0x2014 <f256main+0x1700>
    2446: 85 14        	sta	$14                     ; 0x2014 <f256main+0x1700>
    2448: a5 17        	lda	$17                     ; 0x2017 <f256main+0x1703>
    244a: 65 15        	adc	$15                     ; 0x2015 <f256main+0x1701>
    244c: 85 15        	sta	$15                     ; 0x2015 <f256main+0x1701>
    244e: b2 14        	lda	($14)                   ; 0x2014 <f256main+0x1700>
    2450: f0 03        	beq	$2455 <f256main+0x1b41>
    2452: 4c b3 24     	jmp	$24b3 <f256main+0x1b9f>
    2455: a6 61        	ldx	$61                     ; 0x2061 <f256main+0x174d>
    2457: f0 03        	beq	$245c <f256main+0x1b48>
    2459: 4c 6a 2a     	jmp	$2a6a <f256main+0x2156>
    245c: a5 64        	lda	$64                     ; 0x2064 <f256main+0x1750>
    245e: 29 01        	and	#$1
    2460: d0 03        	bne	$2465 <f256main+0x1b51>
    2462: 4c 51 2e     	jmp	$2e51 <f256main+0x253d>
    2465: a2 09        	ldx	#$9
    2467: 64 15        	stz	$15                     ; 0x2015 <f256main+0x1701>
    2469: 86 14        	stx	$14                     ; 0x2014 <f256main+0x1700>
    246b: 4c 55 2e     	jmp	$2e55 <f256main+0x2541>
    246e: a2 66        	ldx	#$66
    2470: 86 14        	stx	$14                     ; 0x2014 <f256main+0x1700>
    2472: a2 00        	ldx	#$0
    2474: 86 15        	stx	$15                     ; 0x2015 <f256main+0x1701>
    2476: a9 00        	lda	#$0
    2478: 92 14        	sta	($14)                   ; 0x2014 <f256main+0x1700>
    247a: 20 6a 4a     	jsr	$4a6a <showMIDIChoiceText>
    247d: 4c 6a 2a     	jmp	$2a6a <f256main+0x2156>
    2480: a5 62        	lda	$62                     ; 0x2062 <f256main+0x174e>
    2482: 29 01        	and	#$1
    2484: f0 03        	beq	$2489 <f256main+0x1b75>
    2486: 4c 6a 2a     	jmp	$2a6a <f256main+0x2156>
    2489: 84 15        	sty	$15                     ; 0x2015 <f256main+0x1701>
    248b: 86 14        	stx	$14                     ; 0x2014 <f256main+0x1700>
    248d: 18           	clc
    248e: a5 16        	lda	$16                     ; 0x2016 <f256main+0x1702>
    2490: 65 14        	adc	$14                     ; 0x2014 <f256main+0x1700>
    2492: 85 14        	sta	$14                     ; 0x2014 <f256main+0x1700>
    2494: a5 17        	lda	$17                     ; 0x2017 <f256main+0x1703>
    2496: 65 15        	adc	$15                     ; 0x2015 <f256main+0x1701>
    2498: 85 15        	sta	$15                     ; 0x2015 <f256main+0x1701>
    249a: b2 14        	lda	($14)                   ; 0x2014 <f256main+0x1700>
    249c: f0 15        	beq	$24b3 <f256main+0x1b9f>
    249e: a6 61        	ldx	$61                     ; 0x2061 <f256main+0x174d>
    24a0: f0 03        	beq	$24a5 <f256main+0x1b91>
    24a2: 4c 6a 2a     	jmp	$2a6a <f256main+0x2156>
    24a5: a5 64        	lda	$64                     ; 0x2064 <f256main+0x1750>
    24a7: 29 01        	and	#$1
    24a9: d0 03        	bne	$24ae <f256main+0x1b9a>
    24ab: 4c f1 2c     	jmp	$2cf1 <f256main+0x23dd>
    24ae: a2 09        	ldx	#$9
    24b0: 4c f3 2c     	jmp	$2cf3 <f256main+0x23df>
    24b3: a2 01        	ldx	#$1
    24b5: 86 62        	stx	$62                     ; 0x2062 <f256main+0x174e>
    24b7: 4c 6a 2a     	jmp	$2a6a <f256main+0x2156>
    24ba: a0 12        	ldy	#$12
    24bc: b1 10        	lda	($10),y                 ; 0x2010 <f256main+0x16fc>
    24be: 85 25        	sta	$25                     ; 0x2025 <f256main+0x1711>
    24c0: a5 64        	lda	$64                     ; 0x2064 <f256main+0x1750>
    24c2: 29 01        	and	#$1
    24c4: d0 03        	bne	$24c9 <f256main+0x1bb5>
    24c6: 4c 33 26     	jmp	$2633 <f256main+0x1d1f>
    24c9: a2 0b        	ldx	#$b
    24cb: 48           	pha
    24cc: 8a           	txa
    24cd: 4c 38 26     	jmp	$2638 <f256main+0x1d24>
    24d0: a5 64        	lda	$64                     ; 0x2064 <f256main+0x1750>
    24d2: 29 01        	and	#$1
    24d4: a2 4c        	ldx	#$4c
    24d6: 64 12        	stz	$12                     ; 0x2012 <f256main+0x16fe>
    24d8: a8           	tay
    24d9: d0 03        	bne	$24de <f256main+0x1bca>
    24db: 4c 9f 26     	jmp	$269f <f256main+0x1d8b>
    24de: 85 16        	sta	$16                     ; 0x2016 <f256main+0x1702>
    24e0: 4c a3 26     	jmp	$26a3 <f256main+0x1d8f>
    24e3: a0 01        	ldy	#$1
    24e5: aa           	tax
    24e6: f0 03        	beq	$24eb <f256main+0x1bd7>
    24e8: 4c c9 2b     	jmp	$2bc9 <f256main+0x22b5>
    24eb: a6 12        	ldx	$12                     ; 0x2012 <f256main+0x16fe>
    24ed: 86 14        	stx	$14                     ; 0x2014 <f256main+0x1700>
    24ef: a6 13        	ldx	$13                     ; 0x2013 <f256main+0x16ff>
    24f1: 86 15        	stx	$15                     ; 0x2015 <f256main+0x1701>
    24f3: e6 14        	inc	$14                     ; 0x2014 <f256main+0x1700>
    24f5: d0 02        	bne	$24f9 <f256main+0x1be5>
    24f7: e6 15        	inc	$15                     ; 0x2015 <f256main+0x1701>
    24f9: a5 64        	lda	$64                     ; 0x2064 <f256main+0x1750>
    24fb: 29 01        	and	#$1
    24fd: d0 03        	bne	$2502 <f256main+0x1bee>
    24ff: 4c 88 2a     	jmp	$2a88 <f256main+0x2174>
    2502: a2 09        	ldx	#$9
    2504: 64 17        	stz	$17                     ; 0x2017 <f256main+0x1703>
    2506: 86 16        	stx	$16                     ; 0x2016 <f256main+0x1702>
    2508: 4c 8c 2a     	jmp	$2a8c <f256main+0x2178>
    250b: aa           	tax
    250c: f0 03        	beq	$2511 <f256main+0x1bfd>
    250e: 4c d3 2c     	jmp	$2cd3 <f256main+0x23bf>
    2511: a6 12        	ldx	$12                     ; 0x2012 <f256main+0x16fe>
    2513: 86 14        	stx	$14                     ; 0x2014 <f256main+0x1700>
    2515: a6 13        	ldx	$13                     ; 0x2013 <f256main+0x16ff>
    2517: 86 15        	stx	$15                     ; 0x2015 <f256main+0x1701>
    2519: e6 14        	inc	$14                     ; 0x2014 <f256main+0x1700>
    251b: d0 02        	bne	$251f <f256main+0x1c0b>
    251d: e6 15        	inc	$15                     ; 0x2015 <f256main+0x1701>
    251f: a5 64        	lda	$64                     ; 0x2064 <f256main+0x1750>
    2521: 29 01        	and	#$1
    2523: d0 03        	bne	$2528 <f256main+0x1c14>
    2525: 4c fd 2a     	jmp	$2afd <f256main+0x21e9>
    2528: a2 09        	ldx	#$9
    252a: 8a           	txa
    252b: 4c 01 2b     	jmp	$2b01 <f256main+0x21ed>
    252e: 64 18        	stz	$18                     ; 0x2018 <f256main+0x1704>
    2530: b2 2c        	lda	($2c)                   ; 0x202c <f256main+0x1718>
    2532: a2 a1        	ldx	#$a1
    2534: 86 12        	stx	$12                     ; 0x2012 <f256main+0x16fe>
    2536: a2 dd        	ldx	#$dd
    2538: 86 13        	stx	$13                     ; 0x2013 <f256main+0x16ff>
    253a: a2 b1        	ldx	#$b1
    253c: 86 14        	stx	$14                     ; 0x2014 <f256main+0x1700>
    253e: a2 dd        	ldx	#$dd
    2540: 86 15        	stx	$15                     ; 0x2015 <f256main+0x1701>
    2542: 48           	pha
    2543: 5a           	phy
    2544: a5 14        	lda	$14                     ; 0x2014 <f256main+0x1700>
    2546: a0 0d        	ldy	#$d
    2548: 91 10        	sta	($10),y                 ; 0x2010 <f256main+0x16fc>
    254a: a5 15        	lda	$15                     ; 0x2015 <f256main+0x1701>
    254c: c8           	iny
    254d: 91 10        	sta	($10),y                 ; 0x2010 <f256main+0x16fc>
    254f: 7a           	ply
    2550: 68           	pla
    2551: f0 0d        	beq	$2560 <f256main+0x1c4c>
    2553: 5a           	phy
    2554: a0 0d        	ldy	#$d
    2556: b1 10        	lda	($10),y                 ; 0x2010 <f256main+0x16fc>
    2558: 85 12        	sta	$12                     ; 0x2012 <f256main+0x16fe>
    255a: c8           	iny
    255b: b1 10        	lda	($10),y                 ; 0x2010 <f256main+0x16fc>
    255d: 7a           	ply
    255e: 85 13        	sta	$13                     ; 0x2013 <f256main+0x16ff>
    2560: 98           	tya
    2561: 09 c0        	ora	#$c0
    2563: 92 12        	sta	($12)                   ; 0x2012 <f256main+0x16fe>
    2565: a5 18        	lda	$18                     ; 0x2018 <f256main+0x1704>
    2567: 92 12        	sta	($12)                   ; 0x2012 <f256main+0x16fe>
    2569: a6 6a        	ldx	$6a                     ; 0x206a <f256main+0x1756>
    256b: a4 6b        	ldy	$6b                     ; 0x206b <f256main+0x1757>
    256d: 86 12        	stx	$12                     ; 0x2012 <f256main+0x16fe>
    256f: 84 13        	sty	$13                     ; 0x2013 <f256main+0x16ff>
    2571: 86 14        	stx	$14                     ; 0x2014 <f256main+0x1700>
    2573: 84 15        	sty	$15                     ; 0x2015 <f256main+0x1701>
    2575: e6 14        	inc	$14                     ; 0x2014 <f256main+0x1700>
    2577: d0 02        	bne	$257b <f256main+0x1c67>
    2579: e6 15        	inc	$15                     ; 0x2015 <f256main+0x1701>
    257b: a0 01        	ldy	#$1
    257d: b1 12        	lda	($12),y                 ; 0x2012 <f256main+0x16fe>
    257f: aa           	tax
    2580: b1 14        	lda	($14),y                 ; 0x2014 <f256main+0x1700>
    2582: 86 14        	stx	$14                     ; 0x2014 <f256main+0x1700>
    2584: 85 15        	sta	$15                     ; 0x2015 <f256main+0x1701>
    2586: a0 05        	ldy	#$5
    2588: b1 12        	lda	($12),y                 ; 0x2012 <f256main+0x16fe>
    258a: aa           	tax
    258b: a8           	tay
    258c: b1 14        	lda	($14),y                 ; 0x2014 <f256main+0x1700>
    258e: 85 16        	sta	$16                     ; 0x2016 <f256main+0x1702>
    2590: b2 12        	lda	($12)                   ; 0x2012 <f256main+0x16fe>
    2592: 48           	pha
    2593: a0 0d        	ldy	#$d
    2595: b1 10        	lda	($10),y                 ; 0x2010 <f256main+0x16fc>
    2597: 85 12        	sta	$12                     ; 0x2012 <f256main+0x16fe>
    2599: c8           	iny
    259a: b1 10        	lda	($10),y                 ; 0x2010 <f256main+0x16fc>
    259c: 85 13        	sta	$13                     ; 0x2013 <f256main+0x16ff>
    259e: 68           	pla
    259f: f0 08        	beq	$25a9 <f256main+0x1c95>
    25a1: a0 a1        	ldy	#$a1
    25a3: 84 12        	sty	$12                     ; 0x2012 <f256main+0x16fe>
    25a5: a0 dd        	ldy	#$dd
    25a7: 84 13        	sty	$13                     ; 0x2013 <f256main+0x16ff>
    25a9: 8a           	txa
    25aa: 09 c0        	ora	#$c0
    25ac: 92 12        	sta	($12)                   ; 0x2012 <f256main+0x16fe>
    25ae: a5 16        	lda	$16                     ; 0x2016 <f256main+0x1702>
    25b0: 92 12        	sta	($12)                   ; 0x2012 <f256main+0x16fe>
    25b2: 4c 6a 2a     	jmp	$2a6a <f256main+0x2156>
    25b5: 86 2b        	stx	$2b                     ; 0x202b <f256main+0x1717>
    25b7: a9 00        	lda	#$0
    25b9: 91 12        	sta	($12),y                 ; 0x2012 <f256main+0x16fe>
    25bb: a9 00        	lda	#$0
    25bd: a0 05        	ldy	#$5
    25bf: 91 12        	sta	($12),y                 ; 0x2012 <f256main+0x16fe>
    25c1: a2 90        	ldx	#$90
    25c3: 86 30        	stx	$30                     ; 0x2030 <f256main+0x171c>
    25c5: 64 33        	stz	$33                     ; 0x2033 <f256main+0x171f>
    25c7: 9c 14 d0     	stz	$d014                   ; 0xd014 <__heap_start+0x49ce>
    25ca: 9c 15 d0     	stz	$d015                   ; 0xd015 <__heap_start+0x49cf>
    25cd: a2 1e        	ldx	#$1e
    25cf: 86 34        	stx	$34                     ; 0x2034 <f256main+0x1720>
    25d1: 8e 16 d0     	stx	$d016                   ; 0xd016 <__heap_start+0x49d0>
    25d4: 9c 17 d0     	stz	$d017                   ; 0xd017 <__heap_start+0x49d1>
    25d7: a2 fa        	ldx	#$fa
    25d9: 86 35        	stx	$35                     ; 0x2035 <f256main+0x1721>
    25db: a2 35        	ldx	#$35
    25dd: 86 12        	stx	$12                     ; 0x2012 <f256main+0x16fe>
    25df: a2 00        	ldx	#$0
    25e1: 86 13        	stx	$13                     ; 0x2013 <f256main+0x16ff>
    25e3: 20 9c 2f     	jsr	$2f9c <textPrint>
    25e6: 64 33        	stz	$33                     ; 0x2033 <f256main+0x171f>
    25e8: 9c 14 d0     	stz	$d014                   ; 0xd014 <__heap_start+0x49ce>
    25eb: 9c 15 d0     	stz	$d015                   ; 0xd015 <__heap_start+0x49cf>
    25ee: a2 1f        	ldx	#$1f
    25f0: 86 34        	stx	$34                     ; 0x2034 <f256main+0x1720>
    25f2: 8e 16 d0     	stx	$d016                   ; 0xd016 <__heap_start+0x49d0>
    25f5: 9c 17 d0     	stz	$d017                   ; 0xd017 <__heap_start+0x49d1>
    25f8: a2 bd        	ldx	#$bd
    25fa: 86 12        	stx	$12                     ; 0x2012 <f256main+0x16fe>
    25fc: a2 76        	ldx	#$76
    25fe: 86 13        	stx	$13                     ; 0x2013 <f256main+0x16ff>
    2600: a5 2b        	lda	$2b                     ; 0x202b <f256main+0x1717>
    2602: f0 0c        	beq	$2610 <f256main+0x1cfc>
    2604: a2 fa        	ldx	#$fa
    2606: 86 35        	stx	$35                     ; 0x2035 <f256main+0x1721>
    2608: a2 35        	ldx	#$35
    260a: 86 12        	stx	$12                     ; 0x2012 <f256main+0x16fe>
    260c: a2 00        	ldx	#$0
    260e: 86 13        	stx	$13                     ; 0x2013 <f256main+0x16ff>
    2610: 20 9c 2f     	jsr	$2f9c <textPrint>
    2613: 64 33        	stz	$33                     ; 0x2033 <f256main+0x171f>
    2615: 9c 14 d0     	stz	$d014                   ; 0xd014 <__heap_start+0x49ce>
    2618: 9c 15 d0     	stz	$d015                   ; 0xd015 <__heap_start+0x49cf>
    261b: a2 20        	ldx	#$20
    261d: 86 34        	stx	$34                     ; 0x2034 <f256main+0x1720>
    261f: 8e 16 d0     	stx	$d016                   ; 0xd016 <__heap_start+0x49d0>
    2622: 9c 17 d0     	stz	$d017                   ; 0xd017 <__heap_start+0x49d1>
    2625: a2 bd        	ldx	#$bd
    2627: 86 12        	stx	$12                     ; 0x2012 <f256main+0x16fe>
    2629: a2 76        	ldx	#$76
    262b: 86 13        	stx	$13                     ; 0x2013 <f256main+0x16ff>
    262d: 20 9c 2f     	jsr	$2f9c <textPrint>
    2630: 4c 03 27     	jmp	$2703 <f256main+0x1def>
    2633: 64 12        	stz	$12                     ; 0x2012 <f256main+0x16fe>
    2635: 48           	pha
    2636: a9 00        	lda	#$0
    2638: a0 0d        	ldy	#$d
    263a: 91 10        	sta	($10),y                 ; 0x2010 <f256main+0x16fc>
    263c: 68           	pla
    263d: 64 13        	stz	$13                     ; 0x2013 <f256main+0x16ff>
    263f: a4 31        	ldy	$31                     ; 0x2031 <f256main+0x171d>
    2641: a6 32        	ldx	$32                     ; 0x2032 <f256main+0x171e>
    2643: 86 12        	stx	$12                     ; 0x2012 <f256main+0x16fe>
    2645: a2 00        	ldx	#$0
    2647: e4 12        	cpx	$12                     ; 0x2012 <f256main+0x16fe>
    2649: d0 12        	bne	$265d <f256main+0x1d49>
    264b: 84 16        	sty	$16                     ; 0x2016 <f256main+0x1702>
    264d: 84 13        	sty	$13                     ; 0x2013 <f256main+0x16ff>
    264f: 48           	pha
    2650: a0 0d        	ldy	#$d
    2652: b1 10        	lda	($10),y                 ; 0x2010 <f256main+0x16fc>
    2654: aa           	tax
    2655: 68           	pla
    2656: e4 13        	cpx	$13                     ; 0x2013 <f256main+0x16ff>
    2658: 90 0c        	bcc	$2666 <f256main+0x1d52>
    265a: 4c ab 29     	jmp	$29ab <f256main+0x2097>
    265d: 84 16        	sty	$16                     ; 0x2016 <f256main+0x1702>
    265f: e4 12        	cpx	$12                     ; 0x2012 <f256main+0x16fe>
    2661: 90 03        	bcc	$2666 <f256main+0x1d52>
    2663: 4c ab 29     	jmp	$29ab <f256main+0x2097>
    2666: 85 13        	sta	$13                     ; 0x2013 <f256main+0x16ff>
    2668: a6 6a        	ldx	$6a                     ; 0x206a <f256main+0x1756>
    266a: a4 6b        	ldy	$6b                     ; 0x206b <f256main+0x1757>
    266c: 86 14        	stx	$14                     ; 0x2014 <f256main+0x1700>
    266e: 84 15        	sty	$15                     ; 0x2015 <f256main+0x1701>
    2670: a0 06        	ldy	#$6
    2672: b1 14        	lda	($14),y                 ; 0x2014 <f256main+0x1700>
    2674: d0 03        	bne	$2679 <f256main+0x1d65>
    2676: 4c 80 29     	jmp	$2980 <f256main+0x206c>
    2679: 85 15        	sta	$15                     ; 0x2015 <f256main+0x1701>
    267b: 18           	clc
    267c: a5 16        	lda	$16                     ; 0x2016 <f256main+0x1702>
    267e: 69 15        	adc	#$15
    2680: 85 12        	sta	$12                     ; 0x2012 <f256main+0x16fe>
    2682: 64 13        	stz	$13                     ; 0x2013 <f256main+0x16ff>
    2684: 64 14        	stz	$14                     ; 0x2014 <f256main+0x1700>
    2686: 64 16        	stz	$16                     ; 0x2016 <f256main+0x1702>
    2688: 64 17        	stz	$17                     ; 0x2017 <f256main+0x1703>
    268a: a2 00        	ldx	#$0
    268c: 8a           	txa
    268d: 20 54 31     	jsr	$3154 <dispatchNote>
    2690: a6 31        	ldx	$31                     ; 0x2031 <f256main+0x171d>
    2692: 86 16        	stx	$16                     ; 0x2016 <f256main+0x1702>
    2694: a6 32        	ldx	$32                     ; 0x2032 <f256main+0x171e>
    2696: 86 14        	stx	$14                     ; 0x2014 <f256main+0x1700>
    2698: a5 64        	lda	$64                     ; 0x2064 <f256main+0x1750>
    269a: 29 01        	and	#$1
    269c: 4c 86 29     	jmp	$2986 <f256main+0x2072>
    269f: 85 16        	sta	$16                     ; 0x2016 <f256main+0x1702>
    26a1: a2 57        	ldx	#$57
    26a3: 86 13        	stx	$13                     ; 0x2013 <f256main+0x16ff>
    26a5: a6 31        	ldx	$31                     ; 0x2031 <f256main+0x171d>
    26a7: a5 32        	lda	$32                     ; 0x2032 <f256main+0x171e>
    26a9: c5 12        	cmp	$12                     ; 0x2012 <f256main+0x16fe>
    26ab: d0 0b        	bne	$26b8 <f256main+0x1da4>
    26ad: 85 15        	sta	$15                     ; 0x2015 <f256main+0x1701>
    26af: 86 14        	stx	$14                     ; 0x2014 <f256main+0x1700>
    26b1: e4 13        	cpx	$13                     ; 0x2013 <f256main+0x16ff>
    26b3: 90 0e        	bcc	$26c3 <f256main+0x1daf>
    26b5: 4c e8 29     	jmp	$29e8 <f256main+0x20d4>
    26b8: 86 14        	stx	$14                     ; 0x2014 <f256main+0x1700>
    26ba: 85 15        	sta	$15                     ; 0x2015 <f256main+0x1701>
    26bc: c5 12        	cmp	$12                     ; 0x2012 <f256main+0x16fe>
    26be: 90 03        	bcc	$26c3 <f256main+0x1daf>
    26c0: 4c e8 29     	jmp	$29e8 <f256main+0x20d4>
    26c3: a0 12        	ldy	#$12
    26c5: b1 10        	lda	($10),y                 ; 0x2010 <f256main+0x16fc>
    26c7: a6 6a        	ldx	$6a                     ; 0x206a <f256main+0x1756>
    26c9: a4 6b        	ldy	$6b                     ; 0x206b <f256main+0x1757>
    26cb: 86 12        	stx	$12                     ; 0x2012 <f256main+0x16fe>
    26cd: 84 13        	sty	$13                     ; 0x2013 <f256main+0x16ff>
    26cf: a0 06        	ldy	#$6
    26d1: b1 12        	lda	($12),y                 ; 0x2012 <f256main+0x16fe>
    26d3: aa           	tax
    26d4: d0 03        	bne	$26d9 <f256main+0x1dc5>
    26d6: 4c c5 29     	jmp	$29c5 <f256main+0x20b1>
    26d9: 18           	clc
    26da: a5 14        	lda	$14                     ; 0x2014 <f256main+0x1700>
    26dc: 69 15        	adc	#$15
    26de: 85 12        	sta	$12                     ; 0x2012 <f256main+0x16fe>
    26e0: 64 13        	stz	$13                     ; 0x2013 <f256main+0x16ff>
    26e2: 64 14        	stz	$14                     ; 0x2014 <f256main+0x1700>
    26e4: 86 15        	stx	$15                     ; 0x2015 <f256main+0x1701>
    26e6: 64 16        	stz	$16                     ; 0x2016 <f256main+0x1702>
    26e8: 64 17        	stz	$17                     ; 0x2017 <f256main+0x1703>
    26ea: a2 00        	ldx	#$0
    26ec: 8a           	txa
    26ed: 20 54 31     	jsr	$3154 <dispatchNote>
    26f0: a6 31        	ldx	$31                     ; 0x2031 <f256main+0x171d>
    26f2: 86 14        	stx	$14                     ; 0x2014 <f256main+0x1700>
    26f4: a6 32        	ldx	$32                     ; 0x2032 <f256main+0x171e>
    26f6: 86 15        	stx	$15                     ; 0x2015 <f256main+0x1701>
    26f8: a5 64        	lda	$64                     ; 0x2064 <f256main+0x1750>
    26fa: 29 01        	and	#$1
    26fc: 4c c7 29     	jmp	$29c7 <f256main+0x20b3>
    26ff: a9 09        	lda	#$9
    2701: 91 12        	sta	($12),y                 ; 0x2012 <f256main+0x16fe>
    2703: 20 da 47     	jsr	$47da <channelTextMenu>
    2706: a2 b0        	ldx	#$b0
    2708: 8e b1 dd     	stx	$ddb1                   ; 0xddb1 <__heap_start+0x576b>
    270b: a0 7b        	ldy	#$7b
    270d: 8c b1 dd     	sty	$ddb1                   ; 0xddb1 <__heap_start+0x576b>
    2710: 9c b1 dd     	stz	$ddb1                   ; 0xddb1 <__heap_start+0x576b>
    2713: 8e a1 dd     	stx	$dda1                   ; 0xdda1 <__heap_start+0x575b>
    2716: 8c a1 dd     	sty	$dda1                   ; 0xdda1 <__heap_start+0x575b>
    2719: 9c a1 dd     	stz	$dda1                   ; 0xdda1 <__heap_start+0x575b>
    271c: e8           	inx
    271d: 8e b1 dd     	stx	$ddb1                   ; 0xddb1 <__heap_start+0x576b>
    2720: 8c b1 dd     	sty	$ddb1                   ; 0xddb1 <__heap_start+0x576b>
    2723: 9c b1 dd     	stz	$ddb1                   ; 0xddb1 <__heap_start+0x576b>
    2726: 8e a1 dd     	stx	$dda1                   ; 0xdda1 <__heap_start+0x575b>
    2729: 8c a1 dd     	sty	$dda1                   ; 0xdda1 <__heap_start+0x575b>
    272c: 9c a1 dd     	stz	$dda1                   ; 0xdda1 <__heap_start+0x575b>
    272f: a2 b9        	ldx	#$b9
    2731: 8e b1 dd     	stx	$ddb1                   ; 0xddb1 <__heap_start+0x576b>
    2734: 8c b1 dd     	sty	$ddb1                   ; 0xddb1 <__heap_start+0x576b>
    2737: 9c b1 dd     	stz	$ddb1                   ; 0xddb1 <__heap_start+0x576b>
    273a: 8e a1 dd     	stx	$dda1                   ; 0xdda1 <__heap_start+0x575b>
    273d: 8c a1 dd     	sty	$dda1                   ; 0xdda1 <__heap_start+0x575b>
    2740: 9c a1 dd     	stz	$dda1                   ; 0xdda1 <__heap_start+0x575b>
    2743: 4c 6a 2a     	jmp	$2a6a <f256main+0x2156>
    2746: c0 00        	cpy	#$0
    2748: 90 03        	bcc	$274d <f256main+0x1e39>
    274a: 4c 6a 2a     	jmp	$2a6a <f256main+0x2156>
    274d: a5 17        	lda	$17                     ; 0x2017 <f256main+0x1703>
    274f: 20 91 4f     	jsr	$4f91 <modalMoveUp>
    2752: a6 6a        	ldx	$6a                     ; 0x206a <f256main+0x1756>
    2754: a4 6b        	ldy	$6b                     ; 0x206b <f256main+0x1757>
    2756: 86 12        	stx	$12                     ; 0x2012 <f256main+0x16fe>
    2758: 84 13        	sty	$13                     ; 0x2013 <f256main+0x16ff>
    275a: 86 14        	stx	$14                     ; 0x2014 <f256main+0x1700>
    275c: 84 15        	sty	$15                     ; 0x2015 <f256main+0x1701>
    275e: e6 14        	inc	$14                     ; 0x2014 <f256main+0x1700>
    2760: d0 02        	bne	$2764 <f256main+0x1e50>
    2762: e6 15        	inc	$15                     ; 0x2015 <f256main+0x1701>
    2764: a0 01        	ldy	#$1
    2766: b1 12        	lda	($12),y                 ; 0x2012 <f256main+0x16fe>
    2768: aa           	tax
    2769: b1 14        	lda	($14),y                 ; 0x2014 <f256main+0x1700>
    276b: 86 14        	stx	$14                     ; 0x2014 <f256main+0x1700>
    276d: 85 15        	sta	$15                     ; 0x2015 <f256main+0x1701>
    276f: a0 05        	ldy	#$5
    2771: b1 12        	lda	($12),y                 ; 0x2012 <f256main+0x16fe>
    2773: aa           	tax
    2774: a8           	tay
    2775: b1 14        	lda	($14),y                 ; 0x2014 <f256main+0x1700>
    2777: 85 18        	sta	$18                     ; 0x2018 <f256main+0x1704>
    2779: b2 12        	lda	($12)                   ; 0x2012 <f256main+0x16fe>
    277b: a0 a1        	ldy	#$a1
    277d: 84 12        	sty	$12                     ; 0x2012 <f256main+0x16fe>
    277f: a0 dd        	ldy	#$dd
    2781: 84 13        	sty	$13                     ; 0x2013 <f256main+0x16ff>
    2783: a0 b1        	ldy	#$b1
    2785: 84 14        	sty	$14                     ; 0x2014 <f256main+0x1700>
    2787: a0 dd        	ldy	#$dd
    2789: 84 15        	sty	$15                     ; 0x2015 <f256main+0x1701>
    278b: 48           	pha
    278c: a5 14        	lda	$14                     ; 0x2014 <f256main+0x1700>
    278e: a0 0d        	ldy	#$d
    2790: 91 10        	sta	($10),y                 ; 0x2010 <f256main+0x16fc>
    2792: a5 15        	lda	$15                     ; 0x2015 <f256main+0x1701>
    2794: c8           	iny
    2795: 91 10        	sta	($10),y                 ; 0x2010 <f256main+0x16fc>
    2797: 68           	pla
    2798: f0 0b        	beq	$27a5 <f256main+0x1e91>
    279a: a0 0d        	ldy	#$d
    279c: b1 10        	lda	($10),y                 ; 0x2010 <f256main+0x16fc>
    279e: 85 12        	sta	$12                     ; 0x2012 <f256main+0x16fe>
    27a0: c8           	iny
    27a1: b1 10        	lda	($10),y                 ; 0x2010 <f256main+0x16fc>
    27a3: 85 13        	sta	$13                     ; 0x2013 <f256main+0x16ff>
    27a5: 8a           	txa
    27a6: 09 c0        	ora	#$c0
    27a8: 92 12        	sta	($12)                   ; 0x2012 <f256main+0x16fe>
    27aa: a5 18        	lda	$18                     ; 0x2018 <f256main+0x1704>
    27ac: 92 12        	sta	($12)                   ; 0x2012 <f256main+0x16fe>
    27ae: a6 6a        	ldx	$6a                     ; 0x206a <f256main+0x1756>
    27b0: a4 6b        	ldy	$6b                     ; 0x206b <f256main+0x1757>
    27b2: 86 12        	stx	$12                     ; 0x2012 <f256main+0x16fe>
    27b4: 84 13        	sty	$13                     ; 0x2013 <f256main+0x16ff>
    27b6: 86 14        	stx	$14                     ; 0x2014 <f256main+0x1700>
    27b8: 84 15        	sty	$15                     ; 0x2015 <f256main+0x1701>
    27ba: e6 14        	inc	$14                     ; 0x2014 <f256main+0x1700>
    27bc: d0 02        	bne	$27c0 <f256main+0x1eac>
    27be: e6 15        	inc	$15                     ; 0x2015 <f256main+0x1701>
    27c0: a0 01        	ldy	#$1
    27c2: b1 12        	lda	($12),y                 ; 0x2012 <f256main+0x16fe>
    27c4: aa           	tax
    27c5: b1 14        	lda	($14),y                 ; 0x2014 <f256main+0x1700>
    27c7: 86 14        	stx	$14                     ; 0x2014 <f256main+0x1700>
    27c9: 85 15        	sta	$15                     ; 0x2015 <f256main+0x1701>
    27cb: a0 05        	ldy	#$5
    27cd: b1 12        	lda	($12),y                 ; 0x2012 <f256main+0x16fe>
    27cf: aa           	tax
    27d0: a8           	tay
    27d1: b1 14        	lda	($14),y                 ; 0x2014 <f256main+0x1700>
    27d3: 85 16        	sta	$16                     ; 0x2016 <f256main+0x1702>
    27d5: b2 12        	lda	($12)                   ; 0x2012 <f256main+0x16fe>
    27d7: 48           	pha
    27d8: a0 0d        	ldy	#$d
    27da: b1 10        	lda	($10),y                 ; 0x2010 <f256main+0x16fc>
    27dc: 85 12        	sta	$12                     ; 0x2012 <f256main+0x16fe>
    27de: c8           	iny
    27df: b1 10        	lda	($10),y                 ; 0x2010 <f256main+0x16fc>
    27e1: 85 13        	sta	$13                     ; 0x2013 <f256main+0x16ff>
    27e3: 68           	pla
    27e4: f0 08        	beq	$27ee <f256main+0x1eda>
    27e6: a0 a1        	ldy	#$a1
    27e8: 84 12        	sty	$12                     ; 0x2012 <f256main+0x16fe>
    27ea: a0 dd        	ldy	#$dd
    27ec: 84 13        	sty	$13                     ; 0x2013 <f256main+0x16ff>
    27ee: 8a           	txa
    27ef: 09 c0        	ora	#$c0
    27f1: 92 12        	sta	($12)                   ; 0x2012 <f256main+0x16fe>
    27f3: a5 16        	lda	$16                     ; 0x2016 <f256main+0x1702>
    27f5: 92 12        	sta	($12)                   ; 0x2012 <f256main+0x16fe>
    27f7: a6 6a        	ldx	$6a                     ; 0x206a <f256main+0x1756>
    27f9: a4 6b        	ldy	$6b                     ; 0x206b <f256main+0x1757>
    27fb: 86 12        	stx	$12                     ; 0x2012 <f256main+0x16fe>
    27fd: 84 13        	sty	$13                     ; 0x2013 <f256main+0x16ff>
    27ff: a0 06        	ldy	#$6
    2801: b1 12        	lda	($12),y                 ; 0x2012 <f256main+0x16fe>
    2803: c9 01        	cmp	#$1
    2805: d0 2b        	bne	$2832 <f256main+0x1f1e>
    2807: a0 03        	ldy	#$3
    2809: b1 12        	lda	($12),y                 ; 0x2012 <f256main+0x16fe>
    280b: d0 03        	bne	$2810 <f256main+0x1efc>
    280d: 4c 6a 2a     	jmp	$2a6a <f256main+0x2156>
    2810: a9 01        	lda	#$1
    2812: 25 64        	and	$64                     ; 0x2064 <f256main+0x1750>
    2814: 20 91 4f     	jsr	$4f91 <modalMoveUp>
    2817: a6 6a        	ldx	$6a                     ; 0x206a <f256main+0x1756>
    2819: a4 6b        	ldy	$6b                     ; 0x206b <f256main+0x1757>
    281b: 86 12        	stx	$12                     ; 0x2012 <f256main+0x16fe>
    281d: 84 13        	sty	$13                     ; 0x2013 <f256main+0x16ff>
    281f: a0 03        	ldy	#$3
    2821: b1 12        	lda	($12),y                 ; 0x2012 <f256main+0x16fe>
    2823: 20 9b 42     	jsr	$429b <sid_setInstrumentAllChannels>
    2826: a6 6a        	ldx	$6a                     ; 0x206a <f256main+0x1756>
    2828: a4 6b        	ldy	$6b                     ; 0x206b <f256main+0x1757>
    282a: 86 12        	stx	$12                     ; 0x2012 <f256main+0x16fe>
    282c: 84 13        	sty	$13                     ; 0x2013 <f256main+0x16ff>
    282e: a0 06        	ldy	#$6
    2830: b1 12        	lda	($12),y                 ; 0x2012 <f256main+0x16fe>
    2832: c9 03        	cmp	#$3
    2834: f0 03        	beq	$2839 <f256main+0x1f25>
    2836: 4c 6a 2a     	jmp	$2a6a <f256main+0x2156>
    2839: a0 04        	ldy	#$4
    283b: b1 12        	lda	($12),y                 ; 0x2012 <f256main+0x16fe>
    283d: d0 03        	bne	$2842 <f256main+0x1f2e>
    283f: 4c 6a 2a     	jmp	$2a6a <f256main+0x2156>
    2842: a9 01        	lda	#$1
    2844: 25 64        	and	$64                     ; 0x2064 <f256main+0x1750>
    2846: 20 91 4f     	jsr	$4f91 <modalMoveUp>
    2849: a6 6a        	ldx	$6a                     ; 0x206a <f256main+0x1756>
    284b: a4 6b        	ldy	$6b                     ; 0x206b <f256main+0x1757>
    284d: 86 12        	stx	$12                     ; 0x2012 <f256main+0x16fe>
    284f: 84 13        	sty	$13                     ; 0x2013 <f256main+0x16ff>
    2851: a0 04        	ldy	#$4
    2853: b1 12        	lda	($12),y                 ; 0x2012 <f256main+0x16fe>
    2855: a2 0b        	ldx	#$b
    2857: 86 12        	stx	$12                     ; 0x2012 <f256main+0x16fe>
    2859: 64 13        	stz	$13                     ; 0x2013 <f256main+0x16ff>
    285b: a2 00        	ldx	#$0
    285d: 20 e7 60     	jsr	$60e7 <__mulhi3>
    2860: 85 12        	sta	$12                     ; 0x2012 <f256main+0x16fe>
    2862: 86 13        	stx	$13                     ; 0x2013 <f256main+0x16ff>
    2864: a9 fc        	lda	#$fc
    2866: 18           	clc
    2867: 65 12        	adc	$12                     ; 0x2012 <f256main+0x16fe>
    2869: 85 2c        	sta	$2c                     ; 0x202c <f256main+0x1718>
    286b: a9 84        	lda	#$84
    286d: 65 13        	adc	$13                     ; 0x2013 <f256main+0x16ff>
    286f: 85 2d        	sta	$2d                     ; 0x202d <f256main+0x1719>
    2871: a0 00        	ldy	#$0
    2873: a6 2c        	ldx	$2c                     ; 0x202c <f256main+0x1718>
    2875: 86 12        	stx	$12                     ; 0x2012 <f256main+0x16fe>
    2877: a6 2d        	ldx	$2d                     ; 0x202d <f256main+0x1719>
    2879: 86 13        	stx	$13                     ; 0x2013 <f256main+0x16ff>
    287b: 84 24        	sty	$24                     ; 0x2024 <f256main+0x1710>
    287d: 98           	tya
    287e: 20 3f 41     	jsr	$413f <opl3_setInstrument>
    2881: 18           	clc
    2882: a5 24        	lda	$24                     ; 0x2024 <f256main+0x1710>
    2884: 69 c0        	adc	#$c0
    2886: 8d 80 d5     	sta	$d580                   ; 0xd580 <__heap_start+0x4f3a>
    2889: a4 24        	ldy	$24                     ; 0x2024 <f256main+0x1710>
    288b: a2 30        	ldx	#$30
    288d: 8e 81 d5     	stx	$d581                   ; 0xd581 <__heap_start+0x4f3b>
    2890: c8           	iny
    2891: c0 09        	cpy	#$9
    2893: d0 de        	bne	$2873 <f256main+0x1f5f>
    2895: 4c 6a 2a     	jmp	$2a6a <f256main+0x2156>
    2898: e4 17        	cpx	$17                     ; 0x2017 <f256main+0x1703>
    289a: 90 03        	bcc	$289f <f256main+0x1f8b>
    289c: 4c 6a 2a     	jmp	$2a6a <f256main+0x2156>
    289f: a5 18        	lda	$18                     ; 0x2018 <f256main+0x1704>
    28a1: 20 fc 4f     	jsr	$4ffc <modalMoveDown>
    28a4: a6 6a        	ldx	$6a                     ; 0x206a <f256main+0x1756>
    28a6: a4 6b        	ldy	$6b                     ; 0x206b <f256main+0x1757>
    28a8: 86 12        	stx	$12                     ; 0x2012 <f256main+0x16fe>
    28aa: 84 13        	sty	$13                     ; 0x2013 <f256main+0x16ff>
    28ac: 86 14        	stx	$14                     ; 0x2014 <f256main+0x1700>
    28ae: 84 15        	sty	$15                     ; 0x2015 <f256main+0x1701>
    28b0: e6 14        	inc	$14                     ; 0x2014 <f256main+0x1700>
    28b2: d0 02        	bne	$28b6 <f256main+0x1fa2>
    28b4: e6 15        	inc	$15                     ; 0x2015 <f256main+0x1701>
    28b6: a0 01        	ldy	#$1
    28b8: b1 12        	lda	($12),y                 ; 0x2012 <f256main+0x16fe>
    28ba: aa           	tax
    28bb: b1 14        	lda	($14),y                 ; 0x2014 <f256main+0x1700>
    28bd: 86 14        	stx	$14                     ; 0x2014 <f256main+0x1700>
    28bf: 85 15        	sta	$15                     ; 0x2015 <f256main+0x1701>
    28c1: a0 05        	ldy	#$5
    28c3: b1 12        	lda	($12),y                 ; 0x2012 <f256main+0x16fe>
    28c5: aa           	tax
    28c6: a8           	tay
    28c7: b1 14        	lda	($14),y                 ; 0x2014 <f256main+0x1700>
    28c9: 85 18        	sta	$18                     ; 0x2018 <f256main+0x1704>
    28cb: b2 12        	lda	($12)                   ; 0x2012 <f256main+0x16fe>
    28cd: a0 a1        	ldy	#$a1
    28cf: 84 12        	sty	$12                     ; 0x2012 <f256main+0x16fe>
    28d1: a0 dd        	ldy	#$dd
    28d3: 84 13        	sty	$13                     ; 0x2013 <f256main+0x16ff>
    28d5: a0 b1        	ldy	#$b1
    28d7: 84 14        	sty	$14                     ; 0x2014 <f256main+0x1700>
    28d9: a0 dd        	ldy	#$dd
    28db: 84 15        	sty	$15                     ; 0x2015 <f256main+0x1701>
    28dd: 48           	pha
    28de: a5 14        	lda	$14                     ; 0x2014 <f256main+0x1700>
    28e0: a0 0d        	ldy	#$d
    28e2: 91 10        	sta	($10),y                 ; 0x2010 <f256main+0x16fc>
    28e4: a5 15        	lda	$15                     ; 0x2015 <f256main+0x1701>
    28e6: c8           	iny
    28e7: 91 10        	sta	($10),y                 ; 0x2010 <f256main+0x16fc>
    28e9: 68           	pla
    28ea: f0 0b        	beq	$28f7 <f256main+0x1fe3>
    28ec: a0 0d        	ldy	#$d
    28ee: b1 10        	lda	($10),y                 ; 0x2010 <f256main+0x16fc>
    28f0: 85 12        	sta	$12                     ; 0x2012 <f256main+0x16fe>
    28f2: c8           	iny
    28f3: b1 10        	lda	($10),y                 ; 0x2010 <f256main+0x16fc>
    28f5: 85 13        	sta	$13                     ; 0x2013 <f256main+0x16ff>
    28f7: 8a           	txa
    28f8: 09 c0        	ora	#$c0
    28fa: 92 12        	sta	($12)                   ; 0x2012 <f256main+0x16fe>
    28fc: a5 18        	lda	$18                     ; 0x2018 <f256main+0x1704>
    28fe: 92 12        	sta	($12)                   ; 0x2012 <f256main+0x16fe>
    2900: a6 6a        	ldx	$6a                     ; 0x206a <f256main+0x1756>
    2902: a4 6b        	ldy	$6b                     ; 0x206b <f256main+0x1757>
    2904: 86 12        	stx	$12                     ; 0x2012 <f256main+0x16fe>
    2906: 84 13        	sty	$13                     ; 0x2013 <f256main+0x16ff>
    2908: 86 14        	stx	$14                     ; 0x2014 <f256main+0x1700>
    290a: 84 15        	sty	$15                     ; 0x2015 <f256main+0x1701>
    290c: e6 14        	inc	$14                     ; 0x2014 <f256main+0x1700>
    290e: d0 02        	bne	$2912 <f256main+0x1ffe>
    2910: e6 15        	inc	$15                     ; 0x2015 <f256main+0x1701>
    2912: a0 01        	ldy	#$1
    2914: b1 12        	lda	($12),y                 ; 0x2012 <f256main+0x16fe>
    2916: aa           	tax
    2917: b1 14        	lda	($14),y                 ; 0x2014 <f256main+0x1700>
    2919: 86 14        	stx	$14                     ; 0x2014 <f256main+0x1700>
    291b: 85 15        	sta	$15                     ; 0x2015 <f256main+0x1701>
    291d: a0 05        	ldy	#$5
    291f: b1 12        	lda	($12),y                 ; 0x2012 <f256main+0x16fe>
    2921: aa           	tax
    2922: a8           	tay
    2923: b1 14        	lda	($14),y                 ; 0x2014 <f256main+0x1700>
    2925: 85 16        	sta	$16                     ; 0x2016 <f256main+0x1702>
    2927: b2 12        	lda	($12)                   ; 0x2012 <f256main+0x16fe>
    2929: 48           	pha
    292a: a0 0d        	ldy	#$d
    292c: b1 10        	lda	($10),y                 ; 0x2010 <f256main+0x16fc>
    292e: 85 12        	sta	$12                     ; 0x2012 <f256main+0x16fe>
    2930: c8           	iny
    2931: b1 10        	lda	($10),y                 ; 0x2010 <f256main+0x16fc>
    2933: 85 13        	sta	$13                     ; 0x2013 <f256main+0x16ff>
    2935: 68           	pla
    2936: f0 08        	beq	$2940 <f256main+0x202c>
    2938: a0 a1        	ldy	#$a1
    293a: 84 12        	sty	$12                     ; 0x2012 <f256main+0x16fe>
    293c: a0 dd        	ldy	#$dd
    293e: 84 13        	sty	$13                     ; 0x2013 <f256main+0x16ff>
    2940: 8a           	txa
    2941: 09 c0        	ora	#$c0
    2943: 92 12        	sta	($12)                   ; 0x2012 <f256main+0x16fe>
    2945: a5 16        	lda	$16                     ; 0x2016 <f256main+0x1702>
    2947: 92 12        	sta	($12)                   ; 0x2012 <f256main+0x16fe>
    2949: a6 6a        	ldx	$6a                     ; 0x206a <f256main+0x1756>
    294b: a4 6b        	ldy	$6b                     ; 0x206b <f256main+0x1757>
    294d: 86 12        	stx	$12                     ; 0x2012 <f256main+0x16fe>
    294f: 84 13        	sty	$13                     ; 0x2013 <f256main+0x16ff>
    2951: a0 06        	ldy	#$6
    2953: b1 12        	lda	($12),y                 ; 0x2012 <f256main+0x16fe>
    2955: c9 01        	cmp	#$1
    2957: f0 03        	beq	$295c <f256main+0x2048>
    2959: 4c 6a 2a     	jmp	$2a6a <f256main+0x2156>
    295c: a0 03        	ldy	#$3
    295e: b1 12        	lda	($12),y                 ; 0x2012 <f256main+0x16fe>
    2960: c9 04        	cmp	#$4
    2962: 90 03        	bcc	$2967 <f256main+0x2053>
    2964: 4c 6a 2a     	jmp	$2a6a <f256main+0x2156>
    2967: a9 01        	lda	#$1
    2969: 25 64        	and	$64                     ; 0x2064 <f256main+0x1750>
    296b: 20 fc 4f     	jsr	$4ffc <modalMoveDown>
    296e: a6 6a        	ldx	$6a                     ; 0x206a <f256main+0x1756>
    2970: a4 6b        	ldy	$6b                     ; 0x206b <f256main+0x1757>
    2972: 86 12        	stx	$12                     ; 0x2012 <f256main+0x16fe>
    2974: 84 13        	sty	$13                     ; 0x2013 <f256main+0x16ff>
    2976: a0 03        	ldy	#$3
    2978: b1 12        	lda	($12),y                 ; 0x2012 <f256main+0x16fe>
    297a: 20 9b 42     	jsr	$429b <sid_setInstrumentAllChannels>
    297d: 4c 6a 2a     	jmp	$2a6a <f256main+0x2156>
    2980: a6 12        	ldx	$12                     ; 0x2012 <f256main+0x16fe>
    2982: 86 14        	stx	$14                     ; 0x2014 <f256main+0x1700>
    2984: a5 13        	lda	$13                     ; 0x2013 <f256main+0x16ff>
    2986: aa           	tax
    2987: f0 0a        	beq	$2993 <f256main+0x207f>
    2989: a2 f5        	ldx	#$f5
    298b: a0 ff        	ldy	#$ff
    298d: 86 12        	stx	$12                     ; 0x2012 <f256main+0x16fe>
    298f: 84 13        	sty	$13                     ; 0x2013 <f256main+0x16ff>
    2991: 80 04        	bra	$2997 <f256main+0x2083>
    2993: 64 12        	stz	$12                     ; 0x2012 <f256main+0x16fe>
    2995: 64 13        	stz	$13                     ; 0x2013 <f256main+0x16ff>
    2997: 18           	clc
    2998: a5 16        	lda	$16                     ; 0x2016 <f256main+0x1702>
    299a: 65 12        	adc	$12                     ; 0x2012 <f256main+0x16fe>
    299c: a8           	tay
    299d: a5 14        	lda	$14                     ; 0x2014 <f256main+0x1700>
    299f: 65 13        	adc	$13                     ; 0x2013 <f256main+0x16ff>
    29a1: 88           	dey
    29a2: c0 ff        	cpy	#$ff
    29a4: d0 01        	bne	$29a7 <f256main+0x2093>
    29a6: 3a           	dec
    29a7: 84 31        	sty	$31                     ; 0x2031 <f256main+0x171d>
    29a9: 85 32        	sta	$32                     ; 0x2032 <f256main+0x171e>
    29ab: a5 63        	lda	$63                     ; 0x2063 <f256main+0x174f>
    29ad: 29 01        	and	#$1
    29af: f0 04        	beq	$29b5 <f256main+0x20a1>
    29b1: 64 31        	stz	$31                     ; 0x2031 <f256main+0x171d>
    29b3: 64 32        	stz	$32                     ; 0x2032 <f256main+0x171e>
    29b5: 18           	clc
    29b6: a9 61        	lda	#$61
    29b8: 65 81        	adc	$81                     ; 0x2081 <f256main+0x176d>
    29ba: a6 01        	ldx	$1                      ; 0x2001 <f256main+0x16ed>
    29bc: a0 01        	ldy	#$1
    29be: 84 01        	sty	$1                      ; 0x2001 <f256main+0x16ed>
    29c0: 0a           	asl
    29c1: 64 12        	stz	$12                     ; 0x2012 <f256main+0x16fe>
    29c3: 80 41        	bra	$2a06 <f256main+0x20f2>
    29c5: a5 16        	lda	$16                     ; 0x2016 <f256main+0x1702>
    29c7: aa           	tax
    29c8: f0 08        	beq	$29d2 <f256main+0x20be>
    29ca: a2 0b        	ldx	#$b
    29cc: 64 12        	stz	$12                     ; 0x2012 <f256main+0x16fe>
    29ce: 86 13        	stx	$13                     ; 0x2013 <f256main+0x16ff>
    29d0: 80 04        	bra	$29d6 <f256main+0x20c2>
    29d2: 64 13        	stz	$13                     ; 0x2013 <f256main+0x16ff>
    29d4: 64 12        	stz	$12                     ; 0x2012 <f256main+0x16fe>
    29d6: 18           	clc
    29d7: a5 14        	lda	$14                     ; 0x2014 <f256main+0x1700>
    29d9: 65 13        	adc	$13                     ; 0x2013 <f256main+0x16ff>
    29db: aa           	tax
    29dc: a5 15        	lda	$15                     ; 0x2015 <f256main+0x1701>
    29de: 65 12        	adc	$12                     ; 0x2012 <f256main+0x16fe>
    29e0: e8           	inx
    29e1: d0 01        	bne	$29e4 <f256main+0x20d0>
    29e3: 1a           	inc
    29e4: 86 31        	stx	$31                     ; 0x2031 <f256main+0x171d>
    29e6: 85 32        	sta	$32                     ; 0x2032 <f256main+0x171e>
    29e8: a0 12        	ldy	#$12
    29ea: b1 10        	lda	($10),y                 ; 0x2010 <f256main+0x16fc>
    29ec: 85 25        	sta	$25                     ; 0x2025 <f256main+0x1711>
    29ee: a5 63        	lda	$63                     ; 0x2063 <f256main+0x174f>
    29f0: 29 01        	and	#$1
    29f2: f0 06        	beq	$29fa <f256main+0x20e6>
    29f4: a2 57        	ldx	#$57
    29f6: 86 31        	stx	$31                     ; 0x2031 <f256main+0x171d>
    29f8: 64 32        	stz	$32                     ; 0x2032 <f256main+0x171e>
    29fa: 18           	clc
    29fb: a9 61        	lda	#$61
    29fd: 65 81        	adc	$81                     ; 0x2081 <f256main+0x176d>
    29ff: a6 01        	ldx	$1                      ; 0x2001 <f256main+0x16ed>
    2a01: a0 01        	ldy	#$1
    2a03: 84 01        	sty	$1                      ; 0x2001 <f256main+0x16ed>
    2a05: 0a           	asl
    2a06: 26 12        	rol	$12                     ; 0x2012 <f256main+0x16fe>
    2a08: 0a           	asl
    2a09: 85 13        	sta	$13                     ; 0x2013 <f256main+0x16ff>
    2a0b: 26 12        	rol	$12                     ; 0x2012 <f256main+0x16fe>
    2a0d: a9 00        	lda	#$0
    2a0f: 18           	clc
    2a10: 65 13        	adc	$13                     ; 0x2013 <f256main+0x16ff>
    2a12: 85 13        	sta	$13                     ; 0x2013 <f256main+0x16ff>
    2a14: a9 d0        	lda	#$d0
    2a16: 65 12        	adc	$12                     ; 0x2012 <f256main+0x16fe>
    2a18: 5a           	phy
    2a19: a4 13        	ldy	$13                     ; 0x2013 <f256main+0x16ff>
    2a1b: 84 12        	sty	$12                     ; 0x2012 <f256main+0x16fe>
    2a1d: 7a           	ply
    2a1e: 85 13        	sta	$13                     ; 0x2013 <f256main+0x16ff>
    2a20: a9 00        	lda	#$0
    2a22: 92 12        	sta	($12)                   ; 0x2012 <f256main+0x16fe>
    2a24: 91 12        	sta	($12),y                 ; 0x2012 <f256main+0x16fe>
    2a26: a0 02        	ldy	#$2
    2a28: 91 12        	sta	($12),y                 ; 0x2012 <f256main+0x16fe>
    2a2a: 3a           	dec
    2a2b: c8           	iny
    2a2c: 91 12        	sta	($12),y                 ; 0x2012 <f256main+0x16fe>
    2a2e: 86 01        	stx	$1                      ; 0x2001 <f256main+0x16ed>
    2a30: 18           	clc
    2a31: a9 61        	lda	#$61
    2a33: 65 31        	adc	$31                     ; 0x2031 <f256main+0x171d>
    2a35: 0a           	asl
    2a36: 64 12        	stz	$12                     ; 0x2012 <f256main+0x16fe>
    2a38: 26 12        	rol	$12                     ; 0x2012 <f256main+0x16fe>
    2a3a: 0a           	asl
    2a3b: 85 13        	sta	$13                     ; 0x2013 <f256main+0x16ff>
    2a3d: 26 12        	rol	$12                     ; 0x2012 <f256main+0x16fe>
    2a3f: a9 00        	lda	#$0
    2a41: 18           	clc
    2a42: 65 13        	adc	$13                     ; 0x2013 <f256main+0x16ff>
    2a44: aa           	tax
    2a45: a9 d0        	lda	#$d0
    2a47: 65 12        	adc	$12                     ; 0x2012 <f256main+0x16fe>
    2a49: 86 12        	stx	$12                     ; 0x2012 <f256main+0x16fe>
    2a4b: 85 13        	sta	$13                     ; 0x2013 <f256main+0x16ff>
    2a4d: a6 01        	ldx	$1                      ; 0x2001 <f256main+0x16ed>
    2a4f: a0 01        	ldy	#$1
    2a51: 84 01        	sty	$1                      ; 0x2001 <f256main+0x16ed>
    2a53: a9 00        	lda	#$0
    2a55: 92 12        	sta	($12)                   ; 0x2012 <f256main+0x16fe>
    2a57: 91 12        	sta	($12),y                 ; 0x2012 <f256main+0x16fe>
    2a59: 3a           	dec
    2a5a: c8           	iny
    2a5b: 91 12        	sta	($12),y                 ; 0x2012 <f256main+0x16fe>
    2a5d: c8           	iny
    2a5e: 91 12        	sta	($12),y                 ; 0x2012 <f256main+0x16fe>
    2a60: 86 01        	stx	$1                      ; 0x2001 <f256main+0x16ed>
    2a62: a6 31        	ldx	$31                     ; 0x2031 <f256main+0x171d>
    2a64: 86 81        	stx	$81                     ; 0x2081 <f256main+0x176d>
    2a66: a6 32        	ldx	$32                     ; 0x2032 <f256main+0x171e>
    2a68: 86 82        	stx	$82                     ; 0x2082 <f256main+0x176e>
    2a6a: a5 25        	lda	$25                     ; 0x2025 <f256main+0x1711>
    2a6c: a0 12        	ldy	#$12
    2a6e: 91 10        	sta	($10),y                 ; 0x2010 <f256main+0x16fc>
    2a70: a5 87        	lda	$87                     ; 0x2087 <f256main+0x1773>
    2a72: 92 10        	sta	($10)                   ; 0x2010 <f256main+0x16fc>
    2a74: a9 00        	lda	#$0
    2a76: a0 01        	ldy	#$1
    2a78: 91 10        	sta	($10),y                 ; 0x2010 <f256main+0x16fc>
    2a7a: a2 ce        	ldx	#$ce
    2a7c: 86 12        	stx	$12                     ; 0x2012 <f256main+0x16fe>
    2a7e: a2 80        	ldx	#$80
    2a80: 86 13        	stx	$13                     ; 0x2013 <f256main+0x16ff>
    2a82: 20 53 52     	jsr	$5253 <printf>
    2a85: 4c f5 0e     	jmp	$ef5 <f256main+0x5e1>
    2a88: 64 16        	stz	$16                     ; 0x2016 <f256main+0x1702>
    2a8a: 64 17        	stz	$17                     ; 0x2017 <f256main+0x1703>
    2a8c: b1 12        	lda	($12),y                 ; 0x2012 <f256main+0x16fe>
    2a8e: aa           	tax
    2a8f: b1 14        	lda	($14),y                 ; 0x2014 <f256main+0x1700>
    2a91: 86 14        	stx	$14                     ; 0x2014 <f256main+0x1700>
    2a93: 85 15        	sta	$15                     ; 0x2015 <f256main+0x1701>
    2a95: a0 05        	ldy	#$5
    2a97: b1 12        	lda	($12),y                 ; 0x2012 <f256main+0x16fe>
    2a99: a8           	tay
    2a9a: b1 14        	lda	($14),y                 ; 0x2014 <f256main+0x1700>
    2a9c: a2 00        	ldx	#$0
    2a9e: e4 17        	cpx	$17                     ; 0x2017 <f256main+0x1703>
    2aa0: d0 08        	bne	$2aaa <f256main+0x2196>
    2aa2: aa           	tax
    2aa3: a5 16        	lda	$16                     ; 0x2016 <f256main+0x1702>
    2aa5: 49 7f        	eor	#$7f
    2aa7: 85 17        	sta	$17                     ; 0x2017 <f256main+0x1703>
    2aa9: 8a           	txa
    2aaa: e4 17        	cpx	$17                     ; 0x2017 <f256main+0x1703>
    2aac: b0 23        	bcs	$2ad1 <f256main+0x21bd>
    2aae: 18           	clc
    2aaf: 65 16        	adc	$16                     ; 0x2016 <f256main+0x1702>
    2ab1: 1a           	inc
    2ab2: 91 14        	sta	($14),y                 ; 0x2014 <f256main+0x1700>
    2ab4: a6 12        	ldx	$12                     ; 0x2012 <f256main+0x16fe>
    2ab6: 86 16        	stx	$16                     ; 0x2016 <f256main+0x1702>
    2ab8: a6 13        	ldx	$13                     ; 0x2013 <f256main+0x16ff>
    2aba: 86 17        	stx	$17                     ; 0x2017 <f256main+0x1703>
    2abc: e6 16        	inc	$16                     ; 0x2016 <f256main+0x1702>
    2abe: d0 02        	bne	$2ac2 <f256main+0x21ae>
    2ac0: e6 17        	inc	$17                     ; 0x2017 <f256main+0x1703>
    2ac2: a0 01        	ldy	#$1
    2ac4: b1 12        	lda	($12),y                 ; 0x2012 <f256main+0x16fe>
    2ac6: 85 14        	sta	$14                     ; 0x2014 <f256main+0x1700>
    2ac8: b1 16        	lda	($16),y                 ; 0x2016 <f256main+0x1702>
    2aca: 85 15        	sta	$15                     ; 0x2015 <f256main+0x1701>
    2acc: a0 05        	ldy	#$5
    2ace: b1 12        	lda	($12),y                 ; 0x2012 <f256main+0x16fe>
    2ad0: a8           	tay
    2ad1: a5 63        	lda	$63                     ; 0x2063 <f256main+0x174f>
    2ad3: 29 01        	and	#$1
    2ad5: d0 03        	bne	$2ada <f256main+0x21c6>
    2ad7: 4c 38 2b     	jmp	$2b38 <f256main+0x2224>
    2ada: a9 7f        	lda	#$7f
    2adc: 91 14        	sta	($14),y                 ; 0x2014 <f256main+0x1700>
    2ade: a6 12        	ldx	$12                     ; 0x2012 <f256main+0x16fe>
    2ae0: 86 14        	stx	$14                     ; 0x2014 <f256main+0x1700>
    2ae2: a6 13        	ldx	$13                     ; 0x2013 <f256main+0x16ff>
    2ae4: 86 15        	stx	$15                     ; 0x2015 <f256main+0x1701>
    2ae6: e6 14        	inc	$14                     ; 0x2014 <f256main+0x1700>
    2ae8: d0 02        	bne	$2aec <f256main+0x21d8>
    2aea: e6 15        	inc	$15                     ; 0x2015 <f256main+0x1701>
    2aec: a0 01        	ldy	#$1
    2aee: b1 12        	lda	($12),y                 ; 0x2012 <f256main+0x16fe>
    2af0: aa           	tax
    2af1: b1 14        	lda	($14),y                 ; 0x2014 <f256main+0x1700>
    2af3: 86 14        	stx	$14                     ; 0x2014 <f256main+0x1700>
    2af5: 85 15        	sta	$15                     ; 0x2015 <f256main+0x1701>
    2af7: a0 05        	ldy	#$5
    2af9: b1 12        	lda	($12),y                 ; 0x2012 <f256main+0x16fe>
    2afb: 80 3c        	bra	$2b39 <f256main+0x2225>
    2afd: 64 16        	stz	$16                     ; 0x2016 <f256main+0x1702>
    2aff: a9 00        	lda	#$0
    2b01: a0 0d        	ldy	#$d
    2b03: 91 10        	sta	($10),y                 ; 0x2010 <f256main+0x16fc>
    2b05: a2 00        	ldx	#$0
    2b07: a0 01        	ldy	#$1
    2b09: b1 12        	lda	($12),y                 ; 0x2012 <f256main+0x16fe>
    2b0b: 85 16        	sta	$16                     ; 0x2016 <f256main+0x1702>
    2b0d: b1 14        	lda	($14),y                 ; 0x2014 <f256main+0x1700>
    2b0f: a4 16        	ldy	$16                     ; 0x2016 <f256main+0x1702>
    2b11: 84 14        	sty	$14                     ; 0x2014 <f256main+0x1700>
    2b13: 85 15        	sta	$15                     ; 0x2015 <f256main+0x1701>
    2b15: a0 05        	ldy	#$5
    2b17: b1 12        	lda	($12),y                 ; 0x2012 <f256main+0x16fe>
    2b19: a8           	tay
    2b1a: b1 14        	lda	($14),y                 ; 0x2014 <f256main+0x1700>
    2b1c: e0 00        	cpx	#$0
    2b1e: f0 03        	beq	$2b23 <f256main+0x220f>
    2b20: 4c e7 2b     	jmp	$2be7 <f256main+0x22d3>
    2b23: 85 16        	sta	$16                     ; 0x2016 <f256main+0x1702>
    2b25: 48           	pha
    2b26: 5a           	phy
    2b27: a0 0d        	ldy	#$d
    2b29: b1 10        	lda	($10),y                 ; 0x2010 <f256main+0x16fc>
    2b2b: 7a           	ply
    2b2c: aa           	tax
    2b2d: 68           	pla
    2b2e: e4 16        	cpx	$16                     ; 0x2016 <f256main+0x1702>
    2b30: b0 03        	bcs	$2b35 <f256main+0x2221>
    2b32: 4c eb 2b     	jmp	$2beb <f256main+0x22d7>
    2b35: 4c 19 2c     	jmp	$2c19 <f256main+0x2305>
    2b38: 98           	tya
    2b39: aa           	tax
    2b3a: a8           	tay
    2b3b: b1 14        	lda	($14),y                 ; 0x2014 <f256main+0x1700>
    2b3d: 85 18        	sta	$18                     ; 0x2018 <f256main+0x1704>
    2b3f: b2 12        	lda	($12)                   ; 0x2012 <f256main+0x16fe>
    2b41: a0 a1        	ldy	#$a1
    2b43: 84 12        	sty	$12                     ; 0x2012 <f256main+0x16fe>
    2b45: a0 dd        	ldy	#$dd
    2b47: 84 13        	sty	$13                     ; 0x2013 <f256main+0x16ff>
    2b49: a0 b1        	ldy	#$b1
    2b4b: 84 14        	sty	$14                     ; 0x2014 <f256main+0x1700>
    2b4d: a0 dd        	ldy	#$dd
    2b4f: 84 15        	sty	$15                     ; 0x2015 <f256main+0x1701>
    2b51: 48           	pha
    2b52: a5 14        	lda	$14                     ; 0x2014 <f256main+0x1700>
    2b54: a0 0d        	ldy	#$d
    2b56: 91 10        	sta	($10),y                 ; 0x2010 <f256main+0x16fc>
    2b58: a5 15        	lda	$15                     ; 0x2015 <f256main+0x1701>
    2b5a: c8           	iny
    2b5b: 91 10        	sta	($10),y                 ; 0x2010 <f256main+0x16fc>
    2b5d: 68           	pla
    2b5e: f0 0b        	beq	$2b6b <f256main+0x2257>
    2b60: a0 0d        	ldy	#$d
    2b62: b1 10        	lda	($10),y                 ; 0x2010 <f256main+0x16fc>
    2b64: 85 12        	sta	$12                     ; 0x2012 <f256main+0x16fe>
    2b66: c8           	iny
    2b67: b1 10        	lda	($10),y                 ; 0x2010 <f256main+0x16fc>
    2b69: 85 13        	sta	$13                     ; 0x2013 <f256main+0x16ff>
    2b6b: 8a           	txa
    2b6c: 09 c0        	ora	#$c0
    2b6e: 92 12        	sta	($12)                   ; 0x2012 <f256main+0x16fe>
    2b70: a5 18        	lda	$18                     ; 0x2018 <f256main+0x1704>
    2b72: 92 12        	sta	($12)                   ; 0x2012 <f256main+0x16fe>
    2b74: a6 6a        	ldx	$6a                     ; 0x206a <f256main+0x1756>
    2b76: a4 6b        	ldy	$6b                     ; 0x206b <f256main+0x1757>
    2b78: 86 12        	stx	$12                     ; 0x2012 <f256main+0x16fe>
    2b7a: 84 13        	sty	$13                     ; 0x2013 <f256main+0x16ff>
    2b7c: 86 14        	stx	$14                     ; 0x2014 <f256main+0x1700>
    2b7e: 84 15        	sty	$15                     ; 0x2015 <f256main+0x1701>
    2b80: e6 14        	inc	$14                     ; 0x2014 <f256main+0x1700>
    2b82: d0 02        	bne	$2b86 <f256main+0x2272>
    2b84: e6 15        	inc	$15                     ; 0x2015 <f256main+0x1701>
    2b86: a0 01        	ldy	#$1
    2b88: b1 12        	lda	($12),y                 ; 0x2012 <f256main+0x16fe>
    2b8a: aa           	tax
    2b8b: b1 14        	lda	($14),y                 ; 0x2014 <f256main+0x1700>
    2b8d: 86 14        	stx	$14                     ; 0x2014 <f256main+0x1700>
    2b8f: 85 15        	sta	$15                     ; 0x2015 <f256main+0x1701>
    2b91: a0 05        	ldy	#$5
    2b93: b1 12        	lda	($12),y                 ; 0x2012 <f256main+0x16fe>
    2b95: aa           	tax
    2b96: a8           	tay
    2b97: b1 14        	lda	($14),y                 ; 0x2014 <f256main+0x1700>
    2b99: 85 16        	sta	$16                     ; 0x2016 <f256main+0x1702>
    2b9b: b2 12        	lda	($12)                   ; 0x2012 <f256main+0x16fe>
    2b9d: 48           	pha
    2b9e: a0 0d        	ldy	#$d
    2ba0: b1 10        	lda	($10),y                 ; 0x2010 <f256main+0x16fc>
    2ba2: 85 12        	sta	$12                     ; 0x2012 <f256main+0x16fe>
    2ba4: c8           	iny
    2ba5: b1 10        	lda	($10),y                 ; 0x2010 <f256main+0x16fc>
    2ba7: 85 13        	sta	$13                     ; 0x2013 <f256main+0x16ff>
    2ba9: 68           	pla
    2baa: f0 08        	beq	$2bb4 <f256main+0x22a0>
    2bac: a0 a1        	ldy	#$a1
    2bae: 84 12        	sty	$12                     ; 0x2012 <f256main+0x16fe>
    2bb0: a0 dd        	ldy	#$dd
    2bb2: 84 13        	sty	$13                     ; 0x2013 <f256main+0x16ff>
    2bb4: 8a           	txa
    2bb5: 09 c0        	ora	#$c0
    2bb7: 92 12        	sta	($12)                   ; 0x2012 <f256main+0x16fe>
    2bb9: a5 16        	lda	$16                     ; 0x2016 <f256main+0x1702>
    2bbb: 92 12        	sta	($12)                   ; 0x2012 <f256main+0x16fe>
    2bbd: a6 6a        	ldx	$6a                     ; 0x206a <f256main+0x1756>
    2bbf: a4 6b        	ldy	$6b                     ; 0x206b <f256main+0x1757>
    2bc1: 86 12        	stx	$12                     ; 0x2012 <f256main+0x16fe>
    2bc3: 84 13        	sty	$13                     ; 0x2013 <f256main+0x16ff>
    2bc5: a0 06        	ldy	#$6
    2bc7: b1 12        	lda	($12),y                 ; 0x2012 <f256main+0x16fe>
    2bc9: c9 03        	cmp	#$3
    2bcb: f0 0b        	beq	$2bd8 <f256main+0x22c4>
    2bcd: c9 01        	cmp	#$1
    2bcf: f0 03        	beq	$2bd4 <f256main+0x22c0>
    2bd1: 4c 6a 2a     	jmp	$2a6a <f256main+0x2156>
    2bd4: a0 03        	ldy	#$3
    2bd6: 80 02        	bra	$2bda <f256main+0x22c6>
    2bd8: a0 04        	ldy	#$4
    2bda: b1 12        	lda	($12),y                 ; 0x2012 <f256main+0x16fe>
    2bdc: c9 05        	cmp	#$5
    2bde: 90 03        	bcc	$2be3 <f256main+0x22cf>
    2be0: 4c 6a 2a     	jmp	$2a6a <f256main+0x2156>
    2be3: 1a           	inc
    2be4: 4c 2a 1a     	jmp	$1a2a <f256main+0x1116>
    2be7: e0 00        	cpx	#$0
    2be9: b0 2e        	bcs	$2c19 <f256main+0x2305>
    2beb: aa           	tax
    2bec: 5a           	phy
    2bed: a0 0d        	ldy	#$d
    2bef: b1 10        	lda	($10),y                 ; 0x2010 <f256main+0x16fc>
    2bf1: 7a           	ply
    2bf2: 49 ff        	eor	#$ff
    2bf4: 85 16        	sta	$16                     ; 0x2016 <f256main+0x1702>
    2bf6: 18           	clc
    2bf7: 8a           	txa
    2bf8: 65 16        	adc	$16                     ; 0x2016 <f256main+0x1702>
    2bfa: 91 14        	sta	($14),y                 ; 0x2014 <f256main+0x1700>
    2bfc: a6 12        	ldx	$12                     ; 0x2012 <f256main+0x16fe>
    2bfe: 86 16        	stx	$16                     ; 0x2016 <f256main+0x1702>
    2c00: a6 13        	ldx	$13                     ; 0x2013 <f256main+0x16ff>
    2c02: 86 17        	stx	$17                     ; 0x2017 <f256main+0x1703>
    2c04: e6 16        	inc	$16                     ; 0x2016 <f256main+0x1702>
    2c06: d0 02        	bne	$2c0a <f256main+0x22f6>
    2c08: e6 17        	inc	$17                     ; 0x2017 <f256main+0x1703>
    2c0a: a0 01        	ldy	#$1
    2c0c: b1 12        	lda	($12),y                 ; 0x2012 <f256main+0x16fe>
    2c0e: 85 14        	sta	$14                     ; 0x2014 <f256main+0x1700>
    2c10: b1 16        	lda	($16),y                 ; 0x2016 <f256main+0x1702>
    2c12: 85 15        	sta	$15                     ; 0x2015 <f256main+0x1701>
    2c14: a0 05        	ldy	#$5
    2c16: b1 12        	lda	($12),y                 ; 0x2012 <f256main+0x16fe>
    2c18: a8           	tay
    2c19: a5 63        	lda	$63                     ; 0x2063 <f256main+0x174f>
    2c1b: 29 01        	and	#$1
    2c1d: f0 23        	beq	$2c42 <f256main+0x232e>
    2c1f: a9 00        	lda	#$0
    2c21: 91 14        	sta	($14),y                 ; 0x2014 <f256main+0x1700>
    2c23: a6 12        	ldx	$12                     ; 0x2012 <f256main+0x16fe>
    2c25: 86 14        	stx	$14                     ; 0x2014 <f256main+0x1700>
    2c27: a6 13        	ldx	$13                     ; 0x2013 <f256main+0x16ff>
    2c29: 86 15        	stx	$15                     ; 0x2015 <f256main+0x1701>
    2c2b: e6 14        	inc	$14                     ; 0x2014 <f256main+0x1700>
    2c2d: d0 02        	bne	$2c31 <f256main+0x231d>
    2c2f: e6 15        	inc	$15                     ; 0x2015 <f256main+0x1701>
    2c31: a0 01        	ldy	#$1
    2c33: b1 12        	lda	($12),y                 ; 0x2012 <f256main+0x16fe>
    2c35: aa           	tax
    2c36: b1 14        	lda	($14),y                 ; 0x2014 <f256main+0x1700>
    2c38: 86 14        	stx	$14                     ; 0x2014 <f256main+0x1700>
    2c3a: 85 15        	sta	$15                     ; 0x2015 <f256main+0x1701>
    2c3c: a0 05        	ldy	#$5
    2c3e: b1 12        	lda	($12),y                 ; 0x2012 <f256main+0x16fe>
    2c40: 80 01        	bra	$2c43 <f256main+0x232f>
    2c42: 98           	tya
    2c43: aa           	tax
    2c44: a8           	tay
    2c45: b1 14        	lda	($14),y                 ; 0x2014 <f256main+0x1700>
    2c47: 85 18        	sta	$18                     ; 0x2018 <f256main+0x1704>
    2c49: b2 12        	lda	($12)                   ; 0x2012 <f256main+0x16fe>
    2c4b: a0 a1        	ldy	#$a1
    2c4d: 84 12        	sty	$12                     ; 0x2012 <f256main+0x16fe>
    2c4f: a0 dd        	ldy	#$dd
    2c51: 84 13        	sty	$13                     ; 0x2013 <f256main+0x16ff>
    2c53: a0 b1        	ldy	#$b1
    2c55: 84 14        	sty	$14                     ; 0x2014 <f256main+0x1700>
    2c57: a0 dd        	ldy	#$dd
    2c59: 84 15        	sty	$15                     ; 0x2015 <f256main+0x1701>
    2c5b: 48           	pha
    2c5c: a5 14        	lda	$14                     ; 0x2014 <f256main+0x1700>
    2c5e: a0 0d        	ldy	#$d
    2c60: 91 10        	sta	($10),y                 ; 0x2010 <f256main+0x16fc>
    2c62: a5 15        	lda	$15                     ; 0x2015 <f256main+0x1701>
    2c64: c8           	iny
    2c65: 91 10        	sta	($10),y                 ; 0x2010 <f256main+0x16fc>
    2c67: 68           	pla
    2c68: f0 0b        	beq	$2c75 <f256main+0x2361>
    2c6a: a0 0d        	ldy	#$d
    2c6c: b1 10        	lda	($10),y                 ; 0x2010 <f256main+0x16fc>
    2c6e: 85 12        	sta	$12                     ; 0x2012 <f256main+0x16fe>
    2c70: c8           	iny
    2c71: b1 10        	lda	($10),y                 ; 0x2010 <f256main+0x16fc>
    2c73: 85 13        	sta	$13                     ; 0x2013 <f256main+0x16ff>
    2c75: 8a           	txa
    2c76: 09 c0        	ora	#$c0
    2c78: 92 12        	sta	($12)                   ; 0x2012 <f256main+0x16fe>
    2c7a: a5 18        	lda	$18                     ; 0x2018 <f256main+0x1704>
    2c7c: 92 12        	sta	($12)                   ; 0x2012 <f256main+0x16fe>
    2c7e: a6 6a        	ldx	$6a                     ; 0x206a <f256main+0x1756>
    2c80: a4 6b        	ldy	$6b                     ; 0x206b <f256main+0x1757>
    2c82: 86 12        	stx	$12                     ; 0x2012 <f256main+0x16fe>
    2c84: 84 13        	sty	$13                     ; 0x2013 <f256main+0x16ff>
    2c86: 86 14        	stx	$14                     ; 0x2014 <f256main+0x1700>
    2c88: 84 15        	sty	$15                     ; 0x2015 <f256main+0x1701>
    2c8a: e6 14        	inc	$14                     ; 0x2014 <f256main+0x1700>
    2c8c: d0 02        	bne	$2c90 <f256main+0x237c>
    2c8e: e6 15        	inc	$15                     ; 0x2015 <f256main+0x1701>
    2c90: a0 01        	ldy	#$1
    2c92: b1 12        	lda	($12),y                 ; 0x2012 <f256main+0x16fe>
    2c94: aa           	tax
    2c95: b1 14        	lda	($14),y                 ; 0x2014 <f256main+0x1700>
    2c97: 86 14        	stx	$14                     ; 0x2014 <f256main+0x1700>
    2c99: 85 15        	sta	$15                     ; 0x2015 <f256main+0x1701>
    2c9b: a0 05        	ldy	#$5
    2c9d: b1 12        	lda	($12),y                 ; 0x2012 <f256main+0x16fe>
    2c9f: aa           	tax
    2ca0: a8           	tay
    2ca1: b1 14        	lda	($14),y                 ; 0x2014 <f256main+0x1700>
    2ca3: 85 16        	sta	$16                     ; 0x2016 <f256main+0x1702>
    2ca5: b2 12        	lda	($12)                   ; 0x2012 <f256main+0x16fe>
    2ca7: 48           	pha
    2ca8: a0 0d        	ldy	#$d
    2caa: b1 10        	lda	($10),y                 ; 0x2010 <f256main+0x16fc>
    2cac: 85 12        	sta	$12                     ; 0x2012 <f256main+0x16fe>
    2cae: c8           	iny
    2caf: b1 10        	lda	($10),y                 ; 0x2010 <f256main+0x16fc>
    2cb1: 85 13        	sta	$13                     ; 0x2013 <f256main+0x16ff>
    2cb3: 68           	pla
    2cb4: f0 08        	beq	$2cbe <f256main+0x23aa>
    2cb6: a0 a1        	ldy	#$a1
    2cb8: 84 12        	sty	$12                     ; 0x2012 <f256main+0x16fe>
    2cba: a0 dd        	ldy	#$dd
    2cbc: 84 13        	sty	$13                     ; 0x2013 <f256main+0x16ff>
    2cbe: 8a           	txa
    2cbf: 09 c0        	ora	#$c0
    2cc1: 92 12        	sta	($12)                   ; 0x2012 <f256main+0x16fe>
    2cc3: a5 16        	lda	$16                     ; 0x2016 <f256main+0x1702>
    2cc5: 92 12        	sta	($12)                   ; 0x2012 <f256main+0x16fe>
    2cc7: a6 6a        	ldx	$6a                     ; 0x206a <f256main+0x1756>
    2cc9: a4 6b        	ldy	$6b                     ; 0x206b <f256main+0x1757>
    2ccb: 86 12        	stx	$12                     ; 0x2012 <f256main+0x16fe>
    2ccd: 84 13        	sty	$13                     ; 0x2013 <f256main+0x16ff>
    2ccf: a0 06        	ldy	#$6
    2cd1: b1 12        	lda	($12),y                 ; 0x2012 <f256main+0x16fe>
    2cd3: c9 01        	cmp	#$1
    2cd5: f0 03        	beq	$2cda <f256main+0x23c6>
    2cd7: 4c 6a 2a     	jmp	$2a6a <f256main+0x2156>
    2cda: a0 03        	ldy	#$3
    2cdc: b1 12        	lda	($12),y                 ; 0x2012 <f256main+0x16fe>
    2cde: d0 03        	bne	$2ce3 <f256main+0x23cf>
    2ce0: 4c 6a 2a     	jmp	$2a6a <f256main+0x2156>
    2ce3: 3a           	dec
    2ce4: 4c 2a 1a     	jmp	$1a2a <f256main+0x1116>
    2ce7: a9 00        	lda	#$0
    2ce9: 91 12        	sta	($12),y                 ; 0x2012 <f256main+0x16fe>
    2ceb: 20 b1 48     	jsr	$48b1 <refreshBeatTextChoice>
    2cee: 4c 6a 2a     	jmp	$2a6a <f256main+0x2156>
    2cf1: a2 00        	ldx	#$0
    2cf3: 64 14        	stz	$14                     ; 0x2014 <f256main+0x1700>
    2cf5: a0 09        	ldy	#$9
    2cf7: b1 12        	lda	($12),y                 ; 0x2012 <f256main+0x16fe>
    2cf9: 85 16        	sta	$16                     ; 0x2016 <f256main+0x1702>
    2cfb: 18           	clc
    2cfc: 86 15        	stx	$15                     ; 0x2015 <f256main+0x1701>
    2cfe: 8a           	txa
    2cff: 69 1e        	adc	#$1e
    2d01: a8           	tay
    2d02: a9 00        	lda	#$0
    2d04: 69 00        	adc	#$0
    2d06: d0 0b        	bne	$2d13 <f256main+0x23ff>
    2d08: a6 16        	ldx	$16                     ; 0x2016 <f256main+0x1702>
    2d0a: 86 14        	stx	$14                     ; 0x2014 <f256main+0x1700>
    2d0c: c4 14        	cpy	$14                     ; 0x2014 <f256main+0x1700>
    2d0e: 90 0a        	bcc	$2d1a <f256main+0x2406>
    2d10: 4c 6a 2a     	jmp	$2a6a <f256main+0x2156>
    2d13: c9 00        	cmp	#$0
    2d15: 90 03        	bcc	$2d1a <f256main+0x2406>
    2d17: 4c 6a 2a     	jmp	$2a6a <f256main+0x2156>
    2d1a: a5 15        	lda	$15                     ; 0x2015 <f256main+0x1701>
    2d1c: 49 ff        	eor	#$ff
    2d1e: 85 14        	sta	$14                     ; 0x2014 <f256main+0x1700>
    2d20: 18           	clc
    2d21: a5 16        	lda	$16                     ; 0x2016 <f256main+0x1702>
    2d23: 65 14        	adc	$14                     ; 0x2014 <f256main+0x1700>
    2d25: a0 09        	ldy	#$9
    2d27: 91 12        	sta	($12),y                 ; 0x2012 <f256main+0x16fe>
    2d29: 20 81 3f     	jsr	$3f81 <prepTempoLUT>
    2d2c: a6 6a        	ldx	$6a                     ; 0x206a <f256main+0x1756>
    2d2e: a4 6b        	ldy	$6b                     ; 0x206b <f256main+0x1757>
    2d30: 86 12        	stx	$12                     ; 0x2012 <f256main+0x16fe>
    2d32: 84 13        	sty	$13                     ; 0x2013 <f256main+0x16ff>
    2d34: a0 09        	ldy	#$9
    2d36: b1 12        	lda	($12),y                 ; 0x2012 <f256main+0x16fe>
    2d38: 20 18 49     	jsr	$4918 <updateTempoText>
    2d3b: a2 b0        	ldx	#$b0
    2d3d: 8e b1 dd     	stx	$ddb1                   ; 0xddb1 <__heap_start+0x576b>
    2d40: a0 7b        	ldy	#$7b
    2d42: 8c b1 dd     	sty	$ddb1                   ; 0xddb1 <__heap_start+0x576b>
    2d45: 9c b1 dd     	stz	$ddb1                   ; 0xddb1 <__heap_start+0x576b>
    2d48: 8e a1 dd     	stx	$dda1                   ; 0xdda1 <__heap_start+0x575b>
    2d4b: 8c a1 dd     	sty	$dda1                   ; 0xdda1 <__heap_start+0x575b>
    2d4e: 9c a1 dd     	stz	$dda1                   ; 0xdda1 <__heap_start+0x575b>
    2d51: e8           	inx
    2d52: 8e b1 dd     	stx	$ddb1                   ; 0xddb1 <__heap_start+0x576b>
    2d55: 8c b1 dd     	sty	$ddb1                   ; 0xddb1 <__heap_start+0x576b>
    2d58: 9c b1 dd     	stz	$ddb1                   ; 0xddb1 <__heap_start+0x576b>
    2d5b: 8e a1 dd     	stx	$dda1                   ; 0xdda1 <__heap_start+0x575b>
    2d5e: 8c a1 dd     	sty	$dda1                   ; 0xdda1 <__heap_start+0x575b>
    2d61: 9c a1 dd     	stz	$dda1                   ; 0xdda1 <__heap_start+0x575b>
    2d64: a2 b9        	ldx	#$b9
    2d66: 8e b1 dd     	stx	$ddb1                   ; 0xddb1 <__heap_start+0x576b>
    2d69: 8c b1 dd     	sty	$ddb1                   ; 0xddb1 <__heap_start+0x576b>
    2d6c: 9c b1 dd     	stz	$ddb1                   ; 0xddb1 <__heap_start+0x576b>
    2d6f: 8e a1 dd     	stx	$dda1                   ; 0xdda1 <__heap_start+0x575b>
    2d72: 8c a1 dd     	sty	$dda1                   ; 0xdda1 <__heap_start+0x575b>
    2d75: 9c a1 dd     	stz	$dda1                   ; 0xdda1 <__heap_start+0x575b>
    2d78: a6 7e        	ldx	$7e                     ; 0x207e <f256main+0x176a>
    2d7a: 86 18        	stx	$18                     ; 0x2018 <f256main+0x1704>
    2d7c: a6 7f        	ldx	$7f                     ; 0x207f <f256main+0x176b>
    2d7e: a5 6a        	lda	$6a                     ; 0x206a <f256main+0x1756>
    2d80: a4 6b        	ldy	$6b                     ; 0x206b <f256main+0x1757>
    2d82: 85 12        	sta	$12                     ; 0x2012 <f256main+0x16fe>
    2d84: 84 13        	sty	$13                     ; 0x2013 <f256main+0x16ff>
    2d86: a0 08        	ldy	#$8
    2d88: b1 12        	lda	($12),y                 ; 0x2012 <f256main+0x16fe>
    2d8a: 85 14        	sta	$14                     ; 0x2014 <f256main+0x1700>
    2d8c: 64 15        	stz	$15                     ; 0x2015 <f256main+0x1701>
    2d8e: 0a           	asl
    2d8f: 64 17        	stz	$17                     ; 0x2017 <f256main+0x1703>
    2d91: 26 17        	rol	$17                     ; 0x2017 <f256main+0x1703>
    2d93: 0a           	asl
    2d94: 26 17        	rol	$17                     ; 0x2017 <f256main+0x1703>
    2d96: 0a           	asl
    2d97: 26 17        	rol	$17                     ; 0x2017 <f256main+0x1703>
    2d99: 0a           	asl
    2d9a: 26 17        	rol	$17                     ; 0x2017 <f256main+0x1703>
    2d9c: 38           	sec
    2d9d: e5 14        	sbc	$14                     ; 0x2014 <f256main+0x1700>
    2d9f: 85 16        	sta	$16                     ; 0x2016 <f256main+0x1702>
    2da1: a5 17        	lda	$17                     ; 0x2017 <f256main+0x1703>
    2da3: e9 00        	sbc	#$0
    2da5: 85 17        	sta	$17                     ; 0x2017 <f256main+0x1703>
    2da7: a4 18        	ldy	$18                     ; 0x2018 <f256main+0x1704>
    2da9: 84 19        	sty	$19                     ; 0x2019 <f256main+0x1705>
    2dab: a5 18        	lda	$18                     ; 0x2018 <f256main+0x1704>
    2dad: 18           	clc
    2dae: 65 16        	adc	$16                     ; 0x2016 <f256main+0x1702>
    2db0: 85 16        	sta	$16                     ; 0x2016 <f256main+0x1702>
    2db2: 8a           	txa
    2db3: 65 17        	adc	$17                     ; 0x2017 <f256main+0x1703>
    2db5: 85 17        	sta	$17                     ; 0x2017 <f256main+0x1703>
    2db7: a0 04        	ldy	#$4
    2db9: b1 16        	lda	($16),y                 ; 0x2016 <f256main+0x1702>
    2dbb: d0 03        	bne	$2dc0 <f256main+0x24ac>
    2dbd: 4c 6a 2a     	jmp	$2a6a <f256main+0x2156>
    2dc0: a0 00        	ldy	#$0
    2dc2: a5 14        	lda	$14                     ; 0x2014 <f256main+0x1700>
    2dc4: 0a           	asl
    2dc5: 64 16        	stz	$16                     ; 0x2016 <f256main+0x1702>
    2dc7: 26 16        	rol	$16                     ; 0x2016 <f256main+0x1702>
    2dc9: 0a           	asl
    2dca: 26 16        	rol	$16                     ; 0x2016 <f256main+0x1702>
    2dcc: 0a           	asl
    2dcd: 26 16        	rol	$16                     ; 0x2016 <f256main+0x1702>
    2dcf: 0a           	asl
    2dd0: 26 16        	rol	$16                     ; 0x2016 <f256main+0x1702>
    2dd2: 38           	sec
    2dd3: e5 14        	sbc	$14                     ; 0x2014 <f256main+0x1700>
    2dd5: 85 14        	sta	$14                     ; 0x2014 <f256main+0x1700>
    2dd7: a5 16        	lda	$16                     ; 0x2016 <f256main+0x1702>
    2dd9: e5 15        	sbc	$15                     ; 0x2015 <f256main+0x1701>
    2ddb: 85 15        	sta	$15                     ; 0x2015 <f256main+0x1701>
    2ddd: a5 19        	lda	$19                     ; 0x2019 <f256main+0x1705>
    2ddf: 18           	clc
    2de0: 65 14        	adc	$14                     ; 0x2014 <f256main+0x1700>
    2de2: 85 16        	sta	$16                     ; 0x2016 <f256main+0x1702>
    2de4: 8a           	txa
    2de5: 65 15        	adc	$15                     ; 0x2015 <f256main+0x1701>
    2de7: 5a           	phy
    2de8: a4 16        	ldy	$16                     ; 0x2016 <f256main+0x1702>
    2dea: 84 14        	sty	$14                     ; 0x2014 <f256main+0x1700>
    2dec: 7a           	ply
    2ded: 85 15        	sta	$15                     ; 0x2015 <f256main+0x1701>
    2def: 85 17        	sta	$17                     ; 0x2017 <f256main+0x1703>
    2df1: 18           	clc
    2df2: a5 16        	lda	$16                     ; 0x2016 <f256main+0x1702>
    2df4: 69 09        	adc	#$9
    2df6: 85 16        	sta	$16                     ; 0x2016 <f256main+0x1702>
    2df8: a5 17        	lda	$17                     ; 0x2017 <f256main+0x1703>
    2dfa: 69 00        	adc	#$0
    2dfc: 85 17        	sta	$17                     ; 0x2017 <f256main+0x1703>
    2dfe: 84 1a        	sty	$1a                     ; 0x201a <f256main+0x1706>
    2e00: a0 09        	ldy	#$9
    2e02: b1 14        	lda	($14),y                 ; 0x2014 <f256main+0x1700>
    2e04: 85 14        	sta	$14                     ; 0x2014 <f256main+0x1700>
    2e06: a0 01        	ldy	#$1
    2e08: b1 16        	lda	($16),y                 ; 0x2016 <f256main+0x1702>
    2e0a: 85 15        	sta	$15                     ; 0x2015 <f256main+0x1701>
    2e0c: a9 00        	lda	#$0
    2e0e: a4 1a        	ldy	$1a                     ; 0x201a <f256main+0x1706>
    2e10: 91 14        	sta	($14),y                 ; 0x2014 <f256main+0x1700>
    2e12: a0 08        	ldy	#$8
    2e14: b1 12        	lda	($12),y                 ; 0x2012 <f256main+0x16fe>
    2e16: 85 14        	sta	$14                     ; 0x2014 <f256main+0x1700>
    2e18: 0a           	asl
    2e19: 64 16        	stz	$16                     ; 0x2016 <f256main+0x1702>
    2e1b: 26 16        	rol	$16                     ; 0x2016 <f256main+0x1702>
    2e1d: 0a           	asl
    2e1e: 26 16        	rol	$16                     ; 0x2016 <f256main+0x1702>
    2e20: 0a           	asl
    2e21: 26 16        	rol	$16                     ; 0x2016 <f256main+0x1702>
    2e23: 0a           	asl
    2e24: 26 16        	rol	$16                     ; 0x2016 <f256main+0x1702>
    2e26: 38           	sec
    2e27: e5 14        	sbc	$14                     ; 0x2014 <f256main+0x1700>
    2e29: 85 15        	sta	$15                     ; 0x2015 <f256main+0x1701>
    2e2b: a5 16        	lda	$16                     ; 0x2016 <f256main+0x1702>
    2e2d: e9 00        	sbc	#$0
    2e2f: 85 16        	sta	$16                     ; 0x2016 <f256main+0x1702>
    2e31: a5 19        	lda	$19                     ; 0x2019 <f256main+0x1705>
    2e33: 18           	clc
    2e34: 65 15        	adc	$15                     ; 0x2015 <f256main+0x1701>
    2e36: a8           	tay
    2e37: 8a           	txa
    2e38: 65 16        	adc	$16                     ; 0x2016 <f256main+0x1702>
    2e3a: 85 17        	sta	$17                     ; 0x2017 <f256main+0x1703>
    2e3c: 84 16        	sty	$16                     ; 0x2016 <f256main+0x1702>
    2e3e: a4 1a        	ldy	$1a                     ; 0x201a <f256main+0x1706>
    2e40: c8           	iny
    2e41: 98           	tya
    2e42: a0 04        	ldy	#$4
    2e44: d1 16        	cmp	($16),y                 ; 0x2016 <f256main+0x1702>
    2e46: 64 15        	stz	$15                     ; 0x2015 <f256main+0x1701>
    2e48: a8           	tay
    2e49: b0 03        	bcs	$2e4e <f256main+0x253a>
    2e4b: 4c c2 2d     	jmp	$2dc2 <f256main+0x24ae>
    2e4e: 4c 6a 2a     	jmp	$2a6a <f256main+0x2156>
    2e51: 64 14        	stz	$14                     ; 0x2014 <f256main+0x1700>
    2e53: 64 15        	stz	$15                     ; 0x2015 <f256main+0x1701>
    2e55: a0 09        	ldy	#$9
    2e57: b1 12        	lda	($12),y                 ; 0x2012 <f256main+0x16fe>
    2e59: a2 00        	ldx	#$0
    2e5b: e4 15        	cpx	$15                     ; 0x2015 <f256main+0x1701>
    2e5d: d0 08        	bne	$2e67 <f256main+0x2553>
    2e5f: aa           	tax
    2e60: a5 14        	lda	$14                     ; 0x2014 <f256main+0x1700>
    2e62: 49 ff        	eor	#$ff
    2e64: 85 15        	sta	$15                     ; 0x2015 <f256main+0x1701>
    2e66: 8a           	txa
    2e67: e4 15        	cpx	$15                     ; 0x2015 <f256main+0x1701>
    2e69: 90 03        	bcc	$2e6e <f256main+0x255a>
    2e6b: 4c 6a 2a     	jmp	$2a6a <f256main+0x2156>
    2e6e: 18           	clc
    2e6f: 65 14        	adc	$14                     ; 0x2014 <f256main+0x1700>
    2e71: 1a           	inc
    2e72: 91 12        	sta	($12),y                 ; 0x2012 <f256main+0x16fe>
    2e74: 20 81 3f     	jsr	$3f81 <prepTempoLUT>
    2e77: a6 6a        	ldx	$6a                     ; 0x206a <f256main+0x1756>
    2e79: a4 6b        	ldy	$6b                     ; 0x206b <f256main+0x1757>
    2e7b: 86 12        	stx	$12                     ; 0x2012 <f256main+0x16fe>
    2e7d: 84 13        	sty	$13                     ; 0x2013 <f256main+0x16ff>
    2e7f: a0 09        	ldy	#$9
    2e81: b1 12        	lda	($12),y                 ; 0x2012 <f256main+0x16fe>
    2e83: 20 18 49     	jsr	$4918 <updateTempoText>
    2e86: a2 b0        	ldx	#$b0
    2e88: 8e b1 dd     	stx	$ddb1                   ; 0xddb1 <__heap_start+0x576b>
    2e8b: a0 7b        	ldy	#$7b
    2e8d: 8c b1 dd     	sty	$ddb1                   ; 0xddb1 <__heap_start+0x576b>
    2e90: 9c b1 dd     	stz	$ddb1                   ; 0xddb1 <__heap_start+0x576b>
    2e93: 8e a1 dd     	stx	$dda1                   ; 0xdda1 <__heap_start+0x575b>
    2e96: 8c a1 dd     	sty	$dda1                   ; 0xdda1 <__heap_start+0x575b>
    2e99: 9c a1 dd     	stz	$dda1                   ; 0xdda1 <__heap_start+0x575b>
    2e9c: e8           	inx
    2e9d: 8e b1 dd     	stx	$ddb1                   ; 0xddb1 <__heap_start+0x576b>
    2ea0: 8c b1 dd     	sty	$ddb1                   ; 0xddb1 <__heap_start+0x576b>
    2ea3: 9c b1 dd     	stz	$ddb1                   ; 0xddb1 <__heap_start+0x576b>
    2ea6: 8e a1 dd     	stx	$dda1                   ; 0xdda1 <__heap_start+0x575b>
    2ea9: 8c a1 dd     	sty	$dda1                   ; 0xdda1 <__heap_start+0x575b>
    2eac: 9c a1 dd     	stz	$dda1                   ; 0xdda1 <__heap_start+0x575b>
    2eaf: a2 b9        	ldx	#$b9
    2eb1: 8e b1 dd     	stx	$ddb1                   ; 0xddb1 <__heap_start+0x576b>
    2eb4: 8c b1 dd     	sty	$ddb1                   ; 0xddb1 <__heap_start+0x576b>
    2eb7: 9c b1 dd     	stz	$ddb1                   ; 0xddb1 <__heap_start+0x576b>
    2eba: 8e a1 dd     	stx	$dda1                   ; 0xdda1 <__heap_start+0x575b>
    2ebd: 8c a1 dd     	sty	$dda1                   ; 0xdda1 <__heap_start+0x575b>
    2ec0: 9c a1 dd     	stz	$dda1                   ; 0xdda1 <__heap_start+0x575b>
    2ec3: a6 7e        	ldx	$7e                     ; 0x207e <f256main+0x176a>
    2ec5: 86 18        	stx	$18                     ; 0x2018 <f256main+0x1704>
    2ec7: a6 7f        	ldx	$7f                     ; 0x207f <f256main+0x176b>
    2ec9: a5 6a        	lda	$6a                     ; 0x206a <f256main+0x1756>
    2ecb: a4 6b        	ldy	$6b                     ; 0x206b <f256main+0x1757>
    2ecd: 85 12        	sta	$12                     ; 0x2012 <f256main+0x16fe>
    2ecf: 84 13        	sty	$13                     ; 0x2013 <f256main+0x16ff>
    2ed1: a0 08        	ldy	#$8
    2ed3: b1 12        	lda	($12),y                 ; 0x2012 <f256main+0x16fe>
    2ed5: 85 14        	sta	$14                     ; 0x2014 <f256main+0x1700>
    2ed7: 64 15        	stz	$15                     ; 0x2015 <f256main+0x1701>
    2ed9: 0a           	asl
    2eda: 64 17        	stz	$17                     ; 0x2017 <f256main+0x1703>
    2edc: 26 17        	rol	$17                     ; 0x2017 <f256main+0x1703>
    2ede: 0a           	asl
    2edf: 26 17        	rol	$17                     ; 0x2017 <f256main+0x1703>
    2ee1: 0a           	asl
    2ee2: 26 17        	rol	$17                     ; 0x2017 <f256main+0x1703>
    2ee4: 0a           	asl
    2ee5: 26 17        	rol	$17                     ; 0x2017 <f256main+0x1703>
    2ee7: 38           	sec
    2ee8: e5 14        	sbc	$14                     ; 0x2014 <f256main+0x1700>
    2eea: 85 16        	sta	$16                     ; 0x2016 <f256main+0x1702>
    2eec: a5 17        	lda	$17                     ; 0x2017 <f256main+0x1703>
    2eee: e9 00        	sbc	#$0
    2ef0: 85 17        	sta	$17                     ; 0x2017 <f256main+0x1703>
    2ef2: a4 18        	ldy	$18                     ; 0x2018 <f256main+0x1704>
    2ef4: 84 19        	sty	$19                     ; 0x2019 <f256main+0x1705>
    2ef6: a5 18        	lda	$18                     ; 0x2018 <f256main+0x1704>
    2ef8: 18           	clc
    2ef9: 65 16        	adc	$16                     ; 0x2016 <f256main+0x1702>
    2efb: 85 16        	sta	$16                     ; 0x2016 <f256main+0x1702>
    2efd: 8a           	txa
    2efe: 65 17        	adc	$17                     ; 0x2017 <f256main+0x1703>
    2f00: 85 17        	sta	$17                     ; 0x2017 <f256main+0x1703>
    2f02: a0 04        	ldy	#$4
    2f04: b1 16        	lda	($16),y                 ; 0x2016 <f256main+0x1702>
    2f06: d0 03        	bne	$2f0b <f256main+0x25f7>
    2f08: 4c 6a 2a     	jmp	$2a6a <f256main+0x2156>
    2f0b: a0 00        	ldy	#$0
    2f0d: a5 14        	lda	$14                     ; 0x2014 <f256main+0x1700>
    2f0f: 0a           	asl
    2f10: 64 16        	stz	$16                     ; 0x2016 <f256main+0x1702>
    2f12: 26 16        	rol	$16                     ; 0x2016 <f256main+0x1702>
    2f14: 0a           	asl
    2f15: 26 16        	rol	$16                     ; 0x2016 <f256main+0x1702>
    2f17: 0a           	asl
    2f18: 26 16        	rol	$16                     ; 0x2016 <f256main+0x1702>
    2f1a: 0a           	asl
    2f1b: 26 16        	rol	$16                     ; 0x2016 <f256main+0x1702>
    2f1d: 38           	sec
    2f1e: e5 14        	sbc	$14                     ; 0x2014 <f256main+0x1700>
    2f20: 85 14        	sta	$14                     ; 0x2014 <f256main+0x1700>
    2f22: a5 16        	lda	$16                     ; 0x2016 <f256main+0x1702>
    2f24: e5 15        	sbc	$15                     ; 0x2015 <f256main+0x1701>
    2f26: 85 15        	sta	$15                     ; 0x2015 <f256main+0x1701>
    2f28: a5 19        	lda	$19                     ; 0x2019 <f256main+0x1705>
    2f2a: 18           	clc
    2f2b: 65 14        	adc	$14                     ; 0x2014 <f256main+0x1700>
    2f2d: 85 16        	sta	$16                     ; 0x2016 <f256main+0x1702>
    2f2f: 8a           	txa
    2f30: 65 15        	adc	$15                     ; 0x2015 <f256main+0x1701>
    2f32: 5a           	phy
    2f33: a4 16        	ldy	$16                     ; 0x2016 <f256main+0x1702>
    2f35: 84 14        	sty	$14                     ; 0x2014 <f256main+0x1700>
    2f37: 7a           	ply
    2f38: 85 15        	sta	$15                     ; 0x2015 <f256main+0x1701>
    2f3a: 85 17        	sta	$17                     ; 0x2017 <f256main+0x1703>
    2f3c: 18           	clc
    2f3d: a5 16        	lda	$16                     ; 0x2016 <f256main+0x1702>
    2f3f: 69 09        	adc	#$9
    2f41: 85 16        	sta	$16                     ; 0x2016 <f256main+0x1702>
    2f43: a5 17        	lda	$17                     ; 0x2017 <f256main+0x1703>
    2f45: 69 00        	adc	#$0
    2f47: 85 17        	sta	$17                     ; 0x2017 <f256main+0x1703>
    2f49: 84 1a        	sty	$1a                     ; 0x201a <f256main+0x1706>
    2f4b: a0 09        	ldy	#$9
    2f4d: b1 14        	lda	($14),y                 ; 0x2014 <f256main+0x1700>
    2f4f: 85 14        	sta	$14                     ; 0x2014 <f256main+0x1700>
    2f51: a0 01        	ldy	#$1
    2f53: b1 16        	lda	($16),y                 ; 0x2016 <f256main+0x1702>
    2f55: 85 15        	sta	$15                     ; 0x2015 <f256main+0x1701>
    2f57: a9 00        	lda	#$0
    2f59: a4 1a        	ldy	$1a                     ; 0x201a <f256main+0x1706>
    2f5b: 91 14        	sta	($14),y                 ; 0x2014 <f256main+0x1700>
    2f5d: a0 08        	ldy	#$8
    2f5f: b1 12        	lda	($12),y                 ; 0x2012 <f256main+0x16fe>
    2f61: 85 14        	sta	$14                     ; 0x2014 <f256main+0x1700>
    2f63: 0a           	asl
    2f64: 64 16        	stz	$16                     ; 0x2016 <f256main+0x1702>
    2f66: 26 16        	rol	$16                     ; 0x2016 <f256main+0x1702>
    2f68: 0a           	asl
    2f69: 26 16        	rol	$16                     ; 0x2016 <f256main+0x1702>
    2f6b: 0a           	asl
    2f6c: 26 16        	rol	$16                     ; 0x2016 <f256main+0x1702>
    2f6e: 0a           	asl
    2f6f: 26 16        	rol	$16                     ; 0x2016 <f256main+0x1702>
    2f71: 38           	sec
    2f72: e5 14        	sbc	$14                     ; 0x2014 <f256main+0x1700>
    2f74: 85 15        	sta	$15                     ; 0x2015 <f256main+0x1701>
    2f76: a5 16        	lda	$16                     ; 0x2016 <f256main+0x1702>
    2f78: e9 00        	sbc	#$0
    2f7a: 85 16        	sta	$16                     ; 0x2016 <f256main+0x1702>
    2f7c: a5 19        	lda	$19                     ; 0x2019 <f256main+0x1705>
    2f7e: 18           	clc
    2f7f: 65 15        	adc	$15                     ; 0x2015 <f256main+0x1701>
    2f81: a8           	tay
    2f82: 8a           	txa
    2f83: 65 16        	adc	$16                     ; 0x2016 <f256main+0x1702>
    2f85: 85 17        	sta	$17                     ; 0x2017 <f256main+0x1703>
    2f87: 84 16        	sty	$16                     ; 0x2016 <f256main+0x1702>
    2f89: a4 1a        	ldy	$1a                     ; 0x201a <f256main+0x1706>
    2f8b: c8           	iny
    2f8c: 98           	tya
    2f8d: a0 04        	ldy	#$4
    2f8f: d1 16        	cmp	($16),y                 ; 0x2016 <f256main+0x1702>
    2f91: 64 15        	stz	$15                     ; 0x2015 <f256main+0x1701>
    2f93: a8           	tay
    2f94: b0 03        	bcs	$2f99 <f256main+0x2685>
    2f96: 4c 0d 2f     	jmp	$2f0d <f256main+0x25f9>
    2f99: 4c 6a 2a     	jmp	$2a6a <f256main+0x2156>

00002f9c <textPrint>:
    2f9c: a6 01        	ldx	$1                      ; 0x2001 <f256main+0x16ed>
    2f9e: 86 ed        	stx	$ed                     ; 0x20ed <f256main+0x17d9>
    2fa0: a6 34        	ldx	$34                     ; 0x2034 <f256main+0x1720>
    2fa2: a0 50        	ldy	#$50
    2fa4: 8c 00 de     	sty	$de00                   ; 0xde00 <__heap_start+0x57ba>
    2fa7: 9c 01 de     	stz	$de01                   ; 0xde01 <__heap_start+0x57bb>
    2faa: 8e 02 de     	stx	$de02                   ; 0xde02 <__heap_start+0x57bc>
    2fad: 9c 03 de     	stz	$de03                   ; 0xde03 <__heap_start+0x57bd>
    2fb0: ae 10 de     	ldx	$de10                   ; 0xde10 <__heap_start+0x57ca>
    2fb3: ac 11 de     	ldy	$de11                   ; 0xde11 <__heap_start+0x57cb>
    2fb6: 84 15        	sty	$15                     ; 0x2015 <f256main+0x1701>
    2fb8: ad 12 de     	lda	$de12                   ; 0xde12 <__heap_start+0x57cc>
    2fbb: ac 13 de     	ldy	$de13                   ; 0xde13 <__heap_start+0x57cd>
    2fbe: 84 1c        	sty	$1c                     ; 0x201c <f256main+0x1708>
    2fc0: 9c 08 de     	stz	$de08                   ; 0xde08 <__heap_start+0x57c2>
    2fc3: a0 c0        	ldy	#$c0
    2fc5: 8c 09 de     	sty	$de09                   ; 0xde09 <__heap_start+0x57c3>
    2fc8: 9c 0a de     	stz	$de0a                   ; 0xde0a <__heap_start+0x57c4>
    2fcb: 9c 0b de     	stz	$de0b                   ; 0xde0b <__heap_start+0x57c5>
    2fce: 8e 0c de     	stx	$de0c                   ; 0xde0c <__heap_start+0x57c6>
    2fd1: 64 14        	stz	$14                     ; 0x2014 <f256main+0x1700>
    2fd3: a2 00        	ldx	#$0
    2fd5: 86 16        	stx	$16                     ; 0x2016 <f256main+0x1702>
    2fd7: a2 c0        	ldx	#$c0
    2fd9: 86 17        	stx	$17                     ; 0x2017 <f256main+0x1703>
    2fdb: a2 11        	ldx	#$11
    2fdd: 86 18        	stx	$18                     ; 0x2018 <f256main+0x1704>
    2fdf: a2 c9        	ldx	#$c9
    2fe1: 86 19        	stx	$19                     ; 0x2019 <f256main+0x1705>
    2fe3: a2 10        	ldx	#$10
    2fe5: 86 1a        	stx	$1a                     ; 0x201a <f256main+0x1706>
    2fe7: a2 c9        	ldx	#$c9
    2fe9: 86 1b        	stx	$1b                     ; 0x201b <f256main+0x1707>
    2feb: a6 15        	ldx	$15                     ; 0x2015 <f256main+0x1701>
    2fed: 8e 0d de     	stx	$de0d                   ; 0xde0d <__heap_start+0x57c7>
    2ff0: 8d 0e de     	sta	$de0e                   ; 0xde0e <__heap_start+0x57c8>
    2ff3: a6 1c        	ldx	$1c                     ; 0x201c <f256main+0x1708>
    2ff5: 8e 0f de     	stx	$de0f                   ; 0xde0f <__heap_start+0x57c9>
    2ff8: ac 18 de     	ldy	$de18                   ; 0xde18 <__heap_start+0x57d2>
    2ffb: ad 19 de     	lda	$de19                   ; 0xde19 <__heap_start+0x57d3>
    2ffe: ae 1a de     	ldx	$de1a                   ; 0xde1a <__heap_start+0x57d4>
    3001: ae 1b de     	ldx	$de1b                   ; 0xde1b <__heap_start+0x57d5>
    3004: 84 1c        	sty	$1c                     ; 0x201c <f256main+0x1708>
    3006: 85 1d        	sta	$1d                     ; 0x201d <f256main+0x1709>
    3008: 64 15        	stz	$15                     ; 0x2015 <f256main+0x1701>
    300a: 80 13        	bra	$301f <textPrint+0x83>
    300c: a5 1c        	lda	$1c                     ; 0x201c <f256main+0x1708>
    300e: 18           	clc
    300f: 69 50        	adc	#$50
    3011: 85 1c        	sta	$1c                     ; 0x201c <f256main+0x1708>
    3013: a5 1d        	lda	$1d                     ; 0x201d <f256main+0x1709>
    3015: 69 00        	adc	#$0
    3017: 85 1d        	sta	$1d                     ; 0x201d <f256main+0x1709>
    3019: e6 14        	inc	$14                     ; 0x2014 <f256main+0x1700>
    301b: d0 02        	bne	$301f <textPrint+0x83>
    301d: e6 15        	inc	$15                     ; 0x2015 <f256main+0x1701>
    301f: a5 12        	lda	$12                     ; 0x2012 <f256main+0x16fe>
    3021: 18           	clc
    3022: 65 14        	adc	$14                     ; 0x2014 <f256main+0x1700>
    3024: 85 1e        	sta	$1e                     ; 0x201e <f256main+0x170a>
    3026: a5 13        	lda	$13                     ; 0x2013 <f256main+0x16ff>
    3028: 65 15        	adc	$15                     ; 0x2015 <f256main+0x1701>
    302a: 85 1f        	sta	$1f                     ; 0x201f <f256main+0x170b>
    302c: b2 1e        	lda	($1e)                   ; 0x201e <f256main+0x170a>
    302e: c9 0a        	cmp	#$a
    3030: f0 26        	beq	$3058 <textPrint+0xbc>
    3032: c9 0d        	cmp	#$d
    3034: f0 22        	beq	$3058 <textPrint+0xbc>
    3036: aa           	tax
    3037: d0 03        	bne	$303c <textPrint+0xa0>
    3039: 4c 3d 31     	jmp	$313d <textPrint+0x1a1>
    303c: a2 03        	ldx	#$3
    303e: 86 01        	stx	$1                      ; 0x2001 <f256main+0x16ed>
    3040: a5 30        	lda	$30                     ; 0x2030 <f256main+0x171c>
    3042: a4 33        	ldy	$33                     ; 0x2033 <f256main+0x171f>
    3044: 91 1c        	sta	($1c),y                 ; 0x201c <f256main+0x1708>
    3046: ca           	dex
    3047: 86 01        	stx	$1                      ; 0x2001 <f256main+0x16ed>
    3049: b2 1e        	lda	($1e)                   ; 0x201e <f256main+0x170a>
    304b: a4 33        	ldy	$33                     ; 0x2033 <f256main+0x171f>
    304d: 91 1c        	sta	($1c),y                 ; 0x201c <f256main+0x1708>
    304f: a6 33        	ldx	$33                     ; 0x2033 <f256main+0x171f>
    3051: e8           	inx
    3052: e6 33        	inc	$33                     ; 0x2033 <f256main+0x171f>
    3054: e0 50        	cpx	#$50
    3056: d0 c1        	bne	$3019 <textPrint+0x7d>
    3058: 64 33        	stz	$33                     ; 0x2033 <f256main+0x171f>
    305a: a6 34        	ldx	$34                     ; 0x2034 <f256main+0x1720>
    305c: e8           	inx
    305d: e6 34        	inc	$34                     ; 0x2034 <f256main+0x1720>
    305f: e0 1e        	cpx	#$1e
    3061: f0 03        	beq	$3066 <textPrint+0xca>
    3063: 4c 0c 30     	jmp	$300c <textPrint+0x70>
    3066: a2 03        	ldx	#$3
    3068: 86 01        	stx	$1                      ; 0x2001 <f256main+0x16ed>
    306a: a2 01        	ldx	#$1
    306c: 86 1c        	stx	$1c                     ; 0x201c <f256main+0x1708>
    306e: a2 09        	ldx	#$9
    3070: a9 10        	lda	#$10
    3072: a0 00        	ldy	#$0
    3074: 84 1e        	sty	$1e                     ; 0x201e <f256main+0x170a>
    3076: a0 c0        	ldy	#$c0
    3078: 84 1f        	sty	$1f                     ; 0x201f <f256main+0x170b>
    307a: 85 1d        	sta	$1d                     ; 0x201d <f256main+0x1709>
    307c: a0 50        	ldy	#$50
    307e: b1 1e        	lda	($1e),y                 ; 0x201e <f256main+0x170a>
    3080: 92 1e        	sta	($1e)                   ; 0x201e <f256main+0x170a>
    3082: a9 ff        	lda	#$ff
    3084: c6 1d        	dec	$1d                     ; 0x201d <f256main+0x1709>
    3086: c5 1d        	cmp	$1d                     ; 0x201d <f256main+0x1709>
    3088: d0 01        	bne	$308b <textPrint+0xef>
    308a: ca           	dex
    308b: e6 1e        	inc	$1e                     ; 0x201e <f256main+0x170a>
    308d: d0 02        	bne	$3091 <textPrint+0xf5>
    308f: e6 1f        	inc	$1f                     ; 0x201f <f256main+0x170b>
    3091: 8a           	txa
    3092: d0 ea        	bne	$307e <textPrint+0xe2>
    3094: a5 1d        	lda	$1d                     ; 0x201d <f256main+0x1709>
    3096: d0 e6        	bne	$307e <textPrint+0xe2>
    3098: a2 02        	ldx	#$2
    309a: 86 01        	stx	$1                      ; 0x2001 <f256main+0x16ed>
    309c: a2 00        	ldx	#$0
    309e: a5 1c        	lda	$1c                     ; 0x201c <f256main+0x1708>
    30a0: d0 ca        	bne	$306c <textPrint+0xd0>
    30a2: a2 03        	ldx	#$3
    30a4: 86 01        	stx	$1                      ; 0x2001 <f256main+0x16ed>
    30a6: a5 30        	lda	$30                     ; 0x2030 <f256main+0x171c>
    30a8: a2 50        	ldx	#$50
    30aa: a0 11        	ldy	#$11
    30ac: 84 1c        	sty	$1c                     ; 0x201c <f256main+0x1708>
    30ae: a0 c9        	ldy	#$c9
    30b0: 84 1d        	sty	$1d                     ; 0x201d <f256main+0x1709>
    30b2: a0 10        	ldy	#$10
    30b4: 84 1e        	sty	$1e                     ; 0x201e <f256main+0x170a>
    30b6: a0 c9        	ldy	#$c9
    30b8: 84 1f        	sty	$1f                     ; 0x201f <f256main+0x170b>
    30ba: a4 1c        	ldy	$1c                     ; 0x201c <f256main+0x1708>
    30bc: 84 22        	sty	$22                     ; 0x2022 <f256main+0x170e>
    30be: a4 1d        	ldy	$1d                     ; 0x201d <f256main+0x1709>
    30c0: 84 23        	sty	$23                     ; 0x2023 <f256main+0x170f>
    30c2: 92 1e        	sta	($1e)                   ; 0x201e <f256main+0x170a>
    30c4: e6 1c        	inc	$1c                     ; 0x201c <f256main+0x1708>
    30c6: d0 02        	bne	$30ca <textPrint+0x12e>
    30c8: e6 1d        	inc	$1d                     ; 0x201d <f256main+0x1709>
    30ca: ca           	dex
    30cb: a4 22        	ldy	$22                     ; 0x2022 <f256main+0x170e>
    30cd: 84 1e        	sty	$1e                     ; 0x201e <f256main+0x170a>
    30cf: a4 23        	ldy	$23                     ; 0x2023 <f256main+0x170f>
    30d1: 84 1f        	sty	$1f                     ; 0x201f <f256main+0x170b>
    30d3: e0 00        	cpx	#$0
    30d5: d0 e3        	bne	$30ba <textPrint+0x11e>
    30d7: a2 02        	ldx	#$2
    30d9: 86 01        	stx	$1                      ; 0x2001 <f256main+0x16ed>
    30db: a2 50        	ldx	#$50
    30dd: a0 11        	ldy	#$11
    30df: 84 1c        	sty	$1c                     ; 0x201c <f256main+0x1708>
    30e1: a0 c9        	ldy	#$c9
    30e3: 84 1d        	sty	$1d                     ; 0x201d <f256main+0x1709>
    30e5: a0 10        	ldy	#$10
    30e7: 84 1e        	sty	$1e                     ; 0x201e <f256main+0x170a>
    30e9: a0 c9        	ldy	#$c9
    30eb: 84 1f        	sty	$1f                     ; 0x201f <f256main+0x170b>
    30ed: a9 20        	lda	#$20
    30ef: a4 1c        	ldy	$1c                     ; 0x201c <f256main+0x1708>
    30f1: 84 22        	sty	$22                     ; 0x2022 <f256main+0x170e>
    30f3: a4 1d        	ldy	$1d                     ; 0x201d <f256main+0x1709>
    30f5: 84 23        	sty	$23                     ; 0x2023 <f256main+0x170f>
    30f7: 92 1e        	sta	($1e)                   ; 0x201e <f256main+0x170a>
    30f9: e6 1c        	inc	$1c                     ; 0x201c <f256main+0x1708>
    30fb: d0 02        	bne	$30ff <textPrint+0x163>
    30fd: e6 1d        	inc	$1d                     ; 0x201d <f256main+0x1709>
    30ff: ca           	dex
    3100: a4 22        	ldy	$22                     ; 0x2022 <f256main+0x170e>
    3102: 84 1e        	sty	$1e                     ; 0x201e <f256main+0x170a>
    3104: a4 23        	ldy	$23                     ; 0x2023 <f256main+0x170f>
    3106: 84 1f        	sty	$1f                     ; 0x201f <f256main+0x170b>
    3108: e0 00        	cpx	#$0
    310a: d0 e3        	bne	$30ef <textPrint+0x153>
    310c: c6 34        	dec	$34                     ; 0x2034 <f256main+0x1720>
    310e: 9c 08 de     	stz	$de08                   ; 0xde08 <__heap_start+0x57c2>
    3111: a2 c0        	ldx	#$c0
    3113: 8e 09 de     	stx	$de09                   ; 0xde09 <__heap_start+0x57c3>
    3116: 9c 0a de     	stz	$de0a                   ; 0xde0a <__heap_start+0x57c4>
    3119: 9c 0b de     	stz	$de0b                   ; 0xde0b <__heap_start+0x57c5>
    311c: a2 1d        	ldx	#$1d
    311e: 8e 0c de     	stx	$de0c                   ; 0xde0c <__heap_start+0x57c6>
    3121: 9c 0d de     	stz	$de0d                   ; 0xde0d <__heap_start+0x57c7>
    3124: 9c 0e de     	stz	$de0e                   ; 0xde0e <__heap_start+0x57c8>
    3127: 9c 0f de     	stz	$de0f                   ; 0xde0f <__heap_start+0x57c9>
    312a: ae 18 de     	ldx	$de18                   ; 0xde18 <__heap_start+0x57d2>
    312d: ac 19 de     	ldy	$de19                   ; 0xde19 <__heap_start+0x57d3>
    3130: ad 1a de     	lda	$de1a                   ; 0xde1a <__heap_start+0x57d4>
    3133: ad 1b de     	lda	$de1b                   ; 0xde1b <__heap_start+0x57d5>
    3136: 86 1c        	stx	$1c                     ; 0x201c <f256main+0x1708>
    3138: 84 1d        	sty	$1d                     ; 0x201d <f256main+0x1709>
    313a: 4c 19 30     	jmp	$3019 <textPrint+0x7d>
    313d: a6 ed        	ldx	$ed                     ; 0x20ed <f256main+0x17d9>
    313f: 86 01        	stx	$1                      ; 0x2001 <f256main+0x16ed>
    3141: a6 33        	ldx	$33                     ; 0x2033 <f256main+0x171f>
    3143: a4 34        	ldy	$34                     ; 0x2034 <f256main+0x1720>
    3145: 8e 14 d0     	stx	$d014                   ; 0xd014 <__heap_start+0x49ce>
    3148: 9c 15 d0     	stz	$d015                   ; 0xd015 <__heap_start+0x49cf>
    314b: 84 34        	sty	$34                     ; 0x2034 <f256main+0x1720>
    314d: 8c 16 d0     	sty	$d016                   ; 0xd016 <__heap_start+0x49d0>
    3150: 9c 17 d0     	stz	$d017                   ; 0xd017 <__heap_start+0x49d1>
    3153: 60           	rts

00003154 <dispatchNote>:
    3154: 86 1b        	stx	$1b                     ; 0x201b <f256main+0x1707>
    3156: a6 12        	ldx	$12                     ; 0x2012 <f256main+0x16fe>
    3158: 86 1a        	stx	$1a                     ; 0x201a <f256main+0x1706>
    315a: a4 15        	ldy	$15                     ; 0x2015 <f256main+0x1701>
    315c: aa           	tax
    315d: f0 07        	beq	$3166 <dispatchNote+0x12>
    315f: a6 1a        	ldx	$1a                     ; 0x201a <f256main+0x1706>
    3161: d0 03        	bne	$3166 <dispatchNote+0x12>
    3163: 4c ca 34     	jmp	$34ca <dispatchNote+0x376>
    3166: c0 05        	cpy	#$5
    3168: 90 03        	bcc	$316d <dispatchNote+0x19>
    316a: 4c ca 34     	jmp	$34ca <dispatchNote+0x376>
    316d: 84 12        	sty	$12                     ; 0x2012 <f256main+0x16fe>
    316f: 06 12        	asl	$12                     ; 0x2012 <f256main+0x16fe>
    3171: a6 12        	ldx	$12                     ; 0x2012 <f256main+0x16fe>
    3173: 7c a5 75     	jmp	($75a5,x)               ; 0x75a5 <__set_v+0x17>
    3176: a2 b1        	ldx	#$b1
    3178: 86 1c        	stx	$1c                     ; 0x201c <f256main+0x1708>
    317a: a2 dd        	ldx	#$dd
    317c: 86 1d        	stx	$1d                     ; 0x201d <f256main+0x1709>
    317e: a2 a1        	ldx	#$a1
    3180: 86 18        	stx	$18                     ; 0x2018 <f256main+0x1704>
    3182: a2 dd        	ldx	#$dd
    3184: 86 19        	stx	$19                     ; 0x2019 <f256main+0x1705>
    3186: aa           	tax
    3187: d0 03        	bne	$318c <dispatchNote+0x38>
    3189: 4c 1d 32     	jmp	$321d <dispatchNote+0xc9>
    318c: c0 04        	cpy	#$4
    318e: f0 03        	beq	$3193 <dispatchNote+0x3f>
    3190: 4c 41 32     	jmp	$3241 <dispatchNote+0xed>
    3193: a5 1b        	lda	$1b                     ; 0x201b <f256main+0x1707>
    3195: 09 90        	ora	#$90
    3197: 8d b1 dd     	sta	$ddb1                   ; 0xddb1 <__heap_start+0x576b>
    319a: a6 1a        	ldx	$1a                     ; 0x201a <f256main+0x1706>
    319c: 8e b1 dd     	stx	$ddb1                   ; 0xddb1 <__heap_start+0x576b>
    319f: a6 13        	ldx	$13                     ; 0x2013 <f256main+0x16ff>
    31a1: 86 15        	stx	$15                     ; 0x2015 <f256main+0x1701>
    31a3: 8e b1 dd     	stx	$ddb1                   ; 0xddb1 <__heap_start+0x576b>
    31a6: a6 6a        	ldx	$6a                     ; 0x206a <f256main+0x1756>
    31a8: a4 6b        	ldy	$6b                     ; 0x206b <f256main+0x1757>
    31aa: 86 16        	stx	$16                     ; 0x2016 <f256main+0x1702>
    31ac: 84 17        	sty	$17                     ; 0x2017 <f256main+0x1703>
    31ae: a0 07        	ldy	#$7
    31b0: b1 16        	lda	($16),y                 ; 0x2016 <f256main+0x1702>
    31b2: a2 b1        	ldx	#$b1
    31b4: 86 18        	stx	$18                     ; 0x2018 <f256main+0x1704>
    31b6: a2 dd        	ldx	#$dd
    31b8: 86 19        	stx	$19                     ; 0x2019 <f256main+0x1705>
    31ba: aa           	tax
    31bb: f0 03        	beq	$31c0 <dispatchNote+0x6c>
    31bd: 4c d9 33     	jmp	$33d9 <dispatchNote+0x285>
    31c0: 4c e5 33     	jmp	$33e5 <dispatchNote+0x291>
    31c3: aa           	tax
    31c4: d0 03        	bne	$31c9 <dispatchNote+0x75>
    31c6: 4c 78 32     	jmp	$3278 <dispatchNote+0x124>
    31c9: a5 16        	lda	$16                     ; 0x2016 <f256main+0x1702>
    31cb: d0 03        	bne	$31d0 <dispatchNote+0x7c>
    31cd: 4c 5c 33     	jmp	$335c <dispatchNote+0x208>
    31d0: a5 1b        	lda	$1b                     ; 0x201b <f256main+0x1707>
    31d2: a6 1b        	ldx	$1b                     ; 0x201b <f256main+0x1707>
    31d4: c9 ff        	cmp	#$ff
    31d6: f0 03        	beq	$31db <dispatchNote+0x87>
    31d8: 4c 70 33     	jmp	$3370 <dispatchNote+0x21c>
    31db: 4c ca 34     	jmp	$34ca <dispatchNote+0x376>
    31de: aa           	tax
    31df: d0 03        	bne	$31e4 <dispatchNote+0x90>
    31e1: 4c 07 33     	jmp	$3307 <dispatchNote+0x1b3>
    31e4: a5 16        	lda	$16                     ; 0x2016 <f256main+0x1702>
    31e6: d0 03        	bne	$31eb <dispatchNote+0x97>
    31e8: 4c 7d 33     	jmp	$337d <dispatchNote+0x229>
    31eb: a4 1b        	ldy	$1b                     ; 0x201b <f256main+0x1707>
    31ed: a6 1b        	ldx	$1b                     ; 0x201b <f256main+0x1707>
    31ef: a5 1a        	lda	$1a                     ; 0x201a <f256main+0x1706>
    31f1: 9d 43 00     	sta	$43,x                   ; 0x43 <polySIDBuffer>
    31f4: a5 1b        	lda	$1b                     ; 0x201b <f256main+0x1707>
    31f6: 30 03        	bmi	$31fb <dispatchNote+0xa7>
    31f8: 4c ef 33     	jmp	$33ef <dispatchNote+0x29b>
    31fb: a2 ff        	ldx	#$ff
    31fd: 86 12        	stx	$12                     ; 0x2012 <f256main+0x16fe>
    31ff: 4c f1 33     	jmp	$33f1 <dispatchNote+0x29d>
    3202: aa           	tax
    3203: d0 03        	bne	$3208 <dispatchNote+0xb4>
    3205: 4c 17 33     	jmp	$3317 <dispatchNote+0x1c3>
    3208: a5 16        	lda	$16                     ; 0x2016 <f256main+0x1702>
    320a: d0 03        	bne	$320f <dispatchNote+0xbb>
    320c: 4c 9a 33     	jmp	$339a <dispatchNote+0x246>
    320f: a6 1b        	ldx	$1b                     ; 0x201b <f256main+0x1707>
    3211: 86 12        	stx	$12                     ; 0x2012 <f256main+0x16fe>
    3213: e0 ff        	cpx	#$ff
    3215: f0 03        	beq	$321a <dispatchNote+0xc6>
    3217: 4c b0 33     	jmp	$33b0 <dispatchNote+0x25c>
    321a: 4c ca 34     	jmp	$34ca <dispatchNote+0x376>
    321d: c0 04        	cpy	#$4
    321f: f0 03        	beq	$3224 <dispatchNote+0xd0>
    3221: 4c 34 33     	jmp	$3334 <dispatchNote+0x1e0>
    3224: 84 12        	sty	$12                     ; 0x2012 <f256main+0x16fe>
    3226: a5 1b        	lda	$1b                     ; 0x201b <f256main+0x1707>
    3228: 09 80        	ora	#$80
    322a: 8d b1 dd     	sta	$ddb1                   ; 0xddb1 <__heap_start+0x576b>
    322d: a6 1a        	ldx	$1a                     ; 0x201a <f256main+0x1706>
    322f: 8e b1 dd     	stx	$ddb1                   ; 0xddb1 <__heap_start+0x576b>
    3232: a6 13        	ldx	$13                     ; 0x2013 <f256main+0x16ff>
    3234: 8e b1 dd     	stx	$ddb1                   ; 0xddb1 <__heap_start+0x576b>
    3237: a5 14        	lda	$14                     ; 0x2014 <f256main+0x1700>
    3239: f0 03        	beq	$323e <dispatchNote+0xea>
    323b: 4c 50 33     	jmp	$3350 <dispatchNote+0x1fc>
    323e: 4c f5 35     	jmp	$35f5 <dispatchNote+0x4a1>
    3241: a5 1b        	lda	$1b                     ; 0x201b <f256main+0x1707>
    3243: 09 90        	ora	#$90
    3245: a6 1a        	ldx	$1a                     ; 0x201a <f256main+0x1706>
    3247: a4 14        	ldy	$14                     ; 0x2014 <f256main+0x1700>
    3249: d0 03        	bne	$324e <dispatchNote+0xfa>
    324b: 4c be 33     	jmp	$33be <dispatchNote+0x26a>
    324e: 8d b1 dd     	sta	$ddb1                   ; 0xddb1 <__heap_start+0x576b>
    3251: 8e b1 dd     	stx	$ddb1                   ; 0xddb1 <__heap_start+0x576b>
    3254: a4 13        	ldy	$13                     ; 0x2013 <f256main+0x16ff>
    3256: 84 15        	sty	$15                     ; 0x2015 <f256main+0x1701>
    3258: 8c b1 dd     	sty	$ddb1                   ; 0xddb1 <__heap_start+0x576b>
    325b: a5 6a        	lda	$6a                     ; 0x206a <f256main+0x1756>
    325d: a4 6b        	ldy	$6b                     ; 0x206b <f256main+0x1757>
    325f: 85 16        	sta	$16                     ; 0x2016 <f256main+0x1702>
    3261: 84 17        	sty	$17                     ; 0x2017 <f256main+0x1703>
    3263: a0 07        	ldy	#$7
    3265: b1 16        	lda	($16),y                 ; 0x2016 <f256main+0x1702>
    3267: a2 b1        	ldx	#$b1
    3269: 86 18        	stx	$18                     ; 0x2018 <f256main+0x1704>
    326b: a2 dd        	ldx	#$dd
    326d: 86 19        	stx	$19                     ; 0x2019 <f256main+0x1705>
    326f: aa           	tax
    3270: f0 03        	beq	$3275 <dispatchNote+0x121>
    3272: 4c d9 33     	jmp	$33d9 <dispatchNote+0x285>
    3275: 4c e9 33     	jmp	$33e9 <dispatchNote+0x295>
    3278: a2 00        	ldx	#$0
    327a: a5 1a        	lda	$1a                     ; 0x201a <f256main+0x1706>
    327c: 85 12        	sta	$12                     ; 0x2012 <f256main+0x16fe>
    327e: b4 4f        	ldy	$4f,x                   ; 0x204f <f256main+0x173b>
    3280: c4 12        	cpy	$12                     ; 0x2012 <f256main+0x16fe>
    3282: f0 07        	beq	$328b <dispatchNote+0x137>
    3284: e8           	inx
    3285: e0 09        	cpx	#$9
    3287: d0 f5        	bne	$327e <dispatchNote+0x12a>
    3289: a2 ff        	ldx	#$ff
    328b: 86 91        	stx	$91                     ; 0x2091 <f256main+0x177d>
    328d: 18           	clc
    328e: 69 05        	adc	#$5
    3290: 64 13        	stz	$13                     ; 0x2013 <f256main+0x16ff>
    3292: 85 16        	sta	$16                     ; 0x2016 <f256main+0x1702>
    3294: a9 00        	lda	#$0
    3296: 69 00        	adc	#$0
    3298: a2 8d        	ldx	#$8d
    329a: a0 00        	ldy	#$0
    329c: 86 14        	stx	$14                     ; 0x2014 <f256main+0x1700>
    329e: 84 15        	sty	$15                     ; 0x2015 <f256main+0x1701>
    32a0: a2 0c        	ldx	#$c
    32a2: 86 12        	stx	$12                     ; 0x2012 <f256main+0x16fe>
    32a4: aa           	tax
    32a5: a5 16        	lda	$16                     ; 0x2016 <f256main+0x1702>
    32a7: 20 52 65     	jsr	$6552 <__udivmodhi4>
    32aa: aa           	tax
    32ab: a4 8d        	ldy	$8d                     ; 0x208d <f256main+0x1779>
    32ad: 84 12        	sty	$12                     ; 0x2012 <f256main+0x16fe>
    32af: a5 8e        	lda	$8e                     ; 0x208e <f256main+0x177a>
    32b1: a0 01        	ldy	#$1
    32b3: 06 12        	asl	$12                     ; 0x2012 <f256main+0x16fe>
    32b5: 2a           	rol
    32b6: 85 13        	sta	$13                     ; 0x2013 <f256main+0x16ff>
    32b8: a9 ef        	lda	#$ef
    32ba: 18           	clc
    32bb: 65 12        	adc	$12                     ; 0x2012 <f256main+0x16fe>
    32bd: 85 12        	sta	$12                     ; 0x2012 <f256main+0x16fe>
    32bf: a9 82        	lda	#$82
    32c1: 65 13        	adc	$13                     ; 0x2013 <f256main+0x16ff>
    32c3: 85 13        	sta	$13                     ; 0x2013 <f256main+0x16ff>
    32c5: b2 12        	lda	($12)                   ; 0x2012 <f256main+0x16fe>
    32c7: 85 14        	sta	$14                     ; 0x2014 <f256main+0x1700>
    32c9: b1 12        	lda	($12),y                 ; 0x2012 <f256main+0x16fe>
    32cb: 85 13        	sta	$13                     ; 0x2013 <f256main+0x16ff>
    32cd: 18           	clc
    32ce: 8a           	txa
    32cf: 69 3e        	adc	#$3e
    32d1: a8           	tay
    32d2: a6 91        	ldx	$91                     ; 0x2091 <f256main+0x177d>
    32d4: 86 12        	stx	$12                     ; 0x2012 <f256main+0x16fe>
    32d6: 8a           	txa
    32d7: 09 a0        	ora	#$a0
    32d9: 8d 80 d5     	sta	$d580                   ; 0xd580 <__heap_start+0x4f3a>
    32dc: a5 14        	lda	$14                     ; 0x2014 <f256main+0x1700>
    32de: 8d 81 d5     	sta	$d581                   ; 0xd581 <__heap_start+0x4f3b>
    32e1: 8a           	txa
    32e2: 09 b0        	ora	#$b0
    32e4: 85 14        	sta	$14                     ; 0x2014 <f256main+0x1700>
    32e6: a5 13        	lda	$13                     ; 0x2013 <f256main+0x16ff>
    32e8: 29 03        	and	#$3
    32ea: 85 13        	sta	$13                     ; 0x2013 <f256main+0x16ff>
    32ec: 98           	tya
    32ed: 0a           	asl
    32ee: a6 14        	ldx	$14                     ; 0x2014 <f256main+0x1700>
    32f0: 8e 80 d5     	stx	$d580                   ; 0xd580 <__heap_start+0x4f3a>
    32f3: 0a           	asl
    32f4: 05 13        	ora	$13                     ; 0x2013 <f256main+0x16ff>
    32f6: 8d 81 d5     	sta	$d581                   ; 0xd581 <__heap_start+0x4f3b>
    32f9: a5 12        	lda	$12                     ; 0x2012 <f256main+0x16fe>
    32fb: 30 03        	bmi	$3300 <dispatchNote+0x1ac>
    32fd: 4c b0 34     	jmp	$34b0 <dispatchNote+0x35c>
    3300: a2 ff        	ldx	#$ff
    3302: 86 13        	stx	$13                     ; 0x2013 <f256main+0x16ff>
    3304: 4c b2 34     	jmp	$34b2 <dispatchNote+0x35e>
    3307: a5 16        	lda	$16                     ; 0x2016 <f256main+0x1702>
    3309: d0 03        	bne	$330e <dispatchNote+0x1ba>
    330b: 4c cd 35     	jmp	$35cd <dispatchNote+0x479>
    330e: a5 1b        	lda	$1b                     ; 0x201b <f256main+0x1707>
    3310: a6 1b        	ldx	$1b                     ; 0x201b <f256main+0x1707>
    3312: 74 43        	stz	$43,x                   ; 0x2043 <f256main+0x172f>
    3314: 4c 50 36     	jmp	$3650 <dispatchNote+0x4fc>
    3317: a0 d6        	ldy	#$d6
    3319: a2 00        	ldx	#$0
    331b: a5 1a        	lda	$1a                     ; 0x201a <f256main+0x1706>
    331d: 85 12        	sta	$12                     ; 0x2012 <f256main+0x16fe>
    331f: b5 37        	lda	$37,x                   ; 0x2037 <f256main+0x1723>
    3321: c5 12        	cmp	$12                     ; 0x2012 <f256main+0x16fe>
    3323: d0 03        	bne	$3328 <dispatchNote+0x1d4>
    3325: 4c 93 34     	jmp	$3493 <dispatchNote+0x33f>
    3328: e8           	inx
    3329: e0 06        	cpx	#$6
    332b: d0 f2        	bne	$331f <dispatchNote+0x1cb>
    332d: 64 12        	stz	$12                     ; 0x2012 <f256main+0x16fe>
    332f: 64 36        	stz	$36                     ; 0x2036 <f256main+0x1722>
    3331: 4c a2 34     	jmp	$34a2 <dispatchNote+0x34e>
    3334: 84 12        	sty	$12                     ; 0x2012 <f256main+0x16fe>
    3336: a5 1b        	lda	$1b                     ; 0x201b <f256main+0x1707>
    3338: 09 80        	ora	#$80
    333a: a6 1a        	ldx	$1a                     ; 0x201a <f256main+0x1706>
    333c: a4 13        	ldy	$13                     ; 0x2013 <f256main+0x16ff>
    333e: e6 14        	inc	$14                     ; 0x2014 <f256main+0x1700>
    3340: c6 14        	dec	$14                     ; 0x2014 <f256main+0x1700>
    3342: d0 03        	bne	$3347 <dispatchNote+0x1f3>
    3344: 4c ec 35     	jmp	$35ec <dispatchNote+0x498>
    3347: 8d b1 dd     	sta	$ddb1                   ; 0xddb1 <__heap_start+0x576b>
    334a: 8e b1 dd     	stx	$ddb1                   ; 0xddb1 <__heap_start+0x576b>
    334d: 8c b1 dd     	sty	$ddb1                   ; 0xddb1 <__heap_start+0x576b>
    3350: a5 66        	lda	$66                     ; 0x2066 <f256main+0x1752>
    3352: b8           	clv
    3353: a2 66        	ldx	#$66
    3355: 86 16        	stx	$16                     ; 0x2016 <f256main+0x1702>
    3357: a2 00        	ldx	#$0
    3359: 4c 00 36     	jmp	$3600 <dispatchNote+0x4ac>
    335c: a2 00        	ldx	#$0
    335e: 80 08        	bra	$3368 <dispatchNote+0x214>
    3360: e8           	inx
    3361: e0 09        	cpx	#$9
    3363: d0 03        	bne	$3368 <dispatchNote+0x214>
    3365: 4c ca 34     	jmp	$34ca <dispatchNote+0x376>
    3368: b4 58        	ldy	$58,x                   ; 0x2058 <f256main+0x1744>
    336a: d0 f4        	bne	$3360 <dispatchNote+0x20c>
    336c: b4 4f        	ldy	$4f,x                   ; 0x204f <f256main+0x173b>
    336e: d0 f0        	bne	$3360 <dispatchNote+0x20c>
    3370: 8a           	txa
    3371: 30 03        	bmi	$3376 <dispatchNote+0x222>
    3373: 4c cb 34     	jmp	$34cb <dispatchNote+0x377>
    3376: 86 91        	stx	$91                     ; 0x2091 <f256main+0x177d>
    3378: a2 ff        	ldx	#$ff
    337a: 4c cf 34     	jmp	$34cf <dispatchNote+0x37b>
    337d: a2 00        	ldx	#$0
    337f: 80 08        	bra	$3389 <dispatchNote+0x235>
    3381: e8           	inx
    3382: e0 06        	cpx	#$6
    3384: d0 03        	bne	$3389 <dispatchNote+0x235>
    3386: 4c ca 34     	jmp	$34ca <dispatchNote+0x376>
    3389: b4 49        	ldy	$49,x                   ; 0x2049 <f256main+0x1735>
    338b: d0 f4        	bne	$3381 <dispatchNote+0x22d>
    338d: b4 43        	ldy	$43,x                   ; 0x2043 <f256main+0x172f>
    338f: d0 f0        	bne	$3381 <dispatchNote+0x22d>
    3391: 64 12        	stz	$12                     ; 0x2012 <f256main+0x16fe>
    3393: 86 13        	stx	$13                     ; 0x2013 <f256main+0x16ff>
    3395: 86 1b        	stx	$1b                     ; 0x201b <f256main+0x1707>
    3397: 4c fa 33     	jmp	$33fa <dispatchNote+0x2a6>
    339a: a2 00        	ldx	#$0
    339c: 80 08        	bra	$33a6 <dispatchNote+0x252>
    339e: e8           	inx
    339f: e0 06        	cpx	#$6
    33a1: d0 03        	bne	$33a6 <dispatchNote+0x252>
    33a3: 4c ca 34     	jmp	$34ca <dispatchNote+0x376>
    33a6: b4 3d        	ldy	$3d,x                   ; 0x203d <f256main+0x1729>
    33a8: d0 f4        	bne	$339e <dispatchNote+0x24a>
    33aa: b4 37        	ldy	$37,x                   ; 0x2037 <f256main+0x1723>
    33ac: d0 f0        	bne	$339e <dispatchNote+0x24a>
    33ae: 86 12        	stx	$12                     ; 0x2012 <f256main+0x16fe>
    33b0: a5 12        	lda	$12                     ; 0x2012 <f256main+0x16fe>
    33b2: 30 03        	bmi	$33b7 <dispatchNote+0x263>
    33b4: 4c 5d 35     	jmp	$355d <dispatchNote+0x409>
    33b7: a2 ff        	ldx	#$ff
    33b9: 86 18        	stx	$18                     ; 0x2018 <f256main+0x1704>
    33bb: 4c 5f 35     	jmp	$355f <dispatchNote+0x40b>
    33be: 8d a1 dd     	sta	$dda1                   ; 0xdda1 <__heap_start+0x575b>
    33c1: 8e a1 dd     	stx	$dda1                   ; 0xdda1 <__heap_start+0x575b>
    33c4: a4 13        	ldy	$13                     ; 0x2013 <f256main+0x16ff>
    33c6: 84 15        	sty	$15                     ; 0x2015 <f256main+0x1701>
    33c8: 8c a1 dd     	sty	$dda1                   ; 0xdda1 <__heap_start+0x575b>
    33cb: a5 6a        	lda	$6a                     ; 0x206a <f256main+0x1756>
    33cd: a4 6b        	ldy	$6b                     ; 0x206b <f256main+0x1757>
    33cf: 85 12        	sta	$12                     ; 0x2012 <f256main+0x16fe>
    33d1: 84 13        	sty	$13                     ; 0x2013 <f256main+0x16ff>
    33d3: a0 07        	ldy	#$7
    33d5: b1 12        	lda	($12),y                 ; 0x2012 <f256main+0x16fe>
    33d7: f0 0c        	beq	$33e5 <dispatchNote+0x291>
    33d9: a9 91        	lda	#$91
    33db: 92 18        	sta	($18)                   ; 0x2018 <f256main+0x1704>
    33dd: a5 1a        	lda	$1a                     ; 0x201a <f256main+0x1706>
    33df: 92 18        	sta	($18)                   ; 0x2018 <f256main+0x1704>
    33e1: a5 15        	lda	$15                     ; 0x2015 <f256main+0x1701>
    33e3: 92 18        	sta	($18)                   ; 0x2018 <f256main+0x1704>
    33e5: a5 14        	lda	$14                     ; 0x2014 <f256main+0x1700>
    33e7: f0 03        	beq	$33ec <dispatchNote+0x298>
    33e9: e6 66        	inc	$66                     ; 0x2066 <f256main+0x1752>
    33eb: 60           	rts
    33ec: e6 65        	inc	$65                     ; 0x2065 <f256main+0x1751>
    33ee: 60           	rts
    33ef: 64 12        	stz	$12                     ; 0x2012 <f256main+0x16fe>
    33f1: 84 13        	sty	$13                     ; 0x2013 <f256main+0x16ff>
    33f3: c0 ff        	cpy	#$ff
    33f5: d0 03        	bne	$33fa <dispatchNote+0x2a6>
    33f7: 4c ca 34     	jmp	$34ca <dispatchNote+0x376>
    33fa: 38           	sec
    33fb: a5 1b        	lda	$1b                     ; 0x201b <f256main+0x1707>
    33fd: e9 03        	sbc	#$3
    33ff: 50 02        	bvc	$3403 <dispatchNote+0x2af>
    3401: 49 80        	eor	#$80
    3403: a2 d5        	ldx	#$d5
    3405: a8           	tay
    3406: 10 02        	bpl	$340a <dispatchNote+0x2b6>
    3408: a2 d4        	ldx	#$d4
    340a: a9 91        	lda	#$91
    340c: 18           	clc
    340d: 65 13        	adc	$13                     ; 0x2013 <f256main+0x16ff>
    340f: 85 14        	sta	$14                     ; 0x2014 <f256main+0x1700>
    3411: a9 82        	lda	#$82
    3413: 65 12        	adc	$12                     ; 0x2012 <f256main+0x16fe>
    3415: 85 15        	sta	$15                     ; 0x2015 <f256main+0x1701>
    3417: b2 14        	lda	($14)                   ; 0x2014 <f256main+0x1700>
    3419: 86 19        	stx	$19                     ; 0x2019 <f256main+0x1705>
    341b: a6 1a        	ldx	$1a                     ; 0x201a <f256main+0x1706>
    341d: bc 7c 83     	ldy	$837c,x                 ; 0x837c <psgHigh+0x35>
    3420: 85 14        	sta	$14                     ; 0x2014 <f256main+0x1700>
    3422: 85 1c        	sta	$1c                     ; 0x201c <f256main+0x1708>
    3424: a5 19        	lda	$19                     ; 0x2019 <f256main+0x1705>
    3426: 85 15        	sta	$15                     ; 0x2015 <f256main+0x1701>
    3428: 98           	tya
    3429: 92 14        	sta	($14)                   ; 0x2014 <f256main+0x1700>
    342b: bc 01 7a     	ldy	$7a01,x                 ; 0x7a01 <__set_v+0x473>
    342e: a6 19        	ldx	$19                     ; 0x2019 <f256main+0x1705>
    3430: a5 1c        	lda	$1c                     ; 0x201c <f256main+0x1708>
    3432: 85 18        	sta	$18                     ; 0x2018 <f256main+0x1704>
    3434: e6 18        	inc	$18                     ; 0x2018 <f256main+0x1704>
    3436: d0 01        	bne	$3439 <dispatchNote+0x2e5>
    3438: e8           	inx
    3439: 86 19        	stx	$19                     ; 0x2019 <f256main+0x1705>
    343b: 98           	tya
    343c: 92 18        	sta	($18)                   ; 0x2018 <f256main+0x1704>
    343e: a5 16        	lda	$16                     ; 0x2016 <f256main+0x1702>
    3440: d0 0e        	bne	$3450 <dispatchNote+0x2fc>
    3442: a6 6a        	ldx	$6a                     ; 0x206a <f256main+0x1756>
    3444: a4 6b        	ldy	$6b                     ; 0x206b <f256main+0x1757>
    3446: 86 16        	stx	$16                     ; 0x2016 <f256main+0x1702>
    3448: 84 17        	sty	$17                     ; 0x2017 <f256main+0x1703>
    344a: a0 03        	ldy	#$3
    344c: b1 16        	lda	($16),y                 ; 0x2016 <f256main+0x1702>
    344e: 85 17        	sta	$17                     ; 0x2017 <f256main+0x1703>
    3450: 64 18        	stz	$18                     ; 0x2018 <f256main+0x1704>
    3452: a5 17        	lda	$17                     ; 0x2017 <f256main+0x1703>
    3454: 0a           	asl
    3455: 26 18        	rol	$18                     ; 0x2018 <f256main+0x1704>
    3457: 0a           	asl
    3458: 26 18        	rol	$18                     ; 0x2018 <f256main+0x1704>
    345a: 0a           	asl
    345b: 26 18        	rol	$18                     ; 0x2018 <f256main+0x1704>
    345d: 18           	clc
    345e: 65 17        	adc	$17                     ; 0x2017 <f256main+0x1703>
    3460: 85 16        	sta	$16                     ; 0x2016 <f256main+0x1702>
    3462: a5 18        	lda	$18                     ; 0x2018 <f256main+0x1704>
    3464: 69 00        	adc	#$0
    3466: 85 17        	sta	$17                     ; 0x2017 <f256main+0x1703>
    3468: a9 cf        	lda	#$cf
    346a: 18           	clc
    346b: 65 16        	adc	$16                     ; 0x2016 <f256main+0x1702>
    346d: 85 16        	sta	$16                     ; 0x2016 <f256main+0x1702>
    346f: a9 84        	lda	#$84
    3471: 65 17        	adc	$17                     ; 0x2017 <f256main+0x1703>
    3473: 85 17        	sta	$17                     ; 0x2017 <f256main+0x1703>
    3475: a0 05        	ldy	#$5
    3477: a9 01        	lda	#$1
    3479: 11 16        	ora	($16),y                 ; 0x2016 <f256main+0x1702>
    347b: 88           	dey
    347c: 91 14        	sta	($14),y                 ; 0x2014 <f256main+0x1700>
    347e: e6 67        	inc	$67                     ; 0x2067 <f256main+0x1753>
    3480: a9 43        	lda	#$43
    3482: 18           	clc
    3483: 65 13        	adc	$13                     ; 0x2013 <f256main+0x16ff>
    3485: aa           	tax
    3486: a9 00        	lda	#$0
    3488: 65 12        	adc	$12                     ; 0x2012 <f256main+0x16fe>
    348a: 86 12        	stx	$12                     ; 0x2012 <f256main+0x16fe>
    348c: 85 13        	sta	$13                     ; 0x2013 <f256main+0x16ff>
    348e: a5 1a        	lda	$1a                     ; 0x201a <f256main+0x1706>
    3490: 92 12        	sta	($12)                   ; 0x2012 <f256main+0x16fe>
    3492: 60           	rts
    3493: 64 12        	stz	$12                     ; 0x2012 <f256main+0x16fe>
    3495: 74 37        	stz	$37,x                   ; 0x2037 <f256main+0x1723>
    3497: bd 8b 82     	lda	$828b,x                 ; 0x828b <polyPSGChanBits>
    349a: e0 03        	cpx	#$3
    349c: 90 04        	bcc	$34a2 <dispatchNote+0x34e>
    349e: a2 10        	ldx	#$10
    34a0: 86 12        	stx	$12                     ; 0x2012 <f256main+0x16fe>
    34a2: 84 13        	sty	$13                     ; 0x2013 <f256main+0x16ff>
    34a4: 09 9f        	ora	#$9f
    34a6: 92 12        	sta	($12)                   ; 0x2012 <f256main+0x16fe>
    34a8: a6 68        	ldx	$68                     ; 0x2068 <f256main+0x1754>
    34aa: f0 1e        	beq	$34ca <dispatchNote+0x376>
    34ac: ca           	dex
    34ad: 86 68        	stx	$68                     ; 0x2068 <f256main+0x1754>
    34af: 60           	rts
    34b0: 64 13        	stz	$13                     ; 0x2013 <f256main+0x16ff>
    34b2: a9 4f        	lda	#$4f
    34b4: 18           	clc
    34b5: 65 12        	adc	$12                     ; 0x2012 <f256main+0x16fe>
    34b7: 85 12        	sta	$12                     ; 0x2012 <f256main+0x16fe>
    34b9: a9 00        	lda	#$0
    34bb: 65 13        	adc	$13                     ; 0x2013 <f256main+0x16ff>
    34bd: 85 13        	sta	$13                     ; 0x2013 <f256main+0x16ff>
    34bf: a9 00        	lda	#$0
    34c1: 92 12        	sta	($12)                   ; 0x2012 <f256main+0x16fe>
    34c3: a6 69        	ldx	$69                     ; 0x2069 <f256main+0x1755>
    34c5: f0 03        	beq	$34ca <dispatchNote+0x376>
    34c7: ca           	dex
    34c8: 86 69        	stx	$69                     ; 0x2069 <f256main+0x1755>
    34ca: 60           	rts
    34cb: 86 91        	stx	$91                     ; 0x2091 <f256main+0x177d>
    34cd: a2 00        	ldx	#$0
    34cf: 86 92        	stx	$92                     ; 0x2092 <f256main+0x177e>
    34d1: 18           	clc
    34d2: a6 1a        	ldx	$1a                     ; 0x201a <f256main+0x1706>
    34d4: 86 93        	stx	$93                     ; 0x2093 <f256main+0x177f>
    34d6: a5 1a        	lda	$1a                     ; 0x201a <f256main+0x1706>
    34d8: 69 05        	adc	#$5
    34da: 85 16        	sta	$16                     ; 0x2016 <f256main+0x1702>
    34dc: 64 13        	stz	$13                     ; 0x2013 <f256main+0x16ff>
    34de: a9 00        	lda	#$0
    34e0: 69 00        	adc	#$0
    34e2: a2 8f        	ldx	#$8f
    34e4: a0 00        	ldy	#$0
    34e6: 86 14        	stx	$14                     ; 0x2014 <f256main+0x1700>
    34e8: 84 15        	sty	$15                     ; 0x2015 <f256main+0x1701>
    34ea: a2 0c        	ldx	#$c
    34ec: 86 12        	stx	$12                     ; 0x2012 <f256main+0x16fe>
    34ee: aa           	tax
    34ef: a5 16        	lda	$16                     ; 0x2016 <f256main+0x1702>
    34f1: 20 52 65     	jsr	$6552 <__udivmodhi4>
    34f4: aa           	tax
    34f5: a4 8f        	ldy	$8f                     ; 0x208f <f256main+0x177b>
    34f7: 84 12        	sty	$12                     ; 0x2012 <f256main+0x16fe>
    34f9: a5 90        	lda	$90                     ; 0x2090 <f256main+0x177c>
    34fb: 06 12        	asl	$12                     ; 0x2012 <f256main+0x16fe>
    34fd: 2a           	rol
    34fe: 85 13        	sta	$13                     ; 0x2013 <f256main+0x16ff>
    3500: a9 ef        	lda	#$ef
    3502: 18           	clc
    3503: 65 12        	adc	$12                     ; 0x2012 <f256main+0x16fe>
    3505: 85 14        	sta	$14                     ; 0x2014 <f256main+0x1700>
    3507: a9 82        	lda	#$82
    3509: 65 13        	adc	$13                     ; 0x2013 <f256main+0x16ff>
    350b: a0 01        	ldy	#$1
    350d: 85 15        	sta	$15                     ; 0x2015 <f256main+0x1701>
    350f: b1 14        	lda	($14),y                 ; 0x2014 <f256main+0x1700>
    3511: 85 13        	sta	$13                     ; 0x2013 <f256main+0x16ff>
    3513: 18           	clc
    3514: 8a           	txa
    3515: 69 3e        	adc	#$3e
    3517: 85 16        	sta	$16                     ; 0x2016 <f256main+0x1702>
    3519: a6 91        	ldx	$91                     ; 0x2091 <f256main+0x177d>
    351b: 86 12        	stx	$12                     ; 0x2012 <f256main+0x16fe>
    351d: 8a           	txa
    351e: 09 a0        	ora	#$a0
    3520: a8           	tay
    3521: b2 14        	lda	($14)                   ; 0x2014 <f256main+0x1700>
    3523: 8c 80 d5     	sty	$d580                   ; 0xd580 <__heap_start+0x4f3a>
    3526: 8d 81 d5     	sta	$d581                   ; 0xd581 <__heap_start+0x4f3b>
    3529: 8a           	txa
    352a: 09 b0        	ora	#$b0
    352c: 85 14        	sta	$14                     ; 0x2014 <f256main+0x1700>
    352e: a5 13        	lda	$13                     ; 0x2013 <f256main+0x16ff>
    3530: 29 03        	and	#$3
    3532: 85 13        	sta	$13                     ; 0x2013 <f256main+0x16ff>
    3534: a5 16        	lda	$16                     ; 0x2016 <f256main+0x1702>
    3536: 0a           	asl
    3537: 0a           	asl
    3538: 05 13        	ora	$13                     ; 0x2013 <f256main+0x16ff>
    353a: 09 20        	ora	#$20
    353c: a6 14        	ldx	$14                     ; 0x2014 <f256main+0x1700>
    353e: 8e 80 d5     	stx	$d580                   ; 0xd580 <__heap_start+0x4f3a>
    3541: 8d 81 d5     	sta	$d581                   ; 0xd581 <__heap_start+0x4f3b>
    3544: a9 4f        	lda	#$4f
    3546: 18           	clc
    3547: 65 12        	adc	$12                     ; 0x2012 <f256main+0x16fe>
    3549: a8           	tay
    354a: a6 92        	ldx	$92                     ; 0x2092 <f256main+0x177e>
    354c: 86 12        	stx	$12                     ; 0x2012 <f256main+0x16fe>
    354e: a9 00        	lda	#$0
    3550: 65 12        	adc	$12                     ; 0x2012 <f256main+0x16fe>
    3552: 84 12        	sty	$12                     ; 0x2012 <f256main+0x16fe>
    3554: 85 13        	sta	$13                     ; 0x2013 <f256main+0x16ff>
    3556: a5 93        	lda	$93                     ; 0x2093 <f256main+0x177f>
    3558: 92 12        	sta	($12)                   ; 0x2012 <f256main+0x16fe>
    355a: e6 69        	inc	$69                     ; 0x2069 <f256main+0x1755>
    355c: 60           	rts
    355d: 64 18        	stz	$18                     ; 0x2018 <f256main+0x1704>
    355f: a9 8b        	lda	#$8b
    3561: 18           	clc
    3562: 65 12        	adc	$12                     ; 0x2012 <f256main+0x16fe>
    3564: 85 14        	sta	$14                     ; 0x2014 <f256main+0x1700>
    3566: a9 82        	lda	#$82
    3568: 65 18        	adc	$18                     ; 0x2018 <f256main+0x1704>
    356a: 85 15        	sta	$15                     ; 0x2015 <f256main+0x1701>
    356c: b2 14        	lda	($14)                   ; 0x2014 <f256main+0x1700>
    356e: a8           	tay
    356f: 85 14        	sta	$14                     ; 0x2014 <f256main+0x1700>
    3571: a5 12        	lda	$12                     ; 0x2012 <f256main+0x16fe>
    3573: 38           	sec
    3574: e9 03        	sbc	#$3
    3576: 85 19        	sta	$19                     ; 0x2019 <f256main+0x1705>
    3578: 50 04        	bvc	$357e <dispatchNote+0x42a>
    357a: 49 80        	eor	#$80
    357c: 85 19        	sta	$19                     ; 0x2019 <f256main+0x1705>
    357e: a2 10        	ldx	#$10
    3580: 86 16        	stx	$16                     ; 0x2016 <f256main+0x1702>
    3582: a2 d6        	ldx	#$d6
    3584: 86 17        	stx	$17                     ; 0x2017 <f256main+0x1703>
    3586: a6 1a        	ldx	$1a                     ; 0x201a <f256main+0x1706>
    3588: a5 13        	lda	$13                     ; 0x2013 <f256main+0x16ff>
    358a: 4a           	lsr
    358b: 4a           	lsr
    358c: 4a           	lsr
    358d: 49 0f        	eor	#$f
    358f: 85 15        	sta	$15                     ; 0x2015 <f256main+0x1701>
    3591: bd da 82     	lda	$82da,x                 ; 0x82da <noteColors+0x43>
    3594: 85 1b        	sta	$1b                     ; 0x201b <f256main+0x1707>
    3596: bd 1a 83     	lda	$831a,x                 ; 0x831a <psgLow+0x13>
    3599: aa           	tax
    359a: 86 13        	stx	$13                     ; 0x2013 <f256main+0x16ff>
    359c: 98           	tya
    359d: 05 15        	ora	$15                     ; 0x2015 <f256main+0x1701>
    359f: 09 90        	ora	#$90
    35a1: a6 19        	ldx	$19                     ; 0x2019 <f256main+0x1705>
    35a3: 10 08        	bpl	$35ad <dispatchNote+0x459>
    35a5: a2 00        	ldx	#$0
    35a7: 86 16        	stx	$16                     ; 0x2016 <f256main+0x1702>
    35a9: a2 d6        	ldx	#$d6
    35ab: 86 17        	stx	$17                     ; 0x2017 <f256main+0x1703>
    35ad: 92 16        	sta	($16)                   ; 0x2016 <f256main+0x1702>
    35af: a5 1b        	lda	$1b                     ; 0x201b <f256main+0x1707>
    35b1: 05 14        	ora	$14                     ; 0x2014 <f256main+0x1700>
    35b3: 92 16        	sta	($16)                   ; 0x2016 <f256main+0x1702>
    35b5: a5 13        	lda	$13                     ; 0x2013 <f256main+0x16ff>
    35b7: 92 16        	sta	($16)                   ; 0x2016 <f256main+0x1702>
    35b9: a9 37        	lda	#$37
    35bb: 18           	clc
    35bc: 65 12        	adc	$12                     ; 0x2012 <f256main+0x16fe>
    35be: 85 12        	sta	$12                     ; 0x2012 <f256main+0x16fe>
    35c0: a9 00        	lda	#$0
    35c2: 65 18        	adc	$18                     ; 0x2018 <f256main+0x1704>
    35c4: 85 13        	sta	$13                     ; 0x2013 <f256main+0x16ff>
    35c6: a5 1a        	lda	$1a                     ; 0x201a <f256main+0x1706>
    35c8: 92 12        	sta	($12)                   ; 0x2012 <f256main+0x16fe>
    35ca: e6 68        	inc	$68                     ; 0x2068 <f256main+0x1754>
    35cc: 60           	rts
    35cd: a2 00        	ldx	#$0
    35cf: a4 1a        	ldy	$1a                     ; 0x201a <f256main+0x1706>
    35d1: 84 12        	sty	$12                     ; 0x2012 <f256main+0x16fe>
    35d3: b4 43        	ldy	$43,x                   ; 0x2043 <f256main+0x172f>
    35d5: c4 12        	cpy	$12                     ; 0x2012 <f256main+0x16fe>
    35d7: d0 03        	bne	$35dc <dispatchNote+0x488>
    35d9: 4c 4f 36     	jmp	$364f <dispatchNote+0x4fb>
    35dc: e8           	inx
    35dd: e0 06        	cpx	#$6
    35df: d0 f2        	bne	$35d3 <dispatchNote+0x47f>
    35e1: a2 d4        	ldx	#$d4
    35e3: a0 ff        	ldy	#$ff
    35e5: 84 13        	sty	$13                     ; 0x2013 <f256main+0x16ff>
    35e7: 84 12        	sty	$12                     ; 0x2012 <f256main+0x16fe>
    35e9: 4c 6b 36     	jmp	$366b <dispatchNote+0x517>
    35ec: 8d a1 dd     	sta	$dda1                   ; 0xdda1 <__heap_start+0x575b>
    35ef: 8e a1 dd     	stx	$dda1                   ; 0xdda1 <__heap_start+0x575b>
    35f2: 8c a1 dd     	sty	$dda1                   ; 0xdda1 <__heap_start+0x575b>
    35f5: a5 65        	lda	$65                     ; 0x2065 <f256main+0x1751>
    35f7: 2c 8e 75     	bit	$758e                   ; 0x758e <__set_v>
    35fa: a2 65        	ldx	#$65
    35fc: 86 16        	stx	$16                     ; 0x2016 <f256main+0x1702>
    35fe: a2 00        	ldx	#$0
    3600: 86 17        	stx	$17                     ; 0x2017 <f256main+0x1703>
    3602: aa           	tax
    3603: f0 03        	beq	$3608 <dispatchNote+0x4b4>
    3605: 3a           	dec
    3606: 92 16        	sta	($16)                   ; 0x2016 <f256main+0x1702>
    3608: a6 6a        	ldx	$6a                     ; 0x206a <f256main+0x1756>
    360a: a5 6b        	lda	$6b                     ; 0x206b <f256main+0x1757>
    360c: 86 16        	stx	$16                     ; 0x2016 <f256main+0x1702>
    360e: 85 17        	sta	$17                     ; 0x2017 <f256main+0x1703>
    3610: a0 07        	ldy	#$7
    3612: b1 16        	lda	($16),y                 ; 0x2016 <f256main+0x1702>
    3614: d0 03        	bne	$3619 <dispatchNote+0x4c5>
    3616: 4c ca 34     	jmp	$34ca <dispatchNote+0x376>
    3619: a6 12        	ldx	$12                     ; 0x2012 <f256main+0x16fe>
    361b: e0 04        	cpx	#$4
    361d: f0 0c        	beq	$362b <dispatchNote+0x4d7>
    361f: a5 14        	lda	$14                     ; 0x2014 <f256main+0x1700>
    3621: d0 08        	bne	$362b <dispatchNote+0x4d7>
    3623: a2 a1        	ldx	#$a1
    3625: 86 1c        	stx	$1c                     ; 0x201c <f256main+0x1708>
    3627: a2 dd        	ldx	#$dd
    3629: 86 1d        	stx	$1d                     ; 0x201d <f256main+0x1709>
    362b: a9 81        	lda	#$81
    362d: 92 1c        	sta	($1c)                   ; 0x201c <f256main+0x1708>
    362f: a5 1a        	lda	$1a                     ; 0x201a <f256main+0x1706>
    3631: 92 1c        	sta	($1c)                   ; 0x201c <f256main+0x1708>
    3633: a5 13        	lda	$13                     ; 0x2013 <f256main+0x16ff>
    3635: 92 1c        	sta	($1c)                   ; 0x201c <f256main+0x1708>
    3637: 50 0b        	bvc	$3644 <dispatchNote+0x4f0>
    3639: a6 65        	ldx	$65                     ; 0x2065 <f256main+0x1751>
    363b: d0 03        	bne	$3640 <dispatchNote+0x4ec>
    363d: 4c ca 34     	jmp	$34ca <dispatchNote+0x376>
    3640: ca           	dex
    3641: 86 65        	stx	$65                     ; 0x2065 <f256main+0x1751>
    3643: 60           	rts
    3644: a6 66        	ldx	$66                     ; 0x2066 <f256main+0x1752>
    3646: d0 03        	bne	$364b <dispatchNote+0x4f7>
    3648: 4c ca 34     	jmp	$34ca <dispatchNote+0x376>
    364b: ca           	dex
    364c: 86 66        	stx	$66                     ; 0x2066 <f256main+0x1752>
    364e: 60           	rts
    364f: 8a           	txa
    3650: aa           	tax
    3651: 10 06        	bpl	$3659 <dispatchNote+0x505>
    3653: a2 ff        	ldx	#$ff
    3655: 86 12        	stx	$12                     ; 0x2012 <f256main+0x16fe>
    3657: 80 02        	bra	$365b <dispatchNote+0x507>
    3659: 64 12        	stz	$12                     ; 0x2012 <f256main+0x16fe>
    365b: 85 13        	sta	$13                     ; 0x2013 <f256main+0x16ff>
    365d: 38           	sec
    365e: e9 03        	sbc	#$3
    3660: 50 02        	bvc	$3664 <dispatchNote+0x510>
    3662: 49 80        	eor	#$80
    3664: a2 d4        	ldx	#$d4
    3666: a8           	tay
    3667: 30 02        	bmi	$366b <dispatchNote+0x517>
    3669: a2 d5        	ldx	#$d5
    366b: a9 91        	lda	#$91
    366d: 18           	clc
    366e: 65 13        	adc	$13                     ; 0x2013 <f256main+0x16ff>
    3670: 85 14        	sta	$14                     ; 0x2014 <f256main+0x1700>
    3672: a9 82        	lda	#$82
    3674: 65 12        	adc	$12                     ; 0x2012 <f256main+0x16fe>
    3676: 85 15        	sta	$15                     ; 0x2015 <f256main+0x1701>
    3678: a9 43        	lda	#$43
    367a: 18           	clc
    367b: 65 13        	adc	$13                     ; 0x2013 <f256main+0x16ff>
    367d: a8           	tay
    367e: a9 00        	lda	#$0
    3680: 65 12        	adc	$12                     ; 0x2012 <f256main+0x16fe>
    3682: 85 13        	sta	$13                     ; 0x2013 <f256main+0x16ff>
    3684: 84 12        	sty	$12                     ; 0x2012 <f256main+0x16fe>
    3686: b2 14        	lda	($14)                   ; 0x2014 <f256main+0x1700>
    3688: 85 14        	sta	$14                     ; 0x2014 <f256main+0x1700>
    368a: a9 00        	lda	#$0
    368c: 92 12        	sta	($12)                   ; 0x2012 <f256main+0x16fe>
    368e: a4 1a        	ldy	$1a                     ; 0x201a <f256main+0x1706>
    3690: b9 7c 83     	lda	$837c,y                 ; 0x837c <psgHigh+0x35>
    3693: 5a           	phy
    3694: a4 14        	ldy	$14                     ; 0x2014 <f256main+0x1700>
    3696: 84 12        	sty	$12                     ; 0x2012 <f256main+0x16fe>
    3698: 7a           	ply
    3699: 86 13        	stx	$13                     ; 0x2013 <f256main+0x16ff>
    369b: 92 12        	sta	($12)                   ; 0x2012 <f256main+0x16fe>
    369d: b9 01 7a     	lda	$7a01,y                 ; 0x7a01 <__set_v+0x473>
    36a0: a8           	tay
    36a1: e6 14        	inc	$14                     ; 0x2014 <f256main+0x1700>
    36a3: d0 01        	bne	$36a6 <dispatchNote+0x552>
    36a5: e8           	inx
    36a6: 86 15        	stx	$15                     ; 0x2015 <f256main+0x1701>
    36a8: 98           	tya
    36a9: 92 14        	sta	($14)                   ; 0x2014 <f256main+0x1700>
    36ab: a5 16        	lda	$16                     ; 0x2016 <f256main+0x1702>
    36ad: d0 0e        	bne	$36bd <dispatchNote+0x569>
    36af: a6 6a        	ldx	$6a                     ; 0x206a <f256main+0x1756>
    36b1: a4 6b        	ldy	$6b                     ; 0x206b <f256main+0x1757>
    36b3: 86 14        	stx	$14                     ; 0x2014 <f256main+0x1700>
    36b5: 84 15        	sty	$15                     ; 0x2015 <f256main+0x1701>
    36b7: a0 03        	ldy	#$3
    36b9: b1 14        	lda	($14),y                 ; 0x2014 <f256main+0x1700>
    36bb: 85 17        	sta	$17                     ; 0x2017 <f256main+0x1703>
    36bd: a5 17        	lda	$17                     ; 0x2017 <f256main+0x1703>
    36bf: 0a           	asl
    36c0: aa           	tax
    36c1: a9 00        	lda	#$0
    36c3: 2a           	rol
    36c4: 86 14        	stx	$14                     ; 0x2014 <f256main+0x1700>
    36c6: 06 14        	asl	$14                     ; 0x2014 <f256main+0x1700>
    36c8: 2a           	rol
    36c9: 06 14        	asl	$14                     ; 0x2014 <f256main+0x1700>
    36cb: 2a           	rol
    36cc: aa           	tax
    36cd: 18           	clc
    36ce: a5 14        	lda	$14                     ; 0x2014 <f256main+0x1700>
    36d0: 65 17        	adc	$17                     ; 0x2017 <f256main+0x1703>
    36d2: 85 14        	sta	$14                     ; 0x2014 <f256main+0x1700>
    36d4: 8a           	txa
    36d5: 69 00        	adc	#$0
    36d7: 85 15        	sta	$15                     ; 0x2015 <f256main+0x1701>
    36d9: a9 cf        	lda	#$cf
    36db: 18           	clc
    36dc: 65 14        	adc	$14                     ; 0x2014 <f256main+0x1700>
    36de: 85 14        	sta	$14                     ; 0x2014 <f256main+0x1700>
    36e0: a9 84        	lda	#$84
    36e2: 65 15        	adc	$15                     ; 0x2015 <f256main+0x1701>
    36e4: 85 15        	sta	$15                     ; 0x2015 <f256main+0x1701>
    36e6: a0 05        	ldy	#$5
    36e8: a9 fe        	lda	#$fe
    36ea: 31 14        	and	($14),y                 ; 0x2014 <f256main+0x1700>
    36ec: 88           	dey
    36ed: 91 12        	sta	($12),y                 ; 0x2012 <f256main+0x16fe>
    36ef: a6 67        	ldx	$67                     ; 0x2067 <f256main+0x1753>
    36f1: d0 03        	bne	$36f6 <dispatchNote+0x5a2>
    36f3: 4c ca 34     	jmp	$34ca <dispatchNote+0x376>
    36f6: ca           	dex
    36f7: 86 67        	stx	$67                     ; 0x2067 <f256main+0x1753>
    36f9: 60           	rts

000036fa <launchBeat>:
    36fa: 18           	clc
    36fb: a5 10        	lda	$10                     ; 0x2010 <f256main+0x16fc>
    36fd: 69 f5        	adc	#$f5
    36ff: 85 10        	sta	$10                     ; 0x2010 <f256main+0x16fc>
    3701: a5 11        	lda	$11                     ; 0x2011 <f256main+0x16fd>
    3703: 69 ff        	adc	#$ff
    3705: 85 11        	sta	$11                     ; 0x2011 <f256main+0x16fd>
    3707: a6 24        	ldx	$24                     ; 0x2024 <f256main+0x1710>
    3709: da           	phx
    370a: a6 25        	ldx	$25                     ; 0x2025 <f256main+0x1711>
    370c: da           	phx
    370d: a6 26        	ldx	$26                     ; 0x2026 <f256main+0x1712>
    370f: da           	phx
    3710: a6 27        	ldx	$27                     ; 0x2027 <f256main+0x1713>
    3712: da           	phx
    3713: a5 28        	lda	$28                     ; 0x2028 <f256main+0x1714>
    3715: a0 06        	ldy	#$6
    3717: 91 10        	sta	($10),y                 ; 0x2010 <f256main+0x16fc>
    3719: a5 29        	lda	$29                     ; 0x2029 <f256main+0x1715>
    371b: 88           	dey
    371c: 91 10        	sta	($10),y                 ; 0x2010 <f256main+0x16fc>
    371e: a5 2a        	lda	$2a                     ; 0x202a <f256main+0x1716>
    3720: 88           	dey
    3721: 91 10        	sta	($10),y                 ; 0x2010 <f256main+0x16fc>
    3723: a5 2b        	lda	$2b                     ; 0x202b <f256main+0x1717>
    3725: 88           	dey
    3726: 91 10        	sta	($10),y                 ; 0x2010 <f256main+0x16fc>
    3728: a5 2c        	lda	$2c                     ; 0x202c <f256main+0x1718>
    372a: 88           	dey
    372b: 91 10        	sta	($10),y                 ; 0x2010 <f256main+0x16fc>
    372d: a5 2d        	lda	$2d                     ; 0x202d <f256main+0x1719>
    372f: 88           	dey
    3730: 91 10        	sta	($10),y                 ; 0x2010 <f256main+0x16fc>
    3732: a5 2e        	lda	$2e                     ; 0x202e <f256main+0x171a>
    3734: 88           	dey
    3735: 91 10        	sta	($10),y                 ; 0x2010 <f256main+0x16fc>
    3737: 18           	clc
    3738: a5 10        	lda	$10                     ; 0x2010 <f256main+0x16fc>
    373a: 69 08        	adc	#$8
    373c: 85 26        	sta	$26                     ; 0x2026 <f256main+0x1712>
    373e: a5 11        	lda	$11                     ; 0x2011 <f256main+0x16fd>
    3740: 69 00        	adc	#$0
    3742: 85 27        	sta	$27                     ; 0x2027 <f256main+0x1713>
    3744: 98           	tya
    3745: 92 26        	sta	($26)                   ; 0x2026 <f256main+0x1712>
    3747: 18           	clc
    3748: 48           	pha
    3749: a5 10        	lda	$10                     ; 0x2010 <f256main+0x16fc>
    374b: 69 07        	adc	#$7
    374d: 85 28        	sta	$28                     ; 0x2028 <f256main+0x1714>
    374f: a5 11        	lda	$11                     ; 0x2011 <f256main+0x16fd>
    3751: 69 00        	adc	#$0
    3753: 85 29        	sta	$29                     ; 0x2029 <f256main+0x1715>
    3755: 68           	pla
    3756: 92 28        	sta	($28)                   ; 0x2028 <f256main+0x1714>
    3758: 64 2a        	stz	$2a                     ; 0x202a <f256main+0x1716>
    375a: a9 04        	lda	#$4
    375c: a2 00        	ldx	#$0
    375e: 20 7f 5e     	jsr	$5e7f <malloc>
    3761: a6 12        	ldx	$12                     ; 0x2012 <f256main+0x16fe>
    3763: 86 24        	stx	$24                     ; 0x2024 <f256main+0x1710>
    3765: a6 13        	ldx	$13                     ; 0x2013 <f256main+0x16ff>
    3767: 86 25        	stx	$25                     ; 0x2025 <f256main+0x1711>
    3769: a6 7e        	ldx	$7e                     ; 0x207e <f256main+0x176a>
    376b: 86 17        	stx	$17                     ; 0x2017 <f256main+0x1703>
    376d: a6 7f        	ldx	$7f                     ; 0x207f <f256main+0x176b>
    376f: 86 16        	stx	$16                     ; 0x2016 <f256main+0x1702>
    3771: a6 6a        	ldx	$6a                     ; 0x206a <f256main+0x1756>
    3773: a4 6b        	ldy	$6b                     ; 0x206b <f256main+0x1757>
    3775: 86 12        	stx	$12                     ; 0x2012 <f256main+0x16fe>
    3777: 84 13        	sty	$13                     ; 0x2013 <f256main+0x16ff>
    3779: a0 08        	ldy	#$8
    377b: b1 12        	lda	($12),y                 ; 0x2012 <f256main+0x16fe>
    377d: 85 1a        	sta	$1a                     ; 0x201a <f256main+0x1706>
    377f: 0a           	asl
    3780: 26 2a        	rol	$2a                     ; 0x202a <f256main+0x1716>
    3782: 0a           	asl
    3783: 26 2a        	rol	$2a                     ; 0x202a <f256main+0x1716>
    3785: 0a           	asl
    3786: 26 2a        	rol	$2a                     ; 0x202a <f256main+0x1716>
    3788: 0a           	asl
    3789: 26 2a        	rol	$2a                     ; 0x202a <f256main+0x1716>
    378b: 38           	sec
    378c: 85 18        	sta	$18                     ; 0x2018 <f256main+0x1704>
    378e: e5 1a        	sbc	$1a                     ; 0x201a <f256main+0x1706>
    3790: 85 14        	sta	$14                     ; 0x2014 <f256main+0x1700>
    3792: a4 2a        	ldy	$2a                     ; 0x202a <f256main+0x1716>
    3794: a5 2a        	lda	$2a                     ; 0x202a <f256main+0x1716>
    3796: e9 00        	sbc	#$0
    3798: 85 15        	sta	$15                     ; 0x2015 <f256main+0x1701>
    379a: a5 17        	lda	$17                     ; 0x2017 <f256main+0x1703>
    379c: 18           	clc
    379d: 65 14        	adc	$14                     ; 0x2014 <f256main+0x1700>
    379f: 85 14        	sta	$14                     ; 0x2014 <f256main+0x1700>
    37a1: a5 16        	lda	$16                     ; 0x2016 <f256main+0x1702>
    37a3: 65 15        	adc	$15                     ; 0x2015 <f256main+0x1701>
    37a5: 85 15        	sta	$15                     ; 0x2015 <f256main+0x1701>
    37a7: b2 14        	lda	($14)                   ; 0x2014 <f256main+0x1700>
    37a9: f0 06        	beq	$37b1 <launchBeat+0xb7>
    37ab: a2 01        	ldx	#$1
    37ad: 86 62        	stx	$62                     ; 0x2062 <f256main+0x174e>
    37af: 80 09        	bra	$37ba <launchBeat+0xc0>
    37b1: a5 62        	lda	$62                     ; 0x2062 <f256main+0x174e>
    37b3: 29 01        	and	#$1
    37b5: d0 03        	bne	$37ba <launchBeat+0xc0>
    37b7: 4c ad 38     	jmp	$38ad <launchBeat+0x1b3>
    37ba: 38           	sec
    37bb: a5 18        	lda	$18                     ; 0x2018 <f256main+0x1704>
    37bd: e5 1a        	sbc	$1a                     ; 0x201a <f256main+0x1706>
    37bf: 85 12        	sta	$12                     ; 0x2012 <f256main+0x16fe>
    37c1: 98           	tya
    37c2: e9 00        	sbc	#$0
    37c4: 85 13        	sta	$13                     ; 0x2013 <f256main+0x16ff>
    37c6: a5 17        	lda	$17                     ; 0x2017 <f256main+0x1703>
    37c8: 18           	clc
    37c9: 65 12        	adc	$12                     ; 0x2012 <f256main+0x16fe>
    37cb: 85 12        	sta	$12                     ; 0x2012 <f256main+0x16fe>
    37cd: a5 16        	lda	$16                     ; 0x2016 <f256main+0x1702>
    37cf: 65 13        	adc	$13                     ; 0x2013 <f256main+0x16ff>
    37d1: 85 13        	sta	$13                     ; 0x2013 <f256main+0x16ff>
    37d3: a0 04        	ldy	#$4
    37d5: b1 12        	lda	($12),y                 ; 0x2012 <f256main+0x16fe>
    37d7: d0 03        	bne	$37dc <launchBeat+0xe2>
    37d9: 4c 35 3c     	jmp	$3c35 <launchBeat+0x53b>
    37dc: a6 16        	ldx	$16                     ; 0x2016 <f256main+0x1702>
    37de: a4 17        	ldy	$17                     ; 0x2017 <f256main+0x1703>
    37e0: 84 12        	sty	$12                     ; 0x2012 <f256main+0x16fe>
    37e2: 86 13        	stx	$13                     ; 0x2013 <f256main+0x16ff>
    37e4: a9 00        	lda	#$0
    37e6: 4c 56 38     	jmp	$3856 <launchBeat+0x15c>
    37e9: a2 00        	ldx	#$0
    37eb: b4 3d        	ldy	$3d,x                   ; 0x203d <f256main+0x1729>
    37ed: c0 01        	cpy	#$1
    37ef: d0 02        	bne	$37f3 <launchBeat+0xf9>
    37f1: 74 3d        	stz	$3d,x                   ; 0x203d <f256main+0x1729>
    37f3: e8           	inx
    37f4: e0 06        	cpx	#$6
    37f6: d0 f3        	bne	$37eb <launchBeat+0xf1>
    37f8: c9 03        	cmp	#$3
    37fa: d0 0f        	bne	$380b <launchBeat+0x111>
    37fc: a2 00        	ldx	#$0
    37fe: b4 58        	ldy	$58,x                   ; 0x2058 <f256main+0x1744>
    3800: c0 01        	cpy	#$1
    3802: d0 02        	bne	$3806 <launchBeat+0x10c>
    3804: 74 58        	stz	$58,x                   ; 0x2058 <f256main+0x1744>
    3806: e8           	inx
    3807: e0 09        	cpx	#$9
    3809: d0 f3        	bne	$37fe <launchBeat+0x104>
    380b: a6 7e        	ldx	$7e                     ; 0x207e <f256main+0x176a>
    380d: a4 7f        	ldy	$7f                     ; 0x207f <f256main+0x176b>
    380f: 86 12        	stx	$12                     ; 0x2012 <f256main+0x16fe>
    3811: 84 13        	sty	$13                     ; 0x2013 <f256main+0x16ff>
    3813: a6 6a        	ldx	$6a                     ; 0x206a <f256main+0x1756>
    3815: a4 6b        	ldy	$6b                     ; 0x206b <f256main+0x1757>
    3817: 86 14        	stx	$14                     ; 0x2014 <f256main+0x1700>
    3819: 84 15        	sty	$15                     ; 0x2015 <f256main+0x1701>
    381b: a0 08        	ldy	#$8
    381d: b1 14        	lda	($14),y                 ; 0x2014 <f256main+0x1700>
    381f: 85 1a        	sta	$1a                     ; 0x201a <f256main+0x1706>
    3821: 0a           	asl
    3822: aa           	tax
    3823: a9 00        	lda	#$0
    3825: 2a           	rol
    3826: 86 14        	stx	$14                     ; 0x2014 <f256main+0x1700>
    3828: 06 14        	asl	$14                     ; 0x2014 <f256main+0x1700>
    382a: 2a           	rol
    382b: 06 14        	asl	$14                     ; 0x2014 <f256main+0x1700>
    382d: 2a           	rol
    382e: 06 14        	asl	$14                     ; 0x2014 <f256main+0x1700>
    3830: 2a           	rol
    3831: aa           	tax
    3832: 38           	sec
    3833: a5 14        	lda	$14                     ; 0x2014 <f256main+0x1700>
    3835: e5 1a        	sbc	$1a                     ; 0x201a <f256main+0x1706>
    3837: 85 14        	sta	$14                     ; 0x2014 <f256main+0x1700>
    3839: 8a           	txa
    383a: e9 00        	sbc	#$0
    383c: aa           	tax
    383d: 18           	clc
    383e: a5 14        	lda	$14                     ; 0x2014 <f256main+0x1700>
    3840: 65 7e        	adc	$7e                     ; 0x207e <f256main+0x176a>
    3842: 85 14        	sta	$14                     ; 0x2014 <f256main+0x1700>
    3844: 8a           	txa
    3845: 65 7f        	adc	$7f                     ; 0x207f <f256main+0x176b>
    3847: a6 2a        	ldx	$2a                     ; 0x202a <f256main+0x1716>
    3849: e8           	inx
    384a: 85 15        	sta	$15                     ; 0x2015 <f256main+0x1701>
    384c: 8a           	txa
    384d: a0 04        	ldy	#$4
    384f: d1 14        	cmp	($14),y                 ; 0x2014 <f256main+0x1700>
    3851: 90 03        	bcc	$3856 <launchBeat+0x15c>
    3853: 4c 35 3c     	jmp	$3c35 <launchBeat+0x53b>
    3856: a6 26        	ldx	$26                     ; 0x2026 <f256main+0x1712>
    3858: 86 14        	stx	$14                     ; 0x2014 <f256main+0x1700>
    385a: a6 27        	ldx	$27                     ; 0x2027 <f256main+0x1713>
    385c: 86 15        	stx	$15                     ; 0x2015 <f256main+0x1701>
    385e: a6 28        	ldx	$28                     ; 0x2028 <f256main+0x1714>
    3860: 86 16        	stx	$16                     ; 0x2016 <f256main+0x1702>
    3862: a6 29        	ldx	$29                     ; 0x2029 <f256main+0x1715>
    3864: 86 17        	stx	$17                     ; 0x2017 <f256main+0x1703>
    3866: a6 24        	ldx	$24                     ; 0x2024 <f256main+0x1710>
    3868: 86 18        	stx	$18                     ; 0x2018 <f256main+0x1704>
    386a: a6 25        	ldx	$25                     ; 0x2025 <f256main+0x1711>
    386c: 86 19        	stx	$19                     ; 0x2019 <f256main+0x1705>
    386e: 85 2a        	sta	$2a                     ; 0x202a <f256main+0x1716>
    3870: aa           	tax
    3871: a5 1a        	lda	$1a                     ; 0x201a <f256main+0x1706>
    3873: 20 02 43     	jsr	$4302 <getBeatTrackNoteInfo>
    3876: b2 24        	lda	($24)                   ; 0x2024 <f256main+0x1710>
    3878: c9 03        	cmp	#$3
    387a: d0 03        	bne	$387f <launchBeat+0x185>
    387c: 4c fc 37     	jmp	$37fc <launchBeat+0x102>
    387f: c9 02        	cmp	#$2
    3881: d0 03        	bne	$3886 <launchBeat+0x18c>
    3883: 4c e9 37     	jmp	$37e9 <launchBeat+0xef>
    3886: c9 01        	cmp	#$1
    3888: f0 03        	beq	$388d <launchBeat+0x193>
    388a: 4c 0b 38     	jmp	$380b <launchBeat+0x111>
    388d: a2 00        	ldx	#$0
    388f: b4 49        	ldy	$49,x                   ; 0x2049 <f256main+0x1735>
    3891: c0 01        	cpy	#$1
    3893: d0 02        	bne	$3897 <launchBeat+0x19d>
    3895: 74 49        	stz	$49,x                   ; 0x2049 <f256main+0x1735>
    3897: e8           	inx
    3898: e0 06        	cpx	#$6
    389a: d0 f3        	bne	$388f <launchBeat+0x195>
    389c: c9 03        	cmp	#$3
    389e: d0 03        	bne	$38a3 <launchBeat+0x1a9>
    38a0: 4c fc 37     	jmp	$37fc <launchBeat+0x102>
    38a3: c9 02        	cmp	#$2
    38a5: d0 03        	bne	$38aa <launchBeat+0x1b0>
    38a7: 4c e9 37     	jmp	$37e9 <launchBeat+0xef>
    38aa: 4c 0b 38     	jmp	$380b <launchBeat+0x111>
    38ad: a9 01        	lda	#$1
    38af: 92 14        	sta	($14)                   ; 0x2014 <f256main+0x1700>
    38b1: 38           	sec
    38b2: a5 18        	lda	$18                     ; 0x2018 <f256main+0x1704>
    38b4: e5 1a        	sbc	$1a                     ; 0x201a <f256main+0x1706>
    38b6: 85 14        	sta	$14                     ; 0x2014 <f256main+0x1700>
    38b8: 98           	tya
    38b9: e9 00        	sbc	#$0
    38bb: 85 15        	sta	$15                     ; 0x2015 <f256main+0x1701>
    38bd: a5 17        	lda	$17                     ; 0x2017 <f256main+0x1703>
    38bf: 18           	clc
    38c0: 65 14        	adc	$14                     ; 0x2014 <f256main+0x1700>
    38c2: 85 14        	sta	$14                     ; 0x2014 <f256main+0x1700>
    38c4: a5 16        	lda	$16                     ; 0x2016 <f256main+0x1702>
    38c6: 65 15        	adc	$15                     ; 0x2015 <f256main+0x1701>
    38c8: 85 15        	sta	$15                     ; 0x2015 <f256main+0x1701>
    38ca: a0 03        	ldy	#$3
    38cc: b1 14        	lda	($14),y                 ; 0x2014 <f256main+0x1700>
    38ce: a0 09        	ldy	#$9
    38d0: 91 12        	sta	($12),y                 ; 0x2012 <f256main+0x16fe>
    38d2: 20 81 3f     	jsr	$3f81 <prepTempoLUT>
    38d5: a6 6a        	ldx	$6a                     ; 0x206a <f256main+0x1756>
    38d7: a4 6b        	ldy	$6b                     ; 0x206b <f256main+0x1757>
    38d9: 86 2c        	stx	$2c                     ; 0x202c <f256main+0x1718>
    38db: 84 2d        	sty	$2d                     ; 0x202d <f256main+0x1719>
    38dd: a0 09        	ldy	#$9
    38df: b1 2c        	lda	($2c),y                 ; 0x202c <f256main+0x1718>
    38e1: 20 18 49     	jsr	$4918 <updateTempoText>
    38e4: a6 7e        	ldx	$7e                     ; 0x207e <f256main+0x176a>
    38e6: 86 13        	stx	$13                     ; 0x2013 <f256main+0x16ff>
    38e8: a0 08        	ldy	#$8
    38ea: b1 2c        	lda	($2c),y                 ; 0x202c <f256main+0x1718>
    38ec: 85 12        	sta	$12                     ; 0x2012 <f256main+0x16fe>
    38ee: 0a           	asl
    38ef: aa           	tax
    38f0: a9 00        	lda	#$0
    38f2: 2a           	rol
    38f3: 86 14        	stx	$14                     ; 0x2014 <f256main+0x1700>
    38f5: 06 14        	asl	$14                     ; 0x2014 <f256main+0x1700>
    38f7: 2a           	rol
    38f8: 06 14        	asl	$14                     ; 0x2014 <f256main+0x1700>
    38fa: 2a           	rol
    38fb: 06 14        	asl	$14                     ; 0x2014 <f256main+0x1700>
    38fd: 2a           	rol
    38fe: a8           	tay
    38ff: a6 7f        	ldx	$7f                     ; 0x207f <f256main+0x176b>
    3901: 38           	sec
    3902: a5 14        	lda	$14                     ; 0x2014 <f256main+0x1700>
    3904: e5 12        	sbc	$12                     ; 0x2012 <f256main+0x16fe>
    3906: 85 12        	sta	$12                     ; 0x2012 <f256main+0x16fe>
    3908: 98           	tya
    3909: e9 00        	sbc	#$0
    390b: a8           	tay
    390c: 18           	clc
    390d: a5 12        	lda	$12                     ; 0x2012 <f256main+0x16fe>
    390f: 65 7e        	adc	$7e                     ; 0x207e <f256main+0x176a>
    3911: 85 14        	sta	$14                     ; 0x2014 <f256main+0x1700>
    3913: 98           	tya
    3914: 65 7f        	adc	$7f                     ; 0x207f <f256main+0x176b>
    3916: 64 16        	stz	$16                     ; 0x2016 <f256main+0x1702>
    3918: 85 15        	sta	$15                     ; 0x2015 <f256main+0x1701>
    391a: a0 04        	ldy	#$4
    391c: b1 14        	lda	($14),y                 ; 0x2014 <f256main+0x1700>
    391e: d0 03        	bne	$3923 <launchBeat+0x229>
    3920: 4c 35 3c     	jmp	$3c35 <launchBeat+0x53b>
    3923: a4 13        	ldy	$13                     ; 0x2013 <f256main+0x16ff>
    3925: 84 12        	sty	$12                     ; 0x2012 <f256main+0x16fe>
    3927: 86 13        	stx	$13                     ; 0x2013 <f256main+0x16ff>
    3929: a0 02        	ldy	#$2
    392b: 84 2a        	sty	$2a                     ; 0x202a <f256main+0x1716>
    392d: 64 2b        	stz	$2b                     ; 0x202b <f256main+0x1717>
    392f: a2 00        	ldx	#$0
    3931: 4c ae 3b     	jmp	$3bae <launchBeat+0x4b4>
    3934: a0 01        	ldy	#$1
    3936: b1 24        	lda	($24),y                 ; 0x2024 <f256main+0x1710>
    3938: 85 2c        	sta	$2c                     ; 0x202c <f256main+0x1718>
    393a: a2 03        	ldx	#$3
    393c: 20 81 62     	jsr	$6281 <__udivqi3>
    393f: 85 14        	sta	$14                     ; 0x2014 <f256main+0x1700>
    3941: 0a           	asl
    3942: 18           	clc
    3943: 65 14        	adc	$14                     ; 0x2014 <f256main+0x1700>
    3945: 85 12        	sta	$12                     ; 0x2012 <f256main+0x16fe>
    3947: 38           	sec
    3948: a5 2c        	lda	$2c                     ; 0x202c <f256main+0x1718>
    394a: e5 12        	sbc	$12                     ; 0x2012 <f256main+0x16fe>
    394c: aa           	tax
    394d: a0 02        	ldy	#$2
    394f: b1 24        	lda	($24),y                 ; 0x2024 <f256main+0x1710>
    3951: 85 12        	sta	$12                     ; 0x2012 <f256main+0x16fe>
    3953: 0a           	asl
    3954: 64 13        	stz	$13                     ; 0x2013 <f256main+0x16ff>
    3956: 26 13        	rol	$13                     ; 0x2013 <f256main+0x16ff>
    3958: 0a           	asl
    3959: 26 13        	rol	$13                     ; 0x2013 <f256main+0x16ff>
    395b: 0a           	asl
    395c: 26 13        	rol	$13                     ; 0x2013 <f256main+0x16ff>
    395e: 18           	clc
    395f: 65 12        	adc	$12                     ; 0x2012 <f256main+0x16fe>
    3961: 85 12        	sta	$12                     ; 0x2012 <f256main+0x16fe>
    3963: a5 13        	lda	$13                     ; 0x2013 <f256main+0x16ff>
    3965: 69 00        	adc	#$0
    3967: 85 13        	sta	$13                     ; 0x2013 <f256main+0x16ff>
    3969: a9 cf        	lda	#$cf
    396b: 18           	clc
    396c: 65 12        	adc	$12                     ; 0x2012 <f256main+0x16fe>
    396e: 85 12        	sta	$12                     ; 0x2012 <f256main+0x16fe>
    3970: a9 84        	lda	#$84
    3972: 65 13        	adc	$13                     ; 0x2013 <f256main+0x16ff>
    3974: 85 13        	sta	$13                     ; 0x2013 <f256main+0x16ff>
    3976: a5 14        	lda	$14                     ; 0x2014 <f256main+0x1700>
    3978: 20 13 42     	jsr	$4213 <sid_setInstrument>
    397b: a0 02        	ldy	#$2
    397d: b1 24        	lda	($24),y                 ; 0x2024 <f256main+0x1710>
    397f: 88           	dey
    3980: 85 12        	sta	$12                     ; 0x2012 <f256main+0x16fe>
    3982: 0a           	asl
    3983: 64 13        	stz	$13                     ; 0x2013 <f256main+0x16ff>
    3985: 26 13        	rol	$13                     ; 0x2013 <f256main+0x16ff>
    3987: 0a           	asl
    3988: 26 13        	rol	$13                     ; 0x2013 <f256main+0x16ff>
    398a: 0a           	asl
    398b: 26 13        	rol	$13                     ; 0x2013 <f256main+0x16ff>
    398d: 18           	clc
    398e: 65 12        	adc	$12                     ; 0x2012 <f256main+0x16fe>
    3990: 85 12        	sta	$12                     ; 0x2012 <f256main+0x16fe>
    3992: a5 13        	lda	$13                     ; 0x2013 <f256main+0x16ff>
    3994: 69 00        	adc	#$0
    3996: 85 13        	sta	$13                     ; 0x2013 <f256main+0x16ff>
    3998: a9 cf        	lda	#$cf
    399a: 18           	clc
    399b: 65 12        	adc	$12                     ; 0x2012 <f256main+0x16fe>
    399d: 85 12        	sta	$12                     ; 0x2012 <f256main+0x16fe>
    399f: a9 84        	lda	#$84
    39a1: 65 13        	adc	$13                     ; 0x2013 <f256main+0x16ff>
    39a3: 85 13        	sta	$13                     ; 0x2013 <f256main+0x16ff>
    39a5: 9c 14 d4     	stz	$d414                   ; 0xd414 <__heap_start+0x4dce>
    39a8: 9c 15 d4     	stz	$d415                   ; 0xd415 <__heap_start+0x4dcf>
    39ab: 9c 17 d4     	stz	$d417                   ; 0xd417 <__heap_start+0x4dd1>
    39ae: b2 12        	lda	($12)                   ; 0x2012 <f256main+0x16fe>
    39b0: 8d 18 d4     	sta	$d418                   ; 0xd418 <__heap_start+0x4dd2>
    39b3: 9c 14 d5     	stz	$d514                   ; 0xd514 <__heap_start+0x4ece>
    39b6: 9c 15 d5     	stz	$d515                   ; 0xd515 <__heap_start+0x4ecf>
    39b9: 9c 17 d5     	stz	$d517                   ; 0xd517 <__heap_start+0x4ed1>
    39bc: 8d 18 d5     	sta	$d518                   ; 0xd518 <__heap_start+0x4ed2>
    39bf: 80 49        	bra	$3a0a <launchBeat+0x310>
    39c1: a0 02        	ldy	#$2
    39c3: b1 24        	lda	($24),y                 ; 0x2024 <f256main+0x1710>
    39c5: a2 0b        	ldx	#$b
    39c7: 86 12        	stx	$12                     ; 0x2012 <f256main+0x16fe>
    39c9: 64 13        	stz	$13                     ; 0x2013 <f256main+0x16ff>
    39cb: a2 00        	ldx	#$0
    39cd: 20 e7 60     	jsr	$60e7 <__mulhi3>
    39d0: 85 12        	sta	$12                     ; 0x2012 <f256main+0x16fe>
    39d2: 86 13        	stx	$13                     ; 0x2013 <f256main+0x16ff>
    39d4: a9 fc        	lda	#$fc
    39d6: 18           	clc
    39d7: 65 12        	adc	$12                     ; 0x2012 <f256main+0x16fe>
    39d9: 85 12        	sta	$12                     ; 0x2012 <f256main+0x16fe>
    39db: a9 84        	lda	#$84
    39dd: 65 13        	adc	$13                     ; 0x2013 <f256main+0x16ff>
    39df: 85 13        	sta	$13                     ; 0x2013 <f256main+0x16ff>
    39e1: a0 01        	ldy	#$1
    39e3: b1 24        	lda	($24),y                 ; 0x2024 <f256main+0x1710>
    39e5: 20 3f 41     	jsr	$413f <opl3_setInstrument>
    39e8: a0 01        	ldy	#$1
    39ea: b1 24        	lda	($24),y                 ; 0x2024 <f256main+0x1710>
    39ec: c9 40        	cmp	#$40
    39ee: a2 80        	ldx	#$80
    39f0: 86 12        	stx	$12                     ; 0x2012 <f256main+0x16fe>
    39f2: a2 d5        	ldx	#$d5
    39f4: 86 13        	stx	$13                     ; 0x2013 <f256main+0x16ff>
    39f6: 90 08        	bcc	$3a00 <launchBeat+0x306>
    39f8: a2 82        	ldx	#$82
    39fa: 86 12        	stx	$12                     ; 0x2012 <f256main+0x16fe>
    39fc: a2 d5        	ldx	#$d5
    39fe: 86 13        	stx	$13                     ; 0x2013 <f256main+0x16ff>
    3a00: 18           	clc
    3a01: 69 c0        	adc	#$c0
    3a03: 92 12        	sta	($12)                   ; 0x2012 <f256main+0x16fe>
    3a05: a2 30        	ldx	#$30
    3a07: 8e 81 d5     	stx	$d581                   ; 0xd581 <__heap_start+0x4f3b>
    3a0a: b1 24        	lda	($24),y                 ; 0x2024 <f256main+0x1710>
    3a0c: 85 18        	sta	$18                     ; 0x2018 <f256main+0x1704>
    3a0e: b2 26        	lda	($26)                   ; 0x2026 <f256main+0x1712>
    3a10: 85 12        	sta	$12                     ; 0x2012 <f256main+0x16fe>
    3a12: b2 24        	lda	($24)                   ; 0x2024 <f256main+0x1710>
    3a14: a2 4c        	ldx	#$4c
    3a16: 85 15        	sta	$15                     ; 0x2015 <f256main+0x1701>
    3a18: c9 02        	cmp	#$2
    3a1a: f0 02        	beq	$3a1e <launchBeat+0x324>
    3a1c: a2 7f        	ldx	#$7f
    3a1e: a4 6a        	ldy	$6a                     ; 0x206a <f256main+0x1756>
    3a20: 86 13        	stx	$13                     ; 0x2013 <f256main+0x16ff>
    3a22: a6 6b        	ldx	$6b                     ; 0x206b <f256main+0x1757>
    3a24: 84 16        	sty	$16                     ; 0x2016 <f256main+0x1702>
    3a26: 86 17        	stx	$17                     ; 0x2017 <f256main+0x1703>
    3a28: b2 16        	lda	($16)                   ; 0x2016 <f256main+0x1702>
    3a2a: 85 14        	sta	$14                     ; 0x2014 <f256main+0x1700>
    3a2c: a0 02        	ldy	#$2
    3a2e: b1 24        	lda	($24),y                 ; 0x2024 <f256main+0x1710>
    3a30: 85 17        	sta	$17                     ; 0x2017 <f256main+0x1703>
    3a32: a9 01        	lda	#$1
    3a34: 85 16        	sta	$16                     ; 0x2016 <f256main+0x1702>
    3a36: a6 18        	ldx	$18                     ; 0x2018 <f256main+0x1704>
    3a38: 20 54 31     	jsr	$3154 <dispatchNote>
    3a3b: b2 24        	lda	($24)                   ; 0x2024 <f256main+0x1710>
    3a3d: c9 01        	cmp	#$1
    3a3f: d0 09        	bne	$3a4a <launchBeat+0x350>
    3a41: a0 01        	ldy	#$1
    3a43: b1 24        	lda	($24),y                 ; 0x2024 <f256main+0x1710>
    3a45: aa           	tax
    3a46: 98           	tya
    3a47: 9d 49 00     	sta	$49,x                   ; 0x49 <reservedSID>
    3a4a: a6 6a        	ldx	$6a                     ; 0x206a <f256main+0x1756>
    3a4c: a4 6b        	ldy	$6b                     ; 0x206b <f256main+0x1757>
    3a4e: 86 12        	stx	$12                     ; 0x2012 <f256main+0x16fe>
    3a50: 84 13        	sty	$13                     ; 0x2013 <f256main+0x16ff>
    3a52: a0 08        	ldy	#$8
    3a54: b1 12        	lda	($12),y                 ; 0x2012 <f256main+0x16fe>
    3a56: 85 12        	sta	$12                     ; 0x2012 <f256main+0x16fe>
    3a58: 0a           	asl
    3a59: aa           	tax
    3a5a: a9 00        	lda	#$0
    3a5c: 2a           	rol
    3a5d: 86 13        	stx	$13                     ; 0x2013 <f256main+0x16ff>
    3a5f: 06 13        	asl	$13                     ; 0x2013 <f256main+0x16ff>
    3a61: 2a           	rol
    3a62: 06 13        	asl	$13                     ; 0x2013 <f256main+0x16ff>
    3a64: 2a           	rol
    3a65: 06 13        	asl	$13                     ; 0x2013 <f256main+0x16ff>
    3a67: 2a           	rol
    3a68: aa           	tax
    3a69: 38           	sec
    3a6a: a5 13        	lda	$13                     ; 0x2013 <f256main+0x16ff>
    3a6c: e5 12        	sbc	$12                     ; 0x2012 <f256main+0x16fe>
    3a6e: 85 12        	sta	$12                     ; 0x2012 <f256main+0x16fe>
    3a70: 8a           	txa
    3a71: e9 00        	sbc	#$0
    3a73: aa           	tax
    3a74: 18           	clc
    3a75: a5 12        	lda	$12                     ; 0x2012 <f256main+0x16fe>
    3a77: 65 7e        	adc	$7e                     ; 0x207e <f256main+0x176a>
    3a79: 85 12        	sta	$12                     ; 0x2012 <f256main+0x16fe>
    3a7b: 8a           	txa
    3a7c: 65 7f        	adc	$7f                     ; 0x207f <f256main+0x176b>
    3a7e: 85 13        	sta	$13                     ; 0x2013 <f256main+0x16ff>
    3a80: a0 02        	ldy	#$2
    3a82: b1 12        	lda	($12),y                 ; 0x2012 <f256main+0x16fe>
    3a84: 1a           	inc
    3a85: 91 12        	sta	($12),y                 ; 0x2012 <f256main+0x16fe>
    3a87: a2 80        	ldx	#$80
    3a89: 86 f3        	stx	$f3                     ; 0x20f3 <f256main+0x17df>
    3a8b: 18           	clc
    3a8c: a5 10        	lda	$10                     ; 0x2010 <f256main+0x16fc>
    3a8e: 69 09        	adc	#$9
    3a90: 85 12        	sta	$12                     ; 0x2012 <f256main+0x16fe>
    3a92: a5 11        	lda	$11                     ; 0x2011 <f256main+0x16fd>
    3a94: 69 00        	adc	#$0
    3a96: 85 13        	sta	$13                     ; 0x2013 <f256main+0x16ff>
    3a98: a2 41        	ldx	#$41
    3a9a: 86 18        	stx	$18                     ; 0x2018 <f256main+0x1704>
    3a9c: a2 86        	ldx	#$86
    3a9e: 86 19        	stx	$19                     ; 0x2019 <f256main+0x1705>
    3aa0: 20 f0 ff     	jsr	$fff0 <__heap_start+0x79aa>
    3aa3: 92 12        	sta	($12)                   ; 0x2012 <f256main+0x16fe>
    3aa5: a9 00        	lda	#$0
    3aa7: 6a           	ror
    3aa8: 85 18        	sta	$18                     ; 0x2018 <f256main+0x1704>
    3aaa: b2 12        	lda	($12)                   ; 0x2012 <f256main+0x16fe>
    3aac: 85 12        	sta	$12                     ; 0x2012 <f256main+0x16fe>
    3aae: b2 28        	lda	($28)                   ; 0x2028 <f256main+0x1714>
    3ab0: aa           	tax
    3ab1: 18           	clc
    3ab2: a5 12        	lda	$12                     ; 0x2012 <f256main+0x16fe>
    3ab4: 75 6c        	adc	$6c,x                   ; 0x206c <f256main+0x1758>
    3ab6: 85 16        	sta	$16                     ; 0x2016 <f256main+0x1702>
    3ab8: a6 6a        	ldx	$6a                     ; 0x206a <f256main+0x1756>
    3aba: a4 6b        	ldy	$6b                     ; 0x206b <f256main+0x1757>
    3abc: 86 12        	stx	$12                     ; 0x2012 <f256main+0x16fe>
    3abe: 84 13        	sty	$13                     ; 0x2013 <f256main+0x16ff>
    3ac0: a0 08        	ldy	#$8
    3ac2: b1 12        	lda	($12),y                 ; 0x2012 <f256main+0x16fe>
    3ac4: 85 12        	sta	$12                     ; 0x2012 <f256main+0x16fe>
    3ac6: 0a           	asl
    3ac7: aa           	tax
    3ac8: a9 00        	lda	#$0
    3aca: 2a           	rol
    3acb: 86 13        	stx	$13                     ; 0x2013 <f256main+0x16ff>
    3acd: 06 13        	asl	$13                     ; 0x2013 <f256main+0x16ff>
    3acf: 2a           	rol
    3ad0: 06 13        	asl	$13                     ; 0x2013 <f256main+0x16ff>
    3ad2: 2a           	rol
    3ad3: 06 13        	asl	$13                     ; 0x2013 <f256main+0x16ff>
    3ad5: 2a           	rol
    3ad6: aa           	tax
    3ad7: 38           	sec
    3ad8: a5 13        	lda	$13                     ; 0x2013 <f256main+0x16ff>
    3ada: e5 12        	sbc	$12                     ; 0x2012 <f256main+0x16fe>
    3adc: 85 12        	sta	$12                     ; 0x2012 <f256main+0x16fe>
    3ade: 8a           	txa
    3adf: e9 00        	sbc	#$0
    3ae1: a8           	tay
    3ae2: 18           	clc
    3ae3: a5 12        	lda	$12                     ; 0x2012 <f256main+0x16fe>
    3ae5: 65 7e        	adc	$7e                     ; 0x207e <f256main+0x176a>
    3ae7: aa           	tax
    3ae8: 98           	tya
    3ae9: 65 7f        	adc	$7f                     ; 0x207f <f256main+0x176b>
    3aeb: 86 12        	stx	$12                     ; 0x2012 <f256main+0x16fe>
    3aed: 85 13        	sta	$13                     ; 0x2013 <f256main+0x16ff>
    3aef: a8           	tay
    3af0: 18           	clc
    3af1: 8a           	txa
    3af2: 69 0d        	adc	#$d
    3af4: 85 14        	sta	$14                     ; 0x2014 <f256main+0x1700>
    3af6: 98           	tya
    3af7: 69 00        	adc	#$0
    3af9: 85 15        	sta	$15                     ; 0x2015 <f256main+0x1701>
    3afb: 18           	clc
    3afc: a5 2a        	lda	$2a                     ; 0x202a <f256main+0x1716>
    3afe: a0 0d        	ldy	#$d
    3b00: 71 12        	adc	($12),y                 ; 0x2012 <f256main+0x16fe>
    3b02: 85 12        	sta	$12                     ; 0x2012 <f256main+0x16fe>
    3b04: a5 2b        	lda	$2b                     ; 0x202b <f256main+0x1717>
    3b06: a0 01        	ldy	#$1
    3b08: 71 14        	adc	($14),y                 ; 0x2014 <f256main+0x1700>
    3b0a: a8           	tay
    3b0b: a6 12        	ldx	$12                     ; 0x2012 <f256main+0x16fe>
    3b0d: 86 17        	stx	$17                     ; 0x2017 <f256main+0x1703>
    3b0f: 85 13        	sta	$13                     ; 0x2013 <f256main+0x16ff>
    3b11: a6 12        	ldx	$12                     ; 0x2012 <f256main+0x16fe>
    3b13: 86 14        	stx	$14                     ; 0x2014 <f256main+0x1700>
    3b15: 85 15        	sta	$15                     ; 0x2015 <f256main+0x1701>
    3b17: a2 ff        	ldx	#$ff
    3b19: c6 14        	dec	$14                     ; 0x2014 <f256main+0x1700>
    3b1b: e4 14        	cpx	$14                     ; 0x2014 <f256main+0x1700>
    3b1d: d0 02        	bne	$3b21 <launchBeat+0x427>
    3b1f: c6 15        	dec	$15                     ; 0x2015 <f256main+0x1701>
    3b21: a5 16        	lda	$16                     ; 0x2016 <f256main+0x1702>
    3b23: 92 14        	sta	($14)                   ; 0x2014 <f256main+0x1700>
    3b25: 18           	clc
    3b26: a5 17        	lda	$17                     ; 0x2017 <f256main+0x1703>
    3b28: 69 fe        	adc	#$fe
    3b2a: 85 16        	sta	$16                     ; 0x2016 <f256main+0x1702>
    3b2c: 98           	tya
    3b2d: 69 ff        	adc	#$ff
    3b2f: 85 17        	sta	$17                     ; 0x2017 <f256main+0x1703>
    3b31: b2 16        	lda	($16)                   ; 0x2016 <f256main+0x1702>
    3b33: 85 f3        	sta	$f3                     ; 0x20f3 <f256main+0x17df>
    3b35: b2 14        	lda	($14)                   ; 0x2014 <f256main+0x1700>
    3b37: 85 f4        	sta	$f4                     ; 0x20f4 <f256main+0x17e0>
    3b39: b2 12        	lda	($12)                   ; 0x2012 <f256main+0x16fe>
    3b3b: 85 f5        	sta	$f5                     ; 0x20f5 <f256main+0x17e1>
    3b3d: 18           	clc
    3b3e: a5 10        	lda	$10                     ; 0x2010 <f256main+0x16fc>
    3b40: 69 0a        	adc	#$a
    3b42: 85 12        	sta	$12                     ; 0x2012 <f256main+0x16fe>
    3b44: a5 11        	lda	$11                     ; 0x2011 <f256main+0x16fd>
    3b46: 69 00        	adc	#$0
    3b48: 85 13        	sta	$13                     ; 0x2013 <f256main+0x16ff>
    3b4a: 20 f0 ff     	jsr	$fff0 <__heap_start+0x79aa>
    3b4d: 92 12        	sta	($12)                   ; 0x2012 <f256main+0x16fe>
    3b4f: a9 00        	lda	#$0
    3b51: 6a           	ror
    3b52: 85 18        	sta	$18                     ; 0x2018 <f256main+0x1704>
    3b54: a6 7e        	ldx	$7e                     ; 0x207e <f256main+0x176a>
    3b56: a4 7f        	ldy	$7f                     ; 0x207f <f256main+0x176b>
    3b58: 86 12        	stx	$12                     ; 0x2012 <f256main+0x16fe>
    3b5a: 84 13        	sty	$13                     ; 0x2013 <f256main+0x16ff>
    3b5c: a6 6a        	ldx	$6a                     ; 0x206a <f256main+0x1756>
    3b5e: a4 6b        	ldy	$6b                     ; 0x206b <f256main+0x1757>
    3b60: 86 2c        	stx	$2c                     ; 0x202c <f256main+0x1718>
    3b62: 84 2d        	sty	$2d                     ; 0x202d <f256main+0x1719>
    3b64: a0 08        	ldy	#$8
    3b66: b1 2c        	lda	($2c),y                 ; 0x202c <f256main+0x1718>
    3b68: 85 14        	sta	$14                     ; 0x2014 <f256main+0x1700>
    3b6a: 0a           	asl
    3b6b: aa           	tax
    3b6c: a9 00        	lda	#$0
    3b6e: 2a           	rol
    3b6f: 86 15        	stx	$15                     ; 0x2015 <f256main+0x1701>
    3b71: 06 15        	asl	$15                     ; 0x2015 <f256main+0x1701>
    3b73: 2a           	rol
    3b74: 06 15        	asl	$15                     ; 0x2015 <f256main+0x1701>
    3b76: 2a           	rol
    3b77: 06 15        	asl	$15                     ; 0x2015 <f256main+0x1701>
    3b79: 2a           	rol
    3b7a: aa           	tax
    3b7b: 38           	sec
    3b7c: a5 15        	lda	$15                     ; 0x2015 <f256main+0x1701>
    3b7e: e5 14        	sbc	$14                     ; 0x2014 <f256main+0x1700>
    3b80: 85 14        	sta	$14                     ; 0x2014 <f256main+0x1700>
    3b82: 8a           	txa
    3b83: e9 00        	sbc	#$0
    3b85: aa           	tax
    3b86: 18           	clc
    3b87: a5 14        	lda	$14                     ; 0x2014 <f256main+0x1700>
    3b89: 65 7e        	adc	$7e                     ; 0x207e <f256main+0x176a>
    3b8b: 85 14        	sta	$14                     ; 0x2014 <f256main+0x1700>
    3b8d: 8a           	txa
    3b8e: 65 7f        	adc	$7f                     ; 0x207f <f256main+0x176b>
    3b90: e6 2e        	inc	$2e                     ; 0x202e <f256main+0x171a>
    3b92: 85 15        	sta	$15                     ; 0x2015 <f256main+0x1701>
    3b94: 18           	clc
    3b95: a5 2a        	lda	$2a                     ; 0x202a <f256main+0x1716>
    3b97: 69 03        	adc	#$3
    3b99: 85 2a        	sta	$2a                     ; 0x202a <f256main+0x1716>
    3b9b: a5 2b        	lda	$2b                     ; 0x202b <f256main+0x1717>
    3b9d: 69 00        	adc	#$0
    3b9f: 85 2b        	sta	$2b                     ; 0x202b <f256main+0x1717>
    3ba1: a0 04        	ldy	#$4
    3ba3: a5 2e        	lda	$2e                     ; 0x202e <f256main+0x171a>
    3ba5: d1 14        	cmp	($14),y                 ; 0x2014 <f256main+0x1700>
    3ba7: a6 2e        	ldx	$2e                     ; 0x202e <f256main+0x171a>
    3ba9: 90 03        	bcc	$3bae <launchBeat+0x4b4>
    3bab: 4c 4c 3c     	jmp	$3c4c <launchBeat+0x552>
    3bae: a5 14        	lda	$14                     ; 0x2014 <f256main+0x1700>
    3bb0: 18           	clc
    3bb1: 69 09        	adc	#$9
    3bb3: 85 16        	sta	$16                     ; 0x2016 <f256main+0x1702>
    3bb5: a5 15        	lda	$15                     ; 0x2015 <f256main+0x1701>
    3bb7: 69 00        	adc	#$0
    3bb9: 85 17        	sta	$17                     ; 0x2017 <f256main+0x1703>
    3bbb: a0 09        	ldy	#$9
    3bbd: b1 14        	lda	($14),y                 ; 0x2014 <f256main+0x1700>
    3bbf: 85 14        	sta	$14                     ; 0x2014 <f256main+0x1700>
    3bc1: a0 01        	ldy	#$1
    3bc3: b1 16        	lda	($16),y                 ; 0x2016 <f256main+0x1702>
    3bc5: 85 15        	sta	$15                     ; 0x2015 <f256main+0x1701>
    3bc7: a9 00        	lda	#$0
    3bc9: da           	phx
    3bca: 7a           	ply
    3bcb: 91 14        	sta	($14),y                 ; 0x2014 <f256main+0x1700>
    3bcd: a0 08        	ldy	#$8
    3bcf: b1 2c        	lda	($2c),y                 ; 0x202c <f256main+0x1718>
    3bd1: a4 26        	ldy	$26                     ; 0x2026 <f256main+0x1712>
    3bd3: 84 14        	sty	$14                     ; 0x2014 <f256main+0x1700>
    3bd5: a4 27        	ldy	$27                     ; 0x2027 <f256main+0x1713>
    3bd7: 84 15        	sty	$15                     ; 0x2015 <f256main+0x1701>
    3bd9: a4 28        	ldy	$28                     ; 0x2028 <f256main+0x1714>
    3bdb: 84 16        	sty	$16                     ; 0x2016 <f256main+0x1702>
    3bdd: a4 29        	ldy	$29                     ; 0x2029 <f256main+0x1715>
    3bdf: 84 17        	sty	$17                     ; 0x2017 <f256main+0x1703>
    3be1: a4 24        	ldy	$24                     ; 0x2024 <f256main+0x1710>
    3be3: 84 18        	sty	$18                     ; 0x2018 <f256main+0x1704>
    3be5: a4 25        	ldy	$25                     ; 0x2025 <f256main+0x1711>
    3be7: 84 19        	sty	$19                     ; 0x2019 <f256main+0x1705>
    3be9: 86 2e        	stx	$2e                     ; 0x202e <f256main+0x171a>
    3beb: 20 02 43     	jsr	$4302 <getBeatTrackNoteInfo>
    3bee: b2 24        	lda	($24)                   ; 0x2024 <f256main+0x1710>
    3bf0: c9 03        	cmp	#$3
    3bf2: d0 03        	bne	$3bf7 <launchBeat+0x4fd>
    3bf4: 4c c1 39     	jmp	$39c1 <launchBeat+0x2c7>
    3bf7: c9 01        	cmp	#$1
    3bf9: d0 03        	bne	$3bfe <launchBeat+0x504>
    3bfb: 4c 34 39     	jmp	$3934 <launchBeat+0x23a>
    3bfe: a0 01        	ldy	#$1
    3c00: aa           	tax
    3c01: f0 03        	beq	$3c06 <launchBeat+0x50c>
    3c03: 4c 0a 3a     	jmp	$3a0a <launchBeat+0x310>
    3c06: b1 24        	lda	($24),y                 ; 0x2024 <f256main+0x1710>
    3c08: c9 09        	cmp	#$9
    3c0a: d0 03        	bne	$3c0f <launchBeat+0x515>
    3c0c: 4c 0a 3a     	jmp	$3a0a <launchBeat+0x310>
    3c0f: a0 02        	ldy	#$2
    3c11: aa           	tax
    3c12: b1 24        	lda	($24),y                 ; 0x2024 <f256main+0x1710>
    3c14: 85 12        	sta	$12                     ; 0x2012 <f256main+0x16fe>
    3c16: 8a           	txa
    3c17: 09 c0        	ora	#$c0
    3c19: 8d b1 dd     	sta	$ddb1                   ; 0xddb1 <__heap_start+0x576b>
    3c1c: a6 12        	ldx	$12                     ; 0x2012 <f256main+0x16fe>
    3c1e: 8e b1 dd     	stx	$ddb1                   ; 0xddb1 <__heap_start+0x576b>
    3c21: b1 24        	lda	($24),y                 ; 0x2024 <f256main+0x1710>
    3c23: 85 12        	sta	$12                     ; 0x2012 <f256main+0x16fe>
    3c25: 88           	dey
    3c26: a9 c0        	lda	#$c0
    3c28: 11 24        	ora	($24),y                 ; 0x2024 <f256main+0x1710>
    3c2a: 8d a1 dd     	sta	$dda1                   ; 0xdda1 <__heap_start+0x575b>
    3c2d: a6 12        	ldx	$12                     ; 0x2012 <f256main+0x16fe>
    3c2f: 8e a1 dd     	stx	$dda1                   ; 0xdda1 <__heap_start+0x575b>
    3c32: 4c 0a 3a     	jmp	$3a0a <launchBeat+0x310>
    3c35: a2 00        	ldx	#$0
    3c37: 86 12        	stx	$12                     ; 0x2012 <f256main+0x16fe>
    3c39: a2 00        	ldx	#$0
    3c3b: 86 13        	stx	$13                     ; 0x2013 <f256main+0x16ff>
    3c3d: a6 25        	ldx	$25                     ; 0x2025 <f256main+0x1711>
    3c3f: e4 13        	cpx	$13                     ; 0x2013 <f256main+0x16ff>
    3c41: d0 09        	bne	$3c4c <launchBeat+0x552>
    3c43: a6 24        	ldx	$24                     ; 0x2024 <f256main+0x1710>
    3c45: e4 12        	cpx	$12                     ; 0x2012 <f256main+0x16fe>
    3c47: d0 03        	bne	$3c4c <launchBeat+0x552>
    3c49: 4c 76 3d     	jmp	$3d76 <launchBeat+0x67c>
    3c4c: a2 00        	ldx	#$0
    3c4e: a0 10        	ldy	#$10
    3c50: a9 46        	lda	#$46
    3c52: 86 12        	stx	$12                     ; 0x2012 <f256main+0x16fe>
    3c54: 84 13        	sty	$13                     ; 0x2013 <f256main+0x16ff>
    3c56: 18           	clc
    3c57: 65 12        	adc	$12                     ; 0x2012 <f256main+0x16fe>
    3c59: 85 2c        	sta	$2c                     ; 0x202c <f256main+0x1718>
    3c5b: a9 86        	lda	#$86
    3c5d: 65 13        	adc	$13                     ; 0x2013 <f256main+0x16ff>
    3c5f: 85 2d        	sta	$2d                     ; 0x202d <f256main+0x1719>
    3c61: a5 24        	lda	$24                     ; 0x2024 <f256main+0x1710>
    3c63: 18           	clc
    3c64: 69 fe        	adc	#$fe
    3c66: 85 13        	sta	$13                     ; 0x2013 <f256main+0x16ff>
    3c68: a5 25        	lda	$25                     ; 0x2025 <f256main+0x1711>
    3c6a: 69 ff        	adc	#$ff
    3c6c: a6 13        	ldx	$13                     ; 0x2013 <f256main+0x16ff>
    3c6e: 86 26        	stx	$26                     ; 0x2026 <f256main+0x1712>
    3c70: aa           	tax
    3c71: 85 27        	sta	$27                     ; 0x2027 <f256main+0x1713>
    3c73: b2 26        	lda	($26)                   ; 0x2026 <f256main+0x1712>
    3c75: 85 12        	sta	$12                     ; 0x2012 <f256main+0x16fe>
    3c77: a0 01        	ldy	#$1
    3c79: b1 26        	lda	($26),y                 ; 0x2026 <f256main+0x1712>
    3c7b: 85 2a        	sta	$2a                     ; 0x202a <f256main+0x1716>
    3c7d: a9 fe        	lda	#$fe
    3c7f: 32 26        	and	($26)                   ; 0x2026 <f256main+0x1712>
    3c81: 85 2b        	sta	$2b                     ; 0x202b <f256main+0x1717>
    3c83: a4 13        	ldy	$13                     ; 0x2013 <f256main+0x16ff>
    3c85: 84 15        	sty	$15                     ; 0x2015 <f256main+0x1701>
    3c87: a5 13        	lda	$13                     ; 0x2013 <f256main+0x16ff>
    3c89: 18           	clc
    3c8a: 65 2b        	adc	$2b                     ; 0x202b <f256main+0x1717>
    3c8c: 85 28        	sta	$28                     ; 0x2028 <f256main+0x1714>
    3c8e: 8a           	txa
    3c8f: 86 16        	stx	$16                     ; 0x2016 <f256main+0x1702>
    3c91: 65 2a        	adc	$2a                     ; 0x202a <f256main+0x1716>
    3c93: c5 2d        	cmp	$2d                     ; 0x202d <f256main+0x1719>
    3c95: d0 10        	bne	$3ca7 <launchBeat+0x5ad>
    3c97: a6 28        	ldx	$28                     ; 0x2028 <f256main+0x1714>
    3c99: e4 2c        	cpx	$2c                     ; 0x202c <f256main+0x1718>
    3c9b: d0 0a        	bne	$3ca7 <launchBeat+0x5ad>
    3c9d: a2 00        	ldx	#$0
    3c9f: 86 28        	stx	$28                     ; 0x2028 <f256main+0x1714>
    3ca1: a2 00        	ldx	#$0
    3ca3: 86 29        	stx	$29                     ; 0x2029 <f256main+0x1715>
    3ca5: 80 02        	bra	$3ca9 <launchBeat+0x5af>
    3ca7: 85 29        	sta	$29                     ; 0x2029 <f256main+0x1715>
    3ca9: a5 12        	lda	$12                     ; 0x2012 <f256main+0x16fe>
    3cab: 29 01        	and	#$1
    3cad: f0 4b        	beq	$3cfa <launchBeat+0x600>
    3caf: a5 24        	lda	$24                     ; 0x2024 <f256main+0x1710>
    3cb1: 18           	clc
    3cb2: 69 fc        	adc	#$fc
    3cb4: 85 12        	sta	$12                     ; 0x2012 <f256main+0x16fe>
    3cb6: a5 25        	lda	$25                     ; 0x2025 <f256main+0x1711>
    3cb8: 69 ff        	adc	#$ff
    3cba: 85 13        	sta	$13                     ; 0x2013 <f256main+0x16ff>
    3cbc: a0 01        	ldy	#$1
    3cbe: 38           	sec
    3cbf: a9 00        	lda	#$0
    3cc1: f2 12        	sbc	($12)                   ; 0x2012 <f256main+0x16fe>
    3cc3: 85 14        	sta	$14                     ; 0x2014 <f256main+0x1700>
    3cc5: a9 00        	lda	#$0
    3cc7: f1 12        	sbc	($12),y                 ; 0x2012 <f256main+0x16fe>
    3cc9: 85 12        	sta	$12                     ; 0x2012 <f256main+0x16fe>
    3ccb: a5 15        	lda	$15                     ; 0x2015 <f256main+0x1701>
    3ccd: 18           	clc
    3cce: 65 14        	adc	$14                     ; 0x2014 <f256main+0x1700>
    3cd0: 85 26        	sta	$26                     ; 0x2026 <f256main+0x1712>
    3cd2: a5 16        	lda	$16                     ; 0x2016 <f256main+0x1702>
    3cd4: 65 12        	adc	$12                     ; 0x2012 <f256main+0x16fe>
    3cd6: 85 27        	sta	$27                     ; 0x2027 <f256main+0x1713>
    3cd8: b1 26        	lda	($26),y                 ; 0x2026 <f256main+0x1712>
    3cda: 85 24        	sta	$24                     ; 0x2024 <f256main+0x1710>
    3cdc: a9 fe        	lda	#$fe
    3cde: 32 26        	and	($26)                   ; 0x2026 <f256main+0x1712>
    3ce0: 85 25        	sta	$25                     ; 0x2025 <f256main+0x1711>
    3ce2: a6 26        	ldx	$26                     ; 0x2026 <f256main+0x1712>
    3ce4: 86 12        	stx	$12                     ; 0x2012 <f256main+0x16fe>
    3ce6: a6 27        	ldx	$27                     ; 0x2027 <f256main+0x1713>
    3ce8: 86 13        	stx	$13                     ; 0x2013 <f256main+0x16ff>
    3cea: 20 56 04     	jsr	$456 <_ZN12_GLOBAL__N_19FreeChunk6removeEv>
    3ced: 18           	clc
    3cee: a5 25        	lda	$25                     ; 0x2025 <f256main+0x1711>
    3cf0: 65 2b        	adc	$2b                     ; 0x202b <f256main+0x1717>
    3cf2: 85 2b        	sta	$2b                     ; 0x202b <f256main+0x1717>
    3cf4: a5 24        	lda	$24                     ; 0x2024 <f256main+0x1710>
    3cf6: 65 2a        	adc	$2a                     ; 0x202a <f256main+0x1716>
    3cf8: 85 2a        	sta	$2a                     ; 0x202a <f256main+0x1716>
    3cfa: a2 00        	ldx	#$0
    3cfc: 86 12        	stx	$12                     ; 0x2012 <f256main+0x16fe>
    3cfe: a2 00        	ldx	#$0
    3d00: 86 13        	stx	$13                     ; 0x2013 <f256main+0x16ff>
    3d02: a6 29        	ldx	$29                     ; 0x2029 <f256main+0x1715>
    3d04: e4 13        	cpx	$13                     ; 0x2013 <f256main+0x16ff>
    3d06: d0 0d        	bne	$3d15 <launchBeat+0x61b>
    3d08: a6 28        	ldx	$28                     ; 0x2028 <f256main+0x1714>
    3d0a: e4 12        	cpx	$12                     ; 0x2012 <f256main+0x16fe>
    3d0c: d0 07        	bne	$3d15 <launchBeat+0x61b>
    3d0e: a2 01        	ldx	#$1
    3d10: 8e 42 86     	stx	$8642                   ; 0x8642 <_ZN12_GLOBAL__N_19last_freeE>
    3d13: 80 52        	bra	$3d67 <launchBeat+0x66d>
    3d15: a0 01        	ldy	#$1
    3d17: b1 28        	lda	($28),y                 ; 0x2028 <f256main+0x1714>
    3d19: aa           	tax
    3d1a: a9 fe        	lda	#$fe
    3d1c: 32 28        	and	($28)                   ; 0x2028 <f256main+0x1714>
    3d1e: 18           	clc
    3d1f: 85 25        	sta	$25                     ; 0x2025 <f256main+0x1711>
    3d21: 65 28        	adc	$28                     ; 0x2028 <f256main+0x1714>
    3d23: 85 12        	sta	$12                     ; 0x2012 <f256main+0x16fe>
    3d25: 8a           	txa
    3d26: 86 24        	stx	$24                     ; 0x2024 <f256main+0x1710>
    3d28: 65 29        	adc	$29                     ; 0x2029 <f256main+0x1715>
    3d2a: c5 2d        	cmp	$2d                     ; 0x202d <f256main+0x1719>
    3d2c: d0 0f        	bne	$3d3d <launchBeat+0x643>
    3d2e: a6 12        	ldx	$12                     ; 0x2012 <f256main+0x16fe>
    3d30: e4 2c        	cpx	$2c                     ; 0x202c <f256main+0x1718>
    3d32: d0 09        	bne	$3d3d <launchBeat+0x643>
    3d34: a9 01        	lda	#$1
    3d36: 64 12        	stz	$12                     ; 0x2012 <f256main+0x16fe>
    3d38: 2d 42 86     	and	$8642                   ; 0x8642 <_ZN12_GLOBAL__N_19last_freeE>
    3d3b: 80 08        	bra	$3d45 <launchBeat+0x64b>
    3d3d: 85 13        	sta	$13                     ; 0x2013 <f256main+0x16ff>
    3d3f: a9 01        	lda	#$1
    3d41: 32 12        	and	($12)                   ; 0x2012 <f256main+0x16fe>
    3d43: 64 12        	stz	$12                     ; 0x2012 <f256main+0x16fe>
    3d45: a6 12        	ldx	$12                     ; 0x2012 <f256main+0x16fe>
    3d47: d0 06        	bne	$3d4f <launchBeat+0x655>
    3d49: aa           	tax
    3d4a: d0 03        	bne	$3d4f <launchBeat+0x655>
    3d4c: 4c b4 3d     	jmp	$3db4 <launchBeat+0x6ba>
    3d4f: a6 28        	ldx	$28                     ; 0x2028 <f256main+0x1714>
    3d51: 86 12        	stx	$12                     ; 0x2012 <f256main+0x16fe>
    3d53: a6 29        	ldx	$29                     ; 0x2029 <f256main+0x1715>
    3d55: 86 13        	stx	$13                     ; 0x2013 <f256main+0x16ff>
    3d57: 20 56 04     	jsr	$456 <_ZN12_GLOBAL__N_19FreeChunk6removeEv>
    3d5a: 18           	clc
    3d5b: a5 25        	lda	$25                     ; 0x2025 <f256main+0x1711>
    3d5d: 65 2b        	adc	$2b                     ; 0x202b <f256main+0x1717>
    3d5f: 85 2b        	sta	$2b                     ; 0x202b <f256main+0x1717>
    3d61: a5 24        	lda	$24                     ; 0x2024 <f256main+0x1710>
    3d63: 65 2a        	adc	$2a                     ; 0x202a <f256main+0x1716>
    3d65: 85 2a        	sta	$2a                     ; 0x202a <f256main+0x1716>
    3d67: a6 26        	ldx	$26                     ; 0x2026 <f256main+0x1712>
    3d69: 86 12        	stx	$12                     ; 0x2012 <f256main+0x16fe>
    3d6b: a6 27        	ldx	$27                     ; 0x2027 <f256main+0x1713>
    3d6d: 86 13        	stx	$13                     ; 0x2013 <f256main+0x16ff>
    3d6f: a6 2a        	ldx	$2a                     ; 0x202a <f256main+0x1716>
    3d71: a5 2b        	lda	$2b                     ; 0x202b <f256main+0x1717>
    3d73: 20 1c 03     	jsr	$31c <_ZN12_GLOBAL__N_19FreeChunk6insertEPvj>
    3d76: a0 00        	ldy	#$0
    3d78: b1 10        	lda	($10),y                 ; 0x2010 <f256main+0x16fc>
    3d7a: 85 2e        	sta	$2e                     ; 0x202e <f256main+0x171a>
    3d7c: c8           	iny
    3d7d: b1 10        	lda	($10),y                 ; 0x2010 <f256main+0x16fc>
    3d7f: 85 2d        	sta	$2d                     ; 0x202d <f256main+0x1719>
    3d81: c8           	iny
    3d82: b1 10        	lda	($10),y                 ; 0x2010 <f256main+0x16fc>
    3d84: 85 2c        	sta	$2c                     ; 0x202c <f256main+0x1718>
    3d86: c8           	iny
    3d87: b1 10        	lda	($10),y                 ; 0x2010 <f256main+0x16fc>
    3d89: 85 2b        	sta	$2b                     ; 0x202b <f256main+0x1717>
    3d8b: c8           	iny
    3d8c: b1 10        	lda	($10),y                 ; 0x2010 <f256main+0x16fc>
    3d8e: 85 2a        	sta	$2a                     ; 0x202a <f256main+0x1716>
    3d90: c8           	iny
    3d91: b1 10        	lda	($10),y                 ; 0x2010 <f256main+0x16fc>
    3d93: 85 29        	sta	$29                     ; 0x2029 <f256main+0x1715>
    3d95: c8           	iny
    3d96: b1 10        	lda	($10),y                 ; 0x2010 <f256main+0x16fc>
    3d98: 85 28        	sta	$28                     ; 0x2028 <f256main+0x1714>
    3d9a: fa           	plx
    3d9b: 86 27        	stx	$27                     ; 0x2027 <f256main+0x1713>
    3d9d: fa           	plx
    3d9e: 86 26        	stx	$26                     ; 0x2026 <f256main+0x1712>
    3da0: fa           	plx
    3da1: 86 25        	stx	$25                     ; 0x2025 <f256main+0x1711>
    3da3: fa           	plx
    3da4: 86 24        	stx	$24                     ; 0x2024 <f256main+0x1710>
    3da6: 18           	clc
    3da7: a5 10        	lda	$10                     ; 0x2010 <f256main+0x16fc>
    3da9: 69 0b        	adc	#$b
    3dab: 85 10        	sta	$10                     ; 0x2010 <f256main+0x16fc>
    3dad: a5 11        	lda	$11                     ; 0x2011 <f256main+0x16fd>
    3daf: 69 00        	adc	#$0
    3db1: 85 11        	sta	$11                     ; 0x2011 <f256main+0x16fd>
    3db3: 60           	rts
    3db4: b2 28        	lda	($28)                   ; 0x2028 <f256main+0x1714>
    3db6: 09 01        	ora	#$1
    3db8: 92 28        	sta	($28)                   ; 0x2028 <f256main+0x1714>
    3dba: a5 24        	lda	$24                     ; 0x2024 <f256main+0x1710>
    3dbc: 91 28        	sta	($28),y                 ; 0x2028 <f256main+0x1714>
    3dbe: 4c 67 3d     	jmp	$3d67 <launchBeat+0x66d>

00003dc1 <escReset>:
    3dc1: a2 b1        	ldx	#$b1
    3dc3: 86 14        	stx	$14                     ; 0x2014 <f256main+0x1700>
    3dc5: a2 dd        	ldx	#$dd
    3dc7: 86 15        	stx	$15                     ; 0x2015 <f256main+0x1701>
    3dc9: a2 a1        	ldx	#$a1
    3dcb: 86 12        	stx	$12                     ; 0x2012 <f256main+0x16fe>
    3dcd: a2 dd        	ldx	#$dd
    3dcf: 86 13        	stx	$13                     ; 0x2013 <f256main+0x16ff>
    3dd1: a6 6a        	ldx	$6a                     ; 0x206a <f256main+0x1756>
    3dd3: a4 6b        	ldy	$6b                     ; 0x206b <f256main+0x1757>
    3dd5: 86 16        	stx	$16                     ; 0x2016 <f256main+0x1702>
    3dd7: 84 17        	sty	$17                     ; 0x2017 <f256main+0x1703>
    3dd9: b2 16        	lda	($16)                   ; 0x2016 <f256main+0x1702>
    3ddb: a2 a1        	ldx	#$a1
    3ddd: 86 16        	stx	$16                     ; 0x2016 <f256main+0x1702>
    3ddf: a2 dd        	ldx	#$dd
    3de1: 86 17        	stx	$17                     ; 0x2017 <f256main+0x1703>
    3de3: aa           	tax
    3de4: f0 08        	beq	$3dee <escReset+0x2d>
    3de6: a2 b1        	ldx	#$b1
    3de8: 86 16        	stx	$16                     ; 0x2016 <f256main+0x1702>
    3dea: a2 dd        	ldx	#$dd
    3dec: 86 17        	stx	$17                     ; 0x2017 <f256main+0x1703>
    3dee: a9 c0        	lda	#$c0
    3df0: 92 16        	sta	($16)                   ; 0x2016 <f256main+0x1702>
    3df2: aa           	tax
    3df3: a9 00        	lda	#$0
    3df5: 92 16        	sta	($16)                   ; 0x2016 <f256main+0x1702>
    3df7: 8a           	txa
    3df8: 1a           	inc
    3df9: c9 d0        	cmp	#$d0
    3dfb: d0 f3        	bne	$3df0 <escReset+0x2f>
    3dfd: a9 ff        	lda	#$ff
    3dff: 92 16        	sta	($16)                   ; 0x2016 <f256main+0x1702>
    3e01: a6 6a        	ldx	$6a                     ; 0x206a <f256main+0x1756>
    3e03: a4 6b        	ldy	$6b                     ; 0x206b <f256main+0x1757>
    3e05: 86 16        	stx	$16                     ; 0x2016 <f256main+0x1702>
    3e07: 84 17        	sty	$17                     ; 0x2017 <f256main+0x1703>
    3e09: b2 16        	lda	($16)                   ; 0x2016 <f256main+0x1702>
    3e0b: c9 ff        	cmp	#$ff
    3e0d: f0 08        	beq	$3e17 <escReset+0x56>
    3e0f: a2 b1        	ldx	#$b1
    3e11: 86 12        	stx	$12                     ; 0x2012 <f256main+0x16fe>
    3e13: a2 dd        	ldx	#$dd
    3e15: 86 13        	stx	$13                     ; 0x2013 <f256main+0x16ff>
    3e17: a9 c0        	lda	#$c0
    3e19: 92 12        	sta	($12)                   ; 0x2012 <f256main+0x16fe>
    3e1b: aa           	tax
    3e1c: a9 00        	lda	#$0
    3e1e: 92 12        	sta	($12)                   ; 0x2012 <f256main+0x16fe>
    3e20: 8a           	txa
    3e21: 1a           	inc
    3e22: c9 d0        	cmp	#$d0
    3e24: d0 f3        	bne	$3e19 <escReset+0x58>
    3e26: a9 ff        	lda	#$ff
    3e28: 92 12        	sta	($12)                   ; 0x2012 <f256main+0x16fe>
    3e2a: a6 6a        	ldx	$6a                     ; 0x206a <f256main+0x1756>
    3e2c: a4 6b        	ldy	$6b                     ; 0x206b <f256main+0x1757>
    3e2e: 86 8f        	stx	$8f                     ; 0x208f <f256main+0x177b>
    3e30: 86 8d        	stx	$8d                     ; 0x208d <f256main+0x1779>
    3e32: 84 90        	sty	$90                     ; 0x2090 <f256main+0x177c>
    3e34: 84 8e        	sty	$8e                     ; 0x208e <f256main+0x177a>
    3e36: 1a           	inc
    3e37: 92 8d        	sta	($8d)                   ; 0x208d <f256main+0x1779>
    3e39: a9 0a        	lda	#$a
    3e3b: a2 00        	ldx	#$0
    3e3d: 20 7f 5e     	jsr	$5e7f <malloc>
    3e40: a6 8d        	ldx	$8d                     ; 0x208d <f256main+0x1779>
    3e42: 86 14        	stx	$14                     ; 0x2014 <f256main+0x1700>
    3e44: a6 8e        	ldx	$8e                     ; 0x208e <f256main+0x177a>
    3e46: 86 15        	stx	$15                     ; 0x2015 <f256main+0x1701>
    3e48: e6 14        	inc	$14                     ; 0x2014 <f256main+0x1700>
    3e4a: d0 02        	bne	$3e4e <escReset+0x8d>
    3e4c: e6 15        	inc	$15                     ; 0x2015 <f256main+0x1701>
    3e4e: a5 12        	lda	$12                     ; 0x2012 <f256main+0x16fe>
    3e50: a0 01        	ldy	#$1
    3e52: 91 8d        	sta	($8d),y                 ; 0x208d <f256main+0x1779>
    3e54: a5 13        	lda	$13                     ; 0x2013 <f256main+0x16ff>
    3e56: 91 14        	sta	($14),y                 ; 0x2014 <f256main+0x1700>
    3e58: a2 00        	ldx	#$0
    3e5a: 86 14        	stx	$14                     ; 0x2014 <f256main+0x1700>
    3e5c: a2 00        	ldx	#$0
    3e5e: 86 15        	stx	$15                     ; 0x2015 <f256main+0x1701>
    3e60: a6 13        	ldx	$13                     ; 0x2013 <f256main+0x16ff>
    3e62: e4 15        	cpx	$15                     ; 0x2015 <f256main+0x1701>
    3e64: d0 11        	bne	$3e77 <escReset+0xb6>
    3e66: a6 12        	ldx	$12                     ; 0x2012 <f256main+0x16fe>
    3e68: e4 14        	cpx	$14                     ; 0x2014 <f256main+0x1700>
    3e6a: d0 0b        	bne	$3e77 <escReset+0xb6>
    3e6c: a2 f1        	ldx	#$f1
    3e6e: 86 12        	stx	$12                     ; 0x2012 <f256main+0x16fe>
    3e70: a2 75        	ldx	#$75
    3e72: 86 13        	stx	$13                     ; 0x2013 <f256main+0x16ff>
    3e74: 20 53 52     	jsr	$5253 <printf>
    3e77: 18           	clc
    3e78: a5 8f        	lda	$8f                     ; 0x208f <f256main+0x177b>
    3e7a: 69 03        	adc	#$3
    3e7c: 85 12        	sta	$12                     ; 0x2012 <f256main+0x16fe>
    3e7e: a5 90        	lda	$90                     ; 0x2090 <f256main+0x177c>
    3e80: 69 00        	adc	#$0
    3e82: 85 13        	sta	$13                     ; 0x2013 <f256main+0x16ff>
    3e84: a2 06        	ldx	#$6
    3e86: 64 14        	stz	$14                     ; 0x2014 <f256main+0x1700>
    3e88: a9 00        	lda	#$0
    3e8a: 20 7e 60     	jsr	$607e <__memset>
    3e8d: a0 09        	ldy	#$9
    3e8f: a9 78        	lda	#$78
    3e91: 91 8d        	sta	($8d),y                 ; 0x208d <f256main+0x1779>
    3e93: a0 00        	ldy	#$0
    3e95: a6 8d        	ldx	$8d                     ; 0x208d <f256main+0x1779>
    3e97: 86 12        	stx	$12                     ; 0x2012 <f256main+0x16fe>
    3e99: a6 8e        	ldx	$8e                     ; 0x208e <f256main+0x177a>
    3e9b: 86 13        	stx	$13                     ; 0x2013 <f256main+0x16ff>
    3e9d: e6 12        	inc	$12                     ; 0x2012 <f256main+0x16fe>
    3e9f: d0 02        	bne	$3ea3 <escReset+0xe2>
    3ea1: e6 13        	inc	$13                     ; 0x2013 <f256main+0x16ff>
    3ea3: 84 14        	sty	$14                     ; 0x2014 <f256main+0x1700>
    3ea5: a0 01        	ldy	#$1
    3ea7: b1 8d        	lda	($8d),y                 ; 0x208d <f256main+0x1779>
    3ea9: aa           	tax
    3eaa: b1 12        	lda	($12),y                 ; 0x2012 <f256main+0x16fe>
    3eac: a4 14        	ldy	$14                     ; 0x2014 <f256main+0x1700>
    3eae: 85 13        	sta	$13                     ; 0x2013 <f256main+0x16ff>
    3eb0: 86 12        	stx	$12                     ; 0x2012 <f256main+0x16fe>
    3eb2: a9 00        	lda	#$0
    3eb4: 91 12        	sta	($12),y                 ; 0x2012 <f256main+0x16fe>
    3eb6: c8           	iny
    3eb7: c0 0a        	cpy	#$a
    3eb9: d0 da        	bne	$3e95 <escReset+0xd4>
    3ebb: a2 02        	ldx	#$2
    3ebd: 86 01        	stx	$1                      ; 0x2001 <f256main+0x16ed>
    3ebf: a2 c0        	ldx	#$c0
    3ec1: a0 00        	ldy	#$0
    3ec3: a9 20        	lda	#$20
    3ec5: 84 12        	sty	$12                     ; 0x2012 <f256main+0x16fe>
    3ec7: 86 13        	stx	$13                     ; 0x2013 <f256main+0x16ff>
    3ec9: 92 12        	sta	($12)                   ; 0x2012 <f256main+0x16fe>
    3ecb: c8           	iny
    3ecc: d0 01        	bne	$3ecf <escReset+0x10e>
    3ece: e8           	inx
    3ecf: e0 d2        	cpx	#$d2
    3ed1: d0 f2        	bne	$3ec5 <escReset+0x104>
    3ed3: c0 c0        	cpy	#$c0
    3ed5: d0 ee        	bne	$3ec5 <escReset+0x104>
    3ed7: 64 01        	stz	$1                      ; 0x2001 <f256main+0x16ed>
    3ed9: a6 6a        	ldx	$6a                     ; 0x206a <f256main+0x1756>
    3edb: a4 6b        	ldy	$6b                     ; 0x206b <f256main+0x1757>
    3edd: 86 12        	stx	$12                     ; 0x2012 <f256main+0x16fe>
    3edf: 84 13        	sty	$13                     ; 0x2013 <f256main+0x16ff>
    3ee1: 20 ec 4a     	jsr	$4aec <textTitle>
    3ee4: ad 04 d4     	lda	$d404                   ; 0xd404 <__heap_start+0x4dbe>
    3ee7: 29 fe        	and	#$fe
    3ee9: 8d 04 d4     	sta	$d404                   ; 0xd404 <__heap_start+0x4dbe>
    3eec: ad 0b d4     	lda	$d40b                   ; 0xd40b <__heap_start+0x4dc5>
    3eef: 29 fe        	and	#$fe
    3ef1: 8d 0b d4     	sta	$d40b                   ; 0xd40b <__heap_start+0x4dc5>
    3ef4: ad 12 d4     	lda	$d412                   ; 0xd412 <__heap_start+0x4dcc>
    3ef7: 29 fe        	and	#$fe
    3ef9: 8d 12 d4     	sta	$d412                   ; 0xd412 <__heap_start+0x4dcc>
    3efc: ad 04 d5     	lda	$d504                   ; 0xd504 <__heap_start+0x4ebe>
    3eff: 29 fe        	and	#$fe
    3f01: 8d 04 d5     	sta	$d504                   ; 0xd504 <__heap_start+0x4ebe>
    3f04: ad 0b d5     	lda	$d50b                   ; 0xd50b <__heap_start+0x4ec5>
    3f07: 29 fe        	and	#$fe
    3f09: 8d 0b d5     	sta	$d50b                   ; 0xd50b <__heap_start+0x4ec5>
    3f0c: ad 12 d5     	lda	$d512                   ; 0xd512 <__heap_start+0x4ecc>
    3f0f: 29 fe        	and	#$fe
    3f11: 8d 12 d5     	sta	$d512                   ; 0xd512 <__heap_start+0x4ecc>
    3f14: a2 10        	ldx	#$10
    3f16: a0 ff        	ldy	#$ff
    3f18: 8a           	txa
    3f19: 09 9f        	ora	#$9f
    3f1b: 8d 00 d6     	sta	$d600                   ; 0xd600 <__heap_start+0x4fba>
    3f1e: 8d 10 d6     	sta	$d610                   ; 0xd610 <__heap_start+0x4fca>
    3f21: 18           	clc
    3f22: 98           	tya
    3f23: 69 02        	adc	#$2
    3f25: 85 12        	sta	$12                     ; 0x2012 <f256main+0x16fe>
    3f27: 18           	clc
    3f28: 8a           	txa
    3f29: 69 20        	adc	#$20
    3f2b: aa           	tax
    3f2c: a4 12        	ldy	$12                     ; 0x2012 <f256main+0x16fe>
    3f2e: a5 12        	lda	$12                     ; 0x2012 <f256main+0x16fe>
    3f30: c9 06        	cmp	#$6
    3f32: 90 e4        	bcc	$3f18 <escReset+0x157>
    3f34: 64 61        	stz	$61                     ; 0x2061 <f256main+0x174d>
    3f36: a2 c2        	ldx	#$c2
    3f38: 8e b1 dd     	stx	$ddb1                   ; 0xddb1 <__heap_start+0x576b>
    3f3b: a0 73        	ldy	#$73
    3f3d: 8c b1 dd     	sty	$ddb1                   ; 0xddb1 <__heap_start+0x576b>
    3f40: 8e a1 dd     	stx	$dda1                   ; 0xdda1 <__heap_start+0x575b>
    3f43: 8c a1 dd     	sty	$dda1                   ; 0xdda1 <__heap_start+0x575b>
    3f46: a6 6a        	ldx	$6a                     ; 0x206a <f256main+0x1756>
    3f48: a4 6b        	ldy	$6b                     ; 0x206b <f256main+0x1757>
    3f4a: 86 12        	stx	$12                     ; 0x2012 <f256main+0x16fe>
    3f4c: 84 13        	sty	$13                     ; 0x2013 <f256main+0x16ff>
    3f4e: 86 14        	stx	$14                     ; 0x2014 <f256main+0x1700>
    3f50: 84 15        	sty	$15                     ; 0x2015 <f256main+0x1701>
    3f52: e6 14        	inc	$14                     ; 0x2014 <f256main+0x1700>
    3f54: d0 02        	bne	$3f58 <escReset+0x197>
    3f56: e6 15        	inc	$15                     ; 0x2015 <f256main+0x1701>
    3f58: a0 01        	ldy	#$1
    3f5a: b1 12        	lda	($12),y                 ; 0x2012 <f256main+0x16fe>
    3f5c: 85 16        	sta	$16                     ; 0x2016 <f256main+0x1702>
    3f5e: b1 14        	lda	($14),y                 ; 0x2014 <f256main+0x1700>
    3f60: 85 17        	sta	$17                     ; 0x2017 <f256main+0x1703>
    3f62: a9 00        	lda	#$0
    3f64: 92 16        	sta	($16)                   ; 0x2016 <f256main+0x1702>
    3f66: b1 12        	lda	($12),y                 ; 0x2012 <f256main+0x16fe>
    3f68: 85 16        	sta	$16                     ; 0x2016 <f256main+0x1702>
    3f6a: b1 14        	lda	($14),y                 ; 0x2014 <f256main+0x1700>
    3f6c: 85 17        	sta	$17                     ; 0x2017 <f256main+0x1703>
    3f6e: a9 00        	lda	#$0
    3f70: 91 16        	sta	($16),y                 ; 0x2016 <f256main+0x1702>
    3f72: b1 12        	lda	($12),y                 ; 0x2012 <f256main+0x16fe>
    3f74: 85 12        	sta	$12                     ; 0x2012 <f256main+0x16fe>
    3f76: b1 14        	lda	($14),y                 ; 0x2014 <f256main+0x1700>
    3f78: 85 13        	sta	$13                     ; 0x2013 <f256main+0x16ff>
    3f7a: a0 09        	ldy	#$9
    3f7c: a9 00        	lda	#$0
    3f7e: 91 12        	sta	($12),y                 ; 0x2012 <f256main+0x16fe>
    3f80: 60           	rts

00003f81 <prepTempoLUT>:
    3f81: 18           	clc
    3f82: a5 10        	lda	$10                     ; 0x2010 <f256main+0x16fc>
    3f84: 69 fe        	adc	#$fe
    3f86: 85 10        	sta	$10                     ; 0x2010 <f256main+0x16fc>
    3f88: a5 11        	lda	$11                     ; 0x2011 <f256main+0x16fd>
    3f8a: 69 ff        	adc	#$ff
    3f8c: 85 11        	sta	$11                     ; 0x2011 <f256main+0x16fd>
    3f8e: a6 6a        	ldx	$6a                     ; 0x206a <f256main+0x1756>
    3f90: a4 6b        	ldy	$6b                     ; 0x206b <f256main+0x1757>
    3f92: 86 12        	stx	$12                     ; 0x2012 <f256main+0x16fe>
    3f94: 84 13        	sty	$13                     ; 0x2013 <f256main+0x16ff>
    3f96: a0 09        	ldy	#$9
    3f98: b1 12        	lda	($12),y                 ; 0x2012 <f256main+0x16fe>
    3f9a: 64 12        	stz	$12                     ; 0x2012 <f256main+0x16fe>
    3f9c: 64 13        	stz	$13                     ; 0x2013 <f256main+0x16ff>
    3f9e: a2 00        	ldx	#$0
    3fa0: 20 3b 72     	jsr	$723b <__floatunsisf>
    3fa3: 85 14        	sta	$14                     ; 0x2014 <f256main+0x1700>
    3fa5: 86 15        	stx	$15                     ; 0x2015 <f256main+0x1701>
    3fa7: a6 12        	ldx	$12                     ; 0x2012 <f256main+0x16fe>
    3fa9: a4 13        	ldy	$13                     ; 0x2013 <f256main+0x16ff>
    3fab: a9 e1        	lda	#$e1
    3fad: 85 12        	sta	$12                     ; 0x2012 <f256main+0x16fe>
    3faf: a9 43        	lda	#$43
    3fb1: 85 13        	sta	$13                     ; 0x2013 <f256main+0x16ff>
    3fb3: 86 16        	stx	$16                     ; 0x2016 <f256main+0x1702>
    3fb5: 84 17        	sty	$17                     ; 0x2017 <f256main+0x1703>
    3fb7: a2 00        	ldx	#$0
    3fb9: 64 8d        	stz	$8d                     ; 0x208d <f256main+0x1779>
    3fbb: 8a           	txa
    3fbc: 20 2d 66     	jsr	$662d <__divsf3>
    3fbf: 20 bf 71     	jsr	$71bf <__fixunssfsi>
    3fc2: 85 13        	sta	$13                     ; 0x2013 <f256main+0x16ff>
    3fc4: 85 6c        	sta	$6c                     ; 0x206c <f256main+0x1758>
    3fc6: a0 01        	ldy	#$1
    3fc8: 84 12        	sty	$12                     ; 0x2012 <f256main+0x16fe>
    3fca: a5 13        	lda	$13                     ; 0x2013 <f256main+0x16ff>
    3fcc: 0a           	asl
    3fcd: c6 12        	dec	$12                     ; 0x2012 <f256main+0x16fe>
    3fcf: d0 fb        	bne	$3fcc <prepTempoLUT+0x4b>
    3fd1: a6 8d        	ldx	$8d                     ; 0x208d <f256main+0x1779>
    3fd3: 9d 6d 00     	sta	$6d,x                   ; 0x6d <mainTempoLUT+0x1>
    3fd6: c8           	iny
    3fd7: e8           	inx
    3fd8: 86 8d        	stx	$8d                     ; 0x208d <f256main+0x1779>
    3fda: c0 06        	cpy	#$6
    3fdc: d0 ea        	bne	$3fc8 <prepTempoLUT+0x47>
    3fde: 64 8d        	stz	$8d                     ; 0x208d <f256main+0x1779>
    3fe0: a2 00        	ldx	#$0
    3fe2: b5 6c        	lda	$6c,x                   ; 0x206c <f256main+0x1758>
    3fe4: 0a           	asl
    3fe5: 64 14        	stz	$14                     ; 0x2014 <f256main+0x1700>
    3fe7: 26 14        	rol	$14                     ; 0x2014 <f256main+0x1700>
    3fe9: 86 8e        	stx	$8e                     ; 0x208e <f256main+0x177a>
    3feb: a2 03        	ldx	#$3
    3fed: 86 12        	stx	$12                     ; 0x2012 <f256main+0x16fe>
    3fef: 64 13        	stz	$13                     ; 0x2013 <f256main+0x16ff>
    3ff1: a6 14        	ldx	$14                     ; 0x2014 <f256main+0x1700>
    3ff3: 20 dd 62     	jsr	$62dd <__udivhi3>
    3ff6: a6 8e        	ldx	$8e                     ; 0x208e <f256main+0x177a>
    3ff8: 9d 72 00     	sta	$72,x                   ; 0x72 <mainTempoLUT+0x6>
    3ffb: e8           	inx
    3ffc: e0 06        	cpx	#$6
    3ffe: d0 e2        	bne	$3fe2 <prepTempoLUT+0x61>
    4000: a5 6d        	lda	$6d                     ; 0x206d <f256main+0x1759>
    4002: 0a           	asl
    4003: 85 12        	sta	$12                     ; 0x2012 <f256main+0x16fe>
    4005: 0a           	asl
    4006: 0a           	asl
    4007: 0a           	asl
    4008: 18           	clc
    4009: 65 12        	adc	$12                     ; 0x2012 <f256main+0x16fe>
    400b: 85 7d        	sta	$7d                     ; 0x207d <f256main+0x1769>
    400d: a2 03        	ldx	#$3
    400f: 20 81 62     	jsr	$6281 <__udivqi3>
    4012: 0a           	asl
    4013: 85 77        	sta	$77                     ; 0x2077 <f256main+0x1763>
    4015: 64 12        	stz	$12                     ; 0x2012 <f256main+0x16fe>
    4017: 64 33        	stz	$33                     ; 0x2033 <f256main+0x171f>
    4019: 9c 14 d0     	stz	$d014                   ; 0xd014 <__heap_start+0x49ce>
    401c: 9c 15 d0     	stz	$d015                   ; 0xd015 <__heap_start+0x49cf>
    401f: a2 0a        	ldx	#$a
    4021: 86 34        	stx	$34                     ; 0x2034 <f256main+0x1720>
    4023: 8e 16 d0     	stx	$d016                   ; 0xd016 <__heap_start+0x49d0>
    4026: 9c 17 d0     	stz	$d017                   ; 0xd017 <__heap_start+0x49d1>
    4029: a2 00        	ldx	#$0
    402b: b5 6c        	lda	$6c,x                   ; 0x206c <f256main+0x1758>
    402d: 92 10        	sta	($10)                   ; 0x2010 <f256main+0x16fc>
    402f: a9 00        	lda	#$0
    4031: a0 01        	ldy	#$1
    4033: 91 10        	sta	($10),y                 ; 0x2010 <f256main+0x16fc>
    4035: a0 65        	ldy	#$65
    4037: 84 12        	sty	$12                     ; 0x2012 <f256main+0x16fe>
    4039: a0 78        	ldy	#$78
    403b: 84 13        	sty	$13                     ; 0x2013 <f256main+0x16ff>
    403d: 86 8d        	stx	$8d                     ; 0x208d <f256main+0x1779>
    403f: 20 53 52     	jsr	$5253 <printf>
    4042: a6 8d        	ldx	$8d                     ; 0x208d <f256main+0x1779>
    4044: e8           	inx
    4045: e0 12        	cpx	#$12
    4047: d0 e2        	bne	$402b <prepTempoLUT+0xaa>
    4049: a2 0a        	ldx	#$a
    404b: 86 35        	stx	$35                     ; 0x2035 <f256main+0x1721>
    404d: a2 35        	ldx	#$35
    404f: 86 12        	stx	$12                     ; 0x2012 <f256main+0x16fe>
    4051: a2 00        	ldx	#$0
    4053: 86 13        	stx	$13                     ; 0x2013 <f256main+0x16ff>
    4055: 20 9c 2f     	jsr	$2f9c <textPrint>
    4058: a9 00        	lda	#$0
    405a: 92 10        	sta	($10)                   ; 0x2010 <f256main+0x16fc>
    405c: 85 8d        	sta	$8d                     ; 0x208d <f256main+0x1779>
    405e: a9 00        	lda	#$0
    4060: a0 01        	ldy	#$1
    4062: 91 10        	sta	($10),y                 ; 0x2010 <f256main+0x16fc>
    4064: a2 65        	ldx	#$65
    4066: 86 12        	stx	$12                     ; 0x2012 <f256main+0x16fe>
    4068: a2 78        	ldx	#$78
    406a: 86 13        	stx	$13                     ; 0x2013 <f256main+0x16ff>
    406c: 20 53 52     	jsr	$5253 <printf>
    406f: a5 8d        	lda	$8d                     ; 0x208d <f256main+0x1779>
    4071: 1a           	inc
    4072: c9 12        	cmp	#$12
    4074: d0 e4        	bne	$405a <prepTempoLUT+0xd9>
    4076: 18           	clc
    4077: a5 10        	lda	$10                     ; 0x2010 <f256main+0x16fc>
    4079: 69 02        	adc	#$2
    407b: 85 10        	sta	$10                     ; 0x2010 <f256main+0x16fc>
    407d: a5 11        	lda	$11                     ; 0x2011 <f256main+0x16fd>
    407f: 69 00        	adc	#$0
    4081: 85 11        	sta	$11                     ; 0x2011 <f256main+0x16fd>
    4083: 60           	rts

00004084 <textPrintUInt>:
    4084: 48           	pha
    4085: 18           	clc
    4086: a5 10        	lda	$10                     ; 0x2010 <f256main+0x16fc>
    4088: 69 fe        	adc	#$fe
    408a: 85 10        	sta	$10                     ; 0x2010 <f256main+0x16fc>
    408c: a5 11        	lda	$11                     ; 0x2011 <f256main+0x16fd>
    408e: 69 ff        	adc	#$ff
    4090: 85 11        	sta	$11                     ; 0x2011 <f256main+0x16fd>
    4092: 68           	pla
    4093: a4 24        	ldy	$24                     ; 0x2024 <f256main+0x1710>
    4095: 5a           	phy
    4096: a4 25        	ldy	$25                     ; 0x2025 <f256main+0x1711>
    4098: 5a           	phy
    4099: a4 26        	ldy	$26                     ; 0x2026 <f256main+0x1712>
    409b: 5a           	phy
    409c: a4 27        	ldy	$27                     ; 0x2027 <f256main+0x1713>
    409e: 5a           	phy
    409f: 86 25        	stx	$25                     ; 0x2025 <f256main+0x1711>
    40a1: a4 12        	ldy	$12                     ; 0x2012 <f256main+0x16fe>
    40a3: a6 13        	ldx	$13                     ; 0x2013 <f256main+0x16ff>
    40a5: d0 18        	bne	$40bf <textPrintUInt+0x3b>
    40a7: 86 27        	stx	$27                     ; 0x2027 <f256main+0x1713>
    40a9: c0 00        	cpy	#$0
    40ab: f0 03        	beq	$40b0 <textPrintUInt+0x2c>
    40ad: 4c 2f 41     	jmp	$412f <textPrintUInt+0xab>
    40b0: a6 25        	ldx	$25                     ; 0x2025 <f256main+0x1711>
    40b2: f0 03        	beq	$40b7 <textPrintUInt+0x33>
    40b4: 4c 38 41     	jmp	$4138 <textPrintUInt+0xb4>
    40b7: 84 26        	sty	$26                     ; 0x2026 <f256main+0x1712>
    40b9: c9 0a        	cmp	#$a
    40bb: b0 0a        	bcs	$40c7 <textPrintUInt+0x43>
    40bd: 80 29        	bra	$40e8 <textPrintUInt+0x64>
    40bf: 84 26        	sty	$26                     ; 0x2026 <f256main+0x1712>
    40c1: 86 27        	stx	$27                     ; 0x2027 <f256main+0x1713>
    40c3: e0 00        	cpx	#$0
    40c5: 90 21        	bcc	$40e8 <textPrintUInt+0x64>
    40c7: 8d 06 de     	sta	$de06                   ; 0xde06 <__heap_start+0x57c0>
    40ca: a4 25        	ldy	$25                     ; 0x2025 <f256main+0x1711>
    40cc: 8c 07 de     	sty	$de07                   ; 0xde07 <__heap_start+0x57c1>
    40cf: a2 0a        	ldx	#$a
    40d1: 8e 04 de     	stx	$de04                   ; 0xde04 <__heap_start+0x57be>
    40d4: 9c 05 de     	stz	$de05                   ; 0xde05 <__heap_start+0x57bf>
    40d7: 85 24        	sta	$24                     ; 0x2024 <f256main+0x1710>
    40d9: ad 14 de     	lda	$de14                   ; 0xde14 <__heap_start+0x57ce>
    40dc: ae 15 de     	ldx	$de15                   ; 0xde15 <__heap_start+0x57cf>
    40df: 64 12        	stz	$12                     ; 0x2012 <f256main+0x16fe>
    40e1: 64 13        	stz	$13                     ; 0x2013 <f256main+0x16ff>
    40e3: 20 84 40     	jsr	$4084 <textPrintUInt>
    40e6: a5 24        	lda	$24                     ; 0x2024 <f256main+0x1710>
    40e8: a2 0a        	ldx	#$a
    40ea: a4 26        	ldy	$26                     ; 0x2026 <f256main+0x1712>
    40ec: 84 12        	sty	$12                     ; 0x2012 <f256main+0x16fe>
    40ee: a4 27        	ldy	$27                     ; 0x2027 <f256main+0x1713>
    40f0: 84 13        	sty	$13                     ; 0x2013 <f256main+0x16ff>
    40f2: 86 14        	stx	$14                     ; 0x2014 <f256main+0x1700>
    40f4: 64 15        	stz	$15                     ; 0x2015 <f256main+0x1701>
    40f6: 64 16        	stz	$16                     ; 0x2016 <f256main+0x1702>
    40f8: 64 17        	stz	$17                     ; 0x2017 <f256main+0x1703>
    40fa: a6 25        	ldx	$25                     ; 0x2025 <f256main+0x1711>
    40fc: 20 9d 63     	jsr	$639d <__umodsi3>
    40ff: 09 30        	ora	#$30
    4101: 18           	clc
    4102: a6 10        	ldx	$10                     ; 0x2010 <f256main+0x16fc>
    4104: 86 12        	stx	$12                     ; 0x2012 <f256main+0x16fe>
    4106: a6 11        	ldx	$11                     ; 0x2011 <f256main+0x16fd>
    4108: 86 13        	stx	$13                     ; 0x2013 <f256main+0x16ff>
    410a: 92 12        	sta	($12)                   ; 0x2012 <f256main+0x16fe>
    410c: a0 01        	ldy	#$1
    410e: a9 00        	lda	#$0
    4110: 91 12        	sta	($12),y                 ; 0x2012 <f256main+0x16fe>
    4112: 20 9c 2f     	jsr	$2f9c <textPrint>
    4115: fa           	plx
    4116: 86 27        	stx	$27                     ; 0x2027 <f256main+0x1713>
    4118: fa           	plx
    4119: 86 26        	stx	$26                     ; 0x2026 <f256main+0x1712>
    411b: fa           	plx
    411c: 86 25        	stx	$25                     ; 0x2025 <f256main+0x1711>
    411e: fa           	plx
    411f: 86 24        	stx	$24                     ; 0x2024 <f256main+0x1710>
    4121: 18           	clc
    4122: a5 10        	lda	$10                     ; 0x2010 <f256main+0x16fc>
    4124: 69 02        	adc	#$2
    4126: 85 10        	sta	$10                     ; 0x2010 <f256main+0x16fc>
    4128: a5 11        	lda	$11                     ; 0x2011 <f256main+0x16fd>
    412a: 69 00        	adc	#$0
    412c: 85 11        	sta	$11                     ; 0x2011 <f256main+0x16fd>
    412e: 60           	rts
    412f: 84 26        	sty	$26                     ; 0x2026 <f256main+0x1712>
    4131: c0 00        	cpy	#$0
    4133: 90 b3        	bcc	$40e8 <textPrintUInt+0x64>
    4135: 4c c7 40     	jmp	$40c7 <textPrintUInt+0x43>
    4138: 84 26        	sty	$26                     ; 0x2026 <f256main+0x1712>
    413a: a6 25        	ldx	$25                     ; 0x2025 <f256main+0x1711>
    413c: 4c c3 40     	jmp	$40c3 <textPrintUInt+0x3f>

0000413f <opl3_setInstrument>:
    413f: c9 03        	cmp	#$3
    4141: 90 0c        	bcc	$414f <opl3_setInstrument+0x10>
    4143: c9 06        	cmp	#$6
    4145: 90 05        	bcc	$414c <opl3_setInstrument+0xd>
    4147: 18           	clc
    4148: 69 0a        	adc	#$a
    414a: 80 03        	bra	$414f <opl3_setInstrument+0x10>
    414c: 18           	clc
    414d: 69 05        	adc	#$5
    414f: a2 80        	ldx	#$80
    4151: 86 14        	stx	$14                     ; 0x2014 <f256main+0x1700>
    4153: a2 d5        	ldx	#$d5
    4155: 86 15        	stx	$15                     ; 0x2015 <f256main+0x1701>
    4157: aa           	tax
    4158: 09 20        	ora	#$20
    415a: 85 17        	sta	$17                     ; 0x2017 <f256main+0x1703>
    415c: a0 01        	ldy	#$1
    415e: b1 12        	lda	($12),y                 ; 0x2012 <f256main+0x16fe>
    4160: a4 17        	ldy	$17                     ; 0x2017 <f256main+0x1703>
    4162: 8c 80 d5     	sty	$d580                   ; 0xd580 <__heap_start+0x4f3a>
    4165: 8d 81 d5     	sta	$d581                   ; 0xd581 <__heap_start+0x4f3b>
    4168: 18           	clc
    4169: 8a           	txa
    416a: 69 03        	adc	#$3
    416c: a8           	tay
    416d: b2 12        	lda	($12)                   ; 0x2012 <f256main+0x16fe>
    416f: 85 18        	sta	$18                     ; 0x2018 <f256main+0x1704>
    4171: 86 16        	stx	$16                     ; 0x2016 <f256main+0x1702>
    4173: e0 fd        	cpx	#$fd
    4175: 98           	tya
    4176: 84 17        	sty	$17                     ; 0x2017 <f256main+0x1703>
    4178: 09 20        	ora	#$20
    417a: 90 08        	bcc	$4184 <opl3_setInstrument+0x45>
    417c: a2 82        	ldx	#$82
    417e: 86 14        	stx	$14                     ; 0x2014 <f256main+0x1700>
    4180: a2 d5        	ldx	#$d5
    4182: 86 15        	stx	$15                     ; 0x2015 <f256main+0x1701>
    4184: 92 14        	sta	($14)                   ; 0x2014 <f256main+0x1700>
    4186: a6 18        	ldx	$18                     ; 0x2018 <f256main+0x1704>
    4188: 8e 81 d5     	stx	$d581                   ; 0xd581 <__heap_start+0x4f3b>
    418b: a6 16        	ldx	$16                     ; 0x2016 <f256main+0x1702>
    418d: a5 16        	lda	$16                     ; 0x2016 <f256main+0x1702>
    418f: 09 40        	ora	#$40
    4191: 85 18        	sta	$18                     ; 0x2018 <f256main+0x1704>
    4193: a0 03        	ldy	#$3
    4195: b1 12        	lda	($12),y                 ; 0x2012 <f256main+0x16fe>
    4197: a4 18        	ldy	$18                     ; 0x2018 <f256main+0x1704>
    4199: 8c 80 d5     	sty	$d580                   ; 0xd580 <__heap_start+0x4f3a>
    419c: 8d 81 d5     	sta	$d581                   ; 0xd581 <__heap_start+0x4f3b>
    419f: a0 02        	ldy	#$2
    41a1: b1 12        	lda	($12),y                 ; 0x2012 <f256main+0x16fe>
    41a3: 85 16        	sta	$16                     ; 0x2016 <f256main+0x1702>
    41a5: a5 17        	lda	$17                     ; 0x2017 <f256main+0x1703>
    41a7: 09 40        	ora	#$40
    41a9: 92 14        	sta	($14)                   ; 0x2014 <f256main+0x1700>
    41ab: a4 16        	ldy	$16                     ; 0x2016 <f256main+0x1702>
    41ad: 8c 81 d5     	sty	$d581                   ; 0xd581 <__heap_start+0x4f3b>
    41b0: 8a           	txa
    41b1: 09 60        	ora	#$60
    41b3: 85 18        	sta	$18                     ; 0x2018 <f256main+0x1704>
    41b5: a0 05        	ldy	#$5
    41b7: b1 12        	lda	($12),y                 ; 0x2012 <f256main+0x16fe>
    41b9: a4 18        	ldy	$18                     ; 0x2018 <f256main+0x1704>
    41bb: 8c 80 d5     	sty	$d580                   ; 0xd580 <__heap_start+0x4f3a>
    41be: 8d 81 d5     	sta	$d581                   ; 0xd581 <__heap_start+0x4f3b>
    41c1: a0 04        	ldy	#$4
    41c3: b1 12        	lda	($12),y                 ; 0x2012 <f256main+0x16fe>
    41c5: 85 16        	sta	$16                     ; 0x2016 <f256main+0x1702>
    41c7: a5 17        	lda	$17                     ; 0x2017 <f256main+0x1703>
    41c9: 09 60        	ora	#$60
    41cb: 92 14        	sta	($14)                   ; 0x2014 <f256main+0x1700>
    41cd: a4 16        	ldy	$16                     ; 0x2016 <f256main+0x1702>
    41cf: 8c 81 d5     	sty	$d581                   ; 0xd581 <__heap_start+0x4f3b>
    41d2: 8a           	txa
    41d3: 09 80        	ora	#$80
    41d5: 85 18        	sta	$18                     ; 0x2018 <f256main+0x1704>
    41d7: a0 07        	ldy	#$7
    41d9: b1 12        	lda	($12),y                 ; 0x2012 <f256main+0x16fe>
    41db: a4 18        	ldy	$18                     ; 0x2018 <f256main+0x1704>
    41dd: 8c 80 d5     	sty	$d580                   ; 0xd580 <__heap_start+0x4f3a>
    41e0: 8d 81 d5     	sta	$d581                   ; 0xd581 <__heap_start+0x4f3b>
    41e3: a0 06        	ldy	#$6
    41e5: b1 12        	lda	($12),y                 ; 0x2012 <f256main+0x16fe>
    41e7: 85 16        	sta	$16                     ; 0x2016 <f256main+0x1702>
    41e9: a5 17        	lda	$17                     ; 0x2017 <f256main+0x1703>
    41eb: 09 80        	ora	#$80
    41ed: 92 14        	sta	($14)                   ; 0x2014 <f256main+0x1700>
    41ef: a4 16        	ldy	$16                     ; 0x2016 <f256main+0x1702>
    41f1: 8c 81 d5     	sty	$d581                   ; 0xd581 <__heap_start+0x4f3b>
    41f4: 8a           	txa
    41f5: 09 e0        	ora	#$e0
    41f7: aa           	tax
    41f8: a0 09        	ldy	#$9
    41fa: b1 12        	lda	($12),y                 ; 0x2012 <f256main+0x16fe>
    41fc: 8e 80 d5     	stx	$d580                   ; 0xd580 <__heap_start+0x4f3a>
    41ff: 8d 81 d5     	sta	$d581                   ; 0xd581 <__heap_start+0x4f3b>
    4202: 88           	dey
    4203: b1 12        	lda	($12),y                 ; 0x2012 <f256main+0x16fe>
    4205: 85 12        	sta	$12                     ; 0x2012 <f256main+0x16fe>
    4207: a5 17        	lda	$17                     ; 0x2017 <f256main+0x1703>
    4209: 09 e0        	ora	#$e0
    420b: 92 14        	sta	($14)                   ; 0x2014 <f256main+0x1700>
    420d: a6 12        	ldx	$12                     ; 0x2012 <f256main+0x16fe>
    420f: 8e 81 d5     	stx	$d581                   ; 0xd581 <__heap_start+0x4f3b>
    4212: 60           	rts

00004213 <sid_setInstrument>:
    4213: a8           	tay
    4214: a9 00        	lda	#$0
    4216: 85 90        	sta	$90                     ; 0x2090 <f256main+0x177c>
    4218: 98           	tya
    4219: f0 04        	beq	$421f <sid_setInstrument+0xc>
    421b: a0 d5        	ldy	#$d5
    421d: 80 02        	bra	$4221 <sid_setInstrument+0xe>
    421f: a0 d4        	ldy	#$d4
    4221: 84 91        	sty	$91                     ; 0x2091 <f256main+0x177d>
    4223: e0 02        	cpx	#$2
    4225: f0 08        	beq	$422f <sid_setInstrument+0x1c>
    4227: e0 01        	cpx	#$1
    4229: d0 08        	bne	$4233 <sid_setInstrument+0x20>
    422b: a2 07        	ldx	#$7
    422d: 80 02        	bra	$4231 <sid_setInstrument+0x1e>
    422f: a2 0e        	ldx	#$e
    4231: 86 90        	stx	$90                     ; 0x2090 <f256main+0x177c>
    4233: a0 01        	ldy	#$1
    4235: b1 12        	lda	($12),y                 ; 0x2012 <f256main+0x16fe>
    4237: 85 17        	sta	$17                     ; 0x2017 <f256main+0x1703>
    4239: a6 90        	ldx	$90                     ; 0x2090 <f256main+0x177c>
    423b: 86 16        	stx	$16                     ; 0x2016 <f256main+0x1702>
    423d: 8a           	txa
    423e: 18           	clc
    423f: 69 02        	adc	#$2
    4241: 85 14        	sta	$14                     ; 0x2014 <f256main+0x1700>
    4243: a6 91        	ldx	$91                     ; 0x2091 <f256main+0x177d>
    4245: 8a           	txa
    4246: 69 00        	adc	#$0
    4248: 85 15        	sta	$15                     ; 0x2015 <f256main+0x1701>
    424a: a5 17        	lda	$17                     ; 0x2017 <f256main+0x1703>
    424c: 92 14        	sta	($14)                   ; 0x2014 <f256main+0x1700>
    424e: c8           	iny
    424f: b1 12        	lda	($12),y                 ; 0x2012 <f256main+0x16fe>
    4251: 85 17        	sta	$17                     ; 0x2017 <f256main+0x1703>
    4253: a5 16        	lda	$16                     ; 0x2016 <f256main+0x1702>
    4255: 18           	clc
    4256: 69 03        	adc	#$3
    4258: 85 14        	sta	$14                     ; 0x2014 <f256main+0x1700>
    425a: 8a           	txa
    425b: 69 00        	adc	#$0
    425d: 85 15        	sta	$15                     ; 0x2015 <f256main+0x1701>
    425f: a5 17        	lda	$17                     ; 0x2017 <f256main+0x1703>
    4261: 92 14        	sta	($14)                   ; 0x2014 <f256main+0x1700>
    4263: c8           	iny
    4264: b1 12        	lda	($12),y                 ; 0x2012 <f256main+0x16fe>
    4266: 85 17        	sta	$17                     ; 0x2017 <f256main+0x1703>
    4268: a5 16        	lda	$16                     ; 0x2016 <f256main+0x1702>
    426a: 18           	clc
    426b: 69 05        	adc	#$5
    426d: 85 14        	sta	$14                     ; 0x2014 <f256main+0x1700>
    426f: 8a           	txa
    4270: 69 00        	adc	#$0
    4272: 85 15        	sta	$15                     ; 0x2015 <f256main+0x1701>
    4274: a5 17        	lda	$17                     ; 0x2017 <f256main+0x1703>
    4276: 92 14        	sta	($14)                   ; 0x2014 <f256main+0x1700>
    4278: a5 16        	lda	$16                     ; 0x2016 <f256main+0x1702>
    427a: 18           	clc
    427b: 69 06        	adc	#$6
    427d: 85 14        	sta	$14                     ; 0x2014 <f256main+0x1700>
    427f: 8a           	txa
    4280: 69 00        	adc	#$0
    4282: 18           	clc
    4283: 85 15        	sta	$15                     ; 0x2015 <f256main+0x1701>
    4285: c8           	iny
    4286: b1 12        	lda	($12),y                 ; 0x2012 <f256main+0x16fe>
    4288: 92 14        	sta	($14)                   ; 0x2014 <f256main+0x1700>
    428a: a5 16        	lda	$16                     ; 0x2016 <f256main+0x1702>
    428c: 69 04        	adc	#$4
    428e: 85 14        	sta	$14                     ; 0x2014 <f256main+0x1700>
    4290: 8a           	txa
    4291: 69 00        	adc	#$0
    4293: 85 15        	sta	$15                     ; 0x2015 <f256main+0x1701>
    4295: c8           	iny
    4296: b1 12        	lda	($12),y                 ; 0x2012 <f256main+0x16fe>
    4298: 92 14        	sta	($14)                   ; 0x2014 <f256main+0x1700>
    429a: 60           	rts

0000429b <sid_setInstrumentAllChannels>:
    429b: 85 12        	sta	$12                     ; 0x2012 <f256main+0x16fe>
    429d: 0a           	asl
    429e: 64 13        	stz	$13                     ; 0x2013 <f256main+0x16ff>
    42a0: 26 13        	rol	$13                     ; 0x2013 <f256main+0x16ff>
    42a2: 0a           	asl
    42a3: 26 13        	rol	$13                     ; 0x2013 <f256main+0x16ff>
    42a5: 0a           	asl
    42a6: 26 13        	rol	$13                     ; 0x2013 <f256main+0x16ff>
    42a8: 18           	clc
    42a9: 65 12        	adc	$12                     ; 0x2012 <f256main+0x16fe>
    42ab: 85 12        	sta	$12                     ; 0x2012 <f256main+0x16fe>
    42ad: a5 13        	lda	$13                     ; 0x2013 <f256main+0x16ff>
    42af: 69 00        	adc	#$0
    42b1: 85 13        	sta	$13                     ; 0x2013 <f256main+0x16ff>
    42b3: a9 cf        	lda	#$cf
    42b5: 18           	clc
    42b6: 65 12        	adc	$12                     ; 0x2012 <f256main+0x16fe>
    42b8: 85 8d        	sta	$8d                     ; 0x208d <f256main+0x1779>
    42ba: a9 84        	lda	#$84
    42bc: 65 13        	adc	$13                     ; 0x2013 <f256main+0x16ff>
    42be: 85 8e        	sta	$8e                     ; 0x208e <f256main+0x177a>
    42c0: a2 00        	ldx	#$0
    42c2: a4 8d        	ldy	$8d                     ; 0x208d <f256main+0x1779>
    42c4: 84 12        	sty	$12                     ; 0x2012 <f256main+0x16fe>
    42c6: a4 8e        	ldy	$8e                     ; 0x208e <f256main+0x177a>
    42c8: 84 13        	sty	$13                     ; 0x2013 <f256main+0x16ff>
    42ca: 86 8f        	stx	$8f                     ; 0x208f <f256main+0x177b>
    42cc: a9 00        	lda	#$0
    42ce: 20 13 42     	jsr	$4213 <sid_setInstrument>
    42d1: a6 8d        	ldx	$8d                     ; 0x208d <f256main+0x1779>
    42d3: 86 12        	stx	$12                     ; 0x2012 <f256main+0x16fe>
    42d5: a6 8e        	ldx	$8e                     ; 0x208e <f256main+0x177a>
    42d7: 86 13        	stx	$13                     ; 0x2013 <f256main+0x16ff>
    42d9: a6 8f        	ldx	$8f                     ; 0x208f <f256main+0x177b>
    42db: a9 01        	lda	#$1
    42dd: 20 13 42     	jsr	$4213 <sid_setInstrument>
    42e0: a6 8f        	ldx	$8f                     ; 0x208f <f256main+0x177b>
    42e2: e8           	inx
    42e3: e0 03        	cpx	#$3
    42e5: d0 db        	bne	$42c2 <sid_setInstrumentAllChannels+0x27>
    42e7: 9c 14 d4     	stz	$d414                   ; 0xd414 <__heap_start+0x4dce>
    42ea: 9c 15 d4     	stz	$d415                   ; 0xd415 <__heap_start+0x4dcf>
    42ed: 9c 17 d4     	stz	$d417                   ; 0xd417 <__heap_start+0x4dd1>
    42f0: b2 8d        	lda	($8d)                   ; 0x208d <f256main+0x1779>
    42f2: 8d 18 d4     	sta	$d418                   ; 0xd418 <__heap_start+0x4dd2>
    42f5: 9c 14 d5     	stz	$d514                   ; 0xd514 <__heap_start+0x4ece>
    42f8: 9c 15 d5     	stz	$d515                   ; 0xd515 <__heap_start+0x4ecf>
    42fb: 9c 17 d5     	stz	$d517                   ; 0xd517 <__heap_start+0x4ed1>
    42fe: 8d 18 d5     	sta	$d518                   ; 0xd518 <__heap_start+0x4ed2>
    4301: 60           	rts

00004302 <getBeatTrackNoteInfo>:
    4302: 48           	pha
    4303: 18           	clc
    4304: a5 10        	lda	$10                     ; 0x2010 <f256main+0x16fc>
    4306: 69 fb        	adc	#$fb
    4308: 85 10        	sta	$10                     ; 0x2010 <f256main+0x16fc>
    430a: a5 11        	lda	$11                     ; 0x2011 <f256main+0x16fd>
    430c: 69 ff        	adc	#$ff
    430e: 85 11        	sta	$11                     ; 0x2011 <f256main+0x16fd>
    4310: 68           	pla
    4311: a4 24        	ldy	$24                     ; 0x2024 <f256main+0x1710>
    4313: 5a           	phy
    4314: a4 25        	ldy	$25                     ; 0x2025 <f256main+0x1711>
    4316: 5a           	phy
    4317: a4 26        	ldy	$26                     ; 0x2026 <f256main+0x1712>
    4319: 5a           	phy
    431a: a4 27        	ldy	$27                     ; 0x2027 <f256main+0x1713>
    431c: 5a           	phy
    431d: 48           	pha
    431e: a5 28        	lda	$28                     ; 0x2028 <f256main+0x1714>
    4320: a0 04        	ldy	#$4
    4322: 91 10        	sta	($10),y                 ; 0x2010 <f256main+0x16fc>
    4324: a5 29        	lda	$29                     ; 0x2029 <f256main+0x1715>
    4326: 88           	dey
    4327: 91 10        	sta	($10),y                 ; 0x2010 <f256main+0x16fc>
    4329: a5 2a        	lda	$2a                     ; 0x202a <f256main+0x1716>
    432b: 88           	dey
    432c: 91 10        	sta	($10),y                 ; 0x2010 <f256main+0x16fc>
    432e: a5 2b        	lda	$2b                     ; 0x202b <f256main+0x1717>
    4330: 88           	dey
    4331: 91 10        	sta	($10),y                 ; 0x2010 <f256main+0x16fc>
    4333: a5 2c        	lda	$2c                     ; 0x202c <f256main+0x1718>
    4335: 88           	dey
    4336: 91 10        	sta	($10),y                 ; 0x2010 <f256main+0x16fc>
    4338: 68           	pla
    4339: 85 1b        	sta	$1b                     ; 0x201b <f256main+0x1707>
    433b: 86 24        	stx	$24                     ; 0x2024 <f256main+0x1710>
    433d: 0a           	asl
    433e: 64 1a        	stz	$1a                     ; 0x201a <f256main+0x1706>
    4340: a2 00        	ldx	#$0
    4342: 64 1c        	stz	$1c                     ; 0x201c <f256main+0x1708>
    4344: 26 1c        	rol	$1c                     ; 0x201c <f256main+0x1708>
    4346: 0a           	asl
    4347: 26 1c        	rol	$1c                     ; 0x201c <f256main+0x1708>
    4349: 0a           	asl
    434a: 26 1c        	rol	$1c                     ; 0x201c <f256main+0x1708>
    434c: 0a           	asl
    434d: 26 1c        	rol	$1c                     ; 0x201c <f256main+0x1708>
    434f: 38           	sec
    4350: e5 1b        	sbc	$1b                     ; 0x201b <f256main+0x1707>
    4352: aa           	tax
    4353: a5 1c        	lda	$1c                     ; 0x201c <f256main+0x1708>
    4355: e9 00        	sbc	#$0
    4357: 85 1b        	sta	$1b                     ; 0x201b <f256main+0x1707>
    4359: 18           	clc
    435a: 8a           	txa
    435b: 65 12        	adc	$12                     ; 0x2012 <f256main+0x16fe>
    435d: a8           	tay
    435e: a5 13        	lda	$13                     ; 0x2013 <f256main+0x16ff>
    4360: 65 1b        	adc	$1b                     ; 0x201b <f256main+0x1707>
    4362: 84 22        	sty	$22                     ; 0x2022 <f256main+0x170e>
    4364: 84 12        	sty	$12                     ; 0x2012 <f256main+0x16fe>
    4366: 85 23        	sta	$23                     ; 0x2023 <f256main+0x170f>
    4368: 85 13        	sta	$13                     ; 0x2013 <f256main+0x16ff>
    436a: a0 04        	ldy	#$4
    436c: b1 12        	lda	($12),y                 ; 0x2012 <f256main+0x16fe>
    436e: d0 03        	bne	$4373 <getBeatTrackNoteInfo+0x71>
    4370: 4c 60 45     	jmp	$4560 <getBeatTrackNoteInfo+0x25e>
    4373: a0 05        	ldy	#$5
    4375: a5 22        	lda	$22                     ; 0x2022 <f256main+0x170e>
    4377: 18           	clc
    4378: 69 05        	adc	#$5
    437a: 85 1c        	sta	$1c                     ; 0x201c <f256main+0x1708>
    437c: a5 23        	lda	$23                     ; 0x2023 <f256main+0x170f>
    437e: 69 00        	adc	#$0
    4380: 85 1d        	sta	$1d                     ; 0x201d <f256main+0x1709>
    4382: b1 12        	lda	($12),y                 ; 0x2012 <f256main+0x16fe>
    4384: 85 25        	sta	$25                     ; 0x2025 <f256main+0x1711>
    4386: a0 01        	ldy	#$1
    4388: b1 1c        	lda	($1c),y                 ; 0x201c <f256main+0x1708>
    438a: 85 26        	sta	$26                     ; 0x2026 <f256main+0x1712>
    438c: c8           	iny
    438d: b1 1c        	lda	($1c),y                 ; 0x201c <f256main+0x1708>
    438f: 85 27        	sta	$27                     ; 0x2027 <f256main+0x1713>
    4391: c8           	iny
    4392: b1 1c        	lda	($1c),y                 ; 0x201c <f256main+0x1708>
    4394: 85 28        	sta	$28                     ; 0x2028 <f256main+0x1714>
    4396: 80 37        	bra	$43cf <getBeatTrackNoteInfo+0xcd>
    4398: 0a           	asl
    4399: 64 1c        	stz	$1c                     ; 0x201c <f256main+0x1708>
    439b: 26 1c        	rol	$1c                     ; 0x201c <f256main+0x1708>
    439d: 18           	clc
    439e: 69 04        	adc	#$4
    43a0: 85 1b        	sta	$1b                     ; 0x201b <f256main+0x1707>
    43a2: a5 1c        	lda	$1c                     ; 0x201c <f256main+0x1708>
    43a4: 69 00        	adc	#$0
    43a6: 85 1c        	sta	$1c                     ; 0x201c <f256main+0x1708>
    43a8: 18           	clc
    43a9: a5 2b        	lda	$2b                     ; 0x202b <f256main+0x1717>
    43ab: 65 1b        	adc	$1b                     ; 0x201b <f256main+0x1707>
    43ad: 85 25        	sta	$25                     ; 0x2025 <f256main+0x1711>
    43af: a5 2a        	lda	$2a                     ; 0x202a <f256main+0x1716>
    43b1: 65 1c        	adc	$1c                     ; 0x201c <f256main+0x1708>
    43b3: 85 26        	sta	$26                     ; 0x2026 <f256main+0x1712>
    43b5: a5 29        	lda	$29                     ; 0x2029 <f256main+0x1715>
    43b7: 69 00        	adc	#$0
    43b9: 85 27        	sta	$27                     ; 0x2027 <f256main+0x1713>
    43bb: a5 28        	lda	$28                     ; 0x2028 <f256main+0x1714>
    43bd: 69 00        	adc	#$0
    43bf: 85 28        	sta	$28                     ; 0x2028 <f256main+0x1714>
    43c1: a5 1a        	lda	$1a                     ; 0x201a <f256main+0x1706>
    43c3: 1a           	inc
    43c4: a0 04        	ldy	#$4
    43c6: d1 12        	cmp	($12),y                 ; 0x2012 <f256main+0x16fe>
    43c8: 85 1a        	sta	$1a                     ; 0x201a <f256main+0x1706>
    43ca: 90 03        	bcc	$43cf <getBeatTrackNoteInfo+0xcd>
    43cc: 4c 60 45     	jmp	$4560 <getBeatTrackNoteInfo+0x25e>
    43cf: 18           	clc
    43d0: a6 25        	ldx	$25                     ; 0x2025 <f256main+0x1711>
    43d2: a5 25        	lda	$25                     ; 0x2025 <f256main+0x1711>
    43d4: 69 03        	adc	#$3
    43d6: 85 1c        	sta	$1c                     ; 0x201c <f256main+0x1708>
    43d8: 86 2b        	stx	$2b                     ; 0x202b <f256main+0x1717>
    43da: a5 26        	lda	$26                     ; 0x2026 <f256main+0x1712>
    43dc: 85 2a        	sta	$2a                     ; 0x202a <f256main+0x1716>
    43de: 69 00        	adc	#$0
    43e0: a8           	tay
    43e1: a5 27        	lda	$27                     ; 0x2027 <f256main+0x1713>
    43e3: 85 29        	sta	$29                     ; 0x2029 <f256main+0x1715>
    43e5: 69 00        	adc	#$0
    43e7: 84 1b        	sty	$1b                     ; 0x201b <f256main+0x1707>
    43e9: 06 1b        	asl	$1b                     ; 0x201b <f256main+0x1707>
    43eb: 2a           	rol
    43ec: 06 1b        	asl	$1b                     ; 0x201b <f256main+0x1707>
    43ee: 2a           	rol
    43ef: 06 1b        	asl	$1b                     ; 0x201b <f256main+0x1707>
    43f1: 2a           	rol
    43f2: a6 0f        	ldx	$f                      ; 0x200f <f256main+0x16fb>
    43f4: 78           	sei
    43f5: 85 25        	sta	$25                     ; 0x2025 <f256main+0x1711>
    43f7: 85 0f        	sta	$f                      ; 0x200f <f256main+0x16fb>
    43f9: 98           	tya
    43fa: 09 e0        	ora	#$e0
    43fc: 85 1d        	sta	$1d                     ; 0x201d <f256main+0x1709>
    43fe: b2 1c        	lda	($1c)                   ; 0x201c <f256main+0x1708>
    4400: 85 1b        	sta	$1b                     ; 0x201b <f256main+0x1707>
    4402: 86 0f        	stx	$f                      ; 0x200f <f256main+0x16fb>
    4404: 58           	cli
    4405: a6 24        	ldx	$24                     ; 0x2024 <f256main+0x1710>
    4407: e4 1a        	cpx	$1a                     ; 0x201a <f256main+0x1706>
    4409: f0 03        	beq	$440e <getBeatTrackNoteInfo+0x10c>
    440b: 4c 98 43     	jmp	$4398 <getBeatTrackNoteInfo+0x96>
    440e: 86 2c        	stx	$2c                     ; 0x202c <f256main+0x1718>
    4410: a6 0f        	ldx	$f                      ; 0x200f <f256main+0x16fb>
    4412: 78           	sei
    4413: a4 2a        	ldy	$2a                     ; 0x202a <f256main+0x1716>
    4415: 84 1e        	sty	$1e                     ; 0x201e <f256main+0x170a>
    4417: 06 1e        	asl	$1e                     ; 0x201e <f256main+0x170a>
    4419: a5 29        	lda	$29                     ; 0x2029 <f256main+0x1715>
    441b: 2a           	rol
    441c: 06 1e        	asl	$1e                     ; 0x201e <f256main+0x170a>
    441e: 2a           	rol
    441f: 06 1e        	asl	$1e                     ; 0x201e <f256main+0x170a>
    4421: 2a           	rol
    4422: 85 0f        	sta	$f                      ; 0x200f <f256main+0x16fb>
    4424: a5 2a        	lda	$2a                     ; 0x202a <f256main+0x1716>
    4426: 09 e0        	ora	#$e0
    4428: a4 2b        	ldy	$2b                     ; 0x202b <f256main+0x1717>
    442a: 84 1e        	sty	$1e                     ; 0x201e <f256main+0x170a>
    442c: 85 1f        	sta	$1f                     ; 0x201f <f256main+0x170b>
    442e: b2 1e        	lda	($1e)                   ; 0x201e <f256main+0x170a>
    4430: 86 0f        	stx	$f                      ; 0x200f <f256main+0x16fb>
    4432: 58           	cli
    4433: 92 18        	sta	($18)                   ; 0x2018 <f256main+0x1704>
    4435: a4 2a        	ldy	$2a                     ; 0x202a <f256main+0x1716>
    4437: a5 29        	lda	$29                     ; 0x2029 <f256main+0x1715>
    4439: a6 28        	ldx	$28                     ; 0x2028 <f256main+0x1714>
    443b: e6 1e        	inc	$1e                     ; 0x201e <f256main+0x170a>
    443d: d0 07        	bne	$4446 <getBeatTrackNoteInfo+0x144>
    443f: c8           	iny
    4440: d0 04        	bne	$4446 <getBeatTrackNoteInfo+0x144>
    4442: 1a           	inc
    4443: d0 01        	bne	$4446 <getBeatTrackNoteInfo+0x144>
    4445: e8           	inx
    4446: a6 0f        	ldx	$f                      ; 0x200f <f256main+0x16fb>
    4448: 78           	sei
    4449: 84 1f        	sty	$1f                     ; 0x201f <f256main+0x170b>
    444b: 06 1f        	asl	$1f                     ; 0x201f <f256main+0x170b>
    444d: 2a           	rol
    444e: 06 1f        	asl	$1f                     ; 0x201f <f256main+0x170b>
    4450: 2a           	rol
    4451: 06 1f        	asl	$1f                     ; 0x201f <f256main+0x170b>
    4453: 2a           	rol
    4454: 85 0f        	sta	$f                      ; 0x200f <f256main+0x16fb>
    4456: 98           	tya
    4457: 09 e0        	ora	#$e0
    4459: 85 1f        	sta	$1f                     ; 0x201f <f256main+0x170b>
    445b: b2 1e        	lda	($1e)                   ; 0x201e <f256main+0x170a>
    445d: 86 0f        	stx	$f                      ; 0x200f <f256main+0x16fb>
    445f: 58           	cli
    4460: a0 01        	ldy	#$1
    4462: 91 18        	sta	($18),y                 ; 0x2018 <f256main+0x1704>
    4464: a5 2b        	lda	$2b                     ; 0x202b <f256main+0x1717>
    4466: 18           	clc
    4467: 69 02        	adc	#$2
    4469: a8           	tay
    446a: a5 2a        	lda	$2a                     ; 0x202a <f256main+0x1716>
    446c: 69 00        	adc	#$0
    446e: 85 1f        	sta	$1f                     ; 0x201f <f256main+0x170b>
    4470: a5 29        	lda	$29                     ; 0x2029 <f256main+0x1715>
    4472: 69 00        	adc	#$0
    4474: a6 0f        	ldx	$f                      ; 0x200f <f256main+0x16fb>
    4476: 78           	sei
    4477: 5a           	phy
    4478: a4 1f        	ldy	$1f                     ; 0x201f <f256main+0x170b>
    447a: 84 1e        	sty	$1e                     ; 0x201e <f256main+0x170a>
    447c: 7a           	ply
    447d: 06 1e        	asl	$1e                     ; 0x201e <f256main+0x170a>
    447f: 2a           	rol
    4480: 06 1e        	asl	$1e                     ; 0x201e <f256main+0x170a>
    4482: 2a           	rol
    4483: 06 1e        	asl	$1e                     ; 0x201e <f256main+0x170a>
    4485: 2a           	rol
    4486: 85 0f        	sta	$f                      ; 0x200f <f256main+0x16fb>
    4488: a5 1f        	lda	$1f                     ; 0x201f <f256main+0x170b>
    448a: 09 e0        	ora	#$e0
    448c: 84 1e        	sty	$1e                     ; 0x201e <f256main+0x170a>
    448e: 85 1f        	sta	$1f                     ; 0x201f <f256main+0x170b>
    4490: b2 1e        	lda	($1e)                   ; 0x201e <f256main+0x170a>
    4492: 86 0f        	stx	$f                      ; 0x200f <f256main+0x16fb>
    4494: 58           	cli
    4495: a0 02        	ldy	#$2
    4497: 91 18        	sta	($18),y                 ; 0x2018 <f256main+0x1704>
    4499: a6 0f        	ldx	$f                      ; 0x200f <f256main+0x16fb>
    449b: 78           	sei
    449c: a4 25        	ldy	$25                     ; 0x2025 <f256main+0x1711>
    449e: 84 0f        	sty	$f                      ; 0x200f <f256main+0x16fb>
    44a0: b2 1c        	lda	($1c)                   ; 0x201c <f256main+0x1708>
    44a2: 86 0f        	stx	$f                      ; 0x200f <f256main+0x16fb>
    44a4: 58           	cli
    44a5: a0 03        	ldy	#$3
    44a7: 91 18        	sta	($18),y                 ; 0x2018 <f256main+0x1704>
    44a9: a6 2b        	ldx	$2b                     ; 0x202b <f256main+0x1717>
    44ab: 86 25        	stx	$25                     ; 0x2025 <f256main+0x1711>
    44ad: a5 2b        	lda	$2b                     ; 0x202b <f256main+0x1717>
    44af: 18           	clc
    44b0: 69 04        	adc	#$4
    44b2: 85 2b        	sta	$2b                     ; 0x202b <f256main+0x1717>
    44b4: a5 2a        	lda	$2a                     ; 0x202a <f256main+0x1716>
    44b6: 69 00        	adc	#$0
    44b8: 85 2a        	sta	$2a                     ; 0x202a <f256main+0x1716>
    44ba: a5 29        	lda	$29                     ; 0x2029 <f256main+0x1715>
    44bc: 69 00        	adc	#$0
    44be: 85 29        	sta	$29                     ; 0x2029 <f256main+0x1715>
    44c0: a5 22        	lda	$22                     ; 0x2022 <f256main+0x170e>
    44c2: 18           	clc
    44c3: 69 09        	adc	#$9
    44c5: 85 1c        	sta	$1c                     ; 0x201c <f256main+0x1708>
    44c7: a5 23        	lda	$23                     ; 0x2023 <f256main+0x170f>
    44c9: 69 00        	adc	#$0
    44cb: 85 1d        	sta	$1d                     ; 0x201d <f256main+0x1709>
    44cd: a0 09        	ldy	#$9
    44cf: b1 12        	lda	($12),y                 ; 0x2012 <f256main+0x16fe>
    44d1: 85 1e        	sta	$1e                     ; 0x201e <f256main+0x170a>
    44d3: a0 01        	ldy	#$1
    44d5: b1 1c        	lda	($1c),y                 ; 0x201c <f256main+0x1708>
    44d7: 85 1f        	sta	$1f                     ; 0x201f <f256main+0x170b>
    44d9: 18           	clc
    44da: a5 2b        	lda	$2b                     ; 0x202b <f256main+0x1717>
    44dc: a4 2c        	ldy	$2c                     ; 0x202c <f256main+0x1718>
    44de: 71 1e        	adc	($1e),y                 ; 0x201e <f256main+0x170a>
    44e0: a8           	tay
    44e1: a5 2a        	lda	$2a                     ; 0x202a <f256main+0x1716>
    44e3: 69 00        	adc	#$0
    44e5: 85 1f        	sta	$1f                     ; 0x201f <f256main+0x170b>
    44e7: a5 29        	lda	$29                     ; 0x2029 <f256main+0x1715>
    44e9: 69 00        	adc	#$0
    44eb: a6 1f        	ldx	$1f                     ; 0x201f <f256main+0x170b>
    44ed: 86 1e        	stx	$1e                     ; 0x201e <f256main+0x170a>
    44ef: 06 1e        	asl	$1e                     ; 0x201e <f256main+0x170a>
    44f1: 2a           	rol
    44f2: 06 1e        	asl	$1e                     ; 0x201e <f256main+0x170a>
    44f4: 2a           	rol
    44f5: 06 1e        	asl	$1e                     ; 0x201e <f256main+0x170a>
    44f7: 2a           	rol
    44f8: a6 0f        	ldx	$f                      ; 0x200f <f256main+0x16fb>
    44fa: 78           	sei
    44fb: 85 0f        	sta	$f                      ; 0x200f <f256main+0x16fb>
    44fd: 84 1e        	sty	$1e                     ; 0x201e <f256main+0x170a>
    44ff: a5 1f        	lda	$1f                     ; 0x201f <f256main+0x170b>
    4501: 09 e0        	ora	#$e0
    4503: 85 1f        	sta	$1f                     ; 0x201f <f256main+0x170b>
    4505: b2 1e        	lda	($1e)                   ; 0x201e <f256main+0x170a>
    4507: 86 0f        	stx	$f                      ; 0x200f <f256main+0x16fb>
    4509: 58           	cli
    450a: 92 14        	sta	($14)                   ; 0x2014 <f256main+0x1700>
    450c: 18           	clc
    450d: a5 2b        	lda	$2b                     ; 0x202b <f256main+0x1717>
    450f: 65 1b        	adc	$1b                     ; 0x201b <f256main+0x1707>
    4511: aa           	tax
    4512: a5 2a        	lda	$2a                     ; 0x202a <f256main+0x1716>
    4514: 69 00        	adc	#$0
    4516: 85 1b        	sta	$1b                     ; 0x201b <f256main+0x1707>
    4518: a5 29        	lda	$29                     ; 0x2029 <f256main+0x1715>
    451a: 69 00        	adc	#$0
    451c: 85 1e        	sta	$1e                     ; 0x201e <f256main+0x170a>
    451e: a0 09        	ldy	#$9
    4520: b1 12        	lda	($12),y                 ; 0x2012 <f256main+0x16fe>
    4522: 85 1f        	sta	$1f                     ; 0x201f <f256main+0x170b>
    4524: a0 01        	ldy	#$1
    4526: b1 1c        	lda	($1c),y                 ; 0x201c <f256main+0x1708>
    4528: a4 1f        	ldy	$1f                     ; 0x201f <f256main+0x170b>
    452a: 84 1c        	sty	$1c                     ; 0x201c <f256main+0x1708>
    452c: 85 1d        	sta	$1d                     ; 0x201d <f256main+0x1709>
    452e: 18           	clc
    452f: a4 2c        	ldy	$2c                     ; 0x202c <f256main+0x1718>
    4531: 8a           	txa
    4532: 71 1c        	adc	($1c),y                 ; 0x201c <f256main+0x1708>
    4534: 85 1c        	sta	$1c                     ; 0x201c <f256main+0x1708>
    4536: a5 1b        	lda	$1b                     ; 0x201b <f256main+0x1707>
    4538: 69 00        	adc	#$0
    453a: a8           	tay
    453b: a5 1e        	lda	$1e                     ; 0x201e <f256main+0x170a>
    453d: 69 00        	adc	#$0
    453f: 85 1b        	sta	$1b                     ; 0x201b <f256main+0x1707>
    4541: 98           	tya
    4542: 0a           	asl
    4543: 26 1b        	rol	$1b                     ; 0x201b <f256main+0x1707>
    4545: 0a           	asl
    4546: 26 1b        	rol	$1b                     ; 0x201b <f256main+0x1707>
    4548: 0a           	asl
    4549: a5 1b        	lda	$1b                     ; 0x201b <f256main+0x1707>
    454b: 2a           	rol
    454c: a6 0f        	ldx	$f                      ; 0x200f <f256main+0x16fb>
    454e: 78           	sei
    454f: 85 0f        	sta	$f                      ; 0x200f <f256main+0x16fb>
    4551: 98           	tya
    4552: 09 e0        	ora	#$e0
    4554: 85 1d        	sta	$1d                     ; 0x201d <f256main+0x1709>
    4556: b2 1c        	lda	($1c)                   ; 0x201c <f256main+0x1708>
    4558: 86 0f        	stx	$f                      ; 0x200f <f256main+0x16fb>
    455a: 58           	cli
    455b: 92 16        	sta	($16)                   ; 0x2016 <f256main+0x1702>
    455d: 4c c1 43     	jmp	$43c1 <getBeatTrackNoteInfo+0xbf>
    4560: a0 00        	ldy	#$0
    4562: b1 10        	lda	($10),y                 ; 0x2010 <f256main+0x16fc>
    4564: 85 2c        	sta	$2c                     ; 0x202c <f256main+0x1718>
    4566: c8           	iny
    4567: b1 10        	lda	($10),y                 ; 0x2010 <f256main+0x16fc>
    4569: 85 2b        	sta	$2b                     ; 0x202b <f256main+0x1717>
    456b: c8           	iny
    456c: b1 10        	lda	($10),y                 ; 0x2010 <f256main+0x16fc>
    456e: 85 2a        	sta	$2a                     ; 0x202a <f256main+0x1716>
    4570: c8           	iny
    4571: b1 10        	lda	($10),y                 ; 0x2010 <f256main+0x16fc>
    4573: 85 29        	sta	$29                     ; 0x2029 <f256main+0x1715>
    4575: c8           	iny
    4576: b1 10        	lda	($10),y                 ; 0x2010 <f256main+0x16fc>
    4578: 85 28        	sta	$28                     ; 0x2028 <f256main+0x1714>
    457a: fa           	plx
    457b: 86 27        	stx	$27                     ; 0x2027 <f256main+0x1713>
    457d: fa           	plx
    457e: 86 26        	stx	$26                     ; 0x2026 <f256main+0x1712>
    4580: fa           	plx
    4581: 86 25        	stx	$25                     ; 0x2025 <f256main+0x1711>
    4583: fa           	plx
    4584: 86 24        	stx	$24                     ; 0x2024 <f256main+0x1710>
    4586: 18           	clc
    4587: a5 10        	lda	$10                     ; 0x2010 <f256main+0x16fc>
    4589: 69 05        	adc	#$5
    458b: 85 10        	sta	$10                     ; 0x2010 <f256main+0x16fc>
    458d: a5 11        	lda	$11                     ; 0x2011 <f256main+0x16fd>
    458f: 69 00        	adc	#$0
    4591: 85 11        	sta	$11                     ; 0x2011 <f256main+0x16fd>
    4593: 60           	rts

00004594 <setupMem4Track>:
    4594: 85 1d        	sta	$1d                     ; 0x201d <f256main+0x1709>
    4596: 86 1c        	stx	$1c                     ; 0x201c <f256main+0x1708>
    4598: a0 01        	ldy	#$1
    459a: b1 14        	lda	($14),y                 ; 0x2014 <f256main+0x1700>
    459c: 85 1a        	sta	$1a                     ; 0x201a <f256main+0x1706>
    459e: 85 1b        	sta	$1b                     ; 0x201b <f256main+0x1707>
    45a0: c8           	iny
    45a1: b1 14        	lda	($14),y                 ; 0x2014 <f256main+0x1700>
    45a3: 06 1a        	asl	$1a                     ; 0x201a <f256main+0x1706>
    45a5: 2a           	rol
    45a6: 06 1a        	asl	$1a                     ; 0x201a <f256main+0x1706>
    45a8: 2a           	rol
    45a9: 06 1a        	asl	$1a                     ; 0x201a <f256main+0x1706>
    45ab: 2a           	rol
    45ac: a8           	tay
    45ad: b2 14        	lda	($14)                   ; 0x2014 <f256main+0x1700>
    45af: a6 0f        	ldx	$f                      ; 0x200f <f256main+0x16fb>
    45b1: 78           	sei
    45b2: 84 0f        	sty	$f                      ; 0x200f <f256main+0x16fb>
    45b4: 85 1a        	sta	$1a                     ; 0x201a <f256main+0x1706>
    45b6: a5 1b        	lda	$1b                     ; 0x201b <f256main+0x1707>
    45b8: 09 e0        	ora	#$e0
    45ba: 85 1b        	sta	$1b                     ; 0x201b <f256main+0x1707>
    45bc: a5 1d        	lda	$1d                     ; 0x201d <f256main+0x1709>
    45be: 92 1a        	sta	($1a)                   ; 0x201a <f256main+0x1706>
    45c0: 86 0f        	stx	$f                      ; 0x200f <f256main+0x16fb>
    45c2: 58           	cli
    45c3: b2 14        	lda	($14)                   ; 0x2014 <f256main+0x1700>
    45c5: 85 1a        	sta	$1a                     ; 0x201a <f256main+0x1706>
    45c7: a0 01        	ldy	#$1
    45c9: b1 14        	lda	($14),y                 ; 0x2014 <f256main+0x1700>
    45cb: 85 1d        	sta	$1d                     ; 0x201d <f256main+0x1709>
    45cd: c8           	iny
    45ce: b1 14        	lda	($14),y                 ; 0x2014 <f256main+0x1700>
    45d0: aa           	tax
    45d1: c8           	iny
    45d2: b1 14        	lda	($14),y                 ; 0x2014 <f256main+0x1700>
    45d4: e6 1a        	inc	$1a                     ; 0x201a <f256main+0x1706>
    45d6: d0 08        	bne	$45e0 <setupMem4Track+0x4c>
    45d8: e6 1d        	inc	$1d                     ; 0x201d <f256main+0x1709>
    45da: d0 04        	bne	$45e0 <setupMem4Track+0x4c>
    45dc: e8           	inx
    45dd: d0 01        	bne	$45e0 <setupMem4Track+0x4c>
    45df: 1a           	inc
    45e0: 91 14        	sta	($14),y                 ; 0x2014 <f256main+0x1700>
    45e2: 8a           	txa
    45e3: a0 02        	ldy	#$2
    45e5: 91 14        	sta	($14),y                 ; 0x2014 <f256main+0x1700>
    45e7: a5 1d        	lda	$1d                     ; 0x201d <f256main+0x1709>
    45e9: 0a           	asl
    45ea: 86 1b        	stx	$1b                     ; 0x201b <f256main+0x1707>
    45ec: 26 1b        	rol	$1b                     ; 0x201b <f256main+0x1707>
    45ee: 0a           	asl
    45ef: 26 1b        	rol	$1b                     ; 0x201b <f256main+0x1707>
    45f1: 0a           	asl
    45f2: 26 1b        	rol	$1b                     ; 0x201b <f256main+0x1707>
    45f4: a5 1a        	lda	$1a                     ; 0x201a <f256main+0x1706>
    45f6: 92 14        	sta	($14)                   ; 0x2014 <f256main+0x1700>
    45f8: a5 1d        	lda	$1d                     ; 0x201d <f256main+0x1709>
    45fa: 88           	dey
    45fb: 91 14        	sta	($14),y                 ; 0x2014 <f256main+0x1700>
    45fd: a6 0f        	ldx	$f                      ; 0x200f <f256main+0x16fb>
    45ff: 78           	sei
    4600: a4 1b        	ldy	$1b                     ; 0x201b <f256main+0x1707>
    4602: 84 0f        	sty	$f                      ; 0x200f <f256main+0x16fb>
    4604: 09 e0        	ora	#$e0
    4606: 85 1b        	sta	$1b                     ; 0x201b <f256main+0x1707>
    4608: a5 1c        	lda	$1c                     ; 0x201c <f256main+0x1708>
    460a: 92 1a        	sta	($1a)                   ; 0x201a <f256main+0x1706>
    460c: 86 0f        	stx	$f                      ; 0x200f <f256main+0x16fb>
    460e: 58           	cli
    460f: b2 14        	lda	($14)                   ; 0x2014 <f256main+0x1700>
    4611: 85 1a        	sta	$1a                     ; 0x201a <f256main+0x1706>
    4613: a0 01        	ldy	#$1
    4615: b1 14        	lda	($14),y                 ; 0x2014 <f256main+0x1700>
    4617: 85 1c        	sta	$1c                     ; 0x201c <f256main+0x1708>
    4619: c8           	iny
    461a: b1 14        	lda	($14),y                 ; 0x2014 <f256main+0x1700>
    461c: aa           	tax
    461d: c8           	iny
    461e: b1 14        	lda	($14),y                 ; 0x2014 <f256main+0x1700>
    4620: e6 1a        	inc	$1a                     ; 0x201a <f256main+0x1706>
    4622: d0 08        	bne	$462c <setupMem4Track+0x98>
    4624: e6 1c        	inc	$1c                     ; 0x201c <f256main+0x1708>
    4626: d0 04        	bne	$462c <setupMem4Track+0x98>
    4628: e8           	inx
    4629: d0 01        	bne	$462c <setupMem4Track+0x98>
    462b: 1a           	inc
    462c: 91 14        	sta	($14),y                 ; 0x2014 <f256main+0x1700>
    462e: 8a           	txa
    462f: a0 02        	ldy	#$2
    4631: 91 14        	sta	($14),y                 ; 0x2014 <f256main+0x1700>
    4633: a5 1c        	lda	$1c                     ; 0x201c <f256main+0x1708>
    4635: 0a           	asl
    4636: 86 1b        	stx	$1b                     ; 0x201b <f256main+0x1707>
    4638: 26 1b        	rol	$1b                     ; 0x201b <f256main+0x1707>
    463a: 0a           	asl
    463b: 26 1b        	rol	$1b                     ; 0x201b <f256main+0x1707>
    463d: 0a           	asl
    463e: 26 1b        	rol	$1b                     ; 0x201b <f256main+0x1707>
    4640: a5 1a        	lda	$1a                     ; 0x201a <f256main+0x1706>
    4642: 92 14        	sta	($14)                   ; 0x2014 <f256main+0x1700>
    4644: a5 1c        	lda	$1c                     ; 0x201c <f256main+0x1708>
    4646: 88           	dey
    4647: 91 14        	sta	($14),y                 ; 0x2014 <f256main+0x1700>
    4649: a6 0f        	ldx	$f                      ; 0x200f <f256main+0x16fb>
    464b: 78           	sei
    464c: a4 1b        	ldy	$1b                     ; 0x201b <f256main+0x1707>
    464e: 84 0f        	sty	$f                      ; 0x200f <f256main+0x16fb>
    4650: 09 e0        	ora	#$e0
    4652: 85 1b        	sta	$1b                     ; 0x201b <f256main+0x1707>
    4654: a5 12        	lda	$12                     ; 0x2012 <f256main+0x16fe>
    4656: 92 1a        	sta	($1a)                   ; 0x201a <f256main+0x1706>
    4658: 86 0f        	stx	$f                      ; 0x200f <f256main+0x16fb>
    465a: 58           	cli
    465b: b2 14        	lda	($14)                   ; 0x2014 <f256main+0x1700>
    465d: 85 1c        	sta	$1c                     ; 0x201c <f256main+0x1708>
    465f: a0 01        	ldy	#$1
    4661: b1 14        	lda	($14),y                 ; 0x2014 <f256main+0x1700>
    4663: 85 1a        	sta	$1a                     ; 0x201a <f256main+0x1706>
    4665: c8           	iny
    4666: b1 14        	lda	($14),y                 ; 0x2014 <f256main+0x1700>
    4668: aa           	tax
    4669: c8           	iny
    466a: b1 14        	lda	($14),y                 ; 0x2014 <f256main+0x1700>
    466c: e6 1c        	inc	$1c                     ; 0x201c <f256main+0x1708>
    466e: d0 08        	bne	$4678 <setupMem4Track+0xe4>
    4670: e6 1a        	inc	$1a                     ; 0x201a <f256main+0x1706>
    4672: d0 04        	bne	$4678 <setupMem4Track+0xe4>
    4674: e8           	inx
    4675: d0 01        	bne	$4678 <setupMem4Track+0xe4>
    4677: 1a           	inc
    4678: 91 14        	sta	($14),y                 ; 0x2014 <f256main+0x1700>
    467a: 8a           	txa
    467b: a0 02        	ldy	#$2
    467d: 91 14        	sta	($14),y                 ; 0x2014 <f256main+0x1700>
    467f: a5 1a        	lda	$1a                     ; 0x201a <f256main+0x1706>
    4681: 0a           	asl
    4682: 86 12        	stx	$12                     ; 0x2012 <f256main+0x16fe>
    4684: 26 12        	rol	$12                     ; 0x2012 <f256main+0x16fe>
    4686: 0a           	asl
    4687: 26 12        	rol	$12                     ; 0x2012 <f256main+0x16fe>
    4689: 0a           	asl
    468a: 26 12        	rol	$12                     ; 0x2012 <f256main+0x16fe>
    468c: a5 1c        	lda	$1c                     ; 0x201c <f256main+0x1708>
    468e: 92 14        	sta	($14)                   ; 0x2014 <f256main+0x1700>
    4690: 88           	dey
    4691: a5 1a        	lda	$1a                     ; 0x201a <f256main+0x1706>
    4693: 91 14        	sta	($14),y                 ; 0x2014 <f256main+0x1700>
    4695: a6 0f        	ldx	$f                      ; 0x200f <f256main+0x16fb>
    4697: 78           	sei
    4698: a4 12        	ldy	$12                     ; 0x2012 <f256main+0x16fe>
    469a: 84 0f        	sty	$f                      ; 0x200f <f256main+0x16fb>
    469c: 09 e0        	ora	#$e0
    469e: 85 1d        	sta	$1d                     ; 0x201d <f256main+0x1709>
    46a0: a5 13        	lda	$13                     ; 0x2013 <f256main+0x16ff>
    46a2: 85 1a        	sta	$1a                     ; 0x201a <f256main+0x1706>
    46a4: 92 1c        	sta	($1c)                   ; 0x201c <f256main+0x1708>
    46a6: 86 0f        	stx	$f                      ; 0x200f <f256main+0x16fb>
    46a8: 58           	cli
    46a9: b2 14        	lda	($14)                   ; 0x2014 <f256main+0x1700>
    46ab: 85 1b        	sta	$1b                     ; 0x201b <f256main+0x1707>
    46ad: a0 01        	ldy	#$1
    46af: b1 14        	lda	($14),y                 ; 0x2014 <f256main+0x1700>
    46b1: 85 12        	sta	$12                     ; 0x2012 <f256main+0x16fe>
    46b3: c8           	iny
    46b4: b1 14        	lda	($14),y                 ; 0x2014 <f256main+0x1700>
    46b6: 85 13        	sta	$13                     ; 0x2013 <f256main+0x16ff>
    46b8: c8           	iny
    46b9: b1 14        	lda	($14),y                 ; 0x2014 <f256main+0x1700>
    46bb: aa           	tax
    46bc: a5 1b        	lda	$1b                     ; 0x201b <f256main+0x1707>
    46be: 1a           	inc
    46bf: d0 09        	bne	$46ca <setupMem4Track+0x136>
    46c1: e6 12        	inc	$12                     ; 0x2012 <f256main+0x16fe>
    46c3: d0 05        	bne	$46ca <setupMem4Track+0x136>
    46c5: e6 13        	inc	$13                     ; 0x2013 <f256main+0x16ff>
    46c7: d0 01        	bne	$46ca <setupMem4Track+0x136>
    46c9: e8           	inx
    46ca: 92 14        	sta	($14)                   ; 0x2014 <f256main+0x1700>
    46cc: a5 12        	lda	$12                     ; 0x2012 <f256main+0x16fe>
    46ce: a0 01        	ldy	#$1
    46d0: 91 14        	sta	($14),y                 ; 0x2014 <f256main+0x1700>
    46d2: c8           	iny
    46d3: a5 13        	lda	$13                     ; 0x2013 <f256main+0x16ff>
    46d5: 91 14        	sta	($14),y                 ; 0x2014 <f256main+0x1700>
    46d7: 8a           	txa
    46d8: c8           	iny
    46d9: 91 14        	sta	($14),y                 ; 0x2014 <f256main+0x1700>
    46db: a0 00        	ldy	#$0
    46dd: 80 47        	bra	$4726 <setupMem4Track+0x192>
    46df: e6 1c        	inc	$1c                     ; 0x201c <f256main+0x1708>
    46e1: 92 14        	sta	($14)                   ; 0x2014 <f256main+0x1700>
    46e3: a0 01        	ldy	#$1
    46e5: a5 1d        	lda	$1d                     ; 0x201d <f256main+0x1709>
    46e7: 91 14        	sta	($14),y                 ; 0x2014 <f256main+0x1700>
    46e9: c8           	iny
    46ea: a5 1e        	lda	$1e                     ; 0x201e <f256main+0x170a>
    46ec: 91 14        	sta	($14),y                 ; 0x2014 <f256main+0x1700>
    46ee: c8           	iny
    46ef: a5 1c        	lda	$1c                     ; 0x201c <f256main+0x1708>
    46f1: 91 14        	sta	($14),y                 ; 0x2014 <f256main+0x1700>
    46f3: a4 12        	ldy	$12                     ; 0x2012 <f256main+0x16fe>
    46f5: b1 16        	lda	($16),y                 ; 0x2016 <f256main+0x1702>
    46f7: 85 1c        	sta	$1c                     ; 0x201c <f256main+0x1708>
    46f9: a5 1b        	lda	$1b                     ; 0x201b <f256main+0x1707>
    46fb: 85 12        	sta	$12                     ; 0x2012 <f256main+0x16fe>
    46fd: 06 12        	asl	$12                     ; 0x2012 <f256main+0x16fe>
    46ff: 8a           	txa
    4700: 2a           	rol
    4701: 06 12        	asl	$12                     ; 0x2012 <f256main+0x16fe>
    4703: 2a           	rol
    4704: 06 12        	asl	$12                     ; 0x2012 <f256main+0x16fe>
    4706: 2a           	rol
    4707: a6 0f        	ldx	$f                      ; 0x200f <f256main+0x16fb>
    4709: 78           	sei
    470a: 85 0f        	sta	$f                      ; 0x200f <f256main+0x16fb>
    470c: a5 13        	lda	$13                     ; 0x2013 <f256main+0x16ff>
    470e: 85 12        	sta	$12                     ; 0x2012 <f256main+0x16fe>
    4710: a5 1b        	lda	$1b                     ; 0x201b <f256main+0x1707>
    4712: 09 e0        	ora	#$e0
    4714: 85 13        	sta	$13                     ; 0x2013 <f256main+0x16ff>
    4716: a5 1c        	lda	$1c                     ; 0x201c <f256main+0x1708>
    4718: 92 12        	sta	($12)                   ; 0x2012 <f256main+0x16fe>
    471a: 86 0f        	stx	$f                      ; 0x200f <f256main+0x16fb>
    471c: 58           	cli
    471d: c8           	iny
    471e: 84 12        	sty	$12                     ; 0x2012 <f256main+0x16fe>
    4720: a6 1a        	ldx	$1a                     ; 0x201a <f256main+0x1706>
    4722: e4 12        	cpx	$12                     ; 0x2012 <f256main+0x16fe>
    4724: f0 34        	beq	$475a <setupMem4Track+0x1c6>
    4726: b2 14        	lda	($14)                   ; 0x2014 <f256main+0x1700>
    4728: 85 13        	sta	$13                     ; 0x2013 <f256main+0x16ff>
    472a: 84 12        	sty	$12                     ; 0x2012 <f256main+0x16fe>
    472c: a0 01        	ldy	#$1
    472e: b1 14        	lda	($14),y                 ; 0x2014 <f256main+0x1700>
    4730: 85 1b        	sta	$1b                     ; 0x201b <f256main+0x1707>
    4732: c8           	iny
    4733: b1 14        	lda	($14),y                 ; 0x2014 <f256main+0x1700>
    4735: aa           	tax
    4736: c8           	iny
    4737: b1 14        	lda	($14),y                 ; 0x2014 <f256main+0x1700>
    4739: 85 1c        	sta	$1c                     ; 0x201c <f256main+0x1708>
    473b: a5 13        	lda	$13                     ; 0x2013 <f256main+0x16ff>
    473d: a4 1b        	ldy	$1b                     ; 0x201b <f256main+0x1707>
    473f: 84 1d        	sty	$1d                     ; 0x201d <f256main+0x1709>
    4741: 86 1e        	stx	$1e                     ; 0x201e <f256main+0x170a>
    4743: 1a           	inc
    4744: f0 03        	beq	$4749 <setupMem4Track+0x1b5>
    4746: 4c e1 46     	jmp	$46e1 <setupMem4Track+0x14d>
    4749: e6 1d        	inc	$1d                     ; 0x201d <f256main+0x1709>
    474b: f0 03        	beq	$4750 <setupMem4Track+0x1bc>
    474d: 4c e1 46     	jmp	$46e1 <setupMem4Track+0x14d>
    4750: e6 1e        	inc	$1e                     ; 0x201e <f256main+0x170a>
    4752: d0 03        	bne	$4757 <setupMem4Track+0x1c3>
    4754: 4c df 46     	jmp	$46df <setupMem4Track+0x14b>
    4757: 4c e1 46     	jmp	$46e1 <setupMem4Track+0x14d>
    475a: a0 00        	ldy	#$0
    475c: 80 47        	bra	$47a5 <setupMem4Track+0x211>
    475e: e6 1b        	inc	$1b                     ; 0x201b <f256main+0x1707>
    4760: 92 14        	sta	($14)                   ; 0x2014 <f256main+0x1700>
    4762: a0 01        	ldy	#$1
    4764: a5 1c        	lda	$1c                     ; 0x201c <f256main+0x1708>
    4766: 91 14        	sta	($14),y                 ; 0x2014 <f256main+0x1700>
    4768: c8           	iny
    4769: a5 17        	lda	$17                     ; 0x2017 <f256main+0x1703>
    476b: 91 14        	sta	($14),y                 ; 0x2014 <f256main+0x1700>
    476d: c8           	iny
    476e: a5 1b        	lda	$1b                     ; 0x201b <f256main+0x1707>
    4770: 91 14        	sta	($14),y                 ; 0x2014 <f256main+0x1700>
    4772: a4 12        	ldy	$12                     ; 0x2012 <f256main+0x16fe>
    4774: b1 18        	lda	($18),y                 ; 0x2018 <f256main+0x1704>
    4776: 85 17        	sta	$17                     ; 0x2017 <f256main+0x1703>
    4778: a5 16        	lda	$16                     ; 0x2016 <f256main+0x1702>
    477a: 85 12        	sta	$12                     ; 0x2012 <f256main+0x16fe>
    477c: 06 12        	asl	$12                     ; 0x2012 <f256main+0x16fe>
    477e: 8a           	txa
    477f: 2a           	rol
    4780: 06 12        	asl	$12                     ; 0x2012 <f256main+0x16fe>
    4782: 2a           	rol
    4783: 06 12        	asl	$12                     ; 0x2012 <f256main+0x16fe>
    4785: 2a           	rol
    4786: a6 0f        	ldx	$f                      ; 0x200f <f256main+0x16fb>
    4788: 78           	sei
    4789: 85 0f        	sta	$f                      ; 0x200f <f256main+0x16fb>
    478b: a5 13        	lda	$13                     ; 0x2013 <f256main+0x16ff>
    478d: 85 12        	sta	$12                     ; 0x2012 <f256main+0x16fe>
    478f: a5 16        	lda	$16                     ; 0x2016 <f256main+0x1702>
    4791: 09 e0        	ora	#$e0
    4793: 85 13        	sta	$13                     ; 0x2013 <f256main+0x16ff>
    4795: a5 17        	lda	$17                     ; 0x2017 <f256main+0x1703>
    4797: 92 12        	sta	($12)                   ; 0x2012 <f256main+0x16fe>
    4799: 86 0f        	stx	$f                      ; 0x200f <f256main+0x16fb>
    479b: 58           	cli
    479c: c8           	iny
    479d: 84 12        	sty	$12                     ; 0x2012 <f256main+0x16fe>
    479f: a6 1a        	ldx	$1a                     ; 0x201a <f256main+0x1706>
    47a1: e4 12        	cpx	$12                     ; 0x2012 <f256main+0x16fe>
    47a3: f0 34        	beq	$47d9 <setupMem4Track+0x245>
    47a5: b2 14        	lda	($14)                   ; 0x2014 <f256main+0x1700>
    47a7: 85 13        	sta	$13                     ; 0x2013 <f256main+0x16ff>
    47a9: 84 12        	sty	$12                     ; 0x2012 <f256main+0x16fe>
    47ab: a0 01        	ldy	#$1
    47ad: b1 14        	lda	($14),y                 ; 0x2014 <f256main+0x1700>
    47af: 85 16        	sta	$16                     ; 0x2016 <f256main+0x1702>
    47b1: c8           	iny
    47b2: b1 14        	lda	($14),y                 ; 0x2014 <f256main+0x1700>
    47b4: aa           	tax
    47b5: c8           	iny
    47b6: b1 14        	lda	($14),y                 ; 0x2014 <f256main+0x1700>
    47b8: 85 1b        	sta	$1b                     ; 0x201b <f256main+0x1707>
    47ba: 86 17        	stx	$17                     ; 0x2017 <f256main+0x1703>
    47bc: a5 13        	lda	$13                     ; 0x2013 <f256main+0x16ff>
    47be: a4 16        	ldy	$16                     ; 0x2016 <f256main+0x1702>
    47c0: 84 1c        	sty	$1c                     ; 0x201c <f256main+0x1708>
    47c2: 1a           	inc
    47c3: f0 03        	beq	$47c8 <setupMem4Track+0x234>
    47c5: 4c 60 47     	jmp	$4760 <setupMem4Track+0x1cc>
    47c8: e6 1c        	inc	$1c                     ; 0x201c <f256main+0x1708>
    47ca: f0 03        	beq	$47cf <setupMem4Track+0x23b>
    47cc: 4c 60 47     	jmp	$4760 <setupMem4Track+0x1cc>
    47cf: e6 17        	inc	$17                     ; 0x2017 <f256main+0x1703>
    47d1: d0 03        	bne	$47d6 <setupMem4Track+0x242>
    47d3: 4c 5e 47     	jmp	$475e <setupMem4Track+0x1ca>
    47d6: 4c 60 47     	jmp	$4760 <setupMem4Track+0x1cc>
    47d9: 60           	rts

000047da <channelTextMenu>:
    47da: a2 40        	ldx	#$40
    47dc: 86 30        	stx	$30                     ; 0x2030 <f256main+0x171c>
    47de: 64 33        	stz	$33                     ; 0x2033 <f256main+0x171f>
    47e0: 9c 14 d0     	stz	$d014                   ; 0xd014 <__heap_start+0x49ce>
    47e3: 9c 15 d0     	stz	$d015                   ; 0xd015 <__heap_start+0x49cf>
    47e6: a2 1a        	ldx	#$1a
    47e8: 86 34        	stx	$34                     ; 0x2034 <f256main+0x1720>
    47ea: 8e 16 d0     	stx	$d016                   ; 0xd016 <__heap_start+0x49d0>
    47ed: 9c 17 d0     	stz	$d017                   ; 0xd017 <__heap_start+0x49d1>
    47f0: a2 96        	ldx	#$96
    47f2: 86 12        	stx	$12                     ; 0x2012 <f256main+0x16fe>
    47f4: a2 76        	ldx	#$76
    47f6: 86 13        	stx	$13                     ; 0x2013 <f256main+0x16ff>
    47f8: 20 9c 2f     	jsr	$2f9c <textPrint>
    47fb: 64 33        	stz	$33                     ; 0x2033 <f256main+0x171f>
    47fd: 9c 14 d0     	stz	$d014                   ; 0xd014 <__heap_start+0x49ce>
    4800: 9c 15 d0     	stz	$d015                   ; 0xd015 <__heap_start+0x49cf>
    4803: a2 1b        	ldx	#$1b
    4805: 86 34        	stx	$34                     ; 0x2034 <f256main+0x1720>
    4807: 8e 16 d0     	stx	$d016                   ; 0xd016 <__heap_start+0x49d0>
    480a: 9c 17 d0     	stz	$d017                   ; 0xd017 <__heap_start+0x49d1>
    480d: a2 b0        	ldx	#$b0
    480f: 86 12        	stx	$12                     ; 0x2012 <f256main+0x16fe>
    4811: a2 78        	ldx	#$78
    4813: 86 13        	stx	$13                     ; 0x2013 <f256main+0x16ff>
    4815: 20 9c 2f     	jsr	$2f9c <textPrint>
    4818: a2 01        	ldx	#$1
    481a: 86 33        	stx	$33                     ; 0x2033 <f256main+0x171f>
    481c: 8e 14 d0     	stx	$d014                   ; 0xd014 <__heap_start+0x49ce>
    481f: 9c 15 d0     	stz	$d015                   ; 0xd015 <__heap_start+0x49cf>
    4822: a2 1d        	ldx	#$1d
    4824: 86 34        	stx	$34                     ; 0x2034 <f256main+0x1720>
    4826: 8e 16 d0     	stx	$d016                   ; 0xd016 <__heap_start+0x49d0>
    4829: 9c 17 d0     	stz	$d017                   ; 0xd017 <__heap_start+0x49d1>
    482c: a2 6c        	ldx	#$6c
    482e: 86 12        	stx	$12                     ; 0x2012 <f256main+0x16fe>
    4830: a2 7a        	ldx	#$7a
    4832: 86 13        	stx	$13                     ; 0x2013 <f256main+0x16ff>
    4834: 20 9c 2f     	jsr	$2f9c <textPrint>
    4837: a2 02        	ldx	#$2
    4839: 86 33        	stx	$33                     ; 0x2033 <f256main+0x171f>
    483b: 8e 14 d0     	stx	$d014                   ; 0xd014 <__heap_start+0x49ce>
    483e: 9c 15 d0     	stz	$d015                   ; 0xd015 <__heap_start+0x49cf>
    4841: a2 1e        	ldx	#$1e
    4843: 86 34        	stx	$34                     ; 0x2034 <f256main+0x1720>
    4845: 8e 16 d0     	stx	$d016                   ; 0xd016 <__heap_start+0x49d0>
    4848: 9c 17 d0     	stz	$d017                   ; 0xd017 <__heap_start+0x49d1>
    484b: a2 f8        	ldx	#$f8
    484d: 86 12        	stx	$12                     ; 0x2012 <f256main+0x16fe>
    484f: a2 76        	ldx	#$76
    4851: 86 13        	stx	$13                     ; 0x2013 <f256main+0x16ff>
    4853: 20 9c 2f     	jsr	$2f9c <textPrint>
    4856: a2 02        	ldx	#$2
    4858: 86 33        	stx	$33                     ; 0x2033 <f256main+0x171f>
    485a: 8e 14 d0     	stx	$d014                   ; 0xd014 <__heap_start+0x49ce>
    485d: 9c 15 d0     	stz	$d015                   ; 0xd015 <__heap_start+0x49cf>
    4860: a2 1f        	ldx	#$1f
    4862: 86 34        	stx	$34                     ; 0x2034 <f256main+0x1720>
    4864: 8e 16 d0     	stx	$d016                   ; 0xd016 <__heap_start+0x49d0>
    4867: 9c 17 d0     	stz	$d017                   ; 0xd017 <__heap_start+0x49d1>
    486a: a2 0b        	ldx	#$b
    486c: 86 12        	stx	$12                     ; 0x2012 <f256main+0x16fe>
    486e: a2 81        	ldx	#$81
    4870: 86 13        	stx	$13                     ; 0x2013 <f256main+0x16ff>
    4872: 20 9c 2f     	jsr	$2f9c <textPrint>
    4875: a2 02        	ldx	#$2
    4877: 86 33        	stx	$33                     ; 0x2033 <f256main+0x171f>
    4879: 8e 14 d0     	stx	$d014                   ; 0xd014 <__heap_start+0x49ce>
    487c: 9c 15 d0     	stz	$d015                   ; 0xd015 <__heap_start+0x49cf>
    487f: a2 20        	ldx	#$20
    4881: 86 34        	stx	$34                     ; 0x2034 <f256main+0x1720>
    4883: 8e 16 d0     	stx	$d016                   ; 0xd016 <__heap_start+0x49d0>
    4886: 9c 17 d0     	stz	$d017                   ; 0xd017 <__heap_start+0x49d1>
    4889: a2 a5        	ldx	#$a5
    488b: 86 12        	stx	$12                     ; 0x2012 <f256main+0x16fe>
    488d: a2 81        	ldx	#$81
    488f: 86 13        	stx	$13                     ; 0x2013 <f256main+0x16ff>
    4891: 20 9c 2f     	jsr	$2f9c <textPrint>
    4894: 64 33        	stz	$33                     ; 0x2033 <f256main+0x171f>
    4896: 9c 14 d0     	stz	$d014                   ; 0xd014 <__heap_start+0x49ce>
    4899: 9c 15 d0     	stz	$d015                   ; 0xd015 <__heap_start+0x49cf>
    489c: a2 21        	ldx	#$21
    489e: 86 34        	stx	$34                     ; 0x2034 <f256main+0x1720>
    48a0: 8e 16 d0     	stx	$d016                   ; 0xd016 <__heap_start+0x49d0>
    48a3: 9c 17 d0     	stz	$d017                   ; 0xd017 <__heap_start+0x49d1>
    48a6: a2 61        	ldx	#$61
    48a8: 86 12        	stx	$12                     ; 0x2012 <f256main+0x16fe>
    48aa: a2 7d        	ldx	#$7d
    48ac: 86 13        	stx	$13                     ; 0x2013 <f256main+0x16ff>
    48ae: 4c 9c 2f     	jmp	$2f9c <textPrint>

000048b1 <refreshBeatTextChoice>:
    48b1: 18           	clc
    48b2: a5 10        	lda	$10                     ; 0x2010 <f256main+0x16fc>
    48b4: 69 fe        	adc	#$fe
    48b6: 85 10        	sta	$10                     ; 0x2010 <f256main+0x16fc>
    48b8: a5 11        	lda	$11                     ; 0x2011 <f256main+0x16fd>
    48ba: 69 ff        	adc	#$ff
    48bc: 85 11        	sta	$11                     ; 0x2011 <f256main+0x16fd>
    48be: a2 90        	ldx	#$90
    48c0: 86 30        	stx	$30                     ; 0x2030 <f256main+0x171c>
    48c2: a2 2e        	ldx	#$2e
    48c4: 86 33        	stx	$33                     ; 0x2033 <f256main+0x171f>
    48c6: 8e 14 d0     	stx	$d014                   ; 0xd014 <__heap_start+0x49ce>
    48c9: 9c 15 d0     	stz	$d015                   ; 0xd015 <__heap_start+0x49cf>
    48cc: a2 1d        	ldx	#$1d
    48ce: 86 34        	stx	$34                     ; 0x2034 <f256main+0x1720>
    48d0: 8e 16 d0     	stx	$d016                   ; 0xd016 <__heap_start+0x49d0>
    48d3: 9c 17 d0     	stz	$d017                   ; 0xd017 <__heap_start+0x49d1>
    48d6: a2 81        	ldx	#$81
    48d8: 86 12        	stx	$12                     ; 0x2012 <f256main+0x16fe>
    48da: a2 7d        	ldx	#$7d
    48dc: 86 13        	stx	$13                     ; 0x2013 <f256main+0x16ff>
    48de: 20 9c 2f     	jsr	$2f9c <textPrint>
    48e1: a2 2e        	ldx	#$2e
    48e3: 86 33        	stx	$33                     ; 0x2033 <f256main+0x171f>
    48e5: 8e 14 d0     	stx	$d014                   ; 0xd014 <__heap_start+0x49ce>
    48e8: 9c 15 d0     	stz	$d015                   ; 0xd015 <__heap_start+0x49cf>
    48eb: a2 1d        	ldx	#$1d
    48ed: 86 34        	stx	$34                     ; 0x2034 <f256main+0x1720>
    48ef: 8e 16 d0     	stx	$d016                   ; 0xd016 <__heap_start+0x49d0>
    48f2: 9c 17 d0     	stz	$d017                   ; 0xd017 <__heap_start+0x49d1>
    48f5: a9 15        	lda	#$15
    48f7: 92 10        	sta	($10)                   ; 0x2010 <f256main+0x16fc>
    48f9: a0 01        	ldy	#$1
    48fb: a9 7c        	lda	#$7c
    48fd: 91 10        	sta	($10),y                 ; 0x2010 <f256main+0x16fc>
    48ff: a2 e3        	ldx	#$e3
    4901: 86 12        	stx	$12                     ; 0x2012 <f256main+0x16fe>
    4903: a2 7b        	ldx	#$7b
    4905: 86 13        	stx	$13                     ; 0x2013 <f256main+0x16ff>
    4907: 20 53 52     	jsr	$5253 <printf>
    490a: 18           	clc
    490b: a5 10        	lda	$10                     ; 0x2010 <f256main+0x16fc>
    490d: 69 02        	adc	#$2
    490f: 85 10        	sta	$10                     ; 0x2010 <f256main+0x16fc>
    4911: a5 11        	lda	$11                     ; 0x2011 <f256main+0x16fd>
    4913: 69 00        	adc	#$0
    4915: 85 11        	sta	$11                     ; 0x2011 <f256main+0x16fd>
    4917: 60           	rts

00004918 <updateTempoText>:
    4918: 85 96        	sta	$96                     ; 0x2096 <f256main+0x1782>
    491a: a2 40        	ldx	#$40
    491c: 86 30        	stx	$30                     ; 0x2030 <f256main+0x171c>
    491e: a2 2d        	ldx	#$2d
    4920: 86 33        	stx	$33                     ; 0x2033 <f256main+0x171f>
    4922: 8e 14 d0     	stx	$d014                   ; 0xd014 <__heap_start+0x49ce>
    4925: 9c 15 d0     	stz	$d015                   ; 0xd015 <__heap_start+0x49cf>
    4928: a2 1f        	ldx	#$1f
    492a: 86 34        	stx	$34                     ; 0x2034 <f256main+0x1720>
    492c: 8e 16 d0     	stx	$d016                   ; 0xd016 <__heap_start+0x49d0>
    492f: 9c 17 d0     	stz	$d017                   ; 0xd017 <__heap_start+0x49d1>
    4932: a2 4f        	ldx	#$4f
    4934: 86 12        	stx	$12                     ; 0x2012 <f256main+0x16fe>
    4936: a2 82        	ldx	#$82
    4938: 86 13        	stx	$13                     ; 0x2013 <f256main+0x16ff>
    493a: 20 9c 2f     	jsr	$2f9c <textPrint>
    493d: 64 12        	stz	$12                     ; 0x2012 <f256main+0x16fe>
    493f: 64 13        	stz	$13                     ; 0x2013 <f256main+0x16ff>
    4941: a2 00        	ldx	#$0
    4943: a5 96        	lda	$96                     ; 0x2096 <f256main+0x1782>
    4945: 20 84 40     	jsr	$4084 <textPrintUInt>
    4948: a2 95        	ldx	#$95
    494a: 86 12        	stx	$12                     ; 0x2012 <f256main+0x16fe>
    494c: a2 7f        	ldx	#$7f
    494e: 86 13        	stx	$13                     ; 0x2013 <f256main+0x16ff>
    4950: 20 9c 2f     	jsr	$2f9c <textPrint>
    4953: a2 2d        	ldx	#$2d
    4955: 86 33        	stx	$33                     ; 0x2033 <f256main+0x171f>
    4957: 8e 14 d0     	stx	$d014                   ; 0xd014 <__heap_start+0x49ce>
    495a: 9c 15 d0     	stz	$d015                   ; 0xd015 <__heap_start+0x49cf>
    495d: a2 20        	ldx	#$20
    495f: 86 34        	stx	$34                     ; 0x2034 <f256main+0x1720>
    4961: 8e 16 d0     	stx	$d016                   ; 0xd016 <__heap_start+0x49d0>
    4964: 9c 17 d0     	stz	$d017                   ; 0xd017 <__heap_start+0x49d1>
    4967: a2 7b        	ldx	#$7b
    4969: 86 12        	stx	$12                     ; 0x2012 <f256main+0x16fe>
    496b: a2 7a        	ldx	#$7a
    496d: 86 13        	stx	$13                     ; 0x2013 <f256main+0x16ff>
    496f: 4c 9c 2f     	jmp	$2f9c <textPrint>

00004972 <showChipChoiceText>:
    4972: a0 06        	ldy	#$6
    4974: b1 12        	lda	($12),y                 ; 0x2012 <f256main+0x16fe>
    4976: c9 04        	cmp	#$4
    4978: 90 03        	bcc	$497d <showChipChoiceText+0xb>
    497a: 4c 69 4a     	jmp	$4a69 <showChipChoiceText+0xf7>
    497d: 0a           	asl
    497e: aa           	tax
    497f: 7c af 75     	jmp	($75af,x)               ; 0x75af <__set_v+0x21>
    4982: 20 6a 4a     	jsr	$4a6a <showMIDIChoiceText>
    4985: a0 40        	ldy	#$40
    4987: a2 ae        	ldx	#$ae
    4989: 86 12        	stx	$12                     ; 0x2012 <f256main+0x16fe>
    498b: a2 79        	ldx	#$79
    498d: 86 13        	stx	$13                     ; 0x2013 <f256main+0x16ff>
    498f: a2 2d        	ldx	#$2d
    4991: 4c 52 4a     	jmp	$4a52 <showChipChoiceText+0xe0>
    4994: 20 6a 4a     	jsr	$4a6a <showMIDIChoiceText>
    4997: a2 2c        	ldx	#$2c
    4999: 86 33        	stx	$33                     ; 0x2033 <f256main+0x171f>
    499b: 8e 14 d0     	stx	$d014                   ; 0xd014 <__heap_start+0x49ce>
    499e: 9c 15 d0     	stz	$d015                   ; 0xd015 <__heap_start+0x49cf>
    49a1: a2 39        	ldx	#$39
    49a3: 86 34        	stx	$34                     ; 0x2034 <f256main+0x1720>
    49a5: 8e 16 d0     	stx	$d016                   ; 0xd016 <__heap_start+0x49d0>
    49a8: 9c 17 d0     	stz	$d017                   ; 0xd017 <__heap_start+0x49d1>
    49ab: a2 40        	ldx	#$40
    49ad: 86 30        	stx	$30                     ; 0x2030 <f256main+0x171c>
    49af: a2 c7        	ldx	#$c7
    49b1: 86 12        	stx	$12                     ; 0x2012 <f256main+0x16fe>
    49b3: a2 80        	ldx	#$80
    49b5: 86 13        	stx	$13                     ; 0x2013 <f256main+0x16ff>
    49b7: 20 9c 2f     	jsr	$2f9c <textPrint>
    49ba: a2 32        	ldx	#$32
    49bc: 86 33        	stx	$33                     ; 0x2033 <f256main+0x171f>
    49be: 8e 14 d0     	stx	$d014                   ; 0xd014 <__heap_start+0x49ce>
    49c1: 9c 15 d0     	stz	$d015                   ; 0xd015 <__heap_start+0x49cf>
    49c4: a2 39        	ldx	#$39
    49c6: 86 34        	stx	$34                     ; 0x2034 <f256main+0x1720>
    49c8: 8e 16 d0     	stx	$d016                   ; 0xd016 <__heap_start+0x49d0>
    49cb: 9c 17 d0     	stz	$d017                   ; 0xd017 <__heap_start+0x49d1>
    49ce: a2 90        	ldx	#$90
    49d0: 86 30        	stx	$30                     ; 0x2030 <f256main+0x171c>
    49d2: a2 a9        	ldx	#$a9
    49d4: 86 12        	stx	$12                     ; 0x2012 <f256main+0x16fe>
    49d6: a2 81        	ldx	#$81
    49d8: 86 13        	stx	$13                     ; 0x2013 <f256main+0x16ff>
    49da: 20 9c 2f     	jsr	$2f9c <textPrint>
    49dd: a0 40        	ldy	#$40
    49df: a2 20        	ldx	#$20
    49e1: 86 12        	stx	$12                     ; 0x2012 <f256main+0x16fe>
    49e3: a2 79        	ldx	#$79
    49e5: 86 13        	stx	$13                     ; 0x2013 <f256main+0x16ff>
    49e7: a2 38        	ldx	#$38
    49e9: 4c 52 4a     	jmp	$4a52 <showChipChoiceText+0xe0>
    49ec: 20 6a 4a     	jsr	$4a6a <showMIDIChoiceText>
    49ef: a2 2c        	ldx	#$2c
    49f1: 86 33        	stx	$33                     ; 0x2033 <f256main+0x171f>
    49f3: 8e 14 d0     	stx	$d014                   ; 0xd014 <__heap_start+0x49ce>
    49f6: 9c 15 d0     	stz	$d015                   ; 0xd015 <__heap_start+0x49cf>
    49f9: a2 39        	ldx	#$39
    49fb: 86 34        	stx	$34                     ; 0x2034 <f256main+0x1720>
    49fd: 8e 16 d0     	stx	$d016                   ; 0xd016 <__heap_start+0x49d0>
    4a00: 9c 17 d0     	stz	$d017                   ; 0xd017 <__heap_start+0x49d1>
    4a03: a2 40        	ldx	#$40
    4a05: 86 30        	stx	$30                     ; 0x2030 <f256main+0x171c>
    4a07: a2 66        	ldx	#$66
    4a09: 86 12        	stx	$12                     ; 0x2012 <f256main+0x16fe>
    4a0b: a2 80        	ldx	#$80
    4a0d: 86 13        	stx	$13                     ; 0x2013 <f256main+0x16ff>
    4a0f: 20 9c 2f     	jsr	$2f9c <textPrint>
    4a12: a2 1f        	ldx	#$1f
    4a14: 86 12        	stx	$12                     ; 0x2012 <f256main+0x16fe>
    4a16: a2 7f        	ldx	#$7f
    4a18: 86 13        	stx	$13                     ; 0x2013 <f256main+0x16ff>
    4a1a: a2 38        	ldx	#$38
    4a1c: a0 90        	ldy	#$90
    4a1e: 80 32        	bra	$4a52 <showChipChoiceText+0xe0>
    4a20: 20 6a 4a     	jsr	$4a6a <showMIDIChoiceText>
    4a23: a2 2c        	ldx	#$2c
    4a25: 86 33        	stx	$33                     ; 0x2033 <f256main+0x171f>
    4a27: 8e 14 d0     	stx	$d014                   ; 0xd014 <__heap_start+0x49ce>
    4a2a: 9c 15 d0     	stz	$d015                   ; 0xd015 <__heap_start+0x49cf>
    4a2d: a2 39        	ldx	#$39
    4a2f: 86 34        	stx	$34                     ; 0x2034 <f256main+0x1720>
    4a31: 8e 16 d0     	stx	$d016                   ; 0xd016 <__heap_start+0x49d0>
    4a34: 9c 17 d0     	stz	$d017                   ; 0xd017 <__heap_start+0x49d1>
    4a37: a2 90        	ldx	#$90
    4a39: 86 30        	stx	$30                     ; 0x2030 <f256main+0x171c>
    4a3b: a2 9c        	ldx	#$9c
    4a3d: 86 12        	stx	$12                     ; 0x2012 <f256main+0x16fe>
    4a3f: a2 7a        	ldx	#$7a
    4a41: 86 13        	stx	$13                     ; 0x2013 <f256main+0x16ff>
    4a43: 20 9c 2f     	jsr	$2f9c <textPrint>
    4a46: a0 40        	ldy	#$40
    4a48: a2 1a        	ldx	#$1a
    4a4a: 86 12        	stx	$12                     ; 0x2012 <f256main+0x16fe>
    4a4c: a2 78        	ldx	#$78
    4a4e: 86 13        	stx	$13                     ; 0x2013 <f256main+0x16ff>
    4a50: a2 32        	ldx	#$32
    4a52: 86 33        	stx	$33                     ; 0x2033 <f256main+0x171f>
    4a54: 8e 14 d0     	stx	$d014                   ; 0xd014 <__heap_start+0x49ce>
    4a57: 9c 15 d0     	stz	$d015                   ; 0xd015 <__heap_start+0x49cf>
    4a5a: a2 39        	ldx	#$39
    4a5c: 86 34        	stx	$34                     ; 0x2034 <f256main+0x1720>
    4a5e: 8e 16 d0     	stx	$d016                   ; 0xd016 <__heap_start+0x49d0>
    4a61: 9c 17 d0     	stz	$d017                   ; 0xd017 <__heap_start+0x49d1>
    4a64: 84 30        	sty	$30                     ; 0x2030 <f256main+0x171c>
    4a66: 20 9c 2f     	jsr	$2f9c <textPrint>
    4a69: 60           	rts

00004a6a <showMIDIChoiceText>:
    4a6a: a6 12        	ldx	$12                     ; 0x2012 <f256main+0x16fe>
    4a6c: 86 96        	stx	$96                     ; 0x2096 <f256main+0x1782>
    4a6e: a6 13        	ldx	$13                     ; 0x2013 <f256main+0x16ff>
    4a70: 86 97        	stx	$97                     ; 0x2097 <f256main+0x1783>
    4a72: a0 06        	ldy	#$6
    4a74: b1 12        	lda	($12),y                 ; 0x2012 <f256main+0x16fe>
    4a76: f0 06        	beq	$4a7e <showMIDIChoiceText+0x14>
    4a78: a2 40        	ldx	#$40
    4a7a: 86 98        	stx	$98                     ; 0x2098 <f256main+0x1784>
    4a7c: 80 12        	bra	$4a90 <showMIDIChoiceText+0x26>
    4a7e: b2 96        	lda	($96)                   ; 0x2096 <f256main+0x1782>
    4a80: f0 08        	beq	$4a8a <showMIDIChoiceText+0x20>
    4a82: a2 90        	ldx	#$90
    4a84: 86 98        	stx	$98                     ; 0x2098 <f256main+0x1784>
    4a86: a2 40        	ldx	#$40
    4a88: 80 06        	bra	$4a90 <showMIDIChoiceText+0x26>
    4a8a: a2 40        	ldx	#$40
    4a8c: 86 98        	stx	$98                     ; 0x2098 <f256main+0x1784>
    4a8e: a2 90        	ldx	#$90
    4a90: 86 30        	stx	$30                     ; 0x2030 <f256main+0x171c>
    4a92: a2 1d        	ldx	#$1d
    4a94: 86 33        	stx	$33                     ; 0x2033 <f256main+0x171f>
    4a96: 8e 14 d0     	stx	$d014                   ; 0xd014 <__heap_start+0x49ce>
    4a99: 9c 15 d0     	stz	$d015                   ; 0xd015 <__heap_start+0x49cf>
    4a9c: a2 39        	ldx	#$39
    4a9e: 86 34        	stx	$34                     ; 0x2034 <f256main+0x1720>
    4aa0: 8e 16 d0     	stx	$d016                   ; 0xd016 <__heap_start+0x49d0>
    4aa3: 9c 17 d0     	stz	$d017                   ; 0xd017 <__heap_start+0x49d1>
    4aa6: b2 96        	lda	($96)                   ; 0x2096 <f256main+0x1782>
    4aa8: f0 08        	beq	$4ab2 <showMIDIChoiceText+0x48>
    4aaa: a2 2d        	ldx	#$2d
    4aac: 86 12        	stx	$12                     ; 0x2012 <f256main+0x16fe>
    4aae: a2 7c        	ldx	#$7c
    4ab0: 80 06        	bra	$4ab8 <showMIDIChoiceText+0x4e>
    4ab2: a2 a9        	ldx	#$a9
    4ab4: 86 12        	stx	$12                     ; 0x2012 <f256main+0x16fe>
    4ab6: a2 7e        	ldx	#$7e
    4ab8: 86 13        	stx	$13                     ; 0x2013 <f256main+0x16ff>
    4aba: 20 9c 2f     	jsr	$2f9c <textPrint>
    4abd: a6 98        	ldx	$98                     ; 0x2098 <f256main+0x1784>
    4abf: 86 30        	stx	$30                     ; 0x2030 <f256main+0x171c>
    4ac1: a2 1d        	ldx	#$1d
    4ac3: 86 33        	stx	$33                     ; 0x2033 <f256main+0x171f>
    4ac5: 8e 14 d0     	stx	$d014                   ; 0xd014 <__heap_start+0x49ce>
    4ac8: 9c 15 d0     	stz	$d015                   ; 0xd015 <__heap_start+0x49cf>
    4acb: a2 3a        	ldx	#$3a
    4acd: 86 34        	stx	$34                     ; 0x2034 <f256main+0x1720>
    4acf: 8e 16 d0     	stx	$d016                   ; 0xd016 <__heap_start+0x49d0>
    4ad2: 9c 17 d0     	stz	$d017                   ; 0xd017 <__heap_start+0x49d1>
    4ad5: b2 96        	lda	($96)                   ; 0x2096 <f256main+0x1782>
    4ad7: f0 08        	beq	$4ae1 <showMIDIChoiceText+0x77>
    4ad9: a2 3d        	ldx	#$3d
    4adb: 86 12        	stx	$12                     ; 0x2012 <f256main+0x16fe>
    4add: a2 7b        	ldx	#$7b
    4adf: 80 06        	bra	$4ae7 <showMIDIChoiceText+0x7d>
    4ae1: a2 e9        	ldx	#$e9
    4ae3: 86 12        	stx	$12                     ; 0x2012 <f256main+0x16fe>
    4ae5: a2 7d        	ldx	#$7d
    4ae7: 86 13        	stx	$13                     ; 0x2013 <f256main+0x16ff>
    4ae9: 4c 9c 2f     	jmp	$2f9c <textPrint>

00004aec <textTitle>:
    4aec: 18           	clc
    4aed: a5 10        	lda	$10                     ; 0x2010 <f256main+0x16fc>
    4aef: 69 f8        	adc	#$f8
    4af1: 85 10        	sta	$10                     ; 0x2010 <f256main+0x16fc>
    4af3: a5 11        	lda	$11                     ; 0x2011 <f256main+0x16fd>
    4af5: 69 ff        	adc	#$ff
    4af7: 85 11        	sta	$11                     ; 0x2011 <f256main+0x16fd>
    4af9: a6 12        	ldx	$12                     ; 0x2012 <f256main+0x16fe>
    4afb: 86 91        	stx	$91                     ; 0x2091 <f256main+0x177d>
    4afd: a6 13        	ldx	$13                     ; 0x2013 <f256main+0x16ff>
    4aff: 86 92        	stx	$92                     ; 0x2092 <f256main+0x177e>
    4b01: a2 10        	ldx	#$10
    4b03: 86 30        	stx	$30                     ; 0x2030 <f256main+0x171c>
    4b05: a2 15        	ldx	#$15
    4b07: 86 33        	stx	$33                     ; 0x2033 <f256main+0x171f>
    4b09: 8e 14 d0     	stx	$d014                   ; 0xd014 <__heap_start+0x49ce>
    4b0c: 9c 15 d0     	stz	$d015                   ; 0xd015 <__heap_start+0x49cf>
    4b0f: 64 34        	stz	$34                     ; 0x2034 <f256main+0x1720>
    4b11: 9c 16 d0     	stz	$d016                   ; 0xd016 <__heap_start+0x49d0>
    4b14: 9c 17 d0     	stz	$d017                   ; 0xd017 <__heap_start+0x49d1>
    4b17: a2 1d        	ldx	#$1d
    4b19: a9 f8        	lda	#$f8
    4b1b: a0 ff        	ldy	#$ff
    4b1d: 85 93        	sta	$93                     ; 0x2093 <f256main+0x177f>
    4b1f: 84 94        	sty	$94                     ; 0x2094 <f256main+0x1780>
    4b21: 86 35        	stx	$35                     ; 0x2035 <f256main+0x1721>
    4b23: 86 95        	stx	$95                     ; 0x2095 <f256main+0x1781>
    4b25: a2 35        	ldx	#$35
    4b27: 86 12        	stx	$12                     ; 0x2012 <f256main+0x16fe>
    4b29: a2 00        	ldx	#$0
    4b2b: 86 13        	stx	$13                     ; 0x2013 <f256main+0x16ff>
    4b2d: 20 9c 2f     	jsr	$2f9c <textPrint>
    4b30: a6 95        	ldx	$95                     ; 0x2095 <f256main+0x1781>
    4b32: ca           	dex
    4b33: e6 93        	inc	$93                     ; 0x2093 <f256main+0x177f>
    4b35: d0 ea        	bne	$4b21 <textTitle+0x35>
    4b37: e6 94        	inc	$94                     ; 0x2094 <f256main+0x1780>
    4b39: d0 e6        	bne	$4b21 <textTitle+0x35>
    4b3b: a2 1e        	ldx	#$1e
    4b3d: 86 33        	stx	$33                     ; 0x2033 <f256main+0x171f>
    4b3f: 8e 14 d0     	stx	$d014                   ; 0xd014 <__heap_start+0x49ce>
    4b42: 9c 15 d0     	stz	$d015                   ; 0xd015 <__heap_start+0x49cf>
    4b45: 64 34        	stz	$34                     ; 0x2034 <f256main+0x1720>
    4b47: 9c 16 d0     	stz	$d016                   ; 0xd016 <__heap_start+0x49d0>
    4b4a: 9c 17 d0     	stz	$d017                   ; 0xd017 <__heap_start+0x49d1>
    4b4d: a2 f0        	ldx	#$f0
    4b4f: 86 30        	stx	$30                     ; 0x2030 <f256main+0x171c>
    4b51: a2 87        	ldx	#$87
    4b53: 86 12        	stx	$12                     ; 0x2012 <f256main+0x16fe>
    4b55: a2 7f        	ldx	#$7f
    4b57: 86 13        	stx	$13                     ; 0x2013 <f256main+0x16ff>
    4b59: 20 53 52     	jsr	$5253 <printf>
    4b5c: a2 10        	ldx	#$10
    4b5e: 86 30        	stx	$30                     ; 0x2030 <f256main+0x171c>
    4b60: a2 2c        	ldx	#$2c
    4b62: 86 33        	stx	$33                     ; 0x2033 <f256main+0x171f>
    4b64: 8e 14 d0     	stx	$d014                   ; 0xd014 <__heap_start+0x49ce>
    4b67: 9c 15 d0     	stz	$d015                   ; 0xd015 <__heap_start+0x49cf>
    4b6a: 64 34        	stz	$34                     ; 0x2034 <f256main+0x1720>
    4b6c: 9c 16 d0     	stz	$d016                   ; 0xd016 <__heap_start+0x49d0>
    4b6f: 9c 17 d0     	stz	$d017                   ; 0xd017 <__heap_start+0x49d1>
    4b72: a0 16        	ldy	#$16
    4b74: 84 35        	sty	$35                     ; 0x2035 <f256main+0x1721>
    4b76: a2 35        	ldx	#$35
    4b78: 86 12        	stx	$12                     ; 0x2012 <f256main+0x16fe>
    4b7a: a2 00        	ldx	#$0
    4b7c: 86 13        	stx	$13                     ; 0x2013 <f256main+0x16ff>
    4b7e: 84 93        	sty	$93                     ; 0x2093 <f256main+0x177f>
    4b80: 20 9c 2f     	jsr	$2f9c <textPrint>
    4b83: a4 93        	ldy	$93                     ; 0x2093 <f256main+0x177f>
    4b85: c8           	iny
    4b86: c0 1e        	cpy	#$1e
    4b88: d0 ea        	bne	$4b74 <textTitle+0x88>
    4b8a: a2 21        	ldx	#$21
    4b8c: 86 33        	stx	$33                     ; 0x2033 <f256main+0x171f>
    4b8e: 8e 14 d0     	stx	$d014                   ; 0xd014 <__heap_start+0x49ce>
    4b91: 9c 15 d0     	stz	$d015                   ; 0xd015 <__heap_start+0x49cf>
    4b94: a2 01        	ldx	#$1
    4b96: 86 34        	stx	$34                     ; 0x2034 <f256main+0x1720>
    4b98: 8e 16 d0     	stx	$d016                   ; 0xd016 <__heap_start+0x49d0>
    4b9b: 9c 17 d0     	stz	$d017                   ; 0xd017 <__heap_start+0x49d1>
    4b9e: a2 f0        	ldx	#$f0
    4ba0: 86 30        	stx	$30                     ; 0x2030 <f256main+0x171c>
    4ba2: a2 ca        	ldx	#$ca
    4ba4: 86 12        	stx	$12                     ; 0x2012 <f256main+0x16fe>
    4ba6: a2 7f        	ldx	#$7f
    4ba8: 86 13        	stx	$13                     ; 0x2013 <f256main+0x16ff>
    4baa: 20 9c 2f     	jsr	$2f9c <textPrint>
    4bad: 9c 00 de     	stz	$de00                   ; 0xde00 <__heap_start+0x57ba>
    4bb0: 9c 01 de     	stz	$de01                   ; 0xde01 <__heap_start+0x57bb>
    4bb3: a2 04        	ldx	#$4
    4bb5: 8e 02 de     	stx	$de02                   ; 0xde02 <__heap_start+0x57bc>
    4bb8: 9c 03 de     	stz	$de03                   ; 0xde03 <__heap_start+0x57bd>
    4bbb: ae 10 de     	ldx	$de10                   ; 0xde10 <__heap_start+0x57ca>
    4bbe: 86 12        	stx	$12                     ; 0x2012 <f256main+0x16fe>
    4bc0: ae 11 de     	ldx	$de11                   ; 0xde11 <__heap_start+0x57cb>
    4bc3: 86 13        	stx	$13                     ; 0x2013 <f256main+0x16ff>
    4bc5: ae 12 de     	ldx	$de12                   ; 0xde12 <__heap_start+0x57cc>
    4bc8: ae 13 de     	ldx	$de13                   ; 0xde13 <__heap_start+0x57cd>
    4bcb: 18           	clc
    4bcc: a9 00        	lda	#$0
    4bce: 65 12        	adc	$12                     ; 0x2012 <f256main+0x16fe>
    4bd0: 85 12        	sta	$12                     ; 0x2012 <f256main+0x16fe>
    4bd2: a9 d8        	lda	#$d8
    4bd4: 65 13        	adc	$13                     ; 0x2013 <f256main+0x16ff>
    4bd6: 85 13        	sta	$13                     ; 0x2013 <f256main+0x16ff>
    4bd8: a9 ff        	lda	#$ff
    4bda: 92 12        	sta	($12)                   ; 0x2012 <f256main+0x16fe>
    4bdc: a0 01        	ldy	#$1
    4bde: 91 12        	sta	($12),y                 ; 0x2012 <f256main+0x16fe>
    4be0: c8           	iny
    4be1: 91 12        	sta	($12),y                 ; 0x2012 <f256main+0x16fe>
    4be3: c8           	iny
    4be4: 91 12        	sta	($12),y                 ; 0x2012 <f256main+0x16fe>
    4be6: a2 70        	ldx	#$70
    4be8: 86 30        	stx	$30                     ; 0x2030 <f256main+0x171c>
    4bea: 64 33        	stz	$33                     ; 0x2033 <f256main+0x171f>
    4bec: 9c 14 d0     	stz	$d014                   ; 0xd014 <__heap_start+0x49ce>
    4bef: 9c 15 d0     	stz	$d015                   ; 0xd015 <__heap_start+0x49cf>
    4bf2: a2 02        	ldx	#$2
    4bf4: 86 34        	stx	$34                     ; 0x2034 <f256main+0x1720>
    4bf6: 8e 16 d0     	stx	$d016                   ; 0xd016 <__heap_start+0x49d0>
    4bf9: 9c 17 d0     	stz	$d017                   ; 0xd017 <__heap_start+0x49d1>
    4bfc: a2 bb        	ldx	#$bb
    4bfe: 86 12        	stx	$12                     ; 0x2012 <f256main+0x16fe>
    4c00: a2 7a        	ldx	#$7a
    4c02: 86 13        	stx	$13                     ; 0x2013 <f256main+0x16ff>
    4c04: 20 9c 2f     	jsr	$2f9c <textPrint>
    4c07: 20 da 47     	jsr	$47da <channelTextMenu>
    4c0a: a2 40        	ldx	#$40
    4c0c: 86 30        	stx	$30                     ; 0x2030 <f256main+0x171c>
    4c0e: a0 09        	ldy	#$9
    4c10: b1 91        	lda	($91),y                 ; 0x2091 <f256main+0x177d>
    4c12: 20 18 49     	jsr	$4918 <updateTempoText>
    4c15: a2 2d        	ldx	#$2d
    4c17: 86 33        	stx	$33                     ; 0x2033 <f256main+0x171f>
    4c19: 8e 14 d0     	stx	$d014                   ; 0xd014 <__heap_start+0x49ce>
    4c1c: 9c 15 d0     	stz	$d015                   ; 0xd015 <__heap_start+0x49cf>
    4c1f: a2 1a        	ldx	#$1a
    4c21: 86 34        	stx	$34                     ; 0x2034 <f256main+0x1720>
    4c23: 8e 16 d0     	stx	$d016                   ; 0xd016 <__heap_start+0x49d0>
    4c26: 9c 17 d0     	stz	$d017                   ; 0xd017 <__heap_start+0x49d1>
    4c29: a2 fc        	ldx	#$fc
    4c2b: 86 12        	stx	$12                     ; 0x2012 <f256main+0x16fe>
    4c2d: a2 76        	ldx	#$76
    4c2f: 86 13        	stx	$13                     ; 0x2013 <f256main+0x16ff>
    4c31: 20 9c 2f     	jsr	$2f9c <textPrint>
    4c34: a2 2d        	ldx	#$2d
    4c36: 86 33        	stx	$33                     ; 0x2033 <f256main+0x171f>
    4c38: 8e 14 d0     	stx	$d014                   ; 0xd014 <__heap_start+0x49ce>
    4c3b: 9c 15 d0     	stz	$d015                   ; 0xd015 <__heap_start+0x49cf>
    4c3e: a2 1b        	ldx	#$1b
    4c40: 86 34        	stx	$34                     ; 0x2034 <f256main+0x1720>
    4c42: 8e 16 d0     	stx	$d016                   ; 0xd016 <__heap_start+0x49d0>
    4c45: 9c 17 d0     	stz	$d017                   ; 0xd017 <__heap_start+0x49d1>
    4c48: a2 fb        	ldx	#$fb
    4c4a: 86 12        	stx	$12                     ; 0x2012 <f256main+0x16fe>
    4c4c: a2 77        	ldx	#$77
    4c4e: 86 13        	stx	$13                     ; 0x2013 <f256main+0x16ff>
    4c50: 20 9c 2f     	jsr	$2f9c <textPrint>
    4c53: 20 b1 48     	jsr	$48b1 <refreshBeatTextChoice>
    4c56: a2 40        	ldx	#$40
    4c58: 86 30        	stx	$30                     ; 0x2030 <f256main+0x171c>
    4c5a: 64 33        	stz	$33                     ; 0x2033 <f256main+0x171f>
    4c5c: 9c 14 d0     	stz	$d014                   ; 0xd014 <__heap_start+0x49ce>
    4c5f: 9c 15 d0     	stz	$d015                   ; 0xd015 <__heap_start+0x49cf>
    4c62: a2 23        	ldx	#$23
    4c64: 86 34        	stx	$34                     ; 0x2034 <f256main+0x1720>
    4c66: 8e 16 d0     	stx	$d016                   ; 0xd016 <__heap_start+0x49d0>
    4c69: 9c 17 d0     	stz	$d017                   ; 0xd017 <__heap_start+0x49d1>
    4c6c: a9 f8        	lda	#$f8
    4c6e: 92 10        	sta	($10)                   ; 0x2010 <f256main+0x16fc>
    4c70: a0 01        	ldy	#$1
    4c72: a9 00        	lda	#$0
    4c74: 91 10        	sta	($10),y                 ; 0x2010 <f256main+0x16fc>
    4c76: c8           	iny
    4c77: a9 fb        	lda	#$fb
    4c79: 91 10        	sta	($10),y                 ; 0x2010 <f256main+0x16fc>
    4c7b: c8           	iny
    4c7c: a9 00        	lda	#$0
    4c7e: 91 10        	sta	($10),y                 ; 0x2010 <f256main+0x16fc>
    4c80: a2 6e        	ldx	#$6e
    4c82: 86 12        	stx	$12                     ; 0x2012 <f256main+0x16fe>
    4c84: a2 7c        	ldx	#$7c
    4c86: 86 13        	stx	$13                     ; 0x2013 <f256main+0x16ff>
    4c88: 20 53 52     	jsr	$5253 <printf>
    4c8b: 64 33        	stz	$33                     ; 0x2033 <f256main+0x171f>
    4c8d: 9c 14 d0     	stz	$d014                   ; 0xd014 <__heap_start+0x49ce>
    4c90: 9c 15 d0     	stz	$d015                   ; 0xd015 <__heap_start+0x49cf>
    4c93: a2 24        	ldx	#$24
    4c95: 86 34        	stx	$34                     ; 0x2034 <f256main+0x1720>
    4c97: 8e 16 d0     	stx	$d016                   ; 0xd016 <__heap_start+0x49d0>
    4c9a: 9c 17 d0     	stz	$d017                   ; 0xd017 <__heap_start+0x49d1>
    4c9d: a9 f8        	lda	#$f8
    4c9f: 92 10        	sta	($10)                   ; 0x2010 <f256main+0x16fc>
    4ca1: a9 00        	lda	#$0
    4ca3: a0 01        	ldy	#$1
    4ca5: 91 10        	sta	($10),y                 ; 0x2010 <f256main+0x16fc>
    4ca7: c8           	iny
    4ca8: a9 fb        	lda	#$fb
    4caa: 91 10        	sta	($10),y                 ; 0x2010 <f256main+0x16fc>
    4cac: c8           	iny
    4cad: a9 00        	lda	#$0
    4caf: 91 10        	sta	($10),y                 ; 0x2010 <f256main+0x16fc>
    4cb1: c8           	iny
    4cb2: a9 f8        	lda	#$f8
    4cb4: 91 10        	sta	($10),y                 ; 0x2010 <f256main+0x16fc>
    4cb6: c8           	iny
    4cb7: a9 00        	lda	#$0
    4cb9: 91 10        	sta	($10),y                 ; 0x2010 <f256main+0x16fc>
    4cbb: c8           	iny
    4cbc: a9 fb        	lda	#$fb
    4cbe: 91 10        	sta	($10),y                 ; 0x2010 <f256main+0x16fc>
    4cc0: c8           	iny
    4cc1: a9 00        	lda	#$0
    4cc3: 91 10        	sta	($10),y                 ; 0x2010 <f256main+0x16fc>
    4cc5: a2 93        	ldx	#$93
    4cc7: 86 12        	stx	$12                     ; 0x2012 <f256main+0x16fe>
    4cc9: a2 7c        	ldx	#$7c
    4ccb: 86 13        	stx	$13                     ; 0x2013 <f256main+0x16ff>
    4ccd: 20 53 52     	jsr	$5253 <printf>
    4cd0: 64 33        	stz	$33                     ; 0x2033 <f256main+0x171f>
    4cd2: 9c 14 d0     	stz	$d014                   ; 0xd014 <__heap_start+0x49ce>
    4cd5: 9c 15 d0     	stz	$d015                   ; 0xd015 <__heap_start+0x49cf>
    4cd8: a2 28        	ldx	#$28
    4cda: 86 34        	stx	$34                     ; 0x2034 <f256main+0x1720>
    4cdc: 8e 16 d0     	stx	$d016                   ; 0xd016 <__heap_start+0x49d0>
    4cdf: 9c 17 d0     	stz	$d017                   ; 0xd017 <__heap_start+0x49d1>
    4ce2: a2 90        	ldx	#$90
    4ce4: 86 12        	stx	$12                     ; 0x2012 <f256main+0x16fe>
    4ce6: a2 80        	ldx	#$80
    4ce8: 86 13        	stx	$13                     ; 0x2013 <f256main+0x16ff>
    4cea: 20 9c 2f     	jsr	$2f9c <textPrint>
    4ced: 64 33        	stz	$33                     ; 0x2033 <f256main+0x171f>
    4cef: 9c 14 d0     	stz	$d014                   ; 0xd014 <__heap_start+0x49ce>
    4cf2: 9c 15 d0     	stz	$d015                   ; 0xd015 <__heap_start+0x49cf>
    4cf5: a2 29        	ldx	#$29
    4cf7: 86 34        	stx	$34                     ; 0x2034 <f256main+0x1720>
    4cf9: 8e 16 d0     	stx	$d016                   ; 0xd016 <__heap_start+0x49d0>
    4cfc: 9c 17 d0     	stz	$d017                   ; 0xd017 <__heap_start+0x49d1>
    4cff: a9 f9        	lda	#$f9
    4d01: 92 10        	sta	($10)                   ; 0x2010 <f256main+0x16fc>
    4d03: a0 01        	ldy	#$1
    4d05: a9 00        	lda	#$0
    4d07: 91 10        	sta	($10),y                 ; 0x2010 <f256main+0x16fc>
    4d09: c8           	iny
    4d0a: a9 fa        	lda	#$fa
    4d0c: 91 10        	sta	($10),y                 ; 0x2010 <f256main+0x16fc>
    4d0e: c8           	iny
    4d0f: a9 00        	lda	#$0
    4d11: 91 10        	sta	($10),y                 ; 0x2010 <f256main+0x16fc>
    4d13: a2 00        	ldx	#$0
    4d15: 86 12        	stx	$12                     ; 0x2012 <f256main+0x16fe>
    4d17: a2 7f        	ldx	#$7f
    4d19: 86 13        	stx	$13                     ; 0x2013 <f256main+0x16ff>
    4d1b: 20 53 52     	jsr	$5253 <printf>
    4d1e: 64 33        	stz	$33                     ; 0x2033 <f256main+0x171f>
    4d20: 9c 14 d0     	stz	$d014                   ; 0xd014 <__heap_start+0x49ce>
    4d23: 9c 15 d0     	stz	$d015                   ; 0xd015 <__heap_start+0x49cf>
    4d26: a2 2a        	ldx	#$2a
    4d28: 86 34        	stx	$34                     ; 0x2034 <f256main+0x1720>
    4d2a: 8e 16 d0     	stx	$d016                   ; 0xd016 <__heap_start+0x49d0>
    4d2d: 9c 17 d0     	stz	$d017                   ; 0xd017 <__heap_start+0x49d1>
    4d30: a0 01        	ldy	#$1
    4d32: a9 00        	lda	#$0
    4d34: 91 10        	sta	($10),y                 ; 0x2010 <f256main+0x16fc>
    4d36: c8           	iny
    4d37: a9 fa        	lda	#$fa
    4d39: 91 10        	sta	($10),y                 ; 0x2010 <f256main+0x16fc>
    4d3b: c8           	iny
    4d3c: a9 00        	lda	#$0
    4d3e: 91 10        	sta	($10),y                 ; 0x2010 <f256main+0x16fc>
    4d40: a9 f9        	lda	#$f9
    4d42: 92 10        	sta	($10)                   ; 0x2010 <f256main+0x16fc>
    4d44: c8           	iny
    4d45: 91 10        	sta	($10),y                 ; 0x2010 <f256main+0x16fc>
    4d47: c8           	iny
    4d48: a9 00        	lda	#$0
    4d4a: 91 10        	sta	($10),y                 ; 0x2010 <f256main+0x16fc>
    4d4c: c8           	iny
    4d4d: a9 fa        	lda	#$fa
    4d4f: 91 10        	sta	($10),y                 ; 0x2010 <f256main+0x16fc>
    4d51: c8           	iny
    4d52: a9 00        	lda	#$0
    4d54: 91 10        	sta	($10),y                 ; 0x2010 <f256main+0x16fc>
    4d56: a2 df        	ldx	#$df
    4d58: 86 12        	stx	$12                     ; 0x2012 <f256main+0x16fe>
    4d5a: a2 7c        	ldx	#$7c
    4d5c: 86 13        	stx	$13                     ; 0x2013 <f256main+0x16ff>
    4d5e: 20 53 52     	jsr	$5253 <printf>
    4d61: a2 40        	ldx	#$40
    4d63: 86 30        	stx	$30                     ; 0x2030 <f256main+0x171c>
    4d65: a2 05        	ldx	#$5
    4d67: 86 33        	stx	$33                     ; 0x2033 <f256main+0x171f>
    4d69: 8e 14 d0     	stx	$d014                   ; 0xd014 <__heap_start+0x49ce>
    4d6c: 9c 15 d0     	stz	$d015                   ; 0xd015 <__heap_start+0x49cf>
    4d6f: a2 39        	ldx	#$39
    4d71: 86 34        	stx	$34                     ; 0x2034 <f256main+0x1720>
    4d73: 8e 16 d0     	stx	$d016                   ; 0xd016 <__heap_start+0x49d0>
    4d76: 9c 17 d0     	stz	$d017                   ; 0xd017 <__heap_start+0x49d1>
    4d79: a2 d0        	ldx	#$d0
    4d7b: 86 12        	stx	$12                     ; 0x2012 <f256main+0x16fe>
    4d7d: a2 7d        	ldx	#$7d
    4d7f: 86 13        	stx	$13                     ; 0x2013 <f256main+0x16ff>
    4d81: 20 9c 2f     	jsr	$2f9c <textPrint>
    4d84: a2 40        	ldx	#$40
    4d86: 86 30        	stx	$30                     ; 0x2030 <f256main+0x171c>
    4d88: a2 05        	ldx	#$5
    4d8a: 86 33        	stx	$33                     ; 0x2033 <f256main+0x171f>
    4d8c: 8e 14 d0     	stx	$d014                   ; 0xd014 <__heap_start+0x49ce>
    4d8f: 9c 15 d0     	stz	$d015                   ; 0xd015 <__heap_start+0x49cf>
    4d92: a2 3a        	ldx	#$3a
    4d94: 86 34        	stx	$34                     ; 0x2034 <f256main+0x1720>
    4d96: 8e 16 d0     	stx	$d016                   ; 0xd016 <__heap_start+0x49d0>
    4d99: 9c 17 d0     	stz	$d017                   ; 0xd017 <__heap_start+0x49d1>
    4d9c: a2 75        	ldx	#$75
    4d9e: 86 12        	stx	$12                     ; 0x2012 <f256main+0x16fe>
    4da0: a2 7f        	ldx	#$7f
    4da2: 86 13        	stx	$13                     ; 0x2013 <f256main+0x16ff>
    4da4: 20 9c 2f     	jsr	$2f9c <textPrint>
    4da7: a6 91        	ldx	$91                     ; 0x2091 <f256main+0x177d>
    4da9: 86 12        	stx	$12                     ; 0x2012 <f256main+0x16fe>
    4dab: a6 92        	ldx	$92                     ; 0x2092 <f256main+0x177e>
    4dad: 86 13        	stx	$13                     ; 0x2013 <f256main+0x16ff>
    4daf: 20 72 49     	jsr	$4972 <showChipChoiceText>
    4db2: 18           	clc
    4db3: a5 10        	lda	$10                     ; 0x2010 <f256main+0x16fc>
    4db5: 69 08        	adc	#$8
    4db7: 85 10        	sta	$10                     ; 0x2010 <f256main+0x16fc>
    4db9: a5 11        	lda	$11                     ; 0x2011 <f256main+0x16fd>
    4dbb: 69 00        	adc	#$0
    4dbd: 85 11        	sta	$11                     ; 0x2011 <f256main+0x16fd>
    4dbf: 60           	rts

00004dc0 <highLightInstChoice>:
    4dc0: 48           	pha
    4dc1: 18           	clc
    4dc2: a5 10        	lda	$10                     ; 0x2010 <f256main+0x16fc>
    4dc4: 69 fc        	adc	#$fc
    4dc6: 85 10        	sta	$10                     ; 0x2010 <f256main+0x16fc>
    4dc8: a5 11        	lda	$11                     ; 0x2011 <f256main+0x16fd>
    4dca: 69 ff        	adc	#$ff
    4dcc: 85 11        	sta	$11                     ; 0x2011 <f256main+0x16fd>
    4dce: 68           	pla
    4dcf: a6 12        	ldx	$12                     ; 0x2012 <f256main+0x16fe>
    4dd1: 86 90        	stx	$90                     ; 0x2090 <f256main+0x177c>
    4dd3: a6 13        	ldx	$13                     ; 0x2013 <f256main+0x16ff>
    4dd5: 86 91        	stx	$91                     ; 0x2091 <f256main+0x177d>
    4dd7: aa           	tax
    4dd8: f0 04        	beq	$4dde <highLightInstChoice+0x1e>
    4dda: a2 90        	ldx	#$90
    4ddc: 80 02        	bra	$4de0 <highLightInstChoice+0x20>
    4dde: a2 50        	ldx	#$50
    4de0: 86 30        	stx	$30                     ; 0x2030 <f256main+0x171c>
    4de2: a0 06        	ldy	#$6
    4de4: b1 90        	lda	($90),y                 ; 0x2090 <f256main+0x177c>
    4de6: f0 03        	beq	$4deb <highLightInstChoice+0x2b>
    4de8: 4c a9 4e     	jmp	$4ea9 <highLightInstChoice+0xe9>
    4deb: a0 01        	ldy	#$1
    4ded: e6 12        	inc	$12                     ; 0x2012 <f256main+0x16fe>
    4def: d0 02        	bne	$4df3 <highLightInstChoice+0x33>
    4df1: e6 13        	inc	$13                     ; 0x2013 <f256main+0x16ff>
    4df3: a6 12        	ldx	$12                     ; 0x2012 <f256main+0x16fe>
    4df5: 86 14        	stx	$14                     ; 0x2014 <f256main+0x1700>
    4df7: a6 13        	ldx	$13                     ; 0x2013 <f256main+0x16ff>
    4df9: 86 15        	stx	$15                     ; 0x2015 <f256main+0x1701>
    4dfb: a6 14        	ldx	$14                     ; 0x2014 <f256main+0x1700>
    4dfd: 86 93        	stx	$93                     ; 0x2093 <f256main+0x177f>
    4dff: a6 15        	ldx	$15                     ; 0x2015 <f256main+0x1701>
    4e01: 86 94        	stx	$94                     ; 0x2094 <f256main+0x1780>
    4e03: b1 90        	lda	($90),y                 ; 0x2090 <f256main+0x177c>
    4e05: aa           	tax
    4e06: b1 12        	lda	($12),y                 ; 0x2012 <f256main+0x16fe>
    4e08: 86 12        	stx	$12                     ; 0x2012 <f256main+0x16fe>
    4e0a: 85 13        	sta	$13                     ; 0x2013 <f256main+0x16ff>
    4e0c: a0 05        	ldy	#$5
    4e0e: b1 90        	lda	($90),y                 ; 0x2090 <f256main+0x177c>
    4e10: a8           	tay
    4e11: b1 12        	lda	($12),y                 ; 0x2012 <f256main+0x16fe>
    4e13: a2 92        	ldx	#$92
    4e15: a0 00        	ldy	#$0
    4e17: 86 12        	stx	$12                     ; 0x2012 <f256main+0x16fe>
    4e19: 84 13        	sty	$13                     ; 0x2013 <f256main+0x16ff>
    4e1b: a2 03        	ldx	#$3
    4e1d: 20 e4 64     	jsr	$64e4 <__udivmodqi4>
    4e20: 85 95        	sta	$95                     ; 0x2095 <f256main+0x1781>
    4e22: a5 92        	lda	$92                     ; 0x2092 <f256main+0x177e>
    4e24: a2 19        	ldx	#$19
    4e26: 20 cc 60     	jsr	$60cc <__mulqi3>
    4e29: 18           	clc
    4e2a: 69 02        	adc	#$2
    4e2c: a6 95        	ldx	$95                     ; 0x2095 <f256main+0x1781>
    4e2e: e8           	inx
    4e2f: 85 33        	sta	$33                     ; 0x2033 <f256main+0x171f>
    4e31: 8d 14 d0     	sta	$d014                   ; 0xd014 <__heap_start+0x49ce>
    4e34: 9c 15 d0     	stz	$d015                   ; 0xd015 <__heap_start+0x49cf>
    4e37: 86 34        	stx	$34                     ; 0x2034 <f256main+0x1720>
    4e39: 8e 16 d0     	stx	$d016                   ; 0xd016 <__heap_start+0x49d0>
    4e3c: 9c 17 d0     	stz	$d017                   ; 0xd017 <__heap_start+0x49d1>
    4e3f: a0 01        	ldy	#$1
    4e41: b1 90        	lda	($90),y                 ; 0x2090 <f256main+0x177c>
    4e43: 85 14        	sta	$14                     ; 0x2014 <f256main+0x1700>
    4e45: a6 93        	ldx	$93                     ; 0x2093 <f256main+0x177f>
    4e47: 86 12        	stx	$12                     ; 0x2012 <f256main+0x16fe>
    4e49: a6 94        	ldx	$94                     ; 0x2094 <f256main+0x1780>
    4e4b: 86 13        	stx	$13                     ; 0x2013 <f256main+0x16ff>
    4e4d: b1 12        	lda	($12),y                 ; 0x2012 <f256main+0x16fe>
    4e4f: a6 14        	ldx	$14                     ; 0x2014 <f256main+0x1700>
    4e51: 86 12        	stx	$12                     ; 0x2012 <f256main+0x16fe>
    4e53: 85 13        	sta	$13                     ; 0x2013 <f256main+0x16ff>
    4e55: a0 05        	ldy	#$5
    4e57: b1 90        	lda	($90),y                 ; 0x2090 <f256main+0x177c>
    4e59: a8           	tay
    4e5a: b1 12        	lda	($12),y                 ; 0x2012 <f256main+0x16fe>
    4e5c: aa           	tax
    4e5d: 0a           	asl
    4e5e: 85 12        	sta	$12                     ; 0x2012 <f256main+0x16fe>
    4e60: a9 00        	lda	#$0
    4e62: 2a           	rol
    4e63: 85 13        	sta	$13                     ; 0x2013 <f256main+0x16ff>
    4e65: a9 07        	lda	#$7
    4e67: 18           	clc
    4e68: 65 12        	adc	$12                     ; 0x2012 <f256main+0x16fe>
    4e6a: 85 12        	sta	$12                     ; 0x2012 <f256main+0x16fe>
    4e6c: a9 85        	lda	#$85
    4e6e: 65 13        	adc	$13                     ; 0x2013 <f256main+0x16ff>
    4e70: 85 13        	sta	$13                     ; 0x2013 <f256main+0x16ff>
    4e72: b2 12        	lda	($12)                   ; 0x2012 <f256main+0x16fe>
    4e74: 85 15        	sta	$15                     ; 0x2015 <f256main+0x1701>
    4e76: a0 01        	ldy	#$1
    4e78: b1 12        	lda	($12),y                 ; 0x2012 <f256main+0x16fe>
    4e7a: 85 14        	sta	$14                     ; 0x2014 <f256main+0x1700>
    4e7c: a5 10        	lda	$10                     ; 0x2010 <f256main+0x16fc>
    4e7e: 18           	clc
    4e7f: 69 02        	adc	#$2
    4e81: 85 12        	sta	$12                     ; 0x2012 <f256main+0x16fe>
    4e83: a5 11        	lda	$11                     ; 0x2011 <f256main+0x16fd>
    4e85: 69 00        	adc	#$0
    4e87: 85 13        	sta	$13                     ; 0x2013 <f256main+0x16ff>
    4e89: c8           	iny
    4e8a: a5 15        	lda	$15                     ; 0x2015 <f256main+0x1701>
    4e8c: 91 10        	sta	($10),y                 ; 0x2010 <f256main+0x16fc>
    4e8e: 8a           	txa
    4e8f: 92 10        	sta	($10)                   ; 0x2010 <f256main+0x16fc>
    4e91: a9 00        	lda	#$0
    4e93: 88           	dey
    4e94: 91 10        	sta	($10),y                 ; 0x2010 <f256main+0x16fc>
    4e96: a5 14        	lda	$14                     ; 0x2014 <f256main+0x1700>
    4e98: 91 12        	sta	($12),y                 ; 0x2012 <f256main+0x16fe>
    4e9a: a2 cd        	ldx	#$cd
    4e9c: 86 12        	stx	$12                     ; 0x2012 <f256main+0x16fe>
    4e9e: a2 77        	ldx	#$77
    4ea0: 86 13        	stx	$13                     ; 0x2013 <f256main+0x16ff>
    4ea2: 20 53 52     	jsr	$5253 <printf>
    4ea5: a0 06        	ldy	#$6
    4ea7: b1 90        	lda	($90),y                 ; 0x2090 <f256main+0x177c>
    4ea9: c9 01        	cmp	#$1
    4eab: f0 03        	beq	$4eb0 <highLightInstChoice+0xf0>
    4ead: 4c 18 4f     	jmp	$4f18 <highLightInstChoice+0x158>
    4eb0: a0 03        	ldy	#$3
    4eb2: 18           	clc
    4eb3: a9 02        	lda	#$2
    4eb5: 71 90        	adc	($90),y                 ; 0x2090 <f256main+0x177c>
    4eb7: a2 02        	ldx	#$2
    4eb9: 86 33        	stx	$33                     ; 0x2033 <f256main+0x171f>
    4ebb: 8e 14 d0     	stx	$d014                   ; 0xd014 <__heap_start+0x49ce>
    4ebe: 9c 15 d0     	stz	$d015                   ; 0xd015 <__heap_start+0x49cf>
    4ec1: 85 34        	sta	$34                     ; 0x2034 <f256main+0x1720>
    4ec3: 8d 16 d0     	sta	$d016                   ; 0xd016 <__heap_start+0x49d0>
    4ec6: 9c 17 d0     	stz	$d017                   ; 0xd017 <__heap_start+0x49d1>
    4ec9: b1 90        	lda	($90),y                 ; 0x2090 <f256main+0x177c>
    4ecb: aa           	tax
    4ecc: 0a           	asl
    4ecd: 85 12        	sta	$12                     ; 0x2012 <f256main+0x16fe>
    4ecf: a9 00        	lda	#$0
    4ed1: 2a           	rol
    4ed2: 85 13        	sta	$13                     ; 0x2013 <f256main+0x16ff>
    4ed4: a9 07        	lda	#$7
    4ed6: 18           	clc
    4ed7: 65 12        	adc	$12                     ; 0x2012 <f256main+0x16fe>
    4ed9: 85 12        	sta	$12                     ; 0x2012 <f256main+0x16fe>
    4edb: a9 86        	lda	#$86
    4edd: 65 13        	adc	$13                     ; 0x2013 <f256main+0x16ff>
    4edf: a0 01        	ldy	#$1
    4ee1: 85 13        	sta	$13                     ; 0x2013 <f256main+0x16ff>
    4ee3: b2 12        	lda	($12)                   ; 0x2012 <f256main+0x16fe>
    4ee5: 85 15        	sta	$15                     ; 0x2015 <f256main+0x1701>
    4ee7: b1 12        	lda	($12),y                 ; 0x2012 <f256main+0x16fe>
    4ee9: 85 14        	sta	$14                     ; 0x2014 <f256main+0x1700>
    4eeb: a5 10        	lda	$10                     ; 0x2010 <f256main+0x16fc>
    4eed: 18           	clc
    4eee: 69 02        	adc	#$2
    4ef0: 85 12        	sta	$12                     ; 0x2012 <f256main+0x16fe>
    4ef2: a5 11        	lda	$11                     ; 0x2011 <f256main+0x16fd>
    4ef4: 69 00        	adc	#$0
    4ef6: 85 13        	sta	$13                     ; 0x2013 <f256main+0x16ff>
    4ef8: c8           	iny
    4ef9: a5 15        	lda	$15                     ; 0x2015 <f256main+0x1701>
    4efb: 91 10        	sta	($10),y                 ; 0x2010 <f256main+0x16fc>
    4efd: 8a           	txa
    4efe: 92 10        	sta	($10)                   ; 0x2010 <f256main+0x16fc>
    4f00: a9 00        	lda	#$0
    4f02: 88           	dey
    4f03: 91 10        	sta	($10),y                 ; 0x2010 <f256main+0x16fc>
    4f05: a5 14        	lda	$14                     ; 0x2014 <f256main+0x1700>
    4f07: 91 12        	sta	($12),y                 ; 0x2012 <f256main+0x16fe>
    4f09: a2 cd        	ldx	#$cd
    4f0b: 86 12        	stx	$12                     ; 0x2012 <f256main+0x16fe>
    4f0d: a2 77        	ldx	#$77
    4f0f: 86 13        	stx	$13                     ; 0x2013 <f256main+0x16ff>
    4f11: 20 53 52     	jsr	$5253 <printf>
    4f14: a0 06        	ldy	#$6
    4f16: b1 90        	lda	($90),y                 ; 0x2090 <f256main+0x177c>
    4f18: c9 03        	cmp	#$3
    4f1a: f0 03        	beq	$4f1f <highLightInstChoice+0x15f>
    4f1c: 4c 83 4f     	jmp	$4f83 <highLightInstChoice+0x1c3>
    4f1f: a0 04        	ldy	#$4
    4f21: 18           	clc
    4f22: a9 02        	lda	#$2
    4f24: 71 90        	adc	($90),y                 ; 0x2090 <f256main+0x177c>
    4f26: a2 02        	ldx	#$2
    4f28: 86 33        	stx	$33                     ; 0x2033 <f256main+0x171f>
    4f2a: 8e 14 d0     	stx	$d014                   ; 0xd014 <__heap_start+0x49ce>
    4f2d: 9c 15 d0     	stz	$d015                   ; 0xd015 <__heap_start+0x49cf>
    4f30: 85 34        	sta	$34                     ; 0x2034 <f256main+0x1720>
    4f32: 8d 16 d0     	sta	$d016                   ; 0xd016 <__heap_start+0x49d0>
    4f35: 9c 17 d0     	stz	$d017                   ; 0xd017 <__heap_start+0x49d1>
    4f38: b1 90        	lda	($90),y                 ; 0x2090 <f256main+0x177c>
    4f3a: aa           	tax
    4f3b: 0a           	asl
    4f3c: 85 12        	sta	$12                     ; 0x2012 <f256main+0x16fe>
    4f3e: a9 00        	lda	#$0
    4f40: 2a           	rol
    4f41: 85 13        	sta	$13                     ; 0x2013 <f256main+0x16ff>
    4f43: a9 11        	lda	#$11
    4f45: 18           	clc
    4f46: 65 12        	adc	$12                     ; 0x2012 <f256main+0x16fe>
    4f48: 85 12        	sta	$12                     ; 0x2012 <f256main+0x16fe>
    4f4a: a9 86        	lda	#$86
    4f4c: 65 13        	adc	$13                     ; 0x2013 <f256main+0x16ff>
    4f4e: a0 01        	ldy	#$1
    4f50: 85 13        	sta	$13                     ; 0x2013 <f256main+0x16ff>
    4f52: b2 12        	lda	($12)                   ; 0x2012 <f256main+0x16fe>
    4f54: 85 15        	sta	$15                     ; 0x2015 <f256main+0x1701>
    4f56: b1 12        	lda	($12),y                 ; 0x2012 <f256main+0x16fe>
    4f58: 85 14        	sta	$14                     ; 0x2014 <f256main+0x1700>
    4f5a: a5 10        	lda	$10                     ; 0x2010 <f256main+0x16fc>
    4f5c: 18           	clc
    4f5d: 69 02        	adc	#$2
    4f5f: 85 12        	sta	$12                     ; 0x2012 <f256main+0x16fe>
    4f61: a5 11        	lda	$11                     ; 0x2011 <f256main+0x16fd>
    4f63: 69 00        	adc	#$0
    4f65: 85 13        	sta	$13                     ; 0x2013 <f256main+0x16ff>
    4f67: c8           	iny
    4f68: a5 15        	lda	$15                     ; 0x2015 <f256main+0x1701>
    4f6a: 91 10        	sta	($10),y                 ; 0x2010 <f256main+0x16fc>
    4f6c: 8a           	txa
    4f6d: 92 10        	sta	($10)                   ; 0x2010 <f256main+0x16fc>
    4f6f: a9 00        	lda	#$0
    4f71: 88           	dey
    4f72: 91 10        	sta	($10),y                 ; 0x2010 <f256main+0x16fc>
    4f74: a5 14        	lda	$14                     ; 0x2014 <f256main+0x1700>
    4f76: 91 12        	sta	($12),y                 ; 0x2012 <f256main+0x16fe>
    4f78: a2 cd        	ldx	#$cd
    4f7a: 86 12        	stx	$12                     ; 0x2012 <f256main+0x16fe>
    4f7c: a2 77        	ldx	#$77
    4f7e: 86 13        	stx	$13                     ; 0x2013 <f256main+0x16ff>
    4f80: 20 53 52     	jsr	$5253 <printf>
    4f83: 18           	clc
    4f84: a5 10        	lda	$10                     ; 0x2010 <f256main+0x16fc>
    4f86: 69 04        	adc	#$4
    4f88: 85 10        	sta	$10                     ; 0x2010 <f256main+0x16fc>
    4f8a: a5 11        	lda	$11                     ; 0x2011 <f256main+0x16fd>
    4f8c: 69 00        	adc	#$0
    4f8e: 85 11        	sta	$11                     ; 0x2011 <f256main+0x16fd>
    4f90: 60           	rts

00004f91 <modalMoveUp>:
    4f91: 85 8f        	sta	$8f                     ; 0x208f <f256main+0x177b>
    4f93: a6 12        	ldx	$12                     ; 0x2012 <f256main+0x16fe>
    4f95: 86 8d        	stx	$8d                     ; 0x208d <f256main+0x1779>
    4f97: a6 13        	ldx	$13                     ; 0x2013 <f256main+0x16ff>
    4f99: 86 8e        	stx	$8e                     ; 0x208e <f256main+0x177a>
    4f9b: a9 00        	lda	#$0
    4f9d: 20 c0 4d     	jsr	$4dc0 <highLightInstChoice>
    4fa0: a0 06        	ldy	#$6
    4fa2: b1 8d        	lda	($8d),y                 ; 0x208d <f256main+0x1779>
    4fa4: d0 36        	bne	$4fdc <modalMoveUp+0x4b>
    4fa6: a2 e5        	ldx	#$e5
    4fa8: a5 8f        	lda	$8f                     ; 0x208f <f256main+0x177b>
    4faa: 20 cc 60     	jsr	$60cc <__mulqi3>
    4fad: aa           	tax
    4fae: a4 8d        	ldy	$8d                     ; 0x208d <f256main+0x1779>
    4fb0: 84 12        	sty	$12                     ; 0x2012 <f256main+0x16fe>
    4fb2: a4 8e        	ldy	$8e                     ; 0x208e <f256main+0x177a>
    4fb4: 84 13        	sty	$13                     ; 0x2013 <f256main+0x16ff>
    4fb6: e6 12        	inc	$12                     ; 0x2012 <f256main+0x16fe>
    4fb8: d0 02        	bne	$4fbc <modalMoveUp+0x2b>
    4fba: e6 13        	inc	$13                     ; 0x2013 <f256main+0x16ff>
    4fbc: a0 01        	ldy	#$1
    4fbe: b1 8d        	lda	($8d),y                 ; 0x208d <f256main+0x1779>
    4fc0: 85 14        	sta	$14                     ; 0x2014 <f256main+0x1700>
    4fc2: b1 12        	lda	($12),y                 ; 0x2012 <f256main+0x16fe>
    4fc4: a4 14        	ldy	$14                     ; 0x2014 <f256main+0x1700>
    4fc6: 84 12        	sty	$12                     ; 0x2012 <f256main+0x16fe>
    4fc8: 85 13        	sta	$13                     ; 0x2013 <f256main+0x16ff>
    4fca: a0 05        	ldy	#$5
    4fcc: b1 8d        	lda	($8d),y                 ; 0x208d <f256main+0x1779>
    4fce: a8           	tay
    4fcf: 18           	clc
    4fd0: 8a           	txa
    4fd1: 71 12        	adc	($12),y                 ; 0x2012 <f256main+0x16fe>
    4fd3: 18           	clc
    4fd4: 69 fd        	adc	#$fd
    4fd6: 91 12        	sta	($12),y                 ; 0x2012 <f256main+0x16fe>
    4fd8: a0 06        	ldy	#$6
    4fda: b1 8d        	lda	($8d),y                 ; 0x208d <f256main+0x1779>
    4fdc: c9 01        	cmp	#$1
    4fde: f0 08        	beq	$4fe8 <modalMoveUp+0x57>
    4fe0: c9 03        	cmp	#$3
    4fe2: d0 0b        	bne	$4fef <modalMoveUp+0x5e>
    4fe4: a0 04        	ldy	#$4
    4fe6: 80 02        	bra	$4fea <modalMoveUp+0x59>
    4fe8: a0 03        	ldy	#$3
    4fea: b1 8d        	lda	($8d),y                 ; 0x208d <f256main+0x1779>
    4fec: 3a           	dec
    4fed: 91 8d        	sta	($8d),y                 ; 0x208d <f256main+0x1779>
    4fef: a9 01        	lda	#$1
    4ff1: a6 8d        	ldx	$8d                     ; 0x208d <f256main+0x1779>
    4ff3: 86 12        	stx	$12                     ; 0x2012 <f256main+0x16fe>
    4ff5: a6 8e        	ldx	$8e                     ; 0x208e <f256main+0x177a>
    4ff7: 86 13        	stx	$13                     ; 0x2013 <f256main+0x16ff>
    4ff9: 4c c0 4d     	jmp	$4dc0 <highLightInstChoice>

00004ffc <modalMoveDown>:
    4ffc: 85 8f        	sta	$8f                     ; 0x208f <f256main+0x177b>
    4ffe: a6 12        	ldx	$12                     ; 0x2012 <f256main+0x16fe>
    5000: 86 8d        	stx	$8d                     ; 0x208d <f256main+0x1779>
    5002: a6 13        	ldx	$13                     ; 0x2013 <f256main+0x16ff>
    5004: 86 8e        	stx	$8e                     ; 0x208e <f256main+0x177a>
    5006: a9 00        	lda	#$0
    5008: 20 c0 4d     	jsr	$4dc0 <highLightInstChoice>
    500b: a0 06        	ldy	#$6
    500d: b1 8d        	lda	($8d),y                 ; 0x208d <f256main+0x1779>
    500f: d0 36        	bne	$5047 <modalMoveDown+0x4b>
    5011: a2 1b        	ldx	#$1b
    5013: a5 8f        	lda	$8f                     ; 0x208f <f256main+0x177b>
    5015: 20 cc 60     	jsr	$60cc <__mulqi3>
    5018: aa           	tax
    5019: a4 8d        	ldy	$8d                     ; 0x208d <f256main+0x1779>
    501b: 84 12        	sty	$12                     ; 0x2012 <f256main+0x16fe>
    501d: a4 8e        	ldy	$8e                     ; 0x208e <f256main+0x177a>
    501f: 84 13        	sty	$13                     ; 0x2013 <f256main+0x16ff>
    5021: e6 12        	inc	$12                     ; 0x2012 <f256main+0x16fe>
    5023: d0 02        	bne	$5027 <modalMoveDown+0x2b>
    5025: e6 13        	inc	$13                     ; 0x2013 <f256main+0x16ff>
    5027: a0 01        	ldy	#$1
    5029: b1 8d        	lda	($8d),y                 ; 0x208d <f256main+0x1779>
    502b: 85 14        	sta	$14                     ; 0x2014 <f256main+0x1700>
    502d: b1 12        	lda	($12),y                 ; 0x2012 <f256main+0x16fe>
    502f: a4 14        	ldy	$14                     ; 0x2014 <f256main+0x1700>
    5031: 84 12        	sty	$12                     ; 0x2012 <f256main+0x16fe>
    5033: 85 13        	sta	$13                     ; 0x2013 <f256main+0x16ff>
    5035: a0 05        	ldy	#$5
    5037: b1 8d        	lda	($8d),y                 ; 0x208d <f256main+0x1779>
    5039: a8           	tay
    503a: 18           	clc
    503b: 8a           	txa
    503c: 71 12        	adc	($12),y                 ; 0x2012 <f256main+0x16fe>
    503e: 18           	clc
    503f: 69 03        	adc	#$3
    5041: 91 12        	sta	($12),y                 ; 0x2012 <f256main+0x16fe>
    5043: a0 06        	ldy	#$6
    5045: b1 8d        	lda	($8d),y                 ; 0x208d <f256main+0x1779>
    5047: c9 01        	cmp	#$1
    5049: f0 08        	beq	$5053 <modalMoveDown+0x57>
    504b: c9 03        	cmp	#$3
    504d: d0 0b        	bne	$505a <modalMoveDown+0x5e>
    504f: a0 04        	ldy	#$4
    5051: 80 02        	bra	$5055 <modalMoveDown+0x59>
    5053: a0 03        	ldy	#$3
    5055: b1 8d        	lda	($8d),y                 ; 0x208d <f256main+0x1779>
    5057: 1a           	inc
    5058: 91 8d        	sta	($8d),y                 ; 0x208d <f256main+0x1779>
    505a: a9 01        	lda	#$1
    505c: a6 8d        	ldx	$8d                     ; 0x208d <f256main+0x1779>
    505e: 86 12        	stx	$12                     ; 0x2012 <f256main+0x16fe>
    5060: a6 8e        	ldx	$8e                     ; 0x208e <f256main+0x177a>
    5062: 86 13        	stx	$13                     ; 0x2013 <f256main+0x16ff>
    5064: 4c c0 4d     	jmp	$4dc0 <highLightInstChoice>

00005067 <exit>:
    5067: 20 1b 03     	jsr	$31b <_fini>
    506a: 80 fe        	bra	$506a <exit+0x3>

0000506c <_ZN12_GLOBAL__N_13putEcP6Status>:
    506c: 85 18        	sta	$18                     ; 0x2018 <f256main+0x1704>
    506e: a6 13        	ldx	$13                     ; 0x2013 <f256main+0x16ff>
    5070: 18           	clc
    5071: a5 12        	lda	$12                     ; 0x2012 <f256main+0x16fe>
    5073: 69 05        	adc	#$5
    5075: a8           	tay
    5076: a5 13        	lda	$13                     ; 0x2013 <f256main+0x16ff>
    5078: 86 15        	stx	$15                     ; 0x2015 <f256main+0x1701>
    507a: 69 00        	adc	#$0
    507c: 18           	clc
    507d: 84 16        	sty	$16                     ; 0x2016 <f256main+0x1702>
    507f: a0 05        	ldy	#$5
    5081: 85 17        	sta	$17                     ; 0x2017 <f256main+0x1703>
    5083: b1 12        	lda	($12),y                 ; 0x2012 <f256main+0x16fe>
    5085: aa           	tax
    5086: a5 12        	lda	$12                     ; 0x2012 <f256main+0x16fe>
    5088: 69 03        	adc	#$3
    508a: 85 14        	sta	$14                     ; 0x2014 <f256main+0x1700>
    508c: a5 15        	lda	$15                     ; 0x2015 <f256main+0x1701>
    508e: 69 00        	adc	#$0
    5090: 85 15        	sta	$15                     ; 0x2015 <f256main+0x1701>
    5092: a0 01        	ldy	#$1
    5094: b1 16        	lda	($16),y                 ; 0x2016 <f256main+0x1702>
    5096: d1 14        	cmp	($14),y                 ; 0x2014 <f256main+0x1700>
    5098: d0 11        	bne	$50ab <_ZN12_GLOBAL__N_13putEcP6Status+0x3f>
    509a: a0 03        	ldy	#$3
    509c: 85 17        	sta	$17                     ; 0x2017 <f256main+0x1703>
    509e: b1 12        	lda	($12),y                 ; 0x2012 <f256main+0x16fe>
    50a0: 85 14        	sta	$14                     ; 0x2014 <f256main+0x1700>
    50a2: 86 16        	stx	$16                     ; 0x2016 <f256main+0x1702>
    50a4: e4 14        	cpx	$14                     ; 0x2014 <f256main+0x1700>
    50a6: 90 0e        	bcc	$50b6 <_ZN12_GLOBAL__N_13putEcP6Status+0x4a>
    50a8: 4c 1f 51     	jmp	$511f <_ZN12_GLOBAL__N_13putEcP6Status+0xb3>
    50ab: 86 16        	stx	$16                     ; 0x2016 <f256main+0x1702>
    50ad: d1 14        	cmp	($14),y                 ; 0x2014 <f256main+0x1700>
    50af: 85 17        	sta	$17                     ; 0x2017 <f256main+0x1703>
    50b1: 90 03        	bcc	$50b6 <_ZN12_GLOBAL__N_13putEcP6Status+0x4a>
    50b3: 4c 1f 51     	jmp	$511f <_ZN12_GLOBAL__N_13putEcP6Status+0xb3>
    50b6: a5 12        	lda	$12                     ; 0x2012 <f256main+0x16fe>
    50b8: 18           	clc
    50b9: 69 0f        	adc	#$f
    50bb: 85 14        	sta	$14                     ; 0x2014 <f256main+0x1700>
    50bd: a5 13        	lda	$13                     ; 0x2013 <f256main+0x16ff>
    50bf: 69 00        	adc	#$0
    50c1: 85 15        	sta	$15                     ; 0x2015 <f256main+0x1701>
    50c3: a0 01        	ldy	#$1
    50c5: b1 14        	lda	($14),y                 ; 0x2014 <f256main+0x1700>
    50c7: a2 00        	ldx	#$0
    50c9: 86 14        	stx	$14                     ; 0x2014 <f256main+0x1700>
    50cb: a2 00        	ldx	#$0
    50cd: 86 15        	stx	$15                     ; 0x2015 <f256main+0x1701>
    50cf: c5 15        	cmp	$15                     ; 0x2015 <f256main+0x1701>
    50d1: d0 2d        	bne	$5100 <_ZN12_GLOBAL__N_13putEcP6Status+0x94>
    50d3: a0 0f        	ldy	#$f
    50d5: b1 12        	lda	($12),y                 ; 0x2012 <f256main+0x16fe>
    50d7: c5 14        	cmp	$14                     ; 0x2014 <f256main+0x1700>
    50d9: d0 25        	bne	$5100 <_ZN12_GLOBAL__N_13putEcP6Status+0x94>
    50db: a5 12        	lda	$12                     ; 0x2012 <f256main+0x16fe>
    50dd: 18           	clc
    50de: 69 09        	adc	#$9
    50e0: 85 14        	sta	$14                     ; 0x2014 <f256main+0x1700>
    50e2: a5 13        	lda	$13                     ; 0x2013 <f256main+0x16ff>
    50e4: 69 00        	adc	#$0
    50e6: a0 09        	ldy	#$9
    50e8: 85 15        	sta	$15                     ; 0x2015 <f256main+0x1701>
    50ea: 18           	clc
    50eb: a5 16        	lda	$16                     ; 0x2016 <f256main+0x1702>
    50ed: 71 12        	adc	($12),y                 ; 0x2012 <f256main+0x16fe>
    50ef: aa           	tax
    50f0: a0 01        	ldy	#$1
    50f2: a5 17        	lda	$17                     ; 0x2017 <f256main+0x1703>
    50f4: 71 14        	adc	($14),y                 ; 0x2014 <f256main+0x1700>
    50f6: 86 14        	stx	$14                     ; 0x2014 <f256main+0x1700>
    50f8: 85 15        	sta	$15                     ; 0x2015 <f256main+0x1701>
    50fa: a5 18        	lda	$18                     ; 0x2018 <f256main+0x1704>
    50fc: 92 14        	sta	($14)                   ; 0x2014 <f256main+0x1700>
    50fe: 80 1f        	bra	$511f <_ZN12_GLOBAL__N_13putEcP6Status+0xb3>
    5100: a6 12        	ldx	$12                     ; 0x2012 <f256main+0x16fe>
    5102: 86 eb        	stx	$eb                     ; 0x20eb <f256main+0x17d7>
    5104: a6 13        	ldx	$13                     ; 0x2013 <f256main+0x16ff>
    5106: 86 ec        	stx	$ec                     ; 0x20ec <f256main+0x17d8>
    5108: a5 18        	lda	$18                     ; 0x2018 <f256main+0x1704>
    510a: 85 35        	sta	$35                     ; 0x2035 <f256main+0x1721>
    510c: a2 35        	ldx	#$35
    510e: 86 12        	stx	$12                     ; 0x2012 <f256main+0x16fe>
    5110: a2 00        	ldx	#$0
    5112: 86 13        	stx	$13                     ; 0x2013 <f256main+0x16ff>
    5114: 20 9c 2f     	jsr	$2f9c <textPrint>
    5117: a6 eb        	ldx	$eb                     ; 0x20eb <f256main+0x17d7>
    5119: 86 12        	stx	$12                     ; 0x2012 <f256main+0x16fe>
    511b: a6 ec        	ldx	$ec                     ; 0x20ec <f256main+0x17d8>
    511d: 86 13        	stx	$13                     ; 0x2013 <f256main+0x16ff>
    511f: a0 05        	ldy	#$5
    5121: a5 12        	lda	$12                     ; 0x2012 <f256main+0x16fe>
    5123: 18           	clc
    5124: 69 05        	adc	#$5
    5126: 85 14        	sta	$14                     ; 0x2014 <f256main+0x1700>
    5128: a5 13        	lda	$13                     ; 0x2013 <f256main+0x16ff>
    512a: 69 00        	adc	#$0
    512c: 85 15        	sta	$15                     ; 0x2015 <f256main+0x1701>
    512e: b1 12        	lda	($12),y                 ; 0x2012 <f256main+0x16fe>
    5130: aa           	tax
    5131: a0 01        	ldy	#$1
    5133: b1 14        	lda	($14),y                 ; 0x2014 <f256main+0x1700>
    5135: e8           	inx
    5136: d0 01        	bne	$5139 <_ZN12_GLOBAL__N_13putEcP6Status+0xcd>
    5138: 1a           	inc
    5139: 85 16        	sta	$16                     ; 0x2016 <f256main+0x1702>
    513b: 8a           	txa
    513c: a0 05        	ldy	#$5
    513e: 91 12        	sta	($12),y                 ; 0x2012 <f256main+0x16fe>
    5140: a0 01        	ldy	#$1
    5142: a5 16        	lda	$16                     ; 0x2016 <f256main+0x1702>
    5144: 91 14        	sta	($14),y                 ; 0x2014 <f256main+0x1700>
    5146: 60           	rts

00005147 <_ZN12_GLOBAL__N_112print_stringEPKcP6Status>:
    5147: a6 12        	ldx	$12                     ; 0x2012 <f256main+0x16fe>
    5149: 86 e3        	stx	$e3                     ; 0x20e3 <f256main+0x17cf>
    514b: a6 13        	ldx	$13                     ; 0x2013 <f256main+0x16ff>
    514d: 86 e4        	stx	$e4                     ; 0x20e4 <f256main+0x17d0>
    514f: a6 14        	ldx	$14                     ; 0x2014 <f256main+0x1700>
    5151: 86 e5        	stx	$e5                     ; 0x20e5 <f256main+0x17d1>
    5153: a6 15        	ldx	$15                     ; 0x2015 <f256main+0x1701>
    5155: 86 e6        	stx	$e6                     ; 0x20e6 <f256main+0x17d2>
    5157: a5 e5        	lda	$e5                     ; 0x20e5 <f256main+0x17d1>
    5159: 18           	clc
    515a: 69 0d        	adc	#$d
    515c: 85 12        	sta	$12                     ; 0x2012 <f256main+0x16fe>
    515e: a5 e6        	lda	$e6                     ; 0x20e6 <f256main+0x17d2>
    5160: 69 00        	adc	#$0
    5162: 85 13        	sta	$13                     ; 0x2013 <f256main+0x16ff>
    5164: a0 01        	ldy	#$1
    5166: b1 12        	lda	($12),y                 ; 0x2012 <f256main+0x16fe>
    5168: 30 16        	bmi	$5180 <_ZN12_GLOBAL__N_112print_stringEPKcP6Status+0x39>
    516a: a0 0d        	ldy	#$d
    516c: 85 12        	sta	$12                     ; 0x2012 <f256main+0x16fe>
    516e: b1 e5        	lda	($e5),y                 ; 0x20e5 <f256main+0x17d1>
    5170: a6 12        	ldx	$12                     ; 0x2012 <f256main+0x16fe>
    5172: 86 ea        	stx	$ea                     ; 0x20ea <f256main+0x17d6>
    5174: d0 0f        	bne	$5185 <_ZN12_GLOBAL__N_112print_stringEPKcP6Status+0x3e>
    5176: aa           	tax
    5177: d0 0c        	bne	$5185 <_ZN12_GLOBAL__N_112print_stringEPKcP6Status+0x3e>
    5179: 64 e7        	stz	$e7                     ; 0x20e7 <f256main+0x17d3>
    517b: a2 00        	ldx	#$0
    517d: 4c 4e 52     	jmp	$524e <_ZN12_GLOBAL__N_112print_stringEPKcP6Status+0x107>
    5180: a9 ff        	lda	#$ff
    5182: aa           	tax
    5183: 86 ea        	stx	$ea                     ; 0x20ea <f256main+0x17d6>
    5185: 85 e7        	sta	$e7                     ; 0x20e7 <f256main+0x17d3>
    5187: 64 12        	stz	$12                     ; 0x2012 <f256main+0x16fe>
    5189: a4 e3        	ldy	$e3                     ; 0x20e3 <f256main+0x17cf>
    518b: a6 e4        	ldx	$e4                     ; 0x20e4 <f256main+0x17d0>
    518d: 86 16        	stx	$16                     ; 0x2016 <f256main+0x1702>
    518f: 64 13        	stz	$13                     ; 0x2013 <f256main+0x16ff>
    5191: 98           	tya
    5192: 18           	clc
    5193: 65 12        	adc	$12                     ; 0x2012 <f256main+0x16fe>
    5195: 85 14        	sta	$14                     ; 0x2014 <f256main+0x1700>
    5197: a5 e4        	lda	$e4                     ; 0x20e4 <f256main+0x17d0>
    5199: 65 13        	adc	$13                     ; 0x2013 <f256main+0x16ff>
    519b: 85 15        	sta	$15                     ; 0x2015 <f256main+0x1701>
    519d: b2 14        	lda	($14)                   ; 0x2014 <f256main+0x1700>
    519f: d0 03        	bne	$51a4 <_ZN12_GLOBAL__N_112print_stringEPKcP6Status+0x5d>
    51a1: 4c 48 52     	jmp	$5248 <_ZN12_GLOBAL__N_112print_stringEPKcP6Status+0x101>
    51a4: e6 12        	inc	$12                     ; 0x2012 <f256main+0x16fe>
    51a6: d0 02        	bne	$51aa <_ZN12_GLOBAL__N_112print_stringEPKcP6Status+0x63>
    51a8: e6 13        	inc	$13                     ; 0x2013 <f256main+0x16ff>
    51aa: a6 ea        	ldx	$ea                     ; 0x20ea <f256main+0x17d6>
    51ac: e4 13        	cpx	$13                     ; 0x2013 <f256main+0x16ff>
    51ae: d0 e1        	bne	$5191 <_ZN12_GLOBAL__N_112print_stringEPKcP6Status+0x4a>
    51b0: a6 e7        	ldx	$e7                     ; 0x20e7 <f256main+0x17d3>
    51b2: e4 12        	cpx	$12                     ; 0x2012 <f256main+0x16fe>
    51b4: d0 db        	bne	$5191 <_ZN12_GLOBAL__N_112print_stringEPKcP6Status+0x4a>
    51b6: a0 01        	ldy	#$1
    51b8: b1 e5        	lda	($e5),y                 ; 0x20e5 <f256main+0x17d1>
    51ba: 29 01        	and	#$1
    51bc: f0 03        	beq	$51c1 <_ZN12_GLOBAL__N_112print_stringEPKcP6Status+0x7a>
    51be: 4c 19 52     	jmp	$5219 <_ZN12_GLOBAL__N_112print_stringEPKcP6Status+0xd2>
    51c1: a5 e5        	lda	$e5                     ; 0x20e5 <f256main+0x17d1>
    51c3: 18           	clc
    51c4: 69 0b        	adc	#$b
    51c6: 85 14        	sta	$14                     ; 0x2014 <f256main+0x1700>
    51c8: a5 e6        	lda	$e6                     ; 0x20e6 <f256main+0x17d2>
    51ca: 69 00        	adc	#$0
    51cc: 85 15        	sta	$15                     ; 0x2015 <f256main+0x1701>
    51ce: a0 0b        	ldy	#$b
    51d0: b1 e5        	lda	($e5),y                 ; 0x20e5 <f256main+0x17d1>
    51d2: 85 13        	sta	$13                     ; 0x2013 <f256main+0x16ff>
    51d4: a0 01        	ldy	#$1
    51d6: b1 14        	lda	($14),y                 ; 0x2014 <f256main+0x1700>
    51d8: 85 12        	sta	$12                     ; 0x2012 <f256main+0x16fe>
    51da: a6 ea        	ldx	$ea                     ; 0x20ea <f256main+0x17d6>
    51dc: e4 12        	cpx	$12                     ; 0x2012 <f256main+0x16fe>
    51de: d0 08        	bne	$51e8 <_ZN12_GLOBAL__N_112print_stringEPKcP6Status+0xa1>
    51e0: a6 e7        	ldx	$e7                     ; 0x20e7 <f256main+0x17d3>
    51e2: e4 13        	cpx	$13                     ; 0x2013 <f256main+0x16ff>
    51e4: 90 06        	bcc	$51ec <_ZN12_GLOBAL__N_112print_stringEPKcP6Status+0xa5>
    51e6: 80 31        	bra	$5219 <_ZN12_GLOBAL__N_112print_stringEPKcP6Status+0xd2>
    51e8: e4 12        	cpx	$12                     ; 0x2012 <f256main+0x16fe>
    51ea: b0 2d        	bcs	$5219 <_ZN12_GLOBAL__N_112print_stringEPKcP6Status+0xd2>
    51ec: 38           	sec
    51ed: a5 e7        	lda	$e7                     ; 0x20e7 <f256main+0x17d3>
    51ef: e5 13        	sbc	$13                     ; 0x2013 <f256main+0x16ff>
    51f1: a8           	tay
    51f2: a5 ea        	lda	$ea                     ; 0x20ea <f256main+0x17d6>
    51f4: e5 12        	sbc	$12                     ; 0x2012 <f256main+0x16fe>
    51f6: 85 e9        	sta	$e9                     ; 0x20e9 <f256main+0x17d5>
    51f8: a6 e5        	ldx	$e5                     ; 0x20e5 <f256main+0x17d1>
    51fa: 86 12        	stx	$12                     ; 0x2012 <f256main+0x16fe>
    51fc: a6 e6        	ldx	$e6                     ; 0x20e6 <f256main+0x17d2>
    51fe: 86 13        	stx	$13                     ; 0x2013 <f256main+0x16ff>
    5200: 84 e8        	sty	$e8                     ; 0x20e8 <f256main+0x17d4>
    5202: a9 20        	lda	#$20
    5204: 20 6c 50     	jsr	$506c <_ZN12_GLOBAL__N_13putEcP6Status>
    5207: a6 e9        	ldx	$e9                     ; 0x20e9 <f256main+0x17d5>
    5209: e6 e8        	inc	$e8                     ; 0x20e8 <f256main+0x17d4>
    520b: d0 01        	bne	$520e <_ZN12_GLOBAL__N_112print_stringEPKcP6Status+0xc7>
    520d: e8           	inx
    520e: 86 e9        	stx	$e9                     ; 0x20e9 <f256main+0x17d5>
    5210: a4 e8        	ldy	$e8                     ; 0x20e8 <f256main+0x17d4>
    5212: 8a           	txa
    5213: d0 e3        	bne	$51f8 <_ZN12_GLOBAL__N_112print_stringEPKcP6Status+0xb1>
    5215: a5 e8        	lda	$e8                     ; 0x20e8 <f256main+0x17d4>
    5217: d0 df        	bne	$51f8 <_ZN12_GLOBAL__N_112print_stringEPKcP6Status+0xb1>
    5219: a4 ea        	ldy	$ea                     ; 0x20ea <f256main+0x17d6>
    521b: d0 04        	bne	$5221 <_ZN12_GLOBAL__N_112print_stringEPKcP6Status+0xda>
    521d: a5 e7        	lda	$e7                     ; 0x20e7 <f256main+0x17d3>
    521f: f0 26        	beq	$5247 <_ZN12_GLOBAL__N_112print_stringEPKcP6Status+0x100>
    5221: a2 ff        	ldx	#$ff
    5223: c6 e7        	dec	$e7                     ; 0x20e7 <f256main+0x17d3>
    5225: e4 e7        	cpx	$e7                     ; 0x20e7 <f256main+0x17d3>
    5227: d0 01        	bne	$522a <_ZN12_GLOBAL__N_112print_stringEPKcP6Status+0xe3>
    5229: 88           	dey
    522a: 84 e8        	sty	$e8                     ; 0x20e8 <f256main+0x17d4>
    522c: b2 e3        	lda	($e3)                   ; 0x20e3 <f256main+0x17cf>
    522e: e6 e3        	inc	$e3                     ; 0x20e3 <f256main+0x17cf>
    5230: d0 02        	bne	$5234 <_ZN12_GLOBAL__N_112print_stringEPKcP6Status+0xed>
    5232: e6 e4        	inc	$e4                     ; 0x20e4 <f256main+0x17d0>
    5234: a6 e5        	ldx	$e5                     ; 0x20e5 <f256main+0x17d1>
    5236: 86 12        	stx	$12                     ; 0x2012 <f256main+0x16fe>
    5238: a6 e6        	ldx	$e6                     ; 0x20e6 <f256main+0x17d2>
    523a: 86 13        	stx	$13                     ; 0x2013 <f256main+0x16ff>
    523c: 20 6c 50     	jsr	$506c <_ZN12_GLOBAL__N_13putEcP6Status>
    523f: a4 e8        	ldy	$e8                     ; 0x20e8 <f256main+0x17d4>
    5241: d0 de        	bne	$5221 <_ZN12_GLOBAL__N_112print_stringEPKcP6Status+0xda>
    5243: a5 e7        	lda	$e7                     ; 0x20e7 <f256main+0x17d3>
    5245: d0 da        	bne	$5221 <_ZN12_GLOBAL__N_112print_stringEPKcP6Status+0xda>
    5247: 60           	rts
    5248: a6 12        	ldx	$12                     ; 0x2012 <f256main+0x16fe>
    524a: 86 e7        	stx	$e7                     ; 0x20e7 <f256main+0x17d3>
    524c: a6 13        	ldx	$13                     ; 0x2013 <f256main+0x16ff>
    524e: 86 ea        	stx	$ea                     ; 0x20ea <f256main+0x17d6>
    5250: 4c b6 51     	jmp	$51b6 <_ZN12_GLOBAL__N_112print_stringEPKcP6Status+0x6f>

00005253 <printf>:
    5253: a6 12        	ldx	$12                     ; 0x2012 <f256main+0x16fe>
    5255: 86 98        	stx	$98                     ; 0x2098 <f256main+0x1784>
    5257: a6 13        	ldx	$13                     ; 0x2013 <f256main+0x16ff>
    5259: 86 99        	stx	$99                     ; 0x2099 <f256main+0x1785>
    525b: 18           	clc
    525c: a6 10        	ldx	$10                     ; 0x2010 <f256main+0x16fc>
    525e: a4 11        	ldy	$11                     ; 0x2011 <f256main+0x16fd>
    5260: 86 d9        	stx	$d9                     ; 0x20d9 <f256main+0x17c5>
    5262: 84 da        	sty	$da                     ; 0x20da <f256main+0x17c6>
    5264: a6 d9        	ldx	$d9                     ; 0x20d9 <f256main+0x17c5>
    5266: a4 da        	ldy	$da                     ; 0x20da <f256main+0x17c6>
    5268: 86 c4        	stx	$c4                     ; 0x20c4 <f256main+0x17b0>
    526a: 84 c5        	sty	$c5                     ; 0x20c5 <f256main+0x17b1>
    526c: a2 ff        	ldx	#$ff
    526e: 86 c9        	stx	$c9                     ; 0x20c9 <f256main+0x17b5>
    5270: 86 ca        	stx	$ca                     ; 0x20ca <f256main+0x17b6>
    5272: 64 cb        	stz	$cb                     ; 0x20cb <f256main+0x17b7>
    5274: 64 cc        	stz	$cc                     ; 0x20cc <f256main+0x17b8>
    5276: e8           	inx
    5277: 86 9a        	stx	$9a                     ; 0x209a <f256main+0x1786>
    5279: a2 00        	ldx	#$0
    527b: 86 9b        	stx	$9b                     ; 0x209b <f256main+0x1787>
    527d: a6 9a        	ldx	$9a                     ; 0x209a <f256main+0x1786>
    527f: a4 9b        	ldy	$9b                     ; 0x209b <f256main+0x1787>
    5281: 86 cf        	stx	$cf                     ; 0x20cf <f256main+0x17bb>
    5283: 84 d0        	sty	$d0                     ; 0x20d0 <f256main+0x17bc>
    5285: a2 02        	ldx	#$2
    5287: 86 d5        	stx	$d5                     ; 0x20d5 <f256main+0x17c1>
    5289: 64 d6        	stz	$d6                     ; 0x20d6 <f256main+0x17c2>
    528b: a6 c4        	ldx	$c4                     ; 0x20c4 <f256main+0x17b0>
    528d: a4 c5        	ldy	$c5                     ; 0x20c5 <f256main+0x17b1>
    528f: 86 d7        	stx	$d7                     ; 0x20d7 <f256main+0x17c3>
    5291: 84 d8        	sty	$d8                     ; 0x20d8 <f256main+0x17c4>
    5293: a2 bb        	ldx	#$bb
    5295: a0 00        	ldy	#$0
    5297: 86 12        	stx	$12                     ; 0x2012 <f256main+0x16fe>
    5299: 84 13        	sty	$13                     ; 0x2013 <f256main+0x16ff>
    529b: a0 01        	ldy	#$1
    529d: a9 a2        	lda	#$a2
    529f: 18           	clc
    52a0: 69 02        	adc	#$2
    52a2: 85 e1        	sta	$e1                     ; 0x20e1 <f256main+0x17cd>
    52a4: a9 00        	lda	#$0
    52a6: 69 00        	adc	#$0
    52a8: 85 e2        	sta	$e2                     ; 0x20e2 <f256main+0x17ce>
    52aa: e6 12        	inc	$12                     ; 0x2012 <f256main+0x16fe>
    52ac: d0 02        	bne	$52b0 <printf+0x5d>
    52ae: e6 13        	inc	$13                     ; 0x2013 <f256main+0x16ff>
    52b0: a6 12        	ldx	$12                     ; 0x2012 <f256main+0x16fe>
    52b2: 86 dd        	stx	$dd                     ; 0x20dd <f256main+0x17c9>
    52b4: a6 13        	ldx	$13                     ; 0x2013 <f256main+0x16ff>
    52b6: 86 de        	stx	$de                     ; 0x20de <f256main+0x17ca>
    52b8: a6 98        	ldx	$98                     ; 0x2098 <f256main+0x1784>
    52ba: 86 9c        	stx	$9c                     ; 0x209c <f256main+0x1788>
    52bc: a6 99        	ldx	$99                     ; 0x2099 <f256main+0x1785>
    52be: 86 9d        	stx	$9d                     ; 0x209d <f256main+0x1789>
    52c0: b2 98        	lda	($98)                   ; 0x2098 <f256main+0x1784>
    52c2: c9 25        	cmp	#$25
    52c4: f0 2b        	beq	$52f1 <printf+0x9e>
    52c6: aa           	tax
    52c7: d0 03        	bne	$52cc <printf+0x79>
    52c9: 4c 7e 5e     	jmp	$5e7e <printf+0xc2b>
    52cc: 85 35        	sta	$35                     ; 0x2035 <f256main+0x1721>
    52ce: a2 35        	ldx	#$35
    52d0: 86 12        	stx	$12                     ; 0x2012 <f256main+0x16fe>
    52d2: a2 00        	ldx	#$0
    52d4: 86 13        	stx	$13                     ; 0x2013 <f256main+0x16ff>
    52d6: 20 9c 2f     	jsr	$2f9c <textPrint>
    52d9: a0 01        	ldy	#$1
    52db: e6 9c        	inc	$9c                     ; 0x209c <f256main+0x1788>
    52dd: d0 02        	bne	$52e1 <printf+0x8e>
    52df: e6 9d        	inc	$9d                     ; 0x209d <f256main+0x1789>
    52e1: e6 cb        	inc	$cb                     ; 0x20cb <f256main+0x17b7>
    52e3: d0 02        	bne	$52e7 <printf+0x94>
    52e5: e6 cc        	inc	$cc                     ; 0x20cc <f256main+0x17b8>
    52e7: a6 9c        	ldx	$9c                     ; 0x209c <f256main+0x1788>
    52e9: 86 98        	stx	$98                     ; 0x2098 <f256main+0x1784>
    52eb: a6 9d        	ldx	$9d                     ; 0x209d <f256main+0x1789>
    52ed: 86 99        	stx	$99                     ; 0x2099 <f256main+0x1785>
    52ef: 80 c7        	bra	$52b8 <printf+0x65>
    52f1: a6 98        	ldx	$98                     ; 0x2098 <f256main+0x1784>
    52f3: 86 12        	stx	$12                     ; 0x2012 <f256main+0x16fe>
    52f5: a6 99        	ldx	$99                     ; 0x2099 <f256main+0x1785>
    52f7: 86 13        	stx	$13                     ; 0x2013 <f256main+0x16ff>
    52f9: e6 12        	inc	$12                     ; 0x2012 <f256main+0x16fe>
    52fb: d0 02        	bne	$52ff <printf+0xac>
    52fd: e6 13        	inc	$13                     ; 0x2013 <f256main+0x16ff>
    52ff: b1 9c        	lda	($9c),y                 ; 0x209c <f256main+0x1788>
    5301: c9 25        	cmp	#$25
    5303: d0 16        	bne	$531b <printf+0xc8>
    5305: a4 cb        	ldy	$cb                     ; 0x20cb <f256main+0x17b7>
    5307: a5 cc        	lda	$cc                     ; 0x20cc <f256main+0x17b8>
    5309: c5 ca        	cmp	$ca                     ; 0x20ca <f256main+0x17b6>
    530b: f0 03        	beq	$5310 <printf+0xbd>
    530d: 4c 22 54     	jmp	$5422 <printf+0x1cf>
    5310: a6 c9        	ldx	$c9                     ; 0x20c9 <f256main+0x17b5>
    5312: 86 12        	stx	$12                     ; 0x2012 <f256main+0x16fe>
    5314: 84 13        	sty	$13                     ; 0x2013 <f256main+0x16ff>
    5316: c4 12        	cpy	$12                     ; 0x2012 <f256main+0x16fe>
    5318: 4c 26 54     	jmp	$5426 <printf+0x1d3>
    531b: 64 c7        	stz	$c7                     ; 0x20c7 <f256main+0x17b3>
    531d: 64 c8        	stz	$c8                     ; 0x20c8 <f256main+0x17b4>
    531f: 64 c6        	stz	$c6                     ; 0x20c6 <f256main+0x17b2>
    5321: 64 d1        	stz	$d1                     ; 0x20d1 <f256main+0x17bd>
    5323: 64 d2        	stz	$d2                     ; 0x20d2 <f256main+0x17be>
    5325: a2 ff        	ldx	#$ff
    5327: 86 d3        	stx	$d3                     ; 0x20d3 <f256main+0x17bf>
    5329: 86 d4        	stx	$d4                     ; 0x20d4 <f256main+0x17c0>
    532b: 64 97        	stz	$97                     ; 0x2097 <f256main+0x1783>
    532d: 80 33        	bra	$5362 <printf+0x10f>
    532f: a2 02        	ldx	#$2
    5331: 80 15        	bra	$5348 <printf+0xf5>
    5333: e0 20        	cpx	#$20
    5335: f0 15        	beq	$534c <printf+0xf9>
    5337: 86 15        	stx	$15                     ; 0x2015 <f256main+0x1701>
    5339: e0 23        	cpx	#$23
    533b: f0 03        	beq	$5340 <printf+0xed>
    533d: 4c bf 53     	jmp	$53bf <printf+0x16c>
    5340: a5 97        	lda	$97                     ; 0x2097 <f256main+0x1783>
    5342: a2 04        	ldx	#$4
    5344: 80 02        	bra	$5348 <printf+0xf5>
    5346: a2 10        	ldx	#$10
    5348: 86 14        	stx	$14                     ; 0x2014 <f256main+0x1700>
    534a: 80 06        	bra	$5352 <printf+0xff>
    534c: a2 08        	ldx	#$8
    534e: 86 14        	stx	$14                     ; 0x2014 <f256main+0x1700>
    5350: a5 97        	lda	$97                     ; 0x2097 <f256main+0x1783>
    5352: 05 14        	ora	$14                     ; 0x2014 <f256main+0x1700>
    5354: 85 97        	sta	$97                     ; 0x2097 <f256main+0x1783>
    5356: 85 c7        	sta	$c7                     ; 0x20c7 <f256main+0x17b3>
    5358: a2 00        	ldx	#$0
    535a: 86 c8        	stx	$c8                     ; 0x20c8 <f256main+0x17b4>
    535c: e6 12        	inc	$12                     ; 0x2012 <f256main+0x16fe>
    535e: d0 02        	bne	$5362 <printf+0x10f>
    5360: e6 13        	inc	$13                     ; 0x2013 <f256main+0x16ff>
    5362: b2 12        	lda	($12)                   ; 0x2012 <f256main+0x16fe>
    5364: aa           	tax
    5365: 18           	clc
    5366: 69 d6        	adc	#$d6
    5368: c9 07        	cmp	#$7
    536a: b0 c7        	bcs	$5333 <printf+0xe0>
    536c: 86 15        	stx	$15                     ; 0x2015 <f256main+0x1701>
    536e: 0a           	asl
    536f: aa           	tax
    5370: a0 01        	ldy	#$1
    5372: 84 14        	sty	$14                     ; 0x2014 <f256main+0x1700>
    5374: a5 97        	lda	$97                     ; 0x2097 <f256main+0x1783>
    5376: 7c b7 75     	jmp	($75b7,x)               ; 0x75b7 <__set_v+0x29>
    5379: a5 d7        	lda	$d7                     ; 0x20d7 <f256main+0x17c3>
    537b: a6 d8        	ldx	$d8                     ; 0x20d8 <f256main+0x17c4>
    537d: 85 16        	sta	$16                     ; 0x2016 <f256main+0x1702>
    537f: 86 17        	stx	$17                     ; 0x2017 <f256main+0x1703>
    5381: 18           	clc
    5382: 69 02        	adc	#$2
    5384: a8           	tay
    5385: 8a           	txa
    5386: 69 00        	adc	#$0
    5388: 84 d7        	sty	$d7                     ; 0x20d7 <f256main+0x17c3>
    538a: 85 d8        	sta	$d8                     ; 0x20d8 <f256main+0x17c4>
    538c: b2 16        	lda	($16)                   ; 0x2016 <f256main+0x1702>
    538e: 85 15        	sta	$15                     ; 0x2015 <f256main+0x1701>
    5390: a0 01        	ldy	#$1
    5392: b1 16        	lda	($16),y                 ; 0x2016 <f256main+0x1702>
    5394: 85 14        	sta	$14                     ; 0x2014 <f256main+0x1700>
    5396: 10 15        	bpl	$53ad <printf+0x15a>
    5398: a5 97        	lda	$97                     ; 0x2097 <f256main+0x1783>
    539a: 09 01        	ora	#$1
    539c: 85 97        	sta	$97                     ; 0x2097 <f256main+0x1783>
    539e: 85 c7        	sta	$c7                     ; 0x20c7 <f256main+0x17b3>
    53a0: a2 00        	ldx	#$0
    53a2: 86 c8        	stx	$c8                     ; 0x20c8 <f256main+0x17b4>
    53a4: 8a           	txa
    53a5: 38           	sec
    53a6: e5 15        	sbc	$15                     ; 0x2015 <f256main+0x1701>
    53a8: 85 15        	sta	$15                     ; 0x2015 <f256main+0x1701>
    53aa: 8a           	txa
    53ab: e5 14        	sbc	$14                     ; 0x2014 <f256main+0x1700>
    53ad: a6 15        	ldx	$15                     ; 0x2015 <f256main+0x1701>
    53af: 86 d1        	stx	$d1                     ; 0x20d1 <f256main+0x17bd>
    53b1: 85 d2        	sta	$d2                     ; 0x20d2 <f256main+0x17be>
    53b3: e6 12        	inc	$12                     ; 0x2012 <f256main+0x16fe>
    53b5: f0 03        	beq	$53ba <printf+0x167>
    53b7: 4c 7e 54     	jmp	$547e <printf+0x22b>
    53ba: e6 13        	inc	$13                     ; 0x2013 <f256main+0x16ff>
    53bc: 4c 7e 54     	jmp	$547e <printf+0x22b>
    53bf: a5 15        	lda	$15                     ; 0x2015 <f256main+0x1701>
    53c1: 18           	clc
    53c2: 69 d0        	adc	#$d0
    53c4: c9 0a        	cmp	#$a
    53c6: 90 03        	bcc	$53cb <printf+0x178>
    53c8: 4c 70 54     	jmp	$5470 <printf+0x21d>
    53cb: a6 15        	ldx	$15                     ; 0x2015 <f256main+0x1701>
    53cd: 86 14        	stx	$14                     ; 0x2014 <f256main+0x1700>
    53cf: 64 16        	stz	$16                     ; 0x2016 <f256main+0x1702>
    53d1: 64 15        	stz	$15                     ; 0x2015 <f256main+0x1701>
    53d3: 64 17        	stz	$17                     ; 0x2017 <f256main+0x1703>
    53d5: a0 01        	ldy	#$1
    53d7: 06 16        	asl	$16                     ; 0x2016 <f256main+0x1702>
    53d9: 26 17        	rol	$17                     ; 0x2017 <f256main+0x1703>
    53db: a5 16        	lda	$16                     ; 0x2016 <f256main+0x1702>
    53dd: 0a           	asl
    53de: aa           	tax
    53df: a5 17        	lda	$17                     ; 0x2017 <f256main+0x1703>
    53e1: 2a           	rol
    53e2: 86 18        	stx	$18                     ; 0x2018 <f256main+0x1704>
    53e4: 06 18        	asl	$18                     ; 0x2018 <f256main+0x1704>
    53e6: 2a           	rol
    53e7: aa           	tax
    53e8: a5 18        	lda	$18                     ; 0x2018 <f256main+0x1704>
    53ea: 18           	clc
    53eb: 65 16        	adc	$16                     ; 0x2016 <f256main+0x1702>
    53ed: 85 16        	sta	$16                     ; 0x2016 <f256main+0x1702>
    53ef: 8a           	txa
    53f0: 65 17        	adc	$17                     ; 0x2017 <f256main+0x1703>
    53f2: 85 17        	sta	$17                     ; 0x2017 <f256main+0x1703>
    53f4: a5 16        	lda	$16                     ; 0x2016 <f256main+0x1702>
    53f6: 18           	clc
    53f7: 65 14        	adc	$14                     ; 0x2014 <f256main+0x1700>
    53f9: 85 14        	sta	$14                     ; 0x2014 <f256main+0x1700>
    53fb: a5 17        	lda	$17                     ; 0x2017 <f256main+0x1703>
    53fd: 65 15        	adc	$15                     ; 0x2015 <f256main+0x1701>
    53ff: aa           	tax
    5400: 18           	clc
    5401: a5 14        	lda	$14                     ; 0x2014 <f256main+0x1700>
    5403: 69 d0        	adc	#$d0
    5405: 85 16        	sta	$16                     ; 0x2016 <f256main+0x1702>
    5407: 8a           	txa
    5408: 69 ff        	adc	#$ff
    540a: 85 17        	sta	$17                     ; 0x2017 <f256main+0x1703>
    540c: b1 12        	lda	($12),y                 ; 0x2012 <f256main+0x16fe>
    540e: 85 14        	sta	$14                     ; 0x2014 <f256main+0x1700>
    5410: 18           	clc
    5411: 69 d0        	adc	#$d0
    5413: e6 12        	inc	$12                     ; 0x2012 <f256main+0x16fe>
    5415: d0 02        	bne	$5419 <printf+0x1c6>
    5417: e6 13        	inc	$13                     ; 0x2013 <f256main+0x16ff>
    5419: c9 0a        	cmp	#$a
    541b: 64 15        	stz	$15                     ; 0x2015 <f256main+0x1701>
    541d: 90 b8        	bcc	$53d7 <printf+0x184>
    541f: 4c 76 54     	jmp	$5476 <printf+0x223>
    5422: 84 13        	sty	$13                     ; 0x2013 <f256main+0x16ff>
    5424: c5 ca        	cmp	$ca                     ; 0x20ca <f256main+0x17b6>
    5426: a0 01        	ldy	#$1
    5428: b0 30        	bcs	$545a <printf+0x207>
    542a: a6 d6        	ldx	$d6                     ; 0x20d6 <f256main+0x17c2>
    542c: e4 9b        	cpx	$9b                     ; 0x209b <f256main+0x1787>
    542e: d0 19        	bne	$5449 <printf+0x1f6>
    5430: a6 d5        	ldx	$d5                     ; 0x20d5 <f256main+0x17c1>
    5432: e4 9a        	cpx	$9a                     ; 0x209a <f256main+0x1786>
    5434: d0 13        	bne	$5449 <printf+0x1f6>
    5436: 18           	clc
    5437: aa           	tax
    5438: a5 13        	lda	$13                     ; 0x2013 <f256main+0x16ff>
    543a: 65 cf        	adc	$cf                     ; 0x20cf <f256main+0x17bb>
    543c: 85 12        	sta	$12                     ; 0x2012 <f256main+0x16fe>
    543e: 8a           	txa
    543f: 65 d0        	adc	$d0                     ; 0x20d0 <f256main+0x17bc>
    5441: 85 13        	sta	$13                     ; 0x2013 <f256main+0x16ff>
    5443: a9 25        	lda	#$25
    5445: 92 12        	sta	($12)                   ; 0x2012 <f256main+0x16fe>
    5447: 80 11        	bra	$545a <printf+0x207>
    5449: a2 25        	ldx	#$25
    544b: 86 35        	stx	$35                     ; 0x2035 <f256main+0x1721>
    544d: a2 35        	ldx	#$35
    544f: 86 12        	stx	$12                     ; 0x2012 <f256main+0x16fe>
    5451: a2 00        	ldx	#$0
    5453: 86 13        	stx	$13                     ; 0x2013 <f256main+0x16ff>
    5455: 20 9c 2f     	jsr	$2f9c <textPrint>
    5458: a0 01        	ldy	#$1
    545a: e6 cb        	inc	$cb                     ; 0x20cb <f256main+0x17b7>
    545c: d0 02        	bne	$5460 <printf+0x20d>
    545e: e6 cc        	inc	$cc                     ; 0x20cc <f256main+0x17b8>
    5460: a5 9c        	lda	$9c                     ; 0x209c <f256main+0x1788>
    5462: 18           	clc
    5463: 69 02        	adc	#$2
    5465: 85 98        	sta	$98                     ; 0x2098 <f256main+0x1784>
    5467: a5 9d        	lda	$9d                     ; 0x209d <f256main+0x1789>
    5469: 69 00        	adc	#$0
    546b: 85 99        	sta	$99                     ; 0x2099 <f256main+0x1785>
    546d: 4c b8 52     	jmp	$52b8 <printf+0x65>
    5470: 64 16        	stz	$16                     ; 0x2016 <f256main+0x1702>
    5472: 64 17        	stz	$17                     ; 0x2017 <f256main+0x1703>
    5474: a0 01        	ldy	#$1
    5476: a6 16        	ldx	$16                     ; 0x2016 <f256main+0x1702>
    5478: 86 d1        	stx	$d1                     ; 0x20d1 <f256main+0x17bd>
    547a: a5 17        	lda	$17                     ; 0x2017 <f256main+0x1703>
    547c: 85 d2        	sta	$d2                     ; 0x20d2 <f256main+0x17be>
    547e: 86 a0        	stx	$a0                     ; 0x20a0 <f256main+0x178c>
    5480: 85 9e        	sta	$9e                     ; 0x209e <f256main+0x178a>
    5482: b2 12        	lda	($12)                   ; 0x2012 <f256main+0x16fe>
    5484: a2 ff        	ldx	#$ff
    5486: c9 2e        	cmp	#$2e
    5488: d0 39        	bne	$54c3 <printf+0x270>
    548a: b1 12        	lda	($12),y                 ; 0x2012 <f256main+0x16fe>
    548c: c9 2a        	cmp	#$2a
    548e: d0 38        	bne	$54c8 <printf+0x275>
    5490: a5 d7        	lda	$d7                     ; 0x20d7 <f256main+0x17c3>
    5492: a6 d8        	ldx	$d8                     ; 0x20d8 <f256main+0x17c4>
    5494: 85 14        	sta	$14                     ; 0x2014 <f256main+0x1700>
    5496: 86 15        	stx	$15                     ; 0x2015 <f256main+0x1701>
    5498: 18           	clc
    5499: 69 02        	adc	#$2
    549b: 85 16        	sta	$16                     ; 0x2016 <f256main+0x1702>
    549d: 8a           	txa
    549e: 69 00        	adc	#$0
    54a0: a6 16        	ldx	$16                     ; 0x2016 <f256main+0x1702>
    54a2: 86 d7        	stx	$d7                     ; 0x20d7 <f256main+0x17c3>
    54a4: 85 d8        	sta	$d8                     ; 0x20d8 <f256main+0x17c4>
    54a6: a5 12        	lda	$12                     ; 0x2012 <f256main+0x16fe>
    54a8: 18           	clc
    54a9: 69 02        	adc	#$2
    54ab: 85 12        	sta	$12                     ; 0x2012 <f256main+0x16fe>
    54ad: a5 13        	lda	$13                     ; 0x2013 <f256main+0x16ff>
    54af: 69 00        	adc	#$0
    54b1: 85 13        	sta	$13                     ; 0x2013 <f256main+0x16ff>
    54b3: b2 14        	lda	($14)                   ; 0x2014 <f256main+0x1700>
    54b5: aa           	tax
    54b6: b1 14        	lda	($14),y                 ; 0x2014 <f256main+0x1700>
    54b8: 86 18        	stx	$18                     ; 0x2018 <f256main+0x1704>
    54ba: 86 d3        	stx	$d3                     ; 0x20d3 <f256main+0x17bf>
    54bc: 85 19        	sta	$19                     ; 0x2019 <f256main+0x1705>
    54be: 85 d4        	sta	$d4                     ; 0x20d4 <f256main+0x17c0>
    54c0: 4c 73 55     	jmp	$5573 <printf+0x320>
    54c3: 86 18        	stx	$18                     ; 0x2018 <f256main+0x1704>
    54c5: 4c 83 55     	jmp	$5583 <printf+0x330>
    54c8: 85 17        	sta	$17                     ; 0x2017 <f256main+0x1703>
    54ca: 18           	clc
    54cb: 69 d0        	adc	#$d0
    54cd: c9 0a        	cmp	#$a
    54cf: 90 03        	bcc	$54d4 <printf+0x281>
    54d1: 4c 65 55     	jmp	$5565 <printf+0x312>
    54d4: 64 16        	stz	$16                     ; 0x2016 <f256main+0x1702>
    54d6: a2 01        	ldx	#$1
    54d8: 64 18        	stz	$18                     ; 0x2018 <f256main+0x1704>
    54da: 64 19        	stz	$19                     ; 0x2019 <f256main+0x1705>
    54dc: a0 01        	ldy	#$1
    54de: 64 1a        	stz	$1a                     ; 0x201a <f256main+0x1706>
    54e0: 5a           	phy
    54e1: a4 1a        	ldy	$1a                     ; 0x201a <f256main+0x1706>
    54e3: 84 14        	sty	$14                     ; 0x2014 <f256main+0x1700>
    54e5: 86 15        	stx	$15                     ; 0x2015 <f256main+0x1701>
    54e7: 06 18        	asl	$18                     ; 0x2018 <f256main+0x1704>
    54e9: 26 19        	rol	$19                     ; 0x2019 <f256main+0x1705>
    54eb: a5 18        	lda	$18                     ; 0x2018 <f256main+0x1704>
    54ed: 0a           	asl
    54ee: 85 1d        	sta	$1d                     ; 0x201d <f256main+0x1709>
    54f0: a5 19        	lda	$19                     ; 0x2019 <f256main+0x1705>
    54f2: 2a           	rol
    54f3: 06 1d        	asl	$1d                     ; 0x201d <f256main+0x1709>
    54f5: 2a           	rol
    54f6: 85 1e        	sta	$1e                     ; 0x201e <f256main+0x170a>
    54f8: a5 1d        	lda	$1d                     ; 0x201d <f256main+0x1709>
    54fa: 18           	clc
    54fb: 65 18        	adc	$18                     ; 0x2018 <f256main+0x1704>
    54fd: 85 18        	sta	$18                     ; 0x2018 <f256main+0x1704>
    54ff: a5 1e        	lda	$1e                     ; 0x201e <f256main+0x170a>
    5501: 65 19        	adc	$19                     ; 0x2019 <f256main+0x1705>
    5503: 85 19        	sta	$19                     ; 0x2019 <f256main+0x1705>
    5505: a5 18        	lda	$18                     ; 0x2018 <f256main+0x1704>
    5507: 18           	clc
    5508: 65 17        	adc	$17                     ; 0x2017 <f256main+0x1703>
    550a: 85 17        	sta	$17                     ; 0x2017 <f256main+0x1703>
    550c: a5 19        	lda	$19                     ; 0x2019 <f256main+0x1705>
    550e: 65 16        	adc	$16                     ; 0x2016 <f256main+0x1702>
    5510: 85 16        	sta	$16                     ; 0x2016 <f256main+0x1702>
    5512: 18           	clc
    5513: a5 17        	lda	$17                     ; 0x2017 <f256main+0x1703>
    5515: 69 d0        	adc	#$d0
    5517: 85 18        	sta	$18                     ; 0x2018 <f256main+0x1704>
    5519: a5 16        	lda	$16                     ; 0x2016 <f256main+0x1702>
    551b: 69 ff        	adc	#$ff
    551d: 85 19        	sta	$19                     ; 0x2019 <f256main+0x1705>
    551f: e8           	inx
    5520: d0 02        	bne	$5524 <printf+0x2d1>
    5522: e6 1a        	inc	$1a                     ; 0x201a <f256main+0x1706>
    5524: a5 12        	lda	$12                     ; 0x2012 <f256main+0x16fe>
    5526: 18           	clc
    5527: 65 15        	adc	$15                     ; 0x2015 <f256main+0x1701>
    5529: 85 1d        	sta	$1d                     ; 0x201d <f256main+0x1709>
    552b: a5 13        	lda	$13                     ; 0x2013 <f256main+0x16ff>
    552d: 65 14        	adc	$14                     ; 0x2014 <f256main+0x1700>
    552f: a4 1d        	ldy	$1d                     ; 0x201d <f256main+0x1709>
    5531: 84 16        	sty	$16                     ; 0x2016 <f256main+0x1702>
    5533: 7a           	ply
    5534: 85 17        	sta	$17                     ; 0x2017 <f256main+0x1703>
    5536: b1 16        	lda	($16),y                 ; 0x2016 <f256main+0x1702>
    5538: 85 17        	sta	$17                     ; 0x2017 <f256main+0x1703>
    553a: 18           	clc
    553b: 69 d0        	adc	#$d0
    553d: c9 0a        	cmp	#$a
    553f: 64 16        	stz	$16                     ; 0x2016 <f256main+0x1702>
    5541: b0 03        	bcs	$5546 <printf+0x2f3>
    5543: 4c e0 54     	jmp	$54e0 <printf+0x28d>
    5546: a5 12        	lda	$12                     ; 0x2012 <f256main+0x16fe>
    5548: 18           	clc
    5549: 65 15        	adc	$15                     ; 0x2015 <f256main+0x1701>
    554b: 85 12        	sta	$12                     ; 0x2012 <f256main+0x16fe>
    554d: a5 13        	lda	$13                     ; 0x2013 <f256main+0x16ff>
    554f: 65 14        	adc	$14                     ; 0x2014 <f256main+0x1700>
    5551: 85 13        	sta	$13                     ; 0x2013 <f256main+0x16ff>
    5553: e6 12        	inc	$12                     ; 0x2012 <f256main+0x16fe>
    5555: d0 02        	bne	$5559 <printf+0x306>
    5557: e6 13        	inc	$13                     ; 0x2013 <f256main+0x16ff>
    5559: a6 18        	ldx	$18                     ; 0x2018 <f256main+0x1704>
    555b: 86 d3        	stx	$d3                     ; 0x20d3 <f256main+0x17bf>
    555d: a6 19        	ldx	$19                     ; 0x2019 <f256main+0x1705>
    555f: 86 d4        	stx	$d4                     ; 0x20d4 <f256main+0x17c0>
    5561: a0 01        	ldy	#$1
    5563: 80 0e        	bra	$5573 <printf+0x320>
    5565: e6 12        	inc	$12                     ; 0x2012 <f256main+0x16fe>
    5567: d0 02        	bne	$556b <printf+0x318>
    5569: e6 13        	inc	$13                     ; 0x2013 <f256main+0x16ff>
    556b: 64 18        	stz	$18                     ; 0x2018 <f256main+0x1704>
    556d: 64 d3        	stz	$d3                     ; 0x20d3 <f256main+0x17bf>
    556f: 64 d4        	stz	$d4                     ; 0x20d4 <f256main+0x17c0>
    5571: 64 19        	stz	$19                     ; 0x2019 <f256main+0x1705>
    5573: a5 97        	lda	$97                     ; 0x2097 <f256main+0x1783>
    5575: 29 ef        	and	#$ef
    5577: 85 97        	sta	$97                     ; 0x2097 <f256main+0x1783>
    5579: 85 c7        	sta	$c7                     ; 0x20c7 <f256main+0x17b3>
    557b: a2 00        	ldx	#$0
    557d: 86 c8        	stx	$c8                     ; 0x20c8 <f256main+0x17b4>
    557f: b2 12        	lda	($12)                   ; 0x2012 <f256main+0x16fe>
    5581: a6 19        	ldx	$19                     ; 0x2019 <f256main+0x1705>
    5583: 86 15        	stx	$15                     ; 0x2015 <f256main+0x1701>
    5585: a6 12        	ldx	$12                     ; 0x2012 <f256main+0x16fe>
    5587: 86 98        	stx	$98                     ; 0x2098 <f256main+0x1784>
    5589: a6 13        	ldx	$13                     ; 0x2013 <f256main+0x16ff>
    558b: 86 99        	stx	$99                     ; 0x2099 <f256main+0x1785>
    558d: e6 98        	inc	$98                     ; 0x2098 <f256main+0x1784>
    558f: d0 02        	bne	$5593 <printf+0x340>
    5591: e6 99        	inc	$99                     ; 0x2099 <f256main+0x1785>
    5593: 85 14        	sta	$14                     ; 0x2014 <f256main+0x1700>
    5595: 38           	sec
    5596: e9 6c        	sbc	#$6c
    5598: 50 02        	bvc	$559c <printf+0x349>
    559a: 49 80        	eor	#$80
    559c: aa           	tax
    559d: 10 1d        	bpl	$55bc <printf+0x369>
    559f: a5 14        	lda	$14                     ; 0x2014 <f256main+0x1700>
    55a1: c9 4c        	cmp	#$4c
    55a3: f0 27        	beq	$55cc <printf+0x379>
    55a5: c9 68        	cmp	#$68
    55a7: d0 03        	bne	$55ac <printf+0x359>
    55a9: 4c 33 56     	jmp	$5633 <printf+0x3e0>
    55ac: a2 08        	ldx	#$8
    55ae: c9 6a        	cmp	#$6a
    55b0: d0 2e        	bne	$55e0 <printf+0x38d>
    55b2: a5 98        	lda	$98                     ; 0x2098 <f256main+0x1784>
    55b4: 85 12        	sta	$12                     ; 0x2012 <f256main+0x16fe>
    55b6: a5 99        	lda	$99                     ; 0x2099 <f256main+0x1785>
    55b8: 85 13        	sta	$13                     ; 0x2013 <f256main+0x16ff>
    55ba: 80 43        	bra	$55ff <printf+0x3ac>
    55bc: a6 14        	ldx	$14                     ; 0x2014 <f256main+0x1700>
    55be: e0 6c        	cpx	#$6c
    55c0: f0 23        	beq	$55e5 <printf+0x392>
    55c2: e0 74        	cpx	#$74
    55c4: f0 12        	beq	$55d8 <printf+0x385>
    55c6: e0 7a        	cpx	#$7a
    55c8: f0 0e        	beq	$55d8 <printf+0x385>
    55ca: 80 14        	bra	$55e0 <printf+0x38d>
    55cc: a5 97        	lda	$97                     ; 0x2097 <f256main+0x1783>
    55ce: 09 40        	ora	#$40
    55d0: 85 97        	sta	$97                     ; 0x2097 <f256main+0x1783>
    55d2: 85 c7        	sta	$c7                     ; 0x20c7 <f256main+0x17b3>
    55d4: a2 00        	ldx	#$0
    55d6: 86 c8        	stx	$c8                     ; 0x20c8 <f256main+0x17b4>
    55d8: a6 98        	ldx	$98                     ; 0x2098 <f256main+0x1784>
    55da: 86 12        	stx	$12                     ; 0x2012 <f256main+0x16fe>
    55dc: a6 99        	ldx	$99                     ; 0x2099 <f256main+0x1785>
    55de: 86 13        	stx	$13                     ; 0x2013 <f256main+0x16ff>
    55e0: a2 02        	ldx	#$2
    55e2: 8a           	txa
    55e3: 80 1c        	bra	$5601 <printf+0x3ae>
    55e5: b1 12        	lda	($12),y                 ; 0x2012 <f256main+0x16fe>
    55e7: a2 04        	ldx	#$4
    55e9: c9 6c        	cmp	#$6c
    55eb: f0 03        	beq	$55f0 <printf+0x39d>
    55ed: 4c 42 59     	jmp	$5942 <printf+0x6ef>
    55f0: a5 12        	lda	$12                     ; 0x2012 <f256main+0x16fe>
    55f2: 18           	clc
    55f3: 69 02        	adc	#$2
    55f5: 85 12        	sta	$12                     ; 0x2012 <f256main+0x16fe>
    55f7: a5 13        	lda	$13                     ; 0x2013 <f256main+0x16ff>
    55f9: 69 00        	adc	#$0
    55fb: 85 13        	sta	$13                     ; 0x2013 <f256main+0x16ff>
    55fd: a2 08        	ldx	#$8
    55ff: a9 08        	lda	#$8
    5601: 85 dc        	sta	$dc                     ; 0x20dc <f256main+0x17c8>
    5603: b2 12        	lda	($12)                   ; 0x2012 <f256main+0x16fe>
    5605: 5a           	phy
    5606: a4 12        	ldy	$12                     ; 0x2012 <f256main+0x16fe>
    5608: 84 98        	sty	$98                     ; 0x2098 <f256main+0x1784>
    560a: a4 13        	ldy	$13                     ; 0x2013 <f256main+0x16ff>
    560c: 84 99        	sty	$99                     ; 0x2099 <f256main+0x1785>
    560e: 7a           	ply
    560f: 86 9a        	stx	$9a                     ; 0x209a <f256main+0x1786>
    5611: aa           	tax
    5612: 18           	clc
    5613: 69 9d        	adc	#$9d
    5615: c9 16        	cmp	#$16
    5617: b0 39        	bcs	$5652 <printf+0x3ff>
    5619: 0a           	asl
    561a: aa           	tax
    561b: 7c c5 75     	jmp	($75c5,x)               ; 0x75c5 <__set_v+0x37>
    561e: a6 15        	ldx	$15                     ; 0x2015 <f256main+0x1701>
    5620: 86 df        	stx	$df                     ; 0x20df <f256main+0x17cb>
    5622: a6 18        	ldx	$18                     ; 0x2018 <f256main+0x1704>
    5624: 86 e0        	stx	$e0                     ; 0x20e0 <f256main+0x17cc>
    5626: a0 0a        	ldy	#$a
    5628: a2 0a        	ldx	#$a
    562a: 86 db        	stx	$db                     ; 0x20db <f256main+0x17c7>
    562c: 84 c6        	sty	$c6                     ; 0x20c6 <f256main+0x17b2>
    562e: 64 a1        	stz	$a1                     ; 0x20a1 <f256main+0x178d>
    5630: 4c 52 57     	jmp	$5752 <printf+0x4ff>
    5633: b1 12        	lda	($12),y                 ; 0x2012 <f256main+0x16fe>
    5635: a2 02        	ldx	#$2
    5637: c9 68        	cmp	#$68
    5639: f0 03        	beq	$563e <printf+0x3eb>
    563b: 4c 48 59     	jmp	$5948 <printf+0x6f5>
    563e: a5 12        	lda	$12                     ; 0x2012 <f256main+0x16fe>
    5640: 18           	clc
    5641: 69 02        	adc	#$2
    5643: 85 12        	sta	$12                     ; 0x2012 <f256main+0x16fe>
    5645: a5 13        	lda	$13                     ; 0x2013 <f256main+0x16ff>
    5647: 69 00        	adc	#$0
    5649: 85 13        	sta	$13                     ; 0x2013 <f256main+0x16ff>
    564b: a2 01        	ldx	#$1
    564d: 86 dc        	stx	$dc                     ; 0x20dc <f256main+0x17c8>
    564f: e8           	inx
    5650: 80 b1        	bra	$5603 <printf+0x3b0>
    5652: e0 58        	cpx	#$58
    5654: f0 03        	beq	$5659 <printf+0x406>
    5656: 4c 3a 5e     	jmp	$5e3a <printf+0xbe7>
    5659: a6 15        	ldx	$15                     ; 0x2015 <f256main+0x1701>
    565b: 86 df        	stx	$df                     ; 0x20df <f256main+0x17cb>
    565d: a6 18        	ldx	$18                     ; 0x2018 <f256main+0x1704>
    565f: 86 e0        	stx	$e0                     ; 0x20e0 <f256main+0x17cc>
    5661: a2 10        	ldx	#$10
    5663: 86 c6        	stx	$c6                     ; 0x20c6 <f256main+0x17b2>
    5665: a9 00        	lda	#$0
    5667: 09 01        	ora	#$1
    5669: a6 97        	ldx	$97                     ; 0x2097 <f256main+0x1783>
    566b: 80 29        	bra	$5696 <printf+0x443>
    566d: a6 15        	ldx	$15                     ; 0x2015 <f256main+0x1701>
    566f: 86 df        	stx	$df                     ; 0x20df <f256main+0x17cb>
    5671: a6 18        	ldx	$18                     ; 0x2018 <f256main+0x1704>
    5673: 86 e0        	stx	$e0                     ; 0x20e0 <f256main+0x17cc>
    5675: a2 10        	ldx	#$10
    5677: 86 c6        	stx	$c6                     ; 0x20c6 <f256main+0x17b2>
    5679: a5 97        	lda	$97                     ; 0x2097 <f256main+0x1783>
    567b: 09 84        	ora	#$84
    567d: 80 10        	bra	$568f <printf+0x43c>
    567f: a6 15        	ldx	$15                     ; 0x2015 <f256main+0x1701>
    5681: 86 df        	stx	$df                     ; 0x20df <f256main+0x17cb>
    5683: a6 18        	ldx	$18                     ; 0x2018 <f256main+0x1704>
    5685: 86 e0        	stx	$e0                     ; 0x20e0 <f256main+0x17cc>
    5687: a2 10        	ldx	#$10
    5689: 86 c6        	stx	$c6                     ; 0x20c6 <f256main+0x17b2>
    568b: a5 97        	lda	$97                     ; 0x2097 <f256main+0x1783>
    568d: 09 80        	ora	#$80
    568f: aa           	tax
    5690: a9 00        	lda	#$0
    5692: 09 01        	ora	#$1
    5694: 86 97        	stx	$97                     ; 0x2097 <f256main+0x1783>
    5696: 86 c7        	stx	$c7                     ; 0x20c7 <f256main+0x17b3>
    5698: 85 a1        	sta	$a1                     ; 0x20a1 <f256main+0x178d>
    569a: 85 c8        	sta	$c8                     ; 0x20c8 <f256main+0x17b4>
    569c: a2 10        	ldx	#$10
    569e: 86 db        	stx	$db                     ; 0x20db <f256main+0x17c7>
    56a0: 4c 52 57     	jmp	$5752 <printf+0x4ff>
    56a3: a5 d7        	lda	$d7                     ; 0x20d7 <f256main+0x17c3>
    56a5: a6 d8        	ldx	$d8                     ; 0x20d8 <f256main+0x17c4>
    56a7: 85 12        	sta	$12                     ; 0x2012 <f256main+0x16fe>
    56a9: 86 13        	stx	$13                     ; 0x2013 <f256main+0x16ff>
    56ab: 18           	clc
    56ac: 69 02        	adc	#$2
    56ae: 85 14        	sta	$14                     ; 0x2014 <f256main+0x1700>
    56b0: 8a           	txa
    56b1: 69 00        	adc	#$0
    56b3: a6 14        	ldx	$14                     ; 0x2014 <f256main+0x1700>
    56b5: 86 d7        	stx	$d7                     ; 0x20d7 <f256main+0x17c3>
    56b7: 85 d8        	sta	$d8                     ; 0x20d8 <f256main+0x17c4>
    56b9: b2 12        	lda	($12)                   ; 0x2012 <f256main+0x16fe>
    56bb: aa           	tax
    56bc: b1 12        	lda	($12),y                 ; 0x2012 <f256main+0x16fe>
    56be: 86 12        	stx	$12                     ; 0x2012 <f256main+0x16fe>
    56c0: 85 13        	sta	$13                     ; 0x2013 <f256main+0x16ff>
    56c2: a5 cb        	lda	$cb                     ; 0x20cb <f256main+0x17b7>
    56c4: a6 cc        	ldx	$cc                     ; 0x20cc <f256main+0x17b8>
    56c6: 92 12        	sta	($12)                   ; 0x2012 <f256main+0x16fe>
    56c8: 8a           	txa
    56c9: 91 12        	sta	($12),y                 ; 0x2012 <f256main+0x16fe>
    56cb: 4c 2b 57     	jmp	$572b <printf+0x4d8>
    56ce: a5 d7        	lda	$d7                     ; 0x20d7 <f256main+0x17c3>
    56d0: a6 d8        	ldx	$d8                     ; 0x20d8 <f256main+0x17c4>
    56d2: 85 12        	sta	$12                     ; 0x2012 <f256main+0x16fe>
    56d4: 86 13        	stx	$13                     ; 0x2013 <f256main+0x16ff>
    56d6: 18           	clc
    56d7: 69 02        	adc	#$2
    56d9: 85 14        	sta	$14                     ; 0x2014 <f256main+0x1700>
    56db: 8a           	txa
    56dc: 69 00        	adc	#$0
    56de: a6 14        	ldx	$14                     ; 0x2014 <f256main+0x1700>
    56e0: 86 d7        	stx	$d7                     ; 0x20d7 <f256main+0x17c3>
    56e2: 85 d8        	sta	$d8                     ; 0x20d8 <f256main+0x17c4>
    56e4: b2 12        	lda	($12)                   ; 0x2012 <f256main+0x16fe>
    56e6: aa           	tax
    56e7: b1 12        	lda	($12),y                 ; 0x2012 <f256main+0x16fe>
    56e9: 86 12        	stx	$12                     ; 0x2012 <f256main+0x16fe>
    56eb: 85 13        	sta	$13                     ; 0x2013 <f256main+0x16ff>
    56ed: 80 2f        	bra	$571e <printf+0x4cb>
    56ef: a6 15        	ldx	$15                     ; 0x2015 <f256main+0x1701>
    56f1: 86 df        	stx	$df                     ; 0x20df <f256main+0x17cb>
    56f3: a6 18        	ldx	$18                     ; 0x2018 <f256main+0x1704>
    56f5: 86 e0        	stx	$e0                     ; 0x20e0 <f256main+0x17cc>
    56f7: a0 08        	ldy	#$8
    56f9: a2 08        	ldx	#$8
    56fb: 80 45        	bra	$5742 <printf+0x4ef>
    56fd: a5 d7        	lda	$d7                     ; 0x20d7 <f256main+0x17c3>
    56ff: a6 d8        	ldx	$d8                     ; 0x20d8 <f256main+0x17c4>
    5701: 85 12        	sta	$12                     ; 0x2012 <f256main+0x16fe>
    5703: 86 13        	stx	$13                     ; 0x2013 <f256main+0x16ff>
    5705: 18           	clc
    5706: 69 02        	adc	#$2
    5708: a8           	tay
    5709: 8a           	txa
    570a: 69 00        	adc	#$0
    570c: 84 d7        	sty	$d7                     ; 0x20d7 <f256main+0x17c3>
    570e: 85 d8        	sta	$d8                     ; 0x20d8 <f256main+0x17c4>
    5710: b2 12        	lda	($12)                   ; 0x2012 <f256main+0x16fe>
    5712: 85 b9        	sta	$b9                     ; 0x20b9 <f256main+0x17a5>
    5714: 64 ba        	stz	$ba                     ; 0x20ba <f256main+0x17a6>
    5716: a2 b9        	ldx	#$b9
    5718: 86 12        	stx	$12                     ; 0x2012 <f256main+0x16fe>
    571a: a2 00        	ldx	#$0
    571c: 86 13        	stx	$13                     ; 0x2013 <f256main+0x16ff>
    571e: a2 c6        	ldx	#$c6
    5720: 86 14        	stx	$14                     ; 0x2014 <f256main+0x1700>
    5722: a2 00        	ldx	#$0
    5724: 86 15        	stx	$15                     ; 0x2015 <f256main+0x1701>
    5726: 20 47 51     	jsr	$5147 <_ZN12_GLOBAL__N_112print_stringEPKcP6Status>
    5729: a0 01        	ldy	#$1
    572b: a2 00        	ldx	#$0
    572d: 86 9a        	stx	$9a                     ; 0x209a <f256main+0x1786>
    572f: a2 00        	ldx	#$0
    5731: 86 9b        	stx	$9b                     ; 0x209b <f256main+0x1787>
    5733: 4c 22 5e     	jmp	$5e22 <printf+0xbcf>
    5736: a6 15        	ldx	$15                     ; 0x2015 <f256main+0x1701>
    5738: 86 df        	stx	$df                     ; 0x20df <f256main+0x17cb>
    573a: a6 18        	ldx	$18                     ; 0x2018 <f256main+0x1704>
    573c: 86 e0        	stx	$e0                     ; 0x20e0 <f256main+0x17cc>
    573e: a0 0a        	ldy	#$a
    5740: a2 0a        	ldx	#$a
    5742: 86 db        	stx	$db                     ; 0x20db <f256main+0x17c7>
    5744: 84 c6        	sty	$c6                     ; 0x20c6 <f256main+0x17b2>
    5746: a9 00        	lda	#$0
    5748: 09 01        	ora	#$1
    574a: a6 97        	ldx	$97                     ; 0x2097 <f256main+0x1783>
    574c: 86 c7        	stx	$c7                     ; 0x20c7 <f256main+0x17b3>
    574e: 85 a1        	sta	$a1                     ; 0x20a1 <f256main+0x178d>
    5750: 85 c8        	sta	$c8                     ; 0x20c8 <f256main+0x17b4>
    5752: a5 dc        	lda	$dc                     ; 0x20dc <f256main+0x17c8>
    5754: 85 bb        	sta	$bb                     ; 0x20bb <f256main+0x17a7>
    5756: a4 d7        	ldy	$d7                     ; 0x20d7 <f256main+0x17c3>
    5758: a6 d8        	ldx	$d8                     ; 0x20d8 <f256main+0x17c4>
    575a: 86 9f        	stx	$9f                     ; 0x209f <f256main+0x178b>
    575c: 84 14        	sty	$14                     ; 0x2014 <f256main+0x1700>
    575e: 84 96        	sty	$96                     ; 0x2096 <f256main+0x1782>
    5760: 86 15        	stx	$15                     ; 0x2015 <f256main+0x1701>
    5762: a6 dd        	ldx	$dd                     ; 0x20dd <f256main+0x17c9>
    5764: 86 12        	stx	$12                     ; 0x2012 <f256main+0x16fe>
    5766: a6 de        	ldx	$de                     ; 0x20de <f256main+0x17ca>
    5768: 86 13        	stx	$13                     ; 0x2013 <f256main+0x16ff>
    576a: a2 00        	ldx	#$0
    576c: 85 9b        	sta	$9b                     ; 0x209b <f256main+0x1787>
    576e: 20 52 60     	jsr	$6052 <memcpy>
    5771: 18           	clc
    5772: a5 96        	lda	$96                     ; 0x2096 <f256main+0x1782>
    5774: 65 9a        	adc	$9a                     ; 0x209a <f256main+0x1786>
    5776: aa           	tax
    5777: a5 9f        	lda	$9f                     ; 0x209f <f256main+0x178b>
    5779: 69 00        	adc	#$0
    577b: 86 d7        	stx	$d7                     ; 0x20d7 <f256main+0x17c3>
    577d: 85 d8        	sta	$d8                     ; 0x20d8 <f256main+0x17c4>
    577f: a5 a1        	lda	$a1                     ; 0x20a1 <f256main+0x178d>
    5781: 29 01        	and	#$1
    5783: b8           	clv
    5784: f0 03        	beq	$5789 <printf+0x536>
    5786: 4c dd 57     	jmp	$57dd <printf+0x58a>
    5789: a6 9b        	ldx	$9b                     ; 0x209b <f256main+0x1787>
    578b: b5 bb        	lda	$bb,x                   ; 0x20bb <f256main+0x17a7>
    578d: aa           	tax
    578e: a0 01        	ldy	#$1
    5790: a5 9e        	lda	$9e                     ; 0x209e <f256main+0x178a>
    5792: 85 1a        	sta	$1a                     ; 0x201a <f256main+0x1706>
    5794: a5 e0        	lda	$e0                     ; 0x20e0 <f256main+0x17cc>
    5796: 85 9e        	sta	$9e                     ; 0x209e <f256main+0x178a>
    5798: a9 00        	lda	#$0
    579a: 85 9a        	sta	$9a                     ; 0x209a <f256main+0x1786>
    579c: a9 00        	lda	#$0
    579e: 85 9b        	sta	$9b                     ; 0x209b <f256main+0x1787>
    57a0: a5 df        	lda	$df                     ; 0x20df <f256main+0x17cb>
    57a2: 85 9f        	sta	$9f                     ; 0x209f <f256main+0x178b>
    57a4: 8a           	txa
    57a5: 10 4c        	bpl	$57f3 <printf+0x5a0>
    57a7: a2 00        	ldx	#$0
    57a9: 64 12        	stz	$12                     ; 0x2012 <f256main+0x16fe>
    57ab: a9 00        	lda	#$0
    57ad: 38           	sec
    57ae: f5 bc        	sbc	$bc,x                   ; 0x20bc <f256main+0x17a8>
    57b0: a0 00        	ldy	#$0
    57b2: b0 02        	bcs	$57b6 <printf+0x563>
    57b4: a0 01        	ldy	#$1
    57b6: 38           	sec
    57b7: e5 12        	sbc	$12                     ; 0x2012 <f256main+0x16fe>
    57b9: 85 13        	sta	$13                     ; 0x2013 <f256main+0x16ff>
    57bb: 64 12        	stz	$12                     ; 0x2012 <f256main+0x16fe>
    57bd: b0 04        	bcs	$57c3 <printf+0x570>
    57bf: a9 01        	lda	#$1
    57c1: 85 12        	sta	$12                     ; 0x2012 <f256main+0x16fe>
    57c3: 98           	tya
    57c4: 05 12        	ora	$12                     ; 0x2012 <f256main+0x16fe>
    57c6: 85 12        	sta	$12                     ; 0x2012 <f256main+0x16fe>
    57c8: a5 13        	lda	$13                     ; 0x2013 <f256main+0x16ff>
    57ca: 9d bc 00     	sta	$bc,x                   ; 0xbc <__zp_bss_size+0x62>
    57cd: e8           	inx
    57ce: 86 13        	stx	$13                     ; 0x2013 <f256main+0x16ff>
    57d0: a4 dc        	ldy	$dc                     ; 0x20dc <f256main+0x17c8>
    57d2: c4 13        	cpy	$13                     ; 0x2013 <f256main+0x16ff>
    57d4: d0 d5        	bne	$57ab <printf+0x558>
    57d6: 2c 8e 75     	bit	$758e                   ; 0x758e <__set_v>
    57d9: a0 01        	ldy	#$1
    57db: 80 16        	bra	$57f3 <printf+0x5a0>
    57dd: a0 01        	ldy	#$1
    57df: a6 9e        	ldx	$9e                     ; 0x209e <f256main+0x178a>
    57e1: 86 1a        	stx	$1a                     ; 0x201a <f256main+0x1706>
    57e3: a6 e0        	ldx	$e0                     ; 0x20e0 <f256main+0x17cc>
    57e5: 86 9e        	stx	$9e                     ; 0x209e <f256main+0x178a>
    57e7: a2 00        	ldx	#$0
    57e9: 86 9a        	stx	$9a                     ; 0x209a <f256main+0x1786>
    57eb: a2 00        	ldx	#$0
    57ed: 86 9b        	stx	$9b                     ; 0x209b <f256main+0x1787>
    57ef: a6 df        	ldx	$df                     ; 0x20df <f256main+0x17cb>
    57f1: 86 9f        	stx	$9f                     ; 0x209f <f256main+0x178b>
    57f3: a2 01        	ldx	#$1
    57f5: 70 02        	bvs	$57f9 <printf+0x5a6>
    57f7: a2 00        	ldx	#$0
    57f9: 86 16        	stx	$16                     ; 0x2016 <f256main+0x1702>
    57fb: a5 dc        	lda	$dc                     ; 0x20dc <f256main+0x17c8>
    57fd: 0a           	asl
    57fe: 0a           	asl
    57ff: 0a           	asl
    5800: 85 12        	sta	$12                     ; 0x2012 <f256main+0x16fe>
    5802: a2 00        	ldx	#$0
    5804: 8a           	txa
    5805: e0 00        	cpx	#$0
    5807: d0 03        	bne	$580c <printf+0x5b9>
    5809: 4c 91 58     	jmp	$5891 <printf+0x63e>
    580c: 85 17        	sta	$17                     ; 0x2017 <f256main+0x1703>
    580e: 86 96        	stx	$96                     ; 0x2096 <f256main+0x1782>
    5810: ca           	dex
    5811: 86 15        	stx	$15                     ; 0x2015 <f256main+0x1701>
    5813: a2 00        	ldx	#$0
    5815: 64 13        	stz	$13                     ; 0x2013 <f256main+0x16ff>
    5817: 80 0d        	bra	$5826 <printf+0x5d3>
    5819: a4 13        	ldy	$13                     ; 0x2013 <f256main+0x16ff>
    581b: 99 a4 00     	sta	$a4,y                   ; 0xa4 <__zp_bss_size+0x4a>
    581e: a4 15        	ldy	$15                     ; 0x2015 <f256main+0x1701>
    5820: c4 13        	cpy	$13                     ; 0x2013 <f256main+0x16ff>
    5822: f0 38        	beq	$585c <printf+0x609>
    5824: e6 13        	inc	$13                     ; 0x2013 <f256main+0x16ff>
    5826: a4 13        	ldy	$13                     ; 0x2013 <f256main+0x16ff>
    5828: b9 a4 00     	lda	$a4,y                   ; 0xa4 <__zp_bss_size+0x4a>
    582b: 0a           	asl
    582c: e0 00        	cpx	#$0
    582e: f0 02        	beq	$5832 <printf+0x5df>
    5830: 09 01        	ora	#$1
    5832: a4 db        	ldy	$db                     ; 0x20db <f256main+0x17c7>
    5834: 84 14        	sty	$14                     ; 0x2014 <f256main+0x1700>
    5836: c5 14        	cmp	$14                     ; 0x2014 <f256main+0x1700>
    5838: a2 01        	ldx	#$1
    583a: b0 02        	bcs	$583e <printf+0x5eb>
    583c: a2 00        	ldx	#$0
    583e: 90 d9        	bcc	$5819 <printf+0x5c6>
    5840: 84 14        	sty	$14                     ; 0x2014 <f256main+0x1700>
    5842: 38           	sec
    5843: e5 14        	sbc	$14                     ; 0x2014 <f256main+0x1700>
    5845: a4 13        	ldy	$13                     ; 0x2013 <f256main+0x16ff>
    5847: 99 a4 00     	sta	$a4,y                   ; 0xa4 <__zp_bss_size+0x4a>
    584a: a4 15        	ldy	$15                     ; 0x2015 <f256main+0x1701>
    584c: c4 13        	cpy	$13                     ; 0x2013 <f256main+0x16ff>
    584e: d0 d4        	bne	$5824 <printf+0x5d1>
    5850: a4 96        	ldy	$96                     ; 0x2096 <f256main+0x1782>
    5852: a6 96        	ldx	$96                     ; 0x2096 <f256main+0x1782>
    5854: e8           	inx
    5855: a9 01        	lda	#$1
    5857: 99 a4 00     	sta	$a4,y                   ; 0xa4 <__zp_bss_size+0x4a>
    585a: 86 96        	stx	$96                     ; 0x2096 <f256main+0x1782>
    585c: a6 dc        	ldx	$dc                     ; 0x20dc <f256main+0x17c8>
    585e: b5 bb        	lda	$bb,x                   ; 0x20bb <f256main+0x17a7>
    5860: aa           	tax
    5861: a0 01        	ldy	#$1
    5863: 8a           	txa
    5864: 10 47        	bpl	$58ad <printf+0x65a>
    5866: a5 96        	lda	$96                     ; 0x2096 <f256main+0x1782>
    5868: f0 34        	beq	$589e <printf+0x64b>
    586a: a2 00        	ldx	#$0
    586c: a4 db        	ldy	$db                     ; 0x20db <f256main+0x17c7>
    586e: 84 14        	sty	$14                     ; 0x2014 <f256main+0x1700>
    5870: b5 a4        	lda	$a4,x                   ; 0x20a4 <f256main+0x1790>
    5872: 1a           	inc
    5873: f6 a4        	inc	$a4,x                   ; 0x20a4 <f256main+0x1790>
    5875: c5 14        	cmp	$14                     ; 0x2014 <f256main+0x1700>
    5877: b0 03        	bcs	$587c <printf+0x629>
    5879: 4c d8 58     	jmp	$58d8 <printf+0x685>
    587c: a4 14        	ldy	$14                     ; 0x2014 <f256main+0x1700>
    587e: 84 13        	sty	$13                     ; 0x2013 <f256main+0x16ff>
    5880: 38           	sec
    5881: e5 13        	sbc	$13                     ; 0x2013 <f256main+0x16ff>
    5883: 9d a4 00     	sta	$a4,x                   ; 0xa4 <__zp_bss_size+0x4a>
    5886: e8           	inx
    5887: 86 13        	stx	$13                     ; 0x2013 <f256main+0x16ff>
    5889: a4 96        	ldy	$96                     ; 0x2096 <f256main+0x1782>
    588b: c4 13        	cpy	$13                     ; 0x2013 <f256main+0x16ff>
    588d: d0 e1        	bne	$5870 <printf+0x61d>
    588f: 80 0f        	bra	$58a0 <printf+0x64d>
    5891: 85 17        	sta	$17                     ; 0x2017 <f256main+0x1703>
    5893: a6 dc        	ldx	$dc                     ; 0x20dc <f256main+0x17c8>
    5895: b5 bb        	lda	$bb,x                   ; 0x20bb <f256main+0x17a7>
    5897: aa           	tax
    5898: 64 96        	stz	$96                     ; 0x2096 <f256main+0x1782>
    589a: 30 04        	bmi	$58a0 <printf+0x64d>
    589c: 80 0f        	bra	$58ad <printf+0x65a>
    589e: 64 96        	stz	$96                     ; 0x2096 <f256main+0x1782>
    58a0: a4 96        	ldy	$96                     ; 0x2096 <f256main+0x1782>
    58a2: a6 96        	ldx	$96                     ; 0x2096 <f256main+0x1782>
    58a4: e8           	inx
    58a5: a9 01        	lda	#$1
    58a7: 99 a4 00     	sta	$a4,y                   ; 0xa4 <__zp_bss_size+0x4a>
    58aa: a8           	tay
    58ab: 86 96        	stx	$96                     ; 0x2096 <f256main+0x1782>
    58ad: a2 01        	ldx	#$1
    58af: 64 13        	stz	$13                     ; 0x2013 <f256main+0x16ff>
    58b1: a5 dc        	lda	$dc                     ; 0x20dc <f256main+0x17c8>
    58b3: 85 14        	sta	$14                     ; 0x2014 <f256main+0x1700>
    58b5: b5 bb        	lda	$bb,x                   ; 0x20bb <f256main+0x17a7>
    58b7: 0a           	asl
    58b8: 64 15        	stz	$15                     ; 0x2015 <f256main+0x1701>
    58ba: 26 15        	rol	$15                     ; 0x2015 <f256main+0x1701>
    58bc: 05 13        	ora	$13                     ; 0x2013 <f256main+0x16ff>
    58be: 9d bb 00     	sta	$bb,x                   ; 0xbb <__zp_bss_size+0x61>
    58c1: e8           	inx
    58c2: c6 14        	dec	$14                     ; 0x2014 <f256main+0x1700>
    58c4: a5 15        	lda	$15                     ; 0x2015 <f256main+0x1701>
    58c6: 85 13        	sta	$13                     ; 0x2013 <f256main+0x16ff>
    58c8: a5 14        	lda	$14                     ; 0x2014 <f256main+0x1700>
    58ca: d0 e9        	bne	$58b5 <printf+0x662>
    58cc: a5 17        	lda	$17                     ; 0x2017 <f256main+0x1703>
    58ce: 1a           	inc
    58cf: c5 12        	cmp	$12                     ; 0x2012 <f256main+0x16fe>
    58d1: a6 96        	ldx	$96                     ; 0x2096 <f256main+0x1782>
    58d3: b0 07        	bcs	$58dc <printf+0x689>
    58d5: 4c 05 58     	jmp	$5805 <printf+0x5b2>
    58d8: a0 01        	ldy	#$1
    58da: 80 d1        	bra	$58ad <printf+0x65a>
    58dc: a5 97        	lda	$97                     ; 0x2097 <f256main+0x1783>
    58de: e6 9f        	inc	$9f                     ; 0x209f <f256main+0x178b>
    58e0: c6 9f        	dec	$9f                     ; 0x209f <f256main+0x178b>
    58e2: 10 08        	bpl	$58ec <printf+0x699>
    58e4: a2 01        	ldx	#$1
    58e6: 64 9f        	stz	$9f                     ; 0x209f <f256main+0x178b>
    58e8: 86 9e        	stx	$9e                     ; 0x209e <f256main+0x178a>
    58ea: a6 96        	ldx	$96                     ; 0x2096 <f256main+0x1782>
    58ec: 29 04        	and	#$4
    58ee: f0 2b        	beq	$591b <printf+0x6c8>
    58f0: a5 db        	lda	$db                     ; 0x20db <f256main+0x17c7>
    58f2: c9 10        	cmp	#$10
    58f4: f0 14        	beq	$590a <printf+0x6b7>
    58f6: c9 08        	cmp	#$8
    58f8: d0 21        	bne	$591b <printf+0x6c8>
    58fa: a2 00        	ldx	#$0
    58fc: e4 9f        	cpx	$9f                     ; 0x209f <f256main+0x178b>
    58fe: f0 03        	beq	$5903 <printf+0x6b0>
    5900: 4c 47 5e     	jmp	$5e47 <printf+0xbf4>
    5903: a6 96        	ldx	$96                     ; 0x2096 <f256main+0x1782>
    5905: e4 9e        	cpx	$9e                     ; 0x209e <f256main+0x178a>
    5907: 4c 49 5e     	jmp	$5e49 <printf+0xbf6>
    590a: 8a           	txa
    590b: f0 0e        	beq	$591b <printf+0x6c8>
    590d: a5 97        	lda	$97                     ; 0x2097 <f256main+0x1783>
    590f: 29 80        	and	#$80
    5911: d0 03        	bne	$5916 <printf+0x6c3>
    5913: 4c 62 5e     	jmp	$5e62 <printf+0xc0f>
    5916: a2 78        	ldx	#$78
    5918: 4c 64 5e     	jmp	$5e64 <printf+0xc11>
    591b: a6 97        	ldx	$97                     ; 0x2097 <f256main+0x1783>
    591d: a9 2d        	lda	#$2d
    591f: 85 df        	sta	$df                     ; 0x20df <f256main+0x17cb>
    5921: a5 16        	lda	$16                     ; 0x2016 <f256main+0x1702>
    5923: d0 32        	bne	$5957 <printf+0x704>
    5925: 86 12        	stx	$12                     ; 0x2012 <f256main+0x16fe>
    5927: 8a           	txa
    5928: 29 02        	and	#$2
    592a: a2 2b        	ldx	#$2b
    592c: 86 df        	stx	$df                     ; 0x20df <f256main+0x17cb>
    592e: aa           	tax
    592f: d0 26        	bne	$5957 <printf+0x704>
    5931: a5 12        	lda	$12                     ; 0x2012 <f256main+0x16fe>
    5933: 29 08        	and	#$8
    5935: d0 1c        	bne	$5953 <printf+0x700>
    5937: a2 01        	ldx	#$1
    5939: 86 dc        	stx	$dc                     ; 0x20dc <f256main+0x17c8>
    593b: a9 00        	lda	#$0
    593d: aa           	tax
    593e: 86 db        	stx	$db                     ; 0x20db <f256main+0x17c7>
    5940: 80 1c        	bra	$595e <printf+0x70b>
    5942: 85 12        	sta	$12                     ; 0x2012 <f256main+0x16fe>
    5944: a9 04        	lda	#$4
    5946: 80 04        	bra	$594c <printf+0x6f9>
    5948: 85 12        	sta	$12                     ; 0x2012 <f256main+0x16fe>
    594a: a9 02        	lda	#$2
    594c: 85 dc        	sta	$dc                     ; 0x20dc <f256main+0x17c8>
    594e: a5 12        	lda	$12                     ; 0x2012 <f256main+0x16fe>
    5950: 4c 0f 56     	jmp	$560f <printf+0x3bc>
    5953: a2 20        	ldx	#$20
    5955: 86 df        	stx	$df                     ; 0x20df <f256main+0x17cb>
    5957: a2 00        	ldx	#$0
    5959: 86 dc        	stx	$dc                     ; 0x20dc <f256main+0x17c8>
    595b: 86 db        	stx	$db                     ; 0x20db <f256main+0x17c7>
    595d: 98           	tya
    595e: a6 9f        	ldx	$9f                     ; 0x209f <f256main+0x178b>
    5960: d0 35        	bne	$5997 <printf+0x744>
    5962: a6 9e        	ldx	$9e                     ; 0x209e <f256main+0x178a>
    5964: a4 96        	ldy	$96                     ; 0x2096 <f256main+0x1782>
    5966: 84 12        	sty	$12                     ; 0x2012 <f256main+0x16fe>
    5968: e4 12        	cpx	$12                     ; 0x2012 <f256main+0x16fe>
    596a: a6 9e        	ldx	$9e                     ; 0x209e <f256main+0x178a>
    596c: 86 12        	stx	$12                     ; 0x2012 <f256main+0x16fe>
    596e: a6 9f        	ldx	$9f                     ; 0x209f <f256main+0x178b>
    5970: 86 13        	stx	$13                     ; 0x2013 <f256main+0x16ff>
    5972: b0 04        	bcs	$5978 <printf+0x725>
    5974: 84 12        	sty	$12                     ; 0x2012 <f256main+0x16fe>
    5976: 64 13        	stz	$13                     ; 0x2013 <f256main+0x16ff>
    5978: 85 18        	sta	$18                     ; 0x2018 <f256main+0x1704>
    597a: 18           	clc
    597b: 65 12        	adc	$12                     ; 0x2012 <f256main+0x16fe>
    597d: 85 16        	sta	$16                     ; 0x2016 <f256main+0x1702>
    597f: 85 14        	sta	$14                     ; 0x2014 <f256main+0x1700>
    5981: a5 13        	lda	$13                     ; 0x2013 <f256main+0x16ff>
    5983: 69 00        	adc	#$0
    5985: 85 15        	sta	$15                     ; 0x2015 <f256main+0x1701>
    5987: c5 1a        	cmp	$1a                     ; 0x201a <f256main+0x1706>
    5989: d0 1e        	bne	$59a9 <printf+0x756>
    598b: a6 1a        	ldx	$1a                     ; 0x201a <f256main+0x1706>
    598d: 86 17        	stx	$17                     ; 0x2017 <f256main+0x1703>
    598f: a6 a0        	ldx	$a0                     ; 0x20a0 <f256main+0x178c>
    5991: a5 16        	lda	$16                     ; 0x2016 <f256main+0x1702>
    5993: c5 a0        	cmp	$a0                     ; 0x20a0 <f256main+0x178c>
    5995: 80 1c        	bra	$59b3 <printf+0x760>
    5997: a6 9f        	ldx	$9f                     ; 0x209f <f256main+0x178b>
    5999: e0 00        	cpx	#$0
    599b: a6 9e        	ldx	$9e                     ; 0x209e <f256main+0x178a>
    599d: 86 12        	stx	$12                     ; 0x2012 <f256main+0x16fe>
    599f: a6 9f        	ldx	$9f                     ; 0x209f <f256main+0x178b>
    59a1: 86 13        	stx	$13                     ; 0x2013 <f256main+0x16ff>
    59a3: a4 96        	ldy	$96                     ; 0x2096 <f256main+0x1782>
    59a5: 90 cd        	bcc	$5974 <printf+0x721>
    59a7: 80 cf        	bra	$5978 <printf+0x725>
    59a9: a6 a0        	ldx	$a0                     ; 0x20a0 <f256main+0x178c>
    59ab: 5a           	phy
    59ac: a4 1a        	ldy	$1a                     ; 0x201a <f256main+0x1706>
    59ae: 84 17        	sty	$17                     ; 0x2017 <f256main+0x1703>
    59b0: 7a           	ply
    59b1: c5 1a        	cmp	$1a                     ; 0x201a <f256main+0x1706>
    59b3: 64 a1        	stz	$a1                     ; 0x20a1 <f256main+0x178d>
    59b5: 64 a0        	stz	$a0                     ; 0x20a0 <f256main+0x178c>
    59b7: 90 03        	bcc	$59bc <printf+0x769>
    59b9: 4c 5d 5a     	jmp	$5a5d <printf+0x80a>
    59bc: a5 97        	lda	$97                     ; 0x2097 <f256main+0x1783>
    59be: 29 11        	and	#$11
    59c0: 86 16        	stx	$16                     ; 0x2016 <f256main+0x1702>
    59c2: f0 0f        	beq	$59d3 <printf+0x780>
    59c4: 8a           	txa
    59c5: 38           	sec
    59c6: e5 14        	sbc	$14                     ; 0x2014 <f256main+0x1700>
    59c8: 85 a1        	sta	$a1                     ; 0x20a1 <f256main+0x178d>
    59ca: a5 1a        	lda	$1a                     ; 0x201a <f256main+0x1706>
    59cc: e5 15        	sbc	$15                     ; 0x2015 <f256main+0x1701>
    59ce: 85 a0        	sta	$a0                     ; 0x20a0 <f256main+0x178c>
    59d0: 4c 5d 5a     	jmp	$5a5d <printf+0x80a>
    59d3: a6 cb        	ldx	$cb                     ; 0x20cb <f256main+0x17b7>
    59d5: 86 14        	stx	$14                     ; 0x2014 <f256main+0x1700>
    59d7: 38           	sec
    59d8: a5 18        	lda	$18                     ; 0x2018 <f256main+0x1704>
    59da: e5 16        	sbc	$16                     ; 0x2016 <f256main+0x1702>
    59dc: aa           	tax
    59dd: a9 00        	lda	#$0
    59df: e5 17        	sbc	$17                     ; 0x2017 <f256main+0x1703>
    59e1: a8           	tay
    59e2: 18           	clc
    59e3: 8a           	txa
    59e4: 65 12        	adc	$12                     ; 0x2012 <f256main+0x16fe>
    59e6: 85 97        	sta	$97                     ; 0x2097 <f256main+0x1783>
    59e8: 98           	tya
    59e9: 65 13        	adc	$13                     ; 0x2013 <f256main+0x16ff>
    59eb: a4 cc        	ldy	$cc                     ; 0x20cc <f256main+0x17b8>
    59ed: 4c 41 5a     	jmp	$5a41 <printf+0x7ee>
    59f0: c4 ca        	cpy	$ca                     ; 0x20ca <f256main+0x17b6>
    59f2: b0 2f        	bcs	$5a23 <printf+0x7d0>
    59f4: a6 d6        	ldx	$d6                     ; 0x20d6 <f256main+0x17c2>
    59f6: e4 9b        	cpx	$9b                     ; 0x209b <f256main+0x1787>
    59f8: d0 18        	bne	$5a12 <printf+0x7bf>
    59fa: a6 d5        	ldx	$d5                     ; 0x20d5 <f256main+0x17c1>
    59fc: e4 9a        	cpx	$9a                     ; 0x209a <f256main+0x1786>
    59fe: d0 12        	bne	$5a12 <printf+0x7bf>
    5a00: 18           	clc
    5a01: a5 14        	lda	$14                     ; 0x2014 <f256main+0x1700>
    5a03: 65 cf        	adc	$cf                     ; 0x20cf <f256main+0x17bb>
    5a05: 85 12        	sta	$12                     ; 0x2012 <f256main+0x16fe>
    5a07: 98           	tya
    5a08: 65 d0        	adc	$d0                     ; 0x20d0 <f256main+0x17bc>
    5a0a: 85 13        	sta	$13                     ; 0x2013 <f256main+0x16ff>
    5a0c: a9 20        	lda	#$20
    5a0e: 92 12        	sta	($12)                   ; 0x2012 <f256main+0x16fe>
    5a10: 80 0f        	bra	$5a21 <printf+0x7ce>
    5a12: a2 20        	ldx	#$20
    5a14: 86 35        	stx	$35                     ; 0x2035 <f256main+0x1721>
    5a16: a2 35        	ldx	#$35
    5a18: 86 12        	stx	$12                     ; 0x2012 <f256main+0x16fe>
    5a1a: a2 00        	ldx	#$0
    5a1c: 86 13        	stx	$13                     ; 0x2013 <f256main+0x16ff>
    5a1e: 20 9c 2f     	jsr	$2f9c <textPrint>
    5a21: a5 a0        	lda	$a0                     ; 0x20a0 <f256main+0x178c>
    5a23: a6 cb        	ldx	$cb                     ; 0x20cb <f256main+0x17b7>
    5a25: a4 cc        	ldy	$cc                     ; 0x20cc <f256main+0x17b8>
    5a27: e8           	inx
    5a28: d0 01        	bne	$5a2b <printf+0x7d8>
    5a2a: c8           	iny
    5a2b: 86 14        	stx	$14                     ; 0x2014 <f256main+0x1700>
    5a2d: 86 cb        	stx	$cb                     ; 0x20cb <f256main+0x17b7>
    5a2f: 84 cc        	sty	$cc                     ; 0x20cc <f256main+0x17b8>
    5a31: a6 97        	ldx	$97                     ; 0x2097 <f256main+0x1783>
    5a33: e8           	inx
    5a34: d0 01        	bne	$5a37 <printf+0x7e4>
    5a36: 1a           	inc
    5a37: 86 97        	stx	$97                     ; 0x2097 <f256main+0x1783>
    5a39: c9 00        	cmp	#$0
    5a3b: d0 04        	bne	$5a41 <printf+0x7ee>
    5a3d: e0 00        	cpx	#$0
    5a3f: f0 16        	beq	$5a57 <printf+0x804>
    5a41: 85 a0        	sta	$a0                     ; 0x20a0 <f256main+0x178c>
    5a43: c4 ca        	cpy	$ca                     ; 0x20ca <f256main+0x17b6>
    5a45: f0 03        	beq	$5a4a <printf+0x7f7>
    5a47: 4c f0 59     	jmp	$59f0 <printf+0x79d>
    5a4a: a6 c9        	ldx	$c9                     ; 0x20c9 <f256main+0x17b5>
    5a4c: 86 12        	stx	$12                     ; 0x2012 <f256main+0x16fe>
    5a4e: a6 14        	ldx	$14                     ; 0x2014 <f256main+0x1700>
    5a50: e4 12        	cpx	$12                     ; 0x2012 <f256main+0x16fe>
    5a52: b0 cf        	bcs	$5a23 <printf+0x7d0>
    5a54: 4c f4 59     	jmp	$59f4 <printf+0x7a1>
    5a57: 64 a1        	stz	$a1                     ; 0x20a1 <f256main+0x178d>
    5a59: 64 a0        	stz	$a0                     ; 0x20a0 <f256main+0x178c>
    5a5b: a4 96        	ldy	$96                     ; 0x2096 <f256main+0x1782>
    5a5d: a6 dc        	ldx	$dc                     ; 0x20dc <f256main+0x17c8>
    5a5f: f0 03        	beq	$5a64 <printf+0x811>
    5a61: 4c bb 5a     	jmp	$5abb <printf+0x868>
    5a64: a6 cb        	ldx	$cb                     ; 0x20cb <f256main+0x17b7>
    5a66: a5 cc        	lda	$cc                     ; 0x20cc <f256main+0x17b8>
    5a68: c5 ca        	cmp	$ca                     ; 0x20ca <f256main+0x17b6>
    5a6a: d0 10        	bne	$5a7c <printf+0x829>
    5a6c: 86 13        	stx	$13                     ; 0x2013 <f256main+0x16ff>
    5a6e: a6 c9        	ldx	$c9                     ; 0x20c9 <f256main+0x17b5>
    5a70: 86 12        	stx	$12                     ; 0x2012 <f256main+0x16fe>
    5a72: a4 96        	ldy	$96                     ; 0x2096 <f256main+0x1782>
    5a74: a6 13        	ldx	$13                     ; 0x2013 <f256main+0x16ff>
    5a76: e4 12        	cpx	$12                     ; 0x2012 <f256main+0x16fe>
    5a78: 90 08        	bcc	$5a82 <printf+0x82f>
    5a7a: 80 39        	bra	$5ab5 <printf+0x862>
    5a7c: 86 13        	stx	$13                     ; 0x2013 <f256main+0x16ff>
    5a7e: c5 ca        	cmp	$ca                     ; 0x20ca <f256main+0x17b6>
    5a80: b0 33        	bcs	$5ab5 <printf+0x862>
    5a82: a6 d6        	ldx	$d6                     ; 0x20d6 <f256main+0x17c2>
    5a84: e4 9b        	cpx	$9b                     ; 0x209b <f256main+0x1787>
    5a86: d0 1c        	bne	$5aa4 <printf+0x851>
    5a88: a6 d5        	ldx	$d5                     ; 0x20d5 <f256main+0x17c1>
    5a8a: e4 9a        	cpx	$9a                     ; 0x209a <f256main+0x1786>
    5a8c: d0 16        	bne	$5aa4 <printf+0x851>
    5a8e: 18           	clc
    5a8f: 85 12        	sta	$12                     ; 0x2012 <f256main+0x16fe>
    5a91: a5 13        	lda	$13                     ; 0x2013 <f256main+0x16ff>
    5a93: 65 cf        	adc	$cf                     ; 0x20cf <f256main+0x17bb>
    5a95: aa           	tax
    5a96: a5 12        	lda	$12                     ; 0x2012 <f256main+0x16fe>
    5a98: 65 d0        	adc	$d0                     ; 0x20d0 <f256main+0x17bc>
    5a9a: 86 12        	stx	$12                     ; 0x2012 <f256main+0x16fe>
    5a9c: 85 13        	sta	$13                     ; 0x2013 <f256main+0x16ff>
    5a9e: a5 df        	lda	$df                     ; 0x20df <f256main+0x17cb>
    5aa0: 92 12        	sta	($12)                   ; 0x2012 <f256main+0x16fe>
    5aa2: 80 0f        	bra	$5ab3 <printf+0x860>
    5aa4: a6 df        	ldx	$df                     ; 0x20df <f256main+0x17cb>
    5aa6: 86 35        	stx	$35                     ; 0x2035 <f256main+0x1721>
    5aa8: a2 35        	ldx	#$35
    5aaa: 86 12        	stx	$12                     ; 0x2012 <f256main+0x16fe>
    5aac: a2 00        	ldx	#$0
    5aae: 86 13        	stx	$13                     ; 0x2013 <f256main+0x16ff>
    5ab0: 20 9c 2f     	jsr	$2f9c <textPrint>
    5ab3: a4 96        	ldy	$96                     ; 0x2096 <f256main+0x1782>
    5ab5: e6 cb        	inc	$cb                     ; 0x20cb <f256main+0x17b7>
    5ab7: d0 02        	bne	$5abb <printf+0x868>
    5ab9: e6 cc        	inc	$cc                     ; 0x20cc <f256main+0x17b8>
    5abb: a6 db        	ldx	$db                     ; 0x20db <f256main+0x17c7>
    5abd: d0 03        	bne	$5ac2 <printf+0x86f>
    5abf: 4c 19 5b     	jmp	$5b19 <printf+0x8c6>
    5ac2: a6 cb        	ldx	$cb                     ; 0x20cb <f256main+0x17b7>
    5ac4: a5 cc        	lda	$cc                     ; 0x20cc <f256main+0x17b8>
    5ac6: c5 ca        	cmp	$ca                     ; 0x20ca <f256main+0x17b6>
    5ac8: d0 10        	bne	$5ada <printf+0x887>
    5aca: 86 13        	stx	$13                     ; 0x2013 <f256main+0x16ff>
    5acc: a6 c9        	ldx	$c9                     ; 0x20c9 <f256main+0x17b5>
    5ace: 86 12        	stx	$12                     ; 0x2012 <f256main+0x16fe>
    5ad0: a4 96        	ldy	$96                     ; 0x2096 <f256main+0x1782>
    5ad2: a6 13        	ldx	$13                     ; 0x2013 <f256main+0x16ff>
    5ad4: e4 12        	cpx	$12                     ; 0x2012 <f256main+0x16fe>
    5ad6: 90 08        	bcc	$5ae0 <printf+0x88d>
    5ad8: 80 39        	bra	$5b13 <printf+0x8c0>
    5ada: 86 13        	stx	$13                     ; 0x2013 <f256main+0x16ff>
    5adc: c5 ca        	cmp	$ca                     ; 0x20ca <f256main+0x17b6>
    5ade: b0 33        	bcs	$5b13 <printf+0x8c0>
    5ae0: a6 d6        	ldx	$d6                     ; 0x20d6 <f256main+0x17c2>
    5ae2: e4 9b        	cpx	$9b                     ; 0x209b <f256main+0x1787>
    5ae4: d0 1c        	bne	$5b02 <printf+0x8af>
    5ae6: a6 d5        	ldx	$d5                     ; 0x20d5 <f256main+0x17c1>
    5ae8: e4 9a        	cpx	$9a                     ; 0x209a <f256main+0x1786>
    5aea: d0 16        	bne	$5b02 <printf+0x8af>
    5aec: 18           	clc
    5aed: 85 12        	sta	$12                     ; 0x2012 <f256main+0x16fe>
    5aef: a5 13        	lda	$13                     ; 0x2013 <f256main+0x16ff>
    5af1: 65 cf        	adc	$cf                     ; 0x20cf <f256main+0x17bb>
    5af3: aa           	tax
    5af4: a5 12        	lda	$12                     ; 0x2012 <f256main+0x16fe>
    5af6: 65 d0        	adc	$d0                     ; 0x20d0 <f256main+0x17bc>
    5af8: 86 12        	stx	$12                     ; 0x2012 <f256main+0x16fe>
    5afa: 85 13        	sta	$13                     ; 0x2013 <f256main+0x16ff>
    5afc: a5 e0        	lda	$e0                     ; 0x20e0 <f256main+0x17cc>
    5afe: 92 12        	sta	($12)                   ; 0x2012 <f256main+0x16fe>
    5b00: 80 0f        	bra	$5b11 <printf+0x8be>
    5b02: a6 e0        	ldx	$e0                     ; 0x20e0 <f256main+0x17cc>
    5b04: 86 35        	stx	$35                     ; 0x2035 <f256main+0x1721>
    5b06: a2 35        	ldx	#$35
    5b08: 86 12        	stx	$12                     ; 0x2012 <f256main+0x16fe>
    5b0a: a2 00        	ldx	#$0
    5b0c: 86 13        	stx	$13                     ; 0x2013 <f256main+0x16ff>
    5b0e: 20 9c 2f     	jsr	$2f9c <textPrint>
    5b11: a4 96        	ldy	$96                     ; 0x2096 <f256main+0x1782>
    5b13: e6 cb        	inc	$cb                     ; 0x20cb <f256main+0x17b7>
    5b15: d0 02        	bne	$5b19 <printf+0x8c6>
    5b17: e6 cc        	inc	$cc                     ; 0x20cc <f256main+0x17b8>
    5b19: a9 10        	lda	#$10
    5b1b: 25 c7        	and	$c7                     ; 0x20c7 <f256main+0x17b3>
    5b1d: d0 03        	bne	$5b22 <printf+0x8cf>
    5b1f: 4c b3 5b     	jmp	$5bb3 <printf+0x960>
    5b22: a5 c7        	lda	$c7                     ; 0x20c7 <f256main+0x17b3>
    5b24: 29 01        	and	#$1
    5b26: f0 03        	beq	$5b2b <printf+0x8d8>
    5b28: 4c b3 5b     	jmp	$5bb3 <printf+0x960>
    5b2b: a6 a1        	ldx	$a1                     ; 0x20a1 <f256main+0x178d>
    5b2d: a5 a0        	lda	$a0                     ; 0x20a0 <f256main+0x178c>
    5b2f: d0 06        	bne	$5b37 <printf+0x8e4>
    5b31: 8a           	txa
    5b32: d0 03        	bne	$5b37 <printf+0x8e4>
    5b34: 4c 77 5e     	jmp	$5e77 <printf+0xc24>
    5b37: a6 cb        	ldx	$cb                     ; 0x20cb <f256main+0x17b7>
    5b39: 86 13        	stx	$13                     ; 0x2013 <f256main+0x16ff>
    5b3b: a5 cc        	lda	$cc                     ; 0x20cc <f256main+0x17b8>
    5b3d: 4c 99 5b     	jmp	$5b99 <printf+0x946>
    5b40: c5 ca        	cmp	$ca                     ; 0x20ca <f256main+0x17b6>
    5b42: b0 2e        	bcs	$5b72 <printf+0x91f>
    5b44: a6 d6        	ldx	$d6                     ; 0x20d6 <f256main+0x17c2>
    5b46: e4 9b        	cpx	$9b                     ; 0x209b <f256main+0x1787>
    5b48: d0 19        	bne	$5b63 <printf+0x910>
    5b4a: a6 d5        	ldx	$d5                     ; 0x20d5 <f256main+0x17c1>
    5b4c: e4 9a        	cpx	$9a                     ; 0x209a <f256main+0x1786>
    5b4e: d0 13        	bne	$5b63 <printf+0x910>
    5b50: 18           	clc
    5b51: aa           	tax
    5b52: a5 13        	lda	$13                     ; 0x2013 <f256main+0x16ff>
    5b54: 65 cf        	adc	$cf                     ; 0x20cf <f256main+0x17bb>
    5b56: 85 12        	sta	$12                     ; 0x2012 <f256main+0x16fe>
    5b58: 8a           	txa
    5b59: 65 d0        	adc	$d0                     ; 0x20d0 <f256main+0x17bc>
    5b5b: 85 13        	sta	$13                     ; 0x2013 <f256main+0x16ff>
    5b5d: a9 30        	lda	#$30
    5b5f: 92 12        	sta	($12)                   ; 0x2012 <f256main+0x16fe>
    5b61: 80 0f        	bra	$5b72 <printf+0x91f>
    5b63: a2 30        	ldx	#$30
    5b65: 86 35        	stx	$35                     ; 0x2035 <f256main+0x1721>
    5b67: a2 35        	ldx	#$35
    5b69: 86 12        	stx	$12                     ; 0x2012 <f256main+0x16fe>
    5b6b: a2 00        	ldx	#$0
    5b6d: 86 13        	stx	$13                     ; 0x2013 <f256main+0x16ff>
    5b6f: 20 9c 2f     	jsr	$2f9c <textPrint>
    5b72: a6 cb        	ldx	$cb                     ; 0x20cb <f256main+0x17b7>
    5b74: a5 cc        	lda	$cc                     ; 0x20cc <f256main+0x17b8>
    5b76: e8           	inx
    5b77: d0 01        	bne	$5b7a <printf+0x927>
    5b79: 1a           	inc
    5b7a: 86 13        	stx	$13                     ; 0x2013 <f256main+0x16ff>
    5b7c: 86 cb        	stx	$cb                     ; 0x20cb <f256main+0x17b7>
    5b7e: 85 cc        	sta	$cc                     ; 0x20cc <f256main+0x17b8>
    5b80: a4 a1        	ldy	$a1                     ; 0x20a1 <f256main+0x178d>
    5b82: a6 a0        	ldx	$a0                     ; 0x20a0 <f256main+0x178c>
    5b84: 86 12        	stx	$12                     ; 0x2012 <f256main+0x16fe>
    5b86: 88           	dey
    5b87: c0 ff        	cpy	#$ff
    5b89: d0 02        	bne	$5b8d <printf+0x93a>
    5b8b: c6 12        	dec	$12                     ; 0x2012 <f256main+0x16fe>
    5b8d: 84 a1        	sty	$a1                     ; 0x20a1 <f256main+0x178d>
    5b8f: a6 12        	ldx	$12                     ; 0x2012 <f256main+0x16fe>
    5b91: 86 a0        	stx	$a0                     ; 0x20a0 <f256main+0x178c>
    5b93: d0 04        	bne	$5b99 <printf+0x946>
    5b95: c0 00        	cpy	#$0
    5b97: f0 14        	beq	$5bad <printf+0x95a>
    5b99: c5 ca        	cmp	$ca                     ; 0x20ca <f256main+0x17b6>
    5b9b: f0 03        	beq	$5ba0 <printf+0x94d>
    5b9d: 4c 40 5b     	jmp	$5b40 <printf+0x8ed>
    5ba0: a6 c9        	ldx	$c9                     ; 0x20c9 <f256main+0x17b5>
    5ba2: 86 12        	stx	$12                     ; 0x2012 <f256main+0x16fe>
    5ba4: a6 13        	ldx	$13                     ; 0x2013 <f256main+0x16ff>
    5ba6: e4 12        	cpx	$12                     ; 0x2012 <f256main+0x16fe>
    5ba8: b0 c8        	bcs	$5b72 <printf+0x91f>
    5baa: 4c 44 5b     	jmp	$5b44 <printf+0x8f1>
    5bad: 64 a1        	stz	$a1                     ; 0x20a1 <f256main+0x178d>
    5baf: 64 a0        	stz	$a0                     ; 0x20a0 <f256main+0x178c>
    5bb1: a4 96        	ldy	$96                     ; 0x2096 <f256main+0x1782>
    5bb3: a2 00        	ldx	#$0
    5bb5: e4 9f        	cpx	$9f                     ; 0x209f <f256main+0x178b>
    5bb7: d0 07        	bne	$5bc0 <printf+0x96d>
    5bb9: c4 9e        	cpy	$9e                     ; 0x209e <f256main+0x178a>
    5bbb: 90 0a        	bcc	$5bc7 <printf+0x974>
    5bbd: 4c 3f 5c     	jmp	$5c3f <printf+0x9ec>
    5bc0: e4 9f        	cpx	$9f                     ; 0x209f <f256main+0x178b>
    5bc2: 90 03        	bcc	$5bc7 <printf+0x974>
    5bc4: 4c 3f 5c     	jmp	$5c3f <printf+0x9ec>
    5bc7: a6 cb        	ldx	$cb                     ; 0x20cb <f256main+0x17b7>
    5bc9: 86 13        	stx	$13                     ; 0x2013 <f256main+0x16ff>
    5bcb: a5 cc        	lda	$cc                     ; 0x20cc <f256main+0x17b8>
    5bcd: a2 ff        	ldx	#$ff
    5bcf: c6 9e        	dec	$9e                     ; 0x209e <f256main+0x178a>
    5bd1: e4 9e        	cpx	$9e                     ; 0x209e <f256main+0x178a>
    5bd3: d0 02        	bne	$5bd7 <printf+0x984>
    5bd5: c6 9f        	dec	$9f                     ; 0x209f <f256main+0x178b>
    5bd7: c5 ca        	cmp	$ca                     ; 0x20ca <f256main+0x17b6>
    5bd9: d0 0c        	bne	$5be7 <printf+0x994>
    5bdb: a6 c9        	ldx	$c9                     ; 0x20c9 <f256main+0x17b5>
    5bdd: 86 12        	stx	$12                     ; 0x2012 <f256main+0x16fe>
    5bdf: a6 13        	ldx	$13                     ; 0x2013 <f256main+0x16ff>
    5be1: e4 12        	cpx	$12                     ; 0x2012 <f256main+0x16fe>
    5be3: 90 06        	bcc	$5beb <printf+0x998>
    5be5: 80 32        	bra	$5c19 <printf+0x9c6>
    5be7: c5 ca        	cmp	$ca                     ; 0x20ca <f256main+0x17b6>
    5be9: b0 2e        	bcs	$5c19 <printf+0x9c6>
    5beb: a6 d6        	ldx	$d6                     ; 0x20d6 <f256main+0x17c2>
    5bed: e4 9b        	cpx	$9b                     ; 0x209b <f256main+0x1787>
    5bef: d0 19        	bne	$5c0a <printf+0x9b7>
    5bf1: a6 d5        	ldx	$d5                     ; 0x20d5 <f256main+0x17c1>
    5bf3: e4 9a        	cpx	$9a                     ; 0x209a <f256main+0x1786>
    5bf5: d0 13        	bne	$5c0a <printf+0x9b7>
    5bf7: 18           	clc
    5bf8: aa           	tax
    5bf9: a5 13        	lda	$13                     ; 0x2013 <f256main+0x16ff>
    5bfb: 65 cf        	adc	$cf                     ; 0x20cf <f256main+0x17bb>
    5bfd: 85 12        	sta	$12                     ; 0x2012 <f256main+0x16fe>
    5bff: 8a           	txa
    5c00: 65 d0        	adc	$d0                     ; 0x20d0 <f256main+0x17bc>
    5c02: 85 13        	sta	$13                     ; 0x2013 <f256main+0x16ff>
    5c04: a9 30        	lda	#$30
    5c06: 92 12        	sta	($12)                   ; 0x2012 <f256main+0x16fe>
    5c08: 80 0f        	bra	$5c19 <printf+0x9c6>
    5c0a: a2 30        	ldx	#$30
    5c0c: 86 35        	stx	$35                     ; 0x2035 <f256main+0x1721>
    5c0e: a2 35        	ldx	#$35
    5c10: 86 12        	stx	$12                     ; 0x2012 <f256main+0x16fe>
    5c12: a2 00        	ldx	#$0
    5c14: 86 13        	stx	$13                     ; 0x2013 <f256main+0x16ff>
    5c16: 20 9c 2f     	jsr	$2f9c <textPrint>
    5c19: a6 cb        	ldx	$cb                     ; 0x20cb <f256main+0x17b7>
    5c1b: a5 cc        	lda	$cc                     ; 0x20cc <f256main+0x17b8>
    5c1d: e8           	inx
    5c1e: d0 01        	bne	$5c21 <printf+0x9ce>
    5c20: 1a           	inc
    5c21: 86 13        	stx	$13                     ; 0x2013 <f256main+0x16ff>
    5c23: 86 cb        	stx	$cb                     ; 0x20cb <f256main+0x17b7>
    5c25: 85 cc        	sta	$cc                     ; 0x20cc <f256main+0x17b8>
    5c27: a2 00        	ldx	#$0
    5c29: e4 9f        	cpx	$9f                     ; 0x209f <f256main+0x178b>
    5c2b: d0 09        	bne	$5c36 <printf+0x9e3>
    5c2d: a4 96        	ldy	$96                     ; 0x2096 <f256main+0x1782>
    5c2f: c4 9e        	cpy	$9e                     ; 0x209e <f256main+0x178a>
    5c31: b0 0c        	bcs	$5c3f <printf+0x9ec>
    5c33: 4c cd 5b     	jmp	$5bcd <printf+0x97a>
    5c36: e4 9f        	cpx	$9f                     ; 0x209f <f256main+0x178b>
    5c38: a4 96        	ldy	$96                     ; 0x2096 <f256main+0x1782>
    5c3a: b0 03        	bcs	$5c3f <printf+0x9ec>
    5c3c: 4c cd 5b     	jmp	$5bcd <printf+0x97a>
    5c3f: 98           	tya
    5c40: d0 03        	bne	$5c45 <printf+0x9f2>
    5c42: 4c 48 5d     	jmp	$5d48 <printf+0xaf5>
    5c45: 88           	dey
    5c46: d0 03        	bne	$5c4b <printf+0x9f8>
    5c48: 4c dd 5c     	jmp	$5cdd <printf+0xa8a>
    5c4b: 84 9e        	sty	$9e                     ; 0x209e <f256main+0x178a>
    5c4d: a6 e1        	ldx	$e1                     ; 0x20e1 <f256main+0x17cd>
    5c4f: 8a           	txa
    5c50: 18           	clc
    5c51: 65 9e        	adc	$9e                     ; 0x209e <f256main+0x178a>
    5c53: 85 96        	sta	$96                     ; 0x2096 <f256main+0x1782>
    5c55: a5 e2        	lda	$e2                     ; 0x20e2 <f256main+0x17ce>
    5c57: 69 00        	adc	#$0
    5c59: 85 97        	sta	$97                     ; 0x2097 <f256main+0x1783>
    5c5b: 4c cf 5c     	jmp	$5ccf <printf+0xa7c>
    5c5e: a8           	tay
    5c5f: a9 80        	lda	#$80
    5c61: 25 c7        	and	$c7                     ; 0x20c7 <f256main+0x17b3>
    5c63: f0 04        	beq	$5c69 <printf+0xa16>
    5c65: a2 61        	ldx	#$61
    5c67: 80 02        	bra	$5c6b <printf+0xa18>
    5c69: a2 41        	ldx	#$41
    5c6b: 86 12        	stx	$12                     ; 0x2012 <f256main+0x16fe>
    5c6d: 18           	clc
    5c6e: 98           	tya
    5c6f: 65 12        	adc	$12                     ; 0x2012 <f256main+0x16fe>
    5c71: 18           	clc
    5c72: 69 f6        	adc	#$f6
    5c74: a4 cb        	ldy	$cb                     ; 0x20cb <f256main+0x17b7>
    5c76: a6 cc        	ldx	$cc                     ; 0x20cc <f256main+0x17b8>
    5c78: e4 ca        	cpx	$ca                     ; 0x20ca <f256main+0x17b6>
    5c7a: d0 0c        	bne	$5c88 <printf+0xa35>
    5c7c: 86 14        	stx	$14                     ; 0x2014 <f256main+0x1700>
    5c7e: a6 c9        	ldx	$c9                     ; 0x20c9 <f256main+0x17b5>
    5c80: 86 12        	stx	$12                     ; 0x2012 <f256main+0x16fe>
    5c82: c4 12        	cpy	$12                     ; 0x2012 <f256main+0x16fe>
    5c84: 90 08        	bcc	$5c8e <printf+0xa3b>
    5c86: 80 31        	bra	$5cb9 <printf+0xa66>
    5c88: 86 14        	stx	$14                     ; 0x2014 <f256main+0x1700>
    5c8a: e4 ca        	cpx	$ca                     ; 0x20ca <f256main+0x17b6>
    5c8c: b0 2b        	bcs	$5cb9 <printf+0xa66>
    5c8e: a6 d6        	ldx	$d6                     ; 0x20d6 <f256main+0x17c2>
    5c90: e4 9b        	cpx	$9b                     ; 0x209b <f256main+0x1787>
    5c92: d0 18        	bne	$5cac <printf+0xa59>
    5c94: a6 d5        	ldx	$d5                     ; 0x20d5 <f256main+0x17c1>
    5c96: e4 9a        	cpx	$9a                     ; 0x209a <f256main+0x1786>
    5c98: d0 12        	bne	$5cac <printf+0xa59>
    5c9a: 18           	clc
    5c9b: aa           	tax
    5c9c: 98           	tya
    5c9d: 65 cf        	adc	$cf                     ; 0x20cf <f256main+0x17bb>
    5c9f: 85 12        	sta	$12                     ; 0x2012 <f256main+0x16fe>
    5ca1: a5 14        	lda	$14                     ; 0x2014 <f256main+0x1700>
    5ca3: 65 d0        	adc	$d0                     ; 0x20d0 <f256main+0x17bc>
    5ca5: 85 13        	sta	$13                     ; 0x2013 <f256main+0x16ff>
    5ca7: 8a           	txa
    5ca8: 92 12        	sta	($12)                   ; 0x2012 <f256main+0x16fe>
    5caa: 80 0d        	bra	$5cb9 <printf+0xa66>
    5cac: 85 35        	sta	$35                     ; 0x2035 <f256main+0x1721>
    5cae: a2 35        	ldx	#$35
    5cb0: 86 12        	stx	$12                     ; 0x2012 <f256main+0x16fe>
    5cb2: a2 00        	ldx	#$0
    5cb4: 86 13        	stx	$13                     ; 0x2013 <f256main+0x16ff>
    5cb6: 20 9c 2f     	jsr	$2f9c <textPrint>
    5cb9: e6 cb        	inc	$cb                     ; 0x20cb <f256main+0x17b7>
    5cbb: d0 02        	bne	$5cbf <printf+0xa6c>
    5cbd: e6 cc        	inc	$cc                     ; 0x20cc <f256main+0x17b8>
    5cbf: c6 9e        	dec	$9e                     ; 0x209e <f256main+0x178a>
    5cc1: a2 ff        	ldx	#$ff
    5cc3: c6 96        	dec	$96                     ; 0x2096 <f256main+0x1782>
    5cc5: e4 96        	cpx	$96                     ; 0x2096 <f256main+0x1782>
    5cc7: d0 02        	bne	$5ccb <printf+0xa78>
    5cc9: c6 97        	dec	$97                     ; 0x2097 <f256main+0x1783>
    5ccb: a5 9e        	lda	$9e                     ; 0x209e <f256main+0x178a>
    5ccd: f0 0e        	beq	$5cdd <printf+0xa8a>
    5ccf: b2 96        	lda	($96)                   ; 0x2096 <f256main+0x1782>
    5cd1: c9 0a        	cmp	#$a
    5cd3: 90 03        	bcc	$5cd8 <printf+0xa85>
    5cd5: 4c 5e 5c     	jmp	$5c5e <printf+0xa0b>
    5cd8: 09 30        	ora	#$30
    5cda: 4c 74 5c     	jmp	$5c74 <printf+0xa21>
    5cdd: a5 a4        	lda	$a4                     ; 0x20a4 <f256main+0x1790>
    5cdf: c9 0a        	cmp	#$a
    5ce1: b0 04        	bcs	$5ce7 <printf+0xa94>
    5ce3: 09 30        	ora	#$30
    5ce5: 80 16        	bra	$5cfd <printf+0xaaa>
    5ce7: a8           	tay
    5ce8: a9 80        	lda	#$80
    5cea: 25 c7        	and	$c7                     ; 0x20c7 <f256main+0x17b3>
    5cec: f0 04        	beq	$5cf2 <printf+0xa9f>
    5cee: a2 61        	ldx	#$61
    5cf0: 80 02        	bra	$5cf4 <printf+0xaa1>
    5cf2: a2 41        	ldx	#$41
    5cf4: 86 12        	stx	$12                     ; 0x2012 <f256main+0x16fe>
    5cf6: 18           	clc
    5cf7: 98           	tya
    5cf8: 65 12        	adc	$12                     ; 0x2012 <f256main+0x16fe>
    5cfa: 18           	clc
    5cfb: 69 f6        	adc	#$f6
    5cfd: a4 cb        	ldy	$cb                     ; 0x20cb <f256main+0x17b7>
    5cff: a6 cc        	ldx	$cc                     ; 0x20cc <f256main+0x17b8>
    5d01: e4 ca        	cpx	$ca                     ; 0x20ca <f256main+0x17b6>
    5d03: d0 0c        	bne	$5d11 <printf+0xabe>
    5d05: 86 14        	stx	$14                     ; 0x2014 <f256main+0x1700>
    5d07: a6 c9        	ldx	$c9                     ; 0x20c9 <f256main+0x17b5>
    5d09: 86 12        	stx	$12                     ; 0x2012 <f256main+0x16fe>
    5d0b: c4 12        	cpy	$12                     ; 0x2012 <f256main+0x16fe>
    5d0d: 90 08        	bcc	$5d17 <printf+0xac4>
    5d0f: 80 31        	bra	$5d42 <printf+0xaef>
    5d11: 86 14        	stx	$14                     ; 0x2014 <f256main+0x1700>
    5d13: e4 ca        	cpx	$ca                     ; 0x20ca <f256main+0x17b6>
    5d15: b0 2b        	bcs	$5d42 <printf+0xaef>
    5d17: a6 d6        	ldx	$d6                     ; 0x20d6 <f256main+0x17c2>
    5d19: e4 9b        	cpx	$9b                     ; 0x209b <f256main+0x1787>
    5d1b: d0 18        	bne	$5d35 <printf+0xae2>
    5d1d: a6 d5        	ldx	$d5                     ; 0x20d5 <f256main+0x17c1>
    5d1f: e4 9a        	cpx	$9a                     ; 0x209a <f256main+0x1786>
    5d21: d0 12        	bne	$5d35 <printf+0xae2>
    5d23: 18           	clc
    5d24: aa           	tax
    5d25: 98           	tya
    5d26: 65 cf        	adc	$cf                     ; 0x20cf <f256main+0x17bb>
    5d28: 85 12        	sta	$12                     ; 0x2012 <f256main+0x16fe>
    5d2a: a5 14        	lda	$14                     ; 0x2014 <f256main+0x1700>
    5d2c: 65 d0        	adc	$d0                     ; 0x20d0 <f256main+0x17bc>
    5d2e: 85 13        	sta	$13                     ; 0x2013 <f256main+0x16ff>
    5d30: 8a           	txa
    5d31: 92 12        	sta	($12)                   ; 0x2012 <f256main+0x16fe>
    5d33: 80 0d        	bra	$5d42 <printf+0xaef>
    5d35: 85 35        	sta	$35                     ; 0x2035 <f256main+0x1721>
    5d37: a2 35        	ldx	#$35
    5d39: 86 12        	stx	$12                     ; 0x2012 <f256main+0x16fe>
    5d3b: a2 00        	ldx	#$0
    5d3d: 86 13        	stx	$13                     ; 0x2013 <f256main+0x16ff>
    5d3f: 20 9c 2f     	jsr	$2f9c <textPrint>
    5d42: e6 cb        	inc	$cb                     ; 0x20cb <f256main+0x17b7>
    5d44: d0 02        	bne	$5d48 <printf+0xaf5>
    5d46: e6 cc        	inc	$cc                     ; 0x20cc <f256main+0x17b8>
    5d48: a5 c7        	lda	$c7                     ; 0x20c7 <f256main+0x17b3>
    5d4a: 29 01        	and	#$1
    5d4c: d0 1e        	bne	$5d6c <printf+0xb19>
    5d4e: a6 cb        	ldx	$cb                     ; 0x20cb <f256main+0x17b7>
    5d50: 86 14        	stx	$14                     ; 0x2014 <f256main+0x1700>
    5d52: a5 cc        	lda	$cc                     ; 0x20cc <f256main+0x17b8>
    5d54: a4 c9        	ldy	$c9                     ; 0x20c9 <f256main+0x17b5>
    5d56: a6 ca        	ldx	$ca                     ; 0x20ca <f256main+0x17b6>
    5d58: 86 12        	stx	$12                     ; 0x2012 <f256main+0x16fe>
    5d5a: 86 13        	stx	$13                     ; 0x2013 <f256main+0x16ff>
    5d5c: c5 12        	cmp	$12                     ; 0x2012 <f256main+0x16fe>
    5d5e: f0 03        	beq	$5d63 <printf+0xb10>
    5d60: 4c f9 5d     	jmp	$5df9 <printf+0xba6>
    5d63: 84 12        	sty	$12                     ; 0x2012 <f256main+0x16fe>
    5d65: a6 14        	ldx	$14                     ; 0x2014 <f256main+0x1700>
    5d67: e4 12        	cpx	$12                     ; 0x2012 <f256main+0x16fe>
    5d69: 4c fd 5d     	jmp	$5dfd <printf+0xbaa>
    5d6c: a6 cb        	ldx	$cb                     ; 0x20cb <f256main+0x17b7>
    5d6e: 86 14        	stx	$14                     ; 0x2014 <f256main+0x1700>
    5d70: a5 cc        	lda	$cc                     ; 0x20cc <f256main+0x17b8>
    5d72: a6 a1        	ldx	$a1                     ; 0x20a1 <f256main+0x178d>
    5d74: a4 a0        	ldy	$a0                     ; 0x20a0 <f256main+0x178c>
    5d76: f0 03        	beq	$5d7b <printf+0xb28>
    5d78: 4c e5 5d     	jmp	$5de5 <printf+0xb92>
    5d7b: e0 00        	cpx	#$0
    5d7d: f0 d5        	beq	$5d54 <printf+0xb01>
    5d7f: 4c e5 5d     	jmp	$5de5 <printf+0xb92>
    5d82: c5 ca        	cmp	$ca                     ; 0x20ca <f256main+0x17b6>
    5d84: b0 2e        	bcs	$5db4 <printf+0xb61>
    5d86: a6 d6        	ldx	$d6                     ; 0x20d6 <f256main+0x17c2>
    5d88: e4 9b        	cpx	$9b                     ; 0x209b <f256main+0x1787>
    5d8a: d0 19        	bne	$5da5 <printf+0xb52>
    5d8c: a6 d5        	ldx	$d5                     ; 0x20d5 <f256main+0x17c1>
    5d8e: e4 9a        	cpx	$9a                     ; 0x209a <f256main+0x1786>
    5d90: d0 13        	bne	$5da5 <printf+0xb52>
    5d92: 18           	clc
    5d93: aa           	tax
    5d94: a5 14        	lda	$14                     ; 0x2014 <f256main+0x1700>
    5d96: 65 cf        	adc	$cf                     ; 0x20cf <f256main+0x17bb>
    5d98: 85 12        	sta	$12                     ; 0x2012 <f256main+0x16fe>
    5d9a: 8a           	txa
    5d9b: 65 d0        	adc	$d0                     ; 0x20d0 <f256main+0x17bc>
    5d9d: 85 13        	sta	$13                     ; 0x2013 <f256main+0x16ff>
    5d9f: a9 20        	lda	#$20
    5da1: 92 12        	sta	($12)                   ; 0x2012 <f256main+0x16fe>
    5da3: 80 0f        	bra	$5db4 <printf+0xb61>
    5da5: a2 20        	ldx	#$20
    5da7: 86 35        	stx	$35                     ; 0x2035 <f256main+0x1721>
    5da9: a2 35        	ldx	#$35
    5dab: 86 12        	stx	$12                     ; 0x2012 <f256main+0x16fe>
    5dad: a2 00        	ldx	#$0
    5daf: 86 13        	stx	$13                     ; 0x2013 <f256main+0x16ff>
    5db1: 20 9c 2f     	jsr	$2f9c <textPrint>
    5db4: a6 cb        	ldx	$cb                     ; 0x20cb <f256main+0x17b7>
    5db6: a5 cc        	lda	$cc                     ; 0x20cc <f256main+0x17b8>
    5db8: e8           	inx
    5db9: d0 01        	bne	$5dbc <printf+0xb69>
    5dbb: 1a           	inc
    5dbc: 86 14        	stx	$14                     ; 0x2014 <f256main+0x1700>
    5dbe: 86 cb        	stx	$cb                     ; 0x20cb <f256main+0x17b7>
    5dc0: 85 cc        	sta	$cc                     ; 0x20cc <f256main+0x17b8>
    5dc2: a6 a1        	ldx	$a1                     ; 0x20a1 <f256main+0x178d>
    5dc4: 86 12        	stx	$12                     ; 0x2012 <f256main+0x16fe>
    5dc6: a6 a0        	ldx	$a0                     ; 0x20a0 <f256main+0x178c>
    5dc8: 86 13        	stx	$13                     ; 0x2013 <f256main+0x16ff>
    5dca: a2 ff        	ldx	#$ff
    5dcc: c6 12        	dec	$12                     ; 0x2012 <f256main+0x16fe>
    5dce: e4 12        	cpx	$12                     ; 0x2012 <f256main+0x16fe>
    5dd0: d0 02        	bne	$5dd4 <printf+0xb81>
    5dd2: c6 13        	dec	$13                     ; 0x2013 <f256main+0x16ff>
    5dd4: a6 12        	ldx	$12                     ; 0x2012 <f256main+0x16fe>
    5dd6: 86 a1        	stx	$a1                     ; 0x20a1 <f256main+0x178d>
    5dd8: a6 13        	ldx	$13                     ; 0x2013 <f256main+0x16ff>
    5dda: 86 a0        	stx	$a0                     ; 0x20a0 <f256main+0x178c>
    5ddc: d0 07        	bne	$5de5 <printf+0xb92>
    5dde: a6 12        	ldx	$12                     ; 0x2012 <f256main+0x16fe>
    5de0: d0 03        	bne	$5de5 <printf+0xb92>
    5de2: 4c 54 5d     	jmp	$5d54 <printf+0xb01>
    5de5: c5 ca        	cmp	$ca                     ; 0x20ca <f256main+0x17b6>
    5de7: f0 03        	beq	$5dec <printf+0xb99>
    5de9: 4c 82 5d     	jmp	$5d82 <printf+0xb2f>
    5dec: a6 c9        	ldx	$c9                     ; 0x20c9 <f256main+0x17b5>
    5dee: 86 12        	stx	$12                     ; 0x2012 <f256main+0x16fe>
    5df0: a6 14        	ldx	$14                     ; 0x2014 <f256main+0x1700>
    5df2: e4 12        	cpx	$12                     ; 0x2012 <f256main+0x16fe>
    5df4: b0 be        	bcs	$5db4 <printf+0xb61>
    5df6: 4c 86 5d     	jmp	$5d86 <printf+0xb33>
    5df9: 86 12        	stx	$12                     ; 0x2012 <f256main+0x16fe>
    5dfb: c5 12        	cmp	$12                     ; 0x2012 <f256main+0x16fe>
    5dfd: 98           	tya
    5dfe: a0 01        	ldy	#$1
    5e00: 90 20        	bcc	$5e22 <printf+0xbcf>
    5e02: a6 13        	ldx	$13                     ; 0x2013 <f256main+0x16ff>
    5e04: d0 03        	bne	$5e09 <printf+0xbb6>
    5e06: aa           	tax
    5e07: f0 19        	beq	$5e22 <printf+0xbcf>
    5e09: 18           	clc
    5e0a: 65 cf        	adc	$cf                     ; 0x20cf <f256main+0x17bb>
    5e0c: 85 12        	sta	$12                     ; 0x2012 <f256main+0x16fe>
    5e0e: a5 13        	lda	$13                     ; 0x2013 <f256main+0x16ff>
    5e10: 65 d0        	adc	$d0                     ; 0x20d0 <f256main+0x17bc>
    5e12: 85 13        	sta	$13                     ; 0x2013 <f256main+0x16ff>
    5e14: a2 ff        	ldx	#$ff
    5e16: c6 12        	dec	$12                     ; 0x2012 <f256main+0x16fe>
    5e18: e4 12        	cpx	$12                     ; 0x2012 <f256main+0x16fe>
    5e1a: d0 02        	bne	$5e1e <printf+0xbcb>
    5e1c: c6 13        	dec	$13                     ; 0x2013 <f256main+0x16ff>
    5e1e: a9 00        	lda	#$0
    5e20: 92 12        	sta	($12)                   ; 0x2012 <f256main+0x16fe>
    5e22: e6 98        	inc	$98                     ; 0x2098 <f256main+0x1784>
    5e24: d0 02        	bne	$5e28 <printf+0xbd5>
    5e26: e6 99        	inc	$99                     ; 0x2099 <f256main+0x1785>
    5e28: a6 99        	ldx	$99                     ; 0x2099 <f256main+0x1785>
    5e2a: e4 9d        	cpx	$9d                     ; 0x209d <f256main+0x1789>
    5e2c: f0 03        	beq	$5e31 <printf+0xbde>
    5e2e: 4c b8 52     	jmp	$52b8 <printf+0x65>
    5e31: a6 98        	ldx	$98                     ; 0x2098 <f256main+0x1784>
    5e33: e4 9c        	cpx	$9c                     ; 0x209c <f256main+0x1788>
    5e35: f0 03        	beq	$5e3a <printf+0xbe7>
    5e37: 4c b8 52     	jmp	$52b8 <printf+0x65>
    5e3a: b2 9c        	lda	($9c)                   ; 0x209c <f256main+0x1788>
    5e3c: a2 00        	ldx	#$0
    5e3e: 86 9a        	stx	$9a                     ; 0x209a <f256main+0x1786>
    5e40: a2 00        	ldx	#$0
    5e42: 86 9b        	stx	$9b                     ; 0x209b <f256main+0x1787>
    5e44: 4c cc 52     	jmp	$52cc <printf+0x79>
    5e47: e4 9f        	cpx	$9f                     ; 0x209f <f256main+0x178b>
    5e49: a6 97        	ldx	$97                     ; 0x2097 <f256main+0x1783>
    5e4b: b0 03        	bcs	$5e50 <printf+0xbfd>
    5e4d: 4c 1d 59     	jmp	$591d <printf+0x6ca>
    5e50: a5 96        	lda	$96                     ; 0x2096 <f256main+0x1782>
    5e52: 85 9e        	sta	$9e                     ; 0x209e <f256main+0x178a>
    5e54: 64 9f        	stz	$9f                     ; 0x209f <f256main+0x178b>
    5e56: e6 9e        	inc	$9e                     ; 0x209e <f256main+0x178a>
    5e58: f0 03        	beq	$5e5d <printf+0xc0a>
    5e5a: 4c 1d 59     	jmp	$591d <printf+0x6ca>
    5e5d: e6 9f        	inc	$9f                     ; 0x209f <f256main+0x178b>
    5e5f: 4c 1d 59     	jmp	$591d <printf+0x6ca>
    5e62: a2 58        	ldx	#$58
    5e64: 86 e0        	stx	$e0                     ; 0x20e0 <f256main+0x17cc>
    5e66: a2 01        	ldx	#$1
    5e68: 86 db        	stx	$db                     ; 0x20db <f256main+0x17c7>
    5e6a: a2 30        	ldx	#$30
    5e6c: 86 df        	stx	$df                     ; 0x20df <f256main+0x17cb>
    5e6e: a9 02        	lda	#$2
    5e70: a2 00        	ldx	#$0
    5e72: 86 dc        	stx	$dc                     ; 0x20dc <f256main+0x17c8>
    5e74: 4c 5e 59     	jmp	$595e <printf+0x70b>
    5e77: 64 a1        	stz	$a1                     ; 0x20a1 <f256main+0x178d>
    5e79: 64 a0        	stz	$a0                     ; 0x20a0 <f256main+0x178c>
    5e7b: 4c b3 5b     	jmp	$5bb3 <printf+0x960>
    5e7e: 60           	rts

00005e7f <malloc>:
    5e7f: a8           	tay
    5e80: 8a           	txa
    5e81: a2 00        	ldx	#$0
    5e83: 86 12        	stx	$12                     ; 0x2012 <f256main+0x16fe>
    5e85: a2 00        	ldx	#$0
    5e87: 86 13        	stx	$13                     ; 0x2013 <f256main+0x16ff>
    5e89: aa           	tax
    5e8a: d0 07        	bne	$5e93 <malloc+0x14>
    5e8c: c0 00        	cpy	#$0
    5e8e: d0 03        	bne	$5e93 <malloc+0x14>
    5e90: 4c 83 5f     	jmp	$5f83 <malloc+0x104>
    5e93: 84 16        	sty	$16                     ; 0x2016 <f256main+0x1702>
    5e95: aa           	tax
    5e96: d0 0e        	bne	$5ea6 <malloc+0x27>
    5e98: a6 16        	ldx	$16                     ; 0x2016 <f256main+0x1702>
    5e9a: e0 07        	cpx	#$7
    5e9c: b0 0c        	bcs	$5eaa <malloc+0x2b>
    5e9e: a2 08        	ldx	#$8
    5ea0: 86 92        	stx	$92                     ; 0x2092 <f256main+0x177e>
    5ea2: a9 00        	lda	#$0
    5ea4: 80 2f        	bra	$5ed5 <malloc+0x56>
    5ea6: c9 00        	cmp	#$0
    5ea8: 90 f4        	bcc	$5e9e <malloc+0x1f>
    5eaa: a8           	tay
    5eab: a5 16        	lda	$16                     ; 0x2016 <f256main+0x1702>
    5ead: 29 01        	and	#$1
    5eaf: a2 02        	ldx	#$2
    5eb1: 64 14        	stz	$14                     ; 0x2014 <f256main+0x1700>
    5eb3: c9 00        	cmp	#$0
    5eb5: f0 02        	beq	$5eb9 <malloc+0x3a>
    5eb7: a2 03        	ldx	#$3
    5eb9: 86 15        	stx	$15                     ; 0x2015 <f256main+0x1701>
    5ebb: 18           	clc
    5ebc: a5 16        	lda	$16                     ; 0x2016 <f256main+0x1702>
    5ebe: 65 15        	adc	$15                     ; 0x2015 <f256main+0x1701>
    5ec0: aa           	tax
    5ec1: 98           	tya
    5ec2: 65 14        	adc	$14                     ; 0x2014 <f256main+0x1700>
    5ec4: 90 03        	bcc	$5ec9 <malloc+0x4a>
    5ec6: 4c 83 5f     	jmp	$5f83 <malloc+0x104>
    5ec9: 86 92        	stx	$92                     ; 0x2092 <f256main+0x177e>
    5ecb: a8           	tay
    5ecc: d0 07        	bne	$5ed5 <malloc+0x56>
    5ece: e0 00        	cpx	#$0
    5ed0: d0 03        	bne	$5ed5 <malloc+0x56>
    5ed2: 4c 83 5f     	jmp	$5f83 <malloc+0x104>
    5ed5: 85 91        	sta	$91                     ; 0x2091 <f256main+0x177d>
    5ed7: a5 8a        	lda	$8a                     ; 0x208a <f256main+0x1776>
    5ed9: 29 01        	and	#$1
    5edb: d0 2c        	bne	$5f09 <malloc+0x8a>
    5edd: a9 00        	lda	#$0
    5edf: a2 10        	ldx	#$10
    5ee1: a0 46        	ldy	#$46
    5ee3: 84 12        	sty	$12                     ; 0x2012 <f256main+0x16fe>
    5ee5: a0 86        	ldy	#$86
    5ee7: 84 13        	sty	$13                     ; 0x2013 <f256main+0x16ff>
    5ee9: 20 1c 03     	jsr	$31c <_ZN12_GLOBAL__N_19FreeChunk6insertEPvj>
    5eec: a2 00        	ldx	#$0
    5eee: 86 12        	stx	$12                     ; 0x2012 <f256main+0x16fe>
    5ef0: a2 00        	ldx	#$0
    5ef2: 86 13        	stx	$13                     ; 0x2013 <f256main+0x16ff>
    5ef4: ae 47 86     	ldx	$8647                   ; 0x8647 <__heap_start+0x1>
    5ef7: a9 fe        	lda	#$fe
    5ef9: 2d 46 86     	and	$8646                   ; 0x8646 <__heap_start>
    5efc: 8d 46 86     	sta	$8646                   ; 0x8646 <__heap_start>
    5eff: 8e 47 86     	stx	$8647                   ; 0x8647 <__heap_start+0x1>
    5f02: a2 01        	ldx	#$1
    5f04: 8e 42 86     	stx	$8642                   ; 0x8642 <_ZN12_GLOBAL__N_19last_freeE>
    5f07: 86 8a        	stx	$8a                     ; 0x208a <f256main+0x1776>
    5f09: ae 43 86     	ldx	$8643                   ; 0x8643 <_ZN12_GLOBAL__N_19free_listE>
    5f0c: 86 16        	stx	$16                     ; 0x2016 <f256main+0x1702>
    5f0e: ac 44 86     	ldy	$8644                   ; 0x8644 <_ZN12_GLOBAL__N_19free_listE+0x1>
    5f11: 84 17        	sty	$17                     ; 0x2017 <f256main+0x1703>
    5f13: a9 00        	lda	#$0
    5f15: 85 14        	sta	$14                     ; 0x2014 <f256main+0x1700>
    5f17: a9 00        	lda	#$0
    5f19: 85 15        	sta	$15                     ; 0x2015 <f256main+0x1701>
    5f1b: c4 15        	cpy	$15                     ; 0x2015 <f256main+0x1701>
    5f1d: d0 07        	bne	$5f26 <malloc+0xa7>
    5f1f: e4 14        	cpx	$14                     ; 0x2014 <f256main+0x1700>
    5f21: d0 03        	bne	$5f26 <malloc+0xa7>
    5f23: 4c 83 5f     	jmp	$5f83 <malloc+0x104>
    5f26: a2 00        	ldx	#$0
    5f28: a0 10        	ldy	#$10
    5f2a: 86 14        	stx	$14                     ; 0x2014 <f256main+0x1700>
    5f2c: 84 15        	sty	$15                     ; 0x2015 <f256main+0x1701>
    5f2e: 18           	clc
    5f2f: a9 46        	lda	#$46
    5f31: 65 14        	adc	$14                     ; 0x2014 <f256main+0x1700>
    5f33: 85 18        	sta	$18                     ; 0x2018 <f256main+0x1704>
    5f35: a9 86        	lda	#$86
    5f37: 65 15        	adc	$15                     ; 0x2015 <f256main+0x1701>
    5f39: 85 95        	sta	$95                     ; 0x2095 <f256main+0x1781>
    5f3b: a0 01        	ldy	#$1
    5f3d: a6 91        	ldx	$91                     ; 0x2091 <f256main+0x177d>
    5f3f: 86 19        	stx	$19                     ; 0x2019 <f256main+0x1705>
    5f41: a6 16        	ldx	$16                     ; 0x2016 <f256main+0x1702>
    5f43: 86 14        	stx	$14                     ; 0x2014 <f256main+0x1700>
    5f45: a6 17        	ldx	$17                     ; 0x2017 <f256main+0x1703>
    5f47: 86 15        	stx	$15                     ; 0x2015 <f256main+0x1701>
    5f49: b1 14        	lda	($14),y                 ; 0x2014 <f256main+0x1700>
    5f4b: c5 19        	cmp	$19                     ; 0x2019 <f256main+0x1705>
    5f4d: d0 0e        	bne	$5f5d <malloc+0xde>
    5f4f: b2 14        	lda	($14)                   ; 0x2014 <f256main+0x1700>
    5f51: 29 fe        	and	#$fe
    5f53: a6 92        	ldx	$92                     ; 0x2092 <f256main+0x177e>
    5f55: 86 1a        	stx	$1a                     ; 0x201a <f256main+0x1706>
    5f57: c5 1a        	cmp	$1a                     ; 0x201a <f256main+0x1706>
    5f59: b0 29        	bcs	$5f84 <malloc+0x105>
    5f5b: 80 04        	bra	$5f61 <malloc+0xe2>
    5f5d: c5 19        	cmp	$19                     ; 0x2019 <f256main+0x1705>
    5f5f: b0 23        	bcs	$5f84 <malloc+0x105>
    5f61: a5 14        	lda	$14                     ; 0x2014 <f256main+0x1700>
    5f63: 18           	clc
    5f64: 69 02        	adc	#$2
    5f66: 85 1a        	sta	$1a                     ; 0x201a <f256main+0x1706>
    5f68: a5 15        	lda	$15                     ; 0x2015 <f256main+0x1701>
    5f6a: 69 00        	adc	#$0
    5f6c: 85 1b        	sta	$1b                     ; 0x201b <f256main+0x1707>
    5f6e: a0 02        	ldy	#$2
    5f70: b1 14        	lda	($14),y                 ; 0x2014 <f256main+0x1700>
    5f72: 85 14        	sta	$14                     ; 0x2014 <f256main+0x1700>
    5f74: 88           	dey
    5f75: b1 1a        	lda	($1a),y                 ; 0x201a <f256main+0x1706>
    5f77: 85 15        	sta	$15                     ; 0x2015 <f256main+0x1701>
    5f79: c5 17        	cmp	$17                     ; 0x2017 <f256main+0x1703>
    5f7b: d0 cc        	bne	$5f49 <malloc+0xca>
    5f7d: a5 14        	lda	$14                     ; 0x2014 <f256main+0x1700>
    5f7f: c5 16        	cmp	$16                     ; 0x2016 <f256main+0x1702>
    5f81: d0 c6        	bne	$5f49 <malloc+0xca>
    5f83: 60           	rts
    5f84: a6 18        	ldx	$18                     ; 0x2018 <f256main+0x1704>
    5f86: 86 96        	stx	$96                     ; 0x2096 <f256main+0x1782>
    5f88: a6 14        	ldx	$14                     ; 0x2014 <f256main+0x1700>
    5f8a: 86 12        	stx	$12                     ; 0x2012 <f256main+0x16fe>
    5f8c: a6 15        	ldx	$15                     ; 0x2015 <f256main+0x1701>
    5f8e: 86 13        	stx	$13                     ; 0x2013 <f256main+0x16ff>
    5f90: a6 14        	ldx	$14                     ; 0x2014 <f256main+0x1700>
    5f92: 86 93        	stx	$93                     ; 0x2093 <f256main+0x177f>
    5f94: a6 15        	ldx	$15                     ; 0x2015 <f256main+0x1701>
    5f96: 86 94        	stx	$94                     ; 0x2094 <f256main+0x1780>
    5f98: 20 56 04     	jsr	$456 <_ZN12_GLOBAL__N_19FreeChunk6removeEv>
    5f9b: a6 93        	ldx	$93                     ; 0x2093 <f256main+0x177f>
    5f9d: 86 12        	stx	$12                     ; 0x2012 <f256main+0x16fe>
    5f9f: a6 94        	ldx	$94                     ; 0x2094 <f256main+0x1780>
    5fa1: 86 13        	stx	$13                     ; 0x2013 <f256main+0x16ff>
    5fa3: a0 01        	ldy	#$1
    5fa5: b1 12        	lda	($12),y                 ; 0x2012 <f256main+0x16fe>
    5fa7: 85 15        	sta	$15                     ; 0x2015 <f256main+0x1701>
    5fa9: a9 fe        	lda	#$fe
    5fab: 32 12        	and	($12)                   ; 0x2012 <f256main+0x16fe>
    5fad: 38           	sec
    5fae: a6 92        	ldx	$92                     ; 0x2092 <f256main+0x177e>
    5fb0: 86 14        	stx	$14                     ; 0x2014 <f256main+0x1700>
    5fb2: 85 17        	sta	$17                     ; 0x2017 <f256main+0x1703>
    5fb4: e5 14        	sbc	$14                     ; 0x2014 <f256main+0x1700>
    5fb6: a8           	tay
    5fb7: a6 91        	ldx	$91                     ; 0x2091 <f256main+0x177d>
    5fb9: 86 14        	stx	$14                     ; 0x2014 <f256main+0x1700>
    5fbb: a5 15        	lda	$15                     ; 0x2015 <f256main+0x1701>
    5fbd: 85 16        	sta	$16                     ; 0x2016 <f256main+0x1702>
    5fbf: e5 14        	sbc	$14                     ; 0x2014 <f256main+0x1700>
    5fc1: d0 06        	bne	$5fc9 <malloc+0x14a>
    5fc3: 85 18        	sta	$18                     ; 0x2018 <f256main+0x1704>
    5fc5: c0 08        	cpy	#$8
    5fc7: 80 04        	bra	$5fcd <malloc+0x14e>
    5fc9: 85 18        	sta	$18                     ; 0x2018 <f256main+0x1704>
    5fcb: c9 00        	cmp	#$0
    5fcd: a6 96        	ldx	$96                     ; 0x2096 <f256main+0x1782>
    5fcf: 86 14        	stx	$14                     ; 0x2014 <f256main+0x1700>
    5fd1: a6 95        	ldx	$95                     ; 0x2095 <f256main+0x1781>
    5fd3: 86 15        	stx	$15                     ; 0x2015 <f256main+0x1701>
    5fd5: a5 17        	lda	$17                     ; 0x2017 <f256main+0x1703>
    5fd7: 90 42        	bcc	$601b <malloc+0x19c>
    5fd9: 18           	clc
    5fda: a5 92        	lda	$92                     ; 0x2092 <f256main+0x177e>
    5fdc: 85 92        	sta	$92                     ; 0x2092 <f256main+0x177e>
    5fde: 65 12        	adc	$12                     ; 0x2012 <f256main+0x16fe>
    5fe0: 85 12        	sta	$12                     ; 0x2012 <f256main+0x16fe>
    5fe2: a6 91        	ldx	$91                     ; 0x2091 <f256main+0x177d>
    5fe4: 86 91        	stx	$91                     ; 0x2091 <f256main+0x177d>
    5fe6: a5 91        	lda	$91                     ; 0x2091 <f256main+0x177d>
    5fe8: 65 13        	adc	$13                     ; 0x2013 <f256main+0x16ff>
    5fea: 85 13        	sta	$13                     ; 0x2013 <f256main+0x16ff>
    5fec: a6 18        	ldx	$18                     ; 0x2018 <f256main+0x1704>
    5fee: 98           	tya
    5fef: 20 1c 03     	jsr	$31c <_ZN12_GLOBAL__N_19FreeChunk6insertEPvj>
    5ff2: a6 93        	ldx	$93                     ; 0x2093 <f256main+0x177f>
    5ff4: 86 12        	stx	$12                     ; 0x2012 <f256main+0x16fe>
    5ff6: a6 94        	ldx	$94                     ; 0x2094 <f256main+0x1780>
    5ff8: 86 13        	stx	$13                     ; 0x2013 <f256main+0x16ff>
    5ffa: a5 92        	lda	$92                     ; 0x2092 <f256main+0x177e>
    5ffc: 29 fe        	and	#$fe
    5ffe: 85 14        	sta	$14                     ; 0x2014 <f256main+0x1700>
    6000: a0 01        	ldy	#$1
    6002: 98           	tya
    6003: 32 12        	and	($12)                   ; 0x2012 <f256main+0x16fe>
    6005: 05 14        	ora	$14                     ; 0x2014 <f256main+0x1700>
    6007: 92 12        	sta	($12)                   ; 0x2012 <f256main+0x16fe>
    6009: a5 91        	lda	$91                     ; 0x2091 <f256main+0x177d>
    600b: 91 12        	sta	($12),y                 ; 0x2012 <f256main+0x16fe>
    600d: a5 14        	lda	$14                     ; 0x2014 <f256main+0x1700>
    600f: a6 91        	ldx	$91                     ; 0x2091 <f256main+0x177d>
    6011: 86 16        	stx	$16                     ; 0x2016 <f256main+0x1702>
    6013: a6 96        	ldx	$96                     ; 0x2096 <f256main+0x1782>
    6015: 86 14        	stx	$14                     ; 0x2014 <f256main+0x1700>
    6017: a6 95        	ldx	$95                     ; 0x2095 <f256main+0x1781>
    6019: 86 15        	stx	$15                     ; 0x2015 <f256main+0x1701>
    601b: 18           	clc
    601c: 65 12        	adc	$12                     ; 0x2012 <f256main+0x16fe>
    601e: a8           	tay
    601f: a5 16        	lda	$16                     ; 0x2016 <f256main+0x1702>
    6021: 65 13        	adc	$13                     ; 0x2013 <f256main+0x16ff>
    6023: c5 15        	cmp	$15                     ; 0x2015 <f256main+0x1701>
    6025: d0 09        	bne	$6030 <malloc+0x1b1>
    6027: c4 14        	cpy	$14                     ; 0x2014 <f256main+0x1700>
    6029: d0 05        	bne	$6030 <malloc+0x1b1>
    602b: 9c 42 86     	stz	$8642                   ; 0x8642 <_ZN12_GLOBAL__N_19last_freeE>
    602e: 80 14        	bra	$6044 <malloc+0x1c5>
    6030: 84 14        	sty	$14                     ; 0x2014 <f256main+0x1700>
    6032: 85 15        	sta	$15                     ; 0x2015 <f256main+0x1701>
    6034: a0 01        	ldy	#$1
    6036: b1 14        	lda	($14),y                 ; 0x2014 <f256main+0x1700>
    6038: 85 16        	sta	$16                     ; 0x2016 <f256main+0x1702>
    603a: a9 fe        	lda	#$fe
    603c: 32 14        	and	($14)                   ; 0x2014 <f256main+0x1700>
    603e: 92 14        	sta	($14)                   ; 0x2014 <f256main+0x1700>
    6040: a5 16        	lda	$16                     ; 0x2016 <f256main+0x1702>
    6042: 91 14        	sta	($14),y                 ; 0x2014 <f256main+0x1700>
    6044: a5 12        	lda	$12                     ; 0x2012 <f256main+0x16fe>
    6046: 18           	clc
    6047: 69 02        	adc	#$2
    6049: 85 12        	sta	$12                     ; 0x2012 <f256main+0x16fe>
    604b: a5 13        	lda	$13                     ; 0x2013 <f256main+0x16ff>
    604d: 69 00        	adc	#$0
    604f: 85 13        	sta	$13                     ; 0x2013 <f256main+0x16ff>
    6051: 60           	rts

00006052 <memcpy>:
    6052: a8           	tay
    6053: 8a           	txa
    6054: d0 03        	bne	$6059 <memcpy+0x7>
    6056: 98           	tya
    6057: f0 24        	beq	$607d <memcpy+0x2b>
    6059: a5 12        	lda	$12                     ; 0x2012 <f256main+0x16fe>
    605b: 85 16        	sta	$16                     ; 0x2016 <f256main+0x1702>
    605d: a5 13        	lda	$13                     ; 0x2013 <f256main+0x16ff>
    605f: 85 17        	sta	$17                     ; 0x2017 <f256main+0x1703>
    6061: b2 14        	lda	($14)                   ; 0x2014 <f256main+0x1700>
    6063: 92 16        	sta	($16)                   ; 0x2016 <f256main+0x1702>
    6065: e6 16        	inc	$16                     ; 0x2016 <f256main+0x1702>
    6067: d0 02        	bne	$606b <memcpy+0x19>
    6069: e6 17        	inc	$17                     ; 0x2017 <f256main+0x1703>
    606b: e6 14        	inc	$14                     ; 0x2014 <f256main+0x1700>
    606d: d0 02        	bne	$6071 <memcpy+0x1f>
    606f: e6 15        	inc	$15                     ; 0x2015 <f256main+0x1701>
    6071: 88           	dey
    6072: c0 ff        	cpy	#$ff
    6074: d0 01        	bne	$6077 <memcpy+0x25>
    6076: ca           	dex
    6077: 8a           	txa
    6078: d0 e7        	bne	$6061 <memcpy+0xf>
    607a: 98           	tya
    607b: d0 e4        	bne	$6061 <memcpy+0xf>
    607d: 60           	rts

0000607e <__memset>:
    607e: a4 14        	ldy	$14                     ; 0x2014 <f256main+0x1700>
    6080: d0 04        	bne	$6086 <__memset+0x8>
    6082: e0 00        	cpx	#$0
    6084: f0 17        	beq	$609d <__memset+0x1f>
    6086: 92 12        	sta	($12)                   ; 0x2012 <f256main+0x16fe>
    6088: e6 12        	inc	$12                     ; 0x2012 <f256main+0x16fe>
    608a: d0 02        	bne	$608e <__memset+0x10>
    608c: e6 13        	inc	$13                     ; 0x2013 <f256main+0x16ff>
    608e: ca           	dex
    608f: e0 ff        	cpx	#$ff
    6091: d0 02        	bne	$6095 <__memset+0x17>
    6093: c6 14        	dec	$14                     ; 0x2014 <f256main+0x1700>
    6095: a4 14        	ldy	$14                     ; 0x2014 <f256main+0x1700>
    6097: d0 ed        	bne	$6086 <__memset+0x8>
    6099: e0 00        	cpx	#$0
    609b: d0 e9        	bne	$6086 <__memset+0x8>
    609d: 60           	rts

0000609e <__ashlsi3>:
    609e: 86 15        	stx	$15                     ; 0x2015 <f256main+0x1701>
    60a0: a6 14        	ldx	$14                     ; 0x2014 <f256main+0x1700>
    60a2: f0 0e        	beq	$60b2 <__ashlsi3+0x14>
    60a4: a6 14        	ldx	$14                     ; 0x2014 <f256main+0x1700>
    60a6: ca           	dex
    60a7: 0a           	asl
    60a8: 26 15        	rol	$15                     ; 0x2015 <f256main+0x1701>
    60aa: 26 12        	rol	$12                     ; 0x2012 <f256main+0x16fe>
    60ac: 26 13        	rol	$13                     ; 0x2013 <f256main+0x16ff>
    60ae: e0 00        	cpx	#$0
    60b0: d0 f4        	bne	$60a6 <__ashlsi3+0x8>
    60b2: a6 15        	ldx	$15                     ; 0x2015 <f256main+0x1701>
    60b4: 60           	rts

000060b5 <__lshrsi3>:
    60b5: 86 15        	stx	$15                     ; 0x2015 <f256main+0x1701>
    60b7: a6 14        	ldx	$14                     ; 0x2014 <f256main+0x1700>
    60b9: f0 0e        	beq	$60c9 <__lshrsi3+0x14>
    60bb: a6 14        	ldx	$14                     ; 0x2014 <f256main+0x1700>
    60bd: ca           	dex
    60be: 46 13        	lsr	$13                     ; 0x2013 <f256main+0x16ff>
    60c0: 66 12        	ror	$12                     ; 0x2012 <f256main+0x16fe>
    60c2: 66 15        	ror	$15                     ; 0x2015 <f256main+0x1701>
    60c4: 6a           	ror
    60c5: e0 00        	cpx	#$0
    60c7: d0 f4        	bne	$60bd <__lshrsi3+0x8>
    60c9: a6 15        	ldx	$15                     ; 0x2015 <f256main+0x1701>
    60cb: 60           	rts

000060cc <__mulqi3>:
    60cc: e0 00        	cpx	#$0
    60ce: f0 14        	beq	$60e4 <__mulqi3+0x18>
    60d0: 85 12        	sta	$12                     ; 0x2012 <f256main+0x16fe>
    60d2: 86 13        	stx	$13                     ; 0x2013 <f256main+0x16ff>
    60d4: a9 00        	lda	#$0
    60d6: 46 13        	lsr	$13                     ; 0x2013 <f256main+0x16ff>
    60d8: 90 03        	bcc	$60dd <__mulqi3+0x11>
    60da: 18           	clc
    60db: 65 12        	adc	$12                     ; 0x2012 <f256main+0x16fe>
    60dd: 06 12        	asl	$12                     ; 0x2012 <f256main+0x16fe>
    60df: a6 13        	ldx	$13                     ; 0x2013 <f256main+0x16ff>
    60e1: d0 f3        	bne	$60d6 <__mulqi3+0xa>
    60e3: 60           	rts
    60e4: a9 00        	lda	#$0
    60e6: 60           	rts

000060e7 <__mulhi3>:
    60e7: a4 13        	ldy	$13                     ; 0x2013 <f256main+0x16ff>
    60e9: d0 04        	bne	$60ef <__mulhi3+0x8>
    60eb: a4 12        	ldy	$12                     ; 0x2012 <f256main+0x16fe>
    60ed: f0 25        	beq	$6114 <__mulhi3+0x2d>
    60ef: 85 14        	sta	$14                     ; 0x2014 <f256main+0x1700>
    60f1: 86 15        	stx	$15                     ; 0x2015 <f256main+0x1701>
    60f3: a0 00        	ldy	#$0
    60f5: 98           	tya
    60f6: 46 13        	lsr	$13                     ; 0x2013 <f256main+0x16ff>
    60f8: 66 12        	ror	$12                     ; 0x2012 <f256main+0x16fe>
    60fa: 90 09        	bcc	$6105 <__mulhi3+0x1e>
    60fc: aa           	tax
    60fd: 98           	tya
    60fe: 18           	clc
    60ff: 65 14        	adc	$14                     ; 0x2014 <f256main+0x1700>
    6101: a8           	tay
    6102: 8a           	txa
    6103: 65 15        	adc	$15                     ; 0x2015 <f256main+0x1701>
    6105: 06 14        	asl	$14                     ; 0x2014 <f256main+0x1700>
    6107: 26 15        	rol	$15                     ; 0x2015 <f256main+0x1701>
    6109: a6 13        	ldx	$13                     ; 0x2013 <f256main+0x16ff>
    610b: d0 e9        	bne	$60f6 <__mulhi3+0xf>
    610d: a6 12        	ldx	$12                     ; 0x2012 <f256main+0x16fe>
    610f: d0 e5        	bne	$60f6 <__mulhi3+0xf>
    6111: aa           	tax
    6112: 98           	tya
    6113: 60           	rts
    6114: a0 00        	ldy	#$0
    6116: 98           	tya
    6117: 80 f8        	bra	$6111 <__mulhi3+0x2a>

00006119 <__mulsi3>:
    6119: a4 17        	ldy	$17                     ; 0x2017 <f256main+0x1703>
    611b: d0 0f        	bne	$612c <__mulsi3+0x13>
    611d: a4 16        	ldy	$16                     ; 0x2016 <f256main+0x1702>
    611f: d0 0b        	bne	$612c <__mulsi3+0x13>
    6121: a4 15        	ldy	$15                     ; 0x2015 <f256main+0x1701>
    6123: d0 07        	bne	$612c <__mulsi3+0x13>
    6125: a4 14        	ldy	$14                     ; 0x2014 <f256main+0x1700>
    6127: d0 03        	bne	$612c <__mulsi3+0x13>
    6129: 4c 80 61     	jmp	$6180 <__mulsi3+0x67>
    612c: 85 18        	sta	$18                     ; 0x2018 <f256main+0x1704>
    612e: 86 19        	stx	$19                     ; 0x2019 <f256main+0x1705>
    6130: a0 00        	ldy	#$0
    6132: a2 00        	ldx	#$0
    6134: 64 1a        	stz	$1a                     ; 0x201a <f256main+0x1706>
    6136: 98           	tya
    6137: 46 17        	lsr	$17                     ; 0x2017 <f256main+0x1703>
    6139: 66 16        	ror	$16                     ; 0x2016 <f256main+0x1702>
    613b: 66 15        	ror	$15                     ; 0x2015 <f256main+0x1701>
    613d: 66 14        	ror	$14                     ; 0x2014 <f256main+0x1700>
    613f: 90 15        	bcc	$6156 <__mulsi3+0x3d>
    6141: 85 1b        	sta	$1b                     ; 0x201b <f256main+0x1707>
    6143: 98           	tya
    6144: 18           	clc
    6145: 65 18        	adc	$18                     ; 0x2018 <f256main+0x1704>
    6147: a8           	tay
    6148: 8a           	txa
    6149: 65 19        	adc	$19                     ; 0x2019 <f256main+0x1705>
    614b: aa           	tax
    614c: a5 1a        	lda	$1a                     ; 0x201a <f256main+0x1706>
    614e: 65 12        	adc	$12                     ; 0x2012 <f256main+0x16fe>
    6150: 85 1a        	sta	$1a                     ; 0x201a <f256main+0x1706>
    6152: a5 1b        	lda	$1b                     ; 0x201b <f256main+0x1707>
    6154: 65 13        	adc	$13                     ; 0x2013 <f256main+0x16ff>
    6156: 06 18        	asl	$18                     ; 0x2018 <f256main+0x1704>
    6158: 26 19        	rol	$19                     ; 0x2019 <f256main+0x1705>
    615a: 26 12        	rol	$12                     ; 0x2012 <f256main+0x16fe>
    615c: 26 13        	rol	$13                     ; 0x2013 <f256main+0x16ff>
    615e: e6 17        	inc	$17                     ; 0x2017 <f256main+0x1703>
    6160: c6 17        	dec	$17                     ; 0x2017 <f256main+0x1703>
    6162: d0 d3        	bne	$6137 <__mulsi3+0x1e>
    6164: e6 16        	inc	$16                     ; 0x2016 <f256main+0x1702>
    6166: c6 16        	dec	$16                     ; 0x2016 <f256main+0x1702>
    6168: d0 cd        	bne	$6137 <__mulsi3+0x1e>
    616a: e6 15        	inc	$15                     ; 0x2015 <f256main+0x1701>
    616c: c6 15        	dec	$15                     ; 0x2015 <f256main+0x1701>
    616e: d0 c7        	bne	$6137 <__mulsi3+0x1e>
    6170: e6 14        	inc	$14                     ; 0x2014 <f256main+0x1700>
    6172: c6 14        	dec	$14                     ; 0x2014 <f256main+0x1700>
    6174: d0 c1        	bne	$6137 <__mulsi3+0x1e>
    6176: 5a           	phy
    6177: a4 1a        	ldy	$1a                     ; 0x201a <f256main+0x1706>
    6179: 84 12        	sty	$12                     ; 0x2012 <f256main+0x16fe>
    617b: 7a           	ply
    617c: 85 13        	sta	$13                     ; 0x2013 <f256main+0x16ff>
    617e: 98           	tya
    617f: 60           	rts
    6180: a0 00        	ldy	#$0
    6182: a2 00        	ldx	#$0
    6184: 64 1a        	stz	$1a                     ; 0x201a <f256main+0x1706>
    6186: 98           	tya
    6187: 80 ed        	bra	$6176 <__mulsi3+0x5d>

00006189 <__muldi3>:
    6189: a4 1f        	ldy	$1f                     ; 0x201f <f256main+0x170b>
    618b: d0 1f        	bne	$61ac <__muldi3+0x23>
    618d: a4 1e        	ldy	$1e                     ; 0x201e <f256main+0x170a>
    618f: d0 1b        	bne	$61ac <__muldi3+0x23>
    6191: a4 1d        	ldy	$1d                     ; 0x201d <f256main+0x1709>
    6193: d0 17        	bne	$61ac <__muldi3+0x23>
    6195: a4 1c        	ldy	$1c                     ; 0x201c <f256main+0x1708>
    6197: d0 13        	bne	$61ac <__muldi3+0x23>
    6199: a4 1b        	ldy	$1b                     ; 0x201b <f256main+0x1707>
    619b: d0 0f        	bne	$61ac <__muldi3+0x23>
    619d: a4 1a        	ldy	$1a                     ; 0x201a <f256main+0x1706>
    619f: d0 0b        	bne	$61ac <__muldi3+0x23>
    61a1: a4 19        	ldy	$19                     ; 0x2019 <f256main+0x1705>
    61a3: d0 07        	bne	$61ac <__muldi3+0x23>
    61a5: a4 18        	ldy	$18                     ; 0x2018 <f256main+0x1704>
    61a7: d0 03        	bne	$61ac <__muldi3+0x23>
    61a9: 4c 70 62     	jmp	$6270 <__muldi3+0xe7>
    61ac: 85 22        	sta	$22                     ; 0x2022 <f256main+0x170e>
    61ae: 86 23        	stx	$23                     ; 0x2023 <f256main+0x170f>
    61b0: a0 00        	ldy	#$0
    61b2: a2 00        	ldx	#$0
    61b4: 64 ad        	stz	$ad                     ; 0x20ad <f256main+0x1799>
    61b6: 64 ae        	stz	$ae                     ; 0x20ae <f256main+0x179a>
    61b8: 64 af        	stz	$af                     ; 0x20af <f256main+0x179b>
    61ba: 64 b0        	stz	$b0                     ; 0x20b0 <f256main+0x179c>
    61bc: 64 b1        	stz	$b1                     ; 0x20b1 <f256main+0x179d>
    61be: 98           	tya
    61bf: 46 1f        	lsr	$1f                     ; 0x201f <f256main+0x170b>
    61c1: 66 1e        	ror	$1e                     ; 0x201e <f256main+0x170a>
    61c3: 66 1d        	ror	$1d                     ; 0x201d <f256main+0x1709>
    61c5: 66 1c        	ror	$1c                     ; 0x201c <f256main+0x1708>
    61c7: 66 1b        	ror	$1b                     ; 0x201b <f256main+0x1707>
    61c9: 66 1a        	ror	$1a                     ; 0x201a <f256main+0x1706>
    61cb: 66 19        	ror	$19                     ; 0x2019 <f256main+0x1705>
    61cd: 66 18        	ror	$18                     ; 0x2018 <f256main+0x1704>
    61cf: 90 2d        	bcc	$61fe <__muldi3+0x75>
    61d1: 85 b2        	sta	$b2                     ; 0x20b2 <f256main+0x179e>
    61d3: 98           	tya
    61d4: 18           	clc
    61d5: 65 22        	adc	$22                     ; 0x2022 <f256main+0x170e>
    61d7: a8           	tay
    61d8: 8a           	txa
    61d9: 65 23        	adc	$23                     ; 0x2023 <f256main+0x170f>
    61db: aa           	tax
    61dc: a5 ad        	lda	$ad                     ; 0x20ad <f256main+0x1799>
    61de: 65 12        	adc	$12                     ; 0x2012 <f256main+0x16fe>
    61e0: 85 ad        	sta	$ad                     ; 0x20ad <f256main+0x1799>
    61e2: a5 ae        	lda	$ae                     ; 0x20ae <f256main+0x179a>
    61e4: 65 13        	adc	$13                     ; 0x2013 <f256main+0x16ff>
    61e6: 85 ae        	sta	$ae                     ; 0x20ae <f256main+0x179a>
    61e8: a5 af        	lda	$af                     ; 0x20af <f256main+0x179b>
    61ea: 65 14        	adc	$14                     ; 0x2014 <f256main+0x1700>
    61ec: 85 af        	sta	$af                     ; 0x20af <f256main+0x179b>
    61ee: a5 b0        	lda	$b0                     ; 0x20b0 <f256main+0x179c>
    61f0: 65 15        	adc	$15                     ; 0x2015 <f256main+0x1701>
    61f2: 85 b0        	sta	$b0                     ; 0x20b0 <f256main+0x179c>
    61f4: a5 b1        	lda	$b1                     ; 0x20b1 <f256main+0x179d>
    61f6: 65 16        	adc	$16                     ; 0x2016 <f256main+0x1702>
    61f8: 85 b1        	sta	$b1                     ; 0x20b1 <f256main+0x179d>
    61fa: a5 b2        	lda	$b2                     ; 0x20b2 <f256main+0x179e>
    61fc: 65 17        	adc	$17                     ; 0x2017 <f256main+0x1703>
    61fe: 06 22        	asl	$22                     ; 0x2022 <f256main+0x170e>
    6200: 26 23        	rol	$23                     ; 0x2023 <f256main+0x170f>
    6202: 26 12        	rol	$12                     ; 0x2012 <f256main+0x16fe>
    6204: 26 13        	rol	$13                     ; 0x2013 <f256main+0x16ff>
    6206: 26 14        	rol	$14                     ; 0x2014 <f256main+0x1700>
    6208: 26 15        	rol	$15                     ; 0x2015 <f256main+0x1701>
    620a: 26 16        	rol	$16                     ; 0x2016 <f256main+0x1702>
    620c: 26 17        	rol	$17                     ; 0x2017 <f256main+0x1703>
    620e: e6 1f        	inc	$1f                     ; 0x201f <f256main+0x170b>
    6210: c6 1f        	dec	$1f                     ; 0x201f <f256main+0x170b>
    6212: f0 03        	beq	$6217 <__muldi3+0x8e>
    6214: 4c bf 61     	jmp	$61bf <__muldi3+0x36>
    6217: e6 1e        	inc	$1e                     ; 0x201e <f256main+0x170a>
    6219: c6 1e        	dec	$1e                     ; 0x201e <f256main+0x170a>
    621b: f0 03        	beq	$6220 <__muldi3+0x97>
    621d: 4c bf 61     	jmp	$61bf <__muldi3+0x36>
    6220: e6 1d        	inc	$1d                     ; 0x201d <f256main+0x1709>
    6222: c6 1d        	dec	$1d                     ; 0x201d <f256main+0x1709>
    6224: f0 03        	beq	$6229 <__muldi3+0xa0>
    6226: 4c bf 61     	jmp	$61bf <__muldi3+0x36>
    6229: e6 1c        	inc	$1c                     ; 0x201c <f256main+0x1708>
    622b: c6 1c        	dec	$1c                     ; 0x201c <f256main+0x1708>
    622d: f0 03        	beq	$6232 <__muldi3+0xa9>
    622f: 4c bf 61     	jmp	$61bf <__muldi3+0x36>
    6232: e6 1b        	inc	$1b                     ; 0x201b <f256main+0x1707>
    6234: c6 1b        	dec	$1b                     ; 0x201b <f256main+0x1707>
    6236: f0 03        	beq	$623b <__muldi3+0xb2>
    6238: 4c bf 61     	jmp	$61bf <__muldi3+0x36>
    623b: e6 1a        	inc	$1a                     ; 0x201a <f256main+0x1706>
    623d: c6 1a        	dec	$1a                     ; 0x201a <f256main+0x1706>
    623f: f0 03        	beq	$6244 <__muldi3+0xbb>
    6241: 4c bf 61     	jmp	$61bf <__muldi3+0x36>
    6244: e6 19        	inc	$19                     ; 0x2019 <f256main+0x1705>
    6246: c6 19        	dec	$19                     ; 0x2019 <f256main+0x1705>
    6248: f0 03        	beq	$624d <__muldi3+0xc4>
    624a: 4c bf 61     	jmp	$61bf <__muldi3+0x36>
    624d: e6 18        	inc	$18                     ; 0x2018 <f256main+0x1704>
    624f: c6 18        	dec	$18                     ; 0x2018 <f256main+0x1704>
    6251: f0 03        	beq	$6256 <__muldi3+0xcd>
    6253: 4c bf 61     	jmp	$61bf <__muldi3+0x36>
    6256: 5a           	phy
    6257: a4 ad        	ldy	$ad                     ; 0x20ad <f256main+0x1799>
    6259: 84 12        	sty	$12                     ; 0x2012 <f256main+0x16fe>
    625b: a4 ae        	ldy	$ae                     ; 0x20ae <f256main+0x179a>
    625d: 84 13        	sty	$13                     ; 0x2013 <f256main+0x16ff>
    625f: a4 af        	ldy	$af                     ; 0x20af <f256main+0x179b>
    6261: 84 14        	sty	$14                     ; 0x2014 <f256main+0x1700>
    6263: a4 b0        	ldy	$b0                     ; 0x20b0 <f256main+0x179c>
    6265: 84 15        	sty	$15                     ; 0x2015 <f256main+0x1701>
    6267: a4 b1        	ldy	$b1                     ; 0x20b1 <f256main+0x179d>
    6269: 84 16        	sty	$16                     ; 0x2016 <f256main+0x1702>
    626b: 7a           	ply
    626c: 85 17        	sta	$17                     ; 0x2017 <f256main+0x1703>
    626e: 98           	tya
    626f: 60           	rts
    6270: a0 00        	ldy	#$0
    6272: a2 00        	ldx	#$0
    6274: 64 ad        	stz	$ad                     ; 0x20ad <f256main+0x1799>
    6276: 64 ae        	stz	$ae                     ; 0x20ae <f256main+0x179a>
    6278: 64 af        	stz	$af                     ; 0x20af <f256main+0x179b>
    627a: 64 b0        	stz	$b0                     ; 0x20b0 <f256main+0x179c>
    627c: 64 b1        	stz	$b1                     ; 0x20b1 <f256main+0x179d>
    627e: 98           	tya
    627f: 80 d5        	bra	$6256 <__muldi3+0xcd>

00006281 <__udivqi3>:
    6281: a8           	tay
    6282: a9 00        	lda	#$0
    6284: e0 00        	cpx	#$0
    6286: d0 03        	bne	$628b <__udivqi3+0xa>
    6288: 4c dc 62     	jmp	$62dc <__udivqi3+0x5b>
    628b: 86 13        	stx	$13                     ; 0x2013 <f256main+0x16ff>
    628d: c4 13        	cpy	$13                     ; 0x2013 <f256main+0x16ff>
    628f: 90 4b        	bcc	$62dc <__udivqi3+0x5b>
    6291: a9 01        	lda	#$1
    6293: a6 13        	ldx	$13                     ; 0x2013 <f256main+0x16ff>
    6295: 30 45        	bmi	$62dc <__udivqi3+0x5b>
    6297: 84 14        	sty	$14                     ; 0x2014 <f256main+0x1700>
    6299: a2 00        	ldx	#$0
    629b: a4 13        	ldy	$13                     ; 0x2013 <f256main+0x16ff>
    629d: 84 12        	sty	$12                     ; 0x2012 <f256main+0x16fe>
    629f: 06 12        	asl	$12                     ; 0x2012 <f256main+0x16fe>
    62a1: a4 14        	ldy	$14                     ; 0x2014 <f256main+0x1700>
    62a3: c4 12        	cpy	$12                     ; 0x2012 <f256main+0x16fe>
    62a5: 90 09        	bcc	$62b0 <__udivqi3+0x2f>
    62a7: e8           	inx
    62a8: a4 12        	ldy	$12                     ; 0x2012 <f256main+0x16fe>
    62aa: 84 13        	sty	$13                     ; 0x2013 <f256main+0x16ff>
    62ac: 10 f1        	bpl	$629f <__udivqi3+0x1e>
    62ae: 80 04        	bra	$62b4 <__udivqi3+0x33>
    62b0: a4 13        	ldy	$13                     ; 0x2013 <f256main+0x16ff>
    62b2: 84 12        	sty	$12                     ; 0x2012 <f256main+0x16fe>
    62b4: e0 00        	cpx	#$0
    62b6: f0 24        	beq	$62dc <__udivqi3+0x5b>
    62b8: 38           	sec
    62b9: a5 14        	lda	$14                     ; 0x2014 <f256main+0x1700>
    62bb: e5 12        	sbc	$12                     ; 0x2012 <f256main+0x16fe>
    62bd: 85 13        	sta	$13                     ; 0x2013 <f256main+0x16ff>
    62bf: a9 01        	lda	#$1
    62c1: 46 12        	lsr	$12                     ; 0x2012 <f256main+0x16fe>
    62c3: 0a           	asl
    62c4: a8           	tay
    62c5: a5 13        	lda	$13                     ; 0x2013 <f256main+0x16ff>
    62c7: c5 12        	cmp	$12                     ; 0x2012 <f256main+0x16fe>
    62c9: 90 0b        	bcc	$62d6 <__udivqi3+0x55>
    62cb: 98           	tya
    62cc: 09 01        	ora	#$1
    62ce: a8           	tay
    62cf: 38           	sec
    62d0: a5 13        	lda	$13                     ; 0x2013 <f256main+0x16ff>
    62d2: e5 12        	sbc	$12                     ; 0x2012 <f256main+0x16fe>
    62d4: 85 13        	sta	$13                     ; 0x2013 <f256main+0x16ff>
    62d6: ca           	dex
    62d7: 98           	tya
    62d8: e0 00        	cpx	#$0
    62da: d0 e5        	bne	$62c1 <__udivqi3+0x40>
    62dc: 60           	rts

000062dd <__udivhi3>:
    62dd: 64 14        	stz	$14                     ; 0x2014 <f256main+0x1700>
    62df: a4 13        	ldy	$13                     ; 0x2013 <f256main+0x16ff>
    62e1: d0 04        	bne	$62e7 <__udivhi3+0xa>
    62e3: a4 12        	ldy	$12                     ; 0x2012 <f256main+0x16fe>
    62e5: f0 0e        	beq	$62f5 <__udivhi3+0x18>
    62e7: 85 17        	sta	$17                     ; 0x2017 <f256main+0x1703>
    62e9: 8a           	txa
    62ea: e4 13        	cpx	$13                     ; 0x2013 <f256main+0x16ff>
    62ec: d0 0e        	bne	$62fc <__udivhi3+0x1f>
    62ee: a5 17        	lda	$17                     ; 0x2017 <f256main+0x1703>
    62f0: c5 12        	cmp	$12                     ; 0x2012 <f256main+0x16fe>
    62f2: 8a           	txa
    62f3: b0 0b        	bcs	$6300 <__udivhi3+0x23>
    62f5: a2 00        	ldx	#$0
    62f7: 86 8f        	stx	$8f                     ; 0x208f <f256main+0x177b>
    62f9: 4c 98 63     	jmp	$6398 <__udivhi3+0xbb>
    62fc: c5 13        	cmp	$13                     ; 0x2013 <f256main+0x16ff>
    62fe: 90 f5        	bcc	$62f5 <__udivhi3+0x18>
    6300: a2 01        	ldx	#$1
    6302: 86 8f        	stx	$8f                     ; 0x208f <f256main+0x177b>
    6304: a6 13        	ldx	$13                     ; 0x2013 <f256main+0x16ff>
    6306: 10 03        	bpl	$630b <__udivhi3+0x2e>
    6308: 4c 98 63     	jmp	$6398 <__udivhi3+0xbb>
    630b: a2 00        	ldx	#$0
    630d: a4 12        	ldy	$12                     ; 0x2012 <f256main+0x16fe>
    630f: 84 15        	sty	$15                     ; 0x2015 <f256main+0x1701>
    6311: a4 13        	ldy	$13                     ; 0x2013 <f256main+0x16ff>
    6313: 84 16        	sty	$16                     ; 0x2016 <f256main+0x1702>
    6315: 06 15        	asl	$15                     ; 0x2015 <f256main+0x1701>
    6317: 26 16        	rol	$16                     ; 0x2016 <f256main+0x1702>
    6319: c5 16        	cmp	$16                     ; 0x2016 <f256main+0x1702>
    631b: d0 08        	bne	$6325 <__udivhi3+0x48>
    631d: a4 17        	ldy	$17                     ; 0x2017 <f256main+0x1703>
    631f: c4 15        	cpy	$15                     ; 0x2015 <f256main+0x1701>
    6321: 90 13        	bcc	$6336 <__udivhi3+0x59>
    6323: 80 04        	bra	$6329 <__udivhi3+0x4c>
    6325: c5 16        	cmp	$16                     ; 0x2016 <f256main+0x1702>
    6327: 90 0d        	bcc	$6336 <__udivhi3+0x59>
    6329: e8           	inx
    632a: a4 15        	ldy	$15                     ; 0x2015 <f256main+0x1701>
    632c: 84 12        	sty	$12                     ; 0x2012 <f256main+0x16fe>
    632e: a4 16        	ldy	$16                     ; 0x2016 <f256main+0x1702>
    6330: 84 13        	sty	$13                     ; 0x2013 <f256main+0x16ff>
    6332: 10 e1        	bpl	$6315 <__udivhi3+0x38>
    6334: 80 08        	bra	$633e <__udivhi3+0x61>
    6336: a4 12        	ldy	$12                     ; 0x2012 <f256main+0x16fe>
    6338: 84 15        	sty	$15                     ; 0x2015 <f256main+0x1701>
    633a: a4 13        	ldy	$13                     ; 0x2013 <f256main+0x16ff>
    633c: 84 16        	sty	$16                     ; 0x2016 <f256main+0x1702>
    633e: e0 00        	cpx	#$0
    6340: d0 03        	bne	$6345 <__udivhi3+0x68>
    6342: 4c 98 63     	jmp	$6398 <__udivhi3+0xbb>
    6345: 38           	sec
    6346: a8           	tay
    6347: a5 17        	lda	$17                     ; 0x2017 <f256main+0x1703>
    6349: e5 15        	sbc	$15                     ; 0x2015 <f256main+0x1701>
    634b: 85 12        	sta	$12                     ; 0x2012 <f256main+0x16fe>
    634d: 98           	tya
    634e: e5 16        	sbc	$16                     ; 0x2016 <f256main+0x1702>
    6350: a0 01        	ldy	#$1
    6352: 84 8f        	sty	$8f                     ; 0x208f <f256main+0x177b>
    6354: 64 14        	stz	$14                     ; 0x2014 <f256main+0x1700>
    6356: 46 16        	lsr	$16                     ; 0x2016 <f256main+0x1702>
    6358: 66 15        	ror	$15                     ; 0x2015 <f256main+0x1701>
    635a: a4 8f        	ldy	$8f                     ; 0x208f <f256main+0x177b>
    635c: 84 13        	sty	$13                     ; 0x2013 <f256main+0x16ff>
    635e: 06 13        	asl	$13                     ; 0x2013 <f256main+0x16ff>
    6360: a0 01        	ldy	#$1
    6362: b0 02        	bcs	$6366 <__udivhi3+0x89>
    6364: a0 00        	ldy	#$0
    6366: 84 17        	sty	$17                     ; 0x2017 <f256main+0x1703>
    6368: a4 13        	ldy	$13                     ; 0x2013 <f256main+0x16ff>
    636a: 84 8f        	sty	$8f                     ; 0x208f <f256main+0x177b>
    636c: c5 16        	cmp	$16                     ; 0x2016 <f256main+0x1702>
    636e: d0 22        	bne	$6392 <__udivhi3+0xb5>
    6370: a4 12        	ldy	$12                     ; 0x2012 <f256main+0x16fe>
    6372: c4 15        	cpy	$15                     ; 0x2015 <f256main+0x1701>
    6374: 90 11        	bcc	$6387 <__udivhi3+0xaa>
    6376: a8           	tay
    6377: a5 8f        	lda	$8f                     ; 0x208f <f256main+0x177b>
    6379: 09 01        	ora	#$1
    637b: 85 8f        	sta	$8f                     ; 0x208f <f256main+0x177b>
    637d: 38           	sec
    637e: a5 12        	lda	$12                     ; 0x2012 <f256main+0x16fe>
    6380: e5 15        	sbc	$15                     ; 0x2015 <f256main+0x1701>
    6382: 85 12        	sta	$12                     ; 0x2012 <f256main+0x16fe>
    6384: 98           	tya
    6385: e5 16        	sbc	$16                     ; 0x2016 <f256main+0x1702>
    6387: a4 17        	ldy	$17                     ; 0x2017 <f256main+0x1703>
    6389: c0 01        	cpy	#$1
    638b: 26 14        	rol	$14                     ; 0x2014 <f256main+0x1700>
    638d: ca           	dex
    638e: d0 c6        	bne	$6356 <__udivhi3+0x79>
    6390: 80 06        	bra	$6398 <__udivhi3+0xbb>
    6392: c5 16        	cmp	$16                     ; 0x2016 <f256main+0x1702>
    6394: b0 e0        	bcs	$6376 <__udivhi3+0x99>
    6396: 80 ef        	bra	$6387 <__udivhi3+0xaa>
    6398: a6 14        	ldx	$14                     ; 0x2014 <f256main+0x1700>
    639a: a5 8f        	lda	$8f                     ; 0x208f <f256main+0x177b>
    639c: 60           	rts

0000639d <__umodsi3>:
    639d: 85 1c        	sta	$1c                     ; 0x201c <f256main+0x1708>
    639f: 86 1a        	stx	$1a                     ; 0x201a <f256main+0x1706>
    63a1: a5 13        	lda	$13                     ; 0x2013 <f256main+0x16ff>
    63a3: a6 17        	ldx	$17                     ; 0x2017 <f256main+0x1703>
    63a5: d0 0f        	bne	$63b6 <__umodsi3+0x19>
    63a7: a6 16        	ldx	$16                     ; 0x2016 <f256main+0x1702>
    63a9: d0 0b        	bne	$63b6 <__umodsi3+0x19>
    63ab: a6 15        	ldx	$15                     ; 0x2015 <f256main+0x1701>
    63ad: d0 07        	bne	$63b6 <__umodsi3+0x19>
    63af: a6 14        	ldx	$14                     ; 0x2014 <f256main+0x1700>
    63b1: d0 03        	bne	$63b6 <__umodsi3+0x19>
    63b3: 4c dd 64     	jmp	$64dd <__umodsi3+0x140>
    63b6: c5 17        	cmp	$17                     ; 0x2017 <f256main+0x1703>
    63b8: d0 15        	bne	$63cf <__umodsi3+0x32>
    63ba: a6 12        	ldx	$12                     ; 0x2012 <f256main+0x16fe>
    63bc: e4 16        	cpx	$16                     ; 0x2016 <f256main+0x1702>
    63be: d0 16        	bne	$63d6 <__umodsi3+0x39>
    63c0: a6 1a        	ldx	$1a                     ; 0x201a <f256main+0x1706>
    63c2: e4 15        	cpx	$15                     ; 0x2015 <f256main+0x1701>
    63c4: d0 17        	bne	$63dd <__umodsi3+0x40>
    63c6: a6 1c        	ldx	$1c                     ; 0x201c <f256main+0x1708>
    63c8: e4 14        	cpx	$14                     ; 0x2014 <f256main+0x1700>
    63ca: b0 1a        	bcs	$63e6 <__umodsi3+0x49>
    63cc: 4c dd 64     	jmp	$64dd <__umodsi3+0x140>
    63cf: c5 17        	cmp	$17                     ; 0x2017 <f256main+0x1703>
    63d1: b0 13        	bcs	$63e6 <__umodsi3+0x49>
    63d3: 4c dd 64     	jmp	$64dd <__umodsi3+0x140>
    63d6: e4 16        	cpx	$16                     ; 0x2016 <f256main+0x1702>
    63d8: b0 0c        	bcs	$63e6 <__umodsi3+0x49>
    63da: 4c dd 64     	jmp	$64dd <__umodsi3+0x140>
    63dd: a6 1a        	ldx	$1a                     ; 0x201a <f256main+0x1706>
    63df: e4 15        	cpx	$15                     ; 0x2015 <f256main+0x1701>
    63e1: b0 03        	bcs	$63e6 <__umodsi3+0x49>
    63e3: 4c dd 64     	jmp	$64dd <__umodsi3+0x140>
    63e6: a6 17        	ldx	$17                     ; 0x2017 <f256main+0x1703>
    63e8: 10 03        	bpl	$63ed <__umodsi3+0x50>
    63ea: 4c c6 64     	jmp	$64c6 <__umodsi3+0x129>
    63ed: a2 00        	ldx	#$0
    63ef: a4 14        	ldy	$14                     ; 0x2014 <f256main+0x1700>
    63f1: 84 1b        	sty	$1b                     ; 0x201b <f256main+0x1707>
    63f3: a4 15        	ldy	$15                     ; 0x2015 <f256main+0x1701>
    63f5: 84 13        	sty	$13                     ; 0x2013 <f256main+0x16ff>
    63f7: a4 16        	ldy	$16                     ; 0x2016 <f256main+0x1702>
    63f9: 84 18        	sty	$18                     ; 0x2018 <f256main+0x1704>
    63fb: a4 17        	ldy	$17                     ; 0x2017 <f256main+0x1703>
    63fd: 84 19        	sty	$19                     ; 0x2019 <f256main+0x1705>
    63ff: 06 1b        	asl	$1b                     ; 0x201b <f256main+0x1707>
    6401: 26 13        	rol	$13                     ; 0x2013 <f256main+0x16ff>
    6403: 26 18        	rol	$18                     ; 0x2018 <f256main+0x1704>
    6405: 26 19        	rol	$19                     ; 0x2019 <f256main+0x1705>
    6407: c5 19        	cmp	$19                     ; 0x2019 <f256main+0x1705>
    6409: d0 16        	bne	$6421 <__umodsi3+0x84>
    640b: a4 12        	ldy	$12                     ; 0x2012 <f256main+0x16fe>
    640d: c4 18        	cpy	$18                     ; 0x2018 <f256main+0x1704>
    640f: d0 16        	bne	$6427 <__umodsi3+0x8a>
    6411: a4 1a        	ldy	$1a                     ; 0x201a <f256main+0x1706>
    6413: c4 13        	cpy	$13                     ; 0x2013 <f256main+0x16ff>
    6415: d0 16        	bne	$642d <__umodsi3+0x90>
    6417: a8           	tay
    6418: a5 1c        	lda	$1c                     ; 0x201c <f256main+0x1708>
    641a: c5 1b        	cmp	$1b                     ; 0x201b <f256main+0x1707>
    641c: 98           	tya
    641d: 90 29        	bcc	$6448 <__umodsi3+0xab>
    641f: 80 12        	bra	$6433 <__umodsi3+0x96>
    6421: c5 19        	cmp	$19                     ; 0x2019 <f256main+0x1705>
    6423: 90 23        	bcc	$6448 <__umodsi3+0xab>
    6425: 80 0c        	bra	$6433 <__umodsi3+0x96>
    6427: c4 18        	cpy	$18                     ; 0x2018 <f256main+0x1704>
    6429: 90 1d        	bcc	$6448 <__umodsi3+0xab>
    642b: 80 06        	bra	$6433 <__umodsi3+0x96>
    642d: a4 1a        	ldy	$1a                     ; 0x201a <f256main+0x1706>
    642f: c4 13        	cpy	$13                     ; 0x2013 <f256main+0x16ff>
    6431: 90 15        	bcc	$6448 <__umodsi3+0xab>
    6433: e8           	inx
    6434: a4 1b        	ldy	$1b                     ; 0x201b <f256main+0x1707>
    6436: 84 14        	sty	$14                     ; 0x2014 <f256main+0x1700>
    6438: a4 13        	ldy	$13                     ; 0x2013 <f256main+0x16ff>
    643a: 84 15        	sty	$15                     ; 0x2015 <f256main+0x1701>
    643c: a4 18        	ldy	$18                     ; 0x2018 <f256main+0x1704>
    643e: 84 16        	sty	$16                     ; 0x2016 <f256main+0x1702>
    6440: a4 19        	ldy	$19                     ; 0x2019 <f256main+0x1705>
    6442: 84 17        	sty	$17                     ; 0x2017 <f256main+0x1703>
    6444: 10 b9        	bpl	$63ff <__umodsi3+0x62>
    6446: 80 10        	bra	$6458 <__umodsi3+0xbb>
    6448: a4 14        	ldy	$14                     ; 0x2014 <f256main+0x1700>
    644a: 84 1b        	sty	$1b                     ; 0x201b <f256main+0x1707>
    644c: a4 15        	ldy	$15                     ; 0x2015 <f256main+0x1701>
    644e: 84 13        	sty	$13                     ; 0x2013 <f256main+0x16ff>
    6450: a4 16        	ldy	$16                     ; 0x2016 <f256main+0x1702>
    6452: 84 18        	sty	$18                     ; 0x2018 <f256main+0x1704>
    6454: a4 17        	ldy	$17                     ; 0x2017 <f256main+0x1703>
    6456: 84 19        	sty	$19                     ; 0x2019 <f256main+0x1705>
    6458: 38           	sec
    6459: a8           	tay
    645a: a5 1c        	lda	$1c                     ; 0x201c <f256main+0x1708>
    645c: e5 1b        	sbc	$1b                     ; 0x201b <f256main+0x1707>
    645e: 85 1c        	sta	$1c                     ; 0x201c <f256main+0x1708>
    6460: a5 1a        	lda	$1a                     ; 0x201a <f256main+0x1706>
    6462: e5 13        	sbc	$13                     ; 0x2013 <f256main+0x16ff>
    6464: 85 1a        	sta	$1a                     ; 0x201a <f256main+0x1706>
    6466: a5 12        	lda	$12                     ; 0x2012 <f256main+0x16fe>
    6468: e5 18        	sbc	$18                     ; 0x2018 <f256main+0x1704>
    646a: 85 12        	sta	$12                     ; 0x2012 <f256main+0x16fe>
    646c: 98           	tya
    646d: e5 19        	sbc	$19                     ; 0x2019 <f256main+0x1705>
    646f: e0 00        	cpx	#$0
    6471: d0 11        	bne	$6484 <__umodsi3+0xe7>
    6473: 4c dd 64     	jmp	$64dd <__umodsi3+0x140>
    6476: c4 18        	cpy	$18                     ; 0x2018 <f256main+0x1704>
    6478: b0 30        	bcs	$64aa <__umodsi3+0x10d>
    647a: 80 45        	bra	$64c1 <__umodsi3+0x124>
    647c: a4 1a        	ldy	$1a                     ; 0x201a <f256main+0x1706>
    647e: c4 13        	cpy	$13                     ; 0x2013 <f256main+0x16ff>
    6480: b0 28        	bcs	$64aa <__umodsi3+0x10d>
    6482: 80 3d        	bra	$64c1 <__umodsi3+0x124>
    6484: 46 19        	lsr	$19                     ; 0x2019 <f256main+0x1705>
    6486: 66 18        	ror	$18                     ; 0x2018 <f256main+0x1704>
    6488: 66 13        	ror	$13                     ; 0x2013 <f256main+0x16ff>
    648a: 66 1b        	ror	$1b                     ; 0x201b <f256main+0x1707>
    648c: c5 19        	cmp	$19                     ; 0x2019 <f256main+0x1705>
    648e: d0 16        	bne	$64a6 <__umodsi3+0x109>
    6490: a4 12        	ldy	$12                     ; 0x2012 <f256main+0x16fe>
    6492: c4 18        	cpy	$18                     ; 0x2018 <f256main+0x1704>
    6494: d0 e0        	bne	$6476 <__umodsi3+0xd9>
    6496: a4 1a        	ldy	$1a                     ; 0x201a <f256main+0x1706>
    6498: c4 13        	cpy	$13                     ; 0x2013 <f256main+0x16ff>
    649a: d0 e0        	bne	$647c <__umodsi3+0xdf>
    649c: a8           	tay
    649d: a5 1c        	lda	$1c                     ; 0x201c <f256main+0x1708>
    649f: c5 1b        	cmp	$1b                     ; 0x201b <f256main+0x1707>
    64a1: 98           	tya
    64a2: b0 06        	bcs	$64aa <__umodsi3+0x10d>
    64a4: 80 1b        	bra	$64c1 <__umodsi3+0x124>
    64a6: c5 19        	cmp	$19                     ; 0x2019 <f256main+0x1705>
    64a8: 90 17        	bcc	$64c1 <__umodsi3+0x124>
    64aa: a8           	tay
    64ab: 38           	sec
    64ac: a5 1c        	lda	$1c                     ; 0x201c <f256main+0x1708>
    64ae: e5 1b        	sbc	$1b                     ; 0x201b <f256main+0x1707>
    64b0: 85 1c        	sta	$1c                     ; 0x201c <f256main+0x1708>
    64b2: a5 1a        	lda	$1a                     ; 0x201a <f256main+0x1706>
    64b4: e5 13        	sbc	$13                     ; 0x2013 <f256main+0x16ff>
    64b6: 85 1a        	sta	$1a                     ; 0x201a <f256main+0x1706>
    64b8: a5 12        	lda	$12                     ; 0x2012 <f256main+0x16fe>
    64ba: e5 18        	sbc	$18                     ; 0x2018 <f256main+0x1704>
    64bc: 85 12        	sta	$12                     ; 0x2012 <f256main+0x16fe>
    64be: 98           	tya
    64bf: e5 19        	sbc	$19                     ; 0x2019 <f256main+0x1705>
    64c1: ca           	dex
    64c2: d0 c0        	bne	$6484 <__umodsi3+0xe7>
    64c4: 80 17        	bra	$64dd <__umodsi3+0x140>
    64c6: 38           	sec
    64c7: a8           	tay
    64c8: a5 1c        	lda	$1c                     ; 0x201c <f256main+0x1708>
    64ca: e5 14        	sbc	$14                     ; 0x2014 <f256main+0x1700>
    64cc: 85 1c        	sta	$1c                     ; 0x201c <f256main+0x1708>
    64ce: a5 1a        	lda	$1a                     ; 0x201a <f256main+0x1706>
    64d0: e5 15        	sbc	$15                     ; 0x2015 <f256main+0x1701>
    64d2: 85 1a        	sta	$1a                     ; 0x201a <f256main+0x1706>
    64d4: a5 12        	lda	$12                     ; 0x2012 <f256main+0x16fe>
    64d6: e5 16        	sbc	$16                     ; 0x2016 <f256main+0x1702>
    64d8: 85 12        	sta	$12                     ; 0x2012 <f256main+0x16fe>
    64da: 98           	tya
    64db: e5 17        	sbc	$17                     ; 0x2017 <f256main+0x1703>
    64dd: 85 13        	sta	$13                     ; 0x2013 <f256main+0x16ff>
    64df: a6 1a        	ldx	$1a                     ; 0x201a <f256main+0x1706>
    64e1: a5 1c        	lda	$1c                     ; 0x201c <f256main+0x1708>
    64e3: 60           	rts

000064e4 <__udivmodqi4>:
    64e4: a8           	tay
    64e5: a9 00        	lda	#$0
    64e7: e0 00        	cpx	#$0
    64e9: f0 25        	beq	$6510 <__udivmodqi4+0x2c>
    64eb: 86 15        	stx	$15                     ; 0x2015 <f256main+0x1701>
    64ed: 84 16        	sty	$16                     ; 0x2016 <f256main+0x1702>
    64ef: c4 15        	cpy	$15                     ; 0x2015 <f256main+0x1701>
    64f1: b0 03        	bcs	$64f6 <__udivmodqi4+0x12>
    64f3: 4c 4b 65     	jmp	$654b <__udivmodqi4+0x67>
    64f6: a5 15        	lda	$15                     ; 0x2015 <f256main+0x1701>
    64f8: 30 1a        	bmi	$6514 <__udivmodqi4+0x30>
    64fa: a2 00        	ldx	#$0
    64fc: a5 15        	lda	$15                     ; 0x2015 <f256main+0x1701>
    64fe: 85 14        	sta	$14                     ; 0x2014 <f256main+0x1700>
    6500: 98           	tya
    6501: 06 14        	asl	$14                     ; 0x2014 <f256main+0x1700>
    6503: c5 14        	cmp	$14                     ; 0x2014 <f256main+0x1700>
    6505: 90 15        	bcc	$651c <__udivmodqi4+0x38>
    6507: e8           	inx
    6508: a4 14        	ldy	$14                     ; 0x2014 <f256main+0x1700>
    650a: 84 15        	sty	$15                     ; 0x2015 <f256main+0x1701>
    650c: 10 f3        	bpl	$6501 <__udivmodqi4+0x1d>
    650e: 80 10        	bra	$6520 <__udivmodqi4+0x3c>
    6510: 84 16        	sty	$16                     ; 0x2016 <f256main+0x1702>
    6512: 80 37        	bra	$654b <__udivmodqi4+0x67>
    6514: 38           	sec
    6515: 98           	tya
    6516: e5 15        	sbc	$15                     ; 0x2015 <f256main+0x1701>
    6518: 85 16        	sta	$16                     ; 0x2016 <f256main+0x1702>
    651a: 80 2d        	bra	$6549 <__udivmodqi4+0x65>
    651c: a4 15        	ldy	$15                     ; 0x2015 <f256main+0x1701>
    651e: 84 14        	sty	$14                     ; 0x2014 <f256main+0x1700>
    6520: 38           	sec
    6521: e5 14        	sbc	$14                     ; 0x2014 <f256main+0x1700>
    6523: 85 16        	sta	$16                     ; 0x2016 <f256main+0x1702>
    6525: 8a           	txa
    6526: f0 21        	beq	$6549 <__udivmodqi4+0x65>
    6528: a9 01        	lda	#$1
    652a: 46 14        	lsr	$14                     ; 0x2014 <f256main+0x1700>
    652c: 0a           	asl
    652d: a8           	tay
    652e: a5 16        	lda	$16                     ; 0x2016 <f256main+0x1702>
    6530: c5 14        	cmp	$14                     ; 0x2014 <f256main+0x1700>
    6532: 90 0d        	bcc	$6541 <__udivmodqi4+0x5d>
    6534: 85 15        	sta	$15                     ; 0x2015 <f256main+0x1701>
    6536: 98           	tya
    6537: 09 01        	ora	#$1
    6539: a8           	tay
    653a: 38           	sec
    653b: a5 15        	lda	$15                     ; 0x2015 <f256main+0x1701>
    653d: e5 14        	sbc	$14                     ; 0x2014 <f256main+0x1700>
    653f: 85 16        	sta	$16                     ; 0x2016 <f256main+0x1702>
    6541: ca           	dex
    6542: 98           	tya
    6543: e0 00        	cpx	#$0
    6545: d0 e3        	bne	$652a <__udivmodqi4+0x46>
    6547: 80 02        	bra	$654b <__udivmodqi4+0x67>
    6549: a9 01        	lda	#$1
    654b: aa           	tax
    654c: a5 16        	lda	$16                     ; 0x2016 <f256main+0x1702>
    654e: 92 12        	sta	($12)                   ; 0x2012 <f256main+0x16fe>
    6550: 8a           	txa
    6551: 60           	rts

00006552 <__udivmodhi4>:
    6552: 86 1a        	stx	$1a                     ; 0x201a <f256main+0x1706>
    6554: 64 16        	stz	$16                     ; 0x2016 <f256main+0x1702>
    6556: a4 13        	ldy	$13                     ; 0x2013 <f256main+0x16ff>
    6558: d0 04        	bne	$655e <__udivmodhi4+0xc>
    655a: a4 12        	ldy	$12                     ; 0x2012 <f256main+0x16fe>
    655c: f0 08        	beq	$6566 <__udivmodhi4+0x14>
    655e: e4 13        	cpx	$13                     ; 0x2013 <f256main+0x16ff>
    6560: d0 0d        	bne	$656f <__udivmodhi4+0x1d>
    6562: c5 12        	cmp	$12                     ; 0x2012 <f256main+0x16fe>
    6564: b0 0d        	bcs	$6573 <__udivmodhi4+0x21>
    6566: a6 1a        	ldx	$1a                     ; 0x201a <f256main+0x1706>
    6568: 86 12        	stx	$12                     ; 0x2012 <f256main+0x16fe>
    656a: a2 00        	ldx	#$0
    656c: 4c 17 66     	jmp	$6617 <__udivmodhi4+0xc5>
    656f: e4 13        	cpx	$13                     ; 0x2013 <f256main+0x16ff>
    6571: 90 f3        	bcc	$6566 <__udivmodhi4+0x14>
    6573: a6 13        	ldx	$13                     ; 0x2013 <f256main+0x16ff>
    6575: 10 03        	bpl	$657a <__udivmodhi4+0x28>
    6577: 4c 0a 66     	jmp	$660a <__udivmodhi4+0xb8>
    657a: a2 00        	ldx	#$0
    657c: a4 12        	ldy	$12                     ; 0x2012 <f256main+0x16fe>
    657e: 84 17        	sty	$17                     ; 0x2017 <f256main+0x1703>
    6580: a4 13        	ldy	$13                     ; 0x2013 <f256main+0x16ff>
    6582: 84 18        	sty	$18                     ; 0x2018 <f256main+0x1704>
    6584: 06 17        	asl	$17                     ; 0x2017 <f256main+0x1703>
    6586: 26 18        	rol	$18                     ; 0x2018 <f256main+0x1704>
    6588: a4 1a        	ldy	$1a                     ; 0x201a <f256main+0x1706>
    658a: c4 18        	cpy	$18                     ; 0x2018 <f256main+0x1704>
    658c: d0 06        	bne	$6594 <__udivmodhi4+0x42>
    658e: c5 17        	cmp	$17                     ; 0x2017 <f256main+0x1703>
    6590: b0 08        	bcs	$659a <__udivmodhi4+0x48>
    6592: 80 13        	bra	$65a7 <__udivmodhi4+0x55>
    6594: a4 1a        	ldy	$1a                     ; 0x201a <f256main+0x1706>
    6596: c4 18        	cpy	$18                     ; 0x2018 <f256main+0x1704>
    6598: 90 0d        	bcc	$65a7 <__udivmodhi4+0x55>
    659a: e8           	inx
    659b: a4 17        	ldy	$17                     ; 0x2017 <f256main+0x1703>
    659d: 84 12        	sty	$12                     ; 0x2012 <f256main+0x16fe>
    659f: a4 18        	ldy	$18                     ; 0x2018 <f256main+0x1704>
    65a1: 84 13        	sty	$13                     ; 0x2013 <f256main+0x16ff>
    65a3: 10 df        	bpl	$6584 <__udivmodhi4+0x32>
    65a5: 80 08        	bra	$65af <__udivmodhi4+0x5d>
    65a7: a4 12        	ldy	$12                     ; 0x2012 <f256main+0x16fe>
    65a9: 84 17        	sty	$17                     ; 0x2017 <f256main+0x1703>
    65ab: a4 13        	ldy	$13                     ; 0x2013 <f256main+0x16ff>
    65ad: 84 18        	sty	$18                     ; 0x2018 <f256main+0x1704>
    65af: 38           	sec
    65b0: e5 17        	sbc	$17                     ; 0x2017 <f256main+0x1703>
    65b2: a8           	tay
    65b3: a5 1a        	lda	$1a                     ; 0x201a <f256main+0x1706>
    65b5: e5 18        	sbc	$18                     ; 0x2018 <f256main+0x1704>
    65b7: 85 12        	sta	$12                     ; 0x2012 <f256main+0x16fe>
    65b9: 8a           	txa
    65ba: d0 03        	bne	$65bf <__udivmodhi4+0x6d>
    65bc: 4c 26 66     	jmp	$6626 <__udivmodhi4+0xd4>
    65bf: a9 01        	lda	#$1
    65c1: 85 94        	sta	$94                     ; 0x2094 <f256main+0x1780>
    65c3: 64 16        	stz	$16                     ; 0x2016 <f256main+0x1702>
    65c5: 98           	tya
    65c6: 46 18        	lsr	$18                     ; 0x2018 <f256main+0x1704>
    65c8: 66 17        	ror	$17                     ; 0x2017 <f256main+0x1703>
    65ca: a4 94        	ldy	$94                     ; 0x2094 <f256main+0x1780>
    65cc: 84 13        	sty	$13                     ; 0x2013 <f256main+0x16ff>
    65ce: 06 13        	asl	$13                     ; 0x2013 <f256main+0x16ff>
    65d0: a0 01        	ldy	#$1
    65d2: b0 02        	bcs	$65d6 <__udivmodhi4+0x84>
    65d4: a0 00        	ldy	#$0
    65d6: 84 19        	sty	$19                     ; 0x2019 <f256main+0x1705>
    65d8: a4 13        	ldy	$13                     ; 0x2013 <f256main+0x16ff>
    65da: 84 94        	sty	$94                     ; 0x2094 <f256main+0x1780>
    65dc: a4 12        	ldy	$12                     ; 0x2012 <f256main+0x16fe>
    65de: c4 18        	cpy	$18                     ; 0x2018 <f256main+0x1704>
    65e0: d0 22        	bne	$6604 <__udivmodhi4+0xb2>
    65e2: c5 17        	cmp	$17                     ; 0x2017 <f256main+0x1703>
    65e4: 90 13        	bcc	$65f9 <__udivmodhi4+0xa7>
    65e6: a8           	tay
    65e7: a5 94        	lda	$94                     ; 0x2094 <f256main+0x1780>
    65e9: 09 01        	ora	#$1
    65eb: 85 94        	sta	$94                     ; 0x2094 <f256main+0x1780>
    65ed: 38           	sec
    65ee: 98           	tya
    65ef: e5 17        	sbc	$17                     ; 0x2017 <f256main+0x1703>
    65f1: a8           	tay
    65f2: a5 12        	lda	$12                     ; 0x2012 <f256main+0x16fe>
    65f4: e5 18        	sbc	$18                     ; 0x2018 <f256main+0x1704>
    65f6: 85 12        	sta	$12                     ; 0x2012 <f256main+0x16fe>
    65f8: 98           	tya
    65f9: a4 19        	ldy	$19                     ; 0x2019 <f256main+0x1705>
    65fb: c0 01        	cpy	#$1
    65fd: 26 16        	rol	$16                     ; 0x2016 <f256main+0x1702>
    65ff: ca           	dex
    6600: d0 c4        	bne	$65c6 <__udivmodhi4+0x74>
    6602: 80 15        	bra	$6619 <__udivmodhi4+0xc7>
    6604: c4 18        	cpy	$18                     ; 0x2018 <f256main+0x1704>
    6606: b0 de        	bcs	$65e6 <__udivmodhi4+0x94>
    6608: 80 ef        	bra	$65f9 <__udivmodhi4+0xa7>
    660a: 38           	sec
    660b: e5 12        	sbc	$12                     ; 0x2012 <f256main+0x16fe>
    660d: aa           	tax
    660e: a5 1a        	lda	$1a                     ; 0x201a <f256main+0x1706>
    6610: e5 13        	sbc	$13                     ; 0x2013 <f256main+0x16ff>
    6612: 85 12        	sta	$12                     ; 0x2012 <f256main+0x16fe>
    6614: 8a           	txa
    6615: a2 01        	ldx	#$1
    6617: 86 94        	stx	$94                     ; 0x2094 <f256main+0x1780>
    6619: 92 14        	sta	($14)                   ; 0x2014 <f256main+0x1700>
    661b: a0 01        	ldy	#$1
    661d: a5 12        	lda	$12                     ; 0x2012 <f256main+0x16fe>
    661f: 91 14        	sta	($14),y                 ; 0x2014 <f256main+0x1700>
    6621: a6 16        	ldx	$16                     ; 0x2016 <f256main+0x1702>
    6623: a5 94        	lda	$94                     ; 0x2094 <f256main+0x1780>
    6625: 60           	rts
    6626: a2 01        	ldx	#$1
    6628: 86 94        	stx	$94                     ; 0x2094 <f256main+0x1780>
    662a: 98           	tya
    662b: 80 ec        	bra	$6619 <__udivmodhi4+0xc7>

0000662d <__divsf3>:
    662d: 85 9a        	sta	$9a                     ; 0x209a <f256main+0x1786>
    662f: 86 97        	stx	$97                     ; 0x2097 <f256main+0x1783>
    6631: a6 12        	ldx	$12                     ; 0x2012 <f256main+0x16fe>
    6633: 86 19        	stx	$19                     ; 0x2019 <f256main+0x1705>
    6635: a6 14        	ldx	$14                     ; 0x2014 <f256main+0x1700>
    6637: 86 94        	stx	$94                     ; 0x2094 <f256main+0x1780>
    6639: a6 15        	ldx	$15                     ; 0x2015 <f256main+0x1701>
    663b: a5 12        	lda	$12                     ; 0x2012 <f256main+0x16fe>
    663d: 0a           	asl
    663e: a4 13        	ldy	$13                     ; 0x2013 <f256main+0x16ff>
    6640: 84 14        	sty	$14                     ; 0x2014 <f256main+0x1700>
    6642: 26 14        	rol	$14                     ; 0x2014 <f256main+0x1700>
    6644: a5 16        	lda	$16                     ; 0x2016 <f256main+0x1702>
    6646: a4 17        	ldy	$17                     ; 0x2017 <f256main+0x1703>
    6648: 84 12        	sty	$12                     ; 0x2012 <f256main+0x16fe>
    664a: 0a           	asl
    664b: 26 12        	rol	$12                     ; 0x2012 <f256main+0x16fe>
    664d: 18           	clc
    664e: a4 14        	ldy	$14                     ; 0x2014 <f256main+0x1700>
    6650: 84 9b        	sty	$9b                     ; 0x209b <f256main+0x1787>
    6652: a5 14        	lda	$14                     ; 0x2014 <f256main+0x1700>
    6654: 69 01        	adc	#$1
    6656: a8           	tay
    6657: a9 00        	lda	#$0
    6659: 69 ff        	adc	#$ff
    665b: 85 1a        	sta	$1a                     ; 0x201a <f256main+0x1706>
    665d: a5 13        	lda	$13                     ; 0x2013 <f256main+0x16ff>
    665f: 85 14        	sta	$14                     ; 0x2014 <f256main+0x1700>
    6661: a5 17        	lda	$17                     ; 0x2017 <f256main+0x1703>
    6663: 45 13        	eor	$13                     ; 0x2013 <f256main+0x16ff>
    6665: 29 80        	and	#$80
    6667: 85 9c        	sta	$9c                     ; 0x209c <f256main+0x1788>
    6669: a5 19        	lda	$19                     ; 0x2019 <f256main+0x1705>
    666b: 29 7f        	and	#$7f
    666d: 85 9d        	sta	$9d                     ; 0x209d <f256main+0x1789>
    666f: a5 16        	lda	$16                     ; 0x2016 <f256main+0x1702>
    6671: 85 91        	sta	$91                     ; 0x2091 <f256main+0x177d>
    6673: a5 16        	lda	$16                     ; 0x2016 <f256main+0x1702>
    6675: 29 7f        	and	#$7f
    6677: 85 8f        	sta	$8f                     ; 0x208f <f256main+0x177b>
    6679: a5 1a        	lda	$1a                     ; 0x201a <f256main+0x1706>
    667b: c9 ff        	cmp	#$ff
    667d: d0 04        	bne	$6683 <__divsf3+0x56>
    667f: c0 02        	cpy	#$2
    6681: 80 02        	bra	$6685 <__divsf3+0x58>
    6683: c9 ff        	cmp	#$ff
    6685: a4 13        	ldy	$13                     ; 0x2013 <f256main+0x16ff>
    6687: a5 19        	lda	$19                     ; 0x2019 <f256main+0x1705>
    6689: 90 2d        	bcc	$66b8 <__divsf3+0x8b>
    668b: 18           	clc
    668c: a5 12        	lda	$12                     ; 0x2012 <f256main+0x16fe>
    668e: 69 01        	adc	#$1
    6690: a8           	tay
    6691: a9 00        	lda	#$0
    6693: 69 ff        	adc	#$ff
    6695: c9 ff        	cmp	#$ff
    6697: d0 17        	bne	$66b0 <__divsf3+0x83>
    6699: c0 02        	cpy	#$2
    669b: 90 17        	bcc	$66b4 <__divsf3+0x87>
    669d: a4 8f        	ldy	$8f                     ; 0x208f <f256main+0x177b>
    669f: 84 16        	sty	$16                     ; 0x2016 <f256main+0x1702>
    66a1: 86 9e        	stx	$9e                     ; 0x209e <f256main+0x178a>
    66a3: a2 00        	ldx	#$0
    66a5: 86 a0        	stx	$a0                     ; 0x20a0 <f256main+0x178c>
    66a7: a0 00        	ldy	#$0
    66a9: 64 14        	stz	$14                     ; 0x2014 <f256main+0x1700>
    66ab: 64 15        	stz	$15                     ; 0x2015 <f256main+0x1701>
    66ad: 4c 32 6c     	jmp	$6c32 <__divsf3+0x605>
    66b0: c9 ff        	cmp	#$ff
    66b2: b0 e9        	bcs	$669d <__divsf3+0x70>
    66b4: a4 13        	ldy	$13                     ; 0x2013 <f256main+0x16ff>
    66b6: a5 19        	lda	$19                     ; 0x2019 <f256main+0x1705>
    66b8: 85 16        	sta	$16                     ; 0x2016 <f256main+0x1702>
    66ba: 98           	tya
    66bb: 29 7f        	and	#$7f
    66bd: c9 7f        	cmp	#$7f
    66bf: d0 14        	bne	$66d5 <__divsf3+0xa8>
    66c1: 85 13        	sta	$13                     ; 0x2013 <f256main+0x16ff>
    66c3: a5 16        	lda	$16                     ; 0x2016 <f256main+0x1702>
    66c5: c9 80        	cmp	#$80
    66c7: d0 43        	bne	$670c <__divsf3+0xdf>
    66c9: a4 97        	ldy	$97                     ; 0x2097 <f256main+0x1783>
    66cb: d0 4f        	bne	$671c <__divsf3+0xef>
    66cd: a4 9a        	ldy	$9a                     ; 0x209a <f256main+0x1786>
    66cf: c0 01        	cpy	#$1
    66d1: 90 0a        	bcc	$66dd <__divsf3+0xb0>
    66d3: 80 3b        	bra	$6710 <__divsf3+0xe3>
    66d5: 85 13        	sta	$13                     ; 0x2013 <f256main+0x16ff>
    66d7: c9 7f        	cmp	#$7f
    66d9: a5 16        	lda	$16                     ; 0x2016 <f256main+0x1702>
    66db: b0 33        	bcs	$6710 <__divsf3+0xe3>
    66dd: a5 17        	lda	$17                     ; 0x2017 <f256main+0x1703>
    66df: 29 7f        	and	#$7f
    66e1: 85 92        	sta	$92                     ; 0x2092 <f256main+0x177e>
    66e3: c9 7f        	cmp	#$7f
    66e5: d0 31        	bne	$6718 <__divsf3+0xeb>
    66e7: a4 91        	ldy	$91                     ; 0x2091 <f256main+0x177d>
    66e9: c0 80        	cpy	#$80
    66eb: d0 37        	bne	$6724 <__divsf3+0xf7>
    66ed: a5 19        	lda	$19                     ; 0x2019 <f256main+0x1705>
    66ef: e0 00        	cpx	#$0
    66f1: f0 03        	beq	$66f6 <__divsf3+0xc9>
    66f3: 4c d6 67     	jmp	$67d6 <__divsf3+0x1a9>
    66f6: a4 94        	ldy	$94                     ; 0x2094 <f256main+0x1780>
    66f8: c0 01        	cpy	#$1
    66fa: 90 2e        	bcc	$672a <__divsf3+0xfd>
    66fc: a5 91        	lda	$91                     ; 0x2091 <f256main+0x177d>
    66fe: 09 40        	ora	#$40
    6700: a4 94        	ldy	$94                     ; 0x2094 <f256main+0x1780>
    6702: 84 9a        	sty	$9a                     ; 0x209a <f256main+0x1786>
    6704: 86 97        	stx	$97                     ; 0x2097 <f256main+0x1783>
    6706: a8           	tay
    6707: a5 17        	lda	$17                     ; 0x2017 <f256main+0x1703>
    6709: 4c 88 71     	jmp	$7188 <__divsf3+0xb5b>
    670c: c9 80        	cmp	#$80
    670e: 90 cd        	bcc	$66dd <__divsf3+0xb0>
    6710: 09 40        	ora	#$40
    6712: a8           	tay
    6713: a5 14        	lda	$14                     ; 0x2014 <f256main+0x1700>
    6715: 4c 88 71     	jmp	$7188 <__divsf3+0xb5b>
    6718: c9 7f        	cmp	#$7f
    671a: 80 0a        	bra	$6726 <__divsf3+0xf9>
    671c: a4 97        	ldy	$97                     ; 0x2097 <f256main+0x1783>
    671e: c0 00        	cpy	#$0
    6720: 90 bb        	bcc	$66dd <__divsf3+0xb0>
    6722: 80 ec        	bra	$6710 <__divsf3+0xe3>
    6724: c0 80        	cpy	#$80
    6726: a5 19        	lda	$19                     ; 0x2019 <f256main+0x1705>
    6728: b0 d2        	bcs	$66fc <__divsf3+0xcf>
    672a: a4 13        	ldy	$13                     ; 0x2013 <f256main+0x16ff>
    672c: 84 14        	sty	$14                     ; 0x2014 <f256main+0x1700>
    672e: c0 7f        	cpy	#$7f
    6730: d0 36        	bne	$6768 <__divsf3+0x13b>
    6732: c9 80        	cmp	#$80
    6734: d0 32        	bne	$6768 <__divsf3+0x13b>
    6736: a4 97        	ldy	$97                     ; 0x2097 <f256main+0x1783>
    6738: d0 2e        	bne	$6768 <__divsf3+0x13b>
    673a: a4 9a        	ldy	$9a                     ; 0x209a <f256main+0x1786>
    673c: d0 2a        	bne	$6768 <__divsf3+0x13b>
    673e: a5 92        	lda	$92                     ; 0x2092 <f256main+0x177e>
    6740: c9 7f        	cmp	#$7f
    6742: f0 03        	beq	$6747 <__divsf3+0x11a>
    6744: 4c fa 6f     	jmp	$6ffa <__divsf3+0x9cd>
    6747: a4 91        	ldy	$91                     ; 0x2091 <f256main+0x177d>
    6749: c0 80        	cpy	#$80
    674b: f0 03        	beq	$6750 <__divsf3+0x123>
    674d: 4c fa 6f     	jmp	$6ffa <__divsf3+0x9cd>
    6750: 8a           	txa
    6751: f0 03        	beq	$6756 <__divsf3+0x129>
    6753: 4c fa 6f     	jmp	$6ffa <__divsf3+0x9cd>
    6756: a5 94        	lda	$94                     ; 0x2094 <f256main+0x1780>
    6758: f0 03        	beq	$675d <__divsf3+0x130>
    675a: 4c fa 6f     	jmp	$6ffa <__divsf3+0x9cd>
    675d: a0 c0        	ldy	#$c0
    675f: a9 7f        	lda	#$7f
    6761: 64 9a        	stz	$9a                     ; 0x209a <f256main+0x1786>
    6763: 64 97        	stz	$97                     ; 0x2097 <f256main+0x1783>
    6765: 4c 88 71     	jmp	$7188 <__divsf3+0xb5b>
    6768: a4 92        	ldy	$92                     ; 0x2092 <f256main+0x177e>
    676a: c0 7f        	cpy	#$7f
    676c: d0 11        	bne	$677f <__divsf3+0x152>
    676e: a4 91        	ldy	$91                     ; 0x2091 <f256main+0x177d>
    6770: c0 80        	cpy	#$80
    6772: d0 0b        	bne	$677f <__divsf3+0x152>
    6774: e0 00        	cpx	#$0
    6776: d0 07        	bne	$677f <__divsf3+0x152>
    6778: a4 94        	ldy	$94                     ; 0x2094 <f256main+0x1780>
    677a: d0 03        	bne	$677f <__divsf3+0x152>
    677c: 4c 66 70     	jmp	$7066 <__divsf3+0xa39>
    677f: a4 9a        	ldy	$9a                     ; 0x209a <f256main+0x1786>
    6781: 48           	pha
    6782: a5 97        	lda	$97                     ; 0x2097 <f256main+0x1783>
    6784: 85 13        	sta	$13                     ; 0x2013 <f256main+0x16ff>
    6786: a5 14        	lda	$14                     ; 0x2014 <f256main+0x1700>
    6788: 85 16        	sta	$16                     ; 0x2016 <f256main+0x1702>
    678a: 68           	pla
    678b: e6 16        	inc	$16                     ; 0x2016 <f256main+0x1702>
    678d: c6 16        	dec	$16                     ; 0x2016 <f256main+0x1702>
    678f: d0 0e        	bne	$679f <__divsf3+0x172>
    6791: c9 00        	cmp	#$0
    6793: d0 0a        	bne	$679f <__divsf3+0x172>
    6795: a5 13        	lda	$13                     ; 0x2013 <f256main+0x16ff>
    6797: d0 06        	bne	$679f <__divsf3+0x172>
    6799: 98           	tya
    679a: d0 03        	bne	$679f <__divsf3+0x172>
    679c: 4c a1 71     	jmp	$71a1 <__divsf3+0xb74>
    679f: a4 94        	ldy	$94                     ; 0x2094 <f256main+0x1780>
    67a1: a5 91        	lda	$91                     ; 0x2091 <f256main+0x177d>
    67a3: 85 13        	sta	$13                     ; 0x2013 <f256main+0x16ff>
    67a5: a5 92        	lda	$92                     ; 0x2092 <f256main+0x177e>
    67a7: d0 0d        	bne	$67b6 <__divsf3+0x189>
    67a9: a5 13        	lda	$13                     ; 0x2013 <f256main+0x16ff>
    67ab: d0 09        	bne	$67b6 <__divsf3+0x189>
    67ad: 8a           	txa
    67ae: d0 06        	bne	$67b6 <__divsf3+0x189>
    67b0: 98           	tya
    67b1: d0 03        	bne	$67b6 <__divsf3+0x189>
    67b3: 4c fa 6f     	jmp	$6ffa <__divsf3+0x9cd>
    67b6: a5 14        	lda	$14                     ; 0x2014 <f256main+0x1700>
    67b8: d0 14        	bne	$67ce <__divsf3+0x1a1>
    67ba: a4 19        	ldy	$19                     ; 0x2019 <f256main+0x1705>
    67bc: c0 80        	cpy	#$80
    67be: d0 20        	bne	$67e0 <__divsf3+0x1b3>
    67c0: a4 8f        	ldy	$8f                     ; 0x208f <f256main+0x177b>
    67c2: 84 16        	sty	$16                     ; 0x2016 <f256main+0x1702>
    67c4: a5 91        	lda	$91                     ; 0x2091 <f256main+0x177d>
    67c6: a4 97        	ldy	$97                     ; 0x2097 <f256main+0x1783>
    67c8: d0 22        	bne	$67ec <__divsf3+0x1bf>
    67ca: a4 9a        	ldy	$9a                     ; 0x209a <f256main+0x1786>
    67cc: 80 20        	bra	$67ee <__divsf3+0x1c1>
    67ce: a4 14        	ldy	$14                     ; 0x2014 <f256main+0x1700>
    67d0: c0 00        	cpy	#$0
    67d2: b0 10        	bcs	$67e4 <__divsf3+0x1b7>
    67d4: 80 25        	bra	$67fb <__divsf3+0x1ce>
    67d6: e0 00        	cpx	#$0
    67d8: 90 03        	bcc	$67dd <__divsf3+0x1b0>
    67da: 4c fc 66     	jmp	$66fc <__divsf3+0xcf>
    67dd: 4c 2a 67     	jmp	$672a <__divsf3+0xfd>
    67e0: c0 80        	cpy	#$80
    67e2: 90 17        	bcc	$67fb <__divsf3+0x1ce>
    67e4: a4 8f        	ldy	$8f                     ; 0x208f <f256main+0x177b>
    67e6: 84 16        	sty	$16                     ; 0x2016 <f256main+0x1702>
    67e8: a5 91        	lda	$91                     ; 0x2091 <f256main+0x177d>
    67ea: 80 06        	bra	$67f2 <__divsf3+0x1c5>
    67ec: a4 97        	ldy	$97                     ; 0x2097 <f256main+0x1783>
    67ee: c0 00        	cpy	#$0
    67f0: 90 09        	bcc	$67fb <__divsf3+0x1ce>
    67f2: 64 13        	stz	$13                     ; 0x2013 <f256main+0x16ff>
    67f4: 64 14        	stz	$14                     ; 0x2014 <f256main+0x1700>
    67f6: 64 15        	stz	$15                     ; 0x2015 <f256main+0x1701>
    67f8: 4c 00 6a     	jmp	$6a00 <__divsf3+0x3d3>
    67fb: 86 9e        	stx	$9e                     ; 0x209e <f256main+0x178a>
    67fd: a4 94        	ldy	$94                     ; 0x2094 <f256main+0x1780>
    67ff: 84 9f        	sty	$9f                     ; 0x209f <f256main+0x178b>
    6801: a6 12        	ldx	$12                     ; 0x2012 <f256main+0x16fe>
    6803: 86 a1        	stx	$a1                     ; 0x20a1 <f256main+0x178d>
    6805: a4 9d        	ldy	$9d                     ; 0x209d <f256main+0x1789>
    6807: 98           	tya
    6808: 4a           	lsr
    6809: 85 12        	sta	$12                     ; 0x2012 <f256main+0x16fe>
    680b: a6 97        	ldx	$97                     ; 0x2097 <f256main+0x1783>
    680d: a5 97        	lda	$97                     ; 0x2097 <f256main+0x1783>
    680f: 6a           	ror
    6810: 85 13        	sta	$13                     ; 0x2013 <f256main+0x16ff>
    6812: a5 9a        	lda	$9a                     ; 0x209a <f256main+0x1786>
    6814: 6a           	ror
    6815: 85 14        	sta	$14                     ; 0x2014 <f256main+0x1700>
    6817: a5 9a        	lda	$9a                     ; 0x209a <f256main+0x1786>
    6819: 05 14        	ora	$14                     ; 0x2014 <f256main+0x1700>
    681b: 85 16        	sta	$16                     ; 0x2016 <f256main+0x1702>
    681d: a5 97        	lda	$97                     ; 0x2097 <f256main+0x1783>
    681f: 05 13        	ora	$13                     ; 0x2013 <f256main+0x16ff>
    6821: 85 15        	sta	$15                     ; 0x2015 <f256main+0x1701>
    6823: 98           	tya
    6824: 05 12        	ora	$12                     ; 0x2012 <f256main+0x16fe>
    6826: 85 17        	sta	$17                     ; 0x2017 <f256main+0x1703>
    6828: 4a           	lsr
    6829: 5a           	phy
    682a: a4 15        	ldy	$15                     ; 0x2015 <f256main+0x1701>
    682c: 84 12        	sty	$12                     ; 0x2012 <f256main+0x16fe>
    682e: 66 12        	ror	$12                     ; 0x2012 <f256main+0x16fe>
    6830: a4 16        	ldy	$16                     ; 0x2016 <f256main+0x1702>
    6832: 84 13        	sty	$13                     ; 0x2013 <f256main+0x16ff>
    6834: 66 13        	ror	$13                     ; 0x2013 <f256main+0x16ff>
    6836: 4a           	lsr
    6837: 85 14        	sta	$14                     ; 0x2014 <f256main+0x1700>
    6839: 66 12        	ror	$12                     ; 0x2012 <f256main+0x16fe>
    683b: 66 13        	ror	$13                     ; 0x2013 <f256main+0x16ff>
    683d: a5 16        	lda	$16                     ; 0x2016 <f256main+0x1702>
    683f: 05 13        	ora	$13                     ; 0x2013 <f256main+0x16ff>
    6841: 85 16        	sta	$16                     ; 0x2016 <f256main+0x1702>
    6843: a5 15        	lda	$15                     ; 0x2015 <f256main+0x1701>
    6845: 05 12        	ora	$12                     ; 0x2012 <f256main+0x16fe>
    6847: 85 15        	sta	$15                     ; 0x2015 <f256main+0x1701>
    6849: a5 17        	lda	$17                     ; 0x2017 <f256main+0x1703>
    684b: 05 14        	ora	$14                     ; 0x2014 <f256main+0x1700>
    684d: 85 17        	sta	$17                     ; 0x2017 <f256main+0x1703>
    684f: 4a           	lsr
    6850: a4 15        	ldy	$15                     ; 0x2015 <f256main+0x1701>
    6852: 84 12        	sty	$12                     ; 0x2012 <f256main+0x16fe>
    6854: 66 12        	ror	$12                     ; 0x2012 <f256main+0x16fe>
    6856: a4 16        	ldy	$16                     ; 0x2016 <f256main+0x1702>
    6858: 84 13        	sty	$13                     ; 0x2013 <f256main+0x16ff>
    685a: 66 13        	ror	$13                     ; 0x2013 <f256main+0x16ff>
    685c: 4a           	lsr
    685d: 66 12        	ror	$12                     ; 0x2012 <f256main+0x16fe>
    685f: 66 13        	ror	$13                     ; 0x2013 <f256main+0x16ff>
    6861: 4a           	lsr
    6862: 66 12        	ror	$12                     ; 0x2012 <f256main+0x16fe>
    6864: 66 13        	ror	$13                     ; 0x2013 <f256main+0x16ff>
    6866: 4a           	lsr
    6867: 85 14        	sta	$14                     ; 0x2014 <f256main+0x1700>
    6869: 66 12        	ror	$12                     ; 0x2012 <f256main+0x16fe>
    686b: 66 13        	ror	$13                     ; 0x2013 <f256main+0x16ff>
    686d: a5 16        	lda	$16                     ; 0x2016 <f256main+0x1702>
    686f: 05 13        	ora	$13                     ; 0x2013 <f256main+0x16ff>
    6871: 85 16        	sta	$16                     ; 0x2016 <f256main+0x1702>
    6873: a5 15        	lda	$15                     ; 0x2015 <f256main+0x1701>
    6875: 05 12        	ora	$12                     ; 0x2012 <f256main+0x16fe>
    6877: 85 13        	sta	$13                     ; 0x2013 <f256main+0x16ff>
    6879: a5 17        	lda	$17                     ; 0x2017 <f256main+0x1703>
    687b: 05 14        	ora	$14                     ; 0x2014 <f256main+0x1700>
    687d: 85 17        	sta	$17                     ; 0x2017 <f256main+0x1703>
    687f: a5 16        	lda	$16                     ; 0x2016 <f256main+0x1702>
    6881: 05 13        	ora	$13                     ; 0x2013 <f256main+0x16ff>
    6883: 85 14        	sta	$14                     ; 0x2014 <f256main+0x1700>
    6885: a5 13        	lda	$13                     ; 0x2013 <f256main+0x16ff>
    6887: 05 17        	ora	$17                     ; 0x2017 <f256main+0x1703>
    6889: 85 15        	sta	$15                     ; 0x2015 <f256main+0x1701>
    688b: a5 14        	lda	$14                     ; 0x2014 <f256main+0x1700>
    688d: 05 17        	ora	$17                     ; 0x2017 <f256main+0x1703>
    688f: 85 16        	sta	$16                     ; 0x2016 <f256main+0x1702>
    6891: a5 17        	lda	$17                     ; 0x2017 <f256main+0x1703>
    6893: 85 14        	sta	$14                     ; 0x2014 <f256main+0x1700>
    6895: 46 14        	lsr	$14                     ; 0x2014 <f256main+0x1700>
    6897: a5 16        	lda	$16                     ; 0x2016 <f256main+0x1702>
    6899: 4a           	lsr
    689a: 29 55        	and	#$55
    689c: 85 12        	sta	$12                     ; 0x2012 <f256main+0x16fe>
    689e: a5 15        	lda	$15                     ; 0x2015 <f256main+0x1701>
    68a0: 4a           	lsr
    68a1: 29 55        	and	#$55
    68a3: 85 13        	sta	$13                     ; 0x2013 <f256main+0x16ff>
    68a5: a5 14        	lda	$14                     ; 0x2014 <f256main+0x1700>
    68a7: 29 55        	and	#$55
    68a9: 85 14        	sta	$14                     ; 0x2014 <f256main+0x1700>
    68ab: 38           	sec
    68ac: a5 16        	lda	$16                     ; 0x2016 <f256main+0x1702>
    68ae: e5 12        	sbc	$12                     ; 0x2012 <f256main+0x16fe>
    68b0: 85 12        	sta	$12                     ; 0x2012 <f256main+0x16fe>
    68b2: a5 15        	lda	$15                     ; 0x2015 <f256main+0x1701>
    68b4: e5 13        	sbc	$13                     ; 0x2013 <f256main+0x16ff>
    68b6: 85 13        	sta	$13                     ; 0x2013 <f256main+0x16ff>
    68b8: a5 17        	lda	$17                     ; 0x2017 <f256main+0x1703>
    68ba: e5 14        	sbc	$14                     ; 0x2014 <f256main+0x1700>
    68bc: 85 14        	sta	$14                     ; 0x2014 <f256main+0x1700>
    68be: a9 00        	lda	#$0
    68c0: e9 00        	sbc	#$0
    68c2: 85 15        	sta	$15                     ; 0x2015 <f256main+0x1701>
    68c4: a5 12        	lda	$12                     ; 0x2012 <f256main+0x16fe>
    68c6: 85 16        	sta	$16                     ; 0x2016 <f256main+0x1702>
    68c8: 29 33        	and	#$33
    68ca: 85 12        	sta	$12                     ; 0x2012 <f256main+0x16fe>
    68cc: a5 13        	lda	$13                     ; 0x2013 <f256main+0x16ff>
    68ce: 85 17        	sta	$17                     ; 0x2017 <f256main+0x1703>
    68d0: 29 33        	and	#$33
    68d2: 85 13        	sta	$13                     ; 0x2013 <f256main+0x16ff>
    68d4: a5 14        	lda	$14                     ; 0x2014 <f256main+0x1700>
    68d6: 85 18        	sta	$18                     ; 0x2018 <f256main+0x1704>
    68d8: 29 33        	and	#$33
    68da: 85 14        	sta	$14                     ; 0x2014 <f256main+0x1700>
    68dc: a5 15        	lda	$15                     ; 0x2015 <f256main+0x1701>
    68de: 4a           	lsr
    68df: 85 19        	sta	$19                     ; 0x2019 <f256main+0x1705>
    68e1: 46 18        	lsr	$18                     ; 0x2018 <f256main+0x1704>
    68e3: 46 17        	lsr	$17                     ; 0x2017 <f256main+0x1703>
    68e5: a5 16        	lda	$16                     ; 0x2016 <f256main+0x1702>
    68e7: 4a           	lsr
    68e8: 46 19        	lsr	$19                     ; 0x2019 <f256main+0x1705>
    68ea: 46 18        	lsr	$18                     ; 0x2018 <f256main+0x1704>
    68ec: a4 17        	ldy	$17                     ; 0x2017 <f256main+0x1703>
    68ee: 84 16        	sty	$16                     ; 0x2016 <f256main+0x1702>
    68f0: 46 16        	lsr	$16                     ; 0x2016 <f256main+0x1702>
    68f2: 4a           	lsr
    68f3: 29 33        	and	#$33
    68f5: 85 1a        	sta	$1a                     ; 0x201a <f256main+0x1706>
    68f7: a5 16        	lda	$16                     ; 0x2016 <f256main+0x1702>
    68f9: 29 33        	and	#$33
    68fb: 85 16        	sta	$16                     ; 0x2016 <f256main+0x1702>
    68fd: a5 18        	lda	$18                     ; 0x2018 <f256main+0x1704>
    68ff: 29 33        	and	#$33
    6901: 85 17        	sta	$17                     ; 0x2017 <f256main+0x1703>
    6903: a5 19        	lda	$19                     ; 0x2019 <f256main+0x1705>
    6905: 29 33        	and	#$33
    6907: 85 18        	sta	$18                     ; 0x2018 <f256main+0x1704>
    6909: a5 15        	lda	$15                     ; 0x2015 <f256main+0x1701>
    690b: 29 33        	and	#$33
    690d: 85 15        	sta	$15                     ; 0x2015 <f256main+0x1701>
    690f: 18           	clc
    6910: a5 1a        	lda	$1a                     ; 0x201a <f256main+0x1706>
    6912: 65 12        	adc	$12                     ; 0x2012 <f256main+0x16fe>
    6914: 85 12        	sta	$12                     ; 0x2012 <f256main+0x16fe>
    6916: a5 16        	lda	$16                     ; 0x2016 <f256main+0x1702>
    6918: 65 13        	adc	$13                     ; 0x2013 <f256main+0x16ff>
    691a: 85 13        	sta	$13                     ; 0x2013 <f256main+0x16ff>
    691c: a5 17        	lda	$17                     ; 0x2017 <f256main+0x1703>
    691e: 65 14        	adc	$14                     ; 0x2014 <f256main+0x1700>
    6920: 85 14        	sta	$14                     ; 0x2014 <f256main+0x1700>
    6922: a5 18        	lda	$18                     ; 0x2018 <f256main+0x1704>
    6924: 65 15        	adc	$15                     ; 0x2015 <f256main+0x1701>
    6926: 85 15        	sta	$15                     ; 0x2015 <f256main+0x1701>
    6928: 4a           	lsr
    6929: 85 16        	sta	$16                     ; 0x2016 <f256main+0x1702>
    692b: a5 14        	lda	$14                     ; 0x2014 <f256main+0x1700>
    692d: 6a           	ror
    692e: a4 13        	ldy	$13                     ; 0x2013 <f256main+0x16ff>
    6930: 84 17        	sty	$17                     ; 0x2017 <f256main+0x1703>
    6932: 66 17        	ror	$17                     ; 0x2017 <f256main+0x1703>
    6934: a4 12        	ldy	$12                     ; 0x2012 <f256main+0x16fe>
    6936: 84 18        	sty	$18                     ; 0x2018 <f256main+0x1704>
    6938: 7a           	ply
    6939: 66 18        	ror	$18                     ; 0x2018 <f256main+0x1704>
    693b: 46 16        	lsr	$16                     ; 0x2016 <f256main+0x1702>
    693d: 6a           	ror
    693e: 66 17        	ror	$17                     ; 0x2017 <f256main+0x1703>
    6940: 66 18        	ror	$18                     ; 0x2018 <f256main+0x1704>
    6942: 46 16        	lsr	$16                     ; 0x2016 <f256main+0x1702>
    6944: 6a           	ror
    6945: 66 17        	ror	$17                     ; 0x2017 <f256main+0x1703>
    6947: 66 18        	ror	$18                     ; 0x2018 <f256main+0x1704>
    6949: 46 16        	lsr	$16                     ; 0x2016 <f256main+0x1702>
    694b: 6a           	ror
    694c: 85 19        	sta	$19                     ; 0x2019 <f256main+0x1705>
    694e: a5 17        	lda	$17                     ; 0x2017 <f256main+0x1703>
    6950: 85 1a        	sta	$1a                     ; 0x201a <f256main+0x1706>
    6952: 66 1a        	ror	$1a                     ; 0x201a <f256main+0x1706>
    6954: a5 18        	lda	$18                     ; 0x2018 <f256main+0x1704>
    6956: 6a           	ror
    6957: 18           	clc
    6958: 65 12        	adc	$12                     ; 0x2012 <f256main+0x16fe>
    695a: 85 12        	sta	$12                     ; 0x2012 <f256main+0x16fe>
    695c: a5 1a        	lda	$1a                     ; 0x201a <f256main+0x1706>
    695e: 65 13        	adc	$13                     ; 0x2013 <f256main+0x16ff>
    6960: 85 13        	sta	$13                     ; 0x2013 <f256main+0x16ff>
    6962: a5 19        	lda	$19                     ; 0x2019 <f256main+0x1705>
    6964: 65 14        	adc	$14                     ; 0x2014 <f256main+0x1700>
    6966: 85 14        	sta	$14                     ; 0x2014 <f256main+0x1700>
    6968: a5 16        	lda	$16                     ; 0x2016 <f256main+0x1702>
    696a: 65 15        	adc	$15                     ; 0x2015 <f256main+0x1701>
    696c: 85 15        	sta	$15                     ; 0x2015 <f256main+0x1701>
    696e: a5 12        	lda	$12                     ; 0x2012 <f256main+0x16fe>
    6970: 29 0f        	and	#$f
    6972: 85 12        	sta	$12                     ; 0x2012 <f256main+0x16fe>
    6974: 85 18        	sta	$18                     ; 0x2018 <f256main+0x1704>
    6976: a5 13        	lda	$13                     ; 0x2013 <f256main+0x16ff>
    6978: 29 0f        	and	#$f
    697a: 85 13        	sta	$13                     ; 0x2013 <f256main+0x16ff>
    697c: 85 17        	sta	$17                     ; 0x2017 <f256main+0x1703>
    697e: a5 14        	lda	$14                     ; 0x2014 <f256main+0x1700>
    6980: 29 0f        	and	#$f
    6982: 85 14        	sta	$14                     ; 0x2014 <f256main+0x1700>
    6984: 85 19        	sta	$19                     ; 0x2019 <f256main+0x1705>
    6986: a5 15        	lda	$15                     ; 0x2015 <f256main+0x1701>
    6988: 29 0f        	and	#$f
    698a: 85 16        	sta	$16                     ; 0x2016 <f256main+0x1702>
    698c: 18           	clc
    698d: a5 18        	lda	$18                     ; 0x2018 <f256main+0x1704>
    698f: 69 00        	adc	#$0
    6991: 85 15        	sta	$15                     ; 0x2015 <f256main+0x1701>
    6993: 85 1a        	sta	$1a                     ; 0x201a <f256main+0x1706>
    6995: a5 17        	lda	$17                     ; 0x2017 <f256main+0x1703>
    6997: 65 12        	adc	$12                     ; 0x2012 <f256main+0x16fe>
    6999: 85 12        	sta	$12                     ; 0x2012 <f256main+0x16fe>
    699b: 85 18        	sta	$18                     ; 0x2018 <f256main+0x1704>
    699d: a5 19        	lda	$19                     ; 0x2019 <f256main+0x1705>
    699f: 65 13        	adc	$13                     ; 0x2013 <f256main+0x16ff>
    69a1: 85 17        	sta	$17                     ; 0x2017 <f256main+0x1703>
    69a3: a5 16        	lda	$16                     ; 0x2016 <f256main+0x1702>
    69a5: 65 14        	adc	$14                     ; 0x2014 <f256main+0x1700>
    69a7: 85 13        	sta	$13                     ; 0x2013 <f256main+0x16ff>
    69a9: 18           	clc
    69aa: a5 1a        	lda	$1a                     ; 0x201a <f256main+0x1706>
    69ac: 69 00        	adc	#$0
    69ae: a5 18        	lda	$18                     ; 0x2018 <f256main+0x1704>
    69b0: 69 00        	adc	#$0
    69b2: a5 17        	lda	$17                     ; 0x2017 <f256main+0x1703>
    69b4: 65 15        	adc	$15                     ; 0x2015 <f256main+0x1701>
    69b6: a5 13        	lda	$13                     ; 0x2013 <f256main+0x16ff>
    69b8: 65 12        	adc	$12                     ; 0x2012 <f256main+0x16fe>
    69ba: 85 12        	sta	$12                     ; 0x2012 <f256main+0x16fe>
    69bc: a9 20        	lda	#$20
    69be: 38           	sec
    69bf: e5 12        	sbc	$12                     ; 0x2012 <f256main+0x16fe>
    69c1: 85 12        	sta	$12                     ; 0x2012 <f256main+0x16fe>
    69c3: a9 00        	lda	#$0
    69c5: e9 00        	sbc	#$0
    69c7: 85 93        	sta	$93                     ; 0x2093 <f256main+0x177f>
    69c9: 64 13        	stz	$13                     ; 0x2013 <f256main+0x16ff>
    69cb: a5 12        	lda	$12                     ; 0x2012 <f256main+0x16fe>
    69cd: 85 94        	sta	$94                     ; 0x2094 <f256main+0x1780>
    69cf: 18           	clc
    69d0: 69 f8        	adc	#$f8
    69d2: 85 14        	sta	$14                     ; 0x2014 <f256main+0x1700>
    69d4: 84 12        	sty	$12                     ; 0x2012 <f256main+0x16fe>
    69d6: a5 9a        	lda	$9a                     ; 0x209a <f256main+0x1786>
    69d8: 20 9e 60     	jsr	$609e <__ashlsi3>
    69db: 85 9a        	sta	$9a                     ; 0x209a <f256main+0x1786>
    69dd: 86 97        	stx	$97                     ; 0x2097 <f256main+0x1783>
    69df: a6 12        	ldx	$12                     ; 0x2012 <f256main+0x16fe>
    69e1: 86 9d        	stx	$9d                     ; 0x209d <f256main+0x1789>
    69e3: a9 09        	lda	#$9
    69e5: 38           	sec
    69e6: e5 94        	sbc	$94                     ; 0x2094 <f256main+0x1780>
    69e8: 85 14        	sta	$14                     ; 0x2014 <f256main+0x1700>
    69ea: a9 00        	lda	#$0
    69ec: e5 93        	sbc	$93                     ; 0x2093 <f256main+0x177f>
    69ee: 85 15        	sta	$15                     ; 0x2015 <f256main+0x1701>
    69f0: a6 a1        	ldx	$a1                     ; 0x20a1 <f256main+0x178d>
    69f2: 86 12        	stx	$12                     ; 0x2012 <f256main+0x16fe>
    69f4: a4 9f        	ldy	$9f                     ; 0x209f <f256main+0x178b>
    69f6: 84 94        	sty	$94                     ; 0x2094 <f256main+0x1780>
    69f8: a6 9e        	ldx	$9e                     ; 0x209e <f256main+0x178a>
    69fa: a4 8f        	ldy	$8f                     ; 0x208f <f256main+0x177b>
    69fc: 84 16        	sty	$16                     ; 0x2016 <f256main+0x1702>
    69fe: a5 91        	lda	$91                     ; 0x2091 <f256main+0x177d>
    6a00: a4 92        	ldy	$92                     ; 0x2092 <f256main+0x177e>
    6a02: d0 11        	bne	$6a15 <__divsf3+0x3e8>
    6a04: c9 80        	cmp	#$80
    6a06: d0 1e        	bne	$6a26 <__divsf3+0x3f9>
    6a08: 8a           	txa
    6a09: f0 03        	beq	$6a0e <__divsf3+0x3e1>
    6a0b: 4c 91 71     	jmp	$7191 <__divsf3+0xb64>
    6a0e: 86 9e        	stx	$9e                     ; 0x209e <f256main+0x178a>
    6a10: a6 94        	ldx	$94                     ; 0x2094 <f256main+0x1780>
    6a12: 4c 97 71     	jmp	$7197 <__divsf3+0xb6a>
    6a15: a4 92        	ldy	$92                     ; 0x2092 <f256main+0x177e>
    6a17: 86 9e        	stx	$9e                     ; 0x209e <f256main+0x178a>
    6a19: c0 00        	cpy	#$0
    6a1b: 90 0f        	bcc	$6a2c <__divsf3+0x3ff>
    6a1d: a6 13        	ldx	$13                     ; 0x2013 <f256main+0x16ff>
    6a1f: 86 a0        	stx	$a0                     ; 0x20a0 <f256main+0x178c>
    6a21: a0 00        	ldy	#$0
    6a23: 4c 32 6c     	jmp	$6c32 <__divsf3+0x605>
    6a26: 86 9e        	stx	$9e                     ; 0x209e <f256main+0x178a>
    6a28: c9 80        	cmp	#$80
    6a2a: b0 f1        	bcs	$6a1d <__divsf3+0x3f0>
    6a2c: a6 15        	ldx	$15                     ; 0x2015 <f256main+0x1701>
    6a2e: 86 9f        	stx	$9f                     ; 0x209f <f256main+0x178b>
    6a30: a6 14        	ldx	$14                     ; 0x2014 <f256main+0x1700>
    6a32: 86 a2        	stx	$a2                     ; 0x20a2 <f256main+0x178e>
    6a34: a6 12        	ldx	$12                     ; 0x2012 <f256main+0x16fe>
    6a36: 86 a1        	stx	$a1                     ; 0x20a1 <f256main+0x178d>
    6a38: a6 13        	ldx	$13                     ; 0x2013 <f256main+0x16ff>
    6a3a: 86 a0        	stx	$a0                     ; 0x20a0 <f256main+0x178c>
    6a3c: a5 8f        	lda	$8f                     ; 0x208f <f256main+0x177b>
    6a3e: 4a           	lsr
    6a3f: 85 12        	sta	$12                     ; 0x2012 <f256main+0x16fe>
    6a41: a6 9e        	ldx	$9e                     ; 0x209e <f256main+0x178a>
    6a43: 8a           	txa
    6a44: 6a           	ror
    6a45: 85 13        	sta	$13                     ; 0x2013 <f256main+0x16ff>
    6a47: a5 94        	lda	$94                     ; 0x2094 <f256main+0x1780>
    6a49: 6a           	ror
    6a4a: 85 14        	sta	$14                     ; 0x2014 <f256main+0x1700>
    6a4c: a5 94        	lda	$94                     ; 0x2094 <f256main+0x1780>
    6a4e: 05 14        	ora	$14                     ; 0x2014 <f256main+0x1700>
    6a50: 85 15        	sta	$15                     ; 0x2015 <f256main+0x1701>
    6a52: 8a           	txa
    6a53: 05 13        	ora	$13                     ; 0x2013 <f256main+0x16ff>
    6a55: a8           	tay
    6a56: a5 8f        	lda	$8f                     ; 0x208f <f256main+0x177b>
    6a58: 05 12        	ora	$12                     ; 0x2012 <f256main+0x16fe>
    6a5a: 85 17        	sta	$17                     ; 0x2017 <f256main+0x1703>
    6a5c: 4a           	lsr
    6a5d: 84 12        	sty	$12                     ; 0x2012 <f256main+0x16fe>
    6a5f: 66 12        	ror	$12                     ; 0x2012 <f256main+0x16fe>
    6a61: 48           	pha
    6a62: a5 15        	lda	$15                     ; 0x2015 <f256main+0x1701>
    6a64: 85 13        	sta	$13                     ; 0x2013 <f256main+0x16ff>
    6a66: 68           	pla
    6a67: 66 13        	ror	$13                     ; 0x2013 <f256main+0x16ff>
    6a69: 4a           	lsr
    6a6a: 85 14        	sta	$14                     ; 0x2014 <f256main+0x1700>
    6a6c: 66 12        	ror	$12                     ; 0x2012 <f256main+0x16fe>
    6a6e: 66 13        	ror	$13                     ; 0x2013 <f256main+0x16ff>
    6a70: a5 15        	lda	$15                     ; 0x2015 <f256main+0x1701>
    6a72: 05 13        	ora	$13                     ; 0x2013 <f256main+0x16ff>
    6a74: 85 15        	sta	$15                     ; 0x2015 <f256main+0x1701>
    6a76: 98           	tya
    6a77: 05 12        	ora	$12                     ; 0x2012 <f256main+0x16fe>
    6a79: a8           	tay
    6a7a: a5 17        	lda	$17                     ; 0x2017 <f256main+0x1703>
    6a7c: 05 14        	ora	$14                     ; 0x2014 <f256main+0x1700>
    6a7e: 85 17        	sta	$17                     ; 0x2017 <f256main+0x1703>
    6a80: 4a           	lsr
    6a81: 84 12        	sty	$12                     ; 0x2012 <f256main+0x16fe>
    6a83: 66 12        	ror	$12                     ; 0x2012 <f256main+0x16fe>
    6a85: 48           	pha
    6a86: a5 15        	lda	$15                     ; 0x2015 <f256main+0x1701>
    6a88: 85 13        	sta	$13                     ; 0x2013 <f256main+0x16ff>
    6a8a: 68           	pla
    6a8b: 66 13        	ror	$13                     ; 0x2013 <f256main+0x16ff>
    6a8d: 4a           	lsr
    6a8e: 66 12        	ror	$12                     ; 0x2012 <f256main+0x16fe>
    6a90: 66 13        	ror	$13                     ; 0x2013 <f256main+0x16ff>
    6a92: 4a           	lsr
    6a93: 66 12        	ror	$12                     ; 0x2012 <f256main+0x16fe>
    6a95: 66 13        	ror	$13                     ; 0x2013 <f256main+0x16ff>
    6a97: 4a           	lsr
    6a98: 85 14        	sta	$14                     ; 0x2014 <f256main+0x1700>
    6a9a: 66 12        	ror	$12                     ; 0x2012 <f256main+0x16fe>
    6a9c: 66 13        	ror	$13                     ; 0x2013 <f256main+0x16ff>
    6a9e: a5 15        	lda	$15                     ; 0x2015 <f256main+0x1701>
    6aa0: 05 13        	ora	$13                     ; 0x2013 <f256main+0x16ff>
    6aa2: 85 13        	sta	$13                     ; 0x2013 <f256main+0x16ff>
    6aa4: 98           	tya
    6aa5: 05 12        	ora	$12                     ; 0x2012 <f256main+0x16fe>
    6aa7: a8           	tay
    6aa8: a5 17        	lda	$17                     ; 0x2017 <f256main+0x1703>
    6aaa: 05 14        	ora	$14                     ; 0x2014 <f256main+0x1700>
    6aac: 85 14        	sta	$14                     ; 0x2014 <f256main+0x1700>
    6aae: 84 12        	sty	$12                     ; 0x2012 <f256main+0x16fe>
    6ab0: a5 13        	lda	$13                     ; 0x2013 <f256main+0x16ff>
    6ab2: 05 12        	ora	$12                     ; 0x2012 <f256main+0x16fe>
    6ab4: 85 13        	sta	$13                     ; 0x2013 <f256main+0x16ff>
    6ab6: 98           	tya
    6ab7: 05 14        	ora	$14                     ; 0x2014 <f256main+0x1700>
    6ab9: a8           	tay
    6aba: a5 13        	lda	$13                     ; 0x2013 <f256main+0x16ff>
    6abc: 05 14        	ora	$14                     ; 0x2014 <f256main+0x1700>
    6abe: 85 15        	sta	$15                     ; 0x2015 <f256main+0x1701>
    6ac0: a5 14        	lda	$14                     ; 0x2014 <f256main+0x1700>
    6ac2: 85 17        	sta	$17                     ; 0x2017 <f256main+0x1703>
    6ac4: 46 14        	lsr	$14                     ; 0x2014 <f256main+0x1700>
    6ac6: a5 15        	lda	$15                     ; 0x2015 <f256main+0x1701>
    6ac8: 4a           	lsr
    6ac9: 29 55        	and	#$55
    6acb: 85 12        	sta	$12                     ; 0x2012 <f256main+0x16fe>
    6acd: 98           	tya
    6ace: 4a           	lsr
    6acf: 29 55        	and	#$55
    6ad1: 85 13        	sta	$13                     ; 0x2013 <f256main+0x16ff>
    6ad3: a5 14        	lda	$14                     ; 0x2014 <f256main+0x1700>
    6ad5: 29 55        	and	#$55
    6ad7: 85 14        	sta	$14                     ; 0x2014 <f256main+0x1700>
    6ad9: 38           	sec
    6ada: a5 15        	lda	$15                     ; 0x2015 <f256main+0x1701>
    6adc: e5 12        	sbc	$12                     ; 0x2012 <f256main+0x16fe>
    6ade: 85 12        	sta	$12                     ; 0x2012 <f256main+0x16fe>
    6ae0: 98           	tya
    6ae1: e5 13        	sbc	$13                     ; 0x2013 <f256main+0x16ff>
    6ae3: 85 13        	sta	$13                     ; 0x2013 <f256main+0x16ff>
    6ae5: a5 17        	lda	$17                     ; 0x2017 <f256main+0x1703>
    6ae7: e5 14        	sbc	$14                     ; 0x2014 <f256main+0x1700>
    6ae9: a8           	tay
    6aea: a9 00        	lda	#$0
    6aec: e9 00        	sbc	#$0
    6aee: 85 15        	sta	$15                     ; 0x2015 <f256main+0x1701>
    6af0: a5 12        	lda	$12                     ; 0x2012 <f256main+0x16fe>
    6af2: 85 17        	sta	$17                     ; 0x2017 <f256main+0x1703>
    6af4: 29 33        	and	#$33
    6af6: 85 12        	sta	$12                     ; 0x2012 <f256main+0x16fe>
    6af8: a5 13        	lda	$13                     ; 0x2013 <f256main+0x16ff>
    6afa: 85 19        	sta	$19                     ; 0x2019 <f256main+0x1705>
    6afc: 29 33        	and	#$33
    6afe: 85 13        	sta	$13                     ; 0x2013 <f256main+0x16ff>
    6b00: 98           	tya
    6b01: 29 33        	and	#$33
    6b03: 85 14        	sta	$14                     ; 0x2014 <f256main+0x1700>
    6b05: a5 15        	lda	$15                     ; 0x2015 <f256main+0x1701>
    6b07: 4a           	lsr
    6b08: 85 1b        	sta	$1b                     ; 0x201b <f256main+0x1707>
    6b0a: 98           	tya
    6b0b: 4a           	lsr
    6b0c: 85 1a        	sta	$1a                     ; 0x201a <f256main+0x1706>
    6b0e: 46 19        	lsr	$19                     ; 0x2019 <f256main+0x1705>
    6b10: a5 17        	lda	$17                     ; 0x2017 <f256main+0x1703>
    6b12: 4a           	lsr
    6b13: 46 1b        	lsr	$1b                     ; 0x201b <f256main+0x1707>
    6b15: 46 1a        	lsr	$1a                     ; 0x201a <f256main+0x1706>
    6b17: a4 19        	ldy	$19                     ; 0x2019 <f256main+0x1705>
    6b19: 84 17        	sty	$17                     ; 0x2017 <f256main+0x1703>
    6b1b: 46 17        	lsr	$17                     ; 0x2017 <f256main+0x1703>
    6b1d: 4a           	lsr
    6b1e: 29 33        	and	#$33
    6b20: 85 1c        	sta	$1c                     ; 0x201c <f256main+0x1708>
    6b22: a5 17        	lda	$17                     ; 0x2017 <f256main+0x1703>
    6b24: 29 33        	and	#$33
    6b26: a8           	tay
    6b27: a5 1a        	lda	$1a                     ; 0x201a <f256main+0x1706>
    6b29: 29 33        	and	#$33
    6b2b: 85 17        	sta	$17                     ; 0x2017 <f256main+0x1703>
    6b2d: a5 1b        	lda	$1b                     ; 0x201b <f256main+0x1707>
    6b2f: 29 33        	and	#$33
    6b31: 85 19        	sta	$19                     ; 0x2019 <f256main+0x1705>
    6b33: a5 15        	lda	$15                     ; 0x2015 <f256main+0x1701>
    6b35: 29 33        	and	#$33
    6b37: 85 15        	sta	$15                     ; 0x2015 <f256main+0x1701>
    6b39: 18           	clc
    6b3a: a5 1c        	lda	$1c                     ; 0x201c <f256main+0x1708>
    6b3c: 65 12        	adc	$12                     ; 0x2012 <f256main+0x16fe>
    6b3e: 85 12        	sta	$12                     ; 0x2012 <f256main+0x16fe>
    6b40: 98           	tya
    6b41: 65 13        	adc	$13                     ; 0x2013 <f256main+0x16ff>
    6b43: 85 13        	sta	$13                     ; 0x2013 <f256main+0x16ff>
    6b45: a5 17        	lda	$17                     ; 0x2017 <f256main+0x1703>
    6b47: 65 14        	adc	$14                     ; 0x2014 <f256main+0x1700>
    6b49: 85 14        	sta	$14                     ; 0x2014 <f256main+0x1700>
    6b4b: a5 19        	lda	$19                     ; 0x2019 <f256main+0x1705>
    6b4d: 65 15        	adc	$15                     ; 0x2015 <f256main+0x1701>
    6b4f: 85 15        	sta	$15                     ; 0x2015 <f256main+0x1701>
    6b51: 4a           	lsr
    6b52: a8           	tay
    6b53: a5 14        	lda	$14                     ; 0x2014 <f256main+0x1700>
    6b55: 6a           	ror
    6b56: 5a           	phy
    6b57: a4 13        	ldy	$13                     ; 0x2013 <f256main+0x16ff>
    6b59: 84 19        	sty	$19                     ; 0x2019 <f256main+0x1705>
    6b5b: 66 19        	ror	$19                     ; 0x2019 <f256main+0x1705>
    6b5d: a4 12        	ldy	$12                     ; 0x2012 <f256main+0x16fe>
    6b5f: 84 17        	sty	$17                     ; 0x2017 <f256main+0x1703>
    6b61: 66 17        	ror	$17                     ; 0x2017 <f256main+0x1703>
    6b63: a4 17        	ldy	$17                     ; 0x2017 <f256main+0x1703>
    6b65: 84 1a        	sty	$1a                     ; 0x201a <f256main+0x1706>
    6b67: 7a           	ply
    6b68: 84 17        	sty	$17                     ; 0x2017 <f256main+0x1703>
    6b6a: 46 17        	lsr	$17                     ; 0x2017 <f256main+0x1703>
    6b6c: 6a           	ror
    6b6d: 66 19        	ror	$19                     ; 0x2019 <f256main+0x1705>
    6b6f: 66 1a        	ror	$1a                     ; 0x201a <f256main+0x1706>
    6b71: 46 17        	lsr	$17                     ; 0x2017 <f256main+0x1703>
    6b73: 6a           	ror
    6b74: 66 19        	ror	$19                     ; 0x2019 <f256main+0x1705>
    6b76: 66 1a        	ror	$1a                     ; 0x201a <f256main+0x1706>
    6b78: 46 17        	lsr	$17                     ; 0x2017 <f256main+0x1703>
    6b7a: 6a           	ror
    6b7b: 85 1b        	sta	$1b                     ; 0x201b <f256main+0x1707>
    6b7d: a4 19        	ldy	$19                     ; 0x2019 <f256main+0x1705>
    6b7f: 84 1c        	sty	$1c                     ; 0x201c <f256main+0x1708>
    6b81: 66 1c        	ror	$1c                     ; 0x201c <f256main+0x1708>
    6b83: a5 1a        	lda	$1a                     ; 0x201a <f256main+0x1706>
    6b85: 6a           	ror
    6b86: 18           	clc
    6b87: 65 12        	adc	$12                     ; 0x2012 <f256main+0x16fe>
    6b89: a8           	tay
    6b8a: a5 1c        	lda	$1c                     ; 0x201c <f256main+0x1708>
    6b8c: 65 13        	adc	$13                     ; 0x2013 <f256main+0x16ff>
    6b8e: 85 13        	sta	$13                     ; 0x2013 <f256main+0x16ff>
    6b90: a5 1b        	lda	$1b                     ; 0x201b <f256main+0x1707>
    6b92: 65 14        	adc	$14                     ; 0x2014 <f256main+0x1700>
    6b94: 85 14        	sta	$14                     ; 0x2014 <f256main+0x1700>
    6b96: a5 17        	lda	$17                     ; 0x2017 <f256main+0x1703>
    6b98: 65 15        	adc	$15                     ; 0x2015 <f256main+0x1701>
    6b9a: 85 15        	sta	$15                     ; 0x2015 <f256main+0x1701>
    6b9c: 98           	tya
    6b9d: 29 0f        	and	#$f
    6b9f: 85 12        	sta	$12                     ; 0x2012 <f256main+0x16fe>
    6ba1: a8           	tay
    6ba2: a5 13        	lda	$13                     ; 0x2013 <f256main+0x16ff>
    6ba4: 29 0f        	and	#$f
    6ba6: 85 13        	sta	$13                     ; 0x2013 <f256main+0x16ff>
    6ba8: 85 1a        	sta	$1a                     ; 0x201a <f256main+0x1706>
    6baa: a5 14        	lda	$14                     ; 0x2014 <f256main+0x1700>
    6bac: 29 0f        	and	#$f
    6bae: 85 14        	sta	$14                     ; 0x2014 <f256main+0x1700>
    6bb0: 85 19        	sta	$19                     ; 0x2019 <f256main+0x1705>
    6bb2: a5 15        	lda	$15                     ; 0x2015 <f256main+0x1701>
    6bb4: 29 0f        	and	#$f
    6bb6: 85 17        	sta	$17                     ; 0x2017 <f256main+0x1703>
    6bb8: 18           	clc
    6bb9: 98           	tya
    6bba: 69 00        	adc	#$0
    6bbc: 85 15        	sta	$15                     ; 0x2015 <f256main+0x1701>
    6bbe: 85 1b        	sta	$1b                     ; 0x201b <f256main+0x1707>
    6bc0: a5 1a        	lda	$1a                     ; 0x201a <f256main+0x1706>
    6bc2: 65 12        	adc	$12                     ; 0x2012 <f256main+0x16fe>
    6bc4: 85 12        	sta	$12                     ; 0x2012 <f256main+0x16fe>
    6bc6: a5 19        	lda	$19                     ; 0x2019 <f256main+0x1705>
    6bc8: 65 13        	adc	$13                     ; 0x2013 <f256main+0x16ff>
    6bca: 85 13        	sta	$13                     ; 0x2013 <f256main+0x16ff>
    6bcc: a5 17        	lda	$17                     ; 0x2017 <f256main+0x1703>
    6bce: 65 14        	adc	$14                     ; 0x2014 <f256main+0x1700>
    6bd0: a8           	tay
    6bd1: 18           	clc
    6bd2: a5 1b        	lda	$1b                     ; 0x201b <f256main+0x1707>
    6bd4: 69 00        	adc	#$0
    6bd6: a5 12        	lda	$12                     ; 0x2012 <f256main+0x16fe>
    6bd8: 69 00        	adc	#$0
    6bda: a5 13        	lda	$13                     ; 0x2013 <f256main+0x16ff>
    6bdc: 65 15        	adc	$15                     ; 0x2015 <f256main+0x1701>
    6bde: 98           	tya
    6bdf: 65 12        	adc	$12                     ; 0x2012 <f256main+0x16fe>
    6be1: 85 12        	sta	$12                     ; 0x2012 <f256main+0x16fe>
    6be3: a9 20        	lda	#$20
    6be5: 38           	sec
    6be6: e5 12        	sbc	$12                     ; 0x2012 <f256main+0x16fe>
    6be8: 85 8f        	sta	$8f                     ; 0x208f <f256main+0x177b>
    6bea: a9 00        	lda	#$0
    6bec: e9 00        	sbc	#$0
    6bee: 85 90        	sta	$90                     ; 0x2090 <f256main+0x177c>
    6bf0: a5 8f        	lda	$8f                     ; 0x208f <f256main+0x177b>
    6bf2: 18           	clc
    6bf3: 69 f8        	adc	#$f8
    6bf5: a4 16        	ldy	$16                     ; 0x2016 <f256main+0x1702>
    6bf7: 84 12        	sty	$12                     ; 0x2012 <f256main+0x16fe>
    6bf9: 64 13        	stz	$13                     ; 0x2013 <f256main+0x16ff>
    6bfb: 85 14        	sta	$14                     ; 0x2014 <f256main+0x1700>
    6bfd: a5 94        	lda	$94                     ; 0x2094 <f256main+0x1780>
    6bff: 20 9e 60     	jsr	$609e <__ashlsi3>
    6c02: 85 94        	sta	$94                     ; 0x2094 <f256main+0x1780>
    6c04: 86 9e        	stx	$9e                     ; 0x209e <f256main+0x178a>
    6c06: a6 12        	ldx	$12                     ; 0x2012 <f256main+0x16fe>
    6c08: 86 16        	stx	$16                     ; 0x2016 <f256main+0x1702>
    6c0a: a4 13        	ldy	$13                     ; 0x2013 <f256main+0x16ff>
    6c0c: a6 a2        	ldx	$a2                     ; 0x20a2 <f256main+0x178e>
    6c0e: 86 12        	stx	$12                     ; 0x2012 <f256main+0x16fe>
    6c10: 18           	clc
    6c11: a5 8f        	lda	$8f                     ; 0x208f <f256main+0x177b>
    6c13: 65 12        	adc	$12                     ; 0x2012 <f256main+0x16fe>
    6c15: 85 13        	sta	$13                     ; 0x2013 <f256main+0x16ff>
    6c17: a6 9f        	ldx	$9f                     ; 0x209f <f256main+0x178b>
    6c19: 86 12        	stx	$12                     ; 0x2012 <f256main+0x16fe>
    6c1b: a5 90        	lda	$90                     ; 0x2090 <f256main+0x177c>
    6c1d: 65 12        	adc	$12                     ; 0x2012 <f256main+0x16fe>
    6c1f: 85 12        	sta	$12                     ; 0x2012 <f256main+0x16fe>
    6c21: 18           	clc
    6c22: a5 13        	lda	$13                     ; 0x2013 <f256main+0x16ff>
    6c24: 69 f7        	adc	#$f7
    6c26: 85 14        	sta	$14                     ; 0x2014 <f256main+0x1700>
    6c28: a5 12        	lda	$12                     ; 0x2012 <f256main+0x16fe>
    6c2a: 69 ff        	adc	#$ff
    6c2c: 85 15        	sta	$15                     ; 0x2015 <f256main+0x1701>
    6c2e: a6 a1        	ldx	$a1                     ; 0x20a1 <f256main+0x178d>
    6c30: 86 12        	stx	$12                     ; 0x2012 <f256main+0x16fe>
    6c32: a5 16        	lda	$16                     ; 0x2016 <f256main+0x1702>
    6c34: 09 80        	ora	#$80
    6c36: 38           	sec
    6c37: 85 90        	sta	$90                     ; 0x2090 <f256main+0x177c>
    6c39: a5 9b        	lda	$9b                     ; 0x209b <f256main+0x1787>
    6c3b: e5 12        	sbc	$12                     ; 0x2012 <f256main+0x16fe>
    6c3d: aa           	tax
    6c3e: a9 00        	lda	#$0
    6c40: e9 00        	sbc	#$0
    6c42: 85 12        	sta	$12                     ; 0x2012 <f256main+0x16fe>
    6c44: 18           	clc
    6c45: 8a           	txa
    6c46: 65 14        	adc	$14                     ; 0x2014 <f256main+0x1700>
    6c48: aa           	tax
    6c49: a5 12        	lda	$12                     ; 0x2012 <f256main+0x16fe>
    6c4b: 65 15        	adc	$15                     ; 0x2015 <f256main+0x1701>
    6c4d: 85 12        	sta	$12                     ; 0x2012 <f256main+0x16fe>
    6c4f: 18           	clc
    6c50: 8a           	txa
    6c51: 86 9b        	stx	$9b                     ; 0x209b <f256main+0x1787>
    6c53: 69 7f        	adc	#$7f
    6c55: 85 a4        	sta	$a4                     ; 0x20a4 <f256main+0x1790>
    6c57: a5 12        	lda	$12                     ; 0x2012 <f256main+0x16fe>
    6c59: a6 12        	ldx	$12                     ; 0x2012 <f256main+0x16fe>
    6c5b: 86 a8        	stx	$a8                     ; 0x20a8 <f256main+0x1794>
    6c5d: 69 00        	adc	#$0
    6c5f: 85 a3        	sta	$a3                     ; 0x20a3 <f256main+0x178f>
    6c61: a5 94        	lda	$94                     ; 0x2094 <f256main+0x1780>
    6c63: 85 9f        	sta	$9f                     ; 0x209f <f256main+0x178b>
    6c65: 06 94        	asl	$94                     ; 0x2094 <f256main+0x1780>
    6c67: a6 9e        	ldx	$9e                     ; 0x209e <f256main+0x178a>
    6c69: 86 91        	stx	$91                     ; 0x2091 <f256main+0x177d>
    6c6b: 26 91        	rol	$91                     ; 0x2091 <f256main+0x177d>
    6c6d: a6 90        	ldx	$90                     ; 0x2090 <f256main+0x177c>
    6c6f: 86 a2        	stx	$a2                     ; 0x20a2 <f256main+0x178e>
    6c71: 26 90        	rol	$90                     ; 0x2090 <f256main+0x177c>
    6c73: 98           	tya
    6c74: 84 a1        	sty	$a1                     ; 0x20a1 <f256main+0x178d>
    6c76: 2a           	rol
    6c77: 85 ac        	sta	$ac                     ; 0x20ac <f256main+0x1798>
    6c79: 4a           	lsr
    6c7a: a6 90        	ldx	$90                     ; 0x2090 <f256main+0x177c>
    6c7c: 86 ab        	stx	$ab                     ; 0x20ab <f256main+0x1797>
    6c7e: 66 90        	ror	$90                     ; 0x2090 <f256main+0x177c>
    6c80: a6 91        	ldx	$91                     ; 0x2091 <f256main+0x177d>
    6c82: 86 aa        	stx	$aa                     ; 0x20aa <f256main+0x1796>
    6c84: 66 91        	ror	$91                     ; 0x2091 <f256main+0x177d>
    6c86: a6 94        	ldx	$94                     ; 0x2094 <f256main+0x1780>
    6c88: 86 a9        	stx	$a9                     ; 0x20a9 <f256main+0x1795>
    6c8a: 66 94        	ror	$94                     ; 0x2094 <f256main+0x1780>
    6c8c: 64 95        	stz	$95                     ; 0x2095 <f256main+0x1781>
    6c8e: 66 95        	ror	$95                     ; 0x2095 <f256main+0x1781>
    6c90: a9 33        	lda	#$33
    6c92: 38           	sec
    6c93: e5 95        	sbc	$95                     ; 0x2095 <f256main+0x1781>
    6c95: 85 8f        	sta	$8f                     ; 0x208f <f256main+0x177b>
    6c97: a9 f3        	lda	#$f3
    6c99: e5 94        	sbc	$94                     ; 0x2094 <f256main+0x1780>
    6c9b: 85 96        	sta	$96                     ; 0x2096 <f256main+0x1782>
    6c9d: a9 04        	lda	#$4
    6c9f: e5 91        	sbc	$91                     ; 0x2091 <f256main+0x177d>
    6ca1: 85 98        	sta	$98                     ; 0x2098 <f256main+0x1784>
    6ca3: a9 75        	lda	#$75
    6ca5: e5 90        	sbc	$90                     ; 0x2090 <f256main+0x177c>
    6ca7: 85 99        	sta	$99                     ; 0x2099 <f256main+0x1785>
    6ca9: a6 9d        	ldx	$9d                     ; 0x209d <f256main+0x1789>
    6cab: 8a           	txa
    6cac: 09 80        	ora	#$80
    6cae: 85 93        	sta	$93                     ; 0x2093 <f256main+0x177f>
    6cb0: 64 92        	stz	$92                     ; 0x2092 <f256main+0x177e>
    6cb2: a6 98        	ldx	$98                     ; 0x2098 <f256main+0x1784>
    6cb4: 86 12        	stx	$12                     ; 0x2012 <f256main+0x16fe>
    6cb6: a6 99        	ldx	$99                     ; 0x2099 <f256main+0x1785>
    6cb8: 86 13        	stx	$13                     ; 0x2013 <f256main+0x16ff>
    6cba: 64 14        	stz	$14                     ; 0x2014 <f256main+0x1700>
    6cbc: 64 15        	stz	$15                     ; 0x2015 <f256main+0x1701>
    6cbe: 64 16        	stz	$16                     ; 0x2016 <f256main+0x1702>
    6cc0: 64 17        	stz	$17                     ; 0x2017 <f256main+0x1703>
    6cc2: a6 95        	ldx	$95                     ; 0x2095 <f256main+0x1781>
    6cc4: 86 18        	stx	$18                     ; 0x2018 <f256main+0x1704>
    6cc6: a6 94        	ldx	$94                     ; 0x2094 <f256main+0x1780>
    6cc8: 86 19        	stx	$19                     ; 0x2019 <f256main+0x1705>
    6cca: a6 91        	ldx	$91                     ; 0x2091 <f256main+0x177d>
    6ccc: 86 1a        	stx	$1a                     ; 0x201a <f256main+0x1706>
    6cce: a6 90        	ldx	$90                     ; 0x2090 <f256main+0x177c>
    6cd0: 86 1b        	stx	$1b                     ; 0x201b <f256main+0x1707>
    6cd2: 64 1c        	stz	$1c                     ; 0x201c <f256main+0x1708>
    6cd4: 64 1d        	stz	$1d                     ; 0x201d <f256main+0x1709>
    6cd6: 64 1e        	stz	$1e                     ; 0x201e <f256main+0x170a>
    6cd8: 64 1f        	stz	$1f                     ; 0x201f <f256main+0x170b>
    6cda: a6 96        	ldx	$96                     ; 0x2096 <f256main+0x1782>
    6cdc: a5 8f        	lda	$8f                     ; 0x208f <f256main+0x177b>
    6cde: 20 89 61     	jsr	$6189 <__muldi3>
    6ce1: a9 00        	lda	#$0
    6ce3: 38           	sec
    6ce4: e5 14        	sbc	$14                     ; 0x2014 <f256main+0x1700>
    6ce6: a8           	tay
    6ce7: a9 00        	lda	#$0
    6ce9: e5 15        	sbc	$15                     ; 0x2015 <f256main+0x1701>
    6ceb: aa           	tax
    6cec: a9 00        	lda	#$0
    6cee: e5 16        	sbc	$16                     ; 0x2016 <f256main+0x1702>
    6cf0: 85 12        	sta	$12                     ; 0x2012 <f256main+0x16fe>
    6cf2: a9 00        	lda	#$0
    6cf4: e5 17        	sbc	$17                     ; 0x2017 <f256main+0x1703>
    6cf6: 85 13        	sta	$13                     ; 0x2013 <f256main+0x16ff>
    6cf8: a5 8f        	lda	$8f                     ; 0x208f <f256main+0x177b>
    6cfa: 85 18        	sta	$18                     ; 0x2018 <f256main+0x1704>
    6cfc: a5 96        	lda	$96                     ; 0x2096 <f256main+0x1782>
    6cfe: 85 19        	sta	$19                     ; 0x2019 <f256main+0x1705>
    6d00: a5 98        	lda	$98                     ; 0x2098 <f256main+0x1784>
    6d02: 85 1a        	sta	$1a                     ; 0x201a <f256main+0x1706>
    6d04: a5 99        	lda	$99                     ; 0x2099 <f256main+0x1785>
    6d06: 85 1b        	sta	$1b                     ; 0x201b <f256main+0x1707>
    6d08: 64 14        	stz	$14                     ; 0x2014 <f256main+0x1700>
    6d0a: 64 15        	stz	$15                     ; 0x2015 <f256main+0x1701>
    6d0c: 64 16        	stz	$16                     ; 0x2016 <f256main+0x1702>
    6d0e: 64 17        	stz	$17                     ; 0x2017 <f256main+0x1703>
    6d10: 64 1c        	stz	$1c                     ; 0x201c <f256main+0x1708>
    6d12: 64 1d        	stz	$1d                     ; 0x201d <f256main+0x1709>
    6d14: 64 1e        	stz	$1e                     ; 0x201e <f256main+0x170a>
    6d16: 64 1f        	stz	$1f                     ; 0x201f <f256main+0x170b>
    6d18: 98           	tya
    6d19: 20 89 61     	jsr	$6189 <__muldi3>
    6d1c: a6 14        	ldx	$14                     ; 0x2014 <f256main+0x1700>
    6d1e: 86 96        	stx	$96                     ; 0x2096 <f256main+0x1782>
    6d20: a6 15        	ldx	$15                     ; 0x2015 <f256main+0x1701>
    6d22: 86 8f        	stx	$8f                     ; 0x208f <f256main+0x177b>
    6d24: a6 16        	ldx	$16                     ; 0x2016 <f256main+0x1702>
    6d26: 86 98        	stx	$98                     ; 0x2098 <f256main+0x1784>
    6d28: a6 17        	ldx	$17                     ; 0x2017 <f256main+0x1703>
    6d2a: 86 99        	stx	$99                     ; 0x2099 <f256main+0x1785>
    6d2c: 06 13        	asl	$13                     ; 0x2013 <f256main+0x16ff>
    6d2e: 26 96        	rol	$96                     ; 0x2096 <f256main+0x1782>
    6d30: 26 8f        	rol	$8f                     ; 0x208f <f256main+0x177b>
    6d32: 26 98        	rol	$98                     ; 0x2098 <f256main+0x1784>
    6d34: 26 99        	rol	$99                     ; 0x2099 <f256main+0x1785>
    6d36: a6 98        	ldx	$98                     ; 0x2098 <f256main+0x1784>
    6d38: 86 12        	stx	$12                     ; 0x2012 <f256main+0x16fe>
    6d3a: a6 99        	ldx	$99                     ; 0x2099 <f256main+0x1785>
    6d3c: 86 13        	stx	$13                     ; 0x2013 <f256main+0x16ff>
    6d3e: 64 14        	stz	$14                     ; 0x2014 <f256main+0x1700>
    6d40: 64 15        	stz	$15                     ; 0x2015 <f256main+0x1701>
    6d42: 64 16        	stz	$16                     ; 0x2016 <f256main+0x1702>
    6d44: 64 17        	stz	$17                     ; 0x2017 <f256main+0x1703>
    6d46: a6 95        	ldx	$95                     ; 0x2095 <f256main+0x1781>
    6d48: 86 18        	stx	$18                     ; 0x2018 <f256main+0x1704>
    6d4a: a6 94        	ldx	$94                     ; 0x2094 <f256main+0x1780>
    6d4c: 86 19        	stx	$19                     ; 0x2019 <f256main+0x1705>
    6d4e: a6 91        	ldx	$91                     ; 0x2091 <f256main+0x177d>
    6d50: 86 1a        	stx	$1a                     ; 0x201a <f256main+0x1706>
    6d52: a6 90        	ldx	$90                     ; 0x2090 <f256main+0x177c>
    6d54: 86 1b        	stx	$1b                     ; 0x201b <f256main+0x1707>
    6d56: 64 1c        	stz	$1c                     ; 0x201c <f256main+0x1708>
    6d58: 64 1d        	stz	$1d                     ; 0x201d <f256main+0x1709>
    6d5a: 64 1e        	stz	$1e                     ; 0x201e <f256main+0x170a>
    6d5c: 64 1f        	stz	$1f                     ; 0x201f <f256main+0x170b>
    6d5e: a6 8f        	ldx	$8f                     ; 0x208f <f256main+0x177b>
    6d60: a5 96        	lda	$96                     ; 0x2096 <f256main+0x1782>
    6d62: 20 89 61     	jsr	$6189 <__muldi3>
    6d65: a9 00        	lda	#$0
    6d67: 38           	sec
    6d68: e5 14        	sbc	$14                     ; 0x2014 <f256main+0x1700>
    6d6a: 85 18        	sta	$18                     ; 0x2018 <f256main+0x1704>
    6d6c: a9 00        	lda	#$0
    6d6e: e5 15        	sbc	$15                     ; 0x2015 <f256main+0x1701>
    6d70: 85 19        	sta	$19                     ; 0x2019 <f256main+0x1705>
    6d72: a9 00        	lda	#$0
    6d74: e5 16        	sbc	$16                     ; 0x2016 <f256main+0x1702>
    6d76: 85 1a        	sta	$1a                     ; 0x201a <f256main+0x1706>
    6d78: a9 00        	lda	#$0
    6d7a: e5 17        	sbc	$17                     ; 0x2017 <f256main+0x1703>
    6d7c: a6 98        	ldx	$98                     ; 0x2098 <f256main+0x1784>
    6d7e: 86 12        	stx	$12                     ; 0x2012 <f256main+0x16fe>
    6d80: a6 99        	ldx	$99                     ; 0x2099 <f256main+0x1785>
    6d82: 86 13        	stx	$13                     ; 0x2013 <f256main+0x16ff>
    6d84: 64 14        	stz	$14                     ; 0x2014 <f256main+0x1700>
    6d86: 64 15        	stz	$15                     ; 0x2015 <f256main+0x1701>
    6d88: 64 16        	stz	$16                     ; 0x2016 <f256main+0x1702>
    6d8a: 64 17        	stz	$17                     ; 0x2017 <f256main+0x1703>
    6d8c: 85 1b        	sta	$1b                     ; 0x201b <f256main+0x1707>
    6d8e: 64 1c        	stz	$1c                     ; 0x201c <f256main+0x1708>
    6d90: 64 1d        	stz	$1d                     ; 0x201d <f256main+0x1709>
    6d92: 64 1e        	stz	$1e                     ; 0x201e <f256main+0x170a>
    6d94: 64 1f        	stz	$1f                     ; 0x201f <f256main+0x170b>
    6d96: a6 8f        	ldx	$8f                     ; 0x208f <f256main+0x177b>
    6d98: a5 96        	lda	$96                     ; 0x2096 <f256main+0x1782>
    6d9a: 20 89 61     	jsr	$6189 <__muldi3>
    6d9d: a6 14        	ldx	$14                     ; 0x2014 <f256main+0x1700>
    6d9f: 86 96        	stx	$96                     ; 0x2096 <f256main+0x1782>
    6da1: a6 15        	ldx	$15                     ; 0x2015 <f256main+0x1701>
    6da3: 86 8f        	stx	$8f                     ; 0x208f <f256main+0x177b>
    6da5: a6 16        	ldx	$16                     ; 0x2016 <f256main+0x1702>
    6da7: 86 98        	stx	$98                     ; 0x2098 <f256main+0x1784>
    6da9: a6 17        	ldx	$17                     ; 0x2017 <f256main+0x1703>
    6dab: 86 99        	stx	$99                     ; 0x2099 <f256main+0x1785>
    6dad: 06 13        	asl	$13                     ; 0x2013 <f256main+0x16ff>
    6daf: 26 96        	rol	$96                     ; 0x2096 <f256main+0x1782>
    6db1: 26 8f        	rol	$8f                     ; 0x208f <f256main+0x177b>
    6db3: 26 98        	rol	$98                     ; 0x2098 <f256main+0x1784>
    6db5: 26 99        	rol	$99                     ; 0x2099 <f256main+0x1785>
    6db7: a6 98        	ldx	$98                     ; 0x2098 <f256main+0x1784>
    6db9: 86 12        	stx	$12                     ; 0x2012 <f256main+0x16fe>
    6dbb: a6 99        	ldx	$99                     ; 0x2099 <f256main+0x1785>
    6dbd: 86 13        	stx	$13                     ; 0x2013 <f256main+0x16ff>
    6dbf: 64 14        	stz	$14                     ; 0x2014 <f256main+0x1700>
    6dc1: 64 15        	stz	$15                     ; 0x2015 <f256main+0x1701>
    6dc3: 64 16        	stz	$16                     ; 0x2016 <f256main+0x1702>
    6dc5: 64 17        	stz	$17                     ; 0x2017 <f256main+0x1703>
    6dc7: a6 95        	ldx	$95                     ; 0x2095 <f256main+0x1781>
    6dc9: 86 18        	stx	$18                     ; 0x2018 <f256main+0x1704>
    6dcb: a6 94        	ldx	$94                     ; 0x2094 <f256main+0x1780>
    6dcd: 86 19        	stx	$19                     ; 0x2019 <f256main+0x1705>
    6dcf: a6 91        	ldx	$91                     ; 0x2091 <f256main+0x177d>
    6dd1: 86 1a        	stx	$1a                     ; 0x201a <f256main+0x1706>
    6dd3: a6 90        	ldx	$90                     ; 0x2090 <f256main+0x177c>
    6dd5: 86 1b        	stx	$1b                     ; 0x201b <f256main+0x1707>
    6dd7: 64 1c        	stz	$1c                     ; 0x201c <f256main+0x1708>
    6dd9: 64 1d        	stz	$1d                     ; 0x201d <f256main+0x1709>
    6ddb: 64 1e        	stz	$1e                     ; 0x201e <f256main+0x170a>
    6ddd: 64 1f        	stz	$1f                     ; 0x201f <f256main+0x170b>
    6ddf: a6 8f        	ldx	$8f                     ; 0x208f <f256main+0x177b>
    6de1: a5 96        	lda	$96                     ; 0x2096 <f256main+0x1782>
    6de3: 20 89 61     	jsr	$6189 <__muldi3>
    6de6: a9 00        	lda	#$0
    6de8: 38           	sec
    6de9: e5 14        	sbc	$14                     ; 0x2014 <f256main+0x1700>
    6deb: 85 18        	sta	$18                     ; 0x2018 <f256main+0x1704>
    6ded: a9 00        	lda	#$0
    6def: e5 15        	sbc	$15                     ; 0x2015 <f256main+0x1701>
    6df1: 85 19        	sta	$19                     ; 0x2019 <f256main+0x1705>
    6df3: a9 00        	lda	#$0
    6df5: e5 16        	sbc	$16                     ; 0x2016 <f256main+0x1702>
    6df7: 85 1a        	sta	$1a                     ; 0x201a <f256main+0x1706>
    6df9: a9 00        	lda	#$0
    6dfb: e5 17        	sbc	$17                     ; 0x2017 <f256main+0x1703>
    6dfd: a6 98        	ldx	$98                     ; 0x2098 <f256main+0x1784>
    6dff: 86 12        	stx	$12                     ; 0x2012 <f256main+0x16fe>
    6e01: a6 99        	ldx	$99                     ; 0x2099 <f256main+0x1785>
    6e03: 86 13        	stx	$13                     ; 0x2013 <f256main+0x16ff>
    6e05: 64 14        	stz	$14                     ; 0x2014 <f256main+0x1700>
    6e07: 64 15        	stz	$15                     ; 0x2015 <f256main+0x1701>
    6e09: 64 16        	stz	$16                     ; 0x2016 <f256main+0x1702>
    6e0b: 64 17        	stz	$17                     ; 0x2017 <f256main+0x1703>
    6e0d: 85 1b        	sta	$1b                     ; 0x201b <f256main+0x1707>
    6e0f: 64 1c        	stz	$1c                     ; 0x201c <f256main+0x1708>
    6e11: 64 1d        	stz	$1d                     ; 0x201d <f256main+0x1709>
    6e13: 64 1e        	stz	$1e                     ; 0x201e <f256main+0x170a>
    6e15: 64 1f        	stz	$1f                     ; 0x201f <f256main+0x170b>
    6e17: a6 8f        	ldx	$8f                     ; 0x208f <f256main+0x177b>
    6e19: a5 96        	lda	$96                     ; 0x2096 <f256main+0x1782>
    6e1b: 20 89 61     	jsr	$6189 <__muldi3>
    6e1e: a5 14        	lda	$14                     ; 0x2014 <f256main+0x1700>
    6e20: 06 13        	asl	$13                     ; 0x2013 <f256main+0x16ff>
    6e22: 2a           	rol
    6e23: 26 15        	rol	$15                     ; 0x2015 <f256main+0x1701>
    6e25: 26 16        	rol	$16                     ; 0x2016 <f256main+0x1702>
    6e27: a6 17        	ldx	$17                     ; 0x2017 <f256main+0x1703>
    6e29: 86 12        	stx	$12                     ; 0x2012 <f256main+0x16fe>
    6e2b: 26 12        	rol	$12                     ; 0x2012 <f256main+0x16fe>
    6e2d: 18           	clc
    6e2e: 69 f4        	adc	#$f4
    6e30: a8           	tay
    6e31: a5 15        	lda	$15                     ; 0x2015 <f256main+0x1701>
    6e33: 69 ff        	adc	#$ff
    6e35: 85 22        	sta	$22                     ; 0x2022 <f256main+0x170e>
    6e37: a5 16        	lda	$16                     ; 0x2016 <f256main+0x1702>
    6e39: 69 ff        	adc	#$ff
    6e3b: 85 14        	sta	$14                     ; 0x2014 <f256main+0x1700>
    6e3d: a5 12        	lda	$12                     ; 0x2012 <f256main+0x16fe>
    6e3f: 69 ff        	adc	#$ff
    6e41: a6 9a        	ldx	$9a                     ; 0x209a <f256main+0x1786>
    6e43: 86 18        	stx	$18                     ; 0x2018 <f256main+0x1704>
    6e45: 06 18        	asl	$18                     ; 0x2018 <f256main+0x1704>
    6e47: a6 97        	ldx	$97                     ; 0x2097 <f256main+0x1783>
    6e49: 86 19        	stx	$19                     ; 0x2019 <f256main+0x1705>
    6e4b: 26 19        	rol	$19                     ; 0x2019 <f256main+0x1705>
    6e4d: a6 93        	ldx	$93                     ; 0x2093 <f256main+0x177f>
    6e4f: 86 91        	stx	$91                     ; 0x2091 <f256main+0x177d>
    6e51: a6 93        	ldx	$93                     ; 0x2093 <f256main+0x177f>
    6e53: 86 1a        	stx	$1a                     ; 0x201a <f256main+0x1706>
    6e55: 26 1a        	rol	$1a                     ; 0x201a <f256main+0x1706>
    6e57: a6 a0        	ldx	$a0                     ; 0x20a0 <f256main+0x178c>
    6e59: 86 1b        	stx	$1b                     ; 0x201b <f256main+0x1707>
    6e5b: 26 1b        	rol	$1b                     ; 0x201b <f256main+0x1707>
    6e5d: a6 14        	ldx	$14                     ; 0x2014 <f256main+0x1700>
    6e5f: 86 12        	stx	$12                     ; 0x2012 <f256main+0x16fe>
    6e61: 85 13        	sta	$13                     ; 0x2013 <f256main+0x16ff>
    6e63: 64 14        	stz	$14                     ; 0x2014 <f256main+0x1700>
    6e65: 64 15        	stz	$15                     ; 0x2015 <f256main+0x1701>
    6e67: 64 16        	stz	$16                     ; 0x2016 <f256main+0x1702>
    6e69: 64 17        	stz	$17                     ; 0x2017 <f256main+0x1703>
    6e6b: a6 18        	ldx	$18                     ; 0x2018 <f256main+0x1704>
    6e6d: 86 9d        	stx	$9d                     ; 0x209d <f256main+0x1789>
    6e6f: a6 19        	ldx	$19                     ; 0x2019 <f256main+0x1705>
    6e71: 86 a5        	stx	$a5                     ; 0x20a5 <f256main+0x1791>
    6e73: a6 1a        	ldx	$1a                     ; 0x201a <f256main+0x1706>
    6e75: 86 a6        	stx	$a6                     ; 0x20a6 <f256main+0x1792>
    6e77: a6 1b        	ldx	$1b                     ; 0x201b <f256main+0x1707>
    6e79: 86 a7        	stx	$a7                     ; 0x20a7 <f256main+0x1793>
    6e7b: 64 1c        	stz	$1c                     ; 0x201c <f256main+0x1708>
    6e7d: 64 1d        	stz	$1d                     ; 0x201d <f256main+0x1709>
    6e7f: 64 1e        	stz	$1e                     ; 0x201e <f256main+0x170a>
    6e81: 64 1f        	stz	$1f                     ; 0x201f <f256main+0x170b>
    6e83: a6 22        	ldx	$22                     ; 0x2022 <f256main+0x170e>
    6e85: 98           	tya
    6e86: 20 89 61     	jsr	$6189 <__muldi3>
    6e89: a6 14        	ldx	$14                     ; 0x2014 <f256main+0x1700>
    6e8b: 86 96        	stx	$96                     ; 0x2096 <f256main+0x1782>
    6e8d: a6 15        	ldx	$15                     ; 0x2015 <f256main+0x1701>
    6e8f: 86 18        	stx	$18                     ; 0x2018 <f256main+0x1704>
    6e91: a6 16        	ldx	$16                     ; 0x2016 <f256main+0x1702>
    6e93: a4 17        	ldy	$17                     ; 0x2017 <f256main+0x1703>
    6e95: a5 97        	lda	$97                     ; 0x2097 <f256main+0x1783>
    6e97: 4a           	lsr
    6e98: a5 9a        	lda	$9a                     ; 0x209a <f256main+0x1786>
    6e9a: 6a           	ror
    6e9b: 64 94        	stz	$94                     ; 0x2094 <f256main+0x1780>
    6e9d: 66 94        	ror	$94                     ; 0x2094 <f256main+0x1780>
    6e9f: 64 95        	stz	$95                     ; 0x2095 <f256main+0x1781>
    6ea1: 66 95        	ror	$95                     ; 0x2095 <f256main+0x1781>
    6ea3: 66 92        	ror	$92                     ; 0x2092 <f256main+0x177e>
    6ea5: 86 12        	stx	$12                     ; 0x2012 <f256main+0x16fe>
    6ea7: 84 13        	sty	$13                     ; 0x2013 <f256main+0x16ff>
    6ea9: c0 01        	cpy	#$1
    6eab: d0 18        	bne	$6ec5 <__divsf3+0x898>
    6ead: e0 00        	cpx	#$0
    6eaf: d0 18        	bne	$6ec9 <__divsf3+0x89c>
    6eb1: a6 9f        	ldx	$9f                     ; 0x209f <f256main+0x178b>
    6eb3: 86 14        	stx	$14                     ; 0x2014 <f256main+0x1700>
    6eb5: a6 a2        	ldx	$a2                     ; 0x20a2 <f256main+0x178e>
    6eb7: 86 16        	stx	$16                     ; 0x2016 <f256main+0x1702>
    6eb9: a6 18        	ldx	$18                     ; 0x2018 <f256main+0x1704>
    6ebb: f0 03        	beq	$6ec0 <__divsf3+0x893>
    6ebd: 4c 33 6f     	jmp	$6f33 <__divsf3+0x906>
    6ec0: a6 96        	ldx	$96                     ; 0x2096 <f256main+0x1782>
    6ec2: 4c 35 6f     	jmp	$6f35 <__divsf3+0x908>
    6ec5: c0 01        	cpy	#$1
    6ec7: 80 02        	bra	$6ecb <__divsf3+0x89e>
    6ec9: e0 00        	cpx	#$0
    6ecb: a6 9f        	ldx	$9f                     ; 0x209f <f256main+0x178b>
    6ecd: 86 14        	stx	$14                     ; 0x2014 <f256main+0x1700>
    6ecf: a6 9e        	ldx	$9e                     ; 0x209e <f256main+0x178a>
    6ed1: 86 15        	stx	$15                     ; 0x2015 <f256main+0x1701>
    6ed3: a6 a2        	ldx	$a2                     ; 0x20a2 <f256main+0x178e>
    6ed5: 86 16        	stx	$16                     ; 0x2016 <f256main+0x1702>
    6ed7: b0 03        	bcs	$6edc <__divsf3+0x8af>
    6ed9: 4c 40 6f     	jmp	$6f40 <__divsf3+0x913>
    6edc: 46 13        	lsr	$13                     ; 0x2013 <f256main+0x16ff>
    6ede: 66 12        	ror	$12                     ; 0x2012 <f256main+0x16fe>
    6ee0: a6 18        	ldx	$18                     ; 0x2018 <f256main+0x1704>
    6ee2: 86 90        	stx	$90                     ; 0x2090 <f256main+0x177c>
    6ee4: 66 90        	ror	$90                     ; 0x2090 <f256main+0x177c>
    6ee6: 66 96        	ror	$96                     ; 0x2096 <f256main+0x1782>
    6ee8: a6 12        	ldx	$12                     ; 0x2012 <f256main+0x16fe>
    6eea: 86 93        	stx	$93                     ; 0x2093 <f256main+0x177f>
    6eec: a6 13        	ldx	$13                     ; 0x2013 <f256main+0x16ff>
    6eee: 86 9b        	stx	$9b                     ; 0x209b <f256main+0x1787>
    6ef0: a6 a1        	ldx	$a1                     ; 0x20a1 <f256main+0x178d>
    6ef2: 86 17        	stx	$17                     ; 0x2017 <f256main+0x1703>
    6ef4: a6 90        	ldx	$90                     ; 0x2090 <f256main+0x177c>
    6ef6: 85 98        	sta	$98                     ; 0x2098 <f256main+0x1784>
    6ef8: a5 96        	lda	$96                     ; 0x2096 <f256main+0x1782>
    6efa: 20 19 61     	jsr	$6119 <__mulsi3>
    6efd: 85 14        	sta	$14                     ; 0x2014 <f256main+0x1700>
    6eff: 86 15        	stx	$15                     ; 0x2015 <f256main+0x1701>
    6f01: 38           	sec
    6f02: a5 92        	lda	$92                     ; 0x2092 <f256main+0x177e>
    6f04: e5 14        	sbc	$14                     ; 0x2014 <f256main+0x1700>
    6f06: 85 14        	sta	$14                     ; 0x2014 <f256main+0x1700>
    6f08: a5 95        	lda	$95                     ; 0x2095 <f256main+0x1781>
    6f0a: e5 15        	sbc	$15                     ; 0x2015 <f256main+0x1701>
    6f0c: 85 1d        	sta	$1d                     ; 0x201d <f256main+0x1709>
    6f0e: a5 94        	lda	$94                     ; 0x2094 <f256main+0x1780>
    6f10: e5 12        	sbc	$12                     ; 0x2012 <f256main+0x16fe>
    6f12: 85 1c        	sta	$1c                     ; 0x201c <f256main+0x1708>
    6f14: a5 98        	lda	$98                     ; 0x2098 <f256main+0x1784>
    6f16: e5 13        	sbc	$13                     ; 0x2013 <f256main+0x16ff>
    6f18: 85 1b        	sta	$1b                     ; 0x201b <f256main+0x1707>
    6f1a: a6 96        	ldx	$96                     ; 0x2096 <f256main+0x1782>
    6f1c: 86 15        	stx	$15                     ; 0x2015 <f256main+0x1701>
    6f1e: a6 90        	ldx	$90                     ; 0x2090 <f256main+0x177c>
    6f20: 86 16        	stx	$16                     ; 0x2016 <f256main+0x1702>
    6f22: a6 97        	ldx	$97                     ; 0x2097 <f256main+0x1783>
    6f24: 86 18        	stx	$18                     ; 0x2018 <f256main+0x1704>
    6f26: a6 a4        	ldx	$a4                     ; 0x20a4 <f256main+0x1790>
    6f28: 86 12        	stx	$12                     ; 0x2012 <f256main+0x16fe>
    6f2a: a6 a0        	ldx	$a0                     ; 0x20a0 <f256main+0x178c>
    6f2c: 86 1a        	stx	$1a                     ; 0x201a <f256main+0x1706>
    6f2e: a5 a3        	lda	$a3                     ; 0x20a3 <f256main+0x178f>
    6f30: 4c e9 6f     	jmp	$6fe9 <__divsf3+0x9bc>
    6f33: a6 15        	ldx	$15                     ; 0x2015 <f256main+0x1701>
    6f35: e0 00        	cpx	#$0
    6f37: a6 9e        	ldx	$9e                     ; 0x209e <f256main+0x178a>
    6f39: 86 15        	stx	$15                     ; 0x2015 <f256main+0x1701>
    6f3b: 90 03        	bcc	$6f40 <__divsf3+0x913>
    6f3d: 4c dc 6e     	jmp	$6edc <__divsf3+0x8af>
    6f40: a6 a1        	ldx	$a1                     ; 0x20a1 <f256main+0x178d>
    6f42: 86 17        	stx	$17                     ; 0x2017 <f256main+0x1703>
    6f44: a6 13        	ldx	$13                     ; 0x2013 <f256main+0x16ff>
    6f46: d0 11        	bne	$6f59 <__divsf3+0x92c>
    6f48: a6 12        	ldx	$12                     ; 0x2012 <f256main+0x16fe>
    6f4a: e0 80        	cpx	#$80
    6f4c: d0 1f        	bne	$6f6d <__divsf3+0x940>
    6f4e: a6 18        	ldx	$18                     ; 0x2018 <f256main+0x1704>
    6f50: f0 03        	beq	$6f55 <__divsf3+0x928>
    6f52: 4c 55 71     	jmp	$7155 <__divsf3+0xb28>
    6f55: a6 96        	ldx	$96                     ; 0x2096 <f256main+0x1782>
    6f57: 80 02        	bra	$6f5b <__divsf3+0x92e>
    6f59: a6 13        	ldx	$13                     ; 0x2013 <f256main+0x16ff>
    6f5b: e0 00        	cpx	#$0
    6f5d: 90 12        	bcc	$6f71 <__divsf3+0x944>
    6f5f: a6 a3        	ldx	$a3                     ; 0x20a3 <f256main+0x178f>
    6f61: 86 8f        	stx	$8f                     ; 0x208f <f256main+0x177b>
    6f63: a6 a4        	ldx	$a4                     ; 0x20a4 <f256main+0x1790>
    6f65: 86 90        	stx	$90                     ; 0x2090 <f256main+0x177c>
    6f67: a6 18        	ldx	$18                     ; 0x2018 <f256main+0x1704>
    6f69: 86 91        	stx	$91                     ; 0x2091 <f256main+0x177d>
    6f6b: 80 1f        	bra	$6f8c <__divsf3+0x95f>
    6f6d: e0 80        	cpx	#$80
    6f6f: b0 ee        	bcs	$6f5f <__divsf3+0x932>
    6f71: aa           	tax
    6f72: 06 96        	asl	$96                     ; 0x2096 <f256main+0x1782>
    6f74: a4 18        	ldy	$18                     ; 0x2018 <f256main+0x1704>
    6f76: 84 91        	sty	$91                     ; 0x2091 <f256main+0x177d>
    6f78: 26 91        	rol	$91                     ; 0x2091 <f256main+0x177d>
    6f7a: 26 12        	rol	$12                     ; 0x2012 <f256main+0x16fe>
    6f7c: 26 13        	rol	$13                     ; 0x2013 <f256main+0x16ff>
    6f7e: a5 9b        	lda	$9b                     ; 0x209b <f256main+0x1787>
    6f80: 18           	clc
    6f81: 69 7e        	adc	#$7e
    6f83: 85 90        	sta	$90                     ; 0x2090 <f256main+0x177c>
    6f85: a5 a8        	lda	$a8                     ; 0x20a8 <f256main+0x1794>
    6f87: 69 00        	adc	#$0
    6f89: 85 8f        	sta	$8f                     ; 0x208f <f256main+0x177b>
    6f8b: 8a           	txa
    6f8c: 06 92        	asl	$92                     ; 0x2092 <f256main+0x177e>
    6f8e: 26 95        	rol	$95                     ; 0x2095 <f256main+0x1781>
    6f90: 26 94        	rol	$94                     ; 0x2094 <f256main+0x1780>
    6f92: 2a           	rol
    6f93: a6 12        	ldx	$12                     ; 0x2012 <f256main+0x16fe>
    6f95: 86 93        	stx	$93                     ; 0x2093 <f256main+0x177f>
    6f97: a6 13        	ldx	$13                     ; 0x2013 <f256main+0x16ff>
    6f99: 86 9b        	stx	$9b                     ; 0x209b <f256main+0x1787>
    6f9b: a6 91        	ldx	$91                     ; 0x2091 <f256main+0x177d>
    6f9d: 85 97        	sta	$97                     ; 0x2097 <f256main+0x1783>
    6f9f: a5 96        	lda	$96                     ; 0x2096 <f256main+0x1782>
    6fa1: 20 19 61     	jsr	$6119 <__mulsi3>
    6fa4: 85 14        	sta	$14                     ; 0x2014 <f256main+0x1700>
    6fa6: 86 15        	stx	$15                     ; 0x2015 <f256main+0x1701>
    6fa8: 38           	sec
    6fa9: a5 92        	lda	$92                     ; 0x2092 <f256main+0x177e>
    6fab: e5 14        	sbc	$14                     ; 0x2014 <f256main+0x1700>
    6fad: 85 14        	sta	$14                     ; 0x2014 <f256main+0x1700>
    6faf: a5 95        	lda	$95                     ; 0x2095 <f256main+0x1781>
    6fb1: e5 15        	sbc	$15                     ; 0x2015 <f256main+0x1701>
    6fb3: 85 1d        	sta	$1d                     ; 0x201d <f256main+0x1709>
    6fb5: a5 94        	lda	$94                     ; 0x2094 <f256main+0x1780>
    6fb7: e5 12        	sbc	$12                     ; 0x2012 <f256main+0x16fe>
    6fb9: 85 1c        	sta	$1c                     ; 0x201c <f256main+0x1708>
    6fbb: a5 97        	lda	$97                     ; 0x2097 <f256main+0x1783>
    6fbd: e5 13        	sbc	$13                     ; 0x2013 <f256main+0x16ff>
    6fbf: 85 1b        	sta	$1b                     ; 0x201b <f256main+0x1707>
    6fc1: a6 96        	ldx	$96                     ; 0x2096 <f256main+0x1782>
    6fc3: 86 15        	stx	$15                     ; 0x2015 <f256main+0x1701>
    6fc5: a6 91        	ldx	$91                     ; 0x2091 <f256main+0x177d>
    6fc7: 86 16        	stx	$16                     ; 0x2016 <f256main+0x1702>
    6fc9: a2 ff        	ldx	#$ff
    6fcb: c6 90        	dec	$90                     ; 0x2090 <f256main+0x177c>
    6fcd: e4 90        	cpx	$90                     ; 0x2090 <f256main+0x177c>
    6fcf: d0 02        	bne	$6fd3 <__divsf3+0x9a6>
    6fd1: c6 8f        	dec	$8f                     ; 0x208f <f256main+0x177b>
    6fd3: a6 90        	ldx	$90                     ; 0x2090 <f256main+0x177c>
    6fd5: 86 12        	stx	$12                     ; 0x2012 <f256main+0x16fe>
    6fd7: a6 9d        	ldx	$9d                     ; 0x209d <f256main+0x1789>
    6fd9: 86 9a        	stx	$9a                     ; 0x209a <f256main+0x1786>
    6fdb: a6 a5        	ldx	$a5                     ; 0x20a5 <f256main+0x1791>
    6fdd: 86 18        	stx	$18                     ; 0x2018 <f256main+0x1704>
    6fdf: a6 a6        	ldx	$a6                     ; 0x20a6 <f256main+0x1792>
    6fe1: 86 91        	stx	$91                     ; 0x2091 <f256main+0x177d>
    6fe3: a6 a7        	ldx	$a7                     ; 0x20a7 <f256main+0x1793>
    6fe5: 86 1a        	stx	$1a                     ; 0x201a <f256main+0x1706>
    6fe7: a5 8f        	lda	$8f                     ; 0x208f <f256main+0x177b>
    6fe9: a6 12        	ldx	$12                     ; 0x2012 <f256main+0x16fe>
    6feb: e0 ff        	cpx	#$ff
    6fed: 85 13        	sta	$13                     ; 0x2013 <f256main+0x16ff>
    6fef: e9 00        	sbc	#$0
    6ff1: 50 02        	bvc	$6ff5 <__divsf3+0x9c8>
    6ff3: 49 80        	eor	#$80
    6ff5: a4 9f        	ldy	$9f                     ; 0x209f <f256main+0x178b>
    6ff7: aa           	tax
    6ff8: 30 0d        	bmi	$7007 <__divsf3+0x9da>
    6ffa: a5 9c        	lda	$9c                     ; 0x209c <f256main+0x1788>
    6ffc: 09 7f        	ora	#$7f
    6ffe: 64 9a        	stz	$9a                     ; 0x209a <f256main+0x1786>
    7000: 64 97        	stz	$97                     ; 0x2097 <f256main+0x1783>
    7002: a0 80        	ldy	#$80
    7004: 4c 88 71     	jmp	$7188 <__divsf3+0xb5b>
    7007: a6 12        	ldx	$12                     ; 0x2012 <f256main+0x16fe>
    7009: e0 01        	cpx	#$1
    700b: a5 13        	lda	$13                     ; 0x2013 <f256main+0x16ff>
    700d: e9 00        	sbc	#$0
    700f: 50 02        	bvc	$7013 <__divsf3+0x9e6>
    7011: 49 80        	eor	#$80
    7013: a6 9e        	ldx	$9e                     ; 0x209e <f256main+0x178a>
    7015: c9 00        	cmp	#$0
    7017: 30 3e        	bmi	$7057 <__divsf3+0xa2a>
    7019: 86 18        	stx	$18                     ; 0x2018 <f256main+0x1704>
    701b: a5 93        	lda	$93                     ; 0x2093 <f256main+0x177f>
    701d: 29 7f        	and	#$7f
    701f: 85 17        	sta	$17                     ; 0x2017 <f256main+0x1703>
    7021: 46 13        	lsr	$13                     ; 0x2013 <f256main+0x16ff>
    7023: 66 12        	ror	$12                     ; 0x2012 <f256main+0x16fe>
    7025: a6 12        	ldx	$12                     ; 0x2012 <f256main+0x16fe>
    7027: 86 8f        	stx	$8f                     ; 0x208f <f256main+0x177b>
    7029: 64 19        	stz	$19                     ; 0x2019 <f256main+0x1705>
    702b: 66 19        	ror	$19                     ; 0x2019 <f256main+0x1705>
    702d: 64 1a        	stz	$1a                     ; 0x201a <f256main+0x1706>
    702f: 66 1a        	ror	$1a                     ; 0x201a <f256main+0x1706>
    7031: a9 00        	lda	#$0
    7033: 6a           	ror
    7034: 06 14        	asl	$14                     ; 0x2014 <f256main+0x1700>
    7036: a6 1d        	ldx	$1d                     ; 0x201d <f256main+0x1709>
    7038: 86 12        	stx	$12                     ; 0x2012 <f256main+0x16fe>
    703a: 26 12        	rol	$12                     ; 0x2012 <f256main+0x16fe>
    703c: a6 1c        	ldx	$1c                     ; 0x201c <f256main+0x1708>
    703e: 86 13        	stx	$13                     ; 0x2013 <f256main+0x16ff>
    7040: 26 13        	rol	$13                     ; 0x2013 <f256main+0x16ff>
    7042: 26 1b        	rol	$1b                     ; 0x201b <f256main+0x1707>
    7044: 05 15        	ora	$15                     ; 0x2015 <f256main+0x1701>
    7046: 85 92        	sta	$92                     ; 0x2092 <f256main+0x177e>
    7048: a5 1a        	lda	$1a                     ; 0x201a <f256main+0x1706>
    704a: 05 16        	ora	$16                     ; 0x2016 <f256main+0x1702>
    704c: 85 90        	sta	$90                     ; 0x2090 <f256main+0x177c>
    704e: a5 19        	lda	$19                     ; 0x2019 <f256main+0x1705>
    7050: 05 17        	ora	$17                     ; 0x2017 <f256main+0x1703>
    7052: 85 9b        	sta	$9b                     ; 0x209b <f256main+0x1787>
    7054: 4c 1c 71     	jmp	$711c <__divsf3+0xaef>
    7057: a6 12        	ldx	$12                     ; 0x2012 <f256main+0x16fe>
    7059: e0 e9        	cpx	#$e9
    705b: a5 13        	lda	$13                     ; 0x2013 <f256main+0x16ff>
    705d: e9 ff        	sbc	#$ff
    705f: 50 02        	bvc	$7063 <__divsf3+0xa36>
    7061: 49 80        	eor	#$80
    7063: aa           	tax
    7064: 10 0b        	bpl	$7071 <__divsf3+0xa44>
    7066: 64 9a        	stz	$9a                     ; 0x209a <f256main+0x1786>
    7068: 64 97        	stz	$97                     ; 0x2097 <f256main+0x1783>
    706a: a0 00        	ldy	#$0
    706c: a5 9c        	lda	$9c                     ; 0x209c <f256main+0x1788>
    706e: 4c 88 71     	jmp	$7188 <__divsf3+0xb5b>
    7071: 18           	clc
    7072: a5 12        	lda	$12                     ; 0x2012 <f256main+0x16fe>
    7074: 69 17        	adc	#$17
    7076: 85 92        	sta	$92                     ; 0x2092 <f256main+0x177e>
    7078: a9 01        	lda	#$1
    707a: 38           	sec
    707b: e5 12        	sbc	$12                     ; 0x2012 <f256main+0x16fe>
    707d: a6 93        	ldx	$93                     ; 0x2093 <f256main+0x177f>
    707f: 86 12        	stx	$12                     ; 0x2012 <f256main+0x16fe>
    7081: a6 9b        	ldx	$9b                     ; 0x209b <f256main+0x1787>
    7083: 86 13        	stx	$13                     ; 0x2013 <f256main+0x16ff>
    7085: 85 14        	sta	$14                     ; 0x2014 <f256main+0x1700>
    7087: a6 16        	ldx	$16                     ; 0x2016 <f256main+0x1702>
    7089: a4 18        	ldy	$18                     ; 0x2018 <f256main+0x1704>
    708b: 84 94        	sty	$94                     ; 0x2094 <f256main+0x1780>
    708d: a4 91        	ldy	$91                     ; 0x2091 <f256main+0x177d>
    708f: 84 96        	sty	$96                     ; 0x2096 <f256main+0x1782>
    7091: a4 1a        	ldy	$1a                     ; 0x201a <f256main+0x1706>
    7093: 84 95        	sty	$95                     ; 0x2095 <f256main+0x1781>
    7095: a5 15        	lda	$15                     ; 0x2015 <f256main+0x1701>
    7097: 20 b5 60     	jsr	$60b5 <__lshrsi3>
    709a: 85 90        	sta	$90                     ; 0x2090 <f256main+0x177c>
    709c: 86 8f        	stx	$8f                     ; 0x208f <f256main+0x177b>
    709e: a6 12        	ldx	$12                     ; 0x2012 <f256main+0x16fe>
    70a0: 86 97        	stx	$97                     ; 0x2097 <f256main+0x1783>
    70a2: a6 13        	ldx	$13                     ; 0x2013 <f256main+0x16ff>
    70a4: 86 91        	stx	$91                     ; 0x2091 <f256main+0x177d>
    70a6: a6 96        	ldx	$96                     ; 0x2096 <f256main+0x1782>
    70a8: 86 12        	stx	$12                     ; 0x2012 <f256main+0x16fe>
    70aa: a6 95        	ldx	$95                     ; 0x2095 <f256main+0x1781>
    70ac: 86 13        	stx	$13                     ; 0x2013 <f256main+0x16ff>
    70ae: a6 92        	ldx	$92                     ; 0x2092 <f256main+0x177e>
    70b0: 86 14        	stx	$14                     ; 0x2014 <f256main+0x1700>
    70b2: a6 94        	ldx	$94                     ; 0x2094 <f256main+0x1780>
    70b4: a5 9a        	lda	$9a                     ; 0x209a <f256main+0x1786>
    70b6: 20 9e 60     	jsr	$609e <__ashlsi3>
    70b9: 85 95        	sta	$95                     ; 0x2095 <f256main+0x1781>
    70bb: 86 94        	stx	$94                     ; 0x2094 <f256main+0x1780>
    70bd: a6 12        	ldx	$12                     ; 0x2012 <f256main+0x16fe>
    70bf: 86 93        	stx	$93                     ; 0x2093 <f256main+0x177f>
    70c1: a6 13        	ldx	$13                     ; 0x2013 <f256main+0x16ff>
    70c3: 86 96        	stx	$96                     ; 0x2096 <f256main+0x1782>
    70c5: a6 ab        	ldx	$ab                     ; 0x20ab <f256main+0x1797>
    70c7: 86 12        	stx	$12                     ; 0x2012 <f256main+0x16fe>
    70c9: a6 ac        	ldx	$ac                     ; 0x20ac <f256main+0x1798>
    70cb: 86 13        	stx	$13                     ; 0x2013 <f256main+0x16ff>
    70cd: a6 90        	ldx	$90                     ; 0x2090 <f256main+0x177c>
    70cf: 86 92        	stx	$92                     ; 0x2092 <f256main+0x177e>
    70d1: a6 90        	ldx	$90                     ; 0x2090 <f256main+0x177c>
    70d3: 86 14        	stx	$14                     ; 0x2014 <f256main+0x1700>
    70d5: a6 8f        	ldx	$8f                     ; 0x208f <f256main+0x177b>
    70d7: 86 90        	stx	$90                     ; 0x2090 <f256main+0x177c>
    70d9: a6 8f        	ldx	$8f                     ; 0x208f <f256main+0x177b>
    70db: 86 15        	stx	$15                     ; 0x2015 <f256main+0x1701>
    70dd: a6 97        	ldx	$97                     ; 0x2097 <f256main+0x1783>
    70df: 86 9b        	stx	$9b                     ; 0x209b <f256main+0x1787>
    70e1: a6 97        	ldx	$97                     ; 0x2097 <f256main+0x1783>
    70e3: 86 16        	stx	$16                     ; 0x2016 <f256main+0x1702>
    70e5: a6 91        	ldx	$91                     ; 0x2091 <f256main+0x177d>
    70e7: 86 8f        	stx	$8f                     ; 0x208f <f256main+0x177b>
    70e9: a6 91        	ldx	$91                     ; 0x2091 <f256main+0x177d>
    70eb: 86 17        	stx	$17                     ; 0x2017 <f256main+0x1703>
    70ed: a6 aa        	ldx	$aa                     ; 0x20aa <f256main+0x1796>
    70ef: a5 a9        	lda	$a9                     ; 0x20a9 <f256main+0x1795>
    70f1: 20 19 61     	jsr	$6119 <__mulsi3>
    70f4: a4 9f        	ldy	$9f                     ; 0x209f <f256main+0x178b>
    70f6: 85 14        	sta	$14                     ; 0x2014 <f256main+0x1700>
    70f8: 86 15        	stx	$15                     ; 0x2015 <f256main+0x1701>
    70fa: 38           	sec
    70fb: a5 95        	lda	$95                     ; 0x2095 <f256main+0x1781>
    70fd: e5 14        	sbc	$14                     ; 0x2014 <f256main+0x1700>
    70ff: 85 14        	sta	$14                     ; 0x2014 <f256main+0x1700>
    7101: a5 94        	lda	$94                     ; 0x2094 <f256main+0x1780>
    7103: e5 15        	sbc	$15                     ; 0x2015 <f256main+0x1701>
    7105: aa           	tax
    7106: a5 93        	lda	$93                     ; 0x2093 <f256main+0x177f>
    7108: e5 12        	sbc	$12                     ; 0x2012 <f256main+0x16fe>
    710a: 85 15        	sta	$15                     ; 0x2015 <f256main+0x1701>
    710c: a5 96        	lda	$96                     ; 0x2096 <f256main+0x1782>
    710e: e5 13        	sbc	$13                     ; 0x2013 <f256main+0x16ff>
    7110: 85 1b        	sta	$1b                     ; 0x201b <f256main+0x1707>
    7112: 86 12        	stx	$12                     ; 0x2012 <f256main+0x16fe>
    7114: a6 15        	ldx	$15                     ; 0x2015 <f256main+0x1701>
    7116: 86 13        	stx	$13                     ; 0x2013 <f256main+0x16ff>
    7118: a6 9e        	ldx	$9e                     ; 0x209e <f256main+0x178a>
    711a: 86 18        	stx	$18                     ; 0x2018 <f256main+0x1704>
    711c: a5 92        	lda	$92                     ; 0x2092 <f256main+0x177e>
    711e: 85 15        	sta	$15                     ; 0x2015 <f256main+0x1701>
    7120: 29 01        	and	#$1
    7122: 18           	clc
    7123: 65 14        	adc	$14                     ; 0x2014 <f256main+0x1700>
    7125: 85 16        	sta	$16                     ; 0x2016 <f256main+0x1702>
    7127: 64 14        	stz	$14                     ; 0x2014 <f256main+0x1700>
    7129: a9 00        	lda	#$0
    712b: 65 12        	adc	$12                     ; 0x2012 <f256main+0x16fe>
    712d: 85 17        	sta	$17                     ; 0x2017 <f256main+0x1703>
    712f: a9 00        	lda	#$0
    7131: 65 13        	adc	$13                     ; 0x2013 <f256main+0x16ff>
    7133: 85 13        	sta	$13                     ; 0x2013 <f256main+0x16ff>
    7135: a5 1b        	lda	$1b                     ; 0x201b <f256main+0x1707>
    7137: 65 14        	adc	$14                     ; 0x2014 <f256main+0x1700>
    7139: 85 12        	sta	$12                     ; 0x2012 <f256main+0x16fe>
    713b: a6 a1        	ldx	$a1                     ; 0x20a1 <f256main+0x178d>
    713d: e4 12        	cpx	$12                     ; 0x2012 <f256main+0x16fe>
    713f: d0 1d        	bne	$715e <__divsf3+0xb31>
    7141: a6 a2        	ldx	$a2                     ; 0x20a2 <f256main+0x178e>
    7143: e4 13        	cpx	$13                     ; 0x2013 <f256main+0x16ff>
    7145: d0 0a        	bne	$7151 <__divsf3+0xb24>
    7147: a6 18        	ldx	$18                     ; 0x2018 <f256main+0x1704>
    7149: e4 17        	cpx	$17                     ; 0x2017 <f256main+0x1703>
    714b: d0 0d        	bne	$715a <__divsf3+0xb2d>
    714d: c4 16        	cpy	$16                     ; 0x2016 <f256main+0x1702>
    714f: 80 0f        	bra	$7160 <__divsf3+0xb33>
    7151: a4 13        	ldy	$13                     ; 0x2013 <f256main+0x16ff>
    7153: 80 07        	bra	$715c <__divsf3+0xb2f>
    7155: a6 18        	ldx	$18                     ; 0x2018 <f256main+0x1704>
    7157: 4c 5b 6f     	jmp	$6f5b <__divsf3+0x92e>
    715a: a4 17        	ldy	$17                     ; 0x2017 <f256main+0x1703>
    715c: 84 12        	sty	$12                     ; 0x2012 <f256main+0x16fe>
    715e: e4 12        	cpx	$12                     ; 0x2012 <f256main+0x16fe>
    7160: 64 12        	stz	$12                     ; 0x2012 <f256main+0x16fe>
    7162: a5 9b        	lda	$9b                     ; 0x209b <f256main+0x1787>
    7164: 85 13        	sta	$13                     ; 0x2013 <f256main+0x16ff>
    7166: b0 04        	bcs	$716c <__divsf3+0xb3f>
    7168: a2 01        	ldx	#$1
    716a: 86 12        	stx	$12                     ; 0x2012 <f256main+0x16fe>
    716c: a5 15        	lda	$15                     ; 0x2015 <f256main+0x1701>
    716e: 18           	clc
    716f: 65 12        	adc	$12                     ; 0x2012 <f256main+0x16fe>
    7171: 85 9a        	sta	$9a                     ; 0x209a <f256main+0x1786>
    7173: a5 90        	lda	$90                     ; 0x2090 <f256main+0x177c>
    7175: 69 00        	adc	#$0
    7177: 85 97        	sta	$97                     ; 0x2097 <f256main+0x1783>
    7179: a5 13        	lda	$13                     ; 0x2013 <f256main+0x16ff>
    717b: 69 00        	adc	#$0
    717d: a8           	tay
    717e: a5 8f        	lda	$8f                     ; 0x208f <f256main+0x177b>
    7180: 69 00        	adc	#$0
    7182: a6 9c        	ldx	$9c                     ; 0x209c <f256main+0x1788>
    7184: 86 12        	stx	$12                     ; 0x2012 <f256main+0x16fe>
    7186: 05 12        	ora	$12                     ; 0x2012 <f256main+0x16fe>
    7188: 84 12        	sty	$12                     ; 0x2012 <f256main+0x16fe>
    718a: 85 13        	sta	$13                     ; 0x2013 <f256main+0x16ff>
    718c: a6 97        	ldx	$97                     ; 0x2097 <f256main+0x1783>
    718e: a5 9a        	lda	$9a                     ; 0x209a <f256main+0x1786>
    7190: 60           	rts
    7191: 86 9e        	stx	$9e                     ; 0x209e <f256main+0x178a>
    7193: a4 8f        	ldy	$8f                     ; 0x208f <f256main+0x177b>
    7195: 84 16        	sty	$16                     ; 0x2016 <f256main+0x1702>
    7197: e0 00        	cpx	#$0
    7199: 90 03        	bcc	$719e <__divsf3+0xb71>
    719b: 4c 1d 6a     	jmp	$6a1d <__divsf3+0x3f0>
    719e: 4c 2c 6a     	jmp	$6a2c <__divsf3+0x3ff>
    71a1: a5 92        	lda	$92                     ; 0x2092 <f256main+0x177e>
    71a3: f0 03        	beq	$71a8 <__divsf3+0xb7b>
    71a5: 4c 66 70     	jmp	$7066 <__divsf3+0xa39>
    71a8: a5 91        	lda	$91                     ; 0x2091 <f256main+0x177d>
    71aa: f0 03        	beq	$71af <__divsf3+0xb82>
    71ac: 4c 66 70     	jmp	$7066 <__divsf3+0xa39>
    71af: 8a           	txa
    71b0: f0 03        	beq	$71b5 <__divsf3+0xb88>
    71b2: 4c 66 70     	jmp	$7066 <__divsf3+0xa39>
    71b5: a5 94        	lda	$94                     ; 0x2094 <f256main+0x1780>
    71b7: d0 03        	bne	$71bc <__divsf3+0xb8f>
    71b9: 4c 5d 67     	jmp	$675d <__divsf3+0x130>
    71bc: 4c 66 70     	jmp	$7066 <__divsf3+0xa39>

000071bf <__fixunssfsi>:
    71bf: 86 15        	stx	$15                     ; 0x2015 <f256main+0x1701>
    71c1: a2 00        	ldx	#$0
    71c3: 86 8f        	stx	$8f                     ; 0x208f <f256main+0x177b>
    71c5: a4 13        	ldy	$13                     ; 0x2013 <f256main+0x16ff>
    71c7: 30 26        	bmi	$71ef <__fixunssfsi+0x30>
    71c9: 85 16        	sta	$16                     ; 0x2016 <f256main+0x1702>
    71cb: a5 12        	lda	$12                     ; 0x2012 <f256main+0x16fe>
    71cd: 0a           	asl
    71ce: 26 13        	rol	$13                     ; 0x2013 <f256main+0x16ff>
    71d0: a6 13        	ldx	$13                     ; 0x2013 <f256main+0x16ff>
    71d2: e0 7f        	cpx	#$7f
    71d4: a2 00        	ldx	#$0
    71d6: 8a           	txa
    71d7: a8           	tay
    71d8: b0 03        	bcs	$71dd <__fixunssfsi+0x1e>
    71da: 4c 34 72     	jmp	$7234 <__fixunssfsi+0x75>
    71dd: 18           	clc
    71de: a5 13        	lda	$13                     ; 0x2013 <f256main+0x16ff>
    71e0: 69 61        	adc	#$61
    71e2: aa           	tax
    71e3: a9 00        	lda	#$0
    71e5: 69 ff        	adc	#$ff
    71e7: c9 ff        	cmp	#$ff
    71e9: d0 09        	bne	$71f4 <__fixunssfsi+0x35>
    71eb: e0 e0        	cpx	#$e0
    71ed: 80 07        	bra	$71f6 <__fixunssfsi+0x37>
    71ef: a9 00        	lda	#$0
    71f1: a8           	tay
    71f2: 80 40        	bra	$7234 <__fixunssfsi+0x75>
    71f4: c9 ff        	cmp	#$ff
    71f6: a2 ff        	ldx	#$ff
    71f8: 86 8f        	stx	$8f                     ; 0x208f <f256main+0x177b>
    71fa: 8a           	txa
    71fb: a8           	tay
    71fc: 90 36        	bcc	$7234 <__fixunssfsi+0x75>
    71fe: a5 12        	lda	$12                     ; 0x2012 <f256main+0x16fe>
    7200: 29 7f        	and	#$7f
    7202: 09 80        	ora	#$80
    7204: 85 12        	sta	$12                     ; 0x2012 <f256main+0x16fe>
    7206: a6 13        	ldx	$13                     ; 0x2013 <f256main+0x16ff>
    7208: e0 96        	cpx	#$96
    720a: b0 12        	bcs	$721e <__fixunssfsi+0x5f>
    720c: 38           	sec
    720d: a9 96        	lda	#$96
    720f: e5 13        	sbc	$13                     ; 0x2013 <f256main+0x16ff>
    7211: 64 13        	stz	$13                     ; 0x2013 <f256main+0x16ff>
    7213: 85 14        	sta	$14                     ; 0x2014 <f256main+0x1700>
    7215: a6 15        	ldx	$15                     ; 0x2015 <f256main+0x1701>
    7217: a5 16        	lda	$16                     ; 0x2016 <f256main+0x1702>
    7219: 20 b5 60     	jsr	$60b5 <__lshrsi3>
    721c: 80 10        	bra	$722e <__fixunssfsi+0x6f>
    721e: 18           	clc
    721f: a5 13        	lda	$13                     ; 0x2013 <f256main+0x16ff>
    7221: 69 6a        	adc	#$6a
    7223: 64 13        	stz	$13                     ; 0x2013 <f256main+0x16ff>
    7225: 85 14        	sta	$14                     ; 0x2014 <f256main+0x1700>
    7227: a6 15        	ldx	$15                     ; 0x2015 <f256main+0x1701>
    7229: a5 16        	lda	$16                     ; 0x2016 <f256main+0x1702>
    722b: 20 9e 60     	jsr	$609e <__ashlsi3>
    722e: 85 8f        	sta	$8f                     ; 0x208f <f256main+0x177b>
    7230: a5 12        	lda	$12                     ; 0x2012 <f256main+0x16fe>
    7232: a4 13        	ldy	$13                     ; 0x2013 <f256main+0x16ff>
    7234: 85 12        	sta	$12                     ; 0x2012 <f256main+0x16fe>
    7236: 84 13        	sty	$13                     ; 0x2013 <f256main+0x16ff>
    7238: a5 8f        	lda	$8f                     ; 0x208f <f256main+0x177b>
    723a: 60           	rts

0000723b <__floatunsisf>:
    723b: 85 15        	sta	$15                     ; 0x2015 <f256main+0x1701>
    723d: 86 16        	stx	$16                     ; 0x2016 <f256main+0x1702>
    723f: a5 13        	lda	$13                     ; 0x2013 <f256main+0x16ff>
    7241: d0 0f        	bne	$7252 <__floatunsisf+0x17>
    7243: a5 12        	lda	$12                     ; 0x2012 <f256main+0x16fe>
    7245: d0 0b        	bne	$7252 <__floatunsisf+0x17>
    7247: a5 16        	lda	$16                     ; 0x2016 <f256main+0x1702>
    7249: d0 07        	bne	$7252 <__floatunsisf+0x17>
    724b: a5 15        	lda	$15                     ; 0x2015 <f256main+0x1701>
    724d: d0 03        	bne	$7252 <__floatunsisf+0x17>
    724f: 4c 84 75     	jmp	$7584 <__floatunsisf+0x349>
    7252: a5 13        	lda	$13                     ; 0x2013 <f256main+0x16ff>
    7254: 4a           	lsr
    7255: 85 18        	sta	$18                     ; 0x2018 <f256main+0x1704>
    7257: a5 12        	lda	$12                     ; 0x2012 <f256main+0x16fe>
    7259: 6a           	ror
    725a: 85 17        	sta	$17                     ; 0x2017 <f256main+0x1703>
    725c: 86 19        	stx	$19                     ; 0x2019 <f256main+0x1705>
    725e: 66 19        	ror	$19                     ; 0x2019 <f256main+0x1705>
    7260: a5 15        	lda	$15                     ; 0x2015 <f256main+0x1701>
    7262: 6a           	ror
    7263: 05 15        	ora	$15                     ; 0x2015 <f256main+0x1701>
    7265: a8           	tay
    7266: a5 19        	lda	$19                     ; 0x2019 <f256main+0x1705>
    7268: 05 16        	ora	$16                     ; 0x2016 <f256main+0x1702>
    726a: aa           	tax
    726b: a5 17        	lda	$17                     ; 0x2017 <f256main+0x1703>
    726d: 05 12        	ora	$12                     ; 0x2012 <f256main+0x16fe>
    726f: 85 1a        	sta	$1a                     ; 0x201a <f256main+0x1706>
    7271: a5 18        	lda	$18                     ; 0x2018 <f256main+0x1704>
    7273: 05 13        	ora	$13                     ; 0x2013 <f256main+0x16ff>
    7275: 85 1b        	sta	$1b                     ; 0x201b <f256main+0x1707>
    7277: 4a           	lsr
    7278: 5a           	phy
    7279: a4 1a        	ldy	$1a                     ; 0x201a <f256main+0x1706>
    727b: 84 14        	sty	$14                     ; 0x2014 <f256main+0x1700>
    727d: 7a           	ply
    727e: 66 14        	ror	$14                     ; 0x2014 <f256main+0x1700>
    7280: 86 17        	stx	$17                     ; 0x2017 <f256main+0x1703>
    7282: 66 17        	ror	$17                     ; 0x2017 <f256main+0x1703>
    7284: 84 18        	sty	$18                     ; 0x2018 <f256main+0x1704>
    7286: 66 18        	ror	$18                     ; 0x2018 <f256main+0x1704>
    7288: 4a           	lsr
    7289: 85 19        	sta	$19                     ; 0x2019 <f256main+0x1705>
    728b: 66 14        	ror	$14                     ; 0x2014 <f256main+0x1700>
    728d: 66 17        	ror	$17                     ; 0x2017 <f256main+0x1703>
    728f: 66 18        	ror	$18                     ; 0x2018 <f256main+0x1704>
    7291: 98           	tya
    7292: 05 18        	ora	$18                     ; 0x2018 <f256main+0x1704>
    7294: a8           	tay
    7295: 8a           	txa
    7296: 05 17        	ora	$17                     ; 0x2017 <f256main+0x1703>
    7298: aa           	tax
    7299: a5 1a        	lda	$1a                     ; 0x201a <f256main+0x1706>
    729b: 05 14        	ora	$14                     ; 0x2014 <f256main+0x1700>
    729d: 85 1a        	sta	$1a                     ; 0x201a <f256main+0x1706>
    729f: a5 1b        	lda	$1b                     ; 0x201b <f256main+0x1707>
    72a1: 05 19        	ora	$19                     ; 0x2019 <f256main+0x1705>
    72a3: 85 1b        	sta	$1b                     ; 0x201b <f256main+0x1707>
    72a5: 4a           	lsr
    72a6: 5a           	phy
    72a7: a4 1a        	ldy	$1a                     ; 0x201a <f256main+0x1706>
    72a9: 84 14        	sty	$14                     ; 0x2014 <f256main+0x1700>
    72ab: 7a           	ply
    72ac: 66 14        	ror	$14                     ; 0x2014 <f256main+0x1700>
    72ae: 86 17        	stx	$17                     ; 0x2017 <f256main+0x1703>
    72b0: 66 17        	ror	$17                     ; 0x2017 <f256main+0x1703>
    72b2: 84 18        	sty	$18                     ; 0x2018 <f256main+0x1704>
    72b4: 66 18        	ror	$18                     ; 0x2018 <f256main+0x1704>
    72b6: 4a           	lsr
    72b7: 66 14        	ror	$14                     ; 0x2014 <f256main+0x1700>
    72b9: 66 17        	ror	$17                     ; 0x2017 <f256main+0x1703>
    72bb: 66 18        	ror	$18                     ; 0x2018 <f256main+0x1704>
    72bd: 4a           	lsr
    72be: 66 14        	ror	$14                     ; 0x2014 <f256main+0x1700>
    72c0: 66 17        	ror	$17                     ; 0x2017 <f256main+0x1703>
    72c2: 66 18        	ror	$18                     ; 0x2018 <f256main+0x1704>
    72c4: 4a           	lsr
    72c5: 85 19        	sta	$19                     ; 0x2019 <f256main+0x1705>
    72c7: 66 14        	ror	$14                     ; 0x2014 <f256main+0x1700>
    72c9: 66 17        	ror	$17                     ; 0x2017 <f256main+0x1703>
    72cb: 66 18        	ror	$18                     ; 0x2018 <f256main+0x1704>
    72cd: 98           	tya
    72ce: 05 18        	ora	$18                     ; 0x2018 <f256main+0x1704>
    72d0: 85 18        	sta	$18                     ; 0x2018 <f256main+0x1704>
    72d2: 8a           	txa
    72d3: 05 17        	ora	$17                     ; 0x2017 <f256main+0x1703>
    72d5: aa           	tax
    72d6: a5 1a        	lda	$1a                     ; 0x201a <f256main+0x1706>
    72d8: 05 14        	ora	$14                     ; 0x2014 <f256main+0x1700>
    72da: a8           	tay
    72db: a5 1b        	lda	$1b                     ; 0x201b <f256main+0x1707>
    72dd: 05 19        	ora	$19                     ; 0x2019 <f256main+0x1705>
    72df: 85 17        	sta	$17                     ; 0x2017 <f256main+0x1703>
    72e1: 86 14        	stx	$14                     ; 0x2014 <f256main+0x1700>
    72e3: a5 18        	lda	$18                     ; 0x2018 <f256main+0x1704>
    72e5: 05 14        	ora	$14                     ; 0x2014 <f256main+0x1700>
    72e7: 85 19        	sta	$19                     ; 0x2019 <f256main+0x1705>
    72e9: 84 14        	sty	$14                     ; 0x2014 <f256main+0x1700>
    72eb: 8a           	txa
    72ec: 05 14        	ora	$14                     ; 0x2014 <f256main+0x1700>
    72ee: 85 18        	sta	$18                     ; 0x2018 <f256main+0x1704>
    72f0: a6 17        	ldx	$17                     ; 0x2017 <f256main+0x1703>
    72f2: 86 14        	stx	$14                     ; 0x2014 <f256main+0x1700>
    72f4: 86 1a        	stx	$1a                     ; 0x201a <f256main+0x1706>
    72f6: 98           	tya
    72f7: 05 14        	ora	$14                     ; 0x2014 <f256main+0x1700>
    72f9: 85 17        	sta	$17                     ; 0x2017 <f256main+0x1703>
    72fb: 85 1b        	sta	$1b                     ; 0x201b <f256main+0x1707>
    72fd: a5 19        	lda	$19                     ; 0x2019 <f256main+0x1705>
    72ff: 05 17        	ora	$17                     ; 0x2017 <f256main+0x1703>
    7301: a8           	tay
    7302: a5 18        	lda	$18                     ; 0x2018 <f256main+0x1704>
    7304: 05 14        	ora	$14                     ; 0x2014 <f256main+0x1700>
    7306: aa           	tax
    7307: 98           	tya
    7308: 4a           	lsr
    7309: 29 55        	and	#$55
    730b: 85 14        	sta	$14                     ; 0x2014 <f256main+0x1700>
    730d: 8a           	txa
    730e: 4a           	lsr
    730f: 29 55        	and	#$55
    7311: 85 17        	sta	$17                     ; 0x2017 <f256main+0x1703>
    7313: a5 1b        	lda	$1b                     ; 0x201b <f256main+0x1707>
    7315: 4a           	lsr
    7316: 29 55        	and	#$55
    7318: 85 18        	sta	$18                     ; 0x2018 <f256main+0x1704>
    731a: a5 1a        	lda	$1a                     ; 0x201a <f256main+0x1706>
    731c: 4a           	lsr
    731d: 29 55        	and	#$55
    731f: 85 19        	sta	$19                     ; 0x2019 <f256main+0x1705>
    7321: 38           	sec
    7322: 98           	tya
    7323: e5 14        	sbc	$14                     ; 0x2014 <f256main+0x1700>
    7325: 85 14        	sta	$14                     ; 0x2014 <f256main+0x1700>
    7327: 8a           	txa
    7328: e5 17        	sbc	$17                     ; 0x2017 <f256main+0x1703>
    732a: aa           	tax
    732b: a5 1b        	lda	$1b                     ; 0x201b <f256main+0x1707>
    732d: e5 18        	sbc	$18                     ; 0x2018 <f256main+0x1704>
    732f: 85 18        	sta	$18                     ; 0x2018 <f256main+0x1704>
    7331: a5 1a        	lda	$1a                     ; 0x201a <f256main+0x1706>
    7333: e5 19        	sbc	$19                     ; 0x2019 <f256main+0x1705>
    7335: a8           	tay
    7336: a5 14        	lda	$14                     ; 0x2014 <f256main+0x1700>
    7338: 85 19        	sta	$19                     ; 0x2019 <f256main+0x1705>
    733a: 29 33        	and	#$33
    733c: 85 14        	sta	$14                     ; 0x2014 <f256main+0x1700>
    733e: 8a           	txa
    733f: 29 33        	and	#$33
    7341: 85 17        	sta	$17                     ; 0x2017 <f256main+0x1703>
    7343: a5 18        	lda	$18                     ; 0x2018 <f256main+0x1704>
    7345: 85 1a        	sta	$1a                     ; 0x201a <f256main+0x1706>
    7347: 29 33        	and	#$33
    7349: 85 18        	sta	$18                     ; 0x2018 <f256main+0x1704>
    734b: 98           	tya
    734c: 4a           	lsr
    734d: 85 1c        	sta	$1c                     ; 0x201c <f256main+0x1708>
    734f: a5 1a        	lda	$1a                     ; 0x201a <f256main+0x1706>
    7351: 4a           	lsr
    7352: 85 1b        	sta	$1b                     ; 0x201b <f256main+0x1707>
    7354: 8a           	txa
    7355: 4a           	lsr
    7356: 85 1a        	sta	$1a                     ; 0x201a <f256main+0x1706>
    7358: a5 19        	lda	$19                     ; 0x2019 <f256main+0x1705>
    735a: 4a           	lsr
    735b: 46 1c        	lsr	$1c                     ; 0x201c <f256main+0x1708>
    735d: 46 1b        	lsr	$1b                     ; 0x201b <f256main+0x1707>
    735f: a6 1a        	ldx	$1a                     ; 0x201a <f256main+0x1706>
    7361: 86 19        	stx	$19                     ; 0x2019 <f256main+0x1705>
    7363: 46 19        	lsr	$19                     ; 0x2019 <f256main+0x1705>
    7365: 4a           	lsr
    7366: 29 33        	and	#$33
    7368: 85 1d        	sta	$1d                     ; 0x201d <f256main+0x1709>
    736a: a5 19        	lda	$19                     ; 0x2019 <f256main+0x1705>
    736c: 29 33        	and	#$33
    736e: aa           	tax
    736f: a5 1b        	lda	$1b                     ; 0x201b <f256main+0x1707>
    7371: 29 33        	and	#$33
    7373: 85 1a        	sta	$1a                     ; 0x201a <f256main+0x1706>
    7375: a5 1c        	lda	$1c                     ; 0x201c <f256main+0x1708>
    7377: 29 33        	and	#$33
    7379: 85 1b        	sta	$1b                     ; 0x201b <f256main+0x1707>
    737b: 98           	tya
    737c: 29 33        	and	#$33
    737e: 85 19        	sta	$19                     ; 0x2019 <f256main+0x1705>
    7380: 18           	clc
    7381: a5 1d        	lda	$1d                     ; 0x201d <f256main+0x1709>
    7383: 65 14        	adc	$14                     ; 0x2014 <f256main+0x1700>
    7385: 85 14        	sta	$14                     ; 0x2014 <f256main+0x1700>
    7387: 8a           	txa
    7388: 65 17        	adc	$17                     ; 0x2017 <f256main+0x1703>
    738a: 85 17        	sta	$17                     ; 0x2017 <f256main+0x1703>
    738c: a5 1a        	lda	$1a                     ; 0x201a <f256main+0x1706>
    738e: 65 18        	adc	$18                     ; 0x2018 <f256main+0x1704>
    7390: 85 18        	sta	$18                     ; 0x2018 <f256main+0x1704>
    7392: a5 1b        	lda	$1b                     ; 0x201b <f256main+0x1707>
    7394: 65 19        	adc	$19                     ; 0x2019 <f256main+0x1705>
    7396: 85 19        	sta	$19                     ; 0x2019 <f256main+0x1705>
    7398: 4a           	lsr
    7399: aa           	tax
    739a: a5 18        	lda	$18                     ; 0x2018 <f256main+0x1704>
    739c: 6a           	ror
    739d: a4 17        	ldy	$17                     ; 0x2017 <f256main+0x1703>
    739f: 84 1b        	sty	$1b                     ; 0x201b <f256main+0x1707>
    73a1: 66 1b        	ror	$1b                     ; 0x201b <f256main+0x1707>
    73a3: a4 14        	ldy	$14                     ; 0x2014 <f256main+0x1700>
    73a5: 84 1c        	sty	$1c                     ; 0x201c <f256main+0x1708>
    73a7: 66 1c        	ror	$1c                     ; 0x201c <f256main+0x1708>
    73a9: 86 1a        	stx	$1a                     ; 0x201a <f256main+0x1706>
    73ab: 46 1a        	lsr	$1a                     ; 0x201a <f256main+0x1706>
    73ad: 6a           	ror
    73ae: 66 1b        	ror	$1b                     ; 0x201b <f256main+0x1707>
    73b0: 66 1c        	ror	$1c                     ; 0x201c <f256main+0x1708>
    73b2: 46 1a        	lsr	$1a                     ; 0x201a <f256main+0x1706>
    73b4: 6a           	ror
    73b5: 66 1b        	ror	$1b                     ; 0x201b <f256main+0x1707>
    73b7: 66 1c        	ror	$1c                     ; 0x201c <f256main+0x1708>
    73b9: 46 1a        	lsr	$1a                     ; 0x201a <f256main+0x1706>
    73bb: 6a           	ror
    73bc: 85 1d        	sta	$1d                     ; 0x201d <f256main+0x1709>
    73be: a6 1b        	ldx	$1b                     ; 0x201b <f256main+0x1707>
    73c0: 86 1e        	stx	$1e                     ; 0x201e <f256main+0x170a>
    73c2: 66 1e        	ror	$1e                     ; 0x201e <f256main+0x170a>
    73c4: a5 1c        	lda	$1c                     ; 0x201c <f256main+0x1708>
    73c6: 6a           	ror
    73c7: 18           	clc
    73c8: 65 14        	adc	$14                     ; 0x2014 <f256main+0x1700>
    73ca: a8           	tay
    73cb: a5 1e        	lda	$1e                     ; 0x201e <f256main+0x170a>
    73cd: 65 17        	adc	$17                     ; 0x2017 <f256main+0x1703>
    73cf: aa           	tax
    73d0: a5 1d        	lda	$1d                     ; 0x201d <f256main+0x1709>
    73d2: 65 18        	adc	$18                     ; 0x2018 <f256main+0x1704>
    73d4: 85 18        	sta	$18                     ; 0x2018 <f256main+0x1704>
    73d6: a5 1a        	lda	$1a                     ; 0x201a <f256main+0x1706>
    73d8: 65 19        	adc	$19                     ; 0x2019 <f256main+0x1705>
    73da: 85 19        	sta	$19                     ; 0x2019 <f256main+0x1705>
    73dc: 98           	tya
    73dd: 29 0f        	and	#$f
    73df: 85 14        	sta	$14                     ; 0x2014 <f256main+0x1700>
    73e1: 85 1a        	sta	$1a                     ; 0x201a <f256main+0x1706>
    73e3: 8a           	txa
    73e4: 29 0f        	and	#$f
    73e6: 85 17        	sta	$17                     ; 0x2017 <f256main+0x1703>
    73e8: a8           	tay
    73e9: a5 18        	lda	$18                     ; 0x2018 <f256main+0x1704>
    73eb: 29 0f        	and	#$f
    73ed: 85 18        	sta	$18                     ; 0x2018 <f256main+0x1704>
    73ef: aa           	tax
    73f0: a5 19        	lda	$19                     ; 0x2019 <f256main+0x1705>
    73f2: 29 0f        	and	#$f
    73f4: 85 19        	sta	$19                     ; 0x2019 <f256main+0x1705>
    73f6: 18           	clc
    73f7: a5 1a        	lda	$1a                     ; 0x201a <f256main+0x1706>
    73f9: 69 00        	adc	#$0
    73fb: 85 1b        	sta	$1b                     ; 0x201b <f256main+0x1707>
    73fd: 98           	tya
    73fe: 65 14        	adc	$14                     ; 0x2014 <f256main+0x1700>
    7400: a8           	tay
    7401: 8a           	txa
    7402: 65 17        	adc	$17                     ; 0x2017 <f256main+0x1703>
    7404: 85 1a        	sta	$1a                     ; 0x201a <f256main+0x1706>
    7406: a5 19        	lda	$19                     ; 0x2019 <f256main+0x1705>
    7408: 65 18        	adc	$18                     ; 0x2018 <f256main+0x1704>
    740a: aa           	tax
    740b: a5 1b        	lda	$1b                     ; 0x201b <f256main+0x1707>
    740d: 85 14        	sta	$14                     ; 0x2014 <f256main+0x1700>
    740f: 18           	clc
    7410: 69 00        	adc	#$0
    7412: 98           	tya
    7413: 84 17        	sty	$17                     ; 0x2017 <f256main+0x1703>
    7415: 69 00        	adc	#$0
    7417: a5 1a        	lda	$1a                     ; 0x201a <f256main+0x1706>
    7419: 65 14        	adc	$14                     ; 0x2014 <f256main+0x1700>
    741b: 8a           	txa
    741c: 65 17        	adc	$17                     ; 0x2017 <f256main+0x1703>
    741e: 85 14        	sta	$14                     ; 0x2014 <f256main+0x1700>
    7420: a9 20        	lda	#$20
    7422: 38           	sec
    7423: e5 14        	sbc	$14                     ; 0x2014 <f256main+0x1700>
    7425: 85 14        	sta	$14                     ; 0x2014 <f256main+0x1700>
    7427: 85 19        	sta	$19                     ; 0x2019 <f256main+0x1705>
    7429: a9 00        	lda	#$0
    742b: e9 00        	sbc	#$0
    742d: 85 18        	sta	$18                     ; 0x2018 <f256main+0x1704>
    742f: 85 8f        	sta	$8f                     ; 0x208f <f256main+0x177b>
    7431: a6 19        	ldx	$19                     ; 0x2019 <f256main+0x1705>
    7433: 86 91        	stx	$91                     ; 0x2091 <f256main+0x177d>
    7435: a5 19        	lda	$19                     ; 0x2019 <f256main+0x1705>
    7437: 49 1f        	eor	#$1f
    7439: 85 17        	sta	$17                     ; 0x2017 <f256main+0x1703>
    743b: a6 8f        	ldx	$8f                     ; 0x208f <f256main+0x177b>
    743d: f0 03        	beq	$7442 <__floatunsisf+0x207>
    743f: 4c b7 74     	jmp	$74b7 <__floatunsisf+0x27c>
    7442: c9 18        	cmp	#$18
    7444: b0 03        	bcs	$7449 <__floatunsisf+0x20e>
    7446: 4c c0 74     	jmp	$74c0 <__floatunsisf+0x285>
    7449: 38           	sec
    744a: a9 08        	lda	#$8
    744c: a6 14        	ldx	$14                     ; 0x2014 <f256main+0x1700>
    744e: 86 90        	stx	$90                     ; 0x2090 <f256main+0x177c>
    7450: e5 14        	sbc	$14                     ; 0x2014 <f256main+0x1700>
    7452: a6 12        	ldx	$12                     ; 0x2012 <f256main+0x16fe>
    7454: 86 96        	stx	$96                     ; 0x2096 <f256main+0x1782>
    7456: a6 13        	ldx	$13                     ; 0x2013 <f256main+0x16ff>
    7458: 86 98        	stx	$98                     ; 0x2098 <f256main+0x1784>
    745a: 85 14        	sta	$14                     ; 0x2014 <f256main+0x1700>
    745c: a6 16        	ldx	$16                     ; 0x2016 <f256main+0x1702>
    745e: a5 15        	lda	$15                     ; 0x2015 <f256main+0x1701>
    7460: a4 15        	ldy	$15                     ; 0x2015 <f256main+0x1701>
    7462: 84 97        	sty	$97                     ; 0x2097 <f256main+0x1783>
    7464: a4 16        	ldy	$16                     ; 0x2016 <f256main+0x1702>
    7466: 84 99        	sty	$99                     ; 0x2099 <f256main+0x1785>
    7468: 20 b5 60     	jsr	$60b5 <__lshrsi3>
    746b: 85 93        	sta	$93                     ; 0x2093 <f256main+0x177f>
    746d: 86 92        	stx	$92                     ; 0x2092 <f256main+0x177e>
    746f: a5 12        	lda	$12                     ; 0x2012 <f256main+0x16fe>
    7471: a6 13        	ldx	$13                     ; 0x2013 <f256main+0x16ff>
    7473: 86 95        	stx	$95                     ; 0x2095 <f256main+0x1781>
    7475: 49 80        	eor	#$80
    7477: 85 94        	sta	$94                     ; 0x2094 <f256main+0x1780>
    7479: a5 91        	lda	$91                     ; 0x2091 <f256main+0x177d>
    747b: 18           	clc
    747c: 69 18        	adc	#$18
    747e: a6 96        	ldx	$96                     ; 0x2096 <f256main+0x1782>
    7480: 86 12        	stx	$12                     ; 0x2012 <f256main+0x16fe>
    7482: a6 98        	ldx	$98                     ; 0x2098 <f256main+0x1784>
    7484: 86 13        	stx	$13                     ; 0x2013 <f256main+0x16ff>
    7486: 85 14        	sta	$14                     ; 0x2014 <f256main+0x1700>
    7488: a6 99        	ldx	$99                     ; 0x2099 <f256main+0x1785>
    748a: a5 97        	lda	$97                     ; 0x2097 <f256main+0x1783>
    748c: 20 9e 60     	jsr	$609e <__ashlsi3>
    748f: 85 15        	sta	$15                     ; 0x2015 <f256main+0x1701>
    7491: 86 16        	stx	$16                     ; 0x2016 <f256main+0x1702>
    7493: a6 12        	ldx	$12                     ; 0x2012 <f256main+0x16fe>
    7495: a4 13        	ldy	$13                     ; 0x2013 <f256main+0x16ff>
    7497: c0 80        	cpy	#$80
    7499: d0 4e        	bne	$74e9 <__floatunsisf+0x2ae>
    749b: a5 8f        	lda	$8f                     ; 0x208f <f256main+0x177b>
    749d: 85 12        	sta	$12                     ; 0x2012 <f256main+0x16fe>
    749f: 8a           	txa
    74a0: d0 4f        	bne	$74f1 <__floatunsisf+0x2b6>
    74a2: a5 90        	lda	$90                     ; 0x2090 <f256main+0x177c>
    74a4: 85 13        	sta	$13                     ; 0x2013 <f256main+0x16ff>
    74a6: a5 93        	lda	$93                     ; 0x2093 <f256main+0x177f>
    74a8: 85 14        	sta	$14                     ; 0x2014 <f256main+0x1700>
    74aa: a5 16        	lda	$16                     ; 0x2016 <f256main+0x1702>
    74ac: f0 03        	beq	$74b1 <__floatunsisf+0x276>
    74ae: 4c 7d 75     	jmp	$757d <__floatunsisf+0x342>
    74b1: a5 15        	lda	$15                     ; 0x2015 <f256main+0x1701>
    74b3: c9 01        	cmp	#$1
    74b5: 80 44        	bra	$74fb <__floatunsisf+0x2c0>
    74b7: a6 18        	ldx	$18                     ; 0x2018 <f256main+0x1704>
    74b9: e0 00        	cpx	#$0
    74bb: 90 03        	bcc	$74c0 <__floatunsisf+0x285>
    74bd: 4c 49 74     	jmp	$7449 <__floatunsisf+0x20e>
    74c0: a6 14        	ldx	$14                     ; 0x2014 <f256main+0x1700>
    74c2: 86 90        	stx	$90                     ; 0x2090 <f256main+0x177c>
    74c4: 38           	sec
    74c5: a9 17        	lda	#$17
    74c7: e5 17        	sbc	$17                     ; 0x2017 <f256main+0x1703>
    74c9: 85 14        	sta	$14                     ; 0x2014 <f256main+0x1700>
    74cb: a6 16        	ldx	$16                     ; 0x2016 <f256main+0x1702>
    74cd: a5 15        	lda	$15                     ; 0x2015 <f256main+0x1701>
    74cf: 20 9e 60     	jsr	$609e <__ashlsi3>
    74d2: 85 14        	sta	$14                     ; 0x2014 <f256main+0x1700>
    74d4: 86 17        	stx	$17                     ; 0x2017 <f256main+0x1703>
    74d6: a5 12        	lda	$12                     ; 0x2012 <f256main+0x16fe>
    74d8: a6 13        	ldx	$13                     ; 0x2013 <f256main+0x16ff>
    74da: 86 15        	stx	$15                     ; 0x2015 <f256main+0x1701>
    74dc: 49 80        	eor	#$80
    74de: a6 8f        	ldx	$8f                     ; 0x208f <f256main+0x177b>
    74e0: 86 12        	stx	$12                     ; 0x2012 <f256main+0x16fe>
    74e2: a6 90        	ldx	$90                     ; 0x2090 <f256main+0x177c>
    74e4: 86 13        	stx	$13                     ; 0x2013 <f256main+0x16ff>
    74e6: 4c 4c 75     	jmp	$754c <__floatunsisf+0x311>
    74e9: c0 80        	cpy	#$80
    74eb: a5 8f        	lda	$8f                     ; 0x208f <f256main+0x177b>
    74ed: 85 12        	sta	$12                     ; 0x2012 <f256main+0x16fe>
    74ef: 80 02        	bra	$74f3 <__floatunsisf+0x2b8>
    74f1: e0 00        	cpx	#$0
    74f3: a5 90        	lda	$90                     ; 0x2090 <f256main+0x177c>
    74f5: 85 13        	sta	$13                     ; 0x2013 <f256main+0x16ff>
    74f7: a5 93        	lda	$93                     ; 0x2093 <f256main+0x177f>
    74f9: 85 14        	sta	$14                     ; 0x2014 <f256main+0x1700>
    74fb: a5 92        	lda	$92                     ; 0x2092 <f256main+0x177e>
    74fd: 85 17        	sta	$17                     ; 0x2017 <f256main+0x1703>
    74ff: b0 30        	bcs	$7531 <__floatunsisf+0x2f6>
    7501: c0 80        	cpy	#$80
    7503: d0 41        	bne	$7546 <__floatunsisf+0x30b>
    7505: 8a           	txa
    7506: d0 3e        	bne	$7546 <__floatunsisf+0x30b>
    7508: a5 16        	lda	$16                     ; 0x2016 <f256main+0x1702>
    750a: d0 3a        	bne	$7546 <__floatunsisf+0x30b>
    750c: a5 15        	lda	$15                     ; 0x2015 <f256main+0x1701>
    750e: d0 36        	bne	$7546 <__floatunsisf+0x30b>
    7510: a5 14        	lda	$14                     ; 0x2014 <f256main+0x1700>
    7512: 29 01        	and	#$1
    7514: 18           	clc
    7515: 65 14        	adc	$14                     ; 0x2014 <f256main+0x1700>
    7517: a8           	tay
    7518: a6 92        	ldx	$92                     ; 0x2092 <f256main+0x177e>
    751a: 8a           	txa
    751b: 69 00        	adc	#$0
    751d: 85 17        	sta	$17                     ; 0x2017 <f256main+0x1703>
    751f: a5 94        	lda	$94                     ; 0x2094 <f256main+0x1780>
    7521: 69 00        	adc	#$0
    7523: 85 16        	sta	$16                     ; 0x2016 <f256main+0x1702>
    7525: a5 95        	lda	$95                     ; 0x2095 <f256main+0x1781>
    7527: 69 00        	adc	#$0
    7529: 85 15        	sta	$15                     ; 0x2015 <f256main+0x1701>
    752b: a5 16        	lda	$16                     ; 0x2016 <f256main+0x1702>
    752d: 84 14        	sty	$14                     ; 0x2014 <f256main+0x1700>
    752f: 80 1b        	bra	$754c <__floatunsisf+0x311>
    7531: a5 94        	lda	$94                     ; 0x2094 <f256main+0x1780>
    7533: a6 95        	ldx	$95                     ; 0x2095 <f256main+0x1781>
    7535: 86 15        	stx	$15                     ; 0x2015 <f256main+0x1701>
    7537: e6 14        	inc	$14                     ; 0x2014 <f256main+0x1700>
    7539: d0 09        	bne	$7544 <__floatunsisf+0x309>
    753b: e6 17        	inc	$17                     ; 0x2017 <f256main+0x1703>
    753d: d0 05        	bne	$7544 <__floatunsisf+0x309>
    753f: 1a           	inc
    7540: d0 02        	bne	$7544 <__floatunsisf+0x309>
    7542: e6 15        	inc	$15                     ; 0x2015 <f256main+0x1701>
    7544: 80 06        	bra	$754c <__floatunsisf+0x311>
    7546: a5 94        	lda	$94                     ; 0x2094 <f256main+0x1780>
    7548: a6 95        	ldx	$95                     ; 0x2095 <f256main+0x1781>
    754a: 86 15        	stx	$15                     ; 0x2015 <f256main+0x1701>
    754c: 85 16        	sta	$16                     ; 0x2016 <f256main+0x1702>
    754e: 38           	sec
    754f: a9 9e        	lda	#$9e
    7551: e5 13        	sbc	$13                     ; 0x2013 <f256main+0x16ff>
    7553: 85 13        	sta	$13                     ; 0x2013 <f256main+0x16ff>
    7555: a9 00        	lda	#$0
    7557: e5 12        	sbc	$12                     ; 0x2012 <f256main+0x16fe>
    7559: 4a           	lsr
    755a: 66 13        	ror	$13                     ; 0x2013 <f256main+0x16ff>
    755c: 64 18        	stz	$18                     ; 0x2018 <f256main+0x1704>
    755e: 66 18        	ror	$18                     ; 0x2018 <f256main+0x1704>
    7560: a9 00        	lda	#$0
    7562: 6a           	ror
    7563: aa           	tax
    7564: a9 00        	lda	#$0
    7566: 6a           	ror
    7567: 18           	clc
    7568: 65 14        	adc	$14                     ; 0x2014 <f256main+0x1700>
    756a: a8           	tay
    756b: 8a           	txa
    756c: 65 17        	adc	$17                     ; 0x2017 <f256main+0x1703>
    756e: aa           	tax
    756f: a5 18        	lda	$18                     ; 0x2018 <f256main+0x1704>
    7571: 65 16        	adc	$16                     ; 0x2016 <f256main+0x1702>
    7573: 85 12        	sta	$12                     ; 0x2012 <f256main+0x16fe>
    7575: a5 13        	lda	$13                     ; 0x2013 <f256main+0x16ff>
    7577: 65 15        	adc	$15                     ; 0x2015 <f256main+0x1701>
    7579: 85 13        	sta	$13                     ; 0x2013 <f256main+0x16ff>
    757b: 98           	tya
    757c: 60           	rts
    757d: a5 16        	lda	$16                     ; 0x2016 <f256main+0x1702>
    757f: c9 00        	cmp	#$0
    7581: 4c fb 74     	jmp	$74fb <__floatunsisf+0x2c0>
    7584: a0 00        	ldy	#$0
    7586: a2 00        	ldx	#$0
    7588: 64 12        	stz	$12                     ; 0x2012 <f256main+0x16fe>
    758a: 64 13        	stz	$13                     ; 0x2013 <f256main+0x16ff>
    758c: 80 ed        	bra	$757b <__floatunsisf+0x340>
