
midiTest.elf:	file format elf32-mos

SYMBOL TABLE:
00000000 l    df *ABS*	00000000 zero-bss.c
00000000 l    df *ABS*	00000000 zero-zp-bss.c
00000000 l    df *ABS*	00000000 copy-zp-data.c
00000000 l    df *ABS*	00000000 ld-temp.o
0000059d l     F .text	000003b5 f256Init
00000081 l     O .zp.bss	00000007 kernelEventData
00000030 l     O .zp.data	00000001 _ccolor
0000848e l     O .rodata	00000030 textColors
00000033 l     O .zp.bss	00000001 _col
00000034 l     O .zp.bss	00000001 _row
0000987c l     O .bss	00000004 _BITMAP_BASE.0
00009894 l     O .bss	00000001 kernelError
00000958 l     F .text	00002a38 f256main
00006d03 l     F .text	000001e8 malloc
0000007f l     O .zp.bss	00000002 gPtr
00003f29 l     F .text	00000066 resetGlobals
0000003b l     O .zp.bss	00000002 theBeats
000048ae l     F .text	000001d5 setupMem4ABeat
00005fc3 l     F .text	00000d40 printf
0000949f l     O .rodata	00000002 beat00_notes
000094a1 l     O .rodata	00000002 beat00_delays
00004d2d l     F .text	00000298 setupMem4Track
000094a3 l     O .rodata	00000005 beat10_notes
000094a8 l     O .rodata	00000005 beat10_delays
000094ad l     O .rodata	00000008 beat11_notes
000094b5 l     O .rodata	00000008 beat11_delays
000096d0 l     O .rodata	00000004 beat20_notes
000096d4 l     O .rodata	00000004 beat20_delays
000096d8 l     O .rodata	00000006 beat21_notes
000096de l     O .rodata	00000006 beat21_delays
000096e4 l     O .rodata	00000020 beat30_notes
00009704 l     O .rodata	00000020 beat30_delays
00009724 l     O .rodata	0000000c beat31_notes
00009730 l     O .rodata	0000000c beat31_delays
000094bd l     O .rodata	0000006a beat40_notes
00009527 l     O .rodata	0000006a beat40_delays
00009591 l     O .rodata	00000010 beat41_notes
000095a1 l     O .rodata	00000010 beat41_delays
00003c9d l     F .text	00000140 escReset
00003ddd l     F .text	00000091 prepTempoLUT
0000003d l     O .zp.bss	00000001 refTimer.1
00004844 l     F .text	0000006a sid_setInstrumentAllChannels
00004750 l     F .text	0000006b opl3_setInstrumentAllChannels
00009467 l     O .rodata	00000038 rtmplugin
00000031 l     O .zp.data	00000002 note
00009892 l     O .bss	00000002 oldCursorNote
00000037 l     O .zp.bss	00000001 instSelectMode
00003390 l     F .text	000001ce textPrint
00003f8f l     F .text	0000068e dispatchNote
00003e6e l     F .text	000000bb textPrintUInt
000084be l     O .rodata	00000058 noteColors
00000039 l     O .zp.bss	00000001 altHit
0000003e l     O .zp.bss	00000001 chipAct.0
00009880 l     O .bss	00000012 mainTempoLUT
0000003a l     O .zp.bss	00000001 shiftHit
0000003f l     O .zp.bss	00000001 chipAct.1
00000043 l     O .zp.bss	00000006 polySIDBuffer
00000040 l     O .zp.bss	00000001 chipAct.2
0000004f l     O .zp.bss	00000006 polyPSGBuffer
00000041 l     O .zp.bss	00000001 chipAct.3
0000005b l     O .zp.bss	00000012 polyOPL3Buffer
00000042 l     O .zp.bss	00000001 chipAct.4
000055ab l     F .text	000000f8 showChipChoiceText
00004a83 l     F .text	000002aa getBeatTrackNoteInfo
00000038 l     O .zp.bss	00000001 needsToWaitExpiration
0000355e l     F .text	0000073f launchBeat
0000572b l     F .text	00000419 textTitle
00008516 l     O .rodata	0000007b KeyCodesToMIDINotes
00000035 l     O .zp.bss	00000002 __putchar.s
00005551 l     F .text	0000005a updateTempoText
00005b44 l     F .text	000001bc highLightInstChoice
0000973c l     O .rodata	00000100 midi_instruments
00009846 l     O .rodata	0000000a sid_instruments_names
00009850 l     O .rodata	0000002c opl3_instrument_names
000056a3 l     F .text	00000088 showMIDIChoiceText
0000536f l     F .text	0000014b channelTextMenu
00004fc5 l     F .text	000003aa refreshInstrumentText
000054ba l     F .text	00000097 refreshBeatTextChoice
00005d00 l     F .text	00000068 modalMoveUp
00005d68 l     F .text	00000068 modalMoveDown
00000055 l     O .zp.bss	00000006 reservedPSG
0000006d l     O .zp.bss	00000012 reservedOPL3
00000049 l     O .zp.bss	00000006 reservedSID
00006f65 l     F .text	0000005c __udivqi3
000095b1 l     O .rodata	0000002d sid_instrument_defs
000047bb l     F .text	00000089 sid_setInstrument
00008289 l     F .text	00000032 __mulhi3
000095de l     O .rodata	000000f2 opl3_instrument_defs
0000461d l     F .text	00000133 opl3_setInstrument
00000470 l     F .text	000000f0 _ZN12_GLOBAL__N_19FreeChunk6removeEv
00009896 l     O .bss	00000001 _ZN12_GLOBAL__N_19last_freeE
0000031c l     F .text	00000153 _ZN12_GLOBAL__N_19FreeChunk6insertEPvj
00007f1b l     F .text	00000353 __floatunsisf
00007306 l     F .text	00000b95 __divsf3
00007e9b l     F .text	00000080 __fixunssfsi
00006fc1 l     F .text	000000b9 __udivhi3
0000707a l     F .text	00000147 __umodsi3
00009363 l     O .rodata	00000006 sidChoiceToVoice
00009407 l     O .rodata	00000060 sidLow
00008a06 l     O .rodata	00000060 sidHigh
0000722f l     F .text	000000d7 __udivmodhi4
0000936f l     O .rodata	00000018 opl3_fnums
00009369 l     O .rodata	00000006 polyPSGChanBits
00009387 l     O .rodata	00000040 psgLow
000093c7 l     O .rodata	00000040 psgHigh
0000983c l     O .rodata	0000000a presetBeatCount_names
000071c1 l     F .text	0000006e __udivmodqi4
0000826e l     F .text	0000001b __mulqi3
00005dd5 l     F .text	000000df _ZN12_GLOBAL__N_13putEcP6Status
00005eb4 l     F .text	0000010f _ZN12_GLOBAL__N_112print_stringEPKcP6Status
00009895 l     O .bss	00000001 _ZN12_GLOBAL__N_111initializedE
00009899 l     O .bss	00000002 _ZN12_GLOBAL__N_19free_listE
00009897 l     O .bss	00000002 _ZN12_GLOBAL__N_19free_sizeE
00006f37 l     F .text	00000017 __ashlsi3
00006f4e l     F .text	00000017 __lshrsi3
0000832b l     F .text	000000f8 __muldi3
000082bb l     F .text	00000070 __mulsi3
00000952 g     F .text	00000006 main
0004ac00 g       .pia1	00000000 pia1_end
000303fc g       .palpiano	00000000 palpiano_end
00038000 g       .pia1	00000000 pia1_start
00030000 g       .palpiano	00000000 palpiano_start
00000318 g       .text	00000000 __after_main
00000304 g       .text	00000000 __do_init_stack
00000312 g       .text	00000000 __do_copy_zp_data
00000586 g     F .text	00000017 __copy_zp_data
0000030c g       .text	00000000 __do_zero_bss
00000560 g     F .text	00000013 __zero_bss
0000030f g       .text	00000000 __do_zero_zp_bss
00000573 g     F .text	00000013 __zero_zp_bss
00005dd0 g     F .text	00000005 exit
0000031b g       .text	00000000 _fini
00008423 g       .rodata	00000000 __set_v
00006f17  w    F .text	00000020 __memset
00001000  w      *ABS*	00000000 __heap_default_limit
0000989e g       .noinit	00000000 __heap_start
00006eeb  w    F .text	0000002c memcpy
00000010 g       *ABS*	00000000 __rc0
00000012 g       *ABS*	00000000 __rc2
00000014 g       *ABS*	00000000 __rc4
00000016 g       *ABS*	00000000 __rc6
00000018 g       *ABS*	00000000 __rc8
0000001a g       *ABS*	00000000 __rc10
0000001c g       *ABS*	00000000 __rc12
0000001e g       *ABS*	00000000 __rc14
00000020 g       *ABS*	00000000 __rc16
00000022 g       *ABS*	00000000 __rc18
00000024 g       *ABS*	00000000 __rc20
00000026 g       *ABS*	00000000 __rc22
00000028 g       *ABS*	00000000 __rc24
0000002a g       *ABS*	00000000 __rc26
0000002c g       *ABS*	00000000 __rc28
0000002e g       *ABS*	00000000 __rc30
0000002f g       *ABS*	00000000 __rc31
00000300 g       *ABS*	00000000 __f256_start
0000a000 g       *ABS*	00000000 __stack
0000a000 g       *ABS*	00000000 __SLOT_ADDR
0800a000 g       *ABS*	00000000 __block8_lma
00002000 g       *ABS*	00000000 __BLOCK_SIZE
0900a000 g       *ABS*	00000000 __block9_lma
0a00a000 g       *ABS*	00000000 __block10_lma
0b00a000 g       *ABS*	00000000 __block11_lma
0c00a000 g       *ABS*	00000000 __block12_lma
0d00a000 g       *ABS*	00000000 __block13_lma
0e00a000 g       *ABS*	00000000 __block14_lma
0f00a000 g       *ABS*	00000000 __block15_lma
1000a000 g       *ABS*	00000000 __block16_lma
1100a000 g       *ABS*	00000000 __block17_lma
1200a000 g       *ABS*	00000000 __block18_lma
1300a000 g       *ABS*	00000000 __block19_lma
1400a000 g       *ABS*	00000000 __block20_lma
1500a000 g       *ABS*	00000000 __block21_lma
1600a000 g       *ABS*	00000000 __block22_lma
1700a000 g       *ABS*	00000000 __block23_lma
00030000 g       *ABS*	00000000 __palpiano_lma
000003fc g       *ABS*	00000000 __palpiano_size
00038000 g       *ABS*	00000000 __pia1_lma
00012c00 g       *ABS*	00000000 __pia1_size
0000987c g       .bss	00000000 __bss_start
000303fc g       .palpiano	00000000 end_palpiano
0004ac00 g       .pia1	00000000 end_pia1
00000304 g       .text	00000000 _start
0000002d g       *ABS*	00000000 __rc29
0000002b g       *ABS*	00000000 __rc27
00000029 g       *ABS*	00000000 __rc25
00000027 g       *ABS*	00000000 __rc23
00000025 g       *ABS*	00000000 __rc21
00000023 g       *ABS*	00000000 __rc19
00000021 g       *ABS*	00000000 __rc17
0000001f g       *ABS*	00000000 __rc15
0000001d g       *ABS*	00000000 __rc13
0000001b g       *ABS*	00000000 __rc11
00000019 g       *ABS*	00000000 __rc9
00000017 g       *ABS*	00000000 __rc7
00000015 g       *ABS*	00000000 __rc5
00000013 g       *ABS*	00000000 __rc3
00000011 g       *ABS*	00000000 __rc1
00000030 g       .zp.data	00000000 __zp_data_start
00000300 g       *ABS*	00000000 __zp_data_load_start
00000003 g       *ABS*	00000000 __zp_data_size
00000033 g       .zp.bss	00000000 __zp_bss_start
00000055 g       *ABS*	00000000 __zp_bss_size
00000304 g       .text	00000000 _init
00008423 g       .text	00000000 __init_array_start
00008423 g       .text	00000000 __init_array_end
00008423 g       .text	00000000 __fini_array_start
00008423 g       .text	00000000 __fini_array_end
0000987c g       .data	00000000 __data_start
0000987c g       .data	00000000 __data_end
0000987c g       *ABS*	00000000 __data_load_start
00000000 g       *ABS*	00000000 __data_size
0000989b g       .bss	00000000 __bss_end
0000001f g       *ABS*	00000000 __bss_size
0000989e g       .noinit	00000000 end_block8
0000989e g       .noinit	00000000 end_block9
0000989e g       .noinit	00000000 end_block10
0000989e g       .noinit	00000000 end_block11
0000989e g       .noinit	00000000 end_block12
0000989e g       .noinit	00000000 end_block13
0000989e g       .noinit	00000000 end_block14
0000989e g       .noinit	00000000 end_block15
0000989e g       .noinit	00000000 end_block16
0000989e g       .noinit	00000000 end_block17
0000989e g       .noinit	00000000 end_block18
0000989e g       .noinit	00000000 end_block19
0000989e g       .noinit	00000000 end_block20
0000989e g       .noinit	00000000 end_block21
0000989e g       .noinit	00000000 end_block22
0000989e g       .noinit	00000000 end_block23

Disassembly of section .text:

00000304 <_start>:
     304: a9 00        	lda	#$0
     306: 85 10        	sta	$10                     ; 0x10 <__rc0>
     308: a9 a0        	lda	#$a0
     30a: 85 11        	sta	$11                     ; 0x11 <__rc1>

0000030c <__do_zero_bss>:
     30c: 20 60 05     	jsr	$560 <__zero_bss>

0000030f <__do_zero_zp_bss>:
     30f: 20 73 05     	jsr	$573 <__zero_zp_bss>

00000312 <__do_copy_zp_data>:
     312: 20 86 05     	jsr	$586 <__copy_zp_data>
     315: 20 52 09     	jsr	$952 <main>

00000318 <__after_main>:
     318: 4c d0 5d     	jmp	$5dd0 <exit>

0000031b <_fini>:
     31b: 60           	rts

0000031c <_ZN12_GLOBAL__N_19FreeChunk6insertEPvj>:
     31c: 85 16        	sta	$16                     ; 0x16 <__rc6>
     31e: 29 fe        	and	#$fe
     320: 85 14        	sta	$14                     ; 0x14 <__rc4>
     322: a0 01        	ldy	#$1
     324: 98           	tya
     325: 32 12        	and	($12)                   ; 0x12 <__rc2>
     327: 05 14        	ora	$14                     ; 0x14 <__rc4>
     329: 92 12        	sta	($12)                   ; 0x12 <__rc2>
     32b: a5 12        	lda	$12                     ; 0x12 <__rc2>
     32d: 18           	clc
     32e: 65 14        	adc	$14                     ; 0x14 <__rc4>
     330: 85 15        	sta	$15                     ; 0x15 <__rc5>
     332: 8a           	txa
     333: 65 13        	adc	$13                     ; 0x13 <__rc3>
     335: 85 14        	sta	$14                     ; 0x14 <__rc4>
     337: 18           	clc
     338: a5 15        	lda	$15                     ; 0x15 <__rc5>
     33a: 69 fe        	adc	#$fe
     33c: 85 17        	sta	$17                     ; 0x17 <__rc7>
     33e: a5 14        	lda	$14                     ; 0x14 <__rc4>
     340: 69 ff        	adc	#$ff
     342: 85 15        	sta	$15                     ; 0x15 <__rc5>
     344: a5 17        	lda	$17                     ; 0x17 <__rc7>
     346: 85 14        	sta	$14                     ; 0x14 <__rc4>
     348: 8a           	txa
     349: 91 12        	sta	($12),y                 ; 0x12 <__rc2>
     34b: a5 16        	lda	$16                     ; 0x16 <__rc6>
     34d: 92 14        	sta	($14)                   ; 0x14 <__rc4>
     34f: 8a           	txa
     350: 91 14        	sta	($14),y                 ; 0x14 <__rc4>
     352: a2 01        	ldx	#$1
     354: 86 18        	stx	$18                     ; 0x18 <__rc8>
     356: b1 12        	lda	($12),y                 ; 0x12 <__rc2>
     358: 85 14        	sta	$14                     ; 0x14 <__rc4>
     35a: a9 fe        	lda	#$fe
     35c: 32 12        	and	($12)                   ; 0x12 <__rc2>
     35e: 18           	clc
     35f: 6d 97 98     	adc	$9897                   ; 0x9897 <_ZN12_GLOBAL__N_19free_sizeE>
     362: aa           	tax
     363: a5 14        	lda	$14                     ; 0x14 <__rc4>
     365: 6d 98 98     	adc	$9898                   ; 0x9898 <_ZN12_GLOBAL__N_19free_sizeE+0x1>
     368: a8           	tay
     369: 18           	clc
     36a: 8a           	txa
     36b: 69 fe        	adc	#$fe
     36d: aa           	tax
     36e: 98           	tya
     36f: 69 ff        	adc	#$ff
     371: 8e 97 98     	stx	$9897                   ; 0x9897 <_ZN12_GLOBAL__N_19free_sizeE>
     374: 8d 98 98     	sta	$9898                   ; 0x9898 <_ZN12_GLOBAL__N_19free_sizeE+0x1>
     377: ae 99 98     	ldx	$9899                   ; 0x9899 <_ZN12_GLOBAL__N_19free_listE>
     37a: 86 16        	stx	$16                     ; 0x16 <__rc6>
     37c: ac 9a 98     	ldy	$989a                   ; 0x989a <_ZN12_GLOBAL__N_19free_listE+0x1>
     37f: a2 00        	ldx	#$0
     381: 86 14        	stx	$14                     ; 0x14 <__rc4>
     383: a2 00        	ldx	#$0
     385: 86 15        	stx	$15                     ; 0x15 <__rc5>
     387: 84 17        	sty	$17                     ; 0x17 <__rc7>
     389: c4 15        	cpy	$15                     ; 0x15 <__rc5>
     38b: d0 3e        	bne	$3cb <_ZN12_GLOBAL__N_19FreeChunk6insertEPvj+0xaf>
     38d: a6 16        	ldx	$16                     ; 0x16 <__rc6>
     38f: e4 14        	cpx	$14                     ; 0x14 <__rc4>
     391: d0 38        	bne	$3cb <_ZN12_GLOBAL__N_19FreeChunk6insertEPvj+0xaf>
     393: a0 04        	ldy	#$4
     395: a5 12        	lda	$12                     ; 0x12 <__rc2>
     397: 18           	clc
     398: 69 04        	adc	#$4
     39a: 85 14        	sta	$14                     ; 0x14 <__rc4>
     39c: a5 13        	lda	$13                     ; 0x13 <__rc3>
     39e: 69 00        	adc	#$0
     3a0: 18           	clc
     3a1: 85 15        	sta	$15                     ; 0x15 <__rc5>
     3a3: a5 12        	lda	$12                     ; 0x12 <__rc2>
     3a5: 91 12        	sta	($12),y                 ; 0x12 <__rc2>
     3a7: a0 02        	ldy	#$2
     3a9: 85 17        	sta	$17                     ; 0x17 <__rc7>
     3ab: 69 02        	adc	#$2
     3ad: 85 16        	sta	$16                     ; 0x16 <__rc6>
     3af: a5 17        	lda	$17                     ; 0x17 <__rc7>
     3b1: 91 12        	sta	($12),y                 ; 0x12 <__rc2>
     3b3: a5 13        	lda	$13                     ; 0x13 <__rc3>
     3b5: 69 00        	adc	#$0
     3b7: 85 17        	sta	$17                     ; 0x17 <__rc7>
     3b9: 88           	dey
     3ba: a5 13        	lda	$13                     ; 0x13 <__rc3>
     3bc: 91 14        	sta	($14),y                 ; 0x14 <__rc4>
     3be: 91 16        	sta	($16),y                 ; 0x16 <__rc6>
     3c0: a6 12        	ldx	$12                     ; 0x12 <__rc2>
     3c2: 8e 99 98     	stx	$9899                   ; 0x9899 <_ZN12_GLOBAL__N_19free_listE>
     3c5: a6 13        	ldx	$13                     ; 0x13 <__rc3>
     3c7: 8e 9a 98     	stx	$989a                   ; 0x989a <_ZN12_GLOBAL__N_19free_listE+0x1>
     3ca: 60           	rts
     3cb: a6 12        	ldx	$12                     ; 0x12 <__rc2>
     3cd: a5 12        	lda	$12                     ; 0x12 <__rc2>
     3cf: 18           	clc
     3d0: 69 02        	adc	#$2
     3d2: 85 14        	sta	$14                     ; 0x14 <__rc4>
     3d4: a4 16        	ldy	$16                     ; 0x16 <__rc6>
     3d6: a5 13        	lda	$13                     ; 0x13 <__rc3>
     3d8: 69 00        	adc	#$0
     3da: 85 15        	sta	$15                     ; 0x15 <__rc5>
     3dc: 84 19        	sty	$19                     ; 0x19 <__rc9>
     3de: a4 17        	ldy	$17                     ; 0x17 <__rc7>
     3e0: 84 1a        	sty	$1a                     ; 0x1a <__rc10>
     3e2: a0 02        	ldy	#$2
     3e4: a5 19        	lda	$19                     ; 0x19 <__rc9>
     3e6: 91 12        	sta	($12),y                 ; 0x12 <__rc2>
     3e8: 84 1d        	sty	$1d                     ; 0x1d <__rc13>
     3ea: a4 18        	ldy	$18                     ; 0x18 <__rc8>
     3ec: a5 1a        	lda	$1a                     ; 0x1a <__rc10>
     3ee: 91 14        	sta	($14),y                 ; 0x14 <__rc4>
     3f0: 84 1e        	sty	$1e                     ; 0x1e <__rc14>
     3f2: 18           	clc
     3f3: a5 19        	lda	$19                     ; 0x19 <__rc9>
     3f5: 69 04        	adc	#$4
     3f7: 85 18        	sta	$18                     ; 0x18 <__rc8>
     3f9: a5 1a        	lda	$1a                     ; 0x1a <__rc10>
     3fb: 69 00        	adc	#$0
     3fd: 85 19        	sta	$19                     ; 0x19 <__rc9>
     3ff: 8a           	txa
     400: 18           	clc
     401: 69 04        	adc	#$4
     403: 85 1a        	sta	$1a                     ; 0x1a <__rc10>
     405: a5 13        	lda	$13                     ; 0x13 <__rc3>
     407: 69 00        	adc	#$0
     409: 85 1b        	sta	$1b                     ; 0x1b <__rc11>
     40b: a0 04        	ldy	#$4
     40d: b1 16        	lda	($16),y                 ; 0x16 <__rc6>
     40f: 85 16        	sta	$16                     ; 0x16 <__rc6>
     411: 85 22        	sta	$22                     ; 0x22 <__rc18>
     413: a4 1e        	ldy	$1e                     ; 0x1e <__rc14>
     415: b1 18        	lda	($18),y                 ; 0x18 <__rc8>
     417: 85 17        	sta	$17                     ; 0x17 <__rc7>
     419: 85 19        	sta	$19                     ; 0x19 <__rc9>
     41b: a0 04        	ldy	#$4
     41d: a5 22        	lda	$22                     ; 0x22 <__rc18>
     41f: 91 12        	sta	($12),y                 ; 0x12 <__rc2>
     421: 84 1f        	sty	$1f                     ; 0x1f <__rc15>
     423: a4 1e        	ldy	$1e                     ; 0x1e <__rc14>
     425: a5 19        	lda	$19                     ; 0x19 <__rc9>
     427: 91 1a        	sta	($1a),y                 ; 0x1a <__rc10>
     429: 84 1a        	sty	$1a                     ; 0x1a <__rc10>
     42b: 18           	clc
     42c: a5 22        	lda	$22                     ; 0x22 <__rc18>
     42e: 69 02        	adc	#$2
     430: 85 18        	sta	$18                     ; 0x18 <__rc8>
     432: a5 19        	lda	$19                     ; 0x19 <__rc9>
     434: 69 00        	adc	#$0
     436: 85 19        	sta	$19                     ; 0x19 <__rc9>
     438: 8a           	txa
     439: a4 1d        	ldy	$1d                     ; 0x1d <__rc13>
     43b: 91 16        	sta	($16),y                 ; 0x16 <__rc6>
     43d: a5 13        	lda	$13                     ; 0x13 <__rc3>
     43f: a4 1a        	ldy	$1a                     ; 0x1a <__rc10>
     441: 91 18        	sta	($18),y                 ; 0x18 <__rc8>
     443: a4 1d        	ldy	$1d                     ; 0x1d <__rc13>
     445: b1 12        	lda	($12),y                 ; 0x12 <__rc2>
     447: 85 16        	sta	$16                     ; 0x16 <__rc6>
     449: 85 19        	sta	$19                     ; 0x19 <__rc9>
     44b: a4 1a        	ldy	$1a                     ; 0x1a <__rc10>
     44d: b1 14        	lda	($14),y                 ; 0x14 <__rc4>
     44f: 84 18        	sty	$18                     ; 0x18 <__rc8>
     451: 85 17        	sta	$17                     ; 0x17 <__rc7>
     453: 85 14        	sta	$14                     ; 0x14 <__rc4>
     455: 8a           	txa
     456: a4 1f        	ldy	$1f                     ; 0x1f <__rc15>
     458: 91 16        	sta	($16),y                 ; 0x16 <__rc6>
     45a: 18           	clc
     45b: a5 19        	lda	$19                     ; 0x19 <__rc9>
     45d: 69 04        	adc	#$4
     45f: a8           	tay
     460: a5 14        	lda	$14                     ; 0x14 <__rc4>
     462: 69 00        	adc	#$0
     464: 84 14        	sty	$14                     ; 0x14 <__rc4>
     466: 85 15        	sta	$15                     ; 0x15 <__rc5>
     468: a5 13        	lda	$13                     ; 0x13 <__rc3>
     46a: a4 18        	ldy	$18                     ; 0x18 <__rc8>
     46c: 91 14        	sta	($14),y                 ; 0x14 <__rc4>
     46e: 60           	rts
     46f: 00           	brk

00000470 <_ZN12_GLOBAL__N_19FreeChunk6removeEv>:
     470: a0 01        	ldy	#$1
     472: a9 fe        	lda	#$fe
     474: 32 12        	and	($12)                   ; 0x12 <__rc2>
     476: 85 14        	sta	$14                     ; 0x14 <__rc4>
     478: ad 97 98     	lda	$9897                   ; 0x9897 <_ZN12_GLOBAL__N_19free_sizeE>
     47b: ae 98 98     	ldx	$9898                   ; 0x9898 <_ZN12_GLOBAL__N_19free_sizeE+0x1>
     47e: 38           	sec
     47f: e5 14        	sbc	$14                     ; 0x14 <__rc4>
     481: 85 17        	sta	$17                     ; 0x17 <__rc7>
     483: 8a           	txa
     484: f1 12        	sbc	($12),y                 ; 0x12 <__rc2>
     486: 85 14        	sta	$14                     ; 0x14 <__rc4>
     488: a2 01        	ldx	#$1
     48a: 86 16        	stx	$16                     ; 0x16 <__rc6>
     48c: 18           	clc
     48d: a5 17        	lda	$17                     ; 0x17 <__rc7>
     48f: 69 02        	adc	#$2
     491: 85 15        	sta	$15                     ; 0x15 <__rc5>
     493: a5 14        	lda	$14                     ; 0x14 <__rc4>
     495: 69 00        	adc	#$0
     497: a6 15        	ldx	$15                     ; 0x15 <__rc5>
     499: 8e 97 98     	stx	$9897                   ; 0x9897 <_ZN12_GLOBAL__N_19free_sizeE>
     49c: 8d 98 98     	sta	$9898                   ; 0x9898 <_ZN12_GLOBAL__N_19free_sizeE+0x1>
     49f: a5 12        	lda	$12                     ; 0x12 <__rc2>
     4a1: 18           	clc
     4a2: 69 02        	adc	#$2
     4a4: 85 14        	sta	$14                     ; 0x14 <__rc4>
     4a6: a5 13        	lda	$13                     ; 0x13 <__rc3>
     4a8: 69 00        	adc	#$0
     4aa: c8           	iny
     4ab: 85 15        	sta	$15                     ; 0x15 <__rc5>
     4ad: b1 12        	lda	($12),y                 ; 0x12 <__rc2>
     4af: aa           	tax
     4b0: a4 16        	ldy	$16                     ; 0x16 <__rc6>
     4b2: b1 14        	lda	($14),y                 ; 0x14 <__rc4>
     4b4: 85 19        	sta	$19                     ; 0x19 <__rc9>
     4b6: c5 13        	cmp	$13                     ; 0x13 <__rc3>
     4b8: d0 0f        	bne	$4c9 <_ZN12_GLOBAL__N_19FreeChunk6removeEv+0x59>
     4ba: e4 12        	cpx	$12                     ; 0x12 <__rc2>
     4bc: d0 0b        	bne	$4c9 <_ZN12_GLOBAL__N_19FreeChunk6removeEv+0x59>
     4be: a2 00        	ldx	#$0
     4c0: 86 14        	stx	$14                     ; 0x14 <__rc4>
     4c2: a2 00        	ldx	#$0
     4c4: 86 15        	stx	$15                     ; 0x15 <__rc5>
     4c6: 4c 55 05     	jmp	$555 <_ZN12_GLOBAL__N_19FreeChunk6removeEv+0xe5>
     4c9: 86 18        	stx	$18                     ; 0x18 <__rc8>
     4cb: a6 12        	ldx	$12                     ; 0x12 <__rc2>
     4cd: a5 12        	lda	$12                     ; 0x12 <__rc2>
     4cf: 86 1c        	stx	$1c                     ; 0x1c <__rc12>
     4d1: 18           	clc
     4d2: 69 04        	adc	#$4
     4d4: 85 14        	sta	$14                     ; 0x14 <__rc4>
     4d6: a5 13        	lda	$13                     ; 0x13 <__rc3>
     4d8: 69 00        	adc	#$0
     4da: a0 04        	ldy	#$4
     4dc: 85 15        	sta	$15                     ; 0x15 <__rc5>
     4de: b1 12        	lda	($12),y                 ; 0x12 <__rc2>
     4e0: 85 1d        	sta	$1d                     ; 0x1d <__rc13>
     4e2: a2 04        	ldx	#$4
     4e4: 86 1a        	stx	$1a                     ; 0x1a <__rc10>
     4e6: 18           	clc
     4e7: 69 02        	adc	#$2
     4e9: 85 16        	sta	$16                     ; 0x16 <__rc6>
     4eb: a0 01        	ldy	#$1
     4ed: b1 14        	lda	($14),y                 ; 0x14 <__rc4>
     4ef: aa           	tax
     4f0: 84 1e        	sty	$1e                     ; 0x1e <__rc14>
     4f2: 69 00        	adc	#$0
     4f4: a4 16        	ldy	$16                     ; 0x16 <__rc6>
     4f6: 84 14        	sty	$14                     ; 0x14 <__rc4>
     4f8: 85 15        	sta	$15                     ; 0x15 <__rc5>
     4fa: a4 1d        	ldy	$1d                     ; 0x1d <__rc13>
     4fc: 84 16        	sty	$16                     ; 0x16 <__rc6>
     4fe: 86 17        	stx	$17                     ; 0x17 <__rc7>
     500: a5 18        	lda	$18                     ; 0x18 <__rc8>
     502: a0 02        	ldy	#$2
     504: 91 16        	sta	($16),y                 ; 0x16 <__rc6>
     506: 84 16        	sty	$16                     ; 0x16 <__rc6>
     508: a5 19        	lda	$19                     ; 0x19 <__rc9>
     50a: a4 1e        	ldy	$1e                     ; 0x1e <__rc14>
     50c: 91 14        	sta	($14),y                 ; 0x14 <__rc4>
     50e: 18           	clc
     50f: a5 1c        	lda	$1c                     ; 0x1c <__rc12>
     511: 69 02        	adc	#$2
     513: 85 14        	sta	$14                     ; 0x14 <__rc4>
     515: a5 13        	lda	$13                     ; 0x13 <__rc3>
     517: 69 00        	adc	#$0
     519: 85 15        	sta	$15                     ; 0x15 <__rc5>
     51b: a4 16        	ldy	$16                     ; 0x16 <__rc6>
     51d: b1 12        	lda	($12),y                 ; 0x12 <__rc2>
     51f: 85 16        	sta	$16                     ; 0x16 <__rc6>
     521: a4 1e        	ldy	$1e                     ; 0x1e <__rc14>
     523: b1 14        	lda	($14),y                 ; 0x14 <__rc4>
     525: 84 18        	sty	$18                     ; 0x18 <__rc8>
     527: a4 16        	ldy	$16                     ; 0x16 <__rc6>
     529: 84 14        	sty	$14                     ; 0x14 <__rc4>
     52b: 85 15        	sta	$15                     ; 0x15 <__rc5>
     52d: 85 17        	sta	$17                     ; 0x17 <__rc7>
     52f: a4 1a        	ldy	$1a                     ; 0x1a <__rc10>
     531: a5 1d        	lda	$1d                     ; 0x1d <__rc13>
     533: 91 14        	sta	($14),y                 ; 0x14 <__rc4>
     535: 18           	clc
     536: a5 16        	lda	$16                     ; 0x16 <__rc6>
     538: 69 04        	adc	#$4
     53a: 85 16        	sta	$16                     ; 0x16 <__rc6>
     53c: a5 17        	lda	$17                     ; 0x17 <__rc7>
     53e: 69 00        	adc	#$0
     540: 85 17        	sta	$17                     ; 0x17 <__rc7>
     542: 8a           	txa
     543: a4 18        	ldy	$18                     ; 0x18 <__rc8>
     545: 91 16        	sta	($16),y                 ; 0x16 <__rc6>
     547: ae 9a 98     	ldx	$989a                   ; 0x989a <_ZN12_GLOBAL__N_19free_listE+0x1>
     54a: e4 13        	cpx	$13                     ; 0x13 <__rc3>
     54c: d0 11        	bne	$55f <_ZN12_GLOBAL__N_19FreeChunk6removeEv+0xef>
     54e: ae 99 98     	ldx	$9899                   ; 0x9899 <_ZN12_GLOBAL__N_19free_listE>
     551: e4 12        	cpx	$12                     ; 0x12 <__rc2>
     553: d0 0a        	bne	$55f <_ZN12_GLOBAL__N_19FreeChunk6removeEv+0xef>
     555: a6 14        	ldx	$14                     ; 0x14 <__rc4>
     557: a4 15        	ldy	$15                     ; 0x15 <__rc5>
     559: 8e 99 98     	stx	$9899                   ; 0x9899 <_ZN12_GLOBAL__N_19free_listE>
     55c: 8c 9a 98     	sty	$989a                   ; 0x989a <_ZN12_GLOBAL__N_19free_listE+0x1>
     55f: 60           	rts

00000560 <__zero_bss>:
     560: a2 1f        	ldx	#$1f
     562: a0 00        	ldy	#$0
     564: a9 7c        	lda	#$7c
     566: 85 12        	sta	$12                     ; 0x12 <__rc2>
     568: a9 98        	lda	#$98
     56a: 85 13        	sta	$13                     ; 0x13 <__rc3>
     56c: a9 00        	lda	#$0
     56e: 84 14        	sty	$14                     ; 0x14 <__rc4>
     570: 4c 17 6f     	jmp	$6f17 <__memset>

00000573 <__zero_zp_bss>:
     573: a2 55        	ldx	#$55
     575: a0 00        	ldy	#$0
     577: a9 33        	lda	#$33
     579: 85 12        	sta	$12                     ; 0x12 <__rc2>
     57b: a9 00        	lda	#$0
     57d: 85 13        	sta	$13                     ; 0x13 <__rc3>
     57f: a9 00        	lda	#$0
     581: 84 14        	sty	$14                     ; 0x14 <__rc4>
     583: 4c 17 6f     	jmp	$6f17 <__memset>

00000586 <__copy_zp_data>:
     586: a9 03        	lda	#$3
     588: a2 00        	ldx	#$0
     58a: a0 30        	ldy	#$30
     58c: 84 12        	sty	$12                     ; 0x12 <__rc2>
     58e: a0 00        	ldy	#$0
     590: 84 13        	sty	$13                     ; 0x13 <__rc3>
     592: a0 00        	ldy	#$0
     594: 84 14        	sty	$14                     ; 0x14 <__rc4>
     596: a0 03        	ldy	#$3
     598: 84 15        	sty	$15                     ; 0x15 <__rc5>
     59a: 4c eb 6e     	jmp	$6eeb <memcpy>

0000059d <f256Init>:
     59d: 64 14        	stz	$14                     ; 0x14 <__rc4>
     59f: a2 00        	ldx	#$0
     5a1: 86 12        	stx	$12                     ; 0x12 <__rc2>
     5a3: a2 c0        	ldx	#$c0
     5a5: 86 13        	stx	$13                     ; 0x13 <__rc3>
     5a7: 64 01        	stz	$1                      ; 0x1 <__data_size+0x1>
     5a9: a2 3f        	ldx	#$3f
     5ab: 8e 00 d0     	stx	$d000                   ; 0xd000 <end_block9+0x3762>
     5ae: a2 b3        	ldx	#$b3
     5b0: 86 00        	stx	$0                      ; 0x0 <__data_size>
     5b2: 64 08        	stz	$8                      ; 0x8 <__zp_data_size+0x5>
     5b4: a2 01        	ldx	#$1
     5b6: 86 09        	stx	$9                      ; 0x9 <__zp_data_size+0x6>
     5b8: e8           	inx
     5b9: 86 0a        	stx	$a                      ; 0xa <__zp_data_size+0x7>
     5bb: e8           	inx
     5bc: 86 0b        	stx	$b                      ; 0xb <__zp_data_size+0x8>
     5be: e8           	inx
     5bf: 86 0c        	stx	$c                      ; 0xc <__zp_data_size+0x9>
     5c1: e8           	inx
     5c2: 86 0d        	stx	$d                      ; 0xd <__zp_data_size+0xa>
     5c4: a2 81        	ldx	#$81
     5c6: a0 00        	ldy	#$0
     5c8: 86 f0        	stx	$f0                     ; 0xf0 <__zp_bss_size+0x9b>
     5ca: 84 f1        	sty	$f1                     ; 0xf1 <__zp_bss_size+0x9c>
     5cc: a2 00        	ldx	#$0
     5ce: 86 18        	stx	$18                     ; 0x18 <__rc8>
     5d0: ca           	dex
     5d1: 86 19        	stx	$19                     ; 0x19 <__rc9>
     5d3: 8a           	txa
     5d4: 0a           	asl
     5d5: 0a           	asl
     5d6: 18           	clc
     5d7: 69 d4        	adc	#$d4
     5d9: 85 1a        	sta	$1a                     ; 0x1a <__rc10>
     5db: a0 00        	ldy	#$0
     5dd: 64 17        	stz	$17                     ; 0x17 <__rc7>
     5df: 64 16        	stz	$16                     ; 0x16 <__rc6>
     5e1: a6 19        	ldx	$19                     ; 0x19 <__rc9>
     5e3: e0 03        	cpx	#$3
     5e5: a6 01        	ldx	$1                      ; 0x1 <__data_size+0x1>
     5e7: 86 1c        	stx	$1c                     ; 0x1c <__rc12>
     5e9: a2 d0        	ldx	#$d0
     5eb: 84 1b        	sty	$1b                     ; 0x1b <__rc11>
     5ed: b0 02        	bcs	$5f1 <f256Init+0x54>
     5ef: a6 1a        	ldx	$1a                     ; 0x1a <__rc10>
     5f1: 86 15        	stx	$15                     ; 0x15 <__rc5>
     5f3: a5 17        	lda	$17                     ; 0x17 <__rc7>
     5f5: 18           	clc
     5f6: 65 14        	adc	$14                     ; 0x14 <__rc4>
     5f8: a8           	tay
     5f9: a6 17        	ldx	$17                     ; 0x17 <__rc7>
     5fb: a5 16        	lda	$16                     ; 0x16 <__rc6>
     5fd: 85 1d        	sta	$1d                     ; 0x1d <__rc13>
     5ff: a5 16        	lda	$16                     ; 0x16 <__rc6>
     601: 65 15        	adc	$15                     ; 0x15 <__rc5>
     603: 84 16        	sty	$16                     ; 0x16 <__rc6>
     605: a0 01        	ldy	#$1
     607: 84 01        	sty	$1                      ; 0x1 <__data_size+0x1>
     609: 85 17        	sta	$17                     ; 0x17 <__rc7>
     60b: a5 1b        	lda	$1b                     ; 0x1b <__rc11>
     60d: 92 16        	sta	($16)                   ; 0x16 <__rc6>
     60f: 91 16        	sta	($16),y                 ; 0x16 <__rc6>
     611: c8           	iny
     612: 91 16        	sta	($16),y                 ; 0x16 <__rc6>
     614: 85 15        	sta	$15                     ; 0x15 <__rc5>
     616: c8           	iny
     617: a9 ff        	lda	#$ff
     619: 91 16        	sta	($16),y                 ; 0x16 <__rc6>
     61b: 8a           	txa
     61c: a6 1c        	ldx	$1c                     ; 0x1c <__rc12>
     61e: 86 01        	stx	$1                      ; 0x1 <__data_size+0x1>
     620: 18           	clc
     621: 69 04        	adc	#$4
     623: 85 17        	sta	$17                     ; 0x17 <__rc7>
     625: a5 1d        	lda	$1d                     ; 0x1d <__rc13>
     627: 69 00        	adc	#$0
     629: e6 15        	inc	$15                     ; 0x15 <__rc5>
     62b: a4 15        	ldy	$15                     ; 0x15 <__rc5>
     62d: 85 16        	sta	$16                     ; 0x16 <__rc6>
     62f: c9 04        	cmp	#$4
     631: f0 03        	beq	$636 <f256Init+0x99>
     633: 4c e1 05     	jmp	$5e1 <f256Init+0x44>
     636: a5 17        	lda	$17                     ; 0x17 <__rc7>
     638: f0 03        	beq	$63d <f256Init+0xa0>
     63a: 4c e1 05     	jmp	$5e1 <f256Init+0x44>
     63d: a6 18        	ldx	$18                     ; 0x18 <__rc8>
     63f: e8           	inx
     640: e0 04        	cpx	#$4
     642: f0 03        	beq	$647 <f256Init+0xaa>
     644: 4c ce 05     	jmp	$5ce <f256Init+0x31>
     647: ad 02 d0     	lda	$d002                   ; 0xd002 <end_block9+0x3764>
     64a: a2 f0        	ldx	#$f0
     64c: 29 f0        	and	#$f0
     64e: 8d 02 d0     	sta	$d002                   ; 0xd002 <end_block9+0x3764>
     651: ad 02 d0     	lda	$d002                   ; 0xd002 <end_block9+0x3764>
     654: 29 0f        	and	#$f
     656: 09 10        	ora	#$10
     658: 8d 02 d0     	sta	$d002                   ; 0xd002 <end_block9+0x3764>
     65b: a0 02        	ldy	#$2
     65d: 8c 03 d0     	sty	$d003                   ; 0xd003 <end_block9+0x3765>
     660: 86 30        	stx	$30                     ; 0x30 <_ccolor>
     662: ad 01 d0     	lda	$d001                   ; 0xd001 <end_block9+0x3763>
     665: 29 f9        	and	#$f9
     667: 09 04        	ora	#$4
     669: 8d 01 d0     	sta	$d001                   ; 0xd001 <end_block9+0x3763>
     66c: 64 14        	stz	$14                     ; 0x14 <__rc4>
     66e: 9c 10 d0     	stz	$d010                   ; 0xd010 <end_block9+0x3772>
     671: a2 00        	ldx	#$0
     673: 64 15        	stz	$15                     ; 0x15 <__rc5>
     675: 86 18        	stx	$18                     ; 0x18 <__rc8>
     677: a4 18        	ldy	$18                     ; 0x18 <__rc8>
     679: be 8e 84     	ldx	$848e,y                 ; 0x848e <textColors>
     67c: 86 19        	stx	$19                     ; 0x19 <__rc9>
     67e: be 8f 84     	ldx	$848f,y                 ; 0x848f <textColors+0x1>
     681: 86 1a        	stx	$1a                     ; 0x1a <__rc10>
     683: be 90 84     	ldx	$8490,y                 ; 0x8490 <textColors+0x2>
     686: 86 1b        	stx	$1b                     ; 0x1b <__rc11>
     688: a6 15        	ldx	$15                     ; 0x15 <__rc5>
     68a: 8e 00 de     	stx	$de00                   ; 0xde00 <end_block9+0x4562>
     68d: 86 17        	stx	$17                     ; 0x17 <__rc7>
     68f: 9c 01 de     	stz	$de01                   ; 0xde01 <end_block9+0x4563>
     692: a2 04        	ldx	#$4
     694: 8e 02 de     	stx	$de02                   ; 0xde02 <end_block9+0x4564>
     697: 86 1d        	stx	$1d                     ; 0x1d <__rc13>
     699: 9c 03 de     	stz	$de03                   ; 0xde03 <end_block9+0x4565>
     69c: ad 10 de     	lda	$de10                   ; 0xde10 <end_block9+0x4572>
     69f: ac 11 de     	ldy	$de11                   ; 0xde11 <end_block9+0x4573>
     6a2: 84 15        	sty	$15                     ; 0x15 <__rc5>
     6a4: ac 12 de     	ldy	$de12                   ; 0xde12 <end_block9+0x4574>
     6a7: ac 13 de     	ldy	$de13                   ; 0xde13 <end_block9+0x4575>
     6aa: a2 00        	ldx	#$0
     6ac: 18           	clc
     6ad: 65 14        	adc	$14                     ; 0x14 <__rc4>
     6af: a8           	tay
     6b0: 86 1f        	stx	$1f                     ; 0x1f <__rc15>
     6b2: a6 17        	ldx	$17                     ; 0x17 <__rc7>
     6b4: a9 d8        	lda	#$d8
     6b6: 65 15        	adc	$15                     ; 0x15 <__rc5>
     6b8: 84 16        	sty	$16                     ; 0x16 <__rc6>
     6ba: 85 17        	sta	$17                     ; 0x17 <__rc7>
     6bc: a5 1b        	lda	$1b                     ; 0x1b <__rc11>
     6be: 92 16        	sta	($16)                   ; 0x16 <__rc6>
     6c0: a0 01        	ldy	#$1
     6c2: a5 1a        	lda	$1a                     ; 0x1a <__rc10>
     6c4: 91 16        	sta	($16),y                 ; 0x16 <__rc6>
     6c6: 84 1c        	sty	$1c                     ; 0x1c <__rc12>
     6c8: c8           	iny
     6c9: a5 19        	lda	$19                     ; 0x19 <__rc9>
     6cb: 91 16        	sta	($16),y                 ; 0x16 <__rc6>
     6cd: 84 1e        	sty	$1e                     ; 0x1e <__rc14>
     6cf: c8           	iny
     6d0: a9 ff        	lda	#$ff
     6d2: 91 16        	sta	($16),y                 ; 0x16 <__rc6>
     6d4: 85 23        	sta	$23                     ; 0x23 <__rc19>
     6d6: 84 22        	sty	$22                     ; 0x22 <__rc18>
     6d8: 8e 00 de     	stx	$de00                   ; 0xde00 <end_block9+0x4562>
     6db: 9c 01 de     	stz	$de01                   ; 0xde01 <end_block9+0x4563>
     6de: a4 1d        	ldy	$1d                     ; 0x1d <__rc13>
     6e0: 8c 02 de     	sty	$de02                   ; 0xde02 <end_block9+0x4564>
     6e3: 9c 03 de     	stz	$de03                   ; 0xde03 <end_block9+0x4565>
     6e6: ad 10 de     	lda	$de10                   ; 0xde10 <end_block9+0x4572>
     6e9: 85 15        	sta	$15                     ; 0x15 <__rc5>
     6eb: ad 11 de     	lda	$de11                   ; 0xde11 <end_block9+0x4573>
     6ee: 85 16        	sta	$16                     ; 0x16 <__rc6>
     6f0: a9 40        	lda	#$40
     6f2: a4 1f        	ldy	$1f                     ; 0x1f <__rc15>
     6f4: c0 01        	cpy	#$1
     6f6: 65 15        	adc	$15                     ; 0x15 <__rc5>
     6f8: a8           	tay
     6f9: a9 d8        	lda	#$d8
     6fb: 65 16        	adc	$16                     ; 0x16 <__rc6>
     6fd: 85 17        	sta	$17                     ; 0x17 <__rc7>
     6ff: 84 16        	sty	$16                     ; 0x16 <__rc6>
     701: ad 12 de     	lda	$de12                   ; 0xde12 <end_block9+0x4574>
     704: ad 13 de     	lda	$de13                   ; 0xde13 <end_block9+0x4575>
     707: a5 1b        	lda	$1b                     ; 0x1b <__rc11>
     709: 92 16        	sta	($16)                   ; 0x16 <__rc6>
     70b: a5 1a        	lda	$1a                     ; 0x1a <__rc10>
     70d: a4 1c        	ldy	$1c                     ; 0x1c <__rc12>
     70f: 91 16        	sta	($16),y                 ; 0x16 <__rc6>
     711: a5 19        	lda	$19                     ; 0x19 <__rc9>
     713: a4 1e        	ldy	$1e                     ; 0x1e <__rc14>
     715: 91 16        	sta	($16),y                 ; 0x16 <__rc6>
     717: a4 22        	ldy	$22                     ; 0x22 <__rc18>
     719: a5 23        	lda	$23                     ; 0x23 <__rc19>
     71b: 91 16        	sta	($16),y                 ; 0x16 <__rc6>
     71d: e8           	inx
     71e: 86 15        	stx	$15                     ; 0x15 <__rc5>
     720: 18           	clc
     721: a5 18        	lda	$18                     ; 0x18 <__rc8>
     723: 69 03        	adc	#$3
     725: aa           	tax
     726: c9 30        	cmp	#$30
     728: f0 03        	beq	$72d <f256Init+0x190>
     72a: 4c 75 06     	jmp	$675 <f256Init+0xd8>
     72d: a6 01        	ldx	$1                      ; 0x1 <__data_size+0x1>
     72f: 86 18        	stx	$18                     ; 0x18 <__rc8>
     731: a2 50        	ldx	#$50
     733: 8e 00 de     	stx	$de00                   ; 0xde00 <end_block9+0x4562>
     736: 9c 01 de     	stz	$de01                   ; 0xde01 <end_block9+0x4563>
     739: a2 1e        	ldx	#$1e
     73b: 8e 02 de     	stx	$de02                   ; 0xde02 <end_block9+0x4564>
     73e: 9c 03 de     	stz	$de03                   ; 0xde03 <end_block9+0x4565>
     741: ae 10 de     	ldx	$de10                   ; 0xde10 <end_block9+0x4572>
     744: ac 11 de     	ldy	$de11                   ; 0xde11 <end_block9+0x4573>
     747: ad 12 de     	lda	$de12                   ; 0xde12 <end_block9+0x4574>
     74a: ad 13 de     	lda	$de13                   ; 0xde13 <end_block9+0x4575>
     74d: a9 02        	lda	#$2
     74f: 85 01        	sta	$1                      ; 0x1 <__data_size+0x1>
     751: e0 01        	cpx	#$1
     753: 98           	tya
     754: e9 00        	sbc	#$0
     756: 50 02        	bvc	$75a <f256Init+0x1bd>
     758: 49 80        	eor	#$80
     75a: c9 00        	cmp	#$0
     75c: 30 4c        	bmi	$7aa <f256Init+0x20d>
     75e: a9 20        	lda	#$20
     760: 86 19        	stx	$19                     ; 0x19 <__rc9>
     762: 86 14        	stx	$14                     ; 0x14 <__rc4>
     764: 84 15        	sty	$15                     ; 0x15 <__rc5>
     766: a2 00        	ldx	#$0
     768: 86 16        	stx	$16                     ; 0x16 <__rc6>
     76a: a2 c0        	ldx	#$c0
     76c: 86 17        	stx	$17                     ; 0x17 <__rc7>
     76e: 92 16        	sta	($16)                   ; 0x16 <__rc6>
     770: e6 16        	inc	$16                     ; 0x16 <__rc6>
     772: d0 02        	bne	$776 <f256Init+0x1d9>
     774: e6 17        	inc	$17                     ; 0x17 <__rc7>
     776: a2 ff        	ldx	#$ff
     778: c6 14        	dec	$14                     ; 0x14 <__rc4>
     77a: e4 14        	cpx	$14                     ; 0x14 <__rc4>
     77c: d0 02        	bne	$780 <f256Init+0x1e3>
     77e: c6 15        	dec	$15                     ; 0x15 <__rc5>
     780: a6 15        	ldx	$15                     ; 0x15 <__rc5>
     782: d0 ea        	bne	$76e <f256Init+0x1d1>
     784: a6 14        	ldx	$14                     ; 0x14 <__rc4>
     786: d0 e6        	bne	$76e <f256Init+0x1d1>
     788: a2 03        	ldx	#$3
     78a: 86 01        	stx	$1                      ; 0x1 <__data_size+0x1>
     78c: a6 30        	ldx	$30                     ; 0x30 <_ccolor>
     78e: 86 14        	stx	$14                     ; 0x14 <__rc4>
     790: a6 19        	ldx	$19                     ; 0x19 <__rc9>
     792: a5 14        	lda	$14                     ; 0x14 <__rc4>
     794: 92 12        	sta	($12)                   ; 0x12 <__rc2>
     796: e6 12        	inc	$12                     ; 0x12 <__rc2>
     798: d0 02        	bne	$79c <f256Init+0x1ff>
     79a: e6 13        	inc	$13                     ; 0x13 <__rc3>
     79c: ca           	dex
     79d: e0 ff        	cpx	#$ff
     79f: d0 01        	bne	$7a2 <f256Init+0x205>
     7a1: 88           	dey
     7a2: 98           	tya
     7a3: d0 ed        	bne	$792 <f256Init+0x1f5>
     7a5: 8a           	txa
     7a6: d0 ea        	bne	$792 <f256Init+0x1f5>
     7a8: 80 04        	bra	$7ae <f256Init+0x211>
     7aa: a2 03        	ldx	#$3
     7ac: 86 01        	stx	$1                      ; 0x1 <__data_size+0x1>
     7ae: a6 18        	ldx	$18                     ; 0x18 <__rc8>
     7b0: 86 01        	stx	$1                      ; 0x1 <__data_size+0x1>
     7b2: 64 33        	stz	$33                     ; 0x33 <_col>
     7b4: 9c 14 d0     	stz	$d014                   ; 0xd014 <end_block9+0x3776>
     7b7: 9c 15 d0     	stz	$d015                   ; 0xd015 <end_block9+0x3777>
     7ba: 64 34        	stz	$34                     ; 0x34 <_row>
     7bc: 9c 16 d0     	stz	$d016                   ; 0xd016 <end_block9+0x3778>
     7bf: 9c 17 d0     	stz	$d017                   ; 0xd017 <end_block9+0x3779>
     7c2: a2 40        	ldx	#$40
     7c4: 8e 00 de     	stx	$de00                   ; 0xde00 <end_block9+0x4562>
     7c7: a2 01        	ldx	#$1
     7c9: 8e 01 de     	stx	$de01                   ; 0xde01 <end_block9+0x4563>
     7cc: a2 f0        	ldx	#$f0
     7ce: 8e 02 de     	stx	$de02                   ; 0xde02 <end_block9+0x4564>
     7d1: 9c 03 de     	stz	$de03                   ; 0xde03 <end_block9+0x4565>
     7d4: ae 10 de     	ldx	$de10                   ; 0xde10 <end_block9+0x4572>
     7d7: 86 17        	stx	$17                     ; 0x17 <__rc7>
     7d9: ae 11 de     	ldx	$de11                   ; 0xde11 <end_block9+0x4573>
     7dc: 86 12        	stx	$12                     ; 0x12 <__rc2>
     7de: ae 12 de     	ldx	$de12                   ; 0xde12 <end_block9+0x4574>
     7e1: 86 13        	stx	$13                     ; 0x13 <__rc3>
     7e3: ae 13 de     	ldx	$de13                   ; 0xde13 <end_block9+0x4575>
     7e6: 86 14        	stx	$14                     ; 0x14 <__rc4>
     7e8: a4 12        	ldy	$12                     ; 0x12 <__rc2>
     7ea: 84 15        	sty	$15                     ; 0x15 <__rc5>
     7ec: 06 15        	asl	$15                     ; 0x15 <__rc5>
     7ee: a5 13        	lda	$13                     ; 0x13 <__rc3>
     7f0: 2a           	rol
     7f1: 86 16        	stx	$16                     ; 0x16 <__rc6>
     7f3: 26 16        	rol	$16                     ; 0x16 <__rc6>
     7f5: 06 15        	asl	$15                     ; 0x15 <__rc5>
     7f7: 2a           	rol
     7f8: 26 16        	rol	$16                     ; 0x16 <__rc6>
     7fa: 06 15        	asl	$15                     ; 0x15 <__rc5>
     7fc: 2a           	rol
     7fd: 26 16        	rol	$16                     ; 0x16 <__rc6>
     7ff: 85 15        	sta	$15                     ; 0x15 <__rc5>
     801: 8d 00 de     	sta	$de00                   ; 0xde00 <end_block9+0x4562>
     804: a5 16        	lda	$16                     ; 0x16 <__rc6>
     806: 8d 01 de     	sta	$de01                   ; 0xde01 <end_block9+0x4563>
     809: 9c 02 de     	stz	$de02                   ; 0xde02 <end_block9+0x4564>
     80c: a2 20        	ldx	#$20
     80e: 8e 03 de     	stx	$de03                   ; 0xde03 <end_block9+0x4565>
     811: ae 10 de     	ldx	$de10                   ; 0xde10 <end_block9+0x4572>
     814: 86 16        	stx	$16                     ; 0x16 <__rc6>
     816: ae 11 de     	ldx	$de11                   ; 0xde11 <end_block9+0x4573>
     819: 86 18        	stx	$18                     ; 0x18 <__rc8>
     81b: ac 12 de     	ldy	$de12                   ; 0xde12 <end_block9+0x4574>
     81e: ae 13 de     	ldx	$de13                   ; 0xde13 <end_block9+0x4575>
     821: e4 14        	cpx	$14                     ; 0x14 <__rc4>
     823: d0 14        	bne	$839 <f256Init+0x29c>
     825: c4 13        	cpy	$13                     ; 0x13 <__rc3>
     827: d0 10        	bne	$839 <f256Init+0x29c>
     829: a6 18        	ldx	$18                     ; 0x18 <__rc8>
     82b: e4 12        	cpx	$12                     ; 0x12 <__rc2>
     82d: d0 0a        	bne	$839 <f256Init+0x29c>
     82f: a6 16        	ldx	$16                     ; 0x16 <__rc6>
     831: e4 17        	cpx	$17                     ; 0x17 <__rc7>
     833: d0 04        	bne	$839 <f256Init+0x29c>
     835: a6 15        	ldx	$15                     ; 0x15 <__rc5>
     837: 80 06        	bra	$83f <f256Init+0x2a2>
     839: a6 15        	ldx	$15                     ; 0x15 <__rc5>
     83b: e8           	inx
     83c: d0 01        	bne	$83f <f256Init+0x2a2>
     83e: 1a           	inc
     83f: 8e 00 de     	stx	$de00                   ; 0xde00 <end_block9+0x4562>
     842: 8d 01 de     	sta	$de01                   ; 0xde01 <end_block9+0x4563>
     845: 9c 02 de     	stz	$de02                   ; 0xde02 <end_block9+0x4564>
     848: a2 20        	ldx	#$20
     84a: 8e 03 de     	stx	$de03                   ; 0xde03 <end_block9+0x4565>
     84d: ae 10 de     	ldx	$de10                   ; 0xde10 <end_block9+0x4572>
     850: 86 12        	stx	$12                     ; 0x12 <__rc2>
     852: ae 11 de     	ldx	$de11                   ; 0xde11 <end_block9+0x4573>
     855: 86 13        	stx	$13                     ; 0x13 <__rc3>
     857: ae 12 de     	ldx	$de12                   ; 0xde12 <end_block9+0x4574>
     85a: 86 14        	stx	$14                     ; 0x14 <__rc4>
     85c: ae 13 de     	ldx	$de13                   ; 0xde13 <end_block9+0x4575>
     85f: 86 15        	stx	$15                     ; 0x15 <__rc5>
     861: a9 00        	lda	#$0
     863: 38           	sec
     864: e5 12        	sbc	$12                     ; 0x12 <__rc2>
     866: 85 17        	sta	$17                     ; 0x17 <__rc7>
     868: a9 00        	lda	#$0
     86a: e5 13        	sbc	$13                     ; 0x13 <__rc3>
     86c: aa           	tax
     86d: a9 08        	lda	#$8
     86f: e5 14        	sbc	$14                     ; 0x14 <__rc4>
     871: 85 16        	sta	$16                     ; 0x16 <__rc6>
     873: a9 00        	lda	#$0
     875: e5 15        	sbc	$15                     ; 0x15 <__rc5>
     877: 8e 7d 98     	stx	$987d                   ; 0x987d <__bss_start+0x1>
     87a: a4 16        	ldy	$16                     ; 0x16 <__rc6>
     87c: 8c 7e 98     	sty	$987e                   ; 0x987e <__bss_start+0x2>
     87f: 8d 7f 98     	sta	$987f                   ; 0x987f <__bss_start+0x3>
     882: 38           	sec
     883: a5 17        	lda	$17                     ; 0x17 <__rc7>
     885: e5 12        	sbc	$12                     ; 0x12 <__rc2>
     887: a8           	tay
     888: 8a           	txa
     889: e5 13        	sbc	$13                     ; 0x13 <__rc3>
     88b: 85 18        	sta	$18                     ; 0x18 <__rc8>
     88d: a5 16        	lda	$16                     ; 0x16 <__rc6>
     88f: e5 14        	sbc	$14                     ; 0x14 <__rc4>
     891: 85 15        	sta	$15                     ; 0x15 <__rc5>
     893: 98           	tya
     894: 84 16        	sty	$16                     ; 0x16 <__rc6>
     896: 38           	sec
     897: e5 12        	sbc	$12                     ; 0x12 <__rc2>
     899: 85 12        	sta	$12                     ; 0x12 <__rc2>
     89b: a5 18        	lda	$18                     ; 0x18 <__rc8>
     89d: e5 13        	sbc	$13                     ; 0x13 <__rc3>
     89f: 85 13        	sta	$13                     ; 0x13 <__rc3>
     8a1: a4 15        	ldy	$15                     ; 0x15 <__rc5>
     8a3: a5 15        	lda	$15                     ; 0x15 <__rc5>
     8a5: e5 14        	sbc	$14                     ; 0x14 <__rc4>
     8a7: a6 17        	ldx	$17                     ; 0x17 <__rc7>
     8a9: 8e 7c 98     	stx	$987c                   ; 0x987c <__bss_start>
     8ac: 8e 01 d1     	stx	$d101                   ; 0xd101 <end_block9+0x3863>
     8af: ae 7d 98     	ldx	$987d                   ; 0x987d <__bss_start+0x1>
     8b2: 8e 02 d1     	stx	$d102                   ; 0xd102 <end_block9+0x3864>
     8b5: ae 7e 98     	ldx	$987e                   ; 0x987e <__bss_start+0x2>
     8b8: 8e 03 d1     	stx	$d103                   ; 0xd103 <end_block9+0x3865>
     8bb: a6 16        	ldx	$16                     ; 0x16 <__rc6>
     8bd: 8e 09 d1     	stx	$d109                   ; 0xd109 <end_block9+0x386b>
     8c0: a6 18        	ldx	$18                     ; 0x18 <__rc8>
     8c2: 8e 0a d1     	stx	$d10a                   ; 0xd10a <end_block9+0x386c>
     8c5: 8c 0b d1     	sty	$d10b                   ; 0xd10b <end_block9+0x386d>
     8c8: a6 12        	ldx	$12                     ; 0x12 <__rc2>
     8ca: 8e 11 d1     	stx	$d111                   ; 0xd111 <end_block9+0x3873>
     8cd: a6 13        	ldx	$13                     ; 0x13 <__rc3>
     8cf: 8e 12 d1     	stx	$d112                   ; 0xd112 <end_block9+0x3874>
     8d2: 8d 13 d1     	sta	$d113                   ; 0xd113 <end_block9+0x3875>
     8d5: 9c 00 d1     	stz	$d100                   ; 0xd100 <end_block9+0x3862>
     8d8: 9c 08 d1     	stz	$d108                   ; 0xd108 <end_block9+0x386a>
     8db: 9c 10 d1     	stz	$d110                   ; 0xd110 <end_block9+0x3872>
     8de: a2 10        	ldx	#$10
     8e0: 8e 00 d2     	stx	$d200                   ; 0xd200 <end_block9+0x3962>
     8e3: 8e 0c d2     	stx	$d20c                   ; 0xd20c <end_block9+0x396e>
     8e6: 8e 18 d2     	stx	$d218                   ; 0xd218 <end_block9+0x397a>
     8e9: a0 d9        	ldy	#$d9
     8eb: a2 40        	ldx	#$40
     8ed: 64 12        	stz	$12                     ; 0x12 <__rc2>
     8ef: 84 13        	sty	$13                     ; 0x13 <__rc3>
     8f1: a9 00        	lda	#$0
     8f3: 92 12        	sta	($12)                   ; 0x12 <__rc2>
     8f5: ca           	dex
     8f6: 18           	clc
     8f7: a5 12        	lda	$12                     ; 0x12 <__rc2>
     8f9: 69 08        	adc	#$8
     8fb: 85 12        	sta	$12                     ; 0x12 <__rc2>
     8fd: 98           	tya
     8fe: 69 00        	adc	#$0
     900: a8           	tay
     901: 8a           	txa
     902: d0 eb        	bne	$8ef <f256Init+0x352>
     904: a2 88        	ldx	#$88
     906: a0 00        	ldy	#$0
     908: 86 fb        	stx	$fb                     ; 0xfb <__zp_bss_size+0xa6>
     90a: 84 fc        	sty	$fc                     ; 0xfc <__zp_bss_size+0xa7>
     90c: a2 08        	ldx	#$8
     90e: 86 fd        	stx	$fd                     ; 0xfd <__zp_bss_size+0xa8>
     910: a2 90        	ldx	#$90
     912: a0 00        	ldy	#$0
     914: 86 12        	stx	$12                     ; 0x12 <__rc2>
     916: 84 13        	sty	$13                     ; 0x13 <__rc3>
     918: a2 94        	ldx	#$94
     91a: 86 14        	stx	$14                     ; 0x14 <__rc4>
     91c: a2 98        	ldx	#$98
     91e: 86 15        	stx	$15                     ; 0x15 <__rc5>
     920: 20 dc ff     	jsr	$ffdc <end_block9+0x673e>
     923: 92 12        	sta	($12)                   ; 0x12 <__rc2>
     925: a9 00        	lda	#$0
     927: 6a           	ror
     928: 85 14        	sta	$14                     ; 0x14 <__rc4>
     92a: a6 8e        	ldx	$8e                     ; 0x8e <__zp_bss_size+0x39>
     92c: a4 8f        	ldy	$8f                     ; 0x8f <__zp_bss_size+0x3a>
     92e: 8e 00 de     	stx	$de00                   ; 0xde00 <end_block9+0x4562>
     931: 9c 01 de     	stz	$de01                   ; 0xde01 <end_block9+0x4563>
     934: 8c 02 de     	sty	$de02                   ; 0xde02 <end_block9+0x4564>
     937: 9c 03 de     	stz	$de03                   ; 0xde03 <end_block9+0x4565>
     93a: ae 10 de     	ldx	$de10                   ; 0xde10 <end_block9+0x4572>
     93d: ac 11 de     	ldy	$de11                   ; 0xde11 <end_block9+0x4573>
     940: ad 12 de     	lda	$de12                   ; 0xde12 <end_block9+0x4574>
     943: ad 13 de     	lda	$de13                   ; 0xde13 <end_block9+0x4575>
     946: 8e a4 d6     	stx	$d6a4                   ; 0xd6a4 <end_block9+0x3e06>
     949: 8c a5 d6     	sty	$d6a5                   ; 0xd6a5 <end_block9+0x3e07>
     94c: a2 03        	ldx	#$3
     94e: 8e a6 d6     	stx	$d6a6                   ; 0xd6a6 <end_block9+0x3e08>
     951: 60           	rts

00000952 <main>:
     952: 20 9d 05     	jsr	$59d <f256Init>
     955: 20 58 09     	jsr	$958 <f256main>

00000958 <f256main>:
     958: 18           	clc
     959: a5 10        	lda	$10                     ; 0x10 <__rc0>
     95b: 69 dc        	adc	#$dc
     95d: 85 10        	sta	$10                     ; 0x10 <__rc0>
     95f: a5 11        	lda	$11                     ; 0x11 <__rc1>
     961: 69 ff        	adc	#$ff
     963: 85 11        	sta	$11                     ; 0x11 <__rc1>
     965: a2 a1        	ldx	#$a1
     967: 86 12        	stx	$12                     ; 0x12 <__rc2>
     969: a2 dd        	ldx	#$dd
     96b: 86 13        	stx	$13                     ; 0x13 <__rc3>
     96d: a5 12        	lda	$12                     ; 0x12 <__rc2>
     96f: a0 09        	ldy	#$9
     971: 91 10        	sta	($10),y                 ; 0x10 <__rc0>
     973: a5 13        	lda	$13                     ; 0x13 <__rc3>
     975: c8           	iny
     976: 91 10        	sta	($10),y                 ; 0x10 <__rc0>
     978: a2 b1        	ldx	#$b1
     97a: 86 24        	stx	$24                     ; 0x24 <__rc20>
     97c: a2 dd        	ldx	#$dd
     97e: 86 25        	stx	$25                     ; 0x25 <__rc21>
     980: a9 00        	lda	#$0
     982: 64 01        	stz	$1                      ; 0x1 <__data_size+0x1>
     984: 18           	clc
     985: 48           	pha
     986: a5 10        	lda	$10                     ; 0x10 <__rc0>
     988: 69 17        	adc	#$17
     98a: 85 14        	sta	$14                     ; 0x14 <__rc4>
     98c: a5 11        	lda	$11                     ; 0x11 <__rc1>
     98e: 69 00        	adc	#$0
     990: 85 15        	sta	$15                     ; 0x15 <__rc5>
     992: a5 14        	lda	$14                     ; 0x14 <__rc4>
     994: a0 0d        	ldy	#$d
     996: 91 10        	sta	($10),y                 ; 0x10 <__rc0>
     998: a5 15        	lda	$15                     ; 0x15 <__rc5>
     99a: c8           	iny
     99b: 91 10        	sta	($10),y                 ; 0x10 <__rc0>
     99d: 68           	pla
     99e: 92 14        	sta	($14)                   ; 0x14 <__rc4>
     9a0: 18           	clc
     9a1: 48           	pha
     9a2: a5 10        	lda	$10                     ; 0x10 <__rc0>
     9a4: 69 16        	adc	#$16
     9a6: 85 26        	sta	$26                     ; 0x26 <__rc22>
     9a8: a5 11        	lda	$11                     ; 0x11 <__rc1>
     9aa: 69 00        	adc	#$0
     9ac: 85 27        	sta	$27                     ; 0x27 <__rc23>
     9ae: 68           	pla
     9af: 92 26        	sta	($26)                   ; 0x26 <__rc22>
     9b1: aa           	tax
     9b2: a9 04        	lda	#$4
     9b4: 20 03 6d     	jsr	$6d03 <malloc>
     9b7: a0 00        	ldy	#$0
     9b9: a6 12        	ldx	$12                     ; 0x12 <__rc2>
     9bb: 86 2e        	stx	$2e                     ; 0x2e <__rc30>
     9bd: a6 13        	ldx	$13                     ; 0x13 <__rc3>
     9bf: 86 2f        	stx	$2f                     ; 0x2f <__rc31>
     9c1: 64 01        	stz	$1                      ; 0x1 <__data_size+0x1>
     9c3: a2 0f        	ldx	#$f
     9c5: 8e 00 d0     	stx	$d000                   ; 0xd000 <end_block9+0x3762>
     9c8: 9c 01 d0     	stz	$d001                   ; 0xd001 <end_block9+0x3763>
     9cb: e8           	inx
     9cc: 8e 02 d0     	stx	$d002                   ; 0xd002 <end_block9+0x3764>
     9cf: a2 02        	ldx	#$2
     9d1: 8e 03 d0     	stx	$d003                   ; 0xd003 <end_block9+0x3765>
     9d4: 9c 0d d0     	stz	$d00d                   ; 0xd00d <end_block9+0x376f>
     9d7: 9c 0e d0     	stz	$d00e                   ; 0xd00e <end_block9+0x3770>
     9da: 9c 0f d0     	stz	$d00f                   ; 0xd00f <end_block9+0x3771>
     9dd: ca           	dex
     9de: 86 01        	stx	$1                      ; 0x1 <__data_size+0x1>
     9e0: a2 d0        	ldx	#$d0
     9e2: 18           	clc
     9e3: 84 16        	sty	$16                     ; 0x16 <__rc6>
     9e5: 98           	tya
     9e6: 69 00        	adc	#$0
     9e8: 85 14        	sta	$14                     ; 0x14 <__rc4>
     9ea: 8a           	txa
     9eb: 69 10        	adc	#$10
     9ed: 85 15        	sta	$15                     ; 0x15 <__rc5>
     9ef: 84 12        	sty	$12                     ; 0x12 <__rc2>
     9f1: 86 13        	stx	$13                     ; 0x13 <__rc3>
     9f3: a4 0f        	ldy	$f                      ; 0xf <__zp_data_size+0xc>
     9f5: 78           	sei
     9f6: a9 18        	lda	#$18
     9f8: 85 0f        	sta	$f                      ; 0xf <__zp_data_size+0xc>
     9fa: b2 14        	lda	($14)                   ; 0x14 <__rc4>
     9fc: 84 0f        	sty	$f                      ; 0xf <__zp_data_size+0xc>
     9fe: 58           	cli
     9ff: 92 12        	sta	($12)                   ; 0x12 <__rc2>
     a01: a4 16        	ldy	$16                     ; 0x16 <__rc6>
     a03: c8           	iny
     a04: d0 01        	bne	$a07 <f256main+0xaf>
     a06: e8           	inx
     a07: e0 d3        	cpx	#$d3
     a09: d0 d7        	bne	$9e2 <f256main+0x8a>
     a0b: c0 ff        	cpy	#$ff
     a0d: d0 d3        	bne	$9e2 <f256main+0x8a>
     a0f: a5 24        	lda	$24                     ; 0x24 <__rc20>
     a11: a0 04        	ldy	#$4
     a13: 91 10        	sta	($10),y                 ; 0x10 <__rc0>
     a15: a5 25        	lda	$25                     ; 0x25 <__rc21>
     a17: c8           	iny
     a18: 91 10        	sta	($10),y                 ; 0x10 <__rc0>
     a1a: 64 01        	stz	$1                      ; 0x1 <__data_size+0x1>
     a1c: a2 ff        	ldx	#$ff
     a1e: 8e 40 d8     	stx	$d840                   ; 0xd840 <end_block9+0x3fa2>
     a21: 8e 41 d8     	stx	$d841                   ; 0xd841 <end_block9+0x3fa3>
     a24: 8e 42 d8     	stx	$d842                   ; 0xd842 <end_block9+0x3fa4>
     a27: 9c 43 d8     	stz	$d843                   ; 0xd843 <end_block9+0x3fa5>
     a2a: 9c 7c 98     	stz	$987c                   ; 0x987c <__bss_start>
     a2d: a2 80        	ldx	#$80
     a2f: 8e 7d 98     	stx	$987d                   ; 0x987d <__bss_start+0x1>
     a32: a0 03        	ldy	#$3
     a34: 8c 7e 98     	sty	$987e                   ; 0x987e <__bss_start+0x2>
     a37: 9c 7f 98     	stz	$987f                   ; 0x987f <__bss_start+0x3>
     a3a: 9c 01 d1     	stz	$d101                   ; 0xd101 <end_block9+0x3863>
     a3d: 8e 02 d1     	stx	$d102                   ; 0xd102 <end_block9+0x3864>
     a40: 8c 03 d1     	sty	$d103                   ; 0xd103 <end_block9+0x3865>
     a43: a2 03        	ldx	#$3
     a45: 86 24        	stx	$24                     ; 0x24 <__rc20>
     a47: a2 01        	ldx	#$1
     a49: 8e 00 d1     	stx	$d100                   ; 0xd100 <end_block9+0x3862>
     a4c: 86 25        	stx	$25                     ; 0x25 <__rc21>
     a4e: ad 00 d1     	lda	$d100                   ; 0xd100 <end_block9+0x3862>
     a51: 29 f9        	and	#$f9
     a53: 8d 00 d1     	sta	$d100                   ; 0xd100 <end_block9+0x3862>
     a56: 9c 08 d1     	stz	$d108                   ; 0xd108 <end_block9+0x386a>
     a59: 9c 10 d1     	stz	$d110                   ; 0xd110 <end_block9+0x3872>
     a5c: a9 17        	lda	#$17
     a5e: ca           	dex
     a5f: 20 03 6d     	jsr	$6d03 <malloc>
     a62: a6 12        	ldx	$12                     ; 0x12 <__rc2>
     a64: a4 13        	ldy	$13                     ; 0x13 <__rc3>
     a66: 86 7f        	stx	$7f                     ; 0x7f <gPtr>
     a68: 84 80        	sty	$80                     ; 0x80 <gPtr+0x1>
     a6a: 20 29 3f     	jsr	$3f29 <resetGlobals>
     a6d: a9 4b        	lda	#$4b
     a6f: a2 00        	ldx	#$0
     a71: 20 03 6d     	jsr	$6d03 <malloc>
     a74: a6 12        	ldx	$12                     ; 0x12 <__rc2>
     a76: 86 2c        	stx	$2c                     ; 0x2c <__rc28>
     a78: a6 13        	ldx	$13                     ; 0x13 <__rc3>
     a7a: 86 2d        	stx	$2d                     ; 0x2d <__rc29>
     a7c: a6 2c        	ldx	$2c                     ; 0x2c <__rc28>
     a7e: a4 2d        	ldy	$2d                     ; 0x2d <__rc29>
     a80: 86 3b        	stx	$3b                     ; 0x3b <theBeats>
     a82: 84 3c        	sty	$3c                     ; 0x3c <theBeats+0x1>
     a84: 18           	clc
     a85: a5 10        	lda	$10                     ; 0x10 <__rc0>
     a87: 69 18        	adc	#$18
     a89: 85 2a        	sta	$2a                     ; 0x2a <__rc26>
     a8b: a5 11        	lda	$11                     ; 0x11 <__rc1>
     a8d: 69 00        	adc	#$0
     a8f: 85 2b        	sta	$2b                     ; 0x2b <__rc27>
     a91: a9 00        	lda	#$0
     a93: 92 2a        	sta	($2a)                   ; 0x2a <__rc26>
     a95: a6 25        	ldx	$25                     ; 0x25 <__rc21>
     a97: 86 14        	stx	$14                     ; 0x14 <__rc4>
     a99: a4 25        	ldy	$25                     ; 0x25 <__rc21>
     a9b: 91 2a        	sta	($2a),y                 ; 0x2a <__rc26>
     a9d: a0 02        	ldy	#$2
     a9f: 98           	tya
     aa0: 91 2a        	sta	($2a),y                 ; 0x2a <__rc26>
     aa2: aa           	tax
     aa3: 86 17        	stx	$17                     ; 0x17 <__rc7>
     aa5: a4 24        	ldy	$24                     ; 0x24 <__rc20>
     aa7: a9 00        	lda	#$0
     aa9: 91 2a        	sta	($2a),y                 ; 0x2a <__rc26>
     aab: a2 5a        	ldx	#$5a
     aad: 64 15        	stz	$15                     ; 0x15 <__rc5>
     aaf: 64 16        	stz	$16                     ; 0x16 <__rc6>
     ab1: 64 18        	stz	$18                     ; 0x18 <__rc8>
     ab3: 20 ae 48     	jsr	$48ae <setupMem4ABeat>
     ab6: c9 ff        	cmp	#$ff
     ab8: d0 0b        	bne	$ac5 <f256main+0x16d>
     aba: a2 a9        	ldx	#$a9
     abc: 86 12        	stx	$12                     ; 0x12 <__rc2>
     abe: a2 8c        	ldx	#$8c
     ac0: 86 13        	stx	$13                     ; 0x13 <__rc3>
     ac2: 20 c3 5f     	jsr	$5fc3 <printf>
     ac5: a6 2a        	ldx	$2a                     ; 0x2a <__rc26>
     ac7: 86 14        	stx	$14                     ; 0x14 <__rc4>
     ac9: a6 2b        	ldx	$2b                     ; 0x2b <__rc27>
     acb: 86 15        	stx	$15                     ; 0x15 <__rc5>
     acd: a2 9f        	ldx	#$9f
     acf: 86 16        	stx	$16                     ; 0x16 <__rc6>
     ad1: a2 94        	ldx	#$94
     ad3: 86 17        	stx	$17                     ; 0x17 <__rc7>
     ad5: a2 a1        	ldx	#$a1
     ad7: 86 18        	stx	$18                     ; 0x18 <__rc8>
     ad9: a2 94        	ldx	#$94
     adb: 86 19        	stx	$19                     ; 0x19 <__rc9>
     add: a2 02        	ldx	#$2
     adf: 64 12        	stz	$12                     ; 0x12 <__rc2>
     ae1: 86 13        	stx	$13                     ; 0x13 <__rc3>
     ae3: 86 24        	stx	$24                     ; 0x24 <__rc20>
     ae5: a2 09        	ldx	#$9
     ae7: a9 00        	lda	#$0
     ae9: 20 2d 4d     	jsr	$4d2d <setupMem4Track>
     aec: b2 2a        	lda	($2a)                   ; 0x2a <__rc26>
     aee: 85 15        	sta	$15                     ; 0x15 <__rc5>
     af0: a0 01        	ldy	#$1
     af2: b1 2a        	lda	($2a),y                 ; 0x2a <__rc26>
     af4: 85 16        	sta	$16                     ; 0x16 <__rc6>
     af6: 84 25        	sty	$25                     ; 0x25 <__rc21>
     af8: a4 24        	ldy	$24                     ; 0x24 <__rc20>
     afa: b1 2a        	lda	($2a),y                 ; 0x2a <__rc26>
     afc: 85 17        	sta	$17                     ; 0x17 <__rc7>
     afe: 84 14        	sty	$14                     ; 0x14 <__rc4>
     b00: a0 03        	ldy	#$3
     b02: b1 2a        	lda	($2a),y                 ; 0x2a <__rc26>
     b04: 85 18        	sta	$18                     ; 0x18 <__rc8>
     b06: 84 24        	sty	$24                     ; 0x24 <__rc20>
     b08: a6 2c        	ldx	$2c                     ; 0x2c <__rc28>
     b0a: 86 12        	stx	$12                     ; 0x12 <__rc2>
     b0c: a6 2d        	ldx	$2d                     ; 0x2d <__rc29>
     b0e: 86 13        	stx	$13                     ; 0x13 <__rc3>
     b10: a9 01        	lda	#$1
     b12: a2 80        	ldx	#$80
     b14: a4 14        	ldy	$14                     ; 0x14 <__rc4>
     b16: 84 28        	sty	$28                     ; 0x28 <__rc24>
     b18: 20 ae 48     	jsr	$48ae <setupMem4ABeat>
     b1b: a6 2a        	ldx	$2a                     ; 0x2a <__rc26>
     b1d: 86 14        	stx	$14                     ; 0x14 <__rc4>
     b1f: a6 2b        	ldx	$2b                     ; 0x2b <__rc27>
     b21: 86 15        	stx	$15                     ; 0x15 <__rc5>
     b23: a2 a3        	ldx	#$a3
     b25: 86 16        	stx	$16                     ; 0x16 <__rc6>
     b27: a2 94        	ldx	#$94
     b29: 86 17        	stx	$17                     ; 0x17 <__rc7>
     b2b: a2 a8        	ldx	#$a8
     b2d: 86 18        	stx	$18                     ; 0x18 <__rc8>
     b2f: a2 94        	ldx	#$94
     b31: 86 19        	stx	$19                     ; 0x19 <__rc9>
     b33: a2 05        	ldx	#$5
     b35: 64 12        	stz	$12                     ; 0x12 <__rc2>
     b37: 86 13        	stx	$13                     ; 0x13 <__rc3>
     b39: a2 09        	ldx	#$9
     b3b: a9 00        	lda	#$0
     b3d: 20 2d 4d     	jsr	$4d2d <setupMem4Track>
     b40: a2 73        	ldx	#$73
     b42: a4 2a        	ldy	$2a                     ; 0x2a <__rc26>
     b44: 84 14        	sty	$14                     ; 0x14 <__rc4>
     b46: a4 2b        	ldy	$2b                     ; 0x2b <__rc27>
     b48: 84 15        	sty	$15                     ; 0x15 <__rc5>
     b4a: a0 ad        	ldy	#$ad
     b4c: 84 16        	sty	$16                     ; 0x16 <__rc6>
     b4e: a0 94        	ldy	#$94
     b50: 84 17        	sty	$17                     ; 0x17 <__rc7>
     b52: a0 b5        	ldy	#$b5
     b54: 84 18        	sty	$18                     ; 0x18 <__rc8>
     b56: a0 94        	ldy	#$94
     b58: 84 19        	sty	$19                     ; 0x19 <__rc9>
     b5a: a0 08        	ldy	#$8
     b5c: 86 12        	stx	$12                     ; 0x12 <__rc2>
     b5e: 84 13        	sty	$13                     ; 0x13 <__rc3>
     b60: a6 28        	ldx	$28                     ; 0x28 <__rc24>
     b62: a9 00        	lda	#$0
     b64: 20 2d 4d     	jsr	$4d2d <setupMem4Track>
     b67: b2 2a        	lda	($2a)                   ; 0x2a <__rc26>
     b69: 85 15        	sta	$15                     ; 0x15 <__rc5>
     b6b: a4 25        	ldy	$25                     ; 0x25 <__rc21>
     b6d: b1 2a        	lda	($2a),y                 ; 0x2a <__rc26>
     b6f: 85 16        	sta	$16                     ; 0x16 <__rc6>
     b71: a0 02        	ldy	#$2
     b73: b1 2a        	lda	($2a),y                 ; 0x2a <__rc26>
     b75: 85 17        	sta	$17                     ; 0x17 <__rc7>
     b77: 84 28        	sty	$28                     ; 0x28 <__rc24>
     b79: a4 24        	ldy	$24                     ; 0x24 <__rc20>
     b7b: b1 2a        	lda	($2a),y                 ; 0x2a <__rc26>
     b7d: a6 2c        	ldx	$2c                     ; 0x2c <__rc28>
     b7f: 86 12        	stx	$12                     ; 0x12 <__rc2>
     b81: a6 2d        	ldx	$2d                     ; 0x2d <__rc29>
     b83: 86 13        	stx	$13                     ; 0x13 <__rc3>
     b85: a2 64        	ldx	#$64
     b87: a4 28        	ldy	$28                     ; 0x28 <__rc24>
     b89: 84 14        	sty	$14                     ; 0x14 <__rc4>
     b8b: 85 18        	sta	$18                     ; 0x18 <__rc8>
     b8d: a5 28        	lda	$28                     ; 0x28 <__rc24>
     b8f: 20 ae 48     	jsr	$48ae <setupMem4ABeat>
     b92: a6 2a        	ldx	$2a                     ; 0x2a <__rc26>
     b94: 86 14        	stx	$14                     ; 0x14 <__rc4>
     b96: a6 2b        	ldx	$2b                     ; 0x2b <__rc27>
     b98: 86 15        	stx	$15                     ; 0x15 <__rc5>
     b9a: a2 d0        	ldx	#$d0
     b9c: 86 16        	stx	$16                     ; 0x16 <__rc6>
     b9e: a2 96        	ldx	#$96
     ba0: 86 17        	stx	$17                     ; 0x17 <__rc7>
     ba2: a2 d4        	ldx	#$d4
     ba4: 86 18        	stx	$18                     ; 0x18 <__rc8>
     ba6: a2 96        	ldx	#$96
     ba8: 86 19        	stx	$19                     ; 0x19 <__rc9>
     baa: a2 04        	ldx	#$4
     bac: 64 12        	stz	$12                     ; 0x12 <__rc2>
     bae: 86 13        	stx	$13                     ; 0x13 <__rc3>
     bb0: 86 29        	stx	$29                     ; 0x29 <__rc25>
     bb2: a2 09        	ldx	#$9
     bb4: a9 00        	lda	#$0
     bb6: 20 2d 4d     	jsr	$4d2d <setupMem4Track>
     bb9: a6 2a        	ldx	$2a                     ; 0x2a <__rc26>
     bbb: 86 14        	stx	$14                     ; 0x14 <__rc4>
     bbd: a6 2b        	ldx	$2b                     ; 0x2b <__rc27>
     bbf: 86 15        	stx	$15                     ; 0x15 <__rc5>
     bc1: a2 d8        	ldx	#$d8
     bc3: 86 16        	stx	$16                     ; 0x16 <__rc6>
     bc5: a2 96        	ldx	#$96
     bc7: 86 17        	stx	$17                     ; 0x17 <__rc7>
     bc9: a2 de        	ldx	#$de
     bcb: 86 18        	stx	$18                     ; 0x18 <__rc8>
     bcd: a2 96        	ldx	#$96
     bcf: 86 19        	stx	$19                     ; 0x19 <__rc9>
     bd1: a2 06        	ldx	#$6
     bd3: 64 12        	stz	$12                     ; 0x12 <__rc2>
     bd5: 86 13        	stx	$13                     ; 0x13 <__rc3>
     bd7: a2 09        	ldx	#$9
     bd9: a9 00        	lda	#$0
     bdb: 20 2d 4d     	jsr	$4d2d <setupMem4Track>
     bde: b2 2a        	lda	($2a)                   ; 0x2a <__rc26>
     be0: 85 15        	sta	$15                     ; 0x15 <__rc5>
     be2: a4 25        	ldy	$25                     ; 0x25 <__rc21>
     be4: b1 2a        	lda	($2a),y                 ; 0x2a <__rc26>
     be6: 85 16        	sta	$16                     ; 0x16 <__rc6>
     be8: a4 28        	ldy	$28                     ; 0x28 <__rc24>
     bea: b1 2a        	lda	($2a),y                 ; 0x2a <__rc26>
     bec: 85 17        	sta	$17                     ; 0x17 <__rc7>
     bee: a4 24        	ldy	$24                     ; 0x24 <__rc20>
     bf0: b1 2a        	lda	($2a),y                 ; 0x2a <__rc26>
     bf2: 85 18        	sta	$18                     ; 0x18 <__rc8>
     bf4: a6 2c        	ldx	$2c                     ; 0x2c <__rc28>
     bf6: 86 12        	stx	$12                     ; 0x12 <__rc2>
     bf8: a6 2d        	ldx	$2d                     ; 0x2d <__rc29>
     bfa: 86 13        	stx	$13                     ; 0x13 <__rc3>
     bfc: a9 03        	lda	#$3
     bfe: a2 50        	ldx	#$50
     c00: a4 28        	ldy	$28                     ; 0x28 <__rc24>
     c02: 84 14        	sty	$14                     ; 0x14 <__rc4>
     c04: 20 ae 48     	jsr	$48ae <setupMem4ABeat>
     c07: a6 2a        	ldx	$2a                     ; 0x2a <__rc26>
     c09: 86 14        	stx	$14                     ; 0x14 <__rc4>
     c0b: a6 2b        	ldx	$2b                     ; 0x2b <__rc27>
     c0d: 86 15        	stx	$15                     ; 0x15 <__rc5>
     c0f: a2 e4        	ldx	#$e4
     c11: 86 16        	stx	$16                     ; 0x16 <__rc6>
     c13: a2 96        	ldx	#$96
     c15: 86 17        	stx	$17                     ; 0x17 <__rc7>
     c17: a2 04        	ldx	#$4
     c19: 86 18        	stx	$18                     ; 0x18 <__rc8>
     c1b: a2 97        	ldx	#$97
     c1d: 86 19        	stx	$19                     ; 0x19 <__rc9>
     c1f: a2 20        	ldx	#$20
     c21: 64 12        	stz	$12                     ; 0x12 <__rc2>
     c23: 86 13        	stx	$13                     ; 0x13 <__rc3>
     c25: a2 09        	ldx	#$9
     c27: a9 00        	lda	#$0
     c29: 20 2d 4d     	jsr	$4d2d <setupMem4Track>
     c2c: a6 2a        	ldx	$2a                     ; 0x2a <__rc26>
     c2e: 86 14        	stx	$14                     ; 0x14 <__rc4>
     c30: a6 2b        	ldx	$2b                     ; 0x2b <__rc27>
     c32: 86 15        	stx	$15                     ; 0x15 <__rc5>
     c34: a2 24        	ldx	#$24
     c36: 86 16        	stx	$16                     ; 0x16 <__rc6>
     c38: a2 97        	ldx	#$97
     c3a: 86 17        	stx	$17                     ; 0x17 <__rc7>
     c3c: a2 30        	ldx	#$30
     c3e: 86 18        	stx	$18                     ; 0x18 <__rc8>
     c40: a2 97        	ldx	#$97
     c42: 86 19        	stx	$19                     ; 0x19 <__rc9>
     c44: a2 0c        	ldx	#$c
     c46: 64 12        	stz	$12                     ; 0x12 <__rc2>
     c48: 86 13        	stx	$13                     ; 0x13 <__rc3>
     c4a: a2 09        	ldx	#$9
     c4c: a9 00        	lda	#$0
     c4e: 20 2d 4d     	jsr	$4d2d <setupMem4Track>
     c51: b2 2a        	lda	($2a)                   ; 0x2a <__rc26>
     c53: 85 15        	sta	$15                     ; 0x15 <__rc5>
     c55: a4 25        	ldy	$25                     ; 0x25 <__rc21>
     c57: b1 2a        	lda	($2a),y                 ; 0x2a <__rc26>
     c59: 85 16        	sta	$16                     ; 0x16 <__rc6>
     c5b: a4 28        	ldy	$28                     ; 0x28 <__rc24>
     c5d: b1 2a        	lda	($2a),y                 ; 0x2a <__rc26>
     c5f: 85 17        	sta	$17                     ; 0x17 <__rc7>
     c61: a4 24        	ldy	$24                     ; 0x24 <__rc20>
     c63: b1 2a        	lda	($2a),y                 ; 0x2a <__rc26>
     c65: a6 2c        	ldx	$2c                     ; 0x2c <__rc28>
     c67: 86 12        	stx	$12                     ; 0x12 <__rc2>
     c69: a6 2d        	ldx	$2d                     ; 0x2d <__rc29>
     c6b: 86 13        	stx	$13                     ; 0x13 <__rc3>
     c6d: a2 78        	ldx	#$78
     c6f: a4 28        	ldy	$28                     ; 0x28 <__rc24>
     c71: 84 14        	sty	$14                     ; 0x14 <__rc4>
     c73: 85 18        	sta	$18                     ; 0x18 <__rc8>
     c75: a5 29        	lda	$29                     ; 0x29 <__rc25>
     c77: 20 ae 48     	jsr	$48ae <setupMem4ABeat>
     c7a: c9 ff        	cmp	#$ff
     c7c: d0 0b        	bne	$c89 <f256main+0x331>
     c7e: a2 a9        	ldx	#$a9
     c80: 86 12        	stx	$12                     ; 0x12 <__rc2>
     c82: a2 8c        	ldx	#$8c
     c84: 86 13        	stx	$13                     ; 0x13 <__rc3>
     c86: 20 c3 5f     	jsr	$5fc3 <printf>
     c89: a9 01        	lda	#$1
     c8b: a6 2a        	ldx	$2a                     ; 0x2a <__rc26>
     c8d: 86 14        	stx	$14                     ; 0x14 <__rc4>
     c8f: a6 2b        	ldx	$2b                     ; 0x2b <__rc27>
     c91: 86 15        	stx	$15                     ; 0x15 <__rc5>
     c93: a2 bd        	ldx	#$bd
     c95: 86 16        	stx	$16                     ; 0x16 <__rc6>
     c97: a2 94        	ldx	#$94
     c99: 86 17        	stx	$17                     ; 0x17 <__rc7>
     c9b: a2 27        	ldx	#$27
     c9d: 86 18        	stx	$18                     ; 0x18 <__rc8>
     c9f: a2 95        	ldx	#$95
     ca1: 86 19        	stx	$19                     ; 0x19 <__rc9>
     ca3: a2 6a        	ldx	#$6a
     ca5: 85 12        	sta	$12                     ; 0x12 <__rc2>
     ca7: 86 13        	stx	$13                     ; 0x13 <__rc3>
     ca9: a2 00        	ldx	#$0
     cab: 85 24        	sta	$24                     ; 0x24 <__rc20>
     cad: 20 2d 4d     	jsr	$4d2d <setupMem4Track>
     cb0: a2 02        	ldx	#$2
     cb2: a0 03        	ldy	#$3
     cb4: a5 2a        	lda	$2a                     ; 0x2a <__rc26>
     cb6: 85 14        	sta	$14                     ; 0x14 <__rc4>
     cb8: a5 2b        	lda	$2b                     ; 0x2b <__rc27>
     cba: 85 15        	sta	$15                     ; 0x15 <__rc5>
     cbc: a9 91        	lda	#$91
     cbe: 85 16        	sta	$16                     ; 0x16 <__rc6>
     cc0: a9 95        	lda	#$95
     cc2: 85 17        	sta	$17                     ; 0x17 <__rc7>
     cc4: a9 a1        	lda	#$a1
     cc6: 85 18        	sta	$18                     ; 0x18 <__rc8>
     cc8: a9 95        	lda	#$95
     cca: 85 19        	sta	$19                     ; 0x19 <__rc9>
     ccc: a9 10        	lda	#$10
     cce: 84 12        	sty	$12                     ; 0x12 <__rc2>
     cd0: 85 13        	sta	$13                     ; 0x13 <__rc3>
     cd2: a5 24        	lda	$24                     ; 0x24 <__rc20>
     cd4: 20 2d 4d     	jsr	$4d2d <setupMem4Track>
     cd7: 20 9d 3c     	jsr	$3c9d <escReset>
     cda: 20 dd 3d     	jsr	$3ddd <prepTempoLUT>
     cdd: a2 80        	ldx	#$80
     cdf: 86 f3        	stx	$f3                     ; 0xf3 <__zp_bss_size+0x9e>
     ce1: 18           	clc
     ce2: a5 10        	lda	$10                     ; 0x10 <__rc0>
     ce4: 69 1c        	adc	#$1c
     ce6: 85 12        	sta	$12                     ; 0x12 <__rc2>
     ce8: a5 11        	lda	$11                     ; 0x11 <__rc1>
     cea: 69 00        	adc	#$0
     cec: 85 13        	sta	$13                     ; 0x13 <__rc3>
     cee: a2 94        	ldx	#$94
     cf0: 86 14        	stx	$14                     ; 0x14 <__rc4>
     cf2: a2 98        	ldx	#$98
     cf4: 86 15        	stx	$15                     ; 0x15 <__rc5>
     cf6: 20 f0 ff     	jsr	$fff0 <end_block9+0x6752>
     cf9: 92 12        	sta	($12)                   ; 0x12 <__rc2>
     cfb: a9 00        	lda	#$0
     cfd: 6a           	ror
     cfe: 85 14        	sta	$14                     ; 0x14 <__rc4>
     d00: a9 09        	lda	#$9
     d02: 18           	clc
     d03: 72 12        	adc	($12)                   ; 0x12 <__rc2>
     d05: 85 3d        	sta	$3d                     ; 0x3d <refTimer.1>
     d07: 64 f3        	stz	$f3                     ; 0xf3 <__zp_bss_size+0x9e>
     d09: a6 3d        	ldx	$3d                     ; 0x3d <refTimer.1>
     d0b: 86 f4        	stx	$f4                     ; 0xf4 <__zp_bss_size+0x9f>
     d0d: 64 f5        	stz	$f5                     ; 0xf5 <__zp_bss_size+0xa0>
     d0f: 18           	clc
     d10: a5 10        	lda	$10                     ; 0x10 <__rc0>
     d12: 69 1d        	adc	#$1d
     d14: 85 12        	sta	$12                     ; 0x12 <__rc2>
     d16: a5 11        	lda	$11                     ; 0x11 <__rc1>
     d18: 69 00        	adc	#$0
     d1a: 85 13        	sta	$13                     ; 0x13 <__rc3>
     d1c: a2 90        	ldx	#$90
     d1e: 20 f0 ff     	jsr	$fff0 <end_block9+0x6752>
     d21: 92 12        	sta	($12)                   ; 0x12 <__rc2>
     d23: a9 00        	lda	#$0
     d25: 6a           	ror
     d26: 85 14        	sta	$14                     ; 0x14 <__rc4>
     d28: 86 30        	stx	$30                     ; 0x30 <_ccolor>
     d2a: ad a0 dd     	lda	$dda0                   ; 0xdda0 <end_block9+0x4502>
     d2d: 29 02        	and	#$2
     d2f: d0 1e        	bne	$d4f <f256main+0x3f7>
     d31: ae a2 dd     	ldx	$dda2                   ; 0xdda2 <end_block9+0x4504>
     d34: ad a3 dd     	lda	$dda3                   ; 0xdda3 <end_block9+0x4505>
     d37: 29 0f        	and	#$f
     d39: d0 04        	bne	$d3f <f256main+0x3e7>
     d3b: e0 00        	cpx	#$0
     d3d: f0 10        	beq	$d4f <f256main+0x3f7>
     d3f: ac a1 dd     	ldy	$dda1                   ; 0xdda1 <end_block9+0x4503>
     d42: ca           	dex
     d43: e0 ff        	cpx	#$ff
     d45: d0 01        	bne	$d48 <f256main+0x3f0>
     d47: 3a           	dec
     d48: a8           	tay
     d49: d0 f4        	bne	$d3f <f256main+0x3e7>
     d4b: e0 00        	cpx	#$0
     d4d: d0 f0        	bne	$d3f <f256main+0x3e7>
     d4f: a2 d4        	ldx	#$d4
     d51: a0 00        	ldy	#$0
     d53: 18           	clc
     d54: 98           	tya
     d55: 69 00        	adc	#$0
     d57: 85 14        	sta	$14                     ; 0x14 <__rc4>
     d59: 8a           	txa
     d5a: 69 01        	adc	#$1
     d5c: 85 15        	sta	$15                     ; 0x15 <__rc5>
     d5e: 84 12        	sty	$12                     ; 0x12 <__rc2>
     d60: 86 13        	stx	$13                     ; 0x13 <__rc3>
     d62: a9 00        	lda	#$0
     d64: 92 12        	sta	($12)                   ; 0x12 <__rc2>
     d66: 5a           	phy
     d67: a4 14        	ldy	$14                     ; 0x14 <__rc4>
     d69: 84 12        	sty	$12                     ; 0x12 <__rc2>
     d6b: a4 15        	ldy	$15                     ; 0x15 <__rc5>
     d6d: 84 13        	sty	$13                     ; 0x13 <__rc3>
     d6f: 7a           	ply
     d70: 92 12        	sta	($12)                   ; 0x12 <__rc2>
     d72: c8           	iny
     d73: d0 01        	bne	$d76 <f256main+0x41e>
     d75: e8           	inx
     d76: c0 19        	cpy	#$19
     d78: d0 d9        	bne	$d53 <f256main+0x3fb>
     d7a: 20 44 48     	jsr	$4844 <sid_setInstrumentAllChannels>
     d7d: ad a1 d6     	lda	$d6a1                   ; 0xd6a1 <end_block9+0x3e03>
     d80: 29 f7        	and	#$f7
     d82: 8d a1 d6     	sta	$d6a1                   ; 0xd6a1 <end_block9+0x3e03>
     d85: ad a1 d6     	lda	$d6a1                   ; 0xd6a1 <end_block9+0x3e03>
     d88: 29 fb        	and	#$fb
     d8a: 8d a1 d6     	sta	$d6a1                   ; 0xd6a1 <end_block9+0x3e03>
     d8d: a2 01        	ldx	#$1
     d8f: 8e 80 d5     	stx	$d580                   ; 0xd580 <end_block9+0x3ce2>
     d92: a0 20        	ldy	#$20
     d94: 8c 81 d5     	sty	$d581                   ; 0xd581 <end_block9+0x3ce3>
     d97: a0 02        	ldy	#$2
     d99: 8c 80 d5     	sty	$d580                   ; 0xd580 <end_block9+0x3ce2>
     d9c: 9c 81 d5     	stz	$d581                   ; 0xd581 <end_block9+0x3ce3>
     d9f: c8           	iny
     da0: 8c 80 d5     	sty	$d580                   ; 0xd580 <end_block9+0x3ce2>
     da3: 9c 81 d5     	stz	$d581                   ; 0xd581 <end_block9+0x3ce3>
     da6: c8           	iny
     da7: 8c 82 d5     	sty	$d582                   ; 0xd582 <end_block9+0x3ce4>
     daa: 9c 81 d5     	stz	$d581                   ; 0xd581 <end_block9+0x3ce3>
     dad: c8           	iny
     dae: 8c 82 d5     	sty	$d582                   ; 0xd582 <end_block9+0x3ce4>
     db1: 8e 81 d5     	stx	$d581                   ; 0xd581 <end_block9+0x3ce3>
     db4: a2 08        	ldx	#$8
     db6: 8e 80 d5     	stx	$d580                   ; 0xd580 <end_block9+0x3ce2>
     db9: 9c 81 d5     	stz	$d581                   ; 0xd581 <end_block9+0x3ce3>
     dbc: a2 c0        	ldx	#$c0
     dbe: a0 30        	ldy	#$30
     dc0: 8e 80 d5     	stx	$d580                   ; 0xd580 <end_block9+0x3ce2>
     dc3: 8c 81 d5     	sty	$d581                   ; 0xd581 <end_block9+0x3ce3>
     dc6: e8           	inx
     dc7: e0 c9        	cpx	#$c9
     dc9: d0 f5        	bne	$dc0 <f256main+0x468>
     dcb: a2 c0        	ldx	#$c0
     dcd: a0 30        	ldy	#$30
     dcf: 8e 82 d5     	stx	$d582                   ; 0xd582 <end_block9+0x3ce4>
     dd2: 8c 81 d5     	sty	$d581                   ; 0xd581 <end_block9+0x3ce3>
     dd5: e8           	inx
     dd6: e0 c9        	cpx	#$c9
     dd8: d0 f5        	bne	$dcf <f256main+0x477>
     dda: a2 b0        	ldx	#$b0
     ddc: 8e 80 d5     	stx	$d580                   ; 0xd580 <end_block9+0x3ce2>
     ddf: 9c 81 d5     	stz	$d581                   ; 0xd581 <end_block9+0x3ce3>
     de2: e8           	inx
     de3: e0 b9        	cpx	#$b9
     de5: d0 f5        	bne	$ddc <f256main+0x484>
     de7: a2 b0        	ldx	#$b0
     de9: 8e 82 d5     	stx	$d582                   ; 0xd582 <end_block9+0x3ce4>
     dec: 9c 81 d5     	stz	$d581                   ; 0xd581 <end_block9+0x3ce3>
     def: e8           	inx
     df0: e0 b9        	cpx	#$b9
     df2: d0 f5        	bne	$de9 <f256main+0x491>
     df4: a9 00        	lda	#$0
     df6: 20 50 47     	jsr	$4750 <opl3_setInstrumentAllChannels>
     df9: a2 03        	ldx	#$3
     dfb: 8e 01 d7     	stx	$d701                   ; 0xd701 <end_block9+0x3e63>
     dfe: 9c 02 d7     	stz	$d702                   ; 0xd702 <end_block9+0x3e64>
     e01: 9c 02 d7     	stz	$d702                   ; 0xd702 <end_block9+0x3e64>
     e04: a2 e0        	ldx	#$e0
     e06: 8e 03 d7     	stx	$d703                   ; 0xd703 <end_block9+0x3e65>
     e09: a2 01        	ldx	#$1
     e0b: 8e 00 d7     	stx	$d700                   ; 0xd700 <end_block9+0x3e62>
     e0e: 9c 00 d7     	stz	$d700                   ; 0xd700 <end_block9+0x3e62>
     e11: ae 00 d7     	ldx	$d700                   ; 0xd700 <end_block9+0x3e62>
     e14: 30 fb        	bmi	$e11 <f256main+0x4b9>
     e16: a9 00        	lda	#$0
     e18: a2 02        	ldx	#$2
     e1a: 86 19        	stx	$19                     ; 0x19 <__rc9>
     e1c: a8           	tay
     e1d: 64 13        	stz	$13                     ; 0x13 <__rc3>
     e1f: 85 14        	sta	$14                     ; 0x14 <__rc4>
     e21: 0a           	asl
     e22: 85 12        	sta	$12                     ; 0x12 <__rc2>
     e24: a6 13        	ldx	$13                     ; 0x13 <__rc3>
     e26: 86 15        	stx	$15                     ; 0x15 <__rc5>
     e28: a5 13        	lda	$13                     ; 0x13 <__rc3>
     e2a: 2a           	rol
     e2b: 85 13        	sta	$13                     ; 0x13 <__rc3>
     e2d: a9 67        	lda	#$67
     e2f: a2 00        	ldx	#$0
     e31: 86 17        	stx	$17                     ; 0x17 <__rc7>
     e33: c0 01        	cpy	#$1
     e35: 65 12        	adc	$12                     ; 0x12 <__rc2>
     e37: a8           	tay
     e38: a9 94        	lda	#$94
     e3a: 65 13        	adc	$13                     ; 0x13 <__rc3>
     e3c: 84 12        	sty	$12                     ; 0x12 <__rc2>
     e3e: 85 13        	sta	$13                     ; 0x13 <__rc3>
     e40: 85 16        	sta	$16                     ; 0x16 <__rc6>
     e42: 18           	clc
     e43: a5 14        	lda	$14                     ; 0x14 <__rc4>
     e45: 69 02        	adc	#$2
     e47: aa           	tax
     e48: a5 15        	lda	$15                     ; 0x15 <__rc5>
     e4a: 69 00        	adc	#$0
     e4c: 85 18        	sta	$18                     ; 0x18 <__rc8>
     e4e: 18           	clc
     e4f: 98           	tya
     e50: 69 02        	adc	#$2
     e52: 85 14        	sta	$14                     ; 0x14 <__rc4>
     e54: a5 16        	lda	$16                     ; 0x16 <__rc6>
     e56: 69 00        	adc	#$0
     e58: 85 15        	sta	$15                     ; 0x15 <__rc5>
     e5a: a9 02        	lda	#$2
     e5c: 85 16        	sta	$16                     ; 0x16 <__rc6>
     e5e: a4 19        	ldy	$19                     ; 0x19 <__rc9>
     e60: b1 12        	lda	($12),y                 ; 0x12 <__rc2>
     e62: 85 1b        	sta	$1b                     ; 0x1b <__rc11>
     e64: a0 01        	ldy	#$1
     e66: b1 14        	lda	($14),y                 ; 0x14 <__rc4>
     e68: d0 09        	bne	$e73 <f256main+0x51b>
     e6a: e6 1b        	inc	$1b                     ; 0x1b <__rc11>
     e6c: c6 1b        	dec	$1b                     ; 0x1b <__rc11>
     e6e: d0 03        	bne	$e73 <f256main+0x51b>
     e70: 4c 0f 0f     	jmp	$f0f <f256main+0x5b7>
     e73: 5a           	phy
     e74: a4 1b        	ldy	$1b                     ; 0x1b <__rc11>
     e76: 84 19        	sty	$19                     ; 0x19 <__rc9>
     e78: 7a           	ply
     e79: 85 1a        	sta	$1a                     ; 0x1a <__rc10>
     e7b: b2 12        	lda	($12)                   ; 0x12 <__rc2>
     e7d: 85 1b        	sta	$1b                     ; 0x1b <__rc11>
     e7f: b1 12        	lda	($12),y                 ; 0x12 <__rc2>
     e81: 85 1c        	sta	$1c                     ; 0x1c <__rc12>
     e83: 8a           	txa
     e84: a6 18        	ldx	$18                     ; 0x18 <__rc8>
     e86: 85 14        	sta	$14                     ; 0x14 <__rc4>
     e88: 0a           	asl
     e89: 85 12        	sta	$12                     ; 0x12 <__rc2>
     e8b: 86 15        	stx	$15                     ; 0x15 <__rc5>
     e8d: 8a           	txa
     e8e: 2a           	rol
     e8f: 85 13        	sta	$13                     ; 0x13 <__rc3>
     e91: a9 67        	lda	#$67
     e93: 18           	clc
     e94: a2 00        	ldx	#$0
     e96: 86 17        	stx	$17                     ; 0x17 <__rc7>
     e98: 65 12        	adc	$12                     ; 0x12 <__rc2>
     e9a: 85 12        	sta	$12                     ; 0x12 <__rc2>
     e9c: a9 94        	lda	#$94
     e9e: 65 13        	adc	$13                     ; 0x13 <__rc3>
     ea0: 85 13        	sta	$13                     ; 0x13 <__rc3>
     ea2: b2 12        	lda	($12)                   ; 0x12 <__rc2>
     ea4: 85 18        	sta	$18                     ; 0x18 <__rc8>
     ea6: a0 01        	ldy	#$1
     ea8: b1 12        	lda	($12),y                 ; 0x12 <__rc2>
     eaa: a6 1b        	ldx	$1b                     ; 0x1b <__rc11>
     eac: 8e 01 d7     	stx	$d701                   ; 0xd701 <end_block9+0x3e63>
     eaf: a6 1c        	ldx	$1c                     ; 0x1c <__rc12>
     eb1: 8e 02 d7     	stx	$d702                   ; 0xd702 <end_block9+0x3e64>
     eb4: a6 18        	ldx	$18                     ; 0x18 <__rc8>
     eb6: 8e 02 d7     	stx	$d702                   ; 0xd702 <end_block9+0x3e64>
     eb9: 8d 03 d7     	sta	$d703                   ; 0xd703 <end_block9+0x3e65>
     ebc: 8c 00 d7     	sty	$d700                   ; 0xd700 <end_block9+0x3e62>
     ebf: 9c 00 d7     	stz	$d700                   ; 0xd700 <end_block9+0x3e62>
     ec2: ae 00 d7     	ldx	$d700                   ; 0xd700 <end_block9+0x3e62>
     ec5: 30 fb        	bmi	$ec2 <f256main+0x56a>
     ec7: a4 19        	ldy	$19                     ; 0x19 <__rc9>
     ec9: a6 1a        	ldx	$1a                     ; 0x1a <__rc10>
     ecb: 86 13        	stx	$13                     ; 0x13 <__rc3>
     ecd: 88           	dey
     ece: c0 ff        	cpy	#$ff
     ed0: d0 02        	bne	$ed4 <f256main+0x57c>
     ed2: c6 13        	dec	$13                     ; 0x13 <__rc3>
     ed4: a5 14        	lda	$14                     ; 0x14 <__rc4>
     ed6: a6 15        	ldx	$15                     ; 0x15 <__rc5>
     ed8: 1a           	inc
     ed9: d0 01        	bne	$edc <f256main+0x584>
     edb: e8           	inx
     edc: 84 19        	sty	$19                     ; 0x19 <__rc9>
     ede: 48           	pha
     edf: a5 13        	lda	$13                     ; 0x13 <__rc3>
     ee1: 85 1a        	sta	$1a                     ; 0x1a <__rc10>
     ee3: 68           	pla
     ee4: e6 13        	inc	$13                     ; 0x13 <__rc3>
     ee6: c6 13        	dec	$13                     ; 0x13 <__rc3>
     ee8: f0 03        	beq	$eed <f256main+0x595>
     eea: 4c 86 0e     	jmp	$e86 <f256main+0x52e>
     eed: c0 00        	cpy	#$0
     eef: f0 03        	beq	$ef4 <f256main+0x59c>
     ef1: 4c 86 0e     	jmp	$e86 <f256main+0x52e>
     ef4: e0 00        	cpx	#$0
     ef6: d0 08        	bne	$f00 <f256main+0x5a8>
     ef8: 86 13        	stx	$13                     ; 0x13 <__rc3>
     efa: c9 1c        	cmp	#$1c
     efc: 90 08        	bcc	$f06 <f256main+0x5ae>
     efe: 80 14        	bra	$f14 <f256main+0x5bc>
     f00: 86 13        	stx	$13                     ; 0x13 <__rc3>
     f02: e0 00        	cpx	#$0
     f04: b0 0e        	bcs	$f14 <f256main+0x5bc>
     f06: a6 16        	ldx	$16                     ; 0x16 <__rc6>
     f08: 86 19        	stx	$19                     ; 0x19 <__rc9>
     f0a: a4 17        	ldy	$17                     ; 0x17 <__rc7>
     f0c: 4c 1f 0e     	jmp	$e1f <f256main+0x4c7>
     f0f: 8a           	txa
     f10: a6 18        	ldx	$18                     ; 0x18 <__rc8>
     f12: 80 e0        	bra	$ef4 <f256main+0x59c>
     f14: a2 1f        	ldx	#$1f
     f16: 8e 20 d6     	stx	$d620                   ; 0xd620 <end_block9+0x3d82>
     f19: a2 2a        	ldx	#$2a
     f1b: 8e 21 d6     	stx	$d621                   ; 0xd621 <end_block9+0x3d83>
     f1e: a2 01        	ldx	#$1
     f20: 8e 22 d6     	stx	$d622                   ; 0xd622 <end_block9+0x3d84>
     f23: ad 22 d6     	lda	$d622                   ; 0xd622 <end_block9+0x3d84>
     f26: 29 01        	and	#$1
     f28: d0 f9        	bne	$f23 <f256main+0x5cb>
     f2a: a5 26        	lda	$26                     ; 0x26 <__rc22>
     f2c: a0 0f        	ldy	#$f
     f2e: 91 10        	sta	($10),y                 ; 0x10 <__rc0>
     f30: a5 27        	lda	$27                     ; 0x27 <__rc23>
     f32: c8           	iny
     f33: 91 10        	sta	($10),y                 ; 0x10 <__rc0>
     f35: a2 19        	ldx	#$19
     f37: 8e 20 d6     	stx	$d620                   ; 0xd620 <end_block9+0x3d82>
     f3a: a2 d5        	ldx	#$d5
     f3c: 8e 21 d6     	stx	$d621                   ; 0xd621 <end_block9+0x3d83>
     f3f: a2 01        	ldx	#$1
     f41: 8e 22 d6     	stx	$d622                   ; 0xd622 <end_block9+0x3d84>
     f44: ad 22 d6     	lda	$d622                   ; 0xd622 <end_block9+0x3d84>
     f47: 29 01        	and	#$1
     f49: d0 f9        	bne	$f44 <f256main+0x5ec>
     f4b: a2 27        	ldx	#$27
     f4d: 86 31        	stx	$31                     ; 0x31 <note>
     f4f: 64 32        	stz	$32                     ; 0x32 <note+0x1>
     f51: 8e 92 98     	stx	$9892                   ; 0x9892 <oldCursorNote>
     f54: 9c 93 98     	stz	$9893                   ; 0x9893 <oldCursorNote+0x1>
     f57: a6 01        	ldx	$1                      ; 0x1 <__data_size+0x1>
     f59: a9 01        	lda	#$1
     f5b: a8           	tay
     f5c: 84 19        	sty	$19                     ; 0x19 <__rc9>
     f5e: 85 01        	sta	$1                      ; 0x1 <__data_size+0x1>
     f60: 9c 20 d2     	stz	$d220                   ; 0xd220 <end_block9+0x3982>
     f63: 9c 21 d2     	stz	$d221                   ; 0xd221 <end_block9+0x3983>
     f66: a9 ff        	lda	#$ff
     f68: 8d 22 d2     	sta	$d222                   ; 0xd222 <end_block9+0x3984>
     f6b: 8d 23 d2     	sta	$d223                   ; 0xd223 <end_block9+0x3985>
     f6e: 86 01        	stx	$1                      ; 0x1 <__data_size+0x1>
     f70: a2 04        	ldx	#$4
     f72: 86 1b        	stx	$1b                     ; 0x1b <__rc11>
     f74: 64 1e        	stz	$1e                     ; 0x1e <__rc14>
     f76: 64 12        	stz	$12                     ; 0x12 <__rc2>
     f78: 1a           	inc
     f79: a0 14        	ldy	#$14
     f7b: 91 10        	sta	($10),y                 ; 0x10 <__rc0>
     f7d: 64 28        	stz	$28                     ; 0x28 <__rc24>
     f7f: 88           	dey
     f80: 91 10        	sta	($10),y                 ; 0x10 <__rc0>
     f82: a2 90        	ldx	#$90
     f84: 8a           	txa
     f85: 88           	dey
     f86: 91 10        	sta	($10),y                 ; 0x10 <__rc0>
     f88: a2 02        	ldx	#$2
     f8a: 86 29        	stx	$29                     ; 0x29 <__rc25>
     f8c: a5 2e        	lda	$2e                     ; 0x2e <__rc30>
     f8e: a0 0b        	ldy	#$b
     f90: 91 10        	sta	($10),y                 ; 0x10 <__rc0>
     f92: a5 2f        	lda	$2f                     ; 0x2f <__rc31>
     f94: c8           	iny
     f95: 91 10        	sta	($10),y                 ; 0x10 <__rc0>
     f97: a5 2e        	lda	$2e                     ; 0x2e <__rc30>
     f99: 88           	dey
     f9a: 91 10        	sta	($10),y                 ; 0x10 <__rc0>
     f9c: a5 2f        	lda	$2f                     ; 0x2f <__rc31>
     f9e: c8           	iny
     f9f: 91 10        	sta	($10),y                 ; 0x10 <__rc0>
     fa1: ad a0 dd     	lda	$dda0                   ; 0xdda0 <end_block9+0x4502>
     fa4: 29 02        	and	#$2
     fa6: f0 03        	beq	$fab <f256main+0x653>
     fa8: 4c 22 12     	jmp	$1222 <f256main+0x8ca>
     fab: ae a2 dd     	ldx	$dda2                   ; 0xdda2 <end_block9+0x4504>
     fae: 86 26        	stx	$26                     ; 0x26 <__rc22>
     fb0: ad a3 dd     	lda	$dda3                   ; 0xdda3 <end_block9+0x4505>
     fb3: a6 37        	ldx	$37                     ; 0x37 <instSelectMode>
     fb5: d0 4f        	bne	$1006 <f256main+0x6ae>
     fb7: a2 05        	ldx	#$5
     fb9: 86 33        	stx	$33                     ; 0x33 <_col>
     fbb: 8e 14 d0     	stx	$d014                   ; 0xd014 <end_block9+0x3776>
     fbe: 86 27        	stx	$27                     ; 0x27 <__rc23>
     fc0: 9c 15 d0     	stz	$d015                   ; 0xd015 <end_block9+0x3777>
     fc3: 85 2c        	sta	$2c                     ; 0x2c <__rc28>
     fc5: a9 04        	lda	#$4
     fc7: 85 34        	sta	$34                     ; 0x34 <_row>
     fc9: 8d 16 d0     	sta	$d016                   ; 0xd016 <end_block9+0x3778>
     fcc: 9c 17 d0     	stz	$d017                   ; 0xd017 <end_block9+0x3779>
     fcf: a2 12        	ldx	#$12
     fd1: 86 12        	stx	$12                     ; 0x12 <__rc2>
     fd3: a2 8e        	ldx	#$8e
     fd5: 86 13        	stx	$13                     ; 0x13 <__rc3>
     fd7: a6 19        	ldx	$19                     ; 0x19 <__rc9>
     fd9: 86 24        	stx	$24                     ; 0x24 <__rc20>
     fdb: 85 25        	sta	$25                     ; 0x25 <__rc21>
     fdd: a6 1e        	ldx	$1e                     ; 0x1e <__rc14>
     fdf: 86 2b        	stx	$2b                     ; 0x2b <__rc27>
     fe1: 20 90 33     	jsr	$3390 <textPrint>
     fe4: a6 2b        	ldx	$2b                     ; 0x2b <__rc27>
     fe6: 86 1e        	stx	$1e                     ; 0x1e <__rc14>
     fe8: a6 25        	ldx	$25                     ; 0x25 <__rc21>
     fea: a4 24        	ldy	$24                     ; 0x24 <__rc20>
     fec: 84 19        	sty	$19                     ; 0x19 <__rc9>
     fee: a5 27        	lda	$27                     ; 0x27 <__rc23>
     ff0: 85 33        	sta	$33                     ; 0x33 <_col>
     ff2: 8d 14 d0     	sta	$d014                   ; 0xd014 <end_block9+0x3776>
     ff5: 9c 15 d0     	stz	$d015                   ; 0xd015 <end_block9+0x3777>
     ff8: 86 34        	stx	$34                     ; 0x34 <_row>
     ffa: a9 04        	lda	#$4
     ffc: 85 1b        	sta	$1b                     ; 0x1b <__rc11>
     ffe: a5 2c        	lda	$2c                     ; 0x2c <__rc28>
    1000: 8e 16 d0     	stx	$d016                   ; 0xd016 <end_block9+0x3778>
    1003: 9c 17 d0     	stz	$d017                   ; 0xd017 <end_block9+0x3779>
    1006: 29 0f        	and	#$f
    1008: a6 26        	ldx	$26                     ; 0x26 <__rc22>
    100a: 86 2b        	stx	$2b                     ; 0x2b <__rc27>
    100c: aa           	tax
    100d: f0 03        	beq	$1012 <f256main+0x6ba>
    100f: 4c 71 10     	jmp	$1071 <f256main+0x719>
    1012: a6 2b        	ldx	$2b                     ; 0x2b <__rc27>
    1014: d0 03        	bne	$1019 <f256main+0x6c1>
    1016: 4c 22 12     	jmp	$1222 <f256main+0x8ca>
    1019: 4c 71 10     	jmp	$1071 <f256main+0x719>
    101c: a0 01        	ldy	#$1
    101e: 84 19        	sty	$19                     ; 0x19 <__rc9>
    1020: 86 28        	stx	$28                     ; 0x28 <__rc24>
    1022: 64 1e        	stz	$1e                     ; 0x1e <__rc14>
    1024: a2 01        	ldx	#$1
    1026: 8a           	txa
    1027: a0 14        	ldy	#$14
    1029: 91 10        	sta	($10),y                 ; 0x10 <__rc0>
    102b: a5 16        	lda	$16                     ; 0x16 <__rc6>
    102d: a0 12        	ldy	#$12
    102f: 80 3b        	bra	$106c <f256main+0x714>
    1031: a5 16        	lda	$16                     ; 0x16 <__rc6>
    1033: 30 1f        	bmi	$1054 <f256main+0x6fc>
    1035: a0 01        	ldy	#$1
    1037: 84 19        	sty	$19                     ; 0x19 <__rc9>
    1039: 86 28        	stx	$28                     ; 0x28 <__rc24>
    103b: a0 12        	ldy	#$12
    103d: b1 10        	lda	($10),y                 ; 0x10 <__rc0>
    103f: 29 f0        	and	#$f0
    1041: c9 80        	cmp	#$80
    1043: f0 04        	beq	$1049 <f256main+0x6f1>
    1045: c9 90        	cmp	#$90
    1047: d0 15        	bne	$105e <f256main+0x706>
    1049: a2 01        	ldx	#$1
    104b: 86 1e        	stx	$1e                     ; 0x1e <__rc14>
    104d: 8a           	txa
    104e: a0 14        	ldy	#$14
    1050: 91 10        	sta	($10),y                 ; 0x10 <__rc0>
    1052: 80 0e        	bra	$1062 <f256main+0x70a>
    1054: a0 01        	ldy	#$1
    1056: 84 19        	sty	$19                     ; 0x19 <__rc9>
    1058: 86 28        	stx	$28                     ; 0x28 <__rc24>
    105a: 64 1e        	stz	$1e                     ; 0x1e <__rc14>
    105c: 80 08        	bra	$1066 <f256main+0x70e>
    105e: a2 01        	ldx	#$1
    1060: 86 1e        	stx	$1e                     ; 0x1e <__rc14>
    1062: a6 16        	ldx	$16                     ; 0x16 <__rc6>
    1064: 86 2a        	stx	$2a                     ; 0x2a <__rc26>
    1066: 64 12        	stz	$12                     ; 0x12 <__rc2>
    1068: a9 00        	lda	#$0
    106a: a0 13        	ldy	#$13
    106c: 91 10        	sta	($10),y                 ; 0x10 <__rc0>
    106e: 4c 0a 12     	jmp	$120a <f256main+0x8b2>
    1071: ae a1 dd     	ldx	$dda1                   ; 0xdda1 <end_block9+0x4503>
    1074: e0 fe        	cpx	#$fe
    1076: d0 03        	bne	$107b <f256main+0x723>
    1078: 4c 0c 12     	jmp	$120c <f256main+0x8b4>
    107b: 86 16        	stx	$16                     ; 0x16 <__rc6>
    107d: a2 01        	ldx	#$1
    107f: 86 24        	stx	$24                     ; 0x24 <__rc20>
    1081: a6 28        	ldx	$28                     ; 0x28 <__rc24>
    1083: e0 ff        	cpx	#$ff
    1085: d0 02        	bne	$1089 <f256main+0x731>
    1087: a2 00        	ldx	#$0
    1089: e8           	inx
    108a: a4 1e        	ldy	$1e                     ; 0x1e <__rc14>
    108c: f0 49        	beq	$10d7 <f256main+0x77f>
    108e: 85 2c        	sta	$2c                     ; 0x2c <__rc28>
    1090: 86 28        	stx	$28                     ; 0x28 <__rc24>
    1092: a2 04        	ldx	#$4
    1094: 86 25        	stx	$25                     ; 0x25 <__rc21>
    1096: a6 7f        	ldx	$7f                     ; 0x7f <gPtr>
    1098: a4 80        	ldy	$80                     ; 0x80 <gPtr+0x1>
    109a: 86 12        	stx	$12                     ; 0x12 <__rc2>
    109c: 84 13        	sty	$13                     ; 0x13 <__rc3>
    109e: a2 40        	ldx	#$40
    10a0: a5 16        	lda	$16                     ; 0x16 <__rc6>
    10a2: c9 40        	cmp	#$40
    10a4: 90 01        	bcc	$10a7 <f256main+0x74f>
    10a6: aa           	tax
    10a7: a0 03        	ldy	#$3
    10a9: b1 12        	lda	($12),y                 ; 0x12 <__rc2>
    10ab: 85 18        	sta	$18                     ; 0x18 <__rc8>
    10ad: 88           	dey
    10ae: 98           	tya
    10af: 85 29        	sta	$29                     ; 0x29 <__rc25>
    10b1: b1 12        	lda	($12),y                 ; 0x12 <__rc2>
    10b3: 85 14        	sta	$14                     ; 0x14 <__rc4>
    10b5: a0 06        	ldy	#$6
    10b7: b1 12        	lda	($12),y                 ; 0x12 <__rc2>
    10b9: 86 13        	stx	$13                     ; 0x13 <__rc3>
    10bb: a6 2a        	ldx	$2a                     ; 0x2a <__rc26>
    10bd: 86 12        	stx	$12                     ; 0x12 <__rc2>
    10bf: 85 15        	sta	$15                     ; 0x15 <__rc5>
    10c1: 64 16        	stz	$16                     ; 0x16 <__rc6>
    10c3: 64 17        	stz	$17                     ; 0x17 <__rc7>
    10c5: a6 18        	ldx	$18                     ; 0x18 <__rc8>
    10c7: a0 14        	ldy	#$14
    10c9: b1 10        	lda	($10),y                 ; 0x10 <__rc0>
    10cb: 20 8f 3f     	jsr	$3f8f <dispatchNote>
    10ce: 64 1e        	stz	$1e                     ; 0x1e <__rc14>
    10d0: a6 24        	ldx	$24                     ; 0x24 <__rc20>
    10d2: 86 19        	stx	$19                     ; 0x19 <__rc9>
    10d4: 4c 06 12     	jmp	$1206 <f256main+0x8ae>
    10d7: 85 2c        	sta	$2c                     ; 0x2c <__rc28>
    10d9: a0 13        	ldy	#$13
    10db: b1 10        	lda	($10),y                 ; 0x10 <__rc0>
    10dd: d0 03        	bne	$10e2 <f256main+0x78a>
    10df: 4c 66 11     	jmp	$1166 <f256main+0x80e>
    10e2: 86 28        	stx	$28                     ; 0x28 <__rc24>
    10e4: a2 04        	ldx	#$4
    10e6: 86 25        	stx	$25                     ; 0x25 <__rc21>
    10e8: a5 16        	lda	$16                     ; 0x16 <__rc6>
    10ea: 18           	clc
    10eb: 69 ec        	adc	#$ec
    10ed: 48           	pha
    10ee: a0 14        	ldy	#$14
    10f0: b1 10        	lda	($10),y                 ; 0x10 <__rc0>
    10f2: aa           	tax
    10f3: 68           	pla
    10f4: e0 00        	cpx	#$0
    10f6: d0 03        	bne	$10fb <f256main+0x7a3>
    10f8: 4c 94 11     	jmp	$1194 <f256main+0x83c>
    10fb: a6 16        	ldx	$16                     ; 0x16 <__rc6>
    10fd: 86 2a        	stx	$2a                     ; 0x2a <__rc26>
    10ff: a4 24        	ldy	$24                     ; 0x24 <__rc20>
    1101: 0a           	asl
    1102: 64 12        	stz	$12                     ; 0x12 <__rc2>
    1104: 26 12        	rol	$12                     ; 0x12 <__rc2>
    1106: 0a           	asl
    1107: 85 13        	sta	$13                     ; 0x13 <__rc3>
    1109: 26 12        	rol	$12                     ; 0x12 <__rc2>
    110b: a9 00        	lda	#$0
    110d: 18           	clc
    110e: 65 13        	adc	$13                     ; 0x13 <__rc3>
    1110: aa           	tax
    1111: a9 d0        	lda	#$d0
    1113: 65 12        	adc	$12                     ; 0x12 <__rc2>
    1115: 86 12        	stx	$12                     ; 0x12 <__rc2>
    1117: 85 13        	sta	$13                     ; 0x13 <__rc3>
    1119: a6 01        	ldx	$1                      ; 0x1 <__data_size+0x1>
    111b: 84 01        	sty	$1                      ; 0x1 <__data_size+0x1>
    111d: a9 ff        	lda	#$ff
    111f: 92 12        	sta	($12)                   ; 0x12 <__rc2>
    1121: 85 14        	sta	$14                     ; 0x14 <__rc4>
    1123: 1a           	inc
    1124: 91 12        	sta	($12),y                 ; 0x12 <__rc2>
    1126: a9 02        	lda	#$2
    1128: 85 15        	sta	$15                     ; 0x15 <__rc5>
    112a: a8           	tay
    112b: 84 29        	sty	$29                     ; 0x29 <__rc25>
    112d: a5 14        	lda	$14                     ; 0x14 <__rc4>
    112f: a4 15        	ldy	$15                     ; 0x15 <__rc5>
    1131: 91 12        	sta	($12),y                 ; 0x12 <__rc2>
    1133: a0 03        	ldy	#$3
    1135: 91 12        	sta	($12),y                 ; 0x12 <__rc2>
    1137: 86 01        	stx	$1                      ; 0x1 <__data_size+0x1>
    1139: 64 33        	stz	$33                     ; 0x33 <_col>
    113b: 9c 14 d0     	stz	$d014                   ; 0xd014 <end_block9+0x3776>
    113e: 9c 15 d0     	stz	$d015                   ; 0xd015 <end_block9+0x3777>
    1141: a2 39        	ldx	#$39
    1143: 86 34        	stx	$34                     ; 0x34 <_row>
    1145: 8e 16 d0     	stx	$d016                   ; 0xd016 <end_block9+0x3778>
    1148: 9c 17 d0     	stz	$d017                   ; 0xd017 <end_block9+0x3779>
    114b: 64 12        	stz	$12                     ; 0x12 <__rc2>
    114d: 64 13        	stz	$13                     ; 0x13 <__rc3>
    114f: a2 00        	ldx	#$0
    1151: a5 16        	lda	$16                     ; 0x16 <__rc6>
    1153: 20 6e 3e     	jsr	$3e6e <textPrintUInt>
    1156: a6 24        	ldx	$24                     ; 0x24 <__rc20>
    1158: 86 19        	stx	$19                     ; 0x19 <__rc9>
    115a: a2 01        	ldx	#$1
    115c: 86 1e        	stx	$1e                     ; 0x1e <__rc14>
    115e: 8a           	txa
    115f: a0 14        	ldy	#$14
    1161: 91 10        	sta	($10),y                 ; 0x10 <__rc0>
    1163: 4c fe 11     	jmp	$11fe <f256main+0x8a6>
    1166: a5 16        	lda	$16                     ; 0x16 <__rc6>
    1168: 29 f0        	and	#$f0
    116a: a0 01        	ldy	#$1
    116c: 48           	pha
    116d: 98           	tya
    116e: a0 13        	ldy	#$13
    1170: 91 10        	sta	($10),y                 ; 0x10 <__rc0>
    1172: 68           	pla
    1173: c9 90        	cmp	#$90
    1175: d0 03        	bne	$117a <f256main+0x822>
    1177: 4c 1c 10     	jmp	$101c <f256main+0x6c4>
    117a: c9 80        	cmp	#$80
    117c: f0 03        	beq	$1181 <f256main+0x829>
    117e: 4c 31 10     	jmp	$1031 <f256main+0x6d9>
    1181: a0 01        	ldy	#$1
    1183: 84 19        	sty	$19                     ; 0x19 <__rc9>
    1185: 86 28        	stx	$28                     ; 0x28 <__rc24>
    1187: 64 12        	stz	$12                     ; 0x12 <__rc2>
    1189: a9 00        	lda	#$0
    118b: a0 14        	ldy	#$14
    118d: 91 10        	sta	($10),y                 ; 0x10 <__rc0>
    118f: 64 1e        	stz	$1e                     ; 0x1e <__rc14>
    1191: 4c 2b 10     	jmp	$102b <f256main+0x6d3>
    1194: aa           	tax
    1195: bc bd 84     	ldy	$84bd,x                 ; 0x84bd <textColors+0x2f>
    1198: a2 01        	ldx	#$1
    119a: c0 00        	cpy	#$0
    119c: f0 02        	beq	$11a0 <f256main+0x848>
    119e: a2 00        	ldx	#$0
    11a0: 64 12        	stz	$12                     ; 0x12 <__rc2>
    11a2: a0 01        	ldy	#$1
    11a4: 64 13        	stz	$13                     ; 0x13 <__rc3>
    11a6: e0 00        	cpx	#$0
    11a8: d0 02        	bne	$11ac <f256main+0x854>
    11aa: 84 13        	sty	$13                     ; 0x13 <__rc3>
    11ac: 46 13        	lsr	$13                     ; 0x13 <__rc3>
    11ae: 64 13        	stz	$13                     ; 0x13 <__rc3>
    11b0: 66 13        	ror	$13                     ; 0x13 <__rc3>
    11b2: 10 04        	bpl	$11b8 <f256main+0x860>
    11b4: a2 ff        	ldx	#$ff
    11b6: 80 02        	bra	$11ba <f256main+0x862>
    11b8: a2 00        	ldx	#$0
    11ba: 06 13        	asl	$13                     ; 0x13 <__rc3>
    11bc: 86 17        	stx	$17                     ; 0x17 <__rc7>
    11be: 26 17        	rol	$17                     ; 0x17 <__rc7>
    11c0: 0a           	asl
    11c1: 26 12        	rol	$12                     ; 0x12 <__rc2>
    11c3: 0a           	asl
    11c4: 26 12        	rol	$12                     ; 0x12 <__rc2>
    11c6: 64 13        	stz	$13                     ; 0x13 <__rc3>
    11c8: 18           	clc
    11c9: 65 13        	adc	$13                     ; 0x13 <__rc3>
    11cb: 85 14        	sta	$14                     ; 0x14 <__rc4>
    11cd: a9 d0        	lda	#$d0
    11cf: 65 12        	adc	$12                     ; 0x12 <__rc2>
    11d1: 85 15        	sta	$15                     ; 0x15 <__rc5>
    11d3: a6 01        	ldx	$1                      ; 0x1 <__data_size+0x1>
    11d5: 84 01        	sty	$1                      ; 0x1 <__data_size+0x1>
    11d7: 84 19        	sty	$19                     ; 0x19 <__rc9>
    11d9: a5 17        	lda	$17                     ; 0x17 <__rc7>
    11db: 91 14        	sta	($14),y                 ; 0x14 <__rc4>
    11dd: 92 14        	sta	($14)                   ; 0x14 <__rc4>
    11df: 85 12        	sta	$12                     ; 0x12 <__rc2>
    11e1: a0 02        	ldy	#$2
    11e3: 98           	tya
    11e4: 85 29        	sta	$29                     ; 0x29 <__rc25>
    11e6: a5 12        	lda	$12                     ; 0x12 <__rc2>
    11e8: 91 14        	sta	($14),y                 ; 0x14 <__rc4>
    11ea: a9 ff        	lda	#$ff
    11ec: c8           	iny
    11ed: 91 14        	sta	($14),y                 ; 0x14 <__rc4>
    11ef: 86 01        	stx	$1                      ; 0x1 <__data_size+0x1>
    11f1: a2 01        	ldx	#$1
    11f3: 86 1e        	stx	$1e                     ; 0x1e <__rc14>
    11f5: 1a           	inc
    11f6: a0 14        	ldy	#$14
    11f8: 91 10        	sta	($10),y                 ; 0x10 <__rc0>
    11fa: a6 16        	ldx	$16                     ; 0x16 <__rc6>
    11fc: 86 2a        	stx	$2a                     ; 0x2a <__rc26>
    11fe: 64 12        	stz	$12                     ; 0x12 <__rc2>
    1200: a9 00        	lda	#$0
    1202: a0 13        	ldy	#$13
    1204: 91 10        	sta	($10),y                 ; 0x10 <__rc0>
    1206: a6 25        	ldx	$25                     ; 0x25 <__rc21>
    1208: 86 1b        	stx	$1b                     ; 0x1b <__rc11>
    120a: a5 2c        	lda	$2c                     ; 0x2c <__rc28>
    120c: a2 ff        	ldx	#$ff
    120e: c6 2b        	dec	$2b                     ; 0x2b <__rc27>
    1210: e4 2b        	cpx	$2b                     ; 0x2b <__rc27>
    1212: d0 01        	bne	$1215 <f256main+0x8bd>
    1214: 3a           	dec
    1215: aa           	tax
    1216: f0 03        	beq	$121b <f256main+0x8c3>
    1218: 4c 71 10     	jmp	$1071 <f256main+0x719>
    121b: a6 2b        	ldx	$2b                     ; 0x2b <__rc27>
    121d: f0 03        	beq	$1222 <f256main+0x8ca>
    121f: 4c 71 10     	jmp	$1071 <f256main+0x719>
    1222: 64 81        	stz	$81                     ; 0x81 <kernelEventData>
    1224: 18           	clc
    1225: a5 10        	lda	$10                     ; 0x10 <__rc0>
    1227: 69 15        	adc	#$15
    1229: 85 12        	sta	$12                     ; 0x12 <__rc2>
    122b: a5 11        	lda	$11                     ; 0x11 <__rc1>
    122d: 69 00        	adc	#$0
    122f: 85 13        	sta	$13                     ; 0x13 <__rc3>
    1231: a2 94        	ldx	#$94
    1233: 86 14        	stx	$14                     ; 0x14 <__rc4>
    1235: a2 98        	ldx	#$98
    1237: 86 15        	stx	$15                     ; 0x15 <__rc5>
    1239: 20 00 ff     	jsr	$ff00 <end_block9+0x6662>
    123c: 92 12        	sta	($12)                   ; 0x12 <__rc2>
    123e: a9 00        	lda	#$0
    1240: 6a           	ror
    1241: 85 14        	sta	$14                     ; 0x14 <__rc4>
    1243: a6 81        	ldx	$81                     ; 0x81 <kernelEventData>
    1245: e0 08        	cpx	#$8
    1247: f0 4c        	beq	$1295 <f256main+0x93d>
    1249: e0 0a        	cpx	#$a
    124b: f0 2c        	beq	$1279 <f256main+0x921>
    124d: e0 52        	cpx	#$52
    124f: f0 03        	beq	$1254 <f256main+0x8fc>
    1251: 4c a1 0f     	jmp	$fa1 <f256main+0x649>
    1254: a6 85        	ldx	$85                     ; 0x85 <kernelEventData+0x4>
    1256: d0 03        	bne	$125b <f256main+0x903>
    1258: 4c 16 13     	jmp	$1316 <f256main+0x9be>
    125b: 86 2f        	stx	$2f                     ; 0x2f <__rc31>
    125d: 8a           	txa
    125e: 18           	clc
    125f: 69 fa        	adc	#$fa
    1261: aa           	tax
    1262: 85 2b        	sta	$2b                     ; 0x2b <__rc27>
    1264: a9 00        	lda	#$0
    1266: 69 ff        	adc	#$ff
    1268: 85 2e        	sta	$2e                     ; 0x2e <__rc30>
    126a: f0 03        	beq	$126f <f256main+0x917>
    126c: 4c 8e 13     	jmp	$138e <f256main+0xa36>
    126f: e0 fa        	cpx	#$fa
    1271: 90 03        	bcc	$1276 <f256main+0x91e>
    1273: 4c a1 0f     	jmp	$fa1 <f256main+0x649>
    1276: 4c 95 13     	jmp	$1395 <f256main+0xa3d>
    1279: a6 85        	ldx	$85                     ; 0x85 <kernelEventData+0x4>
    127b: e0 01        	cpx	#$1
    127d: d0 03        	bne	$1282 <f256main+0x92a>
    127f: 4c 92 16     	jmp	$1692 <f256main+0xd3a>
    1282: e0 20        	cpx	#$20
    1284: d0 03        	bne	$1289 <f256main+0x931>
    1286: 4c 43 16     	jmp	$1643 <f256main+0xceb>
    1289: e0 05        	cpx	#$5
    128b: f0 03        	beq	$1290 <f256main+0x938>
    128d: 4c a1 0f     	jmp	$fa1 <f256main+0x649>
    1290: 64 39        	stz	$39                     ; 0x39 <altHit>
    1292: 4c a1 0f     	jmp	$fa1 <f256main+0x649>
    1295: a2 01        	ldx	#$1
    1297: 86 2e        	stx	$2e                     ; 0x2e <__rc30>
    1299: a6 85        	ldx	$85                     ; 0x85 <kernelEventData+0x4>
    129b: 8a           	txa
    129c: 38           	sec
    129d: e9 01        	sbc	#$1
    129f: 50 02        	bvc	$12a3 <f256main+0x94b>
    12a1: 49 80        	eor	#$80
    12a3: a8           	tay
    12a4: 10 3a        	bpl	$12e0 <f256main+0x988>
    12a6: 8a           	txa
    12a7: 38           	sec
    12a8: e9 94        	sbc	#$94
    12aa: 50 02        	bvc	$12ae <f256main+0x956>
    12ac: 49 80        	eor	#$80
    12ae: a8           	tay
    12af: 30 03        	bmi	$12b4 <f256main+0x95c>
    12b1: 4c de 15     	jmp	$15de <f256main+0xc86>
    12b4: 8a           	txa
    12b5: 18           	clc
    12b6: 69 7f        	adc	#$7f
    12b8: c9 07        	cmp	#$7
    12ba: 90 03        	bcc	$12bf <f256main+0x967>
    12bc: 4c 08 1a     	jmp	$1a08 <f256main+0x10b0>
    12bf: 86 14        	stx	$14                     ; 0x14 <__rc4>
    12c1: 0a           	asl
    12c2: aa           	tax
    12c3: 7c 24 84     	jmp	($8424,x)               ; 0x8424 <__set_v+0x1>
    12c6: a5 1e        	lda	$1e                     ; 0x1e <__rc14>
    12c8: a0 11        	ldy	#$11
    12ca: 91 10        	sta	($10),y                 ; 0x10 <__rc0>
    12cc: a4 37        	ldy	$37                     ; 0x37 <instSelectMode>
    12ce: a2 01        	ldx	#$1
    12d0: 98           	tya
    12d1: f0 02        	beq	$12d5 <f256main+0x97d>
    12d3: a2 00        	ldx	#$0
    12d5: 8a           	txa
    12d6: d0 03        	bne	$12db <f256main+0x983>
    12d8: 4c 78 20     	jmp	$2078 <f256main+0x1720>
    12db: a0 01        	ldy	#$1
    12dd: 4c 7a 20     	jmp	$207a <f256main+0x1722>
    12e0: 8a           	txa
    12e1: 38           	sec
    12e2: e9 5d        	sbc	#$5d
    12e4: 50 02        	bvc	$12e8 <f256main+0x990>
    12e6: 49 80        	eor	#$80
    12e8: a8           	tay
    12e9: 30 03        	bmi	$12ee <f256main+0x996>
    12eb: 4c 97 16     	jmp	$1697 <f256main+0xd3f>
    12ee: 8a           	txa
    12ef: 38           	sec
    12f0: e9 20        	sbc	#$20
    12f2: 50 02        	bvc	$12f6 <f256main+0x99e>
    12f4: 49 80        	eor	#$80
    12f6: a8           	tay
    12f7: 30 03        	bmi	$12fc <f256main+0x9a4>
    12f9: 4c dd 17     	jmp	$17dd <f256main+0xe85>
    12fc: e0 01        	cpx	#$1
    12fe: d0 03        	bne	$1303 <f256main+0x9ab>
    1300: 4c 0f 1c     	jmp	$1c0f <f256main+0x12b7>
    1303: 86 14        	stx	$14                     ; 0x14 <__rc4>
    1305: e0 05        	cpx	#$5
    1307: f0 03        	beq	$130c <f256main+0x9b4>
    1309: 4c f1 1a     	jmp	$1af1 <f256main+0x1199>
    130c: a9 01        	lda	#$1
    130e: aa           	tax
    130f: 86 19        	stx	$19                     ; 0x19 <__rc9>
    1311: 85 39        	sta	$39                     ; 0x39 <altHit>
    1313: 4c 16 1c     	jmp	$1c16 <f256main+0x12be>
    1316: a2 80        	ldx	#$80
    1318: 86 f3        	stx	$f3                     ; 0xf3 <__zp_bss_size+0x9e>
    131a: 18           	clc
    131b: a5 10        	lda	$10                     ; 0x10 <__rc0>
    131d: 69 1e        	adc	#$1e
    131f: 85 12        	sta	$12                     ; 0x12 <__rc2>
    1321: a5 11        	lda	$11                     ; 0x11 <__rc1>
    1323: 69 00        	adc	#$0
    1325: 85 13        	sta	$13                     ; 0x13 <__rc3>
    1327: a2 94        	ldx	#$94
    1329: 86 14        	stx	$14                     ; 0x14 <__rc4>
    132b: a2 98        	ldx	#$98
    132d: 86 15        	stx	$15                     ; 0x15 <__rc5>
    132f: 20 f0 ff     	jsr	$fff0 <end_block9+0x6752>
    1332: 92 12        	sta	($12)                   ; 0x12 <__rc2>
    1334: a9 00        	lda	#$0
    1336: 6a           	ror
    1337: 85 14        	sta	$14                     ; 0x14 <__rc4>
    1339: a9 09        	lda	#$9
    133b: 18           	clc
    133c: 72 12        	adc	($12)                   ; 0x12 <__rc2>
    133e: 85 3d        	sta	$3d                     ; 0x3d <refTimer.1>
    1340: 64 f3        	stz	$f3                     ; 0xf3 <__zp_bss_size+0x9e>
    1342: a6 3d        	ldx	$3d                     ; 0x3d <refTimer.1>
    1344: 86 f4        	stx	$f4                     ; 0xf4 <__zp_bss_size+0x9f>
    1346: 64 f5        	stz	$f5                     ; 0xf5 <__zp_bss_size+0xa0>
    1348: 18           	clc
    1349: a5 10        	lda	$10                     ; 0x10 <__rc0>
    134b: 69 1f        	adc	#$1f
    134d: 85 12        	sta	$12                     ; 0x12 <__rc2>
    134f: a5 11        	lda	$11                     ; 0x11 <__rc1>
    1351: 69 00        	adc	#$0
    1353: 85 13        	sta	$13                     ; 0x13 <__rc3>
    1355: 20 f0 ff     	jsr	$fff0 <end_block9+0x6752>
    1358: 92 12        	sta	($12)                   ; 0x12 <__rc2>
    135a: a9 00        	lda	#$0
    135c: 6a           	ror
    135d: 85 14        	sta	$14                     ; 0x14 <__rc4>
    135f: a6 37        	ldx	$37                     ; 0x37 <instSelectMode>
    1361: f0 03        	beq	$1366 <f256main+0xa0e>
    1363: 4c a1 0f     	jmp	$fa1 <f256main+0x649>
    1366: a6 1e        	ldx	$1e                     ; 0x1e <__rc14>
    1368: 86 2b        	stx	$2b                     ; 0x2b <__rc27>
    136a: a2 01        	ldx	#$1
    136c: 86 24        	stx	$24                     ; 0x24 <__rc20>
    136e: a2 45        	ldx	#$45
    1370: 86 33        	stx	$33                     ; 0x33 <_col>
    1372: 8e 14 d0     	stx	$d014                   ; 0xd014 <end_block9+0x3776>
    1375: 9c 15 d0     	stz	$d015                   ; 0xd015 <end_block9+0x3777>
    1378: a0 03        	ldy	#$3
    137a: 84 34        	sty	$34                     ; 0x34 <_row>
    137c: 8c 16 d0     	sty	$d016                   ; 0xd016 <end_block9+0x3778>
    137f: 9c 17 d0     	stz	$d017                   ; 0xd017 <end_block9+0x3779>
    1382: a6 3e        	ldx	$3e                     ; 0x3e <chipAct.0>
    1384: d0 03        	bne	$1389 <f256main+0xa31>
    1386: 4c 13 1b     	jmp	$1b13 <f256main+0x11bb>
    1389: a0 90        	ldy	#$90
    138b: 4c 15 1b     	jmp	$1b15 <f256main+0x11bd>
    138e: c9 00        	cmp	#$0
    1390: 90 03        	bcc	$1395 <f256main+0xa3d>
    1392: 4c a1 0f     	jmp	$fa1 <f256main+0x649>
    1395: a5 3b        	lda	$3b                     ; 0x3b <theBeats>
    1397: a6 3c        	ldx	$3c                     ; 0x3c <theBeats+0x1>
    1399: 85 12        	sta	$12                     ; 0x12 <__rc2>
    139b: 85 1c        	sta	$1c                     ; 0x1c <__rc12>
    139d: 86 13        	stx	$13                     ; 0x13 <__rc3>
    139f: 86 18        	stx	$18                     ; 0x18 <__rc8>
    13a1: a6 7f        	ldx	$7f                     ; 0x7f <gPtr>
    13a3: a5 1e        	lda	$1e                     ; 0x1e <__rc14>
    13a5: a0 11        	ldy	#$11
    13a7: 91 10        	sta	($10),y                 ; 0x10 <__rc0>
    13a9: a4 80        	ldy	$80                     ; 0x80 <gPtr+0x1>
    13ab: 86 14        	stx	$14                     ; 0x14 <__rc4>
    13ad: 84 15        	sty	$15                     ; 0x15 <__rc5>
    13af: a0 08        	ldy	#$8
    13b1: b1 14        	lda	($14),y                 ; 0x14 <__rc4>
    13b3: 48           	pha
    13b4: a0 11        	ldy	#$11
    13b6: b1 10        	lda	($10),y                 ; 0x10 <__rc0>
    13b8: 85 1e        	sta	$1e                     ; 0x1e <__rc14>
    13ba: 68           	pla
    13bb: 85 1a        	sta	$1a                     ; 0x1a <__rc10>
    13bd: 0a           	asl
    13be: 64 17        	stz	$17                     ; 0x17 <__rc7>
    13c0: 26 17        	rol	$17                     ; 0x17 <__rc7>
    13c2: 0a           	asl
    13c3: 26 17        	rol	$17                     ; 0x17 <__rc7>
    13c5: 0a           	asl
    13c6: 26 17        	rol	$17                     ; 0x17 <__rc7>
    13c8: 0a           	asl
    13c9: 26 17        	rol	$17                     ; 0x17 <__rc7>
    13cb: 38           	sec
    13cc: e5 1a        	sbc	$1a                     ; 0x1a <__rc10>
    13ce: 85 16        	sta	$16                     ; 0x16 <__rc6>
    13d0: a5 17        	lda	$17                     ; 0x17 <__rc7>
    13d2: e9 00        	sbc	#$0
    13d4: 85 17        	sta	$17                     ; 0x17 <__rc7>
    13d6: a5 1c        	lda	$1c                     ; 0x1c <__rc12>
    13d8: 18           	clc
    13d9: 65 16        	adc	$16                     ; 0x16 <__rc6>
    13db: 85 16        	sta	$16                     ; 0x16 <__rc6>
    13dd: a5 18        	lda	$18                     ; 0x18 <__rc8>
    13df: 85 1d        	sta	$1d                     ; 0x1d <__rc13>
    13e1: 65 17        	adc	$17                     ; 0x17 <__rc7>
    13e3: 85 18        	sta	$18                     ; 0x18 <__rc8>
    13e5: 85 17        	sta	$17                     ; 0x17 <__rc7>
    13e7: b2 16        	lda	($16)                   ; 0x16 <__rc6>
    13e9: d0 03        	bne	$13ee <f256main+0xa96>
    13eb: 4c a1 0f     	jmp	$fa1 <f256main+0x649>
    13ee: 18           	clc
    13ef: a5 16        	lda	$16                     ; 0x16 <__rc6>
    13f1: 69 0b        	adc	#$b
    13f3: aa           	tax
    13f4: a5 18        	lda	$18                     ; 0x18 <__rc8>
    13f6: 69 00        	adc	#$0
    13f8: 86 18        	stx	$18                     ; 0x18 <__rc8>
    13fa: 85 19        	sta	$19                     ; 0x19 <__rc9>
    13fc: a0 01        	ldy	#$1
    13fe: 84 1b        	sty	$1b                     ; 0x1b <__rc11>
    1400: b1 18        	lda	($18),y                 ; 0x18 <__rc8>
    1402: 85 18        	sta	$18                     ; 0x18 <__rc8>
    1404: a5 2f        	lda	$2f                     ; 0x2f <__rc31>
    1406: 18           	clc
    1407: a0 0b        	ldy	#$b
    1409: 71 16        	adc	($16),y                 ; 0x16 <__rc6>
    140b: aa           	tax
    140c: a5 18        	lda	$18                     ; 0x18 <__rc8>
    140e: 69 00        	adc	#$0
    1410: 85 16        	sta	$16                     ; 0x16 <__rc6>
    1412: 18           	clc
    1413: 8a           	txa
    1414: 69 fa        	adc	#$fa
    1416: aa           	tax
    1417: a5 16        	lda	$16                     ; 0x16 <__rc6>
    1419: 69 ff        	adc	#$ff
    141b: 85 17        	sta	$17                     ; 0x17 <__rc7>
    141d: 86 16        	stx	$16                     ; 0x16 <__rc6>
    141f: b2 16        	lda	($16)                   ; 0x16 <__rc6>
    1421: c9 02        	cmp	#$2
    1423: f0 03        	beq	$1428 <f256main+0xad0>
    1425: 4c 88 14     	jmp	$1488 <f256main+0xb30>
    1428: a9 00        	lda	#$0
    142a: 92 16        	sta	($16)                   ; 0x16 <__rc6>
    142c: a0 08        	ldy	#$8
    142e: b1 14        	lda	($14),y                 ; 0x14 <__rc4>
    1430: 85 1a        	sta	$1a                     ; 0x1a <__rc10>
    1432: 0a           	asl
    1433: 64 15        	stz	$15                     ; 0x15 <__rc5>
    1435: 26 15        	rol	$15                     ; 0x15 <__rc5>
    1437: 0a           	asl
    1438: 26 15        	rol	$15                     ; 0x15 <__rc5>
    143a: 0a           	asl
    143b: 26 15        	rol	$15                     ; 0x15 <__rc5>
    143d: 0a           	asl
    143e: 26 15        	rol	$15                     ; 0x15 <__rc5>
    1440: 38           	sec
    1441: e5 1a        	sbc	$1a                     ; 0x1a <__rc10>
    1443: 85 14        	sta	$14                     ; 0x14 <__rc4>
    1445: a5 15        	lda	$15                     ; 0x15 <__rc5>
    1447: e9 00        	sbc	#$0
    1449: 85 15        	sta	$15                     ; 0x15 <__rc5>
    144b: 18           	clc
    144c: a5 1c        	lda	$1c                     ; 0x1c <__rc12>
    144e: 65 14        	adc	$14                     ; 0x14 <__rc4>
    1450: aa           	tax
    1451: a5 1d        	lda	$1d                     ; 0x1d <__rc13>
    1453: 65 15        	adc	$15                     ; 0x15 <__rc5>
    1455: 86 14        	stx	$14                     ; 0x14 <__rc4>
    1457: 85 15        	sta	$15                     ; 0x15 <__rc5>
    1459: a8           	tay
    145a: 18           	clc
    145b: 8a           	txa
    145c: 69 0b        	adc	#$b
    145e: 85 16        	sta	$16                     ; 0x16 <__rc6>
    1460: 98           	tya
    1461: 69 00        	adc	#$0
    1463: 85 17        	sta	$17                     ; 0x17 <__rc7>
    1465: a4 1b        	ldy	$1b                     ; 0x1b <__rc11>
    1467: b1 16        	lda	($16),y                 ; 0x16 <__rc6>
    1469: 85 16        	sta	$16                     ; 0x16 <__rc6>
    146b: a5 2f        	lda	$2f                     ; 0x2f <__rc31>
    146d: 18           	clc
    146e: a0 0b        	ldy	#$b
    1470: 71 14        	adc	($14),y                 ; 0x14 <__rc4>
    1472: aa           	tax
    1473: a5 16        	lda	$16                     ; 0x16 <__rc6>
    1475: 69 00        	adc	#$0
    1477: 85 14        	sta	$14                     ; 0x14 <__rc4>
    1479: 18           	clc
    147a: 8a           	txa
    147b: 69 fa        	adc	#$fa
    147d: aa           	tax
    147e: a5 14        	lda	$14                     ; 0x14 <__rc4>
    1480: 69 ff        	adc	#$ff
    1482: 85 15        	sta	$15                     ; 0x15 <__rc5>
    1484: 86 14        	stx	$14                     ; 0x14 <__rc4>
    1486: b2 14        	lda	($14)                   ; 0x14 <__rc4>
    1488: a6 2b        	ldx	$2b                     ; 0x2b <__rc27>
    148a: 86 14        	stx	$14                     ; 0x14 <__rc4>
    148c: 06 14        	asl	$14                     ; 0x14 <__rc4>
    148e: a6 14        	ldx	$14                     ; 0x14 <__rc4>
    1490: 86 18        	stx	$18                     ; 0x18 <__rc8>
    1492: a6 2e        	ldx	$2e                     ; 0x2e <__rc30>
    1494: 86 14        	stx	$14                     ; 0x14 <__rc4>
    1496: 26 14        	rol	$14                     ; 0x14 <__rc4>
    1498: a6 14        	ldx	$14                     ; 0x14 <__rc4>
    149a: 86 19        	stx	$19                     ; 0x19 <__rc9>
    149c: c9 01        	cmp	#$1
    149e: f0 03        	beq	$14a3 <f256main+0xb4b>
    14a0: 4c a5 18     	jmp	$18a5 <f256main+0xf4d>
    14a3: a2 80        	ldx	#$80
    14a5: 86 f3        	stx	$f3                     ; 0xf3 <__zp_bss_size+0x9e>
    14a7: 18           	clc
    14a8: a5 10        	lda	$10                     ; 0x10 <__rc0>
    14aa: 69 20        	adc	#$20
    14ac: 85 14        	sta	$14                     ; 0x14 <__rc4>
    14ae: a5 11        	lda	$11                     ; 0x11 <__rc1>
    14b0: 69 00        	adc	#$0
    14b2: 85 15        	sta	$15                     ; 0x15 <__rc5>
    14b4: a2 94        	ldx	#$94
    14b6: 86 12        	stx	$12                     ; 0x12 <__rc2>
    14b8: a2 98        	ldx	#$98
    14ba: 86 13        	stx	$13                     ; 0x13 <__rc3>
    14bc: 20 f0 ff     	jsr	$fff0 <end_block9+0x6752>
    14bf: 92 14        	sta	($14)                   ; 0x14 <__rc4>
    14c1: a9 00        	lda	#$0
    14c3: 6a           	ror
    14c4: 85 12        	sta	$12                     ; 0x12 <__rc2>
    14c6: b2 14        	lda	($14)                   ; 0x14 <__rc4>
    14c8: 85 1a        	sta	$1a                     ; 0x1a <__rc10>
    14ca: a0 0f        	ldy	#$f
    14cc: b1 10        	lda	($10),y                 ; 0x10 <__rc0>
    14ce: 85 14        	sta	$14                     ; 0x14 <__rc4>
    14d0: c8           	iny
    14d1: b1 10        	lda	($10),y                 ; 0x10 <__rc0>
    14d3: 85 15        	sta	$15                     ; 0x15 <__rc5>
    14d5: b2 14        	lda	($14)                   ; 0x14 <__rc4>
    14d7: aa           	tax
    14d8: 18           	clc
    14d9: a5 1a        	lda	$1a                     ; 0x1a <__rc10>
    14db: 7d 80 98     	adc	$9880,x                 ; 0x9880 <mainTempoLUT>
    14de: 85 1b        	sta	$1b                     ; 0x1b <__rc11>
    14e0: a6 7f        	ldx	$7f                     ; 0x7f <gPtr>
    14e2: a4 80        	ldy	$80                     ; 0x80 <gPtr+0x1>
    14e4: 86 14        	stx	$14                     ; 0x14 <__rc4>
    14e6: 84 15        	sty	$15                     ; 0x15 <__rc5>
    14e8: a0 08        	ldy	#$8
    14ea: b1 14        	lda	($14),y                 ; 0x14 <__rc4>
    14ec: 84 1a        	sty	$1a                     ; 0x1a <__rc10>
    14ee: 85 14        	sta	$14                     ; 0x14 <__rc4>
    14f0: 0a           	asl
    14f1: aa           	tax
    14f2: a9 00        	lda	#$0
    14f4: 2a           	rol
    14f5: 86 15        	stx	$15                     ; 0x15 <__rc5>
    14f7: 06 15        	asl	$15                     ; 0x15 <__rc5>
    14f9: 2a           	rol
    14fa: 06 15        	asl	$15                     ; 0x15 <__rc5>
    14fc: 2a           	rol
    14fd: 06 15        	asl	$15                     ; 0x15 <__rc5>
    14ff: 2a           	rol
    1500: aa           	tax
    1501: 38           	sec
    1502: a5 15        	lda	$15                     ; 0x15 <__rc5>
    1504: e5 14        	sbc	$14                     ; 0x14 <__rc4>
    1506: 85 14        	sta	$14                     ; 0x14 <__rc4>
    1508: 8a           	txa
    1509: e9 00        	sbc	#$0
    150b: a8           	tay
    150c: 18           	clc
    150d: a5 14        	lda	$14                     ; 0x14 <__rc4>
    150f: 65 3b        	adc	$3b                     ; 0x3b <theBeats>
    1511: aa           	tax
    1512: 98           	tya
    1513: 65 3c        	adc	$3c                     ; 0x3c <theBeats+0x1>
    1515: 86 14        	stx	$14                     ; 0x14 <__rc4>
    1517: 85 15        	sta	$15                     ; 0x15 <__rc5>
    1519: a8           	tay
    151a: 18           	clc
    151b: 8a           	txa
    151c: 69 0d        	adc	#$d
    151e: 85 16        	sta	$16                     ; 0x16 <__rc6>
    1520: 98           	tya
    1521: 69 00        	adc	#$0
    1523: 85 17        	sta	$17                     ; 0x17 <__rc7>
    1525: 18           	clc
    1526: a5 18        	lda	$18                     ; 0x18 <__rc8>
    1528: 65 2b        	adc	$2b                     ; 0x2b <__rc27>
    152a: aa           	tax
    152b: a5 19        	lda	$19                     ; 0x19 <__rc9>
    152d: 65 2e        	adc	$2e                     ; 0x2e <__rc30>
    152f: 85 18        	sta	$18                     ; 0x18 <__rc8>
    1531: 18           	clc
    1532: a0 0d        	ldy	#$d
    1534: 8a           	txa
    1535: 71 14        	adc	($14),y                 ; 0x14 <__rc4>
    1537: 85 14        	sta	$14                     ; 0x14 <__rc4>
    1539: a0 01        	ldy	#$1
    153b: a5 18        	lda	$18                     ; 0x18 <__rc8>
    153d: 71 16        	adc	($16),y                 ; 0x16 <__rc6>
    153f: 85 15        	sta	$15                     ; 0x15 <__rc5>
    1541: a5 1b        	lda	$1b                     ; 0x1b <__rc11>
    1543: 91 14        	sta	($14),y                 ; 0x14 <__rc4>
    1545: b2 14        	lda	($14)                   ; 0x14 <__rc4>
    1547: 85 f3        	sta	$f3                     ; 0xf3 <__zp_bss_size+0x9e>
    1549: b1 14        	lda	($14),y                 ; 0x14 <__rc4>
    154b: 84 16        	sty	$16                     ; 0x16 <__rc6>
    154d: 85 f4        	sta	$f4                     ; 0xf4 <__zp_bss_size+0x9f>
    154f: c8           	iny
    1550: a2 02        	ldx	#$2
    1552: 86 29        	stx	$29                     ; 0x29 <__rc25>
    1554: b1 14        	lda	($14),y                 ; 0x14 <__rc4>
    1556: 85 f5        	sta	$f5                     ; 0xf5 <__zp_bss_size+0xa0>
    1558: 18           	clc
    1559: a5 10        	lda	$10                     ; 0x10 <__rc0>
    155b: 69 21        	adc	#$21
    155d: 85 14        	sta	$14                     ; 0x14 <__rc4>
    155f: a5 11        	lda	$11                     ; 0x11 <__rc1>
    1561: 69 00        	adc	#$0
    1563: 85 15        	sta	$15                     ; 0x15 <__rc5>
    1565: 20 f0 ff     	jsr	$fff0 <end_block9+0x6752>
    1568: 92 14        	sta	($14)                   ; 0x14 <__rc4>
    156a: a9 00        	lda	#$0
    156c: 6a           	ror
    156d: 85 12        	sta	$12                     ; 0x12 <__rc2>
    156f: a6 7f        	ldx	$7f                     ; 0x7f <gPtr>
    1571: a4 80        	ldy	$80                     ; 0x80 <gPtr+0x1>
    1573: 86 12        	stx	$12                     ; 0x12 <__rc2>
    1575: 84 13        	sty	$13                     ; 0x13 <__rc3>
    1577: a4 1a        	ldy	$1a                     ; 0x1a <__rc10>
    1579: b1 12        	lda	($12),y                 ; 0x12 <__rc2>
    157b: 85 12        	sta	$12                     ; 0x12 <__rc2>
    157d: 0a           	asl
    157e: aa           	tax
    157f: a9 00        	lda	#$0
    1581: 2a           	rol
    1582: 86 13        	stx	$13                     ; 0x13 <__rc3>
    1584: 06 13        	asl	$13                     ; 0x13 <__rc3>
    1586: 2a           	rol
    1587: 06 13        	asl	$13                     ; 0x13 <__rc3>
    1589: 2a           	rol
    158a: 06 13        	asl	$13                     ; 0x13 <__rc3>
    158c: 2a           	rol
    158d: aa           	tax
    158e: 38           	sec
    158f: a5 13        	lda	$13                     ; 0x13 <__rc3>
    1591: e5 12        	sbc	$12                     ; 0x12 <__rc2>
    1593: 85 12        	sta	$12                     ; 0x12 <__rc2>
    1595: 8a           	txa
    1596: e9 00        	sbc	#$0
    1598: a8           	tay
    1599: 18           	clc
    159a: a5 12        	lda	$12                     ; 0x12 <__rc2>
    159c: 65 3b        	adc	$3b                     ; 0x3b <theBeats>
    159e: aa           	tax
    159f: 98           	tya
    15a0: 65 3c        	adc	$3c                     ; 0x3c <theBeats+0x1>
    15a2: 86 12        	stx	$12                     ; 0x12 <__rc2>
    15a4: 85 13        	sta	$13                     ; 0x13 <__rc3>
    15a6: a8           	tay
    15a7: 18           	clc
    15a8: 8a           	txa
    15a9: 69 0b        	adc	#$b
    15ab: 85 14        	sta	$14                     ; 0x14 <__rc4>
    15ad: 98           	tya
    15ae: 69 00        	adc	#$0
    15b0: 85 15        	sta	$15                     ; 0x15 <__rc5>
    15b2: a2 01        	ldx	#$1
    15b4: 86 19        	stx	$19                     ; 0x19 <__rc9>
    15b6: a4 16        	ldy	$16                     ; 0x16 <__rc6>
    15b8: b1 14        	lda	($14),y                 ; 0x14 <__rc4>
    15ba: 85 14        	sta	$14                     ; 0x14 <__rc4>
    15bc: 18           	clc
    15bd: a0 0b        	ldy	#$b
    15bf: a5 2f        	lda	$2f                     ; 0x2f <__rc31>
    15c1: 71 12        	adc	($12),y                 ; 0x12 <__rc2>
    15c3: aa           	tax
    15c4: a5 14        	lda	$14                     ; 0x14 <__rc4>
    15c6: 69 00        	adc	#$0
    15c8: 85 12        	sta	$12                     ; 0x12 <__rc2>
    15ca: 18           	clc
    15cb: 8a           	txa
    15cc: 69 fa        	adc	#$fa
    15ce: aa           	tax
    15cf: a5 12        	lda	$12                     ; 0x12 <__rc2>
    15d1: 69 ff        	adc	#$ff
    15d3: 85 13        	sta	$13                     ; 0x13 <__rc3>
    15d5: 86 12        	stx	$12                     ; 0x12 <__rc2>
    15d7: a9 02        	lda	#$2
    15d9: 92 12        	sta	($12)                   ; 0x12 <__rc2>
    15db: 4c fc 22     	jmp	$22fc <f256main+0x19a4>
    15de: 8a           	txa
    15df: 18           	clc
    15e0: 69 4a        	adc	#$4a
    15e2: c9 04        	cmp	#$4
    15e4: 90 03        	bcc	$15e9 <f256main+0xc91>
    15e6: 4c b2 19     	jmp	$19b2 <f256main+0x105a>
    15e9: 0a           	asl
    15ea: aa           	tax
    15eb: 7c 32 84     	jmp	($8432,x)               ; 0x8432 <__set_v+0xf>
    15ee: a6 1e        	ldx	$1e                     ; 0x1e <__rc14>
    15f0: 86 2c        	stx	$2c                     ; 0x2c <__rc28>
    15f2: a6 37        	ldx	$37                     ; 0x37 <instSelectMode>
    15f4: a4 7f        	ldy	$7f                     ; 0x7f <gPtr>
    15f6: a5 80        	lda	$80                     ; 0x80 <gPtr+0x1>
    15f8: 84 12        	sty	$12                     ; 0x12 <__rc2>
    15fa: 85 13        	sta	$13                     ; 0x13 <__rc3>
    15fc: a0 06        	ldy	#$6
    15fe: b1 12        	lda	($12),y                 ; 0x12 <__rc2>
    1600: e0 00        	cpx	#$0
    1602: d0 03        	bne	$1607 <f256main+0xcaf>
    1604: 4c 4f 28     	jmp	$284f <f256main+0x1ef7>
    1607: aa           	tax
    1608: f0 03        	beq	$160d <f256main+0xcb5>
    160a: 4c ae 2b     	jmp	$2bae <f256main+0x2256>
    160d: a2 01        	ldx	#$1
    160f: 86 16        	stx	$16                     ; 0x16 <__rc6>
    1611: a5 3a        	lda	$3a                     ; 0x3a <shiftHit>
    1613: 29 01        	and	#$1
    1615: a2 1d        	ldx	#$1d
    1617: a0 00        	ldy	#$0
    1619: c9 00        	cmp	#$0
    161b: d0 02        	bne	$161f <f256main+0xcc7>
    161d: a2 02        	ldx	#$2
    161f: a9 01        	lda	#$1
    1621: 25 3a        	and	$3a                     ; 0x3a <shiftHit>
    1623: 85 17        	sta	$17                     ; 0x17 <__rc7>
    1625: 98           	tya
    1626: f0 03        	beq	$162b <f256main+0xcd3>
    1628: 4c f7 2a     	jmp	$2af7 <f256main+0x219f>
    162b: b2 12        	lda	($12)                   ; 0x12 <__rc2>
    162d: 85 14        	sta	$14                     ; 0x14 <__rc4>
    162f: a0 01        	ldy	#$1
    1631: b1 12        	lda	($12),y                 ; 0x12 <__rc2>
    1633: 85 15        	sta	$15                     ; 0x15 <__rc5>
    1635: a0 03        	ldy	#$3
    1637: b1 12        	lda	($12),y                 ; 0x12 <__rc2>
    1639: a8           	tay
    163a: b1 14        	lda	($14),y                 ; 0x14 <__rc4>
    163c: 85 14        	sta	$14                     ; 0x14 <__rc4>
    163e: e4 14        	cpx	$14                     ; 0x14 <__rc4>
    1640: 4c f9 2a     	jmp	$2af9 <f256main+0x21a1>
    1643: a6 7f        	ldx	$7f                     ; 0x7f <gPtr>
    1645: a4 19        	ldy	$19                     ; 0x19 <__rc9>
    1647: 84 24        	sty	$24                     ; 0x24 <__rc20>
    1649: a4 1b        	ldy	$1b                     ; 0x1b <__rc11>
    164b: 84 25        	sty	$25                     ; 0x25 <__rc21>
    164d: a4 1e        	ldy	$1e                     ; 0x1e <__rc14>
    164f: 84 2b        	sty	$2b                     ; 0x2b <__rc27>
    1651: a4 80        	ldy	$80                     ; 0x80 <gPtr+0x1>
    1653: 86 14        	stx	$14                     ; 0x14 <__rc4>
    1655: 84 15        	sty	$15                     ; 0x15 <__rc5>
    1657: a0 03        	ldy	#$3
    1659: b1 14        	lda	($14),y                 ; 0x14 <__rc4>
    165b: 85 18        	sta	$18                     ; 0x18 <__rc8>
    165d: a9 15        	lda	#$15
    165f: 18           	clc
    1660: 65 31        	adc	$31                     ; 0x31 <note>
    1662: 85 12        	sta	$12                     ; 0x12 <__rc2>
    1664: 88           	dey
    1665: a2 02        	ldx	#$2
    1667: 86 29        	stx	$29                     ; 0x29 <__rc25>
    1669: b1 14        	lda	($14),y                 ; 0x14 <__rc4>
    166b: aa           	tax
    166c: a0 06        	ldy	#$6
    166e: b1 14        	lda	($14),y                 ; 0x14 <__rc4>
    1670: 86 14        	stx	$14                     ; 0x14 <__rc4>
    1672: a2 3f        	ldx	#$3f
    1674: 86 13        	stx	$13                     ; 0x13 <__rc3>
    1676: 85 15        	sta	$15                     ; 0x15 <__rc5>
    1678: 64 16        	stz	$16                     ; 0x16 <__rc6>
    167a: 64 17        	stz	$17                     ; 0x17 <__rc7>
    167c: a6 18        	ldx	$18                     ; 0x18 <__rc8>
    167e: a9 00        	lda	#$0
    1680: 20 8f 3f     	jsr	$3f8f <dispatchNote>
    1683: a6 2b        	ldx	$2b                     ; 0x2b <__rc27>
    1685: 86 1e        	stx	$1e                     ; 0x1e <__rc14>
    1687: a6 25        	ldx	$25                     ; 0x25 <__rc21>
    1689: 86 1b        	stx	$1b                     ; 0x1b <__rc11>
    168b: a6 24        	ldx	$24                     ; 0x24 <__rc20>
    168d: 86 19        	stx	$19                     ; 0x19 <__rc9>
    168f: 4c a1 0f     	jmp	$fa1 <f256main+0x649>
    1692: 64 3a        	stz	$3a                     ; 0x3a <shiftHit>
    1694: 4c a1 0f     	jmp	$fa1 <f256main+0x649>
    1697: 8a           	txa
    1698: 38           	sec
    1699: e9 6d        	sbc	#$6d
    169b: 50 02        	bvc	$169f <f256main+0xd47>
    169d: 49 80        	eor	#$80
    169f: a8           	tay
    16a0: 30 03        	bmi	$16a5 <f256main+0xd4d>
    16a2: 4c 4e 18     	jmp	$184e <f256main+0xef6>
    16a5: e0 5d        	cpx	#$5d
    16a7: d0 03        	bne	$16ac <f256main+0xd54>
    16a9: 4c 1d 1c     	jmp	$1c1d <f256main+0x12c5>
    16ac: 86 14        	stx	$14                     ; 0x14 <__rc4>
    16ae: e0 63        	cpx	#$63
    16b0: f0 03        	beq	$16b5 <f256main+0xd5d>
    16b2: 4c f1 1a     	jmp	$1af1 <f256main+0x1199>
    16b5: a6 37        	ldx	$37                     ; 0x37 <instSelectMode>
    16b7: a4 2e        	ldy	$2e                     ; 0x2e <__rc30>
    16b9: 84 19        	sty	$19                     ; 0x19 <__rc9>
    16bb: a9 04        	lda	#$4
    16bd: 85 1b        	sta	$1b                     ; 0x1b <__rc11>
    16bf: 8a           	txa
    16c0: f0 03        	beq	$16c5 <f256main+0xd6d>
    16c2: 4c a1 0f     	jmp	$fa1 <f256main+0x649>
    16c5: a6 1e        	ldx	$1e                     ; 0x1e <__rc14>
    16c7: 86 2b        	stx	$2b                     ; 0x2b <__rc27>
    16c9: a2 04        	ldx	#$4
    16cb: 86 25        	stx	$25                     ; 0x25 <__rc21>
    16cd: a2 01        	ldx	#$1
    16cf: 86 24        	stx	$24                     ; 0x24 <__rc20>
    16d1: a6 7f        	ldx	$7f                     ; 0x7f <gPtr>
    16d3: a4 80        	ldy	$80                     ; 0x80 <gPtr+0x1>
    16d5: 86 12        	stx	$12                     ; 0x12 <__rc2>
    16d7: 84 13        	sty	$13                     ; 0x13 <__rc3>
    16d9: a0 06        	ldy	#$6
    16db: b1 12        	lda	($12),y                 ; 0x12 <__rc2>
    16dd: 85 14        	sta	$14                     ; 0x14 <__rc4>
    16df: 1a           	inc
    16e0: a2 06        	ldx	#$6
    16e2: 86 15        	stx	$15                     ; 0x15 <__rc5>
    16e4: 91 12        	sta	($12),y                 ; 0x12 <__rc2>
    16e6: a6 14        	ldx	$14                     ; 0x14 <__rc4>
    16e8: d0 19        	bne	$1703 <f256main+0xdab>
    16ea: a9 00        	lda	#$0
    16ec: 20 44 48     	jsr	$4844 <sid_setInstrumentAllChannels>
    16ef: 64 3e        	stz	$3e                     ; 0x3e <chipAct.0>
    16f1: 64 3f        	stz	$3f                     ; 0x3f <chipAct.1>
    16f3: a6 7f        	ldx	$7f                     ; 0x7f <gPtr>
    16f5: a4 80        	ldy	$80                     ; 0x80 <gPtr+0x1>
    16f7: 86 12        	stx	$12                     ; 0x12 <__rc2>
    16f9: 84 13        	sty	$13                     ; 0x13 <__rc3>
    16fb: a0 06        	ldy	#$6
    16fd: a2 06        	ldx	#$6
    16ff: 86 15        	stx	$15                     ; 0x15 <__rc5>
    1701: b1 12        	lda	($12),y                 ; 0x12 <__rc2>
    1703: c9 02        	cmp	#$2
    1705: f0 03        	beq	$170a <f256main+0xdb2>
    1707: 4c 5a 17     	jmp	$175a <f256main+0xe02>
    170a: a2 d4        	ldx	#$d4
    170c: a0 00        	ldy	#$0
    170e: 18           	clc
    170f: 98           	tya
    1710: 69 00        	adc	#$0
    1712: 85 14        	sta	$14                     ; 0x14 <__rc4>
    1714: 8a           	txa
    1715: 69 01        	adc	#$1
    1717: 85 16        	sta	$16                     ; 0x16 <__rc6>
    1719: 84 12        	sty	$12                     ; 0x12 <__rc2>
    171b: 86 13        	stx	$13                     ; 0x13 <__rc3>
    171d: a9 00        	lda	#$0
    171f: 92 12        	sta	($12)                   ; 0x12 <__rc2>
    1721: 5a           	phy
    1722: a4 14        	ldy	$14                     ; 0x14 <__rc4>
    1724: 84 12        	sty	$12                     ; 0x12 <__rc2>
    1726: a4 16        	ldy	$16                     ; 0x16 <__rc6>
    1728: 84 13        	sty	$13                     ; 0x13 <__rc3>
    172a: 7a           	ply
    172b: 92 12        	sta	($12)                   ; 0x12 <__rc2>
    172d: c8           	iny
    172e: d0 01        	bne	$1731 <f256main+0xdd9>
    1730: e8           	inx
    1731: c0 19        	cpy	#$19
    1733: d0 d9        	bne	$170e <f256main+0xdb6>
    1735: a2 43        	ldx	#$43
    1737: 86 12        	stx	$12                     ; 0x12 <__rc2>
    1739: a2 00        	ldx	#$0
    173b: 86 13        	stx	$13                     ; 0x13 <__rc3>
    173d: 64 14        	stz	$14                     ; 0x14 <__rc4>
    173f: a6 15        	ldx	$15                     ; 0x15 <__rc5>
    1741: a4 15        	ldy	$15                     ; 0x15 <__rc5>
    1743: 84 26        	sty	$26                     ; 0x26 <__rc22>
    1745: 20 17 6f     	jsr	$6f17 <__memset>
    1748: 64 40        	stz	$40                     ; 0x40 <chipAct.2>
    174a: a6 7f        	ldx	$7f                     ; 0x7f <gPtr>
    174c: a4 80        	ldy	$80                     ; 0x80 <gPtr+0x1>
    174e: 86 12        	stx	$12                     ; 0x12 <__rc2>
    1750: 84 13        	sty	$13                     ; 0x13 <__rc3>
    1752: a2 06        	ldx	#$6
    1754: 86 15        	stx	$15                     ; 0x15 <__rc5>
    1756: a4 26        	ldy	$26                     ; 0x26 <__rc22>
    1758: b1 12        	lda	($12),y                 ; 0x12 <__rc2>
    175a: c9 03        	cmp	#$3
    175c: d0 3a        	bne	$1798 <f256main+0xe40>
    175e: a2 4f        	ldx	#$4f
    1760: 86 12        	stx	$12                     ; 0x12 <__rc2>
    1762: a2 00        	ldx	#$0
    1764: 86 13        	stx	$13                     ; 0x13 <__rc3>
    1766: 64 14        	stz	$14                     ; 0x14 <__rc4>
    1768: a6 15        	ldx	$15                     ; 0x15 <__rc5>
    176a: a9 00        	lda	#$0
    176c: 20 17 6f     	jsr	$6f17 <__memset>
    176f: a2 ff        	ldx	#$ff
    1771: a0 10        	ldy	#$10
    1773: 98           	tya
    1774: 09 9f        	ora	#$9f
    1776: 8d 00 d6     	sta	$d600                   ; 0xd600 <end_block9+0x3d62>
    1779: 8d 10 d6     	sta	$d610                   ; 0xd610 <end_block9+0x3d72>
    177c: 8a           	txa
    177d: 18           	clc
    177e: 69 02        	adc	#$2
    1780: aa           	tax
    1781: 18           	clc
    1782: 98           	tya
    1783: 69 20        	adc	#$20
    1785: a8           	tay
    1786: e0 06        	cpx	#$6
    1788: 90 e9        	bcc	$1773 <f256main+0xe1b>
    178a: 64 41        	stz	$41                     ; 0x41 <chipAct.3>
    178c: a6 7f        	ldx	$7f                     ; 0x7f <gPtr>
    178e: a4 80        	ldy	$80                     ; 0x80 <gPtr+0x1>
    1790: 86 12        	stx	$12                     ; 0x12 <__rc2>
    1792: 84 13        	sty	$13                     ; 0x13 <__rc3>
    1794: a0 06        	ldy	#$6
    1796: b1 12        	lda	($12),y                 ; 0x12 <__rc2>
    1798: c9 04        	cmp	#$4
    179a: 90 3b        	bcc	$17d7 <f256main+0xe7f>
    179c: a2 b0        	ldx	#$b0
    179e: 8e 80 d5     	stx	$d580                   ; 0xd580 <end_block9+0x3ce2>
    17a1: 9c 81 d5     	stz	$d581                   ; 0xd581 <end_block9+0x3ce3>
    17a4: e8           	inx
    17a5: e0 b9        	cpx	#$b9
    17a7: d0 f5        	bne	$179e <f256main+0xe46>
    17a9: a2 b0        	ldx	#$b0
    17ab: 64 14        	stz	$14                     ; 0x14 <__rc4>
    17ad: 8e 82 d5     	stx	$d582                   ; 0xd582 <end_block9+0x3ce4>
    17b0: 9c 81 d5     	stz	$d581                   ; 0xd581 <end_block9+0x3ce3>
    17b3: e8           	inx
    17b4: e0 b9        	cpx	#$b9
    17b6: d0 f5        	bne	$17ad <f256main+0xe55>
    17b8: a2 5b        	ldx	#$5b
    17ba: 86 12        	stx	$12                     ; 0x12 <__rc2>
    17bc: a2 00        	ldx	#$0
    17be: 86 13        	stx	$13                     ; 0x13 <__rc3>
    17c0: a2 12        	ldx	#$12
    17c2: a9 00        	lda	#$0
    17c4: 20 17 6f     	jsr	$6f17 <__memset>
    17c7: a6 7f        	ldx	$7f                     ; 0x7f <gPtr>
    17c9: a4 80        	ldy	$80                     ; 0x80 <gPtr+0x1>
    17cb: 86 12        	stx	$12                     ; 0x12 <__rc2>
    17cd: 84 13        	sty	$13                     ; 0x13 <__rc3>
    17cf: a0 06        	ldy	#$6
    17d1: a9 00        	lda	#$0
    17d3: 91 12        	sta	($12),y                 ; 0x12 <__rc2>
    17d5: 64 42        	stz	$42                     ; 0x42 <chipAct.4>
    17d7: 20 ab 55     	jsr	$55ab <showChipChoiceText>
    17da: 4c 00 1c     	jmp	$1c00 <f256main+0x12a8>
    17dd: e0 20        	cpx	#$20
    17df: d0 03        	bne	$17e4 <f256main+0xe8c>
    17e1: 4c c5 1c     	jmp	$1cc5 <f256main+0x136d>
    17e4: 86 14        	stx	$14                     ; 0x14 <__rc4>
    17e6: e0 5b        	cpx	#$5b
    17e8: f0 03        	beq	$17ed <f256main+0xe95>
    17ea: 4c f1 1a     	jmp	$1af1 <f256main+0x1199>
    17ed: a6 1e        	ldx	$1e                     ; 0x1e <__rc14>
    17ef: 86 2c        	stx	$2c                     ; 0x2c <__rc28>
    17f1: a6 3b        	ldx	$3b                     ; 0x3b <theBeats>
    17f3: 86 15        	stx	$15                     ; 0x15 <__rc5>
    17f5: a6 3c        	ldx	$3c                     ; 0x3c <theBeats+0x1>
    17f7: 86 14        	stx	$14                     ; 0x14 <__rc4>
    17f9: a6 7f        	ldx	$7f                     ; 0x7f <gPtr>
    17fb: a4 80        	ldy	$80                     ; 0x80 <gPtr+0x1>
    17fd: 86 24        	stx	$24                     ; 0x24 <__rc20>
    17ff: 84 25        	sty	$25                     ; 0x25 <__rc21>
    1801: a0 08        	ldy	#$8
    1803: b1 24        	lda	($24),y                 ; 0x24 <__rc20>
    1805: 85 12        	sta	$12                     ; 0x12 <__rc2>
    1807: 0a           	asl
    1808: 64 13        	stz	$13                     ; 0x13 <__rc3>
    180a: 26 13        	rol	$13                     ; 0x13 <__rc3>
    180c: 0a           	asl
    180d: 26 13        	rol	$13                     ; 0x13 <__rc3>
    180f: 0a           	asl
    1810: 26 13        	rol	$13                     ; 0x13 <__rc3>
    1812: 0a           	asl
    1813: 26 13        	rol	$13                     ; 0x13 <__rc3>
    1815: 38           	sec
    1816: e5 12        	sbc	$12                     ; 0x12 <__rc2>
    1818: aa           	tax
    1819: 85 12        	sta	$12                     ; 0x12 <__rc2>
    181b: a5 13        	lda	$13                     ; 0x13 <__rc3>
    181d: e9 00        	sbc	#$0
    181f: 85 16        	sta	$16                     ; 0x16 <__rc6>
    1821: 85 13        	sta	$13                     ; 0x13 <__rc3>
    1823: a4 15        	ldy	$15                     ; 0x15 <__rc5>
    1825: 84 2f        	sty	$2f                     ; 0x2f <__rc31>
    1827: a5 15        	lda	$15                     ; 0x15 <__rc5>
    1829: 18           	clc
    182a: 65 12        	adc	$12                     ; 0x12 <__rc2>
    182c: 85 12        	sta	$12                     ; 0x12 <__rc2>
    182e: a5 14        	lda	$14                     ; 0x14 <__rc4>
    1830: 85 2d        	sta	$2d                     ; 0x2d <__rc29>
    1832: 65 13        	adc	$13                     ; 0x13 <__rc3>
    1834: 85 13        	sta	$13                     ; 0x13 <__rc3>
    1836: b2 12        	lda	($12)                   ; 0x12 <__rc2>
    1838: d0 03        	bne	$183d <f256main+0xee5>
    183a: 4c cd 27     	jmp	$27cd <f256main+0x1e75>
    183d: a5 3a        	lda	$3a                     ; 0x3a <shiftHit>
    183f: 29 01        	and	#$1
    1841: a2 f6        	ldx	#$f6
    1843: a8           	tay
    1844: f0 03        	beq	$1849 <f256main+0xef1>
    1846: 4c 78 1c     	jmp	$1c78 <f256main+0x1320>
    1849: a2 ff        	ldx	#$ff
    184b: 4c 78 1c     	jmp	$1c78 <f256main+0x1320>
    184e: e0 6d        	cpx	#$6d
    1850: d0 03        	bne	$1855 <f256main+0xefd>
    1852: 4c f4 1c     	jmp	$1cf4 <f256main+0x139c>
    1855: 86 14        	stx	$14                     ; 0x14 <__rc4>
    1857: e0 78        	cpx	#$78
    1859: f0 03        	beq	$185e <f256main+0xf06>
    185b: 4c f1 1a     	jmp	$1af1 <f256main+0x1199>
    185e: a6 37        	ldx	$37                     ; 0x37 <instSelectMode>
    1860: a4 2e        	ldy	$2e                     ; 0x2e <__rc30>
    1862: 84 19        	sty	$19                     ; 0x19 <__rc9>
    1864: a9 04        	lda	#$4
    1866: 85 1b        	sta	$1b                     ; 0x1b <__rc11>
    1868: 8a           	txa
    1869: f0 03        	beq	$186e <f256main+0xf16>
    186b: 4c a1 0f     	jmp	$fa1 <f256main+0x649>
    186e: a6 1e        	ldx	$1e                     ; 0x1e <__rc14>
    1870: 86 2f        	stx	$2f                     ; 0x2f <__rc31>
    1872: a2 04        	ldx	#$4
    1874: 86 2b        	stx	$2b                     ; 0x2b <__rc27>
    1876: a2 01        	ldx	#$1
    1878: 86 2e        	stx	$2e                     ; 0x2e <__rc30>
    187a: a6 7f        	ldx	$7f                     ; 0x7f <gPtr>
    187c: a4 80        	ldy	$80                     ; 0x80 <gPtr+0x1>
    187e: 86 12        	stx	$12                     ; 0x12 <__rc2>
    1880: 84 13        	sty	$13                     ; 0x13 <__rc3>
    1882: a0 07        	ldy	#$7
    1884: b1 12        	lda	($12),y                 ; 0x12 <__rc2>
    1886: a2 01        	ldx	#$1
    1888: a8           	tay
    1889: f0 02        	beq	$188d <f256main+0xf35>
    188b: a2 00        	ldx	#$0
    188d: 8a           	txa
    188e: d0 03        	bne	$1893 <f256main+0xf3b>
    1890: 4c d3 28     	jmp	$28d3 <f256main+0x1f7b>
    1893: 86 26        	stx	$26                     ; 0x26 <__rc22>
    1895: a0 0f        	ldy	#$f
    1897: b1 10        	lda	($10),y                 ; 0x10 <__rc0>
    1899: 85 24        	sta	$24                     ; 0x24 <__rc20>
    189b: c8           	iny
    189c: b1 10        	lda	($10),y                 ; 0x10 <__rc0>
    189e: 85 25        	sta	$25                     ; 0x25 <__rc21>
    18a0: a9 01        	lda	#$1
    18a2: 4c e2 28     	jmp	$28e2 <f256main+0x1f8a>
    18a5: a5 14        	lda	$14                     ; 0x14 <__rc4>
    18a7: a0 06        	ldy	#$6
    18a9: 91 10        	sta	($10),y                 ; 0x10 <__rc0>
    18ab: a5 18        	lda	$18                     ; 0x18 <__rc8>
    18ad: c8           	iny
    18ae: 91 10        	sta	($10),y                 ; 0x10 <__rc0>
    18b0: a0 0d        	ldy	#$d
    18b2: b1 10        	lda	($10),y                 ; 0x10 <__rc0>
    18b4: 85 24        	sta	$24                     ; 0x24 <__rc20>
    18b6: c8           	iny
    18b7: b1 10        	lda	($10),y                 ; 0x10 <__rc0>
    18b9: 85 25        	sta	$25                     ; 0x25 <__rc21>
    18bb: a6 24        	ldx	$24                     ; 0x24 <__rc20>
    18bd: 86 14        	stx	$14                     ; 0x14 <__rc4>
    18bf: 85 15        	sta	$15                     ; 0x15 <__rc5>
    18c1: c8           	iny
    18c2: b1 10        	lda	($10),y                 ; 0x10 <__rc0>
    18c4: 85 16        	sta	$16                     ; 0x16 <__rc6>
    18c6: c8           	iny
    18c7: b1 10        	lda	($10),y                 ; 0x10 <__rc0>
    18c9: 85 17        	sta	$17                     ; 0x17 <__rc7>
    18cb: a0 0b        	ldy	#$b
    18cd: b1 10        	lda	($10),y                 ; 0x10 <__rc0>
    18cf: 85 2c        	sta	$2c                     ; 0x2c <__rc28>
    18d1: c8           	iny
    18d2: b1 10        	lda	($10),y                 ; 0x10 <__rc0>
    18d4: 85 2d        	sta	$2d                     ; 0x2d <__rc29>
    18d6: a6 2c        	ldx	$2c                     ; 0x2c <__rc28>
    18d8: 86 18        	stx	$18                     ; 0x18 <__rc8>
    18da: 85 19        	sta	$19                     ; 0x19 <__rc9>
    18dc: a6 2b        	ldx	$2b                     ; 0x2b <__rc27>
    18de: a5 1a        	lda	$1a                     ; 0x1a <__rc10>
    18e0: 20 83 4a     	jsr	$4a83 <getBeatTrackNoteInfo>
    18e3: a0 01        	ldy	#$1
    18e5: b1 2c        	lda	($2c),y                 ; 0x2c <__rc28>
    18e7: 84 16        	sty	$16                     ; 0x16 <__rc6>
    18e9: 85 18        	sta	$18                     ; 0x18 <__rc8>
    18eb: a9 7f        	lda	#$7f
    18ed: 48           	pha
    18ee: a5 24        	lda	$24                     ; 0x24 <__rc20>
    18f0: a0 0d        	ldy	#$d
    18f2: 91 10        	sta	($10),y                 ; 0x10 <__rc0>
    18f4: a5 25        	lda	$25                     ; 0x25 <__rc21>
    18f6: c8           	iny
    18f7: 91 10        	sta	($10),y                 ; 0x10 <__rc0>
    18f9: 68           	pla
    18fa: 32 24        	and	($24)                   ; 0x24 <__rc20>
    18fc: 85 12        	sta	$12                     ; 0x12 <__rc2>
    18fe: a6 7f        	ldx	$7f                     ; 0x7f <gPtr>
    1900: a4 80        	ldy	$80                     ; 0x80 <gPtr+0x1>
    1902: 86 24        	stx	$24                     ; 0x24 <__rc20>
    1904: 84 25        	sty	$25                     ; 0x25 <__rc21>
    1906: a0 02        	ldy	#$2
    1908: b1 24        	lda	($24),y                 ; 0x24 <__rc20>
    190a: 85 14        	sta	$14                     ; 0x14 <__rc4>
    190c: b2 2c        	lda	($2c)                   ; 0x2c <__rc28>
    190e: 85 15        	sta	$15                     ; 0x15 <__rc5>
    1910: b1 2c        	lda	($2c),y                 ; 0x2c <__rc28>
    1912: 84 26        	sty	$26                     ; 0x26 <__rc22>
    1914: a2 7f        	ldx	#$7f
    1916: 86 13        	stx	$13                     ; 0x13 <__rc3>
    1918: 85 17        	sta	$17                     ; 0x17 <__rc7>
    191a: a6 18        	ldx	$18                     ; 0x18 <__rc8>
    191c: a9 00        	lda	#$0
    191e: 20 8f 3f     	jsr	$3f8f <dispatchNote>
    1921: a6 3b        	ldx	$3b                     ; 0x3b <theBeats>
    1923: a4 3c        	ldy	$3c                     ; 0x3c <theBeats+0x1>
    1925: 84 13        	sty	$13                     ; 0x13 <__rc3>
    1927: a0 08        	ldy	#$8
    1929: b1 24        	lda	($24),y                 ; 0x24 <__rc20>
    192b: 85 12        	sta	$12                     ; 0x12 <__rc2>
    192d: 0a           	asl
    192e: a8           	tay
    192f: a9 00        	lda	#$0
    1931: 2a           	rol
    1932: 84 14        	sty	$14                     ; 0x14 <__rc4>
    1934: 06 14        	asl	$14                     ; 0x14 <__rc4>
    1936: 2a           	rol
    1937: 06 14        	asl	$14                     ; 0x14 <__rc4>
    1939: 2a           	rol
    193a: 06 14        	asl	$14                     ; 0x14 <__rc4>
    193c: 2a           	rol
    193d: a8           	tay
    193e: 38           	sec
    193f: a5 14        	lda	$14                     ; 0x14 <__rc4>
    1941: e5 12        	sbc	$12                     ; 0x12 <__rc2>
    1943: 85 12        	sta	$12                     ; 0x12 <__rc2>
    1945: 98           	tya
    1946: e9 00        	sbc	#$0
    1948: 85 14        	sta	$14                     ; 0x14 <__rc4>
    194a: 18           	clc
    194b: a5 12        	lda	$12                     ; 0x12 <__rc2>
    194d: 65 3b        	adc	$3b                     ; 0x3b <theBeats>
    194f: a8           	tay
    1950: a5 14        	lda	$14                     ; 0x14 <__rc4>
    1952: 65 3c        	adc	$3c                     ; 0x3c <theBeats+0x1>
    1954: 84 16        	sty	$16                     ; 0x16 <__rc6>
    1956: 84 14        	sty	$14                     ; 0x14 <__rc4>
    1958: 85 17        	sta	$17                     ; 0x17 <__rc7>
    195a: 85 15        	sta	$15                     ; 0x15 <__rc5>
    195c: a4 26        	ldy	$26                     ; 0x26 <__rc22>
    195e: b1 14        	lda	($14),y                 ; 0x14 <__rc4>
    1960: 3a           	dec
    1961: 85 12        	sta	$12                     ; 0x12 <__rc2>
    1963: a9 02        	lda	#$2
    1965: 85 29        	sta	$29                     ; 0x29 <__rc25>
    1967: a5 12        	lda	$12                     ; 0x12 <__rc2>
    1969: 85 18        	sta	$18                     ; 0x18 <__rc8>
    196b: 91 14        	sta	($14),y                 ; 0x14 <__rc4>
    196d: a5 38        	lda	$38                     ; 0x38 <needsToWaitExpiration>
    196f: 29 01        	and	#$1
    1971: d0 03        	bne	$1976 <f256main+0x101e>
    1973: 4c 4c 1f     	jmp	$1f4c <f256main+0x15f4>
    1976: a2 01        	ldx	#$1
    1978: 86 19        	stx	$19                     ; 0x19 <__rc9>
    197a: a0 04        	ldy	#$4
    197c: 84 1b        	sty	$1b                     ; 0x1b <__rc11>
    197e: a0 11        	ldy	#$11
    1980: b1 10        	lda	($10),y                 ; 0x10 <__rc0>
    1982: 85 1e        	sta	$1e                     ; 0x1e <__rc14>
    1984: a5 18        	lda	$18                     ; 0x18 <__rc8>
    1986: f0 03        	beq	$198b <f256main+0x1033>
    1988: 4c a1 0f     	jmp	$fa1 <f256main+0x649>
    198b: 64 38        	stz	$38                     ; 0x38 <needsToWaitExpiration>
    198d: a9 00        	lda	#$0
    198f: 92 14        	sta	($14)                   ; 0x14 <__rc4>
    1991: a0 01        	ldy	#$1
    1993: 86 19        	stx	$19                     ; 0x19 <__rc9>
    1995: b1 14        	lda	($14),y                 ; 0x14 <__rc4>
    1997: d0 03        	bne	$199c <f256main+0x1044>
    1999: 4c a1 0f     	jmp	$fa1 <f256main+0x649>
    199c: a9 00        	lda	#$0
    199e: 91 14        	sta	($14),y                 ; 0x14 <__rc4>
    19a0: 84 24        	sty	$24                     ; 0x24 <__rc20>
    19a2: a6 1b        	ldx	$1b                     ; 0x1b <__rc11>
    19a4: 86 25        	stx	$25                     ; 0x25 <__rc21>
    19a6: 20 5e 35     	jsr	$355e <launchBeat>
    19a9: a0 11        	ldy	#$11
    19ab: b1 10        	lda	($10),y                 ; 0x10 <__rc0>
    19ad: 85 1e        	sta	$1e                     ; 0x1e <__rc14>
    19af: 4c 87 16     	jmp	$1687 <f256main+0xd2f>
    19b2: 86 14        	stx	$14                     ; 0x14 <__rc4>
    19b4: e0 94        	cpx	#$94
    19b6: f0 03        	beq	$19bb <f256main+0x1063>
    19b8: 4c f1 1a     	jmp	$1af1 <f256main+0x1199>
    19bb: a6 37        	ldx	$37                     ; 0x37 <instSelectMode>
    19bd: a4 2e        	ldy	$2e                     ; 0x2e <__rc30>
    19bf: 84 19        	sty	$19                     ; 0x19 <__rc9>
    19c1: a9 04        	lda	#$4
    19c3: 85 1b        	sta	$1b                     ; 0x1b <__rc11>
    19c5: 8a           	txa
    19c6: d0 03        	bne	$19cb <f256main+0x1073>
    19c8: 4c a1 0f     	jmp	$fa1 <f256main+0x649>
    19cb: a6 1e        	ldx	$1e                     ; 0x1e <__rc14>
    19cd: 86 2b        	stx	$2b                     ; 0x2b <__rc27>
    19cf: a2 04        	ldx	#$4
    19d1: 86 25        	stx	$25                     ; 0x25 <__rc21>
    19d3: a2 01        	ldx	#$1
    19d5: 86 24        	stx	$24                     ; 0x24 <__rc20>
    19d7: a0 02        	ldy	#$2
    19d9: e8           	inx
    19da: 86 29        	stx	$29                     ; 0x29 <__rc25>
    19dc: 84 01        	sty	$1                      ; 0x1 <__data_size+0x1>
    19de: a2 c0        	ldx	#$c0
    19e0: a0 00        	ldy	#$0
    19e2: a9 20        	lda	#$20
    19e4: 84 12        	sty	$12                     ; 0x12 <__rc2>
    19e6: 86 13        	stx	$13                     ; 0x13 <__rc3>
    19e8: 92 12        	sta	($12)                   ; 0x12 <__rc2>
    19ea: c8           	iny
    19eb: d0 01        	bne	$19ee <f256main+0x1096>
    19ed: e8           	inx
    19ee: e0 d2        	cpx	#$d2
    19f0: d0 f2        	bne	$19e4 <f256main+0x108c>
    19f2: c0 c0        	cpy	#$c0
    19f4: d0 ee        	bne	$19e4 <f256main+0x108c>
    19f6: 64 01        	stz	$1                      ; 0x1 <__data_size+0x1>
    19f8: a6 7f        	ldx	$7f                     ; 0x7f <gPtr>
    19fa: a4 80        	ldy	$80                     ; 0x80 <gPtr+0x1>
    19fc: 86 12        	stx	$12                     ; 0x12 <__rc2>
    19fe: 84 13        	sty	$13                     ; 0x13 <__rc3>
    1a00: 20 2b 57     	jsr	$572b <textTitle>
    1a03: 64 37        	stz	$37                     ; 0x37 <instSelectMode>
    1a05: 4c 00 1c     	jmp	$1c00 <f256main+0x12a8>
    1a08: 86 14        	stx	$14                     ; 0x14 <__rc4>
    1a0a: e0 92        	cpx	#$92
    1a0c: f0 03        	beq	$1a11 <f256main+0x10b9>
    1a0e: 4c f1 1a     	jmp	$1af1 <f256main+0x1199>
    1a11: a6 1e        	ldx	$1e                     ; 0x1e <__rc14>
    1a13: 86 24        	stx	$24                     ; 0x24 <__rc20>
    1a15: 20 9d 3c     	jsr	$3c9d <escReset>
    1a18: a6 24        	ldx	$24                     ; 0x24 <__rc20>
    1a1a: 86 1e        	stx	$1e                     ; 0x1e <__rc14>
    1a1c: a6 2e        	ldx	$2e                     ; 0x2e <__rc30>
    1a1e: 86 19        	stx	$19                     ; 0x19 <__rc9>
    1a20: 4c 16 1c     	jmp	$1c16 <f256main+0x12be>
    1a23: a6 37        	ldx	$37                     ; 0x37 <instSelectMode>
    1a25: a4 2e        	ldy	$2e                     ; 0x2e <__rc30>
    1a27: 84 19        	sty	$19                     ; 0x19 <__rc9>
    1a29: a9 04        	lda	#$4
    1a2b: 85 1b        	sta	$1b                     ; 0x1b <__rc11>
    1a2d: 8a           	txa
    1a2e: f0 03        	beq	$1a33 <f256main+0x10db>
    1a30: 4c a1 0f     	jmp	$fa1 <f256main+0x649>
    1a33: a6 1e        	ldx	$1e                     ; 0x1e <__rc14>
    1a35: 86 2b        	stx	$2b                     ; 0x2b <__rc27>
    1a37: a2 04        	ldx	#$4
    1a39: 86 25        	stx	$25                     ; 0x25 <__rc21>
    1a3b: a2 01        	ldx	#$1
    1a3d: 86 24        	stx	$24                     ; 0x24 <__rc20>
    1a3f: a6 7f        	ldx	$7f                     ; 0x7f <gPtr>
    1a41: a4 80        	ldy	$80                     ; 0x80 <gPtr+0x1>
    1a43: 86 12        	stx	$12                     ; 0x12 <__rc2>
    1a45: 84 13        	sty	$13                     ; 0x13 <__rc3>
    1a47: a9 00        	lda	#$0
    1a49: a0 07        	ldy	#$7
    1a4b: 91 12        	sta	($12),y                 ; 0x12 <__rc2>
    1a4d: a0 03        	ldy	#$3
    1a4f: b1 12        	lda	($12),y                 ; 0x12 <__rc2>
    1a51: aa           	tax
    1a52: 1a           	inc
    1a53: 91 12        	sta	($12),y                 ; 0x12 <__rc2>
    1a55: e0 01        	cpx	#$1
    1a57: d0 03        	bne	$1a5c <f256main+0x1104>
    1a59: 4c a5 2a     	jmp	$2aa5 <f256main+0x214d>
    1a5c: e0 09        	cpx	#$9
    1a5e: f0 03        	beq	$1a63 <f256main+0x110b>
    1a60: 4c a9 2a     	jmp	$2aa9 <f256main+0x2151>
    1a63: a9 00        	lda	#$0
    1a65: 4c a7 2a     	jmp	$2aa7 <f256main+0x214f>
    1a68: a6 37        	ldx	$37                     ; 0x37 <instSelectMode>
    1a6a: a4 2e        	ldy	$2e                     ; 0x2e <__rc30>
    1a6c: 84 19        	sty	$19                     ; 0x19 <__rc9>
    1a6e: a9 04        	lda	#$4
    1a70: 85 1b        	sta	$1b                     ; 0x1b <__rc11>
    1a72: 8a           	txa
    1a73: f0 03        	beq	$1a78 <f256main+0x1120>
    1a75: 4c a1 0f     	jmp	$fa1 <f256main+0x649>
    1a78: a6 1e        	ldx	$1e                     ; 0x1e <__rc14>
    1a7a: 86 2b        	stx	$2b                     ; 0x2b <__rc27>
    1a7c: a2 04        	ldx	#$4
    1a7e: 86 18        	stx	$18                     ; 0x18 <__rc8>
    1a80: a2 01        	ldx	#$1
    1a82: 86 15        	stx	$15                     ; 0x15 <__rc5>
    1a84: a6 7f        	ldx	$7f                     ; 0x7f <gPtr>
    1a86: a4 80        	ldy	$80                     ; 0x80 <gPtr+0x1>
    1a88: 86 12        	stx	$12                     ; 0x12 <__rc2>
    1a8a: 84 13        	sty	$13                     ; 0x13 <__rc3>
    1a8c: a0 08        	ldy	#$8
    1a8e: b1 12        	lda	($12),y                 ; 0x12 <__rc2>
    1a90: 85 14        	sta	$14                     ; 0x14 <__rc4>
    1a92: 0a           	asl
    1a93: aa           	tax
    1a94: a9 00        	lda	#$0
    1a96: 2a           	rol
    1a97: 86 16        	stx	$16                     ; 0x16 <__rc6>
    1a99: 06 16        	asl	$16                     ; 0x16 <__rc6>
    1a9b: 2a           	rol
    1a9c: 06 16        	asl	$16                     ; 0x16 <__rc6>
    1a9e: 2a           	rol
    1a9f: 06 16        	asl	$16                     ; 0x16 <__rc6>
    1aa1: 2a           	rol
    1aa2: aa           	tax
    1aa3: 38           	sec
    1aa4: a5 16        	lda	$16                     ; 0x16 <__rc6>
    1aa6: e5 14        	sbc	$14                     ; 0x14 <__rc4>
    1aa8: 85 16        	sta	$16                     ; 0x16 <__rc6>
    1aaa: 8a           	txa
    1aab: e9 00        	sbc	#$0
    1aad: aa           	tax
    1aae: 18           	clc
    1aaf: a5 16        	lda	$16                     ; 0x16 <__rc6>
    1ab1: 65 3b        	adc	$3b                     ; 0x3b <theBeats>
    1ab3: 85 16        	sta	$16                     ; 0x16 <__rc6>
    1ab5: 8a           	txa
    1ab6: 65 3c        	adc	$3c                     ; 0x3c <theBeats+0x1>
    1ab8: 85 17        	sta	$17                     ; 0x17 <__rc7>
    1aba: b2 16        	lda	($16)                   ; 0x16 <__rc6>
    1abc: d0 03        	bne	$1ac1 <f256main+0x1169>
    1abe: 4c 7a 2a     	jmp	$2a7a <f256main+0x2122>
    1ac1: a0 01        	ldy	#$1
    1ac3: a2 01        	ldx	#$1
    1ac5: 86 19        	stx	$19                     ; 0x19 <__rc9>
    1ac7: 84 38        	sty	$38                     ; 0x38 <needsToWaitExpiration>
    1ac9: a6 18        	ldx	$18                     ; 0x18 <__rc8>
    1acb: 86 1b        	stx	$1b                     ; 0x1b <__rc11>
    1acd: 4c a1 0f     	jmp	$fa1 <f256main+0x649>
    1ad0: a6 37        	ldx	$37                     ; 0x37 <instSelectMode>
    1ad2: a4 2e        	ldy	$2e                     ; 0x2e <__rc30>
    1ad4: 84 19        	sty	$19                     ; 0x19 <__rc9>
    1ad6: a9 04        	lda	#$4
    1ad8: 85 1b        	sta	$1b                     ; 0x1b <__rc11>
    1ada: e0 00        	cpx	#$0
    1adc: f0 03        	beq	$1ae1 <f256main+0x1189>
    1ade: 4c a1 0f     	jmp	$fa1 <f256main+0x649>
    1ae1: a6 2e        	ldx	$2e                     ; 0x2e <__rc30>
    1ae3: 86 24        	stx	$24                     ; 0x24 <__rc20>
    1ae5: 85 25        	sta	$25                     ; 0x25 <__rc21>
    1ae7: a6 1e        	ldx	$1e                     ; 0x1e <__rc14>
    1ae9: 86 2b        	stx	$2b                     ; 0x2b <__rc27>
    1aeb: 20 5e 35     	jsr	$355e <launchBeat>
    1aee: 4c 83 16     	jmp	$1683 <f256main+0xd2b>
    1af1: a6 1e        	ldx	$1e                     ; 0x1e <__rc14>
    1af3: 86 25        	stx	$25                     ; 0x25 <__rc21>
    1af5: a6 7f        	ldx	$7f                     ; 0x7f <gPtr>
    1af7: a5 80        	lda	$80                     ; 0x80 <gPtr+0x1>
    1af9: 86 12        	stx	$12                     ; 0x12 <__rc2>
    1afb: 85 13        	sta	$13                     ; 0x13 <__rc3>
    1afd: a0 06        	ldy	#$6
    1aff: b1 12        	lda	($12),y                 ; 0x12 <__rc2>
    1b01: c9 03        	cmp	#$3
    1b03: f0 03        	beq	$1b08 <f256main+0x11b0>
    1b05: 4c b5 20     	jmp	$20b5 <f256main+0x175d>
    1b08: a6 14        	ldx	$14                     ; 0x14 <__rc4>
    1b0a: bd 16 85     	lda	$8516,x                 ; 0x8516 <KeyCodesToMIDINotes>
    1b0d: aa           	tax
    1b0e: 86 12        	stx	$12                     ; 0x12 <__rc2>
    1b10: 4c e3 1c     	jmp	$1ce3 <f256main+0x138b>
    1b13: a0 40        	ldy	#$40
    1b15: 84 30        	sty	$30                     ; 0x30 <_ccolor>
    1b17: a0 b3        	ldy	#$b3
    1b19: 84 26        	sty	$26                     ; 0x26 <__rc22>
    1b1b: 8a           	txa
    1b1c: f0 02        	beq	$1b20 <f256main+0x11c8>
    1b1e: a0 b4        	ldy	#$b4
    1b20: 84 35        	sty	$35                     ; 0x35 <__putchar.s>
    1b22: a2 35        	ldx	#$35
    1b24: 86 12        	stx	$12                     ; 0x12 <__rc2>
    1b26: a2 00        	ldx	#$0
    1b28: 86 13        	stx	$13                     ; 0x13 <__rc3>
    1b2a: 20 90 33     	jsr	$3390 <textPrint>
    1b2d: a2 45        	ldx	#$45
    1b2f: 86 33        	stx	$33                     ; 0x33 <_col>
    1b31: 8e 14 d0     	stx	$d014                   ; 0xd014 <end_block9+0x3776>
    1b34: 9c 15 d0     	stz	$d015                   ; 0xd015 <end_block9+0x3777>
    1b37: a0 04        	ldy	#$4
    1b39: 84 34        	sty	$34                     ; 0x34 <_row>
    1b3b: a2 04        	ldx	#$4
    1b3d: 86 25        	stx	$25                     ; 0x25 <__rc21>
    1b3f: 8c 16 d0     	sty	$d016                   ; 0xd016 <end_block9+0x3778>
    1b42: 9c 17 d0     	stz	$d017                   ; 0xd017 <end_block9+0x3779>
    1b45: a4 3f        	ldy	$3f                     ; 0x3f <chipAct.1>
    1b47: a2 40        	ldx	#$40
    1b49: 86 2c        	stx	$2c                     ; 0x2c <__rc28>
    1b4b: a5 26        	lda	$26                     ; 0x26 <__rc22>
    1b4d: c0 00        	cpy	#$0
    1b4f: f0 04        	beq	$1b55 <f256main+0x11fd>
    1b51: a9 b4        	lda	#$b4
    1b53: a2 90        	ldx	#$90
    1b55: 86 30        	stx	$30                     ; 0x30 <_ccolor>
    1b57: 85 35        	sta	$35                     ; 0x35 <__putchar.s>
    1b59: a2 35        	ldx	#$35
    1b5b: 86 12        	stx	$12                     ; 0x12 <__rc2>
    1b5d: a2 00        	ldx	#$0
    1b5f: 86 13        	stx	$13                     ; 0x13 <__rc3>
    1b61: 20 90 33     	jsr	$3390 <textPrint>
    1b64: a2 45        	ldx	#$45
    1b66: 86 33        	stx	$33                     ; 0x33 <_col>
    1b68: 8e 14 d0     	stx	$d014                   ; 0xd014 <end_block9+0x3776>
    1b6b: 9c 15 d0     	stz	$d015                   ; 0xd015 <end_block9+0x3777>
    1b6e: a2 05        	ldx	#$5
    1b70: 86 34        	stx	$34                     ; 0x34 <_row>
    1b72: 8e 16 d0     	stx	$d016                   ; 0xd016 <end_block9+0x3778>
    1b75: 9c 17 d0     	stz	$d017                   ; 0xd017 <end_block9+0x3779>
    1b78: a6 40        	ldx	$40                     ; 0x40 <chipAct.2>
    1b7a: a4 2c        	ldy	$2c                     ; 0x2c <__rc28>
    1b7c: 8a           	txa
    1b7d: f0 02        	beq	$1b81 <f256main+0x1229>
    1b7f: a0 90        	ldy	#$90
    1b81: 84 30        	sty	$30                     ; 0x30 <_ccolor>
    1b83: 8a           	txa
    1b84: f0 04        	beq	$1b8a <f256main+0x1232>
    1b86: a2 b4        	ldx	#$b4
    1b88: 80 02        	bra	$1b8c <f256main+0x1234>
    1b8a: a2 b3        	ldx	#$b3
    1b8c: 86 35        	stx	$35                     ; 0x35 <__putchar.s>
    1b8e: a2 35        	ldx	#$35
    1b90: 86 12        	stx	$12                     ; 0x12 <__rc2>
    1b92: a2 00        	ldx	#$0
    1b94: 86 13        	stx	$13                     ; 0x13 <__rc3>
    1b96: 20 90 33     	jsr	$3390 <textPrint>
    1b99: a2 45        	ldx	#$45
    1b9b: 86 33        	stx	$33                     ; 0x33 <_col>
    1b9d: 8e 14 d0     	stx	$d014                   ; 0xd014 <end_block9+0x3776>
    1ba0: 9c 15 d0     	stz	$d015                   ; 0xd015 <end_block9+0x3777>
    1ba3: a2 06        	ldx	#$6
    1ba5: 86 34        	stx	$34                     ; 0x34 <_row>
    1ba7: 8e 16 d0     	stx	$d016                   ; 0xd016 <end_block9+0x3778>
    1baa: 9c 17 d0     	stz	$d017                   ; 0xd017 <end_block9+0x3779>
    1bad: a6 41        	ldx	$41                     ; 0x41 <chipAct.3>
    1baf: f0 06        	beq	$1bb7 <f256main+0x125f>
    1bb1: a2 b4        	ldx	#$b4
    1bb3: a0 90        	ldy	#$90
    1bb5: 80 04        	bra	$1bbb <f256main+0x1263>
    1bb7: a2 b3        	ldx	#$b3
    1bb9: a0 40        	ldy	#$40
    1bbb: 84 30        	sty	$30                     ; 0x30 <_ccolor>
    1bbd: 86 35        	stx	$35                     ; 0x35 <__putchar.s>
    1bbf: a2 35        	ldx	#$35
    1bc1: 86 12        	stx	$12                     ; 0x12 <__rc2>
    1bc3: a2 00        	ldx	#$0
    1bc5: 86 13        	stx	$13                     ; 0x13 <__rc3>
    1bc7: 20 90 33     	jsr	$3390 <textPrint>
    1bca: a2 45        	ldx	#$45
    1bcc: 86 33        	stx	$33                     ; 0x33 <_col>
    1bce: 8e 14 d0     	stx	$d014                   ; 0xd014 <end_block9+0x3776>
    1bd1: 9c 15 d0     	stz	$d015                   ; 0xd015 <end_block9+0x3777>
    1bd4: a2 07        	ldx	#$7
    1bd6: 86 34        	stx	$34                     ; 0x34 <_row>
    1bd8: 8e 16 d0     	stx	$d016                   ; 0xd016 <end_block9+0x3778>
    1bdb: 9c 17 d0     	stz	$d017                   ; 0xd017 <end_block9+0x3779>
    1bde: a6 42        	ldx	$42                     ; 0x42 <chipAct.4>
    1be0: f0 04        	beq	$1be6 <f256main+0x128e>
    1be2: a0 90        	ldy	#$90
    1be4: 80 02        	bra	$1be8 <f256main+0x1290>
    1be6: a0 40        	ldy	#$40
    1be8: 84 30        	sty	$30                     ; 0x30 <_ccolor>
    1bea: 8a           	txa
    1beb: f0 04        	beq	$1bf1 <f256main+0x1299>
    1bed: a2 b4        	ldx	#$b4
    1bef: 80 02        	bra	$1bf3 <f256main+0x129b>
    1bf1: a2 b3        	ldx	#$b3
    1bf3: 86 35        	stx	$35                     ; 0x35 <__putchar.s>
    1bf5: a2 35        	ldx	#$35
    1bf7: 86 12        	stx	$12                     ; 0x12 <__rc2>
    1bf9: a2 00        	ldx	#$0
    1bfb: 86 13        	stx	$13                     ; 0x13 <__rc3>
    1bfd: 20 90 33     	jsr	$3390 <textPrint>
    1c00: a6 24        	ldx	$24                     ; 0x24 <__rc20>
    1c02: 86 19        	stx	$19                     ; 0x19 <__rc9>
    1c04: a6 25        	ldx	$25                     ; 0x25 <__rc21>
    1c06: 86 1b        	stx	$1b                     ; 0x1b <__rc11>
    1c08: a6 2b        	ldx	$2b                     ; 0x2b <__rc27>
    1c0a: 86 1e        	stx	$1e                     ; 0x1e <__rc14>
    1c0c: 4c a1 0f     	jmp	$fa1 <f256main+0x649>
    1c0f: a9 01        	lda	#$1
    1c11: aa           	tax
    1c12: 86 19        	stx	$19                     ; 0x19 <__rc9>
    1c14: 85 3a        	sta	$3a                     ; 0x3a <shiftHit>
    1c16: a2 04        	ldx	#$4
    1c18: 86 1b        	stx	$1b                     ; 0x1b <__rc11>
    1c1a: 4c a1 0f     	jmp	$fa1 <f256main+0x649>
    1c1d: a6 1e        	ldx	$1e                     ; 0x1e <__rc14>
    1c1f: 86 2c        	stx	$2c                     ; 0x2c <__rc28>
    1c21: a6 3b        	ldx	$3b                     ; 0x3b <theBeats>
    1c23: 86 15        	stx	$15                     ; 0x15 <__rc5>
    1c25: a6 3c        	ldx	$3c                     ; 0x3c <theBeats+0x1>
    1c27: 86 14        	stx	$14                     ; 0x14 <__rc4>
    1c29: a6 7f        	ldx	$7f                     ; 0x7f <gPtr>
    1c2b: a4 80        	ldy	$80                     ; 0x80 <gPtr+0x1>
    1c2d: 86 24        	stx	$24                     ; 0x24 <__rc20>
    1c2f: 84 25        	sty	$25                     ; 0x25 <__rc21>
    1c31: a0 08        	ldy	#$8
    1c33: b1 24        	lda	($24),y                 ; 0x24 <__rc20>
    1c35: 85 12        	sta	$12                     ; 0x12 <__rc2>
    1c37: 0a           	asl
    1c38: 64 13        	stz	$13                     ; 0x13 <__rc3>
    1c3a: 26 13        	rol	$13                     ; 0x13 <__rc3>
    1c3c: 0a           	asl
    1c3d: 26 13        	rol	$13                     ; 0x13 <__rc3>
    1c3f: 0a           	asl
    1c40: 26 13        	rol	$13                     ; 0x13 <__rc3>
    1c42: 0a           	asl
    1c43: 26 13        	rol	$13                     ; 0x13 <__rc3>
    1c45: 38           	sec
    1c46: e5 12        	sbc	$12                     ; 0x12 <__rc2>
    1c48: aa           	tax
    1c49: 85 12        	sta	$12                     ; 0x12 <__rc2>
    1c4b: a5 13        	lda	$13                     ; 0x13 <__rc3>
    1c4d: e9 00        	sbc	#$0
    1c4f: 85 16        	sta	$16                     ; 0x16 <__rc6>
    1c51: 85 13        	sta	$13                     ; 0x13 <__rc3>
    1c53: a4 15        	ldy	$15                     ; 0x15 <__rc5>
    1c55: 84 2f        	sty	$2f                     ; 0x2f <__rc31>
    1c57: a5 15        	lda	$15                     ; 0x15 <__rc5>
    1c59: 18           	clc
    1c5a: 65 12        	adc	$12                     ; 0x12 <__rc2>
    1c5c: 85 12        	sta	$12                     ; 0x12 <__rc2>
    1c5e: a5 14        	lda	$14                     ; 0x14 <__rc4>
    1c60: 85 2d        	sta	$2d                     ; 0x2d <__rc29>
    1c62: 65 13        	adc	$13                     ; 0x13 <__rc3>
    1c64: 85 13        	sta	$13                     ; 0x13 <__rc3>
    1c66: b2 12        	lda	($12)                   ; 0x12 <__rc2>
    1c68: d0 03        	bne	$1c6d <f256main+0x1315>
    1c6a: 4c 6b 27     	jmp	$276b <f256main+0x1e13>
    1c6d: a5 3a        	lda	$3a                     ; 0x3a <shiftHit>
    1c6f: 29 01        	and	#$1
    1c71: a2 0a        	ldx	#$a
    1c73: a8           	tay
    1c74: d0 02        	bne	$1c78 <f256main+0x1320>
    1c76: a2 01        	ldx	#$1
    1c78: 18           	clc
    1c79: a0 09        	ldy	#$9
    1c7b: 8a           	txa
    1c7c: 71 24        	adc	($24),y                 ; 0x24 <__rc20>
    1c7e: 91 24        	sta	($24),y                 ; 0x24 <__rc20>
    1c80: 84 26        	sty	$26                     ; 0x26 <__rc22>
    1c82: 20 dd 3d     	jsr	$3ddd <prepTempoLUT>
    1c85: a4 26        	ldy	$26                     ; 0x26 <__rc22>
    1c87: b1 24        	lda	($24),y                 ; 0x24 <__rc20>
    1c89: 20 51 55     	jsr	$5551 <updateTempoText>
    1c8c: a0 08        	ldy	#$8
    1c8e: b1 24        	lda	($24),y                 ; 0x24 <__rc20>
    1c90: 85 12        	sta	$12                     ; 0x12 <__rc2>
    1c92: 0a           	asl
    1c93: 64 13        	stz	$13                     ; 0x13 <__rc3>
    1c95: 26 13        	rol	$13                     ; 0x13 <__rc3>
    1c97: 0a           	asl
    1c98: 26 13        	rol	$13                     ; 0x13 <__rc3>
    1c9a: 0a           	asl
    1c9b: 26 13        	rol	$13                     ; 0x13 <__rc3>
    1c9d: 0a           	asl
    1c9e: 26 13        	rol	$13                     ; 0x13 <__rc3>
    1ca0: 38           	sec
    1ca1: e5 12        	sbc	$12                     ; 0x12 <__rc2>
    1ca3: 85 12        	sta	$12                     ; 0x12 <__rc2>
    1ca5: a5 13        	lda	$13                     ; 0x13 <__rc3>
    1ca7: e9 00        	sbc	#$0
    1ca9: 85 13        	sta	$13                     ; 0x13 <__rc3>
    1cab: 18           	clc
    1cac: a5 2f        	lda	$2f                     ; 0x2f <__rc31>
    1cae: 65 12        	adc	$12                     ; 0x12 <__rc2>
    1cb0: 85 12        	sta	$12                     ; 0x12 <__rc2>
    1cb2: a5 2d        	lda	$2d                     ; 0x2d <__rc29>
    1cb4: 65 13        	adc	$13                     ; 0x13 <__rc3>
    1cb6: 85 13        	sta	$13                     ; 0x13 <__rc3>
    1cb8: a0 01        	ldy	#$1
    1cba: 84 38        	sty	$38                     ; 0x38 <needsToWaitExpiration>
    1cbc: 98           	tya
    1cbd: aa           	tax
    1cbe: 86 19        	stx	$19                     ; 0x19 <__rc9>
    1cc0: 91 12        	sta	($12),y                 ; 0x12 <__rc2>
    1cc2: 4c c0 2f     	jmp	$2fc0 <f256main+0x2668>
    1cc5: a6 1e        	ldx	$1e                     ; 0x1e <__rc14>
    1cc7: 86 25        	stx	$25                     ; 0x25 <__rc21>
    1cc9: a6 7f        	ldx	$7f                     ; 0x7f <gPtr>
    1ccb: a4 80        	ldy	$80                     ; 0x80 <gPtr+0x1>
    1ccd: 86 16        	stx	$16                     ; 0x16 <__rc6>
    1ccf: 84 17        	sty	$17                     ; 0x17 <__rc7>
    1cd1: a0 06        	ldy	#$6
    1cd3: b1 16        	lda	($16),y                 ; 0x16 <__rc6>
    1cd5: c9 03        	cmp	#$3
    1cd7: f0 03        	beq	$1cdc <f256main+0x1384>
    1cd9: 4c ce 20     	jmp	$20ce <f256main+0x1776>
    1cdc: a9 15        	lda	#$15
    1cde: 18           	clc
    1cdf: 65 31        	adc	$31                     ; 0x31 <note>
    1ce1: 85 12        	sta	$12                     ; 0x12 <__rc2>
    1ce3: 64 13        	stz	$13                     ; 0x13 <__rc3>
    1ce5: 64 14        	stz	$14                     ; 0x14 <__rc4>
    1ce7: a2 03        	ldx	#$3
    1ce9: 86 15        	stx	$15                     ; 0x15 <__rc5>
    1ceb: 64 16        	stz	$16                     ; 0x16 <__rc6>
    1ced: 64 17        	stz	$17                     ; 0x17 <__rc7>
    1cef: a2 00        	ldx	#$0
    1cf1: 4c f2 20     	jmp	$20f2 <f256main+0x179a>
    1cf4: a6 1e        	ldx	$1e                     ; 0x1e <__rc14>
    1cf6: 86 24        	stx	$24                     ; 0x24 <__rc20>
    1cf8: a2 b0        	ldx	#$b0
    1cfa: 8e b1 dd     	stx	$ddb1                   ; 0xddb1 <end_block9+0x4513>
    1cfd: a0 7b        	ldy	#$7b
    1cff: 8c b1 dd     	sty	$ddb1                   ; 0xddb1 <end_block9+0x4513>
    1d02: 9c b1 dd     	stz	$ddb1                   ; 0xddb1 <end_block9+0x4513>
    1d05: 8e a1 dd     	stx	$dda1                   ; 0xdda1 <end_block9+0x4503>
    1d08: 86 14        	stx	$14                     ; 0x14 <__rc4>
    1d0a: 8c a1 dd     	sty	$dda1                   ; 0xdda1 <end_block9+0x4503>
    1d0d: 9c a1 dd     	stz	$dda1                   ; 0xdda1 <end_block9+0x4503>
    1d10: e8           	inx
    1d11: 8e b1 dd     	stx	$ddb1                   ; 0xddb1 <end_block9+0x4513>
    1d14: 8c b1 dd     	sty	$ddb1                   ; 0xddb1 <end_block9+0x4513>
    1d17: 9c b1 dd     	stz	$ddb1                   ; 0xddb1 <end_block9+0x4513>
    1d1a: 8e a1 dd     	stx	$dda1                   ; 0xdda1 <end_block9+0x4503>
    1d1d: 86 15        	stx	$15                     ; 0x15 <__rc5>
    1d1f: 8c a1 dd     	sty	$dda1                   ; 0xdda1 <end_block9+0x4503>
    1d22: 9c a1 dd     	stz	$dda1                   ; 0xdda1 <end_block9+0x4503>
    1d25: a2 b9        	ldx	#$b9
    1d27: 8e b1 dd     	stx	$ddb1                   ; 0xddb1 <end_block9+0x4513>
    1d2a: 8c b1 dd     	sty	$ddb1                   ; 0xddb1 <end_block9+0x4513>
    1d2d: 9c b1 dd     	stz	$ddb1                   ; 0xddb1 <end_block9+0x4513>
    1d30: 8e a1 dd     	stx	$dda1                   ; 0xdda1 <end_block9+0x4503>
    1d33: 86 16        	stx	$16                     ; 0x16 <__rc6>
    1d35: 8c a1 dd     	sty	$dda1                   ; 0xdda1 <end_block9+0x4503>
    1d38: 84 18        	sty	$18                     ; 0x18 <__rc8>
    1d3a: 9c a1 dd     	stz	$dda1                   ; 0xdda1 <end_block9+0x4503>
    1d3d: a6 7f        	ldx	$7f                     ; 0x7f <gPtr>
    1d3f: 86 12        	stx	$12                     ; 0x12 <__rc2>
    1d41: a6 80        	ldx	$80                     ; 0x80 <gPtr+0x1>
    1d43: 86 13        	stx	$13                     ; 0x13 <__rc3>
    1d45: a9 ff        	lda	#$ff
    1d47: a2 02        	ldx	#$2
    1d49: 86 17        	stx	$17                     ; 0x17 <__rc7>
    1d4b: a4 17        	ldy	$17                     ; 0x17 <__rc7>
    1d4d: 51 12        	eor	($12),y                 ; 0x12 <__rc2>
    1d4f: 91 12        	sta	($12),y                 ; 0x12 <__rc2>
    1d51: a6 14        	ldx	$14                     ; 0x14 <__rc4>
    1d53: 8e b1 dd     	stx	$ddb1                   ; 0xddb1 <end_block9+0x4513>
    1d56: a4 18        	ldy	$18                     ; 0x18 <__rc8>
    1d58: 8c b1 dd     	sty	$ddb1                   ; 0xddb1 <end_block9+0x4513>
    1d5b: 9c b1 dd     	stz	$ddb1                   ; 0xddb1 <end_block9+0x4513>
    1d5e: 8e a1 dd     	stx	$dda1                   ; 0xdda1 <end_block9+0x4503>
    1d61: 8c a1 dd     	sty	$dda1                   ; 0xdda1 <end_block9+0x4503>
    1d64: 9c a1 dd     	stz	$dda1                   ; 0xdda1 <end_block9+0x4503>
    1d67: a6 15        	ldx	$15                     ; 0x15 <__rc5>
    1d69: 8e b1 dd     	stx	$ddb1                   ; 0xddb1 <end_block9+0x4513>
    1d6c: 8c b1 dd     	sty	$ddb1                   ; 0xddb1 <end_block9+0x4513>
    1d6f: 9c b1 dd     	stz	$ddb1                   ; 0xddb1 <end_block9+0x4513>
    1d72: 8e a1 dd     	stx	$dda1                   ; 0xdda1 <end_block9+0x4503>
    1d75: 8c a1 dd     	sty	$dda1                   ; 0xdda1 <end_block9+0x4503>
    1d78: 9c a1 dd     	stz	$dda1                   ; 0xdda1 <end_block9+0x4503>
    1d7b: a6 16        	ldx	$16                     ; 0x16 <__rc6>
    1d7d: 8e b1 dd     	stx	$ddb1                   ; 0xddb1 <end_block9+0x4513>
    1d80: 8c b1 dd     	sty	$ddb1                   ; 0xddb1 <end_block9+0x4513>
    1d83: 9c b1 dd     	stz	$ddb1                   ; 0xddb1 <end_block9+0x4513>
    1d86: 8e a1 dd     	stx	$dda1                   ; 0xdda1 <end_block9+0x4503>
    1d89: 8c a1 dd     	sty	$dda1                   ; 0xdda1 <end_block9+0x4503>
    1d8c: a4 17        	ldy	$17                     ; 0x17 <__rc7>
    1d8e: 9c a1 dd     	stz	$dda1                   ; 0xdda1 <end_block9+0x4503>
    1d91: a6 7f        	ldx	$7f                     ; 0x7f <gPtr>
    1d93: 86 12        	stx	$12                     ; 0x12 <__rc2>
    1d95: a6 80        	ldx	$80                     ; 0x80 <gPtr+0x1>
    1d97: 86 13        	stx	$13                     ; 0x13 <__rc3>
    1d99: b1 12        	lda	($12),y                 ; 0x12 <__rc2>
    1d9b: d0 03        	bne	$1da0 <f256main+0x1448>
    1d9d: 4c ab 27     	jmp	$27ab <f256main+0x1e53>
    1da0: a2 02        	ldx	#$2
    1da2: 86 29        	stx	$29                     ; 0x29 <__rc25>
    1da4: a2 3e        	ldx	#$3e
    1da6: 86 14        	stx	$14                     ; 0x14 <__rc4>
    1da8: a2 00        	ldx	#$0
    1daa: 4c b5 27     	jmp	$27b5 <f256main+0x1e5d>
    1dad: a6 37        	ldx	$37                     ; 0x37 <instSelectMode>
    1daf: d0 03        	bne	$1db4 <f256main+0x145c>
    1db1: 4c 09 28     	jmp	$2809 <f256main+0x1eb1>
    1db4: a6 1e        	ldx	$1e                     ; 0x1e <__rc14>
    1db6: 86 2e        	stx	$2e                     ; 0x2e <__rc30>
    1db8: a0 0f        	ldy	#$f
    1dba: b1 10        	lda	($10),y                 ; 0x10 <__rc0>
    1dbc: c8           	iny
    1dbd: b1 10        	lda	($10),y                 ; 0x10 <__rc0>
    1dbf: a6 7f        	ldx	$7f                     ; 0x7f <gPtr>
    1dc1: a4 80        	ldy	$80                     ; 0x80 <gPtr+0x1>
    1dc3: 86 2c        	stx	$2c                     ; 0x2c <__rc28>
    1dc5: 84 2d        	sty	$2d                     ; 0x2d <__rc29>
    1dc7: b2 2c        	lda	($2c)                   ; 0x2c <__rc28>
    1dc9: 85 12        	sta	$12                     ; 0x12 <__rc2>
    1dcb: a0 01        	ldy	#$1
    1dcd: a2 01        	ldx	#$1
    1dcf: b1 2c        	lda	($2c),y                 ; 0x2c <__rc28>
    1dd1: 85 13        	sta	$13                     ; 0x13 <__rc3>
    1dd3: a0 03        	ldy	#$3
    1dd5: b1 2c        	lda	($2c),y                 ; 0x2c <__rc28>
    1dd7: a8           	tay
    1dd8: b1 12        	lda	($12),y                 ; 0x12 <__rc2>
    1dda: d0 03        	bne	$1ddf <f256main+0x1487>
    1ddc: 4c 81 28     	jmp	$2881 <f256main+0x1f29>
    1ddf: 86 24        	stx	$24                     ; 0x24 <__rc20>
    1de1: a6 2c        	ldx	$2c                     ; 0x2c <__rc28>
    1de3: 86 12        	stx	$12                     ; 0x12 <__rc2>
    1de5: a6 2d        	ldx	$2d                     ; 0x2d <__rc29>
    1de7: 86 13        	stx	$13                     ; 0x13 <__rc3>
    1de9: a9 00        	lda	#$0
    1deb: 20 44 5b     	jsr	$5b44 <highLightInstChoice>
    1dee: a0 06        	ldy	#$6
    1df0: b1 2c        	lda	($2c),y                 ; 0x2c <__rc28>
    1df2: f0 03        	beq	$1df7 <f256main+0x149f>
    1df4: 4c 6e 1e     	jmp	$1e6e <f256main+0x1516>
    1df7: b2 2c        	lda	($2c)                   ; 0x2c <__rc28>
    1df9: 85 12        	sta	$12                     ; 0x12 <__rc2>
    1dfb: a0 01        	ldy	#$1
    1dfd: a2 01        	ldx	#$1
    1dff: 86 24        	stx	$24                     ; 0x24 <__rc20>
    1e01: b1 2c        	lda	($2c),y                 ; 0x2c <__rc28>
    1e03: 85 13        	sta	$13                     ; 0x13 <__rc3>
    1e05: a0 03        	ldy	#$3
    1e07: b1 2c        	lda	($2c),y                 ; 0x2c <__rc28>
    1e09: a8           	tay
    1e0a: b1 12        	lda	($12),y                 ; 0x12 <__rc2>
    1e0c: 3a           	dec
    1e0d: 4c 6c 1e     	jmp	$1e6c <f256main+0x1514>
    1e10: a6 37        	ldx	$37                     ; 0x37 <instSelectMode>
    1e12: d0 03        	bne	$1e17 <f256main+0x14bf>
    1e14: 4c 1f 28     	jmp	$281f <f256main+0x1ec7>
    1e17: a6 1e        	ldx	$1e                     ; 0x1e <__rc14>
    1e19: 86 2e        	stx	$2e                     ; 0x2e <__rc30>
    1e1b: a0 0f        	ldy	#$f
    1e1d: b1 10        	lda	($10),y                 ; 0x10 <__rc0>
    1e1f: c8           	iny
    1e20: b1 10        	lda	($10),y                 ; 0x10 <__rc0>
    1e22: a6 7f        	ldx	$7f                     ; 0x7f <gPtr>
    1e24: a4 80        	ldy	$80                     ; 0x80 <gPtr+0x1>
    1e26: 86 2c        	stx	$2c                     ; 0x2c <__rc28>
    1e28: 84 2d        	sty	$2d                     ; 0x2d <__rc29>
    1e2a: b2 2c        	lda	($2c)                   ; 0x2c <__rc28>
    1e2c: 85 12        	sta	$12                     ; 0x12 <__rc2>
    1e2e: a0 01        	ldy	#$1
    1e30: a2 01        	ldx	#$1
    1e32: b1 2c        	lda	($2c),y                 ; 0x2c <__rc28>
    1e34: 85 13        	sta	$13                     ; 0x13 <__rc3>
    1e36: a0 03        	ldy	#$3
    1e38: b1 2c        	lda	($2c),y                 ; 0x2c <__rc28>
    1e3a: a8           	tay
    1e3b: b1 12        	lda	($12),y                 ; 0x12 <__rc2>
    1e3d: c9 7f        	cmp	#$7f
    1e3f: b0 53        	bcs	$1e94 <f256main+0x153c>
    1e41: 86 24        	stx	$24                     ; 0x24 <__rc20>
    1e43: a6 2c        	ldx	$2c                     ; 0x2c <__rc28>
    1e45: 86 12        	stx	$12                     ; 0x12 <__rc2>
    1e47: a6 2d        	ldx	$2d                     ; 0x2d <__rc29>
    1e49: 86 13        	stx	$13                     ; 0x13 <__rc3>
    1e4b: a9 00        	lda	#$0
    1e4d: 20 44 5b     	jsr	$5b44 <highLightInstChoice>
    1e50: a0 06        	ldy	#$6
    1e52: b1 2c        	lda	($2c),y                 ; 0x2c <__rc28>
    1e54: d0 18        	bne	$1e6e <f256main+0x1516>
    1e56: b2 2c        	lda	($2c)                   ; 0x2c <__rc28>
    1e58: 85 12        	sta	$12                     ; 0x12 <__rc2>
    1e5a: a0 01        	ldy	#$1
    1e5c: a2 01        	ldx	#$1
    1e5e: 86 24        	stx	$24                     ; 0x24 <__rc20>
    1e60: b1 2c        	lda	($2c),y                 ; 0x2c <__rc28>
    1e62: 85 13        	sta	$13                     ; 0x13 <__rc3>
    1e64: a0 03        	ldy	#$3
    1e66: b1 2c        	lda	($2c),y                 ; 0x2c <__rc28>
    1e68: a8           	tay
    1e69: b1 12        	lda	($12),y                 ; 0x12 <__rc2>
    1e6b: 1a           	inc
    1e6c: 91 12        	sta	($12),y                 ; 0x12 <__rc2>
    1e6e: a6 2c        	ldx	$2c                     ; 0x2c <__rc28>
    1e70: 86 12        	stx	$12                     ; 0x12 <__rc2>
    1e72: a6 2d        	ldx	$2d                     ; 0x2d <__rc29>
    1e74: 86 13        	stx	$13                     ; 0x13 <__rc3>
    1e76: a5 24        	lda	$24                     ; 0x24 <__rc20>
    1e78: 20 44 5b     	jsr	$5b44 <highLightInstChoice>
    1e7b: a6 7f        	ldx	$7f                     ; 0x7f <gPtr>
    1e7d: a4 80        	ldy	$80                     ; 0x80 <gPtr+0x1>
    1e7f: 86 2c        	stx	$2c                     ; 0x2c <__rc28>
    1e81: 84 2d        	sty	$2d                     ; 0x2d <__rc29>
    1e83: b2 2c        	lda	($2c)                   ; 0x2c <__rc28>
    1e85: 85 12        	sta	$12                     ; 0x12 <__rc2>
    1e87: a4 24        	ldy	$24                     ; 0x24 <__rc20>
    1e89: b1 2c        	lda	($2c),y                 ; 0x2c <__rc28>
    1e8b: 85 13        	sta	$13                     ; 0x13 <__rc3>
    1e8d: a0 03        	ldy	#$3
    1e8f: b1 2c        	lda	($2c),y                 ; 0x2c <__rc28>
    1e91: a8           	tay
    1e92: b1 12        	lda	($12),y                 ; 0x12 <__rc2>
    1e94: 85 18        	sta	$18                     ; 0x18 <__rc8>
    1e96: 84 12        	sty	$12                     ; 0x12 <__rc2>
    1e98: a0 02        	ldy	#$2
    1e9a: b1 2c        	lda	($2c),y                 ; 0x2c <__rc28>
    1e9c: aa           	tax
    1e9d: a5 12        	lda	$12                     ; 0x12 <__rc2>
    1e9f: 09 c0        	ora	#$c0
    1ea1: 48           	pha
    1ea2: a0 09        	ldy	#$9
    1ea4: b1 10        	lda	($10),y                 ; 0x10 <__rc0>
    1ea6: 85 12        	sta	$12                     ; 0x12 <__rc2>
    1ea8: c8           	iny
    1ea9: b1 10        	lda	($10),y                 ; 0x10 <__rc0>
    1eab: 85 13        	sta	$13                     ; 0x13 <__rc3>
    1ead: a0 04        	ldy	#$4
    1eaf: b1 10        	lda	($10),y                 ; 0x10 <__rc0>
    1eb1: 85 16        	sta	$16                     ; 0x16 <__rc6>
    1eb3: c8           	iny
    1eb4: b1 10        	lda	($10),y                 ; 0x10 <__rc0>
    1eb6: 85 17        	sta	$17                     ; 0x17 <__rc7>
    1eb8: 68           	pla
    1eb9: e0 00        	cpx	#$0
    1ebb: f0 08        	beq	$1ec5 <f256main+0x156d>
    1ebd: a6 16        	ldx	$16                     ; 0x16 <__rc6>
    1ebf: 86 12        	stx	$12                     ; 0x12 <__rc2>
    1ec1: a6 17        	ldx	$17                     ; 0x17 <__rc7>
    1ec3: 86 13        	stx	$13                     ; 0x13 <__rc3>
    1ec5: 92 12        	sta	($12)                   ; 0x12 <__rc2>
    1ec7: a5 18        	lda	$18                     ; 0x18 <__rc8>
    1ec9: 92 12        	sta	($12)                   ; 0x12 <__rc2>
    1ecb: a6 7f        	ldx	$7f                     ; 0x7f <gPtr>
    1ecd: a4 80        	ldy	$80                     ; 0x80 <gPtr+0x1>
    1ecf: 86 12        	stx	$12                     ; 0x12 <__rc2>
    1ed1: 84 13        	sty	$13                     ; 0x13 <__rc3>
    1ed3: b2 12        	lda	($12)                   ; 0x12 <__rc2>
    1ed5: 85 14        	sta	$14                     ; 0x14 <__rc4>
    1ed7: a0 01        	ldy	#$1
    1ed9: a2 01        	ldx	#$1
    1edb: 86 18        	stx	$18                     ; 0x18 <__rc8>
    1edd: b1 12        	lda	($12),y                 ; 0x12 <__rc2>
    1edf: 85 15        	sta	$15                     ; 0x15 <__rc5>
    1ee1: a0 03        	ldy	#$3
    1ee3: b1 12        	lda	($12),y                 ; 0x12 <__rc2>
    1ee5: 85 1a        	sta	$1a                     ; 0x1a <__rc10>
    1ee7: a8           	tay
    1ee8: b1 14        	lda	($14),y                 ; 0x14 <__rc4>
    1eea: 85 19        	sta	$19                     ; 0x19 <__rc9>
    1eec: a0 02        	ldy	#$2
    1eee: e8           	inx
    1eef: 86 29        	stx	$29                     ; 0x29 <__rc25>
    1ef1: b1 12        	lda	($12),y                 ; 0x12 <__rc2>
    1ef3: a6 16        	ldx	$16                     ; 0x16 <__rc6>
    1ef5: 86 12        	stx	$12                     ; 0x12 <__rc2>
    1ef7: a6 17        	ldx	$17                     ; 0x17 <__rc7>
    1ef9: 86 13        	stx	$13                     ; 0x13 <__rc3>
    1efb: aa           	tax
    1efc: f0 0b        	beq	$1f09 <f256main+0x15b1>
    1efe: a0 09        	ldy	#$9
    1f00: b1 10        	lda	($10),y                 ; 0x10 <__rc0>
    1f02: 85 12        	sta	$12                     ; 0x12 <__rc2>
    1f04: c8           	iny
    1f05: b1 10        	lda	($10),y                 ; 0x10 <__rc0>
    1f07: 85 13        	sta	$13                     ; 0x13 <__rc3>
    1f09: a5 1a        	lda	$1a                     ; 0x1a <__rc10>
    1f0b: 09 c0        	ora	#$c0
    1f0d: 92 12        	sta	($12)                   ; 0x12 <__rc2>
    1f0f: a5 19        	lda	$19                     ; 0x19 <__rc9>
    1f11: 92 12        	sta	($12)                   ; 0x12 <__rc2>
    1f13: a6 18        	ldx	$18                     ; 0x18 <__rc8>
    1f15: 86 19        	stx	$19                     ; 0x19 <__rc9>
    1f17: a2 04        	ldx	#$4
    1f19: 86 1b        	stx	$1b                     ; 0x1b <__rc11>
    1f1b: a6 2e        	ldx	$2e                     ; 0x2e <__rc30>
    1f1d: 86 1e        	stx	$1e                     ; 0x1e <__rc14>
    1f1f: 4c a1 0f     	jmp	$fa1 <f256main+0x649>
    1f22: a6 1e        	ldx	$1e                     ; 0x1e <__rc14>
    1f24: 86 2c        	stx	$2c                     ; 0x2c <__rc28>
    1f26: a6 37        	ldx	$37                     ; 0x37 <instSelectMode>
    1f28: a4 7f        	ldy	$7f                     ; 0x7f <gPtr>
    1f2a: a5 80        	lda	$80                     ; 0x80 <gPtr+0x1>
    1f2c: 84 12        	sty	$12                     ; 0x12 <__rc2>
    1f2e: 85 13        	sta	$13                     ; 0x13 <__rc3>
    1f30: a0 06        	ldy	#$6
    1f32: b1 12        	lda	($12),y                 ; 0x12 <__rc2>
    1f34: e0 00        	cpx	#$0
    1f36: d0 03        	bne	$1f3b <f256main+0x15e3>
    1f38: 4c 69 28     	jmp	$2869 <f256main+0x1f11>
    1f3b: a6 2e        	ldx	$2e                     ; 0x2e <__rc30>
    1f3d: 86 19        	stx	$19                     ; 0x19 <__rc9>
    1f3f: aa           	tax
    1f40: d0 03        	bne	$1f45 <f256main+0x15ed>
    1f42: 4c 86 28     	jmp	$2886 <f256main+0x1f2e>
    1f45: a2 04        	ldx	#$4
    1f47: 86 1b        	stx	$1b                     ; 0x1b <__rc11>
    1f49: 4c e7 2c     	jmp	$2ce7 <f256main+0x238f>
    1f4c: 86 12        	stx	$12                     ; 0x12 <__rc2>
    1f4e: 18           	clc
    1f4f: a5 16        	lda	$16                     ; 0x16 <__rc6>
    1f51: 69 09        	adc	#$9
    1f53: 85 16        	sta	$16                     ; 0x16 <__rc6>
    1f55: a5 17        	lda	$17                     ; 0x17 <__rc7>
    1f57: 69 00        	adc	#$0
    1f59: 85 17        	sta	$17                     ; 0x17 <__rc7>
    1f5b: a0 01        	ldy	#$1
    1f5d: b1 16        	lda	($16),y                 ; 0x16 <__rc6>
    1f5f: 85 16        	sta	$16                     ; 0x16 <__rc6>
    1f61: a5 2f        	lda	$2f                     ; 0x2f <__rc31>
    1f63: 18           	clc
    1f64: a0 09        	ldy	#$9
    1f66: 71 14        	adc	($14),y                 ; 0x14 <__rc4>
    1f68: aa           	tax
    1f69: 84 29        	sty	$29                     ; 0x29 <__rc25>
    1f6b: a5 16        	lda	$16                     ; 0x16 <__rc6>
    1f6d: 69 00        	adc	#$0
    1f6f: 85 14        	sta	$14                     ; 0x14 <__rc4>
    1f71: 18           	clc
    1f72: 8a           	txa
    1f73: 69 fa        	adc	#$fa
    1f75: aa           	tax
    1f76: a5 14        	lda	$14                     ; 0x14 <__rc4>
    1f78: 69 ff        	adc	#$ff
    1f7a: 85 15        	sta	$15                     ; 0x15 <__rc5>
    1f7c: 86 14        	stx	$14                     ; 0x14 <__rc4>
    1f7e: b2 14        	lda	($14)                   ; 0x14 <__rc4>
    1f80: 1a           	inc
    1f81: 92 14        	sta	($14)                   ; 0x14 <__rc4>
    1f83: 88           	dey
    1f84: b1 24        	lda	($24),y                 ; 0x24 <__rc20>
    1f86: 84 27        	sty	$27                     ; 0x27 <__rc23>
    1f88: 48           	pha
    1f89: a0 0d        	ldy	#$d
    1f8b: b1 10        	lda	($10),y                 ; 0x10 <__rc0>
    1f8d: 85 14        	sta	$14                     ; 0x14 <__rc4>
    1f8f: c8           	iny
    1f90: b1 10        	lda	($10),y                 ; 0x10 <__rc0>
    1f92: 85 15        	sta	$15                     ; 0x15 <__rc5>
    1f94: c8           	iny
    1f95: b1 10        	lda	($10),y                 ; 0x10 <__rc0>
    1f97: 85 24        	sta	$24                     ; 0x24 <__rc20>
    1f99: c8           	iny
    1f9a: b1 10        	lda	($10),y                 ; 0x10 <__rc0>
    1f9c: 85 25        	sta	$25                     ; 0x25 <__rc21>
    1f9e: 68           	pla
    1f9f: a6 24        	ldx	$24                     ; 0x24 <__rc20>
    1fa1: 86 16        	stx	$16                     ; 0x16 <__rc6>
    1fa3: a6 25        	ldx	$25                     ; 0x25 <__rc21>
    1fa5: 86 17        	stx	$17                     ; 0x17 <__rc7>
    1fa7: a6 2c        	ldx	$2c                     ; 0x2c <__rc28>
    1fa9: 86 18        	stx	$18                     ; 0x18 <__rc8>
    1fab: a6 2d        	ldx	$2d                     ; 0x2d <__rc29>
    1fad: 86 19        	stx	$19                     ; 0x19 <__rc9>
    1faf: a6 2b        	ldx	$2b                     ; 0x2b <__rc27>
    1fb1: 20 83 4a     	jsr	$4a83 <getBeatTrackNoteInfo>
    1fb4: a6 3b        	ldx	$3b                     ; 0x3b <theBeats>
    1fb6: a4 3c        	ldy	$3c                     ; 0x3c <theBeats+0x1>
    1fb8: a5 24        	lda	$24                     ; 0x24 <__rc20>
    1fba: 85 16        	sta	$16                     ; 0x16 <__rc6>
    1fbc: a5 25        	lda	$25                     ; 0x25 <__rc21>
    1fbe: 85 17        	sta	$17                     ; 0x17 <__rc7>
    1fc0: 86 12        	stx	$12                     ; 0x12 <__rc2>
    1fc2: 84 13        	sty	$13                     ; 0x13 <__rc3>
    1fc4: a6 7f        	ldx	$7f                     ; 0x7f <gPtr>
    1fc6: a4 80        	ldy	$80                     ; 0x80 <gPtr+0x1>
    1fc8: 86 24        	stx	$24                     ; 0x24 <__rc20>
    1fca: 84 25        	sty	$25                     ; 0x25 <__rc21>
    1fcc: a6 29        	ldx	$29                     ; 0x29 <__rc25>
    1fce: 86 1a        	stx	$1a                     ; 0x1a <__rc10>
    1fd0: a4 27        	ldy	$27                     ; 0x27 <__rc23>
    1fd2: b1 24        	lda	($24),y                 ; 0x24 <__rc20>
    1fd4: 85 14        	sta	$14                     ; 0x14 <__rc4>
    1fd6: 0a           	asl
    1fd7: aa           	tax
    1fd8: a9 00        	lda	#$0
    1fda: 2a           	rol
    1fdb: 86 15        	stx	$15                     ; 0x15 <__rc5>
    1fdd: 06 15        	asl	$15                     ; 0x15 <__rc5>
    1fdf: 2a           	rol
    1fe0: 06 15        	asl	$15                     ; 0x15 <__rc5>
    1fe2: 2a           	rol
    1fe3: 06 15        	asl	$15                     ; 0x15 <__rc5>
    1fe5: 2a           	rol
    1fe6: aa           	tax
    1fe7: 38           	sec
    1fe8: a5 15        	lda	$15                     ; 0x15 <__rc5>
    1fea: e5 14        	sbc	$14                     ; 0x14 <__rc4>
    1fec: 85 14        	sta	$14                     ; 0x14 <__rc4>
    1fee: 8a           	txa
    1fef: e9 00        	sbc	#$0
    1ff1: a8           	tay
    1ff2: 18           	clc
    1ff3: a5 14        	lda	$14                     ; 0x14 <__rc4>
    1ff5: 65 3b        	adc	$3b                     ; 0x3b <theBeats>
    1ff7: aa           	tax
    1ff8: 98           	tya
    1ff9: 65 3c        	adc	$3c                     ; 0x3c <theBeats+0x1>
    1ffb: 86 18        	stx	$18                     ; 0x18 <__rc8>
    1ffd: 85 19        	sta	$19                     ; 0x19 <__rc9>
    1fff: a8           	tay
    2000: 18           	clc
    2001: 8a           	txa
    2002: 69 09        	adc	#$9
    2004: 85 14        	sta	$14                     ; 0x14 <__rc4>
    2006: 98           	tya
    2007: 69 00        	adc	#$0
    2009: 85 15        	sta	$15                     ; 0x15 <__rc5>
    200b: a2 01        	ldx	#$1
    200d: 86 29        	stx	$29                     ; 0x29 <__rc25>
    200f: a4 29        	ldy	$29                     ; 0x29 <__rc25>
    2011: b1 14        	lda	($14),y                 ; 0x14 <__rc4>
    2013: 85 14        	sta	$14                     ; 0x14 <__rc4>
    2015: a5 2f        	lda	$2f                     ; 0x2f <__rc31>
    2017: 18           	clc
    2018: a4 1a        	ldy	$1a                     ; 0x1a <__rc10>
    201a: 71 18        	adc	($18),y                 ; 0x18 <__rc8>
    201c: aa           	tax
    201d: a5 14        	lda	$14                     ; 0x14 <__rc4>
    201f: 69 00        	adc	#$0
    2021: 85 14        	sta	$14                     ; 0x14 <__rc4>
    2023: 18           	clc
    2024: 8a           	txa
    2025: 69 fa        	adc	#$fa
    2027: aa           	tax
    2028: a5 14        	lda	$14                     ; 0x14 <__rc4>
    202a: 69 ff        	adc	#$ff
    202c: 85 15        	sta	$15                     ; 0x15 <__rc5>
    202e: 86 14        	stx	$14                     ; 0x14 <__rc4>
    2030: b2 14        	lda	($14)                   ; 0x14 <__rc4>
    2032: a0 03        	ldy	#$3
    2034: d1 2c        	cmp	($2c),y                 ; 0x2c <__rc28>
    2036: f0 03        	beq	$203b <f256main+0x16e3>
    2038: 4c 06 21     	jmp	$2106 <f256main+0x17ae>
    203b: a6 2c        	ldx	$2c                     ; 0x2c <__rc28>
    203d: 86 18        	stx	$18                     ; 0x18 <__rc8>
    203f: a6 2d        	ldx	$2d                     ; 0x2d <__rc29>
    2041: 86 19        	stx	$19                     ; 0x19 <__rc9>
    2043: a9 00        	lda	#$0
    2045: 92 14        	sta	($14)                   ; 0x14 <__rc4>
    2047: a0 08        	ldy	#$8
    2049: b1 24        	lda	($24),y                 ; 0x24 <__rc20>
    204b: 48           	pha
    204c: a0 0d        	ldy	#$d
    204e: b1 10        	lda	($10),y                 ; 0x10 <__rc0>
    2050: 85 2c        	sta	$2c                     ; 0x2c <__rc28>
    2052: c8           	iny
    2053: b1 10        	lda	($10),y                 ; 0x10 <__rc0>
    2055: 85 2d        	sta	$2d                     ; 0x2d <__rc29>
    2057: 68           	pla
    2058: a6 2c        	ldx	$2c                     ; 0x2c <__rc28>
    205a: 86 14        	stx	$14                     ; 0x14 <__rc4>
    205c: a6 2d        	ldx	$2d                     ; 0x2d <__rc29>
    205e: 86 15        	stx	$15                     ; 0x15 <__rc5>
    2060: a6 2b        	ldx	$2b                     ; 0x2b <__rc27>
    2062: 20 83 4a     	jsr	$4a83 <getBeatTrackNoteInfo>
    2065: a6 7f        	ldx	$7f                     ; 0x7f <gPtr>
    2067: a4 80        	ldy	$80                     ; 0x80 <gPtr+0x1>
    2069: 86 24        	stx	$24                     ; 0x24 <__rc20>
    206b: 84 25        	sty	$25                     ; 0x25 <__rc21>
    206d: a6 3b        	ldx	$3b                     ; 0x3b <theBeats>
    206f: a4 3c        	ldy	$3c                     ; 0x3c <theBeats+0x1>
    2071: 86 12        	stx	$12                     ; 0x12 <__rc2>
    2073: 84 13        	sty	$13                     ; 0x13 <__rc3>
    2075: 4c 11 21     	jmp	$2111 <f256main+0x17b9>
    2078: a0 00        	ldy	#$0
    207a: a9 20        	lda	#$20
    207c: 84 37        	sty	$37                     ; 0x37 <instSelectMode>
    207e: e0 00        	cpx	#$0
    2080: f0 03        	beq	$2085 <f256main+0x172d>
    2082: 4c 03 23     	jmp	$2303 <f256main+0x19ab>
    2085: a0 02        	ldy	#$2
    2087: a2 02        	ldx	#$2
    2089: 86 29        	stx	$29                     ; 0x29 <__rc25>
    208b: 84 01        	sty	$1                      ; 0x1 <__data_size+0x1>
    208d: a0 c0        	ldy	#$c0
    208f: a2 00        	ldx	#$0
    2091: 86 12        	stx	$12                     ; 0x12 <__rc2>
    2093: 84 13        	sty	$13                     ; 0x13 <__rc3>
    2095: 92 12        	sta	($12)                   ; 0x12 <__rc2>
    2097: e8           	inx
    2098: d0 01        	bne	$209b <f256main+0x1743>
    209a: c8           	iny
    209b: c0 d2        	cpy	#$d2
    209d: d0 f2        	bne	$2091 <f256main+0x1739>
    209f: e0 c0        	cpx	#$c0
    20a1: d0 ee        	bne	$2091 <f256main+0x1739>
    20a3: 64 01        	stz	$1                      ; 0x1 <__data_size+0x1>
    20a5: a6 7f        	ldx	$7f                     ; 0x7f <gPtr>
    20a7: a4 80        	ldy	$80                     ; 0x80 <gPtr+0x1>
    20a9: 86 12        	stx	$12                     ; 0x12 <__rc2>
    20ab: 84 13        	sty	$13                     ; 0x13 <__rc3>
    20ad: 20 2b 57     	jsr	$572b <textTitle>
    20b0: a6 2e        	ldx	$2e                     ; 0x2e <__rc30>
    20b2: 4c 5c 27     	jmp	$275c <f256main+0x1e04>
    20b5: a0 03        	ldy	#$3
    20b7: 85 15        	sta	$15                     ; 0x15 <__rc5>
    20b9: a9 90        	lda	#$90
    20bb: 11 12        	ora	($12),y                 ; 0x12 <__rc2>
    20bd: 85 18        	sta	$18                     ; 0x18 <__rc8>
    20bf: a6 14        	ldx	$14                     ; 0x14 <__rc4>
    20c1: bd 16 85     	lda	$8516,x                 ; 0x8516 <KeyCodesToMIDINotes>
    20c4: aa           	tax
    20c5: 88           	dey
    20c6: 84 29        	sty	$29                     ; 0x29 <__rc25>
    20c8: b1 12        	lda	($12),y                 ; 0x12 <__rc2>
    20ca: 86 12        	stx	$12                     ; 0x12 <__rc2>
    20cc: 80 18        	bra	$20e6 <f256main+0x178e>
    20ce: 85 15        	sta	$15                     ; 0x15 <__rc5>
    20d0: a0 03        	ldy	#$3
    20d2: a9 90        	lda	#$90
    20d4: 11 16        	ora	($16),y                 ; 0x16 <__rc6>
    20d6: 85 18        	sta	$18                     ; 0x18 <__rc8>
    20d8: a9 15        	lda	#$15
    20da: 18           	clc
    20db: 65 31        	adc	$31                     ; 0x31 <note>
    20dd: 85 12        	sta	$12                     ; 0x12 <__rc2>
    20df: 88           	dey
    20e0: a2 02        	ldx	#$2
    20e2: 86 29        	stx	$29                     ; 0x29 <__rc25>
    20e4: b1 16        	lda	($16),y                 ; 0x16 <__rc6>
    20e6: 85 14        	sta	$14                     ; 0x14 <__rc4>
    20e8: a2 7f        	ldx	#$7f
    20ea: 86 13        	stx	$13                     ; 0x13 <__rc3>
    20ec: 64 16        	stz	$16                     ; 0x16 <__rc6>
    20ee: 64 17        	stz	$17                     ; 0x17 <__rc7>
    20f0: a6 18        	ldx	$18                     ; 0x18 <__rc8>
    20f2: a5 2e        	lda	$2e                     ; 0x2e <__rc30>
    20f4: 20 8f 3f     	jsr	$3f8f <dispatchNote>
    20f7: a6 2e        	ldx	$2e                     ; 0x2e <__rc30>
    20f9: 86 19        	stx	$19                     ; 0x19 <__rc9>
    20fb: a2 04        	ldx	#$4
    20fd: 86 1b        	stx	$1b                     ; 0x1b <__rc11>
    20ff: a6 25        	ldx	$25                     ; 0x25 <__rc21>
    2101: 86 1e        	stx	$1e                     ; 0x1e <__rc14>
    2103: 4c a1 0f     	jmp	$fa1 <f256main+0x649>
    2106: a0 0d        	ldy	#$d
    2108: b1 10        	lda	($10),y                 ; 0x10 <__rc0>
    210a: 85 2c        	sta	$2c                     ; 0x2c <__rc28>
    210c: c8           	iny
    210d: b1 10        	lda	($10),y                 ; 0x10 <__rc0>
    210f: 85 2d        	sta	$2d                     ; 0x2d <__rc29>
    2111: a4 29        	ldy	$29                     ; 0x29 <__rc25>
    2113: b2 2c        	lda	($2c)                   ; 0x2c <__rc28>
    2115: 84 18        	sty	$18                     ; 0x18 <__rc8>
    2117: aa           	tax
    2118: 30 03        	bmi	$211d <f256main+0x17c5>
    211a: 4c 8e 21     	jmp	$218e <f256main+0x1836>
    211d: a0 08        	ldy	#$8
    211f: b1 24        	lda	($24),y                 ; 0x24 <__rc20>
    2121: 85 14        	sta	$14                     ; 0x14 <__rc4>
    2123: 0a           	asl
    2124: a8           	tay
    2125: a9 00        	lda	#$0
    2127: 2a           	rol
    2128: 84 15        	sty	$15                     ; 0x15 <__rc5>
    212a: 06 15        	asl	$15                     ; 0x15 <__rc5>
    212c: 2a           	rol
    212d: 06 15        	asl	$15                     ; 0x15 <__rc5>
    212f: 2a           	rol
    2130: 06 15        	asl	$15                     ; 0x15 <__rc5>
    2132: 2a           	rol
    2133: a8           	tay
    2134: 38           	sec
    2135: a5 15        	lda	$15                     ; 0x15 <__rc5>
    2137: e5 14        	sbc	$14                     ; 0x14 <__rc4>
    2139: 85 14        	sta	$14                     ; 0x14 <__rc4>
    213b: 98           	tya
    213c: e9 00        	sbc	#$0
    213e: 85 15        	sta	$15                     ; 0x15 <__rc5>
    2140: 18           	clc
    2141: a5 14        	lda	$14                     ; 0x14 <__rc4>
    2143: 65 12        	adc	$12                     ; 0x12 <__rc2>
    2145: a8           	tay
    2146: a5 15        	lda	$15                     ; 0x15 <__rc5>
    2148: 65 13        	adc	$13                     ; 0x13 <__rc3>
    214a: 84 16        	sty	$16                     ; 0x16 <__rc6>
    214c: 85 17        	sta	$17                     ; 0x17 <__rc7>
    214e: 85 15        	sta	$15                     ; 0x15 <__rc5>
    2150: 18           	clc
    2151: 98           	tya
    2152: 69 0b        	adc	#$b
    2154: 85 14        	sta	$14                     ; 0x14 <__rc4>
    2156: a5 15        	lda	$15                     ; 0x15 <__rc5>
    2158: 69 00        	adc	#$0
    215a: 85 15        	sta	$15                     ; 0x15 <__rc5>
    215c: a4 18        	ldy	$18                     ; 0x18 <__rc8>
    215e: b1 14        	lda	($14),y                 ; 0x14 <__rc4>
    2160: 85 14        	sta	$14                     ; 0x14 <__rc4>
    2162: 18           	clc
    2163: a0 0b        	ldy	#$b
    2165: a5 2f        	lda	$2f                     ; 0x2f <__rc31>
    2167: 71 16        	adc	($16),y                 ; 0x16 <__rc6>
    2169: 85 15        	sta	$15                     ; 0x15 <__rc5>
    216b: a4 18        	ldy	$18                     ; 0x18 <__rc8>
    216d: a5 14        	lda	$14                     ; 0x14 <__rc4>
    216f: 69 00        	adc	#$0
    2171: 85 14        	sta	$14                     ; 0x14 <__rc4>
    2173: 18           	clc
    2174: a5 15        	lda	$15                     ; 0x15 <__rc5>
    2176: 69 fa        	adc	#$fa
    2178: 85 16        	sta	$16                     ; 0x16 <__rc6>
    217a: a5 14        	lda	$14                     ; 0x14 <__rc4>
    217c: 69 ff        	adc	#$ff
    217e: 5a           	phy
    217f: a4 16        	ldy	$16                     ; 0x16 <__rc6>
    2181: 84 14        	sty	$14                     ; 0x14 <__rc4>
    2183: 7a           	ply
    2184: 85 15        	sta	$15                     ; 0x15 <__rc5>
    2186: b2 14        	lda	($14)                   ; 0x14 <__rc4>
    2188: d0 04        	bne	$218e <f256main+0x1836>
    218a: a9 01        	lda	#$1
    218c: 92 14        	sta	($14)                   ; 0x14 <__rc4>
    218e: a5 12        	lda	$12                     ; 0x12 <__rc2>
    2190: 85 2c        	sta	$2c                     ; 0x2c <__rc28>
    2192: a5 13        	lda	$13                     ; 0x13 <__rc3>
    2194: 85 2d        	sta	$2d                     ; 0x2d <__rc29>
    2196: 5a           	phy
    2197: a0 0b        	ldy	#$b
    2199: b1 10        	lda	($10),y                 ; 0x10 <__rc0>
    219b: 85 14        	sta	$14                     ; 0x14 <__rc4>
    219d: c8           	iny
    219e: b1 10        	lda	($10),y                 ; 0x10 <__rc0>
    21a0: 7a           	ply
    21a1: 85 15        	sta	$15                     ; 0x15 <__rc5>
    21a3: b1 14        	lda	($14),y                 ; 0x14 <__rc4>
    21a5: 85 19        	sta	$19                     ; 0x19 <__rc9>
    21a7: 8a           	txa
    21a8: 29 7f        	and	#$7f
    21aa: 85 16        	sta	$16                     ; 0x16 <__rc6>
    21ac: b2 14        	lda	($14)                   ; 0x14 <__rc4>
    21ae: a2 4c        	ldx	#$4c
    21b0: 85 1a        	sta	$1a                     ; 0x1a <__rc10>
    21b2: c9 02        	cmp	#$2
    21b4: f0 02        	beq	$21b8 <f256main+0x1860>
    21b6: a2 7f        	ldx	#$7f
    21b8: a0 02        	ldy	#$2
    21ba: b1 24        	lda	($24),y                 ; 0x24 <__rc20>
    21bc: 85 1b        	sta	$1b                     ; 0x1b <__rc11>
    21be: 5a           	phy
    21bf: a0 0b        	ldy	#$b
    21c1: b1 10        	lda	($10),y                 ; 0x10 <__rc0>
    21c3: 85 14        	sta	$14                     ; 0x14 <__rc4>
    21c5: c8           	iny
    21c6: b1 10        	lda	($10),y                 ; 0x10 <__rc0>
    21c8: 7a           	ply
    21c9: 85 15        	sta	$15                     ; 0x15 <__rc5>
    21cb: b1 14        	lda	($14),y                 ; 0x14 <__rc4>
    21cd: 85 17        	sta	$17                     ; 0x17 <__rc7>
    21cf: 84 29        	sty	$29                     ; 0x29 <__rc25>
    21d1: a4 16        	ldy	$16                     ; 0x16 <__rc6>
    21d3: 84 12        	sty	$12                     ; 0x12 <__rc2>
    21d5: 86 13        	stx	$13                     ; 0x13 <__rc3>
    21d7: a6 1b        	ldx	$1b                     ; 0x1b <__rc11>
    21d9: 86 14        	stx	$14                     ; 0x14 <__rc4>
    21db: a6 1a        	ldx	$1a                     ; 0x1a <__rc10>
    21dd: 86 15        	stx	$15                     ; 0x15 <__rc5>
    21df: a5 18        	lda	$18                     ; 0x18 <__rc8>
    21e1: 85 16        	sta	$16                     ; 0x16 <__rc6>
    21e3: a6 19        	ldx	$19                     ; 0x19 <__rc9>
    21e5: 85 2f        	sta	$2f                     ; 0x2f <__rc31>
    21e7: 20 8f 3f     	jsr	$3f8f <dispatchNote>
    21ea: a0 08        	ldy	#$8
    21ec: b1 24        	lda	($24),y                 ; 0x24 <__rc20>
    21ee: 84 19        	sty	$19                     ; 0x19 <__rc9>
    21f0: 85 12        	sta	$12                     ; 0x12 <__rc2>
    21f2: 0a           	asl
    21f3: aa           	tax
    21f4: a9 00        	lda	#$0
    21f6: 2a           	rol
    21f7: 86 13        	stx	$13                     ; 0x13 <__rc3>
    21f9: 06 13        	asl	$13                     ; 0x13 <__rc3>
    21fb: 2a           	rol
    21fc: 06 13        	asl	$13                     ; 0x13 <__rc3>
    21fe: 2a           	rol
    21ff: 06 13        	asl	$13                     ; 0x13 <__rc3>
    2201: 2a           	rol
    2202: aa           	tax
    2203: 38           	sec
    2204: a5 13        	lda	$13                     ; 0x13 <__rc3>
    2206: e5 12        	sbc	$12                     ; 0x12 <__rc2>
    2208: 85 13        	sta	$13                     ; 0x13 <__rc3>
    220a: 8a           	txa
    220b: e9 00        	sbc	#$0
    220d: 85 12        	sta	$12                     ; 0x12 <__rc2>
    220f: a2 00        	ldx	#$0
    2211: 86 1b        	stx	$1b                     ; 0x1b <__rc11>
    2213: 18           	clc
    2214: a5 13        	lda	$13                     ; 0x13 <__rc3>
    2216: 65 2c        	adc	$2c                     ; 0x2c <__rc28>
    2218: aa           	tax
    2219: a5 2d        	lda	$2d                     ; 0x2d <__rc29>
    221b: 65 12        	adc	$12                     ; 0x12 <__rc2>
    221d: 86 12        	stx	$12                     ; 0x12 <__rc2>
    221f: 85 13        	sta	$13                     ; 0x13 <__rc3>
    2221: a4 29        	ldy	$29                     ; 0x29 <__rc25>
    2223: b1 12        	lda	($12),y                 ; 0x12 <__rc2>
    2225: 1a           	inc
    2226: 91 12        	sta	($12),y                 ; 0x12 <__rc2>
    2228: 84 1a        	sty	$1a                     ; 0x1a <__rc10>
    222a: a2 80        	ldx	#$80
    222c: 86 f3        	stx	$f3                     ; 0xf3 <__zp_bss_size+0x9e>
    222e: 18           	clc
    222f: a5 10        	lda	$10                     ; 0x10 <__rc0>
    2231: 69 22        	adc	#$22
    2233: 85 14        	sta	$14                     ; 0x14 <__rc4>
    2235: a5 11        	lda	$11                     ; 0x11 <__rc1>
    2237: 69 00        	adc	#$0
    2239: 85 15        	sta	$15                     ; 0x15 <__rc5>
    223b: a2 94        	ldx	#$94
    223d: 86 12        	stx	$12                     ; 0x12 <__rc2>
    223f: a2 98        	ldx	#$98
    2241: 86 13        	stx	$13                     ; 0x13 <__rc3>
    2243: 20 f0 ff     	jsr	$fff0 <end_block9+0x6752>
    2246: 92 14        	sta	($14)                   ; 0x14 <__rc4>
    2248: a9 00        	lda	#$0
    224a: 6a           	ror
    224b: 85 12        	sta	$12                     ; 0x12 <__rc2>
    224d: b2 14        	lda	($14)                   ; 0x14 <__rc4>
    224f: 85 18        	sta	$18                     ; 0x18 <__rc8>
    2251: a0 0f        	ldy	#$f
    2253: b1 10        	lda	($10),y                 ; 0x10 <__rc0>
    2255: 85 14        	sta	$14                     ; 0x14 <__rc4>
    2257: c8           	iny
    2258: b1 10        	lda	($10),y                 ; 0x10 <__rc0>
    225a: 85 15        	sta	$15                     ; 0x15 <__rc5>
    225c: b2 14        	lda	($14)                   ; 0x14 <__rc4>
    225e: aa           	tax
    225f: 18           	clc
    2260: a5 18        	lda	$18                     ; 0x18 <__rc8>
    2262: 7d 80 98     	adc	$9880,x                 ; 0x9880 <mainTempoLUT>
    2265: 85 1c        	sta	$1c                     ; 0x1c <__rc12>
    2267: a6 7f        	ldx	$7f                     ; 0x7f <gPtr>
    2269: a5 80        	lda	$80                     ; 0x80 <gPtr+0x1>
    226b: 86 14        	stx	$14                     ; 0x14 <__rc4>
    226d: 85 15        	sta	$15                     ; 0x15 <__rc5>
    226f: a4 19        	ldy	$19                     ; 0x19 <__rc9>
    2271: b1 14        	lda	($14),y                 ; 0x14 <__rc4>
    2273: 85 14        	sta	$14                     ; 0x14 <__rc4>
    2275: 0a           	asl
    2276: aa           	tax
    2277: a9 00        	lda	#$0
    2279: 2a           	rol
    227a: 86 15        	stx	$15                     ; 0x15 <__rc5>
    227c: 06 15        	asl	$15                     ; 0x15 <__rc5>
    227e: 2a           	rol
    227f: 06 15        	asl	$15                     ; 0x15 <__rc5>
    2281: 2a           	rol
    2282: 06 15        	asl	$15                     ; 0x15 <__rc5>
    2284: 2a           	rol
    2285: aa           	tax
    2286: 38           	sec
    2287: a5 15        	lda	$15                     ; 0x15 <__rc5>
    2289: e5 14        	sbc	$14                     ; 0x14 <__rc4>
    228b: 85 14        	sta	$14                     ; 0x14 <__rc4>
    228d: 8a           	txa
    228e: e9 00        	sbc	#$0
    2290: a8           	tay
    2291: 18           	clc
    2292: a5 14        	lda	$14                     ; 0x14 <__rc4>
    2294: 65 3b        	adc	$3b                     ; 0x3b <theBeats>
    2296: aa           	tax
    2297: 98           	tya
    2298: 65 3c        	adc	$3c                     ; 0x3c <theBeats+0x1>
    229a: 86 14        	stx	$14                     ; 0x14 <__rc4>
    229c: 85 15        	sta	$15                     ; 0x15 <__rc5>
    229e: a8           	tay
    229f: 18           	clc
    22a0: 8a           	txa
    22a1: 69 0d        	adc	#$d
    22a3: 85 16        	sta	$16                     ; 0x16 <__rc6>
    22a5: 98           	tya
    22a6: 69 00        	adc	#$0
    22a8: 85 17        	sta	$17                     ; 0x17 <__rc7>
    22aa: a0 07        	ldy	#$7
    22ac: b1 10        	lda	($10),y                 ; 0x10 <__rc0>
    22ae: a6 1b        	ldx	$1b                     ; 0x1b <__rc11>
    22b0: e0 01        	cpx	#$1
    22b2: 65 2b        	adc	$2b                     ; 0x2b <__rc27>
    22b4: aa           	tax
    22b5: 88           	dey
    22b6: b1 10        	lda	($10),y                 ; 0x10 <__rc0>
    22b8: 65 2e        	adc	$2e                     ; 0x2e <__rc30>
    22ba: 85 18        	sta	$18                     ; 0x18 <__rc8>
    22bc: 18           	clc
    22bd: a0 0d        	ldy	#$d
    22bf: 8a           	txa
    22c0: 71 14        	adc	($14),y                 ; 0x14 <__rc4>
    22c2: 85 14        	sta	$14                     ; 0x14 <__rc4>
    22c4: a4 2f        	ldy	$2f                     ; 0x2f <__rc31>
    22c6: a5 18        	lda	$18                     ; 0x18 <__rc8>
    22c8: 71 16        	adc	($16),y                 ; 0x16 <__rc6>
    22ca: 85 15        	sta	$15                     ; 0x15 <__rc5>
    22cc: a5 1c        	lda	$1c                     ; 0x1c <__rc12>
    22ce: 91 14        	sta	($14),y                 ; 0x14 <__rc4>
    22d0: b2 14        	lda	($14)                   ; 0x14 <__rc4>
    22d2: 85 f3        	sta	$f3                     ; 0xf3 <__zp_bss_size+0x9e>
    22d4: a2 01        	ldx	#$1
    22d6: 86 19        	stx	$19                     ; 0x19 <__rc9>
    22d8: b1 14        	lda	($14),y                 ; 0x14 <__rc4>
    22da: 85 f4        	sta	$f4                     ; 0xf4 <__zp_bss_size+0x9f>
    22dc: e8           	inx
    22dd: 86 29        	stx	$29                     ; 0x29 <__rc25>
    22df: a4 1a        	ldy	$1a                     ; 0x1a <__rc10>
    22e1: b1 14        	lda	($14),y                 ; 0x14 <__rc4>
    22e3: 85 f5        	sta	$f5                     ; 0xf5 <__zp_bss_size+0xa0>
    22e5: 18           	clc
    22e6: a5 10        	lda	$10                     ; 0x10 <__rc0>
    22e8: 69 23        	adc	#$23
    22ea: 85 14        	sta	$14                     ; 0x14 <__rc4>
    22ec: a5 11        	lda	$11                     ; 0x11 <__rc1>
    22ee: 69 00        	adc	#$0
    22f0: 85 15        	sta	$15                     ; 0x15 <__rc5>
    22f2: 20 f0 ff     	jsr	$fff0 <end_block9+0x6752>
    22f5: 92 14        	sta	($14)                   ; 0x14 <__rc4>
    22f7: a9 00        	lda	#$0
    22f9: 6a           	ror
    22fa: 85 12        	sta	$12                     ; 0x12 <__rc2>
    22fc: a0 04        	ldy	#$4
    22fe: 84 1b        	sty	$1b                     ; 0x1b <__rc11>
    2300: 4c 62 27     	jmp	$2762 <f256main+0x1e0a>
    2303: a6 7f        	ldx	$7f                     ; 0x7f <gPtr>
    2305: a4 80        	ldy	$80                     ; 0x80 <gPtr+0x1>
    2307: 86 2c        	stx	$2c                     ; 0x2c <__rc28>
    2309: 84 2d        	sty	$2d                     ; 0x2d <__rc29>
    230b: a0 06        	ldy	#$6
    230d: b1 2c        	lda	($2c),y                 ; 0x2c <__rc28>
    230f: a4 29        	ldy	$29                     ; 0x29 <__rc25>
    2311: aa           	tax
    2312: f0 03        	beq	$2317 <f256main+0x19bf>
    2314: 4c 9d 23     	jmp	$239d <f256main+0x1a45>
    2317: b1 2c        	lda	($2c),y                 ; 0x2c <__rc28>
    2319: 48           	pha
    231a: 5a           	phy
    231b: a0 09        	ldy	#$9
    231d: b1 10        	lda	($10),y                 ; 0x10 <__rc0>
    231f: 85 12        	sta	$12                     ; 0x12 <__rc2>
    2321: c8           	iny
    2322: b1 10        	lda	($10),y                 ; 0x10 <__rc0>
    2324: 7a           	ply
    2325: 85 13        	sta	$13                     ; 0x13 <__rc3>
    2327: 68           	pla
    2328: f0 0d        	beq	$2337 <f256main+0x19df>
    232a: 5a           	phy
    232b: a0 04        	ldy	#$4
    232d: b1 10        	lda	($10),y                 ; 0x10 <__rc0>
    232f: 85 12        	sta	$12                     ; 0x12 <__rc2>
    2331: c8           	iny
    2332: b1 10        	lda	($10),y                 ; 0x10 <__rc0>
    2334: 7a           	ply
    2335: 85 13        	sta	$13                     ; 0x13 <__rc3>
    2337: a9 b0        	lda	#$b0
    2339: 92 12        	sta	($12)                   ; 0x12 <__rc2>
    233b: a9 7b        	lda	#$7b
    233d: 92 12        	sta	($12)                   ; 0x12 <__rc2>
    233f: a9 00        	lda	#$0
    2341: 92 12        	sta	($12)                   ; 0x12 <__rc2>
    2343: b1 2c        	lda	($2c),y                 ; 0x2c <__rc28>
    2345: 48           	pha
    2346: 5a           	phy
    2347: a0 09        	ldy	#$9
    2349: b1 10        	lda	($10),y                 ; 0x10 <__rc0>
    234b: 85 12        	sta	$12                     ; 0x12 <__rc2>
    234d: c8           	iny
    234e: b1 10        	lda	($10),y                 ; 0x10 <__rc0>
    2350: 7a           	ply
    2351: 85 13        	sta	$13                     ; 0x13 <__rc3>
    2353: 68           	pla
    2354: f0 0d        	beq	$2363 <f256main+0x1a0b>
    2356: 5a           	phy
    2357: a0 04        	ldy	#$4
    2359: b1 10        	lda	($10),y                 ; 0x10 <__rc0>
    235b: 85 12        	sta	$12                     ; 0x12 <__rc2>
    235d: c8           	iny
    235e: b1 10        	lda	($10),y                 ; 0x10 <__rc0>
    2360: 7a           	ply
    2361: 85 13        	sta	$13                     ; 0x13 <__rc3>
    2363: a9 b1        	lda	#$b1
    2365: 92 12        	sta	($12)                   ; 0x12 <__rc2>
    2367: a9 7b        	lda	#$7b
    2369: 92 12        	sta	($12)                   ; 0x12 <__rc2>
    236b: a9 00        	lda	#$0
    236d: 92 12        	sta	($12)                   ; 0x12 <__rc2>
    236f: b1 2c        	lda	($2c),y                 ; 0x2c <__rc28>
    2371: 48           	pha
    2372: a0 09        	ldy	#$9
    2374: b1 10        	lda	($10),y                 ; 0x10 <__rc0>
    2376: 85 12        	sta	$12                     ; 0x12 <__rc2>
    2378: c8           	iny
    2379: b1 10        	lda	($10),y                 ; 0x10 <__rc0>
    237b: 85 13        	sta	$13                     ; 0x13 <__rc3>
    237d: 68           	pla
    237e: f0 0b        	beq	$238b <f256main+0x1a33>
    2380: a0 04        	ldy	#$4
    2382: b1 10        	lda	($10),y                 ; 0x10 <__rc0>
    2384: 85 12        	sta	$12                     ; 0x12 <__rc2>
    2386: c8           	iny
    2387: b1 10        	lda	($10),y                 ; 0x10 <__rc0>
    2389: 85 13        	sta	$13                     ; 0x13 <__rc3>
    238b: a9 b9        	lda	#$b9
    238d: 92 12        	sta	($12)                   ; 0x12 <__rc2>
    238f: a9 7b        	lda	#$7b
    2391: 92 12        	sta	($12)                   ; 0x12 <__rc2>
    2393: a9 00        	lda	#$0
    2395: 92 12        	sta	($12)                   ; 0x12 <__rc2>
    2397: a0 06        	ldy	#$6
    2399: b1 2c        	lda	($2c),y                 ; 0x2c <__rc28>
    239b: a0 02        	ldy	#$2
    239d: c9 01        	cmp	#$1
    239f: d0 38        	bne	$23d9 <f256main+0x1a81>
    23a1: ad 04 d4     	lda	$d404                   ; 0xd404 <end_block9+0x3b66>
    23a4: 29 fe        	and	#$fe
    23a6: 8d 04 d4     	sta	$d404                   ; 0xd404 <end_block9+0x3b66>
    23a9: ad 0b d4     	lda	$d40b                   ; 0xd40b <end_block9+0x3b6d>
    23ac: 29 fe        	and	#$fe
    23ae: 8d 0b d4     	sta	$d40b                   ; 0xd40b <end_block9+0x3b6d>
    23b1: ad 12 d4     	lda	$d412                   ; 0xd412 <end_block9+0x3b74>
    23b4: 29 fe        	and	#$fe
    23b6: 8d 12 d4     	sta	$d412                   ; 0xd412 <end_block9+0x3b74>
    23b9: ad 04 d5     	lda	$d504                   ; 0xd504 <end_block9+0x3c66>
    23bc: 29 fe        	and	#$fe
    23be: 8d 04 d5     	sta	$d504                   ; 0xd504 <end_block9+0x3c66>
    23c1: ad 0b d5     	lda	$d50b                   ; 0xd50b <end_block9+0x3c6d>
    23c4: 29 fe        	and	#$fe
    23c6: 8d 0b d5     	sta	$d50b                   ; 0xd50b <end_block9+0x3c6d>
    23c9: ad 12 d5     	lda	$d512                   ; 0xd512 <end_block9+0x3c74>
    23cc: 29 fe        	and	#$fe
    23ce: 8d 12 d5     	sta	$d512                   ; 0xd512 <end_block9+0x3c74>
    23d1: 84 12        	sty	$12                     ; 0x12 <__rc2>
    23d3: a0 06        	ldy	#$6
    23d5: b1 2c        	lda	($2c),y                 ; 0x2c <__rc28>
    23d7: a4 12        	ldy	$12                     ; 0x12 <__rc2>
    23d9: c9 03        	cmp	#$3
    23db: d0 1a        	bne	$23f7 <f256main+0x1a9f>
    23dd: a2 b0        	ldx	#$b0
    23df: 8e 80 d5     	stx	$d580                   ; 0xd580 <end_block9+0x3ce2>
    23e2: 9c 81 d5     	stz	$d581                   ; 0xd581 <end_block9+0x3ce3>
    23e5: e8           	inx
    23e6: e0 b9        	cpx	#$b9
    23e8: d0 f5        	bne	$23df <f256main+0x1a87>
    23ea: a2 b0        	ldx	#$b0
    23ec: 8e 82 d5     	stx	$d582                   ; 0xd582 <end_block9+0x3ce4>
    23ef: 9c 81 d5     	stz	$d581                   ; 0xd581 <end_block9+0x3ce3>
    23f2: e8           	inx
    23f3: e0 b9        	cpx	#$b9
    23f5: d0 f5        	bne	$23ec <f256main+0x1a94>
    23f7: a2 02        	ldx	#$2
    23f9: 86 29        	stx	$29                     ; 0x29 <__rc25>
    23fb: 84 01        	sty	$1                      ; 0x1 <__data_size+0x1>
    23fd: a2 c0        	ldx	#$c0
    23ff: a0 00        	ldy	#$0
    2401: a9 20        	lda	#$20
    2403: 84 12        	sty	$12                     ; 0x12 <__rc2>
    2405: 86 13        	stx	$13                     ; 0x13 <__rc3>
    2407: 92 12        	sta	($12)                   ; 0x12 <__rc2>
    2409: c8           	iny
    240a: d0 01        	bne	$240d <f256main+0x1ab5>
    240c: e8           	inx
    240d: e0 d2        	cpx	#$d2
    240f: d0 f2        	bne	$2403 <f256main+0x1aab>
    2411: c0 c0        	cpy	#$c0
    2413: d0 ee        	bne	$2403 <f256main+0x1aab>
    2415: 64 01        	stz	$1                      ; 0x1 <__data_size+0x1>
    2417: a2 90        	ldx	#$90
    2419: 86 30        	stx	$30                     ; 0x30 <_ccolor>
    241b: a0 06        	ldy	#$6
    241d: b1 2c        	lda	($2c),y                 ; 0x2c <__rc28>
    241f: a2 02        	ldx	#$2
    2421: c9 00        	cmp	#$0
    2423: f0 03        	beq	$2428 <f256main+0x1ad0>
    2425: 4c d4 25     	jmp	$25d4 <f256main+0x1c7c>
    2428: a5 2a        	lda	$2a                     ; 0x2a <__rc26>
    242a: 91 10        	sta	($10),y                 ; 0x10 <__rc0>
    242c: 64 2a        	stz	$2a                     ; 0x2a <__rc26>
    242e: 64 33        	stz	$33                     ; 0x33 <_col>
    2430: 9c 14 d0     	stz	$d014                   ; 0xd014 <end_block9+0x3776>
    2433: 9c 15 d0     	stz	$d015                   ; 0xd015 <end_block9+0x3777>
    2436: 64 34        	stz	$34                     ; 0x34 <_row>
    2438: 9c 16 d0     	stz	$d016                   ; 0xd016 <end_block9+0x3778>
    243b: 9c 17 d0     	stz	$d017                   ; 0xd017 <end_block9+0x3779>
    243e: a2 22        	ldx	#$22
    2440: 86 12        	stx	$12                     ; 0x12 <__rc2>
    2442: a2 89        	ldx	#$89
    2444: 86 13        	stx	$13                     ; 0x13 <__rc3>
    2446: 20 90 33     	jsr	$3390 <textPrint>
    2449: a0 03        	ldy	#$3
    244b: 5a           	phy
    244c: a5 2c        	lda	$2c                     ; 0x2c <__rc28>
    244e: a0 07        	ldy	#$7
    2450: 91 10        	sta	($10),y                 ; 0x10 <__rc0>
    2452: a5 2d        	lda	$2d                     ; 0x2d <__rc29>
    2454: c8           	iny
    2455: 91 10        	sta	($10),y                 ; 0x10 <__rc0>
    2457: 7a           	ply
    2458: b1 2c        	lda	($2c),y                 ; 0x2c <__rc28>
    245a: 92 10        	sta	($10)                   ; 0x10 <__rc0>
    245c: a9 00        	lda	#$0
    245e: a0 01        	ldy	#$1
    2460: 91 10        	sta	($10),y                 ; 0x10 <__rc0>
    2462: a2 0e        	ldx	#$e
    2464: 86 12        	stx	$12                     ; 0x12 <__rc2>
    2466: a2 8e        	ldx	#$8e
    2468: 86 13        	stx	$13                     ; 0x13 <__rc3>
    246a: 20 c3 5f     	jsr	$5fc3 <printf>
    246d: a2 ce        	ldx	#$ce
    246f: 86 12        	stx	$12                     ; 0x12 <__rc2>
    2471: a2 86        	ldx	#$86
    2473: 86 13        	stx	$13                     ; 0x13 <__rc3>
    2475: 20 90 33     	jsr	$3390 <textPrint>
    2478: a2 50        	ldx	#$50
    247a: 86 30        	stx	$30                     ; 0x30 <_ccolor>
    247c: a2 82        	ldx	#$82
    247e: 86 25        	stx	$25                     ; 0x25 <__rc21>
    2480: a2 01        	ldx	#$1
    2482: 86 2c        	stx	$2c                     ; 0x2c <__rc28>
    2484: e8           	inx
    2485: 86 2d        	stx	$2d                     ; 0x2d <__rc29>
    2487: 4c f2 24     	jmp	$24f2 <f256main+0x1b9a>
    248a: a5 25        	lda	$25                     ; 0x25 <__rc21>
    248c: 49 80        	eor	#$80
    248e: a2 34        	ldx	#$34
    2490: 86 33        	stx	$33                     ; 0x33 <_col>
    2492: 8e 14 d0     	stx	$d014                   ; 0xd014 <end_block9+0x3776>
    2495: 9c 15 d0     	stz	$d015                   ; 0xd015 <end_block9+0x3777>
    2498: a6 2c        	ldx	$2c                     ; 0x2c <__rc28>
    249a: 86 34        	stx	$34                     ; 0x34 <_row>
    249c: 8e 16 d0     	stx	$d016                   ; 0xd016 <end_block9+0x3778>
    249f: 9c 17 d0     	stz	$d017                   ; 0xd017 <end_block9+0x3779>
    24a2: a6 2a        	ldx	$2a                     ; 0x2a <__rc26>
    24a4: bc 40 97     	ldy	$9740,x                 ; 0x9740 <midi_instruments+0x4>
    24a7: 84 14        	sty	$14                     ; 0x14 <__rc4>
    24a9: 48           	pha
    24aa: bd 41 97     	lda	$9741,x                 ; 0x9741 <midi_instruments+0x5>
    24ad: aa           	tax
    24ae: 68           	pla
    24af: 86 15        	stx	$15                     ; 0x15 <__rc5>
    24b1: 92 10        	sta	($10)                   ; 0x10 <__rc0>
    24b3: a9 00        	lda	#$0
    24b5: a2 01        	ldx	#$1
    24b7: a0 01        	ldy	#$1
    24b9: 91 10        	sta	($10),y                 ; 0x10 <__rc0>
    24bb: 86 16        	stx	$16                     ; 0x16 <__rc6>
    24bd: 18           	clc
    24be: a5 10        	lda	$10                     ; 0x10 <__rc0>
    24c0: 69 02        	adc	#$2
    24c2: aa           	tax
    24c3: a5 11        	lda	$11                     ; 0x11 <__rc1>
    24c5: 69 00        	adc	#$0
    24c7: 86 12        	stx	$12                     ; 0x12 <__rc2>
    24c9: 85 13        	sta	$13                     ; 0x13 <__rc3>
    24cb: a4 2d        	ldy	$2d                     ; 0x2d <__rc29>
    24cd: a5 14        	lda	$14                     ; 0x14 <__rc4>
    24cf: 91 10        	sta	($10),y                 ; 0x10 <__rc0>
    24d1: a5 15        	lda	$15                     ; 0x15 <__rc5>
    24d3: a4 16        	ldy	$16                     ; 0x16 <__rc6>
    24d5: 91 12        	sta	($12),y                 ; 0x12 <__rc2>
    24d7: a2 ea        	ldx	#$ea
    24d9: 86 12        	stx	$12                     ; 0x12 <__rc2>
    24db: a2 85        	ldx	#$85
    24dd: 86 13        	stx	$13                     ; 0x13 <__rc3>
    24df: 20 c3 5f     	jsr	$5fc3 <printf>
    24e2: e6 2c        	inc	$2c                     ; 0x2c <__rc28>
    24e4: 18           	clc
    24e5: a5 2a        	lda	$2a                     ; 0x2a <__rc26>
    24e7: 69 06        	adc	#$6
    24e9: 85 2a        	sta	$2a                     ; 0x2a <__rc26>
    24eb: 18           	clc
    24ec: a5 25        	lda	$25                     ; 0x25 <__rc21>
    24ee: 69 03        	adc	#$3
    24f0: 85 25        	sta	$25                     ; 0x25 <__rc21>
    24f2: 18           	clc
    24f3: a5 25        	lda	$25                     ; 0x25 <__rc21>
    24f5: 69 7e        	adc	#$7e
    24f7: a6 2d        	ldx	$2d                     ; 0x2d <__rc29>
    24f9: 86 33        	stx	$33                     ; 0x33 <_col>
    24fb: 8e 14 d0     	stx	$d014                   ; 0xd014 <end_block9+0x3776>
    24fe: 86 2b        	stx	$2b                     ; 0x2b <__rc27>
    2500: 9c 15 d0     	stz	$d015                   ; 0xd015 <end_block9+0x3777>
    2503: a6 2c        	ldx	$2c                     ; 0x2c <__rc28>
    2505: 86 34        	stx	$34                     ; 0x34 <_row>
    2507: 8e 16 d0     	stx	$d016                   ; 0xd016 <end_block9+0x3778>
    250a: 86 26        	stx	$26                     ; 0x26 <__rc22>
    250c: 9c 17 d0     	stz	$d017                   ; 0xd017 <end_block9+0x3779>
    250f: a6 2a        	ldx	$2a                     ; 0x2a <__rc26>
    2511: bc 3c 97     	ldy	$973c,x                 ; 0x973c <midi_instruments>
    2514: 84 15        	sty	$15                     ; 0x15 <__rc5>
    2516: bc 3d 97     	ldy	$973d,x                 ; 0x973d <midi_instruments+0x1>
    2519: 84 16        	sty	$16                     ; 0x16 <__rc6>
    251b: 86 27        	stx	$27                     ; 0x27 <__rc23>
    251d: a6 10        	ldx	$10                     ; 0x10 <__rc0>
    251f: 92 10        	sta	($10)                   ; 0x10 <__rc0>
    2521: a0 01        	ldy	#$1
    2523: a9 00        	lda	#$0
    2525: 91 10        	sta	($10),y                 ; 0x10 <__rc0>
    2527: 84 29        	sty	$29                     ; 0x29 <__rc25>
    2529: 18           	clc
    252a: 8a           	txa
    252b: 69 02        	adc	#$2
    252d: aa           	tax
    252e: a5 11        	lda	$11                     ; 0x11 <__rc1>
    2530: 69 00        	adc	#$0
    2532: 86 12        	stx	$12                     ; 0x12 <__rc2>
    2534: 85 13        	sta	$13                     ; 0x13 <__rc3>
    2536: a4 2b        	ldy	$2b                     ; 0x2b <__rc27>
    2538: a5 15        	lda	$15                     ; 0x15 <__rc5>
    253a: 91 10        	sta	($10),y                 ; 0x10 <__rc0>
    253c: a4 29        	ldy	$29                     ; 0x29 <__rc25>
    253e: a5 16        	lda	$16                     ; 0x16 <__rc6>
    2540: 91 12        	sta	($12),y                 ; 0x12 <__rc2>
    2542: a2 ea        	ldx	#$ea
    2544: 86 2e        	stx	$2e                     ; 0x2e <__rc30>
    2546: a2 85        	ldx	#$85
    2548: 86 2f        	stx	$2f                     ; 0x2f <__rc31>
    254a: a2 ea        	ldx	#$ea
    254c: 86 12        	stx	$12                     ; 0x12 <__rc2>
    254e: a2 85        	ldx	#$85
    2550: 86 13        	stx	$13                     ; 0x13 <__rc3>
    2552: 20 c3 5f     	jsr	$5fc3 <printf>
    2555: a2 1b        	ldx	#$1b
    2557: 86 33        	stx	$33                     ; 0x33 <_col>
    2559: 8e 14 d0     	stx	$d014                   ; 0xd014 <end_block9+0x3776>
    255c: 9c 15 d0     	stz	$d015                   ; 0xd015 <end_block9+0x3777>
    255f: a6 26        	ldx	$26                     ; 0x26 <__rc22>
    2561: 86 34        	stx	$34                     ; 0x34 <_row>
    2563: 8e 16 d0     	stx	$d016                   ; 0xd016 <end_block9+0x3778>
    2566: 9c 17 d0     	stz	$d017                   ; 0xd017 <end_block9+0x3779>
    2569: 18           	clc
    256a: a5 25        	lda	$25                     ; 0x25 <__rc21>
    256c: 69 7f        	adc	#$7f
    256e: a6 27        	ldx	$27                     ; 0x27 <__rc23>
    2570: bc 3e 97     	ldy	$973e,x                 ; 0x973e <midi_instruments+0x2>
    2573: 84 14        	sty	$14                     ; 0x14 <__rc4>
    2575: 48           	pha
    2576: bd 3f 97     	lda	$973f,x                 ; 0x973f <midi_instruments+0x3>
    2579: aa           	tax
    257a: 68           	pla
    257b: 86 15        	stx	$15                     ; 0x15 <__rc5>
    257d: a6 10        	ldx	$10                     ; 0x10 <__rc0>
    257f: 92 10        	sta	($10)                   ; 0x10 <__rc0>
    2581: a4 29        	ldy	$29                     ; 0x29 <__rc25>
    2583: a9 00        	lda	#$0
    2585: 91 10        	sta	($10),y                 ; 0x10 <__rc0>
    2587: 84 16        	sty	$16                     ; 0x16 <__rc6>
    2589: 18           	clc
    258a: 8a           	txa
    258b: 69 02        	adc	#$2
    258d: 85 12        	sta	$12                     ; 0x12 <__rc2>
    258f: a5 11        	lda	$11                     ; 0x11 <__rc1>
    2591: 69 00        	adc	#$0
    2593: 85 13        	sta	$13                     ; 0x13 <__rc3>
    2595: a4 2b        	ldy	$2b                     ; 0x2b <__rc27>
    2597: a5 14        	lda	$14                     ; 0x14 <__rc4>
    2599: 91 10        	sta	($10),y                 ; 0x10 <__rc0>
    259b: a5 15        	lda	$15                     ; 0x15 <__rc5>
    259d: a4 16        	ldy	$16                     ; 0x16 <__rc6>
    259f: 91 12        	sta	($12),y                 ; 0x12 <__rc2>
    25a1: a2 ea        	ldx	#$ea
    25a3: 86 12        	stx	$12                     ; 0x12 <__rc2>
    25a5: a2 85        	ldx	#$85
    25a7: 86 13        	stx	$13                     ; 0x13 <__rc3>
    25a9: 20 c3 5f     	jsr	$5fc3 <printf>
    25ac: a5 25        	lda	$25                     ; 0x25 <__rc21>
    25ae: f0 03        	beq	$25b3 <f256main+0x1c5b>
    25b0: 4c 8a 24     	jmp	$248a <f256main+0x1b32>
    25b3: a2 02        	ldx	#$2
    25b5: 86 29        	stx	$29                     ; 0x29 <__rc25>
    25b7: ca           	dex
    25b8: 86 2e        	stx	$2e                     ; 0x2e <__rc30>
    25ba: a0 06        	ldy	#$6
    25bc: 5a           	phy
    25bd: c8           	iny
    25be: b1 10        	lda	($10),y                 ; 0x10 <__rc0>
    25c0: 85 2c        	sta	$2c                     ; 0x2c <__rc28>
    25c2: c8           	iny
    25c3: b1 10        	lda	($10),y                 ; 0x10 <__rc0>
    25c5: 7a           	ply
    25c6: 85 2d        	sta	$2d                     ; 0x2d <__rc29>
    25c8: b1 2c        	lda	($2c),y                 ; 0x2c <__rc28>
    25ca: a2 2c        	ldx	#$2c
    25cc: 48           	pha
    25cd: a0 06        	ldy	#$6
    25cf: b1 10        	lda	($10),y                 ; 0x10 <__rc0>
    25d1: 85 2a        	sta	$2a                     ; 0x2a <__rc26>
    25d3: 68           	pla
    25d4: 48           	pha
    25d5: 8a           	txa
    25d6: 91 10        	sta	($10),y                 ; 0x10 <__rc0>
    25d8: 68           	pla
    25d9: c9 01        	cmp	#$1
    25db: f0 03        	beq	$25e0 <f256main+0x1c88>
    25dd: 4c 8c 26     	jmp	$268c <f256main+0x1d34>
    25e0: 64 24        	stz	$24                     ; 0x24 <__rc20>
    25e2: 64 33        	stz	$33                     ; 0x33 <_col>
    25e4: 9c 14 d0     	stz	$d014                   ; 0xd014 <end_block9+0x3776>
    25e7: 9c 15 d0     	stz	$d015                   ; 0xd015 <end_block9+0x3777>
    25ea: 64 34        	stz	$34                     ; 0x34 <_row>
    25ec: 9c 16 d0     	stz	$d016                   ; 0xd016 <end_block9+0x3778>
    25ef: 9c 17 d0     	stz	$d017                   ; 0xd017 <end_block9+0x3779>
    25f2: a2 ad        	ldx	#$ad
    25f4: 86 12        	stx	$12                     ; 0x12 <__rc2>
    25f6: a2 90        	ldx	#$90
    25f8: 86 13        	stx	$13                     ; 0x13 <__rc3>
    25fa: 20 90 33     	jsr	$3390 <textPrint>
    25fd: a2 50        	ldx	#$50
    25ff: 86 30        	stx	$30                     ; 0x30 <_ccolor>
    2601: a2 00        	ldx	#$0
    2603: 18           	clc
    2604: a0 01        	ldy	#$1
    2606: b0 02        	bcs	$260a <f256main+0x1cb2>
    2608: a0 00        	ldy	#$0
    260a: 84 2f        	sty	$2f                     ; 0x2f <__rc31>
    260c: a0 06        	ldy	#$6
    260e: b1 10        	lda	($10),y                 ; 0x10 <__rc0>
    2610: 85 25        	sta	$25                     ; 0x25 <__rc21>
    2612: 86 12        	stx	$12                     ; 0x12 <__rc2>
    2614: 86 26        	stx	$26                     ; 0x26 <__rc22>
    2616: a5 25        	lda	$25                     ; 0x25 <__rc21>
    2618: a6 2f        	ldx	$2f                     ; 0x2f <__rc31>
    261a: e0 01        	cpx	#$1
    261c: 65 12        	adc	$12                     ; 0x12 <__rc2>
    261e: a6 29        	ldx	$29                     ; 0x29 <__rc25>
    2620: 86 33        	stx	$33                     ; 0x33 <_col>
    2622: 8e 14 d0     	stx	$d014                   ; 0xd014 <end_block9+0x3776>
    2625: 86 14        	stx	$14                     ; 0x14 <__rc4>
    2627: 9c 15 d0     	stz	$d015                   ; 0xd015 <end_block9+0x3777>
    262a: 85 34        	sta	$34                     ; 0x34 <_row>
    262c: 8d 16 d0     	sta	$d016                   ; 0xd016 <end_block9+0x3778>
    262f: 9c 17 d0     	stz	$d017                   ; 0xd017 <end_block9+0x3779>
    2632: a6 24        	ldx	$24                     ; 0x24 <__rc20>
    2634: bc 46 98     	ldy	$9846,x                 ; 0x9846 <sid_instruments_names>
    2637: 84 15        	sty	$15                     ; 0x15 <__rc5>
    2639: bd 47 98     	lda	$9847,x                 ; 0x9847 <sid_instruments_names+0x1>
    263c: aa           	tax
    263d: 86 16        	stx	$16                     ; 0x16 <__rc6>
    263f: a5 10        	lda	$10                     ; 0x10 <__rc0>
    2641: a6 11        	ldx	$11                     ; 0x11 <__rc1>
    2643: 18           	clc
    2644: 69 02        	adc	#$2
    2646: 85 12        	sta	$12                     ; 0x12 <__rc2>
    2648: 8a           	txa
    2649: 69 00        	adc	#$0
    264b: 85 13        	sta	$13                     ; 0x13 <__rc3>
    264d: a5 26        	lda	$26                     ; 0x26 <__rc22>
    264f: 92 10        	sta	($10)                   ; 0x10 <__rc0>
    2651: a9 00        	lda	#$0
    2653: a4 2e        	ldy	$2e                     ; 0x2e <__rc30>
    2655: 91 10        	sta	($10),y                 ; 0x10 <__rc0>
    2657: 84 17        	sty	$17                     ; 0x17 <__rc7>
    2659: a4 14        	ldy	$14                     ; 0x14 <__rc4>
    265b: a5 15        	lda	$15                     ; 0x15 <__rc5>
    265d: 91 10        	sta	($10),y                 ; 0x10 <__rc0>
    265f: a5 16        	lda	$16                     ; 0x16 <__rc6>
    2661: a4 17        	ldy	$17                     ; 0x17 <__rc7>
    2663: 91 12        	sta	($12),y                 ; 0x12 <__rc2>
    2665: a2 ea        	ldx	#$ea
    2667: 86 12        	stx	$12                     ; 0x12 <__rc2>
    2669: a2 85        	ldx	#$85
    266b: 86 13        	stx	$13                     ; 0x13 <__rc3>
    266d: 20 c3 5f     	jsr	$5fc3 <printf>
    2670: a6 26        	ldx	$26                     ; 0x26 <__rc22>
    2672: e8           	inx
    2673: 18           	clc
    2674: a5 24        	lda	$24                     ; 0x24 <__rc20>
    2676: 69 02        	adc	#$2
    2678: 85 24        	sta	$24                     ; 0x24 <__rc20>
    267a: c9 0a        	cmp	#$a
    267c: f0 03        	beq	$2681 <f256main+0x1d29>
    267e: 4c 12 26     	jmp	$2612 <f256main+0x1cba>
    2681: a2 02        	ldx	#$2
    2683: 86 29        	stx	$29                     ; 0x29 <__rc25>
    2685: ca           	dex
    2686: 86 2e        	stx	$2e                     ; 0x2e <__rc30>
    2688: a0 06        	ldy	#$6
    268a: b1 2c        	lda	($2c),y                 ; 0x2c <__rc28>
    268c: 48           	pha
    268d: a5 2c        	lda	$2c                     ; 0x2c <__rc28>
    268f: a0 07        	ldy	#$7
    2691: 91 10        	sta	($10),y                 ; 0x10 <__rc0>
    2693: a5 2d        	lda	$2d                     ; 0x2d <__rc29>
    2695: c8           	iny
    2696: 91 10        	sta	($10),y                 ; 0x10 <__rc0>
    2698: 18           	clc
    2699: a2 01        	ldx	#$1
    269b: b0 02        	bcs	$269f <f256main+0x1d47>
    269d: a2 00        	ldx	#$0
    269f: 86 26        	stx	$26                     ; 0x26 <__rc22>
    26a1: a0 06        	ldy	#$6
    26a3: b1 10        	lda	($10),y                 ; 0x10 <__rc0>
    26a5: 85 25        	sta	$25                     ; 0x25 <__rc21>
    26a7: 68           	pla
    26a8: c9 03        	cmp	#$3
    26aa: f0 03        	beq	$26af <f256main+0x1d57>
    26ac: 4c 44 27     	jmp	$2744 <f256main+0x1dec>
    26af: 64 2f        	stz	$2f                     ; 0x2f <__rc31>
    26b1: 64 33        	stz	$33                     ; 0x33 <_col>
    26b3: 9c 14 d0     	stz	$d014                   ; 0xd014 <end_block9+0x3776>
    26b6: 9c 15 d0     	stz	$d015                   ; 0xd015 <end_block9+0x3777>
    26b9: 64 34        	stz	$34                     ; 0x34 <_row>
    26bb: 9c 16 d0     	stz	$d016                   ; 0xd016 <end_block9+0x3778>
    26be: 9c 17 d0     	stz	$d017                   ; 0xd017 <end_block9+0x3779>
    26c1: a2 f0        	ldx	#$f0
    26c3: 86 12        	stx	$12                     ; 0x12 <__rc2>
    26c5: a2 86        	ldx	#$86
    26c7: 86 13        	stx	$13                     ; 0x13 <__rc3>
    26c9: a6 2e        	ldx	$2e                     ; 0x2e <__rc30>
    26cb: 86 24        	stx	$24                     ; 0x24 <__rc20>
    26cd: 20 90 33     	jsr	$3390 <textPrint>
    26d0: a2 50        	ldx	#$50
    26d2: 86 30        	stx	$30                     ; 0x30 <_ccolor>
    26d4: 64 2c        	stz	$2c                     ; 0x2c <__rc28>
    26d6: a5 25        	lda	$25                     ; 0x25 <__rc21>
    26d8: a6 26        	ldx	$26                     ; 0x26 <__rc22>
    26da: e0 01        	cpx	#$1
    26dc: 65 2c        	adc	$2c                     ; 0x2c <__rc28>
    26de: a6 29        	ldx	$29                     ; 0x29 <__rc25>
    26e0: 86 33        	stx	$33                     ; 0x33 <_col>
    26e2: 8e 14 d0     	stx	$d014                   ; 0xd014 <end_block9+0x3776>
    26e5: 86 14        	stx	$14                     ; 0x14 <__rc4>
    26e7: 9c 15 d0     	stz	$d015                   ; 0xd015 <end_block9+0x3777>
    26ea: 85 34        	sta	$34                     ; 0x34 <_row>
    26ec: 8d 16 d0     	sta	$d016                   ; 0xd016 <end_block9+0x3778>
    26ef: 9c 17 d0     	stz	$d017                   ; 0xd017 <end_block9+0x3779>
    26f2: a6 2f        	ldx	$2f                     ; 0x2f <__rc31>
    26f4: bc 50 98     	ldy	$9850,x                 ; 0x9850 <opl3_instrument_names>
    26f7: 84 15        	sty	$15                     ; 0x15 <__rc5>
    26f9: bd 51 98     	lda	$9851,x                 ; 0x9851 <opl3_instrument_names+0x1>
    26fc: aa           	tax
    26fd: 86 16        	stx	$16                     ; 0x16 <__rc6>
    26ff: a5 10        	lda	$10                     ; 0x10 <__rc0>
    2701: a6 11        	ldx	$11                     ; 0x11 <__rc1>
    2703: 18           	clc
    2704: 69 02        	adc	#$2
    2706: 85 12        	sta	$12                     ; 0x12 <__rc2>
    2708: 8a           	txa
    2709: 69 00        	adc	#$0
    270b: 85 13        	sta	$13                     ; 0x13 <__rc3>
    270d: a5 2c        	lda	$2c                     ; 0x2c <__rc28>
    270f: 92 10        	sta	($10)                   ; 0x10 <__rc0>
    2711: a9 00        	lda	#$0
    2713: a4 2e        	ldy	$2e                     ; 0x2e <__rc30>
    2715: 91 10        	sta	($10),y                 ; 0x10 <__rc0>
    2717: 84 17        	sty	$17                     ; 0x17 <__rc7>
    2719: a4 14        	ldy	$14                     ; 0x14 <__rc4>
    271b: a5 15        	lda	$15                     ; 0x15 <__rc5>
    271d: 91 10        	sta	($10),y                 ; 0x10 <__rc0>
    271f: a5 16        	lda	$16                     ; 0x16 <__rc6>
    2721: a4 17        	ldy	$17                     ; 0x17 <__rc7>
    2723: 91 12        	sta	($12),y                 ; 0x12 <__rc2>
    2725: a2 ea        	ldx	#$ea
    2727: 86 12        	stx	$12                     ; 0x12 <__rc2>
    2729: a2 85        	ldx	#$85
    272b: 86 13        	stx	$13                     ; 0x13 <__rc3>
    272d: 20 c3 5f     	jsr	$5fc3 <printf>
    2730: a6 24        	ldx	$24                     ; 0x24 <__rc20>
    2732: 86 2e        	stx	$2e                     ; 0x2e <__rc30>
    2734: e6 2c        	inc	$2c                     ; 0x2c <__rc28>
    2736: 18           	clc
    2737: a5 2f        	lda	$2f                     ; 0x2f <__rc31>
    2739: 69 02        	adc	#$2
    273b: 85 2f        	sta	$2f                     ; 0x2f <__rc31>
    273d: c9 2c        	cmp	#$2c
    273f: f0 03        	beq	$2744 <f256main+0x1dec>
    2741: 4c d6 26     	jmp	$26d6 <f256main+0x1d7e>
    2744: a2 02        	ldx	#$2
    2746: 86 29        	stx	$29                     ; 0x29 <__rc25>
    2748: a0 07        	ldy	#$7
    274a: b1 10        	lda	($10),y                 ; 0x10 <__rc0>
    274c: 85 12        	sta	$12                     ; 0x12 <__rc2>
    274e: c8           	iny
    274f: b1 10        	lda	($10),y                 ; 0x10 <__rc0>
    2751: 85 13        	sta	$13                     ; 0x13 <__rc3>
    2753: a5 2e        	lda	$2e                     ; 0x2e <__rc30>
    2755: 85 24        	sta	$24                     ; 0x24 <__rc20>
    2757: 20 44 5b     	jsr	$5b44 <highLightInstChoice>
    275a: a6 24        	ldx	$24                     ; 0x24 <__rc20>
    275c: 86 19        	stx	$19                     ; 0x19 <__rc9>
    275e: a2 04        	ldx	#$4
    2760: 86 1b        	stx	$1b                     ; 0x1b <__rc11>
    2762: a0 11        	ldy	#$11
    2764: b1 10        	lda	($10),y                 ; 0x10 <__rc0>
    2766: 85 1e        	sta	$1e                     ; 0x1e <__rc14>
    2768: 4c a1 0f     	jmp	$fa1 <f256main+0x649>
    276b: 86 12        	stx	$12                     ; 0x12 <__rc2>
    276d: a5 38        	lda	$38                     ; 0x38 <needsToWaitExpiration>
    276f: 29 01        	and	#$1
    2771: a6 2e        	ldx	$2e                     ; 0x2e <__rc30>
    2773: 86 19        	stx	$19                     ; 0x19 <__rc9>
    2775: a2 04        	ldx	#$4
    2777: 86 1b        	stx	$1b                     ; 0x1b <__rc11>
    2779: aa           	tax
    277a: f0 03        	beq	$277f <f256main+0x1e27>
    277c: 4c a1 0f     	jmp	$fa1 <f256main+0x649>
    277f: 18           	clc
    2780: 98           	tya
    2781: 65 12        	adc	$12                     ; 0x12 <__rc2>
    2783: 85 12        	sta	$12                     ; 0x12 <__rc2>
    2785: a5 2d        	lda	$2d                     ; 0x2d <__rc29>
    2787: 65 16        	adc	$16                     ; 0x16 <__rc6>
    2789: 85 13        	sta	$13                     ; 0x13 <__rc3>
    278b: b2 12        	lda	($12)                   ; 0x12 <__rc2>
    278d: f0 03        	beq	$2792 <f256main+0x1e3a>
    278f: 4c c9 28     	jmp	$28c9 <f256main+0x1f71>
    2792: a6 37        	ldx	$37                     ; 0x37 <instSelectMode>
    2794: f0 03        	beq	$2799 <f256main+0x1e41>
    2796: 4c a1 0f     	jmp	$fa1 <f256main+0x649>
    2799: a5 3a        	lda	$3a                     ; 0x3a <shiftHit>
    279b: 29 01        	and	#$1
    279d: d0 03        	bne	$27a2 <f256main+0x1e4a>
    279f: 4c 1b 32     	jmp	$321b <f256main+0x28c3>
    27a2: a2 09        	ldx	#$9
    27a4: 64 13        	stz	$13                     ; 0x13 <__rc3>
    27a6: 86 12        	stx	$12                     ; 0x12 <__rc2>
    27a8: 4c 1f 32     	jmp	$321f <f256main+0x28c7>
    27ab: a2 02        	ldx	#$2
    27ad: 86 29        	stx	$29                     ; 0x29 <__rc25>
    27af: a2 3f        	ldx	#$3f
    27b1: 86 14        	stx	$14                     ; 0x14 <__rc4>
    27b3: a2 00        	ldx	#$0
    27b5: 86 15        	stx	$15                     ; 0x15 <__rc5>
    27b7: a9 00        	lda	#$0
    27b9: 92 14        	sta	($14)                   ; 0x14 <__rc4>
    27bb: 20 a3 56     	jsr	$56a3 <showMIDIChoiceText>
    27be: a6 2e        	ldx	$2e                     ; 0x2e <__rc30>
    27c0: 86 19        	stx	$19                     ; 0x19 <__rc9>
    27c2: a2 04        	ldx	#$4
    27c4: 86 1b        	stx	$1b                     ; 0x1b <__rc11>
    27c6: a6 24        	ldx	$24                     ; 0x24 <__rc20>
    27c8: 86 1e        	stx	$1e                     ; 0x1e <__rc14>
    27ca: 4c a1 0f     	jmp	$fa1 <f256main+0x649>
    27cd: 86 12        	stx	$12                     ; 0x12 <__rc2>
    27cf: a5 38        	lda	$38                     ; 0x38 <needsToWaitExpiration>
    27d1: 29 01        	and	#$1
    27d3: a6 2e        	ldx	$2e                     ; 0x2e <__rc30>
    27d5: 86 19        	stx	$19                     ; 0x19 <__rc9>
    27d7: a2 04        	ldx	#$4
    27d9: 86 1b        	stx	$1b                     ; 0x1b <__rc11>
    27db: aa           	tax
    27dc: f0 03        	beq	$27e1 <f256main+0x1e89>
    27de: 4c a1 0f     	jmp	$fa1 <f256main+0x649>
    27e1: 18           	clc
    27e2: 98           	tya
    27e3: 65 12        	adc	$12                     ; 0x12 <__rc2>
    27e5: 85 12        	sta	$12                     ; 0x12 <__rc2>
    27e7: a5 2d        	lda	$2d                     ; 0x2d <__rc29>
    27e9: 65 16        	adc	$16                     ; 0x16 <__rc6>
    27eb: 85 13        	sta	$13                     ; 0x13 <__rc3>
    27ed: b2 12        	lda	($12)                   ; 0x12 <__rc2>
    27ef: d0 03        	bne	$27f4 <f256main+0x1e9c>
    27f1: 4c c9 28     	jmp	$28c9 <f256main+0x1f71>
    27f4: a6 37        	ldx	$37                     ; 0x37 <instSelectMode>
    27f6: f0 03        	beq	$27fb <f256main+0x1ea3>
    27f8: 4c a1 0f     	jmp	$fa1 <f256main+0x649>
    27fb: a5 3a        	lda	$3a                     ; 0x3a <shiftHit>
    27fd: 29 01        	and	#$1
    27ff: d0 03        	bne	$2804 <f256main+0x1eac>
    2801: 4c 91 30     	jmp	$3091 <f256main+0x2739>
    2804: a2 09        	ldx	#$9
    2806: 4c 93 30     	jmp	$3093 <f256main+0x273b>
    2809: a6 1e        	ldx	$1e                     ; 0x1e <__rc14>
    280b: 86 24        	stx	$24                     ; 0x24 <__rc20>
    280d: a5 3a        	lda	$3a                     ; 0x3a <shiftHit>
    280f: 29 01        	and	#$1
    2811: 85 2b        	sta	$2b                     ; 0x2b <__rc27>
    2813: d0 03        	bne	$2818 <f256main+0x1ec0>
    2815: 4c d0 29     	jmp	$29d0 <f256main+0x2078>
    2818: a2 0b        	ldx	#$b
    281a: 86 13        	stx	$13                     ; 0x13 <__rc3>
    281c: 4c d2 29     	jmp	$29d2 <f256main+0x207a>
    281f: a5 3a        	lda	$3a                     ; 0x3a <shiftHit>
    2821: 29 01        	and	#$1
    2823: a2 4c        	ldx	#$4c
    2825: 64 12        	stz	$12                     ; 0x12 <__rc2>
    2827: 85 2b        	sta	$2b                     ; 0x2b <__rc27>
    2829: a8           	tay
    282a: d0 02        	bne	$282e <f256main+0x1ed6>
    282c: a2 57        	ldx	#$57
    282e: 86 13        	stx	$13                     ; 0x13 <__rc3>
    2830: a2 04        	ldx	#$4
    2832: 86 1b        	stx	$1b                     ; 0x1b <__rc11>
    2834: a6 31        	ldx	$31                     ; 0x31 <note>
    2836: 86 26        	stx	$26                     ; 0x26 <__rc22>
    2838: a6 32        	ldx	$32                     ; 0x32 <note+0x1>
    283a: e4 12        	cpx	$12                     ; 0x12 <__rc2>
    283c: f0 03        	beq	$2841 <f256main+0x1ee9>
    283e: 4c 34 2a     	jmp	$2a34 <f256main+0x20dc>
    2841: 86 29        	stx	$29                     ; 0x29 <__rc25>
    2843: a6 26        	ldx	$26                     ; 0x26 <__rc22>
    2845: e4 13        	cpx	$13                     ; 0x13 <__rc3>
    2847: b0 03        	bcs	$284c <f256main+0x1ef4>
    2849: 4c 3d 2a     	jmp	$2a3d <f256main+0x20e5>
    284c: 4c c4 2d     	jmp	$2dc4 <f256main+0x246c>
    284f: aa           	tax
    2850: f0 03        	beq	$2855 <f256main+0x1efd>
    2852: 4c a2 2f     	jmp	$2fa2 <f256main+0x264a>
    2855: a4 2e        	ldy	$2e                     ; 0x2e <__rc30>
    2857: a5 3a        	lda	$3a                     ; 0x3a <shiftHit>
    2859: 29 01        	and	#$1
    285b: d0 03        	bne	$2860 <f256main+0x1f08>
    285d: 4c 61 2e     	jmp	$2e61 <f256main+0x2509>
    2860: a2 09        	ldx	#$9
    2862: 64 17        	stz	$17                     ; 0x17 <__rc7>
    2864: 86 16        	stx	$16                     ; 0x16 <__rc6>
    2866: 4c 65 2e     	jmp	$2e65 <f256main+0x250d>
    2869: aa           	tax
    286a: f0 03        	beq	$286f <f256main+0x1f17>
    286c: 4c 70 30     	jmp	$3070 <f256main+0x2718>
    286f: a4 2e        	ldy	$2e                     ; 0x2e <__rc30>
    2871: a5 3a        	lda	$3a                     ; 0x3a <shiftHit>
    2873: 29 01        	and	#$1
    2875: d0 03        	bne	$287a <f256main+0x1f22>
    2877: 4c b9 2e     	jmp	$2eb9 <f256main+0x2561>
    287a: a2 09        	ldx	#$9
    287c: 86 17        	stx	$17                     ; 0x17 <__rc7>
    287e: 4c bb 2e     	jmp	$2ebb <f256main+0x2563>
    2881: 64 18        	stz	$18                     ; 0x18 <__rc8>
    2883: 4c 96 1e     	jmp	$1e96 <f256main+0x153e>
    2886: a5 3a        	lda	$3a                     ; 0x3a <shiftHit>
    2888: 29 01        	and	#$1
    288a: a2 62        	ldx	#$62
    288c: 86 14        	stx	$14                     ; 0x14 <__rc4>
    288e: 64 15        	stz	$15                     ; 0x15 <__rc5>
    2890: a2 04        	ldx	#$4
    2892: 86 1b        	stx	$1b                     ; 0x1b <__rc11>
    2894: aa           	tax
    2895: d0 04        	bne	$289b <f256main+0x1f43>
    2897: a2 7d        	ldx	#$7d
    2899: 86 14        	stx	$14                     ; 0x14 <__rc4>
    289b: a9 01        	lda	#$1
    289d: 25 3a        	and	$3a                     ; 0x3a <shiftHit>
    289f: 85 16        	sta	$16                     ; 0x16 <__rc6>
    28a1: a2 00        	ldx	#$0
    28a3: e4 15        	cpx	$15                     ; 0x15 <__rc5>
    28a5: f0 03        	beq	$28aa <f256main+0x1f52>
    28a7: 4c 28 2c     	jmp	$2c28 <f256main+0x22d0>
    28aa: a0 01        	ldy	#$1
    28ac: b1 12        	lda	($12),y                 ; 0x12 <__rc2>
    28ae: 85 17        	sta	$17                     ; 0x17 <__rc7>
    28b0: a6 16        	ldx	$16                     ; 0x16 <__rc6>
    28b2: b2 12        	lda	($12)                   ; 0x12 <__rc2>
    28b4: 85 16        	sta	$16                     ; 0x16 <__rc6>
    28b6: a0 03        	ldy	#$3
    28b8: b1 12        	lda	($12),y                 ; 0x12 <__rc2>
    28ba: a8           	tay
    28bb: b1 16        	lda	($16),y                 ; 0x16 <__rc6>
    28bd: c5 14        	cmp	$14                     ; 0x14 <__rc4>
    28bf: 86 16        	stx	$16                     ; 0x16 <__rc6>
    28c1: 90 03        	bcc	$28c6 <f256main+0x1f6e>
    28c3: 4c a1 0f     	jmp	$fa1 <f256main+0x649>
    28c6: 4c 2f 2c     	jmp	$2c2f <f256main+0x22d7>
    28c9: a9 01        	lda	#$1
    28cb: aa           	tax
    28cc: 86 19        	stx	$19                     ; 0x19 <__rc9>
    28ce: 85 38        	sta	$38                     ; 0x38 <needsToWaitExpiration>
    28d0: 4c a1 0f     	jmp	$fa1 <f256main+0x649>
    28d3: 86 26        	stx	$26                     ; 0x26 <__rc22>
    28d5: a0 0f        	ldy	#$f
    28d7: b1 10        	lda	($10),y                 ; 0x10 <__rc0>
    28d9: 85 24        	sta	$24                     ; 0x24 <__rc20>
    28db: c8           	iny
    28dc: b1 10        	lda	($10),y                 ; 0x10 <__rc0>
    28de: 85 25        	sta	$25                     ; 0x25 <__rc21>
    28e0: a9 00        	lda	#$0
    28e2: a0 07        	ldy	#$7
    28e4: 91 12        	sta	($12),y                 ; 0x12 <__rc2>
    28e6: a9 00        	lda	#$0
    28e8: a0 03        	ldy	#$3
    28ea: 91 12        	sta	($12),y                 ; 0x12 <__rc2>
    28ec: a2 90        	ldx	#$90
    28ee: 86 30        	stx	$30                     ; 0x30 <_ccolor>
    28f0: 64 33        	stz	$33                     ; 0x33 <_col>
    28f2: 9c 14 d0     	stz	$d014                   ; 0xd014 <end_block9+0x3776>
    28f5: 9c 15 d0     	stz	$d015                   ; 0xd015 <end_block9+0x3777>
    28f8: a2 1e        	ldx	#$1e
    28fa: 86 34        	stx	$34                     ; 0x34 <_row>
    28fc: 8e 16 d0     	stx	$d016                   ; 0xd016 <end_block9+0x3778>
    28ff: 9c 17 d0     	stz	$d017                   ; 0xd017 <end_block9+0x3779>
    2902: a2 fa        	ldx	#$fa
    2904: 86 35        	stx	$35                     ; 0x35 <__putchar.s>
    2906: a2 35        	ldx	#$35
    2908: 86 2c        	stx	$2c                     ; 0x2c <__rc28>
    290a: a2 00        	ldx	#$0
    290c: 86 2d        	stx	$2d                     ; 0x2d <__rc29>
    290e: a2 35        	ldx	#$35
    2910: 86 12        	stx	$12                     ; 0x12 <__rc2>
    2912: a2 00        	ldx	#$0
    2914: 86 13        	stx	$13                     ; 0x13 <__rc3>
    2916: 20 90 33     	jsr	$3390 <textPrint>
    2919: 64 33        	stz	$33                     ; 0x33 <_col>
    291b: 9c 14 d0     	stz	$d014                   ; 0xd014 <end_block9+0x3776>
    291e: 9c 15 d0     	stz	$d015                   ; 0xd015 <end_block9+0x3777>
    2921: a2 1f        	ldx	#$1f
    2923: 86 34        	stx	$34                     ; 0x34 <_row>
    2925: 8e 16 d0     	stx	$d016                   ; 0xd016 <end_block9+0x3778>
    2928: 9c 17 d0     	stz	$d017                   ; 0xd017 <end_block9+0x3779>
    292b: a2 ad        	ldx	#$ad
    292d: 86 12        	stx	$12                     ; 0x12 <__rc2>
    292f: a2 86        	ldx	#$86
    2931: 86 13        	stx	$13                     ; 0x13 <__rc3>
    2933: a5 26        	lda	$26                     ; 0x26 <__rc22>
    2935: f0 0c        	beq	$2943 <f256main+0x1feb>
    2937: a2 fa        	ldx	#$fa
    2939: 86 35        	stx	$35                     ; 0x35 <__putchar.s>
    293b: a2 35        	ldx	#$35
    293d: 86 12        	stx	$12                     ; 0x12 <__rc2>
    293f: a2 00        	ldx	#$0
    2941: 86 13        	stx	$13                     ; 0x13 <__rc3>
    2943: 20 90 33     	jsr	$3390 <textPrint>
    2946: 64 33        	stz	$33                     ; 0x33 <_col>
    2948: 9c 14 d0     	stz	$d014                   ; 0xd014 <end_block9+0x3776>
    294b: 9c 15 d0     	stz	$d015                   ; 0xd015 <end_block9+0x3777>
    294e: a2 20        	ldx	#$20
    2950: 86 34        	stx	$34                     ; 0x34 <_row>
    2952: 8e 16 d0     	stx	$d016                   ; 0xd016 <end_block9+0x3778>
    2955: 9c 17 d0     	stz	$d017                   ; 0xd017 <end_block9+0x3779>
    2958: a2 ad        	ldx	#$ad
    295a: 86 12        	stx	$12                     ; 0x12 <__rc2>
    295c: a2 86        	ldx	#$86
    295e: 86 13        	stx	$13                     ; 0x13 <__rc3>
    2960: 20 90 33     	jsr	$3390 <textPrint>
    2963: a6 7f        	ldx	$7f                     ; 0x7f <gPtr>
    2965: a4 80        	ldy	$80                     ; 0x80 <gPtr+0x1>
    2967: 86 12        	stx	$12                     ; 0x12 <__rc2>
    2969: 84 13        	sty	$13                     ; 0x13 <__rc3>
    296b: 20 6f 53     	jsr	$536f <channelTextMenu>
    296e: a6 7f        	ldx	$7f                     ; 0x7f <gPtr>
    2970: a4 80        	ldy	$80                     ; 0x80 <gPtr+0x1>
    2972: 86 12        	stx	$12                     ; 0x12 <__rc2>
    2974: 84 13        	sty	$13                     ; 0x13 <__rc3>
    2976: 20 c5 4f     	jsr	$4fc5 <refreshInstrumentText>
    2979: a2 b0        	ldx	#$b0
    297b: 8e b1 dd     	stx	$ddb1                   ; 0xddb1 <end_block9+0x4513>
    297e: a0 7b        	ldy	#$7b
    2980: 8c b1 dd     	sty	$ddb1                   ; 0xddb1 <end_block9+0x4513>
    2983: 9c b1 dd     	stz	$ddb1                   ; 0xddb1 <end_block9+0x4513>
    2986: 8e a1 dd     	stx	$dda1                   ; 0xdda1 <end_block9+0x4503>
    2989: 8c a1 dd     	sty	$dda1                   ; 0xdda1 <end_block9+0x4503>
    298c: 9c a1 dd     	stz	$dda1                   ; 0xdda1 <end_block9+0x4503>
    298f: e8           	inx
    2990: 8e b1 dd     	stx	$ddb1                   ; 0xddb1 <end_block9+0x4513>
    2993: 8c b1 dd     	sty	$ddb1                   ; 0xddb1 <end_block9+0x4513>
    2996: 9c b1 dd     	stz	$ddb1                   ; 0xddb1 <end_block9+0x4513>
    2999: 8e a1 dd     	stx	$dda1                   ; 0xdda1 <end_block9+0x4503>
    299c: 8c a1 dd     	sty	$dda1                   ; 0xdda1 <end_block9+0x4503>
    299f: 9c a1 dd     	stz	$dda1                   ; 0xdda1 <end_block9+0x4503>
    29a2: a2 b9        	ldx	#$b9
    29a4: 8e b1 dd     	stx	$ddb1                   ; 0xddb1 <end_block9+0x4513>
    29a7: 8c b1 dd     	sty	$ddb1                   ; 0xddb1 <end_block9+0x4513>
    29aa: 9c b1 dd     	stz	$ddb1                   ; 0xddb1 <end_block9+0x4513>
    29ad: 8e a1 dd     	stx	$dda1                   ; 0xdda1 <end_block9+0x4503>
    29b0: 8c a1 dd     	sty	$dda1                   ; 0xdda1 <end_block9+0x4503>
    29b3: 9c a1 dd     	stz	$dda1                   ; 0xdda1 <end_block9+0x4503>
    29b6: a5 24        	lda	$24                     ; 0x24 <__rc20>
    29b8: a0 0f        	ldy	#$f
    29ba: 91 10        	sta	($10),y                 ; 0x10 <__rc0>
    29bc: a5 25        	lda	$25                     ; 0x25 <__rc21>
    29be: c8           	iny
    29bf: 91 10        	sta	($10),y                 ; 0x10 <__rc0>
    29c1: a6 2e        	ldx	$2e                     ; 0x2e <__rc30>
    29c3: 86 19        	stx	$19                     ; 0x19 <__rc9>
    29c5: a6 2b        	ldx	$2b                     ; 0x2b <__rc27>
    29c7: 86 1b        	stx	$1b                     ; 0x1b <__rc11>
    29c9: a6 2f        	ldx	$2f                     ; 0x2f <__rc31>
    29cb: 86 1e        	stx	$1e                     ; 0x1e <__rc14>
    29cd: 4c a1 0f     	jmp	$fa1 <f256main+0x649>
    29d0: 64 13        	stz	$13                     ; 0x13 <__rc3>
    29d2: a0 00        	ldy	#$0
    29d4: a6 31        	ldx	$31                     ; 0x31 <note>
    29d6: 86 26        	stx	$26                     ; 0x26 <__rc22>
    29d8: a6 32        	ldx	$32                     ; 0x32 <note+0x1>
    29da: 86 12        	stx	$12                     ; 0x12 <__rc2>
    29dc: c4 12        	cpy	$12                     ; 0x12 <__rc2>
    29de: d0 08        	bne	$29e8 <f256main+0x2090>
    29e0: 86 29        	stx	$29                     ; 0x29 <__rc25>
    29e2: a6 13        	ldx	$13                     ; 0x13 <__rc3>
    29e4: e4 26        	cpx	$26                     ; 0x26 <__rc22>
    29e6: 80 06        	bra	$29ee <f256main+0x2096>
    29e8: 86 29        	stx	$29                     ; 0x29 <__rc25>
    29ea: 86 12        	stx	$12                     ; 0x12 <__rc2>
    29ec: c4 12        	cpy	$12                     ; 0x12 <__rc2>
    29ee: a2 04        	ldx	#$4
    29f0: 86 1b        	stx	$1b                     ; 0x1b <__rc11>
    29f2: a4 1e        	ldy	$1e                     ; 0x1e <__rc14>
    29f4: 84 15        	sty	$15                     ; 0x15 <__rc5>
    29f6: 90 03        	bcc	$29fb <f256main+0x20a3>
    29f8: 4c 87 2d     	jmp	$2d87 <f256main+0x242f>
    29fb: 86 25        	stx	$25                     ; 0x25 <__rc21>
    29fd: a6 7f        	ldx	$7f                     ; 0x7f <gPtr>
    29ff: a4 80        	ldy	$80                     ; 0x80 <gPtr+0x1>
    2a01: 86 12        	stx	$12                     ; 0x12 <__rc2>
    2a03: 84 13        	sty	$13                     ; 0x13 <__rc3>
    2a05: a0 06        	ldy	#$6
    2a07: b1 12        	lda	($12),y                 ; 0x12 <__rc2>
    2a09: f0 17        	beq	$2a22 <f256main+0x20ca>
    2a0b: 85 15        	sta	$15                     ; 0x15 <__rc5>
    2a0d: a5 26        	lda	$26                     ; 0x26 <__rc22>
    2a0f: 18           	clc
    2a10: 69 15        	adc	#$15
    2a12: 85 12        	sta	$12                     ; 0x12 <__rc2>
    2a14: 64 13        	stz	$13                     ; 0x13 <__rc3>
    2a16: 64 14        	stz	$14                     ; 0x14 <__rc4>
    2a18: 64 16        	stz	$16                     ; 0x16 <__rc6>
    2a1a: 64 17        	stz	$17                     ; 0x17 <__rc7>
    2a1c: a2 00        	ldx	#$0
    2a1e: 8a           	txa
    2a1f: 20 8f 3f     	jsr	$3f8f <dispatchNote>
    2a22: a5 2b        	lda	$2b                     ; 0x2b <__rc27>
    2a24: d0 03        	bne	$2a29 <f256main+0x20d1>
    2a26: 4c 67 2d     	jmp	$2d67 <f256main+0x240f>
    2a29: a2 f5        	ldx	#$f5
    2a2b: a0 ff        	ldy	#$ff
    2a2d: 86 12        	stx	$12                     ; 0x12 <__rc2>
    2a2f: 84 13        	sty	$13                     ; 0x13 <__rc3>
    2a31: 4c 6b 2d     	jmp	$2d6b <f256main+0x2413>
    2a34: 86 29        	stx	$29                     ; 0x29 <__rc25>
    2a36: e4 12        	cpx	$12                     ; 0x12 <__rc2>
    2a38: 90 03        	bcc	$2a3d <f256main+0x20e5>
    2a3a: 4c c4 2d     	jmp	$2dc4 <f256main+0x246c>
    2a3d: a2 04        	ldx	#$4
    2a3f: a4 1e        	ldy	$1e                     ; 0x1e <__rc14>
    2a41: 84 24        	sty	$24                     ; 0x24 <__rc20>
    2a43: 86 25        	stx	$25                     ; 0x25 <__rc21>
    2a45: a6 7f        	ldx	$7f                     ; 0x7f <gPtr>
    2a47: a4 80        	ldy	$80                     ; 0x80 <gPtr+0x1>
    2a49: 86 12        	stx	$12                     ; 0x12 <__rc2>
    2a4b: 84 13        	sty	$13                     ; 0x13 <__rc3>
    2a4d: a0 06        	ldy	#$6
    2a4f: b1 12        	lda	($12),y                 ; 0x12 <__rc2>
    2a51: f0 17        	beq	$2a6a <f256main+0x2112>
    2a53: 85 15        	sta	$15                     ; 0x15 <__rc5>
    2a55: 18           	clc
    2a56: a5 26        	lda	$26                     ; 0x26 <__rc22>
    2a58: 69 15        	adc	#$15
    2a5a: 85 12        	sta	$12                     ; 0x12 <__rc2>
    2a5c: 64 13        	stz	$13                     ; 0x13 <__rc3>
    2a5e: 64 14        	stz	$14                     ; 0x14 <__rc4>
    2a60: 64 16        	stz	$16                     ; 0x16 <__rc6>
    2a62: 64 17        	stz	$17                     ; 0x17 <__rc7>
    2a64: a2 00        	ldx	#$0
    2a66: 8a           	txa
    2a67: 20 8f 3f     	jsr	$3f8f <dispatchNote>
    2a6a: a5 2b        	lda	$2b                     ; 0x2b <__rc27>
    2a6c: d0 03        	bne	$2a71 <f256main+0x2119>
    2a6e: 4c a6 2d     	jmp	$2da6 <f256main+0x244e>
    2a71: a2 0b        	ldx	#$b
    2a73: 64 12        	stz	$12                     ; 0x12 <__rc2>
    2a75: 86 13        	stx	$13                     ; 0x13 <__rc3>
    2a77: 4c aa 2d     	jmp	$2daa <f256main+0x2452>
    2a7a: a5 38        	lda	$38                     ; 0x38 <needsToWaitExpiration>
    2a7c: 29 01        	and	#$1
    2a7e: a6 15        	ldx	$15                     ; 0x15 <__rc5>
    2a80: 86 19        	stx	$19                     ; 0x19 <__rc9>
    2a82: a6 18        	ldx	$18                     ; 0x18 <__rc8>
    2a84: 86 1b        	stx	$1b                     ; 0x1b <__rc11>
    2a86: aa           	tax
    2a87: f0 03        	beq	$2a8c <f256main+0x2134>
    2a89: 4c a1 0f     	jmp	$fa1 <f256main+0x649>
    2a8c: a2 04        	ldx	#$4
    2a8e: 86 25        	stx	$25                     ; 0x25 <__rc21>
    2a90: a2 01        	ldx	#$1
    2a92: 86 24        	stx	$24                     ; 0x24 <__rc20>
    2a94: a5 14        	lda	$14                     ; 0x14 <__rc4>
    2a96: 1a           	inc
    2a97: c9 05        	cmp	#$5
    2a99: d0 02        	bne	$2a9d <f256main+0x2145>
    2a9b: a9 00        	lda	#$0
    2a9d: 91 12        	sta	($12),y                 ; 0x12 <__rc2>
    2a9f: 20 ba 54     	jsr	$54ba <refreshBeatTextChoice>
    2aa2: 4c 00 1c     	jmp	$1c00 <f256main+0x12a8>
    2aa5: a9 09        	lda	#$9
    2aa7: 91 12        	sta	($12),y                 ; 0x12 <__rc2>
    2aa9: 20 6f 53     	jsr	$536f <channelTextMenu>
    2aac: a6 7f        	ldx	$7f                     ; 0x7f <gPtr>
    2aae: a4 80        	ldy	$80                     ; 0x80 <gPtr+0x1>
    2ab0: 86 12        	stx	$12                     ; 0x12 <__rc2>
    2ab2: 84 13        	sty	$13                     ; 0x13 <__rc3>
    2ab4: 20 c5 4f     	jsr	$4fc5 <refreshInstrumentText>
    2ab7: a2 b0        	ldx	#$b0
    2ab9: 8e b1 dd     	stx	$ddb1                   ; 0xddb1 <end_block9+0x4513>
    2abc: a0 7b        	ldy	#$7b
    2abe: 8c b1 dd     	sty	$ddb1                   ; 0xddb1 <end_block9+0x4513>
    2ac1: 9c b1 dd     	stz	$ddb1                   ; 0xddb1 <end_block9+0x4513>
    2ac4: 8e a1 dd     	stx	$dda1                   ; 0xdda1 <end_block9+0x4503>
    2ac7: 8c a1 dd     	sty	$dda1                   ; 0xdda1 <end_block9+0x4503>
    2aca: 9c a1 dd     	stz	$dda1                   ; 0xdda1 <end_block9+0x4503>
    2acd: e8           	inx
    2ace: 8e b1 dd     	stx	$ddb1                   ; 0xddb1 <end_block9+0x4513>
    2ad1: 8c b1 dd     	sty	$ddb1                   ; 0xddb1 <end_block9+0x4513>
    2ad4: 9c b1 dd     	stz	$ddb1                   ; 0xddb1 <end_block9+0x4513>
    2ad7: 8e a1 dd     	stx	$dda1                   ; 0xdda1 <end_block9+0x4503>
    2ada: 8c a1 dd     	sty	$dda1                   ; 0xdda1 <end_block9+0x4503>
    2add: 9c a1 dd     	stz	$dda1                   ; 0xdda1 <end_block9+0x4503>
    2ae0: a2 b9        	ldx	#$b9
    2ae2: 8e b1 dd     	stx	$ddb1                   ; 0xddb1 <end_block9+0x4513>
    2ae5: 8c b1 dd     	sty	$ddb1                   ; 0xddb1 <end_block9+0x4513>
    2ae8: 9c b1 dd     	stz	$ddb1                   ; 0xddb1 <end_block9+0x4513>
    2aeb: 8e a1 dd     	stx	$dda1                   ; 0xdda1 <end_block9+0x4503>
    2aee: 8c a1 dd     	sty	$dda1                   ; 0xdda1 <end_block9+0x4503>
    2af1: 9c a1 dd     	stz	$dda1                   ; 0xdda1 <end_block9+0x4503>
    2af4: 4c 00 1c     	jmp	$1c00 <f256main+0x12a8>
    2af7: c0 00        	cpy	#$0
    2af9: a6 16        	ldx	$16                     ; 0x16 <__rc6>
    2afb: 86 19        	stx	$19                     ; 0x19 <__rc9>
    2afd: a2 04        	ldx	#$4
    2aff: 86 1b        	stx	$1b                     ; 0x1b <__rc11>
    2b01: 90 03        	bcc	$2b06 <f256main+0x21ae>
    2b03: 4c a1 0f     	jmp	$fa1 <f256main+0x649>
    2b06: a5 17        	lda	$17                     ; 0x17 <__rc7>
    2b08: 20 00 5d     	jsr	$5d00 <modalMoveUp>
    2b0b: a6 7f        	ldx	$7f                     ; 0x7f <gPtr>
    2b0d: a4 80        	ldy	$80                     ; 0x80 <gPtr+0x1>
    2b0f: 86 12        	stx	$12                     ; 0x12 <__rc2>
    2b11: 84 13        	sty	$13                     ; 0x13 <__rc3>
    2b13: b2 12        	lda	($12)                   ; 0x12 <__rc2>
    2b15: 85 14        	sta	$14                     ; 0x14 <__rc4>
    2b17: a0 01        	ldy	#$1
    2b19: b1 12        	lda	($12),y                 ; 0x12 <__rc2>
    2b1b: 85 15        	sta	$15                     ; 0x15 <__rc5>
    2b1d: a0 03        	ldy	#$3
    2b1f: b1 12        	lda	($12),y                 ; 0x12 <__rc2>
    2b21: a8           	tay
    2b22: aa           	tax
    2b23: b1 14        	lda	($14),y                 ; 0x14 <__rc4>
    2b25: 85 18        	sta	$18                     ; 0x18 <__rc8>
    2b27: 86 14        	stx	$14                     ; 0x14 <__rc4>
    2b29: a0 02        	ldy	#$2
    2b2b: b1 12        	lda	($12),y                 ; 0x12 <__rc2>
    2b2d: aa           	tax
    2b2e: a5 14        	lda	$14                     ; 0x14 <__rc4>
    2b30: 09 c0        	ora	#$c0
    2b32: 85 19        	sta	$19                     ; 0x19 <__rc9>
    2b34: a0 09        	ldy	#$9
    2b36: b1 10        	lda	($10),y                 ; 0x10 <__rc0>
    2b38: 85 12        	sta	$12                     ; 0x12 <__rc2>
    2b3a: c8           	iny
    2b3b: b1 10        	lda	($10),y                 ; 0x10 <__rc0>
    2b3d: 85 13        	sta	$13                     ; 0x13 <__rc3>
    2b3f: a0 04        	ldy	#$4
    2b41: b1 10        	lda	($10),y                 ; 0x10 <__rc0>
    2b43: 85 16        	sta	$16                     ; 0x16 <__rc6>
    2b45: c8           	iny
    2b46: b1 10        	lda	($10),y                 ; 0x10 <__rc0>
    2b48: 85 17        	sta	$17                     ; 0x17 <__rc7>
    2b4a: 8a           	txa
    2b4b: f0 08        	beq	$2b55 <f256main+0x21fd>
    2b4d: a6 16        	ldx	$16                     ; 0x16 <__rc6>
    2b4f: 86 12        	stx	$12                     ; 0x12 <__rc2>
    2b51: a6 17        	ldx	$17                     ; 0x17 <__rc7>
    2b53: 86 13        	stx	$13                     ; 0x13 <__rc3>
    2b55: a5 19        	lda	$19                     ; 0x19 <__rc9>
    2b57: 92 12        	sta	($12)                   ; 0x12 <__rc2>
    2b59: a5 18        	lda	$18                     ; 0x18 <__rc8>
    2b5b: 92 12        	sta	($12)                   ; 0x12 <__rc2>
    2b5d: a6 7f        	ldx	$7f                     ; 0x7f <gPtr>
    2b5f: a4 80        	ldy	$80                     ; 0x80 <gPtr+0x1>
    2b61: 86 12        	stx	$12                     ; 0x12 <__rc2>
    2b63: 84 13        	sty	$13                     ; 0x13 <__rc3>
    2b65: b2 12        	lda	($12)                   ; 0x12 <__rc2>
    2b67: 85 14        	sta	$14                     ; 0x14 <__rc4>
    2b69: a0 01        	ldy	#$1
    2b6b: b1 12        	lda	($12),y                 ; 0x12 <__rc2>
    2b6d: 85 15        	sta	$15                     ; 0x15 <__rc5>
    2b6f: a0 03        	ldy	#$3
    2b71: b1 12        	lda	($12),y                 ; 0x12 <__rc2>
    2b73: 85 19        	sta	$19                     ; 0x19 <__rc9>
    2b75: a8           	tay
    2b76: b1 14        	lda	($14),y                 ; 0x14 <__rc4>
    2b78: 85 18        	sta	$18                     ; 0x18 <__rc8>
    2b7a: a0 02        	ldy	#$2
    2b7c: a2 02        	ldx	#$2
    2b7e: 86 29        	stx	$29                     ; 0x29 <__rc25>
    2b80: b1 12        	lda	($12),y                 ; 0x12 <__rc2>
    2b82: a6 16        	ldx	$16                     ; 0x16 <__rc6>
    2b84: 86 12        	stx	$12                     ; 0x12 <__rc2>
    2b86: a6 17        	ldx	$17                     ; 0x17 <__rc7>
    2b88: 86 13        	stx	$13                     ; 0x13 <__rc3>
    2b8a: aa           	tax
    2b8b: f0 0b        	beq	$2b98 <f256main+0x2240>
    2b8d: a0 09        	ldy	#$9
    2b8f: b1 10        	lda	($10),y                 ; 0x10 <__rc0>
    2b91: 85 12        	sta	$12                     ; 0x12 <__rc2>
    2b93: c8           	iny
    2b94: b1 10        	lda	($10),y                 ; 0x10 <__rc0>
    2b96: 85 13        	sta	$13                     ; 0x13 <__rc3>
    2b98: a5 19        	lda	$19                     ; 0x19 <__rc9>
    2b9a: 09 c0        	ora	#$c0
    2b9c: 92 12        	sta	($12)                   ; 0x12 <__rc2>
    2b9e: a5 18        	lda	$18                     ; 0x18 <__rc8>
    2ba0: 92 12        	sta	($12)                   ; 0x12 <__rc2>
    2ba2: a6 7f        	ldx	$7f                     ; 0x7f <gPtr>
    2ba4: a4 80        	ldy	$80                     ; 0x80 <gPtr+0x1>
    2ba6: 86 12        	stx	$12                     ; 0x12 <__rc2>
    2ba8: 84 13        	sty	$13                     ; 0x13 <__rc3>
    2baa: a0 06        	ldy	#$6
    2bac: b1 12        	lda	($12),y                 ; 0x12 <__rc2>
    2bae: a2 01        	ldx	#$1
    2bb0: 86 19        	stx	$19                     ; 0x19 <__rc9>
    2bb2: a6 2c        	ldx	$2c                     ; 0x2c <__rc28>
    2bb4: 86 1e        	stx	$1e                     ; 0x1e <__rc14>
    2bb6: c9 01        	cmp	#$1
    2bb8: d0 43        	bne	$2bfd <f256main+0x22a5>
    2bba: a2 04        	ldx	#$4
    2bbc: 86 1b        	stx	$1b                     ; 0x1b <__rc11>
    2bbe: a0 04        	ldy	#$4
    2bc0: b1 12        	lda	($12),y                 ; 0x12 <__rc2>
    2bc2: d0 03        	bne	$2bc7 <f256main+0x226f>
    2bc4: 4c a1 0f     	jmp	$fa1 <f256main+0x649>
    2bc7: a9 01        	lda	#$1
    2bc9: 25 3a        	and	$3a                     ; 0x3a <shiftHit>
    2bcb: a4 19        	ldy	$19                     ; 0x19 <__rc9>
    2bcd: 84 24        	sty	$24                     ; 0x24 <__rc20>
    2bcf: 86 25        	stx	$25                     ; 0x25 <__rc21>
    2bd1: 20 00 5d     	jsr	$5d00 <modalMoveUp>
    2bd4: a6 7f        	ldx	$7f                     ; 0x7f <gPtr>
    2bd6: a4 80        	ldy	$80                     ; 0x80 <gPtr+0x1>
    2bd8: 86 12        	stx	$12                     ; 0x12 <__rc2>
    2bda: 84 13        	sty	$13                     ; 0x13 <__rc3>
    2bdc: a4 25        	ldy	$25                     ; 0x25 <__rc21>
    2bde: b1 12        	lda	($12),y                 ; 0x12 <__rc2>
    2be0: 20 44 48     	jsr	$4844 <sid_setInstrumentAllChannels>
    2be3: a6 7f        	ldx	$7f                     ; 0x7f <gPtr>
    2be5: a4 80        	ldy	$80                     ; 0x80 <gPtr+0x1>
    2be7: 86 12        	stx	$12                     ; 0x12 <__rc2>
    2be9: 84 13        	sty	$13                     ; 0x13 <__rc3>
    2beb: a6 25        	ldx	$25                     ; 0x25 <__rc21>
    2bed: 86 1b        	stx	$1b                     ; 0x1b <__rc11>
    2bef: a6 24        	ldx	$24                     ; 0x24 <__rc20>
    2bf1: 86 19        	stx	$19                     ; 0x19 <__rc9>
    2bf3: a0 06        	ldy	#$6
    2bf5: b1 12        	lda	($12),y                 ; 0x12 <__rc2>
    2bf7: a6 2c        	ldx	$2c                     ; 0x2c <__rc28>
    2bf9: 86 1e        	stx	$1e                     ; 0x1e <__rc14>
    2bfb: 80 04        	bra	$2c01 <f256main+0x22a9>
    2bfd: a2 04        	ldx	#$4
    2bff: 86 1b        	stx	$1b                     ; 0x1b <__rc11>
    2c01: c9 03        	cmp	#$3
    2c03: f0 03        	beq	$2c08 <f256main+0x22b0>
    2c05: 4c a1 0f     	jmp	$fa1 <f256main+0x649>
    2c08: a0 05        	ldy	#$5
    2c0a: b1 12        	lda	($12),y                 ; 0x12 <__rc2>
    2c0c: a6 2c        	ldx	$2c                     ; 0x2c <__rc28>
    2c0e: 86 1e        	stx	$1e                     ; 0x1e <__rc14>
    2c10: aa           	tax
    2c11: d0 03        	bne	$2c16 <f256main+0x22be>
    2c13: 4c a1 0f     	jmp	$fa1 <f256main+0x649>
    2c16: a9 01        	lda	#$1
    2c18: 25 3a        	and	$3a                     ; 0x3a <shiftHit>
    2c1a: a6 19        	ldx	$19                     ; 0x19 <__rc9>
    2c1c: 86 24        	stx	$24                     ; 0x24 <__rc20>
    2c1e: a6 1b        	ldx	$1b                     ; 0x1b <__rc11>
    2c20: 86 25        	stx	$25                     ; 0x25 <__rc21>
    2c22: 20 00 5d     	jsr	$5d00 <modalMoveUp>
    2c25: 4c 53 2d     	jmp	$2d53 <f256main+0x23fb>
    2c28: e4 15        	cpx	$15                     ; 0x15 <__rc5>
    2c2a: 90 03        	bcc	$2c2f <f256main+0x22d7>
    2c2c: 4c a1 0f     	jmp	$fa1 <f256main+0x649>
    2c2f: a2 04        	ldx	#$4
    2c31: 86 24        	stx	$24                     ; 0x24 <__rc20>
    2c33: a5 16        	lda	$16                     ; 0x16 <__rc6>
    2c35: 20 68 5d     	jsr	$5d68 <modalMoveDown>
    2c38: a6 7f        	ldx	$7f                     ; 0x7f <gPtr>
    2c3a: a4 80        	ldy	$80                     ; 0x80 <gPtr+0x1>
    2c3c: 86 12        	stx	$12                     ; 0x12 <__rc2>
    2c3e: 84 13        	sty	$13                     ; 0x13 <__rc3>
    2c40: b2 12        	lda	($12)                   ; 0x12 <__rc2>
    2c42: 85 14        	sta	$14                     ; 0x14 <__rc4>
    2c44: a0 01        	ldy	#$1
    2c46: b1 12        	lda	($12),y                 ; 0x12 <__rc2>
    2c48: 85 15        	sta	$15                     ; 0x15 <__rc5>
    2c4a: a0 03        	ldy	#$3
    2c4c: b1 12        	lda	($12),y                 ; 0x12 <__rc2>
    2c4e: a8           	tay
    2c4f: aa           	tax
    2c50: b1 14        	lda	($14),y                 ; 0x14 <__rc4>
    2c52: 85 18        	sta	$18                     ; 0x18 <__rc8>
    2c54: 86 14        	stx	$14                     ; 0x14 <__rc4>
    2c56: a0 02        	ldy	#$2
    2c58: b1 12        	lda	($12),y                 ; 0x12 <__rc2>
    2c5a: aa           	tax
    2c5b: a5 14        	lda	$14                     ; 0x14 <__rc4>
    2c5d: 09 c0        	ora	#$c0
    2c5f: 85 19        	sta	$19                     ; 0x19 <__rc9>
    2c61: a0 09        	ldy	#$9
    2c63: b1 10        	lda	($10),y                 ; 0x10 <__rc0>
    2c65: 85 12        	sta	$12                     ; 0x12 <__rc2>
    2c67: c8           	iny
    2c68: b1 10        	lda	($10),y                 ; 0x10 <__rc0>
    2c6a: 85 13        	sta	$13                     ; 0x13 <__rc3>
    2c6c: a0 04        	ldy	#$4
    2c6e: b1 10        	lda	($10),y                 ; 0x10 <__rc0>
    2c70: 85 16        	sta	$16                     ; 0x16 <__rc6>
    2c72: c8           	iny
    2c73: b1 10        	lda	($10),y                 ; 0x10 <__rc0>
    2c75: 85 17        	sta	$17                     ; 0x17 <__rc7>
    2c77: 8a           	txa
    2c78: f0 08        	beq	$2c82 <f256main+0x232a>
    2c7a: a6 16        	ldx	$16                     ; 0x16 <__rc6>
    2c7c: 86 12        	stx	$12                     ; 0x12 <__rc2>
    2c7e: a6 17        	ldx	$17                     ; 0x17 <__rc7>
    2c80: 86 13        	stx	$13                     ; 0x13 <__rc3>
    2c82: a5 19        	lda	$19                     ; 0x19 <__rc9>
    2c84: 92 12        	sta	($12)                   ; 0x12 <__rc2>
    2c86: a5 18        	lda	$18                     ; 0x18 <__rc8>
    2c88: 92 12        	sta	($12)                   ; 0x12 <__rc2>
    2c8a: a6 7f        	ldx	$7f                     ; 0x7f <gPtr>
    2c8c: a4 80        	ldy	$80                     ; 0x80 <gPtr+0x1>
    2c8e: 86 12        	stx	$12                     ; 0x12 <__rc2>
    2c90: 84 13        	sty	$13                     ; 0x13 <__rc3>
    2c92: b2 12        	lda	($12)                   ; 0x12 <__rc2>
    2c94: 85 14        	sta	$14                     ; 0x14 <__rc4>
    2c96: a0 01        	ldy	#$1
    2c98: b1 12        	lda	($12),y                 ; 0x12 <__rc2>
    2c9a: 85 15        	sta	$15                     ; 0x15 <__rc5>
    2c9c: a0 03        	ldy	#$3
    2c9e: b1 12        	lda	($12),y                 ; 0x12 <__rc2>
    2ca0: 85 19        	sta	$19                     ; 0x19 <__rc9>
    2ca2: a8           	tay
    2ca3: b1 14        	lda	($14),y                 ; 0x14 <__rc4>
    2ca5: 85 18        	sta	$18                     ; 0x18 <__rc8>
    2ca7: a0 02        	ldy	#$2
    2ca9: a2 02        	ldx	#$2
    2cab: 86 29        	stx	$29                     ; 0x29 <__rc25>
    2cad: b1 12        	lda	($12),y                 ; 0x12 <__rc2>
    2caf: a6 16        	ldx	$16                     ; 0x16 <__rc6>
    2cb1: 86 12        	stx	$12                     ; 0x12 <__rc2>
    2cb3: a6 17        	ldx	$17                     ; 0x17 <__rc7>
    2cb5: 86 13        	stx	$13                     ; 0x13 <__rc3>
    2cb7: aa           	tax
    2cb8: f0 0b        	beq	$2cc5 <f256main+0x236d>
    2cba: a0 09        	ldy	#$9
    2cbc: b1 10        	lda	($10),y                 ; 0x10 <__rc0>
    2cbe: 85 12        	sta	$12                     ; 0x12 <__rc2>
    2cc0: c8           	iny
    2cc1: b1 10        	lda	($10),y                 ; 0x10 <__rc0>
    2cc3: 85 13        	sta	$13                     ; 0x13 <__rc3>
    2cc5: a5 19        	lda	$19                     ; 0x19 <__rc9>
    2cc7: 09 c0        	ora	#$c0
    2cc9: 92 12        	sta	($12)                   ; 0x12 <__rc2>
    2ccb: a5 18        	lda	$18                     ; 0x18 <__rc8>
    2ccd: 92 12        	sta	($12)                   ; 0x12 <__rc2>
    2ccf: a6 7f        	ldx	$7f                     ; 0x7f <gPtr>
    2cd1: a4 80        	ldy	$80                     ; 0x80 <gPtr+0x1>
    2cd3: 86 12        	stx	$12                     ; 0x12 <__rc2>
    2cd5: 84 13        	sty	$13                     ; 0x13 <__rc3>
    2cd7: a0 06        	ldy	#$6
    2cd9: b1 12        	lda	($12),y                 ; 0x12 <__rc2>
    2cdb: a2 01        	ldx	#$1
    2cdd: 86 19        	stx	$19                     ; 0x19 <__rc9>
    2cdf: a6 24        	ldx	$24                     ; 0x24 <__rc20>
    2ce1: 86 1b        	stx	$1b                     ; 0x1b <__rc11>
    2ce3: a6 2c        	ldx	$2c                     ; 0x2c <__rc28>
    2ce5: 86 1e        	stx	$1e                     ; 0x1e <__rc14>
    2ce7: c9 01        	cmp	#$1
    2ce9: d0 43        	bne	$2d2e <f256main+0x23d6>
    2ceb: a0 04        	ldy	#$4
    2ced: a2 04        	ldx	#$4
    2cef: 86 1b        	stx	$1b                     ; 0x1b <__rc11>
    2cf1: b1 12        	lda	($12),y                 ; 0x12 <__rc2>
    2cf3: c9 04        	cmp	#$4
    2cf5: 90 03        	bcc	$2cfa <f256main+0x23a2>
    2cf7: 4c a1 0f     	jmp	$fa1 <f256main+0x649>
    2cfa: a9 01        	lda	#$1
    2cfc: 25 3a        	and	$3a                     ; 0x3a <shiftHit>
    2cfe: a4 19        	ldy	$19                     ; 0x19 <__rc9>
    2d00: 84 24        	sty	$24                     ; 0x24 <__rc20>
    2d02: 86 25        	stx	$25                     ; 0x25 <__rc21>
    2d04: 20 68 5d     	jsr	$5d68 <modalMoveDown>
    2d07: a6 7f        	ldx	$7f                     ; 0x7f <gPtr>
    2d09: a4 80        	ldy	$80                     ; 0x80 <gPtr+0x1>
    2d0b: 86 12        	stx	$12                     ; 0x12 <__rc2>
    2d0d: 84 13        	sty	$13                     ; 0x13 <__rc3>
    2d0f: a4 25        	ldy	$25                     ; 0x25 <__rc21>
    2d11: b1 12        	lda	($12),y                 ; 0x12 <__rc2>
    2d13: 20 44 48     	jsr	$4844 <sid_setInstrumentAllChannels>
    2d16: a6 7f        	ldx	$7f                     ; 0x7f <gPtr>
    2d18: a4 80        	ldy	$80                     ; 0x80 <gPtr+0x1>
    2d1a: 86 12        	stx	$12                     ; 0x12 <__rc2>
    2d1c: 84 13        	sty	$13                     ; 0x13 <__rc3>
    2d1e: a6 25        	ldx	$25                     ; 0x25 <__rc21>
    2d20: 86 1b        	stx	$1b                     ; 0x1b <__rc11>
    2d22: a6 24        	ldx	$24                     ; 0x24 <__rc20>
    2d24: 86 19        	stx	$19                     ; 0x19 <__rc9>
    2d26: a0 06        	ldy	#$6
    2d28: b1 12        	lda	($12),y                 ; 0x12 <__rc2>
    2d2a: a6 2c        	ldx	$2c                     ; 0x2c <__rc28>
    2d2c: 86 1e        	stx	$1e                     ; 0x1e <__rc14>
    2d2e: c9 03        	cmp	#$3
    2d30: f0 03        	beq	$2d35 <f256main+0x23dd>
    2d32: 4c a1 0f     	jmp	$fa1 <f256main+0x649>
    2d35: a0 05        	ldy	#$5
    2d37: b1 12        	lda	($12),y                 ; 0x12 <__rc2>
    2d39: a6 2c        	ldx	$2c                     ; 0x2c <__rc28>
    2d3b: 86 1e        	stx	$1e                     ; 0x1e <__rc14>
    2d3d: c9 15        	cmp	#$15
    2d3f: 90 03        	bcc	$2d44 <f256main+0x23ec>
    2d41: 4c a1 0f     	jmp	$fa1 <f256main+0x649>
    2d44: a9 01        	lda	#$1
    2d46: 25 3a        	and	$3a                     ; 0x3a <shiftHit>
    2d48: a6 19        	ldx	$19                     ; 0x19 <__rc9>
    2d4a: 86 24        	stx	$24                     ; 0x24 <__rc20>
    2d4c: a6 1b        	ldx	$1b                     ; 0x1b <__rc11>
    2d4e: 86 25        	stx	$25                     ; 0x25 <__rc21>
    2d50: 20 68 5d     	jsr	$5d68 <modalMoveDown>
    2d53: a6 7f        	ldx	$7f                     ; 0x7f <gPtr>
    2d55: a4 80        	ldy	$80                     ; 0x80 <gPtr+0x1>
    2d57: 86 12        	stx	$12                     ; 0x12 <__rc2>
    2d59: 84 13        	sty	$13                     ; 0x13 <__rc3>
    2d5b: a0 05        	ldy	#$5
    2d5d: b1 12        	lda	($12),y                 ; 0x12 <__rc2>
    2d5f: 20 50 47     	jsr	$4750 <opl3_setInstrumentAllChannels>
    2d62: a6 2c        	ldx	$2c                     ; 0x2c <__rc28>
    2d64: 4c 85 16     	jmp	$1685 <f256main+0xd2d>
    2d67: 64 12        	stz	$12                     ; 0x12 <__rc2>
    2d69: 64 13        	stz	$13                     ; 0x13 <__rc3>
    2d6b: a6 25        	ldx	$25                     ; 0x25 <__rc21>
    2d6d: 86 1b        	stx	$1b                     ; 0x1b <__rc11>
    2d6f: a6 24        	ldx	$24                     ; 0x24 <__rc20>
    2d71: 86 15        	stx	$15                     ; 0x15 <__rc5>
    2d73: 18           	clc
    2d74: a5 26        	lda	$26                     ; 0x26 <__rc22>
    2d76: 65 12        	adc	$12                     ; 0x12 <__rc2>
    2d78: a8           	tay
    2d79: a5 29        	lda	$29                     ; 0x29 <__rc25>
    2d7b: 65 13        	adc	$13                     ; 0x13 <__rc3>
    2d7d: 88           	dey
    2d7e: c0 ff        	cpy	#$ff
    2d80: d0 01        	bne	$2d83 <f256main+0x242b>
    2d82: 3a           	dec
    2d83: 84 31        	sty	$31                     ; 0x31 <note>
    2d85: 85 32        	sta	$32                     ; 0x32 <note+0x1>
    2d87: a5 39        	lda	$39                     ; 0x39 <altHit>
    2d89: 29 01        	and	#$1
    2d8b: f0 04        	beq	$2d91 <f256main+0x2439>
    2d8d: 64 31        	stz	$31                     ; 0x31 <note>
    2d8f: 64 32        	stz	$32                     ; 0x32 <note+0x1>
    2d91: a9 61        	lda	#$61
    2d93: 18           	clc
    2d94: 6d 92 98     	adc	$9892                   ; 0x9892 <oldCursorNote>
    2d97: a6 01        	ldx	$1                      ; 0x1 <__data_size+0x1>
    2d99: 86 19        	stx	$19                     ; 0x19 <__rc9>
    2d9b: a2 01        	ldx	#$1
    2d9d: 86 14        	stx	$14                     ; 0x14 <__rc4>
    2d9f: 86 01        	stx	$1                      ; 0x1 <__data_size+0x1>
    2da1: 0a           	asl
    2da2: 64 12        	stz	$12                     ; 0x12 <__rc2>
    2da4: 80 3f        	bra	$2de5 <f256main+0x248d>
    2da6: 64 13        	stz	$13                     ; 0x13 <__rc3>
    2da8: 64 12        	stz	$12                     ; 0x12 <__rc2>
    2daa: a6 25        	ldx	$25                     ; 0x25 <__rc21>
    2dac: 86 1b        	stx	$1b                     ; 0x1b <__rc11>
    2dae: a6 24        	ldx	$24                     ; 0x24 <__rc20>
    2db0: 86 1e        	stx	$1e                     ; 0x1e <__rc14>
    2db2: 18           	clc
    2db3: a5 26        	lda	$26                     ; 0x26 <__rc22>
    2db5: 65 13        	adc	$13                     ; 0x13 <__rc3>
    2db7: aa           	tax
    2db8: a5 29        	lda	$29                     ; 0x29 <__rc25>
    2dba: 65 12        	adc	$12                     ; 0x12 <__rc2>
    2dbc: e8           	inx
    2dbd: d0 01        	bne	$2dc0 <f256main+0x2468>
    2dbf: 1a           	inc
    2dc0: 86 31        	stx	$31                     ; 0x31 <note>
    2dc2: 85 32        	sta	$32                     ; 0x32 <note+0x1>
    2dc4: a6 1e        	ldx	$1e                     ; 0x1e <__rc14>
    2dc6: 86 15        	stx	$15                     ; 0x15 <__rc5>
    2dc8: a5 39        	lda	$39                     ; 0x39 <altHit>
    2dca: 29 01        	and	#$1
    2dcc: f0 06        	beq	$2dd4 <f256main+0x247c>
    2dce: a2 57        	ldx	#$57
    2dd0: 86 31        	stx	$31                     ; 0x31 <note>
    2dd2: 64 32        	stz	$32                     ; 0x32 <note+0x1>
    2dd4: a9 61        	lda	#$61
    2dd6: 18           	clc
    2dd7: 6d 92 98     	adc	$9892                   ; 0x9892 <oldCursorNote>
    2dda: a6 01        	ldx	$1                      ; 0x1 <__data_size+0x1>
    2ddc: 86 19        	stx	$19                     ; 0x19 <__rc9>
    2dde: a2 01        	ldx	#$1
    2de0: 86 14        	stx	$14                     ; 0x14 <__rc4>
    2de2: 86 01        	stx	$1                      ; 0x1 <__data_size+0x1>
    2de4: 0a           	asl
    2de5: 26 12        	rol	$12                     ; 0x12 <__rc2>
    2de7: 0a           	asl
    2de8: 85 13        	sta	$13                     ; 0x13 <__rc3>
    2dea: 26 12        	rol	$12                     ; 0x12 <__rc2>
    2dec: a9 00        	lda	#$0
    2dee: aa           	tax
    2def: 18           	clc
    2df0: 65 13        	adc	$13                     ; 0x13 <__rc3>
    2df2: a8           	tay
    2df3: a9 d0        	lda	#$d0
    2df5: 65 12        	adc	$12                     ; 0x12 <__rc2>
    2df7: 84 12        	sty	$12                     ; 0x12 <__rc2>
    2df9: 85 13        	sta	$13                     ; 0x13 <__rc3>
    2dfb: 8a           	txa
    2dfc: 92 12        	sta	($12)                   ; 0x12 <__rc2>
    2dfe: a4 14        	ldy	$14                     ; 0x14 <__rc4>
    2e00: 91 12        	sta	($12),y                 ; 0x12 <__rc2>
    2e02: a0 02        	ldy	#$2
    2e04: 91 12        	sta	($12),y                 ; 0x12 <__rc2>
    2e06: 84 18        	sty	$18                     ; 0x18 <__rc8>
    2e08: 3a           	dec
    2e09: c8           	iny
    2e0a: 91 12        	sta	($12),y                 ; 0x12 <__rc2>
    2e0c: 85 17        	sta	$17                     ; 0x17 <__rc7>
    2e0e: 84 16        	sty	$16                     ; 0x16 <__rc6>
    2e10: a4 19        	ldy	$19                     ; 0x19 <__rc9>
    2e12: 84 01        	sty	$1                      ; 0x1 <__data_size+0x1>
    2e14: a9 61        	lda	#$61
    2e16: 18           	clc
    2e17: 65 31        	adc	$31                     ; 0x31 <note>
    2e19: 0a           	asl
    2e1a: 64 12        	stz	$12                     ; 0x12 <__rc2>
    2e1c: 26 12        	rol	$12                     ; 0x12 <__rc2>
    2e1e: 0a           	asl
    2e1f: 85 13        	sta	$13                     ; 0x13 <__rc3>
    2e21: 26 12        	rol	$12                     ; 0x12 <__rc2>
    2e23: 8a           	txa
    2e24: 18           	clc
    2e25: 65 13        	adc	$13                     ; 0x13 <__rc3>
    2e27: aa           	tax
    2e28: a9 d0        	lda	#$d0
    2e2a: 65 12        	adc	$12                     ; 0x12 <__rc2>
    2e2c: 86 12        	stx	$12                     ; 0x12 <__rc2>
    2e2e: 85 13        	sta	$13                     ; 0x13 <__rc3>
    2e30: a6 01        	ldx	$1                      ; 0x1 <__data_size+0x1>
    2e32: a4 14        	ldy	$14                     ; 0x14 <__rc4>
    2e34: 84 01        	sty	$1                      ; 0x1 <__data_size+0x1>
    2e36: a9 00        	lda	#$0
    2e38: 92 12        	sta	($12)                   ; 0x12 <__rc2>
    2e3a: 1a           	inc
    2e3b: 85 19        	sta	$19                     ; 0x19 <__rc9>
    2e3d: 3a           	dec
    2e3e: 91 12        	sta	($12),y                 ; 0x12 <__rc2>
    2e40: a9 02        	lda	#$2
    2e42: 85 29        	sta	$29                     ; 0x29 <__rc25>
    2e44: a5 17        	lda	$17                     ; 0x17 <__rc7>
    2e46: a4 18        	ldy	$18                     ; 0x18 <__rc8>
    2e48: 91 12        	sta	($12),y                 ; 0x12 <__rc2>
    2e4a: a4 16        	ldy	$16                     ; 0x16 <__rc6>
    2e4c: 91 12        	sta	($12),y                 ; 0x12 <__rc2>
    2e4e: 86 01        	stx	$1                      ; 0x1 <__data_size+0x1>
    2e50: a6 31        	ldx	$31                     ; 0x31 <note>
    2e52: 8e 92 98     	stx	$9892                   ; 0x9892 <oldCursorNote>
    2e55: a6 32        	ldx	$32                     ; 0x32 <note+0x1>
    2e57: 8e 93 98     	stx	$9893                   ; 0x9893 <oldCursorNote+0x1>
    2e5a: a6 15        	ldx	$15                     ; 0x15 <__rc5>
    2e5c: 86 1e        	stx	$1e                     ; 0x1e <__rc14>
    2e5e: 4c a1 0f     	jmp	$fa1 <f256main+0x649>
    2e61: 64 16        	stz	$16                     ; 0x16 <__rc6>
    2e63: 64 17        	stz	$17                     ; 0x17 <__rc7>
    2e65: b2 12        	lda	($12)                   ; 0x12 <__rc2>
    2e67: 85 14        	sta	$14                     ; 0x14 <__rc4>
    2e69: b1 12        	lda	($12),y                 ; 0x12 <__rc2>
    2e6b: 85 15        	sta	$15                     ; 0x15 <__rc5>
    2e6d: a0 03        	ldy	#$3
    2e6f: b1 12        	lda	($12),y                 ; 0x12 <__rc2>
    2e71: a8           	tay
    2e72: b1 14        	lda	($14),y                 ; 0x14 <__rc4>
    2e74: a2 00        	ldx	#$0
    2e76: e4 17        	cpx	$17                     ; 0x17 <__rc7>
    2e78: d0 08        	bne	$2e82 <f256main+0x252a>
    2e7a: aa           	tax
    2e7b: a5 16        	lda	$16                     ; 0x16 <__rc6>
    2e7d: 49 7f        	eor	#$7f
    2e7f: 85 17        	sta	$17                     ; 0x17 <__rc7>
    2e81: 8a           	txa
    2e82: e4 17        	cpx	$17                     ; 0x17 <__rc7>
    2e84: b0 15        	bcs	$2e9b <f256main+0x2543>
    2e86: 18           	clc
    2e87: 65 16        	adc	$16                     ; 0x16 <__rc6>
    2e89: 1a           	inc
    2e8a: 91 14        	sta	($14),y                 ; 0x14 <__rc4>
    2e8c: b2 12        	lda	($12)                   ; 0x12 <__rc2>
    2e8e: 85 14        	sta	$14                     ; 0x14 <__rc4>
    2e90: a0 01        	ldy	#$1
    2e92: b1 12        	lda	($12),y                 ; 0x12 <__rc2>
    2e94: 85 15        	sta	$15                     ; 0x15 <__rc5>
    2e96: a0 03        	ldy	#$3
    2e98: b1 12        	lda	($12),y                 ; 0x12 <__rc2>
    2e9a: a8           	tay
    2e9b: a5 39        	lda	$39                     ; 0x39 <altHit>
    2e9d: 29 01        	and	#$1
    2e9f: d0 03        	bne	$2ea4 <f256main+0x254c>
    2ea1: 4c 15 2f     	jmp	$2f15 <f256main+0x25bd>
    2ea4: a9 7f        	lda	#$7f
    2ea6: 91 14        	sta	($14),y                 ; 0x14 <__rc4>
    2ea8: b2 12        	lda	($12)                   ; 0x12 <__rc2>
    2eaa: 85 14        	sta	$14                     ; 0x14 <__rc4>
    2eac: a0 01        	ldy	#$1
    2eae: b1 12        	lda	($12),y                 ; 0x12 <__rc2>
    2eb0: 85 15        	sta	$15                     ; 0x15 <__rc5>
    2eb2: a0 03        	ldy	#$3
    2eb4: b1 12        	lda	($12),y                 ; 0x12 <__rc2>
    2eb6: 4c 16 2f     	jmp	$2f16 <f256main+0x25be>
    2eb9: 64 17        	stz	$17                     ; 0x17 <__rc7>
    2ebb: a2 00        	ldx	#$0
    2ebd: b2 12        	lda	($12)                   ; 0x12 <__rc2>
    2ebf: 85 14        	sta	$14                     ; 0x14 <__rc4>
    2ec1: b1 12        	lda	($12),y                 ; 0x12 <__rc2>
    2ec3: 85 15        	sta	$15                     ; 0x15 <__rc5>
    2ec5: a0 03        	ldy	#$3
    2ec7: b1 12        	lda	($12),y                 ; 0x12 <__rc2>
    2ec9: a8           	tay
    2eca: b1 14        	lda	($14),y                 ; 0x14 <__rc4>
    2ecc: e0 00        	cpx	#$0
    2ece: f0 03        	beq	$2ed3 <f256main+0x257b>
    2ed0: 4c d9 2f     	jmp	$2fd9 <f256main+0x2681>
    2ed3: 85 16        	sta	$16                     ; 0x16 <__rc6>
    2ed5: a6 17        	ldx	$17                     ; 0x17 <__rc7>
    2ed7: e4 16        	cpx	$16                     ; 0x16 <__rc6>
    2ed9: b0 1c        	bcs	$2ef7 <f256main+0x259f>
    2edb: aa           	tax
    2edc: a5 17        	lda	$17                     ; 0x17 <__rc7>
    2ede: 49 ff        	eor	#$ff
    2ee0: 85 16        	sta	$16                     ; 0x16 <__rc6>
    2ee2: 18           	clc
    2ee3: 8a           	txa
    2ee4: 65 16        	adc	$16                     ; 0x16 <__rc6>
    2ee6: 91 14        	sta	($14),y                 ; 0x14 <__rc4>
    2ee8: b2 12        	lda	($12)                   ; 0x12 <__rc2>
    2eea: 85 14        	sta	$14                     ; 0x14 <__rc4>
    2eec: a0 01        	ldy	#$1
    2eee: b1 12        	lda	($12),y                 ; 0x12 <__rc2>
    2ef0: 85 15        	sta	$15                     ; 0x15 <__rc5>
    2ef2: a0 03        	ldy	#$3
    2ef4: b1 12        	lda	($12),y                 ; 0x12 <__rc2>
    2ef6: a8           	tay
    2ef7: a5 39        	lda	$39                     ; 0x39 <altHit>
    2ef9: 29 01        	and	#$1
    2efb: d0 03        	bne	$2f00 <f256main+0x25a8>
    2efd: 4c e3 2f     	jmp	$2fe3 <f256main+0x268b>
    2f00: a9 00        	lda	#$0
    2f02: 91 14        	sta	($14),y                 ; 0x14 <__rc4>
    2f04: b2 12        	lda	($12)                   ; 0x12 <__rc2>
    2f06: 85 14        	sta	$14                     ; 0x14 <__rc4>
    2f08: a0 01        	ldy	#$1
    2f0a: b1 12        	lda	($12),y                 ; 0x12 <__rc2>
    2f0c: 85 15        	sta	$15                     ; 0x15 <__rc5>
    2f0e: a0 03        	ldy	#$3
    2f10: b1 12        	lda	($12),y                 ; 0x12 <__rc2>
    2f12: 4c e4 2f     	jmp	$2fe4 <f256main+0x268c>
    2f15: 98           	tya
    2f16: a8           	tay
    2f17: aa           	tax
    2f18: b1 14        	lda	($14),y                 ; 0x14 <__rc4>
    2f1a: 85 18        	sta	$18                     ; 0x18 <__rc8>
    2f1c: 86 14        	stx	$14                     ; 0x14 <__rc4>
    2f1e: a0 02        	ldy	#$2
    2f20: b1 12        	lda	($12),y                 ; 0x12 <__rc2>
    2f22: aa           	tax
    2f23: a5 14        	lda	$14                     ; 0x14 <__rc4>
    2f25: 09 c0        	ora	#$c0
    2f27: 48           	pha
    2f28: a0 09        	ldy	#$9
    2f2a: b1 10        	lda	($10),y                 ; 0x10 <__rc0>
    2f2c: 85 12        	sta	$12                     ; 0x12 <__rc2>
    2f2e: c8           	iny
    2f2f: b1 10        	lda	($10),y                 ; 0x10 <__rc0>
    2f31: 85 13        	sta	$13                     ; 0x13 <__rc3>
    2f33: a0 04        	ldy	#$4
    2f35: b1 10        	lda	($10),y                 ; 0x10 <__rc0>
    2f37: 85 16        	sta	$16                     ; 0x16 <__rc6>
    2f39: c8           	iny
    2f3a: b1 10        	lda	($10),y                 ; 0x10 <__rc0>
    2f3c: 85 17        	sta	$17                     ; 0x17 <__rc7>
    2f3e: 68           	pla
    2f3f: e0 00        	cpx	#$0
    2f41: f0 08        	beq	$2f4b <f256main+0x25f3>
    2f43: a6 16        	ldx	$16                     ; 0x16 <__rc6>
    2f45: 86 12        	stx	$12                     ; 0x12 <__rc2>
    2f47: a6 17        	ldx	$17                     ; 0x17 <__rc7>
    2f49: 86 13        	stx	$13                     ; 0x13 <__rc3>
    2f4b: 92 12        	sta	($12)                   ; 0x12 <__rc2>
    2f4d: a5 18        	lda	$18                     ; 0x18 <__rc8>
    2f4f: 92 12        	sta	($12)                   ; 0x12 <__rc2>
    2f51: a6 7f        	ldx	$7f                     ; 0x7f <gPtr>
    2f53: a4 80        	ldy	$80                     ; 0x80 <gPtr+0x1>
    2f55: 86 12        	stx	$12                     ; 0x12 <__rc2>
    2f57: 84 13        	sty	$13                     ; 0x13 <__rc3>
    2f59: b2 12        	lda	($12)                   ; 0x12 <__rc2>
    2f5b: 85 14        	sta	$14                     ; 0x14 <__rc4>
    2f5d: a0 01        	ldy	#$1
    2f5f: b1 12        	lda	($12),y                 ; 0x12 <__rc2>
    2f61: 85 15        	sta	$15                     ; 0x15 <__rc5>
    2f63: a0 03        	ldy	#$3
    2f65: b1 12        	lda	($12),y                 ; 0x12 <__rc2>
    2f67: 85 19        	sta	$19                     ; 0x19 <__rc9>
    2f69: a8           	tay
    2f6a: b1 14        	lda	($14),y                 ; 0x14 <__rc4>
    2f6c: 85 18        	sta	$18                     ; 0x18 <__rc8>
    2f6e: a0 02        	ldy	#$2
    2f70: a2 02        	ldx	#$2
    2f72: 86 29        	stx	$29                     ; 0x29 <__rc25>
    2f74: b1 12        	lda	($12),y                 ; 0x12 <__rc2>
    2f76: a6 16        	ldx	$16                     ; 0x16 <__rc6>
    2f78: 86 12        	stx	$12                     ; 0x12 <__rc2>
    2f7a: a6 17        	ldx	$17                     ; 0x17 <__rc7>
    2f7c: 86 13        	stx	$13                     ; 0x13 <__rc3>
    2f7e: aa           	tax
    2f7f: f0 0b        	beq	$2f8c <f256main+0x2634>
    2f81: a0 09        	ldy	#$9
    2f83: b1 10        	lda	($10),y                 ; 0x10 <__rc0>
    2f85: 85 12        	sta	$12                     ; 0x12 <__rc2>
    2f87: c8           	iny
    2f88: b1 10        	lda	($10),y                 ; 0x10 <__rc0>
    2f8a: 85 13        	sta	$13                     ; 0x13 <__rc3>
    2f8c: a5 19        	lda	$19                     ; 0x19 <__rc9>
    2f8e: 09 c0        	ora	#$c0
    2f90: 92 12        	sta	($12)                   ; 0x12 <__rc2>
    2f92: a5 18        	lda	$18                     ; 0x18 <__rc8>
    2f94: 92 12        	sta	($12)                   ; 0x12 <__rc2>
    2f96: a6 7f        	ldx	$7f                     ; 0x7f <gPtr>
    2f98: a4 80        	ldy	$80                     ; 0x80 <gPtr+0x1>
    2f9a: 86 12        	stx	$12                     ; 0x12 <__rc2>
    2f9c: 84 13        	sty	$13                     ; 0x13 <__rc3>
    2f9e: a0 06        	ldy	#$6
    2fa0: b1 12        	lda	($12),y                 ; 0x12 <__rc2>
    2fa2: c9 03        	cmp	#$3
    2fa4: f0 25        	beq	$2fcb <f256main+0x2673>
    2fa6: a2 01        	ldx	#$1
    2fa8: 86 24        	stx	$24                     ; 0x24 <__rc20>
    2faa: c9 01        	cmp	#$1
    2fac: d0 0b        	bne	$2fb9 <f256main+0x2661>
    2fae: a0 04        	ldy	#$4
    2fb0: b1 12        	lda	($12),y                 ; 0x12 <__rc2>
    2fb2: c9 05        	cmp	#$5
    2fb4: b0 03        	bcs	$2fb9 <f256main+0x2661>
    2fb6: 1a           	inc
    2fb7: 91 12        	sta	($12),y                 ; 0x12 <__rc2>
    2fb9: 20 c5 4f     	jsr	$4fc5 <refreshInstrumentText>
    2fbc: a6 24        	ldx	$24                     ; 0x24 <__rc20>
    2fbe: 86 19        	stx	$19                     ; 0x19 <__rc9>
    2fc0: a2 04        	ldx	#$4
    2fc2: 86 1b        	stx	$1b                     ; 0x1b <__rc11>
    2fc4: a6 2c        	ldx	$2c                     ; 0x2c <__rc28>
    2fc6: 86 1e        	stx	$1e                     ; 0x1e <__rc14>
    2fc8: 4c a1 0f     	jmp	$fa1 <f256main+0x649>
    2fcb: a2 01        	ldx	#$1
    2fcd: 86 24        	stx	$24                     ; 0x24 <__rc20>
    2fcf: a0 05        	ldy	#$5
    2fd1: b1 12        	lda	($12),y                 ; 0x12 <__rc2>
    2fd3: c9 16        	cmp	#$16
    2fd5: 90 df        	bcc	$2fb6 <f256main+0x265e>
    2fd7: 80 e0        	bra	$2fb9 <f256main+0x2661>
    2fd9: e0 00        	cpx	#$0
    2fdb: b0 03        	bcs	$2fe0 <f256main+0x2688>
    2fdd: 4c db 2e     	jmp	$2edb <f256main+0x2583>
    2fe0: 4c f7 2e     	jmp	$2ef7 <f256main+0x259f>
    2fe3: 98           	tya
    2fe4: a8           	tay
    2fe5: aa           	tax
    2fe6: b1 14        	lda	($14),y                 ; 0x14 <__rc4>
    2fe8: 85 18        	sta	$18                     ; 0x18 <__rc8>
    2fea: 86 14        	stx	$14                     ; 0x14 <__rc4>
    2fec: a0 02        	ldy	#$2
    2fee: b1 12        	lda	($12),y                 ; 0x12 <__rc2>
    2ff0: aa           	tax
    2ff1: a5 14        	lda	$14                     ; 0x14 <__rc4>
    2ff3: 09 c0        	ora	#$c0
    2ff5: 48           	pha
    2ff6: a0 09        	ldy	#$9
    2ff8: b1 10        	lda	($10),y                 ; 0x10 <__rc0>
    2ffa: 85 12        	sta	$12                     ; 0x12 <__rc2>
    2ffc: c8           	iny
    2ffd: b1 10        	lda	($10),y                 ; 0x10 <__rc0>
    2fff: 85 13        	sta	$13                     ; 0x13 <__rc3>
    3001: a0 04        	ldy	#$4
    3003: b1 10        	lda	($10),y                 ; 0x10 <__rc0>
    3005: 85 16        	sta	$16                     ; 0x16 <__rc6>
    3007: c8           	iny
    3008: b1 10        	lda	($10),y                 ; 0x10 <__rc0>
    300a: 85 17        	sta	$17                     ; 0x17 <__rc7>
    300c: 68           	pla
    300d: e0 00        	cpx	#$0
    300f: f0 08        	beq	$3019 <f256main+0x26c1>
    3011: a6 16        	ldx	$16                     ; 0x16 <__rc6>
    3013: 86 12        	stx	$12                     ; 0x12 <__rc2>
    3015: a6 17        	ldx	$17                     ; 0x17 <__rc7>
    3017: 86 13        	stx	$13                     ; 0x13 <__rc3>
    3019: 92 12        	sta	($12)                   ; 0x12 <__rc2>
    301b: a5 18        	lda	$18                     ; 0x18 <__rc8>
    301d: 92 12        	sta	($12)                   ; 0x12 <__rc2>
    301f: a6 7f        	ldx	$7f                     ; 0x7f <gPtr>
    3021: a4 80        	ldy	$80                     ; 0x80 <gPtr+0x1>
    3023: 86 12        	stx	$12                     ; 0x12 <__rc2>
    3025: 84 13        	sty	$13                     ; 0x13 <__rc3>
    3027: b2 12        	lda	($12)                   ; 0x12 <__rc2>
    3029: 85 14        	sta	$14                     ; 0x14 <__rc4>
    302b: a0 01        	ldy	#$1
    302d: b1 12        	lda	($12),y                 ; 0x12 <__rc2>
    302f: 85 15        	sta	$15                     ; 0x15 <__rc5>
    3031: a0 03        	ldy	#$3
    3033: b1 12        	lda	($12),y                 ; 0x12 <__rc2>
    3035: 85 19        	sta	$19                     ; 0x19 <__rc9>
    3037: a8           	tay
    3038: b1 14        	lda	($14),y                 ; 0x14 <__rc4>
    303a: 85 18        	sta	$18                     ; 0x18 <__rc8>
    303c: a0 02        	ldy	#$2
    303e: a2 02        	ldx	#$2
    3040: 86 29        	stx	$29                     ; 0x29 <__rc25>
    3042: b1 12        	lda	($12),y                 ; 0x12 <__rc2>
    3044: a6 16        	ldx	$16                     ; 0x16 <__rc6>
    3046: 86 12        	stx	$12                     ; 0x12 <__rc2>
    3048: a6 17        	ldx	$17                     ; 0x17 <__rc7>
    304a: 86 13        	stx	$13                     ; 0x13 <__rc3>
    304c: aa           	tax
    304d: f0 0b        	beq	$305a <f256main+0x2702>
    304f: a0 09        	ldy	#$9
    3051: b1 10        	lda	($10),y                 ; 0x10 <__rc0>
    3053: 85 12        	sta	$12                     ; 0x12 <__rc2>
    3055: c8           	iny
    3056: b1 10        	lda	($10),y                 ; 0x10 <__rc0>
    3058: 85 13        	sta	$13                     ; 0x13 <__rc3>
    305a: a5 19        	lda	$19                     ; 0x19 <__rc9>
    305c: 09 c0        	ora	#$c0
    305e: 92 12        	sta	($12)                   ; 0x12 <__rc2>
    3060: a5 18        	lda	$18                     ; 0x18 <__rc8>
    3062: 92 12        	sta	($12)                   ; 0x12 <__rc2>
    3064: a6 7f        	ldx	$7f                     ; 0x7f <gPtr>
    3066: a4 80        	ldy	$80                     ; 0x80 <gPtr+0x1>
    3068: 86 12        	stx	$12                     ; 0x12 <__rc2>
    306a: 84 13        	sty	$13                     ; 0x13 <__rc3>
    306c: a0 06        	ldy	#$6
    306e: b1 12        	lda	($12),y                 ; 0x12 <__rc2>
    3070: a2 01        	ldx	#$1
    3072: 86 24        	stx	$24                     ; 0x24 <__rc20>
    3074: a0 04        	ldy	#$4
    3076: c9 01        	cmp	#$1
    3078: d0 07        	bne	$3081 <f256main+0x2729>
    307a: b1 12        	lda	($12),y                 ; 0x12 <__rc2>
    307c: f0 03        	beq	$3081 <f256main+0x2729>
    307e: 3a           	dec
    307f: 91 12        	sta	($12),y                 ; 0x12 <__rc2>
    3081: 84 25        	sty	$25                     ; 0x25 <__rc21>
    3083: 20 c5 4f     	jsr	$4fc5 <refreshInstrumentText>
    3086: a6 25        	ldx	$25                     ; 0x25 <__rc21>
    3088: 86 1b        	stx	$1b                     ; 0x1b <__rc11>
    308a: a6 24        	ldx	$24                     ; 0x24 <__rc20>
    308c: 86 19        	stx	$19                     ; 0x19 <__rc9>
    308e: 4c c4 2f     	jmp	$2fc4 <f256main+0x266c>
    3091: a2 00        	ldx	#$0
    3093: 64 12        	stz	$12                     ; 0x12 <__rc2>
    3095: a0 09        	ldy	#$9
    3097: b1 24        	lda	($24),y                 ; 0x24 <__rc20>
    3099: 85 14        	sta	$14                     ; 0x14 <__rc4>
    309b: 86 13        	stx	$13                     ; 0x13 <__rc3>
    309d: 8a           	txa
    309e: 18           	clc
    309f: 69 1e        	adc	#$1e
    30a1: a8           	tay
    30a2: a9 00        	lda	#$0
    30a4: 69 00        	adc	#$0
    30a6: d0 0b        	bne	$30b3 <f256main+0x275b>
    30a8: a6 14        	ldx	$14                     ; 0x14 <__rc4>
    30aa: 86 12        	stx	$12                     ; 0x12 <__rc2>
    30ac: c4 12        	cpy	$12                     ; 0x12 <__rc2>
    30ae: 90 0a        	bcc	$30ba <f256main+0x2762>
    30b0: 4c a1 0f     	jmp	$fa1 <f256main+0x649>
    30b3: c9 00        	cmp	#$0
    30b5: 90 03        	bcc	$30ba <f256main+0x2762>
    30b7: 4c a1 0f     	jmp	$fa1 <f256main+0x649>
    30ba: a2 01        	ldx	#$1
    30bc: 86 2b        	stx	$2b                     ; 0x2b <__rc27>
    30be: a5 13        	lda	$13                     ; 0x13 <__rc3>
    30c0: 49 ff        	eor	#$ff
    30c2: 85 12        	sta	$12                     ; 0x12 <__rc2>
    30c4: 18           	clc
    30c5: a5 14        	lda	$14                     ; 0x14 <__rc4>
    30c7: 65 12        	adc	$12                     ; 0x12 <__rc2>
    30c9: a0 09        	ldy	#$9
    30cb: 91 24        	sta	($24),y                 ; 0x24 <__rc20>
    30cd: 84 26        	sty	$26                     ; 0x26 <__rc22>
    30cf: 20 dd 3d     	jsr	$3ddd <prepTempoLUT>
    30d2: a4 26        	ldy	$26                     ; 0x26 <__rc22>
    30d4: b1 24        	lda	($24),y                 ; 0x24 <__rc20>
    30d6: 20 51 55     	jsr	$5551 <updateTempoText>
    30d9: a2 b0        	ldx	#$b0
    30db: 8e b1 dd     	stx	$ddb1                   ; 0xddb1 <end_block9+0x4513>
    30de: a0 7b        	ldy	#$7b
    30e0: 8c b1 dd     	sty	$ddb1                   ; 0xddb1 <end_block9+0x4513>
    30e3: 9c b1 dd     	stz	$ddb1                   ; 0xddb1 <end_block9+0x4513>
    30e6: 8e a1 dd     	stx	$dda1                   ; 0xdda1 <end_block9+0x4503>
    30e9: 8c a1 dd     	sty	$dda1                   ; 0xdda1 <end_block9+0x4503>
    30ec: 9c a1 dd     	stz	$dda1                   ; 0xdda1 <end_block9+0x4503>
    30ef: e8           	inx
    30f0: 8e b1 dd     	stx	$ddb1                   ; 0xddb1 <end_block9+0x4513>
    30f3: 8c b1 dd     	sty	$ddb1                   ; 0xddb1 <end_block9+0x4513>
    30f6: 9c b1 dd     	stz	$ddb1                   ; 0xddb1 <end_block9+0x4513>
    30f9: 8e a1 dd     	stx	$dda1                   ; 0xdda1 <end_block9+0x4503>
    30fc: 8c a1 dd     	sty	$dda1                   ; 0xdda1 <end_block9+0x4503>
    30ff: 9c a1 dd     	stz	$dda1                   ; 0xdda1 <end_block9+0x4503>
    3102: a2 b9        	ldx	#$b9
    3104: 8e b1 dd     	stx	$ddb1                   ; 0xddb1 <end_block9+0x4513>
    3107: 8c b1 dd     	sty	$ddb1                   ; 0xddb1 <end_block9+0x4513>
    310a: 9c b1 dd     	stz	$ddb1                   ; 0xddb1 <end_block9+0x4513>
    310d: 8e a1 dd     	stx	$dda1                   ; 0xdda1 <end_block9+0x4503>
    3110: 8c a1 dd     	sty	$dda1                   ; 0xdda1 <end_block9+0x4503>
    3113: 9c a1 dd     	stz	$dda1                   ; 0xdda1 <end_block9+0x4503>
    3116: a6 3b        	ldx	$3b                     ; 0x3b <theBeats>
    3118: 86 1a        	stx	$1a                     ; 0x1a <__rc10>
    311a: a6 3c        	ldx	$3c                     ; 0x3c <theBeats+0x1>
    311c: 86 19        	stx	$19                     ; 0x19 <__rc9>
    311e: a6 7f        	ldx	$7f                     ; 0x7f <gPtr>
    3120: a4 80        	ldy	$80                     ; 0x80 <gPtr+0x1>
    3122: 86 12        	stx	$12                     ; 0x12 <__rc2>
    3124: 84 13        	sty	$13                     ; 0x13 <__rc3>
    3126: a0 08        	ldy	#$8
    3128: a2 08        	ldx	#$8
    312a: 86 18        	stx	$18                     ; 0x18 <__rc8>
    312c: b1 12        	lda	($12),y                 ; 0x12 <__rc2>
    312e: 85 14        	sta	$14                     ; 0x14 <__rc4>
    3130: 64 15        	stz	$15                     ; 0x15 <__rc5>
    3132: 0a           	asl
    3133: 64 17        	stz	$17                     ; 0x17 <__rc7>
    3135: 26 17        	rol	$17                     ; 0x17 <__rc7>
    3137: 0a           	asl
    3138: 26 17        	rol	$17                     ; 0x17 <__rc7>
    313a: 0a           	asl
    313b: 26 17        	rol	$17                     ; 0x17 <__rc7>
    313d: 0a           	asl
    313e: 26 17        	rol	$17                     ; 0x17 <__rc7>
    3140: 38           	sec
    3141: e5 14        	sbc	$14                     ; 0x14 <__rc4>
    3143: 85 16        	sta	$16                     ; 0x16 <__rc6>
    3145: a5 17        	lda	$17                     ; 0x17 <__rc7>
    3147: e9 00        	sbc	#$0
    3149: 85 17        	sta	$17                     ; 0x17 <__rc7>
    314b: a5 1a        	lda	$1a                     ; 0x1a <__rc10>
    314d: 18           	clc
    314e: a2 00        	ldx	#$0
    3150: 65 16        	adc	$16                     ; 0x16 <__rc6>
    3152: 85 16        	sta	$16                     ; 0x16 <__rc6>
    3154: a5 19        	lda	$19                     ; 0x19 <__rc9>
    3156: 85 1c        	sta	$1c                     ; 0x1c <__rc12>
    3158: 65 17        	adc	$17                     ; 0x17 <__rc7>
    315a: 85 17        	sta	$17                     ; 0x17 <__rc7>
    315c: a0 04        	ldy	#$4
    315e: 98           	tya
    315f: 85 1b        	sta	$1b                     ; 0x1b <__rc11>
    3161: b1 16        	lda	($16),y                 ; 0x16 <__rc6>
    3163: a4 2b        	ldy	$2b                     ; 0x2b <__rc27>
    3165: 84 19        	sty	$19                     ; 0x19 <__rc9>
    3167: a4 2c        	ldy	$2c                     ; 0x2c <__rc28>
    3169: 84 1e        	sty	$1e                     ; 0x1e <__rc14>
    316b: a8           	tay
    316c: d0 03        	bne	$3171 <f256main+0x2819>
    316e: 4c a1 0f     	jmp	$fa1 <f256main+0x649>
    3171: a0 00        	ldy	#$0
    3173: 86 1d        	stx	$1d                     ; 0x1d <__rc13>
    3175: a6 18        	ldx	$18                     ; 0x18 <__rc8>
    3177: 86 1e        	stx	$1e                     ; 0x1e <__rc14>
    3179: a2 09        	ldx	#$9
    317b: 86 1f        	stx	$1f                     ; 0x1f <__rc15>
    317d: a6 1a        	ldx	$1a                     ; 0x1a <__rc10>
    317f: a5 1c        	lda	$1c                     ; 0x1c <__rc12>
    3181: 85 18        	sta	$18                     ; 0x18 <__rc8>
    3183: a5 14        	lda	$14                     ; 0x14 <__rc4>
    3185: 0a           	asl
    3186: 64 16        	stz	$16                     ; 0x16 <__rc6>
    3188: 26 16        	rol	$16                     ; 0x16 <__rc6>
    318a: 0a           	asl
    318b: 26 16        	rol	$16                     ; 0x16 <__rc6>
    318d: 0a           	asl
    318e: 26 16        	rol	$16                     ; 0x16 <__rc6>
    3190: 0a           	asl
    3191: 26 16        	rol	$16                     ; 0x16 <__rc6>
    3193: 38           	sec
    3194: e5 14        	sbc	$14                     ; 0x14 <__rc4>
    3196: 85 14        	sta	$14                     ; 0x14 <__rc4>
    3198: a5 16        	lda	$16                     ; 0x16 <__rc6>
    319a: e5 15        	sbc	$15                     ; 0x15 <__rc5>
    319c: 85 15        	sta	$15                     ; 0x15 <__rc5>
    319e: 8a           	txa
    319f: 5a           	phy
    31a0: a4 1d        	ldy	$1d                     ; 0x1d <__rc13>
    31a2: c0 01        	cpy	#$1
    31a4: 65 14        	adc	$14                     ; 0x14 <__rc4>
    31a6: 85 16        	sta	$16                     ; 0x16 <__rc6>
    31a8: a5 18        	lda	$18                     ; 0x18 <__rc8>
    31aa: 65 15        	adc	$15                     ; 0x15 <__rc5>
    31ac: a4 16        	ldy	$16                     ; 0x16 <__rc6>
    31ae: 84 14        	sty	$14                     ; 0x14 <__rc4>
    31b0: 7a           	ply
    31b1: 85 15        	sta	$15                     ; 0x15 <__rc5>
    31b3: 85 17        	sta	$17                     ; 0x17 <__rc7>
    31b5: 18           	clc
    31b6: a5 16        	lda	$16                     ; 0x16 <__rc6>
    31b8: 69 09        	adc	#$9
    31ba: 85 16        	sta	$16                     ; 0x16 <__rc6>
    31bc: a5 17        	lda	$17                     ; 0x17 <__rc7>
    31be: 69 00        	adc	#$0
    31c0: 85 17        	sta	$17                     ; 0x17 <__rc7>
    31c2: 84 1c        	sty	$1c                     ; 0x1c <__rc12>
    31c4: a4 1f        	ldy	$1f                     ; 0x1f <__rc15>
    31c6: b1 14        	lda	($14),y                 ; 0x14 <__rc4>
    31c8: 85 14        	sta	$14                     ; 0x14 <__rc4>
    31ca: a4 2b        	ldy	$2b                     ; 0x2b <__rc27>
    31cc: b1 16        	lda	($16),y                 ; 0x16 <__rc6>
    31ce: 85 15        	sta	$15                     ; 0x15 <__rc5>
    31d0: a9 00        	lda	#$0
    31d2: a4 1c        	ldy	$1c                     ; 0x1c <__rc12>
    31d4: 91 14        	sta	($14),y                 ; 0x14 <__rc4>
    31d6: a4 1e        	ldy	$1e                     ; 0x1e <__rc14>
    31d8: b1 12        	lda	($12),y                 ; 0x12 <__rc2>
    31da: 85 14        	sta	$14                     ; 0x14 <__rc4>
    31dc: 0a           	asl
    31dd: 64 16        	stz	$16                     ; 0x16 <__rc6>
    31df: 26 16        	rol	$16                     ; 0x16 <__rc6>
    31e1: 0a           	asl
    31e2: 26 16        	rol	$16                     ; 0x16 <__rc6>
    31e4: 0a           	asl
    31e5: 26 16        	rol	$16                     ; 0x16 <__rc6>
    31e7: 0a           	asl
    31e8: 26 16        	rol	$16                     ; 0x16 <__rc6>
    31ea: 38           	sec
    31eb: e5 14        	sbc	$14                     ; 0x14 <__rc4>
    31ed: 85 15        	sta	$15                     ; 0x15 <__rc5>
    31ef: a5 16        	lda	$16                     ; 0x16 <__rc6>
    31f1: e9 00        	sbc	#$0
    31f3: 85 16        	sta	$16                     ; 0x16 <__rc6>
    31f5: 8a           	txa
    31f6: a4 1d        	ldy	$1d                     ; 0x1d <__rc13>
    31f8: c0 01        	cpy	#$1
    31fa: 65 15        	adc	$15                     ; 0x15 <__rc5>
    31fc: 85 15        	sta	$15                     ; 0x15 <__rc5>
    31fe: a5 18        	lda	$18                     ; 0x18 <__rc8>
    3200: 65 16        	adc	$16                     ; 0x16 <__rc6>
    3202: 85 17        	sta	$17                     ; 0x17 <__rc7>
    3204: a4 15        	ldy	$15                     ; 0x15 <__rc5>
    3206: 84 16        	sty	$16                     ; 0x16 <__rc6>
    3208: a4 1c        	ldy	$1c                     ; 0x1c <__rc12>
    320a: c8           	iny
    320b: 98           	tya
    320c: a4 1b        	ldy	$1b                     ; 0x1b <__rc11>
    320e: d1 16        	cmp	($16),y                 ; 0x16 <__rc6>
    3210: 64 15        	stz	$15                     ; 0x15 <__rc5>
    3212: a8           	tay
    3213: b0 03        	bcs	$3218 <f256main+0x28c0>
    3215: 4c 83 31     	jmp	$3183 <f256main+0x282b>
    3218: 4c c4 2f     	jmp	$2fc4 <f256main+0x266c>
    321b: 64 12        	stz	$12                     ; 0x12 <__rc2>
    321d: 64 13        	stz	$13                     ; 0x13 <__rc3>
    321f: a0 09        	ldy	#$9
    3221: b1 24        	lda	($24),y                 ; 0x24 <__rc20>
    3223: a2 00        	ldx	#$0
    3225: e4 13        	cpx	$13                     ; 0x13 <__rc3>
    3227: d0 08        	bne	$3231 <f256main+0x28d9>
    3229: aa           	tax
    322a: a5 12        	lda	$12                     ; 0x12 <__rc2>
    322c: 49 ff        	eor	#$ff
    322e: 85 13        	sta	$13                     ; 0x13 <__rc3>
    3230: 8a           	txa
    3231: e4 13        	cpx	$13                     ; 0x13 <__rc3>
    3233: 90 03        	bcc	$3238 <f256main+0x28e0>
    3235: 4c a1 0f     	jmp	$fa1 <f256main+0x649>
    3238: a2 01        	ldx	#$1
    323a: 86 2b        	stx	$2b                     ; 0x2b <__rc27>
    323c: 18           	clc
    323d: 65 12        	adc	$12                     ; 0x12 <__rc2>
    323f: 1a           	inc
    3240: 91 24        	sta	($24),y                 ; 0x24 <__rc20>
    3242: 84 26        	sty	$26                     ; 0x26 <__rc22>
    3244: 20 dd 3d     	jsr	$3ddd <prepTempoLUT>
    3247: a4 26        	ldy	$26                     ; 0x26 <__rc22>
    3249: b1 24        	lda	($24),y                 ; 0x24 <__rc20>
    324b: 20 51 55     	jsr	$5551 <updateTempoText>
    324e: a2 b0        	ldx	#$b0
    3250: 8e b1 dd     	stx	$ddb1                   ; 0xddb1 <end_block9+0x4513>
    3253: a0 7b        	ldy	#$7b
    3255: 8c b1 dd     	sty	$ddb1                   ; 0xddb1 <end_block9+0x4513>
    3258: 9c b1 dd     	stz	$ddb1                   ; 0xddb1 <end_block9+0x4513>
    325b: 8e a1 dd     	stx	$dda1                   ; 0xdda1 <end_block9+0x4503>
    325e: 8c a1 dd     	sty	$dda1                   ; 0xdda1 <end_block9+0x4503>
    3261: 9c a1 dd     	stz	$dda1                   ; 0xdda1 <end_block9+0x4503>
    3264: e8           	inx
    3265: 8e b1 dd     	stx	$ddb1                   ; 0xddb1 <end_block9+0x4513>
    3268: 8c b1 dd     	sty	$ddb1                   ; 0xddb1 <end_block9+0x4513>
    326b: 9c b1 dd     	stz	$ddb1                   ; 0xddb1 <end_block9+0x4513>
    326e: 8e a1 dd     	stx	$dda1                   ; 0xdda1 <end_block9+0x4503>
    3271: 8c a1 dd     	sty	$dda1                   ; 0xdda1 <end_block9+0x4503>
    3274: 9c a1 dd     	stz	$dda1                   ; 0xdda1 <end_block9+0x4503>
    3277: a2 b9        	ldx	#$b9
    3279: 8e b1 dd     	stx	$ddb1                   ; 0xddb1 <end_block9+0x4513>
    327c: 8c b1 dd     	sty	$ddb1                   ; 0xddb1 <end_block9+0x4513>
    327f: 9c b1 dd     	stz	$ddb1                   ; 0xddb1 <end_block9+0x4513>
    3282: 8e a1 dd     	stx	$dda1                   ; 0xdda1 <end_block9+0x4503>
    3285: 8c a1 dd     	sty	$dda1                   ; 0xdda1 <end_block9+0x4503>
    3288: 9c a1 dd     	stz	$dda1                   ; 0xdda1 <end_block9+0x4503>
    328b: a6 3b        	ldx	$3b                     ; 0x3b <theBeats>
    328d: 86 1a        	stx	$1a                     ; 0x1a <__rc10>
    328f: a6 3c        	ldx	$3c                     ; 0x3c <theBeats+0x1>
    3291: 86 19        	stx	$19                     ; 0x19 <__rc9>
    3293: a6 7f        	ldx	$7f                     ; 0x7f <gPtr>
    3295: a4 80        	ldy	$80                     ; 0x80 <gPtr+0x1>
    3297: 86 12        	stx	$12                     ; 0x12 <__rc2>
    3299: 84 13        	sty	$13                     ; 0x13 <__rc3>
    329b: a0 08        	ldy	#$8
    329d: a2 08        	ldx	#$8
    329f: 86 18        	stx	$18                     ; 0x18 <__rc8>
    32a1: b1 12        	lda	($12),y                 ; 0x12 <__rc2>
    32a3: 85 14        	sta	$14                     ; 0x14 <__rc4>
    32a5: 64 15        	stz	$15                     ; 0x15 <__rc5>
    32a7: 0a           	asl
    32a8: 64 17        	stz	$17                     ; 0x17 <__rc7>
    32aa: 26 17        	rol	$17                     ; 0x17 <__rc7>
    32ac: 0a           	asl
    32ad: 26 17        	rol	$17                     ; 0x17 <__rc7>
    32af: 0a           	asl
    32b0: 26 17        	rol	$17                     ; 0x17 <__rc7>
    32b2: 0a           	asl
    32b3: 26 17        	rol	$17                     ; 0x17 <__rc7>
    32b5: 38           	sec
    32b6: e5 14        	sbc	$14                     ; 0x14 <__rc4>
    32b8: 85 16        	sta	$16                     ; 0x16 <__rc6>
    32ba: a5 17        	lda	$17                     ; 0x17 <__rc7>
    32bc: e9 00        	sbc	#$0
    32be: 85 17        	sta	$17                     ; 0x17 <__rc7>
    32c0: a5 1a        	lda	$1a                     ; 0x1a <__rc10>
    32c2: 18           	clc
    32c3: a2 00        	ldx	#$0
    32c5: 65 16        	adc	$16                     ; 0x16 <__rc6>
    32c7: 85 16        	sta	$16                     ; 0x16 <__rc6>
    32c9: a5 19        	lda	$19                     ; 0x19 <__rc9>
    32cb: 85 1c        	sta	$1c                     ; 0x1c <__rc12>
    32cd: 65 17        	adc	$17                     ; 0x17 <__rc7>
    32cf: 85 17        	sta	$17                     ; 0x17 <__rc7>
    32d1: a0 04        	ldy	#$4
    32d3: 98           	tya
    32d4: 85 1b        	sta	$1b                     ; 0x1b <__rc11>
    32d6: b1 16        	lda	($16),y                 ; 0x16 <__rc6>
    32d8: a4 2b        	ldy	$2b                     ; 0x2b <__rc27>
    32da: 84 19        	sty	$19                     ; 0x19 <__rc9>
    32dc: a4 2c        	ldy	$2c                     ; 0x2c <__rc28>
    32de: 84 1e        	sty	$1e                     ; 0x1e <__rc14>
    32e0: a8           	tay
    32e1: d0 03        	bne	$32e6 <f256main+0x298e>
    32e3: 4c a1 0f     	jmp	$fa1 <f256main+0x649>
    32e6: a0 00        	ldy	#$0
    32e8: 86 1d        	stx	$1d                     ; 0x1d <__rc13>
    32ea: a6 18        	ldx	$18                     ; 0x18 <__rc8>
    32ec: 86 1e        	stx	$1e                     ; 0x1e <__rc14>
    32ee: a2 09        	ldx	#$9
    32f0: 86 1f        	stx	$1f                     ; 0x1f <__rc15>
    32f2: a6 1a        	ldx	$1a                     ; 0x1a <__rc10>
    32f4: a5 1c        	lda	$1c                     ; 0x1c <__rc12>
    32f6: 85 18        	sta	$18                     ; 0x18 <__rc8>
    32f8: a5 14        	lda	$14                     ; 0x14 <__rc4>
    32fa: 0a           	asl
    32fb: 64 16        	stz	$16                     ; 0x16 <__rc6>
    32fd: 26 16        	rol	$16                     ; 0x16 <__rc6>
    32ff: 0a           	asl
    3300: 26 16        	rol	$16                     ; 0x16 <__rc6>
    3302: 0a           	asl
    3303: 26 16        	rol	$16                     ; 0x16 <__rc6>
    3305: 0a           	asl
    3306: 26 16        	rol	$16                     ; 0x16 <__rc6>
    3308: 38           	sec
    3309: e5 14        	sbc	$14                     ; 0x14 <__rc4>
    330b: 85 14        	sta	$14                     ; 0x14 <__rc4>
    330d: a5 16        	lda	$16                     ; 0x16 <__rc6>
    330f: e5 15        	sbc	$15                     ; 0x15 <__rc5>
    3311: 85 15        	sta	$15                     ; 0x15 <__rc5>
    3313: 8a           	txa
    3314: 5a           	phy
    3315: a4 1d        	ldy	$1d                     ; 0x1d <__rc13>
    3317: c0 01        	cpy	#$1
    3319: 65 14        	adc	$14                     ; 0x14 <__rc4>
    331b: 85 16        	sta	$16                     ; 0x16 <__rc6>
    331d: a5 18        	lda	$18                     ; 0x18 <__rc8>
    331f: 65 15        	adc	$15                     ; 0x15 <__rc5>
    3321: a4 16        	ldy	$16                     ; 0x16 <__rc6>
    3323: 84 14        	sty	$14                     ; 0x14 <__rc4>
    3325: 7a           	ply
    3326: 85 15        	sta	$15                     ; 0x15 <__rc5>
    3328: 85 17        	sta	$17                     ; 0x17 <__rc7>
    332a: 18           	clc
    332b: a5 16        	lda	$16                     ; 0x16 <__rc6>
    332d: 69 09        	adc	#$9
    332f: 85 16        	sta	$16                     ; 0x16 <__rc6>
    3331: a5 17        	lda	$17                     ; 0x17 <__rc7>
    3333: 69 00        	adc	#$0
    3335: 85 17        	sta	$17                     ; 0x17 <__rc7>
    3337: 84 1c        	sty	$1c                     ; 0x1c <__rc12>
    3339: a4 1f        	ldy	$1f                     ; 0x1f <__rc15>
    333b: b1 14        	lda	($14),y                 ; 0x14 <__rc4>
    333d: 85 14        	sta	$14                     ; 0x14 <__rc4>
    333f: a4 2b        	ldy	$2b                     ; 0x2b <__rc27>
    3341: b1 16        	lda	($16),y                 ; 0x16 <__rc6>
    3343: 85 15        	sta	$15                     ; 0x15 <__rc5>
    3345: a9 00        	lda	#$0
    3347: a4 1c        	ldy	$1c                     ; 0x1c <__rc12>
    3349: 91 14        	sta	($14),y                 ; 0x14 <__rc4>
    334b: a4 1e        	ldy	$1e                     ; 0x1e <__rc14>
    334d: b1 12        	lda	($12),y                 ; 0x12 <__rc2>
    334f: 85 14        	sta	$14                     ; 0x14 <__rc4>
    3351: 0a           	asl
    3352: 64 16        	stz	$16                     ; 0x16 <__rc6>
    3354: 26 16        	rol	$16                     ; 0x16 <__rc6>
    3356: 0a           	asl
    3357: 26 16        	rol	$16                     ; 0x16 <__rc6>
    3359: 0a           	asl
    335a: 26 16        	rol	$16                     ; 0x16 <__rc6>
    335c: 0a           	asl
    335d: 26 16        	rol	$16                     ; 0x16 <__rc6>
    335f: 38           	sec
    3360: e5 14        	sbc	$14                     ; 0x14 <__rc4>
    3362: 85 15        	sta	$15                     ; 0x15 <__rc5>
    3364: a5 16        	lda	$16                     ; 0x16 <__rc6>
    3366: e9 00        	sbc	#$0
    3368: 85 16        	sta	$16                     ; 0x16 <__rc6>
    336a: 8a           	txa
    336b: a4 1d        	ldy	$1d                     ; 0x1d <__rc13>
    336d: c0 01        	cpy	#$1
    336f: 65 15        	adc	$15                     ; 0x15 <__rc5>
    3371: 85 15        	sta	$15                     ; 0x15 <__rc5>
    3373: a5 18        	lda	$18                     ; 0x18 <__rc8>
    3375: 65 16        	adc	$16                     ; 0x16 <__rc6>
    3377: 85 17        	sta	$17                     ; 0x17 <__rc7>
    3379: a4 15        	ldy	$15                     ; 0x15 <__rc5>
    337b: 84 16        	sty	$16                     ; 0x16 <__rc6>
    337d: a4 1c        	ldy	$1c                     ; 0x1c <__rc12>
    337f: c8           	iny
    3380: 98           	tya
    3381: a4 1b        	ldy	$1b                     ; 0x1b <__rc11>
    3383: d1 16        	cmp	($16),y                 ; 0x16 <__rc6>
    3385: 64 15        	stz	$15                     ; 0x15 <__rc5>
    3387: a8           	tay
    3388: b0 03        	bcs	$338d <f256main+0x2a35>
    338a: 4c f8 32     	jmp	$32f8 <f256main+0x29a0>
    338d: 4c c4 2f     	jmp	$2fc4 <f256main+0x266c>

00003390 <textPrint>:
    3390: a6 01        	ldx	$1                      ; 0x1 <__data_size+0x1>
    3392: 86 ed        	stx	$ed                     ; 0xed <__zp_bss_size+0x98>
    3394: a6 34        	ldx	$34                     ; 0x34 <_row>
    3396: a0 50        	ldy	#$50
    3398: 8c 00 de     	sty	$de00                   ; 0xde00 <end_block9+0x4562>
    339b: 9c 01 de     	stz	$de01                   ; 0xde01 <end_block9+0x4563>
    339e: 8e 02 de     	stx	$de02                   ; 0xde02 <end_block9+0x4564>
    33a1: 9c 03 de     	stz	$de03                   ; 0xde03 <end_block9+0x4565>
    33a4: ae 10 de     	ldx	$de10                   ; 0xde10 <end_block9+0x4572>
    33a7: ad 11 de     	lda	$de11                   ; 0xde11 <end_block9+0x4573>
    33aa: 85 15        	sta	$15                     ; 0x15 <__rc5>
    33ac: ad 12 de     	lda	$de12                   ; 0xde12 <end_block9+0x4574>
    33af: 85 1c        	sta	$1c                     ; 0x1c <__rc12>
    33b1: ad 13 de     	lda	$de13                   ; 0xde13 <end_block9+0x4575>
    33b4: 85 1d        	sta	$1d                     ; 0x1d <__rc13>
    33b6: 9c 08 de     	stz	$de08                   ; 0xde08 <end_block9+0x456a>
    33b9: a9 c0        	lda	#$c0
    33bb: 8d 09 de     	sta	$de09                   ; 0xde09 <end_block9+0x456b>
    33be: 9c 0a de     	stz	$de0a                   ; 0xde0a <end_block9+0x456c>
    33c1: 9c 0b de     	stz	$de0b                   ; 0xde0b <end_block9+0x456d>
    33c4: 8e 0c de     	stx	$de0c                   ; 0xde0c <end_block9+0x456e>
    33c7: 64 14        	stz	$14                     ; 0x14 <__rc4>
    33c9: a2 00        	ldx	#$0
    33cb: 86 16        	stx	$16                     ; 0x16 <__rc6>
    33cd: a2 c0        	ldx	#$c0
    33cf: 86 17        	stx	$17                     ; 0x17 <__rc7>
    33d1: a2 11        	ldx	#$11
    33d3: 86 18        	stx	$18                     ; 0x18 <__rc8>
    33d5: a2 c9        	ldx	#$c9
    33d7: 86 19        	stx	$19                     ; 0x19 <__rc9>
    33d9: a2 10        	ldx	#$10
    33db: 86 1a        	stx	$1a                     ; 0x1a <__rc10>
    33dd: a2 c9        	ldx	#$c9
    33df: 86 1b        	stx	$1b                     ; 0x1b <__rc11>
    33e1: a6 15        	ldx	$15                     ; 0x15 <__rc5>
    33e3: 8e 0d de     	stx	$de0d                   ; 0xde0d <end_block9+0x456f>
    33e6: a6 1c        	ldx	$1c                     ; 0x1c <__rc12>
    33e8: 8e 0e de     	stx	$de0e                   ; 0xde0e <end_block9+0x4570>
    33eb: a6 1d        	ldx	$1d                     ; 0x1d <__rc13>
    33ed: 8e 0f de     	stx	$de0f                   ; 0xde0f <end_block9+0x4571>
    33f0: ae 18 de     	ldx	$de18                   ; 0xde18 <end_block9+0x457a>
    33f3: 86 1c        	stx	$1c                     ; 0x1c <__rc12>
    33f5: ad 19 de     	lda	$de19                   ; 0xde19 <end_block9+0x457b>
    33f8: ae 1a de     	ldx	$de1a                   ; 0xde1a <end_block9+0x457c>
    33fb: ae 1b de     	ldx	$de1b                   ; 0xde1b <end_block9+0x457d>
    33fe: 85 1d        	sta	$1d                     ; 0x1d <__rc13>
    3400: 64 15        	stz	$15                     ; 0x15 <__rc5>
    3402: a2 20        	ldx	#$20
    3404: 86 ef        	stx	$ef                     ; 0xef <__zp_bss_size+0x9a>
    3406: 80 13        	bra	$341b <textPrint+0x8b>
    3408: a5 1c        	lda	$1c                     ; 0x1c <__rc12>
    340a: 18           	clc
    340b: 69 50        	adc	#$50
    340d: 85 1c        	sta	$1c                     ; 0x1c <__rc12>
    340f: a5 1d        	lda	$1d                     ; 0x1d <__rc13>
    3411: 69 00        	adc	#$0
    3413: 85 1d        	sta	$1d                     ; 0x1d <__rc13>
    3415: e6 14        	inc	$14                     ; 0x14 <__rc4>
    3417: d0 02        	bne	$341b <textPrint+0x8b>
    3419: e6 15        	inc	$15                     ; 0x15 <__rc5>
    341b: a5 12        	lda	$12                     ; 0x12 <__rc2>
    341d: 18           	clc
    341e: 65 14        	adc	$14                     ; 0x14 <__rc4>
    3420: 85 1e        	sta	$1e                     ; 0x1e <__rc14>
    3422: a5 13        	lda	$13                     ; 0x13 <__rc3>
    3424: 65 15        	adc	$15                     ; 0x15 <__rc5>
    3426: 85 1f        	sta	$1f                     ; 0x1f <__rc15>
    3428: b2 1e        	lda	($1e)                   ; 0x1e <__rc14>
    342a: c9 0a        	cmp	#$a
    342c: f0 2a        	beq	$3458 <textPrint+0xc8>
    342e: c9 0d        	cmp	#$d
    3430: f0 26        	beq	$3458 <textPrint+0xc8>
    3432: aa           	tax
    3433: d0 03        	bne	$3438 <textPrint+0xa8>
    3435: 4c 47 35     	jmp	$3547 <textPrint+0x1b7>
    3438: a2 03        	ldx	#$3
    343a: 86 01        	stx	$1                      ; 0x1 <__data_size+0x1>
    343c: a5 30        	lda	$30                     ; 0x30 <_ccolor>
    343e: 84 22        	sty	$22                     ; 0x22 <__rc18>
    3440: a4 33        	ldy	$33                     ; 0x33 <_col>
    3442: 91 1c        	sta	($1c),y                 ; 0x1c <__rc12>
    3444: ca           	dex
    3445: 86 01        	stx	$1                      ; 0x1 <__data_size+0x1>
    3447: b2 1e        	lda	($1e)                   ; 0x1e <__rc14>
    3449: a4 33        	ldy	$33                     ; 0x33 <_col>
    344b: 91 1c        	sta	($1c),y                 ; 0x1c <__rc12>
    344d: a4 22        	ldy	$22                     ; 0x22 <__rc18>
    344f: a6 33        	ldx	$33                     ; 0x33 <_col>
    3451: e8           	inx
    3452: e6 33        	inc	$33                     ; 0x33 <_col>
    3454: e0 50        	cpx	#$50
    3456: d0 bd        	bne	$3415 <textPrint+0x85>
    3458: 64 33        	stz	$33                     ; 0x33 <_col>
    345a: a6 34        	ldx	$34                     ; 0x34 <_row>
    345c: e8           	inx
    345d: e6 34        	inc	$34                     ; 0x34 <_row>
    345f: e0 1e        	cpx	#$1e
    3461: f0 03        	beq	$3466 <textPrint+0xd6>
    3463: 4c 08 34     	jmp	$3408 <textPrint+0x78>
    3466: a2 50        	ldx	#$50
    3468: 86 ee        	stx	$ee                     ; 0xee <__zp_bss_size+0x99>
    346a: a2 03        	ldx	#$3
    346c: 86 01        	stx	$1                      ; 0x1 <__data_size+0x1>
    346e: a2 01        	ldx	#$1
    3470: 86 1c        	stx	$1c                     ; 0x1c <__rc12>
    3472: a2 09        	ldx	#$9
    3474: a9 10        	lda	#$10
    3476: a0 00        	ldy	#$0
    3478: 84 1e        	sty	$1e                     ; 0x1e <__rc14>
    347a: a0 c0        	ldy	#$c0
    347c: 84 1f        	sty	$1f                     ; 0x1f <__rc15>
    347e: 85 1d        	sta	$1d                     ; 0x1d <__rc13>
    3480: a4 ee        	ldy	$ee                     ; 0xee <__zp_bss_size+0x99>
    3482: b1 1e        	lda	($1e),y                 ; 0x1e <__rc14>
    3484: 92 1e        	sta	($1e)                   ; 0x1e <__rc14>
    3486: a9 ff        	lda	#$ff
    3488: c6 1d        	dec	$1d                     ; 0x1d <__rc13>
    348a: c5 1d        	cmp	$1d                     ; 0x1d <__rc13>
    348c: d0 01        	bne	$348f <textPrint+0xff>
    348e: ca           	dex
    348f: e6 1e        	inc	$1e                     ; 0x1e <__rc14>
    3491: d0 02        	bne	$3495 <textPrint+0x105>
    3493: e6 1f        	inc	$1f                     ; 0x1f <__rc15>
    3495: 8a           	txa
    3496: d0 ea        	bne	$3482 <textPrint+0xf2>
    3498: a5 1d        	lda	$1d                     ; 0x1d <__rc13>
    349a: d0 e6        	bne	$3482 <textPrint+0xf2>
    349c: a2 50        	ldx	#$50
    349e: 86 ee        	stx	$ee                     ; 0xee <__zp_bss_size+0x99>
    34a0: a2 02        	ldx	#$2
    34a2: 86 01        	stx	$1                      ; 0x1 <__data_size+0x1>
    34a4: a2 00        	ldx	#$0
    34a6: a5 1c        	lda	$1c                     ; 0x1c <__rc12>
    34a8: d0 c6        	bne	$3470 <textPrint+0xe0>
    34aa: a2 03        	ldx	#$3
    34ac: 86 01        	stx	$1                      ; 0x1 <__data_size+0x1>
    34ae: a5 30        	lda	$30                     ; 0x30 <_ccolor>
    34b0: a2 50        	ldx	#$50
    34b2: a0 11        	ldy	#$11
    34b4: 84 1c        	sty	$1c                     ; 0x1c <__rc12>
    34b6: a0 c9        	ldy	#$c9
    34b8: 84 1d        	sty	$1d                     ; 0x1d <__rc13>
    34ba: a0 10        	ldy	#$10
    34bc: 84 1e        	sty	$1e                     ; 0x1e <__rc14>
    34be: a0 c9        	ldy	#$c9
    34c0: 84 1f        	sty	$1f                     ; 0x1f <__rc15>
    34c2: a4 1e        	ldy	$1e                     ; 0x1e <__rc14>
    34c4: 84 22        	sty	$22                     ; 0x22 <__rc18>
    34c6: a4 1f        	ldy	$1f                     ; 0x1f <__rc15>
    34c8: 84 23        	sty	$23                     ; 0x23 <__rc19>
    34ca: a4 1c        	ldy	$1c                     ; 0x1c <__rc12>
    34cc: 84 1e        	sty	$1e                     ; 0x1e <__rc14>
    34ce: a4 1d        	ldy	$1d                     ; 0x1d <__rc13>
    34d0: 84 1f        	sty	$1f                     ; 0x1f <__rc15>
    34d2: 92 22        	sta	($22)                   ; 0x22 <__rc18>
    34d4: e6 1c        	inc	$1c                     ; 0x1c <__rc12>
    34d6: d0 02        	bne	$34da <textPrint+0x14a>
    34d8: e6 1d        	inc	$1d                     ; 0x1d <__rc13>
    34da: ca           	dex
    34db: d0 e5        	bne	$34c2 <textPrint+0x132>
    34dd: a2 02        	ldx	#$2
    34df: 86 01        	stx	$1                      ; 0x1 <__data_size+0x1>
    34e1: a2 50        	ldx	#$50
    34e3: a0 11        	ldy	#$11
    34e5: 84 1c        	sty	$1c                     ; 0x1c <__rc12>
    34e7: a0 c9        	ldy	#$c9
    34e9: 84 1d        	sty	$1d                     ; 0x1d <__rc13>
    34eb: a0 10        	ldy	#$10
    34ed: 84 1e        	sty	$1e                     ; 0x1e <__rc14>
    34ef: a0 c9        	ldy	#$c9
    34f1: 84 1f        	sty	$1f                     ; 0x1f <__rc15>
    34f3: a5 ef        	lda	$ef                     ; 0xef <__zp_bss_size+0x9a>
    34f5: a4 1e        	ldy	$1e                     ; 0x1e <__rc14>
    34f7: 84 22        	sty	$22                     ; 0x22 <__rc18>
    34f9: a4 1f        	ldy	$1f                     ; 0x1f <__rc15>
    34fb: 84 23        	sty	$23                     ; 0x23 <__rc19>
    34fd: a4 1c        	ldy	$1c                     ; 0x1c <__rc12>
    34ff: 84 1e        	sty	$1e                     ; 0x1e <__rc14>
    3501: a4 1d        	ldy	$1d                     ; 0x1d <__rc13>
    3503: 84 1f        	sty	$1f                     ; 0x1f <__rc15>
    3505: 92 22        	sta	($22)                   ; 0x22 <__rc18>
    3507: e6 1c        	inc	$1c                     ; 0x1c <__rc12>
    3509: d0 02        	bne	$350d <textPrint+0x17d>
    350b: e6 1d        	inc	$1d                     ; 0x1d <__rc13>
    350d: ca           	dex
    350e: d0 e5        	bne	$34f5 <textPrint+0x165>
    3510: a2 20        	ldx	#$20
    3512: 86 ef        	stx	$ef                     ; 0xef <__zp_bss_size+0x9a>
    3514: c6 34        	dec	$34                     ; 0x34 <_row>
    3516: 9c 08 de     	stz	$de08                   ; 0xde08 <end_block9+0x456a>
    3519: a2 c0        	ldx	#$c0
    351b: 8e 09 de     	stx	$de09                   ; 0xde09 <end_block9+0x456b>
    351e: 9c 0a de     	stz	$de0a                   ; 0xde0a <end_block9+0x456c>
    3521: 9c 0b de     	stz	$de0b                   ; 0xde0b <end_block9+0x456d>
    3524: a2 1d        	ldx	#$1d
    3526: 8e 0c de     	stx	$de0c                   ; 0xde0c <end_block9+0x456e>
    3529: 9c 0d de     	stz	$de0d                   ; 0xde0d <end_block9+0x456f>
    352c: 9c 0e de     	stz	$de0e                   ; 0xde0e <end_block9+0x4570>
    352f: 9c 0f de     	stz	$de0f                   ; 0xde0f <end_block9+0x4571>
    3532: ae 18 de     	ldx	$de18                   ; 0xde18 <end_block9+0x457a>
    3535: ac 19 de     	ldy	$de19                   ; 0xde19 <end_block9+0x457b>
    3538: ad 1a de     	lda	$de1a                   ; 0xde1a <end_block9+0x457c>
    353b: ad 1b de     	lda	$de1b                   ; 0xde1b <end_block9+0x457d>
    353e: 86 1c        	stx	$1c                     ; 0x1c <__rc12>
    3540: 84 1d        	sty	$1d                     ; 0x1d <__rc13>
    3542: a4 ee        	ldy	$ee                     ; 0xee <__zp_bss_size+0x99>
    3544: 4c 15 34     	jmp	$3415 <textPrint+0x85>
    3547: a6 ed        	ldx	$ed                     ; 0xed <__zp_bss_size+0x98>
    3549: 86 01        	stx	$1                      ; 0x1 <__data_size+0x1>
    354b: a6 33        	ldx	$33                     ; 0x33 <_col>
    354d: a4 34        	ldy	$34                     ; 0x34 <_row>
    354f: 8e 14 d0     	stx	$d014                   ; 0xd014 <end_block9+0x3776>
    3552: 9c 15 d0     	stz	$d015                   ; 0xd015 <end_block9+0x3777>
    3555: 84 34        	sty	$34                     ; 0x34 <_row>
    3557: 8c 16 d0     	sty	$d016                   ; 0xd016 <end_block9+0x3778>
    355a: 9c 17 d0     	stz	$d017                   ; 0xd017 <end_block9+0x3779>
    355d: 60           	rts

0000355e <launchBeat>:
    355e: 18           	clc
    355f: a5 10        	lda	$10                     ; 0x10 <__rc0>
    3561: 69 f0        	adc	#$f0
    3563: 85 10        	sta	$10                     ; 0x10 <__rc0>
    3565: a5 11        	lda	$11                     ; 0x11 <__rc1>
    3567: 69 ff        	adc	#$ff
    3569: 85 11        	sta	$11                     ; 0x11 <__rc1>
    356b: a6 24        	ldx	$24                     ; 0x24 <__rc20>
    356d: da           	phx
    356e: a6 25        	ldx	$25                     ; 0x25 <__rc21>
    3570: da           	phx
    3571: a6 26        	ldx	$26                     ; 0x26 <__rc22>
    3573: da           	phx
    3574: a6 27        	ldx	$27                     ; 0x27 <__rc23>
    3576: da           	phx
    3577: a5 28        	lda	$28                     ; 0x28 <__rc24>
    3579: a0 07        	ldy	#$7
    357b: 91 10        	sta	($10),y                 ; 0x10 <__rc0>
    357d: a5 29        	lda	$29                     ; 0x29 <__rc25>
    357f: 88           	dey
    3580: 91 10        	sta	($10),y                 ; 0x10 <__rc0>
    3582: a5 2a        	lda	$2a                     ; 0x2a <__rc26>
    3584: 88           	dey
    3585: 91 10        	sta	($10),y                 ; 0x10 <__rc0>
    3587: a5 2b        	lda	$2b                     ; 0x2b <__rc27>
    3589: 88           	dey
    358a: 91 10        	sta	($10),y                 ; 0x10 <__rc0>
    358c: a5 2c        	lda	$2c                     ; 0x2c <__rc28>
    358e: 88           	dey
    358f: 91 10        	sta	($10),y                 ; 0x10 <__rc0>
    3591: a5 2d        	lda	$2d                     ; 0x2d <__rc29>
    3593: 88           	dey
    3594: 91 10        	sta	($10),y                 ; 0x10 <__rc0>
    3596: a5 2e        	lda	$2e                     ; 0x2e <__rc30>
    3598: 88           	dey
    3599: 91 10        	sta	($10),y                 ; 0x10 <__rc0>
    359b: a5 2f        	lda	$2f                     ; 0x2f <__rc31>
    359d: 88           	dey
    359e: 91 10        	sta	($10),y                 ; 0x10 <__rc0>
    35a0: 18           	clc
    35a1: a5 10        	lda	$10                     ; 0x10 <__rc0>
    35a3: 69 0d        	adc	#$d
    35a5: 85 26        	sta	$26                     ; 0x26 <__rc22>
    35a7: a5 11        	lda	$11                     ; 0x11 <__rc1>
    35a9: 69 00        	adc	#$0
    35ab: 85 27        	sta	$27                     ; 0x27 <__rc23>
    35ad: 98           	tya
    35ae: 92 26        	sta	($26)                   ; 0x26 <__rc22>
    35b0: 18           	clc
    35b1: 48           	pha
    35b2: a5 10        	lda	$10                     ; 0x10 <__rc0>
    35b4: 69 0c        	adc	#$c
    35b6: 85 28        	sta	$28                     ; 0x28 <__rc24>
    35b8: a5 11        	lda	$11                     ; 0x11 <__rc1>
    35ba: 69 00        	adc	#$0
    35bc: 85 29        	sta	$29                     ; 0x29 <__rc25>
    35be: 68           	pla
    35bf: 92 28        	sta	($28)                   ; 0x28 <__rc24>
    35c1: 64 2a        	stz	$2a                     ; 0x2a <__rc26>
    35c3: a9 04        	lda	#$4
    35c5: a2 00        	ldx	#$0
    35c7: 20 03 6d     	jsr	$6d03 <malloc>
    35ca: a6 12        	ldx	$12                     ; 0x12 <__rc2>
    35cc: 86 24        	stx	$24                     ; 0x24 <__rc20>
    35ce: a6 13        	ldx	$13                     ; 0x13 <__rc3>
    35d0: 86 25        	stx	$25                     ; 0x25 <__rc21>
    35d2: a5 3b        	lda	$3b                     ; 0x3b <theBeats>
    35d4: a6 3c        	ldx	$3c                     ; 0x3c <theBeats+0x1>
    35d6: 86 12        	stx	$12                     ; 0x12 <__rc2>
    35d8: a6 7f        	ldx	$7f                     ; 0x7f <gPtr>
    35da: a4 80        	ldy	$80                     ; 0x80 <gPtr+0x1>
    35dc: 86 14        	stx	$14                     ; 0x14 <__rc4>
    35de: aa           	tax
    35df: 84 15        	sty	$15                     ; 0x15 <__rc5>
    35e1: a0 08        	ldy	#$8
    35e3: b1 14        	lda	($14),y                 ; 0x14 <__rc4>
    35e5: a4 12        	ldy	$12                     ; 0x12 <__rc2>
    35e7: 85 1a        	sta	$1a                     ; 0x1a <__rc10>
    35e9: 0a           	asl
    35ea: 26 2a        	rol	$2a                     ; 0x2a <__rc26>
    35ec: 0a           	asl
    35ed: 26 2a        	rol	$2a                     ; 0x2a <__rc26>
    35ef: 0a           	asl
    35f0: 26 2a        	rol	$2a                     ; 0x2a <__rc26>
    35f2: 0a           	asl
    35f3: 26 2a        	rol	$2a                     ; 0x2a <__rc26>
    35f5: 38           	sec
    35f6: e5 1a        	sbc	$1a                     ; 0x1a <__rc10>
    35f8: 85 12        	sta	$12                     ; 0x12 <__rc2>
    35fa: a5 2a        	lda	$2a                     ; 0x2a <__rc26>
    35fc: e9 00        	sbc	#$0
    35fe: 85 13        	sta	$13                     ; 0x13 <__rc3>
    3600: 8a           	txa
    3601: 18           	clc
    3602: 65 12        	adc	$12                     ; 0x12 <__rc2>
    3604: 85 16        	sta	$16                     ; 0x16 <__rc6>
    3606: 98           	tya
    3607: 65 13        	adc	$13                     ; 0x13 <__rc3>
    3609: 86 12        	stx	$12                     ; 0x12 <__rc2>
    360b: 84 13        	sty	$13                     ; 0x13 <__rc3>
    360d: 85 17        	sta	$17                     ; 0x17 <__rc7>
    360f: b2 16        	lda	($16)                   ; 0x16 <__rc6>
    3611: f0 06        	beq	$3619 <launchBeat+0xbb>
    3613: a2 01        	ldx	#$1
    3615: 86 38        	stx	$38                     ; 0x38 <needsToWaitExpiration>
    3617: 80 0e        	bra	$3627 <launchBeat+0xc9>
    3619: 98           	tya
    361a: a0 0a        	ldy	#$a
    361c: 91 10        	sta	($10),y                 ; 0x10 <__rc0>
    361e: a5 38        	lda	$38                     ; 0x38 <needsToWaitExpiration>
    3620: 29 01        	and	#$1
    3622: d0 03        	bne	$3627 <launchBeat+0xc9>
    3624: 4c f5 36     	jmp	$36f5 <launchBeat+0x197>
    3627: a0 04        	ldy	#$4
    3629: b1 16        	lda	($16),y                 ; 0x16 <__rc6>
    362b: d0 03        	bne	$3630 <launchBeat+0xd2>
    362d: 4c 14 3b     	jmp	$3b14 <launchBeat+0x5b6>
    3630: a9 00        	lda	#$0
    3632: 4c 9e 36     	jmp	$369e <launchBeat+0x140>
    3635: a2 00        	ldx	#$0
    3637: b4 55        	ldy	$55,x                   ; 0x55 <reservedPSG>
    3639: c0 01        	cpy	#$1
    363b: d0 02        	bne	$363f <launchBeat+0xe1>
    363d: 74 55        	stz	$55,x                   ; 0x55 <reservedPSG>
    363f: e8           	inx
    3640: e0 06        	cpx	#$6
    3642: d0 f3        	bne	$3637 <launchBeat+0xd9>
    3644: c9 03        	cmp	#$3
    3646: d0 0f        	bne	$3657 <launchBeat+0xf9>
    3648: a2 00        	ldx	#$0
    364a: b4 6d        	ldy	$6d,x                   ; 0x6d <reservedOPL3>
    364c: c0 01        	cpy	#$1
    364e: d0 02        	bne	$3652 <launchBeat+0xf4>
    3650: 74 6d        	stz	$6d,x                   ; 0x6d <reservedOPL3>
    3652: e8           	inx
    3653: e0 12        	cpx	#$12
    3655: d0 f3        	bne	$364a <launchBeat+0xec>
    3657: a6 3b        	ldx	$3b                     ; 0x3b <theBeats>
    3659: a4 3c        	ldy	$3c                     ; 0x3c <theBeats+0x1>
    365b: 86 12        	stx	$12                     ; 0x12 <__rc2>
    365d: 84 13        	sty	$13                     ; 0x13 <__rc3>
    365f: a6 7f        	ldx	$7f                     ; 0x7f <gPtr>
    3661: a4 80        	ldy	$80                     ; 0x80 <gPtr+0x1>
    3663: 86 14        	stx	$14                     ; 0x14 <__rc4>
    3665: 84 15        	sty	$15                     ; 0x15 <__rc5>
    3667: a0 08        	ldy	#$8
    3669: b1 14        	lda	($14),y                 ; 0x14 <__rc4>
    366b: 85 1a        	sta	$1a                     ; 0x1a <__rc10>
    366d: 0a           	asl
    366e: 64 14        	stz	$14                     ; 0x14 <__rc4>
    3670: 26 14        	rol	$14                     ; 0x14 <__rc4>
    3672: 0a           	asl
    3673: 26 14        	rol	$14                     ; 0x14 <__rc4>
    3675: 0a           	asl
    3676: 26 14        	rol	$14                     ; 0x14 <__rc4>
    3678: 0a           	asl
    3679: 26 14        	rol	$14                     ; 0x14 <__rc4>
    367b: 38           	sec
    367c: e5 1a        	sbc	$1a                     ; 0x1a <__rc10>
    367e: aa           	tax
    367f: a5 14        	lda	$14                     ; 0x14 <__rc4>
    3681: e9 00        	sbc	#$0
    3683: 85 14        	sta	$14                     ; 0x14 <__rc4>
    3685: 18           	clc
    3686: 8a           	txa
    3687: 65 3b        	adc	$3b                     ; 0x3b <theBeats>
    3689: aa           	tax
    368a: a5 14        	lda	$14                     ; 0x14 <__rc4>
    368c: 65 3c        	adc	$3c                     ; 0x3c <theBeats+0x1>
    368e: 85 15        	sta	$15                     ; 0x15 <__rc5>
    3690: 86 14        	stx	$14                     ; 0x14 <__rc4>
    3692: a5 2a        	lda	$2a                     ; 0x2a <__rc26>
    3694: 1a           	inc
    3695: a0 04        	ldy	#$4
    3697: d1 14        	cmp	($14),y                 ; 0x14 <__rc4>
    3699: 90 03        	bcc	$369e <launchBeat+0x140>
    369b: 4c 14 3b     	jmp	$3b14 <launchBeat+0x5b6>
    369e: a6 26        	ldx	$26                     ; 0x26 <__rc22>
    36a0: 86 14        	stx	$14                     ; 0x14 <__rc4>
    36a2: a6 27        	ldx	$27                     ; 0x27 <__rc23>
    36a4: 86 15        	stx	$15                     ; 0x15 <__rc5>
    36a6: a6 28        	ldx	$28                     ; 0x28 <__rc24>
    36a8: 86 16        	stx	$16                     ; 0x16 <__rc6>
    36aa: a6 29        	ldx	$29                     ; 0x29 <__rc25>
    36ac: 86 17        	stx	$17                     ; 0x17 <__rc7>
    36ae: a6 24        	ldx	$24                     ; 0x24 <__rc20>
    36b0: 86 18        	stx	$18                     ; 0x18 <__rc8>
    36b2: a6 25        	ldx	$25                     ; 0x25 <__rc21>
    36b4: 86 19        	stx	$19                     ; 0x19 <__rc9>
    36b6: 85 2a        	sta	$2a                     ; 0x2a <__rc26>
    36b8: aa           	tax
    36b9: a5 1a        	lda	$1a                     ; 0x1a <__rc10>
    36bb: 20 83 4a     	jsr	$4a83 <getBeatTrackNoteInfo>
    36be: b2 24        	lda	($24)                   ; 0x24 <__rc20>
    36c0: c9 03        	cmp	#$3
    36c2: d0 03        	bne	$36c7 <launchBeat+0x169>
    36c4: 4c 48 36     	jmp	$3648 <launchBeat+0xea>
    36c7: c9 02        	cmp	#$2
    36c9: d0 03        	bne	$36ce <launchBeat+0x170>
    36cb: 4c 35 36     	jmp	$3635 <launchBeat+0xd7>
    36ce: c9 01        	cmp	#$1
    36d0: f0 03        	beq	$36d5 <launchBeat+0x177>
    36d2: 4c 57 36     	jmp	$3657 <launchBeat+0xf9>
    36d5: a2 00        	ldx	#$0
    36d7: b4 49        	ldy	$49,x                   ; 0x49 <reservedSID>
    36d9: c0 01        	cpy	#$1
    36db: d0 02        	bne	$36df <launchBeat+0x181>
    36dd: 74 49        	stz	$49,x                   ; 0x49 <reservedSID>
    36df: e8           	inx
    36e0: e0 06        	cpx	#$6
    36e2: d0 f3        	bne	$36d7 <launchBeat+0x179>
    36e4: c9 03        	cmp	#$3
    36e6: d0 03        	bne	$36eb <launchBeat+0x18d>
    36e8: 4c 48 36     	jmp	$3648 <launchBeat+0xea>
    36eb: c9 02        	cmp	#$2
    36ed: d0 03        	bne	$36f2 <launchBeat+0x194>
    36ef: 4c 35 36     	jmp	$3635 <launchBeat+0xd7>
    36f2: 4c 57 36     	jmp	$3657 <launchBeat+0xf9>
    36f5: 86 2f        	stx	$2f                     ; 0x2f <__rc31>
    36f7: a9 01        	lda	#$1
    36f9: 92 16        	sta	($16)                   ; 0x16 <__rc6>
    36fb: a0 03        	ldy	#$3
    36fd: b1 16        	lda	($16),y                 ; 0x16 <__rc6>
    36ff: a0 09        	ldy	#$9
    3701: 91 14        	sta	($14),y                 ; 0x14 <__rc4>
    3703: a2 09        	ldx	#$9
    3705: 86 2e        	stx	$2e                     ; 0x2e <__rc30>
    3707: a6 12        	ldx	$12                     ; 0x12 <__rc2>
    3709: 86 2a        	stx	$2a                     ; 0x2a <__rc26>
    370b: a6 13        	ldx	$13                     ; 0x13 <__rc3>
    370d: 86 2b        	stx	$2b                     ; 0x2b <__rc27>
    370f: a6 14        	ldx	$14                     ; 0x14 <__rc4>
    3711: 86 2c        	stx	$2c                     ; 0x2c <__rc28>
    3713: a6 15        	ldx	$15                     ; 0x15 <__rc5>
    3715: 86 2d        	stx	$2d                     ; 0x2d <__rc29>
    3717: 20 dd 3d     	jsr	$3ddd <prepTempoLUT>
    371a: a4 2e        	ldy	$2e                     ; 0x2e <__rc30>
    371c: b1 2c        	lda	($2c),y                 ; 0x2c <__rc28>
    371e: 20 51 55     	jsr	$5551 <updateTempoText>
    3721: a0 08        	ldy	#$8
    3723: a2 08        	ldx	#$8
    3725: b1 2c        	lda	($2c),y                 ; 0x2c <__rc28>
    3727: 85 16        	sta	$16                     ; 0x16 <__rc6>
    3729: 0a           	asl
    372a: 64 17        	stz	$17                     ; 0x17 <__rc7>
    372c: 26 17        	rol	$17                     ; 0x17 <__rc7>
    372e: 0a           	asl
    372f: 26 17        	rol	$17                     ; 0x17 <__rc7>
    3731: 0a           	asl
    3732: 26 17        	rol	$17                     ; 0x17 <__rc7>
    3734: 0a           	asl
    3735: 26 17        	rol	$17                     ; 0x17 <__rc7>
    3737: 38           	sec
    3738: e5 16        	sbc	$16                     ; 0x16 <__rc6>
    373a: 85 16        	sta	$16                     ; 0x16 <__rc6>
    373c: a5 17        	lda	$17                     ; 0x17 <__rc7>
    373e: e9 00        	sbc	#$0
    3740: 85 17        	sta	$17                     ; 0x17 <__rc7>
    3742: a5 2f        	lda	$2f                     ; 0x2f <__rc31>
    3744: 18           	clc
    3745: 65 16        	adc	$16                     ; 0x16 <__rc6>
    3747: 85 16        	sta	$16                     ; 0x16 <__rc6>
    3749: a0 0a        	ldy	#$a
    374b: b1 10        	lda	($10),y                 ; 0x10 <__rc0>
    374d: 65 17        	adc	$17                     ; 0x17 <__rc7>
    374f: 64 18        	stz	$18                     ; 0x18 <__rc8>
    3751: 85 17        	sta	$17                     ; 0x17 <__rc7>
    3753: a0 04        	ldy	#$4
    3755: b1 16        	lda	($16),y                 ; 0x16 <__rc6>
    3757: d0 03        	bne	$375c <launchBeat+0x1fe>
    3759: 4c 14 3b     	jmp	$3b14 <launchBeat+0x5b6>
    375c: a4 2c        	ldy	$2c                     ; 0x2c <__rc28>
    375e: 84 14        	sty	$14                     ; 0x14 <__rc4>
    3760: a4 2d        	ldy	$2d                     ; 0x2d <__rc29>
    3762: 84 15        	sty	$15                     ; 0x15 <__rc5>
    3764: a4 2a        	ldy	$2a                     ; 0x2a <__rc26>
    3766: 84 12        	sty	$12                     ; 0x12 <__rc2>
    3768: a4 2b        	ldy	$2b                     ; 0x2b <__rc27>
    376a: 84 13        	sty	$13                     ; 0x13 <__rc3>
    376c: 86 1e        	stx	$1e                     ; 0x1e <__rc14>
    376e: a2 80        	ldx	#$80
    3770: 86 1a        	stx	$1a                     ; 0x1a <__rc10>
    3772: a2 d5        	ldx	#$d5
    3774: 86 1b        	stx	$1b                     ; 0x1b <__rc11>
    3776: a5 1a        	lda	$1a                     ; 0x1a <__rc10>
    3778: a0 0a        	ldy	#$a
    377a: 91 10        	sta	($10),y                 ; 0x10 <__rc0>
    377c: a5 1b        	lda	$1b                     ; 0x1b <__rc11>
    377e: c8           	iny
    377f: 91 10        	sta	($10),y                 ; 0x10 <__rc0>
    3781: a2 82        	ldx	#$82
    3783: 86 1a        	stx	$1a                     ; 0x1a <__rc10>
    3785: a2 d5        	ldx	#$d5
    3787: 86 1b        	stx	$1b                     ; 0x1b <__rc11>
    3789: a5 1a        	lda	$1a                     ; 0x1a <__rc10>
    378b: a0 08        	ldy	#$8
    378d: 91 10        	sta	($10),y                 ; 0x10 <__rc0>
    378f: a5 1b        	lda	$1b                     ; 0x1b <__rc11>
    3791: c8           	iny
    3792: 91 10        	sta	($10),y                 ; 0x10 <__rc0>
    3794: a2 02        	ldx	#$2
    3796: a4 1e        	ldy	$1e                     ; 0x1e <__rc14>
    3798: 84 1b        	sty	$1b                     ; 0x1b <__rc11>
    379a: a0 01        	ldy	#$1
    379c: 84 1a        	sty	$1a                     ; 0x1a <__rc10>
    379e: 64 2b        	stz	$2b                     ; 0x2b <__rc27>
    37a0: 88           	dey
    37a1: 4c 7c 3a     	jmp	$3a7c <launchBeat+0x51e>
    37a4: a0 01        	ldy	#$1
    37a6: b1 24        	lda	($24),y                 ; 0x24 <__rc20>
    37a8: 85 2f        	sta	$2f                     ; 0x2f <__rc31>
    37aa: 84 2e        	sty	$2e                     ; 0x2e <__rc30>
    37ac: a2 03        	ldx	#$3
    37ae: 20 65 6f     	jsr	$6f65 <__udivqi3>
    37b1: 85 14        	sta	$14                     ; 0x14 <__rc4>
    37b3: 0a           	asl
    37b4: 18           	clc
    37b5: 65 14        	adc	$14                     ; 0x14 <__rc4>
    37b7: 85 12        	sta	$12                     ; 0x12 <__rc2>
    37b9: 38           	sec
    37ba: a5 2f        	lda	$2f                     ; 0x2f <__rc31>
    37bc: e5 12        	sbc	$12                     ; 0x12 <__rc2>
    37be: aa           	tax
    37bf: a0 02        	ldy	#$2
    37c1: b1 24        	lda	($24),y                 ; 0x24 <__rc20>
    37c3: 84 2c        	sty	$2c                     ; 0x2c <__rc28>
    37c5: 85 12        	sta	$12                     ; 0x12 <__rc2>
    37c7: 0a           	asl
    37c8: 64 13        	stz	$13                     ; 0x13 <__rc3>
    37ca: 26 13        	rol	$13                     ; 0x13 <__rc3>
    37cc: 0a           	asl
    37cd: 26 13        	rol	$13                     ; 0x13 <__rc3>
    37cf: 0a           	asl
    37d0: 26 13        	rol	$13                     ; 0x13 <__rc3>
    37d2: a0 00        	ldy	#$0
    37d4: 18           	clc
    37d5: 65 12        	adc	$12                     ; 0x12 <__rc2>
    37d7: 85 12        	sta	$12                     ; 0x12 <__rc2>
    37d9: a5 13        	lda	$13                     ; 0x13 <__rc3>
    37db: 69 00        	adc	#$0
    37dd: 85 13        	sta	$13                     ; 0x13 <__rc3>
    37df: a9 b1        	lda	#$b1
    37e1: 18           	clc
    37e2: 65 12        	adc	$12                     ; 0x12 <__rc2>
    37e4: 85 12        	sta	$12                     ; 0x12 <__rc2>
    37e6: 84 2f        	sty	$2f                     ; 0x2f <__rc31>
    37e8: a9 95        	lda	#$95
    37ea: 65 13        	adc	$13                     ; 0x13 <__rc3>
    37ec: 85 13        	sta	$13                     ; 0x13 <__rc3>
    37ee: a5 14        	lda	$14                     ; 0x14 <__rc4>
    37f0: 20 bb 47     	jsr	$47bb <sid_setInstrument>
    37f3: a4 2c        	ldy	$2c                     ; 0x2c <__rc28>
    37f5: b1 24        	lda	($24),y                 ; 0x24 <__rc20>
    37f7: a4 2e        	ldy	$2e                     ; 0x2e <__rc30>
    37f9: 85 12        	sta	$12                     ; 0x12 <__rc2>
    37fb: 0a           	asl
    37fc: 64 13        	stz	$13                     ; 0x13 <__rc3>
    37fe: 26 13        	rol	$13                     ; 0x13 <__rc3>
    3800: 0a           	asl
    3801: 26 13        	rol	$13                     ; 0x13 <__rc3>
    3803: 0a           	asl
    3804: 26 13        	rol	$13                     ; 0x13 <__rc3>
    3806: a6 2f        	ldx	$2f                     ; 0x2f <__rc31>
    3808: e0 01        	cpx	#$1
    380a: 65 12        	adc	$12                     ; 0x12 <__rc2>
    380c: 85 12        	sta	$12                     ; 0x12 <__rc2>
    380e: a5 13        	lda	$13                     ; 0x13 <__rc3>
    3810: 69 00        	adc	#$0
    3812: 85 13        	sta	$13                     ; 0x13 <__rc3>
    3814: a9 b1        	lda	#$b1
    3816: a6 2f        	ldx	$2f                     ; 0x2f <__rc31>
    3818: e0 01        	cpx	#$1
    381a: 65 12        	adc	$12                     ; 0x12 <__rc2>
    381c: 85 12        	sta	$12                     ; 0x12 <__rc2>
    381e: a9 95        	lda	#$95
    3820: 65 13        	adc	$13                     ; 0x13 <__rc3>
    3822: 85 13        	sta	$13                     ; 0x13 <__rc3>
    3824: 9c 14 d4     	stz	$d414                   ; 0xd414 <end_block9+0x3b76>
    3827: 9c 15 d4     	stz	$d415                   ; 0xd415 <end_block9+0x3b77>
    382a: 9c 17 d4     	stz	$d417                   ; 0xd417 <end_block9+0x3b79>
    382d: b2 12        	lda	($12)                   ; 0x12 <__rc2>
    382f: 8d 18 d4     	sta	$d418                   ; 0xd418 <end_block9+0x3b7a>
    3832: 9c 14 d5     	stz	$d514                   ; 0xd514 <end_block9+0x3c76>
    3835: 9c 15 d5     	stz	$d515                   ; 0xd515 <end_block9+0x3c77>
    3838: 9c 17 d5     	stz	$d517                   ; 0xd517 <end_block9+0x3c79>
    383b: 8d 18 d5     	sta	$d518                   ; 0xd518 <end_block9+0x3c7a>
    383e: 4c d6 38     	jmp	$38d6 <launchBeat+0x378>
    3841: a6 26        	ldx	$26                     ; 0x26 <__rc22>
    3843: 86 2e        	stx	$2e                     ; 0x2e <__rc30>
    3845: a6 27        	ldx	$27                     ; 0x27 <__rc23>
    3847: 86 2f        	stx	$2f                     ; 0x2f <__rc31>
    3849: a0 02        	ldy	#$2
    384b: b1 24        	lda	($24),y                 ; 0x24 <__rc20>
    384d: 84 27        	sty	$27                     ; 0x27 <__rc23>
    384f: a2 0b        	ldx	#$b
    3851: 86 2c        	stx	$2c                     ; 0x2c <__rc28>
    3853: 86 12        	stx	$12                     ; 0x12 <__rc2>
    3855: 64 13        	stz	$13                     ; 0x13 <__rc3>
    3857: a2 00        	ldx	#$0
    3859: 20 89 82     	jsr	$8289 <__mulhi3>
    385c: 85 12        	sta	$12                     ; 0x12 <__rc2>
    385e: 86 13        	stx	$13                     ; 0x13 <__rc3>
    3860: a9 de        	lda	#$de
    3862: 18           	clc
    3863: 65 12        	adc	$12                     ; 0x12 <__rc2>
    3865: 85 12        	sta	$12                     ; 0x12 <__rc2>
    3867: a9 95        	lda	#$95
    3869: 65 13        	adc	$13                     ; 0x13 <__rc3>
    386b: 85 13        	sta	$13                     ; 0x13 <__rc3>
    386d: a0 01        	ldy	#$1
    386f: b1 24        	lda	($24),y                 ; 0x24 <__rc20>
    3871: 84 26        	sty	$26                     ; 0x26 <__rc22>
    3873: 20 1d 46     	jsr	$461d <opl3_setInstrument>
    3876: a4 26        	ldy	$26                     ; 0x26 <__rc22>
    3878: b1 24        	lda	($24),y                 ; 0x24 <__rc20>
    387a: 85 26        	sta	$26                     ; 0x26 <__rc22>
    387c: a4 27        	ldy	$27                     ; 0x27 <__rc23>
    387e: b1 24        	lda	($24),y                 ; 0x24 <__rc20>
    3880: a6 2c        	ldx	$2c                     ; 0x2c <__rc28>
    3882: 86 12        	stx	$12                     ; 0x12 <__rc2>
    3884: 64 13        	stz	$13                     ; 0x13 <__rc3>
    3886: a2 00        	ldx	#$0
    3888: 20 89 82     	jsr	$8289 <__mulhi3>
    388b: 85 13        	sta	$13                     ; 0x13 <__rc3>
    388d: 86 12        	stx	$12                     ; 0x12 <__rc2>
    388f: a6 26        	ldx	$26                     ; 0x26 <__rc22>
    3891: e0 40        	cpx	#$40
    3893: a0 0a        	ldy	#$a
    3895: b1 10        	lda	($10),y                 ; 0x10 <__rc0>
    3897: 85 14        	sta	$14                     ; 0x14 <__rc4>
    3899: c8           	iny
    389a: b1 10        	lda	($10),y                 ; 0x10 <__rc0>
    389c: 85 15        	sta	$15                     ; 0x15 <__rc5>
    389e: 90 0b        	bcc	$38ab <launchBeat+0x34d>
    38a0: a0 08        	ldy	#$8
    38a2: b1 10        	lda	($10),y                 ; 0x10 <__rc0>
    38a4: 85 14        	sta	$14                     ; 0x14 <__rc4>
    38a6: c8           	iny
    38a7: b1 10        	lda	($10),y                 ; 0x10 <__rc0>
    38a9: 85 15        	sta	$15                     ; 0x15 <__rc5>
    38ab: 18           	clc
    38ac: 8a           	txa
    38ad: 69 c0        	adc	#$c0
    38af: aa           	tax
    38b0: a9 de        	lda	#$de
    38b2: 18           	clc
    38b3: 65 13        	adc	$13                     ; 0x13 <__rc3>
    38b5: a8           	tay
    38b6: a9 95        	lda	#$95
    38b8: 65 12        	adc	$12                     ; 0x12 <__rc2>
    38ba: 84 12        	sty	$12                     ; 0x12 <__rc2>
    38bc: 85 13        	sta	$13                     ; 0x13 <__rc3>
    38be: a0 0a        	ldy	#$a
    38c0: b1 12        	lda	($12),y                 ; 0x12 <__rc2>
    38c2: 85 12        	sta	$12                     ; 0x12 <__rc2>
    38c4: 8a           	txa
    38c5: 92 14        	sta	($14)                   ; 0x14 <__rc4>
    38c7: a6 12        	ldx	$12                     ; 0x12 <__rc2>
    38c9: 8e 81 d5     	stx	$d581                   ; 0xd581 <end_block9+0x3ce3>
    38cc: a0 01        	ldy	#$1
    38ce: a6 2e        	ldx	$2e                     ; 0x2e <__rc30>
    38d0: 86 26        	stx	$26                     ; 0x26 <__rc22>
    38d2: a6 2f        	ldx	$2f                     ; 0x2f <__rc31>
    38d4: 86 27        	stx	$27                     ; 0x27 <__rc23>
    38d6: a2 01        	ldx	#$1
    38d8: 86 16        	stx	$16                     ; 0x16 <__rc6>
    38da: b1 24        	lda	($24),y                 ; 0x24 <__rc20>
    38dc: 85 18        	sta	$18                     ; 0x18 <__rc8>
    38de: b2 26        	lda	($26)                   ; 0x26 <__rc22>
    38e0: 85 12        	sta	$12                     ; 0x12 <__rc2>
    38e2: b2 24        	lda	($24)                   ; 0x24 <__rc20>
    38e4: a2 4c        	ldx	#$4c
    38e6: 85 15        	sta	$15                     ; 0x15 <__rc5>
    38e8: c9 02        	cmp	#$2
    38ea: f0 02        	beq	$38ee <launchBeat+0x390>
    38ec: a2 7f        	ldx	#$7f
    38ee: a4 7f        	ldy	$7f                     ; 0x7f <gPtr>
    38f0: 86 13        	stx	$13                     ; 0x13 <__rc3>
    38f2: a6 80        	ldx	$80                     ; 0x80 <gPtr+0x1>
    38f4: 84 2e        	sty	$2e                     ; 0x2e <__rc30>
    38f6: 86 2f        	stx	$2f                     ; 0x2f <__rc31>
    38f8: a0 02        	ldy	#$2
    38fa: b1 2e        	lda	($2e),y                 ; 0x2e <__rc30>
    38fc: 85 14        	sta	$14                     ; 0x14 <__rc4>
    38fe: b1 24        	lda	($24),y                 ; 0x24 <__rc20>
    3900: 85 17        	sta	$17                     ; 0x17 <__rc7>
    3902: a6 18        	ldx	$18                     ; 0x18 <__rc8>
    3904: a5 16        	lda	$16                     ; 0x16 <__rc6>
    3906: 20 8f 3f     	jsr	$3f8f <dispatchNote>
    3909: b2 24        	lda	($24)                   ; 0x24 <__rc20>
    390b: c9 01        	cmp	#$1
    390d: d0 09        	bne	$3918 <launchBeat+0x3ba>
    390f: a0 01        	ldy	#$1
    3911: b1 24        	lda	($24),y                 ; 0x24 <__rc20>
    3913: aa           	tax
    3914: 98           	tya
    3915: 9d 49 00     	sta	$49,x                   ; 0x49 <reservedSID>
    3918: a0 08        	ldy	#$8
    391a: b1 2e        	lda	($2e),y                 ; 0x2e <__rc30>
    391c: 84 1b        	sty	$1b                     ; 0x1b <__rc11>
    391e: 85 12        	sta	$12                     ; 0x12 <__rc2>
    3920: 0a           	asl
    3921: aa           	tax
    3922: a9 00        	lda	#$0
    3924: 2a           	rol
    3925: 86 13        	stx	$13                     ; 0x13 <__rc3>
    3927: 06 13        	asl	$13                     ; 0x13 <__rc3>
    3929: 2a           	rol
    392a: 06 13        	asl	$13                     ; 0x13 <__rc3>
    392c: 2a           	rol
    392d: 06 13        	asl	$13                     ; 0x13 <__rc3>
    392f: 2a           	rol
    3930: aa           	tax
    3931: 38           	sec
    3932: a5 13        	lda	$13                     ; 0x13 <__rc3>
    3934: e5 12        	sbc	$12                     ; 0x12 <__rc2>
    3936: 85 12        	sta	$12                     ; 0x12 <__rc2>
    3938: 8a           	txa
    3939: e9 00        	sbc	#$0
    393b: aa           	tax
    393c: 18           	clc
    393d: a5 12        	lda	$12                     ; 0x12 <__rc2>
    393f: 65 3b        	adc	$3b                     ; 0x3b <theBeats>
    3941: 85 12        	sta	$12                     ; 0x12 <__rc2>
    3943: 8a           	txa
    3944: 65 3c        	adc	$3c                     ; 0x3c <theBeats+0x1>
    3946: 85 13        	sta	$13                     ; 0x13 <__rc3>
    3948: a0 02        	ldy	#$2
    394a: b1 12        	lda	($12),y                 ; 0x12 <__rc2>
    394c: 1a           	inc
    394d: 91 12        	sta	($12),y                 ; 0x12 <__rc2>
    394f: a2 80        	ldx	#$80
    3951: 86 f3        	stx	$f3                     ; 0xf3 <__zp_bss_size+0x9e>
    3953: 18           	clc
    3954: a5 10        	lda	$10                     ; 0x10 <__rc0>
    3956: 69 0e        	adc	#$e
    3958: 85 14        	sta	$14                     ; 0x14 <__rc4>
    395a: a5 11        	lda	$11                     ; 0x11 <__rc1>
    395c: 69 00        	adc	#$0
    395e: 85 15        	sta	$15                     ; 0x15 <__rc5>
    3960: a2 94        	ldx	#$94
    3962: 86 12        	stx	$12                     ; 0x12 <__rc2>
    3964: a2 98        	ldx	#$98
    3966: 86 13        	stx	$13                     ; 0x13 <__rc3>
    3968: 20 f0 ff     	jsr	$fff0 <end_block9+0x6752>
    396b: 92 14        	sta	($14)                   ; 0x14 <__rc4>
    396d: a9 00        	lda	#$0
    396f: 6a           	ror
    3970: 85 12        	sta	$12                     ; 0x12 <__rc2>
    3972: b2 14        	lda	($14)                   ; 0x14 <__rc4>
    3974: 85 14        	sta	$14                     ; 0x14 <__rc4>
    3976: b2 28        	lda	($28)                   ; 0x28 <__rc24>
    3978: aa           	tax
    3979: 18           	clc
    397a: a5 14        	lda	$14                     ; 0x14 <__rc4>
    397c: 7d 80 98     	adc	$9880,x                 ; 0x9880 <mainTempoLUT>
    397f: 85 1c        	sta	$1c                     ; 0x1c <__rc12>
    3981: a6 7f        	ldx	$7f                     ; 0x7f <gPtr>
    3983: a4 80        	ldy	$80                     ; 0x80 <gPtr+0x1>
    3985: 86 14        	stx	$14                     ; 0x14 <__rc4>
    3987: 84 15        	sty	$15                     ; 0x15 <__rc5>
    3989: a4 1b        	ldy	$1b                     ; 0x1b <__rc11>
    398b: b1 14        	lda	($14),y                 ; 0x14 <__rc4>
    398d: 85 14        	sta	$14                     ; 0x14 <__rc4>
    398f: 0a           	asl
    3990: aa           	tax
    3991: a9 00        	lda	#$0
    3993: 2a           	rol
    3994: 86 15        	stx	$15                     ; 0x15 <__rc5>
    3996: 06 15        	asl	$15                     ; 0x15 <__rc5>
    3998: 2a           	rol
    3999: 06 15        	asl	$15                     ; 0x15 <__rc5>
    399b: 2a           	rol
    399c: 06 15        	asl	$15                     ; 0x15 <__rc5>
    399e: 2a           	rol
    399f: aa           	tax
    39a0: 38           	sec
    39a1: a5 15        	lda	$15                     ; 0x15 <__rc5>
    39a3: e5 14        	sbc	$14                     ; 0x14 <__rc4>
    39a5: 85 14        	sta	$14                     ; 0x14 <__rc4>
    39a7: 8a           	txa
    39a8: e9 00        	sbc	#$0
    39aa: a8           	tay
    39ab: 18           	clc
    39ac: a5 14        	lda	$14                     ; 0x14 <__rc4>
    39ae: 65 3b        	adc	$3b                     ; 0x3b <theBeats>
    39b0: aa           	tax
    39b1: 98           	tya
    39b2: 65 3c        	adc	$3c                     ; 0x3c <theBeats+0x1>
    39b4: 86 14        	stx	$14                     ; 0x14 <__rc4>
    39b6: 85 15        	sta	$15                     ; 0x15 <__rc5>
    39b8: a8           	tay
    39b9: 18           	clc
    39ba: 8a           	txa
    39bb: 69 0d        	adc	#$d
    39bd: 85 16        	sta	$16                     ; 0x16 <__rc6>
    39bf: 98           	tya
    39c0: 69 00        	adc	#$0
    39c2: 85 17        	sta	$17                     ; 0x17 <__rc7>
    39c4: a5 2a        	lda	$2a                     ; 0x2a <__rc26>
    39c6: 18           	clc
    39c7: a0 0d        	ldy	#$d
    39c9: 71 14        	adc	($14),y                 ; 0x14 <__rc4>
    39cb: 85 18        	sta	$18                     ; 0x18 <__rc8>
    39cd: a5 2b        	lda	$2b                     ; 0x2b <__rc27>
    39cf: a0 01        	ldy	#$1
    39d1: a2 01        	ldx	#$1
    39d3: 86 1a        	stx	$1a                     ; 0x1a <__rc10>
    39d5: 71 16        	adc	($16),y                 ; 0x16 <__rc6>
    39d7: a6 18        	ldx	$18                     ; 0x18 <__rc8>
    39d9: 86 14        	stx	$14                     ; 0x14 <__rc4>
    39db: 85 15        	sta	$15                     ; 0x15 <__rc5>
    39dd: aa           	tax
    39de: 18           	clc
    39df: a5 18        	lda	$18                     ; 0x18 <__rc8>
    39e1: 69 fe        	adc	#$fe
    39e3: 85 16        	sta	$16                     ; 0x16 <__rc6>
    39e5: 8a           	txa
    39e6: 69 ff        	adc	#$ff
    39e8: 85 17        	sta	$17                     ; 0x17 <__rc7>
    39ea: a6 14        	ldx	$14                     ; 0x14 <__rc4>
    39ec: 86 18        	stx	$18                     ; 0x18 <__rc8>
    39ee: a6 15        	ldx	$15                     ; 0x15 <__rc5>
    39f0: 86 19        	stx	$19                     ; 0x19 <__rc9>
    39f2: a2 ff        	ldx	#$ff
    39f4: c6 18        	dec	$18                     ; 0x18 <__rc8>
    39f6: e4 18        	cpx	$18                     ; 0x18 <__rc8>
    39f8: d0 02        	bne	$39fc <launchBeat+0x49e>
    39fa: c6 19        	dec	$19                     ; 0x19 <__rc9>
    39fc: a5 1c        	lda	$1c                     ; 0x1c <__rc12>
    39fe: 92 18        	sta	($18)                   ; 0x18 <__rc8>
    3a00: b2 16        	lda	($16)                   ; 0x16 <__rc6>
    3a02: 85 f3        	sta	$f3                     ; 0xf3 <__zp_bss_size+0x9e>
    3a04: b2 18        	lda	($18)                   ; 0x18 <__rc8>
    3a06: 85 f4        	sta	$f4                     ; 0xf4 <__zp_bss_size+0x9f>
    3a08: b2 14        	lda	($14)                   ; 0x14 <__rc4>
    3a0a: 85 f5        	sta	$f5                     ; 0xf5 <__zp_bss_size+0xa0>
    3a0c: 18           	clc
    3a0d: a5 10        	lda	$10                     ; 0x10 <__rc0>
    3a0f: 69 0f        	adc	#$f
    3a11: 85 14        	sta	$14                     ; 0x14 <__rc4>
    3a13: a5 11        	lda	$11                     ; 0x11 <__rc1>
    3a15: 69 00        	adc	#$0
    3a17: 85 15        	sta	$15                     ; 0x15 <__rc5>
    3a19: 20 f0 ff     	jsr	$fff0 <end_block9+0x6752>
    3a1c: 92 14        	sta	($14)                   ; 0x14 <__rc4>
    3a1e: a9 00        	lda	#$0
    3a20: 6a           	ror
    3a21: 85 12        	sta	$12                     ; 0x12 <__rc2>
    3a23: a6 3b        	ldx	$3b                     ; 0x3b <theBeats>
    3a25: a4 3c        	ldy	$3c                     ; 0x3c <theBeats+0x1>
    3a27: 86 12        	stx	$12                     ; 0x12 <__rc2>
    3a29: 84 13        	sty	$13                     ; 0x13 <__rc3>
    3a2b: a6 7f        	ldx	$7f                     ; 0x7f <gPtr>
    3a2d: a4 80        	ldy	$80                     ; 0x80 <gPtr+0x1>
    3a2f: 86 14        	stx	$14                     ; 0x14 <__rc4>
    3a31: 84 15        	sty	$15                     ; 0x15 <__rc5>
    3a33: a4 1b        	ldy	$1b                     ; 0x1b <__rc11>
    3a35: b1 14        	lda	($14),y                 ; 0x14 <__rc4>
    3a37: 85 16        	sta	$16                     ; 0x16 <__rc6>
    3a39: 0a           	asl
    3a3a: aa           	tax
    3a3b: a9 00        	lda	#$0
    3a3d: 2a           	rol
    3a3e: 86 17        	stx	$17                     ; 0x17 <__rc7>
    3a40: 06 17        	asl	$17                     ; 0x17 <__rc7>
    3a42: 2a           	rol
    3a43: 06 17        	asl	$17                     ; 0x17 <__rc7>
    3a45: 2a           	rol
    3a46: 06 17        	asl	$17                     ; 0x17 <__rc7>
    3a48: 2a           	rol
    3a49: aa           	tax
    3a4a: 38           	sec
    3a4b: a5 17        	lda	$17                     ; 0x17 <__rc7>
    3a4d: e5 16        	sbc	$16                     ; 0x16 <__rc6>
    3a4f: 85 16        	sta	$16                     ; 0x16 <__rc6>
    3a51: 8a           	txa
    3a52: e9 00        	sbc	#$0
    3a54: aa           	tax
    3a55: 18           	clc
    3a56: a5 16        	lda	$16                     ; 0x16 <__rc6>
    3a58: 65 3b        	adc	$3b                     ; 0x3b <theBeats>
    3a5a: 85 16        	sta	$16                     ; 0x16 <__rc6>
    3a5c: 8a           	txa
    3a5d: 65 3c        	adc	$3c                     ; 0x3c <theBeats+0x1>
    3a5f: e6 2d        	inc	$2d                     ; 0x2d <__rc29>
    3a61: 85 17        	sta	$17                     ; 0x17 <__rc7>
    3a63: 18           	clc
    3a64: a5 2a        	lda	$2a                     ; 0x2a <__rc26>
    3a66: 69 03        	adc	#$3
    3a68: aa           	tax
    3a69: a5 2b        	lda	$2b                     ; 0x2b <__rc27>
    3a6b: 69 00        	adc	#$0
    3a6d: 85 2b        	sta	$2b                     ; 0x2b <__rc27>
    3a6f: a0 04        	ldy	#$4
    3a71: a5 2d        	lda	$2d                     ; 0x2d <__rc29>
    3a73: d1 16        	cmp	($16),y                 ; 0x16 <__rc6>
    3a75: a4 2d        	ldy	$2d                     ; 0x2d <__rc29>
    3a77: 90 03        	bcc	$3a7c <launchBeat+0x51e>
    3a79: 4c 2b 3b     	jmp	$3b2b <launchBeat+0x5cd>
    3a7c: 86 2a        	stx	$2a                     ; 0x2a <__rc26>
    3a7e: a5 16        	lda	$16                     ; 0x16 <__rc6>
    3a80: 18           	clc
    3a81: 69 09        	adc	#$9
    3a83: 85 18        	sta	$18                     ; 0x18 <__rc8>
    3a85: a5 17        	lda	$17                     ; 0x17 <__rc7>
    3a87: 69 00        	adc	#$0
    3a89: 85 19        	sta	$19                     ; 0x19 <__rc9>
    3a8b: a6 1b        	ldx	$1b                     ; 0x1b <__rc11>
    3a8d: 86 1c        	stx	$1c                     ; 0x1c <__rc12>
    3a8f: 84 1b        	sty	$1b                     ; 0x1b <__rc11>
    3a91: a0 09        	ldy	#$9
    3a93: b1 16        	lda	($16),y                 ; 0x16 <__rc6>
    3a95: 85 16        	sta	$16                     ; 0x16 <__rc6>
    3a97: a2 01        	ldx	#$1
    3a99: 86 2e        	stx	$2e                     ; 0x2e <__rc30>
    3a9b: a4 1a        	ldy	$1a                     ; 0x1a <__rc10>
    3a9d: b1 18        	lda	($18),y                 ; 0x18 <__rc8>
    3a9f: 85 17        	sta	$17                     ; 0x17 <__rc7>
    3aa1: a9 00        	lda	#$0
    3aa3: a4 1b        	ldy	$1b                     ; 0x1b <__rc11>
    3aa5: 91 16        	sta	($16),y                 ; 0x16 <__rc6>
    3aa7: a6 1b        	ldx	$1b                     ; 0x1b <__rc11>
    3aa9: a4 1c        	ldy	$1c                     ; 0x1c <__rc12>
    3aab: b1 14        	lda	($14),y                 ; 0x14 <__rc4>
    3aad: a4 26        	ldy	$26                     ; 0x26 <__rc22>
    3aaf: 84 14        	sty	$14                     ; 0x14 <__rc4>
    3ab1: a4 27        	ldy	$27                     ; 0x27 <__rc23>
    3ab3: 84 15        	sty	$15                     ; 0x15 <__rc5>
    3ab5: a4 28        	ldy	$28                     ; 0x28 <__rc24>
    3ab7: 84 16        	sty	$16                     ; 0x16 <__rc6>
    3ab9: a4 29        	ldy	$29                     ; 0x29 <__rc25>
    3abb: 84 17        	sty	$17                     ; 0x17 <__rc7>
    3abd: a4 24        	ldy	$24                     ; 0x24 <__rc20>
    3abf: 84 18        	sty	$18                     ; 0x18 <__rc8>
    3ac1: a4 25        	ldy	$25                     ; 0x25 <__rc21>
    3ac3: 84 19        	sty	$19                     ; 0x19 <__rc9>
    3ac5: 86 2d        	stx	$2d                     ; 0x2d <__rc29>
    3ac7: 20 83 4a     	jsr	$4a83 <getBeatTrackNoteInfo>
    3aca: b2 24        	lda	($24)                   ; 0x24 <__rc20>
    3acc: c9 03        	cmp	#$3
    3ace: d0 03        	bne	$3ad3 <launchBeat+0x575>
    3ad0: 4c 41 38     	jmp	$3841 <launchBeat+0x2e3>
    3ad3: c9 01        	cmp	#$1
    3ad5: d0 03        	bne	$3ada <launchBeat+0x57c>
    3ad7: 4c a4 37     	jmp	$37a4 <launchBeat+0x246>
    3ada: a4 2e        	ldy	$2e                     ; 0x2e <__rc30>
    3adc: aa           	tax
    3add: f0 03        	beq	$3ae2 <launchBeat+0x584>
    3adf: 4c d6 38     	jmp	$38d6 <launchBeat+0x378>
    3ae2: b1 24        	lda	($24),y                 ; 0x24 <__rc20>
    3ae4: c9 09        	cmp	#$9
    3ae6: d0 03        	bne	$3aeb <launchBeat+0x58d>
    3ae8: 4c d6 38     	jmp	$38d6 <launchBeat+0x378>
    3aeb: 84 12        	sty	$12                     ; 0x12 <__rc2>
    3aed: a0 02        	ldy	#$2
    3aef: aa           	tax
    3af0: b1 24        	lda	($24),y                 ; 0x24 <__rc20>
    3af2: 85 13        	sta	$13                     ; 0x13 <__rc3>
    3af4: 8a           	txa
    3af5: 09 c0        	ora	#$c0
    3af7: 8d b1 dd     	sta	$ddb1                   ; 0xddb1 <end_block9+0x4513>
    3afa: a6 13        	ldx	$13                     ; 0x13 <__rc3>
    3afc: 8e b1 dd     	stx	$ddb1                   ; 0xddb1 <end_block9+0x4513>
    3aff: b1 24        	lda	($24),y                 ; 0x24 <__rc20>
    3b01: 85 13        	sta	$13                     ; 0x13 <__rc3>
    3b03: a4 12        	ldy	$12                     ; 0x12 <__rc2>
    3b05: a9 c0        	lda	#$c0
    3b07: 11 24        	ora	($24),y                 ; 0x24 <__rc20>
    3b09: 8d a1 dd     	sta	$dda1                   ; 0xdda1 <end_block9+0x4503>
    3b0c: a6 13        	ldx	$13                     ; 0x13 <__rc3>
    3b0e: 8e a1 dd     	stx	$dda1                   ; 0xdda1 <end_block9+0x4503>
    3b11: 4c d6 38     	jmp	$38d6 <launchBeat+0x378>
    3b14: a2 00        	ldx	#$0
    3b16: 86 12        	stx	$12                     ; 0x12 <__rc2>
    3b18: a2 00        	ldx	#$0
    3b1a: 86 13        	stx	$13                     ; 0x13 <__rc3>
    3b1c: a6 25        	ldx	$25                     ; 0x25 <__rc21>
    3b1e: e4 13        	cpx	$13                     ; 0x13 <__rc3>
    3b20: d0 09        	bne	$3b2b <launchBeat+0x5cd>
    3b22: a6 24        	ldx	$24                     ; 0x24 <__rc20>
    3b24: e4 12        	cpx	$12                     ; 0x12 <__rc2>
    3b26: d0 03        	bne	$3b2b <launchBeat+0x5cd>
    3b28: 4c 5a 3c     	jmp	$3c5a <launchBeat+0x6fc>
    3b2b: a2 00        	ldx	#$0
    3b2d: a0 10        	ldy	#$10
    3b2f: a9 9e        	lda	#$9e
    3b31: 86 12        	stx	$12                     ; 0x12 <__rc2>
    3b33: 84 13        	sty	$13                     ; 0x13 <__rc3>
    3b35: 18           	clc
    3b36: 65 12        	adc	$12                     ; 0x12 <__rc2>
    3b38: 85 2c        	sta	$2c                     ; 0x2c <__rc28>
    3b3a: a9 98        	lda	#$98
    3b3c: 65 13        	adc	$13                     ; 0x13 <__rc3>
    3b3e: 85 2d        	sta	$2d                     ; 0x2d <__rc29>
    3b40: a5 24        	lda	$24                     ; 0x24 <__rc20>
    3b42: 18           	clc
    3b43: 69 fe        	adc	#$fe
    3b45: 85 13        	sta	$13                     ; 0x13 <__rc3>
    3b47: a5 25        	lda	$25                     ; 0x25 <__rc21>
    3b49: 69 ff        	adc	#$ff
    3b4b: a6 13        	ldx	$13                     ; 0x13 <__rc3>
    3b4d: 86 26        	stx	$26                     ; 0x26 <__rc22>
    3b4f: aa           	tax
    3b50: 85 27        	sta	$27                     ; 0x27 <__rc23>
    3b52: b2 26        	lda	($26)                   ; 0x26 <__rc22>
    3b54: 85 12        	sta	$12                     ; 0x12 <__rc2>
    3b56: a0 01        	ldy	#$1
    3b58: b1 26        	lda	($26),y                 ; 0x26 <__rc22>
    3b5a: 85 2a        	sta	$2a                     ; 0x2a <__rc26>
    3b5c: a9 fe        	lda	#$fe
    3b5e: 32 26        	and	($26)                   ; 0x26 <__rc22>
    3b60: 85 2b        	sta	$2b                     ; 0x2b <__rc27>
    3b62: a4 13        	ldy	$13                     ; 0x13 <__rc3>
    3b64: 84 15        	sty	$15                     ; 0x15 <__rc5>
    3b66: a5 13        	lda	$13                     ; 0x13 <__rc3>
    3b68: 18           	clc
    3b69: 65 2b        	adc	$2b                     ; 0x2b <__rc27>
    3b6b: 85 28        	sta	$28                     ; 0x28 <__rc24>
    3b6d: 8a           	txa
    3b6e: 86 16        	stx	$16                     ; 0x16 <__rc6>
    3b70: 65 2a        	adc	$2a                     ; 0x2a <__rc26>
    3b72: c5 2d        	cmp	$2d                     ; 0x2d <__rc29>
    3b74: d0 10        	bne	$3b86 <launchBeat+0x628>
    3b76: a6 28        	ldx	$28                     ; 0x28 <__rc24>
    3b78: e4 2c        	cpx	$2c                     ; 0x2c <__rc28>
    3b7a: d0 0a        	bne	$3b86 <launchBeat+0x628>
    3b7c: a2 00        	ldx	#$0
    3b7e: 86 28        	stx	$28                     ; 0x28 <__rc24>
    3b80: a2 00        	ldx	#$0
    3b82: 86 29        	stx	$29                     ; 0x29 <__rc25>
    3b84: 80 02        	bra	$3b88 <launchBeat+0x62a>
    3b86: 85 29        	sta	$29                     ; 0x29 <__rc25>
    3b88: a5 12        	lda	$12                     ; 0x12 <__rc2>
    3b8a: 29 01        	and	#$1
    3b8c: f0 4b        	beq	$3bd9 <launchBeat+0x67b>
    3b8e: a5 24        	lda	$24                     ; 0x24 <__rc20>
    3b90: 18           	clc
    3b91: 69 fc        	adc	#$fc
    3b93: 85 12        	sta	$12                     ; 0x12 <__rc2>
    3b95: a5 25        	lda	$25                     ; 0x25 <__rc21>
    3b97: 69 ff        	adc	#$ff
    3b99: 85 13        	sta	$13                     ; 0x13 <__rc3>
    3b9b: a0 01        	ldy	#$1
    3b9d: 38           	sec
    3b9e: a9 00        	lda	#$0
    3ba0: f2 12        	sbc	($12)                   ; 0x12 <__rc2>
    3ba2: 85 14        	sta	$14                     ; 0x14 <__rc4>
    3ba4: a9 00        	lda	#$0
    3ba6: f1 12        	sbc	($12),y                 ; 0x12 <__rc2>
    3ba8: 85 12        	sta	$12                     ; 0x12 <__rc2>
    3baa: a5 15        	lda	$15                     ; 0x15 <__rc5>
    3bac: 18           	clc
    3bad: 65 14        	adc	$14                     ; 0x14 <__rc4>
    3baf: 85 26        	sta	$26                     ; 0x26 <__rc22>
    3bb1: a5 16        	lda	$16                     ; 0x16 <__rc6>
    3bb3: 65 12        	adc	$12                     ; 0x12 <__rc2>
    3bb5: 85 27        	sta	$27                     ; 0x27 <__rc23>
    3bb7: b1 26        	lda	($26),y                 ; 0x26 <__rc22>
    3bb9: 85 24        	sta	$24                     ; 0x24 <__rc20>
    3bbb: a9 fe        	lda	#$fe
    3bbd: 32 26        	and	($26)                   ; 0x26 <__rc22>
    3bbf: 85 25        	sta	$25                     ; 0x25 <__rc21>
    3bc1: a6 26        	ldx	$26                     ; 0x26 <__rc22>
    3bc3: 86 12        	stx	$12                     ; 0x12 <__rc2>
    3bc5: a6 27        	ldx	$27                     ; 0x27 <__rc23>
    3bc7: 86 13        	stx	$13                     ; 0x13 <__rc3>
    3bc9: 20 70 04     	jsr	$470 <_ZN12_GLOBAL__N_19FreeChunk6removeEv>
    3bcc: 18           	clc
    3bcd: a5 25        	lda	$25                     ; 0x25 <__rc21>
    3bcf: 65 2b        	adc	$2b                     ; 0x2b <__rc27>
    3bd1: 85 2b        	sta	$2b                     ; 0x2b <__rc27>
    3bd3: a5 24        	lda	$24                     ; 0x24 <__rc20>
    3bd5: 65 2a        	adc	$2a                     ; 0x2a <__rc26>
    3bd7: 85 2a        	sta	$2a                     ; 0x2a <__rc26>
    3bd9: a2 00        	ldx	#$0
    3bdb: 86 12        	stx	$12                     ; 0x12 <__rc2>
    3bdd: a2 00        	ldx	#$0
    3bdf: 86 13        	stx	$13                     ; 0x13 <__rc3>
    3be1: a6 29        	ldx	$29                     ; 0x29 <__rc25>
    3be3: e4 13        	cpx	$13                     ; 0x13 <__rc3>
    3be5: d0 0e        	bne	$3bf5 <launchBeat+0x697>
    3be7: a6 28        	ldx	$28                     ; 0x28 <__rc24>
    3be9: e4 12        	cpx	$12                     ; 0x12 <__rc2>
    3beb: d0 08        	bne	$3bf5 <launchBeat+0x697>
    3bed: a2 01        	ldx	#$1
    3bef: 8e 96 98     	stx	$9896                   ; 0x9896 <_ZN12_GLOBAL__N_19last_freeE>
    3bf2: 4c 4b 3c     	jmp	$3c4b <launchBeat+0x6ed>
    3bf5: b2 28        	lda	($28)                   ; 0x28 <__rc24>
    3bf7: 85 14        	sta	$14                     ; 0x14 <__rc4>
    3bf9: a0 01        	ldy	#$1
    3bfb: b1 28        	lda	($28),y                 ; 0x28 <__rc24>
    3bfd: aa           	tax
    3bfe: a9 fe        	lda	#$fe
    3c00: 32 28        	and	($28)                   ; 0x28 <__rc24>
    3c02: 18           	clc
    3c03: 85 25        	sta	$25                     ; 0x25 <__rc21>
    3c05: 65 28        	adc	$28                     ; 0x28 <__rc24>
    3c07: 85 12        	sta	$12                     ; 0x12 <__rc2>
    3c09: 8a           	txa
    3c0a: 86 24        	stx	$24                     ; 0x24 <__rc20>
    3c0c: 65 29        	adc	$29                     ; 0x29 <__rc25>
    3c0e: c5 2d        	cmp	$2d                     ; 0x2d <__rc29>
    3c10: d0 19        	bne	$3c2b <launchBeat+0x6cd>
    3c12: a6 12        	ldx	$12                     ; 0x12 <__rc2>
    3c14: e4 2c        	cpx	$2c                     ; 0x2c <__rc28>
    3c16: d0 13        	bne	$3c2b <launchBeat+0x6cd>
    3c18: ad 96 98     	lda	$9896                   ; 0x9896 <_ZN12_GLOBAL__N_19last_freeE>
    3c1b: 29 01        	and	#$1
    3c1d: d0 14        	bne	$3c33 <launchBeat+0x6d5>
    3c1f: a5 14        	lda	$14                     ; 0x14 <__rc4>
    3c21: 09 01        	ora	#$1
    3c23: 92 28        	sta	($28)                   ; 0x28 <__rc24>
    3c25: a5 24        	lda	$24                     ; 0x24 <__rc20>
    3c27: 91 28        	sta	($28),y                 ; 0x28 <__rc24>
    3c29: 80 20        	bra	$3c4b <launchBeat+0x6ed>
    3c2b: 85 13        	sta	$13                     ; 0x13 <__rc3>
    3c2d: a9 01        	lda	#$1
    3c2f: 32 12        	and	($12)                   ; 0x12 <__rc2>
    3c31: f0 ec        	beq	$3c1f <launchBeat+0x6c1>
    3c33: a6 28        	ldx	$28                     ; 0x28 <__rc24>
    3c35: 86 12        	stx	$12                     ; 0x12 <__rc2>
    3c37: a6 29        	ldx	$29                     ; 0x29 <__rc25>
    3c39: 86 13        	stx	$13                     ; 0x13 <__rc3>
    3c3b: 20 70 04     	jsr	$470 <_ZN12_GLOBAL__N_19FreeChunk6removeEv>
    3c3e: 18           	clc
    3c3f: a5 25        	lda	$25                     ; 0x25 <__rc21>
    3c41: 65 2b        	adc	$2b                     ; 0x2b <__rc27>
    3c43: 85 2b        	sta	$2b                     ; 0x2b <__rc27>
    3c45: a5 24        	lda	$24                     ; 0x24 <__rc20>
    3c47: 65 2a        	adc	$2a                     ; 0x2a <__rc26>
    3c49: 85 2a        	sta	$2a                     ; 0x2a <__rc26>
    3c4b: a6 26        	ldx	$26                     ; 0x26 <__rc22>
    3c4d: 86 12        	stx	$12                     ; 0x12 <__rc2>
    3c4f: a6 27        	ldx	$27                     ; 0x27 <__rc23>
    3c51: 86 13        	stx	$13                     ; 0x13 <__rc3>
    3c53: a6 2a        	ldx	$2a                     ; 0x2a <__rc26>
    3c55: a5 2b        	lda	$2b                     ; 0x2b <__rc27>
    3c57: 20 1c 03     	jsr	$31c <_ZN12_GLOBAL__N_19FreeChunk6insertEPvj>
    3c5a: a0 00        	ldy	#$0
    3c5c: b1 10        	lda	($10),y                 ; 0x10 <__rc0>
    3c5e: 85 2f        	sta	$2f                     ; 0x2f <__rc31>
    3c60: c8           	iny
    3c61: b1 10        	lda	($10),y                 ; 0x10 <__rc0>
    3c63: 85 2e        	sta	$2e                     ; 0x2e <__rc30>
    3c65: c8           	iny
    3c66: b1 10        	lda	($10),y                 ; 0x10 <__rc0>
    3c68: 85 2d        	sta	$2d                     ; 0x2d <__rc29>
    3c6a: c8           	iny
    3c6b: b1 10        	lda	($10),y                 ; 0x10 <__rc0>
    3c6d: 85 2c        	sta	$2c                     ; 0x2c <__rc28>
    3c6f: c8           	iny
    3c70: b1 10        	lda	($10),y                 ; 0x10 <__rc0>
    3c72: 85 2b        	sta	$2b                     ; 0x2b <__rc27>
    3c74: c8           	iny
    3c75: b1 10        	lda	($10),y                 ; 0x10 <__rc0>
    3c77: 85 2a        	sta	$2a                     ; 0x2a <__rc26>
    3c79: c8           	iny
    3c7a: b1 10        	lda	($10),y                 ; 0x10 <__rc0>
    3c7c: 85 29        	sta	$29                     ; 0x29 <__rc25>
    3c7e: c8           	iny
    3c7f: b1 10        	lda	($10),y                 ; 0x10 <__rc0>
    3c81: 85 28        	sta	$28                     ; 0x28 <__rc24>
    3c83: fa           	plx
    3c84: 86 27        	stx	$27                     ; 0x27 <__rc23>
    3c86: fa           	plx
    3c87: 86 26        	stx	$26                     ; 0x26 <__rc22>
    3c89: fa           	plx
    3c8a: 86 25        	stx	$25                     ; 0x25 <__rc21>
    3c8c: fa           	plx
    3c8d: 86 24        	stx	$24                     ; 0x24 <__rc20>
    3c8f: 18           	clc
    3c90: a5 10        	lda	$10                     ; 0x10 <__rc0>
    3c92: 69 10        	adc	#$10
    3c94: 85 10        	sta	$10                     ; 0x10 <__rc0>
    3c96: a5 11        	lda	$11                     ; 0x11 <__rc1>
    3c98: 69 00        	adc	#$0
    3c9a: 85 11        	sta	$11                     ; 0x11 <__rc1>
    3c9c: 60           	rts

00003c9d <escReset>:
    3c9d: a2 b1        	ldx	#$b1
    3c9f: 86 14        	stx	$14                     ; 0x14 <__rc4>
    3ca1: a2 dd        	ldx	#$dd
    3ca3: 86 15        	stx	$15                     ; 0x15 <__rc5>
    3ca5: a2 a1        	ldx	#$a1
    3ca7: 86 12        	stx	$12                     ; 0x12 <__rc2>
    3ca9: a2 dd        	ldx	#$dd
    3cab: 86 13        	stx	$13                     ; 0x13 <__rc3>
    3cad: a6 7f        	ldx	$7f                     ; 0x7f <gPtr>
    3caf: a4 80        	ldy	$80                     ; 0x80 <gPtr+0x1>
    3cb1: 86 16        	stx	$16                     ; 0x16 <__rc6>
    3cb3: 84 17        	sty	$17                     ; 0x17 <__rc7>
    3cb5: a0 02        	ldy	#$2
    3cb7: b1 16        	lda	($16),y                 ; 0x16 <__rc6>
    3cb9: a2 a1        	ldx	#$a1
    3cbb: 86 16        	stx	$16                     ; 0x16 <__rc6>
    3cbd: a2 dd        	ldx	#$dd
    3cbf: 86 17        	stx	$17                     ; 0x17 <__rc7>
    3cc1: aa           	tax
    3cc2: f0 08        	beq	$3ccc <escReset+0x2f>
    3cc4: a2 b1        	ldx	#$b1
    3cc6: 86 16        	stx	$16                     ; 0x16 <__rc6>
    3cc8: a2 dd        	ldx	#$dd
    3cca: 86 17        	stx	$17                     ; 0x17 <__rc7>
    3ccc: a9 c0        	lda	#$c0
    3cce: 92 16        	sta	($16)                   ; 0x16 <__rc6>
    3cd0: aa           	tax
    3cd1: a9 00        	lda	#$0
    3cd3: 92 16        	sta	($16)                   ; 0x16 <__rc6>
    3cd5: 8a           	txa
    3cd6: 1a           	inc
    3cd7: c9 d0        	cmp	#$d0
    3cd9: d0 f3        	bne	$3cce <escReset+0x31>
    3cdb: a9 ff        	lda	#$ff
    3cdd: 92 16        	sta	($16)                   ; 0x16 <__rc6>
    3cdf: a6 7f        	ldx	$7f                     ; 0x7f <gPtr>
    3ce1: a4 80        	ldy	$80                     ; 0x80 <gPtr+0x1>
    3ce3: 86 16        	stx	$16                     ; 0x16 <__rc6>
    3ce5: 84 17        	sty	$17                     ; 0x17 <__rc7>
    3ce7: a0 02        	ldy	#$2
    3ce9: b1 16        	lda	($16),y                 ; 0x16 <__rc6>
    3ceb: c9 ff        	cmp	#$ff
    3ced: f0 08        	beq	$3cf7 <escReset+0x5a>
    3cef: a2 b1        	ldx	#$b1
    3cf1: 86 12        	stx	$12                     ; 0x12 <__rc2>
    3cf3: a2 dd        	ldx	#$dd
    3cf5: 86 13        	stx	$13                     ; 0x13 <__rc3>
    3cf7: a9 c0        	lda	#$c0
    3cf9: 92 12        	sta	($12)                   ; 0x12 <__rc2>
    3cfb: aa           	tax
    3cfc: a9 00        	lda	#$0
    3cfe: 92 12        	sta	($12)                   ; 0x12 <__rc2>
    3d00: 8a           	txa
    3d01: 1a           	inc
    3d02: c9 d0        	cmp	#$d0
    3d04: d0 f3        	bne	$3cf9 <escReset+0x5c>
    3d06: a9 ff        	lda	#$ff
    3d08: 92 12        	sta	($12)                   ; 0x12 <__rc2>
    3d0a: a6 7f        	ldx	$7f                     ; 0x7f <gPtr>
    3d0c: a4 80        	ldy	$80                     ; 0x80 <gPtr+0x1>
    3d0e: 86 12        	stx	$12                     ; 0x12 <__rc2>
    3d10: 84 13        	sty	$13                     ; 0x13 <__rc3>
    3d12: 20 29 3f     	jsr	$3f29 <resetGlobals>
    3d15: a2 02        	ldx	#$2
    3d17: 86 01        	stx	$1                      ; 0x1 <__data_size+0x1>
    3d19: a2 c0        	ldx	#$c0
    3d1b: a0 00        	ldy	#$0
    3d1d: a9 20        	lda	#$20
    3d1f: 84 12        	sty	$12                     ; 0x12 <__rc2>
    3d21: 86 13        	stx	$13                     ; 0x13 <__rc3>
    3d23: 92 12        	sta	($12)                   ; 0x12 <__rc2>
    3d25: c8           	iny
    3d26: d0 01        	bne	$3d29 <escReset+0x8c>
    3d28: e8           	inx
    3d29: e0 d2        	cpx	#$d2
    3d2b: d0 f2        	bne	$3d1f <escReset+0x82>
    3d2d: c0 c0        	cpy	#$c0
    3d2f: d0 ee        	bne	$3d1f <escReset+0x82>
    3d31: 64 01        	stz	$1                      ; 0x1 <__data_size+0x1>
    3d33: a6 7f        	ldx	$7f                     ; 0x7f <gPtr>
    3d35: a4 80        	ldy	$80                     ; 0x80 <gPtr+0x1>
    3d37: 86 12        	stx	$12                     ; 0x12 <__rc2>
    3d39: 84 13        	sty	$13                     ; 0x13 <__rc3>
    3d3b: 20 c5 4f     	jsr	$4fc5 <refreshInstrumentText>
    3d3e: a6 7f        	ldx	$7f                     ; 0x7f <gPtr>
    3d40: a4 80        	ldy	$80                     ; 0x80 <gPtr+0x1>
    3d42: 86 12        	stx	$12                     ; 0x12 <__rc2>
    3d44: 84 13        	sty	$13                     ; 0x13 <__rc3>
    3d46: 20 2b 57     	jsr	$572b <textTitle>
    3d49: ad 04 d4     	lda	$d404                   ; 0xd404 <end_block9+0x3b66>
    3d4c: 29 fe        	and	#$fe
    3d4e: 8d 04 d4     	sta	$d404                   ; 0xd404 <end_block9+0x3b66>
    3d51: ad 0b d4     	lda	$d40b                   ; 0xd40b <end_block9+0x3b6d>
    3d54: 29 fe        	and	#$fe
    3d56: 8d 0b d4     	sta	$d40b                   ; 0xd40b <end_block9+0x3b6d>
    3d59: ad 12 d4     	lda	$d412                   ; 0xd412 <end_block9+0x3b74>
    3d5c: 29 fe        	and	#$fe
    3d5e: 8d 12 d4     	sta	$d412                   ; 0xd412 <end_block9+0x3b74>
    3d61: ad 04 d5     	lda	$d504                   ; 0xd504 <end_block9+0x3c66>
    3d64: 29 fe        	and	#$fe
    3d66: 8d 04 d5     	sta	$d504                   ; 0xd504 <end_block9+0x3c66>
    3d69: ad 0b d5     	lda	$d50b                   ; 0xd50b <end_block9+0x3c6d>
    3d6c: 29 fe        	and	#$fe
    3d6e: 8d 0b d5     	sta	$d50b                   ; 0xd50b <end_block9+0x3c6d>
    3d71: ad 12 d5     	lda	$d512                   ; 0xd512 <end_block9+0x3c74>
    3d74: 29 fe        	and	#$fe
    3d76: 8d 12 d5     	sta	$d512                   ; 0xd512 <end_block9+0x3c74>
    3d79: a2 10        	ldx	#$10
    3d7b: a0 ff        	ldy	#$ff
    3d7d: 8a           	txa
    3d7e: 09 9f        	ora	#$9f
    3d80: 8d 00 d6     	sta	$d600                   ; 0xd600 <end_block9+0x3d62>
    3d83: 8d 10 d6     	sta	$d610                   ; 0xd610 <end_block9+0x3d72>
    3d86: 18           	clc
    3d87: 98           	tya
    3d88: 69 02        	adc	#$2
    3d8a: 85 12        	sta	$12                     ; 0x12 <__rc2>
    3d8c: 18           	clc
    3d8d: 8a           	txa
    3d8e: 69 20        	adc	#$20
    3d90: aa           	tax
    3d91: a4 12        	ldy	$12                     ; 0x12 <__rc2>
    3d93: a5 12        	lda	$12                     ; 0x12 <__rc2>
    3d95: c9 06        	cmp	#$6
    3d97: 90 e4        	bcc	$3d7d <escReset+0xe0>
    3d99: 64 37        	stz	$37                     ; 0x37 <instSelectMode>
    3d9b: a2 c2        	ldx	#$c2
    3d9d: 8e b1 dd     	stx	$ddb1                   ; 0xddb1 <end_block9+0x4513>
    3da0: a0 73        	ldy	#$73
    3da2: 8c b1 dd     	sty	$ddb1                   ; 0xddb1 <end_block9+0x4513>
    3da5: 8e a1 dd     	stx	$dda1                   ; 0xdda1 <end_block9+0x4503>
    3da8: 8c a1 dd     	sty	$dda1                   ; 0xdda1 <end_block9+0x4503>
    3dab: a6 7f        	ldx	$7f                     ; 0x7f <gPtr>
    3dad: a4 80        	ldy	$80                     ; 0x80 <gPtr+0x1>
    3daf: 86 12        	stx	$12                     ; 0x12 <__rc2>
    3db1: 84 13        	sty	$13                     ; 0x13 <__rc3>
    3db3: b2 12        	lda	($12)                   ; 0x12 <__rc2>
    3db5: 85 14        	sta	$14                     ; 0x14 <__rc4>
    3db7: a0 01        	ldy	#$1
    3db9: b1 12        	lda	($12),y                 ; 0x12 <__rc2>
    3dbb: 85 15        	sta	$15                     ; 0x15 <__rc5>
    3dbd: a9 00        	lda	#$0
    3dbf: 92 14        	sta	($14)                   ; 0x14 <__rc4>
    3dc1: b2 12        	lda	($12)                   ; 0x12 <__rc2>
    3dc3: 85 14        	sta	$14                     ; 0x14 <__rc4>
    3dc5: b1 12        	lda	($12),y                 ; 0x12 <__rc2>
    3dc7: 85 15        	sta	$15                     ; 0x15 <__rc5>
    3dc9: a9 00        	lda	#$0
    3dcb: 91 14        	sta	($14),y                 ; 0x14 <__rc4>
    3dcd: b2 12        	lda	($12)                   ; 0x12 <__rc2>
    3dcf: aa           	tax
    3dd0: b1 12        	lda	($12),y                 ; 0x12 <__rc2>
    3dd2: 86 12        	stx	$12                     ; 0x12 <__rc2>
    3dd4: 85 13        	sta	$13                     ; 0x13 <__rc3>
    3dd6: a0 09        	ldy	#$9
    3dd8: a9 00        	lda	#$0
    3dda: 91 12        	sta	($12),y                 ; 0x12 <__rc2>
    3ddc: 60           	rts

00003ddd <prepTempoLUT>:
    3ddd: a6 7f        	ldx	$7f                     ; 0x7f <gPtr>
    3ddf: a4 80        	ldy	$80                     ; 0x80 <gPtr+0x1>
    3de1: 86 12        	stx	$12                     ; 0x12 <__rc2>
    3de3: 84 13        	sty	$13                     ; 0x13 <__rc3>
    3de5: a0 09        	ldy	#$9
    3de7: b1 12        	lda	($12),y                 ; 0x12 <__rc2>
    3de9: 64 12        	stz	$12                     ; 0x12 <__rc2>
    3deb: 64 13        	stz	$13                     ; 0x13 <__rc3>
    3ded: a2 00        	ldx	#$0
    3def: 20 1b 7f     	jsr	$7f1b <__floatunsisf>
    3df2: 85 14        	sta	$14                     ; 0x14 <__rc4>
    3df4: 86 15        	stx	$15                     ; 0x15 <__rc5>
    3df6: a6 12        	ldx	$12                     ; 0x12 <__rc2>
    3df8: a4 13        	ldy	$13                     ; 0x13 <__rc3>
    3dfa: a9 e1        	lda	#$e1
    3dfc: 85 12        	sta	$12                     ; 0x12 <__rc2>
    3dfe: a9 43        	lda	#$43
    3e00: 85 13        	sta	$13                     ; 0x13 <__rc3>
    3e02: 86 16        	stx	$16                     ; 0x16 <__rc6>
    3e04: 84 17        	sty	$17                     ; 0x17 <__rc7>
    3e06: a2 00        	ldx	#$0
    3e08: 64 88        	stz	$88                     ; 0x88 <__zp_bss_size+0x33>
    3e0a: 8a           	txa
    3e0b: 20 06 73     	jsr	$7306 <__divsf3>
    3e0e: 20 9b 7e     	jsr	$7e9b <__fixunssfsi>
    3e11: 85 13        	sta	$13                     ; 0x13 <__rc3>
    3e13: 8d 80 98     	sta	$9880                   ; 0x9880 <mainTempoLUT>
    3e16: a0 01        	ldy	#$1
    3e18: 84 12        	sty	$12                     ; 0x12 <__rc2>
    3e1a: a5 13        	lda	$13                     ; 0x13 <__rc3>
    3e1c: 0a           	asl
    3e1d: c6 12        	dec	$12                     ; 0x12 <__rc2>
    3e1f: d0 fb        	bne	$3e1c <prepTempoLUT+0x3f>
    3e21: a6 88        	ldx	$88                     ; 0x88 <__zp_bss_size+0x33>
    3e23: 9d 81 98     	sta	$9881,x                 ; 0x9881 <mainTempoLUT+0x1>
    3e26: c8           	iny
    3e27: e8           	inx
    3e28: 86 88        	stx	$88                     ; 0x88 <__zp_bss_size+0x33>
    3e2a: c0 06        	cpy	#$6
    3e2c: d0 ea        	bne	$3e18 <prepTempoLUT+0x3b>
    3e2e: 64 88        	stz	$88                     ; 0x88 <__zp_bss_size+0x33>
    3e30: a2 03        	ldx	#$3
    3e32: 86 89        	stx	$89                     ; 0x89 <__zp_bss_size+0x34>
    3e34: a2 00        	ldx	#$0
    3e36: bd 80 98     	lda	$9880,x                 ; 0x9880 <mainTempoLUT>
    3e39: 0a           	asl
    3e3a: 64 14        	stz	$14                     ; 0x14 <__rc4>
    3e3c: 26 14        	rol	$14                     ; 0x14 <__rc4>
    3e3e: a4 89        	ldy	$89                     ; 0x89 <__zp_bss_size+0x34>
    3e40: 84 12        	sty	$12                     ; 0x12 <__rc2>
    3e42: 64 13        	stz	$13                     ; 0x13 <__rc3>
    3e44: 86 8a        	stx	$8a                     ; 0x8a <__zp_bss_size+0x35>
    3e46: a6 14        	ldx	$14                     ; 0x14 <__rc4>
    3e48: 20 c1 6f     	jsr	$6fc1 <__udivhi3>
    3e4b: a6 8a        	ldx	$8a                     ; 0x8a <__zp_bss_size+0x35>
    3e4d: 9d 86 98     	sta	$9886,x                 ; 0x9886 <mainTempoLUT+0x6>
    3e50: e8           	inx
    3e51: e0 06        	cpx	#$6
    3e53: d0 e1        	bne	$3e36 <prepTempoLUT+0x59>
    3e55: ad 81 98     	lda	$9881                   ; 0x9881 <mainTempoLUT+0x1>
    3e58: 0a           	asl
    3e59: 85 12        	sta	$12                     ; 0x12 <__rc2>
    3e5b: 0a           	asl
    3e5c: 0a           	asl
    3e5d: 0a           	asl
    3e5e: 18           	clc
    3e5f: 65 12        	adc	$12                     ; 0x12 <__rc2>
    3e61: 8d 91 98     	sta	$9891                   ; 0x9891 <mainTempoLUT+0x11>
    3e64: a2 03        	ldx	#$3
    3e66: 20 65 6f     	jsr	$6f65 <__udivqi3>
    3e69: 0a           	asl
    3e6a: 8d 8b 98     	sta	$988b                   ; 0x988b <mainTempoLUT+0xb>
    3e6d: 60           	rts

00003e6e <textPrintUInt>:
    3e6e: 48           	pha
    3e6f: 18           	clc
    3e70: a5 10        	lda	$10                     ; 0x10 <__rc0>
    3e72: 69 fe        	adc	#$fe
    3e74: 85 10        	sta	$10                     ; 0x10 <__rc0>
    3e76: a5 11        	lda	$11                     ; 0x11 <__rc1>
    3e78: 69 ff        	adc	#$ff
    3e7a: 85 11        	sta	$11                     ; 0x11 <__rc1>
    3e7c: 68           	pla
    3e7d: a4 24        	ldy	$24                     ; 0x24 <__rc20>
    3e7f: 5a           	phy
    3e80: a4 25        	ldy	$25                     ; 0x25 <__rc21>
    3e82: 5a           	phy
    3e83: a4 26        	ldy	$26                     ; 0x26 <__rc22>
    3e85: 5a           	phy
    3e86: a4 27        	ldy	$27                     ; 0x27 <__rc23>
    3e88: 5a           	phy
    3e89: 86 25        	stx	$25                     ; 0x25 <__rc21>
    3e8b: a4 12        	ldy	$12                     ; 0x12 <__rc2>
    3e8d: a6 13        	ldx	$13                     ; 0x13 <__rc3>
    3e8f: d0 18        	bne	$3ea9 <textPrintUInt+0x3b>
    3e91: 86 27        	stx	$27                     ; 0x27 <__rc23>
    3e93: c0 00        	cpy	#$0
    3e95: f0 03        	beq	$3e9a <textPrintUInt+0x2c>
    3e97: 4c 19 3f     	jmp	$3f19 <textPrintUInt+0xab>
    3e9a: a6 25        	ldx	$25                     ; 0x25 <__rc21>
    3e9c: f0 03        	beq	$3ea1 <textPrintUInt+0x33>
    3e9e: 4c 22 3f     	jmp	$3f22 <textPrintUInt+0xb4>
    3ea1: 84 26        	sty	$26                     ; 0x26 <__rc22>
    3ea3: c9 0a        	cmp	#$a
    3ea5: b0 0a        	bcs	$3eb1 <textPrintUInt+0x43>
    3ea7: 80 29        	bra	$3ed2 <textPrintUInt+0x64>
    3ea9: 84 26        	sty	$26                     ; 0x26 <__rc22>
    3eab: 86 27        	stx	$27                     ; 0x27 <__rc23>
    3ead: e0 00        	cpx	#$0
    3eaf: 90 21        	bcc	$3ed2 <textPrintUInt+0x64>
    3eb1: 8d 06 de     	sta	$de06                   ; 0xde06 <end_block9+0x4568>
    3eb4: a4 25        	ldy	$25                     ; 0x25 <__rc21>
    3eb6: 8c 07 de     	sty	$de07                   ; 0xde07 <end_block9+0x4569>
    3eb9: a2 0a        	ldx	#$a
    3ebb: 8e 04 de     	stx	$de04                   ; 0xde04 <end_block9+0x4566>
    3ebe: 9c 05 de     	stz	$de05                   ; 0xde05 <end_block9+0x4567>
    3ec1: 85 24        	sta	$24                     ; 0x24 <__rc20>
    3ec3: ad 14 de     	lda	$de14                   ; 0xde14 <end_block9+0x4576>
    3ec6: ae 15 de     	ldx	$de15                   ; 0xde15 <end_block9+0x4577>
    3ec9: 64 12        	stz	$12                     ; 0x12 <__rc2>
    3ecb: 64 13        	stz	$13                     ; 0x13 <__rc3>
    3ecd: 20 6e 3e     	jsr	$3e6e <textPrintUInt>
    3ed0: a5 24        	lda	$24                     ; 0x24 <__rc20>
    3ed2: a2 0a        	ldx	#$a
    3ed4: a4 26        	ldy	$26                     ; 0x26 <__rc22>
    3ed6: 84 12        	sty	$12                     ; 0x12 <__rc2>
    3ed8: a4 27        	ldy	$27                     ; 0x27 <__rc23>
    3eda: 84 13        	sty	$13                     ; 0x13 <__rc3>
    3edc: 86 14        	stx	$14                     ; 0x14 <__rc4>
    3ede: 64 15        	stz	$15                     ; 0x15 <__rc5>
    3ee0: 64 16        	stz	$16                     ; 0x16 <__rc6>
    3ee2: 64 17        	stz	$17                     ; 0x17 <__rc7>
    3ee4: a6 25        	ldx	$25                     ; 0x25 <__rc21>
    3ee6: 20 7a 70     	jsr	$707a <__umodsi3>
    3ee9: 09 30        	ora	#$30
    3eeb: 18           	clc
    3eec: a6 10        	ldx	$10                     ; 0x10 <__rc0>
    3eee: 86 12        	stx	$12                     ; 0x12 <__rc2>
    3ef0: a6 11        	ldx	$11                     ; 0x11 <__rc1>
    3ef2: 86 13        	stx	$13                     ; 0x13 <__rc3>
    3ef4: 92 12        	sta	($12)                   ; 0x12 <__rc2>
    3ef6: a0 01        	ldy	#$1
    3ef8: a9 00        	lda	#$0
    3efa: 91 12        	sta	($12),y                 ; 0x12 <__rc2>
    3efc: 20 90 33     	jsr	$3390 <textPrint>
    3eff: fa           	plx
    3f00: 86 27        	stx	$27                     ; 0x27 <__rc23>
    3f02: fa           	plx
    3f03: 86 26        	stx	$26                     ; 0x26 <__rc22>
    3f05: fa           	plx
    3f06: 86 25        	stx	$25                     ; 0x25 <__rc21>
    3f08: fa           	plx
    3f09: 86 24        	stx	$24                     ; 0x24 <__rc20>
    3f0b: 18           	clc
    3f0c: a5 10        	lda	$10                     ; 0x10 <__rc0>
    3f0e: 69 02        	adc	#$2
    3f10: 85 10        	sta	$10                     ; 0x10 <__rc0>
    3f12: a5 11        	lda	$11                     ; 0x11 <__rc1>
    3f14: 69 00        	adc	#$0
    3f16: 85 11        	sta	$11                     ; 0x11 <__rc1>
    3f18: 60           	rts
    3f19: 84 26        	sty	$26                     ; 0x26 <__rc22>
    3f1b: c0 00        	cpy	#$0
    3f1d: 90 b3        	bcc	$3ed2 <textPrintUInt+0x64>
    3f1f: 4c b1 3e     	jmp	$3eb1 <textPrintUInt+0x43>
    3f22: 84 26        	sty	$26                     ; 0x26 <__rc22>
    3f24: a6 25        	ldx	$25                     ; 0x25 <__rc21>
    3f26: 4c ad 3e     	jmp	$3ead <textPrintUInt+0x3f>

00003f29 <resetGlobals>:
    3f29: a6 12        	ldx	$12                     ; 0x12 <__rc2>
    3f2b: 86 88        	stx	$88                     ; 0x88 <__zp_bss_size+0x33>
    3f2d: a6 13        	ldx	$13                     ; 0x13 <__rc3>
    3f2f: 86 89        	stx	$89                     ; 0x89 <__zp_bss_size+0x34>
    3f31: a5 88        	lda	$88                     ; 0x88 <__zp_bss_size+0x33>
    3f33: 18           	clc
    3f34: 69 02        	adc	#$2
    3f36: 85 12        	sta	$12                     ; 0x12 <__rc2>
    3f38: a5 89        	lda	$89                     ; 0x89 <__zp_bss_size+0x34>
    3f3a: 69 00        	adc	#$0
    3f3c: 85 13        	sta	$13                     ; 0x13 <__rc3>
    3f3e: a2 07        	ldx	#$7
    3f40: 64 14        	stz	$14                     ; 0x14 <__rc4>
    3f42: a9 00        	lda	#$0
    3f44: 20 17 6f     	jsr	$6f17 <__memset>
    3f47: a0 09        	ldy	#$9
    3f49: a9 78        	lda	#$78
    3f4b: 91 88        	sta	($88),y                 ; 0x88 <__zp_bss_size+0x33>
    3f4d: a0 01        	ldy	#$1
    3f4f: b1 88        	lda	($88),y                 ; 0x88 <__zp_bss_size+0x33>
    3f51: a2 00        	ldx	#$0
    3f53: 86 12        	stx	$12                     ; 0x12 <__rc2>
    3f55: a2 00        	ldx	#$0
    3f57: 86 13        	stx	$13                     ; 0x13 <__rc3>
    3f59: c5 13        	cmp	$13                     ; 0x13 <__rc3>
    3f5b: d0 17        	bne	$3f74 <resetGlobals+0x4b>
    3f5d: b2 88        	lda	($88)                   ; 0x88 <__zp_bss_size+0x33>
    3f5f: c5 12        	cmp	$12                     ; 0x12 <__rc2>
    3f61: d0 11        	bne	$3f74 <resetGlobals+0x4b>
    3f63: a9 0a        	lda	#$a
    3f65: a2 00        	ldx	#$0
    3f67: 20 03 6d     	jsr	$6d03 <malloc>
    3f6a: a5 12        	lda	$12                     ; 0x12 <__rc2>
    3f6c: 92 88        	sta	($88)                   ; 0x88 <__zp_bss_size+0x33>
    3f6e: a0 01        	ldy	#$1
    3f70: a5 13        	lda	$13                     ; 0x13 <__rc3>
    3f72: 91 88        	sta	($88),y                 ; 0x88 <__zp_bss_size+0x33>
    3f74: a0 00        	ldy	#$0
    3f76: b2 88        	lda	($88)                   ; 0x88 <__zp_bss_size+0x33>
    3f78: aa           	tax
    3f79: 84 12        	sty	$12                     ; 0x12 <__rc2>
    3f7b: a0 01        	ldy	#$1
    3f7d: b1 88        	lda	($88),y                 ; 0x88 <__zp_bss_size+0x33>
    3f7f: a4 12        	ldy	$12                     ; 0x12 <__rc2>
    3f81: 86 12        	stx	$12                     ; 0x12 <__rc2>
    3f83: 85 13        	sta	$13                     ; 0x13 <__rc3>
    3f85: a9 00        	lda	#$0
    3f87: 91 12        	sta	($12),y                 ; 0x12 <__rc2>
    3f89: c8           	iny
    3f8a: c0 0a        	cpy	#$a
    3f8c: d0 e8        	bne	$3f76 <resetGlobals+0x4d>
    3f8e: 60           	rts

00003f8f <dispatchNote>:
    3f8f: 86 1c        	stx	$1c                     ; 0x1c <__rc12>
    3f91: a6 12        	ldx	$12                     ; 0x12 <__rc2>
    3f93: 86 88        	stx	$88                     ; 0x88 <__zp_bss_size+0x33>
    3f95: a4 15        	ldy	$15                     ; 0x15 <__rc5>
    3f97: aa           	tax
    3f98: f0 07        	beq	$3fa1 <dispatchNote+0x12>
    3f9a: a6 88        	ldx	$88                     ; 0x88 <__zp_bss_size+0x33>
    3f9c: d0 03        	bne	$3fa1 <dispatchNote+0x12>
    3f9e: 4c 99 43     	jmp	$4399 <dispatchNote+0x40a>
    3fa1: c0 05        	cpy	#$5
    3fa3: 90 03        	bcc	$3fa8 <dispatchNote+0x19>
    3fa5: 4c 99 43     	jmp	$4399 <dispatchNote+0x40a>
    3fa8: 84 12        	sty	$12                     ; 0x12 <__rc2>
    3faa: 06 12        	asl	$12                     ; 0x12 <__rc2>
    3fac: a6 12        	ldx	$12                     ; 0x12 <__rc2>
    3fae: 7c 3a 84     	jmp	($843a,x)               ; 0x843a <__set_v+0x17>
    3fb1: a2 b1        	ldx	#$b1
    3fb3: 86 1a        	stx	$1a                     ; 0x1a <__rc10>
    3fb5: a2 dd        	ldx	#$dd
    3fb7: 86 1b        	stx	$1b                     ; 0x1b <__rc11>
    3fb9: a2 a1        	ldx	#$a1
    3fbb: 86 18        	stx	$18                     ; 0x18 <__rc8>
    3fbd: a2 dd        	ldx	#$dd
    3fbf: 86 19        	stx	$19                     ; 0x19 <__rc9>
    3fc1: aa           	tax
    3fc2: d0 03        	bne	$3fc7 <dispatchNote+0x38>
    3fc4: 4c 68 40     	jmp	$4068 <dispatchNote+0xd9>
    3fc7: c0 04        	cpy	#$4
    3fc9: f0 03        	beq	$3fce <dispatchNote+0x3f>
    3fcb: 4c 8c 40     	jmp	$408c <dispatchNote+0xfd>
    3fce: a5 1c        	lda	$1c                     ; 0x1c <__rc12>
    3fd0: 09 90        	ora	#$90
    3fd2: 8d b1 dd     	sta	$ddb1                   ; 0xddb1 <end_block9+0x4513>
    3fd5: a6 88        	ldx	$88                     ; 0x88 <__zp_bss_size+0x33>
    3fd7: 86 1c        	stx	$1c                     ; 0x1c <__rc12>
    3fd9: 8e b1 dd     	stx	$ddb1                   ; 0xddb1 <end_block9+0x4513>
    3fdc: a6 13        	ldx	$13                     ; 0x13 <__rc3>
    3fde: 86 15        	stx	$15                     ; 0x15 <__rc5>
    3fe0: 8e b1 dd     	stx	$ddb1                   ; 0xddb1 <end_block9+0x4513>
    3fe3: a6 7f        	ldx	$7f                     ; 0x7f <gPtr>
    3fe5: a4 80        	ldy	$80                     ; 0x80 <gPtr+0x1>
    3fe7: 86 16        	stx	$16                     ; 0x16 <__rc6>
    3fe9: 84 17        	sty	$17                     ; 0x17 <__rc7>
    3feb: a0 07        	ldy	#$7
    3fed: b1 16        	lda	($16),y                 ; 0x16 <__rc6>
    3fef: a2 b1        	ldx	#$b1
    3ff1: 86 18        	stx	$18                     ; 0x18 <__rc8>
    3ff3: a2 dd        	ldx	#$dd
    3ff5: 86 19        	stx	$19                     ; 0x19 <__rc9>
    3ff7: aa           	tax
    3ff8: f0 03        	beq	$3ffd <dispatchNote+0x6e>
    3ffa: 4c d4 41     	jmp	$41d4 <dispatchNote+0x245>
    3ffd: 4c e0 41     	jmp	$41e0 <dispatchNote+0x251>
    4000: a2 80        	ldx	#$80
    4002: 86 12        	stx	$12                     ; 0x12 <__rc2>
    4004: a2 d5        	ldx	#$d5
    4006: 86 13        	stx	$13                     ; 0x13 <__rc3>
    4008: a2 82        	ldx	#$82
    400a: 86 14        	stx	$14                     ; 0x14 <__rc4>
    400c: a2 d5        	ldx	#$d5
    400e: 86 15        	stx	$15                     ; 0x15 <__rc5>
    4010: aa           	tax
    4011: d0 03        	bne	$4016 <dispatchNote+0x87>
    4013: 4c c5 40     	jmp	$40c5 <dispatchNote+0x136>
    4016: a5 16        	lda	$16                     ; 0x16 <__rc6>
    4018: d0 03        	bne	$401d <dispatchNote+0x8e>
    401a: 4c 43 41     	jmp	$4143 <dispatchNote+0x1b4>
    401d: a5 1c        	lda	$1c                     ; 0x1c <__rc12>
    401f: a6 1c        	ldx	$1c                     ; 0x1c <__rc12>
    4021: c9 ff        	cmp	#$ff
    4023: f0 03        	beq	$4028 <dispatchNote+0x99>
    4025: 4c 57 41     	jmp	$4157 <dispatchNote+0x1c8>
    4028: 4c 7b 44     	jmp	$447b <dispatchNote+0x4ec>
    402b: aa           	tax
    402c: d0 03        	bne	$4031 <dispatchNote+0xa2>
    402e: 4c ee 40     	jmp	$40ee <dispatchNote+0x15f>
    4031: a5 16        	lda	$16                     ; 0x16 <__rc6>
    4033: d0 03        	bne	$4038 <dispatchNote+0xa9>
    4035: 4c 77 41     	jmp	$4177 <dispatchNote+0x1e8>
    4038: a6 1c        	ldx	$1c                     ; 0x1c <__rc12>
    403a: a5 88        	lda	$88                     ; 0x88 <__zp_bss_size+0x33>
    403c: 9d 43 00     	sta	$43,x                   ; 0x43 <polySIDBuffer>
    403f: a5 1c        	lda	$1c                     ; 0x1c <__rc12>
    4041: 30 03        	bmi	$4046 <dispatchNote+0xb7>
    4043: 4c ea 41     	jmp	$41ea <dispatchNote+0x25b>
    4046: a2 ff        	ldx	#$ff
    4048: 86 12        	stx	$12                     ; 0x12 <__rc2>
    404a: 4c ec 41     	jmp	$41ec <dispatchNote+0x25d>
    404d: aa           	tax
    404e: d0 03        	bne	$4053 <dispatchNote+0xc4>
    4050: 4c fe 40     	jmp	$40fe <dispatchNote+0x16f>
    4053: a5 16        	lda	$16                     ; 0x16 <__rc6>
    4055: d0 03        	bne	$405a <dispatchNote+0xcb>
    4057: 4c 93 41     	jmp	$4193 <dispatchNote+0x204>
    405a: a6 1c        	ldx	$1c                     ; 0x1c <__rc12>
    405c: 86 12        	stx	$12                     ; 0x12 <__rc2>
    405e: e0 ff        	cpx	#$ff
    4060: f0 03        	beq	$4065 <dispatchNote+0xd6>
    4062: 4c a9 41     	jmp	$41a9 <dispatchNote+0x21a>
    4065: 4c eb 44     	jmp	$44eb <dispatchNote+0x55c>
    4068: c0 04        	cpy	#$4
    406a: f0 03        	beq	$406f <dispatchNote+0xe0>
    406c: 4c 1b 41     	jmp	$411b <dispatchNote+0x18c>
    406f: 84 12        	sty	$12                     ; 0x12 <__rc2>
    4071: a5 1c        	lda	$1c                     ; 0x1c <__rc12>
    4073: 09 80        	ora	#$80
    4075: 8d b1 dd     	sta	$ddb1                   ; 0xddb1 <end_block9+0x4513>
    4078: a6 88        	ldx	$88                     ; 0x88 <__zp_bss_size+0x33>
    407a: 8e b1 dd     	stx	$ddb1                   ; 0xddb1 <end_block9+0x4513>
    407d: a6 13        	ldx	$13                     ; 0x13 <__rc3>
    407f: 8e b1 dd     	stx	$ddb1                   ; 0xddb1 <end_block9+0x4513>
    4082: a5 14        	lda	$14                     ; 0x14 <__rc4>
    4084: f0 03        	beq	$4089 <dispatchNote+0xfa>
    4086: 4c 37 41     	jmp	$4137 <dispatchNote+0x1a8>
    4089: 4c 16 45     	jmp	$4516 <dispatchNote+0x587>
    408c: a5 1c        	lda	$1c                     ; 0x1c <__rc12>
    408e: 09 90        	ora	#$90
    4090: a6 88        	ldx	$88                     ; 0x88 <__zp_bss_size+0x33>
    4092: a4 14        	ldy	$14                     ; 0x14 <__rc4>
    4094: d0 03        	bne	$4099 <dispatchNote+0x10a>
    4096: 4c b7 41     	jmp	$41b7 <dispatchNote+0x228>
    4099: 8d b1 dd     	sta	$ddb1                   ; 0xddb1 <end_block9+0x4513>
    409c: 8e b1 dd     	stx	$ddb1                   ; 0xddb1 <end_block9+0x4513>
    409f: a4 13        	ldy	$13                     ; 0x13 <__rc3>
    40a1: 84 15        	sty	$15                     ; 0x15 <__rc5>
    40a3: 8c b1 dd     	sty	$ddb1                   ; 0xddb1 <end_block9+0x4513>
    40a6: a5 7f        	lda	$7f                     ; 0x7f <gPtr>
    40a8: a4 80        	ldy	$80                     ; 0x80 <gPtr+0x1>
    40aa: 85 16        	sta	$16                     ; 0x16 <__rc6>
    40ac: 84 17        	sty	$17                     ; 0x17 <__rc7>
    40ae: a0 07        	ldy	#$7
    40b0: 86 1c        	stx	$1c                     ; 0x1c <__rc12>
    40b2: b1 16        	lda	($16),y                 ; 0x16 <__rc6>
    40b4: a2 b1        	ldx	#$b1
    40b6: 86 18        	stx	$18                     ; 0x18 <__rc8>
    40b8: a2 dd        	ldx	#$dd
    40ba: 86 19        	stx	$19                     ; 0x19 <__rc9>
    40bc: aa           	tax
    40bd: f0 03        	beq	$40c2 <dispatchNote+0x133>
    40bf: 4c d4 41     	jmp	$41d4 <dispatchNote+0x245>
    40c2: 4c e4 41     	jmp	$41e4 <dispatchNote+0x255>
    40c5: a2 00        	ldx	#$0
    40c7: a5 88        	lda	$88                     ; 0x88 <__zp_bss_size+0x33>
    40c9: 85 16        	sta	$16                     ; 0x16 <__rc6>
    40cb: b4 5b        	ldy	$5b,x                   ; 0x5b <polyOPL3Buffer>
    40cd: c4 16        	cpy	$16                     ; 0x16 <__rc6>
    40cf: d0 03        	bne	$40d4 <dispatchNote+0x145>
    40d1: 4c 8b 42     	jmp	$428b <dispatchNote+0x2fc>
    40d4: e8           	inx
    40d5: e0 12        	cpx	#$12
    40d7: d0 f2        	bne	$40cb <dispatchNote+0x13c>
    40d9: a6 14        	ldx	$14                     ; 0x14 <__rc4>
    40db: 86 8d        	stx	$8d                     ; 0x8d <__zp_bss_size+0x38>
    40dd: a6 15        	ldx	$15                     ; 0x15 <__rc5>
    40df: 86 8e        	stx	$8e                     ; 0x8e <__zp_bss_size+0x39>
    40e1: a6 12        	ldx	$12                     ; 0x12 <__rc2>
    40e3: 86 8f        	stx	$8f                     ; 0x8f <__zp_bss_size+0x3a>
    40e5: a6 13        	ldx	$13                     ; 0x13 <__rc3>
    40e7: 86 90        	stx	$90                     ; 0x90 <__zp_bss_size+0x3b>
    40e9: a2 ff        	ldx	#$ff
    40eb: 4c 9b 42     	jmp	$429b <dispatchNote+0x30c>
    40ee: a5 16        	lda	$16                     ; 0x16 <__rc6>
    40f0: d0 03        	bne	$40f5 <dispatchNote+0x166>
    40f2: 4c ee 44     	jmp	$44ee <dispatchNote+0x55f>
    40f5: a5 1c        	lda	$1c                     ; 0x1c <__rc12>
    40f7: a6 1c        	ldx	$1c                     ; 0x1c <__rc12>
    40f9: 74 43        	stz	$43,x                   ; 0x43 <polySIDBuffer>
    40fb: 4c 71 45     	jmp	$4571 <dispatchNote+0x5e2>
    40fe: a0 d6        	ldy	#$d6
    4100: a2 00        	ldx	#$0
    4102: a5 88        	lda	$88                     ; 0x88 <__zp_bss_size+0x33>
    4104: 85 12        	sta	$12                     ; 0x12 <__rc2>
    4106: b5 4f        	lda	$4f,x                   ; 0x4f <polyPSGBuffer>
    4108: c5 12        	cmp	$12                     ; 0x12 <__rc2>
    410a: d0 03        	bne	$410f <dispatchNote+0x180>
    410c: 4c 5c 43     	jmp	$435c <dispatchNote+0x3cd>
    410f: e8           	inx
    4110: e0 06        	cpx	#$6
    4112: d0 f2        	bne	$4106 <dispatchNote+0x177>
    4114: 64 12        	stz	$12                     ; 0x12 <__rc2>
    4116: 64 4e        	stz	$4e                     ; 0x4e <reservedSID+0x5>
    4118: 4c 6b 43     	jmp	$436b <dispatchNote+0x3dc>
    411b: 84 12        	sty	$12                     ; 0x12 <__rc2>
    411d: a5 1c        	lda	$1c                     ; 0x1c <__rc12>
    411f: 09 80        	ora	#$80
    4121: a6 88        	ldx	$88                     ; 0x88 <__zp_bss_size+0x33>
    4123: a4 13        	ldy	$13                     ; 0x13 <__rc3>
    4125: e6 14        	inc	$14                     ; 0x14 <__rc4>
    4127: c6 14        	dec	$14                     ; 0x14 <__rc4>
    4129: d0 03        	bne	$412e <dispatchNote+0x19f>
    412b: 4c 0d 45     	jmp	$450d <dispatchNote+0x57e>
    412e: 8d b1 dd     	sta	$ddb1                   ; 0xddb1 <end_block9+0x4513>
    4131: 8e b1 dd     	stx	$ddb1                   ; 0xddb1 <end_block9+0x4513>
    4134: 8c b1 dd     	sty	$ddb1                   ; 0xddb1 <end_block9+0x4513>
    4137: a5 3f        	lda	$3f                     ; 0x3f <chipAct.1>
    4139: b8           	clv
    413a: a2 3f        	ldx	#$3f
    413c: 86 16        	stx	$16                     ; 0x16 <__rc6>
    413e: a2 00        	ldx	#$0
    4140: 4c 21 45     	jmp	$4521 <dispatchNote+0x592>
    4143: a2 00        	ldx	#$0
    4145: 80 08        	bra	$414f <dispatchNote+0x1c0>
    4147: e8           	inx
    4148: e0 12        	cpx	#$12
    414a: d0 03        	bne	$414f <dispatchNote+0x1c0>
    414c: 4c 7b 44     	jmp	$447b <dispatchNote+0x4ec>
    414f: b4 6d        	ldy	$6d,x                   ; 0x6d <reservedOPL3>
    4151: d0 f4        	bne	$4147 <dispatchNote+0x1b8>
    4153: b4 5b        	ldy	$5b,x                   ; 0x5b <polyOPL3Buffer>
    4155: d0 f0        	bne	$4147 <dispatchNote+0x1b8>
    4157: a5 88        	lda	$88                     ; 0x88 <__zp_bss_size+0x33>
    4159: e0 00        	cpx	#$0
    415b: 30 03        	bmi	$4160 <dispatchNote+0x1d1>
    415d: 4c 9a 43     	jmp	$439a <dispatchNote+0x40b>
    4160: 86 92        	stx	$92                     ; 0x92 <__zp_bss_size+0x3d>
    4162: a6 14        	ldx	$14                     ; 0x14 <__rc4>
    4164: 86 8d        	stx	$8d                     ; 0x8d <__zp_bss_size+0x38>
    4166: a6 15        	ldx	$15                     ; 0x15 <__rc5>
    4168: 86 8e        	stx	$8e                     ; 0x8e <__zp_bss_size+0x39>
    416a: a6 12        	ldx	$12                     ; 0x12 <__rc2>
    416c: 86 8f        	stx	$8f                     ; 0x8f <__zp_bss_size+0x3a>
    416e: a6 13        	ldx	$13                     ; 0x13 <__rc3>
    4170: 86 90        	stx	$90                     ; 0x90 <__zp_bss_size+0x3b>
    4172: a2 ff        	ldx	#$ff
    4174: 4c ae 43     	jmp	$43ae <dispatchNote+0x41f>
    4177: a2 00        	ldx	#$0
    4179: 80 08        	bra	$4183 <dispatchNote+0x1f4>
    417b: e8           	inx
    417c: e0 06        	cpx	#$6
    417e: d0 03        	bne	$4183 <dispatchNote+0x1f4>
    4180: 4c 88 42     	jmp	$4288 <dispatchNote+0x2f9>
    4183: b4 49        	ldy	$49,x                   ; 0x49 <reservedSID>
    4185: d0 f4        	bne	$417b <dispatchNote+0x1ec>
    4187: b4 43        	ldy	$43,x                   ; 0x43 <polySIDBuffer>
    4189: d0 f0        	bne	$417b <dispatchNote+0x1ec>
    418b: 64 12        	stz	$12                     ; 0x12 <__rc2>
    418d: 86 13        	stx	$13                     ; 0x13 <__rc3>
    418f: 8a           	txa
    4190: 4c ee 41     	jmp	$41ee <dispatchNote+0x25f>
    4193: a2 00        	ldx	#$0
    4195: 80 08        	bra	$419f <dispatchNote+0x210>
    4197: e8           	inx
    4198: e0 06        	cpx	#$6
    419a: d0 03        	bne	$419f <dispatchNote+0x210>
    419c: 4c eb 44     	jmp	$44eb <dispatchNote+0x55c>
    419f: b4 55        	ldy	$55,x                   ; 0x55 <reservedPSG>
    41a1: d0 f4        	bne	$4197 <dispatchNote+0x208>
    41a3: b4 4f        	ldy	$4f,x                   ; 0x4f <polyPSGBuffer>
    41a5: d0 f0        	bne	$4197 <dispatchNote+0x208>
    41a7: 86 12        	stx	$12                     ; 0x12 <__rc2>
    41a9: a5 12        	lda	$12                     ; 0x12 <__rc2>
    41ab: 30 03        	bmi	$41b0 <dispatchNote+0x221>
    41ad: 4c 7e 44     	jmp	$447e <dispatchNote+0x4ef>
    41b0: a2 ff        	ldx	#$ff
    41b2: 86 18        	stx	$18                     ; 0x18 <__rc8>
    41b4: 4c 80 44     	jmp	$4480 <dispatchNote+0x4f1>
    41b7: 8d a1 dd     	sta	$dda1                   ; 0xdda1 <end_block9+0x4503>
    41ba: 8e a1 dd     	stx	$dda1                   ; 0xdda1 <end_block9+0x4503>
    41bd: a4 13        	ldy	$13                     ; 0x13 <__rc3>
    41bf: 84 15        	sty	$15                     ; 0x15 <__rc5>
    41c1: 8c a1 dd     	sty	$dda1                   ; 0xdda1 <end_block9+0x4503>
    41c4: a5 7f        	lda	$7f                     ; 0x7f <gPtr>
    41c6: a4 80        	ldy	$80                     ; 0x80 <gPtr+0x1>
    41c8: 85 12        	sta	$12                     ; 0x12 <__rc2>
    41ca: 84 13        	sty	$13                     ; 0x13 <__rc3>
    41cc: a0 07        	ldy	#$7
    41ce: 86 1c        	stx	$1c                     ; 0x1c <__rc12>
    41d0: b1 12        	lda	($12),y                 ; 0x12 <__rc2>
    41d2: f0 0c        	beq	$41e0 <dispatchNote+0x251>
    41d4: a9 91        	lda	#$91
    41d6: 92 18        	sta	($18)                   ; 0x18 <__rc8>
    41d8: a5 1c        	lda	$1c                     ; 0x1c <__rc12>
    41da: 92 18        	sta	($18)                   ; 0x18 <__rc8>
    41dc: a5 15        	lda	$15                     ; 0x15 <__rc5>
    41de: 92 18        	sta	($18)                   ; 0x18 <__rc8>
    41e0: a5 14        	lda	$14                     ; 0x14 <__rc4>
    41e2: f0 03        	beq	$41e7 <dispatchNote+0x258>
    41e4: e6 3f        	inc	$3f                     ; 0x3f <chipAct.1>
    41e6: 60           	rts
    41e7: e6 3e        	inc	$3e                     ; 0x3e <chipAct.0>
    41e9: 60           	rts
    41ea: 64 12        	stz	$12                     ; 0x12 <__rc2>
    41ec: 85 13        	sta	$13                     ; 0x13 <__rc3>
    41ee: 38           	sec
    41ef: e9 03        	sbc	#$3
    41f1: 50 02        	bvc	$41f5 <dispatchNote+0x266>
    41f3: 49 80        	eor	#$80
    41f5: a2 d5        	ldx	#$d5
    41f7: a8           	tay
    41f8: 10 02        	bpl	$41fc <dispatchNote+0x26d>
    41fa: a2 d4        	ldx	#$d4
    41fc: a9 63        	lda	#$63
    41fe: 18           	clc
    41ff: 65 13        	adc	$13                     ; 0x13 <__rc3>
    4201: 85 14        	sta	$14                     ; 0x14 <__rc4>
    4203: a9 93        	lda	#$93
    4205: 65 12        	adc	$12                     ; 0x12 <__rc2>
    4207: 85 15        	sta	$15                     ; 0x15 <__rc5>
    4209: b2 14        	lda	($14)                   ; 0x14 <__rc4>
    420b: a4 88        	ldy	$88                     ; 0x88 <__zp_bss_size+0x33>
    420d: 84 1a        	sty	$1a                     ; 0x1a <__rc10>
    420f: 86 19        	stx	$19                     ; 0x19 <__rc9>
    4211: a6 88        	ldx	$88                     ; 0x88 <__zp_bss_size+0x33>
    4213: bc fc 93     	ldy	$93fc,x                 ; 0x93fc <psgHigh+0x35>
    4216: 85 14        	sta	$14                     ; 0x14 <__rc4>
    4218: 85 1c        	sta	$1c                     ; 0x1c <__rc12>
    421a: a5 19        	lda	$19                     ; 0x19 <__rc9>
    421c: 85 15        	sta	$15                     ; 0x15 <__rc5>
    421e: 98           	tya
    421f: 92 14        	sta	($14)                   ; 0x14 <__rc4>
    4221: bc fb 89     	ldy	$89fb,x                 ; 0x89fb <KeyCodesToMIDINotes+0x4e5>
    4224: a6 19        	ldx	$19                     ; 0x19 <__rc9>
    4226: a5 1c        	lda	$1c                     ; 0x1c <__rc12>
    4228: 85 18        	sta	$18                     ; 0x18 <__rc8>
    422a: e6 18        	inc	$18                     ; 0x18 <__rc8>
    422c: d0 01        	bne	$422f <dispatchNote+0x2a0>
    422e: e8           	inx
    422f: 86 19        	stx	$19                     ; 0x19 <__rc9>
    4231: 98           	tya
    4232: 92 18        	sta	($18)                   ; 0x18 <__rc8>
    4234: a5 16        	lda	$16                     ; 0x16 <__rc6>
    4236: d0 0e        	bne	$4246 <dispatchNote+0x2b7>
    4238: a6 7f        	ldx	$7f                     ; 0x7f <gPtr>
    423a: a4 80        	ldy	$80                     ; 0x80 <gPtr+0x1>
    423c: 86 16        	stx	$16                     ; 0x16 <__rc6>
    423e: 84 17        	sty	$17                     ; 0x17 <__rc7>
    4240: a0 04        	ldy	#$4
    4242: b1 16        	lda	($16),y                 ; 0x16 <__rc6>
    4244: 85 17        	sta	$17                     ; 0x17 <__rc7>
    4246: 64 18        	stz	$18                     ; 0x18 <__rc8>
    4248: a5 17        	lda	$17                     ; 0x17 <__rc7>
    424a: 0a           	asl
    424b: 26 18        	rol	$18                     ; 0x18 <__rc8>
    424d: 0a           	asl
    424e: 26 18        	rol	$18                     ; 0x18 <__rc8>
    4250: 0a           	asl
    4251: 26 18        	rol	$18                     ; 0x18 <__rc8>
    4253: a2 00        	ldx	#$0
    4255: 18           	clc
    4256: 65 17        	adc	$17                     ; 0x17 <__rc7>
    4258: 85 16        	sta	$16                     ; 0x16 <__rc6>
    425a: a5 18        	lda	$18                     ; 0x18 <__rc8>
    425c: 69 00        	adc	#$0
    425e: 85 17        	sta	$17                     ; 0x17 <__rc7>
    4260: a9 b1        	lda	#$b1
    4262: 18           	clc
    4263: 65 16        	adc	$16                     ; 0x16 <__rc6>
    4265: 85 16        	sta	$16                     ; 0x16 <__rc6>
    4267: a9 95        	lda	#$95
    4269: 65 17        	adc	$17                     ; 0x17 <__rc7>
    426b: 85 17        	sta	$17                     ; 0x17 <__rc7>
    426d: a0 05        	ldy	#$5
    426f: a9 01        	lda	#$1
    4271: 11 16        	ora	($16),y                 ; 0x16 <__rc6>
    4273: 88           	dey
    4274: 91 14        	sta	($14),y                 ; 0x14 <__rc4>
    4276: a9 43        	lda	#$43
    4278: 18           	clc
    4279: 65 13        	adc	$13                     ; 0x13 <__rc3>
    427b: aa           	tax
    427c: a9 00        	lda	#$0
    427e: 65 12        	adc	$12                     ; 0x12 <__rc2>
    4280: 86 12        	stx	$12                     ; 0x12 <__rc2>
    4282: 85 13        	sta	$13                     ; 0x13 <__rc3>
    4284: a5 1a        	lda	$1a                     ; 0x1a <__rc10>
    4286: 92 12        	sta	($12)                   ; 0x12 <__rc2>
    4288: e6 40        	inc	$40                     ; 0x40 <chipAct.2>
    428a: 60           	rts
    428b: a4 14        	ldy	$14                     ; 0x14 <__rc4>
    428d: 84 8d        	sty	$8d                     ; 0x8d <__zp_bss_size+0x38>
    428f: a4 15        	ldy	$15                     ; 0x15 <__rc5>
    4291: 84 8e        	sty	$8e                     ; 0x8e <__zp_bss_size+0x39>
    4293: a4 12        	ldy	$12                     ; 0x12 <__rc2>
    4295: 84 8f        	sty	$8f                     ; 0x8f <__zp_bss_size+0x3a>
    4297: a4 13        	ldy	$13                     ; 0x13 <__rc3>
    4299: 84 90        	sty	$90                     ; 0x90 <__zp_bss_size+0x3b>
    429b: 86 91        	stx	$91                     ; 0x91 <__zp_bss_size+0x3c>
    429d: 18           	clc
    429e: 69 05        	adc	#$5
    42a0: 85 16        	sta	$16                     ; 0x16 <__rc6>
    42a2: a9 00        	lda	#$0
    42a4: 69 00        	adc	#$0
    42a6: a2 89        	ldx	#$89
    42a8: a0 00        	ldy	#$0
    42aa: 86 14        	stx	$14                     ; 0x14 <__rc4>
    42ac: 84 15        	sty	$15                     ; 0x15 <__rc5>
    42ae: a2 0c        	ldx	#$c
    42b0: 86 12        	stx	$12                     ; 0x12 <__rc2>
    42b2: 64 13        	stz	$13                     ; 0x13 <__rc3>
    42b4: aa           	tax
    42b5: a5 16        	lda	$16                     ; 0x16 <__rc6>
    42b7: 20 2f 72     	jsr	$722f <__udivmodhi4>
    42ba: 85 18        	sta	$18                     ; 0x18 <__rc8>
    42bc: a6 89        	ldx	$89                     ; 0x89 <__zp_bss_size+0x34>
    42be: 86 12        	stx	$12                     ; 0x12 <__rc2>
    42c0: a5 8a        	lda	$8a                     ; 0x8a <__zp_bss_size+0x35>
    42c2: a0 01        	ldy	#$1
    42c4: 06 12        	asl	$12                     ; 0x12 <__rc2>
    42c6: 2a           	rol
    42c7: 85 13        	sta	$13                     ; 0x13 <__rc3>
    42c9: a9 6f        	lda	#$6f
    42cb: 18           	clc
    42cc: 65 12        	adc	$12                     ; 0x12 <__rc2>
    42ce: 85 14        	sta	$14                     ; 0x14 <__rc4>
    42d0: a9 93        	lda	#$93
    42d2: 65 13        	adc	$13                     ; 0x13 <__rc3>
    42d4: 85 15        	sta	$15                     ; 0x15 <__rc5>
    42d6: a6 91        	ldx	$91                     ; 0x91 <__zp_bss_size+0x3c>
    42d8: 86 12        	stx	$12                     ; 0x12 <__rc2>
    42da: e0 09        	cpx	#$9
    42dc: 64 13        	stz	$13                     ; 0x13 <__rc3>
    42de: 64 17        	stz	$17                     ; 0x17 <__rc7>
    42e0: 64 16        	stz	$16                     ; 0x16 <__rc6>
    42e2: 90 06        	bcc	$42ea <dispatchNote+0x35b>
    42e4: a2 09        	ldx	#$9
    42e6: 84 13        	sty	$13                     ; 0x13 <__rc3>
    42e8: 86 17        	stx	$17                     ; 0x17 <__rc7>
    42ea: b2 14        	lda	($14)                   ; 0x14 <__rc4>
    42ec: 85 1a        	sta	$1a                     ; 0x1a <__rc10>
    42ee: b1 14        	lda	($14),y                 ; 0x14 <__rc4>
    42f0: a8           	tay
    42f1: a5 18        	lda	$18                     ; 0x18 <__rc8>
    42f3: 18           	clc
    42f4: 69 3e        	adc	#$3e
    42f6: 85 18        	sta	$18                     ; 0x18 <__rc8>
    42f8: 38           	sec
    42f9: a5 12        	lda	$12                     ; 0x12 <__rc2>
    42fb: e5 17        	sbc	$17                     ; 0x17 <__rc7>
    42fd: 85 15        	sta	$15                     ; 0x15 <__rc5>
    42ff: a9 00        	lda	#$0
    4301: e5 16        	sbc	$16                     ; 0x16 <__rc6>
    4303: 05 13        	ora	$13                     ; 0x13 <__rc3>
    4305: aa           	tax
    4306: a5 15        	lda	$15                     ; 0x15 <__rc5>
    4308: 85 19        	sta	$19                     ; 0x19 <__rc9>
    430a: 09 a0        	ora	#$a0
    430c: 85 13        	sta	$13                     ; 0x13 <__rc3>
    430e: 8a           	txa
    430f: a6 8f        	ldx	$8f                     ; 0x8f <__zp_bss_size+0x3a>
    4311: 86 14        	stx	$14                     ; 0x14 <__rc4>
    4313: a6 90        	ldx	$90                     ; 0x90 <__zp_bss_size+0x3b>
    4315: 86 15        	stx	$15                     ; 0x15 <__rc5>
    4317: a6 8d        	ldx	$8d                     ; 0x8d <__zp_bss_size+0x38>
    4319: 86 16        	stx	$16                     ; 0x16 <__rc6>
    431b: a6 8e        	ldx	$8e                     ; 0x8e <__zp_bss_size+0x39>
    431d: 86 17        	stx	$17                     ; 0x17 <__rc7>
    431f: c9 01        	cmp	#$1
    4321: f0 03        	beq	$4326 <dispatchNote+0x397>
    4323: 4c 79 43     	jmp	$4379 <dispatchNote+0x3ea>
    4326: a6 19        	ldx	$19                     ; 0x19 <__rc9>
    4328: e0 00        	cpx	#$0
    432a: 90 08        	bcc	$4334 <dispatchNote+0x3a5>
    432c: a6 16        	ldx	$16                     ; 0x16 <__rc6>
    432e: 86 14        	stx	$14                     ; 0x14 <__rc4>
    4330: a6 17        	ldx	$17                     ; 0x17 <__rc7>
    4332: 86 15        	stx	$15                     ; 0x15 <__rc5>
    4334: a5 13        	lda	$13                     ; 0x13 <__rc3>
    4336: 92 14        	sta	($14)                   ; 0x14 <__rc4>
    4338: a6 1a        	ldx	$1a                     ; 0x1a <__rc10>
    433a: 8e 81 d5     	stx	$d581                   ; 0xd581 <end_block9+0x3ce3>
    433d: 98           	tya
    433e: 29 03        	and	#$3
    4340: 85 13        	sta	$13                     ; 0x13 <__rc3>
    4342: a5 18        	lda	$18                     ; 0x18 <__rc8>
    4344: 0a           	asl
    4345: 0a           	asl
    4346: 05 13        	ora	$13                     ; 0x13 <__rc3>
    4348: aa           	tax
    4349: a5 19        	lda	$19                     ; 0x19 <__rc9>
    434b: 09 b0        	ora	#$b0
    434d: 92 14        	sta	($14)                   ; 0x14 <__rc4>
    434f: 8e 81 d5     	stx	$d581                   ; 0xd581 <end_block9+0x3ce3>
    4352: a5 12        	lda	$12                     ; 0x12 <__rc2>
    4354: 10 29        	bpl	$437f <dispatchNote+0x3f0>
    4356: a2 ff        	ldx	#$ff
    4358: 86 13        	stx	$13                     ; 0x13 <__rc3>
    435a: 80 25        	bra	$4381 <dispatchNote+0x3f2>
    435c: 64 12        	stz	$12                     ; 0x12 <__rc2>
    435e: 74 4f        	stz	$4f,x                   ; 0x4f <polyPSGBuffer>
    4360: bd 69 93     	lda	$9369,x                 ; 0x9369 <polyPSGChanBits>
    4363: e0 03        	cpx	#$3
    4365: 90 04        	bcc	$436b <dispatchNote+0x3dc>
    4367: a2 10        	ldx	#$10
    4369: 86 12        	stx	$12                     ; 0x12 <__rc2>
    436b: 84 13        	sty	$13                     ; 0x13 <__rc3>
    436d: 09 9f        	ora	#$9f
    436f: 92 12        	sta	($12)                   ; 0x12 <__rc2>
    4371: a6 41        	ldx	$41                     ; 0x41 <chipAct.3>
    4373: f0 24        	beq	$4399 <dispatchNote+0x40a>
    4375: ca           	dex
    4376: 86 41        	stx	$41                     ; 0x41 <chipAct.3>
    4378: 60           	rts
    4379: c9 01        	cmp	#$1
    437b: b0 af        	bcs	$432c <dispatchNote+0x39d>
    437d: 80 b5        	bra	$4334 <dispatchNote+0x3a5>
    437f: 64 13        	stz	$13                     ; 0x13 <__rc3>
    4381: a9 5b        	lda	#$5b
    4383: 18           	clc
    4384: 65 12        	adc	$12                     ; 0x12 <__rc2>
    4386: 85 12        	sta	$12                     ; 0x12 <__rc2>
    4388: a9 00        	lda	#$0
    438a: 65 13        	adc	$13                     ; 0x13 <__rc3>
    438c: 85 13        	sta	$13                     ; 0x13 <__rc3>
    438e: a9 00        	lda	#$0
    4390: 92 12        	sta	($12)                   ; 0x12 <__rc2>
    4392: a6 42        	ldx	$42                     ; 0x42 <chipAct.4>
    4394: f0 03        	beq	$4399 <dispatchNote+0x40a>
    4396: ca           	dex
    4397: 86 42        	stx	$42                     ; 0x42 <chipAct.4>
    4399: 60           	rts
    439a: 86 92        	stx	$92                     ; 0x92 <__zp_bss_size+0x3d>
    439c: a6 14        	ldx	$14                     ; 0x14 <__rc4>
    439e: 86 8d        	stx	$8d                     ; 0x8d <__zp_bss_size+0x38>
    43a0: a6 15        	ldx	$15                     ; 0x15 <__rc5>
    43a2: 86 8e        	stx	$8e                     ; 0x8e <__zp_bss_size+0x39>
    43a4: a6 12        	ldx	$12                     ; 0x12 <__rc2>
    43a6: 86 8f        	stx	$8f                     ; 0x8f <__zp_bss_size+0x3a>
    43a8: a6 13        	ldx	$13                     ; 0x13 <__rc3>
    43aa: 86 90        	stx	$90                     ; 0x90 <__zp_bss_size+0x3b>
    43ac: a2 00        	ldx	#$0
    43ae: 86 91        	stx	$91                     ; 0x91 <__zp_bss_size+0x3c>
    43b0: 18           	clc
    43b1: 69 05        	adc	#$5
    43b3: a8           	tay
    43b4: a9 00        	lda	#$0
    43b6: 69 00        	adc	#$0
    43b8: a2 8b        	ldx	#$8b
    43ba: 86 14        	stx	$14                     ; 0x14 <__rc4>
    43bc: a2 00        	ldx	#$0
    43be: 86 15        	stx	$15                     ; 0x15 <__rc5>
    43c0: a2 0c        	ldx	#$c
    43c2: 86 12        	stx	$12                     ; 0x12 <__rc2>
    43c4: 64 13        	stz	$13                     ; 0x13 <__rc3>
    43c6: aa           	tax
    43c7: 98           	tya
    43c8: 20 2f 72     	jsr	$722f <__udivmodhi4>
    43cb: 85 18        	sta	$18                     ; 0x18 <__rc8>
    43cd: a6 8b        	ldx	$8b                     ; 0x8b <__zp_bss_size+0x36>
    43cf: 86 12        	stx	$12                     ; 0x12 <__rc2>
    43d1: a5 8c        	lda	$8c                     ; 0x8c <__zp_bss_size+0x37>
    43d3: a0 01        	ldy	#$1
    43d5: 06 12        	asl	$12                     ; 0x12 <__rc2>
    43d7: 2a           	rol
    43d8: 85 13        	sta	$13                     ; 0x13 <__rc3>
    43da: a9 6f        	lda	#$6f
    43dc: 18           	clc
    43dd: 65 12        	adc	$12                     ; 0x12 <__rc2>
    43df: 85 14        	sta	$14                     ; 0x14 <__rc4>
    43e1: a9 93        	lda	#$93
    43e3: 65 13        	adc	$13                     ; 0x13 <__rc3>
    43e5: 85 15        	sta	$15                     ; 0x15 <__rc5>
    43e7: a6 92        	ldx	$92                     ; 0x92 <__zp_bss_size+0x3d>
    43e9: 86 12        	stx	$12                     ; 0x12 <__rc2>
    43eb: e0 09        	cpx	#$9
    43ed: 64 13        	stz	$13                     ; 0x13 <__rc3>
    43ef: 64 17        	stz	$17                     ; 0x17 <__rc7>
    43f1: 64 16        	stz	$16                     ; 0x16 <__rc6>
    43f3: 90 06        	bcc	$43fb <dispatchNote+0x46c>
    43f5: a2 09        	ldx	#$9
    43f7: 84 13        	sty	$13                     ; 0x13 <__rc3>
    43f9: 86 17        	stx	$17                     ; 0x17 <__rc7>
    43fb: b2 14        	lda	($14)                   ; 0x14 <__rc4>
    43fd: 85 1a        	sta	$1a                     ; 0x1a <__rc10>
    43ff: b1 14        	lda	($14),y                 ; 0x14 <__rc4>
    4401: a8           	tay
    4402: a5 18        	lda	$18                     ; 0x18 <__rc8>
    4404: 18           	clc
    4405: 69 3e        	adc	#$3e
    4407: 85 18        	sta	$18                     ; 0x18 <__rc8>
    4409: 38           	sec
    440a: a5 12        	lda	$12                     ; 0x12 <__rc2>
    440c: e5 17        	sbc	$17                     ; 0x17 <__rc7>
    440e: 85 15        	sta	$15                     ; 0x15 <__rc5>
    4410: a9 00        	lda	#$0
    4412: e5 16        	sbc	$16                     ; 0x16 <__rc6>
    4414: 05 13        	ora	$13                     ; 0x13 <__rc3>
    4416: aa           	tax
    4417: a5 15        	lda	$15                     ; 0x15 <__rc5>
    4419: 85 19        	sta	$19                     ; 0x19 <__rc9>
    441b: 09 a0        	ora	#$a0
    441d: 85 1b        	sta	$1b                     ; 0x1b <__rc11>
    441f: 8a           	txa
    4420: a6 8f        	ldx	$8f                     ; 0x8f <__zp_bss_size+0x3a>
    4422: 86 14        	stx	$14                     ; 0x14 <__rc4>
    4424: a6 90        	ldx	$90                     ; 0x90 <__zp_bss_size+0x3b>
    4426: 86 15        	stx	$15                     ; 0x15 <__rc5>
    4428: a6 8d        	ldx	$8d                     ; 0x8d <__zp_bss_size+0x38>
    442a: 86 16        	stx	$16                     ; 0x16 <__rc6>
    442c: a6 8e        	ldx	$8e                     ; 0x8e <__zp_bss_size+0x39>
    442e: 86 17        	stx	$17                     ; 0x17 <__rc7>
    4430: c9 01        	cmp	#$1
    4432: d0 06        	bne	$443a <dispatchNote+0x4ab>
    4434: a6 19        	ldx	$19                     ; 0x19 <__rc9>
    4436: e0 00        	cpx	#$0
    4438: 80 02        	bra	$443c <dispatchNote+0x4ad>
    443a: c9 01        	cmp	#$1
    443c: a6 91        	ldx	$91                     ; 0x91 <__zp_bss_size+0x3c>
    443e: 86 13        	stx	$13                     ; 0x13 <__rc3>
    4440: 90 08        	bcc	$444a <dispatchNote+0x4bb>
    4442: a6 16        	ldx	$16                     ; 0x16 <__rc6>
    4444: 86 14        	stx	$14                     ; 0x14 <__rc4>
    4446: a6 17        	ldx	$17                     ; 0x17 <__rc7>
    4448: 86 15        	stx	$15                     ; 0x15 <__rc5>
    444a: a5 1b        	lda	$1b                     ; 0x1b <__rc11>
    444c: 92 14        	sta	($14)                   ; 0x14 <__rc4>
    444e: a6 1a        	ldx	$1a                     ; 0x1a <__rc10>
    4450: 8e 81 d5     	stx	$d581                   ; 0xd581 <end_block9+0x3ce3>
    4453: 98           	tya
    4454: 29 03        	and	#$3
    4456: 85 16        	sta	$16                     ; 0x16 <__rc6>
    4458: a5 18        	lda	$18                     ; 0x18 <__rc8>
    445a: 0a           	asl
    445b: 0a           	asl
    445c: 05 16        	ora	$16                     ; 0x16 <__rc6>
    445e: 09 20        	ora	#$20
    4460: aa           	tax
    4461: a5 19        	lda	$19                     ; 0x19 <__rc9>
    4463: 09 b0        	ora	#$b0
    4465: 92 14        	sta	($14)                   ; 0x14 <__rc4>
    4467: 8e 81 d5     	stx	$d581                   ; 0xd581 <end_block9+0x3ce3>
    446a: a9 5b        	lda	#$5b
    446c: 18           	clc
    446d: 65 12        	adc	$12                     ; 0x12 <__rc2>
    446f: 85 12        	sta	$12                     ; 0x12 <__rc2>
    4471: a9 00        	lda	#$0
    4473: 65 13        	adc	$13                     ; 0x13 <__rc3>
    4475: 85 13        	sta	$13                     ; 0x13 <__rc3>
    4477: a5 88        	lda	$88                     ; 0x88 <__zp_bss_size+0x33>
    4479: 92 12        	sta	($12)                   ; 0x12 <__rc2>
    447b: e6 42        	inc	$42                     ; 0x42 <chipAct.4>
    447d: 60           	rts
    447e: 64 18        	stz	$18                     ; 0x18 <__rc8>
    4480: a9 69        	lda	#$69
    4482: 18           	clc
    4483: 65 12        	adc	$12                     ; 0x12 <__rc2>
    4485: 85 14        	sta	$14                     ; 0x14 <__rc4>
    4487: a9 93        	lda	#$93
    4489: 65 18        	adc	$18                     ; 0x18 <__rc8>
    448b: 85 15        	sta	$15                     ; 0x15 <__rc5>
    448d: b2 14        	lda	($14)                   ; 0x14 <__rc4>
    448f: a8           	tay
    4490: 85 14        	sta	$14                     ; 0x14 <__rc4>
    4492: a5 12        	lda	$12                     ; 0x12 <__rc2>
    4494: 38           	sec
    4495: e9 03        	sbc	#$3
    4497: 85 19        	sta	$19                     ; 0x19 <__rc9>
    4499: 50 04        	bvc	$449f <dispatchNote+0x510>
    449b: 49 80        	eor	#$80
    449d: 85 19        	sta	$19                     ; 0x19 <__rc9>
    449f: a2 10        	ldx	#$10
    44a1: 86 16        	stx	$16                     ; 0x16 <__rc6>
    44a3: a2 d6        	ldx	#$d6
    44a5: 86 17        	stx	$17                     ; 0x17 <__rc7>
    44a7: a6 88        	ldx	$88                     ; 0x88 <__zp_bss_size+0x33>
    44a9: a5 13        	lda	$13                     ; 0x13 <__rc3>
    44ab: 4a           	lsr
    44ac: 4a           	lsr
    44ad: 4a           	lsr
    44ae: 49 0f        	eor	#$f
    44b0: 85 15        	sta	$15                     ; 0x15 <__rc5>
    44b2: bd 5a 93     	lda	$935a,x                 ; 0x935a <sidHigh+0x954>
    44b5: 85 1a        	sta	$1a                     ; 0x1a <__rc10>
    44b7: bd 9a 93     	lda	$939a,x                 ; 0x939a <psgLow+0x13>
    44ba: aa           	tax
    44bb: 86 13        	stx	$13                     ; 0x13 <__rc3>
    44bd: 98           	tya
    44be: 05 15        	ora	$15                     ; 0x15 <__rc5>
    44c0: 09 90        	ora	#$90
    44c2: a6 19        	ldx	$19                     ; 0x19 <__rc9>
    44c4: 10 08        	bpl	$44ce <dispatchNote+0x53f>
    44c6: a2 00        	ldx	#$0
    44c8: 86 16        	stx	$16                     ; 0x16 <__rc6>
    44ca: a2 d6        	ldx	#$d6
    44cc: 86 17        	stx	$17                     ; 0x17 <__rc7>
    44ce: 92 16        	sta	($16)                   ; 0x16 <__rc6>
    44d0: a5 1a        	lda	$1a                     ; 0x1a <__rc10>
    44d2: 05 14        	ora	$14                     ; 0x14 <__rc4>
    44d4: 92 16        	sta	($16)                   ; 0x16 <__rc6>
    44d6: a5 13        	lda	$13                     ; 0x13 <__rc3>
    44d8: 92 16        	sta	($16)                   ; 0x16 <__rc6>
    44da: a9 4f        	lda	#$4f
    44dc: 18           	clc
    44dd: 65 12        	adc	$12                     ; 0x12 <__rc2>
    44df: 85 12        	sta	$12                     ; 0x12 <__rc2>
    44e1: a9 00        	lda	#$0
    44e3: 65 18        	adc	$18                     ; 0x18 <__rc8>
    44e5: 85 13        	sta	$13                     ; 0x13 <__rc3>
    44e7: a5 88        	lda	$88                     ; 0x88 <__zp_bss_size+0x33>
    44e9: 92 12        	sta	($12)                   ; 0x12 <__rc2>
    44eb: e6 41        	inc	$41                     ; 0x41 <chipAct.3>
    44ed: 60           	rts
    44ee: a2 00        	ldx	#$0
    44f0: a4 88        	ldy	$88                     ; 0x88 <__zp_bss_size+0x33>
    44f2: 84 12        	sty	$12                     ; 0x12 <__rc2>
    44f4: b4 43        	ldy	$43,x                   ; 0x43 <polySIDBuffer>
    44f6: c4 12        	cpy	$12                     ; 0x12 <__rc2>
    44f8: d0 03        	bne	$44fd <dispatchNote+0x56e>
    44fa: 4c 70 45     	jmp	$4570 <dispatchNote+0x5e1>
    44fd: e8           	inx
    44fe: e0 06        	cpx	#$6
    4500: d0 f2        	bne	$44f4 <dispatchNote+0x565>
    4502: a2 d4        	ldx	#$d4
    4504: a0 ff        	ldy	#$ff
    4506: 84 13        	sty	$13                     ; 0x13 <__rc3>
    4508: 84 12        	sty	$12                     ; 0x12 <__rc2>
    450a: 4c 8c 45     	jmp	$458c <dispatchNote+0x5fd>
    450d: 8d a1 dd     	sta	$dda1                   ; 0xdda1 <end_block9+0x4503>
    4510: 8e a1 dd     	stx	$dda1                   ; 0xdda1 <end_block9+0x4503>
    4513: 8c a1 dd     	sty	$dda1                   ; 0xdda1 <end_block9+0x4503>
    4516: a5 3e        	lda	$3e                     ; 0x3e <chipAct.0>
    4518: 2c 23 84     	bit	$8423                   ; 0x8423 <__set_v>
    451b: a2 3e        	ldx	#$3e
    451d: 86 16        	stx	$16                     ; 0x16 <__rc6>
    451f: a2 00        	ldx	#$0
    4521: 86 17        	stx	$17                     ; 0x17 <__rc7>
    4523: aa           	tax
    4524: f0 03        	beq	$4529 <dispatchNote+0x59a>
    4526: 3a           	dec
    4527: 92 16        	sta	($16)                   ; 0x16 <__rc6>
    4529: a6 7f        	ldx	$7f                     ; 0x7f <gPtr>
    452b: a5 80        	lda	$80                     ; 0x80 <gPtr+0x1>
    452d: 86 16        	stx	$16                     ; 0x16 <__rc6>
    452f: 85 17        	sta	$17                     ; 0x17 <__rc7>
    4531: a0 07        	ldy	#$7
    4533: b1 16        	lda	($16),y                 ; 0x16 <__rc6>
    4535: d0 03        	bne	$453a <dispatchNote+0x5ab>
    4537: 4c 99 43     	jmp	$4399 <dispatchNote+0x40a>
    453a: a6 12        	ldx	$12                     ; 0x12 <__rc2>
    453c: e0 04        	cpx	#$4
    453e: f0 0c        	beq	$454c <dispatchNote+0x5bd>
    4540: a5 14        	lda	$14                     ; 0x14 <__rc4>
    4542: d0 08        	bne	$454c <dispatchNote+0x5bd>
    4544: a2 a1        	ldx	#$a1
    4546: 86 1a        	stx	$1a                     ; 0x1a <__rc10>
    4548: a2 dd        	ldx	#$dd
    454a: 86 1b        	stx	$1b                     ; 0x1b <__rc11>
    454c: a9 81        	lda	#$81
    454e: 92 1a        	sta	($1a)                   ; 0x1a <__rc10>
    4550: a5 88        	lda	$88                     ; 0x88 <__zp_bss_size+0x33>
    4552: 92 1a        	sta	($1a)                   ; 0x1a <__rc10>
    4554: a5 13        	lda	$13                     ; 0x13 <__rc3>
    4556: 92 1a        	sta	($1a)                   ; 0x1a <__rc10>
    4558: 50 0b        	bvc	$4565 <dispatchNote+0x5d6>
    455a: a6 3e        	ldx	$3e                     ; 0x3e <chipAct.0>
    455c: d0 03        	bne	$4561 <dispatchNote+0x5d2>
    455e: 4c 99 43     	jmp	$4399 <dispatchNote+0x40a>
    4561: ca           	dex
    4562: 86 3e        	stx	$3e                     ; 0x3e <chipAct.0>
    4564: 60           	rts
    4565: a6 3f        	ldx	$3f                     ; 0x3f <chipAct.1>
    4567: d0 03        	bne	$456c <dispatchNote+0x5dd>
    4569: 4c 99 43     	jmp	$4399 <dispatchNote+0x40a>
    456c: ca           	dex
    456d: 86 3f        	stx	$3f                     ; 0x3f <chipAct.1>
    456f: 60           	rts
    4570: 8a           	txa
    4571: aa           	tax
    4572: 10 06        	bpl	$457a <dispatchNote+0x5eb>
    4574: a2 ff        	ldx	#$ff
    4576: 86 12        	stx	$12                     ; 0x12 <__rc2>
    4578: 80 02        	bra	$457c <dispatchNote+0x5ed>
    457a: 64 12        	stz	$12                     ; 0x12 <__rc2>
    457c: 85 13        	sta	$13                     ; 0x13 <__rc3>
    457e: 38           	sec
    457f: e9 03        	sbc	#$3
    4581: 50 02        	bvc	$4585 <dispatchNote+0x5f6>
    4583: 49 80        	eor	#$80
    4585: a2 d4        	ldx	#$d4
    4587: a8           	tay
    4588: 30 02        	bmi	$458c <dispatchNote+0x5fd>
    458a: a2 d5        	ldx	#$d5
    458c: a9 63        	lda	#$63
    458e: 18           	clc
    458f: 65 13        	adc	$13                     ; 0x13 <__rc3>
    4591: 85 14        	sta	$14                     ; 0x14 <__rc4>
    4593: a9 93        	lda	#$93
    4595: 65 12        	adc	$12                     ; 0x12 <__rc2>
    4597: 85 15        	sta	$15                     ; 0x15 <__rc5>
    4599: a9 43        	lda	#$43
    459b: 18           	clc
    459c: 65 13        	adc	$13                     ; 0x13 <__rc3>
    459e: a8           	tay
    459f: a9 00        	lda	#$0
    45a1: 65 12        	adc	$12                     ; 0x12 <__rc2>
    45a3: 85 13        	sta	$13                     ; 0x13 <__rc3>
    45a5: 84 12        	sty	$12                     ; 0x12 <__rc2>
    45a7: b2 14        	lda	($14)                   ; 0x14 <__rc4>
    45a9: 85 14        	sta	$14                     ; 0x14 <__rc4>
    45ab: a9 00        	lda	#$0
    45ad: 92 12        	sta	($12)                   ; 0x12 <__rc2>
    45af: a4 88        	ldy	$88                     ; 0x88 <__zp_bss_size+0x33>
    45b1: b9 fc 93     	lda	$93fc,y                 ; 0x93fc <psgHigh+0x35>
    45b4: 5a           	phy
    45b5: a4 14        	ldy	$14                     ; 0x14 <__rc4>
    45b7: 84 12        	sty	$12                     ; 0x12 <__rc2>
    45b9: 7a           	ply
    45ba: 86 13        	stx	$13                     ; 0x13 <__rc3>
    45bc: 92 12        	sta	($12)                   ; 0x12 <__rc2>
    45be: b9 fb 89     	lda	$89fb,y                 ; 0x89fb <KeyCodesToMIDINotes+0x4e5>
    45c1: a8           	tay
    45c2: e6 14        	inc	$14                     ; 0x14 <__rc4>
    45c4: d0 01        	bne	$45c7 <dispatchNote+0x638>
    45c6: e8           	inx
    45c7: 86 15        	stx	$15                     ; 0x15 <__rc5>
    45c9: 98           	tya
    45ca: 92 14        	sta	($14)                   ; 0x14 <__rc4>
    45cc: a5 16        	lda	$16                     ; 0x16 <__rc6>
    45ce: d0 0e        	bne	$45de <dispatchNote+0x64f>
    45d0: a6 7f        	ldx	$7f                     ; 0x7f <gPtr>
    45d2: a4 80        	ldy	$80                     ; 0x80 <gPtr+0x1>
    45d4: 86 14        	stx	$14                     ; 0x14 <__rc4>
    45d6: 84 15        	sty	$15                     ; 0x15 <__rc5>
    45d8: a0 04        	ldy	#$4
    45da: b1 14        	lda	($14),y                 ; 0x14 <__rc4>
    45dc: 85 17        	sta	$17                     ; 0x17 <__rc7>
    45de: a5 17        	lda	$17                     ; 0x17 <__rc7>
    45e0: 0a           	asl
    45e1: aa           	tax
    45e2: a9 00        	lda	#$0
    45e4: 2a           	rol
    45e5: 86 14        	stx	$14                     ; 0x14 <__rc4>
    45e7: 06 14        	asl	$14                     ; 0x14 <__rc4>
    45e9: 2a           	rol
    45ea: 06 14        	asl	$14                     ; 0x14 <__rc4>
    45ec: 2a           	rol
    45ed: a8           	tay
    45ee: a2 00        	ldx	#$0
    45f0: a5 14        	lda	$14                     ; 0x14 <__rc4>
    45f2: 18           	clc
    45f3: 65 17        	adc	$17                     ; 0x17 <__rc7>
    45f5: 85 14        	sta	$14                     ; 0x14 <__rc4>
    45f7: 98           	tya
    45f8: 69 00        	adc	#$0
    45fa: 85 15        	sta	$15                     ; 0x15 <__rc5>
    45fc: a9 b1        	lda	#$b1
    45fe: 18           	clc
    45ff: 65 14        	adc	$14                     ; 0x14 <__rc4>
    4601: 85 14        	sta	$14                     ; 0x14 <__rc4>
    4603: a9 95        	lda	#$95
    4605: 65 15        	adc	$15                     ; 0x15 <__rc5>
    4607: 85 15        	sta	$15                     ; 0x15 <__rc5>
    4609: a0 05        	ldy	#$5
    460b: a9 fe        	lda	#$fe
    460d: 31 14        	and	($14),y                 ; 0x14 <__rc4>
    460f: 88           	dey
    4610: 91 12        	sta	($12),y                 ; 0x12 <__rc2>
    4612: a6 40        	ldx	$40                     ; 0x40 <chipAct.2>
    4614: d0 03        	bne	$4619 <dispatchNote+0x68a>
    4616: 4c 99 43     	jmp	$4399 <dispatchNote+0x40a>
    4619: ca           	dex
    461a: 86 40        	stx	$40                     ; 0x40 <chipAct.2>
    461c: 60           	rts

0000461d <opl3_setInstrument>:
    461d: a0 01        	ldy	#$1
    461f: a2 82        	ldx	#$82
    4621: 86 16        	stx	$16                     ; 0x16 <__rc6>
    4623: a2 d5        	ldx	#$d5
    4625: 86 17        	stx	$17                     ; 0x17 <__rc7>
    4627: a2 80        	ldx	#$80
    4629: 86 14        	stx	$14                     ; 0x14 <__rc4>
    462b: a2 d5        	ldx	#$d5
    462d: 86 15        	stx	$15                     ; 0x15 <__rc5>
    462f: c9 03        	cmp	#$3
    4631: 90 22        	bcc	$4655 <opl3_setInstrument+0x38>
    4633: c9 06        	cmp	#$6
    4635: 90 16        	bcc	$464d <opl3_setInstrument+0x30>
    4637: c9 09        	cmp	#$9
    4639: 90 17        	bcc	$4652 <opl3_setInstrument+0x35>
    463b: c9 0c        	cmp	#$c
    463d: b0 03        	bcs	$4642 <opl3_setInstrument+0x25>
    463f: 4c 41 47     	jmp	$4741 <opl3_setInstrument+0x124>
    4642: c9 0f        	cmp	#$f
    4644: b0 03        	bcs	$4649 <opl3_setInstrument+0x2c>
    4646: 4c 46 47     	jmp	$4746 <opl3_setInstrument+0x129>
    4649: 1a           	inc
    464a: 4c 49 47     	jmp	$4749 <opl3_setInstrument+0x12c>
    464d: 18           	clc
    464e: 69 05        	adc	#$5
    4650: 80 03        	bra	$4655 <opl3_setInstrument+0x38>
    4652: 18           	clc
    4653: 69 0a        	adc	#$a
    4655: 64 1a        	stz	$1a                     ; 0x1a <__rc10>
    4657: a2 80        	ldx	#$80
    4659: 86 18        	stx	$18                     ; 0x18 <__rc8>
    465b: a2 d5        	ldx	#$d5
    465d: 86 19        	stx	$19                     ; 0x19 <__rc9>
    465f: aa           	tax
    4660: 09 20        	ora	#$20
    4662: 85 1c        	sta	$1c                     ; 0x1c <__rc12>
    4664: b1 12        	lda	($12),y                 ; 0x12 <__rc2>
    4666: 85 1b        	sta	$1b                     ; 0x1b <__rc11>
    4668: a5 1c        	lda	$1c                     ; 0x1c <__rc12>
    466a: 92 18        	sta	($18)                   ; 0x18 <__rc8>
    466c: a4 1b        	ldy	$1b                     ; 0x1b <__rc11>
    466e: 8c 81 d5     	sty	$d581                   ; 0xd581 <end_block9+0x3ce3>
    4671: 18           	clc
    4672: 8a           	txa
    4673: 69 03        	adc	#$3
    4675: a8           	tay
    4676: a9 00        	lda	#$0
    4678: 69 00        	adc	#$0
    467a: 05 1a        	ora	$1a                     ; 0x1a <__rc10>
    467c: 85 1c        	sta	$1c                     ; 0x1c <__rc12>
    467e: b2 12        	lda	($12)                   ; 0x12 <__rc2>
    4680: 85 1b        	sta	$1b                     ; 0x1b <__rc11>
    4682: 98           	tya
    4683: 84 1a        	sty	$1a                     ; 0x1a <__rc10>
    4685: 09 20        	ora	#$20
    4687: a4 1c        	ldy	$1c                     ; 0x1c <__rc12>
    4689: c0 01        	cpy	#$1
    468b: f0 03        	beq	$4690 <opl3_setInstrument+0x73>
    468d: 4c 37 47     	jmp	$4737 <opl3_setInstrument+0x11a>
    4690: a4 1a        	ldy	$1a                     ; 0x1a <__rc10>
    4692: c0 00        	cpy	#$0
    4694: 90 08        	bcc	$469e <opl3_setInstrument+0x81>
    4696: a0 82        	ldy	#$82
    4698: 84 14        	sty	$14                     ; 0x14 <__rc4>
    469a: a0 d5        	ldy	#$d5
    469c: 84 15        	sty	$15                     ; 0x15 <__rc5>
    469e: 92 14        	sta	($14)                   ; 0x14 <__rc4>
    46a0: a4 1b        	ldy	$1b                     ; 0x1b <__rc11>
    46a2: 8c 81 d5     	sty	$d581                   ; 0xd581 <end_block9+0x3ce3>
    46a5: 8a           	txa
    46a6: 09 40        	ora	#$40
    46a8: 85 17        	sta	$17                     ; 0x17 <__rc7>
    46aa: a0 03        	ldy	#$3
    46ac: b1 12        	lda	($12),y                 ; 0x12 <__rc2>
    46ae: 85 16        	sta	$16                     ; 0x16 <__rc6>
    46b0: a5 17        	lda	$17                     ; 0x17 <__rc7>
    46b2: 92 18        	sta	($18)                   ; 0x18 <__rc8>
    46b4: a4 16        	ldy	$16                     ; 0x16 <__rc6>
    46b6: 8c 81 d5     	sty	$d581                   ; 0xd581 <end_block9+0x3ce3>
    46b9: a0 02        	ldy	#$2
    46bb: b1 12        	lda	($12),y                 ; 0x12 <__rc2>
    46bd: 85 16        	sta	$16                     ; 0x16 <__rc6>
    46bf: a5 1a        	lda	$1a                     ; 0x1a <__rc10>
    46c1: 09 40        	ora	#$40
    46c3: 92 14        	sta	($14)                   ; 0x14 <__rc4>
    46c5: a4 16        	ldy	$16                     ; 0x16 <__rc6>
    46c7: 8c 81 d5     	sty	$d581                   ; 0xd581 <end_block9+0x3ce3>
    46ca: 8a           	txa
    46cb: 09 60        	ora	#$60
    46cd: 85 17        	sta	$17                     ; 0x17 <__rc7>
    46cf: a0 05        	ldy	#$5
    46d1: b1 12        	lda	($12),y                 ; 0x12 <__rc2>
    46d3: 85 16        	sta	$16                     ; 0x16 <__rc6>
    46d5: a5 17        	lda	$17                     ; 0x17 <__rc7>
    46d7: 92 18        	sta	($18)                   ; 0x18 <__rc8>
    46d9: a4 16        	ldy	$16                     ; 0x16 <__rc6>
    46db: 8c 81 d5     	sty	$d581                   ; 0xd581 <end_block9+0x3ce3>
    46de: a0 04        	ldy	#$4
    46e0: b1 12        	lda	($12),y                 ; 0x12 <__rc2>
    46e2: 85 16        	sta	$16                     ; 0x16 <__rc6>
    46e4: a5 1a        	lda	$1a                     ; 0x1a <__rc10>
    46e6: 09 60        	ora	#$60
    46e8: 92 14        	sta	($14)                   ; 0x14 <__rc4>
    46ea: a4 16        	ldy	$16                     ; 0x16 <__rc6>
    46ec: 8c 81 d5     	sty	$d581                   ; 0xd581 <end_block9+0x3ce3>
    46ef: 8a           	txa
    46f0: 09 80        	ora	#$80
    46f2: 85 17        	sta	$17                     ; 0x17 <__rc7>
    46f4: a0 07        	ldy	#$7
    46f6: b1 12        	lda	($12),y                 ; 0x12 <__rc2>
    46f8: 85 16        	sta	$16                     ; 0x16 <__rc6>
    46fa: a5 17        	lda	$17                     ; 0x17 <__rc7>
    46fc: 92 18        	sta	($18)                   ; 0x18 <__rc8>
    46fe: a4 16        	ldy	$16                     ; 0x16 <__rc6>
    4700: 8c 81 d5     	sty	$d581                   ; 0xd581 <end_block9+0x3ce3>
    4703: a0 06        	ldy	#$6
    4705: b1 12        	lda	($12),y                 ; 0x12 <__rc2>
    4707: 85 16        	sta	$16                     ; 0x16 <__rc6>
    4709: a5 1a        	lda	$1a                     ; 0x1a <__rc10>
    470b: 09 80        	ora	#$80
    470d: 92 14        	sta	($14)                   ; 0x14 <__rc4>
    470f: a4 16        	ldy	$16                     ; 0x16 <__rc6>
    4711: 8c 81 d5     	sty	$d581                   ; 0xd581 <end_block9+0x3ce3>
    4714: 8a           	txa
    4715: 09 e0        	ora	#$e0
    4717: aa           	tax
    4718: a0 09        	ldy	#$9
    471a: b1 12        	lda	($12),y                 ; 0x12 <__rc2>
    471c: 85 16        	sta	$16                     ; 0x16 <__rc6>
    471e: 8a           	txa
    471f: 92 18        	sta	($18)                   ; 0x18 <__rc8>
    4721: a6 16        	ldx	$16                     ; 0x16 <__rc6>
    4723: 8e 81 d5     	stx	$d581                   ; 0xd581 <end_block9+0x3ce3>
    4726: 88           	dey
    4727: b1 12        	lda	($12),y                 ; 0x12 <__rc2>
    4729: 85 12        	sta	$12                     ; 0x12 <__rc2>
    472b: a5 1a        	lda	$1a                     ; 0x1a <__rc10>
    472d: 09 e0        	ora	#$e0
    472f: 92 14        	sta	($14)                   ; 0x14 <__rc4>
    4731: a6 12        	ldx	$12                     ; 0x12 <__rc2>
    4733: 8e 81 d5     	stx	$d581                   ; 0xd581 <end_block9+0x3ce3>
    4736: 60           	rts
    4737: c0 01        	cpy	#$1
    4739: 90 03        	bcc	$473e <opl3_setInstrument+0x121>
    473b: 4c 96 46     	jmp	$4696 <opl3_setInstrument+0x79>
    473e: 4c 9e 46     	jmp	$469e <opl3_setInstrument+0x81>
    4741: 18           	clc
    4742: 69 f7        	adc	#$f7
    4744: 80 03        	bra	$4749 <opl3_setInstrument+0x12c>
    4746: 18           	clc
    4747: 69 fc        	adc	#$fc
    4749: 84 1a        	sty	$1a                     ; 0x1a <__rc10>
    474b: a2 82        	ldx	#$82
    474d: 4c 59 46     	jmp	$4659 <opl3_setInstrument+0x3c>

00004750 <opl3_setInstrumentAllChannels>:
    4750: a2 0b        	ldx	#$b
    4752: 86 12        	stx	$12                     ; 0x12 <__rc2>
    4754: 64 13        	stz	$13                     ; 0x13 <__rc3>
    4756: 64 8a        	stz	$8a                     ; 0x8a <__zp_bss_size+0x35>
    4758: a2 00        	ldx	#$0
    475a: 20 89 82     	jsr	$8289 <__mulhi3>
    475d: 85 12        	sta	$12                     ; 0x12 <__rc2>
    475f: 86 13        	stx	$13                     ; 0x13 <__rc3>
    4761: a9 de        	lda	#$de
    4763: 18           	clc
    4764: 65 12        	adc	$12                     ; 0x12 <__rc2>
    4766: 85 88        	sta	$88                     ; 0x88 <__zp_bss_size+0x33>
    4768: a9 95        	lda	#$95
    476a: 65 13        	adc	$13                     ; 0x13 <__rc3>
    476c: 85 89        	sta	$89                     ; 0x89 <__zp_bss_size+0x34>
    476e: a6 88        	ldx	$88                     ; 0x88 <__zp_bss_size+0x33>
    4770: 86 12        	stx	$12                     ; 0x12 <__rc2>
    4772: a6 89        	ldx	$89                     ; 0x89 <__zp_bss_size+0x34>
    4774: 86 13        	stx	$13                     ; 0x13 <__rc3>
    4776: a5 8a        	lda	$8a                     ; 0x8a <__zp_bss_size+0x35>
    4778: 20 1d 46     	jsr	$461d <opl3_setInstrument>
    477b: a0 0a        	ldy	#$a
    477d: b1 88        	lda	($88),y                 ; 0x88 <__zp_bss_size+0x33>
    477f: aa           	tax
    4780: 18           	clc
    4781: a4 8a        	ldy	$8a                     ; 0x8a <__zp_bss_size+0x35>
    4783: a5 8a        	lda	$8a                     ; 0x8a <__zp_bss_size+0x35>
    4785: 69 c0        	adc	#$c0
    4787: 8d 80 d5     	sta	$d580                   ; 0xd580 <end_block9+0x3ce2>
    478a: 8e 81 d5     	stx	$d581                   ; 0xd581 <end_block9+0x3ce3>
    478d: c8           	iny
    478e: 84 8a        	sty	$8a                     ; 0x8a <__zp_bss_size+0x35>
    4790: c0 09        	cpy	#$9
    4792: d0 da        	bne	$476e <opl3_setInstrumentAllChannels+0x1e>
    4794: a0 09        	ldy	#$9
    4796: a5 88        	lda	$88                     ; 0x88 <__zp_bss_size+0x33>
    4798: 85 12        	sta	$12                     ; 0x12 <__rc2>
    479a: a5 89        	lda	$89                     ; 0x89 <__zp_bss_size+0x34>
    479c: 85 13        	sta	$13                     ; 0x13 <__rc3>
    479e: 86 8a        	stx	$8a                     ; 0x8a <__zp_bss_size+0x35>
    47a0: 84 8b        	sty	$8b                     ; 0x8b <__zp_bss_size+0x36>
    47a2: 98           	tya
    47a3: 20 1d 46     	jsr	$461d <opl3_setInstrument>
    47a6: 18           	clc
    47a7: a5 8b        	lda	$8b                     ; 0x8b <__zp_bss_size+0x36>
    47a9: 69 b7        	adc	#$b7
    47ab: 8d 82 d5     	sta	$d582                   ; 0xd582 <end_block9+0x3ce4>
    47ae: a4 8b        	ldy	$8b                     ; 0x8b <__zp_bss_size+0x36>
    47b0: a6 8a        	ldx	$8a                     ; 0x8a <__zp_bss_size+0x35>
    47b2: 8e 81 d5     	stx	$d581                   ; 0xd581 <end_block9+0x3ce3>
    47b5: c8           	iny
    47b6: c0 12        	cpy	#$12
    47b8: d0 dc        	bne	$4796 <opl3_setInstrumentAllChannels+0x46>
    47ba: 60           	rts

000047bb <sid_setInstrument>:
    47bb: 64 15        	stz	$15                     ; 0x15 <__rc5>
    47bd: a8           	tay
    47be: f0 04        	beq	$47c4 <sid_setInstrument+0x9>
    47c0: a0 d5        	ldy	#$d5
    47c2: 80 02        	bra	$47c6 <sid_setInstrument+0xb>
    47c4: a0 d4        	ldy	#$d4
    47c6: 84 14        	sty	$14                     ; 0x14 <__rc4>
    47c8: e0 02        	cpx	#$2
    47ca: f0 08        	beq	$47d4 <sid_setInstrument+0x19>
    47cc: e0 01        	cpx	#$1
    47ce: d0 08        	bne	$47d8 <sid_setInstrument+0x1d>
    47d0: a2 07        	ldx	#$7
    47d2: 80 02        	bra	$47d6 <sid_setInstrument+0x1b>
    47d4: a2 0e        	ldx	#$e
    47d6: 86 15        	stx	$15                     ; 0x15 <__rc5>
    47d8: a0 01        	ldy	#$1
    47da: b1 12        	lda	($12),y                 ; 0x12 <__rc2>
    47dc: 85 17        	sta	$17                     ; 0x17 <__rc7>
    47de: a6 15        	ldx	$15                     ; 0x15 <__rc5>
    47e0: a5 15        	lda	$15                     ; 0x15 <__rc5>
    47e2: 18           	clc
    47e3: 69 02        	adc	#$2
    47e5: a8           	tay
    47e6: 86 16        	stx	$16                     ; 0x16 <__rc6>
    47e8: a6 14        	ldx	$14                     ; 0x14 <__rc4>
    47ea: a5 14        	lda	$14                     ; 0x14 <__rc4>
    47ec: 69 00        	adc	#$0
    47ee: 84 14        	sty	$14                     ; 0x14 <__rc4>
    47f0: 85 15        	sta	$15                     ; 0x15 <__rc5>
    47f2: a5 17        	lda	$17                     ; 0x17 <__rc7>
    47f4: 92 14        	sta	($14)                   ; 0x14 <__rc4>
    47f6: a0 02        	ldy	#$2
    47f8: b1 12        	lda	($12),y                 ; 0x12 <__rc2>
    47fa: 85 17        	sta	$17                     ; 0x17 <__rc7>
    47fc: a5 16        	lda	$16                     ; 0x16 <__rc6>
    47fe: 18           	clc
    47ff: 69 03        	adc	#$3
    4801: 85 14        	sta	$14                     ; 0x14 <__rc4>
    4803: 8a           	txa
    4804: 69 00        	adc	#$0
    4806: 85 15        	sta	$15                     ; 0x15 <__rc5>
    4808: a5 17        	lda	$17                     ; 0x17 <__rc7>
    480a: 92 14        	sta	($14)                   ; 0x14 <__rc4>
    480c: c8           	iny
    480d: b1 12        	lda	($12),y                 ; 0x12 <__rc2>
    480f: 85 17        	sta	$17                     ; 0x17 <__rc7>
    4811: a5 16        	lda	$16                     ; 0x16 <__rc6>
    4813: 18           	clc
    4814: 69 05        	adc	#$5
    4816: 85 14        	sta	$14                     ; 0x14 <__rc4>
    4818: 8a           	txa
    4819: 69 00        	adc	#$0
    481b: 85 15        	sta	$15                     ; 0x15 <__rc5>
    481d: a5 17        	lda	$17                     ; 0x17 <__rc7>
    481f: 92 14        	sta	($14)                   ; 0x14 <__rc4>
    4821: a5 16        	lda	$16                     ; 0x16 <__rc6>
    4823: 18           	clc
    4824: 69 06        	adc	#$6
    4826: 85 14        	sta	$14                     ; 0x14 <__rc4>
    4828: 8a           	txa
    4829: 69 00        	adc	#$0
    482b: 18           	clc
    482c: 85 15        	sta	$15                     ; 0x15 <__rc5>
    482e: c8           	iny
    482f: b1 12        	lda	($12),y                 ; 0x12 <__rc2>
    4831: 92 14        	sta	($14)                   ; 0x14 <__rc4>
    4833: a5 16        	lda	$16                     ; 0x16 <__rc6>
    4835: 69 04        	adc	#$4
    4837: 85 14        	sta	$14                     ; 0x14 <__rc4>
    4839: 8a           	txa
    483a: 69 00        	adc	#$0
    483c: 85 15        	sta	$15                     ; 0x15 <__rc5>
    483e: c8           	iny
    483f: b1 12        	lda	($12),y                 ; 0x12 <__rc2>
    4841: 92 14        	sta	($14)                   ; 0x14 <__rc4>
    4843: 60           	rts

00004844 <sid_setInstrumentAllChannels>:
    4844: 85 12        	sta	$12                     ; 0x12 <__rc2>
    4846: 0a           	asl
    4847: 64 13        	stz	$13                     ; 0x13 <__rc3>
    4849: 26 13        	rol	$13                     ; 0x13 <__rc3>
    484b: 0a           	asl
    484c: 26 13        	rol	$13                     ; 0x13 <__rc3>
    484e: 0a           	asl
    484f: 26 13        	rol	$13                     ; 0x13 <__rc3>
    4851: 18           	clc
    4852: 65 12        	adc	$12                     ; 0x12 <__rc2>
    4854: 85 12        	sta	$12                     ; 0x12 <__rc2>
    4856: a5 13        	lda	$13                     ; 0x13 <__rc3>
    4858: 69 00        	adc	#$0
    485a: 85 13        	sta	$13                     ; 0x13 <__rc3>
    485c: a9 b1        	lda	#$b1
    485e: 18           	clc
    485f: 65 12        	adc	$12                     ; 0x12 <__rc2>
    4861: 85 88        	sta	$88                     ; 0x88 <__zp_bss_size+0x33>
    4863: a9 95        	lda	#$95
    4865: 65 13        	adc	$13                     ; 0x13 <__rc3>
    4867: 85 89        	sta	$89                     ; 0x89 <__zp_bss_size+0x34>
    4869: a2 01        	ldx	#$1
    486b: 86 8a        	stx	$8a                     ; 0x8a <__zp_bss_size+0x35>
    486d: ca           	dex
    486e: a4 88        	ldy	$88                     ; 0x88 <__zp_bss_size+0x33>
    4870: 84 12        	sty	$12                     ; 0x12 <__rc2>
    4872: a4 89        	ldy	$89                     ; 0x89 <__zp_bss_size+0x34>
    4874: 84 13        	sty	$13                     ; 0x13 <__rc3>
    4876: 86 8b        	stx	$8b                     ; 0x8b <__zp_bss_size+0x36>
    4878: a9 00        	lda	#$0
    487a: 20 bb 47     	jsr	$47bb <sid_setInstrument>
    487d: a6 88        	ldx	$88                     ; 0x88 <__zp_bss_size+0x33>
    487f: 86 12        	stx	$12                     ; 0x12 <__rc2>
    4881: a6 89        	ldx	$89                     ; 0x89 <__zp_bss_size+0x34>
    4883: 86 13        	stx	$13                     ; 0x13 <__rc3>
    4885: a6 8b        	ldx	$8b                     ; 0x8b <__zp_bss_size+0x36>
    4887: a5 8a        	lda	$8a                     ; 0x8a <__zp_bss_size+0x35>
    4889: 20 bb 47     	jsr	$47bb <sid_setInstrument>
    488c: a6 8b        	ldx	$8b                     ; 0x8b <__zp_bss_size+0x36>
    488e: e8           	inx
    488f: e0 03        	cpx	#$3
    4891: d0 db        	bne	$486e <sid_setInstrumentAllChannels+0x2a>
    4893: 9c 14 d4     	stz	$d414                   ; 0xd414 <end_block9+0x3b76>
    4896: 9c 15 d4     	stz	$d415                   ; 0xd415 <end_block9+0x3b77>
    4899: 9c 17 d4     	stz	$d417                   ; 0xd417 <end_block9+0x3b79>
    489c: b2 88        	lda	($88)                   ; 0x88 <__zp_bss_size+0x33>
    489e: 8d 18 d4     	sta	$d418                   ; 0xd418 <end_block9+0x3b7a>
    48a1: 9c 14 d5     	stz	$d514                   ; 0xd514 <end_block9+0x3c76>
    48a4: 9c 15 d5     	stz	$d515                   ; 0xd515 <end_block9+0x3c77>
    48a7: 9c 17 d5     	stz	$d517                   ; 0xd517 <end_block9+0x3c79>
    48aa: 8d 18 d5     	sta	$d518                   ; 0xd518 <end_block9+0x3c7a>
    48ad: 60           	rts

000048ae <setupMem4ABeat>:
    48ae: 85 19        	sta	$19                     ; 0x19 <__rc9>
    48b0: 86 1a        	stx	$1a                     ; 0x1a <__rc10>
    48b2: a6 14        	ldx	$14                     ; 0x14 <__rc4>
    48b4: 0a           	asl
    48b5: a8           	tay
    48b6: a9 00        	lda	#$0
    48b8: 2a           	rol
    48b9: 84 14        	sty	$14                     ; 0x14 <__rc4>
    48bb: 06 14        	asl	$14                     ; 0x14 <__rc4>
    48bd: 2a           	rol
    48be: 06 14        	asl	$14                     ; 0x14 <__rc4>
    48c0: 2a           	rol
    48c1: 06 14        	asl	$14                     ; 0x14 <__rc4>
    48c3: 2a           	rol
    48c4: a8           	tay
    48c5: 38           	sec
    48c6: a5 14        	lda	$14                     ; 0x14 <__rc4>
    48c8: e5 19        	sbc	$19                     ; 0x19 <__rc9>
    48ca: 85 19        	sta	$19                     ; 0x19 <__rc9>
    48cc: 98           	tya
    48cd: e9 00        	sbc	#$0
    48cf: 85 14        	sta	$14                     ; 0x14 <__rc4>
    48d1: 18           	clc
    48d2: a5 19        	lda	$19                     ; 0x19 <__rc9>
    48d4: 65 12        	adc	$12                     ; 0x12 <__rc2>
    48d6: a8           	tay
    48d7: a5 13        	lda	$13                     ; 0x13 <__rc3>
    48d9: 65 14        	adc	$14                     ; 0x14 <__rc4>
    48db: 85 8d        	sta	$8d                     ; 0x8d <__zp_bss_size+0x38>
    48dd: 84 88        	sty	$88                     ; 0x88 <__zp_bss_size+0x33>
    48df: 84 8c        	sty	$8c                     ; 0x8c <__zp_bss_size+0x37>
    48e1: 85 89        	sta	$89                     ; 0x89 <__zp_bss_size+0x34>
    48e3: a0 05        	ldy	#$5
    48e5: a5 15        	lda	$15                     ; 0x15 <__rc5>
    48e7: 91 88        	sta	($88),y                 ; 0x88 <__zp_bss_size+0x33>
    48e9: a0 03        	ldy	#$3
    48eb: a5 1a        	lda	$1a                     ; 0x1a <__rc10>
    48ed: 91 88        	sta	($88),y                 ; 0x88 <__zp_bss_size+0x33>
    48ef: 18           	clc
    48f0: a5 8c        	lda	$8c                     ; 0x8c <__zp_bss_size+0x37>
    48f2: 69 05        	adc	#$5
    48f4: 85 12        	sta	$12                     ; 0x12 <__rc2>
    48f6: a5 8d        	lda	$8d                     ; 0x8d <__zp_bss_size+0x38>
    48f8: 69 00        	adc	#$0
    48fa: 85 13        	sta	$13                     ; 0x13 <__rc3>
    48fc: a5 18        	lda	$18                     ; 0x18 <__rc8>
    48fe: 91 12        	sta	($12),y                 ; 0x12 <__rc2>
    4900: 88           	dey
    4901: a5 17        	lda	$17                     ; 0x17 <__rc7>
    4903: 91 12        	sta	($12),y                 ; 0x12 <__rc2>
    4905: a9 00        	lda	#$0
    4907: 91 88        	sta	($88),y                 ; 0x88 <__zp_bss_size+0x33>
    4909: a0 04        	ldy	#$4
    490b: 8a           	txa
    490c: 91 88        	sta	($88),y                 ; 0x88 <__zp_bss_size+0x33>
    490e: 86 14        	stx	$14                     ; 0x14 <__rc4>
    4910: a0 01        	ldy	#$1
    4912: a5 16        	lda	$16                     ; 0x16 <__rc6>
    4914: 91 12        	sta	($12),y                 ; 0x12 <__rc2>
    4916: a9 00        	lda	#$0
    4918: 92 88        	sta	($88)                   ; 0x88 <__zp_bss_size+0x33>
    491a: 91 88        	sta	($88),y                 ; 0x88 <__zp_bss_size+0x33>
    491c: a2 01        	ldx	#$1
    491e: 86 8e        	stx	$8e                     ; 0x8e <__zp_bss_size+0x39>
    4920: a2 ff        	ldx	#$ff
    4922: 86 8f        	stx	$8f                     ; 0x8f <__zp_bss_size+0x3a>
    4924: aa           	tax
    4925: a5 14        	lda	$14                     ; 0x14 <__rc4>
    4927: 85 8a        	sta	$8a                     ; 0x8a <__zp_bss_size+0x35>
    4929: 20 03 6d     	jsr	$6d03 <malloc>
    492c: a0 09        	ldy	#$9
    492e: a6 8c        	ldx	$8c                     ; 0x8c <__zp_bss_size+0x37>
    4930: 86 8b        	stx	$8b                     ; 0x8b <__zp_bss_size+0x36>
    4932: a5 8c        	lda	$8c                     ; 0x8c <__zp_bss_size+0x37>
    4934: 18           	clc
    4935: 69 09        	adc	#$9
    4937: 85 14        	sta	$14                     ; 0x14 <__rc4>
    4939: a5 12        	lda	$12                     ; 0x12 <__rc2>
    493b: 91 88        	sta	($88),y                 ; 0x88 <__zp_bss_size+0x33>
    493d: a6 8d        	ldx	$8d                     ; 0x8d <__zp_bss_size+0x38>
    493f: 86 8c        	stx	$8c                     ; 0x8c <__zp_bss_size+0x37>
    4941: a5 8d        	lda	$8d                     ; 0x8d <__zp_bss_size+0x38>
    4943: 69 00        	adc	#$0
    4945: 85 15        	sta	$15                     ; 0x15 <__rc5>
    4947: a5 13        	lda	$13                     ; 0x13 <__rc3>
    4949: a4 8e        	ldy	$8e                     ; 0x8e <__zp_bss_size+0x39>
    494b: 91 14        	sta	($14),y                 ; 0x14 <__rc4>
    494d: a2 00        	ldx	#$0
    494f: 86 14        	stx	$14                     ; 0x14 <__rc4>
    4951: a2 00        	ldx	#$0
    4953: 86 15        	stx	$15                     ; 0x15 <__rc5>
    4955: a6 13        	ldx	$13                     ; 0x13 <__rc3>
    4957: e4 15        	cpx	$15                     ; 0x15 <__rc5>
    4959: d0 06        	bne	$4961 <setupMem4ABeat+0xb3>
    495b: a6 12        	ldx	$12                     ; 0x12 <__rc2>
    495d: e4 14        	cpx	$14                     ; 0x14 <__rc4>
    495f: f0 34        	beq	$4995 <setupMem4ABeat+0xe7>
    4961: a2 00        	ldx	#$0
    4963: a5 8a        	lda	$8a                     ; 0x8a <__zp_bss_size+0x35>
    4965: 20 03 6d     	jsr	$6d03 <malloc>
    4968: 18           	clc
    4969: a5 8b        	lda	$8b                     ; 0x8b <__zp_bss_size+0x36>
    496b: 69 0b        	adc	#$b
    496d: 85 14        	sta	$14                     ; 0x14 <__rc4>
    496f: a5 8d        	lda	$8d                     ; 0x8d <__zp_bss_size+0x38>
    4971: 69 00        	adc	#$0
    4973: a0 0b        	ldy	#$b
    4975: 85 15        	sta	$15                     ; 0x15 <__rc5>
    4977: a5 12        	lda	$12                     ; 0x12 <__rc2>
    4979: 91 88        	sta	($88),y                 ; 0x88 <__zp_bss_size+0x33>
    497b: a5 13        	lda	$13                     ; 0x13 <__rc3>
    497d: a0 01        	ldy	#$1
    497f: 91 14        	sta	($14),y                 ; 0x14 <__rc4>
    4981: a2 00        	ldx	#$0
    4983: 86 14        	stx	$14                     ; 0x14 <__rc4>
    4985: a2 00        	ldx	#$0
    4987: 86 15        	stx	$15                     ; 0x15 <__rc5>
    4989: a6 13        	ldx	$13                     ; 0x13 <__rc3>
    498b: e4 15        	cpx	$15                     ; 0x15 <__rc5>
    498d: d0 09        	bne	$4998 <setupMem4ABeat+0xea>
    498f: a6 12        	ldx	$12                     ; 0x12 <__rc2>
    4991: e4 14        	cpx	$14                     ; 0x14 <__rc4>
    4993: d0 03        	bne	$4998 <setupMem4ABeat+0xea>
    4995: a5 8f        	lda	$8f                     ; 0x8f <__zp_bss_size+0x3a>
    4997: 60           	rts
    4998: a2 ff        	ldx	#$ff
    499a: 86 8d        	stx	$8d                     ; 0x8d <__zp_bss_size+0x38>
    499c: a5 8a        	lda	$8a                     ; 0x8a <__zp_bss_size+0x35>
    499e: 0a           	asl
    499f: 85 12        	sta	$12                     ; 0x12 <__rc2>
    49a1: a9 00        	lda	#$0
    49a3: 2a           	rol
    49a4: 85 13        	sta	$13                     ; 0x13 <__rc3>
    49a6: a5 8a        	lda	$8a                     ; 0x8a <__zp_bss_size+0x35>
    49a8: 18           	clc
    49a9: 65 12        	adc	$12                     ; 0x12 <__rc2>
    49ab: a8           	tay
    49ac: a5 13        	lda	$13                     ; 0x13 <__rc3>
    49ae: 69 00        	adc	#$0
    49b0: aa           	tax
    49b1: 98           	tya
    49b2: 20 03 6d     	jsr	$6d03 <malloc>
    49b5: a0 0d        	ldy	#$d
    49b7: a5 8b        	lda	$8b                     ; 0x8b <__zp_bss_size+0x36>
    49b9: 18           	clc
    49ba: 69 0d        	adc	#$d
    49bc: 85 14        	sta	$14                     ; 0x14 <__rc4>
    49be: a5 12        	lda	$12                     ; 0x12 <__rc2>
    49c0: 91 88        	sta	($88),y                 ; 0x88 <__zp_bss_size+0x33>
    49c2: a5 8c        	lda	$8c                     ; 0x8c <__zp_bss_size+0x37>
    49c4: 69 00        	adc	#$0
    49c6: 85 15        	sta	$15                     ; 0x15 <__rc5>
    49c8: a5 13        	lda	$13                     ; 0x13 <__rc3>
    49ca: a0 01        	ldy	#$1
    49cc: 91 14        	sta	($14),y                 ; 0x14 <__rc4>
    49ce: a2 00        	ldx	#$0
    49d0: 86 14        	stx	$14                     ; 0x14 <__rc4>
    49d2: a2 00        	ldx	#$0
    49d4: 86 15        	stx	$15                     ; 0x15 <__rc5>
    49d6: a6 13        	ldx	$13                     ; 0x13 <__rc3>
    49d8: e4 15        	cpx	$15                     ; 0x15 <__rc5>
    49da: d0 0b        	bne	$49e7 <setupMem4ABeat+0x139>
    49dc: a6 12        	ldx	$12                     ; 0x12 <__rc2>
    49de: a5 8d        	lda	$8d                     ; 0x8d <__zp_bss_size+0x38>
    49e0: e4 14        	cpx	$14                     ; 0x14 <__rc4>
    49e2: d0 03        	bne	$49e7 <setupMem4ABeat+0x139>
    49e4: 4c 82 4a     	jmp	$4a82 <setupMem4ABeat+0x1d4>
    49e7: a2 02        	ldx	#$2
    49e9: 64 15        	stz	$15                     ; 0x15 <__rc5>
    49eb: 64 16        	stz	$16                     ; 0x16 <__rc6>
    49ed: a5 8b        	lda	$8b                     ; 0x8b <__zp_bss_size+0x36>
    49ef: 18           	clc
    49f0: 69 09        	adc	#$9
    49f2: 85 12        	sta	$12                     ; 0x12 <__rc2>
    49f4: a5 8c        	lda	$8c                     ; 0x8c <__zp_bss_size+0x37>
    49f6: 69 00        	adc	#$0
    49f8: 85 13        	sta	$13                     ; 0x13 <__rc3>
    49fa: a0 09        	ldy	#$9
    49fc: b1 88        	lda	($88),y                 ; 0x88 <__zp_bss_size+0x33>
    49fe: 85 18        	sta	$18                     ; 0x18 <__rc8>
    4a00: a0 01        	ldy	#$1
    4a02: b1 12        	lda	($12),y                 ; 0x12 <__rc2>
    4a04: 84 17        	sty	$17                     ; 0x17 <__rc7>
    4a06: a4 18        	ldy	$18                     ; 0x18 <__rc8>
    4a08: 84 12        	sty	$12                     ; 0x12 <__rc2>
    4a0a: 85 13        	sta	$13                     ; 0x13 <__rc3>
    4a0c: a9 00        	lda	#$0
    4a0e: a4 16        	ldy	$16                     ; 0x16 <__rc6>
    4a10: 91 12        	sta	($12),y                 ; 0x12 <__rc2>
    4a12: a5 8b        	lda	$8b                     ; 0x8b <__zp_bss_size+0x36>
    4a14: 18           	clc
    4a15: 69 0b        	adc	#$b
    4a17: 85 12        	sta	$12                     ; 0x12 <__rc2>
    4a19: a5 8c        	lda	$8c                     ; 0x8c <__zp_bss_size+0x37>
    4a1b: 69 00        	adc	#$0
    4a1d: 85 13        	sta	$13                     ; 0x13 <__rc3>
    4a1f: a0 0b        	ldy	#$b
    4a21: b1 88        	lda	($88),y                 ; 0x88 <__zp_bss_size+0x33>
    4a23: 85 18        	sta	$18                     ; 0x18 <__rc8>
    4a25: a4 17        	ldy	$17                     ; 0x17 <__rc7>
    4a27: b1 12        	lda	($12),y                 ; 0x12 <__rc2>
    4a29: a4 18        	ldy	$18                     ; 0x18 <__rc8>
    4a2b: 84 12        	sty	$12                     ; 0x12 <__rc2>
    4a2d: 85 13        	sta	$13                     ; 0x13 <__rc3>
    4a2f: a4 16        	ldy	$16                     ; 0x16 <__rc6>
    4a31: a9 00        	lda	#$0
    4a33: 91 12        	sta	($12),y                 ; 0x12 <__rc2>
    4a35: a5 8b        	lda	$8b                     ; 0x8b <__zp_bss_size+0x36>
    4a37: 18           	clc
    4a38: 69 0d        	adc	#$d
    4a3a: 85 12        	sta	$12                     ; 0x12 <__rc2>
    4a3c: a5 8c        	lda	$8c                     ; 0x8c <__zp_bss_size+0x37>
    4a3e: 69 00        	adc	#$0
    4a40: 85 13        	sta	$13                     ; 0x13 <__rc3>
    4a42: a0 0d        	ldy	#$d
    4a44: b1 88        	lda	($88),y                 ; 0x88 <__zp_bss_size+0x33>
    4a46: 85 18        	sta	$18                     ; 0x18 <__rc8>
    4a48: a4 17        	ldy	$17                     ; 0x17 <__rc7>
    4a4a: b1 12        	lda	($12),y                 ; 0x12 <__rc2>
    4a4c: a4 18        	ldy	$18                     ; 0x18 <__rc8>
    4a4e: 84 12        	sty	$12                     ; 0x12 <__rc2>
    4a50: 85 13        	sta	$13                     ; 0x13 <__rc3>
    4a52: a4 15        	ldy	$15                     ; 0x15 <__rc5>
    4a54: a9 00        	lda	#$0
    4a56: 91 12        	sta	($12),y                 ; 0x12 <__rc2>
    4a58: 18           	clc
    4a59: a5 16        	lda	$16                     ; 0x16 <__rc6>
    4a5b: 69 06        	adc	#$6
    4a5d: da           	phx
    4a5e: 7a           	ply
    4a5f: 91 12        	sta	($12),y                 ; 0x12 <__rc2>
    4a61: a4 16        	ldy	$16                     ; 0x16 <__rc6>
    4a63: 84 12        	sty	$12                     ; 0x12 <__rc2>
    4a65: e6 12        	inc	$12                     ; 0x12 <__rc2>
    4a67: 18           	clc
    4a68: 8a           	txa
    4a69: 69 03        	adc	#$3
    4a6b: aa           	tax
    4a6c: 18           	clc
    4a6d: a5 15        	lda	$15                     ; 0x15 <__rc5>
    4a6f: 69 03        	adc	#$3
    4a71: 85 15        	sta	$15                     ; 0x15 <__rc5>
    4a73: a4 12        	ldy	$12                     ; 0x12 <__rc2>
    4a75: 84 16        	sty	$16                     ; 0x16 <__rc6>
    4a77: a4 8a        	ldy	$8a                     ; 0x8a <__zp_bss_size+0x35>
    4a79: c4 12        	cpy	$12                     ; 0x12 <__rc2>
    4a7b: f0 03        	beq	$4a80 <setupMem4ABeat+0x1d2>
    4a7d: 4c ed 49     	jmp	$49ed <setupMem4ABeat+0x13f>
    4a80: a9 00        	lda	#$0
    4a82: 60           	rts

00004a83 <getBeatTrackNoteInfo>:
    4a83: 48           	pha
    4a84: 18           	clc
    4a85: a5 10        	lda	$10                     ; 0x10 <__rc0>
    4a87: 69 f9        	adc	#$f9
    4a89: 85 10        	sta	$10                     ; 0x10 <__rc0>
    4a8b: a5 11        	lda	$11                     ; 0x11 <__rc1>
    4a8d: 69 ff        	adc	#$ff
    4a8f: 85 11        	sta	$11                     ; 0x11 <__rc1>
    4a91: 68           	pla
    4a92: a4 24        	ldy	$24                     ; 0x24 <__rc20>
    4a94: 5a           	phy
    4a95: a4 25        	ldy	$25                     ; 0x25 <__rc21>
    4a97: 5a           	phy
    4a98: a4 26        	ldy	$26                     ; 0x26 <__rc22>
    4a9a: 5a           	phy
    4a9b: a4 27        	ldy	$27                     ; 0x27 <__rc23>
    4a9d: 5a           	phy
    4a9e: 48           	pha
    4a9f: a5 28        	lda	$28                     ; 0x28 <__rc24>
    4aa1: a0 06        	ldy	#$6
    4aa3: 91 10        	sta	($10),y                 ; 0x10 <__rc0>
    4aa5: a5 29        	lda	$29                     ; 0x29 <__rc25>
    4aa7: 88           	dey
    4aa8: 91 10        	sta	($10),y                 ; 0x10 <__rc0>
    4aaa: a5 2a        	lda	$2a                     ; 0x2a <__rc26>
    4aac: 88           	dey
    4aad: 91 10        	sta	($10),y                 ; 0x10 <__rc0>
    4aaf: a5 2b        	lda	$2b                     ; 0x2b <__rc27>
    4ab1: 88           	dey
    4ab2: 91 10        	sta	($10),y                 ; 0x10 <__rc0>
    4ab4: a5 2c        	lda	$2c                     ; 0x2c <__rc28>
    4ab6: 88           	dey
    4ab7: 91 10        	sta	($10),y                 ; 0x10 <__rc0>
    4ab9: a5 2d        	lda	$2d                     ; 0x2d <__rc29>
    4abb: 88           	dey
    4abc: 91 10        	sta	($10),y                 ; 0x10 <__rc0>
    4abe: a5 2e        	lda	$2e                     ; 0x2e <__rc30>
    4ac0: 88           	dey
    4ac1: 91 10        	sta	($10),y                 ; 0x10 <__rc0>
    4ac3: 68           	pla
    4ac4: 85 1b        	sta	$1b                     ; 0x1b <__rc11>
    4ac6: 86 24        	stx	$24                     ; 0x24 <__rc20>
    4ac8: 0a           	asl
    4ac9: 64 1a        	stz	$1a                     ; 0x1a <__rc10>
    4acb: a2 00        	ldx	#$0
    4acd: 64 1c        	stz	$1c                     ; 0x1c <__rc12>
    4acf: 26 1c        	rol	$1c                     ; 0x1c <__rc12>
    4ad1: 0a           	asl
    4ad2: 26 1c        	rol	$1c                     ; 0x1c <__rc12>
    4ad4: 0a           	asl
    4ad5: 26 1c        	rol	$1c                     ; 0x1c <__rc12>
    4ad7: 0a           	asl
    4ad8: 26 1c        	rol	$1c                     ; 0x1c <__rc12>
    4ada: 38           	sec
    4adb: e5 1b        	sbc	$1b                     ; 0x1b <__rc11>
    4add: aa           	tax
    4ade: a5 1c        	lda	$1c                     ; 0x1c <__rc12>
    4ae0: e9 00        	sbc	#$0
    4ae2: 85 1b        	sta	$1b                     ; 0x1b <__rc11>
    4ae4: 18           	clc
    4ae5: 8a           	txa
    4ae6: 65 12        	adc	$12                     ; 0x12 <__rc2>
    4ae8: a8           	tay
    4ae9: a5 13        	lda	$13                     ; 0x13 <__rc3>
    4aeb: 65 1b        	adc	$1b                     ; 0x1b <__rc11>
    4aed: 84 22        	sty	$22                     ; 0x22 <__rc18>
    4aef: 84 12        	sty	$12                     ; 0x12 <__rc2>
    4af1: 85 23        	sta	$23                     ; 0x23 <__rc19>
    4af3: 85 13        	sta	$13                     ; 0x13 <__rc3>
    4af5: a0 04        	ldy	#$4
    4af7: b1 12        	lda	($12),y                 ; 0x12 <__rc2>
    4af9: d0 03        	bne	$4afe <getBeatTrackNoteInfo+0x7b>
    4afb: 4c ef 4c     	jmp	$4cef <getBeatTrackNoteInfo+0x26c>
    4afe: a0 05        	ldy	#$5
    4b00: a5 22        	lda	$22                     ; 0x22 <__rc18>
    4b02: 18           	clc
    4b03: 69 05        	adc	#$5
    4b05: 85 1c        	sta	$1c                     ; 0x1c <__rc12>
    4b07: a5 23        	lda	$23                     ; 0x23 <__rc19>
    4b09: 69 00        	adc	#$0
    4b0b: 85 1d        	sta	$1d                     ; 0x1d <__rc13>
    4b0d: b1 12        	lda	($12),y                 ; 0x12 <__rc2>
    4b0f: 85 25        	sta	$25                     ; 0x25 <__rc21>
    4b11: a0 01        	ldy	#$1
    4b13: b1 1c        	lda	($1c),y                 ; 0x1c <__rc12>
    4b15: 85 26        	sta	$26                     ; 0x26 <__rc22>
    4b17: c8           	iny
    4b18: b1 1c        	lda	($1c),y                 ; 0x1c <__rc12>
    4b1a: 85 27        	sta	$27                     ; 0x27 <__rc23>
    4b1c: c8           	iny
    4b1d: b1 1c        	lda	($1c),y                 ; 0x1c <__rc12>
    4b1f: 85 28        	sta	$28                     ; 0x28 <__rc24>
    4b21: 80 37        	bra	$4b5a <getBeatTrackNoteInfo+0xd7>
    4b23: 0a           	asl
    4b24: 64 1c        	stz	$1c                     ; 0x1c <__rc12>
    4b26: 26 1c        	rol	$1c                     ; 0x1c <__rc12>
    4b28: 18           	clc
    4b29: 69 04        	adc	#$4
    4b2b: 85 1b        	sta	$1b                     ; 0x1b <__rc11>
    4b2d: a5 1c        	lda	$1c                     ; 0x1c <__rc12>
    4b2f: 69 00        	adc	#$0
    4b31: 85 1c        	sta	$1c                     ; 0x1c <__rc12>
    4b33: 18           	clc
    4b34: a5 2b        	lda	$2b                     ; 0x2b <__rc27>
    4b36: 65 1b        	adc	$1b                     ; 0x1b <__rc11>
    4b38: 85 25        	sta	$25                     ; 0x25 <__rc21>
    4b3a: a5 2a        	lda	$2a                     ; 0x2a <__rc26>
    4b3c: 65 1c        	adc	$1c                     ; 0x1c <__rc12>
    4b3e: 85 26        	sta	$26                     ; 0x26 <__rc22>
    4b40: a5 29        	lda	$29                     ; 0x29 <__rc25>
    4b42: 69 00        	adc	#$0
    4b44: 85 27        	sta	$27                     ; 0x27 <__rc23>
    4b46: a5 28        	lda	$28                     ; 0x28 <__rc24>
    4b48: 69 00        	adc	#$0
    4b4a: 85 28        	sta	$28                     ; 0x28 <__rc24>
    4b4c: a5 1a        	lda	$1a                     ; 0x1a <__rc10>
    4b4e: 1a           	inc
    4b4f: a0 04        	ldy	#$4
    4b51: d1 12        	cmp	($12),y                 ; 0x12 <__rc2>
    4b53: 85 1a        	sta	$1a                     ; 0x1a <__rc10>
    4b55: 90 03        	bcc	$4b5a <getBeatTrackNoteInfo+0xd7>
    4b57: 4c ef 4c     	jmp	$4cef <getBeatTrackNoteInfo+0x26c>
    4b5a: 18           	clc
    4b5b: a6 25        	ldx	$25                     ; 0x25 <__rc21>
    4b5d: a5 25        	lda	$25                     ; 0x25 <__rc21>
    4b5f: 69 03        	adc	#$3
    4b61: 85 1c        	sta	$1c                     ; 0x1c <__rc12>
    4b63: 86 2b        	stx	$2b                     ; 0x2b <__rc27>
    4b65: a5 26        	lda	$26                     ; 0x26 <__rc22>
    4b67: 85 2a        	sta	$2a                     ; 0x2a <__rc26>
    4b69: 69 00        	adc	#$0
    4b6b: a8           	tay
    4b6c: a5 27        	lda	$27                     ; 0x27 <__rc23>
    4b6e: 85 29        	sta	$29                     ; 0x29 <__rc25>
    4b70: 69 00        	adc	#$0
    4b72: 84 1b        	sty	$1b                     ; 0x1b <__rc11>
    4b74: 06 1b        	asl	$1b                     ; 0x1b <__rc11>
    4b76: 2a           	rol
    4b77: 06 1b        	asl	$1b                     ; 0x1b <__rc11>
    4b79: 2a           	rol
    4b7a: 06 1b        	asl	$1b                     ; 0x1b <__rc11>
    4b7c: 2a           	rol
    4b7d: a6 0f        	ldx	$f                      ; 0xf <__zp_data_size+0xc>
    4b7f: 78           	sei
    4b80: 85 25        	sta	$25                     ; 0x25 <__rc21>
    4b82: 85 0f        	sta	$f                      ; 0xf <__zp_data_size+0xc>
    4b84: 98           	tya
    4b85: 09 e0        	ora	#$e0
    4b87: 85 1d        	sta	$1d                     ; 0x1d <__rc13>
    4b89: b2 1c        	lda	($1c)                   ; 0x1c <__rc12>
    4b8b: 85 1b        	sta	$1b                     ; 0x1b <__rc11>
    4b8d: 86 0f        	stx	$f                      ; 0xf <__zp_data_size+0xc>
    4b8f: 58           	cli
    4b90: a6 24        	ldx	$24                     ; 0x24 <__rc20>
    4b92: e4 1a        	cpx	$1a                     ; 0x1a <__rc10>
    4b94: f0 03        	beq	$4b99 <getBeatTrackNoteInfo+0x116>
    4b96: 4c 23 4b     	jmp	$4b23 <getBeatTrackNoteInfo+0xa0>
    4b99: 86 2c        	stx	$2c                     ; 0x2c <__rc28>
    4b9b: a6 0f        	ldx	$f                      ; 0xf <__zp_data_size+0xc>
    4b9d: 78           	sei
    4b9e: a4 2a        	ldy	$2a                     ; 0x2a <__rc26>
    4ba0: 84 1e        	sty	$1e                     ; 0x1e <__rc14>
    4ba2: 06 1e        	asl	$1e                     ; 0x1e <__rc14>
    4ba4: a5 29        	lda	$29                     ; 0x29 <__rc25>
    4ba6: 2a           	rol
    4ba7: 06 1e        	asl	$1e                     ; 0x1e <__rc14>
    4ba9: 2a           	rol
    4baa: 06 1e        	asl	$1e                     ; 0x1e <__rc14>
    4bac: 2a           	rol
    4bad: 85 0f        	sta	$f                      ; 0xf <__zp_data_size+0xc>
    4baf: a5 2a        	lda	$2a                     ; 0x2a <__rc26>
    4bb1: 09 e0        	ora	#$e0
    4bb3: a4 2b        	ldy	$2b                     ; 0x2b <__rc27>
    4bb5: 84 1e        	sty	$1e                     ; 0x1e <__rc14>
    4bb7: 85 1f        	sta	$1f                     ; 0x1f <__rc15>
    4bb9: b2 1e        	lda	($1e)                   ; 0x1e <__rc14>
    4bbb: 86 0f        	stx	$f                      ; 0xf <__zp_data_size+0xc>
    4bbd: 58           	cli
    4bbe: 92 18        	sta	($18)                   ; 0x18 <__rc8>
    4bc0: a4 2a        	ldy	$2a                     ; 0x2a <__rc26>
    4bc2: a5 29        	lda	$29                     ; 0x29 <__rc25>
    4bc4: a6 28        	ldx	$28                     ; 0x28 <__rc24>
    4bc6: e6 1e        	inc	$1e                     ; 0x1e <__rc14>
    4bc8: d0 07        	bne	$4bd1 <getBeatTrackNoteInfo+0x14e>
    4bca: c8           	iny
    4bcb: d0 04        	bne	$4bd1 <getBeatTrackNoteInfo+0x14e>
    4bcd: 1a           	inc
    4bce: d0 01        	bne	$4bd1 <getBeatTrackNoteInfo+0x14e>
    4bd0: e8           	inx
    4bd1: a6 0f        	ldx	$f                      ; 0xf <__zp_data_size+0xc>
    4bd3: 78           	sei
    4bd4: 84 1f        	sty	$1f                     ; 0x1f <__rc15>
    4bd6: 06 1f        	asl	$1f                     ; 0x1f <__rc15>
    4bd8: 2a           	rol
    4bd9: 06 1f        	asl	$1f                     ; 0x1f <__rc15>
    4bdb: 2a           	rol
    4bdc: 06 1f        	asl	$1f                     ; 0x1f <__rc15>
    4bde: 2a           	rol
    4bdf: 85 0f        	sta	$f                      ; 0xf <__zp_data_size+0xc>
    4be1: 98           	tya
    4be2: 09 e0        	ora	#$e0
    4be4: 85 1f        	sta	$1f                     ; 0x1f <__rc15>
    4be6: b2 1e        	lda	($1e)                   ; 0x1e <__rc14>
    4be8: 86 0f        	stx	$f                      ; 0xf <__zp_data_size+0xc>
    4bea: 58           	cli
    4beb: a0 01        	ldy	#$1
    4bed: 91 18        	sta	($18),y                 ; 0x18 <__rc8>
    4bef: 84 2d        	sty	$2d                     ; 0x2d <__rc29>
    4bf1: a5 2b        	lda	$2b                     ; 0x2b <__rc27>
    4bf3: 18           	clc
    4bf4: 69 02        	adc	#$2
    4bf6: a8           	tay
    4bf7: a5 2a        	lda	$2a                     ; 0x2a <__rc26>
    4bf9: 69 00        	adc	#$0
    4bfb: 85 1f        	sta	$1f                     ; 0x1f <__rc15>
    4bfd: a5 29        	lda	$29                     ; 0x29 <__rc25>
    4bff: 69 00        	adc	#$0
    4c01: a6 0f        	ldx	$f                      ; 0xf <__zp_data_size+0xc>
    4c03: 78           	sei
    4c04: 5a           	phy
    4c05: a4 1f        	ldy	$1f                     ; 0x1f <__rc15>
    4c07: 84 1e        	sty	$1e                     ; 0x1e <__rc14>
    4c09: 7a           	ply
    4c0a: 06 1e        	asl	$1e                     ; 0x1e <__rc14>
    4c0c: 2a           	rol
    4c0d: 06 1e        	asl	$1e                     ; 0x1e <__rc14>
    4c0f: 2a           	rol
    4c10: 06 1e        	asl	$1e                     ; 0x1e <__rc14>
    4c12: 2a           	rol
    4c13: 85 0f        	sta	$f                      ; 0xf <__zp_data_size+0xc>
    4c15: a5 1f        	lda	$1f                     ; 0x1f <__rc15>
    4c17: 09 e0        	ora	#$e0
    4c19: 84 1e        	sty	$1e                     ; 0x1e <__rc14>
    4c1b: 85 1f        	sta	$1f                     ; 0x1f <__rc15>
    4c1d: b2 1e        	lda	($1e)                   ; 0x1e <__rc14>
    4c1f: 86 0f        	stx	$f                      ; 0xf <__zp_data_size+0xc>
    4c21: 58           	cli
    4c22: a0 02        	ldy	#$2
    4c24: 91 18        	sta	($18),y                 ; 0x18 <__rc8>
    4c26: a6 0f        	ldx	$f                      ; 0xf <__zp_data_size+0xc>
    4c28: 78           	sei
    4c29: a4 25        	ldy	$25                     ; 0x25 <__rc21>
    4c2b: 84 0f        	sty	$f                      ; 0xf <__zp_data_size+0xc>
    4c2d: b2 1c        	lda	($1c)                   ; 0x1c <__rc12>
    4c2f: 86 0f        	stx	$f                      ; 0xf <__zp_data_size+0xc>
    4c31: 58           	cli
    4c32: a0 03        	ldy	#$3
    4c34: 91 18        	sta	($18),y                 ; 0x18 <__rc8>
    4c36: a6 2b        	ldx	$2b                     ; 0x2b <__rc27>
    4c38: 86 25        	stx	$25                     ; 0x25 <__rc21>
    4c3a: a5 2b        	lda	$2b                     ; 0x2b <__rc27>
    4c3c: 18           	clc
    4c3d: 69 04        	adc	#$4
    4c3f: 85 2b        	sta	$2b                     ; 0x2b <__rc27>
    4c41: a5 2a        	lda	$2a                     ; 0x2a <__rc26>
    4c43: 69 00        	adc	#$0
    4c45: 85 2a        	sta	$2a                     ; 0x2a <__rc26>
    4c47: a5 29        	lda	$29                     ; 0x29 <__rc25>
    4c49: 69 00        	adc	#$0
    4c4b: 85 29        	sta	$29                     ; 0x29 <__rc25>
    4c4d: a5 22        	lda	$22                     ; 0x22 <__rc18>
    4c4f: 18           	clc
    4c50: 69 09        	adc	#$9
    4c52: 85 1c        	sta	$1c                     ; 0x1c <__rc12>
    4c54: a5 23        	lda	$23                     ; 0x23 <__rc19>
    4c56: 69 00        	adc	#$0
    4c58: 85 1d        	sta	$1d                     ; 0x1d <__rc13>
    4c5a: a0 09        	ldy	#$9
    4c5c: b1 12        	lda	($12),y                 ; 0x12 <__rc2>
    4c5e: 85 1e        	sta	$1e                     ; 0x1e <__rc14>
    4c60: 84 2e        	sty	$2e                     ; 0x2e <__rc30>
    4c62: a4 2d        	ldy	$2d                     ; 0x2d <__rc29>
    4c64: b1 1c        	lda	($1c),y                 ; 0x1c <__rc12>
    4c66: 85 1f        	sta	$1f                     ; 0x1f <__rc15>
    4c68: 18           	clc
    4c69: a5 2b        	lda	$2b                     ; 0x2b <__rc27>
    4c6b: a4 2c        	ldy	$2c                     ; 0x2c <__rc28>
    4c6d: 71 1e        	adc	($1e),y                 ; 0x1e <__rc14>
    4c6f: a8           	tay
    4c70: a5 2a        	lda	$2a                     ; 0x2a <__rc26>
    4c72: 69 00        	adc	#$0
    4c74: 85 1f        	sta	$1f                     ; 0x1f <__rc15>
    4c76: a5 29        	lda	$29                     ; 0x29 <__rc25>
    4c78: 69 00        	adc	#$0
    4c7a: a6 1f        	ldx	$1f                     ; 0x1f <__rc15>
    4c7c: 86 1e        	stx	$1e                     ; 0x1e <__rc14>
    4c7e: 06 1e        	asl	$1e                     ; 0x1e <__rc14>
    4c80: 2a           	rol
    4c81: 06 1e        	asl	$1e                     ; 0x1e <__rc14>
    4c83: 2a           	rol
    4c84: 06 1e        	asl	$1e                     ; 0x1e <__rc14>
    4c86: 2a           	rol
    4c87: a6 0f        	ldx	$f                      ; 0xf <__zp_data_size+0xc>
    4c89: 78           	sei
    4c8a: 85 0f        	sta	$f                      ; 0xf <__zp_data_size+0xc>
    4c8c: 84 1e        	sty	$1e                     ; 0x1e <__rc14>
    4c8e: a5 1f        	lda	$1f                     ; 0x1f <__rc15>
    4c90: 09 e0        	ora	#$e0
    4c92: 85 1f        	sta	$1f                     ; 0x1f <__rc15>
    4c94: b2 1e        	lda	($1e)                   ; 0x1e <__rc14>
    4c96: 86 0f        	stx	$f                      ; 0xf <__zp_data_size+0xc>
    4c98: 58           	cli
    4c99: 92 14        	sta	($14)                   ; 0x14 <__rc4>
    4c9b: 18           	clc
    4c9c: a5 2b        	lda	$2b                     ; 0x2b <__rc27>
    4c9e: 65 1b        	adc	$1b                     ; 0x1b <__rc11>
    4ca0: aa           	tax
    4ca1: a5 2a        	lda	$2a                     ; 0x2a <__rc26>
    4ca3: 69 00        	adc	#$0
    4ca5: 85 1b        	sta	$1b                     ; 0x1b <__rc11>
    4ca7: a5 29        	lda	$29                     ; 0x29 <__rc25>
    4ca9: 69 00        	adc	#$0
    4cab: 85 1e        	sta	$1e                     ; 0x1e <__rc14>
    4cad: a4 2e        	ldy	$2e                     ; 0x2e <__rc30>
    4caf: b1 12        	lda	($12),y                 ; 0x12 <__rc2>
    4cb1: 85 1f        	sta	$1f                     ; 0x1f <__rc15>
    4cb3: a4 2d        	ldy	$2d                     ; 0x2d <__rc29>
    4cb5: b1 1c        	lda	($1c),y                 ; 0x1c <__rc12>
    4cb7: a4 1f        	ldy	$1f                     ; 0x1f <__rc15>
    4cb9: 84 1c        	sty	$1c                     ; 0x1c <__rc12>
    4cbb: 85 1d        	sta	$1d                     ; 0x1d <__rc13>
    4cbd: 18           	clc
    4cbe: a4 2c        	ldy	$2c                     ; 0x2c <__rc28>
    4cc0: 8a           	txa
    4cc1: 71 1c        	adc	($1c),y                 ; 0x1c <__rc12>
    4cc3: 85 1c        	sta	$1c                     ; 0x1c <__rc12>
    4cc5: a5 1b        	lda	$1b                     ; 0x1b <__rc11>
    4cc7: 69 00        	adc	#$0
    4cc9: a8           	tay
    4cca: a5 1e        	lda	$1e                     ; 0x1e <__rc14>
    4ccc: 69 00        	adc	#$0
    4cce: 85 1b        	sta	$1b                     ; 0x1b <__rc11>
    4cd0: 98           	tya
    4cd1: 0a           	asl
    4cd2: 26 1b        	rol	$1b                     ; 0x1b <__rc11>
    4cd4: 0a           	asl
    4cd5: 26 1b        	rol	$1b                     ; 0x1b <__rc11>
    4cd7: 0a           	asl
    4cd8: a5 1b        	lda	$1b                     ; 0x1b <__rc11>
    4cda: 2a           	rol
    4cdb: a6 0f        	ldx	$f                      ; 0xf <__zp_data_size+0xc>
    4cdd: 78           	sei
    4cde: 85 0f        	sta	$f                      ; 0xf <__zp_data_size+0xc>
    4ce0: 98           	tya
    4ce1: 09 e0        	ora	#$e0
    4ce3: 85 1d        	sta	$1d                     ; 0x1d <__rc13>
    4ce5: b2 1c        	lda	($1c)                   ; 0x1c <__rc12>
    4ce7: 86 0f        	stx	$f                      ; 0xf <__zp_data_size+0xc>
    4ce9: 58           	cli
    4cea: 92 16        	sta	($16)                   ; 0x16 <__rc6>
    4cec: 4c 4c 4b     	jmp	$4b4c <getBeatTrackNoteInfo+0xc9>
    4cef: a0 00        	ldy	#$0
    4cf1: b1 10        	lda	($10),y                 ; 0x10 <__rc0>
    4cf3: 85 2e        	sta	$2e                     ; 0x2e <__rc30>
    4cf5: c8           	iny
    4cf6: b1 10        	lda	($10),y                 ; 0x10 <__rc0>
    4cf8: 85 2d        	sta	$2d                     ; 0x2d <__rc29>
    4cfa: c8           	iny
    4cfb: b1 10        	lda	($10),y                 ; 0x10 <__rc0>
    4cfd: 85 2c        	sta	$2c                     ; 0x2c <__rc28>
    4cff: c8           	iny
    4d00: b1 10        	lda	($10),y                 ; 0x10 <__rc0>
    4d02: 85 2b        	sta	$2b                     ; 0x2b <__rc27>
    4d04: c8           	iny
    4d05: b1 10        	lda	($10),y                 ; 0x10 <__rc0>
    4d07: 85 2a        	sta	$2a                     ; 0x2a <__rc26>
    4d09: c8           	iny
    4d0a: b1 10        	lda	($10),y                 ; 0x10 <__rc0>
    4d0c: 85 29        	sta	$29                     ; 0x29 <__rc25>
    4d0e: c8           	iny
    4d0f: b1 10        	lda	($10),y                 ; 0x10 <__rc0>
    4d11: 85 28        	sta	$28                     ; 0x28 <__rc24>
    4d13: fa           	plx
    4d14: 86 27        	stx	$27                     ; 0x27 <__rc23>
    4d16: fa           	plx
    4d17: 86 26        	stx	$26                     ; 0x26 <__rc22>
    4d19: fa           	plx
    4d1a: 86 25        	stx	$25                     ; 0x25 <__rc21>
    4d1c: fa           	plx
    4d1d: 86 24        	stx	$24                     ; 0x24 <__rc20>
    4d1f: 18           	clc
    4d20: a5 10        	lda	$10                     ; 0x10 <__rc0>
    4d22: 69 07        	adc	#$7
    4d24: 85 10        	sta	$10                     ; 0x10 <__rc0>
    4d26: a5 11        	lda	$11                     ; 0x11 <__rc1>
    4d28: 69 00        	adc	#$0
    4d2a: 85 11        	sta	$11                     ; 0x11 <__rc1>
    4d2c: 60           	rts

00004d2d <setupMem4Track>:
    4d2d: 85 1d        	sta	$1d                     ; 0x1d <__rc13>
    4d2f: 86 1c        	stx	$1c                     ; 0x1c <__rc12>
    4d31: a0 01        	ldy	#$1
    4d33: b1 14        	lda	($14),y                 ; 0x14 <__rc4>
    4d35: a2 01        	ldx	#$1
    4d37: 86 1e        	stx	$1e                     ; 0x1e <__rc14>
    4d39: 85 1a        	sta	$1a                     ; 0x1a <__rc10>
    4d3b: 85 1b        	sta	$1b                     ; 0x1b <__rc11>
    4d3d: c8           	iny
    4d3e: b1 14        	lda	($14),y                 ; 0x14 <__rc4>
    4d40: e8           	inx
    4d41: 86 1f        	stx	$1f                     ; 0x1f <__rc15>
    4d43: 06 1a        	asl	$1a                     ; 0x1a <__rc10>
    4d45: 2a           	rol
    4d46: 06 1a        	asl	$1a                     ; 0x1a <__rc10>
    4d48: 2a           	rol
    4d49: 06 1a        	asl	$1a                     ; 0x1a <__rc10>
    4d4b: 2a           	rol
    4d4c: a8           	tay
    4d4d: b2 14        	lda	($14)                   ; 0x14 <__rc4>
    4d4f: a6 0f        	ldx	$f                      ; 0xf <__zp_data_size+0xc>
    4d51: 78           	sei
    4d52: 84 0f        	sty	$f                      ; 0xf <__zp_data_size+0xc>
    4d54: 85 1a        	sta	$1a                     ; 0x1a <__rc10>
    4d56: a5 1b        	lda	$1b                     ; 0x1b <__rc11>
    4d58: 09 e0        	ora	#$e0
    4d5a: 85 1b        	sta	$1b                     ; 0x1b <__rc11>
    4d5c: a5 1d        	lda	$1d                     ; 0x1d <__rc13>
    4d5e: 92 1a        	sta	($1a)                   ; 0x1a <__rc10>
    4d60: 86 0f        	stx	$f                      ; 0xf <__zp_data_size+0xc>
    4d62: 58           	cli
    4d63: b2 14        	lda	($14)                   ; 0x14 <__rc4>
    4d65: 85 1b        	sta	$1b                     ; 0x1b <__rc11>
    4d67: a4 1e        	ldy	$1e                     ; 0x1e <__rc14>
    4d69: b1 14        	lda	($14),y                 ; 0x14 <__rc4>
    4d6b: 85 22        	sta	$22                     ; 0x22 <__rc18>
    4d6d: 84 1a        	sty	$1a                     ; 0x1a <__rc10>
    4d6f: a4 1f        	ldy	$1f                     ; 0x1f <__rc15>
    4d71: b1 14        	lda	($14),y                 ; 0x14 <__rc4>
    4d73: aa           	tax
    4d74: 84 1e        	sty	$1e                     ; 0x1e <__rc14>
    4d76: a0 03        	ldy	#$3
    4d78: b1 14        	lda	($14),y                 ; 0x14 <__rc4>
    4d7a: e6 1b        	inc	$1b                     ; 0x1b <__rc11>
    4d7c: d0 08        	bne	$4d86 <setupMem4Track+0x59>
    4d7e: e6 22        	inc	$22                     ; 0x22 <__rc18>
    4d80: d0 04        	bne	$4d86 <setupMem4Track+0x59>
    4d82: e8           	inx
    4d83: d0 01        	bne	$4d86 <setupMem4Track+0x59>
    4d85: 1a           	inc
    4d86: 91 14        	sta	($14),y                 ; 0x14 <__rc4>
    4d88: 84 1d        	sty	$1d                     ; 0x1d <__rc13>
    4d8a: 8a           	txa
    4d8b: a4 1e        	ldy	$1e                     ; 0x1e <__rc14>
    4d8d: 91 14        	sta	($14),y                 ; 0x14 <__rc4>
    4d8f: a5 22        	lda	$22                     ; 0x22 <__rc18>
    4d91: 0a           	asl
    4d92: 86 1f        	stx	$1f                     ; 0x1f <__rc15>
    4d94: 26 1f        	rol	$1f                     ; 0x1f <__rc15>
    4d96: 0a           	asl
    4d97: 26 1f        	rol	$1f                     ; 0x1f <__rc15>
    4d99: 0a           	asl
    4d9a: 26 1f        	rol	$1f                     ; 0x1f <__rc15>
    4d9c: a5 1b        	lda	$1b                     ; 0x1b <__rc11>
    4d9e: 92 14        	sta	($14)                   ; 0x14 <__rc4>
    4da0: a4 1a        	ldy	$1a                     ; 0x1a <__rc10>
    4da2: a5 22        	lda	$22                     ; 0x22 <__rc18>
    4da4: 91 14        	sta	($14),y                 ; 0x14 <__rc4>
    4da6: 84 22        	sty	$22                     ; 0x22 <__rc18>
    4da8: a6 0f        	ldx	$f                      ; 0xf <__zp_data_size+0xc>
    4daa: 78           	sei
    4dab: a4 1f        	ldy	$1f                     ; 0x1f <__rc15>
    4dad: 84 0f        	sty	$f                      ; 0xf <__zp_data_size+0xc>
    4daf: a4 1b        	ldy	$1b                     ; 0x1b <__rc11>
    4db1: 84 1a        	sty	$1a                     ; 0x1a <__rc10>
    4db3: 09 e0        	ora	#$e0
    4db5: 85 1b        	sta	$1b                     ; 0x1b <__rc11>
    4db7: a5 1c        	lda	$1c                     ; 0x1c <__rc12>
    4db9: 92 1a        	sta	($1a)                   ; 0x1a <__rc10>
    4dbb: 86 0f        	stx	$f                      ; 0xf <__zp_data_size+0xc>
    4dbd: 58           	cli
    4dbe: b2 14        	lda	($14)                   ; 0x14 <__rc4>
    4dc0: 85 1b        	sta	$1b                     ; 0x1b <__rc11>
    4dc2: a4 22        	ldy	$22                     ; 0x22 <__rc18>
    4dc4: b1 14        	lda	($14),y                 ; 0x14 <__rc4>
    4dc6: 85 1f        	sta	$1f                     ; 0x1f <__rc15>
    4dc8: 84 1a        	sty	$1a                     ; 0x1a <__rc10>
    4dca: a4 1e        	ldy	$1e                     ; 0x1e <__rc14>
    4dcc: b1 14        	lda	($14),y                 ; 0x14 <__rc4>
    4dce: aa           	tax
    4dcf: a4 1d        	ldy	$1d                     ; 0x1d <__rc13>
    4dd1: b1 14        	lda	($14),y                 ; 0x14 <__rc4>
    4dd3: e6 1b        	inc	$1b                     ; 0x1b <__rc11>
    4dd5: d0 08        	bne	$4ddf <setupMem4Track+0xb2>
    4dd7: e6 1f        	inc	$1f                     ; 0x1f <__rc15>
    4dd9: d0 04        	bne	$4ddf <setupMem4Track+0xb2>
    4ddb: e8           	inx
    4ddc: d0 01        	bne	$4ddf <setupMem4Track+0xb2>
    4dde: 1a           	inc
    4ddf: 91 14        	sta	($14),y                 ; 0x14 <__rc4>
    4de1: 84 1c        	sty	$1c                     ; 0x1c <__rc12>
    4de3: 8a           	txa
    4de4: a4 1e        	ldy	$1e                     ; 0x1e <__rc14>
    4de6: 91 14        	sta	($14),y                 ; 0x14 <__rc4>
    4de8: 84 1d        	sty	$1d                     ; 0x1d <__rc13>
    4dea: a5 1f        	lda	$1f                     ; 0x1f <__rc15>
    4dec: 0a           	asl
    4ded: 86 1e        	stx	$1e                     ; 0x1e <__rc14>
    4def: 26 1e        	rol	$1e                     ; 0x1e <__rc14>
    4df1: 0a           	asl
    4df2: 26 1e        	rol	$1e                     ; 0x1e <__rc14>
    4df4: 0a           	asl
    4df5: 26 1e        	rol	$1e                     ; 0x1e <__rc14>
    4df7: a5 1b        	lda	$1b                     ; 0x1b <__rc11>
    4df9: 92 14        	sta	($14)                   ; 0x14 <__rc4>
    4dfb: a4 1a        	ldy	$1a                     ; 0x1a <__rc10>
    4dfd: a5 1f        	lda	$1f                     ; 0x1f <__rc15>
    4dff: 91 14        	sta	($14),y                 ; 0x14 <__rc4>
    4e01: 84 1f        	sty	$1f                     ; 0x1f <__rc15>
    4e03: a6 0f        	ldx	$f                      ; 0xf <__zp_data_size+0xc>
    4e05: 78           	sei
    4e06: a4 1e        	ldy	$1e                     ; 0x1e <__rc14>
    4e08: 84 0f        	sty	$f                      ; 0xf <__zp_data_size+0xc>
    4e0a: a4 1b        	ldy	$1b                     ; 0x1b <__rc11>
    4e0c: 84 1a        	sty	$1a                     ; 0x1a <__rc10>
    4e0e: 09 e0        	ora	#$e0
    4e10: 85 1b        	sta	$1b                     ; 0x1b <__rc11>
    4e12: a5 12        	lda	$12                     ; 0x12 <__rc2>
    4e14: 92 1a        	sta	($1a)                   ; 0x1a <__rc10>
    4e16: 86 0f        	stx	$f                      ; 0xf <__zp_data_size+0xc>
    4e18: 58           	cli
    4e19: b2 14        	lda	($14)                   ; 0x14 <__rc4>
    4e1b: 85 1e        	sta	$1e                     ; 0x1e <__rc14>
    4e1d: a4 1f        	ldy	$1f                     ; 0x1f <__rc15>
    4e1f: b1 14        	lda	($14),y                 ; 0x14 <__rc4>
    4e21: 85 22        	sta	$22                     ; 0x22 <__rc18>
    4e23: 84 1a        	sty	$1a                     ; 0x1a <__rc10>
    4e25: a4 1d        	ldy	$1d                     ; 0x1d <__rc13>
    4e27: b1 14        	lda	($14),y                 ; 0x14 <__rc4>
    4e29: 84 1b        	sty	$1b                     ; 0x1b <__rc11>
    4e2b: aa           	tax
    4e2c: a4 1c        	ldy	$1c                     ; 0x1c <__rc12>
    4e2e: b1 14        	lda	($14),y                 ; 0x14 <__rc4>
    4e30: e6 1e        	inc	$1e                     ; 0x1e <__rc14>
    4e32: d0 08        	bne	$4e3c <setupMem4Track+0x10f>
    4e34: e6 22        	inc	$22                     ; 0x22 <__rc18>
    4e36: d0 04        	bne	$4e3c <setupMem4Track+0x10f>
    4e38: e8           	inx
    4e39: d0 01        	bne	$4e3c <setupMem4Track+0x10f>
    4e3b: 1a           	inc
    4e3c: 91 14        	sta	($14),y                 ; 0x14 <__rc4>
    4e3e: 84 12        	sty	$12                     ; 0x12 <__rc2>
    4e40: a4 1b        	ldy	$1b                     ; 0x1b <__rc11>
    4e42: 8a           	txa
    4e43: 91 14        	sta	($14),y                 ; 0x14 <__rc4>
    4e45: a5 22        	lda	$22                     ; 0x22 <__rc18>
    4e47: 0a           	asl
    4e48: 86 1c        	stx	$1c                     ; 0x1c <__rc12>
    4e4a: 26 1c        	rol	$1c                     ; 0x1c <__rc12>
    4e4c: 0a           	asl
    4e4d: 26 1c        	rol	$1c                     ; 0x1c <__rc12>
    4e4f: 0a           	asl
    4e50: 26 1c        	rol	$1c                     ; 0x1c <__rc12>
    4e52: a6 1c        	ldx	$1c                     ; 0x1c <__rc12>
    4e54: a5 1e        	lda	$1e                     ; 0x1e <__rc14>
    4e56: 92 14        	sta	($14)                   ; 0x14 <__rc4>
    4e58: a4 1a        	ldy	$1a                     ; 0x1a <__rc10>
    4e5a: 84 1f        	sty	$1f                     ; 0x1f <__rc15>
    4e5c: a5 22        	lda	$22                     ; 0x22 <__rc18>
    4e5e: a4 1a        	ldy	$1a                     ; 0x1a <__rc10>
    4e60: 91 14        	sta	($14),y                 ; 0x14 <__rc4>
    4e62: a4 0f        	ldy	$f                      ; 0xf <__zp_data_size+0xc>
    4e64: 78           	sei
    4e65: 86 0f        	stx	$f                      ; 0xf <__zp_data_size+0xc>
    4e67: a6 1e        	ldx	$1e                     ; 0x1e <__rc14>
    4e69: 86 1c        	stx	$1c                     ; 0x1c <__rc12>
    4e6b: 09 e0        	ora	#$e0
    4e6d: 85 1d        	sta	$1d                     ; 0x1d <__rc13>
    4e6f: a5 13        	lda	$13                     ; 0x13 <__rc3>
    4e71: 85 1a        	sta	$1a                     ; 0x1a <__rc10>
    4e73: 92 1c        	sta	($1c)                   ; 0x1c <__rc12>
    4e75: 84 0f        	sty	$f                      ; 0xf <__zp_data_size+0xc>
    4e77: 58           	cli
    4e78: b2 14        	lda	($14)                   ; 0x14 <__rc4>
    4e7a: 85 1e        	sta	$1e                     ; 0x1e <__rc14>
    4e7c: a4 1f        	ldy	$1f                     ; 0x1f <__rc15>
    4e7e: b1 14        	lda	($14),y                 ; 0x14 <__rc4>
    4e80: 85 13        	sta	$13                     ; 0x13 <__rc3>
    4e82: 84 1d        	sty	$1d                     ; 0x1d <__rc13>
    4e84: a4 1b        	ldy	$1b                     ; 0x1b <__rc11>
    4e86: b1 14        	lda	($14),y                 ; 0x14 <__rc4>
    4e88: 85 1c        	sta	$1c                     ; 0x1c <__rc12>
    4e8a: a4 12        	ldy	$12                     ; 0x12 <__rc2>
    4e8c: b1 14        	lda	($14),y                 ; 0x14 <__rc4>
    4e8e: aa           	tax
    4e8f: a5 1e        	lda	$1e                     ; 0x1e <__rc14>
    4e91: 1a           	inc
    4e92: d0 09        	bne	$4e9d <setupMem4Track+0x170>
    4e94: e6 13        	inc	$13                     ; 0x13 <__rc3>
    4e96: d0 05        	bne	$4e9d <setupMem4Track+0x170>
    4e98: e6 1c        	inc	$1c                     ; 0x1c <__rc12>
    4e9a: d0 01        	bne	$4e9d <setupMem4Track+0x170>
    4e9c: e8           	inx
    4e9d: 92 14        	sta	($14)                   ; 0x14 <__rc4>
    4e9f: a5 13        	lda	$13                     ; 0x13 <__rc3>
    4ea1: a4 1d        	ldy	$1d                     ; 0x1d <__rc13>
    4ea3: 91 14        	sta	($14),y                 ; 0x14 <__rc4>
    4ea5: a4 1b        	ldy	$1b                     ; 0x1b <__rc11>
    4ea7: a5 1c        	lda	$1c                     ; 0x1c <__rc12>
    4ea9: 91 14        	sta	($14),y                 ; 0x14 <__rc4>
    4eab: a4 12        	ldy	$12                     ; 0x12 <__rc2>
    4ead: 8a           	txa
    4eae: 91 14        	sta	($14),y                 ; 0x14 <__rc4>
    4eb0: a0 00        	ldy	#$0
    4eb2: 80 49        	bra	$4efd <setupMem4Track+0x1d0>
    4eb4: e6 1f        	inc	$1f                     ; 0x1f <__rc15>
    4eb6: 92 14        	sta	($14)                   ; 0x14 <__rc4>
    4eb8: a4 12        	ldy	$12                     ; 0x12 <__rc2>
    4eba: a5 22        	lda	$22                     ; 0x22 <__rc18>
    4ebc: 91 14        	sta	($14),y                 ; 0x14 <__rc4>
    4ebe: a4 1d        	ldy	$1d                     ; 0x1d <__rc13>
    4ec0: a5 23        	lda	$23                     ; 0x23 <__rc19>
    4ec2: 91 14        	sta	($14),y                 ; 0x14 <__rc4>
    4ec4: a4 1e        	ldy	$1e                     ; 0x1e <__rc14>
    4ec6: a5 1f        	lda	$1f                     ; 0x1f <__rc15>
    4ec8: 91 14        	sta	($14),y                 ; 0x14 <__rc4>
    4eca: a4 1c        	ldy	$1c                     ; 0x1c <__rc12>
    4ecc: b1 16        	lda	($16),y                 ; 0x16 <__rc6>
    4ece: 85 1c        	sta	$1c                     ; 0x1c <__rc12>
    4ed0: a5 1b        	lda	$1b                     ; 0x1b <__rc11>
    4ed2: 85 12        	sta	$12                     ; 0x12 <__rc2>
    4ed4: 06 12        	asl	$12                     ; 0x12 <__rc2>
    4ed6: 8a           	txa
    4ed7: 2a           	rol
    4ed8: 06 12        	asl	$12                     ; 0x12 <__rc2>
    4eda: 2a           	rol
    4edb: 06 12        	asl	$12                     ; 0x12 <__rc2>
    4edd: 2a           	rol
    4ede: a6 0f        	ldx	$f                      ; 0xf <__zp_data_size+0xc>
    4ee0: 78           	sei
    4ee1: 85 0f        	sta	$f                      ; 0xf <__zp_data_size+0xc>
    4ee3: a5 13        	lda	$13                     ; 0x13 <__rc3>
    4ee5: 85 12        	sta	$12                     ; 0x12 <__rc2>
    4ee7: a5 1b        	lda	$1b                     ; 0x1b <__rc11>
    4ee9: 09 e0        	ora	#$e0
    4eeb: 85 13        	sta	$13                     ; 0x13 <__rc3>
    4eed: a5 1c        	lda	$1c                     ; 0x1c <__rc12>
    4eef: 92 12        	sta	($12)                   ; 0x12 <__rc2>
    4ef1: 86 0f        	stx	$f                      ; 0xf <__zp_data_size+0xc>
    4ef3: 58           	cli
    4ef4: c8           	iny
    4ef5: 84 12        	sty	$12                     ; 0x12 <__rc2>
    4ef7: a6 1a        	ldx	$1a                     ; 0x1a <__rc10>
    4ef9: e4 12        	cpx	$12                     ; 0x12 <__rc2>
    4efb: f0 3d        	beq	$4f3a <setupMem4Track+0x20d>
    4efd: b2 14        	lda	($14)                   ; 0x14 <__rc4>
    4eff: 85 13        	sta	$13                     ; 0x13 <__rc3>
    4f01: a2 01        	ldx	#$1
    4f03: 86 12        	stx	$12                     ; 0x12 <__rc2>
    4f05: 84 1c        	sty	$1c                     ; 0x1c <__rc12>
    4f07: a4 12        	ldy	$12                     ; 0x12 <__rc2>
    4f09: b1 14        	lda	($14),y                 ; 0x14 <__rc4>
    4f0b: 85 1b        	sta	$1b                     ; 0x1b <__rc11>
    4f0d: a0 02        	ldy	#$2
    4f0f: b1 14        	lda	($14),y                 ; 0x14 <__rc4>
    4f11: aa           	tax
    4f12: 84 1d        	sty	$1d                     ; 0x1d <__rc13>
    4f14: c8           	iny
    4f15: b1 14        	lda	($14),y                 ; 0x14 <__rc4>
    4f17: 85 1f        	sta	$1f                     ; 0x1f <__rc15>
    4f19: 84 1e        	sty	$1e                     ; 0x1e <__rc14>
    4f1b: a5 13        	lda	$13                     ; 0x13 <__rc3>
    4f1d: a4 1b        	ldy	$1b                     ; 0x1b <__rc11>
    4f1f: 84 22        	sty	$22                     ; 0x22 <__rc18>
    4f21: 86 23        	stx	$23                     ; 0x23 <__rc19>
    4f23: 1a           	inc
    4f24: f0 03        	beq	$4f29 <setupMem4Track+0x1fc>
    4f26: 4c b6 4e     	jmp	$4eb6 <setupMem4Track+0x189>
    4f29: e6 22        	inc	$22                     ; 0x22 <__rc18>
    4f2b: f0 03        	beq	$4f30 <setupMem4Track+0x203>
    4f2d: 4c b6 4e     	jmp	$4eb6 <setupMem4Track+0x189>
    4f30: e6 23        	inc	$23                     ; 0x23 <__rc19>
    4f32: d0 03        	bne	$4f37 <setupMem4Track+0x20a>
    4f34: 4c b4 4e     	jmp	$4eb4 <setupMem4Track+0x187>
    4f37: 4c b6 4e     	jmp	$4eb6 <setupMem4Track+0x189>
    4f3a: a0 00        	ldy	#$0
    4f3c: 80 49        	bra	$4f87 <setupMem4Track+0x25a>
    4f3e: e6 1e        	inc	$1e                     ; 0x1e <__rc14>
    4f40: 92 14        	sta	($14)                   ; 0x14 <__rc4>
    4f42: a4 12        	ldy	$12                     ; 0x12 <__rc2>
    4f44: a5 1f        	lda	$1f                     ; 0x1f <__rc15>
    4f46: 91 14        	sta	($14),y                 ; 0x14 <__rc4>
    4f48: a4 1b        	ldy	$1b                     ; 0x1b <__rc11>
    4f4a: a5 1d        	lda	$1d                     ; 0x1d <__rc13>
    4f4c: 91 14        	sta	($14),y                 ; 0x14 <__rc4>
    4f4e: a4 1c        	ldy	$1c                     ; 0x1c <__rc12>
    4f50: a5 1e        	lda	$1e                     ; 0x1e <__rc14>
    4f52: 91 14        	sta	($14),y                 ; 0x14 <__rc4>
    4f54: a4 17        	ldy	$17                     ; 0x17 <__rc7>
    4f56: b1 18        	lda	($18),y                 ; 0x18 <__rc8>
    4f58: 85 17        	sta	$17                     ; 0x17 <__rc7>
    4f5a: a5 16        	lda	$16                     ; 0x16 <__rc6>
    4f5c: 85 12        	sta	$12                     ; 0x12 <__rc2>
    4f5e: 06 12        	asl	$12                     ; 0x12 <__rc2>
    4f60: 8a           	txa
    4f61: 2a           	rol
    4f62: 06 12        	asl	$12                     ; 0x12 <__rc2>
    4f64: 2a           	rol
    4f65: 06 12        	asl	$12                     ; 0x12 <__rc2>
    4f67: 2a           	rol
    4f68: a6 0f        	ldx	$f                      ; 0xf <__zp_data_size+0xc>
    4f6a: 78           	sei
    4f6b: 85 0f        	sta	$f                      ; 0xf <__zp_data_size+0xc>
    4f6d: a5 13        	lda	$13                     ; 0x13 <__rc3>
    4f6f: 85 12        	sta	$12                     ; 0x12 <__rc2>
    4f71: a5 16        	lda	$16                     ; 0x16 <__rc6>
    4f73: 09 e0        	ora	#$e0
    4f75: 85 13        	sta	$13                     ; 0x13 <__rc3>
    4f77: a5 17        	lda	$17                     ; 0x17 <__rc7>
    4f79: 92 12        	sta	($12)                   ; 0x12 <__rc2>
    4f7b: 86 0f        	stx	$f                      ; 0xf <__zp_data_size+0xc>
    4f7d: 58           	cli
    4f7e: c8           	iny
    4f7f: 84 12        	sty	$12                     ; 0x12 <__rc2>
    4f81: a6 1a        	ldx	$1a                     ; 0x1a <__rc10>
    4f83: e4 12        	cpx	$12                     ; 0x12 <__rc2>
    4f85: f0 3d        	beq	$4fc4 <setupMem4Track+0x297>
    4f87: b2 14        	lda	($14)                   ; 0x14 <__rc4>
    4f89: 85 13        	sta	$13                     ; 0x13 <__rc3>
    4f8b: a2 01        	ldx	#$1
    4f8d: 86 12        	stx	$12                     ; 0x12 <__rc2>
    4f8f: 84 17        	sty	$17                     ; 0x17 <__rc7>
    4f91: a4 12        	ldy	$12                     ; 0x12 <__rc2>
    4f93: b1 14        	lda	($14),y                 ; 0x14 <__rc4>
    4f95: 85 16        	sta	$16                     ; 0x16 <__rc6>
    4f97: a0 02        	ldy	#$2
    4f99: b1 14        	lda	($14),y                 ; 0x14 <__rc4>
    4f9b: aa           	tax
    4f9c: 84 1b        	sty	$1b                     ; 0x1b <__rc11>
    4f9e: c8           	iny
    4f9f: b1 14        	lda	($14),y                 ; 0x14 <__rc4>
    4fa1: 85 1e        	sta	$1e                     ; 0x1e <__rc14>
    4fa3: 84 1c        	sty	$1c                     ; 0x1c <__rc12>
    4fa5: 86 1d        	stx	$1d                     ; 0x1d <__rc13>
    4fa7: a5 13        	lda	$13                     ; 0x13 <__rc3>
    4fa9: a4 16        	ldy	$16                     ; 0x16 <__rc6>
    4fab: 84 1f        	sty	$1f                     ; 0x1f <__rc15>
    4fad: 1a           	inc
    4fae: f0 03        	beq	$4fb3 <setupMem4Track+0x286>
    4fb0: 4c 40 4f     	jmp	$4f40 <setupMem4Track+0x213>
    4fb3: e6 1f        	inc	$1f                     ; 0x1f <__rc15>
    4fb5: f0 03        	beq	$4fba <setupMem4Track+0x28d>
    4fb7: 4c 40 4f     	jmp	$4f40 <setupMem4Track+0x213>
    4fba: e6 1d        	inc	$1d                     ; 0x1d <__rc13>
    4fbc: d0 03        	bne	$4fc1 <setupMem4Track+0x294>
    4fbe: 4c 3e 4f     	jmp	$4f3e <setupMem4Track+0x211>
    4fc1: 4c 40 4f     	jmp	$4f40 <setupMem4Track+0x213>
    4fc4: 60           	rts

00004fc5 <refreshInstrumentText>:
    4fc5: 18           	clc
    4fc6: a5 10        	lda	$10                     ; 0x10 <__rc0>
    4fc8: 69 fc        	adc	#$fc
    4fca: 85 10        	sta	$10                     ; 0x10 <__rc0>
    4fcc: a5 11        	lda	$11                     ; 0x11 <__rc1>
    4fce: 69 ff        	adc	#$ff
    4fd0: 85 11        	sta	$11                     ; 0x11 <__rc1>
    4fd2: a6 12        	ldx	$12                     ; 0x12 <__rc2>
    4fd4: 86 93        	stx	$93                     ; 0x93 <__zp_bss_size+0x3e>
    4fd6: a6 13        	ldx	$13                     ; 0x13 <__rc3>
    4fd8: 86 94        	stx	$94                     ; 0x94 <__zp_bss_size+0x3f>
    4fda: a2 05        	ldx	#$5
    4fdc: 86 33        	stx	$33                     ; 0x33 <_col>
    4fde: 8e 14 d0     	stx	$d014                   ; 0xd014 <end_block9+0x3776>
    4fe1: 9c 15 d0     	stz	$d015                   ; 0xd015 <end_block9+0x3777>
    4fe4: a2 1e        	ldx	#$1e
    4fe6: 86 34        	stx	$34                     ; 0x34 <_row>
    4fe8: 8e 16 d0     	stx	$d016                   ; 0xd016 <end_block9+0x3778>
    4feb: 9c 17 d0     	stz	$d017                   ; 0xd017 <end_block9+0x3779>
    4fee: a2 23        	ldx	#$23
    4ff0: 86 91        	stx	$91                     ; 0x91 <__zp_bss_size+0x3c>
    4ff2: a2 86        	ldx	#$86
    4ff4: 86 92        	stx	$92                     ; 0x92 <__zp_bss_size+0x3d>
    4ff6: a2 23        	ldx	#$23
    4ff8: 86 12        	stx	$12                     ; 0x12 <__rc2>
    4ffa: a2 86        	ldx	#$86
    4ffc: 86 13        	stx	$13                     ; 0x13 <__rc3>
    4ffe: 20 90 33     	jsr	$3390 <textPrint>
    5001: a2 05        	ldx	#$5
    5003: 86 33        	stx	$33                     ; 0x33 <_col>
    5005: 8e 14 d0     	stx	$d014                   ; 0xd014 <end_block9+0x3776>
    5008: 9c 15 d0     	stz	$d015                   ; 0xd015 <end_block9+0x3777>
    500b: a2 1f        	ldx	#$1f
    500d: 86 34        	stx	$34                     ; 0x34 <_row>
    500f: 8e 16 d0     	stx	$d016                   ; 0xd016 <end_block9+0x3778>
    5012: 9c 17 d0     	stz	$d017                   ; 0xd017 <end_block9+0x3779>
    5015: a2 23        	ldx	#$23
    5017: 86 12        	stx	$12                     ; 0x12 <__rc2>
    5019: a2 86        	ldx	#$86
    501b: 86 13        	stx	$13                     ; 0x13 <__rc3>
    501d: 20 90 33     	jsr	$3390 <textPrint>
    5020: a2 05        	ldx	#$5
    5022: 86 33        	stx	$33                     ; 0x33 <_col>
    5024: 8e 14 d0     	stx	$d014                   ; 0xd014 <end_block9+0x3776>
    5027: 9c 15 d0     	stz	$d015                   ; 0xd015 <end_block9+0x3777>
    502a: a2 1e        	ldx	#$1e
    502c: 86 34        	stx	$34                     ; 0x34 <_row>
    502e: 8e 16 d0     	stx	$d016                   ; 0xd016 <end_block9+0x3778>
    5031: 9c 17 d0     	stz	$d017                   ; 0xd017 <end_block9+0x3779>
    5034: a0 03        	ldy	#$3
    5036: b1 93        	lda	($93),y                 ; 0x93 <__zp_bss_size+0x3e>
    5038: a2 90        	ldx	#$90
    503a: 86 91        	stx	$91                     ; 0x91 <__zp_bss_size+0x3c>
    503c: a8           	tay
    503d: f0 02        	beq	$5041 <refreshInstrumentText+0x7c>
    503f: a2 40        	ldx	#$40
    5041: 86 30        	stx	$30                     ; 0x30 <_ccolor>
    5043: b2 93        	lda	($93)                   ; 0x93 <__zp_bss_size+0x3e>
    5045: 85 12        	sta	$12                     ; 0x12 <__rc2>
    5047: a0 01        	ldy	#$1
    5049: b1 93        	lda	($93),y                 ; 0x93 <__zp_bss_size+0x3e>
    504b: 85 13        	sta	$13                     ; 0x13 <__rc3>
    504d: b2 12        	lda	($12)                   ; 0x12 <__rc2>
    504f: aa           	tax
    5050: 0a           	asl
    5051: 85 12        	sta	$12                     ; 0x12 <__rc2>
    5053: a9 00        	lda	#$0
    5055: 2a           	rol
    5056: 85 13        	sta	$13                     ; 0x13 <__rc3>
    5058: a9 3c        	lda	#$3c
    505a: 18           	clc
    505b: 65 12        	adc	$12                     ; 0x12 <__rc2>
    505d: 85 12        	sta	$12                     ; 0x12 <__rc2>
    505f: a9 97        	lda	#$97
    5061: 65 13        	adc	$13                     ; 0x13 <__rc3>
    5063: 85 13        	sta	$13                     ; 0x13 <__rc3>
    5065: b2 12        	lda	($12)                   ; 0x12 <__rc2>
    5067: 85 14        	sta	$14                     ; 0x14 <__rc4>
    5069: b1 12        	lda	($12),y                 ; 0x12 <__rc2>
    506b: 85 15        	sta	$15                     ; 0x15 <__rc5>
    506d: 8a           	txa
    506e: 92 10        	sta	($10)                   ; 0x10 <__rc0>
    5070: a9 00        	lda	#$0
    5072: 91 10        	sta	($10),y                 ; 0x10 <__rc0>
    5074: 84 16        	sty	$16                     ; 0x16 <__rc6>
    5076: 18           	clc
    5077: a5 10        	lda	$10                     ; 0x10 <__rc0>
    5079: 69 02        	adc	#$2
    507b: 85 12        	sta	$12                     ; 0x12 <__rc2>
    507d: a5 11        	lda	$11                     ; 0x11 <__rc1>
    507f: 69 00        	adc	#$0
    5081: 85 13        	sta	$13                     ; 0x13 <__rc3>
    5083: c8           	iny
    5084: a5 14        	lda	$14                     ; 0x14 <__rc4>
    5086: 91 10        	sta	($10),y                 ; 0x10 <__rc0>
    5088: a5 15        	lda	$15                     ; 0x15 <__rc5>
    508a: a4 16        	ldy	$16                     ; 0x16 <__rc6>
    508c: 91 12        	sta	($12),y                 ; 0x12 <__rc2>
    508e: a2 84        	ldx	#$84
    5090: 86 12        	stx	$12                     ; 0x12 <__rc2>
    5092: a2 87        	ldx	#$87
    5094: 86 13        	stx	$13                     ; 0x13 <__rc3>
    5096: 20 c3 5f     	jsr	$5fc3 <printf>
    5099: a2 05        	ldx	#$5
    509b: 86 33        	stx	$33                     ; 0x33 <_col>
    509d: 8e 14 d0     	stx	$d014                   ; 0xd014 <end_block9+0x3776>
    50a0: 9c 15 d0     	stz	$d015                   ; 0xd015 <end_block9+0x3777>
    50a3: a2 1f        	ldx	#$1f
    50a5: 86 34        	stx	$34                     ; 0x34 <_row>
    50a7: 8e 16 d0     	stx	$d016                   ; 0xd016 <end_block9+0x3778>
    50aa: 9c 17 d0     	stz	$d017                   ; 0xd017 <end_block9+0x3779>
    50ad: a0 03        	ldy	#$3
    50af: b1 93        	lda	($93),y                 ; 0x93 <__zp_bss_size+0x3e>
    50b1: a6 91        	ldx	$91                     ; 0x91 <__zp_bss_size+0x3c>
    50b3: c9 01        	cmp	#$1
    50b5: f0 02        	beq	$50b9 <refreshInstrumentText+0xf4>
    50b7: a2 40        	ldx	#$40
    50b9: 86 30        	stx	$30                     ; 0x30 <_ccolor>
    50bb: b2 93        	lda	($93)                   ; 0x93 <__zp_bss_size+0x3e>
    50bd: 85 12        	sta	$12                     ; 0x12 <__rc2>
    50bf: a0 01        	ldy	#$1
    50c1: b1 93        	lda	($93),y                 ; 0x93 <__zp_bss_size+0x3e>
    50c3: 85 13        	sta	$13                     ; 0x13 <__rc3>
    50c5: b1 12        	lda	($12),y                 ; 0x12 <__rc2>
    50c7: aa           	tax
    50c8: 0a           	asl
    50c9: 85 12        	sta	$12                     ; 0x12 <__rc2>
    50cb: a9 00        	lda	#$0
    50cd: 2a           	rol
    50ce: 85 13        	sta	$13                     ; 0x13 <__rc3>
    50d0: a9 3c        	lda	#$3c
    50d2: 18           	clc
    50d3: 5a           	phy
    50d4: a0 01        	ldy	#$1
    50d6: b0 02        	bcs	$50da <refreshInstrumentText+0x115>
    50d8: a0 00        	ldy	#$0
    50da: 84 15        	sty	$15                     ; 0x15 <__rc5>
    50dc: 7a           	ply
    50dd: 65 12        	adc	$12                     ; 0x12 <__rc2>
    50df: 85 12        	sta	$12                     ; 0x12 <__rc2>
    50e1: a9 97        	lda	#$97
    50e3: 65 13        	adc	$13                     ; 0x13 <__rc3>
    50e5: 85 13        	sta	$13                     ; 0x13 <__rc3>
    50e7: b2 12        	lda	($12)                   ; 0x12 <__rc2>
    50e9: 85 16        	sta	$16                     ; 0x16 <__rc6>
    50eb: b1 12        	lda	($12),y                 ; 0x12 <__rc2>
    50ed: 85 14        	sta	$14                     ; 0x14 <__rc4>
    50ef: 84 12        	sty	$12                     ; 0x12 <__rc2>
    50f1: a5 10        	lda	$10                     ; 0x10 <__rc0>
    50f3: a4 11        	ldy	$11                     ; 0x11 <__rc1>
    50f5: 48           	pha
    50f6: a5 15        	lda	$15                     ; 0x15 <__rc5>
    50f8: c9 01        	cmp	#$1
    50fa: 68           	pla
    50fb: 69 02        	adc	#$2
    50fd: 85 13        	sta	$13                     ; 0x13 <__rc3>
    50ff: 98           	tya
    5100: 69 00        	adc	#$0
    5102: 85 15        	sta	$15                     ; 0x15 <__rc5>
    5104: a0 02        	ldy	#$2
    5106: a5 16        	lda	$16                     ; 0x16 <__rc6>
    5108: 91 10        	sta	($10),y                 ; 0x10 <__rc0>
    510a: 8a           	txa
    510b: 92 10        	sta	($10)                   ; 0x10 <__rc0>
    510d: a9 00        	lda	#$0
    510f: a4 12        	ldy	$12                     ; 0x12 <__rc2>
    5111: 91 10        	sta	($10),y                 ; 0x10 <__rc0>
    5113: a6 13        	ldx	$13                     ; 0x13 <__rc3>
    5115: 86 12        	stx	$12                     ; 0x12 <__rc2>
    5117: a6 15        	ldx	$15                     ; 0x15 <__rc5>
    5119: 86 13        	stx	$13                     ; 0x13 <__rc3>
    511b: a5 14        	lda	$14                     ; 0x14 <__rc4>
    511d: 91 12        	sta	($12),y                 ; 0x12 <__rc2>
    511f: a2 84        	ldx	#$84
    5121: 86 12        	stx	$12                     ; 0x12 <__rc2>
    5123: a2 87        	ldx	#$87
    5125: 86 13        	stx	$13                     ; 0x13 <__rc3>
    5127: 20 c3 5f     	jsr	$5fc3 <printf>
    512a: a2 05        	ldx	#$5
    512c: 86 33        	stx	$33                     ; 0x33 <_col>
    512e: 8e 14 d0     	stx	$d014                   ; 0xd014 <end_block9+0x3776>
    5131: 9c 15 d0     	stz	$d015                   ; 0xd015 <end_block9+0x3777>
    5134: a2 20        	ldx	#$20
    5136: 86 34        	stx	$34                     ; 0x34 <_row>
    5138: 8e 16 d0     	stx	$d016                   ; 0xd016 <end_block9+0x3778>
    513b: 9c 17 d0     	stz	$d017                   ; 0xd017 <end_block9+0x3779>
    513e: a0 03        	ldy	#$3
    5140: b1 93        	lda	($93),y                 ; 0x93 <__zp_bss_size+0x3e>
    5142: a2 90        	ldx	#$90
    5144: c9 09        	cmp	#$9
    5146: f0 02        	beq	$514a <refreshInstrumentText+0x185>
    5148: a2 40        	ldx	#$40
    514a: 86 30        	stx	$30                     ; 0x30 <_ccolor>
    514c: a2 52        	ldx	#$52
    514e: 86 12        	stx	$12                     ; 0x12 <__rc2>
    5150: a2 8e        	ldx	#$8e
    5152: 86 13        	stx	$13                     ; 0x13 <__rc3>
    5154: 20 90 33     	jsr	$3390 <textPrint>
    5157: a0 07        	ldy	#$7
    5159: b1 93        	lda	($93),y                 ; 0x93 <__zp_bss_size+0x3e>
    515b: d0 03        	bne	$5160 <refreshInstrumentText+0x19b>
    515d: 4c ce 51     	jmp	$51ce <refreshInstrumentText+0x209>
    5160: a2 05        	ldx	#$5
    5162: 86 33        	stx	$33                     ; 0x33 <_col>
    5164: 8e 14 d0     	stx	$d014                   ; 0xd014 <end_block9+0x3776>
    5167: 9c 15 d0     	stz	$d015                   ; 0xd015 <end_block9+0x3777>
    516a: a2 1f        	ldx	#$1f
    516c: 86 34        	stx	$34                     ; 0x34 <_row>
    516e: 8e 16 d0     	stx	$d016                   ; 0xd016 <end_block9+0x3778>
    5171: 9c 17 d0     	stz	$d017                   ; 0xd017 <end_block9+0x3779>
    5174: a2 90        	ldx	#$90
    5176: 86 30        	stx	$30                     ; 0x30 <_ccolor>
    5178: b2 93        	lda	($93)                   ; 0x93 <__zp_bss_size+0x3e>
    517a: 85 12        	sta	$12                     ; 0x12 <__rc2>
    517c: a0 01        	ldy	#$1
    517e: b1 93        	lda	($93),y                 ; 0x93 <__zp_bss_size+0x3e>
    5180: 85 13        	sta	$13                     ; 0x13 <__rc3>
    5182: b1 12        	lda	($12),y                 ; 0x12 <__rc2>
    5184: aa           	tax
    5185: 0a           	asl
    5186: 85 12        	sta	$12                     ; 0x12 <__rc2>
    5188: a9 00        	lda	#$0
    518a: 2a           	rol
    518b: 85 13        	sta	$13                     ; 0x13 <__rc3>
    518d: a9 3c        	lda	#$3c
    518f: 18           	clc
    5190: 65 12        	adc	$12                     ; 0x12 <__rc2>
    5192: 85 12        	sta	$12                     ; 0x12 <__rc2>
    5194: a9 97        	lda	#$97
    5196: 65 13        	adc	$13                     ; 0x13 <__rc3>
    5198: 85 13        	sta	$13                     ; 0x13 <__rc3>
    519a: b2 12        	lda	($12)                   ; 0x12 <__rc2>
    519c: 85 16        	sta	$16                     ; 0x16 <__rc6>
    519e: b1 12        	lda	($12),y                 ; 0x12 <__rc2>
    51a0: 84 15        	sty	$15                     ; 0x15 <__rc5>
    51a2: 85 14        	sta	$14                     ; 0x14 <__rc4>
    51a4: a5 10        	lda	$10                     ; 0x10 <__rc0>
    51a6: 18           	clc
    51a7: 69 02        	adc	#$2
    51a9: 85 12        	sta	$12                     ; 0x12 <__rc2>
    51ab: a5 11        	lda	$11                     ; 0x11 <__rc1>
    51ad: 69 00        	adc	#$0
    51af: 85 13        	sta	$13                     ; 0x13 <__rc3>
    51b1: c8           	iny
    51b2: a5 16        	lda	$16                     ; 0x16 <__rc6>
    51b4: 91 10        	sta	($10),y                 ; 0x10 <__rc0>
    51b6: 8a           	txa
    51b7: 92 10        	sta	($10)                   ; 0x10 <__rc0>
    51b9: a9 00        	lda	#$0
    51bb: a4 15        	ldy	$15                     ; 0x15 <__rc5>
    51bd: 91 10        	sta	($10),y                 ; 0x10 <__rc0>
    51bf: a5 14        	lda	$14                     ; 0x14 <__rc4>
    51c1: 91 12        	sta	($12),y                 ; 0x12 <__rc2>
    51c3: a2 84        	ldx	#$84
    51c5: 86 12        	stx	$12                     ; 0x12 <__rc2>
    51c7: a2 87        	ldx	#$87
    51c9: 86 13        	stx	$13                     ; 0x13 <__rc3>
    51cb: 20 c3 5f     	jsr	$5fc3 <printf>
    51ce: a2 90        	ldx	#$90
    51d0: 86 30        	stx	$30                     ; 0x30 <_ccolor>
    51d2: a0 03        	ldy	#$3
    51d4: b1 93        	lda	($93),y                 ; 0x93 <__zp_bss_size+0x3e>
    51d6: c9 09        	cmp	#$9
    51d8: d0 03        	bne	$51dd <refreshInstrumentText+0x218>
    51da: 4c 8c 52     	jmp	$528c <refreshInstrumentText+0x2c7>
    51dd: c9 01        	cmp	#$1
    51df: f0 49        	beq	$522a <refreshInstrumentText+0x265>
    51e1: aa           	tax
    51e2: f0 03        	beq	$51e7 <refreshInstrumentText+0x222>
    51e4: 4c ef 52     	jmp	$52ef <refreshInstrumentText+0x32a>
    51e7: 64 33        	stz	$33                     ; 0x33 <_col>
    51e9: 9c 14 d0     	stz	$d014                   ; 0xd014 <end_block9+0x3776>
    51ec: 9c 15 d0     	stz	$d015                   ; 0xd015 <end_block9+0x3777>
    51ef: a2 1e        	ldx	#$1e
    51f1: 86 34        	stx	$34                     ; 0x34 <_row>
    51f3: 8e 16 d0     	stx	$d016                   ; 0xd016 <end_block9+0x3778>
    51f6: 9c 17 d0     	stz	$d017                   ; 0xd017 <end_block9+0x3779>
    51f9: a2 fa        	ldx	#$fa
    51fb: 86 35        	stx	$35                     ; 0x35 <__putchar.s>
    51fd: a2 35        	ldx	#$35
    51ff: 86 12        	stx	$12                     ; 0x12 <__rc2>
    5201: a2 00        	ldx	#$0
    5203: 86 13        	stx	$13                     ; 0x13 <__rc3>
    5205: 20 90 33     	jsr	$3390 <textPrint>
    5208: 64 33        	stz	$33                     ; 0x33 <_col>
    520a: 9c 14 d0     	stz	$d014                   ; 0xd014 <end_block9+0x3776>
    520d: 9c 15 d0     	stz	$d015                   ; 0xd015 <end_block9+0x3777>
    5210: a2 1f        	ldx	#$1f
    5212: 86 34        	stx	$34                     ; 0x34 <_row>
    5214: 8e 16 d0     	stx	$d016                   ; 0xd016 <end_block9+0x3778>
    5217: 9c 17 d0     	stz	$d017                   ; 0xd017 <end_block9+0x3779>
    521a: a2 ad        	ldx	#$ad
    521c: 86 91        	stx	$91                     ; 0x91 <__zp_bss_size+0x3c>
    521e: a2 86        	ldx	#$86
    5220: 86 92        	stx	$92                     ; 0x92 <__zp_bss_size+0x3d>
    5222: a2 ad        	ldx	#$ad
    5224: 86 12        	stx	$12                     ; 0x12 <__rc2>
    5226: a2 86        	ldx	#$86
    5228: 80 41        	bra	$526b <refreshInstrumentText+0x2a6>
    522a: 64 33        	stz	$33                     ; 0x33 <_col>
    522c: 9c 14 d0     	stz	$d014                   ; 0xd014 <end_block9+0x3776>
    522f: 9c 15 d0     	stz	$d015                   ; 0xd015 <end_block9+0x3777>
    5232: a2 1e        	ldx	#$1e
    5234: 86 34        	stx	$34                     ; 0x34 <_row>
    5236: 8e 16 d0     	stx	$d016                   ; 0xd016 <end_block9+0x3778>
    5239: 9c 17 d0     	stz	$d017                   ; 0xd017 <end_block9+0x3779>
    523c: a2 ad        	ldx	#$ad
    523e: 86 91        	stx	$91                     ; 0x91 <__zp_bss_size+0x3c>
    5240: a2 86        	ldx	#$86
    5242: 86 92        	stx	$92                     ; 0x92 <__zp_bss_size+0x3d>
    5244: a2 ad        	ldx	#$ad
    5246: 86 12        	stx	$12                     ; 0x12 <__rc2>
    5248: a2 86        	ldx	#$86
    524a: 86 13        	stx	$13                     ; 0x13 <__rc3>
    524c: 20 90 33     	jsr	$3390 <textPrint>
    524f: 64 33        	stz	$33                     ; 0x33 <_col>
    5251: 9c 14 d0     	stz	$d014                   ; 0xd014 <end_block9+0x3776>
    5254: 9c 15 d0     	stz	$d015                   ; 0xd015 <end_block9+0x3777>
    5257: a2 1f        	ldx	#$1f
    5259: 86 34        	stx	$34                     ; 0x34 <_row>
    525b: 8e 16 d0     	stx	$d016                   ; 0xd016 <end_block9+0x3778>
    525e: 9c 17 d0     	stz	$d017                   ; 0xd017 <end_block9+0x3779>
    5261: a2 fa        	ldx	#$fa
    5263: 86 35        	stx	$35                     ; 0x35 <__putchar.s>
    5265: a2 35        	ldx	#$35
    5267: 86 12        	stx	$12                     ; 0x12 <__rc2>
    5269: a2 00        	ldx	#$0
    526b: 86 13        	stx	$13                     ; 0x13 <__rc3>
    526d: 20 90 33     	jsr	$3390 <textPrint>
    5270: a2 ad        	ldx	#$ad
    5272: 86 12        	stx	$12                     ; 0x12 <__rc2>
    5274: a2 86        	ldx	#$86
    5276: 86 13        	stx	$13                     ; 0x13 <__rc3>
    5278: 64 33        	stz	$33                     ; 0x33 <_col>
    527a: 9c 14 d0     	stz	$d014                   ; 0xd014 <end_block9+0x3776>
    527d: 9c 15 d0     	stz	$d015                   ; 0xd015 <end_block9+0x3777>
    5280: a2 20        	ldx	#$20
    5282: 86 34        	stx	$34                     ; 0x34 <_row>
    5284: 8e 16 d0     	stx	$d016                   ; 0xd016 <end_block9+0x3778>
    5287: 9c 17 d0     	stz	$d017                   ; 0xd017 <end_block9+0x3779>
    528a: 80 60        	bra	$52ec <refreshInstrumentText+0x327>
    528c: 64 33        	stz	$33                     ; 0x33 <_col>
    528e: 9c 14 d0     	stz	$d014                   ; 0xd014 <end_block9+0x3776>
    5291: 9c 15 d0     	stz	$d015                   ; 0xd015 <end_block9+0x3777>
    5294: a2 1e        	ldx	#$1e
    5296: 86 34        	stx	$34                     ; 0x34 <_row>
    5298: 8e 16 d0     	stx	$d016                   ; 0xd016 <end_block9+0x3778>
    529b: 9c 17 d0     	stz	$d017                   ; 0xd017 <end_block9+0x3779>
    529e: a2 ad        	ldx	#$ad
    52a0: 86 91        	stx	$91                     ; 0x91 <__zp_bss_size+0x3c>
    52a2: a2 86        	ldx	#$86
    52a4: 86 92        	stx	$92                     ; 0x92 <__zp_bss_size+0x3d>
    52a6: a2 ad        	ldx	#$ad
    52a8: 86 12        	stx	$12                     ; 0x12 <__rc2>
    52aa: a2 86        	ldx	#$86
    52ac: 86 13        	stx	$13                     ; 0x13 <__rc3>
    52ae: 20 90 33     	jsr	$3390 <textPrint>
    52b1: 64 33        	stz	$33                     ; 0x33 <_col>
    52b3: 9c 14 d0     	stz	$d014                   ; 0xd014 <end_block9+0x3776>
    52b6: 9c 15 d0     	stz	$d015                   ; 0xd015 <end_block9+0x3777>
    52b9: a2 1f        	ldx	#$1f
    52bb: 86 34        	stx	$34                     ; 0x34 <_row>
    52bd: 8e 16 d0     	stx	$d016                   ; 0xd016 <end_block9+0x3778>
    52c0: 9c 17 d0     	stz	$d017                   ; 0xd017 <end_block9+0x3779>
    52c3: a2 ad        	ldx	#$ad
    52c5: 86 12        	stx	$12                     ; 0x12 <__rc2>
    52c7: a2 86        	ldx	#$86
    52c9: 86 13        	stx	$13                     ; 0x13 <__rc3>
    52cb: 20 90 33     	jsr	$3390 <textPrint>
    52ce: 64 33        	stz	$33                     ; 0x33 <_col>
    52d0: 9c 14 d0     	stz	$d014                   ; 0xd014 <end_block9+0x3776>
    52d3: 9c 15 d0     	stz	$d015                   ; 0xd015 <end_block9+0x3777>
    52d6: a2 20        	ldx	#$20
    52d8: 86 34        	stx	$34                     ; 0x34 <_row>
    52da: 8e 16 d0     	stx	$d016                   ; 0xd016 <end_block9+0x3778>
    52dd: 9c 17 d0     	stz	$d017                   ; 0xd017 <end_block9+0x3779>
    52e0: a2 fa        	ldx	#$fa
    52e2: 86 35        	stx	$35                     ; 0x35 <__putchar.s>
    52e4: a2 35        	ldx	#$35
    52e6: 86 12        	stx	$12                     ; 0x12 <__rc2>
    52e8: a2 00        	ldx	#$0
    52ea: 86 13        	stx	$13                     ; 0x13 <__rc3>
    52ec: 20 90 33     	jsr	$3390 <textPrint>
    52ef: a0 07        	ldy	#$7
    52f1: b1 93        	lda	($93),y                 ; 0x93 <__zp_bss_size+0x3e>
    52f3: d0 03        	bne	$52f8 <refreshInstrumentText+0x333>
    52f5: 4c 61 53     	jmp	$5361 <refreshInstrumentText+0x39c>
    52f8: 64 33        	stz	$33                     ; 0x33 <_col>
    52fa: 9c 14 d0     	stz	$d014                   ; 0xd014 <end_block9+0x3776>
    52fd: 9c 15 d0     	stz	$d015                   ; 0xd015 <end_block9+0x3777>
    5300: a2 1e        	ldx	#$1e
    5302: 86 34        	stx	$34                     ; 0x34 <_row>
    5304: 8e 16 d0     	stx	$d016                   ; 0xd016 <end_block9+0x3778>
    5307: 9c 17 d0     	stz	$d017                   ; 0xd017 <end_block9+0x3779>
    530a: a2 fa        	ldx	#$fa
    530c: 86 35        	stx	$35                     ; 0x35 <__putchar.s>
    530e: 86 93        	stx	$93                     ; 0x93 <__zp_bss_size+0x3e>
    5310: a2 35        	ldx	#$35
    5312: 86 91        	stx	$91                     ; 0x91 <__zp_bss_size+0x3c>
    5314: a2 00        	ldx	#$0
    5316: 86 92        	stx	$92                     ; 0x92 <__zp_bss_size+0x3d>
    5318: a2 35        	ldx	#$35
    531a: 86 12        	stx	$12                     ; 0x12 <__rc2>
    531c: a2 00        	ldx	#$0
    531e: 86 13        	stx	$13                     ; 0x13 <__rc3>
    5320: 20 90 33     	jsr	$3390 <textPrint>
    5323: 64 33        	stz	$33                     ; 0x33 <_col>
    5325: 9c 14 d0     	stz	$d014                   ; 0xd014 <end_block9+0x3776>
    5328: 9c 15 d0     	stz	$d015                   ; 0xd015 <end_block9+0x3777>
    532b: a2 1f        	ldx	#$1f
    532d: 86 34        	stx	$34                     ; 0x34 <_row>
    532f: 8e 16 d0     	stx	$d016                   ; 0xd016 <end_block9+0x3778>
    5332: 9c 17 d0     	stz	$d017                   ; 0xd017 <end_block9+0x3779>
    5335: a6 93        	ldx	$93                     ; 0x93 <__zp_bss_size+0x3e>
    5337: 86 35        	stx	$35                     ; 0x35 <__putchar.s>
    5339: a2 35        	ldx	#$35
    533b: 86 12        	stx	$12                     ; 0x12 <__rc2>
    533d: a2 00        	ldx	#$0
    533f: 86 13        	stx	$13                     ; 0x13 <__rc3>
    5341: 20 90 33     	jsr	$3390 <textPrint>
    5344: 64 33        	stz	$33                     ; 0x33 <_col>
    5346: 9c 14 d0     	stz	$d014                   ; 0xd014 <end_block9+0x3776>
    5349: 9c 15 d0     	stz	$d015                   ; 0xd015 <end_block9+0x3777>
    534c: a2 20        	ldx	#$20
    534e: 86 34        	stx	$34                     ; 0x34 <_row>
    5350: 8e 16 d0     	stx	$d016                   ; 0xd016 <end_block9+0x3778>
    5353: 9c 17 d0     	stz	$d017                   ; 0xd017 <end_block9+0x3779>
    5356: a2 ad        	ldx	#$ad
    5358: 86 12        	stx	$12                     ; 0x12 <__rc2>
    535a: a2 86        	ldx	#$86
    535c: 86 13        	stx	$13                     ; 0x13 <__rc3>
    535e: 20 90 33     	jsr	$3390 <textPrint>
    5361: 18           	clc
    5362: a5 10        	lda	$10                     ; 0x10 <__rc0>
    5364: 69 04        	adc	#$4
    5366: 85 10        	sta	$10                     ; 0x10 <__rc0>
    5368: a5 11        	lda	$11                     ; 0x11 <__rc1>
    536a: 69 00        	adc	#$0
    536c: 85 11        	sta	$11                     ; 0x11 <__rc1>
    536e: 60           	rts

0000536f <channelTextMenu>:
    536f: a6 12        	ldx	$12                     ; 0x12 <__rc2>
    5371: 86 8f        	stx	$8f                     ; 0x8f <__zp_bss_size+0x3a>
    5373: a6 13        	ldx	$13                     ; 0x13 <__rc3>
    5375: 86 90        	stx	$90                     ; 0x90 <__zp_bss_size+0x3b>
    5377: a2 90        	ldx	#$90
    5379: 86 30        	stx	$30                     ; 0x30 <_ccolor>
    537b: 64 33        	stz	$33                     ; 0x33 <_col>
    537d: 9c 14 d0     	stz	$d014                   ; 0xd014 <end_block9+0x3776>
    5380: 9c 15 d0     	stz	$d015                   ; 0xd015 <end_block9+0x3777>
    5383: a2 19        	ldx	#$19
    5385: 86 34        	stx	$34                     ; 0x34 <_row>
    5387: 8e 16 d0     	stx	$d016                   ; 0xd016 <end_block9+0x3778>
    538a: 9c 17 d0     	stz	$d017                   ; 0xd017 <end_block9+0x3779>
    538d: a0 06        	ldy	#$6
    538f: b1 12        	lda	($12),y                 ; 0x12 <__rc2>
    5391: c9 04        	cmp	#$4
    5393: 90 03        	bcc	$5398 <channelTextMenu+0x29>
    5395: 4c af 54     	jmp	$54af <channelTextMenu+0x140>
    5398: 0a           	asl
    5399: aa           	tax
    539a: 7c 44 84     	jmp	($8444,x)               ; 0x8444 <__set_v+0x21>
    539d: a0 02        	ldy	#$2
    539f: b1 8f        	lda	($8f),y                 ; 0x8f <__zp_bss_size+0x3a>
    53a1: f0 2a        	beq	$53cd <channelTextMenu+0x5e>
    53a3: a2 c1        	ldx	#$c1
    53a5: 86 12        	stx	$12                     ; 0x12 <__rc2>
    53a7: a2 8b        	ldx	#$8b
    53a9: 80 28        	bra	$53d3 <channelTextMenu+0x64>
    53ab: a2 24        	ldx	#$24
    53ad: 86 12        	stx	$12                     ; 0x12 <__rc2>
    53af: a2 88        	ldx	#$88
    53b1: 80 0e        	bra	$53c1 <channelTextMenu+0x52>
    53b3: a2 2d        	ldx	#$2d
    53b5: 86 12        	stx	$12                     ; 0x12 <__rc2>
    53b7: a2 8c        	ldx	#$8c
    53b9: 80 06        	bra	$53c1 <channelTextMenu+0x52>
    53bb: a2 3e        	ldx	#$3e
    53bd: 86 12        	stx	$12                     ; 0x12 <__rc2>
    53bf: a2 92        	ldx	#$92
    53c1: 86 13        	stx	$13                     ; 0x13 <__rc3>
    53c3: 20 90 33     	jsr	$3390 <textPrint>
    53c6: a2 40        	ldx	#$40
    53c8: 86 30        	stx	$30                     ; 0x30 <_ccolor>
    53ca: 4c af 54     	jmp	$54af <channelTextMenu+0x140>
    53cd: a2 6d        	ldx	#$6d
    53cf: 86 12        	stx	$12                     ; 0x12 <__rc2>
    53d1: a2 90        	ldx	#$90
    53d3: 86 13        	stx	$13                     ; 0x13 <__rc3>
    53d5: 20 90 33     	jsr	$3390 <textPrint>
    53d8: a2 40        	ldx	#$40
    53da: 86 30        	stx	$30                     ; 0x30 <_ccolor>
    53dc: 64 33        	stz	$33                     ; 0x33 <_col>
    53de: 9c 14 d0     	stz	$d014                   ; 0xd014 <end_block9+0x3776>
    53e1: 9c 15 d0     	stz	$d015                   ; 0xd015 <end_block9+0x3777>
    53e4: a2 1a        	ldx	#$1a
    53e6: 86 34        	stx	$34                     ; 0x34 <_row>
    53e8: 8e 16 d0     	stx	$d016                   ; 0xd016 <end_block9+0x3778>
    53eb: 9c 17 d0     	stz	$d017                   ; 0xd017 <end_block9+0x3779>
    53ee: a2 47        	ldx	#$47
    53f0: 86 12        	stx	$12                     ; 0x12 <__rc2>
    53f2: a2 86        	ldx	#$86
    53f4: 86 13        	stx	$13                     ; 0x13 <__rc3>
    53f6: 20 90 33     	jsr	$3390 <textPrint>
    53f9: 64 33        	stz	$33                     ; 0x33 <_col>
    53fb: 9c 14 d0     	stz	$d014                   ; 0xd014 <end_block9+0x3776>
    53fe: 9c 15 d0     	stz	$d015                   ; 0xd015 <end_block9+0x3777>
    5401: a2 1b        	ldx	#$1b
    5403: 86 34        	stx	$34                     ; 0x34 <_row>
    5405: 8e 16 d0     	stx	$d016                   ; 0xd016 <end_block9+0x3778>
    5408: 9c 17 d0     	stz	$d017                   ; 0xd017 <end_block9+0x3779>
    540b: a2 aa        	ldx	#$aa
    540d: 86 12        	stx	$12                     ; 0x12 <__rc2>
    540f: a2 88        	ldx	#$88
    5411: 86 13        	stx	$13                     ; 0x13 <__rc3>
    5413: 20 90 33     	jsr	$3390 <textPrint>
    5416: a2 01        	ldx	#$1
    5418: 86 33        	stx	$33                     ; 0x33 <_col>
    541a: 8e 14 d0     	stx	$d014                   ; 0xd014 <end_block9+0x3776>
    541d: 9c 15 d0     	stz	$d015                   ; 0xd015 <end_block9+0x3777>
    5420: a2 1d        	ldx	#$1d
    5422: 86 34        	stx	$34                     ; 0x34 <_row>
    5424: 8e 16 d0     	stx	$d016                   ; 0xd016 <end_block9+0x3778>
    5427: 9c 17 d0     	stz	$d017                   ; 0xd017 <end_block9+0x3779>
    542a: a2 66        	ldx	#$66
    542c: 86 12        	stx	$12                     ; 0x12 <__rc2>
    542e: a2 8a        	ldx	#$8a
    5430: 86 13        	stx	$13                     ; 0x13 <__rc3>
    5432: 20 90 33     	jsr	$3390 <textPrint>
    5435: a2 02        	ldx	#$2
    5437: 86 33        	stx	$33                     ; 0x33 <_col>
    5439: 8e 14 d0     	stx	$d014                   ; 0xd014 <end_block9+0x3776>
    543c: 9c 15 d0     	stz	$d015                   ; 0xd015 <end_block9+0x3777>
    543f: a2 1e        	ldx	#$1e
    5441: 86 34        	stx	$34                     ; 0x34 <_row>
    5443: 8e 16 d0     	stx	$d016                   ; 0xd016 <end_block9+0x3778>
    5446: 9c 17 d0     	stz	$d017                   ; 0xd017 <end_block9+0x3779>
    5449: a2 af        	ldx	#$af
    544b: 86 12        	stx	$12                     ; 0x12 <__rc2>
    544d: a2 86        	ldx	#$86
    544f: 86 13        	stx	$13                     ; 0x13 <__rc3>
    5451: 20 90 33     	jsr	$3390 <textPrint>
    5454: a2 02        	ldx	#$2
    5456: 86 33        	stx	$33                     ; 0x33 <_col>
    5458: 8e 14 d0     	stx	$d014                   ; 0xd014 <end_block9+0x3776>
    545b: 9c 15 d0     	stz	$d015                   ; 0xd015 <end_block9+0x3777>
    545e: a2 1f        	ldx	#$1f
    5460: 86 34        	stx	$34                     ; 0x34 <_row>
    5462: 8e 16 d0     	stx	$d016                   ; 0xd016 <end_block9+0x3778>
    5465: 9c 17 d0     	stz	$d017                   ; 0xd017 <end_block9+0x3779>
    5468: a2 fc        	ldx	#$fc
    546a: 86 12        	stx	$12                     ; 0x12 <__rc2>
    546c: a2 91        	ldx	#$91
    546e: 86 13        	stx	$13                     ; 0x13 <__rc3>
    5470: 20 90 33     	jsr	$3390 <textPrint>
    5473: a2 02        	ldx	#$2
    5475: 86 33        	stx	$33                     ; 0x33 <_col>
    5477: 8e 14 d0     	stx	$d014                   ; 0xd014 <end_block9+0x3776>
    547a: 9c 15 d0     	stz	$d015                   ; 0xd015 <end_block9+0x3777>
    547d: a2 20        	ldx	#$20
    547f: 86 34        	stx	$34                     ; 0x34 <_row>
    5481: 8e 16 d0     	stx	$d016                   ; 0xd016 <end_block9+0x3778>
    5484: 9c 17 d0     	stz	$d017                   ; 0xd017 <end_block9+0x3779>
    5487: a2 bc        	ldx	#$bc
    5489: 86 12        	stx	$12                     ; 0x12 <__rc2>
    548b: a2 92        	ldx	#$92
    548d: 86 13        	stx	$13                     ; 0x13 <__rc3>
    548f: 20 90 33     	jsr	$3390 <textPrint>
    5492: 64 33        	stz	$33                     ; 0x33 <_col>
    5494: 9c 14 d0     	stz	$d014                   ; 0xd014 <end_block9+0x3776>
    5497: 9c 15 d0     	stz	$d015                   ; 0xd015 <end_block9+0x3777>
    549a: a2 21        	ldx	#$21
    549c: 86 34        	stx	$34                     ; 0x34 <_row>
    549e: 8e 16 d0     	stx	$d016                   ; 0xd016 <end_block9+0x3778>
    54a1: 9c 17 d0     	stz	$d017                   ; 0xd017 <end_block9+0x3779>
    54a4: a2 e3        	ldx	#$e3
    54a6: 86 12        	stx	$12                     ; 0x12 <__rc2>
    54a8: a2 8d        	ldx	#$8d
    54aa: 86 13        	stx	$13                     ; 0x13 <__rc3>
    54ac: 20 90 33     	jsr	$3390 <textPrint>
    54af: a6 8f        	ldx	$8f                     ; 0x8f <__zp_bss_size+0x3a>
    54b1: 86 12        	stx	$12                     ; 0x12 <__rc2>
    54b3: a6 90        	ldx	$90                     ; 0x90 <__zp_bss_size+0x3b>
    54b5: 86 13        	stx	$13                     ; 0x13 <__rc3>
    54b7: 4c c5 4f     	jmp	$4fc5 <refreshInstrumentText>

000054ba <refreshBeatTextChoice>:
    54ba: 18           	clc
    54bb: a5 10        	lda	$10                     ; 0x10 <__rc0>
    54bd: 69 fe        	adc	#$fe
    54bf: 85 10        	sta	$10                     ; 0x10 <__rc0>
    54c1: a5 11        	lda	$11                     ; 0x11 <__rc1>
    54c3: 69 ff        	adc	#$ff
    54c5: 85 11        	sta	$11                     ; 0x11 <__rc1>
    54c7: a6 12        	ldx	$12                     ; 0x12 <__rc2>
    54c9: 86 8f        	stx	$8f                     ; 0x8f <__zp_bss_size+0x3a>
    54cb: a6 13        	ldx	$13                     ; 0x13 <__rc3>
    54cd: 86 90        	stx	$90                     ; 0x90 <__zp_bss_size+0x3b>
    54cf: a2 90        	ldx	#$90
    54d1: 86 30        	stx	$30                     ; 0x30 <_ccolor>
    54d3: a2 2e        	ldx	#$2e
    54d5: 86 33        	stx	$33                     ; 0x33 <_col>
    54d7: 8e 14 d0     	stx	$d014                   ; 0xd014 <end_block9+0x3776>
    54da: 9c 15 d0     	stz	$d015                   ; 0xd015 <end_block9+0x3777>
    54dd: a2 1d        	ldx	#$1d
    54df: 86 34        	stx	$34                     ; 0x34 <_row>
    54e1: 8e 16 d0     	stx	$d016                   ; 0xd016 <end_block9+0x3778>
    54e4: 9c 17 d0     	stz	$d017                   ; 0xd017 <end_block9+0x3779>
    54e7: a2 03        	ldx	#$3
    54e9: 86 12        	stx	$12                     ; 0x12 <__rc2>
    54eb: a2 8e        	ldx	#$8e
    54ed: 86 13        	stx	$13                     ; 0x13 <__rc3>
    54ef: 20 90 33     	jsr	$3390 <textPrint>
    54f2: a2 2e        	ldx	#$2e
    54f4: 86 33        	stx	$33                     ; 0x33 <_col>
    54f6: 8e 14 d0     	stx	$d014                   ; 0xd014 <end_block9+0x3776>
    54f9: 9c 15 d0     	stz	$d015                   ; 0xd015 <end_block9+0x3777>
    54fc: a2 1d        	ldx	#$1d
    54fe: 86 34        	stx	$34                     ; 0x34 <_row>
    5500: 8e 16 d0     	stx	$d016                   ; 0xd016 <end_block9+0x3778>
    5503: 9c 17 d0     	stz	$d017                   ; 0xd017 <end_block9+0x3779>
    5506: a0 08        	ldy	#$8
    5508: a6 8f        	ldx	$8f                     ; 0x8f <__zp_bss_size+0x3a>
    550a: 86 12        	stx	$12                     ; 0x12 <__rc2>
    550c: a6 90        	ldx	$90                     ; 0x90 <__zp_bss_size+0x3b>
    550e: 86 13        	stx	$13                     ; 0x13 <__rc3>
    5510: b1 12        	lda	($12),y                 ; 0x12 <__rc2>
    5512: 0a           	asl
    5513: 85 12        	sta	$12                     ; 0x12 <__rc2>
    5515: 64 13        	stz	$13                     ; 0x13 <__rc3>
    5517: 26 13        	rol	$13                     ; 0x13 <__rc3>
    5519: a9 3c        	lda	#$3c
    551b: 18           	clc
    551c: 65 12        	adc	$12                     ; 0x12 <__rc2>
    551e: 85 12        	sta	$12                     ; 0x12 <__rc2>
    5520: a9 98        	lda	#$98
    5522: 65 13        	adc	$13                     ; 0x13 <__rc3>
    5524: 85 13        	sta	$13                     ; 0x13 <__rc3>
    5526: b2 12        	lda	($12)                   ; 0x12 <__rc2>
    5528: 85 14        	sta	$14                     ; 0x14 <__rc4>
    552a: a0 01        	ldy	#$1
    552c: b1 12        	lda	($12),y                 ; 0x12 <__rc2>
    552e: 85 12        	sta	$12                     ; 0x12 <__rc2>
    5530: a5 14        	lda	$14                     ; 0x14 <__rc4>
    5532: 92 10        	sta	($10)                   ; 0x10 <__rc0>
    5534: a5 12        	lda	$12                     ; 0x12 <__rc2>
    5536: 91 10        	sta	($10),y                 ; 0x10 <__rc0>
    5538: a2 65        	ldx	#$65
    553a: 86 12        	stx	$12                     ; 0x12 <__rc2>
    553c: a2 8c        	ldx	#$8c
    553e: 86 13        	stx	$13                     ; 0x13 <__rc3>
    5540: 20 c3 5f     	jsr	$5fc3 <printf>
    5543: 18           	clc
    5544: a5 10        	lda	$10                     ; 0x10 <__rc0>
    5546: 69 02        	adc	#$2
    5548: 85 10        	sta	$10                     ; 0x10 <__rc0>
    554a: a5 11        	lda	$11                     ; 0x11 <__rc1>
    554c: 69 00        	adc	#$0
    554e: 85 11        	sta	$11                     ; 0x11 <__rc1>
    5550: 60           	rts

00005551 <updateTempoText>:
    5551: 85 8f        	sta	$8f                     ; 0x8f <__zp_bss_size+0x3a>
    5553: a2 40        	ldx	#$40
    5555: 86 30        	stx	$30                     ; 0x30 <_ccolor>
    5557: a2 2d        	ldx	#$2d
    5559: 86 33        	stx	$33                     ; 0x33 <_col>
    555b: 8e 14 d0     	stx	$d014                   ; 0xd014 <end_block9+0x3776>
    555e: 9c 15 d0     	stz	$d015                   ; 0xd015 <end_block9+0x3777>
    5561: a2 1f        	ldx	#$1f
    5563: 86 34        	stx	$34                     ; 0x34 <_row>
    5565: 8e 16 d0     	stx	$d016                   ; 0xd016 <end_block9+0x3778>
    5568: 9c 17 d0     	stz	$d017                   ; 0xd017 <end_block9+0x3779>
    556b: a2 57        	ldx	#$57
    556d: 86 12        	stx	$12                     ; 0x12 <__rc2>
    556f: a2 93        	ldx	#$93
    5571: 86 13        	stx	$13                     ; 0x13 <__rc3>
    5573: 20 90 33     	jsr	$3390 <textPrint>
    5576: 64 12        	stz	$12                     ; 0x12 <__rc2>
    5578: 64 13        	stz	$13                     ; 0x13 <__rc3>
    557a: a2 00        	ldx	#$0
    557c: a5 8f        	lda	$8f                     ; 0x8f <__zp_bss_size+0x3a>
    557e: 20 6e 3e     	jsr	$3e6e <textPrintUInt>
    5581: a2 38        	ldx	#$38
    5583: 86 12        	stx	$12                     ; 0x12 <__rc2>
    5585: a2 90        	ldx	#$90
    5587: 86 13        	stx	$13                     ; 0x13 <__rc3>
    5589: 20 90 33     	jsr	$3390 <textPrint>
    558c: a2 2d        	ldx	#$2d
    558e: 86 33        	stx	$33                     ; 0x33 <_col>
    5590: 8e 14 d0     	stx	$d014                   ; 0xd014 <end_block9+0x3776>
    5593: 9c 15 d0     	stz	$d015                   ; 0xd015 <end_block9+0x3777>
    5596: a2 20        	ldx	#$20
    5598: 86 34        	stx	$34                     ; 0x34 <_row>
    559a: 8e 16 d0     	stx	$d016                   ; 0xd016 <end_block9+0x3778>
    559d: 9c 17 d0     	stz	$d017                   ; 0xd017 <end_block9+0x3779>
    55a0: a2 75        	ldx	#$75
    55a2: 86 12        	stx	$12                     ; 0x12 <__rc2>
    55a4: a2 8a        	ldx	#$8a
    55a6: 86 13        	stx	$13                     ; 0x13 <__rc3>
    55a8: 4c 90 33     	jmp	$3390 <textPrint>

000055ab <showChipChoiceText>:
    55ab: a0 06        	ldy	#$6
    55ad: b1 12        	lda	($12),y                 ; 0x12 <__rc2>
    55af: c9 04        	cmp	#$4
    55b1: 90 03        	bcc	$55b6 <showChipChoiceText+0xb>
    55b3: 4c a2 56     	jmp	$56a2 <showChipChoiceText+0xf7>
    55b6: 0a           	asl
    55b7: aa           	tax
    55b8: 7c 4c 84     	jmp	($844c,x)               ; 0x844c <__set_v+0x29>
    55bb: 20 a3 56     	jsr	$56a3 <showMIDIChoiceText>
    55be: a0 40        	ldy	#$40
    55c0: a2 a8        	ldx	#$a8
    55c2: 86 12        	stx	$12                     ; 0x12 <__rc2>
    55c4: a2 89        	ldx	#$89
    55c6: 86 13        	stx	$13                     ; 0x13 <__rc3>
    55c8: a2 2d        	ldx	#$2d
    55ca: 4c 8b 56     	jmp	$568b <showChipChoiceText+0xe0>
    55cd: 20 a3 56     	jsr	$56a3 <showMIDIChoiceText>
    55d0: a2 2c        	ldx	#$2c
    55d2: 86 33        	stx	$33                     ; 0x33 <_col>
    55d4: 8e 14 d0     	stx	$d014                   ; 0xd014 <end_block9+0x3776>
    55d7: 9c 15 d0     	stz	$d015                   ; 0xd015 <end_block9+0x3777>
    55da: a2 39        	ldx	#$39
    55dc: 86 34        	stx	$34                     ; 0x34 <_row>
    55de: 8e 16 d0     	stx	$d016                   ; 0xd016 <end_block9+0x3778>
    55e1: 9c 17 d0     	stz	$d017                   ; 0xd017 <end_block9+0x3779>
    55e4: a2 40        	ldx	#$40
    55e6: 86 30        	stx	$30                     ; 0x30 <_ccolor>
    55e8: a2 bd        	ldx	#$bd
    55ea: 86 12        	stx	$12                     ; 0x12 <__rc2>
    55ec: a2 91        	ldx	#$91
    55ee: 86 13        	stx	$13                     ; 0x13 <__rc3>
    55f0: 20 90 33     	jsr	$3390 <textPrint>
    55f3: a2 32        	ldx	#$32
    55f5: 86 33        	stx	$33                     ; 0x33 <_col>
    55f7: 8e 14 d0     	stx	$d014                   ; 0xd014 <end_block9+0x3776>
    55fa: 9c 15 d0     	stz	$d015                   ; 0xd015 <end_block9+0x3777>
    55fd: a2 39        	ldx	#$39
    55ff: 86 34        	stx	$34                     ; 0x34 <_row>
    5601: 8e 16 d0     	stx	$d016                   ; 0xd016 <end_block9+0x3778>
    5604: 9c 17 d0     	stz	$d017                   ; 0xd017 <end_block9+0x3779>
    5607: a2 90        	ldx	#$90
    5609: 86 30        	stx	$30                     ; 0x30 <_ccolor>
    560b: a2 c0        	ldx	#$c0
    560d: 86 12        	stx	$12                     ; 0x12 <__rc2>
    560f: a2 92        	ldx	#$92
    5611: 86 13        	stx	$13                     ; 0x13 <__rc3>
    5613: 20 90 33     	jsr	$3390 <textPrint>
    5616: a0 40        	ldy	#$40
    5618: a2 1a        	ldx	#$1a
    561a: 86 12        	stx	$12                     ; 0x12 <__rc2>
    561c: a2 89        	ldx	#$89
    561e: 86 13        	stx	$13                     ; 0x13 <__rc3>
    5620: a2 38        	ldx	#$38
    5622: 4c 8b 56     	jmp	$568b <showChipChoiceText+0xe0>
    5625: 20 a3 56     	jsr	$56a3 <showMIDIChoiceText>
    5628: a2 2c        	ldx	#$2c
    562a: 86 33        	stx	$33                     ; 0x33 <_col>
    562c: 8e 14 d0     	stx	$d014                   ; 0xd014 <end_block9+0x3776>
    562f: 9c 15 d0     	stz	$d015                   ; 0xd015 <end_block9+0x3777>
    5632: a2 39        	ldx	#$39
    5634: 86 34        	stx	$34                     ; 0x34 <_row>
    5636: 8e 16 d0     	stx	$d016                   ; 0xd016 <end_block9+0x3778>
    5639: 9c 17 d0     	stz	$d017                   ; 0xd017 <end_block9+0x3779>
    563c: a2 40        	ldx	#$40
    563e: 86 30        	stx	$30                     ; 0x30 <_ccolor>
    5640: a2 41        	ldx	#$41
    5642: 86 12        	stx	$12                     ; 0x12 <__rc2>
    5644: a2 91        	ldx	#$91
    5646: 86 13        	stx	$13                     ; 0x13 <__rc3>
    5648: 20 90 33     	jsr	$3390 <textPrint>
    564b: a2 c2        	ldx	#$c2
    564d: 86 12        	stx	$12                     ; 0x12 <__rc2>
    564f: a2 8f        	ldx	#$8f
    5651: 86 13        	stx	$13                     ; 0x13 <__rc3>
    5653: a2 38        	ldx	#$38
    5655: a0 90        	ldy	#$90
    5657: 80 32        	bra	$568b <showChipChoiceText+0xe0>
    5659: 20 a3 56     	jsr	$56a3 <showMIDIChoiceText>
    565c: a2 2c        	ldx	#$2c
    565e: 86 33        	stx	$33                     ; 0x33 <_col>
    5660: 8e 14 d0     	stx	$d014                   ; 0xd014 <end_block9+0x3776>
    5663: 9c 15 d0     	stz	$d015                   ; 0xd015 <end_block9+0x3777>
    5666: a2 39        	ldx	#$39
    5668: 86 34        	stx	$34                     ; 0x34 <_row>
    566a: 8e 16 d0     	stx	$d016                   ; 0xd016 <end_block9+0x3778>
    566d: 9c 17 d0     	stz	$d017                   ; 0xd017 <end_block9+0x3779>
    5670: a2 90        	ldx	#$90
    5672: 86 30        	stx	$30                     ; 0x30 <_ccolor>
    5674: a2 96        	ldx	#$96
    5676: 86 12        	stx	$12                     ; 0x12 <__rc2>
    5678: a2 8a        	ldx	#$8a
    567a: 86 13        	stx	$13                     ; 0x13 <__rc3>
    567c: 20 90 33     	jsr	$3390 <textPrint>
    567f: a0 40        	ldy	#$40
    5681: a2 d9        	ldx	#$d9
    5683: 86 12        	stx	$12                     ; 0x12 <__rc2>
    5685: a2 87        	ldx	#$87
    5687: 86 13        	stx	$13                     ; 0x13 <__rc3>
    5689: a2 32        	ldx	#$32
    568b: 86 33        	stx	$33                     ; 0x33 <_col>
    568d: 8e 14 d0     	stx	$d014                   ; 0xd014 <end_block9+0x3776>
    5690: 9c 15 d0     	stz	$d015                   ; 0xd015 <end_block9+0x3777>
    5693: a2 39        	ldx	#$39
    5695: 86 34        	stx	$34                     ; 0x34 <_row>
    5697: 8e 16 d0     	stx	$d016                   ; 0xd016 <end_block9+0x3778>
    569a: 9c 17 d0     	stz	$d017                   ; 0xd017 <end_block9+0x3779>
    569d: 84 30        	sty	$30                     ; 0x30 <_ccolor>
    569f: 20 90 33     	jsr	$3390 <textPrint>
    56a2: 60           	rts

000056a3 <showMIDIChoiceText>:
    56a3: a6 12        	ldx	$12                     ; 0x12 <__rc2>
    56a5: 86 8f        	stx	$8f                     ; 0x8f <__zp_bss_size+0x3a>
    56a7: a6 13        	ldx	$13                     ; 0x13 <__rc3>
    56a9: 86 90        	stx	$90                     ; 0x90 <__zp_bss_size+0x3b>
    56ab: a0 06        	ldy	#$6
    56ad: b1 12        	lda	($12),y                 ; 0x12 <__rc2>
    56af: f0 06        	beq	$56b7 <showMIDIChoiceText+0x14>
    56b1: a2 40        	ldx	#$40
    56b3: 86 91        	stx	$91                     ; 0x91 <__zp_bss_size+0x3c>
    56b5: 80 14        	bra	$56cb <showMIDIChoiceText+0x28>
    56b7: a0 02        	ldy	#$2
    56b9: b1 8f        	lda	($8f),y                 ; 0x8f <__zp_bss_size+0x3a>
    56bb: f0 08        	beq	$56c5 <showMIDIChoiceText+0x22>
    56bd: a2 90        	ldx	#$90
    56bf: 86 91        	stx	$91                     ; 0x91 <__zp_bss_size+0x3c>
    56c1: a2 40        	ldx	#$40
    56c3: 80 06        	bra	$56cb <showMIDIChoiceText+0x28>
    56c5: a2 40        	ldx	#$40
    56c7: 86 91        	stx	$91                     ; 0x91 <__zp_bss_size+0x3c>
    56c9: a2 90        	ldx	#$90
    56cb: 86 30        	stx	$30                     ; 0x30 <_ccolor>
    56cd: a2 1d        	ldx	#$1d
    56cf: 86 33        	stx	$33                     ; 0x33 <_col>
    56d1: 8e 14 d0     	stx	$d014                   ; 0xd014 <end_block9+0x3776>
    56d4: 9c 15 d0     	stz	$d015                   ; 0xd015 <end_block9+0x3777>
    56d7: a2 39        	ldx	#$39
    56d9: 86 34        	stx	$34                     ; 0x34 <_row>
    56db: 8e 16 d0     	stx	$d016                   ; 0xd016 <end_block9+0x3778>
    56de: 9c 17 d0     	stz	$d017                   ; 0xd017 <end_block9+0x3779>
    56e1: a0 02        	ldy	#$2
    56e3: b1 8f        	lda	($8f),y                 ; 0x8f <__zp_bss_size+0x3a>
    56e5: f0 08        	beq	$56ef <showMIDIChoiceText+0x4c>
    56e7: a2 af        	ldx	#$af
    56e9: 86 12        	stx	$12                     ; 0x12 <__rc2>
    56eb: a2 8c        	ldx	#$8c
    56ed: 80 06        	bra	$56f5 <showMIDIChoiceText+0x52>
    56ef: a2 4c        	ldx	#$4c
    56f1: 86 12        	stx	$12                     ; 0x12 <__rc2>
    56f3: a2 8f        	ldx	#$8f
    56f5: 86 13        	stx	$13                     ; 0x13 <__rc3>
    56f7: 20 90 33     	jsr	$3390 <textPrint>
    56fa: a6 91        	ldx	$91                     ; 0x91 <__zp_bss_size+0x3c>
    56fc: 86 30        	stx	$30                     ; 0x30 <_ccolor>
    56fe: a2 1d        	ldx	#$1d
    5700: 86 33        	stx	$33                     ; 0x33 <_col>
    5702: 8e 14 d0     	stx	$d014                   ; 0xd014 <end_block9+0x3776>
    5705: 9c 15 d0     	stz	$d015                   ; 0xd015 <end_block9+0x3777>
    5708: a2 3a        	ldx	#$3a
    570a: 86 34        	stx	$34                     ; 0x34 <_row>
    570c: 8e 16 d0     	stx	$d016                   ; 0xd016 <end_block9+0x3778>
    570f: 9c 17 d0     	stz	$d017                   ; 0xd017 <end_block9+0x3779>
    5712: a0 02        	ldy	#$2
    5714: b1 8f        	lda	($8f),y                 ; 0x8f <__zp_bss_size+0x3a>
    5716: f0 08        	beq	$5720 <showMIDIChoiceText+0x7d>
    5718: a2 3d        	ldx	#$3d
    571a: 86 12        	stx	$12                     ; 0x12 <__rc2>
    571c: a2 8b        	ldx	#$8b
    571e: 80 06        	bra	$5726 <showMIDIChoiceText+0x83>
    5720: a2 76        	ldx	#$76
    5722: 86 12        	stx	$12                     ; 0x12 <__rc2>
    5724: a2 8e        	ldx	#$8e
    5726: 86 13        	stx	$13                     ; 0x13 <__rc3>
    5728: 4c 90 33     	jmp	$3390 <textPrint>

0000572b <textTitle>:
    572b: 18           	clc
    572c: a5 10        	lda	$10                     ; 0x10 <__rc0>
    572e: 69 f8        	adc	#$f8
    5730: 85 10        	sta	$10                     ; 0x10 <__rc0>
    5732: a5 11        	lda	$11                     ; 0x11 <__rc1>
    5734: 69 ff        	adc	#$ff
    5736: 85 11        	sta	$11                     ; 0x11 <__rc1>
    5738: a6 12        	ldx	$12                     ; 0x12 <__rc2>
    573a: 86 88        	stx	$88                     ; 0x88 <__zp_bss_size+0x33>
    573c: a6 13        	ldx	$13                     ; 0x13 <__rc3>
    573e: 86 89        	stx	$89                     ; 0x89 <__zp_bss_size+0x34>
    5740: a2 10        	ldx	#$10
    5742: 86 30        	stx	$30                     ; 0x30 <_ccolor>
    5744: a2 15        	ldx	#$15
    5746: 86 33        	stx	$33                     ; 0x33 <_col>
    5748: 8e 14 d0     	stx	$d014                   ; 0xd014 <end_block9+0x3776>
    574b: 9c 15 d0     	stz	$d015                   ; 0xd015 <end_block9+0x3777>
    574e: 64 34        	stz	$34                     ; 0x34 <_row>
    5750: 9c 16 d0     	stz	$d016                   ; 0xd016 <end_block9+0x3778>
    5753: 9c 17 d0     	stz	$d017                   ; 0xd017 <end_block9+0x3779>
    5756: a9 1d        	lda	#$1d
    5758: a2 f8        	ldx	#$f8
    575a: a0 ff        	ldy	#$ff
    575c: 86 8a        	stx	$8a                     ; 0x8a <__zp_bss_size+0x35>
    575e: 84 8b        	sty	$8b                     ; 0x8b <__zp_bss_size+0x36>
    5760: 85 35        	sta	$35                     ; 0x35 <__putchar.s>
    5762: a2 35        	ldx	#$35
    5764: 86 12        	stx	$12                     ; 0x12 <__rc2>
    5766: a2 00        	ldx	#$0
    5768: 86 13        	stx	$13                     ; 0x13 <__rc3>
    576a: 85 8c        	sta	$8c                     ; 0x8c <__zp_bss_size+0x37>
    576c: 20 90 33     	jsr	$3390 <textPrint>
    576f: a5 8c        	lda	$8c                     ; 0x8c <__zp_bss_size+0x37>
    5771: 3a           	dec
    5772: e6 8a        	inc	$8a                     ; 0x8a <__zp_bss_size+0x35>
    5774: d0 ea        	bne	$5760 <textTitle+0x35>
    5776: e6 8b        	inc	$8b                     ; 0x8b <__zp_bss_size+0x36>
    5778: d0 e6        	bne	$5760 <textTitle+0x35>
    577a: a2 1e        	ldx	#$1e
    577c: 86 33        	stx	$33                     ; 0x33 <_col>
    577e: 8e 14 d0     	stx	$d014                   ; 0xd014 <end_block9+0x3776>
    5781: 9c 15 d0     	stz	$d015                   ; 0xd015 <end_block9+0x3777>
    5784: 64 34        	stz	$34                     ; 0x34 <_row>
    5786: 9c 16 d0     	stz	$d016                   ; 0xd016 <end_block9+0x3778>
    5789: 9c 17 d0     	stz	$d017                   ; 0xd017 <end_block9+0x3779>
    578c: a2 f0        	ldx	#$f0
    578e: 86 30        	stx	$30                     ; 0x30 <_ccolor>
    5790: a2 2a        	ldx	#$2a
    5792: 86 12        	stx	$12                     ; 0x12 <__rc2>
    5794: a2 90        	ldx	#$90
    5796: 86 13        	stx	$13                     ; 0x13 <__rc3>
    5798: 20 c3 5f     	jsr	$5fc3 <printf>
    579b: a2 10        	ldx	#$10
    579d: 86 30        	stx	$30                     ; 0x30 <_ccolor>
    579f: a2 2c        	ldx	#$2c
    57a1: 86 33        	stx	$33                     ; 0x33 <_col>
    57a3: 8e 14 d0     	stx	$d014                   ; 0xd014 <end_block9+0x3776>
    57a6: 9c 15 d0     	stz	$d015                   ; 0xd015 <end_block9+0x3777>
    57a9: 64 34        	stz	$34                     ; 0x34 <_row>
    57ab: 9c 16 d0     	stz	$d016                   ; 0xd016 <end_block9+0x3778>
    57ae: 9c 17 d0     	stz	$d017                   ; 0xd017 <end_block9+0x3779>
    57b1: a2 16        	ldx	#$16
    57b3: 86 35        	stx	$35                     ; 0x35 <__putchar.s>
    57b5: 86 8a        	stx	$8a                     ; 0x8a <__zp_bss_size+0x35>
    57b7: a2 35        	ldx	#$35
    57b9: 86 12        	stx	$12                     ; 0x12 <__rc2>
    57bb: a2 00        	ldx	#$0
    57bd: 86 13        	stx	$13                     ; 0x13 <__rc3>
    57bf: 20 90 33     	jsr	$3390 <textPrint>
    57c2: a6 8a        	ldx	$8a                     ; 0x8a <__zp_bss_size+0x35>
    57c4: e8           	inx
    57c5: e0 1e        	cpx	#$1e
    57c7: d0 ea        	bne	$57b3 <textTitle+0x88>
    57c9: a2 21        	ldx	#$21
    57cb: 86 33        	stx	$33                     ; 0x33 <_col>
    57cd: 8e 14 d0     	stx	$d014                   ; 0xd014 <end_block9+0x3776>
    57d0: 9c 15 d0     	stz	$d015                   ; 0xd015 <end_block9+0x3777>
    57d3: a2 01        	ldx	#$1
    57d5: 86 34        	stx	$34                     ; 0x34 <_row>
    57d7: 8e 16 d0     	stx	$d016                   ; 0xd016 <end_block9+0x3778>
    57da: 86 8a        	stx	$8a                     ; 0x8a <__zp_bss_size+0x35>
    57dc: 9c 17 d0     	stz	$d017                   ; 0xd017 <end_block9+0x3779>
    57df: a2 f0        	ldx	#$f0
    57e1: 86 30        	stx	$30                     ; 0x30 <_ccolor>
    57e3: a2 a5        	ldx	#$a5
    57e5: 86 12        	stx	$12                     ; 0x12 <__rc2>
    57e7: a2 90        	ldx	#$90
    57e9: 86 13        	stx	$13                     ; 0x13 <__rc3>
    57eb: 20 90 33     	jsr	$3390 <textPrint>
    57ee: 9c 00 de     	stz	$de00                   ; 0xde00 <end_block9+0x4562>
    57f1: 9c 01 de     	stz	$de01                   ; 0xde01 <end_block9+0x4563>
    57f4: a2 04        	ldx	#$4
    57f6: 8e 02 de     	stx	$de02                   ; 0xde02 <end_block9+0x4564>
    57f9: 9c 03 de     	stz	$de03                   ; 0xde03 <end_block9+0x4565>
    57fc: ae 10 de     	ldx	$de10                   ; 0xde10 <end_block9+0x4572>
    57ff: 86 12        	stx	$12                     ; 0x12 <__rc2>
    5801: ae 11 de     	ldx	$de11                   ; 0xde11 <end_block9+0x4573>
    5804: 86 13        	stx	$13                     ; 0x13 <__rc3>
    5806: ae 12 de     	ldx	$de12                   ; 0xde12 <end_block9+0x4574>
    5809: ae 13 de     	ldx	$de13                   ; 0xde13 <end_block9+0x4575>
    580c: 18           	clc
    580d: a9 00        	lda	#$0
    580f: 65 12        	adc	$12                     ; 0x12 <__rc2>
    5811: 85 12        	sta	$12                     ; 0x12 <__rc2>
    5813: a9 d8        	lda	#$d8
    5815: 65 13        	adc	$13                     ; 0x13 <__rc3>
    5817: 85 13        	sta	$13                     ; 0x13 <__rc3>
    5819: a9 ff        	lda	#$ff
    581b: 92 12        	sta	($12)                   ; 0x12 <__rc2>
    581d: a4 8a        	ldy	$8a                     ; 0x8a <__zp_bss_size+0x35>
    581f: 91 12        	sta	($12),y                 ; 0x12 <__rc2>
    5821: a0 02        	ldy	#$2
    5823: 91 12        	sta	($12),y                 ; 0x12 <__rc2>
    5825: c8           	iny
    5826: 91 12        	sta	($12),y                 ; 0x12 <__rc2>
    5828: a2 70        	ldx	#$70
    582a: 86 30        	stx	$30                     ; 0x30 <_ccolor>
    582c: 64 33        	stz	$33                     ; 0x33 <_col>
    582e: 9c 14 d0     	stz	$d014                   ; 0xd014 <end_block9+0x3776>
    5831: 9c 15 d0     	stz	$d015                   ; 0xd015 <end_block9+0x3777>
    5834: a2 02        	ldx	#$2
    5836: 86 34        	stx	$34                     ; 0x34 <_row>
    5838: 8e 16 d0     	stx	$d016                   ; 0xd016 <end_block9+0x3778>
    583b: 86 8b        	stx	$8b                     ; 0x8b <__zp_bss_size+0x36>
    583d: 9c 17 d0     	stz	$d017                   ; 0xd017 <end_block9+0x3779>
    5840: a2 bb        	ldx	#$bb
    5842: 86 12        	stx	$12                     ; 0x12 <__rc2>
    5844: a2 8a        	ldx	#$8a
    5846: 86 13        	stx	$13                     ; 0x13 <__rc3>
    5848: 20 90 33     	jsr	$3390 <textPrint>
    584b: a6 88        	ldx	$88                     ; 0x88 <__zp_bss_size+0x33>
    584d: 86 12        	stx	$12                     ; 0x12 <__rc2>
    584f: a6 89        	ldx	$89                     ; 0x89 <__zp_bss_size+0x34>
    5851: 86 13        	stx	$13                     ; 0x13 <__rc3>
    5853: 20 6f 53     	jsr	$536f <channelTextMenu>
    5856: a2 40        	ldx	#$40
    5858: 86 30        	stx	$30                     ; 0x30 <_ccolor>
    585a: a0 09        	ldy	#$9
    585c: b1 88        	lda	($88),y                 ; 0x88 <__zp_bss_size+0x33>
    585e: 20 51 55     	jsr	$5551 <updateTempoText>
    5861: a2 2d        	ldx	#$2d
    5863: 86 33        	stx	$33                     ; 0x33 <_col>
    5865: 8e 14 d0     	stx	$d014                   ; 0xd014 <end_block9+0x3776>
    5868: 86 8c        	stx	$8c                     ; 0x8c <__zp_bss_size+0x37>
    586a: 9c 15 d0     	stz	$d015                   ; 0xd015 <end_block9+0x3777>
    586d: a2 1a        	ldx	#$1a
    586f: 86 34        	stx	$34                     ; 0x34 <_row>
    5871: 8e 16 d0     	stx	$d016                   ; 0xd016 <end_block9+0x3778>
    5874: 9c 17 d0     	stz	$d017                   ; 0xd017 <end_block9+0x3779>
    5877: a2 b3        	ldx	#$b3
    5879: 86 12        	stx	$12                     ; 0x12 <__rc2>
    587b: a2 86        	ldx	#$86
    587d: 86 13        	stx	$13                     ; 0x13 <__rc3>
    587f: 20 90 33     	jsr	$3390 <textPrint>
    5882: a6 8c        	ldx	$8c                     ; 0x8c <__zp_bss_size+0x37>
    5884: 86 33        	stx	$33                     ; 0x33 <_col>
    5886: 8e 14 d0     	stx	$d014                   ; 0xd014 <end_block9+0x3776>
    5889: 9c 15 d0     	stz	$d015                   ; 0xd015 <end_block9+0x3777>
    588c: a2 1b        	ldx	#$1b
    588e: 86 34        	stx	$34                     ; 0x34 <_row>
    5890: 8e 16 d0     	stx	$d016                   ; 0xd016 <end_block9+0x3778>
    5893: 9c 17 d0     	stz	$d017                   ; 0xd017 <end_block9+0x3779>
    5896: a2 ba        	ldx	#$ba
    5898: 86 12        	stx	$12                     ; 0x12 <__rc2>
    589a: a2 87        	ldx	#$87
    589c: 86 13        	stx	$13                     ; 0x13 <__rc3>
    589e: 20 90 33     	jsr	$3390 <textPrint>
    58a1: a6 88        	ldx	$88                     ; 0x88 <__zp_bss_size+0x33>
    58a3: 86 12        	stx	$12                     ; 0x12 <__rc2>
    58a5: a6 89        	ldx	$89                     ; 0x89 <__zp_bss_size+0x34>
    58a7: 86 13        	stx	$13                     ; 0x13 <__rc3>
    58a9: 20 ba 54     	jsr	$54ba <refreshBeatTextChoice>
    58ac: a2 40        	ldx	#$40
    58ae: 86 30        	stx	$30                     ; 0x30 <_ccolor>
    58b0: 64 33        	stz	$33                     ; 0x33 <_col>
    58b2: 9c 14 d0     	stz	$d014                   ; 0xd014 <end_block9+0x3776>
    58b5: 9c 15 d0     	stz	$d015                   ; 0xd015 <end_block9+0x3777>
    58b8: a2 23        	ldx	#$23
    58ba: 86 34        	stx	$34                     ; 0x34 <_row>
    58bc: 8e 16 d0     	stx	$d016                   ; 0xd016 <end_block9+0x3778>
    58bf: 9c 17 d0     	stz	$d017                   ; 0xd017 <end_block9+0x3779>
    58c2: a9 f8        	lda	#$f8
    58c4: 92 10        	sta	($10)                   ; 0x10 <__rc0>
    58c6: aa           	tax
    58c7: a4 88        	ldy	$88                     ; 0x88 <__zp_bss_size+0x33>
    58c9: 84 8d        	sty	$8d                     ; 0x8d <__zp_bss_size+0x38>
    58cb: a4 89        	ldy	$89                     ; 0x89 <__zp_bss_size+0x34>
    58cd: 84 8e        	sty	$8e                     ; 0x8e <__zp_bss_size+0x39>
    58cf: 86 88        	stx	$88                     ; 0x88 <__zp_bss_size+0x33>
    58d1: a4 8a        	ldy	$8a                     ; 0x8a <__zp_bss_size+0x35>
    58d3: a9 00        	lda	#$0
    58d5: 91 10        	sta	($10),y                 ; 0x10 <__rc0>
    58d7: a4 8b        	ldy	$8b                     ; 0x8b <__zp_bss_size+0x36>
    58d9: a9 fb        	lda	#$fb
    58db: 91 10        	sta	($10),y                 ; 0x10 <__rc0>
    58dd: aa           	tax
    58de: 86 8c        	stx	$8c                     ; 0x8c <__zp_bss_size+0x37>
    58e0: a0 03        	ldy	#$3
    58e2: a9 00        	lda	#$0
    58e4: 91 10        	sta	($10),y                 ; 0x10 <__rc0>
    58e6: a2 f0        	ldx	#$f0
    58e8: 86 12        	stx	$12                     ; 0x12 <__rc2>
    58ea: a2 8c        	ldx	#$8c
    58ec: 86 13        	stx	$13                     ; 0x13 <__rc3>
    58ee: 20 c3 5f     	jsr	$5fc3 <printf>
    58f1: 64 33        	stz	$33                     ; 0x33 <_col>
    58f3: 9c 14 d0     	stz	$d014                   ; 0xd014 <end_block9+0x3776>
    58f6: 9c 15 d0     	stz	$d015                   ; 0xd015 <end_block9+0x3777>
    58f9: a2 24        	ldx	#$24
    58fb: 86 34        	stx	$34                     ; 0x34 <_row>
    58fd: 8e 16 d0     	stx	$d016                   ; 0xd016 <end_block9+0x3778>
    5900: 9c 17 d0     	stz	$d017                   ; 0xd017 <end_block9+0x3779>
    5903: a5 88        	lda	$88                     ; 0x88 <__zp_bss_size+0x33>
    5905: 92 10        	sta	($10)                   ; 0x10 <__rc0>
    5907: a4 8a        	ldy	$8a                     ; 0x8a <__zp_bss_size+0x35>
    5909: a9 00        	lda	#$0
    590b: 91 10        	sta	($10),y                 ; 0x10 <__rc0>
    590d: a4 8b        	ldy	$8b                     ; 0x8b <__zp_bss_size+0x36>
    590f: a5 8c        	lda	$8c                     ; 0x8c <__zp_bss_size+0x37>
    5911: 91 10        	sta	($10),y                 ; 0x10 <__rc0>
    5913: a0 03        	ldy	#$3
    5915: a9 00        	lda	#$0
    5917: 91 10        	sta	($10),y                 ; 0x10 <__rc0>
    5919: c8           	iny
    591a: a5 88        	lda	$88                     ; 0x88 <__zp_bss_size+0x33>
    591c: 91 10        	sta	($10),y                 ; 0x10 <__rc0>
    591e: c8           	iny
    591f: a9 00        	lda	#$0
    5921: 91 10        	sta	($10),y                 ; 0x10 <__rc0>
    5923: c8           	iny
    5924: a5 8c        	lda	$8c                     ; 0x8c <__zp_bss_size+0x37>
    5926: 91 10        	sta	($10),y                 ; 0x10 <__rc0>
    5928: c8           	iny
    5929: a9 00        	lda	#$0
    592b: 91 10        	sta	($10),y                 ; 0x10 <__rc0>
    592d: a2 15        	ldx	#$15
    592f: 86 12        	stx	$12                     ; 0x12 <__rc2>
    5931: a2 8d        	ldx	#$8d
    5933: 86 13        	stx	$13                     ; 0x13 <__rc3>
    5935: 20 c3 5f     	jsr	$5fc3 <printf>
    5938: 64 33        	stz	$33                     ; 0x33 <_col>
    593a: 9c 14 d0     	stz	$d014                   ; 0xd014 <end_block9+0x3776>
    593d: 9c 15 d0     	stz	$d015                   ; 0xd015 <end_block9+0x3777>
    5940: a2 28        	ldx	#$28
    5942: 86 34        	stx	$34                     ; 0x34 <_row>
    5944: 8e 16 d0     	stx	$d016                   ; 0xd016 <end_block9+0x3778>
    5947: 9c 17 d0     	stz	$d017                   ; 0xd017 <end_block9+0x3779>
    594a: a2 86        	ldx	#$86
    594c: 86 12        	stx	$12                     ; 0x12 <__rc2>
    594e: a2 91        	ldx	#$91
    5950: 86 13        	stx	$13                     ; 0x13 <__rc3>
    5952: 20 90 33     	jsr	$3390 <textPrint>
    5955: 64 33        	stz	$33                     ; 0x33 <_col>
    5957: 9c 14 d0     	stz	$d014                   ; 0xd014 <end_block9+0x3776>
    595a: 9c 15 d0     	stz	$d015                   ; 0xd015 <end_block9+0x3777>
    595d: a2 29        	ldx	#$29
    595f: 86 34        	stx	$34                     ; 0x34 <_row>
    5961: 8e 16 d0     	stx	$d016                   ; 0xd016 <end_block9+0x3778>
    5964: 9c 17 d0     	stz	$d017                   ; 0xd017 <end_block9+0x3779>
    5967: a9 f9        	lda	#$f9
    5969: 92 10        	sta	($10)                   ; 0x10 <__rc0>
    596b: a4 8a        	ldy	$8a                     ; 0x8a <__zp_bss_size+0x35>
    596d: a9 00        	lda	#$0
    596f: 91 10        	sta	($10),y                 ; 0x10 <__rc0>
    5971: a4 8b        	ldy	$8b                     ; 0x8b <__zp_bss_size+0x36>
    5973: a9 fa        	lda	#$fa
    5975: 91 10        	sta	($10),y                 ; 0x10 <__rc0>
    5977: aa           	tax
    5978: 86 88        	stx	$88                     ; 0x88 <__zp_bss_size+0x33>
    597a: a0 03        	ldy	#$3
    597c: a9 00        	lda	#$0
    597e: 91 10        	sta	($10),y                 ; 0x10 <__rc0>
    5980: a2 a3        	ldx	#$a3
    5982: 86 12        	stx	$12                     ; 0x12 <__rc2>
    5984: a2 8f        	ldx	#$8f
    5986: 86 13        	stx	$13                     ; 0x13 <__rc3>
    5988: 20 c3 5f     	jsr	$5fc3 <printf>
    598b: 64 33        	stz	$33                     ; 0x33 <_col>
    598d: 9c 14 d0     	stz	$d014                   ; 0xd014 <end_block9+0x3776>
    5990: 9c 15 d0     	stz	$d015                   ; 0xd015 <end_block9+0x3777>
    5993: a2 2a        	ldx	#$2a
    5995: 86 34        	stx	$34                     ; 0x34 <_row>
    5997: 8e 16 d0     	stx	$d016                   ; 0xd016 <end_block9+0x3778>
    599a: 9c 17 d0     	stz	$d017                   ; 0xd017 <end_block9+0x3779>
    599d: a4 8b        	ldy	$8b                     ; 0x8b <__zp_bss_size+0x36>
    599f: a5 88        	lda	$88                     ; 0x88 <__zp_bss_size+0x33>
    59a1: 91 10        	sta	($10),y                 ; 0x10 <__rc0>
    59a3: a9 f9        	lda	#$f9
    59a5: 92 10        	sta	($10)                   ; 0x10 <__rc0>
    59a7: a0 04        	ldy	#$4
    59a9: 91 10        	sta	($10),y                 ; 0x10 <__rc0>
    59ab: a9 00        	lda	#$0
    59ad: a4 8a        	ldy	$8a                     ; 0x8a <__zp_bss_size+0x35>
    59af: 91 10        	sta	($10),y                 ; 0x10 <__rc0>
    59b1: a0 03        	ldy	#$3
    59b3: 91 10        	sta	($10),y                 ; 0x10 <__rc0>
    59b5: a0 05        	ldy	#$5
    59b7: 91 10        	sta	($10),y                 ; 0x10 <__rc0>
    59b9: c8           	iny
    59ba: a5 88        	lda	$88                     ; 0x88 <__zp_bss_size+0x33>
    59bc: 91 10        	sta	($10),y                 ; 0x10 <__rc0>
    59be: c8           	iny
    59bf: a9 00        	lda	#$0
    59c1: 91 10        	sta	($10),y                 ; 0x10 <__rc0>
    59c3: a2 61        	ldx	#$61
    59c5: 86 12        	stx	$12                     ; 0x12 <__rc2>
    59c7: a2 8d        	ldx	#$8d
    59c9: 86 13        	stx	$13                     ; 0x13 <__rc3>
    59cb: 20 c3 5f     	jsr	$5fc3 <printf>
    59ce: a2 40        	ldx	#$40
    59d0: 86 30        	stx	$30                     ; 0x30 <_ccolor>
    59d2: a2 05        	ldx	#$5
    59d4: 86 33        	stx	$33                     ; 0x33 <_col>
    59d6: 8e 14 d0     	stx	$d014                   ; 0xd014 <end_block9+0x3776>
    59d9: 9c 15 d0     	stz	$d015                   ; 0xd015 <end_block9+0x3777>
    59dc: a2 39        	ldx	#$39
    59de: 86 34        	stx	$34                     ; 0x34 <_row>
    59e0: 8e 16 d0     	stx	$d016                   ; 0xd016 <end_block9+0x3778>
    59e3: 9c 17 d0     	stz	$d017                   ; 0xd017 <end_block9+0x3779>
    59e6: a2 5d        	ldx	#$5d
    59e8: 86 12        	stx	$12                     ; 0x12 <__rc2>
    59ea: a2 8e        	ldx	#$8e
    59ec: 86 13        	stx	$13                     ; 0x13 <__rc3>
    59ee: 20 90 33     	jsr	$3390 <textPrint>
    59f1: a2 40        	ldx	#$40
    59f3: 86 30        	stx	$30                     ; 0x30 <_ccolor>
    59f5: a2 05        	ldx	#$5
    59f7: 86 33        	stx	$33                     ; 0x33 <_col>
    59f9: 8e 14 d0     	stx	$d014                   ; 0xd014 <end_block9+0x3776>
    59fc: 9c 15 d0     	stz	$d015                   ; 0xd015 <end_block9+0x3777>
    59ff: a2 3a        	ldx	#$3a
    5a01: 86 34        	stx	$34                     ; 0x34 <_row>
    5a03: 8e 16 d0     	stx	$d016                   ; 0xd016 <end_block9+0x3778>
    5a06: 9c 17 d0     	stz	$d017                   ; 0xd017 <end_block9+0x3779>
    5a09: a2 18        	ldx	#$18
    5a0b: 86 12        	stx	$12                     ; 0x12 <__rc2>
    5a0d: a2 90        	ldx	#$90
    5a0f: 86 13        	stx	$13                     ; 0x13 <__rc3>
    5a11: 20 90 33     	jsr	$3390 <textPrint>
    5a14: a6 8d        	ldx	$8d                     ; 0x8d <__zp_bss_size+0x38>
    5a16: 86 12        	stx	$12                     ; 0x12 <__rc2>
    5a18: a6 8e        	ldx	$8e                     ; 0x8e <__zp_bss_size+0x39>
    5a1a: 86 13        	stx	$13                     ; 0x13 <__rc3>
    5a1c: 20 ab 55     	jsr	$55ab <showChipChoiceText>
    5a1f: a2 40        	ldx	#$40
    5a21: 86 30        	stx	$30                     ; 0x30 <_ccolor>
    5a23: a2 3c        	ldx	#$3c
    5a25: 86 33        	stx	$33                     ; 0x33 <_col>
    5a27: 8e 14 d0     	stx	$d014                   ; 0xd014 <end_block9+0x3776>
    5a2a: 9c 15 d0     	stz	$d015                   ; 0xd015 <end_block9+0x3777>
    5a2d: a2 03        	ldx	#$3
    5a2f: 86 34        	stx	$34                     ; 0x34 <_row>
    5a31: 8e 16 d0     	stx	$d016                   ; 0xd016 <end_block9+0x3778>
    5a34: 9c 17 d0     	stz	$d017                   ; 0xd017 <end_block9+0x3779>
    5a37: a2 7d        	ldx	#$7d
    5a39: 86 12        	stx	$12                     ; 0x12 <__rc2>
    5a3b: a2 91        	ldx	#$91
    5a3d: 86 13        	stx	$13                     ; 0x13 <__rc3>
    5a3f: 20 90 33     	jsr	$3390 <textPrint>
    5a42: a9 b3        	lda	#$b3
    5a44: 92 10        	sta	($10)                   ; 0x10 <__rc0>
    5a46: aa           	tax
    5a47: 86 8b        	stx	$8b                     ; 0x8b <__zp_bss_size+0x36>
    5a49: a4 8a        	ldy	$8a                     ; 0x8a <__zp_bss_size+0x35>
    5a4b: a9 00        	lda	#$0
    5a4d: 91 10        	sta	($10),y                 ; 0x10 <__rc0>
    5a4f: a2 48        	ldx	#$48
    5a51: 86 88        	stx	$88                     ; 0x88 <__zp_bss_size+0x33>
    5a53: a2 8f        	ldx	#$8f
    5a55: 86 89        	stx	$89                     ; 0x89 <__zp_bss_size+0x34>
    5a57: a2 48        	ldx	#$48
    5a59: 86 12        	stx	$12                     ; 0x12 <__rc2>
    5a5b: a2 8f        	ldx	#$8f
    5a5d: 86 13        	stx	$13                     ; 0x13 <__rc3>
    5a5f: 20 c3 5f     	jsr	$5fc3 <printf>
    5a62: a2 3c        	ldx	#$3c
    5a64: 86 33        	stx	$33                     ; 0x33 <_col>
    5a66: 8e 14 d0     	stx	$d014                   ; 0xd014 <end_block9+0x3776>
    5a69: 86 8c        	stx	$8c                     ; 0x8c <__zp_bss_size+0x37>
    5a6b: 9c 15 d0     	stz	$d015                   ; 0xd015 <end_block9+0x3777>
    5a6e: a2 04        	ldx	#$4
    5a70: 86 34        	stx	$34                     ; 0x34 <_row>
    5a72: 8e 16 d0     	stx	$d016                   ; 0xd016 <end_block9+0x3778>
    5a75: 9c 17 d0     	stz	$d017                   ; 0xd017 <end_block9+0x3779>
    5a78: a2 12        	ldx	#$12
    5a7a: 86 12        	stx	$12                     ; 0x12 <__rc2>
    5a7c: a2 92        	ldx	#$92
    5a7e: 86 13        	stx	$13                     ; 0x13 <__rc3>
    5a80: 20 90 33     	jsr	$3390 <textPrint>
    5a83: a5 8b        	lda	$8b                     ; 0x8b <__zp_bss_size+0x36>
    5a85: 92 10        	sta	($10)                   ; 0x10 <__rc0>
    5a87: a4 8a        	ldy	$8a                     ; 0x8a <__zp_bss_size+0x35>
    5a89: a9 00        	lda	#$0
    5a8b: 91 10        	sta	($10),y                 ; 0x10 <__rc0>
    5a8d: a2 48        	ldx	#$48
    5a8f: 86 12        	stx	$12                     ; 0x12 <__rc2>
    5a91: a2 8f        	ldx	#$8f
    5a93: 86 13        	stx	$13                     ; 0x13 <__rc3>
    5a95: 20 c3 5f     	jsr	$5fc3 <printf>
    5a98: a6 8c        	ldx	$8c                     ; 0x8c <__zp_bss_size+0x37>
    5a9a: 86 33        	stx	$33                     ; 0x33 <_col>
    5a9c: 8e 14 d0     	stx	$d014                   ; 0xd014 <end_block9+0x3776>
    5a9f: 9c 15 d0     	stz	$d015                   ; 0xd015 <end_block9+0x3777>
    5aa2: a2 05        	ldx	#$5
    5aa4: 86 34        	stx	$34                     ; 0x34 <_row>
    5aa6: 8e 16 d0     	stx	$d016                   ; 0xd016 <end_block9+0x3778>
    5aa9: 9c 17 d0     	stz	$d017                   ; 0xd017 <end_block9+0x3779>
    5aac: a2 1b        	ldx	#$1b
    5aae: 86 12        	stx	$12                     ; 0x12 <__rc2>
    5ab0: a2 8c        	ldx	#$8c
    5ab2: 86 13        	stx	$13                     ; 0x13 <__rc3>
    5ab4: 20 90 33     	jsr	$3390 <textPrint>
    5ab7: a5 8b        	lda	$8b                     ; 0x8b <__zp_bss_size+0x36>
    5ab9: 92 10        	sta	($10)                   ; 0x10 <__rc0>
    5abb: a4 8a        	ldy	$8a                     ; 0x8a <__zp_bss_size+0x35>
    5abd: a9 00        	lda	#$0
    5abf: 91 10        	sta	($10),y                 ; 0x10 <__rc0>
    5ac1: a2 48        	ldx	#$48
    5ac3: 86 12        	stx	$12                     ; 0x12 <__rc2>
    5ac5: a2 8f        	ldx	#$8f
    5ac7: 86 13        	stx	$13                     ; 0x13 <__rc3>
    5ac9: 20 c3 5f     	jsr	$5fc3 <printf>
    5acc: a2 3c        	ldx	#$3c
    5ace: 86 33        	stx	$33                     ; 0x33 <_col>
    5ad0: 8e 14 d0     	stx	$d014                   ; 0xd014 <end_block9+0x3776>
    5ad3: 86 8c        	stx	$8c                     ; 0x8c <__zp_bss_size+0x37>
    5ad5: 9c 15 d0     	stz	$d015                   ; 0xd015 <end_block9+0x3777>
    5ad8: a2 06        	ldx	#$6
    5ada: 86 34        	stx	$34                     ; 0x34 <_row>
    5adc: 8e 16 d0     	stx	$d016                   ; 0xd016 <end_block9+0x3778>
    5adf: 9c 17 d0     	stz	$d017                   ; 0xd017 <end_block9+0x3779>
    5ae2: a2 a1        	ldx	#$a1
    5ae4: 86 12        	stx	$12                     ; 0x12 <__rc2>
    5ae6: a2 88        	ldx	#$88
    5ae8: 86 13        	stx	$13                     ; 0x13 <__rc3>
    5aea: 20 90 33     	jsr	$3390 <textPrint>
    5aed: a5 8b        	lda	$8b                     ; 0x8b <__zp_bss_size+0x36>
    5aef: 92 10        	sta	($10)                   ; 0x10 <__rc0>
    5af1: a4 8a        	ldy	$8a                     ; 0x8a <__zp_bss_size+0x35>
    5af3: a9 00        	lda	#$0
    5af5: 91 10        	sta	($10),y                 ; 0x10 <__rc0>
    5af7: a2 48        	ldx	#$48
    5af9: 86 12        	stx	$12                     ; 0x12 <__rc2>
    5afb: a2 8f        	ldx	#$8f
    5afd: 86 13        	stx	$13                     ; 0x13 <__rc3>
    5aff: 20 c3 5f     	jsr	$5fc3 <printf>
    5b02: a6 8c        	ldx	$8c                     ; 0x8c <__zp_bss_size+0x37>
    5b04: 86 33        	stx	$33                     ; 0x33 <_col>
    5b06: 8e 14 d0     	stx	$d014                   ; 0xd014 <end_block9+0x3776>
    5b09: 9c 15 d0     	stz	$d015                   ; 0xd015 <end_block9+0x3777>
    5b0c: a2 07        	ldx	#$7
    5b0e: 86 34        	stx	$34                     ; 0x34 <_row>
    5b10: 8e 16 d0     	stx	$d016                   ; 0xd016 <end_block9+0x3778>
    5b13: 9c 17 d0     	stz	$d017                   ; 0xd017 <end_block9+0x3779>
    5b16: a2 24        	ldx	#$24
    5b18: 86 12        	stx	$12                     ; 0x12 <__rc2>
    5b1a: a2 8c        	ldx	#$8c
    5b1c: 86 13        	stx	$13                     ; 0x13 <__rc3>
    5b1e: 20 90 33     	jsr	$3390 <textPrint>
    5b21: a5 8b        	lda	$8b                     ; 0x8b <__zp_bss_size+0x36>
    5b23: 92 10        	sta	($10)                   ; 0x10 <__rc0>
    5b25: a4 8a        	ldy	$8a                     ; 0x8a <__zp_bss_size+0x35>
    5b27: a9 00        	lda	#$0
    5b29: 91 10        	sta	($10),y                 ; 0x10 <__rc0>
    5b2b: a2 48        	ldx	#$48
    5b2d: 86 12        	stx	$12                     ; 0x12 <__rc2>
    5b2f: a2 8f        	ldx	#$8f
    5b31: 86 13        	stx	$13                     ; 0x13 <__rc3>
    5b33: 20 c3 5f     	jsr	$5fc3 <printf>
    5b36: 18           	clc
    5b37: a5 10        	lda	$10                     ; 0x10 <__rc0>
    5b39: 69 08        	adc	#$8
    5b3b: 85 10        	sta	$10                     ; 0x10 <__rc0>
    5b3d: a5 11        	lda	$11                     ; 0x11 <__rc1>
    5b3f: 69 00        	adc	#$0
    5b41: 85 11        	sta	$11                     ; 0x11 <__rc1>
    5b43: 60           	rts

00005b44 <highLightInstChoice>:
    5b44: 48           	pha
    5b45: 18           	clc
    5b46: a5 10        	lda	$10                     ; 0x10 <__rc0>
    5b48: 69 fc        	adc	#$fc
    5b4a: 85 10        	sta	$10                     ; 0x10 <__rc0>
    5b4c: a5 11        	lda	$11                     ; 0x11 <__rc1>
    5b4e: 69 ff        	adc	#$ff
    5b50: 85 11        	sta	$11                     ; 0x11 <__rc1>
    5b52: 68           	pla
    5b53: a6 12        	ldx	$12                     ; 0x12 <__rc2>
    5b55: 86 88        	stx	$88                     ; 0x88 <__zp_bss_size+0x33>
    5b57: a6 13        	ldx	$13                     ; 0x13 <__rc3>
    5b59: 86 89        	stx	$89                     ; 0x89 <__zp_bss_size+0x34>
    5b5b: aa           	tax
    5b5c: f0 04        	beq	$5b62 <highLightInstChoice+0x1e>
    5b5e: a2 90        	ldx	#$90
    5b60: 80 02        	bra	$5b64 <highLightInstChoice+0x20>
    5b62: a2 50        	ldx	#$50
    5b64: 86 30        	stx	$30                     ; 0x30 <_ccolor>
    5b66: a0 06        	ldy	#$6
    5b68: b1 88        	lda	($88),y                 ; 0x88 <__zp_bss_size+0x33>
    5b6a: f0 03        	beq	$5b6f <highLightInstChoice+0x2b>
    5b6c: 4c 12 5c     	jmp	$5c12 <highLightInstChoice+0xce>
    5b6f: b2 88        	lda	($88)                   ; 0x88 <__zp_bss_size+0x33>
    5b71: 85 12        	sta	$12                     ; 0x12 <__rc2>
    5b73: a0 01        	ldy	#$1
    5b75: b1 88        	lda	($88),y                 ; 0x88 <__zp_bss_size+0x33>
    5b77: 85 13        	sta	$13                     ; 0x13 <__rc3>
    5b79: a0 03        	ldy	#$3
    5b7b: b1 88        	lda	($88),y                 ; 0x88 <__zp_bss_size+0x33>
    5b7d: a8           	tay
    5b7e: b1 12        	lda	($12),y                 ; 0x12 <__rc2>
    5b80: a2 9c        	ldx	#$9c
    5b82: a0 98        	ldy	#$98
    5b84: 86 12        	stx	$12                     ; 0x12 <__rc2>
    5b86: 84 13        	sty	$13                     ; 0x13 <__rc3>
    5b88: a2 03        	ldx	#$3
    5b8a: 20 c1 71     	jsr	$71c1 <__udivmodqi4>
    5b8d: 8d 9d 98     	sta	$989d                   ; 0x989d <__data_load_start+0x21>
    5b90: ad 9c 98     	lda	$989c                   ; 0x989c <__data_load_start+0x20>
    5b93: a2 19        	ldx	#$19
    5b95: 20 6e 82     	jsr	$826e <__mulqi3>
    5b98: 18           	clc
    5b99: 69 02        	adc	#$2
    5b9b: ae 9d 98     	ldx	$989d                   ; 0x989d <__data_load_start+0x21>
    5b9e: e8           	inx
    5b9f: 85 33        	sta	$33                     ; 0x33 <_col>
    5ba1: 8d 14 d0     	sta	$d014                   ; 0xd014 <end_block9+0x3776>
    5ba4: 9c 15 d0     	stz	$d015                   ; 0xd015 <end_block9+0x3777>
    5ba7: 86 34        	stx	$34                     ; 0x34 <_row>
    5ba9: 8e 16 d0     	stx	$d016                   ; 0xd016 <end_block9+0x3778>
    5bac: 9c 17 d0     	stz	$d017                   ; 0xd017 <end_block9+0x3779>
    5baf: b2 88        	lda	($88)                   ; 0x88 <__zp_bss_size+0x33>
    5bb1: 85 12        	sta	$12                     ; 0x12 <__rc2>
    5bb3: a0 01        	ldy	#$1
    5bb5: b1 88        	lda	($88),y                 ; 0x88 <__zp_bss_size+0x33>
    5bb7: 85 13        	sta	$13                     ; 0x13 <__rc3>
    5bb9: a0 03        	ldy	#$3
    5bbb: b1 88        	lda	($88),y                 ; 0x88 <__zp_bss_size+0x33>
    5bbd: a8           	tay
    5bbe: b1 12        	lda	($12),y                 ; 0x12 <__rc2>
    5bc0: aa           	tax
    5bc1: 0a           	asl
    5bc2: 85 12        	sta	$12                     ; 0x12 <__rc2>
    5bc4: a9 00        	lda	#$0
    5bc6: 2a           	rol
    5bc7: 85 13        	sta	$13                     ; 0x13 <__rc3>
    5bc9: a9 3c        	lda	#$3c
    5bcb: 18           	clc
    5bcc: 65 12        	adc	$12                     ; 0x12 <__rc2>
    5bce: 85 12        	sta	$12                     ; 0x12 <__rc2>
    5bd0: a9 97        	lda	#$97
    5bd2: 65 13        	adc	$13                     ; 0x13 <__rc3>
    5bd4: 85 13        	sta	$13                     ; 0x13 <__rc3>
    5bd6: b2 12        	lda	($12)                   ; 0x12 <__rc2>
    5bd8: 85 16        	sta	$16                     ; 0x16 <__rc6>
    5bda: a0 01        	ldy	#$1
    5bdc: b1 12        	lda	($12),y                 ; 0x12 <__rc2>
    5bde: 84 15        	sty	$15                     ; 0x15 <__rc5>
    5be0: 85 14        	sta	$14                     ; 0x14 <__rc4>
    5be2: a5 10        	lda	$10                     ; 0x10 <__rc0>
    5be4: 18           	clc
    5be5: 69 02        	adc	#$2
    5be7: 85 12        	sta	$12                     ; 0x12 <__rc2>
    5be9: a5 11        	lda	$11                     ; 0x11 <__rc1>
    5beb: 69 00        	adc	#$0
    5bed: 85 13        	sta	$13                     ; 0x13 <__rc3>
    5bef: c8           	iny
    5bf0: a5 16        	lda	$16                     ; 0x16 <__rc6>
    5bf2: 91 10        	sta	($10),y                 ; 0x10 <__rc0>
    5bf4: 8a           	txa
    5bf5: 92 10        	sta	($10)                   ; 0x10 <__rc0>
    5bf7: a9 00        	lda	#$0
    5bf9: a4 15        	ldy	$15                     ; 0x15 <__rc5>
    5bfb: 91 10        	sta	($10),y                 ; 0x10 <__rc0>
    5bfd: a0 01        	ldy	#$1
    5bff: a5 14        	lda	$14                     ; 0x14 <__rc4>
    5c01: 91 12        	sta	($12),y                 ; 0x12 <__rc2>
    5c03: a2 8c        	ldx	#$8c
    5c05: 86 12        	stx	$12                     ; 0x12 <__rc2>
    5c07: a2 87        	ldx	#$87
    5c09: 86 13        	stx	$13                     ; 0x13 <__rc3>
    5c0b: 20 c3 5f     	jsr	$5fc3 <printf>
    5c0e: a0 06        	ldy	#$6
    5c10: b1 88        	lda	($88),y                 ; 0x88 <__zp_bss_size+0x33>
    5c12: c9 01        	cmp	#$1
    5c14: f0 03        	beq	$5c19 <highLightInstChoice+0xd5>
    5c16: 4c 84 5c     	jmp	$5c84 <highLightInstChoice+0x140>
    5c19: a0 04        	ldy	#$4
    5c1b: 18           	clc
    5c1c: a9 02        	lda	#$2
    5c1e: 71 88        	adc	($88),y                 ; 0x88 <__zp_bss_size+0x33>
    5c20: a2 02        	ldx	#$2
    5c22: 86 33        	stx	$33                     ; 0x33 <_col>
    5c24: 8e 14 d0     	stx	$d014                   ; 0xd014 <end_block9+0x3776>
    5c27: 9c 15 d0     	stz	$d015                   ; 0xd015 <end_block9+0x3777>
    5c2a: 85 34        	sta	$34                     ; 0x34 <_row>
    5c2c: 8d 16 d0     	sta	$d016                   ; 0xd016 <end_block9+0x3778>
    5c2f: 9c 17 d0     	stz	$d017                   ; 0xd017 <end_block9+0x3779>
    5c32: b1 88        	lda	($88),y                 ; 0x88 <__zp_bss_size+0x33>
    5c34: aa           	tax
    5c35: 0a           	asl
    5c36: 85 12        	sta	$12                     ; 0x12 <__rc2>
    5c38: a9 00        	lda	#$0
    5c3a: 2a           	rol
    5c3b: 85 13        	sta	$13                     ; 0x13 <__rc3>
    5c3d: a9 46        	lda	#$46
    5c3f: 18           	clc
    5c40: 65 12        	adc	$12                     ; 0x12 <__rc2>
    5c42: 85 12        	sta	$12                     ; 0x12 <__rc2>
    5c44: a9 98        	lda	#$98
    5c46: 65 13        	adc	$13                     ; 0x13 <__rc3>
    5c48: a0 01        	ldy	#$1
    5c4a: 85 13        	sta	$13                     ; 0x13 <__rc3>
    5c4c: b2 12        	lda	($12)                   ; 0x12 <__rc2>
    5c4e: 85 16        	sta	$16                     ; 0x16 <__rc6>
    5c50: b1 12        	lda	($12),y                 ; 0x12 <__rc2>
    5c52: 84 15        	sty	$15                     ; 0x15 <__rc5>
    5c54: 85 14        	sta	$14                     ; 0x14 <__rc4>
    5c56: a5 10        	lda	$10                     ; 0x10 <__rc0>
    5c58: 18           	clc
    5c59: 69 02        	adc	#$2
    5c5b: 85 12        	sta	$12                     ; 0x12 <__rc2>
    5c5d: a5 11        	lda	$11                     ; 0x11 <__rc1>
    5c5f: 69 00        	adc	#$0
    5c61: 85 13        	sta	$13                     ; 0x13 <__rc3>
    5c63: c8           	iny
    5c64: a5 16        	lda	$16                     ; 0x16 <__rc6>
    5c66: 91 10        	sta	($10),y                 ; 0x10 <__rc0>
    5c68: 8a           	txa
    5c69: 92 10        	sta	($10)                   ; 0x10 <__rc0>
    5c6b: a9 00        	lda	#$0
    5c6d: a4 15        	ldy	$15                     ; 0x15 <__rc5>
    5c6f: 91 10        	sta	($10),y                 ; 0x10 <__rc0>
    5c71: a5 14        	lda	$14                     ; 0x14 <__rc4>
    5c73: 91 12        	sta	($12),y                 ; 0x12 <__rc2>
    5c75: a2 8c        	ldx	#$8c
    5c77: 86 12        	stx	$12                     ; 0x12 <__rc2>
    5c79: a2 87        	ldx	#$87
    5c7b: 86 13        	stx	$13                     ; 0x13 <__rc3>
    5c7d: 20 c3 5f     	jsr	$5fc3 <printf>
    5c80: a0 06        	ldy	#$6
    5c82: b1 88        	lda	($88),y                 ; 0x88 <__zp_bss_size+0x33>
    5c84: c9 03        	cmp	#$3
    5c86: f0 03        	beq	$5c8b <highLightInstChoice+0x147>
    5c88: 4c f2 5c     	jmp	$5cf2 <highLightInstChoice+0x1ae>
    5c8b: a0 05        	ldy	#$5
    5c8d: 18           	clc
    5c8e: a9 02        	lda	#$2
    5c90: 71 88        	adc	($88),y                 ; 0x88 <__zp_bss_size+0x33>
    5c92: a2 02        	ldx	#$2
    5c94: 86 33        	stx	$33                     ; 0x33 <_col>
    5c96: 8e 14 d0     	stx	$d014                   ; 0xd014 <end_block9+0x3776>
    5c99: 9c 15 d0     	stz	$d015                   ; 0xd015 <end_block9+0x3777>
    5c9c: 85 34        	sta	$34                     ; 0x34 <_row>
    5c9e: 8d 16 d0     	sta	$d016                   ; 0xd016 <end_block9+0x3778>
    5ca1: 9c 17 d0     	stz	$d017                   ; 0xd017 <end_block9+0x3779>
    5ca4: b1 88        	lda	($88),y                 ; 0x88 <__zp_bss_size+0x33>
    5ca6: aa           	tax
    5ca7: 0a           	asl
    5ca8: 85 12        	sta	$12                     ; 0x12 <__rc2>
    5caa: a9 00        	lda	#$0
    5cac: 2a           	rol
    5cad: 85 13        	sta	$13                     ; 0x13 <__rc3>
    5caf: a9 50        	lda	#$50
    5cb1: 18           	clc
    5cb2: 65 12        	adc	$12                     ; 0x12 <__rc2>
    5cb4: 85 12        	sta	$12                     ; 0x12 <__rc2>
    5cb6: a9 98        	lda	#$98
    5cb8: 65 13        	adc	$13                     ; 0x13 <__rc3>
    5cba: a0 01        	ldy	#$1
    5cbc: 85 13        	sta	$13                     ; 0x13 <__rc3>
    5cbe: b2 12        	lda	($12)                   ; 0x12 <__rc2>
    5cc0: 85 16        	sta	$16                     ; 0x16 <__rc6>
    5cc2: b1 12        	lda	($12),y                 ; 0x12 <__rc2>
    5cc4: 84 15        	sty	$15                     ; 0x15 <__rc5>
    5cc6: 85 14        	sta	$14                     ; 0x14 <__rc4>
    5cc8: a5 10        	lda	$10                     ; 0x10 <__rc0>
    5cca: 18           	clc
    5ccb: 69 02        	adc	#$2
    5ccd: 85 12        	sta	$12                     ; 0x12 <__rc2>
    5ccf: a5 11        	lda	$11                     ; 0x11 <__rc1>
    5cd1: 69 00        	adc	#$0
    5cd3: 85 13        	sta	$13                     ; 0x13 <__rc3>
    5cd5: c8           	iny
    5cd6: a5 16        	lda	$16                     ; 0x16 <__rc6>
    5cd8: 91 10        	sta	($10),y                 ; 0x10 <__rc0>
    5cda: 8a           	txa
    5cdb: 92 10        	sta	($10)                   ; 0x10 <__rc0>
    5cdd: a9 00        	lda	#$0
    5cdf: a4 15        	ldy	$15                     ; 0x15 <__rc5>
    5ce1: 91 10        	sta	($10),y                 ; 0x10 <__rc0>
    5ce3: a5 14        	lda	$14                     ; 0x14 <__rc4>
    5ce5: 91 12        	sta	($12),y                 ; 0x12 <__rc2>
    5ce7: a2 8c        	ldx	#$8c
    5ce9: 86 12        	stx	$12                     ; 0x12 <__rc2>
    5ceb: a2 87        	ldx	#$87
    5ced: 86 13        	stx	$13                     ; 0x13 <__rc3>
    5cef: 20 c3 5f     	jsr	$5fc3 <printf>
    5cf2: 18           	clc
    5cf3: a5 10        	lda	$10                     ; 0x10 <__rc0>
    5cf5: 69 04        	adc	#$4
    5cf7: 85 10        	sta	$10                     ; 0x10 <__rc0>
    5cf9: a5 11        	lda	$11                     ; 0x11 <__rc1>
    5cfb: 69 00        	adc	#$0
    5cfd: 85 11        	sta	$11                     ; 0x11 <__rc1>
    5cff: 60           	rts

00005d00 <modalMoveUp>:
    5d00: a6 24        	ldx	$24                     ; 0x24 <__rc20>
    5d02: da           	phx
    5d03: a6 25        	ldx	$25                     ; 0x25 <__rc21>
    5d05: da           	phx
    5d06: 8d 9b 98     	sta	$989b                   ; 0x989b <__data_load_start+0x1f>
    5d09: a6 12        	ldx	$12                     ; 0x12 <__rc2>
    5d0b: 86 24        	stx	$24                     ; 0x24 <__rc20>
    5d0d: a6 13        	ldx	$13                     ; 0x13 <__rc3>
    5d0f: 86 25        	stx	$25                     ; 0x25 <__rc21>
    5d11: a9 00        	lda	#$0
    5d13: 20 44 5b     	jsr	$5b44 <highLightInstChoice>
    5d16: a0 06        	ldy	#$6
    5d18: b1 24        	lda	($24),y                 ; 0x24 <__rc20>
    5d1a: d0 25        	bne	$5d41 <modalMoveUp+0x41>
    5d1c: a2 e5        	ldx	#$e5
    5d1e: ad 9b 98     	lda	$989b                   ; 0x989b <__data_load_start+0x1f>
    5d21: 20 6e 82     	jsr	$826e <__mulqi3>
    5d24: aa           	tax
    5d25: b2 24        	lda	($24)                   ; 0x24 <__rc20>
    5d27: 85 12        	sta	$12                     ; 0x12 <__rc2>
    5d29: a0 01        	ldy	#$1
    5d2b: b1 24        	lda	($24),y                 ; 0x24 <__rc20>
    5d2d: 85 13        	sta	$13                     ; 0x13 <__rc3>
    5d2f: a0 03        	ldy	#$3
    5d31: b1 24        	lda	($24),y                 ; 0x24 <__rc20>
    5d33: a8           	tay
    5d34: 18           	clc
    5d35: 8a           	txa
    5d36: 71 12        	adc	($12),y                 ; 0x12 <__rc2>
    5d38: 18           	clc
    5d39: 69 fd        	adc	#$fd
    5d3b: 91 12        	sta	($12),y                 ; 0x12 <__rc2>
    5d3d: a0 06        	ldy	#$6
    5d3f: b1 24        	lda	($24),y                 ; 0x24 <__rc20>
    5d41: c9 01        	cmp	#$1
    5d43: f0 08        	beq	$5d4d <modalMoveUp+0x4d>
    5d45: c9 03        	cmp	#$3
    5d47: d0 0b        	bne	$5d54 <modalMoveUp+0x54>
    5d49: a0 05        	ldy	#$5
    5d4b: 80 02        	bra	$5d4f <modalMoveUp+0x4f>
    5d4d: a0 04        	ldy	#$4
    5d4f: b1 24        	lda	($24),y                 ; 0x24 <__rc20>
    5d51: 3a           	dec
    5d52: 91 24        	sta	($24),y                 ; 0x24 <__rc20>
    5d54: a9 01        	lda	#$1
    5d56: a6 24        	ldx	$24                     ; 0x24 <__rc20>
    5d58: 86 12        	stx	$12                     ; 0x12 <__rc2>
    5d5a: a6 25        	ldx	$25                     ; 0x25 <__rc21>
    5d5c: 86 13        	stx	$13                     ; 0x13 <__rc3>
    5d5e: 20 44 5b     	jsr	$5b44 <highLightInstChoice>
    5d61: fa           	plx
    5d62: 86 25        	stx	$25                     ; 0x25 <__rc21>
    5d64: fa           	plx
    5d65: 86 24        	stx	$24                     ; 0x24 <__rc20>
    5d67: 60           	rts

00005d68 <modalMoveDown>:
    5d68: a6 24        	ldx	$24                     ; 0x24 <__rc20>
    5d6a: da           	phx
    5d6b: a6 25        	ldx	$25                     ; 0x25 <__rc21>
    5d6d: da           	phx
    5d6e: 8d 9b 98     	sta	$989b                   ; 0x989b <__data_load_start+0x1f>
    5d71: a6 12        	ldx	$12                     ; 0x12 <__rc2>
    5d73: 86 24        	stx	$24                     ; 0x24 <__rc20>
    5d75: a6 13        	ldx	$13                     ; 0x13 <__rc3>
    5d77: 86 25        	stx	$25                     ; 0x25 <__rc21>
    5d79: a9 00        	lda	#$0
    5d7b: 20 44 5b     	jsr	$5b44 <highLightInstChoice>
    5d7e: a0 06        	ldy	#$6
    5d80: b1 24        	lda	($24),y                 ; 0x24 <__rc20>
    5d82: d0 25        	bne	$5da9 <modalMoveDown+0x41>
    5d84: a2 1b        	ldx	#$1b
    5d86: ad 9b 98     	lda	$989b                   ; 0x989b <__data_load_start+0x1f>
    5d89: 20 6e 82     	jsr	$826e <__mulqi3>
    5d8c: aa           	tax
    5d8d: b2 24        	lda	($24)                   ; 0x24 <__rc20>
    5d8f: 85 12        	sta	$12                     ; 0x12 <__rc2>
    5d91: a0 01        	ldy	#$1
    5d93: b1 24        	lda	($24),y                 ; 0x24 <__rc20>
    5d95: 85 13        	sta	$13                     ; 0x13 <__rc3>
    5d97: a0 03        	ldy	#$3
    5d99: b1 24        	lda	($24),y                 ; 0x24 <__rc20>
    5d9b: a8           	tay
    5d9c: 18           	clc
    5d9d: 8a           	txa
    5d9e: 71 12        	adc	($12),y                 ; 0x12 <__rc2>
    5da0: 18           	clc
    5da1: 69 03        	adc	#$3
    5da3: 91 12        	sta	($12),y                 ; 0x12 <__rc2>
    5da5: a0 06        	ldy	#$6
    5da7: b1 24        	lda	($24),y                 ; 0x24 <__rc20>
    5da9: c9 01        	cmp	#$1
    5dab: f0 08        	beq	$5db5 <modalMoveDown+0x4d>
    5dad: c9 03        	cmp	#$3
    5daf: d0 0b        	bne	$5dbc <modalMoveDown+0x54>
    5db1: a0 05        	ldy	#$5
    5db3: 80 02        	bra	$5db7 <modalMoveDown+0x4f>
    5db5: a0 04        	ldy	#$4
    5db7: b1 24        	lda	($24),y                 ; 0x24 <__rc20>
    5db9: 1a           	inc
    5dba: 91 24        	sta	($24),y                 ; 0x24 <__rc20>
    5dbc: a9 01        	lda	#$1
    5dbe: a6 24        	ldx	$24                     ; 0x24 <__rc20>
    5dc0: 86 12        	stx	$12                     ; 0x12 <__rc2>
    5dc2: a6 25        	ldx	$25                     ; 0x25 <__rc21>
    5dc4: 86 13        	stx	$13                     ; 0x13 <__rc3>
    5dc6: 20 44 5b     	jsr	$5b44 <highLightInstChoice>
    5dc9: fa           	plx
    5dca: 86 25        	stx	$25                     ; 0x25 <__rc21>
    5dcc: fa           	plx
    5dcd: 86 24        	stx	$24                     ; 0x24 <__rc20>
    5dcf: 60           	rts

00005dd0 <exit>:
    5dd0: 20 1b 03     	jsr	$31b <_fini>
    5dd3: 80 fe        	bra	$5dd3 <exit+0x3>

00005dd5 <_ZN12_GLOBAL__N_13putEcP6Status>:
    5dd5: 85 18        	sta	$18                     ; 0x18 <__rc8>
    5dd7: a6 13        	ldx	$13                     ; 0x13 <__rc3>
    5dd9: 18           	clc
    5dda: a5 12        	lda	$12                     ; 0x12 <__rc2>
    5ddc: 69 05        	adc	#$5
    5dde: a8           	tay
    5ddf: a5 13        	lda	$13                     ; 0x13 <__rc3>
    5de1: 86 15        	stx	$15                     ; 0x15 <__rc5>
    5de3: 69 00        	adc	#$0
    5de5: 18           	clc
    5de6: 84 16        	sty	$16                     ; 0x16 <__rc6>
    5de8: a0 05        	ldy	#$5
    5dea: 85 17        	sta	$17                     ; 0x17 <__rc7>
    5dec: b1 12        	lda	($12),y                 ; 0x12 <__rc2>
    5dee: aa           	tax
    5def: a5 12        	lda	$12                     ; 0x12 <__rc2>
    5df1: 69 03        	adc	#$3
    5df3: 85 14        	sta	$14                     ; 0x14 <__rc4>
    5df5: a5 15        	lda	$15                     ; 0x15 <__rc5>
    5df7: 69 00        	adc	#$0
    5df9: 85 15        	sta	$15                     ; 0x15 <__rc5>
    5dfb: a0 01        	ldy	#$1
    5dfd: b1 16        	lda	($16),y                 ; 0x16 <__rc6>
    5dff: d1 14        	cmp	($14),y                 ; 0x14 <__rc4>
    5e01: d0 11        	bne	$5e14 <_ZN12_GLOBAL__N_13putEcP6Status+0x3f>
    5e03: a0 03        	ldy	#$3
    5e05: 85 17        	sta	$17                     ; 0x17 <__rc7>
    5e07: b1 12        	lda	($12),y                 ; 0x12 <__rc2>
    5e09: 85 14        	sta	$14                     ; 0x14 <__rc4>
    5e0b: 86 16        	stx	$16                     ; 0x16 <__rc6>
    5e0d: e4 14        	cpx	$14                     ; 0x14 <__rc4>
    5e0f: 90 0e        	bcc	$5e1f <_ZN12_GLOBAL__N_13putEcP6Status+0x4a>
    5e11: 4c 88 5e     	jmp	$5e88 <_ZN12_GLOBAL__N_13putEcP6Status+0xb3>
    5e14: 86 16        	stx	$16                     ; 0x16 <__rc6>
    5e16: d1 14        	cmp	($14),y                 ; 0x14 <__rc4>
    5e18: 85 17        	sta	$17                     ; 0x17 <__rc7>
    5e1a: 90 03        	bcc	$5e1f <_ZN12_GLOBAL__N_13putEcP6Status+0x4a>
    5e1c: 4c 88 5e     	jmp	$5e88 <_ZN12_GLOBAL__N_13putEcP6Status+0xb3>
    5e1f: a5 12        	lda	$12                     ; 0x12 <__rc2>
    5e21: 18           	clc
    5e22: 69 0f        	adc	#$f
    5e24: 85 14        	sta	$14                     ; 0x14 <__rc4>
    5e26: a5 13        	lda	$13                     ; 0x13 <__rc3>
    5e28: 69 00        	adc	#$0
    5e2a: 85 15        	sta	$15                     ; 0x15 <__rc5>
    5e2c: a0 01        	ldy	#$1
    5e2e: b1 14        	lda	($14),y                 ; 0x14 <__rc4>
    5e30: a2 00        	ldx	#$0
    5e32: 86 14        	stx	$14                     ; 0x14 <__rc4>
    5e34: a2 00        	ldx	#$0
    5e36: 86 15        	stx	$15                     ; 0x15 <__rc5>
    5e38: c5 15        	cmp	$15                     ; 0x15 <__rc5>
    5e3a: d0 2d        	bne	$5e69 <_ZN12_GLOBAL__N_13putEcP6Status+0x94>
    5e3c: a0 0f        	ldy	#$f
    5e3e: b1 12        	lda	($12),y                 ; 0x12 <__rc2>
    5e40: c5 14        	cmp	$14                     ; 0x14 <__rc4>
    5e42: d0 25        	bne	$5e69 <_ZN12_GLOBAL__N_13putEcP6Status+0x94>
    5e44: a5 12        	lda	$12                     ; 0x12 <__rc2>
    5e46: 18           	clc
    5e47: 69 09        	adc	#$9
    5e49: 85 14        	sta	$14                     ; 0x14 <__rc4>
    5e4b: a5 13        	lda	$13                     ; 0x13 <__rc3>
    5e4d: 69 00        	adc	#$0
    5e4f: a0 09        	ldy	#$9
    5e51: 85 15        	sta	$15                     ; 0x15 <__rc5>
    5e53: 18           	clc
    5e54: a5 16        	lda	$16                     ; 0x16 <__rc6>
    5e56: 71 12        	adc	($12),y                 ; 0x12 <__rc2>
    5e58: aa           	tax
    5e59: a0 01        	ldy	#$1
    5e5b: a5 17        	lda	$17                     ; 0x17 <__rc7>
    5e5d: 71 14        	adc	($14),y                 ; 0x14 <__rc4>
    5e5f: 86 14        	stx	$14                     ; 0x14 <__rc4>
    5e61: 85 15        	sta	$15                     ; 0x15 <__rc5>
    5e63: a5 18        	lda	$18                     ; 0x18 <__rc8>
    5e65: 92 14        	sta	($14)                   ; 0x14 <__rc4>
    5e67: 80 1f        	bra	$5e88 <_ZN12_GLOBAL__N_13putEcP6Status+0xb3>
    5e69: a6 12        	ldx	$12                     ; 0x12 <__rc2>
    5e6b: 86 eb        	stx	$eb                     ; 0xeb <__zp_bss_size+0x96>
    5e6d: a6 13        	ldx	$13                     ; 0x13 <__rc3>
    5e6f: 86 ec        	stx	$ec                     ; 0xec <__zp_bss_size+0x97>
    5e71: a5 18        	lda	$18                     ; 0x18 <__rc8>
    5e73: 85 35        	sta	$35                     ; 0x35 <__putchar.s>
    5e75: a2 35        	ldx	#$35
    5e77: 86 12        	stx	$12                     ; 0x12 <__rc2>
    5e79: a2 00        	ldx	#$0
    5e7b: 86 13        	stx	$13                     ; 0x13 <__rc3>
    5e7d: 20 90 33     	jsr	$3390 <textPrint>
    5e80: a6 eb        	ldx	$eb                     ; 0xeb <__zp_bss_size+0x96>
    5e82: 86 12        	stx	$12                     ; 0x12 <__rc2>
    5e84: a6 ec        	ldx	$ec                     ; 0xec <__zp_bss_size+0x97>
    5e86: 86 13        	stx	$13                     ; 0x13 <__rc3>
    5e88: a0 05        	ldy	#$5
    5e8a: a5 12        	lda	$12                     ; 0x12 <__rc2>
    5e8c: 18           	clc
    5e8d: 69 05        	adc	#$5
    5e8f: 85 14        	sta	$14                     ; 0x14 <__rc4>
    5e91: a5 13        	lda	$13                     ; 0x13 <__rc3>
    5e93: 69 00        	adc	#$0
    5e95: 85 15        	sta	$15                     ; 0x15 <__rc5>
    5e97: b1 12        	lda	($12),y                 ; 0x12 <__rc2>
    5e99: aa           	tax
    5e9a: 84 16        	sty	$16                     ; 0x16 <__rc6>
    5e9c: a0 01        	ldy	#$1
    5e9e: b1 14        	lda	($14),y                 ; 0x14 <__rc4>
    5ea0: 84 17        	sty	$17                     ; 0x17 <__rc7>
    5ea2: e8           	inx
    5ea3: d0 01        	bne	$5ea6 <_ZN12_GLOBAL__N_13putEcP6Status+0xd1>
    5ea5: 1a           	inc
    5ea6: 85 18        	sta	$18                     ; 0x18 <__rc8>
    5ea8: 8a           	txa
    5ea9: a4 16        	ldy	$16                     ; 0x16 <__rc6>
    5eab: 91 12        	sta	($12),y                 ; 0x12 <__rc2>
    5ead: a4 17        	ldy	$17                     ; 0x17 <__rc7>
    5eaf: a5 18        	lda	$18                     ; 0x18 <__rc8>
    5eb1: 91 14        	sta	($14),y                 ; 0x14 <__rc4>
    5eb3: 60           	rts

00005eb4 <_ZN12_GLOBAL__N_112print_stringEPKcP6Status>:
    5eb4: a6 12        	ldx	$12                     ; 0x12 <__rc2>
    5eb6: 86 e2        	stx	$e2                     ; 0xe2 <__zp_bss_size+0x8d>
    5eb8: a6 13        	ldx	$13                     ; 0x13 <__rc3>
    5eba: 86 e3        	stx	$e3                     ; 0xe3 <__zp_bss_size+0x8e>
    5ebc: a6 14        	ldx	$14                     ; 0x14 <__rc4>
    5ebe: 86 e4        	stx	$e4                     ; 0xe4 <__zp_bss_size+0x8f>
    5ec0: a6 15        	ldx	$15                     ; 0x15 <__rc5>
    5ec2: 86 e5        	stx	$e5                     ; 0xe5 <__zp_bss_size+0x90>
    5ec4: a5 e4        	lda	$e4                     ; 0xe4 <__zp_bss_size+0x8f>
    5ec6: 18           	clc
    5ec7: 69 0d        	adc	#$d
    5ec9: 85 12        	sta	$12                     ; 0x12 <__rc2>
    5ecb: a5 e5        	lda	$e5                     ; 0xe5 <__zp_bss_size+0x90>
    5ecd: 69 00        	adc	#$0
    5ecf: 85 13        	sta	$13                     ; 0x13 <__rc3>
    5ed1: a0 01        	ldy	#$1
    5ed3: b1 12        	lda	($12),y                 ; 0x12 <__rc2>
    5ed5: 30 14        	bmi	$5eeb <_ZN12_GLOBAL__N_112print_stringEPKcP6Status+0x37>
    5ed7: a0 0d        	ldy	#$d
    5ed9: aa           	tax
    5eda: b1 e4        	lda	($e4),y                 ; 0xe4 <__zp_bss_size+0x8f>
    5edc: 86 e7        	stx	$e7                     ; 0xe7 <__zp_bss_size+0x92>
    5ede: e0 00        	cpx	#$0
    5ee0: d0 0e        	bne	$5ef0 <_ZN12_GLOBAL__N_112print_stringEPKcP6Status+0x3c>
    5ee2: aa           	tax
    5ee3: d0 0b        	bne	$5ef0 <_ZN12_GLOBAL__N_112print_stringEPKcP6Status+0x3c>
    5ee5: 64 e6        	stz	$e6                     ; 0xe6 <__zp_bss_size+0x91>
    5ee7: 64 e7        	stz	$e7                     ; 0xe7 <__zp_bss_size+0x92>
    5ee9: 80 36        	bra	$5f21 <_ZN12_GLOBAL__N_112print_stringEPKcP6Status+0x6d>
    5eeb: a9 ff        	lda	#$ff
    5eed: aa           	tax
    5eee: 86 e7        	stx	$e7                     ; 0xe7 <__zp_bss_size+0x92>
    5ef0: 85 e6        	sta	$e6                     ; 0xe6 <__zp_bss_size+0x91>
    5ef2: 64 12        	stz	$12                     ; 0x12 <__rc2>
    5ef4: a4 e2        	ldy	$e2                     ; 0xe2 <__zp_bss_size+0x8d>
    5ef6: a6 e3        	ldx	$e3                     ; 0xe3 <__zp_bss_size+0x8e>
    5ef8: 86 16        	stx	$16                     ; 0x16 <__rc6>
    5efa: 64 13        	stz	$13                     ; 0x13 <__rc3>
    5efc: 98           	tya
    5efd: 18           	clc
    5efe: 65 12        	adc	$12                     ; 0x12 <__rc2>
    5f00: 85 14        	sta	$14                     ; 0x14 <__rc4>
    5f02: a5 e3        	lda	$e3                     ; 0xe3 <__zp_bss_size+0x8e>
    5f04: 65 13        	adc	$13                     ; 0x13 <__rc3>
    5f06: 85 15        	sta	$15                     ; 0x15 <__rc5>
    5f08: b2 14        	lda	($14)                   ; 0x14 <__rc4>
    5f0a: d0 03        	bne	$5f0f <_ZN12_GLOBAL__N_112print_stringEPKcP6Status+0x5b>
    5f0c: 4c b8 5f     	jmp	$5fb8 <_ZN12_GLOBAL__N_112print_stringEPKcP6Status+0x104>
    5f0f: e6 12        	inc	$12                     ; 0x12 <__rc2>
    5f11: d0 02        	bne	$5f15 <_ZN12_GLOBAL__N_112print_stringEPKcP6Status+0x61>
    5f13: e6 13        	inc	$13                     ; 0x13 <__rc3>
    5f15: a6 e7        	ldx	$e7                     ; 0xe7 <__zp_bss_size+0x92>
    5f17: e4 13        	cpx	$13                     ; 0x13 <__rc3>
    5f19: d0 e1        	bne	$5efc <_ZN12_GLOBAL__N_112print_stringEPKcP6Status+0x48>
    5f1b: a6 e6        	ldx	$e6                     ; 0xe6 <__zp_bss_size+0x91>
    5f1d: e4 12        	cpx	$12                     ; 0x12 <__rc2>
    5f1f: d0 db        	bne	$5efc <_ZN12_GLOBAL__N_112print_stringEPKcP6Status+0x48>
    5f21: a0 01        	ldy	#$1
    5f23: b1 e4        	lda	($e4),y                 ; 0xe4 <__zp_bss_size+0x8f>
    5f25: 29 01        	and	#$1
    5f27: f0 03        	beq	$5f2c <_ZN12_GLOBAL__N_112print_stringEPKcP6Status+0x78>
    5f29: 4c 8a 5f     	jmp	$5f8a <_ZN12_GLOBAL__N_112print_stringEPKcP6Status+0xd6>
    5f2c: a5 e4        	lda	$e4                     ; 0xe4 <__zp_bss_size+0x8f>
    5f2e: 18           	clc
    5f2f: 69 0b        	adc	#$b
    5f31: 85 14        	sta	$14                     ; 0x14 <__rc4>
    5f33: a5 e5        	lda	$e5                     ; 0xe5 <__zp_bss_size+0x90>
    5f35: 69 00        	adc	#$0
    5f37: 85 15        	sta	$15                     ; 0x15 <__rc5>
    5f39: 84 12        	sty	$12                     ; 0x12 <__rc2>
    5f3b: a0 0b        	ldy	#$b
    5f3d: b1 e4        	lda	($e4),y                 ; 0xe4 <__zp_bss_size+0x8f>
    5f3f: 85 13        	sta	$13                     ; 0x13 <__rc3>
    5f41: a4 12        	ldy	$12                     ; 0x12 <__rc2>
    5f43: b1 14        	lda	($14),y                 ; 0x14 <__rc4>
    5f45: 85 12        	sta	$12                     ; 0x12 <__rc2>
    5f47: a6 e7        	ldx	$e7                     ; 0xe7 <__zp_bss_size+0x92>
    5f49: e4 12        	cpx	$12                     ; 0x12 <__rc2>
    5f4b: d0 08        	bne	$5f55 <_ZN12_GLOBAL__N_112print_stringEPKcP6Status+0xa1>
    5f4d: a6 e6        	ldx	$e6                     ; 0xe6 <__zp_bss_size+0x91>
    5f4f: e4 13        	cpx	$13                     ; 0x13 <__rc3>
    5f51: 90 06        	bcc	$5f59 <_ZN12_GLOBAL__N_112print_stringEPKcP6Status+0xa5>
    5f53: 80 35        	bra	$5f8a <_ZN12_GLOBAL__N_112print_stringEPKcP6Status+0xd6>
    5f55: e4 12        	cpx	$12                     ; 0x12 <__rc2>
    5f57: b0 31        	bcs	$5f8a <_ZN12_GLOBAL__N_112print_stringEPKcP6Status+0xd6>
    5f59: 38           	sec
    5f5a: a5 e6        	lda	$e6                     ; 0xe6 <__zp_bss_size+0x91>
    5f5c: e5 13        	sbc	$13                     ; 0x13 <__rc3>
    5f5e: a8           	tay
    5f5f: a5 e7        	lda	$e7                     ; 0xe7 <__zp_bss_size+0x92>
    5f61: e5 12        	sbc	$12                     ; 0x12 <__rc2>
    5f63: 85 e9        	sta	$e9                     ; 0xe9 <__zp_bss_size+0x94>
    5f65: a2 20        	ldx	#$20
    5f67: 86 ea        	stx	$ea                     ; 0xea <__zp_bss_size+0x95>
    5f69: a6 e4        	ldx	$e4                     ; 0xe4 <__zp_bss_size+0x8f>
    5f6b: 86 12        	stx	$12                     ; 0x12 <__rc2>
    5f6d: a6 e5        	ldx	$e5                     ; 0xe5 <__zp_bss_size+0x90>
    5f6f: 86 13        	stx	$13                     ; 0x13 <__rc3>
    5f71: 84 e8        	sty	$e8                     ; 0xe8 <__zp_bss_size+0x93>
    5f73: a5 ea        	lda	$ea                     ; 0xea <__zp_bss_size+0x95>
    5f75: 20 d5 5d     	jsr	$5dd5 <_ZN12_GLOBAL__N_13putEcP6Status>
    5f78: a6 e9        	ldx	$e9                     ; 0xe9 <__zp_bss_size+0x94>
    5f7a: e6 e8        	inc	$e8                     ; 0xe8 <__zp_bss_size+0x93>
    5f7c: d0 01        	bne	$5f7f <_ZN12_GLOBAL__N_112print_stringEPKcP6Status+0xcb>
    5f7e: e8           	inx
    5f7f: 86 e9        	stx	$e9                     ; 0xe9 <__zp_bss_size+0x94>
    5f81: a4 e8        	ldy	$e8                     ; 0xe8 <__zp_bss_size+0x93>
    5f83: 8a           	txa
    5f84: d0 e3        	bne	$5f69 <_ZN12_GLOBAL__N_112print_stringEPKcP6Status+0xb5>
    5f86: a5 e8        	lda	$e8                     ; 0xe8 <__zp_bss_size+0x93>
    5f88: d0 df        	bne	$5f69 <_ZN12_GLOBAL__N_112print_stringEPKcP6Status+0xb5>
    5f8a: a5 e7        	lda	$e7                     ; 0xe7 <__zp_bss_size+0x92>
    5f8c: d0 04        	bne	$5f92 <_ZN12_GLOBAL__N_112print_stringEPKcP6Status+0xde>
    5f8e: a5 e6        	lda	$e6                     ; 0xe6 <__zp_bss_size+0x91>
    5f90: f0 25        	beq	$5fb7 <_ZN12_GLOBAL__N_112print_stringEPKcP6Status+0x103>
    5f92: a2 ff        	ldx	#$ff
    5f94: c6 e6        	dec	$e6                     ; 0xe6 <__zp_bss_size+0x91>
    5f96: e4 e6        	cpx	$e6                     ; 0xe6 <__zp_bss_size+0x91>
    5f98: d0 02        	bne	$5f9c <_ZN12_GLOBAL__N_112print_stringEPKcP6Status+0xe8>
    5f9a: c6 e7        	dec	$e7                     ; 0xe7 <__zp_bss_size+0x92>
    5f9c: b2 e2        	lda	($e2)                   ; 0xe2 <__zp_bss_size+0x8d>
    5f9e: e6 e2        	inc	$e2                     ; 0xe2 <__zp_bss_size+0x8d>
    5fa0: d0 02        	bne	$5fa4 <_ZN12_GLOBAL__N_112print_stringEPKcP6Status+0xf0>
    5fa2: e6 e3        	inc	$e3                     ; 0xe3 <__zp_bss_size+0x8e>
    5fa4: a6 e4        	ldx	$e4                     ; 0xe4 <__zp_bss_size+0x8f>
    5fa6: 86 12        	stx	$12                     ; 0x12 <__rc2>
    5fa8: a6 e5        	ldx	$e5                     ; 0xe5 <__zp_bss_size+0x90>
    5faa: 86 13        	stx	$13                     ; 0x13 <__rc3>
    5fac: 20 d5 5d     	jsr	$5dd5 <_ZN12_GLOBAL__N_13putEcP6Status>
    5faf: a5 e7        	lda	$e7                     ; 0xe7 <__zp_bss_size+0x92>
    5fb1: d0 df        	bne	$5f92 <_ZN12_GLOBAL__N_112print_stringEPKcP6Status+0xde>
    5fb3: a5 e6        	lda	$e6                     ; 0xe6 <__zp_bss_size+0x91>
    5fb5: d0 db        	bne	$5f92 <_ZN12_GLOBAL__N_112print_stringEPKcP6Status+0xde>
    5fb7: 60           	rts
    5fb8: a6 12        	ldx	$12                     ; 0x12 <__rc2>
    5fba: 86 e6        	stx	$e6                     ; 0xe6 <__zp_bss_size+0x91>
    5fbc: a6 13        	ldx	$13                     ; 0x13 <__rc3>
    5fbe: 86 e7        	stx	$e7                     ; 0xe7 <__zp_bss_size+0x92>
    5fc0: 4c 21 5f     	jmp	$5f21 <_ZN12_GLOBAL__N_112print_stringEPKcP6Status+0x6d>

00005fc3 <printf>:
    5fc3: a6 12        	ldx	$12                     ; 0x12 <__rc2>
    5fc5: 86 99        	stx	$99                     ; 0x99 <__zp_bss_size+0x44>
    5fc7: a6 13        	ldx	$13                     ; 0x13 <__rc3>
    5fc9: 86 9a        	stx	$9a                     ; 0x9a <__zp_bss_size+0x45>
    5fcb: 18           	clc
    5fcc: a6 10        	ldx	$10                     ; 0x10 <__rc0>
    5fce: a4 11        	ldy	$11                     ; 0x11 <__rc1>
    5fd0: 86 d8        	stx	$d8                     ; 0xd8 <__zp_bss_size+0x83>
    5fd2: 84 d9        	sty	$d9                     ; 0xd9 <__zp_bss_size+0x84>
    5fd4: a6 d8        	ldx	$d8                     ; 0xd8 <__zp_bss_size+0x83>
    5fd6: a4 d9        	ldy	$d9                     ; 0xd9 <__zp_bss_size+0x84>
    5fd8: 86 c3        	stx	$c3                     ; 0xc3 <__zp_bss_size+0x6e>
    5fda: 84 c4        	sty	$c4                     ; 0xc4 <__zp_bss_size+0x6f>
    5fdc: a2 ff        	ldx	#$ff
    5fde: 86 c8        	stx	$c8                     ; 0xc8 <__zp_bss_size+0x73>
    5fe0: 86 c9        	stx	$c9                     ; 0xc9 <__zp_bss_size+0x74>
    5fe2: 64 ca        	stz	$ca                     ; 0xca <__zp_bss_size+0x75>
    5fe4: 64 cb        	stz	$cb                     ; 0xcb <__zp_bss_size+0x76>
    5fe6: e8           	inx
    5fe7: 86 12        	stx	$12                     ; 0x12 <__rc2>
    5fe9: a2 00        	ldx	#$0
    5feb: 86 13        	stx	$13                     ; 0x13 <__rc3>
    5fed: a6 12        	ldx	$12                     ; 0x12 <__rc2>
    5fef: a4 13        	ldy	$13                     ; 0x13 <__rc3>
    5ff1: 86 ce        	stx	$ce                     ; 0xce <__zp_bss_size+0x79>
    5ff3: 84 cf        	sty	$cf                     ; 0xcf <__zp_bss_size+0x7a>
    5ff5: a2 02        	ldx	#$2
    5ff7: 86 d4        	stx	$d4                     ; 0xd4 <__zp_bss_size+0x7f>
    5ff9: 64 d5        	stz	$d5                     ; 0xd5 <__zp_bss_size+0x80>
    5ffb: a6 c3        	ldx	$c3                     ; 0xc3 <__zp_bss_size+0x6e>
    5ffd: a4 c4        	ldy	$c4                     ; 0xc4 <__zp_bss_size+0x6f>
    5fff: 86 d6        	stx	$d6                     ; 0xd6 <__zp_bss_size+0x81>
    6001: 84 d7        	sty	$d7                     ; 0xd7 <__zp_bss_size+0x82>
    6003: a2 ba        	ldx	#$ba
    6005: a0 00        	ldy	#$0
    6007: 86 12        	stx	$12                     ; 0x12 <__rc2>
    6009: 84 13        	sty	$13                     ; 0x13 <__rc3>
    600b: a0 01        	ldy	#$1
    600d: a9 a1        	lda	#$a1
    600f: 18           	clc
    6010: 69 02        	adc	#$2
    6012: 85 e0        	sta	$e0                     ; 0xe0 <__zp_bss_size+0x8b>
    6014: a9 00        	lda	#$0
    6016: 69 00        	adc	#$0
    6018: 85 e1        	sta	$e1                     ; 0xe1 <__zp_bss_size+0x8c>
    601a: e6 12        	inc	$12                     ; 0x12 <__rc2>
    601c: d0 02        	bne	$6020 <printf+0x5d>
    601e: e6 13        	inc	$13                     ; 0x13 <__rc3>
    6020: a6 12        	ldx	$12                     ; 0x12 <__rc2>
    6022: 86 de        	stx	$de                     ; 0xde <__zp_bss_size+0x89>
    6024: a6 13        	ldx	$13                     ; 0x13 <__rc3>
    6026: 86 df        	stx	$df                     ; 0xdf <__zp_bss_size+0x8a>
    6028: a6 99        	ldx	$99                     ; 0x99 <__zp_bss_size+0x44>
    602a: 86 95        	stx	$95                     ; 0x95 <__zp_bss_size+0x40>
    602c: a6 9a        	ldx	$9a                     ; 0x9a <__zp_bss_size+0x45>
    602e: 86 96        	stx	$96                     ; 0x96 <__zp_bss_size+0x41>
    6030: b2 99        	lda	($99)                   ; 0x99 <__zp_bss_size+0x44>
    6032: c9 25        	cmp	#$25
    6034: f0 2d        	beq	$6063 <printf+0xa0>
    6036: aa           	tax
    6037: d0 03        	bne	$603c <printf+0x79>
    6039: 4c 02 6d     	jmp	$6d02 <printf+0xd3f>
    603c: 85 35        	sta	$35                     ; 0x35 <__putchar.s>
    603e: a2 35        	ldx	#$35
    6040: 86 12        	stx	$12                     ; 0x12 <__rc2>
    6042: a2 00        	ldx	#$0
    6044: 86 13        	stx	$13                     ; 0x13 <__rc3>
    6046: 84 97        	sty	$97                     ; 0x97 <__zp_bss_size+0x42>
    6048: 20 90 33     	jsr	$3390 <textPrint>
    604b: a4 97        	ldy	$97                     ; 0x97 <__zp_bss_size+0x42>
    604d: e6 95        	inc	$95                     ; 0x95 <__zp_bss_size+0x40>
    604f: d0 02        	bne	$6053 <printf+0x90>
    6051: e6 96        	inc	$96                     ; 0x96 <__zp_bss_size+0x41>
    6053: e6 ca        	inc	$ca                     ; 0xca <__zp_bss_size+0x75>
    6055: d0 02        	bne	$6059 <printf+0x96>
    6057: e6 cb        	inc	$cb                     ; 0xcb <__zp_bss_size+0x76>
    6059: a6 95        	ldx	$95                     ; 0x95 <__zp_bss_size+0x40>
    605b: 86 99        	stx	$99                     ; 0x99 <__zp_bss_size+0x44>
    605d: a6 96        	ldx	$96                     ; 0x96 <__zp_bss_size+0x41>
    605f: 86 9a        	stx	$9a                     ; 0x9a <__zp_bss_size+0x45>
    6061: 80 c5        	bra	$6028 <printf+0x65>
    6063: a6 99        	ldx	$99                     ; 0x99 <__zp_bss_size+0x44>
    6065: 86 12        	stx	$12                     ; 0x12 <__rc2>
    6067: a6 9a        	ldx	$9a                     ; 0x9a <__zp_bss_size+0x45>
    6069: 86 13        	stx	$13                     ; 0x13 <__rc3>
    606b: e6 12        	inc	$12                     ; 0x12 <__rc2>
    606d: d0 02        	bne	$6071 <printf+0xae>
    606f: e6 13        	inc	$13                     ; 0x13 <__rc3>
    6071: b1 95        	lda	($95),y                 ; 0x95 <__zp_bss_size+0x40>
    6073: c9 25        	cmp	#$25
    6075: d0 18        	bne	$608f <printf+0xcc>
    6077: a2 01        	ldx	#$1
    6079: 86 13        	stx	$13                     ; 0x13 <__rc3>
    607b: a5 ca        	lda	$ca                     ; 0xca <__zp_bss_size+0x75>
    607d: a4 cb        	ldy	$cb                     ; 0xcb <__zp_bss_size+0x76>
    607f: c4 c9        	cpy	$c9                     ; 0xc9 <__zp_bss_size+0x74>
    6081: f0 03        	beq	$6086 <printf+0xc3>
    6083: 4c 9f 61     	jmp	$619f <printf+0x1dc>
    6086: a6 c8        	ldx	$c8                     ; 0xc8 <__zp_bss_size+0x73>
    6088: 86 12        	stx	$12                     ; 0x12 <__rc2>
    608a: c5 12        	cmp	$12                     ; 0x12 <__rc2>
    608c: 4c a1 61     	jmp	$61a1 <printf+0x1de>
    608f: a2 01        	ldx	#$1
    6091: 86 15        	stx	$15                     ; 0x15 <__rc5>
    6093: 64 c6        	stz	$c6                     ; 0xc6 <__zp_bss_size+0x71>
    6095: 64 c7        	stz	$c7                     ; 0xc7 <__zp_bss_size+0x72>
    6097: 64 c5        	stz	$c5                     ; 0xc5 <__zp_bss_size+0x70>
    6099: 64 d0        	stz	$d0                     ; 0xd0 <__zp_bss_size+0x7b>
    609b: 64 d1        	stz	$d1                     ; 0xd1 <__zp_bss_size+0x7c>
    609d: a2 ff        	ldx	#$ff
    609f: 86 d2        	stx	$d2                     ; 0xd2 <__zp_bss_size+0x7d>
    60a1: 86 d3        	stx	$d3                     ; 0xd3 <__zp_bss_size+0x7e>
    60a3: 64 97        	stz	$97                     ; 0x97 <__zp_bss_size+0x42>
    60a5: 80 33        	bra	$60da <printf+0x117>
    60a7: a2 02        	ldx	#$2
    60a9: 80 15        	bra	$60c0 <printf+0xfd>
    60ab: e0 20        	cpx	#$20
    60ad: f0 15        	beq	$60c4 <printf+0x101>
    60af: 86 16        	stx	$16                     ; 0x16 <__rc6>
    60b1: e0 23        	cpx	#$23
    60b3: f0 03        	beq	$60b8 <printf+0xf5>
    60b5: 4c 37 61     	jmp	$6137 <printf+0x174>
    60b8: a5 97        	lda	$97                     ; 0x97 <__zp_bss_size+0x42>
    60ba: a2 04        	ldx	#$4
    60bc: 80 02        	bra	$60c0 <printf+0xfd>
    60be: a2 10        	ldx	#$10
    60c0: 86 14        	stx	$14                     ; 0x14 <__rc4>
    60c2: 80 06        	bra	$60ca <printf+0x107>
    60c4: a2 08        	ldx	#$8
    60c6: 86 14        	stx	$14                     ; 0x14 <__rc4>
    60c8: a5 97        	lda	$97                     ; 0x97 <__zp_bss_size+0x42>
    60ca: 05 14        	ora	$14                     ; 0x14 <__rc4>
    60cc: 85 97        	sta	$97                     ; 0x97 <__zp_bss_size+0x42>
    60ce: 85 c6        	sta	$c6                     ; 0xc6 <__zp_bss_size+0x71>
    60d0: a2 00        	ldx	#$0
    60d2: 86 c7        	stx	$c7                     ; 0xc7 <__zp_bss_size+0x72>
    60d4: e6 12        	inc	$12                     ; 0x12 <__rc2>
    60d6: d0 02        	bne	$60da <printf+0x117>
    60d8: e6 13        	inc	$13                     ; 0x13 <__rc3>
    60da: b2 12        	lda	($12)                   ; 0x12 <__rc2>
    60dc: 18           	clc
    60dd: aa           	tax
    60de: 69 d6        	adc	#$d6
    60e0: c9 07        	cmp	#$7
    60e2: b0 c7        	bcs	$60ab <printf+0xe8>
    60e4: 86 16        	stx	$16                     ; 0x16 <__rc6>
    60e6: 0a           	asl
    60e7: aa           	tax
    60e8: a0 01        	ldy	#$1
    60ea: 84 14        	sty	$14                     ; 0x14 <__rc4>
    60ec: a5 97        	lda	$97                     ; 0x97 <__zp_bss_size+0x42>
    60ee: 7c 54 84     	jmp	($8454,x)               ; 0x8454 <__set_v+0x31>
    60f1: a5 d6        	lda	$d6                     ; 0xd6 <__zp_bss_size+0x81>
    60f3: a6 d7        	ldx	$d7                     ; 0xd7 <__zp_bss_size+0x82>
    60f5: 85 16        	sta	$16                     ; 0x16 <__rc6>
    60f7: 86 17        	stx	$17                     ; 0x17 <__rc7>
    60f9: 18           	clc
    60fa: 69 02        	adc	#$2
    60fc: a8           	tay
    60fd: 8a           	txa
    60fe: 69 00        	adc	#$0
    6100: 84 d6        	sty	$d6                     ; 0xd6 <__zp_bss_size+0x81>
    6102: 85 d7        	sta	$d7                     ; 0xd7 <__zp_bss_size+0x82>
    6104: b2 16        	lda	($16)                   ; 0x16 <__rc6>
    6106: 85 15        	sta	$15                     ; 0x15 <__rc5>
    6108: a0 01        	ldy	#$1
    610a: b1 16        	lda	($16),y                 ; 0x16 <__rc6>
    610c: 85 14        	sta	$14                     ; 0x14 <__rc4>
    610e: 10 15        	bpl	$6125 <printf+0x162>
    6110: a5 97        	lda	$97                     ; 0x97 <__zp_bss_size+0x42>
    6112: 09 01        	ora	#$1
    6114: 85 97        	sta	$97                     ; 0x97 <__zp_bss_size+0x42>
    6116: 85 c6        	sta	$c6                     ; 0xc6 <__zp_bss_size+0x71>
    6118: a2 00        	ldx	#$0
    611a: 86 c7        	stx	$c7                     ; 0xc7 <__zp_bss_size+0x72>
    611c: 8a           	txa
    611d: 38           	sec
    611e: e5 15        	sbc	$15                     ; 0x15 <__rc5>
    6120: 85 15        	sta	$15                     ; 0x15 <__rc5>
    6122: 8a           	txa
    6123: e5 14        	sbc	$14                     ; 0x14 <__rc4>
    6125: a6 15        	ldx	$15                     ; 0x15 <__rc5>
    6127: 86 d0        	stx	$d0                     ; 0xd0 <__zp_bss_size+0x7b>
    6129: 85 d1        	sta	$d1                     ; 0xd1 <__zp_bss_size+0x7c>
    612b: e6 12        	inc	$12                     ; 0x12 <__rc2>
    612d: f0 03        	beq	$6132 <printf+0x16f>
    612f: 4c 0b 62     	jmp	$620b <printf+0x248>
    6132: e6 13        	inc	$13                     ; 0x13 <__rc3>
    6134: 4c 0b 62     	jmp	$620b <printf+0x248>
    6137: 18           	clc
    6138: a5 16        	lda	$16                     ; 0x16 <__rc6>
    613a: 69 d0        	adc	#$d0
    613c: c9 0a        	cmp	#$a
    613e: 90 03        	bcc	$6143 <printf+0x180>
    6140: 4c fd 61     	jmp	$61fd <printf+0x23a>
    6143: a6 16        	ldx	$16                     ; 0x16 <__rc6>
    6145: 86 14        	stx	$14                     ; 0x14 <__rc4>
    6147: 64 16        	stz	$16                     ; 0x16 <__rc6>
    6149: 64 15        	stz	$15                     ; 0x15 <__rc5>
    614b: 64 17        	stz	$17                     ; 0x17 <__rc7>
    614d: a0 01        	ldy	#$1
    614f: a2 00        	ldx	#$0
    6151: 06 16        	asl	$16                     ; 0x16 <__rc6>
    6153: 26 17        	rol	$17                     ; 0x17 <__rc7>
    6155: a5 16        	lda	$16                     ; 0x16 <__rc6>
    6157: 0a           	asl
    6158: 85 18        	sta	$18                     ; 0x18 <__rc8>
    615a: a5 17        	lda	$17                     ; 0x17 <__rc7>
    615c: 2a           	rol
    615d: 06 18        	asl	$18                     ; 0x18 <__rc8>
    615f: 2a           	rol
    6160: 85 19        	sta	$19                     ; 0x19 <__rc9>
    6162: a5 18        	lda	$18                     ; 0x18 <__rc8>
    6164: 18           	clc
    6165: 65 16        	adc	$16                     ; 0x16 <__rc6>
    6167: 85 16        	sta	$16                     ; 0x16 <__rc6>
    6169: a5 19        	lda	$19                     ; 0x19 <__rc9>
    616b: 65 17        	adc	$17                     ; 0x17 <__rc7>
    616d: 85 17        	sta	$17                     ; 0x17 <__rc7>
    616f: a5 16        	lda	$16                     ; 0x16 <__rc6>
    6171: 18           	clc
    6172: 65 14        	adc	$14                     ; 0x14 <__rc4>
    6174: 85 14        	sta	$14                     ; 0x14 <__rc4>
    6176: a5 17        	lda	$17                     ; 0x17 <__rc7>
    6178: 65 15        	adc	$15                     ; 0x15 <__rc5>
    617a: 85 15        	sta	$15                     ; 0x15 <__rc5>
    617c: 18           	clc
    617d: a5 14        	lda	$14                     ; 0x14 <__rc4>
    617f: 69 d0        	adc	#$d0
    6181: 85 16        	sta	$16                     ; 0x16 <__rc6>
    6183: a5 15        	lda	$15                     ; 0x15 <__rc5>
    6185: 69 ff        	adc	#$ff
    6187: 85 17        	sta	$17                     ; 0x17 <__rc7>
    6189: b1 12        	lda	($12),y                 ; 0x12 <__rc2>
    618b: 85 14        	sta	$14                     ; 0x14 <__rc4>
    618d: 18           	clc
    618e: 69 d0        	adc	#$d0
    6190: e6 12        	inc	$12                     ; 0x12 <__rc2>
    6192: d0 02        	bne	$6196 <printf+0x1d3>
    6194: e6 13        	inc	$13                     ; 0x13 <__rc3>
    6196: c9 0a        	cmp	#$a
    6198: 64 15        	stz	$15                     ; 0x15 <__rc5>
    619a: 90 b5        	bcc	$6151 <printf+0x18e>
    619c: 4c 03 62     	jmp	$6203 <printf+0x240>
    619f: c4 c9        	cpy	$c9                     ; 0xc9 <__zp_bss_size+0x74>
    61a1: 84 16        	sty	$16                     ; 0x16 <__rc6>
    61a3: a4 13        	ldy	$13                     ; 0x13 <__rc3>
    61a5: b0 40        	bcs	$61e7 <printf+0x224>
    61a7: a2 01        	ldx	#$1
    61a9: 86 14        	stx	$14                     ; 0x14 <__rc4>
    61ab: a6 d5        	ldx	$d5                     ; 0xd5 <__zp_bss_size+0x80>
    61ad: a0 00        	ldy	#$0
    61af: 84 12        	sty	$12                     ; 0x12 <__rc2>
    61b1: a0 00        	ldy	#$0
    61b3: 84 13        	sty	$13                     ; 0x13 <__rc3>
    61b5: e4 13        	cpx	$13                     ; 0x13 <__rc3>
    61b7: d0 19        	bne	$61d2 <printf+0x20f>
    61b9: a6 d4        	ldx	$d4                     ; 0xd4 <__zp_bss_size+0x7f>
    61bb: e4 12        	cpx	$12                     ; 0x12 <__rc2>
    61bd: d0 13        	bne	$61d2 <printf+0x20f>
    61bf: a4 14        	ldy	$14                     ; 0x14 <__rc4>
    61c1: 18           	clc
    61c2: 65 ce        	adc	$ce                     ; 0xce <__zp_bss_size+0x79>
    61c4: 85 12        	sta	$12                     ; 0x12 <__rc2>
    61c6: a5 16        	lda	$16                     ; 0x16 <__rc6>
    61c8: 65 cf        	adc	$cf                     ; 0xcf <__zp_bss_size+0x7a>
    61ca: 85 13        	sta	$13                     ; 0x13 <__rc3>
    61cc: a9 25        	lda	#$25
    61ce: 92 12        	sta	($12)                   ; 0x12 <__rc2>
    61d0: 80 15        	bra	$61e7 <printf+0x224>
    61d2: a2 01        	ldx	#$1
    61d4: 86 97        	stx	$97                     ; 0x97 <__zp_bss_size+0x42>
    61d6: a2 25        	ldx	#$25
    61d8: 86 35        	stx	$35                     ; 0x35 <__putchar.s>
    61da: a2 35        	ldx	#$35
    61dc: 86 12        	stx	$12                     ; 0x12 <__rc2>
    61de: a2 00        	ldx	#$0
    61e0: 86 13        	stx	$13                     ; 0x13 <__rc3>
    61e2: 20 90 33     	jsr	$3390 <textPrint>
    61e5: a4 97        	ldy	$97                     ; 0x97 <__zp_bss_size+0x42>
    61e7: e6 ca        	inc	$ca                     ; 0xca <__zp_bss_size+0x75>
    61e9: d0 02        	bne	$61ed <printf+0x22a>
    61eb: e6 cb        	inc	$cb                     ; 0xcb <__zp_bss_size+0x76>
    61ed: a5 95        	lda	$95                     ; 0x95 <__zp_bss_size+0x40>
    61ef: 18           	clc
    61f0: 69 02        	adc	#$2
    61f2: 85 99        	sta	$99                     ; 0x99 <__zp_bss_size+0x44>
    61f4: a5 96        	lda	$96                     ; 0x96 <__zp_bss_size+0x41>
    61f6: 69 00        	adc	#$0
    61f8: 85 9a        	sta	$9a                     ; 0x9a <__zp_bss_size+0x45>
    61fa: 4c 28 60     	jmp	$6028 <printf+0x65>
    61fd: 64 16        	stz	$16                     ; 0x16 <__rc6>
    61ff: 64 17        	stz	$17                     ; 0x17 <__rc7>
    6201: a4 15        	ldy	$15                     ; 0x15 <__rc5>
    6203: a6 16        	ldx	$16                     ; 0x16 <__rc6>
    6205: 86 d0        	stx	$d0                     ; 0xd0 <__zp_bss_size+0x7b>
    6207: a5 17        	lda	$17                     ; 0x17 <__rc7>
    6209: 85 d1        	sta	$d1                     ; 0xd1 <__zp_bss_size+0x7c>
    620b: 86 1a        	stx	$1a                     ; 0x1a <__rc10>
    620d: 85 9b        	sta	$9b                     ; 0x9b <__zp_bss_size+0x46>
    620f: b2 12        	lda	($12)                   ; 0x12 <__rc2>
    6211: a2 ff        	ldx	#$ff
    6213: c9 2e        	cmp	#$2e
    6215: d0 39        	bne	$6250 <printf+0x28d>
    6217: b1 12        	lda	($12),y                 ; 0x12 <__rc2>
    6219: c9 2a        	cmp	#$2a
    621b: d0 38        	bne	$6255 <printf+0x292>
    621d: a5 d6        	lda	$d6                     ; 0xd6 <__zp_bss_size+0x81>
    621f: a6 d7        	ldx	$d7                     ; 0xd7 <__zp_bss_size+0x82>
    6221: 85 14        	sta	$14                     ; 0x14 <__rc4>
    6223: 86 15        	stx	$15                     ; 0x15 <__rc5>
    6225: 18           	clc
    6226: 69 02        	adc	#$2
    6228: 85 16        	sta	$16                     ; 0x16 <__rc6>
    622a: 8a           	txa
    622b: 69 00        	adc	#$0
    622d: a6 16        	ldx	$16                     ; 0x16 <__rc6>
    622f: 86 d6        	stx	$d6                     ; 0xd6 <__zp_bss_size+0x81>
    6231: 85 d7        	sta	$d7                     ; 0xd7 <__zp_bss_size+0x82>
    6233: a5 12        	lda	$12                     ; 0x12 <__rc2>
    6235: 18           	clc
    6236: 69 02        	adc	#$2
    6238: 85 12        	sta	$12                     ; 0x12 <__rc2>
    623a: a5 13        	lda	$13                     ; 0x13 <__rc3>
    623c: 69 00        	adc	#$0
    623e: 85 13        	sta	$13                     ; 0x13 <__rc3>
    6240: b2 14        	lda	($14)                   ; 0x14 <__rc4>
    6242: aa           	tax
    6243: b1 14        	lda	($14),y                 ; 0x14 <__rc4>
    6245: 86 18        	stx	$18                     ; 0x18 <__rc8>
    6247: 86 d2        	stx	$d2                     ; 0xd2 <__zp_bss_size+0x7d>
    6249: 85 19        	sta	$19                     ; 0x19 <__rc9>
    624b: 85 d3        	sta	$d3                     ; 0xd3 <__zp_bss_size+0x7e>
    624d: 4c 13 63     	jmp	$6313 <printf+0x350>
    6250: 86 9d        	stx	$9d                     ; 0x9d <__zp_bss_size+0x48>
    6252: 4c 27 63     	jmp	$6327 <printf+0x364>
    6255: 18           	clc
    6256: 85 17        	sta	$17                     ; 0x17 <__rc7>
    6258: 69 d0        	adc	#$d0
    625a: c9 0a        	cmp	#$a
    625c: 90 03        	bcc	$6261 <printf+0x29e>
    625e: 4c 05 63     	jmp	$6305 <printf+0x342>
    6261: 64 16        	stz	$16                     ; 0x16 <__rc6>
    6263: a2 01        	ldx	#$1
    6265: 64 18        	stz	$18                     ; 0x18 <__rc8>
    6267: 64 19        	stz	$19                     ; 0x19 <__rc9>
    6269: 84 1b        	sty	$1b                     ; 0x1b <__rc11>
    626b: 64 1c        	stz	$1c                     ; 0x1c <__rc12>
    626d: 18           	clc
    626e: a0 01        	ldy	#$1
    6270: b0 02        	bcs	$6274 <printf+0x2b1>
    6272: a0 00        	ldy	#$0
    6274: 84 1d        	sty	$1d                     ; 0x1d <__rc13>
    6276: a4 1c        	ldy	$1c                     ; 0x1c <__rc12>
    6278: 84 14        	sty	$14                     ; 0x14 <__rc4>
    627a: 86 15        	stx	$15                     ; 0x15 <__rc5>
    627c: 06 18        	asl	$18                     ; 0x18 <__rc8>
    627e: 26 19        	rol	$19                     ; 0x19 <__rc9>
    6280: a5 18        	lda	$18                     ; 0x18 <__rc8>
    6282: 0a           	asl
    6283: a8           	tay
    6284: a5 19        	lda	$19                     ; 0x19 <__rc9>
    6286: 2a           	rol
    6287: 84 1e        	sty	$1e                     ; 0x1e <__rc14>
    6289: 06 1e        	asl	$1e                     ; 0x1e <__rc14>
    628b: 2a           	rol
    628c: 85 22        	sta	$22                     ; 0x22 <__rc18>
    628e: a5 1e        	lda	$1e                     ; 0x1e <__rc14>
    6290: a4 1d        	ldy	$1d                     ; 0x1d <__rc13>
    6292: c0 01        	cpy	#$1
    6294: 65 18        	adc	$18                     ; 0x18 <__rc8>
    6296: 85 18        	sta	$18                     ; 0x18 <__rc8>
    6298: a5 22        	lda	$22                     ; 0x22 <__rc18>
    629a: 65 19        	adc	$19                     ; 0x19 <__rc9>
    629c: 85 19        	sta	$19                     ; 0x19 <__rc9>
    629e: a5 18        	lda	$18                     ; 0x18 <__rc8>
    62a0: a4 1d        	ldy	$1d                     ; 0x1d <__rc13>
    62a2: c0 01        	cpy	#$1
    62a4: 65 17        	adc	$17                     ; 0x17 <__rc7>
    62a6: 85 17        	sta	$17                     ; 0x17 <__rc7>
    62a8: a5 19        	lda	$19                     ; 0x19 <__rc9>
    62aa: 65 16        	adc	$16                     ; 0x16 <__rc6>
    62ac: 85 16        	sta	$16                     ; 0x16 <__rc6>
    62ae: 18           	clc
    62af: a5 17        	lda	$17                     ; 0x17 <__rc7>
    62b1: 69 d0        	adc	#$d0
    62b3: 85 18        	sta	$18                     ; 0x18 <__rc8>
    62b5: a5 16        	lda	$16                     ; 0x16 <__rc6>
    62b7: 69 ff        	adc	#$ff
    62b9: 85 19        	sta	$19                     ; 0x19 <__rc9>
    62bb: e8           	inx
    62bc: d0 02        	bne	$62c0 <printf+0x2fd>
    62be: e6 1c        	inc	$1c                     ; 0x1c <__rc12>
    62c0: a5 12        	lda	$12                     ; 0x12 <__rc2>
    62c2: a4 1d        	ldy	$1d                     ; 0x1d <__rc13>
    62c4: c0 01        	cpy	#$1
    62c6: 65 15        	adc	$15                     ; 0x15 <__rc5>
    62c8: a8           	tay
    62c9: a5 13        	lda	$13                     ; 0x13 <__rc3>
    62cb: 65 14        	adc	$14                     ; 0x14 <__rc4>
    62cd: 84 16        	sty	$16                     ; 0x16 <__rc6>
    62cf: 85 17        	sta	$17                     ; 0x17 <__rc7>
    62d1: a4 1b        	ldy	$1b                     ; 0x1b <__rc11>
    62d3: b1 16        	lda	($16),y                 ; 0x16 <__rc6>
    62d5: 85 17        	sta	$17                     ; 0x17 <__rc7>
    62d7: 18           	clc
    62d8: 69 d0        	adc	#$d0
    62da: c9 0a        	cmp	#$a
    62dc: 64 16        	stz	$16                     ; 0x16 <__rc6>
    62de: b0 03        	bcs	$62e3 <printf+0x320>
    62e0: 4c 76 62     	jmp	$6276 <printf+0x2b3>
    62e3: a5 12        	lda	$12                     ; 0x12 <__rc2>
    62e5: a6 1d        	ldx	$1d                     ; 0x1d <__rc13>
    62e7: e0 01        	cpx	#$1
    62e9: 65 15        	adc	$15                     ; 0x15 <__rc5>
    62eb: 85 12        	sta	$12                     ; 0x12 <__rc2>
    62ed: a5 13        	lda	$13                     ; 0x13 <__rc3>
    62ef: 65 14        	adc	$14                     ; 0x14 <__rc4>
    62f1: 85 13        	sta	$13                     ; 0x13 <__rc3>
    62f3: e6 12        	inc	$12                     ; 0x12 <__rc2>
    62f5: d0 02        	bne	$62f9 <printf+0x336>
    62f7: e6 13        	inc	$13                     ; 0x13 <__rc3>
    62f9: a6 18        	ldx	$18                     ; 0x18 <__rc8>
    62fb: 86 d2        	stx	$d2                     ; 0xd2 <__zp_bss_size+0x7d>
    62fd: a6 19        	ldx	$19                     ; 0x19 <__rc9>
    62ff: 86 d3        	stx	$d3                     ; 0xd3 <__zp_bss_size+0x7e>
    6301: a4 1b        	ldy	$1b                     ; 0x1b <__rc11>
    6303: 80 0e        	bra	$6313 <printf+0x350>
    6305: e6 12        	inc	$12                     ; 0x12 <__rc2>
    6307: d0 02        	bne	$630b <printf+0x348>
    6309: e6 13        	inc	$13                     ; 0x13 <__rc3>
    630b: 64 18        	stz	$18                     ; 0x18 <__rc8>
    630d: 64 d2        	stz	$d2                     ; 0xd2 <__zp_bss_size+0x7d>
    630f: 64 d3        	stz	$d3                     ; 0xd3 <__zp_bss_size+0x7e>
    6311: 64 19        	stz	$19                     ; 0x19 <__rc9>
    6313: a5 97        	lda	$97                     ; 0x97 <__zp_bss_size+0x42>
    6315: 29 ef        	and	#$ef
    6317: 85 97        	sta	$97                     ; 0x97 <__zp_bss_size+0x42>
    6319: 85 c6        	sta	$c6                     ; 0xc6 <__zp_bss_size+0x71>
    631b: a2 00        	ldx	#$0
    631d: 86 c7        	stx	$c7                     ; 0xc7 <__zp_bss_size+0x72>
    631f: b2 12        	lda	($12)                   ; 0x12 <__rc2>
    6321: a6 18        	ldx	$18                     ; 0x18 <__rc8>
    6323: 86 9d        	stx	$9d                     ; 0x9d <__zp_bss_size+0x48>
    6325: a6 19        	ldx	$19                     ; 0x19 <__rc9>
    6327: 86 9c        	stx	$9c                     ; 0x9c <__zp_bss_size+0x47>
    6329: a6 12        	ldx	$12                     ; 0x12 <__rc2>
    632b: 86 14        	stx	$14                     ; 0x14 <__rc4>
    632d: a6 13        	ldx	$13                     ; 0x13 <__rc3>
    632f: 86 15        	stx	$15                     ; 0x15 <__rc5>
    6331: e6 14        	inc	$14                     ; 0x14 <__rc4>
    6333: d0 02        	bne	$6337 <printf+0x374>
    6335: e6 15        	inc	$15                     ; 0x15 <__rc5>
    6337: 85 16        	sta	$16                     ; 0x16 <__rc6>
    6339: 38           	sec
    633a: e9 6c        	sbc	#$6c
    633c: 50 02        	bvc	$6340 <printf+0x37d>
    633e: 49 80        	eor	#$80
    6340: aa           	tax
    6341: 10 27        	bpl	$636a <printf+0x3a7>
    6343: a6 16        	ldx	$16                     ; 0x16 <__rc6>
    6345: e0 4c        	cpx	#$4c
    6347: f0 3f        	beq	$6388 <printf+0x3c5>
    6349: e0 68        	cpx	#$68
    634b: d0 03        	bne	$6350 <printf+0x38d>
    634d: 4c c9 63     	jmp	$63c9 <printf+0x406>
    6350: a4 16        	ldy	$16                     ; 0x16 <__rc6>
    6352: a9 01        	lda	#$1
    6354: a2 08        	ldx	#$8
    6356: c0 6a        	cpy	#$6a
    6358: d0 28        	bne	$6382 <printf+0x3bf>
    635a: a4 14        	ldy	$14                     ; 0x14 <__rc4>
    635c: 84 12        	sty	$12                     ; 0x12 <__rc2>
    635e: a4 15        	ldy	$15                     ; 0x15 <__rc5>
    6360: 84 13        	sty	$13                     ; 0x13 <__rc3>
    6362: a0 08        	ldy	#$8
    6364: 84 98        	sty	$98                     ; 0x98 <__zp_bss_size+0x43>
    6366: a8           	tay
    6367: 4c e3 63     	jmp	$63e3 <printf+0x420>
    636a: a6 16        	ldx	$16                     ; 0x16 <__rc6>
    636c: e0 6c        	cpx	#$6c
    636e: f0 38        	beq	$63a8 <printf+0x3e5>
    6370: e0 74        	cpx	#$74
    6372: f0 20        	beq	$6394 <printf+0x3d1>
    6374: a9 01        	lda	#$1
    6376: e0 7a        	cpx	#$7a
    6378: d0 08        	bne	$6382 <printf+0x3bf>
    637a: a6 14        	ldx	$14                     ; 0x14 <__rc4>
    637c: 86 12        	stx	$12                     ; 0x12 <__rc2>
    637e: a6 15        	ldx	$15                     ; 0x15 <__rc5>
    6380: 86 13        	stx	$13                     ; 0x13 <__rc3>
    6382: a2 02        	ldx	#$2
    6384: 86 9f        	stx	$9f                     ; 0x9f <__zp_bss_size+0x4a>
    6386: 80 19        	bra	$63a1 <printf+0x3de>
    6388: a5 97        	lda	$97                     ; 0x97 <__zp_bss_size+0x42>
    638a: 09 40        	ora	#$40
    638c: 85 97        	sta	$97                     ; 0x97 <__zp_bss_size+0x42>
    638e: 85 c6        	sta	$c6                     ; 0xc6 <__zp_bss_size+0x71>
    6390: a2 00        	ldx	#$0
    6392: 86 c7        	stx	$c7                     ; 0xc7 <__zp_bss_size+0x72>
    6394: a6 14        	ldx	$14                     ; 0x14 <__rc4>
    6396: 86 12        	stx	$12                     ; 0x12 <__rc2>
    6398: a6 15        	ldx	$15                     ; 0x15 <__rc5>
    639a: 86 13        	stx	$13                     ; 0x13 <__rc3>
    639c: a2 02        	ldx	#$2
    639e: 86 9f        	stx	$9f                     ; 0x9f <__zp_bss_size+0x4a>
    63a0: 98           	tya
    63a1: a0 02        	ldy	#$2
    63a3: 84 98        	sty	$98                     ; 0x98 <__zp_bss_size+0x43>
    63a5: a8           	tay
    63a6: 80 3d        	bra	$63e5 <printf+0x422>
    63a8: b1 12        	lda	($12),y                 ; 0x12 <__rc2>
    63aa: a2 04        	ldx	#$4
    63ac: c9 6c        	cmp	#$6c
    63ae: f0 03        	beq	$63b3 <printf+0x3f0>
    63b0: 4c 15 64     	jmp	$6415 <printf+0x452>
    63b3: a5 12        	lda	$12                     ; 0x12 <__rc2>
    63b5: 18           	clc
    63b6: 69 02        	adc	#$2
    63b8: 85 12        	sta	$12                     ; 0x12 <__rc2>
    63ba: a5 13        	lda	$13                     ; 0x13 <__rc3>
    63bc: 69 00        	adc	#$0
    63be: 85 13        	sta	$13                     ; 0x13 <__rc3>
    63c0: a2 08        	ldx	#$8
    63c2: 86 9f        	stx	$9f                     ; 0x9f <__zp_bss_size+0x4a>
    63c4: 98           	tya
    63c5: a0 08        	ldy	#$8
    63c7: 80 da        	bra	$63a3 <printf+0x3e0>
    63c9: b1 12        	lda	($12),y                 ; 0x12 <__rc2>
    63cb: a2 02        	ldx	#$2
    63cd: c9 68        	cmp	#$68
    63cf: d0 44        	bne	$6415 <printf+0x452>
    63d1: a5 12        	lda	$12                     ; 0x12 <__rc2>
    63d3: 18           	clc
    63d4: 69 02        	adc	#$2
    63d6: 85 12        	sta	$12                     ; 0x12 <__rc2>
    63d8: a5 13        	lda	$13                     ; 0x13 <__rc3>
    63da: 69 00        	adc	#$0
    63dc: 85 13        	sta	$13                     ; 0x13 <__rc3>
    63de: a2 01        	ldx	#$1
    63e0: 86 98        	stx	$98                     ; 0x98 <__zp_bss_size+0x43>
    63e2: e8           	inx
    63e3: 86 9f        	stx	$9f                     ; 0x9f <__zp_bss_size+0x4a>
    63e5: b2 12        	lda	($12)                   ; 0x12 <__rc2>
    63e7: a6 12        	ldx	$12                     ; 0x12 <__rc2>
    63e9: 86 da        	stx	$da                     ; 0xda <__zp_bss_size+0x85>
    63eb: a6 13        	ldx	$13                     ; 0x13 <__rc3>
    63ed: 86 db        	stx	$db                     ; 0xdb <__zp_bss_size+0x86>
    63ef: 18           	clc
    63f0: aa           	tax
    63f1: 69 9d        	adc	#$9d
    63f3: c9 16        	cmp	#$16
    63f5: b0 2e        	bcs	$6425 <printf+0x462>
    63f7: 0a           	asl
    63f8: aa           	tax
    63f9: 7c 62 84     	jmp	($8462,x)               ; 0x8462 <__set_v+0x3f>
    63fc: a6 95        	ldx	$95                     ; 0x95 <__zp_bss_size+0x40>
    63fe: 86 dc        	stx	$dc                     ; 0xdc <__zp_bss_size+0x87>
    6400: a6 96        	ldx	$96                     ; 0x96 <__zp_bss_size+0x41>
    6402: 86 dd        	stx	$dd                     ; 0xdd <__zp_bss_size+0x88>
    6404: a6 1a        	ldx	$1a                     ; 0x1a <__rc10>
    6406: 86 96        	stx	$96                     ; 0x96 <__zp_bss_size+0x41>
    6408: a0 0a        	ldy	#$a
    640a: a2 0a        	ldx	#$a
    640c: 86 95        	stx	$95                     ; 0x95 <__zp_bss_size+0x40>
    640e: 84 c5        	sty	$c5                     ; 0xc5 <__zp_bss_size+0x70>
    6410: 64 99        	stz	$99                     ; 0x99 <__zp_bss_size+0x44>
    6412: 4c 3e 65     	jmp	$653e <printf+0x57b>
    6415: 86 9f        	stx	$9f                     ; 0x9f <__zp_bss_size+0x4a>
    6417: a6 14        	ldx	$14                     ; 0x14 <__rc4>
    6419: 86 da        	stx	$da                     ; 0xda <__zp_bss_size+0x85>
    641b: a6 15        	ldx	$15                     ; 0x15 <__rc5>
    641d: 86 db        	stx	$db                     ; 0xdb <__zp_bss_size+0x86>
    641f: a6 9f        	ldx	$9f                     ; 0x9f <__zp_bss_size+0x4a>
    6421: 86 98        	stx	$98                     ; 0x98 <__zp_bss_size+0x43>
    6423: 80 ca        	bra	$63ef <printf+0x42c>
    6425: e0 58        	cpx	#$58
    6427: f0 03        	beq	$642c <printf+0x469>
    6429: 4c c6 6c     	jmp	$6cc6 <printf+0xd03>
    642c: a6 95        	ldx	$95                     ; 0x95 <__zp_bss_size+0x40>
    642e: 86 dc        	stx	$dc                     ; 0xdc <__zp_bss_size+0x87>
    6430: a6 96        	ldx	$96                     ; 0x96 <__zp_bss_size+0x41>
    6432: 86 dd        	stx	$dd                     ; 0xdd <__zp_bss_size+0x88>
    6434: a6 1a        	ldx	$1a                     ; 0x1a <__rc10>
    6436: 86 96        	stx	$96                     ; 0x96 <__zp_bss_size+0x41>
    6438: a2 10        	ldx	#$10
    643a: 86 c5        	stx	$c5                     ; 0xc5 <__zp_bss_size+0x70>
    643c: a9 00        	lda	#$0
    643e: 09 01        	ora	#$1
    6440: a6 97        	ldx	$97                     ; 0x97 <__zp_bss_size+0x42>
    6442: 80 31        	bra	$6475 <printf+0x4b2>
    6444: a6 95        	ldx	$95                     ; 0x95 <__zp_bss_size+0x40>
    6446: 86 dc        	stx	$dc                     ; 0xdc <__zp_bss_size+0x87>
    6448: a6 96        	ldx	$96                     ; 0x96 <__zp_bss_size+0x41>
    644a: 86 dd        	stx	$dd                     ; 0xdd <__zp_bss_size+0x88>
    644c: a6 1a        	ldx	$1a                     ; 0x1a <__rc10>
    644e: 86 96        	stx	$96                     ; 0x96 <__zp_bss_size+0x41>
    6450: a2 10        	ldx	#$10
    6452: 86 c5        	stx	$c5                     ; 0xc5 <__zp_bss_size+0x70>
    6454: a5 97        	lda	$97                     ; 0x97 <__zp_bss_size+0x42>
    6456: 09 84        	ora	#$84
    6458: 80 14        	bra	$646e <printf+0x4ab>
    645a: a6 95        	ldx	$95                     ; 0x95 <__zp_bss_size+0x40>
    645c: 86 dc        	stx	$dc                     ; 0xdc <__zp_bss_size+0x87>
    645e: a6 96        	ldx	$96                     ; 0x96 <__zp_bss_size+0x41>
    6460: 86 dd        	stx	$dd                     ; 0xdd <__zp_bss_size+0x88>
    6462: a6 1a        	ldx	$1a                     ; 0x1a <__rc10>
    6464: 86 96        	stx	$96                     ; 0x96 <__zp_bss_size+0x41>
    6466: a2 10        	ldx	#$10
    6468: 86 c5        	stx	$c5                     ; 0xc5 <__zp_bss_size+0x70>
    646a: a5 97        	lda	$97                     ; 0x97 <__zp_bss_size+0x42>
    646c: 09 80        	ora	#$80
    646e: aa           	tax
    646f: a9 00        	lda	#$0
    6471: 09 01        	ora	#$1
    6473: 86 97        	stx	$97                     ; 0x97 <__zp_bss_size+0x42>
    6475: 86 c6        	stx	$c6                     ; 0xc6 <__zp_bss_size+0x71>
    6477: 85 99        	sta	$99                     ; 0x99 <__zp_bss_size+0x44>
    6479: 85 c7        	sta	$c7                     ; 0xc7 <__zp_bss_size+0x72>
    647b: a2 10        	ldx	#$10
    647d: 86 95        	stx	$95                     ; 0x95 <__zp_bss_size+0x40>
    647f: 4c 3e 65     	jmp	$653e <printf+0x57b>
    6482: a5 d6        	lda	$d6                     ; 0xd6 <__zp_bss_size+0x81>
    6484: a6 d7        	ldx	$d7                     ; 0xd7 <__zp_bss_size+0x82>
    6486: 85 12        	sta	$12                     ; 0x12 <__rc2>
    6488: 86 13        	stx	$13                     ; 0x13 <__rc3>
    648a: 18           	clc
    648b: 69 02        	adc	#$2
    648d: 85 14        	sta	$14                     ; 0x14 <__rc4>
    648f: 8a           	txa
    6490: 69 00        	adc	#$0
    6492: a6 14        	ldx	$14                     ; 0x14 <__rc4>
    6494: 86 d6        	stx	$d6                     ; 0xd6 <__zp_bss_size+0x81>
    6496: 85 d7        	sta	$d7                     ; 0xd7 <__zp_bss_size+0x82>
    6498: b2 12        	lda	($12)                   ; 0x12 <__rc2>
    649a: aa           	tax
    649b: b1 12        	lda	($12),y                 ; 0x12 <__rc2>
    649d: 86 12        	stx	$12                     ; 0x12 <__rc2>
    649f: 85 13        	sta	$13                     ; 0x13 <__rc3>
    64a1: a5 ca        	lda	$ca                     ; 0xca <__zp_bss_size+0x75>
    64a3: a6 cb        	ldx	$cb                     ; 0xcb <__zp_bss_size+0x76>
    64a5: 92 12        	sta	($12)                   ; 0x12 <__rc2>
    64a7: 8a           	txa
    64a8: 91 12        	sta	($12),y                 ; 0x12 <__rc2>
    64aa: 4c 13 65     	jmp	$6513 <printf+0x550>
    64ad: a5 d6        	lda	$d6                     ; 0xd6 <__zp_bss_size+0x81>
    64af: a6 d7        	ldx	$d7                     ; 0xd7 <__zp_bss_size+0x82>
    64b1: 85 12        	sta	$12                     ; 0x12 <__rc2>
    64b3: 86 13        	stx	$13                     ; 0x13 <__rc3>
    64b5: 18           	clc
    64b6: 69 02        	adc	#$2
    64b8: 85 14        	sta	$14                     ; 0x14 <__rc4>
    64ba: 8a           	txa
    64bb: 69 00        	adc	#$0
    64bd: a6 14        	ldx	$14                     ; 0x14 <__rc4>
    64bf: 86 d6        	stx	$d6                     ; 0xd6 <__zp_bss_size+0x81>
    64c1: 85 d7        	sta	$d7                     ; 0xd7 <__zp_bss_size+0x82>
    64c3: b2 12        	lda	($12)                   ; 0x12 <__rc2>
    64c5: aa           	tax
    64c6: b1 12        	lda	($12),y                 ; 0x12 <__rc2>
    64c8: 86 12        	stx	$12                     ; 0x12 <__rc2>
    64ca: 85 13        	sta	$13                     ; 0x13 <__rc3>
    64cc: 80 36        	bra	$6504 <printf+0x541>
    64ce: a6 95        	ldx	$95                     ; 0x95 <__zp_bss_size+0x40>
    64d0: 86 dc        	stx	$dc                     ; 0xdc <__zp_bss_size+0x87>
    64d2: a6 96        	ldx	$96                     ; 0x96 <__zp_bss_size+0x41>
    64d4: 86 dd        	stx	$dd                     ; 0xdd <__zp_bss_size+0x88>
    64d6: a6 1a        	ldx	$1a                     ; 0x1a <__rc10>
    64d8: 86 96        	stx	$96                     ; 0x96 <__zp_bss_size+0x41>
    64da: a0 08        	ldy	#$8
    64dc: a2 08        	ldx	#$8
    64de: 80 4e        	bra	$652e <printf+0x56b>
    64e0: a5 d6        	lda	$d6                     ; 0xd6 <__zp_bss_size+0x81>
    64e2: a6 d7        	ldx	$d7                     ; 0xd7 <__zp_bss_size+0x82>
    64e4: 85 12        	sta	$12                     ; 0x12 <__rc2>
    64e6: 86 13        	stx	$13                     ; 0x13 <__rc3>
    64e8: 18           	clc
    64e9: 69 02        	adc	#$2
    64eb: 85 14        	sta	$14                     ; 0x14 <__rc4>
    64ed: 8a           	txa
    64ee: 69 00        	adc	#$0
    64f0: a6 14        	ldx	$14                     ; 0x14 <__rc4>
    64f2: 86 d6        	stx	$d6                     ; 0xd6 <__zp_bss_size+0x81>
    64f4: 85 d7        	sta	$d7                     ; 0xd7 <__zp_bss_size+0x82>
    64f6: b2 12        	lda	($12)                   ; 0x12 <__rc2>
    64f8: 85 b8        	sta	$b8                     ; 0xb8 <__zp_bss_size+0x63>
    64fa: 64 b9        	stz	$b9                     ; 0xb9 <__zp_bss_size+0x64>
    64fc: a2 b8        	ldx	#$b8
    64fe: 86 12        	stx	$12                     ; 0x12 <__rc2>
    6500: a2 00        	ldx	#$0
    6502: 86 13        	stx	$13                     ; 0x13 <__rc3>
    6504: a2 c5        	ldx	#$c5
    6506: 86 14        	stx	$14                     ; 0x14 <__rc4>
    6508: a2 00        	ldx	#$0
    650a: 86 15        	stx	$15                     ; 0x15 <__rc5>
    650c: 84 9b        	sty	$9b                     ; 0x9b <__zp_bss_size+0x46>
    650e: 20 b4 5e     	jsr	$5eb4 <_ZN12_GLOBAL__N_112print_stringEPKcP6Status>
    6511: a4 9b        	ldy	$9b                     ; 0x9b <__zp_bss_size+0x46>
    6513: a6 da        	ldx	$da                     ; 0xda <__zp_bss_size+0x85>
    6515: 86 99        	stx	$99                     ; 0x99 <__zp_bss_size+0x44>
    6517: a6 db        	ldx	$db                     ; 0xdb <__zp_bss_size+0x86>
    6519: 86 9a        	stx	$9a                     ; 0x9a <__zp_bss_size+0x45>
    651b: 4c ae 6c     	jmp	$6cae <printf+0xceb>
    651e: a6 95        	ldx	$95                     ; 0x95 <__zp_bss_size+0x40>
    6520: 86 dc        	stx	$dc                     ; 0xdc <__zp_bss_size+0x87>
    6522: a6 96        	ldx	$96                     ; 0x96 <__zp_bss_size+0x41>
    6524: 86 dd        	stx	$dd                     ; 0xdd <__zp_bss_size+0x88>
    6526: a6 1a        	ldx	$1a                     ; 0x1a <__rc10>
    6528: 86 96        	stx	$96                     ; 0x96 <__zp_bss_size+0x41>
    652a: a0 0a        	ldy	#$a
    652c: a2 0a        	ldx	#$a
    652e: 86 95        	stx	$95                     ; 0x95 <__zp_bss_size+0x40>
    6530: 84 c5        	sty	$c5                     ; 0xc5 <__zp_bss_size+0x70>
    6532: a9 00        	lda	#$0
    6534: 09 01        	ora	#$1
    6536: a6 97        	ldx	$97                     ; 0x97 <__zp_bss_size+0x42>
    6538: 86 c6        	stx	$c6                     ; 0xc6 <__zp_bss_size+0x71>
    653a: 85 99        	sta	$99                     ; 0x99 <__zp_bss_size+0x44>
    653c: 85 c7        	sta	$c7                     ; 0xc7 <__zp_bss_size+0x72>
    653e: a5 98        	lda	$98                     ; 0x98 <__zp_bss_size+0x43>
    6540: 85 ba        	sta	$ba                     ; 0xba <__zp_bss_size+0x65>
    6542: a4 d6        	ldy	$d6                     ; 0xd6 <__zp_bss_size+0x81>
    6544: a6 d7        	ldx	$d7                     ; 0xd7 <__zp_bss_size+0x82>
    6546: 86 a0        	stx	$a0                     ; 0xa0 <__zp_bss_size+0x4b>
    6548: 84 14        	sty	$14                     ; 0x14 <__rc4>
    654a: 84 9e        	sty	$9e                     ; 0x9e <__zp_bss_size+0x49>
    654c: 86 15        	stx	$15                     ; 0x15 <__rc5>
    654e: a6 de        	ldx	$de                     ; 0xde <__zp_bss_size+0x89>
    6550: 86 12        	stx	$12                     ; 0x12 <__rc2>
    6552: a6 df        	ldx	$df                     ; 0xdf <__zp_bss_size+0x8a>
    6554: 86 13        	stx	$13                     ; 0x13 <__rc3>
    6556: a2 00        	ldx	#$0
    6558: 85 9a        	sta	$9a                     ; 0x9a <__zp_bss_size+0x45>
    655a: 20 eb 6e     	jsr	$6eeb <memcpy>
    655d: 18           	clc
    655e: a5 9e        	lda	$9e                     ; 0x9e <__zp_bss_size+0x49>
    6560: 65 9f        	adc	$9f                     ; 0x9f <__zp_bss_size+0x4a>
    6562: aa           	tax
    6563: a5 a0        	lda	$a0                     ; 0xa0 <__zp_bss_size+0x4b>
    6565: 69 00        	adc	#$0
    6567: 86 d6        	stx	$d6                     ; 0xd6 <__zp_bss_size+0x81>
    6569: 85 d7        	sta	$d7                     ; 0xd7 <__zp_bss_size+0x82>
    656b: a5 99        	lda	$99                     ; 0x99 <__zp_bss_size+0x44>
    656d: 29 01        	and	#$1
    656f: a0 00        	ldy	#$0
    6571: aa           	tax
    6572: d0 4a        	bne	$65be <printf+0x5fb>
    6574: a6 9a        	ldx	$9a                     ; 0x9a <__zp_bss_size+0x45>
    6576: b5 ba        	lda	$ba,x                   ; 0xba <__zp_bss_size+0x65>
    6578: aa           	tax
    6579: a5 96        	lda	$96                     ; 0x96 <__zp_bss_size+0x41>
    657b: 85 17        	sta	$17                     ; 0x17 <__rc7>
    657d: a5 9b        	lda	$9b                     ; 0x9b <__zp_bss_size+0x46>
    657f: 85 1a        	sta	$1a                     ; 0x1a <__rc10>
    6581: a5 9d        	lda	$9d                     ; 0x9d <__zp_bss_size+0x48>
    6583: 85 9b        	sta	$9b                     ; 0x9b <__zp_bss_size+0x46>
    6585: 8a           	txa
    6586: 10 42        	bpl	$65ca <printf+0x607>
    6588: a2 00        	ldx	#$0
    658a: 64 12        	stz	$12                     ; 0x12 <__rc2>
    658c: a9 00        	lda	#$0
    658e: 38           	sec
    658f: f5 bb        	sbc	$bb,x                   ; 0xbb <__zp_bss_size+0x66>
    6591: a0 01        	ldy	#$1
    6593: 84 14        	sty	$14                     ; 0x14 <__rc4>
    6595: 88           	dey
    6596: b0 02        	bcs	$659a <printf+0x5d7>
    6598: a0 01        	ldy	#$1
    659a: 38           	sec
    659b: e5 12        	sbc	$12                     ; 0x12 <__rc2>
    659d: 85 13        	sta	$13                     ; 0x13 <__rc3>
    659f: 64 12        	stz	$12                     ; 0x12 <__rc2>
    65a1: b0 04        	bcs	$65a7 <printf+0x5e4>
    65a3: a5 14        	lda	$14                     ; 0x14 <__rc4>
    65a5: 85 12        	sta	$12                     ; 0x12 <__rc2>
    65a7: 98           	tya
    65a8: 05 12        	ora	$12                     ; 0x12 <__rc2>
    65aa: 85 12        	sta	$12                     ; 0x12 <__rc2>
    65ac: a5 13        	lda	$13                     ; 0x13 <__rc3>
    65ae: 9d bb 00     	sta	$bb,x                   ; 0xbb <__zp_bss_size+0x66>
    65b1: e8           	inx
    65b2: 86 13        	stx	$13                     ; 0x13 <__rc3>
    65b4: a4 98        	ldy	$98                     ; 0x98 <__zp_bss_size+0x43>
    65b6: c4 13        	cpy	$13                     ; 0x13 <__rc3>
    65b8: d0 d2        	bne	$658c <printf+0x5c9>
    65ba: a0 01        	ldy	#$1
    65bc: 80 0c        	bra	$65ca <printf+0x607>
    65be: a6 96        	ldx	$96                     ; 0x96 <__zp_bss_size+0x41>
    65c0: 86 17        	stx	$17                     ; 0x17 <__rc7>
    65c2: a6 9b        	ldx	$9b                     ; 0x9b <__zp_bss_size+0x46>
    65c4: 86 1a        	stx	$1a                     ; 0x1a <__rc10>
    65c6: a6 9d        	ldx	$9d                     ; 0x9d <__zp_bss_size+0x48>
    65c8: 86 9b        	stx	$9b                     ; 0x9b <__zp_bss_size+0x46>
    65ca: 84 18        	sty	$18                     ; 0x18 <__rc8>
    65cc: a5 98        	lda	$98                     ; 0x98 <__zp_bss_size+0x43>
    65ce: 0a           	asl
    65cf: 0a           	asl
    65d0: 0a           	asl
    65d1: 85 12        	sta	$12                     ; 0x12 <__rc2>
    65d3: a2 00        	ldx	#$0
    65d5: 8a           	txa
    65d6: 4c 8d 66     	jmp	$668d <printf+0x6ca>
    65d9: a4 13        	ldy	$13                     ; 0x13 <__rc3>
    65db: 99 a3 00     	sta	$a3,y                   ; 0xa3 <__zp_bss_size+0x4e>
    65de: a4 15        	ldy	$15                     ; 0x15 <__rc5>
    65e0: c4 13        	cpy	$13                     ; 0x13 <__rc3>
    65e2: f0 38        	beq	$661c <printf+0x659>
    65e4: e6 13        	inc	$13                     ; 0x13 <__rc3>
    65e6: a4 13        	ldy	$13                     ; 0x13 <__rc3>
    65e8: b9 a3 00     	lda	$a3,y                   ; 0xa3 <__zp_bss_size+0x4e>
    65eb: 0a           	asl
    65ec: e0 00        	cpx	#$0
    65ee: f0 02        	beq	$65f2 <printf+0x62f>
    65f0: 09 01        	ora	#$1
    65f2: a4 95        	ldy	$95                     ; 0x95 <__zp_bss_size+0x40>
    65f4: 84 14        	sty	$14                     ; 0x14 <__rc4>
    65f6: c5 14        	cmp	$14                     ; 0x14 <__rc4>
    65f8: a2 01        	ldx	#$1
    65fa: b0 02        	bcs	$65fe <printf+0x63b>
    65fc: a2 00        	ldx	#$0
    65fe: 90 d9        	bcc	$65d9 <printf+0x616>
    6600: 84 14        	sty	$14                     ; 0x14 <__rc4>
    6602: 38           	sec
    6603: e5 14        	sbc	$14                     ; 0x14 <__rc4>
    6605: a4 13        	ldy	$13                     ; 0x13 <__rc3>
    6607: 99 a3 00     	sta	$a3,y                   ; 0xa3 <__zp_bss_size+0x4e>
    660a: a4 15        	ldy	$15                     ; 0x15 <__rc5>
    660c: c4 13        	cpy	$13                     ; 0x13 <__rc3>
    660e: d0 d4        	bne	$65e4 <printf+0x621>
    6610: a4 96        	ldy	$96                     ; 0x96 <__zp_bss_size+0x41>
    6612: a6 96        	ldx	$96                     ; 0x96 <__zp_bss_size+0x41>
    6614: e8           	inx
    6615: a9 01        	lda	#$1
    6617: 99 a3 00     	sta	$a3,y                   ; 0xa3 <__zp_bss_size+0x4e>
    661a: 86 96        	stx	$96                     ; 0x96 <__zp_bss_size+0x41>
    661c: a6 98        	ldx	$98                     ; 0x98 <__zp_bss_size+0x43>
    661e: b5 ba        	lda	$ba,x                   ; 0xba <__zp_bss_size+0x65>
    6620: aa           	tax
    6621: 10 41        	bpl	$6664 <printf+0x6a1>
    6623: a5 96        	lda	$96                     ; 0x96 <__zp_bss_size+0x41>
    6625: f0 2f        	beq	$6656 <printf+0x693>
    6627: a2 00        	ldx	#$0
    6629: a4 95        	ldy	$95                     ; 0x95 <__zp_bss_size+0x40>
    662b: 84 14        	sty	$14                     ; 0x14 <__rc4>
    662d: b5 a3        	lda	$a3,x                   ; 0xa3 <__zp_bss_size+0x4e>
    662f: 1a           	inc
    6630: f6 a3        	inc	$a3,x                   ; 0xa3 <__zp_bss_size+0x4e>
    6632: c5 14        	cmp	$14                     ; 0x14 <__rc4>
    6634: 90 2e        	bcc	$6664 <printf+0x6a1>
    6636: a4 95        	ldy	$95                     ; 0x95 <__zp_bss_size+0x40>
    6638: 84 13        	sty	$13                     ; 0x13 <__rc3>
    663a: 38           	sec
    663b: e5 13        	sbc	$13                     ; 0x13 <__rc3>
    663d: 9d a3 00     	sta	$a3,x                   ; 0xa3 <__zp_bss_size+0x4e>
    6640: e8           	inx
    6641: 86 13        	stx	$13                     ; 0x13 <__rc3>
    6643: a4 96        	ldy	$96                     ; 0x96 <__zp_bss_size+0x41>
    6645: c4 13        	cpy	$13                     ; 0x13 <__rc3>
    6647: d0 e4        	bne	$662d <printf+0x66a>
    6649: 80 0d        	bra	$6658 <printf+0x695>
    664b: a6 98        	ldx	$98                     ; 0x98 <__zp_bss_size+0x43>
    664d: b5 ba        	lda	$ba,x                   ; 0xba <__zp_bss_size+0x65>
    664f: aa           	tax
    6650: 64 96        	stz	$96                     ; 0x96 <__zp_bss_size+0x41>
    6652: 30 04        	bmi	$6658 <printf+0x695>
    6654: 80 0e        	bra	$6664 <printf+0x6a1>
    6656: 64 96        	stz	$96                     ; 0x96 <__zp_bss_size+0x41>
    6658: a4 96        	ldy	$96                     ; 0x96 <__zp_bss_size+0x41>
    665a: a6 96        	ldx	$96                     ; 0x96 <__zp_bss_size+0x41>
    665c: e8           	inx
    665d: a9 01        	lda	#$1
    665f: 99 a3 00     	sta	$a3,y                   ; 0xa3 <__zp_bss_size+0x4e>
    6662: 86 96        	stx	$96                     ; 0x96 <__zp_bss_size+0x41>
    6664: a2 01        	ldx	#$1
    6666: 86 16        	stx	$16                     ; 0x16 <__rc6>
    6668: 64 13        	stz	$13                     ; 0x13 <__rc3>
    666a: ca           	dex
    666b: a4 98        	ldy	$98                     ; 0x98 <__zp_bss_size+0x43>
    666d: b5 bb        	lda	$bb,x                   ; 0xbb <__zp_bss_size+0x66>
    666f: 0a           	asl
    6670: 64 14        	stz	$14                     ; 0x14 <__rc4>
    6672: 26 14        	rol	$14                     ; 0x14 <__rc4>
    6674: 05 13        	ora	$13                     ; 0x13 <__rc3>
    6676: 9d bb 00     	sta	$bb,x                   ; 0xbb <__zp_bss_size+0x66>
    6679: e8           	inx
    667a: 86 15        	stx	$15                     ; 0x15 <__rc5>
    667c: a5 14        	lda	$14                     ; 0x14 <__rc4>
    667e: 85 13        	sta	$13                     ; 0x13 <__rc3>
    6680: c4 15        	cpy	$15                     ; 0x15 <__rc5>
    6682: d0 e9        	bne	$666d <printf+0x6aa>
    6684: a5 19        	lda	$19                     ; 0x19 <__rc9>
    6686: 1a           	inc
    6687: c5 12        	cmp	$12                     ; 0x12 <__rc2>
    6689: a6 96        	ldx	$96                     ; 0x96 <__zp_bss_size+0x41>
    668b: b0 12        	bcs	$669f <printf+0x6dc>
    668d: 85 19        	sta	$19                     ; 0x19 <__rc9>
    668f: 8a           	txa
    6690: f0 b9        	beq	$664b <printf+0x688>
    6692: 8a           	txa
    6693: 86 96        	stx	$96                     ; 0x96 <__zp_bss_size+0x41>
    6695: 3a           	dec
    6696: 85 15        	sta	$15                     ; 0x15 <__rc5>
    6698: a2 00        	ldx	#$0
    669a: 64 13        	stz	$13                     ; 0x13 <__rc3>
    669c: 4c e6 65     	jmp	$65e6 <printf+0x623>
    669f: a4 16        	ldy	$16                     ; 0x16 <__rc6>
    66a1: a5 9c        	lda	$9c                     ; 0x9c <__zp_bss_size+0x47>
    66a3: 10 08        	bpl	$66ad <printf+0x6ea>
    66a5: a2 01        	ldx	#$1
    66a7: 64 9c        	stz	$9c                     ; 0x9c <__zp_bss_size+0x47>
    66a9: 86 9b        	stx	$9b                     ; 0x9b <__zp_bss_size+0x46>
    66ab: a6 96        	ldx	$96                     ; 0x96 <__zp_bss_size+0x41>
    66ad: a5 da        	lda	$da                     ; 0xda <__zp_bss_size+0x85>
    66af: 85 99        	sta	$99                     ; 0x99 <__zp_bss_size+0x44>
    66b1: a5 db        	lda	$db                     ; 0xdb <__zp_bss_size+0x86>
    66b3: 85 9a        	sta	$9a                     ; 0x9a <__zp_bss_size+0x45>
    66b5: a5 97        	lda	$97                     ; 0x97 <__zp_bss_size+0x42>
    66b7: 29 04        	and	#$4
    66b9: f0 2b        	beq	$66e6 <printf+0x723>
    66bb: a5 95        	lda	$95                     ; 0x95 <__zp_bss_size+0x40>
    66bd: c9 10        	cmp	#$10
    66bf: f0 14        	beq	$66d5 <printf+0x712>
    66c1: c9 08        	cmp	#$8
    66c3: d0 21        	bne	$66e6 <printf+0x723>
    66c5: a2 00        	ldx	#$0
    66c7: e4 9c        	cpx	$9c                     ; 0x9c <__zp_bss_size+0x47>
    66c9: f0 03        	beq	$66ce <printf+0x70b>
    66cb: 4c cb 6c     	jmp	$6ccb <printf+0xd08>
    66ce: a6 96        	ldx	$96                     ; 0x96 <__zp_bss_size+0x41>
    66d0: e4 9b        	cpx	$9b                     ; 0x9b <__zp_bss_size+0x46>
    66d2: 4c cd 6c     	jmp	$6ccd <printf+0xd0a>
    66d5: 8a           	txa
    66d6: f0 0e        	beq	$66e6 <printf+0x723>
    66d8: a5 97        	lda	$97                     ; 0x97 <__zp_bss_size+0x42>
    66da: 29 80        	and	#$80
    66dc: d0 03        	bne	$66e1 <printf+0x71e>
    66de: 4c e6 6c     	jmp	$6ce6 <printf+0xd23>
    66e1: a2 78        	ldx	#$78
    66e3: 4c e8 6c     	jmp	$6ce8 <printf+0xd25>
    66e6: a6 97        	ldx	$97                     ; 0x97 <__zp_bss_size+0x42>
    66e8: a9 2d        	lda	#$2d
    66ea: e6 18        	inc	$18                     ; 0x18 <__rc8>
    66ec: c6 18        	dec	$18                     ; 0x18 <__rc8>
    66ee: f0 04        	beq	$66f4 <printf+0x731>
    66f0: 85 95        	sta	$95                     ; 0x95 <__zp_bss_size+0x40>
    66f2: 80 20        	bra	$6714 <printf+0x751>
    66f4: 86 12        	stx	$12                     ; 0x12 <__rc2>
    66f6: 8a           	txa
    66f7: 29 02        	and	#$2
    66f9: a2 2b        	ldx	#$2b
    66fb: c9 00        	cmp	#$0
    66fd: d0 13        	bne	$6712 <printf+0x74f>
    66ff: a5 12        	lda	$12                     ; 0x12 <__rc2>
    6701: 29 08        	and	#$8
    6703: d0 0b        	bne	$6710 <printf+0x74d>
    6705: a2 01        	ldx	#$1
    6707: 86 9e        	stx	$9e                     ; 0x9e <__zp_bss_size+0x49>
    6709: a9 00        	lda	#$0
    670b: aa           	tax
    670c: 86 98        	stx	$98                     ; 0x98 <__zp_bss_size+0x43>
    670e: 80 0b        	bra	$671b <printf+0x758>
    6710: a2 20        	ldx	#$20
    6712: 86 95        	stx	$95                     ; 0x95 <__zp_bss_size+0x40>
    6714: a2 00        	ldx	#$0
    6716: 86 9e        	stx	$9e                     ; 0x9e <__zp_bss_size+0x49>
    6718: 86 98        	stx	$98                     ; 0x98 <__zp_bss_size+0x43>
    671a: 98           	tya
    671b: a6 9c        	ldx	$9c                     ; 0x9c <__zp_bss_size+0x47>
    671d: d0 06        	bne	$6725 <printf+0x762>
    671f: a6 9b        	ldx	$9b                     ; 0x9b <__zp_bss_size+0x46>
    6721: e4 96        	cpx	$96                     ; 0x96 <__zp_bss_size+0x41>
    6723: 80 04        	bra	$6729 <printf+0x766>
    6725: a6 9c        	ldx	$9c                     ; 0x9c <__zp_bss_size+0x47>
    6727: e0 00        	cpx	#$0
    6729: a6 9b        	ldx	$9b                     ; 0x9b <__zp_bss_size+0x46>
    672b: 86 12        	stx	$12                     ; 0x12 <__rc2>
    672d: a6 9c        	ldx	$9c                     ; 0x9c <__zp_bss_size+0x47>
    672f: 86 13        	stx	$13                     ; 0x13 <__rc3>
    6731: b0 06        	bcs	$6739 <printf+0x776>
    6733: a6 96        	ldx	$96                     ; 0x96 <__zp_bss_size+0x41>
    6735: 86 12        	stx	$12                     ; 0x12 <__rc2>
    6737: 64 13        	stz	$13                     ; 0x13 <__rc3>
    6739: 85 18        	sta	$18                     ; 0x18 <__rc8>
    673b: 18           	clc
    673c: 65 12        	adc	$12                     ; 0x12 <__rc2>
    673e: aa           	tax
    673f: 85 14        	sta	$14                     ; 0x14 <__rc4>
    6741: a5 13        	lda	$13                     ; 0x13 <__rc3>
    6743: 69 00        	adc	#$0
    6745: 85 15        	sta	$15                     ; 0x15 <__rc5>
    6747: c5 1a        	cmp	$1a                     ; 0x1a <__rc10>
    6749: d0 08        	bne	$6753 <printf+0x790>
    674b: a5 1a        	lda	$1a                     ; 0x1a <__rc10>
    674d: 85 16        	sta	$16                     ; 0x16 <__rc6>
    674f: e4 17        	cpx	$17                     ; 0x17 <__rc7>
    6751: 80 06        	bra	$6759 <printf+0x796>
    6753: a6 1a        	ldx	$1a                     ; 0x1a <__rc10>
    6755: 86 16        	stx	$16                     ; 0x16 <__rc6>
    6757: c5 1a        	cmp	$1a                     ; 0x1a <__rc10>
    6759: 64 9f        	stz	$9f                     ; 0x9f <__zp_bss_size+0x4a>
    675b: 64 a0        	stz	$a0                     ; 0xa0 <__zp_bss_size+0x4b>
    675d: a6 96        	ldx	$96                     ; 0x96 <__zp_bss_size+0x41>
    675f: 90 03        	bcc	$6764 <printf+0x7a1>
    6761: 4c 1f 68     	jmp	$681f <printf+0x85c>
    6764: a5 97        	lda	$97                     ; 0x97 <__zp_bss_size+0x42>
    6766: 29 11        	and	#$11
    6768: f0 10        	beq	$677a <printf+0x7b7>
    676a: a5 17        	lda	$17                     ; 0x17 <__rc7>
    676c: 38           	sec
    676d: e5 14        	sbc	$14                     ; 0x14 <__rc4>
    676f: 85 9f        	sta	$9f                     ; 0x9f <__zp_bss_size+0x4a>
    6771: a5 1a        	lda	$1a                     ; 0x1a <__rc10>
    6773: e5 15        	sbc	$15                     ; 0x15 <__rc5>
    6775: 85 a0        	sta	$a0                     ; 0xa0 <__zp_bss_size+0x4b>
    6777: 4c 1f 68     	jmp	$681f <printf+0x85c>
    677a: a2 01        	ldx	#$1
    677c: 86 9d        	stx	$9d                     ; 0x9d <__zp_bss_size+0x48>
    677e: a6 ca        	ldx	$ca                     ; 0xca <__zp_bss_size+0x75>
    6780: 86 14        	stx	$14                     ; 0x14 <__rc4>
    6782: 38           	sec
    6783: a5 18        	lda	$18                     ; 0x18 <__rc8>
    6785: e5 17        	sbc	$17                     ; 0x17 <__rc7>
    6787: aa           	tax
    6788: a9 00        	lda	#$0
    678a: e5 16        	sbc	$16                     ; 0x16 <__rc6>
    678c: a8           	tay
    678d: 18           	clc
    678e: 8a           	txa
    678f: 65 12        	adc	$12                     ; 0x12 <__rc2>
    6791: 85 97        	sta	$97                     ; 0x97 <__zp_bss_size+0x42>
    6793: 98           	tya
    6794: 65 13        	adc	$13                     ; 0x13 <__rc3>
    6796: a4 cb        	ldy	$cb                     ; 0xcb <__zp_bss_size+0x76>
    6798: 4c ff 67     	jmp	$67ff <printf+0x83c>
    679b: 84 15        	sty	$15                     ; 0x15 <__rc5>
    679d: c4 c9        	cpy	$c9                     ; 0xc9 <__zp_bss_size+0x74>
    679f: b0 40        	bcs	$67e1 <printf+0x81e>
    67a1: a6 d5        	ldx	$d5                     ; 0xd5 <__zp_bss_size+0x80>
    67a3: a0 00        	ldy	#$0
    67a5: 84 12        	sty	$12                     ; 0x12 <__rc2>
    67a7: a0 00        	ldy	#$0
    67a9: 84 13        	sty	$13                     ; 0x13 <__rc3>
    67ab: e4 13        	cpx	$13                     ; 0x13 <__rc3>
    67ad: d0 1d        	bne	$67cc <printf+0x809>
    67af: a6 d4        	ldx	$d4                     ; 0xd4 <__zp_bss_size+0x7f>
    67b1: e4 12        	cpx	$12                     ; 0x12 <__rc2>
    67b3: d0 17        	bne	$67cc <printf+0x809>
    67b5: a2 01        	ldx	#$1
    67b7: 86 9d        	stx	$9d                     ; 0x9d <__zp_bss_size+0x48>
    67b9: 18           	clc
    67ba: a5 14        	lda	$14                     ; 0x14 <__rc4>
    67bc: 65 ce        	adc	$ce                     ; 0xce <__zp_bss_size+0x79>
    67be: 85 12        	sta	$12                     ; 0x12 <__rc2>
    67c0: a5 15        	lda	$15                     ; 0x15 <__rc5>
    67c2: 65 cf        	adc	$cf                     ; 0xcf <__zp_bss_size+0x7a>
    67c4: 85 13        	sta	$13                     ; 0x13 <__rc3>
    67c6: a9 20        	lda	#$20
    67c8: 92 12        	sta	($12)                   ; 0x12 <__rc2>
    67ca: 80 13        	bra	$67df <printf+0x81c>
    67cc: a2 01        	ldx	#$1
    67ce: 86 9d        	stx	$9d                     ; 0x9d <__zp_bss_size+0x48>
    67d0: a2 20        	ldx	#$20
    67d2: 86 35        	stx	$35                     ; 0x35 <__putchar.s>
    67d4: a2 35        	ldx	#$35
    67d6: 86 12        	stx	$12                     ; 0x12 <__rc2>
    67d8: a2 00        	ldx	#$0
    67da: 86 13        	stx	$13                     ; 0x13 <__rc3>
    67dc: 20 90 33     	jsr	$3390 <textPrint>
    67df: a5 9f        	lda	$9f                     ; 0x9f <__zp_bss_size+0x4a>
    67e1: a6 ca        	ldx	$ca                     ; 0xca <__zp_bss_size+0x75>
    67e3: a4 cb        	ldy	$cb                     ; 0xcb <__zp_bss_size+0x76>
    67e5: e8           	inx
    67e6: d0 01        	bne	$67e9 <printf+0x826>
    67e8: c8           	iny
    67e9: 86 14        	stx	$14                     ; 0x14 <__rc4>
    67eb: 86 ca        	stx	$ca                     ; 0xca <__zp_bss_size+0x75>
    67ed: 84 cb        	sty	$cb                     ; 0xcb <__zp_bss_size+0x76>
    67ef: a6 97        	ldx	$97                     ; 0x97 <__zp_bss_size+0x42>
    67f1: e8           	inx
    67f2: d0 01        	bne	$67f5 <printf+0x832>
    67f4: 1a           	inc
    67f5: 86 97        	stx	$97                     ; 0x97 <__zp_bss_size+0x42>
    67f7: c9 00        	cmp	#$0
    67f9: d0 04        	bne	$67ff <printf+0x83c>
    67fb: e0 00        	cpx	#$0
    67fd: f0 18        	beq	$6817 <printf+0x854>
    67ff: 85 9f        	sta	$9f                     ; 0x9f <__zp_bss_size+0x4a>
    6801: c4 c9        	cpy	$c9                     ; 0xc9 <__zp_bss_size+0x74>
    6803: f0 03        	beq	$6808 <printf+0x845>
    6805: 4c 9b 67     	jmp	$679b <printf+0x7d8>
    6808: 84 15        	sty	$15                     ; 0x15 <__rc5>
    680a: a6 c8        	ldx	$c8                     ; 0xc8 <__zp_bss_size+0x73>
    680c: 86 12        	stx	$12                     ; 0x12 <__rc2>
    680e: a6 14        	ldx	$14                     ; 0x14 <__rc4>
    6810: e4 12        	cpx	$12                     ; 0x12 <__rc2>
    6812: b0 cd        	bcs	$67e1 <printf+0x81e>
    6814: 4c a1 67     	jmp	$67a1 <printf+0x7de>
    6817: 64 9f        	stz	$9f                     ; 0x9f <__zp_bss_size+0x4a>
    6819: 64 a0        	stz	$a0                     ; 0xa0 <__zp_bss_size+0x4b>
    681b: a6 96        	ldx	$96                     ; 0x96 <__zp_bss_size+0x41>
    681d: a4 9d        	ldy	$9d                     ; 0x9d <__zp_bss_size+0x48>
    681f: a5 9e        	lda	$9e                     ; 0x9e <__zp_bss_size+0x49>
    6821: f0 03        	beq	$6826 <printf+0x863>
    6823: 4c 90 68     	jmp	$6890 <printf+0x8cd>
    6826: a6 ca        	ldx	$ca                     ; 0xca <__zp_bss_size+0x75>
    6828: a5 cb        	lda	$cb                     ; 0xcb <__zp_bss_size+0x76>
    682a: c5 c9        	cmp	$c9                     ; 0xc9 <__zp_bss_size+0x74>
    682c: d0 10        	bne	$683e <printf+0x87b>
    682e: 86 13        	stx	$13                     ; 0x13 <__rc3>
    6830: a6 c8        	ldx	$c8                     ; 0xc8 <__zp_bss_size+0x73>
    6832: 86 12        	stx	$12                     ; 0x12 <__rc2>
    6834: a6 13        	ldx	$13                     ; 0x13 <__rc3>
    6836: 86 15        	stx	$15                     ; 0x15 <__rc5>
    6838: e4 12        	cpx	$12                     ; 0x12 <__rc2>
    683a: 90 08        	bcc	$6844 <printf+0x881>
    683c: 80 4a        	bra	$6888 <printf+0x8c5>
    683e: 86 15        	stx	$15                     ; 0x15 <__rc5>
    6840: c5 c9        	cmp	$c9                     ; 0xc9 <__zp_bss_size+0x74>
    6842: b0 44        	bcs	$6888 <printf+0x8c5>
    6844: a2 01        	ldx	#$1
    6846: 86 14        	stx	$14                     ; 0x14 <__rc4>
    6848: a6 d5        	ldx	$d5                     ; 0xd5 <__zp_bss_size+0x80>
    684a: a0 00        	ldy	#$0
    684c: 84 12        	sty	$12                     ; 0x12 <__rc2>
    684e: a0 00        	ldy	#$0
    6850: 84 13        	sty	$13                     ; 0x13 <__rc3>
    6852: e4 13        	cpx	$13                     ; 0x13 <__rc3>
    6854: d0 1d        	bne	$6873 <printf+0x8b0>
    6856: a6 d4        	ldx	$d4                     ; 0xd4 <__zp_bss_size+0x7f>
    6858: e4 12        	cpx	$12                     ; 0x12 <__rc2>
    685a: d0 17        	bne	$6873 <printf+0x8b0>
    685c: a4 14        	ldy	$14                     ; 0x14 <__rc4>
    685e: 18           	clc
    685f: 85 16        	sta	$16                     ; 0x16 <__rc6>
    6861: a5 15        	lda	$15                     ; 0x15 <__rc5>
    6863: 65 ce        	adc	$ce                     ; 0xce <__zp_bss_size+0x79>
    6865: 85 12        	sta	$12                     ; 0x12 <__rc2>
    6867: a5 16        	lda	$16                     ; 0x16 <__rc6>
    6869: 65 cf        	adc	$cf                     ; 0xcf <__zp_bss_size+0x7a>
    686b: 85 13        	sta	$13                     ; 0x13 <__rc3>
    686d: a5 95        	lda	$95                     ; 0x95 <__zp_bss_size+0x40>
    686f: 92 12        	sta	($12)                   ; 0x12 <__rc2>
    6871: 80 15        	bra	$6888 <printf+0x8c5>
    6873: a2 01        	ldx	#$1
    6875: 86 9d        	stx	$9d                     ; 0x9d <__zp_bss_size+0x48>
    6877: a6 95        	ldx	$95                     ; 0x95 <__zp_bss_size+0x40>
    6879: 86 35        	stx	$35                     ; 0x35 <__putchar.s>
    687b: a2 35        	ldx	#$35
    687d: 86 12        	stx	$12                     ; 0x12 <__rc2>
    687f: a2 00        	ldx	#$0
    6881: 86 13        	stx	$13                     ; 0x13 <__rc3>
    6883: 20 90 33     	jsr	$3390 <textPrint>
    6886: a4 9d        	ldy	$9d                     ; 0x9d <__zp_bss_size+0x48>
    6888: e6 ca        	inc	$ca                     ; 0xca <__zp_bss_size+0x75>
    688a: d0 02        	bne	$688e <printf+0x8cb>
    688c: e6 cb        	inc	$cb                     ; 0xcb <__zp_bss_size+0x76>
    688e: a6 96        	ldx	$96                     ; 0x96 <__zp_bss_size+0x41>
    6890: a5 98        	lda	$98                     ; 0x98 <__zp_bss_size+0x43>
    6892: d0 03        	bne	$6897 <printf+0x8d4>
    6894: 4c 01 69     	jmp	$6901 <printf+0x93e>
    6897: a6 ca        	ldx	$ca                     ; 0xca <__zp_bss_size+0x75>
    6899: a5 cb        	lda	$cb                     ; 0xcb <__zp_bss_size+0x76>
    689b: c5 c9        	cmp	$c9                     ; 0xc9 <__zp_bss_size+0x74>
    689d: d0 10        	bne	$68af <printf+0x8ec>
    689f: 86 13        	stx	$13                     ; 0x13 <__rc3>
    68a1: a6 c8        	ldx	$c8                     ; 0xc8 <__zp_bss_size+0x73>
    68a3: 86 12        	stx	$12                     ; 0x12 <__rc2>
    68a5: a6 13        	ldx	$13                     ; 0x13 <__rc3>
    68a7: 86 15        	stx	$15                     ; 0x15 <__rc5>
    68a9: e4 12        	cpx	$12                     ; 0x12 <__rc2>
    68ab: 90 08        	bcc	$68b5 <printf+0x8f2>
    68ad: 80 4a        	bra	$68f9 <printf+0x936>
    68af: 86 15        	stx	$15                     ; 0x15 <__rc5>
    68b1: c5 c9        	cmp	$c9                     ; 0xc9 <__zp_bss_size+0x74>
    68b3: b0 44        	bcs	$68f9 <printf+0x936>
    68b5: a2 01        	ldx	#$1
    68b7: 86 14        	stx	$14                     ; 0x14 <__rc4>
    68b9: a6 d5        	ldx	$d5                     ; 0xd5 <__zp_bss_size+0x80>
    68bb: a0 00        	ldy	#$0
    68bd: 84 12        	sty	$12                     ; 0x12 <__rc2>
    68bf: a0 00        	ldy	#$0
    68c1: 84 13        	sty	$13                     ; 0x13 <__rc3>
    68c3: e4 13        	cpx	$13                     ; 0x13 <__rc3>
    68c5: d0 1d        	bne	$68e4 <printf+0x921>
    68c7: a6 d4        	ldx	$d4                     ; 0xd4 <__zp_bss_size+0x7f>
    68c9: e4 12        	cpx	$12                     ; 0x12 <__rc2>
    68cb: d0 17        	bne	$68e4 <printf+0x921>
    68cd: a4 14        	ldy	$14                     ; 0x14 <__rc4>
    68cf: 18           	clc
    68d0: 85 16        	sta	$16                     ; 0x16 <__rc6>
    68d2: a5 15        	lda	$15                     ; 0x15 <__rc5>
    68d4: 65 ce        	adc	$ce                     ; 0xce <__zp_bss_size+0x79>
    68d6: 85 12        	sta	$12                     ; 0x12 <__rc2>
    68d8: a5 16        	lda	$16                     ; 0x16 <__rc6>
    68da: 65 cf        	adc	$cf                     ; 0xcf <__zp_bss_size+0x7a>
    68dc: 85 13        	sta	$13                     ; 0x13 <__rc3>
    68de: a5 da        	lda	$da                     ; 0xda <__zp_bss_size+0x85>
    68e0: 92 12        	sta	($12)                   ; 0x12 <__rc2>
    68e2: 80 15        	bra	$68f9 <printf+0x936>
    68e4: a2 01        	ldx	#$1
    68e6: 86 9d        	stx	$9d                     ; 0x9d <__zp_bss_size+0x48>
    68e8: a6 da        	ldx	$da                     ; 0xda <__zp_bss_size+0x85>
    68ea: 86 35        	stx	$35                     ; 0x35 <__putchar.s>
    68ec: a2 35        	ldx	#$35
    68ee: 86 12        	stx	$12                     ; 0x12 <__rc2>
    68f0: a2 00        	ldx	#$0
    68f2: 86 13        	stx	$13                     ; 0x13 <__rc3>
    68f4: 20 90 33     	jsr	$3390 <textPrint>
    68f7: a4 9d        	ldy	$9d                     ; 0x9d <__zp_bss_size+0x48>
    68f9: e6 ca        	inc	$ca                     ; 0xca <__zp_bss_size+0x75>
    68fb: d0 02        	bne	$68ff <printf+0x93c>
    68fd: e6 cb        	inc	$cb                     ; 0xcb <__zp_bss_size+0x76>
    68ff: a6 96        	ldx	$96                     ; 0x96 <__zp_bss_size+0x41>
    6901: a9 10        	lda	#$10
    6903: 25 c6        	and	$c6                     ; 0xc6 <__zp_bss_size+0x71>
    6905: d0 03        	bne	$690a <printf+0x947>
    6907: 4c bf 69     	jmp	$69bf <printf+0x9fc>
    690a: a5 c6        	lda	$c6                     ; 0xc6 <__zp_bss_size+0x71>
    690c: 29 01        	and	#$1
    690e: f0 03        	beq	$6913 <printf+0x950>
    6910: 4c bf 69     	jmp	$69bf <printf+0x9fc>
    6913: a5 9f        	lda	$9f                     ; 0x9f <__zp_bss_size+0x4a>
    6915: 5a           	phy
    6916: a4 a0        	ldy	$a0                     ; 0xa0 <__zp_bss_size+0x4b>
    6918: 84 12        	sty	$12                     ; 0x12 <__rc2>
    691a: 7a           	ply
    691b: e6 12        	inc	$12                     ; 0x12 <__rc2>
    691d: c6 12        	dec	$12                     ; 0x12 <__rc2>
    691f: d0 07        	bne	$6928 <printf+0x965>
    6921: c9 00        	cmp	#$0
    6923: d0 03        	bne	$6928 <printf+0x965>
    6925: 4c fb 6c     	jmp	$6cfb <printf+0xd38>
    6928: a6 ca        	ldx	$ca                     ; 0xca <__zp_bss_size+0x75>
    692a: 86 15        	stx	$15                     ; 0x15 <__rc5>
    692c: a5 cb        	lda	$cb                     ; 0xcb <__zp_bss_size+0x76>
    692e: 4c a5 69     	jmp	$69a5 <printf+0x9e2>
    6931: c5 c9        	cmp	$c9                     ; 0xc9 <__zp_bss_size+0x74>
    6933: b0 42        	bcs	$6977 <printf+0x9b4>
    6935: a2 01        	ldx	#$1
    6937: 86 14        	stx	$14                     ; 0x14 <__rc4>
    6939: a6 d5        	ldx	$d5                     ; 0xd5 <__zp_bss_size+0x80>
    693b: a0 00        	ldy	#$0
    693d: 84 12        	sty	$12                     ; 0x12 <__rc2>
    693f: a0 00        	ldy	#$0
    6941: 84 13        	sty	$13                     ; 0x13 <__rc3>
    6943: e4 13        	cpx	$13                     ; 0x13 <__rc3>
    6945: d0 1b        	bne	$6962 <printf+0x99f>
    6947: a6 d4        	ldx	$d4                     ; 0xd4 <__zp_bss_size+0x7f>
    6949: e4 12        	cpx	$12                     ; 0x12 <__rc2>
    694b: d0 15        	bne	$6962 <printf+0x99f>
    694d: a4 14        	ldy	$14                     ; 0x14 <__rc4>
    694f: 18           	clc
    6950: aa           	tax
    6951: a5 15        	lda	$15                     ; 0x15 <__rc5>
    6953: 65 ce        	adc	$ce                     ; 0xce <__zp_bss_size+0x79>
    6955: 85 12        	sta	$12                     ; 0x12 <__rc2>
    6957: 8a           	txa
    6958: 65 cf        	adc	$cf                     ; 0xcf <__zp_bss_size+0x7a>
    695a: 85 13        	sta	$13                     ; 0x13 <__rc3>
    695c: a9 30        	lda	#$30
    695e: 92 12        	sta	($12)                   ; 0x12 <__rc2>
    6960: 80 15        	bra	$6977 <printf+0x9b4>
    6962: a2 01        	ldx	#$1
    6964: 86 9d        	stx	$9d                     ; 0x9d <__zp_bss_size+0x48>
    6966: a2 30        	ldx	#$30
    6968: 86 35        	stx	$35                     ; 0x35 <__putchar.s>
    696a: a2 35        	ldx	#$35
    696c: 86 12        	stx	$12                     ; 0x12 <__rc2>
    696e: a2 00        	ldx	#$0
    6970: 86 13        	stx	$13                     ; 0x13 <__rc3>
    6972: 20 90 33     	jsr	$3390 <textPrint>
    6975: a4 9d        	ldy	$9d                     ; 0x9d <__zp_bss_size+0x48>
    6977: a6 ca        	ldx	$ca                     ; 0xca <__zp_bss_size+0x75>
    6979: a5 cb        	lda	$cb                     ; 0xcb <__zp_bss_size+0x76>
    697b: e8           	inx
    697c: d0 01        	bne	$697f <printf+0x9bc>
    697e: 1a           	inc
    697f: 86 15        	stx	$15                     ; 0x15 <__rc5>
    6981: 86 ca        	stx	$ca                     ; 0xca <__zp_bss_size+0x75>
    6983: 85 cb        	sta	$cb                     ; 0xcb <__zp_bss_size+0x76>
    6985: a6 9f        	ldx	$9f                     ; 0x9f <__zp_bss_size+0x4a>
    6987: 86 12        	stx	$12                     ; 0x12 <__rc2>
    6989: a6 a0        	ldx	$a0                     ; 0xa0 <__zp_bss_size+0x4b>
    698b: 86 13        	stx	$13                     ; 0x13 <__rc3>
    698d: a2 ff        	ldx	#$ff
    698f: c6 12        	dec	$12                     ; 0x12 <__rc2>
    6991: e4 12        	cpx	$12                     ; 0x12 <__rc2>
    6993: d0 02        	bne	$6997 <printf+0x9d4>
    6995: c6 13        	dec	$13                     ; 0x13 <__rc3>
    6997: a6 12        	ldx	$12                     ; 0x12 <__rc2>
    6999: 86 9f        	stx	$9f                     ; 0x9f <__zp_bss_size+0x4a>
    699b: a6 13        	ldx	$13                     ; 0x13 <__rc3>
    699d: 86 a0        	stx	$a0                     ; 0xa0 <__zp_bss_size+0x4b>
    699f: d0 04        	bne	$69a5 <printf+0x9e2>
    69a1: a6 12        	ldx	$12                     ; 0x12 <__rc2>
    69a3: f0 14        	beq	$69b9 <printf+0x9f6>
    69a5: c5 c9        	cmp	$c9                     ; 0xc9 <__zp_bss_size+0x74>
    69a7: f0 03        	beq	$69ac <printf+0x9e9>
    69a9: 4c 31 69     	jmp	$6931 <printf+0x96e>
    69ac: a6 c8        	ldx	$c8                     ; 0xc8 <__zp_bss_size+0x73>
    69ae: 86 12        	stx	$12                     ; 0x12 <__rc2>
    69b0: a6 15        	ldx	$15                     ; 0x15 <__rc5>
    69b2: e4 12        	cpx	$12                     ; 0x12 <__rc2>
    69b4: b0 c1        	bcs	$6977 <printf+0x9b4>
    69b6: 4c 35 69     	jmp	$6935 <printf+0x972>
    69b9: 64 9f        	stz	$9f                     ; 0x9f <__zp_bss_size+0x4a>
    69bb: 64 a0        	stz	$a0                     ; 0xa0 <__zp_bss_size+0x4b>
    69bd: a6 96        	ldx	$96                     ; 0x96 <__zp_bss_size+0x41>
    69bf: a9 00        	lda	#$0
    69c1: c5 9c        	cmp	$9c                     ; 0x9c <__zp_bss_size+0x47>
    69c3: d0 07        	bne	$69cc <printf+0xa09>
    69c5: e4 9b        	cpx	$9b                     ; 0x9b <__zp_bss_size+0x46>
    69c7: 90 0a        	bcc	$69d3 <printf+0xa10>
    69c9: 4c 5f 6a     	jmp	$6a5f <printf+0xa9c>
    69cc: c5 9c        	cmp	$9c                     ; 0x9c <__zp_bss_size+0x47>
    69ce: 90 03        	bcc	$69d3 <printf+0xa10>
    69d0: 4c 5f 6a     	jmp	$6a5f <printf+0xa9c>
    69d3: a6 ca        	ldx	$ca                     ; 0xca <__zp_bss_size+0x75>
    69d5: 86 15        	stx	$15                     ; 0x15 <__rc5>
    69d7: a5 cb        	lda	$cb                     ; 0xcb <__zp_bss_size+0x76>
    69d9: a2 ff        	ldx	#$ff
    69db: c6 9b        	dec	$9b                     ; 0x9b <__zp_bss_size+0x46>
    69dd: e4 9b        	cpx	$9b                     ; 0x9b <__zp_bss_size+0x46>
    69df: d0 02        	bne	$69e3 <printf+0xa20>
    69e1: c6 9c        	dec	$9c                     ; 0x9c <__zp_bss_size+0x47>
    69e3: c5 c9        	cmp	$c9                     ; 0xc9 <__zp_bss_size+0x74>
    69e5: d0 0c        	bne	$69f3 <printf+0xa30>
    69e7: a6 c8        	ldx	$c8                     ; 0xc8 <__zp_bss_size+0x73>
    69e9: 86 12        	stx	$12                     ; 0x12 <__rc2>
    69eb: a6 15        	ldx	$15                     ; 0x15 <__rc5>
    69ed: e4 12        	cpx	$12                     ; 0x12 <__rc2>
    69ef: 90 06        	bcc	$69f7 <printf+0xa34>
    69f1: 80 46        	bra	$6a39 <printf+0xa76>
    69f3: c5 c9        	cmp	$c9                     ; 0xc9 <__zp_bss_size+0x74>
    69f5: b0 42        	bcs	$6a39 <printf+0xa76>
    69f7: a2 01        	ldx	#$1
    69f9: 86 14        	stx	$14                     ; 0x14 <__rc4>
    69fb: a6 d5        	ldx	$d5                     ; 0xd5 <__zp_bss_size+0x80>
    69fd: a0 00        	ldy	#$0
    69ff: 84 12        	sty	$12                     ; 0x12 <__rc2>
    6a01: a0 00        	ldy	#$0
    6a03: 84 13        	sty	$13                     ; 0x13 <__rc3>
    6a05: e4 13        	cpx	$13                     ; 0x13 <__rc3>
    6a07: d0 1b        	bne	$6a24 <printf+0xa61>
    6a09: a6 d4        	ldx	$d4                     ; 0xd4 <__zp_bss_size+0x7f>
    6a0b: e4 12        	cpx	$12                     ; 0x12 <__rc2>
    6a0d: d0 15        	bne	$6a24 <printf+0xa61>
    6a0f: a4 14        	ldy	$14                     ; 0x14 <__rc4>
    6a11: 18           	clc
    6a12: aa           	tax
    6a13: a5 15        	lda	$15                     ; 0x15 <__rc5>
    6a15: 65 ce        	adc	$ce                     ; 0xce <__zp_bss_size+0x79>
    6a17: 85 12        	sta	$12                     ; 0x12 <__rc2>
    6a19: 8a           	txa
    6a1a: 65 cf        	adc	$cf                     ; 0xcf <__zp_bss_size+0x7a>
    6a1c: 85 13        	sta	$13                     ; 0x13 <__rc3>
    6a1e: a9 30        	lda	#$30
    6a20: 92 12        	sta	($12)                   ; 0x12 <__rc2>
    6a22: 80 15        	bra	$6a39 <printf+0xa76>
    6a24: a2 01        	ldx	#$1
    6a26: 86 9d        	stx	$9d                     ; 0x9d <__zp_bss_size+0x48>
    6a28: a2 30        	ldx	#$30
    6a2a: 86 35        	stx	$35                     ; 0x35 <__putchar.s>
    6a2c: a2 35        	ldx	#$35
    6a2e: 86 12        	stx	$12                     ; 0x12 <__rc2>
    6a30: a2 00        	ldx	#$0
    6a32: 86 13        	stx	$13                     ; 0x13 <__rc3>
    6a34: 20 90 33     	jsr	$3390 <textPrint>
    6a37: a4 9d        	ldy	$9d                     ; 0x9d <__zp_bss_size+0x48>
    6a39: a6 ca        	ldx	$ca                     ; 0xca <__zp_bss_size+0x75>
    6a3b: a5 cb        	lda	$cb                     ; 0xcb <__zp_bss_size+0x76>
    6a3d: e8           	inx
    6a3e: d0 01        	bne	$6a41 <printf+0xa7e>
    6a40: 1a           	inc
    6a41: 86 15        	stx	$15                     ; 0x15 <__rc5>
    6a43: 86 ca        	stx	$ca                     ; 0xca <__zp_bss_size+0x75>
    6a45: 85 cb        	sta	$cb                     ; 0xcb <__zp_bss_size+0x76>
    6a47: a2 00        	ldx	#$0
    6a49: e4 9c        	cpx	$9c                     ; 0x9c <__zp_bss_size+0x47>
    6a4b: d0 09        	bne	$6a56 <printf+0xa93>
    6a4d: a6 96        	ldx	$96                     ; 0x96 <__zp_bss_size+0x41>
    6a4f: e4 9b        	cpx	$9b                     ; 0x9b <__zp_bss_size+0x46>
    6a51: b0 0c        	bcs	$6a5f <printf+0xa9c>
    6a53: 4c d9 69     	jmp	$69d9 <printf+0xa16>
    6a56: e4 9c        	cpx	$9c                     ; 0x9c <__zp_bss_size+0x47>
    6a58: a6 96        	ldx	$96                     ; 0x96 <__zp_bss_size+0x41>
    6a5a: b0 03        	bcs	$6a5f <printf+0xa9c>
    6a5c: 4c d9 69     	jmp	$69d9 <printf+0xa16>
    6a5f: a5 dc        	lda	$dc                     ; 0xdc <__zp_bss_size+0x87>
    6a61: 85 95        	sta	$95                     ; 0x95 <__zp_bss_size+0x40>
    6a63: a5 dd        	lda	$dd                     ; 0xdd <__zp_bss_size+0x88>
    6a65: 85 96        	sta	$96                     ; 0x96 <__zp_bss_size+0x41>
    6a67: 8a           	txa
    6a68: d0 03        	bne	$6a6d <printf+0xaaa>
    6a6a: 4c b0 6b     	jmp	$6bb0 <printf+0xbed>
    6a6d: ca           	dex
    6a6e: d0 03        	bne	$6a73 <printf+0xab0>
    6a70: 4c 29 6b     	jmp	$6b29 <printf+0xb66>
    6a73: 86 9d        	stx	$9d                     ; 0x9d <__zp_bss_size+0x48>
    6a75: a6 e0        	ldx	$e0                     ; 0xe0 <__zp_bss_size+0x8b>
    6a77: 8a           	txa
    6a78: 18           	clc
    6a79: 65 9d        	adc	$9d                     ; 0x9d <__zp_bss_size+0x48>
    6a7b: 85 9b        	sta	$9b                     ; 0x9b <__zp_bss_size+0x46>
    6a7d: a5 e1        	lda	$e1                     ; 0xe1 <__zp_bss_size+0x8c>
    6a7f: 69 00        	adc	#$0
    6a81: 85 9c        	sta	$9c                     ; 0x9c <__zp_bss_size+0x47>
    6a83: 4c 17 6b     	jmp	$6b17 <printf+0xb54>
    6a86: 85 13        	sta	$13                     ; 0x13 <__rc3>
    6a88: a9 80        	lda	#$80
    6a8a: 25 c6        	and	$c6                     ; 0xc6 <__zp_bss_size+0x71>
    6a8c: f0 04        	beq	$6a92 <printf+0xacf>
    6a8e: a2 61        	ldx	#$61
    6a90: 80 02        	bra	$6a94 <printf+0xad1>
    6a92: a2 41        	ldx	#$41
    6a94: 86 12        	stx	$12                     ; 0x12 <__rc2>
    6a96: a2 01        	ldx	#$1
    6a98: 86 14        	stx	$14                     ; 0x14 <__rc4>
    6a9a: 18           	clc
    6a9b: a5 13        	lda	$13                     ; 0x13 <__rc3>
    6a9d: 65 12        	adc	$12                     ; 0x12 <__rc2>
    6a9f: 18           	clc
    6aa0: 69 f6        	adc	#$f6
    6aa2: a4 ca        	ldy	$ca                     ; 0xca <__zp_bss_size+0x75>
    6aa4: a6 cb        	ldx	$cb                     ; 0xcb <__zp_bss_size+0x76>
    6aa6: e4 c9        	cpx	$c9                     ; 0xc9 <__zp_bss_size+0x74>
    6aa8: d0 0c        	bne	$6ab6 <printf+0xaf3>
    6aaa: 86 16        	stx	$16                     ; 0x16 <__rc6>
    6aac: a6 c8        	ldx	$c8                     ; 0xc8 <__zp_bss_size+0x73>
    6aae: 86 12        	stx	$12                     ; 0x12 <__rc2>
    6ab0: 84 15        	sty	$15                     ; 0x15 <__rc5>
    6ab2: c4 12        	cpy	$12                     ; 0x12 <__rc2>
    6ab4: 80 06        	bra	$6abc <printf+0xaf9>
    6ab6: 84 15        	sty	$15                     ; 0x15 <__rc5>
    6ab8: 86 16        	stx	$16                     ; 0x16 <__rc6>
    6aba: e4 c9        	cpx	$c9                     ; 0xc9 <__zp_bss_size+0x74>
    6abc: a4 14        	ldy	$14                     ; 0x14 <__rc4>
    6abe: b0 41        	bcs	$6b01 <printf+0xb3e>
    6ac0: 85 14        	sta	$14                     ; 0x14 <__rc4>
    6ac2: a9 01        	lda	#$1
    6ac4: a6 d5        	ldx	$d5                     ; 0xd5 <__zp_bss_size+0x80>
    6ac6: a0 00        	ldy	#$0
    6ac8: 84 12        	sty	$12                     ; 0x12 <__rc2>
    6aca: a0 00        	ldy	#$0
    6acc: 84 13        	sty	$13                     ; 0x13 <__rc3>
    6ace: e4 13        	cpx	$13                     ; 0x13 <__rc3>
    6ad0: d0 1a        	bne	$6aec <printf+0xb29>
    6ad2: a6 d4        	ldx	$d4                     ; 0xd4 <__zp_bss_size+0x7f>
    6ad4: e4 12        	cpx	$12                     ; 0x12 <__rc2>
    6ad6: d0 14        	bne	$6aec <printf+0xb29>
    6ad8: a8           	tay
    6ad9: 18           	clc
    6ada: a5 15        	lda	$15                     ; 0x15 <__rc5>
    6adc: 65 ce        	adc	$ce                     ; 0xce <__zp_bss_size+0x79>
    6ade: 85 12        	sta	$12                     ; 0x12 <__rc2>
    6ae0: a5 16        	lda	$16                     ; 0x16 <__rc6>
    6ae2: 65 cf        	adc	$cf                     ; 0xcf <__zp_bss_size+0x7a>
    6ae4: 85 13        	sta	$13                     ; 0x13 <__rc3>
    6ae6: a5 14        	lda	$14                     ; 0x14 <__rc4>
    6ae8: 92 12        	sta	($12)                   ; 0x12 <__rc2>
    6aea: 80 15        	bra	$6b01 <printf+0xb3e>
    6aec: a2 01        	ldx	#$1
    6aee: 86 9e        	stx	$9e                     ; 0x9e <__zp_bss_size+0x49>
    6af0: a6 14        	ldx	$14                     ; 0x14 <__rc4>
    6af2: 86 35        	stx	$35                     ; 0x35 <__putchar.s>
    6af4: a2 35        	ldx	#$35
    6af6: 86 12        	stx	$12                     ; 0x12 <__rc2>
    6af8: a2 00        	ldx	#$0
    6afa: 86 13        	stx	$13                     ; 0x13 <__rc3>
    6afc: 20 90 33     	jsr	$3390 <textPrint>
    6aff: a4 9e        	ldy	$9e                     ; 0x9e <__zp_bss_size+0x49>
    6b01: e6 ca        	inc	$ca                     ; 0xca <__zp_bss_size+0x75>
    6b03: d0 02        	bne	$6b07 <printf+0xb44>
    6b05: e6 cb        	inc	$cb                     ; 0xcb <__zp_bss_size+0x76>
    6b07: c6 9d        	dec	$9d                     ; 0x9d <__zp_bss_size+0x48>
    6b09: a2 ff        	ldx	#$ff
    6b0b: c6 9b        	dec	$9b                     ; 0x9b <__zp_bss_size+0x46>
    6b0d: e4 9b        	cpx	$9b                     ; 0x9b <__zp_bss_size+0x46>
    6b0f: d0 02        	bne	$6b13 <printf+0xb50>
    6b11: c6 9c        	dec	$9c                     ; 0x9c <__zp_bss_size+0x47>
    6b13: a5 9d        	lda	$9d                     ; 0x9d <__zp_bss_size+0x48>
    6b15: f0 12        	beq	$6b29 <printf+0xb66>
    6b17: b2 9b        	lda	($9b)                   ; 0x9b <__zp_bss_size+0x46>
    6b19: c9 0a        	cmp	#$a
    6b1b: 90 03        	bcc	$6b20 <printf+0xb5d>
    6b1d: 4c 86 6a     	jmp	$6a86 <printf+0xac3>
    6b20: a2 01        	ldx	#$1
    6b22: 86 14        	stx	$14                     ; 0x14 <__rc4>
    6b24: 09 30        	ora	#$30
    6b26: 4c a2 6a     	jmp	$6aa2 <printf+0xadf>
    6b29: a5 a3        	lda	$a3                     ; 0xa3 <__zp_bss_size+0x4e>
    6b2b: c9 0a        	cmp	#$a
    6b2d: b0 04        	bcs	$6b33 <printf+0xb70>
    6b2f: 09 30        	ora	#$30
    6b31: 80 18        	bra	$6b4b <printf+0xb88>
    6b33: 85 13        	sta	$13                     ; 0x13 <__rc3>
    6b35: a9 80        	lda	#$80
    6b37: 25 c6        	and	$c6                     ; 0xc6 <__zp_bss_size+0x71>
    6b39: f0 04        	beq	$6b3f <printf+0xb7c>
    6b3b: a2 61        	ldx	#$61
    6b3d: 80 02        	bra	$6b41 <printf+0xb7e>
    6b3f: a2 41        	ldx	#$41
    6b41: 86 12        	stx	$12                     ; 0x12 <__rc2>
    6b43: 18           	clc
    6b44: a5 13        	lda	$13                     ; 0x13 <__rc3>
    6b46: 65 12        	adc	$12                     ; 0x12 <__rc2>
    6b48: 18           	clc
    6b49: 69 f6        	adc	#$f6
    6b4b: a6 ca        	ldx	$ca                     ; 0xca <__zp_bss_size+0x75>
    6b4d: 86 15        	stx	$15                     ; 0x15 <__rc5>
    6b4f: a6 cb        	ldx	$cb                     ; 0xcb <__zp_bss_size+0x76>
    6b51: e4 c9        	cpx	$c9                     ; 0xc9 <__zp_bss_size+0x74>
    6b53: d0 0e        	bne	$6b63 <printf+0xba0>
    6b55: 86 16        	stx	$16                     ; 0x16 <__rc6>
    6b57: a6 c8        	ldx	$c8                     ; 0xc8 <__zp_bss_size+0x73>
    6b59: 86 12        	stx	$12                     ; 0x12 <__rc2>
    6b5b: a6 15        	ldx	$15                     ; 0x15 <__rc5>
    6b5d: e4 12        	cpx	$12                     ; 0x12 <__rc2>
    6b5f: 90 08        	bcc	$6b69 <printf+0xba6>
    6b61: 80 47        	bra	$6baa <printf+0xbe7>
    6b63: 86 16        	stx	$16                     ; 0x16 <__rc6>
    6b65: e4 c9        	cpx	$c9                     ; 0xc9 <__zp_bss_size+0x74>
    6b67: b0 41        	bcs	$6baa <printf+0xbe7>
    6b69: 85 14        	sta	$14                     ; 0x14 <__rc4>
    6b6b: a9 01        	lda	#$1
    6b6d: a6 d5        	ldx	$d5                     ; 0xd5 <__zp_bss_size+0x80>
    6b6f: a0 00        	ldy	#$0
    6b71: 84 12        	sty	$12                     ; 0x12 <__rc2>
    6b73: a0 00        	ldy	#$0
    6b75: 84 13        	sty	$13                     ; 0x13 <__rc3>
    6b77: e4 13        	cpx	$13                     ; 0x13 <__rc3>
    6b79: d0 1a        	bne	$6b95 <printf+0xbd2>
    6b7b: a6 d4        	ldx	$d4                     ; 0xd4 <__zp_bss_size+0x7f>
    6b7d: e4 12        	cpx	$12                     ; 0x12 <__rc2>
    6b7f: d0 14        	bne	$6b95 <printf+0xbd2>
    6b81: a8           	tay
    6b82: 18           	clc
    6b83: a5 15        	lda	$15                     ; 0x15 <__rc5>
    6b85: 65 ce        	adc	$ce                     ; 0xce <__zp_bss_size+0x79>
    6b87: 85 12        	sta	$12                     ; 0x12 <__rc2>
    6b89: a5 16        	lda	$16                     ; 0x16 <__rc6>
    6b8b: 65 cf        	adc	$cf                     ; 0xcf <__zp_bss_size+0x7a>
    6b8d: 85 13        	sta	$13                     ; 0x13 <__rc3>
    6b8f: a5 14        	lda	$14                     ; 0x14 <__rc4>
    6b91: 92 12        	sta	($12)                   ; 0x12 <__rc2>
    6b93: 80 15        	bra	$6baa <printf+0xbe7>
    6b95: a2 01        	ldx	#$1
    6b97: 86 9b        	stx	$9b                     ; 0x9b <__zp_bss_size+0x46>
    6b99: a6 14        	ldx	$14                     ; 0x14 <__rc4>
    6b9b: 86 35        	stx	$35                     ; 0x35 <__putchar.s>
    6b9d: a2 35        	ldx	#$35
    6b9f: 86 12        	stx	$12                     ; 0x12 <__rc2>
    6ba1: a2 00        	ldx	#$0
    6ba3: 86 13        	stx	$13                     ; 0x13 <__rc3>
    6ba5: 20 90 33     	jsr	$3390 <textPrint>
    6ba8: a4 9b        	ldy	$9b                     ; 0x9b <__zp_bss_size+0x46>
    6baa: e6 ca        	inc	$ca                     ; 0xca <__zp_bss_size+0x75>
    6bac: d0 02        	bne	$6bb0 <printf+0xbed>
    6bae: e6 cb        	inc	$cb                     ; 0xcb <__zp_bss_size+0x76>
    6bb0: a5 c6        	lda	$c6                     ; 0xc6 <__zp_bss_size+0x71>
    6bb2: 29 01        	and	#$1
    6bb4: d0 27        	bne	$6bdd <printf+0xc1a>
    6bb6: a6 ca        	ldx	$ca                     ; 0xca <__zp_bss_size+0x75>
    6bb8: 86 15        	stx	$15                     ; 0x15 <__rc5>
    6bba: a5 cb        	lda	$cb                     ; 0xcb <__zp_bss_size+0x76>
    6bbc: a6 c8        	ldx	$c8                     ; 0xc8 <__zp_bss_size+0x73>
    6bbe: 86 14        	stx	$14                     ; 0x14 <__rc4>
    6bc0: a6 c9        	ldx	$c9                     ; 0xc9 <__zp_bss_size+0x74>
    6bc2: 86 12        	stx	$12                     ; 0x12 <__rc2>
    6bc4: 86 13        	stx	$13                     ; 0x13 <__rc3>
    6bc6: c5 12        	cmp	$12                     ; 0x12 <__rc2>
    6bc8: f0 03        	beq	$6bcd <printf+0xc0a>
    6bca: 4c 86 6c     	jmp	$6c86 <printf+0xcc3>
    6bcd: a5 14        	lda	$14                     ; 0x14 <__rc4>
    6bcf: 85 12        	sta	$12                     ; 0x12 <__rc2>
    6bd1: a6 15        	ldx	$15                     ; 0x15 <__rc5>
    6bd3: e4 12        	cpx	$12                     ; 0x12 <__rc2>
    6bd5: 90 03        	bcc	$6bda <printf+0xc17>
    6bd7: 4c 8e 6c     	jmp	$6c8e <printf+0xccb>
    6bda: 4c ae 6c     	jmp	$6cae <printf+0xceb>
    6bdd: a6 ca        	ldx	$ca                     ; 0xca <__zp_bss_size+0x75>
    6bdf: 86 15        	stx	$15                     ; 0x15 <__rc5>
    6be1: a5 cb        	lda	$cb                     ; 0xcb <__zp_bss_size+0x76>
    6be3: a6 9f        	ldx	$9f                     ; 0x9f <__zp_bss_size+0x4a>
    6be5: 5a           	phy
    6be6: a4 a0        	ldy	$a0                     ; 0xa0 <__zp_bss_size+0x4b>
    6be8: 84 12        	sty	$12                     ; 0x12 <__rc2>
    6bea: 7a           	ply
    6beb: e6 12        	inc	$12                     ; 0x12 <__rc2>
    6bed: c6 12        	dec	$12                     ; 0x12 <__rc2>
    6bef: f0 03        	beq	$6bf4 <printf+0xc31>
    6bf1: 4c 72 6c     	jmp	$6c72 <printf+0xcaf>
    6bf4: e0 00        	cpx	#$0
    6bf6: f0 c4        	beq	$6bbc <printf+0xbf9>
    6bf8: 4c 72 6c     	jmp	$6c72 <printf+0xcaf>
    6bfb: c5 c9        	cmp	$c9                     ; 0xc9 <__zp_bss_size+0x74>
    6bfd: b0 42        	bcs	$6c41 <printf+0xc7e>
    6bff: a2 01        	ldx	#$1
    6c01: 86 14        	stx	$14                     ; 0x14 <__rc4>
    6c03: a6 d5        	ldx	$d5                     ; 0xd5 <__zp_bss_size+0x80>
    6c05: a0 00        	ldy	#$0
    6c07: 84 12        	sty	$12                     ; 0x12 <__rc2>
    6c09: a0 00        	ldy	#$0
    6c0b: 84 13        	sty	$13                     ; 0x13 <__rc3>
    6c0d: e4 13        	cpx	$13                     ; 0x13 <__rc3>
    6c0f: d0 1b        	bne	$6c2c <printf+0xc69>
    6c11: a6 d4        	ldx	$d4                     ; 0xd4 <__zp_bss_size+0x7f>
    6c13: e4 12        	cpx	$12                     ; 0x12 <__rc2>
    6c15: d0 15        	bne	$6c2c <printf+0xc69>
    6c17: a4 14        	ldy	$14                     ; 0x14 <__rc4>
    6c19: 18           	clc
    6c1a: aa           	tax
    6c1b: a5 15        	lda	$15                     ; 0x15 <__rc5>
    6c1d: 65 ce        	adc	$ce                     ; 0xce <__zp_bss_size+0x79>
    6c1f: 85 12        	sta	$12                     ; 0x12 <__rc2>
    6c21: 8a           	txa
    6c22: 65 cf        	adc	$cf                     ; 0xcf <__zp_bss_size+0x7a>
    6c24: 85 13        	sta	$13                     ; 0x13 <__rc3>
    6c26: a9 20        	lda	#$20
    6c28: 92 12        	sta	($12)                   ; 0x12 <__rc2>
    6c2a: 80 15        	bra	$6c41 <printf+0xc7e>
    6c2c: a2 01        	ldx	#$1
    6c2e: 86 9b        	stx	$9b                     ; 0x9b <__zp_bss_size+0x46>
    6c30: a2 20        	ldx	#$20
    6c32: 86 35        	stx	$35                     ; 0x35 <__putchar.s>
    6c34: a2 35        	ldx	#$35
    6c36: 86 12        	stx	$12                     ; 0x12 <__rc2>
    6c38: a2 00        	ldx	#$0
    6c3a: 86 13        	stx	$13                     ; 0x13 <__rc3>
    6c3c: 20 90 33     	jsr	$3390 <textPrint>
    6c3f: a4 9b        	ldy	$9b                     ; 0x9b <__zp_bss_size+0x46>
    6c41: a6 ca        	ldx	$ca                     ; 0xca <__zp_bss_size+0x75>
    6c43: a5 cb        	lda	$cb                     ; 0xcb <__zp_bss_size+0x76>
    6c45: e8           	inx
    6c46: d0 01        	bne	$6c49 <printf+0xc86>
    6c48: 1a           	inc
    6c49: 86 15        	stx	$15                     ; 0x15 <__rc5>
    6c4b: 86 ca        	stx	$ca                     ; 0xca <__zp_bss_size+0x75>
    6c4d: 85 cb        	sta	$cb                     ; 0xcb <__zp_bss_size+0x76>
    6c4f: a6 9f        	ldx	$9f                     ; 0x9f <__zp_bss_size+0x4a>
    6c51: 86 12        	stx	$12                     ; 0x12 <__rc2>
    6c53: a6 a0        	ldx	$a0                     ; 0xa0 <__zp_bss_size+0x4b>
    6c55: 86 13        	stx	$13                     ; 0x13 <__rc3>
    6c57: a2 ff        	ldx	#$ff
    6c59: c6 12        	dec	$12                     ; 0x12 <__rc2>
    6c5b: e4 12        	cpx	$12                     ; 0x12 <__rc2>
    6c5d: d0 02        	bne	$6c61 <printf+0xc9e>
    6c5f: c6 13        	dec	$13                     ; 0x13 <__rc3>
    6c61: a6 12        	ldx	$12                     ; 0x12 <__rc2>
    6c63: 86 9f        	stx	$9f                     ; 0x9f <__zp_bss_size+0x4a>
    6c65: a6 13        	ldx	$13                     ; 0x13 <__rc3>
    6c67: 86 a0        	stx	$a0                     ; 0xa0 <__zp_bss_size+0x4b>
    6c69: d0 07        	bne	$6c72 <printf+0xcaf>
    6c6b: a6 12        	ldx	$12                     ; 0x12 <__rc2>
    6c6d: d0 03        	bne	$6c72 <printf+0xcaf>
    6c6f: 4c bc 6b     	jmp	$6bbc <printf+0xbf9>
    6c72: c5 c9        	cmp	$c9                     ; 0xc9 <__zp_bss_size+0x74>
    6c74: f0 03        	beq	$6c79 <printf+0xcb6>
    6c76: 4c fb 6b     	jmp	$6bfb <printf+0xc38>
    6c79: a6 c8        	ldx	$c8                     ; 0xc8 <__zp_bss_size+0x73>
    6c7b: 86 12        	stx	$12                     ; 0x12 <__rc2>
    6c7d: a6 15        	ldx	$15                     ; 0x15 <__rc5>
    6c7f: e4 12        	cpx	$12                     ; 0x12 <__rc2>
    6c81: b0 be        	bcs	$6c41 <printf+0xc7e>
    6c83: 4c ff 6b     	jmp	$6bff <printf+0xc3c>
    6c86: 86 12        	stx	$12                     ; 0x12 <__rc2>
    6c88: c5 12        	cmp	$12                     ; 0x12 <__rc2>
    6c8a: a5 14        	lda	$14                     ; 0x14 <__rc4>
    6c8c: 90 20        	bcc	$6cae <printf+0xceb>
    6c8e: a6 13        	ldx	$13                     ; 0x13 <__rc3>
    6c90: d0 03        	bne	$6c95 <printf+0xcd2>
    6c92: aa           	tax
    6c93: f0 19        	beq	$6cae <printf+0xceb>
    6c95: 18           	clc
    6c96: 65 ce        	adc	$ce                     ; 0xce <__zp_bss_size+0x79>
    6c98: 85 12        	sta	$12                     ; 0x12 <__rc2>
    6c9a: a5 13        	lda	$13                     ; 0x13 <__rc3>
    6c9c: 65 cf        	adc	$cf                     ; 0xcf <__zp_bss_size+0x7a>
    6c9e: 85 13        	sta	$13                     ; 0x13 <__rc3>
    6ca0: a2 ff        	ldx	#$ff
    6ca2: c6 12        	dec	$12                     ; 0x12 <__rc2>
    6ca4: e4 12        	cpx	$12                     ; 0x12 <__rc2>
    6ca6: d0 02        	bne	$6caa <printf+0xce7>
    6ca8: c6 13        	dec	$13                     ; 0x13 <__rc3>
    6caa: a9 00        	lda	#$0
    6cac: 92 12        	sta	($12)                   ; 0x12 <__rc2>
    6cae: e6 99        	inc	$99                     ; 0x99 <__zp_bss_size+0x44>
    6cb0: d0 02        	bne	$6cb4 <printf+0xcf1>
    6cb2: e6 9a        	inc	$9a                     ; 0x9a <__zp_bss_size+0x45>
    6cb4: a6 9a        	ldx	$9a                     ; 0x9a <__zp_bss_size+0x45>
    6cb6: e4 96        	cpx	$96                     ; 0x96 <__zp_bss_size+0x41>
    6cb8: f0 03        	beq	$6cbd <printf+0xcfa>
    6cba: 4c 28 60     	jmp	$6028 <printf+0x65>
    6cbd: a6 99        	ldx	$99                     ; 0x99 <__zp_bss_size+0x44>
    6cbf: e4 95        	cpx	$95                     ; 0x95 <__zp_bss_size+0x40>
    6cc1: f0 03        	beq	$6cc6 <printf+0xd03>
    6cc3: 4c 28 60     	jmp	$6028 <printf+0x65>
    6cc6: b2 95        	lda	($95)                   ; 0x95 <__zp_bss_size+0x40>
    6cc8: 4c 3c 60     	jmp	$603c <printf+0x79>
    6ccb: e4 9c        	cpx	$9c                     ; 0x9c <__zp_bss_size+0x47>
    6ccd: a6 97        	ldx	$97                     ; 0x97 <__zp_bss_size+0x42>
    6ccf: b0 03        	bcs	$6cd4 <printf+0xd11>
    6cd1: 4c e8 66     	jmp	$66e8 <printf+0x725>
    6cd4: a5 96        	lda	$96                     ; 0x96 <__zp_bss_size+0x41>
    6cd6: 85 9b        	sta	$9b                     ; 0x9b <__zp_bss_size+0x46>
    6cd8: 64 9c        	stz	$9c                     ; 0x9c <__zp_bss_size+0x47>
    6cda: e6 9b        	inc	$9b                     ; 0x9b <__zp_bss_size+0x46>
    6cdc: f0 03        	beq	$6ce1 <printf+0xd1e>
    6cde: 4c e8 66     	jmp	$66e8 <printf+0x725>
    6ce1: e6 9c        	inc	$9c                     ; 0x9c <__zp_bss_size+0x47>
    6ce3: 4c e8 66     	jmp	$66e8 <printf+0x725>
    6ce6: a2 58        	ldx	#$58
    6ce8: 86 da        	stx	$da                     ; 0xda <__zp_bss_size+0x85>
    6cea: a2 01        	ldx	#$1
    6cec: 86 98        	stx	$98                     ; 0x98 <__zp_bss_size+0x43>
    6cee: a2 30        	ldx	#$30
    6cf0: 86 95        	stx	$95                     ; 0x95 <__zp_bss_size+0x40>
    6cf2: a9 02        	lda	#$2
    6cf4: a2 00        	ldx	#$0
    6cf6: 86 9e        	stx	$9e                     ; 0x9e <__zp_bss_size+0x49>
    6cf8: 4c 1b 67     	jmp	$671b <printf+0x758>
    6cfb: 64 9f        	stz	$9f                     ; 0x9f <__zp_bss_size+0x4a>
    6cfd: 64 a0        	stz	$a0                     ; 0xa0 <__zp_bss_size+0x4b>
    6cff: 4c bf 69     	jmp	$69bf <printf+0x9fc>
    6d02: 60           	rts

00006d03 <malloc>:
    6d03: a8           	tay
    6d04: 8a           	txa
    6d05: a2 00        	ldx	#$0
    6d07: 86 12        	stx	$12                     ; 0x12 <__rc2>
    6d09: a2 00        	ldx	#$0
    6d0b: 86 13        	stx	$13                     ; 0x13 <__rc3>
    6d0d: aa           	tax
    6d0e: d0 07        	bne	$6d17 <malloc+0x14>
    6d10: c0 00        	cpy	#$0
    6d12: d0 03        	bne	$6d17 <malloc+0x14>
    6d14: 4c 1b 6e     	jmp	$6e1b <malloc+0x118>
    6d17: 84 16        	sty	$16                     ; 0x16 <__rc6>
    6d19: aa           	tax
    6d1a: d0 0e        	bne	$6d2a <malloc+0x27>
    6d1c: a6 16        	ldx	$16                     ; 0x16 <__rc6>
    6d1e: e0 07        	cpx	#$7
    6d20: b0 0c        	bcs	$6d2e <malloc+0x2b>
    6d22: a2 08        	ldx	#$8
    6d24: 86 91        	stx	$91                     ; 0x91 <__zp_bss_size+0x3c>
    6d26: a9 00        	lda	#$0
    6d28: 80 31        	bra	$6d5b <malloc+0x58>
    6d2a: c9 00        	cmp	#$0
    6d2c: 90 f4        	bcc	$6d22 <malloc+0x1f>
    6d2e: a8           	tay
    6d2f: a5 16        	lda	$16                     ; 0x16 <__rc6>
    6d31: 29 01        	and	#$1
    6d33: a2 02        	ldx	#$2
    6d35: 64 14        	stz	$14                     ; 0x14 <__rc4>
    6d37: c9 00        	cmp	#$0
    6d39: f0 02        	beq	$6d3d <malloc+0x3a>
    6d3b: a2 03        	ldx	#$3
    6d3d: 86 15        	stx	$15                     ; 0x15 <__rc5>
    6d3f: 18           	clc
    6d40: a5 16        	lda	$16                     ; 0x16 <__rc6>
    6d42: 65 15        	adc	$15                     ; 0x15 <__rc5>
    6d44: aa           	tax
    6d45: 98           	tya
    6d46: 65 14        	adc	$14                     ; 0x14 <__rc4>
    6d48: 90 03        	bcc	$6d4d <malloc+0x4a>
    6d4a: 4c 1b 6e     	jmp	$6e1b <malloc+0x118>
    6d4d: 86 14        	stx	$14                     ; 0x14 <__rc4>
    6d4f: 86 91        	stx	$91                     ; 0x91 <__zp_bss_size+0x3c>
    6d51: aa           	tax
    6d52: d0 07        	bne	$6d5b <malloc+0x58>
    6d54: a6 14        	ldx	$14                     ; 0x14 <__rc4>
    6d56: d0 03        	bne	$6d5b <malloc+0x58>
    6d58: 4c 1b 6e     	jmp	$6e1b <malloc+0x118>
    6d5b: 85 90        	sta	$90                     ; 0x90 <__zp_bss_size+0x3b>
    6d5d: ad 95 98     	lda	$9895                   ; 0x9895 <_ZN12_GLOBAL__N_111initializedE>
    6d60: 29 01        	and	#$1
    6d62: d0 3d        	bne	$6da1 <malloc+0x9e>
    6d64: a9 00        	lda	#$0
    6d66: a2 10        	ldx	#$10
    6d68: a0 9e        	ldy	#$9e
    6d6a: 84 14        	sty	$14                     ; 0x14 <__rc4>
    6d6c: a0 98        	ldy	#$98
    6d6e: 84 15        	sty	$15                     ; 0x15 <__rc5>
    6d70: a4 12        	ldy	$12                     ; 0x12 <__rc2>
    6d72: 84 92        	sty	$92                     ; 0x92 <__zp_bss_size+0x3d>
    6d74: a4 13        	ldy	$13                     ; 0x13 <__rc3>
    6d76: 84 93        	sty	$93                     ; 0x93 <__zp_bss_size+0x3e>
    6d78: a0 9e        	ldy	#$9e
    6d7a: 84 12        	sty	$12                     ; 0x12 <__rc2>
    6d7c: a0 98        	ldy	#$98
    6d7e: 84 13        	sty	$13                     ; 0x13 <__rc3>
    6d80: 20 1c 03     	jsr	$31c <_ZN12_GLOBAL__N_19FreeChunk6insertEPvj>
    6d83: a6 92        	ldx	$92                     ; 0x92 <__zp_bss_size+0x3d>
    6d85: 86 12        	stx	$12                     ; 0x12 <__rc2>
    6d87: a6 93        	ldx	$93                     ; 0x93 <__zp_bss_size+0x3e>
    6d89: 86 13        	stx	$13                     ; 0x13 <__rc3>
    6d8b: ae 9f 98     	ldx	$989f                   ; 0x989f <end_block9+0x1>
    6d8e: a9 fe        	lda	#$fe
    6d90: 2d 9e 98     	and	$989e                   ; 0x989e <end_block9>
    6d93: 8d 9e 98     	sta	$989e                   ; 0x989e <end_block9>
    6d96: 8e 9f 98     	stx	$989f                   ; 0x989f <end_block9+0x1>
    6d99: a2 01        	ldx	#$1
    6d9b: 8e 96 98     	stx	$9896                   ; 0x9896 <_ZN12_GLOBAL__N_19last_freeE>
    6d9e: 8e 95 98     	stx	$9895                   ; 0x9895 <_ZN12_GLOBAL__N_111initializedE>
    6da1: ae 99 98     	ldx	$9899                   ; 0x9899 <_ZN12_GLOBAL__N_19free_listE>
    6da4: 86 16        	stx	$16                     ; 0x16 <__rc6>
    6da6: ac 9a 98     	ldy	$989a                   ; 0x989a <_ZN12_GLOBAL__N_19free_listE+0x1>
    6da9: 84 17        	sty	$17                     ; 0x17 <__rc7>
    6dab: a9 00        	lda	#$0
    6dad: 85 14        	sta	$14                     ; 0x14 <__rc4>
    6daf: a9 00        	lda	#$0
    6db1: 85 15        	sta	$15                     ; 0x15 <__rc5>
    6db3: c4 15        	cpy	$15                     ; 0x15 <__rc5>
    6db5: d0 07        	bne	$6dbe <malloc+0xbb>
    6db7: e4 14        	cpx	$14                     ; 0x14 <__rc4>
    6db9: d0 03        	bne	$6dbe <malloc+0xbb>
    6dbb: 4c 1b 6e     	jmp	$6e1b <malloc+0x118>
    6dbe: a2 00        	ldx	#$0
    6dc0: a0 10        	ldy	#$10
    6dc2: 86 14        	stx	$14                     ; 0x14 <__rc4>
    6dc4: 84 15        	sty	$15                     ; 0x15 <__rc5>
    6dc6: 18           	clc
    6dc7: a9 9e        	lda	#$9e
    6dc9: 65 14        	adc	$14                     ; 0x14 <__rc4>
    6dcb: 85 18        	sta	$18                     ; 0x18 <__rc8>
    6dcd: a9 98        	lda	#$98
    6dcf: 65 15        	adc	$15                     ; 0x15 <__rc5>
    6dd1: 85 94        	sta	$94                     ; 0x94 <__zp_bss_size+0x3f>
    6dd3: a0 01        	ldy	#$1
    6dd5: a6 90        	ldx	$90                     ; 0x90 <__zp_bss_size+0x3b>
    6dd7: 86 19        	stx	$19                     ; 0x19 <__rc9>
    6dd9: a6 16        	ldx	$16                     ; 0x16 <__rc6>
    6ddb: 86 14        	stx	$14                     ; 0x14 <__rc4>
    6ddd: a6 17        	ldx	$17                     ; 0x17 <__rc7>
    6ddf: 86 15        	stx	$15                     ; 0x15 <__rc5>
    6de1: b1 14        	lda	($14),y                 ; 0x14 <__rc4>
    6de3: c5 19        	cmp	$19                     ; 0x19 <__rc9>
    6de5: d0 0e        	bne	$6df5 <malloc+0xf2>
    6de7: b2 14        	lda	($14)                   ; 0x14 <__rc4>
    6de9: 29 fe        	and	#$fe
    6deb: a6 91        	ldx	$91                     ; 0x91 <__zp_bss_size+0x3c>
    6ded: 86 1a        	stx	$1a                     ; 0x1a <__rc10>
    6def: c5 1a        	cmp	$1a                     ; 0x1a <__rc10>
    6df1: b0 29        	bcs	$6e1c <malloc+0x119>
    6df3: 80 04        	bra	$6df9 <malloc+0xf6>
    6df5: c5 19        	cmp	$19                     ; 0x19 <__rc9>
    6df7: b0 23        	bcs	$6e1c <malloc+0x119>
    6df9: a5 14        	lda	$14                     ; 0x14 <__rc4>
    6dfb: 18           	clc
    6dfc: 69 02        	adc	#$2
    6dfe: 85 1a        	sta	$1a                     ; 0x1a <__rc10>
    6e00: a5 15        	lda	$15                     ; 0x15 <__rc5>
    6e02: 69 00        	adc	#$0
    6e04: 85 1b        	sta	$1b                     ; 0x1b <__rc11>
    6e06: a0 02        	ldy	#$2
    6e08: b1 14        	lda	($14),y                 ; 0x14 <__rc4>
    6e0a: 85 14        	sta	$14                     ; 0x14 <__rc4>
    6e0c: 88           	dey
    6e0d: b1 1a        	lda	($1a),y                 ; 0x1a <__rc10>
    6e0f: 85 15        	sta	$15                     ; 0x15 <__rc5>
    6e11: c5 17        	cmp	$17                     ; 0x17 <__rc7>
    6e13: d0 cc        	bne	$6de1 <malloc+0xde>
    6e15: a5 14        	lda	$14                     ; 0x14 <__rc4>
    6e17: c5 16        	cmp	$16                     ; 0x16 <__rc6>
    6e19: d0 c6        	bne	$6de1 <malloc+0xde>
    6e1b: 60           	rts
    6e1c: a6 18        	ldx	$18                     ; 0x18 <__rc8>
    6e1e: 86 95        	stx	$95                     ; 0x95 <__zp_bss_size+0x40>
    6e20: a6 14        	ldx	$14                     ; 0x14 <__rc4>
    6e22: 86 12        	stx	$12                     ; 0x12 <__rc2>
    6e24: a6 15        	ldx	$15                     ; 0x15 <__rc5>
    6e26: 86 13        	stx	$13                     ; 0x13 <__rc3>
    6e28: a6 14        	ldx	$14                     ; 0x14 <__rc4>
    6e2a: 86 92        	stx	$92                     ; 0x92 <__zp_bss_size+0x3d>
    6e2c: a6 15        	ldx	$15                     ; 0x15 <__rc5>
    6e2e: 86 93        	stx	$93                     ; 0x93 <__zp_bss_size+0x3e>
    6e30: 20 70 04     	jsr	$470 <_ZN12_GLOBAL__N_19FreeChunk6removeEv>
    6e33: a6 92        	ldx	$92                     ; 0x92 <__zp_bss_size+0x3d>
    6e35: 86 12        	stx	$12                     ; 0x12 <__rc2>
    6e37: a6 93        	ldx	$93                     ; 0x93 <__zp_bss_size+0x3e>
    6e39: 86 13        	stx	$13                     ; 0x13 <__rc3>
    6e3b: a0 01        	ldy	#$1
    6e3d: b1 12        	lda	($12),y                 ; 0x12 <__rc2>
    6e3f: 85 15        	sta	$15                     ; 0x15 <__rc5>
    6e41: a9 fe        	lda	#$fe
    6e43: 32 12        	and	($12)                   ; 0x12 <__rc2>
    6e45: 38           	sec
    6e46: a6 91        	ldx	$91                     ; 0x91 <__zp_bss_size+0x3c>
    6e48: 86 14        	stx	$14                     ; 0x14 <__rc4>
    6e4a: 85 17        	sta	$17                     ; 0x17 <__rc7>
    6e4c: e5 14        	sbc	$14                     ; 0x14 <__rc4>
    6e4e: a8           	tay
    6e4f: a6 90        	ldx	$90                     ; 0x90 <__zp_bss_size+0x3b>
    6e51: 86 14        	stx	$14                     ; 0x14 <__rc4>
    6e53: a5 15        	lda	$15                     ; 0x15 <__rc5>
    6e55: 85 16        	sta	$16                     ; 0x16 <__rc6>
    6e57: e5 14        	sbc	$14                     ; 0x14 <__rc4>
    6e59: d0 06        	bne	$6e61 <malloc+0x15e>
    6e5b: 85 18        	sta	$18                     ; 0x18 <__rc8>
    6e5d: c0 08        	cpy	#$8
    6e5f: 80 04        	bra	$6e65 <malloc+0x162>
    6e61: 85 18        	sta	$18                     ; 0x18 <__rc8>
    6e63: c9 00        	cmp	#$0
    6e65: a6 95        	ldx	$95                     ; 0x95 <__zp_bss_size+0x40>
    6e67: 86 14        	stx	$14                     ; 0x14 <__rc4>
    6e69: a6 94        	ldx	$94                     ; 0x94 <__zp_bss_size+0x3f>
    6e6b: 86 15        	stx	$15                     ; 0x15 <__rc5>
    6e6d: a5 17        	lda	$17                     ; 0x17 <__rc7>
    6e6f: 90 43        	bcc	$6eb4 <malloc+0x1b1>
    6e71: 18           	clc
    6e72: a6 91        	ldx	$91                     ; 0x91 <__zp_bss_size+0x3c>
    6e74: 86 91        	stx	$91                     ; 0x91 <__zp_bss_size+0x3c>
    6e76: 8a           	txa
    6e77: 65 12        	adc	$12                     ; 0x12 <__rc2>
    6e79: 85 12        	sta	$12                     ; 0x12 <__rc2>
    6e7b: a6 90        	ldx	$90                     ; 0x90 <__zp_bss_size+0x3b>
    6e7d: 86 90        	stx	$90                     ; 0x90 <__zp_bss_size+0x3b>
    6e7f: a5 90        	lda	$90                     ; 0x90 <__zp_bss_size+0x3b>
    6e81: 65 13        	adc	$13                     ; 0x13 <__rc3>
    6e83: 85 13        	sta	$13                     ; 0x13 <__rc3>
    6e85: a6 18        	ldx	$18                     ; 0x18 <__rc8>
    6e87: 98           	tya
    6e88: 20 1c 03     	jsr	$31c <_ZN12_GLOBAL__N_19FreeChunk6insertEPvj>
    6e8b: a6 92        	ldx	$92                     ; 0x92 <__zp_bss_size+0x3d>
    6e8d: 86 12        	stx	$12                     ; 0x12 <__rc2>
    6e8f: a6 93        	ldx	$93                     ; 0x93 <__zp_bss_size+0x3e>
    6e91: 86 13        	stx	$13                     ; 0x13 <__rc3>
    6e93: a5 91        	lda	$91                     ; 0x91 <__zp_bss_size+0x3c>
    6e95: 29 fe        	and	#$fe
    6e97: 85 14        	sta	$14                     ; 0x14 <__rc4>
    6e99: a0 01        	ldy	#$1
    6e9b: 98           	tya
    6e9c: 32 12        	and	($12)                   ; 0x12 <__rc2>
    6e9e: 05 14        	ora	$14                     ; 0x14 <__rc4>
    6ea0: 92 12        	sta	($12)                   ; 0x12 <__rc2>
    6ea2: a5 90        	lda	$90                     ; 0x90 <__zp_bss_size+0x3b>
    6ea4: 91 12        	sta	($12),y                 ; 0x12 <__rc2>
    6ea6: a5 14        	lda	$14                     ; 0x14 <__rc4>
    6ea8: a6 90        	ldx	$90                     ; 0x90 <__zp_bss_size+0x3b>
    6eaa: 86 16        	stx	$16                     ; 0x16 <__rc6>
    6eac: a6 95        	ldx	$95                     ; 0x95 <__zp_bss_size+0x40>
    6eae: 86 14        	stx	$14                     ; 0x14 <__rc4>
    6eb0: a6 94        	ldx	$94                     ; 0x94 <__zp_bss_size+0x3f>
    6eb2: 86 15        	stx	$15                     ; 0x15 <__rc5>
    6eb4: 18           	clc
    6eb5: 65 12        	adc	$12                     ; 0x12 <__rc2>
    6eb7: a8           	tay
    6eb8: a5 16        	lda	$16                     ; 0x16 <__rc6>
    6eba: 65 13        	adc	$13                     ; 0x13 <__rc3>
    6ebc: c5 15        	cmp	$15                     ; 0x15 <__rc5>
    6ebe: d0 09        	bne	$6ec9 <malloc+0x1c6>
    6ec0: c4 14        	cpy	$14                     ; 0x14 <__rc4>
    6ec2: d0 05        	bne	$6ec9 <malloc+0x1c6>
    6ec4: 9c 96 98     	stz	$9896                   ; 0x9896 <_ZN12_GLOBAL__N_19last_freeE>
    6ec7: 80 14        	bra	$6edd <malloc+0x1da>
    6ec9: 84 14        	sty	$14                     ; 0x14 <__rc4>
    6ecb: 85 15        	sta	$15                     ; 0x15 <__rc5>
    6ecd: a0 01        	ldy	#$1
    6ecf: b1 14        	lda	($14),y                 ; 0x14 <__rc4>
    6ed1: 85 16        	sta	$16                     ; 0x16 <__rc6>
    6ed3: a9 fe        	lda	#$fe
    6ed5: 32 14        	and	($14)                   ; 0x14 <__rc4>
    6ed7: 92 14        	sta	($14)                   ; 0x14 <__rc4>
    6ed9: a5 16        	lda	$16                     ; 0x16 <__rc6>
    6edb: 91 14        	sta	($14),y                 ; 0x14 <__rc4>
    6edd: a5 12        	lda	$12                     ; 0x12 <__rc2>
    6edf: 18           	clc
    6ee0: 69 02        	adc	#$2
    6ee2: 85 12        	sta	$12                     ; 0x12 <__rc2>
    6ee4: a5 13        	lda	$13                     ; 0x13 <__rc3>
    6ee6: 69 00        	adc	#$0
    6ee8: 85 13        	sta	$13                     ; 0x13 <__rc3>
    6eea: 60           	rts

00006eeb <memcpy>:
    6eeb: a8           	tay
    6eec: 8a           	txa
    6eed: d0 03        	bne	$6ef2 <memcpy+0x7>
    6eef: 98           	tya
    6ef0: f0 24        	beq	$6f16 <memcpy+0x2b>
    6ef2: a5 12        	lda	$12                     ; 0x12 <__rc2>
    6ef4: 85 16        	sta	$16                     ; 0x16 <__rc6>
    6ef6: a5 13        	lda	$13                     ; 0x13 <__rc3>
    6ef8: 85 17        	sta	$17                     ; 0x17 <__rc7>
    6efa: b2 14        	lda	($14)                   ; 0x14 <__rc4>
    6efc: 92 16        	sta	($16)                   ; 0x16 <__rc6>
    6efe: e6 16        	inc	$16                     ; 0x16 <__rc6>
    6f00: d0 02        	bne	$6f04 <memcpy+0x19>
    6f02: e6 17        	inc	$17                     ; 0x17 <__rc7>
    6f04: e6 14        	inc	$14                     ; 0x14 <__rc4>
    6f06: d0 02        	bne	$6f0a <memcpy+0x1f>
    6f08: e6 15        	inc	$15                     ; 0x15 <__rc5>
    6f0a: 88           	dey
    6f0b: c0 ff        	cpy	#$ff
    6f0d: d0 01        	bne	$6f10 <memcpy+0x25>
    6f0f: ca           	dex
    6f10: 8a           	txa
    6f11: d0 e7        	bne	$6efa <memcpy+0xf>
    6f13: 98           	tya
    6f14: d0 e4        	bne	$6efa <memcpy+0xf>
    6f16: 60           	rts

00006f17 <__memset>:
    6f17: a4 14        	ldy	$14                     ; 0x14 <__rc4>
    6f19: d0 04        	bne	$6f1f <__memset+0x8>
    6f1b: e0 00        	cpx	#$0
    6f1d: f0 17        	beq	$6f36 <__memset+0x1f>
    6f1f: 92 12        	sta	($12)                   ; 0x12 <__rc2>
    6f21: e6 12        	inc	$12                     ; 0x12 <__rc2>
    6f23: d0 02        	bne	$6f27 <__memset+0x10>
    6f25: e6 13        	inc	$13                     ; 0x13 <__rc3>
    6f27: ca           	dex
    6f28: e0 ff        	cpx	#$ff
    6f2a: d0 02        	bne	$6f2e <__memset+0x17>
    6f2c: c6 14        	dec	$14                     ; 0x14 <__rc4>
    6f2e: a4 14        	ldy	$14                     ; 0x14 <__rc4>
    6f30: d0 ed        	bne	$6f1f <__memset+0x8>
    6f32: e0 00        	cpx	#$0
    6f34: d0 e9        	bne	$6f1f <__memset+0x8>
    6f36: 60           	rts

00006f37 <__ashlsi3>:
    6f37: 86 15        	stx	$15                     ; 0x15 <__rc5>
    6f39: a6 14        	ldx	$14                     ; 0x14 <__rc4>
    6f3b: f0 0e        	beq	$6f4b <__ashlsi3+0x14>
    6f3d: a6 14        	ldx	$14                     ; 0x14 <__rc4>
    6f3f: ca           	dex
    6f40: 0a           	asl
    6f41: 26 15        	rol	$15                     ; 0x15 <__rc5>
    6f43: 26 12        	rol	$12                     ; 0x12 <__rc2>
    6f45: 26 13        	rol	$13                     ; 0x13 <__rc3>
    6f47: e0 00        	cpx	#$0
    6f49: d0 f4        	bne	$6f3f <__ashlsi3+0x8>
    6f4b: a6 15        	ldx	$15                     ; 0x15 <__rc5>
    6f4d: 60           	rts

00006f4e <__lshrsi3>:
    6f4e: 86 15        	stx	$15                     ; 0x15 <__rc5>
    6f50: a6 14        	ldx	$14                     ; 0x14 <__rc4>
    6f52: f0 0e        	beq	$6f62 <__lshrsi3+0x14>
    6f54: a6 14        	ldx	$14                     ; 0x14 <__rc4>
    6f56: ca           	dex
    6f57: 46 13        	lsr	$13                     ; 0x13 <__rc3>
    6f59: 66 12        	ror	$12                     ; 0x12 <__rc2>
    6f5b: 66 15        	ror	$15                     ; 0x15 <__rc5>
    6f5d: 6a           	ror
    6f5e: e0 00        	cpx	#$0
    6f60: d0 f4        	bne	$6f56 <__lshrsi3+0x8>
    6f62: a6 15        	ldx	$15                     ; 0x15 <__rc5>
    6f64: 60           	rts

00006f65 <__udivqi3>:
    6f65: a8           	tay
    6f66: a9 00        	lda	#$0
    6f68: e0 00        	cpx	#$0
    6f6a: d0 03        	bne	$6f6f <__udivqi3+0xa>
    6f6c: 4c c0 6f     	jmp	$6fc0 <__udivqi3+0x5b>
    6f6f: 86 13        	stx	$13                     ; 0x13 <__rc3>
    6f71: c4 13        	cpy	$13                     ; 0x13 <__rc3>
    6f73: 90 4b        	bcc	$6fc0 <__udivqi3+0x5b>
    6f75: a9 01        	lda	#$1
    6f77: a6 13        	ldx	$13                     ; 0x13 <__rc3>
    6f79: 30 45        	bmi	$6fc0 <__udivqi3+0x5b>
    6f7b: 84 14        	sty	$14                     ; 0x14 <__rc4>
    6f7d: a2 00        	ldx	#$0
    6f7f: a4 13        	ldy	$13                     ; 0x13 <__rc3>
    6f81: 84 12        	sty	$12                     ; 0x12 <__rc2>
    6f83: 06 12        	asl	$12                     ; 0x12 <__rc2>
    6f85: a4 14        	ldy	$14                     ; 0x14 <__rc4>
    6f87: c4 12        	cpy	$12                     ; 0x12 <__rc2>
    6f89: 90 09        	bcc	$6f94 <__udivqi3+0x2f>
    6f8b: e8           	inx
    6f8c: a4 12        	ldy	$12                     ; 0x12 <__rc2>
    6f8e: 84 13        	sty	$13                     ; 0x13 <__rc3>
    6f90: 10 f1        	bpl	$6f83 <__udivqi3+0x1e>
    6f92: 80 04        	bra	$6f98 <__udivqi3+0x33>
    6f94: a4 13        	ldy	$13                     ; 0x13 <__rc3>
    6f96: 84 12        	sty	$12                     ; 0x12 <__rc2>
    6f98: e0 00        	cpx	#$0
    6f9a: f0 24        	beq	$6fc0 <__udivqi3+0x5b>
    6f9c: 38           	sec
    6f9d: a5 14        	lda	$14                     ; 0x14 <__rc4>
    6f9f: e5 12        	sbc	$12                     ; 0x12 <__rc2>
    6fa1: 85 13        	sta	$13                     ; 0x13 <__rc3>
    6fa3: a9 01        	lda	#$1
    6fa5: 46 12        	lsr	$12                     ; 0x12 <__rc2>
    6fa7: 0a           	asl
    6fa8: a8           	tay
    6fa9: a5 13        	lda	$13                     ; 0x13 <__rc3>
    6fab: c5 12        	cmp	$12                     ; 0x12 <__rc2>
    6fad: 90 0b        	bcc	$6fba <__udivqi3+0x55>
    6faf: 98           	tya
    6fb0: 09 01        	ora	#$1
    6fb2: a8           	tay
    6fb3: 38           	sec
    6fb4: a5 13        	lda	$13                     ; 0x13 <__rc3>
    6fb6: e5 12        	sbc	$12                     ; 0x12 <__rc2>
    6fb8: 85 13        	sta	$13                     ; 0x13 <__rc3>
    6fba: ca           	dex
    6fbb: 98           	tya
    6fbc: e0 00        	cpx	#$0
    6fbe: d0 e5        	bne	$6fa5 <__udivqi3+0x40>
    6fc0: 60           	rts

00006fc1 <__udivhi3>:
    6fc1: 64 14        	stz	$14                     ; 0x14 <__rc4>
    6fc3: a4 13        	ldy	$13                     ; 0x13 <__rc3>
    6fc5: d0 04        	bne	$6fcb <__udivhi3+0xa>
    6fc7: a4 12        	ldy	$12                     ; 0x12 <__rc2>
    6fc9: f0 0c        	beq	$6fd7 <__udivhi3+0x16>
    6fcb: 85 17        	sta	$17                     ; 0x17 <__rc7>
    6fcd: da           	phx
    6fce: 7a           	ply
    6fcf: e4 13        	cpx	$13                     ; 0x13 <__rc3>
    6fd1: d0 09        	bne	$6fdc <__udivhi3+0x1b>
    6fd3: c5 12        	cmp	$12                     ; 0x12 <__rc2>
    6fd5: b0 09        	bcs	$6fe0 <__udivhi3+0x1f>
    6fd7: 64 19        	stz	$19                     ; 0x19 <__rc9>
    6fd9: 4c 75 70     	jmp	$7075 <__udivhi3+0xb4>
    6fdc: c4 13        	cpy	$13                     ; 0x13 <__rc3>
    6fde: 90 f7        	bcc	$6fd7 <__udivhi3+0x16>
    6fe0: a9 01        	lda	#$1
    6fe2: 85 19        	sta	$19                     ; 0x19 <__rc9>
    6fe4: a5 13        	lda	$13                     ; 0x13 <__rc3>
    6fe6: 10 03        	bpl	$6feb <__udivhi3+0x2a>
    6fe8: 4c 75 70     	jmp	$7075 <__udivhi3+0xb4>
    6feb: a2 00        	ldx	#$0
    6fed: a5 12        	lda	$12                     ; 0x12 <__rc2>
    6fef: 85 15        	sta	$15                     ; 0x15 <__rc5>
    6ff1: a5 13        	lda	$13                     ; 0x13 <__rc3>
    6ff3: 85 16        	sta	$16                     ; 0x16 <__rc6>
    6ff5: 06 15        	asl	$15                     ; 0x15 <__rc5>
    6ff7: 26 16        	rol	$16                     ; 0x16 <__rc6>
    6ff9: c4 16        	cpy	$16                     ; 0x16 <__rc6>
    6ffb: d0 0c        	bne	$7009 <__udivhi3+0x48>
    6ffd: 84 18        	sty	$18                     ; 0x18 <__rc8>
    6fff: a4 17        	ldy	$17                     ; 0x17 <__rc7>
    7001: c4 15        	cpy	$15                     ; 0x15 <__rc5>
    7003: a4 18        	ldy	$18                     ; 0x18 <__rc8>
    7005: 90 13        	bcc	$701a <__udivhi3+0x59>
    7007: 80 04        	bra	$700d <__udivhi3+0x4c>
    7009: c4 16        	cpy	$16                     ; 0x16 <__rc6>
    700b: 90 0d        	bcc	$701a <__udivhi3+0x59>
    700d: e8           	inx
    700e: a5 15        	lda	$15                     ; 0x15 <__rc5>
    7010: 85 12        	sta	$12                     ; 0x12 <__rc2>
    7012: a5 16        	lda	$16                     ; 0x16 <__rc6>
    7014: 85 13        	sta	$13                     ; 0x13 <__rc3>
    7016: 10 dd        	bpl	$6ff5 <__udivhi3+0x34>
    7018: 80 08        	bra	$7022 <__udivhi3+0x61>
    701a: a5 12        	lda	$12                     ; 0x12 <__rc2>
    701c: 85 15        	sta	$15                     ; 0x15 <__rc5>
    701e: a5 13        	lda	$13                     ; 0x13 <__rc3>
    7020: 85 16        	sta	$16                     ; 0x16 <__rc6>
    7022: 8a           	txa
    7023: f0 50        	beq	$7075 <__udivhi3+0xb4>
    7025: 38           	sec
    7026: a5 17        	lda	$17                     ; 0x17 <__rc7>
    7028: e5 15        	sbc	$15                     ; 0x15 <__rc5>
    702a: 85 12        	sta	$12                     ; 0x12 <__rc2>
    702c: 98           	tya
    702d: e5 16        	sbc	$16                     ; 0x16 <__rc6>
    702f: 85 13        	sta	$13                     ; 0x13 <__rc3>
    7031: a9 01        	lda	#$1
    7033: 85 19        	sta	$19                     ; 0x19 <__rc9>
    7035: 64 14        	stz	$14                     ; 0x14 <__rc4>
    7037: 46 16        	lsr	$16                     ; 0x16 <__rc6>
    7039: 66 15        	ror	$15                     ; 0x15 <__rc5>
    703b: 06 19        	asl	$19                     ; 0x19 <__rc9>
    703d: a0 01        	ldy	#$1
    703f: b0 02        	bcs	$7043 <__udivhi3+0x82>
    7041: a0 00        	ldy	#$0
    7043: 84 17        	sty	$17                     ; 0x17 <__rc7>
    7045: a4 13        	ldy	$13                     ; 0x13 <__rc3>
    7047: c4 16        	cpy	$16                     ; 0x16 <__rc6>
    7049: d0 24        	bne	$706f <__udivhi3+0xae>
    704b: a4 12        	ldy	$12                     ; 0x12 <__rc2>
    704d: c4 15        	cpy	$15                     ; 0x15 <__rc5>
    704f: 90 13        	bcc	$7064 <__udivhi3+0xa3>
    7051: a5 19        	lda	$19                     ; 0x19 <__rc9>
    7053: 09 01        	ora	#$1
    7055: 85 19        	sta	$19                     ; 0x19 <__rc9>
    7057: 38           	sec
    7058: a5 12        	lda	$12                     ; 0x12 <__rc2>
    705a: e5 15        	sbc	$15                     ; 0x15 <__rc5>
    705c: 85 12        	sta	$12                     ; 0x12 <__rc2>
    705e: a5 13        	lda	$13                     ; 0x13 <__rc3>
    7060: e5 16        	sbc	$16                     ; 0x16 <__rc6>
    7062: 85 13        	sta	$13                     ; 0x13 <__rc3>
    7064: a4 17        	ldy	$17                     ; 0x17 <__rc7>
    7066: c0 01        	cpy	#$1
    7068: 26 14        	rol	$14                     ; 0x14 <__rc4>
    706a: ca           	dex
    706b: d0 ca        	bne	$7037 <__udivhi3+0x76>
    706d: 80 06        	bra	$7075 <__udivhi3+0xb4>
    706f: c4 16        	cpy	$16                     ; 0x16 <__rc6>
    7071: b0 de        	bcs	$7051 <__udivhi3+0x90>
    7073: 80 ef        	bra	$7064 <__udivhi3+0xa3>
    7075: a6 14        	ldx	$14                     ; 0x14 <__rc4>
    7077: a5 19        	lda	$19                     ; 0x19 <__rc9>
    7079: 60           	rts

0000707a <__umodsi3>:
    707a: 85 1c        	sta	$1c                     ; 0x1c <__rc12>
    707c: 86 1a        	stx	$1a                     ; 0x1a <__rc10>
    707e: a5 13        	lda	$13                     ; 0x13 <__rc3>
    7080: a6 17        	ldx	$17                     ; 0x17 <__rc7>
    7082: d0 0f        	bne	$7093 <__umodsi3+0x19>
    7084: a6 16        	ldx	$16                     ; 0x16 <__rc6>
    7086: d0 0b        	bne	$7093 <__umodsi3+0x19>
    7088: a6 15        	ldx	$15                     ; 0x15 <__rc5>
    708a: d0 07        	bne	$7093 <__umodsi3+0x19>
    708c: a6 14        	ldx	$14                     ; 0x14 <__rc4>
    708e: d0 03        	bne	$7093 <__umodsi3+0x19>
    7090: 4c ba 71     	jmp	$71ba <__umodsi3+0x140>
    7093: c5 17        	cmp	$17                     ; 0x17 <__rc7>
    7095: d0 15        	bne	$70ac <__umodsi3+0x32>
    7097: a6 12        	ldx	$12                     ; 0x12 <__rc2>
    7099: e4 16        	cpx	$16                     ; 0x16 <__rc6>
    709b: d0 16        	bne	$70b3 <__umodsi3+0x39>
    709d: a6 1a        	ldx	$1a                     ; 0x1a <__rc10>
    709f: e4 15        	cpx	$15                     ; 0x15 <__rc5>
    70a1: d0 17        	bne	$70ba <__umodsi3+0x40>
    70a3: a6 1c        	ldx	$1c                     ; 0x1c <__rc12>
    70a5: e4 14        	cpx	$14                     ; 0x14 <__rc4>
    70a7: b0 1a        	bcs	$70c3 <__umodsi3+0x49>
    70a9: 4c ba 71     	jmp	$71ba <__umodsi3+0x140>
    70ac: c5 17        	cmp	$17                     ; 0x17 <__rc7>
    70ae: b0 13        	bcs	$70c3 <__umodsi3+0x49>
    70b0: 4c ba 71     	jmp	$71ba <__umodsi3+0x140>
    70b3: e4 16        	cpx	$16                     ; 0x16 <__rc6>
    70b5: b0 0c        	bcs	$70c3 <__umodsi3+0x49>
    70b7: 4c ba 71     	jmp	$71ba <__umodsi3+0x140>
    70ba: a6 1a        	ldx	$1a                     ; 0x1a <__rc10>
    70bc: e4 15        	cpx	$15                     ; 0x15 <__rc5>
    70be: b0 03        	bcs	$70c3 <__umodsi3+0x49>
    70c0: 4c ba 71     	jmp	$71ba <__umodsi3+0x140>
    70c3: a6 17        	ldx	$17                     ; 0x17 <__rc7>
    70c5: 10 03        	bpl	$70ca <__umodsi3+0x50>
    70c7: 4c a3 71     	jmp	$71a3 <__umodsi3+0x129>
    70ca: a2 00        	ldx	#$0
    70cc: a4 14        	ldy	$14                     ; 0x14 <__rc4>
    70ce: 84 1b        	sty	$1b                     ; 0x1b <__rc11>
    70d0: a4 15        	ldy	$15                     ; 0x15 <__rc5>
    70d2: 84 13        	sty	$13                     ; 0x13 <__rc3>
    70d4: a4 16        	ldy	$16                     ; 0x16 <__rc6>
    70d6: 84 18        	sty	$18                     ; 0x18 <__rc8>
    70d8: a4 17        	ldy	$17                     ; 0x17 <__rc7>
    70da: 84 19        	sty	$19                     ; 0x19 <__rc9>
    70dc: 06 1b        	asl	$1b                     ; 0x1b <__rc11>
    70de: 26 13        	rol	$13                     ; 0x13 <__rc3>
    70e0: 26 18        	rol	$18                     ; 0x18 <__rc8>
    70e2: 26 19        	rol	$19                     ; 0x19 <__rc9>
    70e4: c5 19        	cmp	$19                     ; 0x19 <__rc9>
    70e6: d0 16        	bne	$70fe <__umodsi3+0x84>
    70e8: a4 12        	ldy	$12                     ; 0x12 <__rc2>
    70ea: c4 18        	cpy	$18                     ; 0x18 <__rc8>
    70ec: d0 16        	bne	$7104 <__umodsi3+0x8a>
    70ee: a4 1a        	ldy	$1a                     ; 0x1a <__rc10>
    70f0: c4 13        	cpy	$13                     ; 0x13 <__rc3>
    70f2: d0 16        	bne	$710a <__umodsi3+0x90>
    70f4: a8           	tay
    70f5: a5 1c        	lda	$1c                     ; 0x1c <__rc12>
    70f7: c5 1b        	cmp	$1b                     ; 0x1b <__rc11>
    70f9: 98           	tya
    70fa: 90 29        	bcc	$7125 <__umodsi3+0xab>
    70fc: 80 12        	bra	$7110 <__umodsi3+0x96>
    70fe: c5 19        	cmp	$19                     ; 0x19 <__rc9>
    7100: 90 23        	bcc	$7125 <__umodsi3+0xab>
    7102: 80 0c        	bra	$7110 <__umodsi3+0x96>
    7104: c4 18        	cpy	$18                     ; 0x18 <__rc8>
    7106: 90 1d        	bcc	$7125 <__umodsi3+0xab>
    7108: 80 06        	bra	$7110 <__umodsi3+0x96>
    710a: a4 1a        	ldy	$1a                     ; 0x1a <__rc10>
    710c: c4 13        	cpy	$13                     ; 0x13 <__rc3>
    710e: 90 15        	bcc	$7125 <__umodsi3+0xab>
    7110: e8           	inx
    7111: a4 1b        	ldy	$1b                     ; 0x1b <__rc11>
    7113: 84 14        	sty	$14                     ; 0x14 <__rc4>
    7115: a4 13        	ldy	$13                     ; 0x13 <__rc3>
    7117: 84 15        	sty	$15                     ; 0x15 <__rc5>
    7119: a4 18        	ldy	$18                     ; 0x18 <__rc8>
    711b: 84 16        	sty	$16                     ; 0x16 <__rc6>
    711d: a4 19        	ldy	$19                     ; 0x19 <__rc9>
    711f: 84 17        	sty	$17                     ; 0x17 <__rc7>
    7121: 10 b9        	bpl	$70dc <__umodsi3+0x62>
    7123: 80 10        	bra	$7135 <__umodsi3+0xbb>
    7125: a4 14        	ldy	$14                     ; 0x14 <__rc4>
    7127: 84 1b        	sty	$1b                     ; 0x1b <__rc11>
    7129: a4 15        	ldy	$15                     ; 0x15 <__rc5>
    712b: 84 13        	sty	$13                     ; 0x13 <__rc3>
    712d: a4 16        	ldy	$16                     ; 0x16 <__rc6>
    712f: 84 18        	sty	$18                     ; 0x18 <__rc8>
    7131: a4 17        	ldy	$17                     ; 0x17 <__rc7>
    7133: 84 19        	sty	$19                     ; 0x19 <__rc9>
    7135: 38           	sec
    7136: a8           	tay
    7137: a5 1c        	lda	$1c                     ; 0x1c <__rc12>
    7139: e5 1b        	sbc	$1b                     ; 0x1b <__rc11>
    713b: 85 1c        	sta	$1c                     ; 0x1c <__rc12>
    713d: a5 1a        	lda	$1a                     ; 0x1a <__rc10>
    713f: e5 13        	sbc	$13                     ; 0x13 <__rc3>
    7141: 85 1a        	sta	$1a                     ; 0x1a <__rc10>
    7143: a5 12        	lda	$12                     ; 0x12 <__rc2>
    7145: e5 18        	sbc	$18                     ; 0x18 <__rc8>
    7147: 85 12        	sta	$12                     ; 0x12 <__rc2>
    7149: 98           	tya
    714a: e5 19        	sbc	$19                     ; 0x19 <__rc9>
    714c: e0 00        	cpx	#$0
    714e: d0 11        	bne	$7161 <__umodsi3+0xe7>
    7150: 4c ba 71     	jmp	$71ba <__umodsi3+0x140>
    7153: c4 18        	cpy	$18                     ; 0x18 <__rc8>
    7155: b0 30        	bcs	$7187 <__umodsi3+0x10d>
    7157: 80 45        	bra	$719e <__umodsi3+0x124>
    7159: a4 1a        	ldy	$1a                     ; 0x1a <__rc10>
    715b: c4 13        	cpy	$13                     ; 0x13 <__rc3>
    715d: b0 28        	bcs	$7187 <__umodsi3+0x10d>
    715f: 80 3d        	bra	$719e <__umodsi3+0x124>
    7161: 46 19        	lsr	$19                     ; 0x19 <__rc9>
    7163: 66 18        	ror	$18                     ; 0x18 <__rc8>
    7165: 66 13        	ror	$13                     ; 0x13 <__rc3>
    7167: 66 1b        	ror	$1b                     ; 0x1b <__rc11>
    7169: c5 19        	cmp	$19                     ; 0x19 <__rc9>
    716b: d0 16        	bne	$7183 <__umodsi3+0x109>
    716d: a4 12        	ldy	$12                     ; 0x12 <__rc2>
    716f: c4 18        	cpy	$18                     ; 0x18 <__rc8>
    7171: d0 e0        	bne	$7153 <__umodsi3+0xd9>
    7173: a4 1a        	ldy	$1a                     ; 0x1a <__rc10>
    7175: c4 13        	cpy	$13                     ; 0x13 <__rc3>
    7177: d0 e0        	bne	$7159 <__umodsi3+0xdf>
    7179: a8           	tay
    717a: a5 1c        	lda	$1c                     ; 0x1c <__rc12>
    717c: c5 1b        	cmp	$1b                     ; 0x1b <__rc11>
    717e: 98           	tya
    717f: b0 06        	bcs	$7187 <__umodsi3+0x10d>
    7181: 80 1b        	bra	$719e <__umodsi3+0x124>
    7183: c5 19        	cmp	$19                     ; 0x19 <__rc9>
    7185: 90 17        	bcc	$719e <__umodsi3+0x124>
    7187: a8           	tay
    7188: 38           	sec
    7189: a5 1c        	lda	$1c                     ; 0x1c <__rc12>
    718b: e5 1b        	sbc	$1b                     ; 0x1b <__rc11>
    718d: 85 1c        	sta	$1c                     ; 0x1c <__rc12>
    718f: a5 1a        	lda	$1a                     ; 0x1a <__rc10>
    7191: e5 13        	sbc	$13                     ; 0x13 <__rc3>
    7193: 85 1a        	sta	$1a                     ; 0x1a <__rc10>
    7195: a5 12        	lda	$12                     ; 0x12 <__rc2>
    7197: e5 18        	sbc	$18                     ; 0x18 <__rc8>
    7199: 85 12        	sta	$12                     ; 0x12 <__rc2>
    719b: 98           	tya
    719c: e5 19        	sbc	$19                     ; 0x19 <__rc9>
    719e: ca           	dex
    719f: d0 c0        	bne	$7161 <__umodsi3+0xe7>
    71a1: 80 17        	bra	$71ba <__umodsi3+0x140>
    71a3: 38           	sec
    71a4: a8           	tay
    71a5: a5 1c        	lda	$1c                     ; 0x1c <__rc12>
    71a7: e5 14        	sbc	$14                     ; 0x14 <__rc4>
    71a9: 85 1c        	sta	$1c                     ; 0x1c <__rc12>
    71ab: a5 1a        	lda	$1a                     ; 0x1a <__rc10>
    71ad: e5 15        	sbc	$15                     ; 0x15 <__rc5>
    71af: 85 1a        	sta	$1a                     ; 0x1a <__rc10>
    71b1: a5 12        	lda	$12                     ; 0x12 <__rc2>
    71b3: e5 16        	sbc	$16                     ; 0x16 <__rc6>
    71b5: 85 12        	sta	$12                     ; 0x12 <__rc2>
    71b7: 98           	tya
    71b8: e5 17        	sbc	$17                     ; 0x17 <__rc7>
    71ba: 85 13        	sta	$13                     ; 0x13 <__rc3>
    71bc: a6 1a        	ldx	$1a                     ; 0x1a <__rc10>
    71be: a5 1c        	lda	$1c                     ; 0x1c <__rc12>
    71c0: 60           	rts

000071c1 <__udivmodqi4>:
    71c1: a8           	tay
    71c2: a9 00        	lda	#$0
    71c4: e0 00        	cpx	#$0
    71c6: f0 25        	beq	$71ed <__udivmodqi4+0x2c>
    71c8: 86 15        	stx	$15                     ; 0x15 <__rc5>
    71ca: 84 16        	sty	$16                     ; 0x16 <__rc6>
    71cc: c4 15        	cpy	$15                     ; 0x15 <__rc5>
    71ce: b0 03        	bcs	$71d3 <__udivmodqi4+0x12>
    71d0: 4c 28 72     	jmp	$7228 <__udivmodqi4+0x67>
    71d3: a5 15        	lda	$15                     ; 0x15 <__rc5>
    71d5: 30 1a        	bmi	$71f1 <__udivmodqi4+0x30>
    71d7: a2 00        	ldx	#$0
    71d9: a5 15        	lda	$15                     ; 0x15 <__rc5>
    71db: 85 14        	sta	$14                     ; 0x14 <__rc4>
    71dd: 98           	tya
    71de: 06 14        	asl	$14                     ; 0x14 <__rc4>
    71e0: c5 14        	cmp	$14                     ; 0x14 <__rc4>
    71e2: 90 15        	bcc	$71f9 <__udivmodqi4+0x38>
    71e4: e8           	inx
    71e5: a4 14        	ldy	$14                     ; 0x14 <__rc4>
    71e7: 84 15        	sty	$15                     ; 0x15 <__rc5>
    71e9: 10 f3        	bpl	$71de <__udivmodqi4+0x1d>
    71eb: 80 10        	bra	$71fd <__udivmodqi4+0x3c>
    71ed: 84 16        	sty	$16                     ; 0x16 <__rc6>
    71ef: 80 37        	bra	$7228 <__udivmodqi4+0x67>
    71f1: 38           	sec
    71f2: 98           	tya
    71f3: e5 15        	sbc	$15                     ; 0x15 <__rc5>
    71f5: 85 16        	sta	$16                     ; 0x16 <__rc6>
    71f7: 80 2d        	bra	$7226 <__udivmodqi4+0x65>
    71f9: a4 15        	ldy	$15                     ; 0x15 <__rc5>
    71fb: 84 14        	sty	$14                     ; 0x14 <__rc4>
    71fd: 38           	sec
    71fe: e5 14        	sbc	$14                     ; 0x14 <__rc4>
    7200: 85 16        	sta	$16                     ; 0x16 <__rc6>
    7202: 8a           	txa
    7203: f0 21        	beq	$7226 <__udivmodqi4+0x65>
    7205: a9 01        	lda	#$1
    7207: 46 14        	lsr	$14                     ; 0x14 <__rc4>
    7209: 0a           	asl
    720a: a8           	tay
    720b: a5 16        	lda	$16                     ; 0x16 <__rc6>
    720d: c5 14        	cmp	$14                     ; 0x14 <__rc4>
    720f: 90 0d        	bcc	$721e <__udivmodqi4+0x5d>
    7211: 85 15        	sta	$15                     ; 0x15 <__rc5>
    7213: 98           	tya
    7214: 09 01        	ora	#$1
    7216: a8           	tay
    7217: 38           	sec
    7218: a5 15        	lda	$15                     ; 0x15 <__rc5>
    721a: e5 14        	sbc	$14                     ; 0x14 <__rc4>
    721c: 85 16        	sta	$16                     ; 0x16 <__rc6>
    721e: ca           	dex
    721f: 98           	tya
    7220: e0 00        	cpx	#$0
    7222: d0 e3        	bne	$7207 <__udivmodqi4+0x46>
    7224: 80 02        	bra	$7228 <__udivmodqi4+0x67>
    7226: a9 01        	lda	#$1
    7228: aa           	tax
    7229: a5 16        	lda	$16                     ; 0x16 <__rc6>
    722b: 92 12        	sta	($12)                   ; 0x12 <__rc2>
    722d: 8a           	txa
    722e: 60           	rts

0000722f <__udivmodhi4>:
    722f: 86 1a        	stx	$1a                     ; 0x1a <__rc10>
    7231: 64 16        	stz	$16                     ; 0x16 <__rc6>
    7233: a4 13        	ldy	$13                     ; 0x13 <__rc3>
    7235: d0 04        	bne	$723b <__udivmodhi4+0xc>
    7237: a4 12        	ldy	$12                     ; 0x12 <__rc2>
    7239: f0 08        	beq	$7243 <__udivmodhi4+0x14>
    723b: e4 13        	cpx	$13                     ; 0x13 <__rc3>
    723d: d0 0f        	bne	$724e <__udivmodhi4+0x1f>
    723f: c5 12        	cmp	$12                     ; 0x12 <__rc2>
    7241: b0 0f        	bcs	$7252 <__udivmodhi4+0x23>
    7243: a6 1a        	ldx	$1a                     ; 0x1a <__rc10>
    7245: 86 12        	stx	$12                     ; 0x12 <__rc2>
    7247: 64 13        	stz	$13                     ; 0x13 <__rc3>
    7249: 85 19        	sta	$19                     ; 0x19 <__rc9>
    724b: 4c f7 72     	jmp	$72f7 <__udivmodhi4+0xc8>
    724e: e4 13        	cpx	$13                     ; 0x13 <__rc3>
    7250: 90 f1        	bcc	$7243 <__udivmodhi4+0x14>
    7252: a4 13        	ldy	$13                     ; 0x13 <__rc3>
    7254: 10 03        	bpl	$7259 <__udivmodhi4+0x2a>
    7256: 4c e5 72     	jmp	$72e5 <__udivmodhi4+0xb6>
    7259: a2 00        	ldx	#$0
    725b: a4 12        	ldy	$12                     ; 0x12 <__rc2>
    725d: 84 17        	sty	$17                     ; 0x17 <__rc7>
    725f: a4 13        	ldy	$13                     ; 0x13 <__rc3>
    7261: 84 18        	sty	$18                     ; 0x18 <__rc8>
    7263: 06 17        	asl	$17                     ; 0x17 <__rc7>
    7265: 26 18        	rol	$18                     ; 0x18 <__rc8>
    7267: a4 1a        	ldy	$1a                     ; 0x1a <__rc10>
    7269: c4 18        	cpy	$18                     ; 0x18 <__rc8>
    726b: d0 06        	bne	$7273 <__udivmodhi4+0x44>
    726d: c5 17        	cmp	$17                     ; 0x17 <__rc7>
    726f: 90 15        	bcc	$7286 <__udivmodhi4+0x57>
    7271: 80 06        	bra	$7279 <__udivmodhi4+0x4a>
    7273: a4 1a        	ldy	$1a                     ; 0x1a <__rc10>
    7275: c4 18        	cpy	$18                     ; 0x18 <__rc8>
    7277: 90 0d        	bcc	$7286 <__udivmodhi4+0x57>
    7279: e8           	inx
    727a: a4 17        	ldy	$17                     ; 0x17 <__rc7>
    727c: 84 12        	sty	$12                     ; 0x12 <__rc2>
    727e: a4 18        	ldy	$18                     ; 0x18 <__rc8>
    7280: 84 13        	sty	$13                     ; 0x13 <__rc3>
    7282: 10 df        	bpl	$7263 <__udivmodhi4+0x34>
    7284: 80 08        	bra	$728e <__udivmodhi4+0x5f>
    7286: a4 12        	ldy	$12                     ; 0x12 <__rc2>
    7288: 84 17        	sty	$17                     ; 0x17 <__rc7>
    728a: a4 13        	ldy	$13                     ; 0x13 <__rc3>
    728c: 84 18        	sty	$18                     ; 0x18 <__rc8>
    728e: 38           	sec
    728f: e5 17        	sbc	$17                     ; 0x17 <__rc7>
    7291: a8           	tay
    7292: a5 1a        	lda	$1a                     ; 0x1a <__rc10>
    7294: e5 18        	sbc	$18                     ; 0x18 <__rc8>
    7296: 85 12        	sta	$12                     ; 0x12 <__rc2>
    7298: a9 01        	lda	#$1
    729a: 85 13        	sta	$13                     ; 0x13 <__rc3>
    729c: 8a           	txa
    729d: d0 03        	bne	$72a2 <__udivmodhi4+0x73>
    729f: 4c f5 72     	jmp	$72f5 <__udivmodhi4+0xc6>
    72a2: 64 16        	stz	$16                     ; 0x16 <__rc6>
    72a4: 84 19        	sty	$19                     ; 0x19 <__rc9>
    72a6: 46 18        	lsr	$18                     ; 0x18 <__rc8>
    72a8: 66 17        	ror	$17                     ; 0x17 <__rc7>
    72aa: 06 13        	asl	$13                     ; 0x13 <__rc3>
    72ac: a0 01        	ldy	#$1
    72ae: b0 02        	bcs	$72b2 <__udivmodhi4+0x83>
    72b0: a0 00        	ldy	#$0
    72b2: 84 1a        	sty	$1a                     ; 0x1a <__rc10>
    72b4: a4 12        	ldy	$12                     ; 0x12 <__rc2>
    72b6: c4 18        	cpy	$18                     ; 0x18 <__rc8>
    72b8: d0 25        	bne	$72df <__udivmodhi4+0xb0>
    72ba: a4 19        	ldy	$19                     ; 0x19 <__rc9>
    72bc: c4 17        	cpy	$17                     ; 0x17 <__rc7>
    72be: 90 14        	bcc	$72d4 <__udivmodhi4+0xa5>
    72c0: a5 13        	lda	$13                     ; 0x13 <__rc3>
    72c2: 09 01        	ora	#$1
    72c4: 85 13        	sta	$13                     ; 0x13 <__rc3>
    72c6: 38           	sec
    72c7: a5 19        	lda	$19                     ; 0x19 <__rc9>
    72c9: e5 17        	sbc	$17                     ; 0x17 <__rc7>
    72cb: a8           	tay
    72cc: a5 12        	lda	$12                     ; 0x12 <__rc2>
    72ce: e5 18        	sbc	$18                     ; 0x18 <__rc8>
    72d0: 85 12        	sta	$12                     ; 0x12 <__rc2>
    72d2: 84 19        	sty	$19                     ; 0x19 <__rc9>
    72d4: a4 1a        	ldy	$1a                     ; 0x1a <__rc10>
    72d6: c0 01        	cpy	#$1
    72d8: 26 16        	rol	$16                     ; 0x16 <__rc6>
    72da: ca           	dex
    72db: d0 c9        	bne	$72a6 <__udivmodhi4+0x77>
    72dd: 80 18        	bra	$72f7 <__udivmodhi4+0xc8>
    72df: c4 18        	cpy	$18                     ; 0x18 <__rc8>
    72e1: b0 dd        	bcs	$72c0 <__udivmodhi4+0x91>
    72e3: 80 ef        	bra	$72d4 <__udivmodhi4+0xa5>
    72e5: 38           	sec
    72e6: e5 12        	sbc	$12                     ; 0x12 <__rc2>
    72e8: 85 19        	sta	$19                     ; 0x19 <__rc9>
    72ea: 8a           	txa
    72eb: e5 13        	sbc	$13                     ; 0x13 <__rc3>
    72ed: 85 12        	sta	$12                     ; 0x12 <__rc2>
    72ef: a9 01        	lda	#$1
    72f1: 85 13        	sta	$13                     ; 0x13 <__rc3>
    72f3: 80 02        	bra	$72f7 <__udivmodhi4+0xc8>
    72f5: 84 19        	sty	$19                     ; 0x19 <__rc9>
    72f7: a5 19        	lda	$19                     ; 0x19 <__rc9>
    72f9: 92 14        	sta	($14)                   ; 0x14 <__rc4>
    72fb: a0 01        	ldy	#$1
    72fd: a5 12        	lda	$12                     ; 0x12 <__rc2>
    72ff: 91 14        	sta	($14),y                 ; 0x14 <__rc4>
    7301: a6 16        	ldx	$16                     ; 0x16 <__rc6>
    7303: a5 13        	lda	$13                     ; 0x13 <__rc3>
    7305: 60           	rts

00007306 <__divsf3>:
    7306: 85 96        	sta	$96                     ; 0x96 <__zp_bss_size+0x41>
    7308: 86 93        	stx	$93                     ; 0x93 <__zp_bss_size+0x3e>
    730a: a6 12        	ldx	$12                     ; 0x12 <__rc2>
    730c: 86 19        	stx	$19                     ; 0x19 <__rc9>
    730e: a6 14        	ldx	$14                     ; 0x14 <__rc4>
    7310: 86 90        	stx	$90                     ; 0x90 <__zp_bss_size+0x3b>
    7312: a6 15        	ldx	$15                     ; 0x15 <__rc5>
    7314: a5 12        	lda	$12                     ; 0x12 <__rc2>
    7316: 0a           	asl
    7317: a4 13        	ldy	$13                     ; 0x13 <__rc3>
    7319: 84 14        	sty	$14                     ; 0x14 <__rc4>
    731b: 26 14        	rol	$14                     ; 0x14 <__rc4>
    731d: a5 16        	lda	$16                     ; 0x16 <__rc6>
    731f: a4 17        	ldy	$17                     ; 0x17 <__rc7>
    7321: 84 12        	sty	$12                     ; 0x12 <__rc2>
    7323: 0a           	asl
    7324: 26 12        	rol	$12                     ; 0x12 <__rc2>
    7326: 18           	clc
    7327: a4 14        	ldy	$14                     ; 0x14 <__rc4>
    7329: 84 97        	sty	$97                     ; 0x97 <__zp_bss_size+0x42>
    732b: a5 14        	lda	$14                     ; 0x14 <__rc4>
    732d: 69 01        	adc	#$1
    732f: a8           	tay
    7330: a9 00        	lda	#$0
    7332: 69 ff        	adc	#$ff
    7334: 85 1a        	sta	$1a                     ; 0x1a <__rc10>
    7336: a5 13        	lda	$13                     ; 0x13 <__rc3>
    7338: 85 14        	sta	$14                     ; 0x14 <__rc4>
    733a: a5 17        	lda	$17                     ; 0x17 <__rc7>
    733c: 45 13        	eor	$13                     ; 0x13 <__rc3>
    733e: 29 80        	and	#$80
    7340: 85 98        	sta	$98                     ; 0x98 <__zp_bss_size+0x43>
    7342: a5 19        	lda	$19                     ; 0x19 <__rc9>
    7344: 29 7f        	and	#$7f
    7346: 85 99        	sta	$99                     ; 0x99 <__zp_bss_size+0x44>
    7348: a5 16        	lda	$16                     ; 0x16 <__rc6>
    734a: 85 8d        	sta	$8d                     ; 0x8d <__zp_bss_size+0x38>
    734c: a5 16        	lda	$16                     ; 0x16 <__rc6>
    734e: 29 7f        	and	#$7f
    7350: 85 8b        	sta	$8b                     ; 0x8b <__zp_bss_size+0x36>
    7352: a5 1a        	lda	$1a                     ; 0x1a <__rc10>
    7354: c9 ff        	cmp	#$ff
    7356: d0 04        	bne	$735c <__divsf3+0x56>
    7358: c0 02        	cpy	#$2
    735a: 80 02        	bra	$735e <__divsf3+0x58>
    735c: c9 ff        	cmp	#$ff
    735e: a4 13        	ldy	$13                     ; 0x13 <__rc3>
    7360: a5 19        	lda	$19                     ; 0x19 <__rc9>
    7362: 90 2d        	bcc	$7391 <__divsf3+0x8b>
    7364: 18           	clc
    7365: a5 12        	lda	$12                     ; 0x12 <__rc2>
    7367: 69 01        	adc	#$1
    7369: a8           	tay
    736a: a9 00        	lda	#$0
    736c: 69 ff        	adc	#$ff
    736e: c9 ff        	cmp	#$ff
    7370: d0 17        	bne	$7389 <__divsf3+0x83>
    7372: c0 02        	cpy	#$2
    7374: 90 17        	bcc	$738d <__divsf3+0x87>
    7376: a4 8b        	ldy	$8b                     ; 0x8b <__zp_bss_size+0x36>
    7378: 84 16        	sty	$16                     ; 0x16 <__rc6>
    737a: 86 9a        	stx	$9a                     ; 0x9a <__zp_bss_size+0x45>
    737c: a2 00        	ldx	#$0
    737e: 86 9c        	stx	$9c                     ; 0x9c <__zp_bss_size+0x47>
    7380: a0 00        	ldy	#$0
    7382: 64 14        	stz	$14                     ; 0x14 <__rc4>
    7384: 64 15        	stz	$15                     ; 0x15 <__rc5>
    7386: 4c 09 79     	jmp	$7909 <__divsf3+0x603>
    7389: c9 ff        	cmp	#$ff
    738b: b0 e9        	bcs	$7376 <__divsf3+0x70>
    738d: a4 13        	ldy	$13                     ; 0x13 <__rc3>
    738f: a5 19        	lda	$19                     ; 0x19 <__rc9>
    7391: 85 16        	sta	$16                     ; 0x16 <__rc6>
    7393: 98           	tya
    7394: 29 7f        	and	#$7f
    7396: c9 7f        	cmp	#$7f
    7398: d0 14        	bne	$73ae <__divsf3+0xa8>
    739a: 85 13        	sta	$13                     ; 0x13 <__rc3>
    739c: a5 16        	lda	$16                     ; 0x16 <__rc6>
    739e: c9 80        	cmp	#$80
    73a0: d0 42        	bne	$73e4 <__divsf3+0xde>
    73a2: a4 93        	ldy	$93                     ; 0x93 <__zp_bss_size+0x3e>
    73a4: d0 4d        	bne	$73f3 <__divsf3+0xed>
    73a6: a4 96        	ldy	$96                     ; 0x96 <__zp_bss_size+0x41>
    73a8: c0 01        	cpy	#$1
    73aa: 90 0a        	bcc	$73b6 <__divsf3+0xb0>
    73ac: 80 3a        	bra	$73e8 <__divsf3+0xe2>
    73ae: 85 13        	sta	$13                     ; 0x13 <__rc3>
    73b0: c9 7f        	cmp	#$7f
    73b2: a5 16        	lda	$16                     ; 0x16 <__rc6>
    73b4: b0 32        	bcs	$73e8 <__divsf3+0xe2>
    73b6: a5 17        	lda	$17                     ; 0x17 <__rc7>
    73b8: 29 7f        	and	#$7f
    73ba: 85 8e        	sta	$8e                     ; 0x8e <__zp_bss_size+0x39>
    73bc: c9 7f        	cmp	#$7f
    73be: d0 2f        	bne	$73ef <__divsf3+0xe9>
    73c0: a4 8d        	ldy	$8d                     ; 0x8d <__zp_bss_size+0x38>
    73c2: c0 80        	cpy	#$80
    73c4: d0 35        	bne	$73fb <__divsf3+0xf5>
    73c6: a5 19        	lda	$19                     ; 0x19 <__rc9>
    73c8: e0 00        	cpx	#$0
    73ca: f0 03        	beq	$73cf <__divsf3+0xc9>
    73cc: 4c ad 74     	jmp	$74ad <__divsf3+0x1a7>
    73cf: a4 90        	ldy	$90                     ; 0x90 <__zp_bss_size+0x3b>
    73d1: c0 01        	cpy	#$1
    73d3: 90 2c        	bcc	$7401 <__divsf3+0xfb>
    73d5: a5 8d        	lda	$8d                     ; 0x8d <__zp_bss_size+0x38>
    73d7: 09 40        	ora	#$40
    73d9: a4 90        	ldy	$90                     ; 0x90 <__zp_bss_size+0x3b>
    73db: 84 96        	sty	$96                     ; 0x96 <__zp_bss_size+0x41>
    73dd: 86 93        	stx	$93                     ; 0x93 <__zp_bss_size+0x3e>
    73df: a6 17        	ldx	$17                     ; 0x17 <__rc7>
    73e1: 4c 64 7e     	jmp	$7e64 <__divsf3+0xb5e>
    73e4: c9 80        	cmp	#$80
    73e6: 90 ce        	bcc	$73b6 <__divsf3+0xb0>
    73e8: 09 40        	ora	#$40
    73ea: a6 14        	ldx	$14                     ; 0x14 <__rc4>
    73ec: 4c 64 7e     	jmp	$7e64 <__divsf3+0xb5e>
    73ef: c9 7f        	cmp	#$7f
    73f1: 80 0a        	bra	$73fd <__divsf3+0xf7>
    73f3: a4 93        	ldy	$93                     ; 0x93 <__zp_bss_size+0x3e>
    73f5: c0 00        	cpy	#$0
    73f7: 90 bd        	bcc	$73b6 <__divsf3+0xb0>
    73f9: 80 ed        	bra	$73e8 <__divsf3+0xe2>
    73fb: c0 80        	cpy	#$80
    73fd: a5 19        	lda	$19                     ; 0x19 <__rc9>
    73ff: b0 d4        	bcs	$73d5 <__divsf3+0xcf>
    7401: a4 13        	ldy	$13                     ; 0x13 <__rc3>
    7403: 84 14        	sty	$14                     ; 0x14 <__rc4>
    7405: c0 7f        	cpy	#$7f
    7407: d0 36        	bne	$743f <__divsf3+0x139>
    7409: c9 80        	cmp	#$80
    740b: d0 32        	bne	$743f <__divsf3+0x139>
    740d: a4 93        	ldy	$93                     ; 0x93 <__zp_bss_size+0x3e>
    740f: d0 2e        	bne	$743f <__divsf3+0x139>
    7411: a4 96        	ldy	$96                     ; 0x96 <__zp_bss_size+0x41>
    7413: d0 2a        	bne	$743f <__divsf3+0x139>
    7415: a5 8e        	lda	$8e                     ; 0x8e <__zp_bss_size+0x39>
    7417: c9 7f        	cmp	#$7f
    7419: f0 03        	beq	$741e <__divsf3+0x118>
    741b: 4c d1 7c     	jmp	$7cd1 <__divsf3+0x9cb>
    741e: a4 8d        	ldy	$8d                     ; 0x8d <__zp_bss_size+0x38>
    7420: c0 80        	cpy	#$80
    7422: f0 03        	beq	$7427 <__divsf3+0x121>
    7424: 4c d1 7c     	jmp	$7cd1 <__divsf3+0x9cb>
    7427: 8a           	txa
    7428: f0 03        	beq	$742d <__divsf3+0x127>
    742a: 4c d1 7c     	jmp	$7cd1 <__divsf3+0x9cb>
    742d: a5 90        	lda	$90                     ; 0x90 <__zp_bss_size+0x3b>
    742f: f0 03        	beq	$7434 <__divsf3+0x12e>
    7431: 4c d1 7c     	jmp	$7cd1 <__divsf3+0x9cb>
    7434: a9 c0        	lda	#$c0
    7436: a2 7f        	ldx	#$7f
    7438: 64 96        	stz	$96                     ; 0x96 <__zp_bss_size+0x41>
    743a: 64 93        	stz	$93                     ; 0x93 <__zp_bss_size+0x3e>
    743c: 4c 64 7e     	jmp	$7e64 <__divsf3+0xb5e>
    743f: a4 8e        	ldy	$8e                     ; 0x8e <__zp_bss_size+0x39>
    7441: c0 7f        	cpy	#$7f
    7443: d0 11        	bne	$7456 <__divsf3+0x150>
    7445: a4 8d        	ldy	$8d                     ; 0x8d <__zp_bss_size+0x38>
    7447: c0 80        	cpy	#$80
    7449: d0 0b        	bne	$7456 <__divsf3+0x150>
    744b: e0 00        	cpx	#$0
    744d: d0 07        	bne	$7456 <__divsf3+0x150>
    744f: a4 90        	ldy	$90                     ; 0x90 <__zp_bss_size+0x3b>
    7451: d0 03        	bne	$7456 <__divsf3+0x150>
    7453: 4c 3e 7d     	jmp	$7d3e <__divsf3+0xa38>
    7456: a4 96        	ldy	$96                     ; 0x96 <__zp_bss_size+0x41>
    7458: 48           	pha
    7459: a5 93        	lda	$93                     ; 0x93 <__zp_bss_size+0x3e>
    745b: 85 13        	sta	$13                     ; 0x13 <__rc3>
    745d: a5 14        	lda	$14                     ; 0x14 <__rc4>
    745f: 85 16        	sta	$16                     ; 0x16 <__rc6>
    7461: 68           	pla
    7462: e6 16        	inc	$16                     ; 0x16 <__rc6>
    7464: c6 16        	dec	$16                     ; 0x16 <__rc6>
    7466: d0 0e        	bne	$7476 <__divsf3+0x170>
    7468: c9 00        	cmp	#$0
    746a: d0 0a        	bne	$7476 <__divsf3+0x170>
    746c: a5 13        	lda	$13                     ; 0x13 <__rc3>
    746e: d0 06        	bne	$7476 <__divsf3+0x170>
    7470: 98           	tya
    7471: d0 03        	bne	$7476 <__divsf3+0x170>
    7473: 4c 7d 7e     	jmp	$7e7d <__divsf3+0xb77>
    7476: a4 90        	ldy	$90                     ; 0x90 <__zp_bss_size+0x3b>
    7478: a5 8d        	lda	$8d                     ; 0x8d <__zp_bss_size+0x38>
    747a: 85 13        	sta	$13                     ; 0x13 <__rc3>
    747c: a5 8e        	lda	$8e                     ; 0x8e <__zp_bss_size+0x39>
    747e: d0 0d        	bne	$748d <__divsf3+0x187>
    7480: a5 13        	lda	$13                     ; 0x13 <__rc3>
    7482: d0 09        	bne	$748d <__divsf3+0x187>
    7484: 8a           	txa
    7485: d0 06        	bne	$748d <__divsf3+0x187>
    7487: 98           	tya
    7488: d0 03        	bne	$748d <__divsf3+0x187>
    748a: 4c d1 7c     	jmp	$7cd1 <__divsf3+0x9cb>
    748d: a5 14        	lda	$14                     ; 0x14 <__rc4>
    748f: d0 14        	bne	$74a5 <__divsf3+0x19f>
    7491: a4 19        	ldy	$19                     ; 0x19 <__rc9>
    7493: c0 80        	cpy	#$80
    7495: d0 20        	bne	$74b7 <__divsf3+0x1b1>
    7497: a4 8b        	ldy	$8b                     ; 0x8b <__zp_bss_size+0x36>
    7499: 84 16        	sty	$16                     ; 0x16 <__rc6>
    749b: a5 8d        	lda	$8d                     ; 0x8d <__zp_bss_size+0x38>
    749d: a4 93        	ldy	$93                     ; 0x93 <__zp_bss_size+0x3e>
    749f: d0 22        	bne	$74c3 <__divsf3+0x1bd>
    74a1: a4 96        	ldy	$96                     ; 0x96 <__zp_bss_size+0x41>
    74a3: 80 20        	bra	$74c5 <__divsf3+0x1bf>
    74a5: a4 14        	ldy	$14                     ; 0x14 <__rc4>
    74a7: c0 00        	cpy	#$0
    74a9: b0 10        	bcs	$74bb <__divsf3+0x1b5>
    74ab: 80 25        	bra	$74d2 <__divsf3+0x1cc>
    74ad: e0 00        	cpx	#$0
    74af: 90 03        	bcc	$74b4 <__divsf3+0x1ae>
    74b1: 4c d5 73     	jmp	$73d5 <__divsf3+0xcf>
    74b4: 4c 01 74     	jmp	$7401 <__divsf3+0xfb>
    74b7: c0 80        	cpy	#$80
    74b9: 90 17        	bcc	$74d2 <__divsf3+0x1cc>
    74bb: a4 8b        	ldy	$8b                     ; 0x8b <__zp_bss_size+0x36>
    74bd: 84 16        	sty	$16                     ; 0x16 <__rc6>
    74bf: a5 8d        	lda	$8d                     ; 0x8d <__zp_bss_size+0x38>
    74c1: 80 06        	bra	$74c9 <__divsf3+0x1c3>
    74c3: a4 93        	ldy	$93                     ; 0x93 <__zp_bss_size+0x3e>
    74c5: c0 00        	cpy	#$0
    74c7: 90 09        	bcc	$74d2 <__divsf3+0x1cc>
    74c9: 64 13        	stz	$13                     ; 0x13 <__rc3>
    74cb: 64 14        	stz	$14                     ; 0x14 <__rc4>
    74cd: 64 15        	stz	$15                     ; 0x15 <__rc5>
    74cf: 4c d7 76     	jmp	$76d7 <__divsf3+0x3d1>
    74d2: 86 9a        	stx	$9a                     ; 0x9a <__zp_bss_size+0x45>
    74d4: a4 90        	ldy	$90                     ; 0x90 <__zp_bss_size+0x3b>
    74d6: 84 9b        	sty	$9b                     ; 0x9b <__zp_bss_size+0x46>
    74d8: a6 12        	ldx	$12                     ; 0x12 <__rc2>
    74da: 86 9d        	stx	$9d                     ; 0x9d <__zp_bss_size+0x48>
    74dc: a4 99        	ldy	$99                     ; 0x99 <__zp_bss_size+0x44>
    74de: 98           	tya
    74df: 4a           	lsr
    74e0: 85 12        	sta	$12                     ; 0x12 <__rc2>
    74e2: a6 93        	ldx	$93                     ; 0x93 <__zp_bss_size+0x3e>
    74e4: a5 93        	lda	$93                     ; 0x93 <__zp_bss_size+0x3e>
    74e6: 6a           	ror
    74e7: 85 13        	sta	$13                     ; 0x13 <__rc3>
    74e9: a5 96        	lda	$96                     ; 0x96 <__zp_bss_size+0x41>
    74eb: 6a           	ror
    74ec: 85 14        	sta	$14                     ; 0x14 <__rc4>
    74ee: a5 96        	lda	$96                     ; 0x96 <__zp_bss_size+0x41>
    74f0: 05 14        	ora	$14                     ; 0x14 <__rc4>
    74f2: 85 16        	sta	$16                     ; 0x16 <__rc6>
    74f4: a5 93        	lda	$93                     ; 0x93 <__zp_bss_size+0x3e>
    74f6: 05 13        	ora	$13                     ; 0x13 <__rc3>
    74f8: 85 15        	sta	$15                     ; 0x15 <__rc5>
    74fa: 98           	tya
    74fb: 05 12        	ora	$12                     ; 0x12 <__rc2>
    74fd: 85 17        	sta	$17                     ; 0x17 <__rc7>
    74ff: 4a           	lsr
    7500: 5a           	phy
    7501: a4 15        	ldy	$15                     ; 0x15 <__rc5>
    7503: 84 12        	sty	$12                     ; 0x12 <__rc2>
    7505: 66 12        	ror	$12                     ; 0x12 <__rc2>
    7507: a4 16        	ldy	$16                     ; 0x16 <__rc6>
    7509: 84 13        	sty	$13                     ; 0x13 <__rc3>
    750b: 66 13        	ror	$13                     ; 0x13 <__rc3>
    750d: 4a           	lsr
    750e: 85 14        	sta	$14                     ; 0x14 <__rc4>
    7510: 66 12        	ror	$12                     ; 0x12 <__rc2>
    7512: 66 13        	ror	$13                     ; 0x13 <__rc3>
    7514: a5 16        	lda	$16                     ; 0x16 <__rc6>
    7516: 05 13        	ora	$13                     ; 0x13 <__rc3>
    7518: 85 16        	sta	$16                     ; 0x16 <__rc6>
    751a: a5 15        	lda	$15                     ; 0x15 <__rc5>
    751c: 05 12        	ora	$12                     ; 0x12 <__rc2>
    751e: 85 15        	sta	$15                     ; 0x15 <__rc5>
    7520: a5 17        	lda	$17                     ; 0x17 <__rc7>
    7522: 05 14        	ora	$14                     ; 0x14 <__rc4>
    7524: 85 17        	sta	$17                     ; 0x17 <__rc7>
    7526: 4a           	lsr
    7527: a4 15        	ldy	$15                     ; 0x15 <__rc5>
    7529: 84 12        	sty	$12                     ; 0x12 <__rc2>
    752b: 66 12        	ror	$12                     ; 0x12 <__rc2>
    752d: a4 16        	ldy	$16                     ; 0x16 <__rc6>
    752f: 84 13        	sty	$13                     ; 0x13 <__rc3>
    7531: 66 13        	ror	$13                     ; 0x13 <__rc3>
    7533: 4a           	lsr
    7534: 66 12        	ror	$12                     ; 0x12 <__rc2>
    7536: 66 13        	ror	$13                     ; 0x13 <__rc3>
    7538: 4a           	lsr
    7539: 66 12        	ror	$12                     ; 0x12 <__rc2>
    753b: 66 13        	ror	$13                     ; 0x13 <__rc3>
    753d: 4a           	lsr
    753e: 85 14        	sta	$14                     ; 0x14 <__rc4>
    7540: 66 12        	ror	$12                     ; 0x12 <__rc2>
    7542: 66 13        	ror	$13                     ; 0x13 <__rc3>
    7544: a5 16        	lda	$16                     ; 0x16 <__rc6>
    7546: 05 13        	ora	$13                     ; 0x13 <__rc3>
    7548: 85 16        	sta	$16                     ; 0x16 <__rc6>
    754a: a5 15        	lda	$15                     ; 0x15 <__rc5>
    754c: 05 12        	ora	$12                     ; 0x12 <__rc2>
    754e: 85 13        	sta	$13                     ; 0x13 <__rc3>
    7550: a5 17        	lda	$17                     ; 0x17 <__rc7>
    7552: 05 14        	ora	$14                     ; 0x14 <__rc4>
    7554: 85 17        	sta	$17                     ; 0x17 <__rc7>
    7556: a5 16        	lda	$16                     ; 0x16 <__rc6>
    7558: 05 13        	ora	$13                     ; 0x13 <__rc3>
    755a: 85 14        	sta	$14                     ; 0x14 <__rc4>
    755c: a5 13        	lda	$13                     ; 0x13 <__rc3>
    755e: 05 17        	ora	$17                     ; 0x17 <__rc7>
    7560: 85 15        	sta	$15                     ; 0x15 <__rc5>
    7562: a5 14        	lda	$14                     ; 0x14 <__rc4>
    7564: 05 17        	ora	$17                     ; 0x17 <__rc7>
    7566: 85 16        	sta	$16                     ; 0x16 <__rc6>
    7568: a5 17        	lda	$17                     ; 0x17 <__rc7>
    756a: 85 14        	sta	$14                     ; 0x14 <__rc4>
    756c: 46 14        	lsr	$14                     ; 0x14 <__rc4>
    756e: a5 16        	lda	$16                     ; 0x16 <__rc6>
    7570: 4a           	lsr
    7571: 29 55        	and	#$55
    7573: 85 12        	sta	$12                     ; 0x12 <__rc2>
    7575: a5 15        	lda	$15                     ; 0x15 <__rc5>
    7577: 4a           	lsr
    7578: 29 55        	and	#$55
    757a: 85 13        	sta	$13                     ; 0x13 <__rc3>
    757c: a5 14        	lda	$14                     ; 0x14 <__rc4>
    757e: 29 55        	and	#$55
    7580: 85 14        	sta	$14                     ; 0x14 <__rc4>
    7582: 38           	sec
    7583: a5 16        	lda	$16                     ; 0x16 <__rc6>
    7585: e5 12        	sbc	$12                     ; 0x12 <__rc2>
    7587: 85 12        	sta	$12                     ; 0x12 <__rc2>
    7589: a5 15        	lda	$15                     ; 0x15 <__rc5>
    758b: e5 13        	sbc	$13                     ; 0x13 <__rc3>
    758d: 85 13        	sta	$13                     ; 0x13 <__rc3>
    758f: a5 17        	lda	$17                     ; 0x17 <__rc7>
    7591: e5 14        	sbc	$14                     ; 0x14 <__rc4>
    7593: 85 14        	sta	$14                     ; 0x14 <__rc4>
    7595: a9 00        	lda	#$0
    7597: e9 00        	sbc	#$0
    7599: 85 15        	sta	$15                     ; 0x15 <__rc5>
    759b: a5 12        	lda	$12                     ; 0x12 <__rc2>
    759d: 85 16        	sta	$16                     ; 0x16 <__rc6>
    759f: 29 33        	and	#$33
    75a1: 85 12        	sta	$12                     ; 0x12 <__rc2>
    75a3: a5 13        	lda	$13                     ; 0x13 <__rc3>
    75a5: 85 17        	sta	$17                     ; 0x17 <__rc7>
    75a7: 29 33        	and	#$33
    75a9: 85 13        	sta	$13                     ; 0x13 <__rc3>
    75ab: a5 14        	lda	$14                     ; 0x14 <__rc4>
    75ad: 85 18        	sta	$18                     ; 0x18 <__rc8>
    75af: 29 33        	and	#$33
    75b1: 85 14        	sta	$14                     ; 0x14 <__rc4>
    75b3: a5 15        	lda	$15                     ; 0x15 <__rc5>
    75b5: 4a           	lsr
    75b6: 85 19        	sta	$19                     ; 0x19 <__rc9>
    75b8: 46 18        	lsr	$18                     ; 0x18 <__rc8>
    75ba: 46 17        	lsr	$17                     ; 0x17 <__rc7>
    75bc: a5 16        	lda	$16                     ; 0x16 <__rc6>
    75be: 4a           	lsr
    75bf: 46 19        	lsr	$19                     ; 0x19 <__rc9>
    75c1: 46 18        	lsr	$18                     ; 0x18 <__rc8>
    75c3: a4 17        	ldy	$17                     ; 0x17 <__rc7>
    75c5: 84 16        	sty	$16                     ; 0x16 <__rc6>
    75c7: 46 16        	lsr	$16                     ; 0x16 <__rc6>
    75c9: 4a           	lsr
    75ca: 29 33        	and	#$33
    75cc: 85 1a        	sta	$1a                     ; 0x1a <__rc10>
    75ce: a5 16        	lda	$16                     ; 0x16 <__rc6>
    75d0: 29 33        	and	#$33
    75d2: 85 16        	sta	$16                     ; 0x16 <__rc6>
    75d4: a5 18        	lda	$18                     ; 0x18 <__rc8>
    75d6: 29 33        	and	#$33
    75d8: 85 17        	sta	$17                     ; 0x17 <__rc7>
    75da: a5 19        	lda	$19                     ; 0x19 <__rc9>
    75dc: 29 33        	and	#$33
    75de: 85 18        	sta	$18                     ; 0x18 <__rc8>
    75e0: a5 15        	lda	$15                     ; 0x15 <__rc5>
    75e2: 29 33        	and	#$33
    75e4: 85 15        	sta	$15                     ; 0x15 <__rc5>
    75e6: 18           	clc
    75e7: a5 1a        	lda	$1a                     ; 0x1a <__rc10>
    75e9: 65 12        	adc	$12                     ; 0x12 <__rc2>
    75eb: 85 12        	sta	$12                     ; 0x12 <__rc2>
    75ed: a5 16        	lda	$16                     ; 0x16 <__rc6>
    75ef: 65 13        	adc	$13                     ; 0x13 <__rc3>
    75f1: 85 13        	sta	$13                     ; 0x13 <__rc3>
    75f3: a5 17        	lda	$17                     ; 0x17 <__rc7>
    75f5: 65 14        	adc	$14                     ; 0x14 <__rc4>
    75f7: 85 14        	sta	$14                     ; 0x14 <__rc4>
    75f9: a5 18        	lda	$18                     ; 0x18 <__rc8>
    75fb: 65 15        	adc	$15                     ; 0x15 <__rc5>
    75fd: 85 15        	sta	$15                     ; 0x15 <__rc5>
    75ff: 4a           	lsr
    7600: 85 16        	sta	$16                     ; 0x16 <__rc6>
    7602: a5 14        	lda	$14                     ; 0x14 <__rc4>
    7604: 6a           	ror
    7605: a4 13        	ldy	$13                     ; 0x13 <__rc3>
    7607: 84 17        	sty	$17                     ; 0x17 <__rc7>
    7609: 66 17        	ror	$17                     ; 0x17 <__rc7>
    760b: a4 12        	ldy	$12                     ; 0x12 <__rc2>
    760d: 84 18        	sty	$18                     ; 0x18 <__rc8>
    760f: 7a           	ply
    7610: 66 18        	ror	$18                     ; 0x18 <__rc8>
    7612: 46 16        	lsr	$16                     ; 0x16 <__rc6>
    7614: 6a           	ror
    7615: 66 17        	ror	$17                     ; 0x17 <__rc7>
    7617: 66 18        	ror	$18                     ; 0x18 <__rc8>
    7619: 46 16        	lsr	$16                     ; 0x16 <__rc6>
    761b: 6a           	ror
    761c: 66 17        	ror	$17                     ; 0x17 <__rc7>
    761e: 66 18        	ror	$18                     ; 0x18 <__rc8>
    7620: 46 16        	lsr	$16                     ; 0x16 <__rc6>
    7622: 6a           	ror
    7623: 85 19        	sta	$19                     ; 0x19 <__rc9>
    7625: a5 17        	lda	$17                     ; 0x17 <__rc7>
    7627: 85 1a        	sta	$1a                     ; 0x1a <__rc10>
    7629: 66 1a        	ror	$1a                     ; 0x1a <__rc10>
    762b: a5 18        	lda	$18                     ; 0x18 <__rc8>
    762d: 6a           	ror
    762e: 18           	clc
    762f: 65 12        	adc	$12                     ; 0x12 <__rc2>
    7631: 85 12        	sta	$12                     ; 0x12 <__rc2>
    7633: a5 1a        	lda	$1a                     ; 0x1a <__rc10>
    7635: 65 13        	adc	$13                     ; 0x13 <__rc3>
    7637: 85 13        	sta	$13                     ; 0x13 <__rc3>
    7639: a5 19        	lda	$19                     ; 0x19 <__rc9>
    763b: 65 14        	adc	$14                     ; 0x14 <__rc4>
    763d: 85 14        	sta	$14                     ; 0x14 <__rc4>
    763f: a5 16        	lda	$16                     ; 0x16 <__rc6>
    7641: 65 15        	adc	$15                     ; 0x15 <__rc5>
    7643: 85 15        	sta	$15                     ; 0x15 <__rc5>
    7645: a5 12        	lda	$12                     ; 0x12 <__rc2>
    7647: 29 0f        	and	#$f
    7649: 85 12        	sta	$12                     ; 0x12 <__rc2>
    764b: 85 18        	sta	$18                     ; 0x18 <__rc8>
    764d: a5 13        	lda	$13                     ; 0x13 <__rc3>
    764f: 29 0f        	and	#$f
    7651: 85 13        	sta	$13                     ; 0x13 <__rc3>
    7653: 85 17        	sta	$17                     ; 0x17 <__rc7>
    7655: a5 14        	lda	$14                     ; 0x14 <__rc4>
    7657: 29 0f        	and	#$f
    7659: 85 14        	sta	$14                     ; 0x14 <__rc4>
    765b: 85 19        	sta	$19                     ; 0x19 <__rc9>
    765d: a5 15        	lda	$15                     ; 0x15 <__rc5>
    765f: 29 0f        	and	#$f
    7661: 85 16        	sta	$16                     ; 0x16 <__rc6>
    7663: 18           	clc
    7664: a5 18        	lda	$18                     ; 0x18 <__rc8>
    7666: 69 00        	adc	#$0
    7668: 85 15        	sta	$15                     ; 0x15 <__rc5>
    766a: 85 1a        	sta	$1a                     ; 0x1a <__rc10>
    766c: a5 17        	lda	$17                     ; 0x17 <__rc7>
    766e: 65 12        	adc	$12                     ; 0x12 <__rc2>
    7670: 85 12        	sta	$12                     ; 0x12 <__rc2>
    7672: 85 18        	sta	$18                     ; 0x18 <__rc8>
    7674: a5 19        	lda	$19                     ; 0x19 <__rc9>
    7676: 65 13        	adc	$13                     ; 0x13 <__rc3>
    7678: 85 17        	sta	$17                     ; 0x17 <__rc7>
    767a: a5 16        	lda	$16                     ; 0x16 <__rc6>
    767c: 65 14        	adc	$14                     ; 0x14 <__rc4>
    767e: 85 13        	sta	$13                     ; 0x13 <__rc3>
    7680: 18           	clc
    7681: a5 1a        	lda	$1a                     ; 0x1a <__rc10>
    7683: 69 00        	adc	#$0
    7685: a5 18        	lda	$18                     ; 0x18 <__rc8>
    7687: 69 00        	adc	#$0
    7689: a5 17        	lda	$17                     ; 0x17 <__rc7>
    768b: 65 15        	adc	$15                     ; 0x15 <__rc5>
    768d: a5 13        	lda	$13                     ; 0x13 <__rc3>
    768f: 65 12        	adc	$12                     ; 0x12 <__rc2>
    7691: 85 12        	sta	$12                     ; 0x12 <__rc2>
    7693: a9 20        	lda	#$20
    7695: 38           	sec
    7696: e5 12        	sbc	$12                     ; 0x12 <__rc2>
    7698: 85 12        	sta	$12                     ; 0x12 <__rc2>
    769a: a9 00        	lda	#$0
    769c: e9 00        	sbc	#$0
    769e: 85 8f        	sta	$8f                     ; 0x8f <__zp_bss_size+0x3a>
    76a0: 64 13        	stz	$13                     ; 0x13 <__rc3>
    76a2: a5 12        	lda	$12                     ; 0x12 <__rc2>
    76a4: 85 90        	sta	$90                     ; 0x90 <__zp_bss_size+0x3b>
    76a6: 18           	clc
    76a7: 69 f8        	adc	#$f8
    76a9: 85 14        	sta	$14                     ; 0x14 <__rc4>
    76ab: 84 12        	sty	$12                     ; 0x12 <__rc2>
    76ad: a5 96        	lda	$96                     ; 0x96 <__zp_bss_size+0x41>
    76af: 20 37 6f     	jsr	$6f37 <__ashlsi3>
    76b2: 85 96        	sta	$96                     ; 0x96 <__zp_bss_size+0x41>
    76b4: 86 93        	stx	$93                     ; 0x93 <__zp_bss_size+0x3e>
    76b6: a6 12        	ldx	$12                     ; 0x12 <__rc2>
    76b8: 86 99        	stx	$99                     ; 0x99 <__zp_bss_size+0x44>
    76ba: a9 09        	lda	#$9
    76bc: 38           	sec
    76bd: e5 90        	sbc	$90                     ; 0x90 <__zp_bss_size+0x3b>
    76bf: 85 14        	sta	$14                     ; 0x14 <__rc4>
    76c1: a9 00        	lda	#$0
    76c3: e5 8f        	sbc	$8f                     ; 0x8f <__zp_bss_size+0x3a>
    76c5: 85 15        	sta	$15                     ; 0x15 <__rc5>
    76c7: a6 9d        	ldx	$9d                     ; 0x9d <__zp_bss_size+0x48>
    76c9: 86 12        	stx	$12                     ; 0x12 <__rc2>
    76cb: a4 9b        	ldy	$9b                     ; 0x9b <__zp_bss_size+0x46>
    76cd: 84 90        	sty	$90                     ; 0x90 <__zp_bss_size+0x3b>
    76cf: a6 9a        	ldx	$9a                     ; 0x9a <__zp_bss_size+0x45>
    76d1: a4 8b        	ldy	$8b                     ; 0x8b <__zp_bss_size+0x36>
    76d3: 84 16        	sty	$16                     ; 0x16 <__rc6>
    76d5: a5 8d        	lda	$8d                     ; 0x8d <__zp_bss_size+0x38>
    76d7: a4 8e        	ldy	$8e                     ; 0x8e <__zp_bss_size+0x39>
    76d9: d0 11        	bne	$76ec <__divsf3+0x3e6>
    76db: c9 80        	cmp	#$80
    76dd: d0 1e        	bne	$76fd <__divsf3+0x3f7>
    76df: 8a           	txa
    76e0: f0 03        	beq	$76e5 <__divsf3+0x3df>
    76e2: 4c 6d 7e     	jmp	$7e6d <__divsf3+0xb67>
    76e5: 86 9a        	stx	$9a                     ; 0x9a <__zp_bss_size+0x45>
    76e7: a6 90        	ldx	$90                     ; 0x90 <__zp_bss_size+0x3b>
    76e9: 4c 73 7e     	jmp	$7e73 <__divsf3+0xb6d>
    76ec: a4 8e        	ldy	$8e                     ; 0x8e <__zp_bss_size+0x39>
    76ee: 86 9a        	stx	$9a                     ; 0x9a <__zp_bss_size+0x45>
    76f0: c0 00        	cpy	#$0
    76f2: 90 0f        	bcc	$7703 <__divsf3+0x3fd>
    76f4: a6 13        	ldx	$13                     ; 0x13 <__rc3>
    76f6: 86 9c        	stx	$9c                     ; 0x9c <__zp_bss_size+0x47>
    76f8: a0 00        	ldy	#$0
    76fa: 4c 09 79     	jmp	$7909 <__divsf3+0x603>
    76fd: 86 9a        	stx	$9a                     ; 0x9a <__zp_bss_size+0x45>
    76ff: c9 80        	cmp	#$80
    7701: b0 f1        	bcs	$76f4 <__divsf3+0x3ee>
    7703: a6 15        	ldx	$15                     ; 0x15 <__rc5>
    7705: 86 9b        	stx	$9b                     ; 0x9b <__zp_bss_size+0x46>
    7707: a6 14        	ldx	$14                     ; 0x14 <__rc4>
    7709: 86 9e        	stx	$9e                     ; 0x9e <__zp_bss_size+0x49>
    770b: a6 12        	ldx	$12                     ; 0x12 <__rc2>
    770d: 86 9d        	stx	$9d                     ; 0x9d <__zp_bss_size+0x48>
    770f: a6 13        	ldx	$13                     ; 0x13 <__rc3>
    7711: 86 9c        	stx	$9c                     ; 0x9c <__zp_bss_size+0x47>
    7713: a5 8b        	lda	$8b                     ; 0x8b <__zp_bss_size+0x36>
    7715: 4a           	lsr
    7716: 85 12        	sta	$12                     ; 0x12 <__rc2>
    7718: a6 9a        	ldx	$9a                     ; 0x9a <__zp_bss_size+0x45>
    771a: 8a           	txa
    771b: 6a           	ror
    771c: 85 13        	sta	$13                     ; 0x13 <__rc3>
    771e: a5 90        	lda	$90                     ; 0x90 <__zp_bss_size+0x3b>
    7720: 6a           	ror
    7721: 85 14        	sta	$14                     ; 0x14 <__rc4>
    7723: a5 90        	lda	$90                     ; 0x90 <__zp_bss_size+0x3b>
    7725: 05 14        	ora	$14                     ; 0x14 <__rc4>
    7727: 85 15        	sta	$15                     ; 0x15 <__rc5>
    7729: 8a           	txa
    772a: 05 13        	ora	$13                     ; 0x13 <__rc3>
    772c: a8           	tay
    772d: a5 8b        	lda	$8b                     ; 0x8b <__zp_bss_size+0x36>
    772f: 05 12        	ora	$12                     ; 0x12 <__rc2>
    7731: 85 17        	sta	$17                     ; 0x17 <__rc7>
    7733: 4a           	lsr
    7734: 84 12        	sty	$12                     ; 0x12 <__rc2>
    7736: 66 12        	ror	$12                     ; 0x12 <__rc2>
    7738: 48           	pha
    7739: a5 15        	lda	$15                     ; 0x15 <__rc5>
    773b: 85 13        	sta	$13                     ; 0x13 <__rc3>
    773d: 68           	pla
    773e: 66 13        	ror	$13                     ; 0x13 <__rc3>
    7740: 4a           	lsr
    7741: 85 14        	sta	$14                     ; 0x14 <__rc4>
    7743: 66 12        	ror	$12                     ; 0x12 <__rc2>
    7745: 66 13        	ror	$13                     ; 0x13 <__rc3>
    7747: a5 15        	lda	$15                     ; 0x15 <__rc5>
    7749: 05 13        	ora	$13                     ; 0x13 <__rc3>
    774b: 85 15        	sta	$15                     ; 0x15 <__rc5>
    774d: 98           	tya
    774e: 05 12        	ora	$12                     ; 0x12 <__rc2>
    7750: a8           	tay
    7751: a5 17        	lda	$17                     ; 0x17 <__rc7>
    7753: 05 14        	ora	$14                     ; 0x14 <__rc4>
    7755: 85 17        	sta	$17                     ; 0x17 <__rc7>
    7757: 4a           	lsr
    7758: 84 12        	sty	$12                     ; 0x12 <__rc2>
    775a: 66 12        	ror	$12                     ; 0x12 <__rc2>
    775c: 48           	pha
    775d: a5 15        	lda	$15                     ; 0x15 <__rc5>
    775f: 85 13        	sta	$13                     ; 0x13 <__rc3>
    7761: 68           	pla
    7762: 66 13        	ror	$13                     ; 0x13 <__rc3>
    7764: 4a           	lsr
    7765: 66 12        	ror	$12                     ; 0x12 <__rc2>
    7767: 66 13        	ror	$13                     ; 0x13 <__rc3>
    7769: 4a           	lsr
    776a: 66 12        	ror	$12                     ; 0x12 <__rc2>
    776c: 66 13        	ror	$13                     ; 0x13 <__rc3>
    776e: 4a           	lsr
    776f: 85 14        	sta	$14                     ; 0x14 <__rc4>
    7771: 66 12        	ror	$12                     ; 0x12 <__rc2>
    7773: 66 13        	ror	$13                     ; 0x13 <__rc3>
    7775: a5 15        	lda	$15                     ; 0x15 <__rc5>
    7777: 05 13        	ora	$13                     ; 0x13 <__rc3>
    7779: 85 13        	sta	$13                     ; 0x13 <__rc3>
    777b: 98           	tya
    777c: 05 12        	ora	$12                     ; 0x12 <__rc2>
    777e: a8           	tay
    777f: a5 17        	lda	$17                     ; 0x17 <__rc7>
    7781: 05 14        	ora	$14                     ; 0x14 <__rc4>
    7783: 85 14        	sta	$14                     ; 0x14 <__rc4>
    7785: 84 12        	sty	$12                     ; 0x12 <__rc2>
    7787: a5 13        	lda	$13                     ; 0x13 <__rc3>
    7789: 05 12        	ora	$12                     ; 0x12 <__rc2>
    778b: 85 13        	sta	$13                     ; 0x13 <__rc3>
    778d: 98           	tya
    778e: 05 14        	ora	$14                     ; 0x14 <__rc4>
    7790: a8           	tay
    7791: a5 13        	lda	$13                     ; 0x13 <__rc3>
    7793: 05 14        	ora	$14                     ; 0x14 <__rc4>
    7795: 85 15        	sta	$15                     ; 0x15 <__rc5>
    7797: a5 14        	lda	$14                     ; 0x14 <__rc4>
    7799: 85 17        	sta	$17                     ; 0x17 <__rc7>
    779b: 46 14        	lsr	$14                     ; 0x14 <__rc4>
    779d: a5 15        	lda	$15                     ; 0x15 <__rc5>
    779f: 4a           	lsr
    77a0: 29 55        	and	#$55
    77a2: 85 12        	sta	$12                     ; 0x12 <__rc2>
    77a4: 98           	tya
    77a5: 4a           	lsr
    77a6: 29 55        	and	#$55
    77a8: 85 13        	sta	$13                     ; 0x13 <__rc3>
    77aa: a5 14        	lda	$14                     ; 0x14 <__rc4>
    77ac: 29 55        	and	#$55
    77ae: 85 14        	sta	$14                     ; 0x14 <__rc4>
    77b0: 38           	sec
    77b1: a5 15        	lda	$15                     ; 0x15 <__rc5>
    77b3: e5 12        	sbc	$12                     ; 0x12 <__rc2>
    77b5: 85 12        	sta	$12                     ; 0x12 <__rc2>
    77b7: 98           	tya
    77b8: e5 13        	sbc	$13                     ; 0x13 <__rc3>
    77ba: 85 13        	sta	$13                     ; 0x13 <__rc3>
    77bc: a5 17        	lda	$17                     ; 0x17 <__rc7>
    77be: e5 14        	sbc	$14                     ; 0x14 <__rc4>
    77c0: a8           	tay
    77c1: a9 00        	lda	#$0
    77c3: e9 00        	sbc	#$0
    77c5: 85 15        	sta	$15                     ; 0x15 <__rc5>
    77c7: a5 12        	lda	$12                     ; 0x12 <__rc2>
    77c9: 85 17        	sta	$17                     ; 0x17 <__rc7>
    77cb: 29 33        	and	#$33
    77cd: 85 12        	sta	$12                     ; 0x12 <__rc2>
    77cf: a5 13        	lda	$13                     ; 0x13 <__rc3>
    77d1: 85 19        	sta	$19                     ; 0x19 <__rc9>
    77d3: 29 33        	and	#$33
    77d5: 85 13        	sta	$13                     ; 0x13 <__rc3>
    77d7: 98           	tya
    77d8: 29 33        	and	#$33
    77da: 85 14        	sta	$14                     ; 0x14 <__rc4>
    77dc: a5 15        	lda	$15                     ; 0x15 <__rc5>
    77de: 4a           	lsr
    77df: 85 1b        	sta	$1b                     ; 0x1b <__rc11>
    77e1: 98           	tya
    77e2: 4a           	lsr
    77e3: 85 1a        	sta	$1a                     ; 0x1a <__rc10>
    77e5: 46 19        	lsr	$19                     ; 0x19 <__rc9>
    77e7: a5 17        	lda	$17                     ; 0x17 <__rc7>
    77e9: 4a           	lsr
    77ea: 46 1b        	lsr	$1b                     ; 0x1b <__rc11>
    77ec: 46 1a        	lsr	$1a                     ; 0x1a <__rc10>
    77ee: a4 19        	ldy	$19                     ; 0x19 <__rc9>
    77f0: 84 17        	sty	$17                     ; 0x17 <__rc7>
    77f2: 46 17        	lsr	$17                     ; 0x17 <__rc7>
    77f4: 4a           	lsr
    77f5: 29 33        	and	#$33
    77f7: 85 1c        	sta	$1c                     ; 0x1c <__rc12>
    77f9: a5 17        	lda	$17                     ; 0x17 <__rc7>
    77fb: 29 33        	and	#$33
    77fd: a8           	tay
    77fe: a5 1a        	lda	$1a                     ; 0x1a <__rc10>
    7800: 29 33        	and	#$33
    7802: 85 17        	sta	$17                     ; 0x17 <__rc7>
    7804: a5 1b        	lda	$1b                     ; 0x1b <__rc11>
    7806: 29 33        	and	#$33
    7808: 85 19        	sta	$19                     ; 0x19 <__rc9>
    780a: a5 15        	lda	$15                     ; 0x15 <__rc5>
    780c: 29 33        	and	#$33
    780e: 85 15        	sta	$15                     ; 0x15 <__rc5>
    7810: 18           	clc
    7811: a5 1c        	lda	$1c                     ; 0x1c <__rc12>
    7813: 65 12        	adc	$12                     ; 0x12 <__rc2>
    7815: 85 12        	sta	$12                     ; 0x12 <__rc2>
    7817: 98           	tya
    7818: 65 13        	adc	$13                     ; 0x13 <__rc3>
    781a: 85 13        	sta	$13                     ; 0x13 <__rc3>
    781c: a5 17        	lda	$17                     ; 0x17 <__rc7>
    781e: 65 14        	adc	$14                     ; 0x14 <__rc4>
    7820: 85 14        	sta	$14                     ; 0x14 <__rc4>
    7822: a5 19        	lda	$19                     ; 0x19 <__rc9>
    7824: 65 15        	adc	$15                     ; 0x15 <__rc5>
    7826: 85 15        	sta	$15                     ; 0x15 <__rc5>
    7828: 4a           	lsr
    7829: a8           	tay
    782a: a5 14        	lda	$14                     ; 0x14 <__rc4>
    782c: 6a           	ror
    782d: 5a           	phy
    782e: a4 13        	ldy	$13                     ; 0x13 <__rc3>
    7830: 84 19        	sty	$19                     ; 0x19 <__rc9>
    7832: 66 19        	ror	$19                     ; 0x19 <__rc9>
    7834: a4 12        	ldy	$12                     ; 0x12 <__rc2>
    7836: 84 17        	sty	$17                     ; 0x17 <__rc7>
    7838: 66 17        	ror	$17                     ; 0x17 <__rc7>
    783a: a4 17        	ldy	$17                     ; 0x17 <__rc7>
    783c: 84 1a        	sty	$1a                     ; 0x1a <__rc10>
    783e: 7a           	ply
    783f: 84 17        	sty	$17                     ; 0x17 <__rc7>
    7841: 46 17        	lsr	$17                     ; 0x17 <__rc7>
    7843: 6a           	ror
    7844: 66 19        	ror	$19                     ; 0x19 <__rc9>
    7846: 66 1a        	ror	$1a                     ; 0x1a <__rc10>
    7848: 46 17        	lsr	$17                     ; 0x17 <__rc7>
    784a: 6a           	ror
    784b: 66 19        	ror	$19                     ; 0x19 <__rc9>
    784d: 66 1a        	ror	$1a                     ; 0x1a <__rc10>
    784f: 46 17        	lsr	$17                     ; 0x17 <__rc7>
    7851: 6a           	ror
    7852: 85 1b        	sta	$1b                     ; 0x1b <__rc11>
    7854: a4 19        	ldy	$19                     ; 0x19 <__rc9>
    7856: 84 1c        	sty	$1c                     ; 0x1c <__rc12>
    7858: 66 1c        	ror	$1c                     ; 0x1c <__rc12>
    785a: a5 1a        	lda	$1a                     ; 0x1a <__rc10>
    785c: 6a           	ror
    785d: 18           	clc
    785e: 65 12        	adc	$12                     ; 0x12 <__rc2>
    7860: a8           	tay
    7861: a5 1c        	lda	$1c                     ; 0x1c <__rc12>
    7863: 65 13        	adc	$13                     ; 0x13 <__rc3>
    7865: 85 13        	sta	$13                     ; 0x13 <__rc3>
    7867: a5 1b        	lda	$1b                     ; 0x1b <__rc11>
    7869: 65 14        	adc	$14                     ; 0x14 <__rc4>
    786b: 85 14        	sta	$14                     ; 0x14 <__rc4>
    786d: a5 17        	lda	$17                     ; 0x17 <__rc7>
    786f: 65 15        	adc	$15                     ; 0x15 <__rc5>
    7871: 85 15        	sta	$15                     ; 0x15 <__rc5>
    7873: 98           	tya
    7874: 29 0f        	and	#$f
    7876: 85 12        	sta	$12                     ; 0x12 <__rc2>
    7878: a8           	tay
    7879: a5 13        	lda	$13                     ; 0x13 <__rc3>
    787b: 29 0f        	and	#$f
    787d: 85 13        	sta	$13                     ; 0x13 <__rc3>
    787f: 85 1a        	sta	$1a                     ; 0x1a <__rc10>
    7881: a5 14        	lda	$14                     ; 0x14 <__rc4>
    7883: 29 0f        	and	#$f
    7885: 85 14        	sta	$14                     ; 0x14 <__rc4>
    7887: 85 19        	sta	$19                     ; 0x19 <__rc9>
    7889: a5 15        	lda	$15                     ; 0x15 <__rc5>
    788b: 29 0f        	and	#$f
    788d: 85 17        	sta	$17                     ; 0x17 <__rc7>
    788f: 18           	clc
    7890: 98           	tya
    7891: 69 00        	adc	#$0
    7893: 85 15        	sta	$15                     ; 0x15 <__rc5>
    7895: 85 1b        	sta	$1b                     ; 0x1b <__rc11>
    7897: a5 1a        	lda	$1a                     ; 0x1a <__rc10>
    7899: 65 12        	adc	$12                     ; 0x12 <__rc2>
    789b: 85 12        	sta	$12                     ; 0x12 <__rc2>
    789d: a5 19        	lda	$19                     ; 0x19 <__rc9>
    789f: 65 13        	adc	$13                     ; 0x13 <__rc3>
    78a1: 85 13        	sta	$13                     ; 0x13 <__rc3>
    78a3: a5 17        	lda	$17                     ; 0x17 <__rc7>
    78a5: 65 14        	adc	$14                     ; 0x14 <__rc4>
    78a7: a8           	tay
    78a8: 18           	clc
    78a9: a5 1b        	lda	$1b                     ; 0x1b <__rc11>
    78ab: 69 00        	adc	#$0
    78ad: a5 12        	lda	$12                     ; 0x12 <__rc2>
    78af: 69 00        	adc	#$0
    78b1: a5 13        	lda	$13                     ; 0x13 <__rc3>
    78b3: 65 15        	adc	$15                     ; 0x15 <__rc5>
    78b5: 98           	tya
    78b6: 65 12        	adc	$12                     ; 0x12 <__rc2>
    78b8: 85 12        	sta	$12                     ; 0x12 <__rc2>
    78ba: a9 20        	lda	#$20
    78bc: 38           	sec
    78bd: e5 12        	sbc	$12                     ; 0x12 <__rc2>
    78bf: 85 8b        	sta	$8b                     ; 0x8b <__zp_bss_size+0x36>
    78c1: a9 00        	lda	#$0
    78c3: e9 00        	sbc	#$0
    78c5: 85 8c        	sta	$8c                     ; 0x8c <__zp_bss_size+0x37>
    78c7: a5 8b        	lda	$8b                     ; 0x8b <__zp_bss_size+0x36>
    78c9: 18           	clc
    78ca: 69 f8        	adc	#$f8
    78cc: a4 16        	ldy	$16                     ; 0x16 <__rc6>
    78ce: 84 12        	sty	$12                     ; 0x12 <__rc2>
    78d0: 64 13        	stz	$13                     ; 0x13 <__rc3>
    78d2: 85 14        	sta	$14                     ; 0x14 <__rc4>
    78d4: a5 90        	lda	$90                     ; 0x90 <__zp_bss_size+0x3b>
    78d6: 20 37 6f     	jsr	$6f37 <__ashlsi3>
    78d9: 85 90        	sta	$90                     ; 0x90 <__zp_bss_size+0x3b>
    78db: 86 9a        	stx	$9a                     ; 0x9a <__zp_bss_size+0x45>
    78dd: a6 12        	ldx	$12                     ; 0x12 <__rc2>
    78df: 86 16        	stx	$16                     ; 0x16 <__rc6>
    78e1: a4 13        	ldy	$13                     ; 0x13 <__rc3>
    78e3: a6 9e        	ldx	$9e                     ; 0x9e <__zp_bss_size+0x49>
    78e5: 86 12        	stx	$12                     ; 0x12 <__rc2>
    78e7: 18           	clc
    78e8: a5 8b        	lda	$8b                     ; 0x8b <__zp_bss_size+0x36>
    78ea: 65 12        	adc	$12                     ; 0x12 <__rc2>
    78ec: 85 13        	sta	$13                     ; 0x13 <__rc3>
    78ee: a6 9b        	ldx	$9b                     ; 0x9b <__zp_bss_size+0x46>
    78f0: 86 12        	stx	$12                     ; 0x12 <__rc2>
    78f2: a5 8c        	lda	$8c                     ; 0x8c <__zp_bss_size+0x37>
    78f4: 65 12        	adc	$12                     ; 0x12 <__rc2>
    78f6: 85 12        	sta	$12                     ; 0x12 <__rc2>
    78f8: 18           	clc
    78f9: a5 13        	lda	$13                     ; 0x13 <__rc3>
    78fb: 69 f7        	adc	#$f7
    78fd: 85 14        	sta	$14                     ; 0x14 <__rc4>
    78ff: a5 12        	lda	$12                     ; 0x12 <__rc2>
    7901: 69 ff        	adc	#$ff
    7903: 85 15        	sta	$15                     ; 0x15 <__rc5>
    7905: a6 9d        	ldx	$9d                     ; 0x9d <__zp_bss_size+0x48>
    7907: 86 12        	stx	$12                     ; 0x12 <__rc2>
    7909: a5 16        	lda	$16                     ; 0x16 <__rc6>
    790b: 09 80        	ora	#$80
    790d: 38           	sec
    790e: 85 8c        	sta	$8c                     ; 0x8c <__zp_bss_size+0x37>
    7910: a5 97        	lda	$97                     ; 0x97 <__zp_bss_size+0x42>
    7912: e5 12        	sbc	$12                     ; 0x12 <__rc2>
    7914: aa           	tax
    7915: a9 00        	lda	#$0
    7917: e9 00        	sbc	#$0
    7919: 85 12        	sta	$12                     ; 0x12 <__rc2>
    791b: 18           	clc
    791c: 8a           	txa
    791d: 65 14        	adc	$14                     ; 0x14 <__rc4>
    791f: aa           	tax
    7920: a5 12        	lda	$12                     ; 0x12 <__rc2>
    7922: 65 15        	adc	$15                     ; 0x15 <__rc5>
    7924: 85 12        	sta	$12                     ; 0x12 <__rc2>
    7926: 8a           	txa
    7927: 86 97        	stx	$97                     ; 0x97 <__zp_bss_size+0x42>
    7929: 18           	clc
    792a: 69 7f        	adc	#$7f
    792c: 85 a0        	sta	$a0                     ; 0xa0 <__zp_bss_size+0x4b>
    792e: a5 12        	lda	$12                     ; 0x12 <__rc2>
    7930: a6 12        	ldx	$12                     ; 0x12 <__rc2>
    7932: 86 a4        	stx	$a4                     ; 0xa4 <__zp_bss_size+0x4f>
    7934: 69 00        	adc	#$0
    7936: 85 9f        	sta	$9f                     ; 0x9f <__zp_bss_size+0x4a>
    7938: a5 90        	lda	$90                     ; 0x90 <__zp_bss_size+0x3b>
    793a: 85 9b        	sta	$9b                     ; 0x9b <__zp_bss_size+0x46>
    793c: 06 90        	asl	$90                     ; 0x90 <__zp_bss_size+0x3b>
    793e: a6 9a        	ldx	$9a                     ; 0x9a <__zp_bss_size+0x45>
    7940: 86 8d        	stx	$8d                     ; 0x8d <__zp_bss_size+0x38>
    7942: 26 8d        	rol	$8d                     ; 0x8d <__zp_bss_size+0x38>
    7944: a6 8c        	ldx	$8c                     ; 0x8c <__zp_bss_size+0x37>
    7946: 86 9e        	stx	$9e                     ; 0x9e <__zp_bss_size+0x49>
    7948: 26 8c        	rol	$8c                     ; 0x8c <__zp_bss_size+0x37>
    794a: 98           	tya
    794b: 84 9d        	sty	$9d                     ; 0x9d <__zp_bss_size+0x48>
    794d: 2a           	rol
    794e: 85 a8        	sta	$a8                     ; 0xa8 <__zp_bss_size+0x53>
    7950: 4a           	lsr
    7951: a6 8c        	ldx	$8c                     ; 0x8c <__zp_bss_size+0x37>
    7953: 86 a7        	stx	$a7                     ; 0xa7 <__zp_bss_size+0x52>
    7955: 66 8c        	ror	$8c                     ; 0x8c <__zp_bss_size+0x37>
    7957: a6 8d        	ldx	$8d                     ; 0x8d <__zp_bss_size+0x38>
    7959: 86 a6        	stx	$a6                     ; 0xa6 <__zp_bss_size+0x51>
    795b: 66 8d        	ror	$8d                     ; 0x8d <__zp_bss_size+0x38>
    795d: a6 90        	ldx	$90                     ; 0x90 <__zp_bss_size+0x3b>
    795f: 86 a5        	stx	$a5                     ; 0xa5 <__zp_bss_size+0x50>
    7961: 66 90        	ror	$90                     ; 0x90 <__zp_bss_size+0x3b>
    7963: 64 91        	stz	$91                     ; 0x91 <__zp_bss_size+0x3c>
    7965: 66 91        	ror	$91                     ; 0x91 <__zp_bss_size+0x3c>
    7967: a9 33        	lda	#$33
    7969: 38           	sec
    796a: e5 91        	sbc	$91                     ; 0x91 <__zp_bss_size+0x3c>
    796c: 85 8b        	sta	$8b                     ; 0x8b <__zp_bss_size+0x36>
    796e: a9 f3        	lda	#$f3
    7970: e5 90        	sbc	$90                     ; 0x90 <__zp_bss_size+0x3b>
    7972: 85 92        	sta	$92                     ; 0x92 <__zp_bss_size+0x3d>
    7974: a9 04        	lda	#$4
    7976: e5 8d        	sbc	$8d                     ; 0x8d <__zp_bss_size+0x38>
    7978: 85 94        	sta	$94                     ; 0x94 <__zp_bss_size+0x3f>
    797a: a9 75        	lda	#$75
    797c: e5 8c        	sbc	$8c                     ; 0x8c <__zp_bss_size+0x37>
    797e: 85 95        	sta	$95                     ; 0x95 <__zp_bss_size+0x40>
    7980: a6 99        	ldx	$99                     ; 0x99 <__zp_bss_size+0x44>
    7982: 8a           	txa
    7983: 09 80        	ora	#$80
    7985: 85 8f        	sta	$8f                     ; 0x8f <__zp_bss_size+0x3a>
    7987: 64 8e        	stz	$8e                     ; 0x8e <__zp_bss_size+0x39>
    7989: a6 94        	ldx	$94                     ; 0x94 <__zp_bss_size+0x3f>
    798b: 86 12        	stx	$12                     ; 0x12 <__rc2>
    798d: a6 95        	ldx	$95                     ; 0x95 <__zp_bss_size+0x40>
    798f: 86 13        	stx	$13                     ; 0x13 <__rc3>
    7991: 64 14        	stz	$14                     ; 0x14 <__rc4>
    7993: 64 15        	stz	$15                     ; 0x15 <__rc5>
    7995: 64 16        	stz	$16                     ; 0x16 <__rc6>
    7997: 64 17        	stz	$17                     ; 0x17 <__rc7>
    7999: a6 91        	ldx	$91                     ; 0x91 <__zp_bss_size+0x3c>
    799b: 86 18        	stx	$18                     ; 0x18 <__rc8>
    799d: a6 90        	ldx	$90                     ; 0x90 <__zp_bss_size+0x3b>
    799f: 86 19        	stx	$19                     ; 0x19 <__rc9>
    79a1: a6 8d        	ldx	$8d                     ; 0x8d <__zp_bss_size+0x38>
    79a3: 86 1a        	stx	$1a                     ; 0x1a <__rc10>
    79a5: a6 8c        	ldx	$8c                     ; 0x8c <__zp_bss_size+0x37>
    79a7: 86 1b        	stx	$1b                     ; 0x1b <__rc11>
    79a9: 64 1c        	stz	$1c                     ; 0x1c <__rc12>
    79ab: 64 1d        	stz	$1d                     ; 0x1d <__rc13>
    79ad: 64 1e        	stz	$1e                     ; 0x1e <__rc14>
    79af: 64 1f        	stz	$1f                     ; 0x1f <__rc15>
    79b1: a6 92        	ldx	$92                     ; 0x92 <__zp_bss_size+0x3d>
    79b3: a5 8b        	lda	$8b                     ; 0x8b <__zp_bss_size+0x36>
    79b5: 20 2b 83     	jsr	$832b <__muldi3>
    79b8: a9 00        	lda	#$0
    79ba: 38           	sec
    79bb: e5 14        	sbc	$14                     ; 0x14 <__rc4>
    79bd: a8           	tay
    79be: a9 00        	lda	#$0
    79c0: e5 15        	sbc	$15                     ; 0x15 <__rc5>
    79c2: aa           	tax
    79c3: a9 00        	lda	#$0
    79c5: e5 16        	sbc	$16                     ; 0x16 <__rc6>
    79c7: 85 12        	sta	$12                     ; 0x12 <__rc2>
    79c9: a9 00        	lda	#$0
    79cb: e5 17        	sbc	$17                     ; 0x17 <__rc7>
    79cd: 85 13        	sta	$13                     ; 0x13 <__rc3>
    79cf: a5 8b        	lda	$8b                     ; 0x8b <__zp_bss_size+0x36>
    79d1: 85 18        	sta	$18                     ; 0x18 <__rc8>
    79d3: a5 92        	lda	$92                     ; 0x92 <__zp_bss_size+0x3d>
    79d5: 85 19        	sta	$19                     ; 0x19 <__rc9>
    79d7: a5 94        	lda	$94                     ; 0x94 <__zp_bss_size+0x3f>
    79d9: 85 1a        	sta	$1a                     ; 0x1a <__rc10>
    79db: a5 95        	lda	$95                     ; 0x95 <__zp_bss_size+0x40>
    79dd: 85 1b        	sta	$1b                     ; 0x1b <__rc11>
    79df: 64 14        	stz	$14                     ; 0x14 <__rc4>
    79e1: 64 15        	stz	$15                     ; 0x15 <__rc5>
    79e3: 64 16        	stz	$16                     ; 0x16 <__rc6>
    79e5: 64 17        	stz	$17                     ; 0x17 <__rc7>
    79e7: 64 1c        	stz	$1c                     ; 0x1c <__rc12>
    79e9: 64 1d        	stz	$1d                     ; 0x1d <__rc13>
    79eb: 64 1e        	stz	$1e                     ; 0x1e <__rc14>
    79ed: 64 1f        	stz	$1f                     ; 0x1f <__rc15>
    79ef: 98           	tya
    79f0: 20 2b 83     	jsr	$832b <__muldi3>
    79f3: a6 14        	ldx	$14                     ; 0x14 <__rc4>
    79f5: 86 92        	stx	$92                     ; 0x92 <__zp_bss_size+0x3d>
    79f7: a6 15        	ldx	$15                     ; 0x15 <__rc5>
    79f9: 86 8b        	stx	$8b                     ; 0x8b <__zp_bss_size+0x36>
    79fb: a6 16        	ldx	$16                     ; 0x16 <__rc6>
    79fd: 86 94        	stx	$94                     ; 0x94 <__zp_bss_size+0x3f>
    79ff: a6 17        	ldx	$17                     ; 0x17 <__rc7>
    7a01: 86 95        	stx	$95                     ; 0x95 <__zp_bss_size+0x40>
    7a03: 06 13        	asl	$13                     ; 0x13 <__rc3>
    7a05: 26 92        	rol	$92                     ; 0x92 <__zp_bss_size+0x3d>
    7a07: 26 8b        	rol	$8b                     ; 0x8b <__zp_bss_size+0x36>
    7a09: 26 94        	rol	$94                     ; 0x94 <__zp_bss_size+0x3f>
    7a0b: 26 95        	rol	$95                     ; 0x95 <__zp_bss_size+0x40>
    7a0d: a6 94        	ldx	$94                     ; 0x94 <__zp_bss_size+0x3f>
    7a0f: 86 12        	stx	$12                     ; 0x12 <__rc2>
    7a11: a6 95        	ldx	$95                     ; 0x95 <__zp_bss_size+0x40>
    7a13: 86 13        	stx	$13                     ; 0x13 <__rc3>
    7a15: 64 14        	stz	$14                     ; 0x14 <__rc4>
    7a17: 64 15        	stz	$15                     ; 0x15 <__rc5>
    7a19: 64 16        	stz	$16                     ; 0x16 <__rc6>
    7a1b: 64 17        	stz	$17                     ; 0x17 <__rc7>
    7a1d: a6 91        	ldx	$91                     ; 0x91 <__zp_bss_size+0x3c>
    7a1f: 86 18        	stx	$18                     ; 0x18 <__rc8>
    7a21: a6 90        	ldx	$90                     ; 0x90 <__zp_bss_size+0x3b>
    7a23: 86 19        	stx	$19                     ; 0x19 <__rc9>
    7a25: a6 8d        	ldx	$8d                     ; 0x8d <__zp_bss_size+0x38>
    7a27: 86 1a        	stx	$1a                     ; 0x1a <__rc10>
    7a29: a6 8c        	ldx	$8c                     ; 0x8c <__zp_bss_size+0x37>
    7a2b: 86 1b        	stx	$1b                     ; 0x1b <__rc11>
    7a2d: 64 1c        	stz	$1c                     ; 0x1c <__rc12>
    7a2f: 64 1d        	stz	$1d                     ; 0x1d <__rc13>
    7a31: 64 1e        	stz	$1e                     ; 0x1e <__rc14>
    7a33: 64 1f        	stz	$1f                     ; 0x1f <__rc15>
    7a35: a6 8b        	ldx	$8b                     ; 0x8b <__zp_bss_size+0x36>
    7a37: a5 92        	lda	$92                     ; 0x92 <__zp_bss_size+0x3d>
    7a39: 20 2b 83     	jsr	$832b <__muldi3>
    7a3c: a9 00        	lda	#$0
    7a3e: 38           	sec
    7a3f: e5 14        	sbc	$14                     ; 0x14 <__rc4>
    7a41: 85 18        	sta	$18                     ; 0x18 <__rc8>
    7a43: a9 00        	lda	#$0
    7a45: e5 15        	sbc	$15                     ; 0x15 <__rc5>
    7a47: 85 19        	sta	$19                     ; 0x19 <__rc9>
    7a49: a9 00        	lda	#$0
    7a4b: e5 16        	sbc	$16                     ; 0x16 <__rc6>
    7a4d: 85 1a        	sta	$1a                     ; 0x1a <__rc10>
    7a4f: a9 00        	lda	#$0
    7a51: e5 17        	sbc	$17                     ; 0x17 <__rc7>
    7a53: a6 94        	ldx	$94                     ; 0x94 <__zp_bss_size+0x3f>
    7a55: 86 12        	stx	$12                     ; 0x12 <__rc2>
    7a57: a6 95        	ldx	$95                     ; 0x95 <__zp_bss_size+0x40>
    7a59: 86 13        	stx	$13                     ; 0x13 <__rc3>
    7a5b: 64 14        	stz	$14                     ; 0x14 <__rc4>
    7a5d: 64 15        	stz	$15                     ; 0x15 <__rc5>
    7a5f: 64 16        	stz	$16                     ; 0x16 <__rc6>
    7a61: 64 17        	stz	$17                     ; 0x17 <__rc7>
    7a63: 85 1b        	sta	$1b                     ; 0x1b <__rc11>
    7a65: 64 1c        	stz	$1c                     ; 0x1c <__rc12>
    7a67: 64 1d        	stz	$1d                     ; 0x1d <__rc13>
    7a69: 64 1e        	stz	$1e                     ; 0x1e <__rc14>
    7a6b: 64 1f        	stz	$1f                     ; 0x1f <__rc15>
    7a6d: a6 8b        	ldx	$8b                     ; 0x8b <__zp_bss_size+0x36>
    7a6f: a5 92        	lda	$92                     ; 0x92 <__zp_bss_size+0x3d>
    7a71: 20 2b 83     	jsr	$832b <__muldi3>
    7a74: a6 14        	ldx	$14                     ; 0x14 <__rc4>
    7a76: 86 92        	stx	$92                     ; 0x92 <__zp_bss_size+0x3d>
    7a78: a6 15        	ldx	$15                     ; 0x15 <__rc5>
    7a7a: 86 8b        	stx	$8b                     ; 0x8b <__zp_bss_size+0x36>
    7a7c: a6 16        	ldx	$16                     ; 0x16 <__rc6>
    7a7e: 86 94        	stx	$94                     ; 0x94 <__zp_bss_size+0x3f>
    7a80: a6 17        	ldx	$17                     ; 0x17 <__rc7>
    7a82: 86 95        	stx	$95                     ; 0x95 <__zp_bss_size+0x40>
    7a84: 06 13        	asl	$13                     ; 0x13 <__rc3>
    7a86: 26 92        	rol	$92                     ; 0x92 <__zp_bss_size+0x3d>
    7a88: 26 8b        	rol	$8b                     ; 0x8b <__zp_bss_size+0x36>
    7a8a: 26 94        	rol	$94                     ; 0x94 <__zp_bss_size+0x3f>
    7a8c: 26 95        	rol	$95                     ; 0x95 <__zp_bss_size+0x40>
    7a8e: a6 94        	ldx	$94                     ; 0x94 <__zp_bss_size+0x3f>
    7a90: 86 12        	stx	$12                     ; 0x12 <__rc2>
    7a92: a6 95        	ldx	$95                     ; 0x95 <__zp_bss_size+0x40>
    7a94: 86 13        	stx	$13                     ; 0x13 <__rc3>
    7a96: 64 14        	stz	$14                     ; 0x14 <__rc4>
    7a98: 64 15        	stz	$15                     ; 0x15 <__rc5>
    7a9a: 64 16        	stz	$16                     ; 0x16 <__rc6>
    7a9c: 64 17        	stz	$17                     ; 0x17 <__rc7>
    7a9e: a6 91        	ldx	$91                     ; 0x91 <__zp_bss_size+0x3c>
    7aa0: 86 18        	stx	$18                     ; 0x18 <__rc8>
    7aa2: a6 90        	ldx	$90                     ; 0x90 <__zp_bss_size+0x3b>
    7aa4: 86 19        	stx	$19                     ; 0x19 <__rc9>
    7aa6: a6 8d        	ldx	$8d                     ; 0x8d <__zp_bss_size+0x38>
    7aa8: 86 1a        	stx	$1a                     ; 0x1a <__rc10>
    7aaa: a6 8c        	ldx	$8c                     ; 0x8c <__zp_bss_size+0x37>
    7aac: 86 1b        	stx	$1b                     ; 0x1b <__rc11>
    7aae: 64 1c        	stz	$1c                     ; 0x1c <__rc12>
    7ab0: 64 1d        	stz	$1d                     ; 0x1d <__rc13>
    7ab2: 64 1e        	stz	$1e                     ; 0x1e <__rc14>
    7ab4: 64 1f        	stz	$1f                     ; 0x1f <__rc15>
    7ab6: a6 8b        	ldx	$8b                     ; 0x8b <__zp_bss_size+0x36>
    7ab8: a5 92        	lda	$92                     ; 0x92 <__zp_bss_size+0x3d>
    7aba: 20 2b 83     	jsr	$832b <__muldi3>
    7abd: a9 00        	lda	#$0
    7abf: 38           	sec
    7ac0: e5 14        	sbc	$14                     ; 0x14 <__rc4>
    7ac2: 85 18        	sta	$18                     ; 0x18 <__rc8>
    7ac4: a9 00        	lda	#$0
    7ac6: e5 15        	sbc	$15                     ; 0x15 <__rc5>
    7ac8: 85 19        	sta	$19                     ; 0x19 <__rc9>
    7aca: a9 00        	lda	#$0
    7acc: e5 16        	sbc	$16                     ; 0x16 <__rc6>
    7ace: 85 1a        	sta	$1a                     ; 0x1a <__rc10>
    7ad0: a9 00        	lda	#$0
    7ad2: e5 17        	sbc	$17                     ; 0x17 <__rc7>
    7ad4: a6 94        	ldx	$94                     ; 0x94 <__zp_bss_size+0x3f>
    7ad6: 86 12        	stx	$12                     ; 0x12 <__rc2>
    7ad8: a6 95        	ldx	$95                     ; 0x95 <__zp_bss_size+0x40>
    7ada: 86 13        	stx	$13                     ; 0x13 <__rc3>
    7adc: 64 14        	stz	$14                     ; 0x14 <__rc4>
    7ade: 64 15        	stz	$15                     ; 0x15 <__rc5>
    7ae0: 64 16        	stz	$16                     ; 0x16 <__rc6>
    7ae2: 64 17        	stz	$17                     ; 0x17 <__rc7>
    7ae4: 85 1b        	sta	$1b                     ; 0x1b <__rc11>
    7ae6: 64 1c        	stz	$1c                     ; 0x1c <__rc12>
    7ae8: 64 1d        	stz	$1d                     ; 0x1d <__rc13>
    7aea: 64 1e        	stz	$1e                     ; 0x1e <__rc14>
    7aec: 64 1f        	stz	$1f                     ; 0x1f <__rc15>
    7aee: a6 8b        	ldx	$8b                     ; 0x8b <__zp_bss_size+0x36>
    7af0: a5 92        	lda	$92                     ; 0x92 <__zp_bss_size+0x3d>
    7af2: 20 2b 83     	jsr	$832b <__muldi3>
    7af5: a5 14        	lda	$14                     ; 0x14 <__rc4>
    7af7: 06 13        	asl	$13                     ; 0x13 <__rc3>
    7af9: 2a           	rol
    7afa: 26 15        	rol	$15                     ; 0x15 <__rc5>
    7afc: 26 16        	rol	$16                     ; 0x16 <__rc6>
    7afe: a6 17        	ldx	$17                     ; 0x17 <__rc7>
    7b00: 86 12        	stx	$12                     ; 0x12 <__rc2>
    7b02: 26 12        	rol	$12                     ; 0x12 <__rc2>
    7b04: 18           	clc
    7b05: 69 f4        	adc	#$f4
    7b07: a8           	tay
    7b08: a5 15        	lda	$15                     ; 0x15 <__rc5>
    7b0a: 69 ff        	adc	#$ff
    7b0c: 85 22        	sta	$22                     ; 0x22 <__rc18>
    7b0e: a5 16        	lda	$16                     ; 0x16 <__rc6>
    7b10: 69 ff        	adc	#$ff
    7b12: 85 14        	sta	$14                     ; 0x14 <__rc4>
    7b14: a5 12        	lda	$12                     ; 0x12 <__rc2>
    7b16: 69 ff        	adc	#$ff
    7b18: a6 96        	ldx	$96                     ; 0x96 <__zp_bss_size+0x41>
    7b1a: 86 18        	stx	$18                     ; 0x18 <__rc8>
    7b1c: 06 18        	asl	$18                     ; 0x18 <__rc8>
    7b1e: a6 93        	ldx	$93                     ; 0x93 <__zp_bss_size+0x3e>
    7b20: 86 19        	stx	$19                     ; 0x19 <__rc9>
    7b22: 26 19        	rol	$19                     ; 0x19 <__rc9>
    7b24: a6 8f        	ldx	$8f                     ; 0x8f <__zp_bss_size+0x3a>
    7b26: 86 8d        	stx	$8d                     ; 0x8d <__zp_bss_size+0x38>
    7b28: a6 8f        	ldx	$8f                     ; 0x8f <__zp_bss_size+0x3a>
    7b2a: 86 1a        	stx	$1a                     ; 0x1a <__rc10>
    7b2c: 26 1a        	rol	$1a                     ; 0x1a <__rc10>
    7b2e: a6 9c        	ldx	$9c                     ; 0x9c <__zp_bss_size+0x47>
    7b30: 86 1b        	stx	$1b                     ; 0x1b <__rc11>
    7b32: 26 1b        	rol	$1b                     ; 0x1b <__rc11>
    7b34: a6 14        	ldx	$14                     ; 0x14 <__rc4>
    7b36: 86 12        	stx	$12                     ; 0x12 <__rc2>
    7b38: 85 13        	sta	$13                     ; 0x13 <__rc3>
    7b3a: 64 14        	stz	$14                     ; 0x14 <__rc4>
    7b3c: 64 15        	stz	$15                     ; 0x15 <__rc5>
    7b3e: 64 16        	stz	$16                     ; 0x16 <__rc6>
    7b40: 64 17        	stz	$17                     ; 0x17 <__rc7>
    7b42: a6 18        	ldx	$18                     ; 0x18 <__rc8>
    7b44: 86 99        	stx	$99                     ; 0x99 <__zp_bss_size+0x44>
    7b46: a6 19        	ldx	$19                     ; 0x19 <__rc9>
    7b48: 86 a1        	stx	$a1                     ; 0xa1 <__zp_bss_size+0x4c>
    7b4a: a6 1a        	ldx	$1a                     ; 0x1a <__rc10>
    7b4c: 86 a2        	stx	$a2                     ; 0xa2 <__zp_bss_size+0x4d>
    7b4e: a6 1b        	ldx	$1b                     ; 0x1b <__rc11>
    7b50: 86 a3        	stx	$a3                     ; 0xa3 <__zp_bss_size+0x4e>
    7b52: 64 1c        	stz	$1c                     ; 0x1c <__rc12>
    7b54: 64 1d        	stz	$1d                     ; 0x1d <__rc13>
    7b56: 64 1e        	stz	$1e                     ; 0x1e <__rc14>
    7b58: 64 1f        	stz	$1f                     ; 0x1f <__rc15>
    7b5a: a6 22        	ldx	$22                     ; 0x22 <__rc18>
    7b5c: 98           	tya
    7b5d: 20 2b 83     	jsr	$832b <__muldi3>
    7b60: a6 14        	ldx	$14                     ; 0x14 <__rc4>
    7b62: 86 92        	stx	$92                     ; 0x92 <__zp_bss_size+0x3d>
    7b64: a6 15        	ldx	$15                     ; 0x15 <__rc5>
    7b66: 86 18        	stx	$18                     ; 0x18 <__rc8>
    7b68: a6 16        	ldx	$16                     ; 0x16 <__rc6>
    7b6a: a4 17        	ldy	$17                     ; 0x17 <__rc7>
    7b6c: a5 93        	lda	$93                     ; 0x93 <__zp_bss_size+0x3e>
    7b6e: 4a           	lsr
    7b6f: a5 96        	lda	$96                     ; 0x96 <__zp_bss_size+0x41>
    7b71: 6a           	ror
    7b72: 64 90        	stz	$90                     ; 0x90 <__zp_bss_size+0x3b>
    7b74: 66 90        	ror	$90                     ; 0x90 <__zp_bss_size+0x3b>
    7b76: 64 91        	stz	$91                     ; 0x91 <__zp_bss_size+0x3c>
    7b78: 66 91        	ror	$91                     ; 0x91 <__zp_bss_size+0x3c>
    7b7a: 66 8e        	ror	$8e                     ; 0x8e <__zp_bss_size+0x39>
    7b7c: 86 12        	stx	$12                     ; 0x12 <__rc2>
    7b7e: 84 13        	sty	$13                     ; 0x13 <__rc3>
    7b80: c0 01        	cpy	#$1
    7b82: d0 18        	bne	$7b9c <__divsf3+0x896>
    7b84: e0 00        	cpx	#$0
    7b86: d0 18        	bne	$7ba0 <__divsf3+0x89a>
    7b88: a6 9b        	ldx	$9b                     ; 0x9b <__zp_bss_size+0x46>
    7b8a: 86 14        	stx	$14                     ; 0x14 <__rc4>
    7b8c: a6 9e        	ldx	$9e                     ; 0x9e <__zp_bss_size+0x49>
    7b8e: 86 16        	stx	$16                     ; 0x16 <__rc6>
    7b90: a6 18        	ldx	$18                     ; 0x18 <__rc8>
    7b92: f0 03        	beq	$7b97 <__divsf3+0x891>
    7b94: 4c 0a 7c     	jmp	$7c0a <__divsf3+0x904>
    7b97: a6 92        	ldx	$92                     ; 0x92 <__zp_bss_size+0x3d>
    7b99: 4c 0c 7c     	jmp	$7c0c <__divsf3+0x906>
    7b9c: c0 01        	cpy	#$1
    7b9e: 80 02        	bra	$7ba2 <__divsf3+0x89c>
    7ba0: e0 00        	cpx	#$0
    7ba2: a6 9b        	ldx	$9b                     ; 0x9b <__zp_bss_size+0x46>
    7ba4: 86 14        	stx	$14                     ; 0x14 <__rc4>
    7ba6: a6 9a        	ldx	$9a                     ; 0x9a <__zp_bss_size+0x45>
    7ba8: 86 15        	stx	$15                     ; 0x15 <__rc5>
    7baa: a6 9e        	ldx	$9e                     ; 0x9e <__zp_bss_size+0x49>
    7bac: 86 16        	stx	$16                     ; 0x16 <__rc6>
    7bae: b0 03        	bcs	$7bb3 <__divsf3+0x8ad>
    7bb0: 4c 17 7c     	jmp	$7c17 <__divsf3+0x911>
    7bb3: 46 13        	lsr	$13                     ; 0x13 <__rc3>
    7bb5: 66 12        	ror	$12                     ; 0x12 <__rc2>
    7bb7: a6 18        	ldx	$18                     ; 0x18 <__rc8>
    7bb9: 86 8c        	stx	$8c                     ; 0x8c <__zp_bss_size+0x37>
    7bbb: 66 8c        	ror	$8c                     ; 0x8c <__zp_bss_size+0x37>
    7bbd: 66 92        	ror	$92                     ; 0x92 <__zp_bss_size+0x3d>
    7bbf: a6 12        	ldx	$12                     ; 0x12 <__rc2>
    7bc1: 86 8f        	stx	$8f                     ; 0x8f <__zp_bss_size+0x3a>
    7bc3: a6 13        	ldx	$13                     ; 0x13 <__rc3>
    7bc5: 86 97        	stx	$97                     ; 0x97 <__zp_bss_size+0x42>
    7bc7: a6 9d        	ldx	$9d                     ; 0x9d <__zp_bss_size+0x48>
    7bc9: 86 17        	stx	$17                     ; 0x17 <__rc7>
    7bcb: a6 8c        	ldx	$8c                     ; 0x8c <__zp_bss_size+0x37>
    7bcd: 85 94        	sta	$94                     ; 0x94 <__zp_bss_size+0x3f>
    7bcf: a5 92        	lda	$92                     ; 0x92 <__zp_bss_size+0x3d>
    7bd1: 20 bb 82     	jsr	$82bb <__mulsi3>
    7bd4: 85 14        	sta	$14                     ; 0x14 <__rc4>
    7bd6: 86 15        	stx	$15                     ; 0x15 <__rc5>
    7bd8: 38           	sec
    7bd9: a5 8e        	lda	$8e                     ; 0x8e <__zp_bss_size+0x39>
    7bdb: e5 14        	sbc	$14                     ; 0x14 <__rc4>
    7bdd: 85 14        	sta	$14                     ; 0x14 <__rc4>
    7bdf: a5 91        	lda	$91                     ; 0x91 <__zp_bss_size+0x3c>
    7be1: e5 15        	sbc	$15                     ; 0x15 <__rc5>
    7be3: 85 1d        	sta	$1d                     ; 0x1d <__rc13>
    7be5: a5 90        	lda	$90                     ; 0x90 <__zp_bss_size+0x3b>
    7be7: e5 12        	sbc	$12                     ; 0x12 <__rc2>
    7be9: 85 1c        	sta	$1c                     ; 0x1c <__rc12>
    7beb: a5 94        	lda	$94                     ; 0x94 <__zp_bss_size+0x3f>
    7bed: e5 13        	sbc	$13                     ; 0x13 <__rc3>
    7bef: 85 1b        	sta	$1b                     ; 0x1b <__rc11>
    7bf1: a6 92        	ldx	$92                     ; 0x92 <__zp_bss_size+0x3d>
    7bf3: 86 15        	stx	$15                     ; 0x15 <__rc5>
    7bf5: a6 8c        	ldx	$8c                     ; 0x8c <__zp_bss_size+0x37>
    7bf7: 86 16        	stx	$16                     ; 0x16 <__rc6>
    7bf9: a6 93        	ldx	$93                     ; 0x93 <__zp_bss_size+0x3e>
    7bfb: 86 18        	stx	$18                     ; 0x18 <__rc8>
    7bfd: a6 a0        	ldx	$a0                     ; 0xa0 <__zp_bss_size+0x4b>
    7bff: 86 12        	stx	$12                     ; 0x12 <__rc2>
    7c01: a6 9c        	ldx	$9c                     ; 0x9c <__zp_bss_size+0x47>
    7c03: 86 1a        	stx	$1a                     ; 0x1a <__rc10>
    7c05: a5 9f        	lda	$9f                     ; 0x9f <__zp_bss_size+0x4a>
    7c07: 4c c0 7c     	jmp	$7cc0 <__divsf3+0x9ba>
    7c0a: a6 15        	ldx	$15                     ; 0x15 <__rc5>
    7c0c: e0 00        	cpx	#$0
    7c0e: a6 9a        	ldx	$9a                     ; 0x9a <__zp_bss_size+0x45>
    7c10: 86 15        	stx	$15                     ; 0x15 <__rc5>
    7c12: 90 03        	bcc	$7c17 <__divsf3+0x911>
    7c14: 4c b3 7b     	jmp	$7bb3 <__divsf3+0x8ad>
    7c17: a6 9d        	ldx	$9d                     ; 0x9d <__zp_bss_size+0x48>
    7c19: 86 17        	stx	$17                     ; 0x17 <__rc7>
    7c1b: a6 13        	ldx	$13                     ; 0x13 <__rc3>
    7c1d: d0 11        	bne	$7c30 <__divsf3+0x92a>
    7c1f: a6 12        	ldx	$12                     ; 0x12 <__rc2>
    7c21: e0 80        	cpx	#$80
    7c23: d0 1f        	bne	$7c44 <__divsf3+0x93e>
    7c25: a6 18        	ldx	$18                     ; 0x18 <__rc8>
    7c27: f0 03        	beq	$7c2c <__divsf3+0x926>
    7c29: 4c 2d 7e     	jmp	$7e2d <__divsf3+0xb27>
    7c2c: a6 92        	ldx	$92                     ; 0x92 <__zp_bss_size+0x3d>
    7c2e: 80 02        	bra	$7c32 <__divsf3+0x92c>
    7c30: a6 13        	ldx	$13                     ; 0x13 <__rc3>
    7c32: e0 00        	cpx	#$0
    7c34: 90 12        	bcc	$7c48 <__divsf3+0x942>
    7c36: a6 9f        	ldx	$9f                     ; 0x9f <__zp_bss_size+0x4a>
    7c38: 86 8b        	stx	$8b                     ; 0x8b <__zp_bss_size+0x36>
    7c3a: a6 a0        	ldx	$a0                     ; 0xa0 <__zp_bss_size+0x4b>
    7c3c: 86 8c        	stx	$8c                     ; 0x8c <__zp_bss_size+0x37>
    7c3e: a6 18        	ldx	$18                     ; 0x18 <__rc8>
    7c40: 86 8d        	stx	$8d                     ; 0x8d <__zp_bss_size+0x38>
    7c42: 80 1f        	bra	$7c63 <__divsf3+0x95d>
    7c44: e0 80        	cpx	#$80
    7c46: b0 ee        	bcs	$7c36 <__divsf3+0x930>
    7c48: aa           	tax
    7c49: 06 92        	asl	$92                     ; 0x92 <__zp_bss_size+0x3d>
    7c4b: a4 18        	ldy	$18                     ; 0x18 <__rc8>
    7c4d: 84 8d        	sty	$8d                     ; 0x8d <__zp_bss_size+0x38>
    7c4f: 26 8d        	rol	$8d                     ; 0x8d <__zp_bss_size+0x38>
    7c51: 26 12        	rol	$12                     ; 0x12 <__rc2>
    7c53: 26 13        	rol	$13                     ; 0x13 <__rc3>
    7c55: a5 97        	lda	$97                     ; 0x97 <__zp_bss_size+0x42>
    7c57: 18           	clc
    7c58: 69 7e        	adc	#$7e
    7c5a: 85 8c        	sta	$8c                     ; 0x8c <__zp_bss_size+0x37>
    7c5c: a5 a4        	lda	$a4                     ; 0xa4 <__zp_bss_size+0x4f>
    7c5e: 69 00        	adc	#$0
    7c60: 85 8b        	sta	$8b                     ; 0x8b <__zp_bss_size+0x36>
    7c62: 8a           	txa
    7c63: 06 8e        	asl	$8e                     ; 0x8e <__zp_bss_size+0x39>
    7c65: 26 91        	rol	$91                     ; 0x91 <__zp_bss_size+0x3c>
    7c67: 26 90        	rol	$90                     ; 0x90 <__zp_bss_size+0x3b>
    7c69: 2a           	rol
    7c6a: a6 12        	ldx	$12                     ; 0x12 <__rc2>
    7c6c: 86 8f        	stx	$8f                     ; 0x8f <__zp_bss_size+0x3a>
    7c6e: a6 13        	ldx	$13                     ; 0x13 <__rc3>
    7c70: 86 97        	stx	$97                     ; 0x97 <__zp_bss_size+0x42>
    7c72: a6 8d        	ldx	$8d                     ; 0x8d <__zp_bss_size+0x38>
    7c74: 85 93        	sta	$93                     ; 0x93 <__zp_bss_size+0x3e>
    7c76: a5 92        	lda	$92                     ; 0x92 <__zp_bss_size+0x3d>
    7c78: 20 bb 82     	jsr	$82bb <__mulsi3>
    7c7b: 85 14        	sta	$14                     ; 0x14 <__rc4>
    7c7d: 86 15        	stx	$15                     ; 0x15 <__rc5>
    7c7f: 38           	sec
    7c80: a5 8e        	lda	$8e                     ; 0x8e <__zp_bss_size+0x39>
    7c82: e5 14        	sbc	$14                     ; 0x14 <__rc4>
    7c84: 85 14        	sta	$14                     ; 0x14 <__rc4>
    7c86: a5 91        	lda	$91                     ; 0x91 <__zp_bss_size+0x3c>
    7c88: e5 15        	sbc	$15                     ; 0x15 <__rc5>
    7c8a: 85 1d        	sta	$1d                     ; 0x1d <__rc13>
    7c8c: a5 90        	lda	$90                     ; 0x90 <__zp_bss_size+0x3b>
    7c8e: e5 12        	sbc	$12                     ; 0x12 <__rc2>
    7c90: 85 1c        	sta	$1c                     ; 0x1c <__rc12>
    7c92: a5 93        	lda	$93                     ; 0x93 <__zp_bss_size+0x3e>
    7c94: e5 13        	sbc	$13                     ; 0x13 <__rc3>
    7c96: 85 1b        	sta	$1b                     ; 0x1b <__rc11>
    7c98: a6 92        	ldx	$92                     ; 0x92 <__zp_bss_size+0x3d>
    7c9a: 86 15        	stx	$15                     ; 0x15 <__rc5>
    7c9c: a6 8d        	ldx	$8d                     ; 0x8d <__zp_bss_size+0x38>
    7c9e: 86 16        	stx	$16                     ; 0x16 <__rc6>
    7ca0: a2 ff        	ldx	#$ff
    7ca2: c6 8c        	dec	$8c                     ; 0x8c <__zp_bss_size+0x37>
    7ca4: e4 8c        	cpx	$8c                     ; 0x8c <__zp_bss_size+0x37>
    7ca6: d0 02        	bne	$7caa <__divsf3+0x9a4>
    7ca8: c6 8b        	dec	$8b                     ; 0x8b <__zp_bss_size+0x36>
    7caa: a6 8c        	ldx	$8c                     ; 0x8c <__zp_bss_size+0x37>
    7cac: 86 12        	stx	$12                     ; 0x12 <__rc2>
    7cae: a6 99        	ldx	$99                     ; 0x99 <__zp_bss_size+0x44>
    7cb0: 86 96        	stx	$96                     ; 0x96 <__zp_bss_size+0x41>
    7cb2: a6 a1        	ldx	$a1                     ; 0xa1 <__zp_bss_size+0x4c>
    7cb4: 86 18        	stx	$18                     ; 0x18 <__rc8>
    7cb6: a6 a2        	ldx	$a2                     ; 0xa2 <__zp_bss_size+0x4d>
    7cb8: 86 8d        	stx	$8d                     ; 0x8d <__zp_bss_size+0x38>
    7cba: a6 a3        	ldx	$a3                     ; 0xa3 <__zp_bss_size+0x4e>
    7cbc: 86 1a        	stx	$1a                     ; 0x1a <__rc10>
    7cbe: a5 8b        	lda	$8b                     ; 0x8b <__zp_bss_size+0x36>
    7cc0: a6 12        	ldx	$12                     ; 0x12 <__rc2>
    7cc2: e0 ff        	cpx	#$ff
    7cc4: 85 13        	sta	$13                     ; 0x13 <__rc3>
    7cc6: e9 00        	sbc	#$0
    7cc8: 50 02        	bvc	$7ccc <__divsf3+0x9c6>
    7cca: 49 80        	eor	#$80
    7ccc: a4 9b        	ldy	$9b                     ; 0x9b <__zp_bss_size+0x46>
    7cce: aa           	tax
    7ccf: 30 0e        	bmi	$7cdf <__divsf3+0x9d9>
    7cd1: a5 98        	lda	$98                     ; 0x98 <__zp_bss_size+0x43>
    7cd3: 09 7f        	ora	#$7f
    7cd5: 64 96        	stz	$96                     ; 0x96 <__zp_bss_size+0x41>
    7cd7: 64 93        	stz	$93                     ; 0x93 <__zp_bss_size+0x3e>
    7cd9: aa           	tax
    7cda: a9 80        	lda	#$80
    7cdc: 4c 64 7e     	jmp	$7e64 <__divsf3+0xb5e>
    7cdf: a6 12        	ldx	$12                     ; 0x12 <__rc2>
    7ce1: e0 01        	cpx	#$1
    7ce3: a5 13        	lda	$13                     ; 0x13 <__rc3>
    7ce5: e9 00        	sbc	#$0
    7ce7: 50 02        	bvc	$7ceb <__divsf3+0x9e5>
    7ce9: 49 80        	eor	#$80
    7ceb: a6 9a        	ldx	$9a                     ; 0x9a <__zp_bss_size+0x45>
    7ced: c9 00        	cmp	#$0
    7cef: 30 3e        	bmi	$7d2f <__divsf3+0xa29>
    7cf1: 86 18        	stx	$18                     ; 0x18 <__rc8>
    7cf3: a5 8f        	lda	$8f                     ; 0x8f <__zp_bss_size+0x3a>
    7cf5: 29 7f        	and	#$7f
    7cf7: 85 17        	sta	$17                     ; 0x17 <__rc7>
    7cf9: 46 13        	lsr	$13                     ; 0x13 <__rc3>
    7cfb: 66 12        	ror	$12                     ; 0x12 <__rc2>
    7cfd: a6 12        	ldx	$12                     ; 0x12 <__rc2>
    7cff: 86 8b        	stx	$8b                     ; 0x8b <__zp_bss_size+0x36>
    7d01: 64 19        	stz	$19                     ; 0x19 <__rc9>
    7d03: 66 19        	ror	$19                     ; 0x19 <__rc9>
    7d05: 64 1a        	stz	$1a                     ; 0x1a <__rc10>
    7d07: 66 1a        	ror	$1a                     ; 0x1a <__rc10>
    7d09: a9 00        	lda	#$0
    7d0b: 6a           	ror
    7d0c: 06 14        	asl	$14                     ; 0x14 <__rc4>
    7d0e: a6 1d        	ldx	$1d                     ; 0x1d <__rc13>
    7d10: 86 12        	stx	$12                     ; 0x12 <__rc2>
    7d12: 26 12        	rol	$12                     ; 0x12 <__rc2>
    7d14: a6 1c        	ldx	$1c                     ; 0x1c <__rc12>
    7d16: 86 13        	stx	$13                     ; 0x13 <__rc3>
    7d18: 26 13        	rol	$13                     ; 0x13 <__rc3>
    7d1a: 26 1b        	rol	$1b                     ; 0x1b <__rc11>
    7d1c: 05 15        	ora	$15                     ; 0x15 <__rc5>
    7d1e: 85 8e        	sta	$8e                     ; 0x8e <__zp_bss_size+0x39>
    7d20: a5 1a        	lda	$1a                     ; 0x1a <__rc10>
    7d22: 05 16        	ora	$16                     ; 0x16 <__rc6>
    7d24: 85 8c        	sta	$8c                     ; 0x8c <__zp_bss_size+0x37>
    7d26: a5 19        	lda	$19                     ; 0x19 <__rc9>
    7d28: 05 17        	ora	$17                     ; 0x17 <__rc7>
    7d2a: 85 97        	sta	$97                     ; 0x97 <__zp_bss_size+0x42>
    7d2c: 4c f4 7d     	jmp	$7df4 <__divsf3+0xaee>
    7d2f: a6 12        	ldx	$12                     ; 0x12 <__rc2>
    7d31: e0 e9        	cpx	#$e9
    7d33: a5 13        	lda	$13                     ; 0x13 <__rc3>
    7d35: e9 ff        	sbc	#$ff
    7d37: 50 02        	bvc	$7d3b <__divsf3+0xa35>
    7d39: 49 80        	eor	#$80
    7d3b: aa           	tax
    7d3c: 10 0b        	bpl	$7d49 <__divsf3+0xa43>
    7d3e: 64 96        	stz	$96                     ; 0x96 <__zp_bss_size+0x41>
    7d40: 64 93        	stz	$93                     ; 0x93 <__zp_bss_size+0x3e>
    7d42: a9 00        	lda	#$0
    7d44: a6 98        	ldx	$98                     ; 0x98 <__zp_bss_size+0x43>
    7d46: 4c 64 7e     	jmp	$7e64 <__divsf3+0xb5e>
    7d49: 18           	clc
    7d4a: a5 12        	lda	$12                     ; 0x12 <__rc2>
    7d4c: 69 17        	adc	#$17
    7d4e: 85 8e        	sta	$8e                     ; 0x8e <__zp_bss_size+0x39>
    7d50: a9 01        	lda	#$1
    7d52: 38           	sec
    7d53: e5 12        	sbc	$12                     ; 0x12 <__rc2>
    7d55: a6 8f        	ldx	$8f                     ; 0x8f <__zp_bss_size+0x3a>
    7d57: 86 12        	stx	$12                     ; 0x12 <__rc2>
    7d59: a6 97        	ldx	$97                     ; 0x97 <__zp_bss_size+0x42>
    7d5b: 86 13        	stx	$13                     ; 0x13 <__rc3>
    7d5d: 85 14        	sta	$14                     ; 0x14 <__rc4>
    7d5f: a6 16        	ldx	$16                     ; 0x16 <__rc6>
    7d61: a4 18        	ldy	$18                     ; 0x18 <__rc8>
    7d63: 84 90        	sty	$90                     ; 0x90 <__zp_bss_size+0x3b>
    7d65: a4 8d        	ldy	$8d                     ; 0x8d <__zp_bss_size+0x38>
    7d67: 84 92        	sty	$92                     ; 0x92 <__zp_bss_size+0x3d>
    7d69: a4 1a        	ldy	$1a                     ; 0x1a <__rc10>
    7d6b: 84 91        	sty	$91                     ; 0x91 <__zp_bss_size+0x3c>
    7d6d: a5 15        	lda	$15                     ; 0x15 <__rc5>
    7d6f: 20 4e 6f     	jsr	$6f4e <__lshrsi3>
    7d72: 85 8c        	sta	$8c                     ; 0x8c <__zp_bss_size+0x37>
    7d74: 86 8b        	stx	$8b                     ; 0x8b <__zp_bss_size+0x36>
    7d76: a6 12        	ldx	$12                     ; 0x12 <__rc2>
    7d78: 86 93        	stx	$93                     ; 0x93 <__zp_bss_size+0x3e>
    7d7a: a6 13        	ldx	$13                     ; 0x13 <__rc3>
    7d7c: 86 8d        	stx	$8d                     ; 0x8d <__zp_bss_size+0x38>
    7d7e: a6 92        	ldx	$92                     ; 0x92 <__zp_bss_size+0x3d>
    7d80: 86 12        	stx	$12                     ; 0x12 <__rc2>
    7d82: a6 91        	ldx	$91                     ; 0x91 <__zp_bss_size+0x3c>
    7d84: 86 13        	stx	$13                     ; 0x13 <__rc3>
    7d86: a6 8e        	ldx	$8e                     ; 0x8e <__zp_bss_size+0x39>
    7d88: 86 14        	stx	$14                     ; 0x14 <__rc4>
    7d8a: a6 90        	ldx	$90                     ; 0x90 <__zp_bss_size+0x3b>
    7d8c: a5 96        	lda	$96                     ; 0x96 <__zp_bss_size+0x41>
    7d8e: 20 37 6f     	jsr	$6f37 <__ashlsi3>
    7d91: 85 91        	sta	$91                     ; 0x91 <__zp_bss_size+0x3c>
    7d93: 86 90        	stx	$90                     ; 0x90 <__zp_bss_size+0x3b>
    7d95: a6 12        	ldx	$12                     ; 0x12 <__rc2>
    7d97: 86 8f        	stx	$8f                     ; 0x8f <__zp_bss_size+0x3a>
    7d99: a6 13        	ldx	$13                     ; 0x13 <__rc3>
    7d9b: 86 92        	stx	$92                     ; 0x92 <__zp_bss_size+0x3d>
    7d9d: a6 a7        	ldx	$a7                     ; 0xa7 <__zp_bss_size+0x52>
    7d9f: 86 12        	stx	$12                     ; 0x12 <__rc2>
    7da1: a6 a8        	ldx	$a8                     ; 0xa8 <__zp_bss_size+0x53>
    7da3: 86 13        	stx	$13                     ; 0x13 <__rc3>
    7da5: a6 8c        	ldx	$8c                     ; 0x8c <__zp_bss_size+0x37>
    7da7: 86 8e        	stx	$8e                     ; 0x8e <__zp_bss_size+0x39>
    7da9: a6 8c        	ldx	$8c                     ; 0x8c <__zp_bss_size+0x37>
    7dab: 86 14        	stx	$14                     ; 0x14 <__rc4>
    7dad: a6 8b        	ldx	$8b                     ; 0x8b <__zp_bss_size+0x36>
    7daf: 86 8c        	stx	$8c                     ; 0x8c <__zp_bss_size+0x37>
    7db1: a6 8b        	ldx	$8b                     ; 0x8b <__zp_bss_size+0x36>
    7db3: 86 15        	stx	$15                     ; 0x15 <__rc5>
    7db5: a6 93        	ldx	$93                     ; 0x93 <__zp_bss_size+0x3e>
    7db7: 86 97        	stx	$97                     ; 0x97 <__zp_bss_size+0x42>
    7db9: a6 93        	ldx	$93                     ; 0x93 <__zp_bss_size+0x3e>
    7dbb: 86 16        	stx	$16                     ; 0x16 <__rc6>
    7dbd: a6 8d        	ldx	$8d                     ; 0x8d <__zp_bss_size+0x38>
    7dbf: 86 8b        	stx	$8b                     ; 0x8b <__zp_bss_size+0x36>
    7dc1: a6 8d        	ldx	$8d                     ; 0x8d <__zp_bss_size+0x38>
    7dc3: 86 17        	stx	$17                     ; 0x17 <__rc7>
    7dc5: a6 a6        	ldx	$a6                     ; 0xa6 <__zp_bss_size+0x51>
    7dc7: a5 a5        	lda	$a5                     ; 0xa5 <__zp_bss_size+0x50>
    7dc9: 20 bb 82     	jsr	$82bb <__mulsi3>
    7dcc: a4 9b        	ldy	$9b                     ; 0x9b <__zp_bss_size+0x46>
    7dce: 85 14        	sta	$14                     ; 0x14 <__rc4>
    7dd0: 86 15        	stx	$15                     ; 0x15 <__rc5>
    7dd2: 38           	sec
    7dd3: a5 91        	lda	$91                     ; 0x91 <__zp_bss_size+0x3c>
    7dd5: e5 14        	sbc	$14                     ; 0x14 <__rc4>
    7dd7: 85 14        	sta	$14                     ; 0x14 <__rc4>
    7dd9: a5 90        	lda	$90                     ; 0x90 <__zp_bss_size+0x3b>
    7ddb: e5 15        	sbc	$15                     ; 0x15 <__rc5>
    7ddd: aa           	tax
    7dde: a5 8f        	lda	$8f                     ; 0x8f <__zp_bss_size+0x3a>
    7de0: e5 12        	sbc	$12                     ; 0x12 <__rc2>
    7de2: 85 15        	sta	$15                     ; 0x15 <__rc5>
    7de4: a5 92        	lda	$92                     ; 0x92 <__zp_bss_size+0x3d>
    7de6: e5 13        	sbc	$13                     ; 0x13 <__rc3>
    7de8: 85 1b        	sta	$1b                     ; 0x1b <__rc11>
    7dea: 86 12        	stx	$12                     ; 0x12 <__rc2>
    7dec: a6 15        	ldx	$15                     ; 0x15 <__rc5>
    7dee: 86 13        	stx	$13                     ; 0x13 <__rc3>
    7df0: a6 9a        	ldx	$9a                     ; 0x9a <__zp_bss_size+0x45>
    7df2: 86 18        	stx	$18                     ; 0x18 <__rc8>
    7df4: a5 8e        	lda	$8e                     ; 0x8e <__zp_bss_size+0x39>
    7df6: 85 15        	sta	$15                     ; 0x15 <__rc5>
    7df8: 29 01        	and	#$1
    7dfa: 18           	clc
    7dfb: 65 14        	adc	$14                     ; 0x14 <__rc4>
    7dfd: 85 16        	sta	$16                     ; 0x16 <__rc6>
    7dff: 64 14        	stz	$14                     ; 0x14 <__rc4>
    7e01: a9 00        	lda	#$0
    7e03: 65 12        	adc	$12                     ; 0x12 <__rc2>
    7e05: 85 17        	sta	$17                     ; 0x17 <__rc7>
    7e07: a9 00        	lda	#$0
    7e09: 65 13        	adc	$13                     ; 0x13 <__rc3>
    7e0b: 85 13        	sta	$13                     ; 0x13 <__rc3>
    7e0d: a5 1b        	lda	$1b                     ; 0x1b <__rc11>
    7e0f: 65 14        	adc	$14                     ; 0x14 <__rc4>
    7e11: 85 12        	sta	$12                     ; 0x12 <__rc2>
    7e13: a6 9d        	ldx	$9d                     ; 0x9d <__zp_bss_size+0x48>
    7e15: e4 12        	cpx	$12                     ; 0x12 <__rc2>
    7e17: d0 1d        	bne	$7e36 <__divsf3+0xb30>
    7e19: a6 9e        	ldx	$9e                     ; 0x9e <__zp_bss_size+0x49>
    7e1b: e4 13        	cpx	$13                     ; 0x13 <__rc3>
    7e1d: d0 0a        	bne	$7e29 <__divsf3+0xb23>
    7e1f: a6 18        	ldx	$18                     ; 0x18 <__rc8>
    7e21: e4 17        	cpx	$17                     ; 0x17 <__rc7>
    7e23: d0 0d        	bne	$7e32 <__divsf3+0xb2c>
    7e25: c4 16        	cpy	$16                     ; 0x16 <__rc6>
    7e27: 80 0f        	bra	$7e38 <__divsf3+0xb32>
    7e29: a4 13        	ldy	$13                     ; 0x13 <__rc3>
    7e2b: 80 07        	bra	$7e34 <__divsf3+0xb2e>
    7e2d: a6 18        	ldx	$18                     ; 0x18 <__rc8>
    7e2f: 4c 32 7c     	jmp	$7c32 <__divsf3+0x92c>
    7e32: a4 17        	ldy	$17                     ; 0x17 <__rc7>
    7e34: 84 12        	sty	$12                     ; 0x12 <__rc2>
    7e36: e4 12        	cpx	$12                     ; 0x12 <__rc2>
    7e38: 64 12        	stz	$12                     ; 0x12 <__rc2>
    7e3a: a5 97        	lda	$97                     ; 0x97 <__zp_bss_size+0x42>
    7e3c: 85 13        	sta	$13                     ; 0x13 <__rc3>
    7e3e: b0 04        	bcs	$7e44 <__divsf3+0xb3e>
    7e40: a2 01        	ldx	#$1
    7e42: 86 12        	stx	$12                     ; 0x12 <__rc2>
    7e44: a5 15        	lda	$15                     ; 0x15 <__rc5>
    7e46: 18           	clc
    7e47: 65 12        	adc	$12                     ; 0x12 <__rc2>
    7e49: 85 96        	sta	$96                     ; 0x96 <__zp_bss_size+0x41>
    7e4b: a5 8c        	lda	$8c                     ; 0x8c <__zp_bss_size+0x37>
    7e4d: 69 00        	adc	#$0
    7e4f: 85 93        	sta	$93                     ; 0x93 <__zp_bss_size+0x3e>
    7e51: a5 13        	lda	$13                     ; 0x13 <__rc3>
    7e53: 69 00        	adc	#$0
    7e55: 85 14        	sta	$14                     ; 0x14 <__rc4>
    7e57: a5 8b        	lda	$8b                     ; 0x8b <__zp_bss_size+0x36>
    7e59: 69 00        	adc	#$0
    7e5b: a6 98        	ldx	$98                     ; 0x98 <__zp_bss_size+0x43>
    7e5d: 86 12        	stx	$12                     ; 0x12 <__rc2>
    7e5f: 05 12        	ora	$12                     ; 0x12 <__rc2>
    7e61: aa           	tax
    7e62: a5 14        	lda	$14                     ; 0x14 <__rc4>
    7e64: 85 12        	sta	$12                     ; 0x12 <__rc2>
    7e66: 86 13        	stx	$13                     ; 0x13 <__rc3>
    7e68: a6 93        	ldx	$93                     ; 0x93 <__zp_bss_size+0x3e>
    7e6a: a5 96        	lda	$96                     ; 0x96 <__zp_bss_size+0x41>
    7e6c: 60           	rts
    7e6d: 86 9a        	stx	$9a                     ; 0x9a <__zp_bss_size+0x45>
    7e6f: a4 8b        	ldy	$8b                     ; 0x8b <__zp_bss_size+0x36>
    7e71: 84 16        	sty	$16                     ; 0x16 <__rc6>
    7e73: e0 00        	cpx	#$0
    7e75: 90 03        	bcc	$7e7a <__divsf3+0xb74>
    7e77: 4c f4 76     	jmp	$76f4 <__divsf3+0x3ee>
    7e7a: 4c 03 77     	jmp	$7703 <__divsf3+0x3fd>
    7e7d: a5 8e        	lda	$8e                     ; 0x8e <__zp_bss_size+0x39>
    7e7f: f0 03        	beq	$7e84 <__divsf3+0xb7e>
    7e81: 4c 3e 7d     	jmp	$7d3e <__divsf3+0xa38>
    7e84: a5 8d        	lda	$8d                     ; 0x8d <__zp_bss_size+0x38>
    7e86: f0 03        	beq	$7e8b <__divsf3+0xb85>
    7e88: 4c 3e 7d     	jmp	$7d3e <__divsf3+0xa38>
    7e8b: 8a           	txa
    7e8c: f0 03        	beq	$7e91 <__divsf3+0xb8b>
    7e8e: 4c 3e 7d     	jmp	$7d3e <__divsf3+0xa38>
    7e91: a5 90        	lda	$90                     ; 0x90 <__zp_bss_size+0x3b>
    7e93: d0 03        	bne	$7e98 <__divsf3+0xb92>
    7e95: 4c 34 74     	jmp	$7434 <__divsf3+0x12e>
    7e98: 4c 3e 7d     	jmp	$7d3e <__divsf3+0xa38>

00007e9b <__fixunssfsi>:
    7e9b: 64 17        	stz	$17                     ; 0x17 <__rc7>
    7e9d: a4 13        	ldy	$13                     ; 0x13 <__rc3>
    7e9f: 30 2b        	bmi	$7ecc <__fixunssfsi+0x31>
    7ea1: 85 16        	sta	$16                     ; 0x16 <__rc6>
    7ea3: 86 15        	stx	$15                     ; 0x15 <__rc5>
    7ea5: a6 12        	ldx	$12                     ; 0x12 <__rc2>
    7ea7: 86 14        	stx	$14                     ; 0x14 <__rc4>
    7ea9: 06 12        	asl	$12                     ; 0x12 <__rc2>
    7eab: 26 13        	rol	$13                     ; 0x13 <__rc3>
    7ead: a6 13        	ldx	$13                     ; 0x13 <__rc3>
    7eaf: e0 7f        	cpx	#$7f
    7eb1: a9 00        	lda	#$0
    7eb3: aa           	tax
    7eb4: a8           	tay
    7eb5: b0 03        	bcs	$7eba <__fixunssfsi+0x1f>
    7eb7: 4c 13 7f     	jmp	$7f13 <__fixunssfsi+0x78>
    7eba: 18           	clc
    7ebb: a5 13        	lda	$13                     ; 0x13 <__rc3>
    7ebd: 69 61        	adc	#$61
    7ebf: aa           	tax
    7ec0: a9 00        	lda	#$0
    7ec2: 69 ff        	adc	#$ff
    7ec4: c9 ff        	cmp	#$ff
    7ec6: d0 0a        	bne	$7ed2 <__fixunssfsi+0x37>
    7ec8: e0 e0        	cpx	#$e0
    7eca: 80 08        	bra	$7ed4 <__fixunssfsi+0x39>
    7ecc: a9 00        	lda	#$0
    7ece: aa           	tax
    7ecf: a8           	tay
    7ed0: 80 41        	bra	$7f13 <__fixunssfsi+0x78>
    7ed2: c9 ff        	cmp	#$ff
    7ed4: a9 ff        	lda	#$ff
    7ed6: 85 17        	sta	$17                     ; 0x17 <__rc7>
    7ed8: aa           	tax
    7ed9: a8           	tay
    7eda: 90 37        	bcc	$7f13 <__fixunssfsi+0x78>
    7edc: a5 14        	lda	$14                     ; 0x14 <__rc4>
    7ede: 29 7f        	and	#$7f
    7ee0: 09 80        	ora	#$80
    7ee2: 85 12        	sta	$12                     ; 0x12 <__rc2>
    7ee4: a6 13        	ldx	$13                     ; 0x13 <__rc3>
    7ee6: e0 96        	cpx	#$96
    7ee8: b0 12        	bcs	$7efc <__fixunssfsi+0x61>
    7eea: 38           	sec
    7eeb: a9 96        	lda	#$96
    7eed: e5 13        	sbc	$13                     ; 0x13 <__rc3>
    7eef: 64 13        	stz	$13                     ; 0x13 <__rc3>
    7ef1: 85 14        	sta	$14                     ; 0x14 <__rc4>
    7ef3: a6 15        	ldx	$15                     ; 0x15 <__rc5>
    7ef5: a5 16        	lda	$16                     ; 0x16 <__rc6>
    7ef7: 20 4e 6f     	jsr	$6f4e <__lshrsi3>
    7efa: 80 10        	bra	$7f0c <__fixunssfsi+0x71>
    7efc: 18           	clc
    7efd: a5 13        	lda	$13                     ; 0x13 <__rc3>
    7eff: 69 6a        	adc	#$6a
    7f01: 64 13        	stz	$13                     ; 0x13 <__rc3>
    7f03: 85 14        	sta	$14                     ; 0x14 <__rc4>
    7f05: a6 15        	ldx	$15                     ; 0x15 <__rc5>
    7f07: a5 16        	lda	$16                     ; 0x16 <__rc6>
    7f09: 20 37 6f     	jsr	$6f37 <__ashlsi3>
    7f0c: 85 17        	sta	$17                     ; 0x17 <__rc7>
    7f0e: 8a           	txa
    7f0f: a6 12        	ldx	$12                     ; 0x12 <__rc2>
    7f11: a4 13        	ldy	$13                     ; 0x13 <__rc3>
    7f13: 86 12        	stx	$12                     ; 0x12 <__rc2>
    7f15: 84 13        	sty	$13                     ; 0x13 <__rc3>
    7f17: aa           	tax
    7f18: a5 17        	lda	$17                     ; 0x17 <__rc7>
    7f1a: 60           	rts

00007f1b <__floatunsisf>:
    7f1b: 85 15        	sta	$15                     ; 0x15 <__rc5>
    7f1d: 86 16        	stx	$16                     ; 0x16 <__rc6>
    7f1f: a5 13        	lda	$13                     ; 0x13 <__rc3>
    7f21: d0 0f        	bne	$7f32 <__floatunsisf+0x17>
    7f23: a5 12        	lda	$12                     ; 0x12 <__rc2>
    7f25: d0 0b        	bne	$7f32 <__floatunsisf+0x17>
    7f27: a5 16        	lda	$16                     ; 0x16 <__rc6>
    7f29: d0 07        	bne	$7f32 <__floatunsisf+0x17>
    7f2b: a5 15        	lda	$15                     ; 0x15 <__rc5>
    7f2d: d0 03        	bne	$7f32 <__floatunsisf+0x17>
    7f2f: 4c 64 82     	jmp	$8264 <__floatunsisf+0x349>
    7f32: a5 13        	lda	$13                     ; 0x13 <__rc3>
    7f34: 4a           	lsr
    7f35: 85 18        	sta	$18                     ; 0x18 <__rc8>
    7f37: a5 12        	lda	$12                     ; 0x12 <__rc2>
    7f39: 6a           	ror
    7f3a: 85 17        	sta	$17                     ; 0x17 <__rc7>
    7f3c: 86 19        	stx	$19                     ; 0x19 <__rc9>
    7f3e: 66 19        	ror	$19                     ; 0x19 <__rc9>
    7f40: a5 15        	lda	$15                     ; 0x15 <__rc5>
    7f42: 6a           	ror
    7f43: 05 15        	ora	$15                     ; 0x15 <__rc5>
    7f45: a8           	tay
    7f46: a5 19        	lda	$19                     ; 0x19 <__rc9>
    7f48: 05 16        	ora	$16                     ; 0x16 <__rc6>
    7f4a: aa           	tax
    7f4b: a5 17        	lda	$17                     ; 0x17 <__rc7>
    7f4d: 05 12        	ora	$12                     ; 0x12 <__rc2>
    7f4f: 85 1a        	sta	$1a                     ; 0x1a <__rc10>
    7f51: a5 18        	lda	$18                     ; 0x18 <__rc8>
    7f53: 05 13        	ora	$13                     ; 0x13 <__rc3>
    7f55: 85 1b        	sta	$1b                     ; 0x1b <__rc11>
    7f57: 4a           	lsr
    7f58: 5a           	phy
    7f59: a4 1a        	ldy	$1a                     ; 0x1a <__rc10>
    7f5b: 84 14        	sty	$14                     ; 0x14 <__rc4>
    7f5d: 7a           	ply
    7f5e: 66 14        	ror	$14                     ; 0x14 <__rc4>
    7f60: 86 17        	stx	$17                     ; 0x17 <__rc7>
    7f62: 66 17        	ror	$17                     ; 0x17 <__rc7>
    7f64: 84 18        	sty	$18                     ; 0x18 <__rc8>
    7f66: 66 18        	ror	$18                     ; 0x18 <__rc8>
    7f68: 4a           	lsr
    7f69: 85 19        	sta	$19                     ; 0x19 <__rc9>
    7f6b: 66 14        	ror	$14                     ; 0x14 <__rc4>
    7f6d: 66 17        	ror	$17                     ; 0x17 <__rc7>
    7f6f: 66 18        	ror	$18                     ; 0x18 <__rc8>
    7f71: 98           	tya
    7f72: 05 18        	ora	$18                     ; 0x18 <__rc8>
    7f74: a8           	tay
    7f75: 8a           	txa
    7f76: 05 17        	ora	$17                     ; 0x17 <__rc7>
    7f78: aa           	tax
    7f79: a5 1a        	lda	$1a                     ; 0x1a <__rc10>
    7f7b: 05 14        	ora	$14                     ; 0x14 <__rc4>
    7f7d: 85 1a        	sta	$1a                     ; 0x1a <__rc10>
    7f7f: a5 1b        	lda	$1b                     ; 0x1b <__rc11>
    7f81: 05 19        	ora	$19                     ; 0x19 <__rc9>
    7f83: 85 1b        	sta	$1b                     ; 0x1b <__rc11>
    7f85: 4a           	lsr
    7f86: 5a           	phy
    7f87: a4 1a        	ldy	$1a                     ; 0x1a <__rc10>
    7f89: 84 14        	sty	$14                     ; 0x14 <__rc4>
    7f8b: 7a           	ply
    7f8c: 66 14        	ror	$14                     ; 0x14 <__rc4>
    7f8e: 86 17        	stx	$17                     ; 0x17 <__rc7>
    7f90: 66 17        	ror	$17                     ; 0x17 <__rc7>
    7f92: 84 18        	sty	$18                     ; 0x18 <__rc8>
    7f94: 66 18        	ror	$18                     ; 0x18 <__rc8>
    7f96: 4a           	lsr
    7f97: 66 14        	ror	$14                     ; 0x14 <__rc4>
    7f99: 66 17        	ror	$17                     ; 0x17 <__rc7>
    7f9b: 66 18        	ror	$18                     ; 0x18 <__rc8>
    7f9d: 4a           	lsr
    7f9e: 66 14        	ror	$14                     ; 0x14 <__rc4>
    7fa0: 66 17        	ror	$17                     ; 0x17 <__rc7>
    7fa2: 66 18        	ror	$18                     ; 0x18 <__rc8>
    7fa4: 4a           	lsr
    7fa5: 85 19        	sta	$19                     ; 0x19 <__rc9>
    7fa7: 66 14        	ror	$14                     ; 0x14 <__rc4>
    7fa9: 66 17        	ror	$17                     ; 0x17 <__rc7>
    7fab: 66 18        	ror	$18                     ; 0x18 <__rc8>
    7fad: 98           	tya
    7fae: 05 18        	ora	$18                     ; 0x18 <__rc8>
    7fb0: 85 18        	sta	$18                     ; 0x18 <__rc8>
    7fb2: 8a           	txa
    7fb3: 05 17        	ora	$17                     ; 0x17 <__rc7>
    7fb5: aa           	tax
    7fb6: a5 1a        	lda	$1a                     ; 0x1a <__rc10>
    7fb8: 05 14        	ora	$14                     ; 0x14 <__rc4>
    7fba: a8           	tay
    7fbb: a5 1b        	lda	$1b                     ; 0x1b <__rc11>
    7fbd: 05 19        	ora	$19                     ; 0x19 <__rc9>
    7fbf: 85 17        	sta	$17                     ; 0x17 <__rc7>
    7fc1: 86 14        	stx	$14                     ; 0x14 <__rc4>
    7fc3: a5 18        	lda	$18                     ; 0x18 <__rc8>
    7fc5: 05 14        	ora	$14                     ; 0x14 <__rc4>
    7fc7: 85 19        	sta	$19                     ; 0x19 <__rc9>
    7fc9: 84 14        	sty	$14                     ; 0x14 <__rc4>
    7fcb: 8a           	txa
    7fcc: 05 14        	ora	$14                     ; 0x14 <__rc4>
    7fce: 85 18        	sta	$18                     ; 0x18 <__rc8>
    7fd0: a6 17        	ldx	$17                     ; 0x17 <__rc7>
    7fd2: 86 14        	stx	$14                     ; 0x14 <__rc4>
    7fd4: 86 1a        	stx	$1a                     ; 0x1a <__rc10>
    7fd6: 98           	tya
    7fd7: 05 14        	ora	$14                     ; 0x14 <__rc4>
    7fd9: 85 17        	sta	$17                     ; 0x17 <__rc7>
    7fdb: 85 1b        	sta	$1b                     ; 0x1b <__rc11>
    7fdd: a5 19        	lda	$19                     ; 0x19 <__rc9>
    7fdf: 05 17        	ora	$17                     ; 0x17 <__rc7>
    7fe1: a8           	tay
    7fe2: a5 18        	lda	$18                     ; 0x18 <__rc8>
    7fe4: 05 14        	ora	$14                     ; 0x14 <__rc4>
    7fe6: aa           	tax
    7fe7: 98           	tya
    7fe8: 4a           	lsr
    7fe9: 29 55        	and	#$55
    7feb: 85 14        	sta	$14                     ; 0x14 <__rc4>
    7fed: 8a           	txa
    7fee: 4a           	lsr
    7fef: 29 55        	and	#$55
    7ff1: 85 17        	sta	$17                     ; 0x17 <__rc7>
    7ff3: a5 1b        	lda	$1b                     ; 0x1b <__rc11>
    7ff5: 4a           	lsr
    7ff6: 29 55        	and	#$55
    7ff8: 85 18        	sta	$18                     ; 0x18 <__rc8>
    7ffa: a5 1a        	lda	$1a                     ; 0x1a <__rc10>
    7ffc: 4a           	lsr
    7ffd: 29 55        	and	#$55
    7fff: 85 19        	sta	$19                     ; 0x19 <__rc9>
    8001: 38           	sec
    8002: 98           	tya
    8003: e5 14        	sbc	$14                     ; 0x14 <__rc4>
    8005: 85 14        	sta	$14                     ; 0x14 <__rc4>
    8007: 8a           	txa
    8008: e5 17        	sbc	$17                     ; 0x17 <__rc7>
    800a: aa           	tax
    800b: a5 1b        	lda	$1b                     ; 0x1b <__rc11>
    800d: e5 18        	sbc	$18                     ; 0x18 <__rc8>
    800f: 85 18        	sta	$18                     ; 0x18 <__rc8>
    8011: a5 1a        	lda	$1a                     ; 0x1a <__rc10>
    8013: e5 19        	sbc	$19                     ; 0x19 <__rc9>
    8015: a8           	tay
    8016: a5 14        	lda	$14                     ; 0x14 <__rc4>
    8018: 85 19        	sta	$19                     ; 0x19 <__rc9>
    801a: 29 33        	and	#$33
    801c: 85 14        	sta	$14                     ; 0x14 <__rc4>
    801e: 8a           	txa
    801f: 29 33        	and	#$33
    8021: 85 17        	sta	$17                     ; 0x17 <__rc7>
    8023: a5 18        	lda	$18                     ; 0x18 <__rc8>
    8025: 85 1a        	sta	$1a                     ; 0x1a <__rc10>
    8027: 29 33        	and	#$33
    8029: 85 18        	sta	$18                     ; 0x18 <__rc8>
    802b: 98           	tya
    802c: 4a           	lsr
    802d: 85 1c        	sta	$1c                     ; 0x1c <__rc12>
    802f: a5 1a        	lda	$1a                     ; 0x1a <__rc10>
    8031: 4a           	lsr
    8032: 85 1b        	sta	$1b                     ; 0x1b <__rc11>
    8034: 8a           	txa
    8035: 4a           	lsr
    8036: 85 1a        	sta	$1a                     ; 0x1a <__rc10>
    8038: a5 19        	lda	$19                     ; 0x19 <__rc9>
    803a: 4a           	lsr
    803b: 46 1c        	lsr	$1c                     ; 0x1c <__rc12>
    803d: 46 1b        	lsr	$1b                     ; 0x1b <__rc11>
    803f: a6 1a        	ldx	$1a                     ; 0x1a <__rc10>
    8041: 86 19        	stx	$19                     ; 0x19 <__rc9>
    8043: 46 19        	lsr	$19                     ; 0x19 <__rc9>
    8045: 4a           	lsr
    8046: 29 33        	and	#$33
    8048: 85 1d        	sta	$1d                     ; 0x1d <__rc13>
    804a: a5 19        	lda	$19                     ; 0x19 <__rc9>
    804c: 29 33        	and	#$33
    804e: aa           	tax
    804f: a5 1b        	lda	$1b                     ; 0x1b <__rc11>
    8051: 29 33        	and	#$33
    8053: 85 1a        	sta	$1a                     ; 0x1a <__rc10>
    8055: a5 1c        	lda	$1c                     ; 0x1c <__rc12>
    8057: 29 33        	and	#$33
    8059: 85 1b        	sta	$1b                     ; 0x1b <__rc11>
    805b: 98           	tya
    805c: 29 33        	and	#$33
    805e: 85 19        	sta	$19                     ; 0x19 <__rc9>
    8060: 18           	clc
    8061: a5 1d        	lda	$1d                     ; 0x1d <__rc13>
    8063: 65 14        	adc	$14                     ; 0x14 <__rc4>
    8065: 85 14        	sta	$14                     ; 0x14 <__rc4>
    8067: 8a           	txa
    8068: 65 17        	adc	$17                     ; 0x17 <__rc7>
    806a: 85 17        	sta	$17                     ; 0x17 <__rc7>
    806c: a5 1a        	lda	$1a                     ; 0x1a <__rc10>
    806e: 65 18        	adc	$18                     ; 0x18 <__rc8>
    8070: 85 18        	sta	$18                     ; 0x18 <__rc8>
    8072: a5 1b        	lda	$1b                     ; 0x1b <__rc11>
    8074: 65 19        	adc	$19                     ; 0x19 <__rc9>
    8076: 85 19        	sta	$19                     ; 0x19 <__rc9>
    8078: 4a           	lsr
    8079: aa           	tax
    807a: a5 18        	lda	$18                     ; 0x18 <__rc8>
    807c: 6a           	ror
    807d: a4 17        	ldy	$17                     ; 0x17 <__rc7>
    807f: 84 1b        	sty	$1b                     ; 0x1b <__rc11>
    8081: 66 1b        	ror	$1b                     ; 0x1b <__rc11>
    8083: a4 14        	ldy	$14                     ; 0x14 <__rc4>
    8085: 84 1c        	sty	$1c                     ; 0x1c <__rc12>
    8087: 66 1c        	ror	$1c                     ; 0x1c <__rc12>
    8089: 86 1a        	stx	$1a                     ; 0x1a <__rc10>
    808b: 46 1a        	lsr	$1a                     ; 0x1a <__rc10>
    808d: 6a           	ror
    808e: 66 1b        	ror	$1b                     ; 0x1b <__rc11>
    8090: 66 1c        	ror	$1c                     ; 0x1c <__rc12>
    8092: 46 1a        	lsr	$1a                     ; 0x1a <__rc10>
    8094: 6a           	ror
    8095: 66 1b        	ror	$1b                     ; 0x1b <__rc11>
    8097: 66 1c        	ror	$1c                     ; 0x1c <__rc12>
    8099: 46 1a        	lsr	$1a                     ; 0x1a <__rc10>
    809b: 6a           	ror
    809c: 85 1d        	sta	$1d                     ; 0x1d <__rc13>
    809e: a6 1b        	ldx	$1b                     ; 0x1b <__rc11>
    80a0: 86 1e        	stx	$1e                     ; 0x1e <__rc14>
    80a2: 66 1e        	ror	$1e                     ; 0x1e <__rc14>
    80a4: a5 1c        	lda	$1c                     ; 0x1c <__rc12>
    80a6: 6a           	ror
    80a7: 18           	clc
    80a8: 65 14        	adc	$14                     ; 0x14 <__rc4>
    80aa: a8           	tay
    80ab: a5 1e        	lda	$1e                     ; 0x1e <__rc14>
    80ad: 65 17        	adc	$17                     ; 0x17 <__rc7>
    80af: aa           	tax
    80b0: a5 1d        	lda	$1d                     ; 0x1d <__rc13>
    80b2: 65 18        	adc	$18                     ; 0x18 <__rc8>
    80b4: 85 18        	sta	$18                     ; 0x18 <__rc8>
    80b6: a5 1a        	lda	$1a                     ; 0x1a <__rc10>
    80b8: 65 19        	adc	$19                     ; 0x19 <__rc9>
    80ba: 85 19        	sta	$19                     ; 0x19 <__rc9>
    80bc: 98           	tya
    80bd: 29 0f        	and	#$f
    80bf: 85 14        	sta	$14                     ; 0x14 <__rc4>
    80c1: 85 1a        	sta	$1a                     ; 0x1a <__rc10>
    80c3: 8a           	txa
    80c4: 29 0f        	and	#$f
    80c6: 85 17        	sta	$17                     ; 0x17 <__rc7>
    80c8: a8           	tay
    80c9: a5 18        	lda	$18                     ; 0x18 <__rc8>
    80cb: 29 0f        	and	#$f
    80cd: 85 18        	sta	$18                     ; 0x18 <__rc8>
    80cf: aa           	tax
    80d0: a5 19        	lda	$19                     ; 0x19 <__rc9>
    80d2: 29 0f        	and	#$f
    80d4: 85 19        	sta	$19                     ; 0x19 <__rc9>
    80d6: 18           	clc
    80d7: a5 1a        	lda	$1a                     ; 0x1a <__rc10>
    80d9: 69 00        	adc	#$0
    80db: 85 1b        	sta	$1b                     ; 0x1b <__rc11>
    80dd: 98           	tya
    80de: 65 14        	adc	$14                     ; 0x14 <__rc4>
    80e0: a8           	tay
    80e1: 8a           	txa
    80e2: 65 17        	adc	$17                     ; 0x17 <__rc7>
    80e4: 85 1a        	sta	$1a                     ; 0x1a <__rc10>
    80e6: a5 19        	lda	$19                     ; 0x19 <__rc9>
    80e8: 65 18        	adc	$18                     ; 0x18 <__rc8>
    80ea: aa           	tax
    80eb: a5 1b        	lda	$1b                     ; 0x1b <__rc11>
    80ed: 85 14        	sta	$14                     ; 0x14 <__rc4>
    80ef: 18           	clc
    80f0: 69 00        	adc	#$0
    80f2: 98           	tya
    80f3: 84 17        	sty	$17                     ; 0x17 <__rc7>
    80f5: 69 00        	adc	#$0
    80f7: a5 1a        	lda	$1a                     ; 0x1a <__rc10>
    80f9: 65 14        	adc	$14                     ; 0x14 <__rc4>
    80fb: 8a           	txa
    80fc: 65 17        	adc	$17                     ; 0x17 <__rc7>
    80fe: 85 14        	sta	$14                     ; 0x14 <__rc4>
    8100: a9 20        	lda	#$20
    8102: 38           	sec
    8103: e5 14        	sbc	$14                     ; 0x14 <__rc4>
    8105: 85 14        	sta	$14                     ; 0x14 <__rc4>
    8107: 85 19        	sta	$19                     ; 0x19 <__rc9>
    8109: a9 00        	lda	#$0
    810b: e9 00        	sbc	#$0
    810d: 85 18        	sta	$18                     ; 0x18 <__rc8>
    810f: 85 8b        	sta	$8b                     ; 0x8b <__zp_bss_size+0x36>
    8111: a6 19        	ldx	$19                     ; 0x19 <__rc9>
    8113: 86 8d        	stx	$8d                     ; 0x8d <__zp_bss_size+0x38>
    8115: a5 19        	lda	$19                     ; 0x19 <__rc9>
    8117: 49 1f        	eor	#$1f
    8119: 85 17        	sta	$17                     ; 0x17 <__rc7>
    811b: a6 8b        	ldx	$8b                     ; 0x8b <__zp_bss_size+0x36>
    811d: f0 03        	beq	$8122 <__floatunsisf+0x207>
    811f: 4c 97 81     	jmp	$8197 <__floatunsisf+0x27c>
    8122: c9 18        	cmp	#$18
    8124: b0 03        	bcs	$8129 <__floatunsisf+0x20e>
    8126: 4c a0 81     	jmp	$81a0 <__floatunsisf+0x285>
    8129: 38           	sec
    812a: a9 08        	lda	#$8
    812c: a6 14        	ldx	$14                     ; 0x14 <__rc4>
    812e: 86 8c        	stx	$8c                     ; 0x8c <__zp_bss_size+0x37>
    8130: e5 14        	sbc	$14                     ; 0x14 <__rc4>
    8132: a6 12        	ldx	$12                     ; 0x12 <__rc2>
    8134: 86 92        	stx	$92                     ; 0x92 <__zp_bss_size+0x3d>
    8136: a6 13        	ldx	$13                     ; 0x13 <__rc3>
    8138: 86 94        	stx	$94                     ; 0x94 <__zp_bss_size+0x3f>
    813a: 85 14        	sta	$14                     ; 0x14 <__rc4>
    813c: a6 16        	ldx	$16                     ; 0x16 <__rc6>
    813e: a5 15        	lda	$15                     ; 0x15 <__rc5>
    8140: a4 15        	ldy	$15                     ; 0x15 <__rc5>
    8142: 84 93        	sty	$93                     ; 0x93 <__zp_bss_size+0x3e>
    8144: a4 16        	ldy	$16                     ; 0x16 <__rc6>
    8146: 84 95        	sty	$95                     ; 0x95 <__zp_bss_size+0x40>
    8148: 20 4e 6f     	jsr	$6f4e <__lshrsi3>
    814b: 85 8f        	sta	$8f                     ; 0x8f <__zp_bss_size+0x3a>
    814d: 86 8e        	stx	$8e                     ; 0x8e <__zp_bss_size+0x39>
    814f: a5 12        	lda	$12                     ; 0x12 <__rc2>
    8151: a6 13        	ldx	$13                     ; 0x13 <__rc3>
    8153: 86 91        	stx	$91                     ; 0x91 <__zp_bss_size+0x3c>
    8155: 49 80        	eor	#$80
    8157: 85 90        	sta	$90                     ; 0x90 <__zp_bss_size+0x3b>
    8159: a5 8d        	lda	$8d                     ; 0x8d <__zp_bss_size+0x38>
    815b: 18           	clc
    815c: 69 18        	adc	#$18
    815e: a6 92        	ldx	$92                     ; 0x92 <__zp_bss_size+0x3d>
    8160: 86 12        	stx	$12                     ; 0x12 <__rc2>
    8162: a6 94        	ldx	$94                     ; 0x94 <__zp_bss_size+0x3f>
    8164: 86 13        	stx	$13                     ; 0x13 <__rc3>
    8166: 85 14        	sta	$14                     ; 0x14 <__rc4>
    8168: a6 95        	ldx	$95                     ; 0x95 <__zp_bss_size+0x40>
    816a: a5 93        	lda	$93                     ; 0x93 <__zp_bss_size+0x3e>
    816c: 20 37 6f     	jsr	$6f37 <__ashlsi3>
    816f: 85 15        	sta	$15                     ; 0x15 <__rc5>
    8171: 86 16        	stx	$16                     ; 0x16 <__rc6>
    8173: a6 12        	ldx	$12                     ; 0x12 <__rc2>
    8175: a4 13        	ldy	$13                     ; 0x13 <__rc3>
    8177: c0 80        	cpy	#$80
    8179: d0 4e        	bne	$81c9 <__floatunsisf+0x2ae>
    817b: a5 8b        	lda	$8b                     ; 0x8b <__zp_bss_size+0x36>
    817d: 85 12        	sta	$12                     ; 0x12 <__rc2>
    817f: 8a           	txa
    8180: d0 4f        	bne	$81d1 <__floatunsisf+0x2b6>
    8182: a5 8c        	lda	$8c                     ; 0x8c <__zp_bss_size+0x37>
    8184: 85 13        	sta	$13                     ; 0x13 <__rc3>
    8186: a5 8f        	lda	$8f                     ; 0x8f <__zp_bss_size+0x3a>
    8188: 85 14        	sta	$14                     ; 0x14 <__rc4>
    818a: a5 16        	lda	$16                     ; 0x16 <__rc6>
    818c: f0 03        	beq	$8191 <__floatunsisf+0x276>
    818e: 4c 5d 82     	jmp	$825d <__floatunsisf+0x342>
    8191: a5 15        	lda	$15                     ; 0x15 <__rc5>
    8193: c9 01        	cmp	#$1
    8195: 80 44        	bra	$81db <__floatunsisf+0x2c0>
    8197: a6 18        	ldx	$18                     ; 0x18 <__rc8>
    8199: e0 00        	cpx	#$0
    819b: 90 03        	bcc	$81a0 <__floatunsisf+0x285>
    819d: 4c 29 81     	jmp	$8129 <__floatunsisf+0x20e>
    81a0: a6 14        	ldx	$14                     ; 0x14 <__rc4>
    81a2: 86 8c        	stx	$8c                     ; 0x8c <__zp_bss_size+0x37>
    81a4: 38           	sec
    81a5: a9 17        	lda	#$17
    81a7: e5 17        	sbc	$17                     ; 0x17 <__rc7>
    81a9: 85 14        	sta	$14                     ; 0x14 <__rc4>
    81ab: a6 16        	ldx	$16                     ; 0x16 <__rc6>
    81ad: a5 15        	lda	$15                     ; 0x15 <__rc5>
    81af: 20 37 6f     	jsr	$6f37 <__ashlsi3>
    81b2: 85 14        	sta	$14                     ; 0x14 <__rc4>
    81b4: 86 17        	stx	$17                     ; 0x17 <__rc7>
    81b6: a5 12        	lda	$12                     ; 0x12 <__rc2>
    81b8: a6 13        	ldx	$13                     ; 0x13 <__rc3>
    81ba: 86 15        	stx	$15                     ; 0x15 <__rc5>
    81bc: 49 80        	eor	#$80
    81be: a6 8b        	ldx	$8b                     ; 0x8b <__zp_bss_size+0x36>
    81c0: 86 12        	stx	$12                     ; 0x12 <__rc2>
    81c2: a6 8c        	ldx	$8c                     ; 0x8c <__zp_bss_size+0x37>
    81c4: 86 13        	stx	$13                     ; 0x13 <__rc3>
    81c6: 4c 2c 82     	jmp	$822c <__floatunsisf+0x311>
    81c9: c0 80        	cpy	#$80
    81cb: a5 8b        	lda	$8b                     ; 0x8b <__zp_bss_size+0x36>
    81cd: 85 12        	sta	$12                     ; 0x12 <__rc2>
    81cf: 80 02        	bra	$81d3 <__floatunsisf+0x2b8>
    81d1: e0 00        	cpx	#$0
    81d3: a5 8c        	lda	$8c                     ; 0x8c <__zp_bss_size+0x37>
    81d5: 85 13        	sta	$13                     ; 0x13 <__rc3>
    81d7: a5 8f        	lda	$8f                     ; 0x8f <__zp_bss_size+0x3a>
    81d9: 85 14        	sta	$14                     ; 0x14 <__rc4>
    81db: a5 8e        	lda	$8e                     ; 0x8e <__zp_bss_size+0x39>
    81dd: 85 17        	sta	$17                     ; 0x17 <__rc7>
    81df: b0 30        	bcs	$8211 <__floatunsisf+0x2f6>
    81e1: c0 80        	cpy	#$80
    81e3: d0 41        	bne	$8226 <__floatunsisf+0x30b>
    81e5: 8a           	txa
    81e6: d0 3e        	bne	$8226 <__floatunsisf+0x30b>
    81e8: a5 16        	lda	$16                     ; 0x16 <__rc6>
    81ea: d0 3a        	bne	$8226 <__floatunsisf+0x30b>
    81ec: a5 15        	lda	$15                     ; 0x15 <__rc5>
    81ee: d0 36        	bne	$8226 <__floatunsisf+0x30b>
    81f0: a5 14        	lda	$14                     ; 0x14 <__rc4>
    81f2: 29 01        	and	#$1
    81f4: 18           	clc
    81f5: 65 14        	adc	$14                     ; 0x14 <__rc4>
    81f7: a8           	tay
    81f8: a6 8e        	ldx	$8e                     ; 0x8e <__zp_bss_size+0x39>
    81fa: 8a           	txa
    81fb: 69 00        	adc	#$0
    81fd: 85 17        	sta	$17                     ; 0x17 <__rc7>
    81ff: a5 90        	lda	$90                     ; 0x90 <__zp_bss_size+0x3b>
    8201: 69 00        	adc	#$0
    8203: 85 16        	sta	$16                     ; 0x16 <__rc6>
    8205: a5 91        	lda	$91                     ; 0x91 <__zp_bss_size+0x3c>
    8207: 69 00        	adc	#$0
    8209: 85 15        	sta	$15                     ; 0x15 <__rc5>
    820b: a5 16        	lda	$16                     ; 0x16 <__rc6>
    820d: 84 14        	sty	$14                     ; 0x14 <__rc4>
    820f: 80 1b        	bra	$822c <__floatunsisf+0x311>
    8211: a5 90        	lda	$90                     ; 0x90 <__zp_bss_size+0x3b>
    8213: a6 91        	ldx	$91                     ; 0x91 <__zp_bss_size+0x3c>
    8215: 86 15        	stx	$15                     ; 0x15 <__rc5>
    8217: e6 14        	inc	$14                     ; 0x14 <__rc4>
    8219: d0 09        	bne	$8224 <__floatunsisf+0x309>
    821b: e6 17        	inc	$17                     ; 0x17 <__rc7>
    821d: d0 05        	bne	$8224 <__floatunsisf+0x309>
    821f: 1a           	inc
    8220: d0 02        	bne	$8224 <__floatunsisf+0x309>
    8222: e6 15        	inc	$15                     ; 0x15 <__rc5>
    8224: 80 06        	bra	$822c <__floatunsisf+0x311>
    8226: a5 90        	lda	$90                     ; 0x90 <__zp_bss_size+0x3b>
    8228: a6 91        	ldx	$91                     ; 0x91 <__zp_bss_size+0x3c>
    822a: 86 15        	stx	$15                     ; 0x15 <__rc5>
    822c: 85 16        	sta	$16                     ; 0x16 <__rc6>
    822e: 38           	sec
    822f: a9 9e        	lda	#$9e
    8231: e5 13        	sbc	$13                     ; 0x13 <__rc3>
    8233: 85 13        	sta	$13                     ; 0x13 <__rc3>
    8235: a9 00        	lda	#$0
    8237: e5 12        	sbc	$12                     ; 0x12 <__rc2>
    8239: 4a           	lsr
    823a: 66 13        	ror	$13                     ; 0x13 <__rc3>
    823c: 64 18        	stz	$18                     ; 0x18 <__rc8>
    823e: 66 18        	ror	$18                     ; 0x18 <__rc8>
    8240: a9 00        	lda	#$0
    8242: 6a           	ror
    8243: aa           	tax
    8244: a9 00        	lda	#$0
    8246: 6a           	ror
    8247: 18           	clc
    8248: 65 14        	adc	$14                     ; 0x14 <__rc4>
    824a: a8           	tay
    824b: 8a           	txa
    824c: 65 17        	adc	$17                     ; 0x17 <__rc7>
    824e: aa           	tax
    824f: a5 18        	lda	$18                     ; 0x18 <__rc8>
    8251: 65 16        	adc	$16                     ; 0x16 <__rc6>
    8253: 85 12        	sta	$12                     ; 0x12 <__rc2>
    8255: a5 13        	lda	$13                     ; 0x13 <__rc3>
    8257: 65 15        	adc	$15                     ; 0x15 <__rc5>
    8259: 85 13        	sta	$13                     ; 0x13 <__rc3>
    825b: 98           	tya
    825c: 60           	rts
    825d: a5 16        	lda	$16                     ; 0x16 <__rc6>
    825f: c9 00        	cmp	#$0
    8261: 4c db 81     	jmp	$81db <__floatunsisf+0x2c0>
    8264: a0 00        	ldy	#$0
    8266: a2 00        	ldx	#$0
    8268: 64 12        	stz	$12                     ; 0x12 <__rc2>
    826a: 64 13        	stz	$13                     ; 0x13 <__rc3>
    826c: 80 ed        	bra	$825b <__floatunsisf+0x340>

0000826e <__mulqi3>:
    826e: e0 00        	cpx	#$0
    8270: f0 14        	beq	$8286 <__mulqi3+0x18>
    8272: 85 12        	sta	$12                     ; 0x12 <__rc2>
    8274: 86 13        	stx	$13                     ; 0x13 <__rc3>
    8276: a9 00        	lda	#$0
    8278: 46 13        	lsr	$13                     ; 0x13 <__rc3>
    827a: 90 03        	bcc	$827f <__mulqi3+0x11>
    827c: 18           	clc
    827d: 65 12        	adc	$12                     ; 0x12 <__rc2>
    827f: 06 12        	asl	$12                     ; 0x12 <__rc2>
    8281: a6 13        	ldx	$13                     ; 0x13 <__rc3>
    8283: d0 f3        	bne	$8278 <__mulqi3+0xa>
    8285: 60           	rts
    8286: a9 00        	lda	#$0
    8288: 60           	rts

00008289 <__mulhi3>:
    8289: a4 13        	ldy	$13                     ; 0x13 <__rc3>
    828b: d0 04        	bne	$8291 <__mulhi3+0x8>
    828d: a4 12        	ldy	$12                     ; 0x12 <__rc2>
    828f: f0 25        	beq	$82b6 <__mulhi3+0x2d>
    8291: 85 14        	sta	$14                     ; 0x14 <__rc4>
    8293: 86 15        	stx	$15                     ; 0x15 <__rc5>
    8295: a0 00        	ldy	#$0
    8297: 98           	tya
    8298: 46 13        	lsr	$13                     ; 0x13 <__rc3>
    829a: 66 12        	ror	$12                     ; 0x12 <__rc2>
    829c: 90 09        	bcc	$82a7 <__mulhi3+0x1e>
    829e: aa           	tax
    829f: 98           	tya
    82a0: 18           	clc
    82a1: 65 14        	adc	$14                     ; 0x14 <__rc4>
    82a3: a8           	tay
    82a4: 8a           	txa
    82a5: 65 15        	adc	$15                     ; 0x15 <__rc5>
    82a7: 06 14        	asl	$14                     ; 0x14 <__rc4>
    82a9: 26 15        	rol	$15                     ; 0x15 <__rc5>
    82ab: a6 13        	ldx	$13                     ; 0x13 <__rc3>
    82ad: d0 e9        	bne	$8298 <__mulhi3+0xf>
    82af: a6 12        	ldx	$12                     ; 0x12 <__rc2>
    82b1: d0 e5        	bne	$8298 <__mulhi3+0xf>
    82b3: aa           	tax
    82b4: 98           	tya
    82b5: 60           	rts
    82b6: a0 00        	ldy	#$0
    82b8: 98           	tya
    82b9: 80 f8        	bra	$82b3 <__mulhi3+0x2a>

000082bb <__mulsi3>:
    82bb: a4 17        	ldy	$17                     ; 0x17 <__rc7>
    82bd: d0 0f        	bne	$82ce <__mulsi3+0x13>
    82bf: a4 16        	ldy	$16                     ; 0x16 <__rc6>
    82c1: d0 0b        	bne	$82ce <__mulsi3+0x13>
    82c3: a4 15        	ldy	$15                     ; 0x15 <__rc5>
    82c5: d0 07        	bne	$82ce <__mulsi3+0x13>
    82c7: a4 14        	ldy	$14                     ; 0x14 <__rc4>
    82c9: d0 03        	bne	$82ce <__mulsi3+0x13>
    82cb: 4c 22 83     	jmp	$8322 <__mulsi3+0x67>
    82ce: 85 18        	sta	$18                     ; 0x18 <__rc8>
    82d0: 86 19        	stx	$19                     ; 0x19 <__rc9>
    82d2: a0 00        	ldy	#$0
    82d4: a2 00        	ldx	#$0
    82d6: 64 1a        	stz	$1a                     ; 0x1a <__rc10>
    82d8: 98           	tya
    82d9: 46 17        	lsr	$17                     ; 0x17 <__rc7>
    82db: 66 16        	ror	$16                     ; 0x16 <__rc6>
    82dd: 66 15        	ror	$15                     ; 0x15 <__rc5>
    82df: 66 14        	ror	$14                     ; 0x14 <__rc4>
    82e1: 90 15        	bcc	$82f8 <__mulsi3+0x3d>
    82e3: 85 1b        	sta	$1b                     ; 0x1b <__rc11>
    82e5: 98           	tya
    82e6: 18           	clc
    82e7: 65 18        	adc	$18                     ; 0x18 <__rc8>
    82e9: a8           	tay
    82ea: 8a           	txa
    82eb: 65 19        	adc	$19                     ; 0x19 <__rc9>
    82ed: aa           	tax
    82ee: a5 1a        	lda	$1a                     ; 0x1a <__rc10>
    82f0: 65 12        	adc	$12                     ; 0x12 <__rc2>
    82f2: 85 1a        	sta	$1a                     ; 0x1a <__rc10>
    82f4: a5 1b        	lda	$1b                     ; 0x1b <__rc11>
    82f6: 65 13        	adc	$13                     ; 0x13 <__rc3>
    82f8: 06 18        	asl	$18                     ; 0x18 <__rc8>
    82fa: 26 19        	rol	$19                     ; 0x19 <__rc9>
    82fc: 26 12        	rol	$12                     ; 0x12 <__rc2>
    82fe: 26 13        	rol	$13                     ; 0x13 <__rc3>
    8300: e6 17        	inc	$17                     ; 0x17 <__rc7>
    8302: c6 17        	dec	$17                     ; 0x17 <__rc7>
    8304: d0 d3        	bne	$82d9 <__mulsi3+0x1e>
    8306: e6 16        	inc	$16                     ; 0x16 <__rc6>
    8308: c6 16        	dec	$16                     ; 0x16 <__rc6>
    830a: d0 cd        	bne	$82d9 <__mulsi3+0x1e>
    830c: e6 15        	inc	$15                     ; 0x15 <__rc5>
    830e: c6 15        	dec	$15                     ; 0x15 <__rc5>
    8310: d0 c7        	bne	$82d9 <__mulsi3+0x1e>
    8312: e6 14        	inc	$14                     ; 0x14 <__rc4>
    8314: c6 14        	dec	$14                     ; 0x14 <__rc4>
    8316: d0 c1        	bne	$82d9 <__mulsi3+0x1e>
    8318: 5a           	phy
    8319: a4 1a        	ldy	$1a                     ; 0x1a <__rc10>
    831b: 84 12        	sty	$12                     ; 0x12 <__rc2>
    831d: 7a           	ply
    831e: 85 13        	sta	$13                     ; 0x13 <__rc3>
    8320: 98           	tya
    8321: 60           	rts
    8322: a0 00        	ldy	#$0
    8324: a2 00        	ldx	#$0
    8326: 64 1a        	stz	$1a                     ; 0x1a <__rc10>
    8328: 98           	tya
    8329: 80 ed        	bra	$8318 <__mulsi3+0x5d>

0000832b <__muldi3>:
    832b: a4 1f        	ldy	$1f                     ; 0x1f <__rc15>
    832d: d0 1f        	bne	$834e <__muldi3+0x23>
    832f: a4 1e        	ldy	$1e                     ; 0x1e <__rc14>
    8331: d0 1b        	bne	$834e <__muldi3+0x23>
    8333: a4 1d        	ldy	$1d                     ; 0x1d <__rc13>
    8335: d0 17        	bne	$834e <__muldi3+0x23>
    8337: a4 1c        	ldy	$1c                     ; 0x1c <__rc12>
    8339: d0 13        	bne	$834e <__muldi3+0x23>
    833b: a4 1b        	ldy	$1b                     ; 0x1b <__rc11>
    833d: d0 0f        	bne	$834e <__muldi3+0x23>
    833f: a4 1a        	ldy	$1a                     ; 0x1a <__rc10>
    8341: d0 0b        	bne	$834e <__muldi3+0x23>
    8343: a4 19        	ldy	$19                     ; 0x19 <__rc9>
    8345: d0 07        	bne	$834e <__muldi3+0x23>
    8347: a4 18        	ldy	$18                     ; 0x18 <__rc8>
    8349: d0 03        	bne	$834e <__muldi3+0x23>
    834b: 4c 12 84     	jmp	$8412 <__muldi3+0xe7>
    834e: 85 22        	sta	$22                     ; 0x22 <__rc18>
    8350: 86 23        	stx	$23                     ; 0x23 <__rc19>
    8352: a0 00        	ldy	#$0
    8354: a2 00        	ldx	#$0
    8356: 64 a9        	stz	$a9                     ; 0xa9 <__zp_bss_size+0x54>
    8358: 64 aa        	stz	$aa                     ; 0xaa <__zp_bss_size+0x55>
    835a: 64 ab        	stz	$ab                     ; 0xab <__zp_bss_size+0x56>
    835c: 64 ac        	stz	$ac                     ; 0xac <__zp_bss_size+0x57>
    835e: 64 ad        	stz	$ad                     ; 0xad <__zp_bss_size+0x58>
    8360: 98           	tya
    8361: 46 1f        	lsr	$1f                     ; 0x1f <__rc15>
    8363: 66 1e        	ror	$1e                     ; 0x1e <__rc14>
    8365: 66 1d        	ror	$1d                     ; 0x1d <__rc13>
    8367: 66 1c        	ror	$1c                     ; 0x1c <__rc12>
    8369: 66 1b        	ror	$1b                     ; 0x1b <__rc11>
    836b: 66 1a        	ror	$1a                     ; 0x1a <__rc10>
    836d: 66 19        	ror	$19                     ; 0x19 <__rc9>
    836f: 66 18        	ror	$18                     ; 0x18 <__rc8>
    8371: 90 2d        	bcc	$83a0 <__muldi3+0x75>
    8373: 85 ae        	sta	$ae                     ; 0xae <__zp_bss_size+0x59>
    8375: 98           	tya
    8376: 18           	clc
    8377: 65 22        	adc	$22                     ; 0x22 <__rc18>
    8379: a8           	tay
    837a: 8a           	txa
    837b: 65 23        	adc	$23                     ; 0x23 <__rc19>
    837d: aa           	tax
    837e: a5 a9        	lda	$a9                     ; 0xa9 <__zp_bss_size+0x54>
    8380: 65 12        	adc	$12                     ; 0x12 <__rc2>
    8382: 85 a9        	sta	$a9                     ; 0xa9 <__zp_bss_size+0x54>
    8384: a5 aa        	lda	$aa                     ; 0xaa <__zp_bss_size+0x55>
    8386: 65 13        	adc	$13                     ; 0x13 <__rc3>
    8388: 85 aa        	sta	$aa                     ; 0xaa <__zp_bss_size+0x55>
    838a: a5 ab        	lda	$ab                     ; 0xab <__zp_bss_size+0x56>
    838c: 65 14        	adc	$14                     ; 0x14 <__rc4>
    838e: 85 ab        	sta	$ab                     ; 0xab <__zp_bss_size+0x56>
    8390: a5 ac        	lda	$ac                     ; 0xac <__zp_bss_size+0x57>
    8392: 65 15        	adc	$15                     ; 0x15 <__rc5>
    8394: 85 ac        	sta	$ac                     ; 0xac <__zp_bss_size+0x57>
    8396: a5 ad        	lda	$ad                     ; 0xad <__zp_bss_size+0x58>
    8398: 65 16        	adc	$16                     ; 0x16 <__rc6>
    839a: 85 ad        	sta	$ad                     ; 0xad <__zp_bss_size+0x58>
    839c: a5 ae        	lda	$ae                     ; 0xae <__zp_bss_size+0x59>
    839e: 65 17        	adc	$17                     ; 0x17 <__rc7>
    83a0: 06 22        	asl	$22                     ; 0x22 <__rc18>
    83a2: 26 23        	rol	$23                     ; 0x23 <__rc19>
    83a4: 26 12        	rol	$12                     ; 0x12 <__rc2>
    83a6: 26 13        	rol	$13                     ; 0x13 <__rc3>
    83a8: 26 14        	rol	$14                     ; 0x14 <__rc4>
    83aa: 26 15        	rol	$15                     ; 0x15 <__rc5>
    83ac: 26 16        	rol	$16                     ; 0x16 <__rc6>
    83ae: 26 17        	rol	$17                     ; 0x17 <__rc7>
    83b0: e6 1f        	inc	$1f                     ; 0x1f <__rc15>
    83b2: c6 1f        	dec	$1f                     ; 0x1f <__rc15>
    83b4: f0 03        	beq	$83b9 <__muldi3+0x8e>
    83b6: 4c 61 83     	jmp	$8361 <__muldi3+0x36>
    83b9: e6 1e        	inc	$1e                     ; 0x1e <__rc14>
    83bb: c6 1e        	dec	$1e                     ; 0x1e <__rc14>
    83bd: f0 03        	beq	$83c2 <__muldi3+0x97>
    83bf: 4c 61 83     	jmp	$8361 <__muldi3+0x36>
    83c2: e6 1d        	inc	$1d                     ; 0x1d <__rc13>
    83c4: c6 1d        	dec	$1d                     ; 0x1d <__rc13>
    83c6: f0 03        	beq	$83cb <__muldi3+0xa0>
    83c8: 4c 61 83     	jmp	$8361 <__muldi3+0x36>
    83cb: e6 1c        	inc	$1c                     ; 0x1c <__rc12>
    83cd: c6 1c        	dec	$1c                     ; 0x1c <__rc12>
    83cf: f0 03        	beq	$83d4 <__muldi3+0xa9>
    83d1: 4c 61 83     	jmp	$8361 <__muldi3+0x36>
    83d4: e6 1b        	inc	$1b                     ; 0x1b <__rc11>
    83d6: c6 1b        	dec	$1b                     ; 0x1b <__rc11>
    83d8: f0 03        	beq	$83dd <__muldi3+0xb2>
    83da: 4c 61 83     	jmp	$8361 <__muldi3+0x36>
    83dd: e6 1a        	inc	$1a                     ; 0x1a <__rc10>
    83df: c6 1a        	dec	$1a                     ; 0x1a <__rc10>
    83e1: f0 03        	beq	$83e6 <__muldi3+0xbb>
    83e3: 4c 61 83     	jmp	$8361 <__muldi3+0x36>
    83e6: e6 19        	inc	$19                     ; 0x19 <__rc9>
    83e8: c6 19        	dec	$19                     ; 0x19 <__rc9>
    83ea: f0 03        	beq	$83ef <__muldi3+0xc4>
    83ec: 4c 61 83     	jmp	$8361 <__muldi3+0x36>
    83ef: e6 18        	inc	$18                     ; 0x18 <__rc8>
    83f1: c6 18        	dec	$18                     ; 0x18 <__rc8>
    83f3: f0 03        	beq	$83f8 <__muldi3+0xcd>
    83f5: 4c 61 83     	jmp	$8361 <__muldi3+0x36>
    83f8: 5a           	phy
    83f9: a4 a9        	ldy	$a9                     ; 0xa9 <__zp_bss_size+0x54>
    83fb: 84 12        	sty	$12                     ; 0x12 <__rc2>
    83fd: a4 aa        	ldy	$aa                     ; 0xaa <__zp_bss_size+0x55>
    83ff: 84 13        	sty	$13                     ; 0x13 <__rc3>
    8401: a4 ab        	ldy	$ab                     ; 0xab <__zp_bss_size+0x56>
    8403: 84 14        	sty	$14                     ; 0x14 <__rc4>
    8405: a4 ac        	ldy	$ac                     ; 0xac <__zp_bss_size+0x57>
    8407: 84 15        	sty	$15                     ; 0x15 <__rc5>
    8409: a4 ad        	ldy	$ad                     ; 0xad <__zp_bss_size+0x58>
    840b: 84 16        	sty	$16                     ; 0x16 <__rc6>
    840d: 7a           	ply
    840e: 85 17        	sta	$17                     ; 0x17 <__rc7>
    8410: 98           	tya
    8411: 60           	rts
    8412: a0 00        	ldy	#$0
    8414: a2 00        	ldx	#$0
    8416: 64 a9        	stz	$a9                     ; 0xa9 <__zp_bss_size+0x54>
    8418: 64 aa        	stz	$aa                     ; 0xaa <__zp_bss_size+0x55>
    841a: 64 ab        	stz	$ab                     ; 0xab <__zp_bss_size+0x56>
    841c: 64 ac        	stz	$ac                     ; 0xac <__zp_bss_size+0x57>
    841e: 64 ad        	stz	$ad                     ; 0xad <__zp_bss_size+0x58>
    8420: 98           	tya
    8421: 80 d5        	bra	$83f8 <__muldi3+0xcd>
