
midiTest.elf:	file format elf32-mos

SYMBOL TABLE:
00000000 l    df *ABS*	00000000 zero-bss.c
00000000 l    df *ABS*	00000000 zero-zp-bss.c
00000000 l    df *ABS*	00000000 copy-zp-data.c
00000000 l    df *ABS*	00000000 ld-temp.o
0000056e l     F .text	000003a0 f256Init
00000083 l     O .zp.bss	00000007 kernelEventData
00000030 l     O .zp.data	00000001 _ccolor
0000826d l     O .rodata	00000030 textColors
00000033 l     O .zp.bss	00000001 _col
00000034 l     O .zp.bss	00000001 _row
0000864f l     O .bss	00000004 _BITMAP_BASE.0
00008653 l     O .bss	00000001 kernelError
00000914 l     F .text	0000269a f256main
00005e91 l     F .text	000001d3 malloc
0000006a l     O .zp.bss	00000002 gPtr
0000007e l     O .zp.bss	00000002 theBeats
00005265 l     F .text	00000c2c printf
00008431 l     O .rodata	0000000c beat60_notes
0000843d l     O .rodata	0000000c beat60_delays
000045a6 l     F .text	00000246 setupMem4Track
00008449 l     O .rodata	00000008 beat61_notes
00008451 l     O .rodata	00000008 beat61_delays
00008459 l     O .rodata	0000000c beat62_notes
00008465 l     O .rodata	0000000c beat62_delays
00008471 l     O .rodata	0000000c beat63_notes
0000847d l     O .rodata	0000000c beat63_delays
00008489 l     O .rodata	0000000c beat64_notes
00008495 l     O .rodata	0000000c beat64_delays
000084a1 l     O .rodata	00000020 beat65_notes
000084c1 l     O .rodata	00000020 beat65_delays
00003dd3 l     F .text	000001c0 escReset
00003f93 l     F .text	00000103 prepTempoLUT
00000080 l     O .zp.bss	00000001 refTimer.1
000042ad l     F .text	00000067 sid_setInstrumentAllChannels
0000850e l     O .rodata	0000000b opl3_instrument_defs
00004151 l     F .text	000000d4 opl3_setInstrument
000083f9 l     O .rodata	00000038 rtmplugin
00000031 l     O .zp.data	00000002 note
00000081 l     O .zp.bss	00000002 oldCursorNote
00000061 l     O .zp.bss	00000001 instSelectMode
00002fae l     F .text	000001b8 textPrint
00003166 l     F .text	000005a6 dispatchNote
00004096 l     F .text	000000bb textPrintUInt
000082a9 l     O .rodata	00000058 noteColors
00000063 l     O .zp.bss	00000001 altHit
0000006c l     O .zp.bss	00000012 mainTempoLUT
00000064 l     O .zp.bss	00000001 shiftHit
00000065 l     O .zp.bss	00000001 chipAct.0
00000066 l     O .zp.bss	00000001 chipAct.1
00000043 l     O .zp.bss	00000006 polySIDBuffer
00000067 l     O .zp.bss	00000001 chipAct.2
00000037 l     O .zp.bss	00000006 polyPSGBuffer
00000068 l     O .zp.bss	00000001 chipAct.3
0000004f l     O .zp.bss	00000009 polyOPL3Buffer
00000069 l     O .zp.bss	00000001 chipAct.4
00004984 l     F .text	000000f8 showChipChoiceText
00004314 l     F .text	00000292 getBeatTrackNoteInfo
00000062 l     O .zp.bss	00000001 needsToWaitExpiration
0000370c l     F .text	000006c7 launchBeat
00004afe l     F .text	000002d4 textTitle
0000492a l     F .text	0000005a updateTempoText
00004dd2 l     F .text	000001d1 highLightInstChoice
00008519 l     O .rodata	00000100 midi_instruments
00008619 l     O .rodata	0000000a sid_instruments_names
00004a7c l     F .text	00000082 showMIDIChoiceText
00000035 l     O .zp.bss	00000002 __putchar.s
000047ec l     F .text	000000d7 channelTextMenu
00004fa3 l     F .text	0000006b modalMoveUp
000060f9 l     F .text	00000032 __mulhi3
0000500e l     F .text	0000006b modalMoveDown
000048c3 l     F .text	00000067 refreshBeatTextChoice
00006564 l     F .text	000000db __udivmodhi4
00008301 l     O .rodata	00000018 opl3_fnums
00000058 l     O .zp.bss	00000009 reservedOPL3
00000049 l     O .zp.bss	00000006 reservedSID
0000003d l     O .zp.bss	00000006 reservedPSG
000082a3 l     O .rodata	00000006 sidChoiceToVoice
00008399 l     O .rodata	00000060 sidLow
00007a1e l     O .rodata	00000060 sidHigh
000084e1 l     O .rodata	0000002d sid_instrument_defs
0000829d l     O .rodata	00000006 polyPSGChanBits
00008319 l     O .rodata	00000040 psgLow
00008359 l     O .rodata	00000040 psgHigh
00006293 l     F .text	0000005c __udivqi3
00004225 l     F .text	00000088 sid_setInstrument
00000456 l     F .text	000000db _ZN12_GLOBAL__N_19FreeChunk6removeEv
00008654 l     O .bss	00000001 _ZN12_GLOBAL__N_19last_freeE
0000031c l     F .text	00000139 _ZN12_GLOBAL__N_19FreeChunk6insertEPvj
0000724d l     F .text	00000353 __floatunsisf
0000663f l     F .text	00000b92 __divsf3
000071d1 l     F .text	0000007c __fixunssfsi
000062ef l     F .text	000000c0 __udivhi3
000063af l     F .text	00000147 __umodsi3
000064f6 l     F .text	0000006e __udivmodqi4
000060de l     F .text	0000001b __mulqi3
00008623 l     O .rodata	0000002c opl3_instrument_names
0000507e l     F .text	000000db _ZN12_GLOBAL__N_13putEcP6Status
00005159 l     F .text	0000010c _ZN12_GLOBAL__N_112print_stringEPKcP6Status
0000008a l     O .zp.bss	00000001 _ZN12_GLOBAL__N_111initializedE
00008655 l     O .bss	00000002 _ZN12_GLOBAL__N_19free_listE
0000008b l     O .zp.bss	00000002 _ZN12_GLOBAL__N_19free_sizeE
000060b0 l     F .text	00000017 __ashlsi3
000060c7 l     F .text	00000017 __lshrsi3
0000612b l     F .text	00000070 __mulsi3
0000619b l     F .text	000000f8 __muldi3
0000090e g     F .text	00000006 main
0004ac00 g       .pia1	00000000 pia1_end
000303fc g       .palpiano	00000000 palpiano_end
00038000 g       .pia1	00000000 pia1_start
00030000 g       .palpiano	00000000 palpiano_start
00000318 g       .text	00000000 __after_main
00000304 g       .text	00000000 __do_init_stack
00000312 g       .text	00000000 __do_copy_zp_data
00000557 g     F .text	00000017 __copy_zp_data
0000030c g       .text	00000000 __do_zero_bss
00000531 g     F .text	00000013 __zero_bss
0000030f g       .text	00000000 __do_zero_zp_bss
00000544 g     F .text	00000013 __zero_zp_bss
00005079 g     F .text	00000005 exit
0000031b g       .text	00000000 _fini
000075a0 g       .rodata	00000000 __set_v
00006090  w    F .text	00000020 __memset
00001000  w      *ABS*	00000000 __heap_default_limit
00008658 g       .noinit	00000000 __heap_start
00006064  w    F .text	0000002c memcpy
00000010 g       *ABS*	00000000 __rc0
00000012 g       *ABS*	00000000 __rc2
00000014 g       *ABS*	00000000 __rc4
00000016 g       *ABS*	00000000 __rc6
00000018 g       *ABS*	00000000 __rc8
0000001a g       *ABS*	00000000 __rc10
0000001c g       *ABS*	00000000 __rc12
0000001e g       *ABS*	00000000 __rc14
00000020 g       *ABS*	00000000 __rc16
00000022 g       *ABS*	00000000 __rc18
00000024 g       *ABS*	00000000 __rc20
00000026 g       *ABS*	00000000 __rc22
00000028 g       *ABS*	00000000 __rc24
0000002a g       *ABS*	00000000 __rc26
0000002c g       *ABS*	00000000 __rc28
0000002e g       *ABS*	00000000 __rc30
0000002f g       *ABS*	00000000 __rc31
00000300 g       *ABS*	00000000 __f256_start
0000c000 g       *ABS*	00000000 __stack
0000c000 g       *ABS*	00000000 __SLOT_ADDR
0800c000 g       *ABS*	00000000 __block8_lma
00002000 g       *ABS*	00000000 __BLOCK_SIZE
0900c000 g       *ABS*	00000000 __block9_lma
0a00c000 g       *ABS*	00000000 __block10_lma
0b00c000 g       *ABS*	00000000 __block11_lma
0c00c000 g       *ABS*	00000000 __block12_lma
0d00c000 g       *ABS*	00000000 __block13_lma
0e00c000 g       *ABS*	00000000 __block14_lma
0f00c000 g       *ABS*	00000000 __block15_lma
1000c000 g       *ABS*	00000000 __block16_lma
1100c000 g       *ABS*	00000000 __block17_lma
1200c000 g       *ABS*	00000000 __block18_lma
1300c000 g       *ABS*	00000000 __block19_lma
1400c000 g       *ABS*	00000000 __block20_lma
1500c000 g       *ABS*	00000000 __block21_lma
1600c000 g       *ABS*	00000000 __block22_lma
1700c000 g       *ABS*	00000000 __block23_lma
00030000 g       *ABS*	00000000 __palpiano_lma
000003fc g       *ABS*	00000000 __palpiano_size
00038000 g       *ABS*	00000000 __pia1_lma
00012c00 g       *ABS*	00000000 __pia1_size
0000864f g       .bss	00000000 __bss_start
000303fc g       .palpiano	00000000 end_palpiano
0004ac00 g       .pia1	00000000 end_pia1
00000304 g       .text	00000000 _start
0000002d g       *ABS*	00000000 __rc29
0000002b g       *ABS*	00000000 __rc27
00000029 g       *ABS*	00000000 __rc25
00000027 g       *ABS*	00000000 __rc23
00000025 g       *ABS*	00000000 __rc21
00000023 g       *ABS*	00000000 __rc19
00000021 g       *ABS*	00000000 __rc17
0000001f g       *ABS*	00000000 __rc15
0000001d g       *ABS*	00000000 __rc13
0000001b g       *ABS*	00000000 __rc11
00000019 g       *ABS*	00000000 __rc9
00000017 g       *ABS*	00000000 __rc7
00000015 g       *ABS*	00000000 __rc5
00000013 g       *ABS*	00000000 __rc3
00000011 g       *ABS*	00000000 __rc1
00000030 g       .zp.data	00000000 __zp_data_start
00000300 g       *ABS*	00000000 __zp_data_load_start
00000003 g       *ABS*	00000000 __zp_data_size
00000033 g       .zp.bss	00000000 __zp_bss_start
0000005a g       *ABS*	00000000 __zp_bss_size
00000304 g       .text	00000000 _init
000075a0 g       .text	00000000 __init_array_start
000075a0 g       .text	00000000 __init_array_end
000075a0 g       .text	00000000 __fini_array_start
000075a0 g       .text	00000000 __fini_array_end
0000864f g       .data	00000000 __data_start
0000864f g       .data	00000000 __data_end
0000864f g       *ABS*	00000000 __data_load_start
00000000 g       *ABS*	00000000 __data_size
00008657 g       .bss	00000000 __bss_end
00000008 g       *ABS*	00000000 __bss_size
00008657 g       .noinit	00000000 end_block8
00008657 g       .noinit	00000000 end_block9
00008657 g       .noinit	00000000 end_block10
00008657 g       .noinit	00000000 end_block11
00008657 g       .noinit	00000000 end_block12
00008657 g       .noinit	00000000 end_block13
00008657 g       .noinit	00000000 end_block14
00008657 g       .noinit	00000000 end_block15
00008657 g       .noinit	00000000 end_block16
00008657 g       .noinit	00000000 end_block17
00008657 g       .noinit	00000000 end_block18
00008657 g       .noinit	00000000 end_block19
00008657 g       .noinit	00000000 end_block20
00008657 g       .noinit	00000000 end_block21
00008657 g       .noinit	00000000 end_block22
00008657 g       .noinit	00000000 end_block23

Disassembly of section .text:

00000304 <_start>:
     304: a9 00        	lda	#$0
     306: 85 10        	sta	$10                     ; 0x10 <__rc0>
     308: a9 c0        	lda	#$c0
     30a: 85 11        	sta	$11                     ; 0x11 <__rc1>

0000030c <__do_zero_bss>:
     30c: 20 31 05     	jsr	$531 <__zero_bss>

0000030f <__do_zero_zp_bss>:
     30f: 20 44 05     	jsr	$544 <__zero_zp_bss>

00000312 <__do_copy_zp_data>:
     312: 20 57 05     	jsr	$557 <__copy_zp_data>
     315: 20 0e 09     	jsr	$90e <main>

00000318 <__after_main>:
     318: 4c 79 50     	jmp	$5079 <exit>

0000031b <_fini>:
     31b: 60           	rts

0000031c <_ZN12_GLOBAL__N_19FreeChunk6insertEPvj>:
     31c: 85 16        	sta	$16                     ; 0x16 <__rc6>
     31e: 29 fe        	and	#$fe
     320: 85 14        	sta	$14                     ; 0x14 <__rc4>
     322: a0 01        	ldy	#$1
     324: 98           	tya
     325: 32 12        	and	($12)                   ; 0x12 <__rc2>
     327: 05 14        	ora	$14                     ; 0x14 <__rc4>
     329: 92 12        	sta	($12)                   ; 0x12 <__rc2>
     32b: a5 12        	lda	$12                     ; 0x12 <__rc2>
     32d: 18           	clc
     32e: 65 14        	adc	$14                     ; 0x14 <__rc4>
     330: 85 15        	sta	$15                     ; 0x15 <__rc5>
     332: 8a           	txa
     333: 65 13        	adc	$13                     ; 0x13 <__rc3>
     335: 85 14        	sta	$14                     ; 0x14 <__rc4>
     337: 18           	clc
     338: a5 15        	lda	$15                     ; 0x15 <__rc5>
     33a: 69 fe        	adc	#$fe
     33c: 85 17        	sta	$17                     ; 0x17 <__rc7>
     33e: a5 14        	lda	$14                     ; 0x14 <__rc4>
     340: 69 ff        	adc	#$ff
     342: 85 15        	sta	$15                     ; 0x15 <__rc5>
     344: a5 17        	lda	$17                     ; 0x17 <__rc7>
     346: 85 14        	sta	$14                     ; 0x14 <__rc4>
     348: 8a           	txa
     349: 91 12        	sta	($12),y                 ; 0x12 <__rc2>
     34b: a5 16        	lda	$16                     ; 0x16 <__rc6>
     34d: 92 14        	sta	($14)                   ; 0x14 <__rc4>
     34f: 8a           	txa
     350: 91 14        	sta	($14),y                 ; 0x14 <__rc4>
     352: b1 12        	lda	($12),y                 ; 0x12 <__rc2>
     354: 85 14        	sta	$14                     ; 0x14 <__rc4>
     356: a9 fe        	lda	#$fe
     358: 32 12        	and	($12)                   ; 0x12 <__rc2>
     35a: 18           	clc
     35b: 65 8b        	adc	$8b                     ; 0x8b <_ZN12_GLOBAL__N_19free_sizeE>
     35d: aa           	tax
     35e: a5 14        	lda	$14                     ; 0x14 <__rc4>
     360: 65 8c        	adc	$8c                     ; 0x8c <_ZN12_GLOBAL__N_19free_sizeE+0x1>
     362: a8           	tay
     363: 18           	clc
     364: 8a           	txa
     365: 69 fe        	adc	#$fe
     367: aa           	tax
     368: 98           	tya
     369: 69 ff        	adc	#$ff
     36b: 86 8b        	stx	$8b                     ; 0x8b <_ZN12_GLOBAL__N_19free_sizeE>
     36d: 85 8c        	sta	$8c                     ; 0x8c <_ZN12_GLOBAL__N_19free_sizeE+0x1>
     36f: ae 55 86     	ldx	$8655                   ; 0x8655 <_ZN12_GLOBAL__N_19free_listE>
     372: 86 16        	stx	$16                     ; 0x16 <__rc6>
     374: ac 56 86     	ldy	$8656                   ; 0x8656 <_ZN12_GLOBAL__N_19free_listE+0x1>
     377: a2 00        	ldx	#$0
     379: 86 14        	stx	$14                     ; 0x14 <__rc4>
     37b: a2 00        	ldx	#$0
     37d: 86 15        	stx	$15                     ; 0x15 <__rc5>
     37f: c4 15        	cpy	$15                     ; 0x15 <__rc5>
     381: d0 3e        	bne	$3c1 <_ZN12_GLOBAL__N_19FreeChunk6insertEPvj+0xa5>
     383: a6 16        	ldx	$16                     ; 0x16 <__rc6>
     385: e4 14        	cpx	$14                     ; 0x14 <__rc4>
     387: d0 38        	bne	$3c1 <_ZN12_GLOBAL__N_19FreeChunk6insertEPvj+0xa5>
     389: a0 04        	ldy	#$4
     38b: a5 12        	lda	$12                     ; 0x12 <__rc2>
     38d: 18           	clc
     38e: 69 04        	adc	#$4
     390: 85 14        	sta	$14                     ; 0x14 <__rc4>
     392: a5 13        	lda	$13                     ; 0x13 <__rc3>
     394: 69 00        	adc	#$0
     396: 18           	clc
     397: 85 15        	sta	$15                     ; 0x15 <__rc5>
     399: a5 12        	lda	$12                     ; 0x12 <__rc2>
     39b: 91 12        	sta	($12),y                 ; 0x12 <__rc2>
     39d: a0 02        	ldy	#$2
     39f: 85 17        	sta	$17                     ; 0x17 <__rc7>
     3a1: 69 02        	adc	#$2
     3a3: 85 16        	sta	$16                     ; 0x16 <__rc6>
     3a5: a5 17        	lda	$17                     ; 0x17 <__rc7>
     3a7: 91 12        	sta	($12),y                 ; 0x12 <__rc2>
     3a9: a5 13        	lda	$13                     ; 0x13 <__rc3>
     3ab: 69 00        	adc	#$0
     3ad: 85 17        	sta	$17                     ; 0x17 <__rc7>
     3af: 88           	dey
     3b0: a5 13        	lda	$13                     ; 0x13 <__rc3>
     3b2: 91 14        	sta	($14),y                 ; 0x14 <__rc4>
     3b4: 91 16        	sta	($16),y                 ; 0x16 <__rc6>
     3b6: a6 12        	ldx	$12                     ; 0x12 <__rc2>
     3b8: 8e 55 86     	stx	$8655                   ; 0x8655 <_ZN12_GLOBAL__N_19free_listE>
     3bb: a6 13        	ldx	$13                     ; 0x13 <__rc3>
     3bd: 8e 56 86     	stx	$8656                   ; 0x8656 <_ZN12_GLOBAL__N_19free_listE+0x1>
     3c0: 60           	rts
     3c1: a6 12        	ldx	$12                     ; 0x12 <__rc2>
     3c3: a5 12        	lda	$12                     ; 0x12 <__rc2>
     3c5: 18           	clc
     3c6: 69 02        	adc	#$2
     3c8: 85 14        	sta	$14                     ; 0x14 <__rc4>
     3ca: 84 18        	sty	$18                     ; 0x18 <__rc8>
     3cc: a5 13        	lda	$13                     ; 0x13 <__rc3>
     3ce: 69 00        	adc	#$0
     3d0: 85 15        	sta	$15                     ; 0x15 <__rc5>
     3d2: a5 16        	lda	$16                     ; 0x16 <__rc6>
     3d4: 84 17        	sty	$17                     ; 0x17 <__rc7>
     3d6: a0 02        	ldy	#$2
     3d8: 91 12        	sta	($12),y                 ; 0x12 <__rc2>
     3da: 85 19        	sta	$19                     ; 0x19 <__rc9>
     3dc: 88           	dey
     3dd: a5 18        	lda	$18                     ; 0x18 <__rc8>
     3df: 91 14        	sta	($14),y                 ; 0x14 <__rc4>
     3e1: 18           	clc
     3e2: a5 19        	lda	$19                     ; 0x19 <__rc9>
     3e4: 69 04        	adc	#$4
     3e6: a8           	tay
     3e7: a5 18        	lda	$18                     ; 0x18 <__rc8>
     3e9: 69 00        	adc	#$0
     3eb: 85 19        	sta	$19                     ; 0x19 <__rc9>
     3ed: 84 18        	sty	$18                     ; 0x18 <__rc8>
     3ef: 8a           	txa
     3f0: 18           	clc
     3f1: 69 04        	adc	#$4
     3f3: 85 1a        	sta	$1a                     ; 0x1a <__rc10>
     3f5: a5 13        	lda	$13                     ; 0x13 <__rc3>
     3f7: 69 00        	adc	#$0
     3f9: 85 1b        	sta	$1b                     ; 0x1b <__rc11>
     3fb: a0 04        	ldy	#$4
     3fd: b1 16        	lda	($16),y                 ; 0x16 <__rc6>
     3ff: 85 16        	sta	$16                     ; 0x16 <__rc6>
     401: 85 1d        	sta	$1d                     ; 0x1d <__rc13>
     403: a0 01        	ldy	#$1
     405: b1 18        	lda	($18),y                 ; 0x18 <__rc8>
     407: 85 17        	sta	$17                     ; 0x17 <__rc7>
     409: 85 19        	sta	$19                     ; 0x19 <__rc9>
     40b: a0 04        	ldy	#$4
     40d: a5 1d        	lda	$1d                     ; 0x1d <__rc13>
     40f: 91 12        	sta	($12),y                 ; 0x12 <__rc2>
     411: a5 19        	lda	$19                     ; 0x19 <__rc9>
     413: a0 01        	ldy	#$1
     415: 91 1a        	sta	($1a),y                 ; 0x1a <__rc10>
     417: 18           	clc
     418: a5 1d        	lda	$1d                     ; 0x1d <__rc13>
     41a: 69 02        	adc	#$2
     41c: 85 18        	sta	$18                     ; 0x18 <__rc8>
     41e: a5 19        	lda	$19                     ; 0x19 <__rc9>
     420: 69 00        	adc	#$0
     422: 85 19        	sta	$19                     ; 0x19 <__rc9>
     424: 8a           	txa
     425: c8           	iny
     426: 91 16        	sta	($16),y                 ; 0x16 <__rc6>
     428: a5 13        	lda	$13                     ; 0x13 <__rc3>
     42a: 88           	dey
     42b: 91 18        	sta	($18),y                 ; 0x18 <__rc8>
     42d: c8           	iny
     42e: b1 12        	lda	($12),y                 ; 0x12 <__rc2>
     430: 85 16        	sta	$16                     ; 0x16 <__rc6>
     432: 85 18        	sta	$18                     ; 0x18 <__rc8>
     434: 88           	dey
     435: b1 14        	lda	($14),y                 ; 0x14 <__rc4>
     437: 85 17        	sta	$17                     ; 0x17 <__rc7>
     439: 85 14        	sta	$14                     ; 0x14 <__rc4>
     43b: 8a           	txa
     43c: a0 04        	ldy	#$4
     43e: 91 16        	sta	($16),y                 ; 0x16 <__rc6>
     440: 18           	clc
     441: a5 18        	lda	$18                     ; 0x18 <__rc8>
     443: 69 04        	adc	#$4
     445: a8           	tay
     446: a5 14        	lda	$14                     ; 0x14 <__rc4>
     448: 69 00        	adc	#$0
     44a: 84 14        	sty	$14                     ; 0x14 <__rc4>
     44c: 85 15        	sta	$15                     ; 0x15 <__rc5>
     44e: a5 13        	lda	$13                     ; 0x13 <__rc3>
     450: a0 01        	ldy	#$1
     452: 91 14        	sta	($14),y                 ; 0x14 <__rc4>
     454: 60           	rts
     455: 00           	brk

00000456 <_ZN12_GLOBAL__N_19FreeChunk6removeEv>:
     456: a0 01        	ldy	#$1
     458: a9 fe        	lda	#$fe
     45a: 32 12        	and	($12)                   ; 0x12 <__rc2>
     45c: 85 14        	sta	$14                     ; 0x14 <__rc4>
     45e: a5 8b        	lda	$8b                     ; 0x8b <_ZN12_GLOBAL__N_19free_sizeE>
     460: a6 8c        	ldx	$8c                     ; 0x8c <_ZN12_GLOBAL__N_19free_sizeE+0x1>
     462: 86 15        	stx	$15                     ; 0x15 <__rc5>
     464: 38           	sec
     465: e5 14        	sbc	$14                     ; 0x14 <__rc4>
     467: aa           	tax
     468: a5 15        	lda	$15                     ; 0x15 <__rc5>
     46a: f1 12        	sbc	($12),y                 ; 0x12 <__rc2>
     46c: 85 14        	sta	$14                     ; 0x14 <__rc4>
     46e: 18           	clc
     46f: 8a           	txa
     470: 69 02        	adc	#$2
     472: 85 15        	sta	$15                     ; 0x15 <__rc5>
     474: a5 14        	lda	$14                     ; 0x14 <__rc4>
     476: 69 00        	adc	#$0
     478: a6 15        	ldx	$15                     ; 0x15 <__rc5>
     47a: 86 8b        	stx	$8b                     ; 0x8b <_ZN12_GLOBAL__N_19free_sizeE>
     47c: 85 8c        	sta	$8c                     ; 0x8c <_ZN12_GLOBAL__N_19free_sizeE+0x1>
     47e: a5 12        	lda	$12                     ; 0x12 <__rc2>
     480: 18           	clc
     481: 69 02        	adc	#$2
     483: 85 14        	sta	$14                     ; 0x14 <__rc4>
     485: a5 13        	lda	$13                     ; 0x13 <__rc3>
     487: 69 00        	adc	#$0
     489: c8           	iny
     48a: 85 15        	sta	$15                     ; 0x15 <__rc5>
     48c: b1 12        	lda	($12),y                 ; 0x12 <__rc2>
     48e: aa           	tax
     48f: 88           	dey
     490: b1 14        	lda	($14),y                 ; 0x14 <__rc4>
     492: 85 19        	sta	$19                     ; 0x19 <__rc9>
     494: c5 13        	cmp	$13                     ; 0x13 <__rc3>
     496: d0 0f        	bne	$4a7 <_ZN12_GLOBAL__N_19FreeChunk6removeEv+0x51>
     498: e4 12        	cpx	$12                     ; 0x12 <__rc2>
     49a: d0 0b        	bne	$4a7 <_ZN12_GLOBAL__N_19FreeChunk6removeEv+0x51>
     49c: a2 00        	ldx	#$0
     49e: 86 14        	stx	$14                     ; 0x14 <__rc4>
     4a0: a2 00        	ldx	#$0
     4a2: 86 15        	stx	$15                     ; 0x15 <__rc5>
     4a4: 4c 26 05     	jmp	$526 <_ZN12_GLOBAL__N_19FreeChunk6removeEv+0xd0>
     4a7: 86 18        	stx	$18                     ; 0x18 <__rc8>
     4a9: a6 12        	ldx	$12                     ; 0x12 <__rc2>
     4ab: a5 12        	lda	$12                     ; 0x12 <__rc2>
     4ad: 86 1b        	stx	$1b                     ; 0x1b <__rc11>
     4af: 18           	clc
     4b0: 69 04        	adc	#$4
     4b2: 85 14        	sta	$14                     ; 0x14 <__rc4>
     4b4: a5 13        	lda	$13                     ; 0x13 <__rc3>
     4b6: 69 00        	adc	#$0
     4b8: a0 04        	ldy	#$4
     4ba: 85 15        	sta	$15                     ; 0x15 <__rc5>
     4bc: b1 12        	lda	($12),y                 ; 0x12 <__rc2>
     4be: 85 1c        	sta	$1c                     ; 0x1c <__rc12>
     4c0: 18           	clc
     4c1: 69 02        	adc	#$2
     4c3: 85 16        	sta	$16                     ; 0x16 <__rc6>
     4c5: a0 01        	ldy	#$1
     4c7: b1 14        	lda	($14),y                 ; 0x14 <__rc4>
     4c9: aa           	tax
     4ca: 69 00        	adc	#$0
     4cc: a4 16        	ldy	$16                     ; 0x16 <__rc6>
     4ce: 84 14        	sty	$14                     ; 0x14 <__rc4>
     4d0: 85 15        	sta	$15                     ; 0x15 <__rc5>
     4d2: a4 1c        	ldy	$1c                     ; 0x1c <__rc12>
     4d4: 84 16        	sty	$16                     ; 0x16 <__rc6>
     4d6: 86 17        	stx	$17                     ; 0x17 <__rc7>
     4d8: a0 02        	ldy	#$2
     4da: a5 18        	lda	$18                     ; 0x18 <__rc8>
     4dc: 91 16        	sta	($16),y                 ; 0x16 <__rc6>
     4de: a5 19        	lda	$19                     ; 0x19 <__rc9>
     4e0: 88           	dey
     4e1: 91 14        	sta	($14),y                 ; 0x14 <__rc4>
     4e3: 18           	clc
     4e4: a5 1b        	lda	$1b                     ; 0x1b <__rc11>
     4e6: 69 02        	adc	#$2
     4e8: 85 14        	sta	$14                     ; 0x14 <__rc4>
     4ea: a5 13        	lda	$13                     ; 0x13 <__rc3>
     4ec: 69 00        	adc	#$0
     4ee: 85 15        	sta	$15                     ; 0x15 <__rc5>
     4f0: c8           	iny
     4f1: b1 12        	lda	($12),y                 ; 0x12 <__rc2>
     4f3: 85 16        	sta	$16                     ; 0x16 <__rc6>
     4f5: 88           	dey
     4f6: b1 14        	lda	($14),y                 ; 0x14 <__rc4>
     4f8: a4 16        	ldy	$16                     ; 0x16 <__rc6>
     4fa: 84 14        	sty	$14                     ; 0x14 <__rc4>
     4fc: 85 15        	sta	$15                     ; 0x15 <__rc5>
     4fe: 85 17        	sta	$17                     ; 0x17 <__rc7>
     500: a0 04        	ldy	#$4
     502: a5 1c        	lda	$1c                     ; 0x1c <__rc12>
     504: 91 14        	sta	($14),y                 ; 0x14 <__rc4>
     506: 18           	clc
     507: a5 16        	lda	$16                     ; 0x16 <__rc6>
     509: 69 04        	adc	#$4
     50b: 85 16        	sta	$16                     ; 0x16 <__rc6>
     50d: a5 17        	lda	$17                     ; 0x17 <__rc7>
     50f: 69 00        	adc	#$0
     511: 85 17        	sta	$17                     ; 0x17 <__rc7>
     513: 8a           	txa
     514: a0 01        	ldy	#$1
     516: 91 16        	sta	($16),y                 ; 0x16 <__rc6>
     518: ae 56 86     	ldx	$8656                   ; 0x8656 <_ZN12_GLOBAL__N_19free_listE+0x1>
     51b: e4 13        	cpx	$13                     ; 0x13 <__rc3>
     51d: d0 11        	bne	$530 <_ZN12_GLOBAL__N_19FreeChunk6removeEv+0xda>
     51f: ae 55 86     	ldx	$8655                   ; 0x8655 <_ZN12_GLOBAL__N_19free_listE>
     522: e4 12        	cpx	$12                     ; 0x12 <__rc2>
     524: d0 0a        	bne	$530 <_ZN12_GLOBAL__N_19FreeChunk6removeEv+0xda>
     526: a6 14        	ldx	$14                     ; 0x14 <__rc4>
     528: a4 15        	ldy	$15                     ; 0x15 <__rc5>
     52a: 8e 55 86     	stx	$8655                   ; 0x8655 <_ZN12_GLOBAL__N_19free_listE>
     52d: 8c 56 86     	sty	$8656                   ; 0x8656 <_ZN12_GLOBAL__N_19free_listE+0x1>
     530: 60           	rts

00000531 <__zero_bss>:
     531: a2 08        	ldx	#$8
     533: a0 00        	ldy	#$0
     535: a9 4f        	lda	#$4f
     537: 85 12        	sta	$12                     ; 0x12 <__rc2>
     539: a9 86        	lda	#$86
     53b: 85 13        	sta	$13                     ; 0x13 <__rc3>
     53d: a9 00        	lda	#$0
     53f: 84 14        	sty	$14                     ; 0x14 <__rc4>
     541: 4c 90 60     	jmp	$6090 <__memset>

00000544 <__zero_zp_bss>:
     544: a2 5a        	ldx	#$5a
     546: a0 00        	ldy	#$0
     548: a9 33        	lda	#$33
     54a: 85 12        	sta	$12                     ; 0x12 <__rc2>
     54c: a9 00        	lda	#$0
     54e: 85 13        	sta	$13                     ; 0x13 <__rc3>
     550: a9 00        	lda	#$0
     552: 84 14        	sty	$14                     ; 0x14 <__rc4>
     554: 4c 90 60     	jmp	$6090 <__memset>

00000557 <__copy_zp_data>:
     557: a9 03        	lda	#$3
     559: a2 00        	ldx	#$0
     55b: a0 30        	ldy	#$30
     55d: 84 12        	sty	$12                     ; 0x12 <__rc2>
     55f: a0 00        	ldy	#$0
     561: 84 13        	sty	$13                     ; 0x13 <__rc3>
     563: a0 00        	ldy	#$0
     565: 84 14        	sty	$14                     ; 0x14 <__rc4>
     567: a0 03        	ldy	#$3
     569: 84 15        	sty	$15                     ; 0x15 <__rc5>
     56b: 4c 64 60     	jmp	$6064 <memcpy>

0000056e <f256Init>:
     56e: 64 14        	stz	$14                     ; 0x14 <__rc4>
     570: a2 00        	ldx	#$0
     572: 86 12        	stx	$12                     ; 0x12 <__rc2>
     574: a2 c0        	ldx	#$c0
     576: 86 13        	stx	$13                     ; 0x13 <__rc3>
     578: 64 01        	stz	$1                      ; 0x1 <__data_size+0x1>
     57a: a2 3f        	ldx	#$3f
     57c: 8e 00 d0     	stx	$d000                   ; 0xd000 <__heap_start+0x49a8>
     57f: a2 b3        	ldx	#$b3
     581: 86 00        	stx	$0                      ; 0x0 <__data_size>
     583: 64 08        	stz	$8                      ; 0x8 <__bss_size>
     585: a2 01        	ldx	#$1
     587: 86 09        	stx	$9                      ; 0x9 <__bss_size+0x1>
     589: e8           	inx
     58a: 86 0a        	stx	$a                      ; 0xa <__bss_size+0x2>
     58c: e8           	inx
     58d: 86 0b        	stx	$b                      ; 0xb <__bss_size+0x3>
     58f: e8           	inx
     590: 86 0c        	stx	$c                      ; 0xc <__bss_size+0x4>
     592: e8           	inx
     593: 86 0d        	stx	$d                      ; 0xd <__bss_size+0x5>
     595: a2 83        	ldx	#$83
     597: a0 00        	ldy	#$0
     599: 86 f0        	stx	$f0                     ; 0xf0 <__zp_bss_size+0x96>
     59b: 84 f1        	sty	$f1                     ; 0xf1 <__zp_bss_size+0x97>
     59d: a2 00        	ldx	#$0
     59f: 86 18        	stx	$18                     ; 0x18 <__rc8>
     5a1: ca           	dex
     5a2: 86 19        	stx	$19                     ; 0x19 <__rc9>
     5a4: 8a           	txa
     5a5: 0a           	asl
     5a6: 0a           	asl
     5a7: 18           	clc
     5a8: 69 d4        	adc	#$d4
     5aa: 85 1a        	sta	$1a                     ; 0x1a <__rc10>
     5ac: a0 00        	ldy	#$0
     5ae: 64 17        	stz	$17                     ; 0x17 <__rc7>
     5b0: 64 16        	stz	$16                     ; 0x16 <__rc6>
     5b2: a6 19        	ldx	$19                     ; 0x19 <__rc9>
     5b4: e0 03        	cpx	#$3
     5b6: a6 01        	ldx	$1                      ; 0x1 <__data_size+0x1>
     5b8: 86 1c        	stx	$1c                     ; 0x1c <__rc12>
     5ba: a2 d0        	ldx	#$d0
     5bc: 84 1b        	sty	$1b                     ; 0x1b <__rc11>
     5be: b0 02        	bcs	$5c2 <f256Init+0x54>
     5c0: a6 1a        	ldx	$1a                     ; 0x1a <__rc10>
     5c2: 86 15        	stx	$15                     ; 0x15 <__rc5>
     5c4: a5 17        	lda	$17                     ; 0x17 <__rc7>
     5c6: 18           	clc
     5c7: 65 14        	adc	$14                     ; 0x14 <__rc4>
     5c9: a8           	tay
     5ca: a6 17        	ldx	$17                     ; 0x17 <__rc7>
     5cc: a5 16        	lda	$16                     ; 0x16 <__rc6>
     5ce: 85 1d        	sta	$1d                     ; 0x1d <__rc13>
     5d0: a5 16        	lda	$16                     ; 0x16 <__rc6>
     5d2: 65 15        	adc	$15                     ; 0x15 <__rc5>
     5d4: 84 16        	sty	$16                     ; 0x16 <__rc6>
     5d6: a0 01        	ldy	#$1
     5d8: 84 01        	sty	$1                      ; 0x1 <__data_size+0x1>
     5da: 85 17        	sta	$17                     ; 0x17 <__rc7>
     5dc: a5 1b        	lda	$1b                     ; 0x1b <__rc11>
     5de: 92 16        	sta	($16)                   ; 0x16 <__rc6>
     5e0: 91 16        	sta	($16),y                 ; 0x16 <__rc6>
     5e2: c8           	iny
     5e3: 91 16        	sta	($16),y                 ; 0x16 <__rc6>
     5e5: 85 15        	sta	$15                     ; 0x15 <__rc5>
     5e7: c8           	iny
     5e8: a9 ff        	lda	#$ff
     5ea: 91 16        	sta	($16),y                 ; 0x16 <__rc6>
     5ec: 8a           	txa
     5ed: a6 1c        	ldx	$1c                     ; 0x1c <__rc12>
     5ef: 86 01        	stx	$1                      ; 0x1 <__data_size+0x1>
     5f1: 18           	clc
     5f2: 69 04        	adc	#$4
     5f4: 85 17        	sta	$17                     ; 0x17 <__rc7>
     5f6: a5 1d        	lda	$1d                     ; 0x1d <__rc13>
     5f8: 69 00        	adc	#$0
     5fa: e6 15        	inc	$15                     ; 0x15 <__rc5>
     5fc: a4 15        	ldy	$15                     ; 0x15 <__rc5>
     5fe: 85 16        	sta	$16                     ; 0x16 <__rc6>
     600: c9 04        	cmp	#$4
     602: f0 03        	beq	$607 <f256Init+0x99>
     604: 4c b2 05     	jmp	$5b2 <f256Init+0x44>
     607: a5 17        	lda	$17                     ; 0x17 <__rc7>
     609: f0 03        	beq	$60e <f256Init+0xa0>
     60b: 4c b2 05     	jmp	$5b2 <f256Init+0x44>
     60e: a6 18        	ldx	$18                     ; 0x18 <__rc8>
     610: e8           	inx
     611: e0 04        	cpx	#$4
     613: f0 03        	beq	$618 <f256Init+0xaa>
     615: 4c 9f 05     	jmp	$59f <f256Init+0x31>
     618: ad 02 d0     	lda	$d002                   ; 0xd002 <__heap_start+0x49aa>
     61b: a2 f0        	ldx	#$f0
     61d: 29 f0        	and	#$f0
     61f: 8d 02 d0     	sta	$d002                   ; 0xd002 <__heap_start+0x49aa>
     622: ad 02 d0     	lda	$d002                   ; 0xd002 <__heap_start+0x49aa>
     625: 29 0f        	and	#$f
     627: 09 10        	ora	#$10
     629: 8d 02 d0     	sta	$d002                   ; 0xd002 <__heap_start+0x49aa>
     62c: a0 02        	ldy	#$2
     62e: 8c 03 d0     	sty	$d003                   ; 0xd003 <__heap_start+0x49ab>
     631: 86 30        	stx	$30                     ; 0x30 <_ccolor>
     633: ad 01 d0     	lda	$d001                   ; 0xd001 <__heap_start+0x49a9>
     636: 29 f9        	and	#$f9
     638: 09 04        	ora	#$4
     63a: 8d 01 d0     	sta	$d001                   ; 0xd001 <__heap_start+0x49a9>
     63d: 64 14        	stz	$14                     ; 0x14 <__rc4>
     63f: 9c 10 d0     	stz	$d010                   ; 0xd010 <__heap_start+0x49b8>
     642: a2 00        	ldx	#$0
     644: 64 15        	stz	$15                     ; 0x15 <__rc5>
     646: 86 18        	stx	$18                     ; 0x18 <__rc8>
     648: a4 18        	ldy	$18                     ; 0x18 <__rc8>
     64a: be 6d 82     	ldx	$826d,y                 ; 0x826d <textColors>
     64d: 86 19        	stx	$19                     ; 0x19 <__rc9>
     64f: be 6e 82     	ldx	$826e,y                 ; 0x826e <textColors+0x1>
     652: 86 1a        	stx	$1a                     ; 0x1a <__rc10>
     654: be 6f 82     	ldx	$826f,y                 ; 0x826f <textColors+0x2>
     657: 86 1b        	stx	$1b                     ; 0x1b <__rc11>
     659: a6 15        	ldx	$15                     ; 0x15 <__rc5>
     65b: 8e 00 de     	stx	$de00                   ; 0xde00 <__heap_start+0x57a8>
     65e: 86 17        	stx	$17                     ; 0x17 <__rc7>
     660: 9c 01 de     	stz	$de01                   ; 0xde01 <__heap_start+0x57a9>
     663: a2 04        	ldx	#$4
     665: 8e 02 de     	stx	$de02                   ; 0xde02 <__heap_start+0x57aa>
     668: 9c 03 de     	stz	$de03                   ; 0xde03 <__heap_start+0x57ab>
     66b: ad 10 de     	lda	$de10                   ; 0xde10 <__heap_start+0x57b8>
     66e: ac 11 de     	ldy	$de11                   ; 0xde11 <__heap_start+0x57b9>
     671: 84 15        	sty	$15                     ; 0x15 <__rc5>
     673: ac 12 de     	ldy	$de12                   ; 0xde12 <__heap_start+0x57ba>
     676: ac 13 de     	ldy	$de13                   ; 0xde13 <__heap_start+0x57bb>
     679: 18           	clc
     67a: 65 14        	adc	$14                     ; 0x14 <__rc4>
     67c: 85 16        	sta	$16                     ; 0x16 <__rc6>
     67e: a6 17        	ldx	$17                     ; 0x17 <__rc7>
     680: a9 d8        	lda	#$d8
     682: 65 15        	adc	$15                     ; 0x15 <__rc5>
     684: 85 17        	sta	$17                     ; 0x17 <__rc7>
     686: a5 1b        	lda	$1b                     ; 0x1b <__rc11>
     688: 92 16        	sta	($16)                   ; 0x16 <__rc6>
     68a: a0 01        	ldy	#$1
     68c: a5 1a        	lda	$1a                     ; 0x1a <__rc10>
     68e: 91 16        	sta	($16),y                 ; 0x16 <__rc6>
     690: c8           	iny
     691: a5 19        	lda	$19                     ; 0x19 <__rc9>
     693: 91 16        	sta	($16),y                 ; 0x16 <__rc6>
     695: c8           	iny
     696: a9 ff        	lda	#$ff
     698: 91 16        	sta	($16),y                 ; 0x16 <__rc6>
     69a: 8e 00 de     	stx	$de00                   ; 0xde00 <__heap_start+0x57a8>
     69d: 9c 01 de     	stz	$de01                   ; 0xde01 <__heap_start+0x57a9>
     6a0: c8           	iny
     6a1: 8c 02 de     	sty	$de02                   ; 0xde02 <__heap_start+0x57aa>
     6a4: 9c 03 de     	stz	$de03                   ; 0xde03 <__heap_start+0x57ab>
     6a7: ad 10 de     	lda	$de10                   ; 0xde10 <__heap_start+0x57b8>
     6aa: 85 15        	sta	$15                     ; 0x15 <__rc5>
     6ac: ad 11 de     	lda	$de11                   ; 0xde11 <__heap_start+0x57b9>
     6af: 85 16        	sta	$16                     ; 0x16 <__rc6>
     6b1: a9 40        	lda	#$40
     6b3: 18           	clc
     6b4: 65 15        	adc	$15                     ; 0x15 <__rc5>
     6b6: a8           	tay
     6b7: a9 d8        	lda	#$d8
     6b9: 65 16        	adc	$16                     ; 0x16 <__rc6>
     6bb: 85 17        	sta	$17                     ; 0x17 <__rc7>
     6bd: 84 16        	sty	$16                     ; 0x16 <__rc6>
     6bf: ad 12 de     	lda	$de12                   ; 0xde12 <__heap_start+0x57ba>
     6c2: ad 13 de     	lda	$de13                   ; 0xde13 <__heap_start+0x57bb>
     6c5: a5 1b        	lda	$1b                     ; 0x1b <__rc11>
     6c7: 92 16        	sta	($16)                   ; 0x16 <__rc6>
     6c9: a5 1a        	lda	$1a                     ; 0x1a <__rc10>
     6cb: a0 01        	ldy	#$1
     6cd: 91 16        	sta	($16),y                 ; 0x16 <__rc6>
     6cf: a5 19        	lda	$19                     ; 0x19 <__rc9>
     6d1: c8           	iny
     6d2: 91 16        	sta	($16),y                 ; 0x16 <__rc6>
     6d4: c8           	iny
     6d5: a9 ff        	lda	#$ff
     6d7: 91 16        	sta	($16),y                 ; 0x16 <__rc6>
     6d9: e8           	inx
     6da: 86 15        	stx	$15                     ; 0x15 <__rc5>
     6dc: 18           	clc
     6dd: a5 18        	lda	$18                     ; 0x18 <__rc8>
     6df: 69 03        	adc	#$3
     6e1: aa           	tax
     6e2: c9 30        	cmp	#$30
     6e4: f0 03        	beq	$6e9 <f256Init+0x17b>
     6e6: 4c 46 06     	jmp	$646 <f256Init+0xd8>
     6e9: a6 01        	ldx	$1                      ; 0x1 <__data_size+0x1>
     6eb: 86 18        	stx	$18                     ; 0x18 <__rc8>
     6ed: a2 50        	ldx	#$50
     6ef: 8e 00 de     	stx	$de00                   ; 0xde00 <__heap_start+0x57a8>
     6f2: 9c 01 de     	stz	$de01                   ; 0xde01 <__heap_start+0x57a9>
     6f5: a2 1e        	ldx	#$1e
     6f7: 8e 02 de     	stx	$de02                   ; 0xde02 <__heap_start+0x57aa>
     6fa: 9c 03 de     	stz	$de03                   ; 0xde03 <__heap_start+0x57ab>
     6fd: ae 10 de     	ldx	$de10                   ; 0xde10 <__heap_start+0x57b8>
     700: ac 11 de     	ldy	$de11                   ; 0xde11 <__heap_start+0x57b9>
     703: ad 12 de     	lda	$de12                   ; 0xde12 <__heap_start+0x57ba>
     706: ad 13 de     	lda	$de13                   ; 0xde13 <__heap_start+0x57bb>
     709: a9 02        	lda	#$2
     70b: 85 01        	sta	$1                      ; 0x1 <__data_size+0x1>
     70d: e0 01        	cpx	#$1
     70f: 98           	tya
     710: e9 00        	sbc	#$0
     712: 50 02        	bvc	$716 <f256Init+0x1a8>
     714: 49 80        	eor	#$80
     716: c9 00        	cmp	#$0
     718: 30 4c        	bmi	$766 <f256Init+0x1f8>
     71a: a9 20        	lda	#$20
     71c: 86 19        	stx	$19                     ; 0x19 <__rc9>
     71e: 86 14        	stx	$14                     ; 0x14 <__rc4>
     720: 84 15        	sty	$15                     ; 0x15 <__rc5>
     722: a2 00        	ldx	#$0
     724: 86 16        	stx	$16                     ; 0x16 <__rc6>
     726: a2 c0        	ldx	#$c0
     728: 86 17        	stx	$17                     ; 0x17 <__rc7>
     72a: 92 16        	sta	($16)                   ; 0x16 <__rc6>
     72c: e6 16        	inc	$16                     ; 0x16 <__rc6>
     72e: d0 02        	bne	$732 <f256Init+0x1c4>
     730: e6 17        	inc	$17                     ; 0x17 <__rc7>
     732: a2 ff        	ldx	#$ff
     734: c6 14        	dec	$14                     ; 0x14 <__rc4>
     736: e4 14        	cpx	$14                     ; 0x14 <__rc4>
     738: d0 02        	bne	$73c <f256Init+0x1ce>
     73a: c6 15        	dec	$15                     ; 0x15 <__rc5>
     73c: a6 15        	ldx	$15                     ; 0x15 <__rc5>
     73e: d0 ea        	bne	$72a <f256Init+0x1bc>
     740: a6 14        	ldx	$14                     ; 0x14 <__rc4>
     742: d0 e6        	bne	$72a <f256Init+0x1bc>
     744: a2 03        	ldx	#$3
     746: 86 01        	stx	$1                      ; 0x1 <__data_size+0x1>
     748: a6 30        	ldx	$30                     ; 0x30 <_ccolor>
     74a: 86 14        	stx	$14                     ; 0x14 <__rc4>
     74c: a6 19        	ldx	$19                     ; 0x19 <__rc9>
     74e: a5 14        	lda	$14                     ; 0x14 <__rc4>
     750: 92 12        	sta	($12)                   ; 0x12 <__rc2>
     752: e6 12        	inc	$12                     ; 0x12 <__rc2>
     754: d0 02        	bne	$758 <f256Init+0x1ea>
     756: e6 13        	inc	$13                     ; 0x13 <__rc3>
     758: ca           	dex
     759: e0 ff        	cpx	#$ff
     75b: d0 01        	bne	$75e <f256Init+0x1f0>
     75d: 88           	dey
     75e: 98           	tya
     75f: d0 ed        	bne	$74e <f256Init+0x1e0>
     761: 8a           	txa
     762: d0 ea        	bne	$74e <f256Init+0x1e0>
     764: 80 04        	bra	$76a <f256Init+0x1fc>
     766: a2 03        	ldx	#$3
     768: 86 01        	stx	$1                      ; 0x1 <__data_size+0x1>
     76a: a6 18        	ldx	$18                     ; 0x18 <__rc8>
     76c: 86 01        	stx	$1                      ; 0x1 <__data_size+0x1>
     76e: 64 33        	stz	$33                     ; 0x33 <_col>
     770: 9c 14 d0     	stz	$d014                   ; 0xd014 <__heap_start+0x49bc>
     773: 9c 15 d0     	stz	$d015                   ; 0xd015 <__heap_start+0x49bd>
     776: 64 34        	stz	$34                     ; 0x34 <_row>
     778: 9c 16 d0     	stz	$d016                   ; 0xd016 <__heap_start+0x49be>
     77b: 9c 17 d0     	stz	$d017                   ; 0xd017 <__heap_start+0x49bf>
     77e: a2 40        	ldx	#$40
     780: 8e 00 de     	stx	$de00                   ; 0xde00 <__heap_start+0x57a8>
     783: a2 01        	ldx	#$1
     785: 8e 01 de     	stx	$de01                   ; 0xde01 <__heap_start+0x57a9>
     788: a2 f0        	ldx	#$f0
     78a: 8e 02 de     	stx	$de02                   ; 0xde02 <__heap_start+0x57aa>
     78d: 9c 03 de     	stz	$de03                   ; 0xde03 <__heap_start+0x57ab>
     790: ae 10 de     	ldx	$de10                   ; 0xde10 <__heap_start+0x57b8>
     793: 86 17        	stx	$17                     ; 0x17 <__rc7>
     795: ae 11 de     	ldx	$de11                   ; 0xde11 <__heap_start+0x57b9>
     798: 86 12        	stx	$12                     ; 0x12 <__rc2>
     79a: ae 12 de     	ldx	$de12                   ; 0xde12 <__heap_start+0x57ba>
     79d: 86 13        	stx	$13                     ; 0x13 <__rc3>
     79f: ae 13 de     	ldx	$de13                   ; 0xde13 <__heap_start+0x57bb>
     7a2: 86 14        	stx	$14                     ; 0x14 <__rc4>
     7a4: a4 12        	ldy	$12                     ; 0x12 <__rc2>
     7a6: 84 15        	sty	$15                     ; 0x15 <__rc5>
     7a8: 06 15        	asl	$15                     ; 0x15 <__rc5>
     7aa: a5 13        	lda	$13                     ; 0x13 <__rc3>
     7ac: 2a           	rol
     7ad: 86 16        	stx	$16                     ; 0x16 <__rc6>
     7af: 26 16        	rol	$16                     ; 0x16 <__rc6>
     7b1: 06 15        	asl	$15                     ; 0x15 <__rc5>
     7b3: 2a           	rol
     7b4: 26 16        	rol	$16                     ; 0x16 <__rc6>
     7b6: 06 15        	asl	$15                     ; 0x15 <__rc5>
     7b8: 2a           	rol
     7b9: 26 16        	rol	$16                     ; 0x16 <__rc6>
     7bb: 85 15        	sta	$15                     ; 0x15 <__rc5>
     7bd: 8d 00 de     	sta	$de00                   ; 0xde00 <__heap_start+0x57a8>
     7c0: a5 16        	lda	$16                     ; 0x16 <__rc6>
     7c2: 8d 01 de     	sta	$de01                   ; 0xde01 <__heap_start+0x57a9>
     7c5: 9c 02 de     	stz	$de02                   ; 0xde02 <__heap_start+0x57aa>
     7c8: a2 20        	ldx	#$20
     7ca: 8e 03 de     	stx	$de03                   ; 0xde03 <__heap_start+0x57ab>
     7cd: ae 10 de     	ldx	$de10                   ; 0xde10 <__heap_start+0x57b8>
     7d0: 86 16        	stx	$16                     ; 0x16 <__rc6>
     7d2: ae 11 de     	ldx	$de11                   ; 0xde11 <__heap_start+0x57b9>
     7d5: 86 18        	stx	$18                     ; 0x18 <__rc8>
     7d7: ac 12 de     	ldy	$de12                   ; 0xde12 <__heap_start+0x57ba>
     7da: ae 13 de     	ldx	$de13                   ; 0xde13 <__heap_start+0x57bb>
     7dd: e4 14        	cpx	$14                     ; 0x14 <__rc4>
     7df: d0 14        	bne	$7f5 <f256Init+0x287>
     7e1: c4 13        	cpy	$13                     ; 0x13 <__rc3>
     7e3: d0 10        	bne	$7f5 <f256Init+0x287>
     7e5: a6 18        	ldx	$18                     ; 0x18 <__rc8>
     7e7: e4 12        	cpx	$12                     ; 0x12 <__rc2>
     7e9: d0 0a        	bne	$7f5 <f256Init+0x287>
     7eb: a6 16        	ldx	$16                     ; 0x16 <__rc6>
     7ed: e4 17        	cpx	$17                     ; 0x17 <__rc7>
     7ef: d0 04        	bne	$7f5 <f256Init+0x287>
     7f1: a6 15        	ldx	$15                     ; 0x15 <__rc5>
     7f3: 80 06        	bra	$7fb <f256Init+0x28d>
     7f5: a6 15        	ldx	$15                     ; 0x15 <__rc5>
     7f7: e8           	inx
     7f8: d0 01        	bne	$7fb <f256Init+0x28d>
     7fa: 1a           	inc
     7fb: 8e 00 de     	stx	$de00                   ; 0xde00 <__heap_start+0x57a8>
     7fe: 8d 01 de     	sta	$de01                   ; 0xde01 <__heap_start+0x57a9>
     801: 9c 02 de     	stz	$de02                   ; 0xde02 <__heap_start+0x57aa>
     804: a2 20        	ldx	#$20
     806: 8e 03 de     	stx	$de03                   ; 0xde03 <__heap_start+0x57ab>
     809: ae 10 de     	ldx	$de10                   ; 0xde10 <__heap_start+0x57b8>
     80c: 86 12        	stx	$12                     ; 0x12 <__rc2>
     80e: ae 11 de     	ldx	$de11                   ; 0xde11 <__heap_start+0x57b9>
     811: 86 13        	stx	$13                     ; 0x13 <__rc3>
     813: ae 12 de     	ldx	$de12                   ; 0xde12 <__heap_start+0x57ba>
     816: 86 14        	stx	$14                     ; 0x14 <__rc4>
     818: ae 13 de     	ldx	$de13                   ; 0xde13 <__heap_start+0x57bb>
     81b: 86 15        	stx	$15                     ; 0x15 <__rc5>
     81d: a9 00        	lda	#$0
     81f: 38           	sec
     820: e5 12        	sbc	$12                     ; 0x12 <__rc2>
     822: 85 17        	sta	$17                     ; 0x17 <__rc7>
     824: a9 00        	lda	#$0
     826: e5 13        	sbc	$13                     ; 0x13 <__rc3>
     828: aa           	tax
     829: a9 08        	lda	#$8
     82b: e5 14        	sbc	$14                     ; 0x14 <__rc4>
     82d: 85 16        	sta	$16                     ; 0x16 <__rc6>
     82f: a9 00        	lda	#$0
     831: e5 15        	sbc	$15                     ; 0x15 <__rc5>
     833: 8e 50 86     	stx	$8650                   ; 0x8650 <__bss_start+0x1>
     836: a4 16        	ldy	$16                     ; 0x16 <__rc6>
     838: 8c 51 86     	sty	$8651                   ; 0x8651 <__bss_start+0x2>
     83b: 8d 52 86     	sta	$8652                   ; 0x8652 <__bss_start+0x3>
     83e: 38           	sec
     83f: a5 17        	lda	$17                     ; 0x17 <__rc7>
     841: e5 12        	sbc	$12                     ; 0x12 <__rc2>
     843: a8           	tay
     844: 8a           	txa
     845: e5 13        	sbc	$13                     ; 0x13 <__rc3>
     847: 85 18        	sta	$18                     ; 0x18 <__rc8>
     849: a5 16        	lda	$16                     ; 0x16 <__rc6>
     84b: e5 14        	sbc	$14                     ; 0x14 <__rc4>
     84d: 85 15        	sta	$15                     ; 0x15 <__rc5>
     84f: 98           	tya
     850: 84 16        	sty	$16                     ; 0x16 <__rc6>
     852: 38           	sec
     853: e5 12        	sbc	$12                     ; 0x12 <__rc2>
     855: 85 12        	sta	$12                     ; 0x12 <__rc2>
     857: a5 18        	lda	$18                     ; 0x18 <__rc8>
     859: e5 13        	sbc	$13                     ; 0x13 <__rc3>
     85b: 85 13        	sta	$13                     ; 0x13 <__rc3>
     85d: a4 15        	ldy	$15                     ; 0x15 <__rc5>
     85f: a5 15        	lda	$15                     ; 0x15 <__rc5>
     861: e5 14        	sbc	$14                     ; 0x14 <__rc4>
     863: a6 17        	ldx	$17                     ; 0x17 <__rc7>
     865: 8e 4f 86     	stx	$864f                   ; 0x864f <__bss_start>
     868: 8e 01 d1     	stx	$d101                   ; 0xd101 <__heap_start+0x4aa9>
     86b: ae 50 86     	ldx	$8650                   ; 0x8650 <__bss_start+0x1>
     86e: 8e 02 d1     	stx	$d102                   ; 0xd102 <__heap_start+0x4aaa>
     871: ae 51 86     	ldx	$8651                   ; 0x8651 <__bss_start+0x2>
     874: 8e 03 d1     	stx	$d103                   ; 0xd103 <__heap_start+0x4aab>
     877: a6 16        	ldx	$16                     ; 0x16 <__rc6>
     879: 8e 09 d1     	stx	$d109                   ; 0xd109 <__heap_start+0x4ab1>
     87c: a6 18        	ldx	$18                     ; 0x18 <__rc8>
     87e: 8e 0a d1     	stx	$d10a                   ; 0xd10a <__heap_start+0x4ab2>
     881: 8c 0b d1     	sty	$d10b                   ; 0xd10b <__heap_start+0x4ab3>
     884: a6 12        	ldx	$12                     ; 0x12 <__rc2>
     886: 8e 11 d1     	stx	$d111                   ; 0xd111 <__heap_start+0x4ab9>
     889: a6 13        	ldx	$13                     ; 0x13 <__rc3>
     88b: 8e 12 d1     	stx	$d112                   ; 0xd112 <__heap_start+0x4aba>
     88e: 8d 13 d1     	sta	$d113                   ; 0xd113 <__heap_start+0x4abb>
     891: 9c 00 d1     	stz	$d100                   ; 0xd100 <__heap_start+0x4aa8>
     894: 9c 08 d1     	stz	$d108                   ; 0xd108 <__heap_start+0x4ab0>
     897: 9c 10 d1     	stz	$d110                   ; 0xd110 <__heap_start+0x4ab8>
     89a: a2 10        	ldx	#$10
     89c: 8e 00 d2     	stx	$d200                   ; 0xd200 <__heap_start+0x4ba8>
     89f: 8e 0c d2     	stx	$d20c                   ; 0xd20c <__heap_start+0x4bb4>
     8a2: 8e 18 d2     	stx	$d218                   ; 0xd218 <__heap_start+0x4bc0>
     8a5: a0 d9        	ldy	#$d9
     8a7: a2 40        	ldx	#$40
     8a9: 64 12        	stz	$12                     ; 0x12 <__rc2>
     8ab: 84 13        	sty	$13                     ; 0x13 <__rc3>
     8ad: a9 00        	lda	#$0
     8af: 92 12        	sta	($12)                   ; 0x12 <__rc2>
     8b1: ca           	dex
     8b2: 18           	clc
     8b3: a5 12        	lda	$12                     ; 0x12 <__rc2>
     8b5: 69 08        	adc	#$8
     8b7: 85 12        	sta	$12                     ; 0x12 <__rc2>
     8b9: 98           	tya
     8ba: 69 00        	adc	#$0
     8bc: a8           	tay
     8bd: 8a           	txa
     8be: d0 eb        	bne	$8ab <f256Init+0x33d>
     8c0: a2 8d        	ldx	#$8d
     8c2: a0 00        	ldy	#$0
     8c4: 86 fb        	stx	$fb                     ; 0xfb <__zp_bss_size+0xa1>
     8c6: 84 fc        	sty	$fc                     ; 0xfc <__zp_bss_size+0xa2>
     8c8: a2 08        	ldx	#$8
     8ca: 86 fd        	stx	$fd                     ; 0xfd <__zp_bss_size+0xa3>
     8cc: a2 95        	ldx	#$95
     8ce: a0 00        	ldy	#$0
     8d0: 86 12        	stx	$12                     ; 0x12 <__rc2>
     8d2: 84 13        	sty	$13                     ; 0x13 <__rc3>
     8d4: a2 53        	ldx	#$53
     8d6: 86 14        	stx	$14                     ; 0x14 <__rc4>
     8d8: a2 86        	ldx	#$86
     8da: 86 15        	stx	$15                     ; 0x15 <__rc5>
     8dc: 20 dc ff     	jsr	$ffdc <__heap_start+0x7984>
     8df: 92 12        	sta	($12)                   ; 0x12 <__rc2>
     8e1: a9 00        	lda	#$0
     8e3: 6a           	ror
     8e4: 85 14        	sta	$14                     ; 0x14 <__rc4>
     8e6: a6 93        	ldx	$93                     ; 0x93 <__zp_bss_size+0x39>
     8e8: a4 94        	ldy	$94                     ; 0x94 <__zp_bss_size+0x3a>
     8ea: 8e 00 de     	stx	$de00                   ; 0xde00 <__heap_start+0x57a8>
     8ed: 9c 01 de     	stz	$de01                   ; 0xde01 <__heap_start+0x57a9>
     8f0: 8c 02 de     	sty	$de02                   ; 0xde02 <__heap_start+0x57aa>
     8f3: 9c 03 de     	stz	$de03                   ; 0xde03 <__heap_start+0x57ab>
     8f6: ae 10 de     	ldx	$de10                   ; 0xde10 <__heap_start+0x57b8>
     8f9: ac 11 de     	ldy	$de11                   ; 0xde11 <__heap_start+0x57b9>
     8fc: ad 12 de     	lda	$de12                   ; 0xde12 <__heap_start+0x57ba>
     8ff: ad 13 de     	lda	$de13                   ; 0xde13 <__heap_start+0x57bb>
     902: 8e a4 d6     	stx	$d6a4                   ; 0xd6a4 <__heap_start+0x504c>
     905: 8c a5 d6     	sty	$d6a5                   ; 0xd6a5 <__heap_start+0x504d>
     908: a2 03        	ldx	#$3
     90a: 8e a6 d6     	stx	$d6a6                   ; 0xd6a6 <__heap_start+0x504e>
     90d: 60           	rts

0000090e <main>:
     90e: 20 6e 05     	jsr	$56e <f256Init>
     911: 20 14 09     	jsr	$914 <f256main>

00000914 <f256main>:
     914: 18           	clc
     915: a5 10        	lda	$10                     ; 0x10 <__rc0>
     917: 69 de        	adc	#$de
     919: 85 10        	sta	$10                     ; 0x10 <__rc0>
     91b: a5 11        	lda	$11                     ; 0x11 <__rc1>
     91d: 69 ff        	adc	#$ff
     91f: 85 11        	sta	$11                     ; 0x11 <__rc1>
     921: a9 00        	lda	#$0
     923: 64 01        	stz	$1                      ; 0x1 <__data_size+0x1>
     925: 18           	clc
     926: 48           	pha
     927: a5 10        	lda	$10                     ; 0x10 <__rc0>
     929: 69 15        	adc	#$15
     92b: 85 14        	sta	$14                     ; 0x14 <__rc4>
     92d: a5 11        	lda	$11                     ; 0x11 <__rc1>
     92f: 69 00        	adc	#$0
     931: 85 15        	sta	$15                     ; 0x15 <__rc5>
     933: a5 14        	lda	$14                     ; 0x14 <__rc4>
     935: a0 04        	ldy	#$4
     937: 91 10        	sta	($10),y                 ; 0x10 <__rc0>
     939: a5 15        	lda	$15                     ; 0x15 <__rc5>
     93b: c8           	iny
     93c: 91 10        	sta	($10),y                 ; 0x10 <__rc0>
     93e: 68           	pla
     93f: 92 14        	sta	($14)                   ; 0x14 <__rc4>
     941: 18           	clc
     942: 48           	pha
     943: a5 10        	lda	$10                     ; 0x10 <__rc0>
     945: 69 14        	adc	#$14
     947: 85 28        	sta	$28                     ; 0x28 <__rc24>
     949: a5 11        	lda	$11                     ; 0x11 <__rc1>
     94b: 69 00        	adc	#$0
     94d: 85 29        	sta	$29                     ; 0x29 <__rc25>
     94f: 68           	pla
     950: 92 28        	sta	($28)                   ; 0x28 <__rc24>
     952: aa           	tax
     953: a9 04        	lda	#$4
     955: 20 91 5e     	jsr	$5e91 <malloc>
     958: a0 00        	ldy	#$0
     95a: 5a           	phy
     95b: a5 12        	lda	$12                     ; 0x12 <__rc2>
     95d: a0 08        	ldy	#$8
     95f: 91 10        	sta	($10),y                 ; 0x10 <__rc0>
     961: a5 13        	lda	$13                     ; 0x13 <__rc3>
     963: c8           	iny
     964: 91 10        	sta	($10),y                 ; 0x10 <__rc0>
     966: 7a           	ply
     967: 64 01        	stz	$1                      ; 0x1 <__data_size+0x1>
     969: a2 0f        	ldx	#$f
     96b: 8e 00 d0     	stx	$d000                   ; 0xd000 <__heap_start+0x49a8>
     96e: 9c 01 d0     	stz	$d001                   ; 0xd001 <__heap_start+0x49a9>
     971: e8           	inx
     972: 8e 02 d0     	stx	$d002                   ; 0xd002 <__heap_start+0x49aa>
     975: a2 02        	ldx	#$2
     977: 8e 03 d0     	stx	$d003                   ; 0xd003 <__heap_start+0x49ab>
     97a: 9c 0d d0     	stz	$d00d                   ; 0xd00d <__heap_start+0x49b5>
     97d: 9c 0e d0     	stz	$d00e                   ; 0xd00e <__heap_start+0x49b6>
     980: 9c 0f d0     	stz	$d00f                   ; 0xd00f <__heap_start+0x49b7>
     983: ca           	dex
     984: 86 01        	stx	$1                      ; 0x1 <__data_size+0x1>
     986: a2 d0        	ldx	#$d0
     988: 18           	clc
     989: 84 16        	sty	$16                     ; 0x16 <__rc6>
     98b: 98           	tya
     98c: 69 00        	adc	#$0
     98e: 85 14        	sta	$14                     ; 0x14 <__rc4>
     990: 8a           	txa
     991: 69 10        	adc	#$10
     993: 85 15        	sta	$15                     ; 0x15 <__rc5>
     995: 84 12        	sty	$12                     ; 0x12 <__rc2>
     997: 86 13        	stx	$13                     ; 0x13 <__rc3>
     999: a4 0f        	ldy	$f                      ; 0xf <__bss_size+0x7>
     99b: 78           	sei
     99c: a9 18        	lda	#$18
     99e: 85 0f        	sta	$f                      ; 0xf <__bss_size+0x7>
     9a0: b2 14        	lda	($14)                   ; 0x14 <__rc4>
     9a2: 84 0f        	sty	$f                      ; 0xf <__bss_size+0x7>
     9a4: 58           	cli
     9a5: 92 12        	sta	($12)                   ; 0x12 <__rc2>
     9a7: a4 16        	ldy	$16                     ; 0x16 <__rc6>
     9a9: c8           	iny
     9aa: d0 01        	bne	$9ad <f256main+0x99>
     9ac: e8           	inx
     9ad: e0 d3        	cpx	#$d3
     9af: d0 d7        	bne	$988 <f256main+0x74>
     9b1: c0 ff        	cpy	#$ff
     9b3: d0 d3        	bne	$988 <f256main+0x74>
     9b5: 64 01        	stz	$1                      ; 0x1 <__data_size+0x1>
     9b7: a2 ff        	ldx	#$ff
     9b9: 8e 40 d8     	stx	$d840                   ; 0xd840 <__heap_start+0x51e8>
     9bc: 8e 41 d8     	stx	$d841                   ; 0xd841 <__heap_start+0x51e9>
     9bf: 8e 42 d8     	stx	$d842                   ; 0xd842 <__heap_start+0x51ea>
     9c2: 9c 43 d8     	stz	$d843                   ; 0xd843 <__heap_start+0x51eb>
     9c5: 9c 4f 86     	stz	$864f                   ; 0x864f <__bss_start>
     9c8: a2 80        	ldx	#$80
     9ca: 8e 50 86     	stx	$8650                   ; 0x8650 <__bss_start+0x1>
     9cd: a0 03        	ldy	#$3
     9cf: 8c 51 86     	sty	$8651                   ; 0x8651 <__bss_start+0x2>
     9d2: 9c 52 86     	stz	$8652                   ; 0x8652 <__bss_start+0x3>
     9d5: 9c 01 d1     	stz	$d101                   ; 0xd101 <__heap_start+0x4aa9>
     9d8: 8e 02 d1     	stx	$d102                   ; 0xd102 <__heap_start+0x4aaa>
     9db: 8c 03 d1     	sty	$d103                   ; 0xd103 <__heap_start+0x4aab>
     9de: a2 01        	ldx	#$1
     9e0: 8e 00 d1     	stx	$d100                   ; 0xd100 <__heap_start+0x4aa8>
     9e3: ad 00 d1     	lda	$d100                   ; 0xd100 <__heap_start+0x4aa8>
     9e6: 29 f9        	and	#$f9
     9e8: 8d 00 d1     	sta	$d100                   ; 0xd100 <__heap_start+0x4aa8>
     9eb: 9c 08 d1     	stz	$d108                   ; 0xd108 <__heap_start+0x4ab0>
     9ee: 9c 10 d1     	stz	$d110                   ; 0xd110 <__heap_start+0x4ab8>
     9f1: a9 0a        	lda	#$a
     9f3: ca           	dex
     9f4: 20 91 5e     	jsr	$5e91 <malloc>
     9f7: a6 12        	ldx	$12                     ; 0x12 <__rc2>
     9f9: a4 13        	ldy	$13                     ; 0x13 <__rc3>
     9fb: 86 6a        	stx	$6a                     ; 0x6a <gPtr>
     9fd: 84 6b        	sty	$6b                     ; 0x6b <gPtr+0x1>
     9ff: a9 0f        	lda	#$f
     a01: a2 00        	ldx	#$0
     a03: 20 91 5e     	jsr	$5e91 <malloc>
     a06: a6 12        	ldx	$12                     ; 0x12 <__rc2>
     a08: 86 2c        	stx	$2c                     ; 0x2c <__rc28>
     a0a: a6 13        	ldx	$13                     ; 0x13 <__rc3>
     a0c: 86 2d        	stx	$2d                     ; 0x2d <__rc29>
     a0e: 18           	clc
     a0f: a5 10        	lda	$10                     ; 0x10 <__rc0>
     a11: 69 16        	adc	#$16
     a13: 85 2a        	sta	$2a                     ; 0x2a <__rc26>
     a15: a5 11        	lda	$11                     ; 0x11 <__rc1>
     a17: 69 00        	adc	#$0
     a19: 85 2b        	sta	$2b                     ; 0x2b <__rc27>
     a1b: a0 04        	ldy	#$4
     a1d: a9 06        	lda	#$6
     a1f: 91 12        	sta	($12),y                 ; 0x12 <__rc2>
     a21: a5 2c        	lda	$2c                     ; 0x2c <__rc28>
     a23: 18           	clc
     a24: 69 05        	adc	#$5
     a26: 85 12        	sta	$12                     ; 0x12 <__rc2>
     a28: a5 2d        	lda	$2d                     ; 0x2d <__rc29>
     a2a: 69 00        	adc	#$0
     a2c: 85 13        	sta	$13                     ; 0x13 <__rc3>
     a2e: c8           	iny
     a2f: a9 00        	lda	#$0
     a31: 91 2c        	sta	($2c),y                 ; 0x2c <__rc28>
     a33: a0 02        	ldy	#$2
     a35: 98           	tya
     a36: 91 2a        	sta	($2a),y                 ; 0x2a <__rc26>
     a38: a9 00        	lda	#$0
     a3a: 91 2c        	sta	($2c),y                 ; 0x2c <__rc28>
     a3c: 98           	tya
     a3d: 91 12        	sta	($12),y                 ; 0x12 <__rc2>
     a3f: a9 78        	lda	#$78
     a41: c8           	iny
     a42: 91 2c        	sta	($2c),y                 ; 0x2c <__rc28>
     a44: a9 00        	lda	#$0
     a46: 91 2a        	sta	($2a),y                 ; 0x2a <__rc26>
     a48: 91 12        	sta	($12),y                 ; 0x12 <__rc2>
     a4a: a6 2c        	ldx	$2c                     ; 0x2c <__rc28>
     a4c: 86 7e        	stx	$7e                     ; 0x7e <theBeats>
     a4e: a6 2d        	ldx	$2d                     ; 0x2d <__rc29>
     a50: 86 7f        	stx	$7f                     ; 0x7f <theBeats+0x1>
     a52: 92 2a        	sta	($2a)                   ; 0x2a <__rc26>
     a54: a0 01        	ldy	#$1
     a56: 91 2a        	sta	($2a),y                 ; 0x2a <__rc26>
     a58: 92 2c        	sta	($2c)                   ; 0x2c <__rc28>
     a5a: 91 2c        	sta	($2c),y                 ; 0x2c <__rc28>
     a5c: 91 12        	sta	($12),y                 ; 0x12 <__rc2>
     a5e: a9 06        	lda	#$6
     a60: a2 00        	ldx	#$0
     a62: 20 91 5e     	jsr	$5e91 <malloc>
     a65: a0 09        	ldy	#$9
     a67: a5 2c        	lda	$2c                     ; 0x2c <__rc28>
     a69: 18           	clc
     a6a: 69 09        	adc	#$9
     a6c: 85 14        	sta	$14                     ; 0x14 <__rc4>
     a6e: a5 2d        	lda	$2d                     ; 0x2d <__rc29>
     a70: 69 00        	adc	#$0
     a72: 85 15        	sta	$15                     ; 0x15 <__rc5>
     a74: a5 12        	lda	$12                     ; 0x12 <__rc2>
     a76: 91 2c        	sta	($2c),y                 ; 0x2c <__rc28>
     a78: a0 01        	ldy	#$1
     a7a: a5 13        	lda	$13                     ; 0x13 <__rc3>
     a7c: 91 14        	sta	($14),y                 ; 0x14 <__rc4>
     a7e: a2 00        	ldx	#$0
     a80: 86 14        	stx	$14                     ; 0x14 <__rc4>
     a82: a2 00        	ldx	#$0
     a84: 86 15        	stx	$15                     ; 0x15 <__rc5>
     a86: a6 13        	ldx	$13                     ; 0x13 <__rc3>
     a88: e4 15        	cpx	$15                     ; 0x15 <__rc5>
     a8a: d0 09        	bne	$a95 <f256main+0x181>
     a8c: a6 12        	ldx	$12                     ; 0x12 <__rc2>
     a8e: e4 14        	cpx	$14                     ; 0x14 <__rc4>
     a90: d0 03        	bne	$a95 <f256main+0x181>
     a92: 4c fd 0a     	jmp	$afd <f256main+0x1e9>
     a95: a9 06        	lda	#$6
     a97: a2 00        	ldx	#$0
     a99: 20 91 5e     	jsr	$5e91 <malloc>
     a9c: a0 0b        	ldy	#$b
     a9e: a5 2c        	lda	$2c                     ; 0x2c <__rc28>
     aa0: 18           	clc
     aa1: 69 0b        	adc	#$b
     aa3: 85 14        	sta	$14                     ; 0x14 <__rc4>
     aa5: a5 2d        	lda	$2d                     ; 0x2d <__rc29>
     aa7: 69 00        	adc	#$0
     aa9: 85 15        	sta	$15                     ; 0x15 <__rc5>
     aab: a5 12        	lda	$12                     ; 0x12 <__rc2>
     aad: 91 2c        	sta	($2c),y                 ; 0x2c <__rc28>
     aaf: a0 01        	ldy	#$1
     ab1: a5 13        	lda	$13                     ; 0x13 <__rc3>
     ab3: 91 14        	sta	($14),y                 ; 0x14 <__rc4>
     ab5: a2 00        	ldx	#$0
     ab7: 86 14        	stx	$14                     ; 0x14 <__rc4>
     ab9: a2 00        	ldx	#$0
     abb: 86 15        	stx	$15                     ; 0x15 <__rc5>
     abd: a6 13        	ldx	$13                     ; 0x13 <__rc3>
     abf: e4 15        	cpx	$15                     ; 0x15 <__rc5>
     ac1: d0 06        	bne	$ac9 <f256main+0x1b5>
     ac3: a6 12        	ldx	$12                     ; 0x12 <__rc2>
     ac5: e4 14        	cpx	$14                     ; 0x14 <__rc4>
     ac7: f0 34        	beq	$afd <f256main+0x1e9>
     ac9: a9 12        	lda	#$12
     acb: a2 00        	ldx	#$0
     acd: 20 91 5e     	jsr	$5e91 <malloc>
     ad0: a0 0d        	ldy	#$d
     ad2: a5 2c        	lda	$2c                     ; 0x2c <__rc28>
     ad4: 18           	clc
     ad5: 69 0d        	adc	#$d
     ad7: 85 14        	sta	$14                     ; 0x14 <__rc4>
     ad9: a5 2d        	lda	$2d                     ; 0x2d <__rc29>
     adb: 69 00        	adc	#$0
     add: 85 15        	sta	$15                     ; 0x15 <__rc5>
     adf: a5 12        	lda	$12                     ; 0x12 <__rc2>
     ae1: 91 2c        	sta	($2c),y                 ; 0x2c <__rc28>
     ae3: a0 01        	ldy	#$1
     ae5: a5 13        	lda	$13                     ; 0x13 <__rc3>
     ae7: 91 14        	sta	($14),y                 ; 0x14 <__rc4>
     ae9: a2 00        	ldx	#$0
     aeb: 86 14        	stx	$14                     ; 0x14 <__rc4>
     aed: a2 00        	ldx	#$0
     aef: 86 15        	stx	$15                     ; 0x15 <__rc5>
     af1: a6 13        	ldx	$13                     ; 0x13 <__rc3>
     af3: e4 15        	cpx	$15                     ; 0x15 <__rc5>
     af5: d0 14        	bne	$b0b <f256main+0x1f7>
     af7: a6 12        	ldx	$12                     ; 0x12 <__rc2>
     af9: e4 14        	cpx	$14                     ; 0x14 <__rc4>
     afb: d0 0e        	bne	$b0b <f256main+0x1f7>
     afd: a2 39        	ldx	#$39
     aff: 86 12        	stx	$12                     ; 0x12 <__rc2>
     b01: a2 7c        	ldx	#$7c
     b03: 86 13        	stx	$13                     ; 0x13 <__rc3>
     b05: 20 65 52     	jsr	$5265 <printf>
     b08: 4c 9a 0b     	jmp	$b9a <f256main+0x286>
     b0b: a2 02        	ldx	#$2
     b0d: 64 17        	stz	$17                     ; 0x17 <__rc7>
     b0f: 64 18        	stz	$18                     ; 0x18 <__rc8>
     b11: 18           	clc
     b12: a5 2c        	lda	$2c                     ; 0x2c <__rc28>
     b14: 69 09        	adc	#$9
     b16: 85 12        	sta	$12                     ; 0x12 <__rc2>
     b18: a5 2d        	lda	$2d                     ; 0x2d <__rc29>
     b1a: 69 00        	adc	#$0
     b1c: 85 13        	sta	$13                     ; 0x13 <__rc3>
     b1e: a0 09        	ldy	#$9
     b20: b1 2c        	lda	($2c),y                 ; 0x2c <__rc28>
     b22: 85 19        	sta	$19                     ; 0x19 <__rc9>
     b24: a0 01        	ldy	#$1
     b26: b1 12        	lda	($12),y                 ; 0x12 <__rc2>
     b28: a4 19        	ldy	$19                     ; 0x19 <__rc9>
     b2a: 84 12        	sty	$12                     ; 0x12 <__rc2>
     b2c: 85 13        	sta	$13                     ; 0x13 <__rc3>
     b2e: a9 00        	lda	#$0
     b30: a4 18        	ldy	$18                     ; 0x18 <__rc8>
     b32: 91 12        	sta	($12),y                 ; 0x12 <__rc2>
     b34: 18           	clc
     b35: a5 2c        	lda	$2c                     ; 0x2c <__rc28>
     b37: 69 0b        	adc	#$b
     b39: 85 12        	sta	$12                     ; 0x12 <__rc2>
     b3b: a5 2d        	lda	$2d                     ; 0x2d <__rc29>
     b3d: 69 00        	adc	#$0
     b3f: 85 13        	sta	$13                     ; 0x13 <__rc3>
     b41: a0 0b        	ldy	#$b
     b43: b1 2c        	lda	($2c),y                 ; 0x2c <__rc28>
     b45: 85 1a        	sta	$1a                     ; 0x1a <__rc10>
     b47: a0 01        	ldy	#$1
     b49: b1 12        	lda	($12),y                 ; 0x12 <__rc2>
     b4b: a4 1a        	ldy	$1a                     ; 0x1a <__rc10>
     b4d: 84 12        	sty	$12                     ; 0x12 <__rc2>
     b4f: 85 13        	sta	$13                     ; 0x13 <__rc3>
     b51: a4 18        	ldy	$18                     ; 0x18 <__rc8>
     b53: a9 00        	lda	#$0
     b55: 91 12        	sta	($12),y                 ; 0x12 <__rc2>
     b57: 18           	clc
     b58: a5 2c        	lda	$2c                     ; 0x2c <__rc28>
     b5a: 69 0d        	adc	#$d
     b5c: 85 12        	sta	$12                     ; 0x12 <__rc2>
     b5e: a5 2d        	lda	$2d                     ; 0x2d <__rc29>
     b60: 69 00        	adc	#$0
     b62: 85 13        	sta	$13                     ; 0x13 <__rc3>
     b64: a0 0d        	ldy	#$d
     b66: b1 2c        	lda	($2c),y                 ; 0x2c <__rc28>
     b68: 85 14        	sta	$14                     ; 0x14 <__rc4>
     b6a: a0 01        	ldy	#$1
     b6c: b1 12        	lda	($12),y                 ; 0x12 <__rc2>
     b6e: a4 14        	ldy	$14                     ; 0x14 <__rc4>
     b70: 84 12        	sty	$12                     ; 0x12 <__rc2>
     b72: 85 13        	sta	$13                     ; 0x13 <__rc3>
     b74: a4 17        	ldy	$17                     ; 0x17 <__rc7>
     b76: a9 00        	lda	#$0
     b78: 91 12        	sta	($12),y                 ; 0x12 <__rc2>
     b7a: 18           	clc
     b7b: a5 18        	lda	$18                     ; 0x18 <__rc8>
     b7d: 69 06        	adc	#$6
     b7f: da           	phx
     b80: 7a           	ply
     b81: 91 12        	sta	($12),y                 ; 0x12 <__rc2>
     b83: e6 18        	inc	$18                     ; 0x18 <__rc8>
     b85: 18           	clc
     b86: 8a           	txa
     b87: 69 03        	adc	#$3
     b89: a8           	tay
     b8a: 18           	clc
     b8b: a5 17        	lda	$17                     ; 0x17 <__rc7>
     b8d: 69 03        	adc	#$3
     b8f: 85 17        	sta	$17                     ; 0x17 <__rc7>
     b91: 5a           	phy
     b92: fa           	plx
     b93: c0 14        	cpy	#$14
     b95: f0 03        	beq	$b9a <f256main+0x286>
     b97: 4c 11 0b     	jmp	$b11 <f256main+0x1fd>
     b9a: a9 03        	lda	#$3
     b9c: a6 2a        	ldx	$2a                     ; 0x2a <__rc26>
     b9e: 86 14        	stx	$14                     ; 0x14 <__rc4>
     ba0: a6 2b        	ldx	$2b                     ; 0x2b <__rc27>
     ba2: 86 15        	stx	$15                     ; 0x15 <__rc5>
     ba4: a2 31        	ldx	#$31
     ba6: 86 16        	stx	$16                     ; 0x16 <__rc6>
     ba8: a2 84        	ldx	#$84
     baa: 86 17        	stx	$17                     ; 0x17 <__rc7>
     bac: a2 3d        	ldx	#$3d
     bae: 86 18        	stx	$18                     ; 0x18 <__rc8>
     bb0: a2 84        	ldx	#$84
     bb2: 86 19        	stx	$19                     ; 0x19 <__rc9>
     bb4: a2 0c        	ldx	#$c
     bb6: 86 12        	stx	$12                     ; 0x12 <__rc2>
     bb8: 86 13        	stx	$13                     ; 0x13 <__rc3>
     bba: a2 01        	ldx	#$1
     bbc: 20 a6 45     	jsr	$45a6 <setupMem4Track>
     bbf: a6 2a        	ldx	$2a                     ; 0x2a <__rc26>
     bc1: 86 14        	stx	$14                     ; 0x14 <__rc4>
     bc3: a6 2b        	ldx	$2b                     ; 0x2b <__rc27>
     bc5: 86 15        	stx	$15                     ; 0x15 <__rc5>
     bc7: a2 49        	ldx	#$49
     bc9: 86 16        	stx	$16                     ; 0x16 <__rc6>
     bcb: a2 84        	ldx	#$84
     bcd: 86 17        	stx	$17                     ; 0x17 <__rc7>
     bcf: a2 51        	ldx	#$51
     bd1: 86 18        	stx	$18                     ; 0x18 <__rc8>
     bd3: a2 84        	ldx	#$84
     bd5: 86 19        	stx	$19                     ; 0x19 <__rc9>
     bd7: a2 08        	ldx	#$8
     bd9: a0 01        	ldy	#$1
     bdb: 84 12        	sty	$12                     ; 0x12 <__rc2>
     bdd: 86 13        	stx	$13                     ; 0x13 <__rc3>
     bdf: e8           	inx
     be0: a9 00        	lda	#$0
     be2: 20 a6 45     	jsr	$45a6 <setupMem4Track>
     be5: a0 0a        	ldy	#$a
     be7: a6 2a        	ldx	$2a                     ; 0x2a <__rc26>
     be9: 86 14        	stx	$14                     ; 0x14 <__rc4>
     beb: a6 2b        	ldx	$2b                     ; 0x2b <__rc27>
     bed: 86 15        	stx	$15                     ; 0x15 <__rc5>
     bef: a2 59        	ldx	#$59
     bf1: 86 16        	stx	$16                     ; 0x16 <__rc6>
     bf3: a2 84        	ldx	#$84
     bf5: 86 17        	stx	$17                     ; 0x17 <__rc7>
     bf7: a2 65        	ldx	#$65
     bf9: 86 18        	stx	$18                     ; 0x18 <__rc8>
     bfb: a2 84        	ldx	#$84
     bfd: 86 19        	stx	$19                     ; 0x19 <__rc9>
     bff: 84 12        	sty	$12                     ; 0x12 <__rc2>
     c01: a2 0c        	ldx	#$c
     c03: 86 13        	stx	$13                     ; 0x13 <__rc3>
     c05: a2 02        	ldx	#$2
     c07: a9 00        	lda	#$0
     c09: 20 a6 45     	jsr	$45a6 <setupMem4Track>
     c0c: a6 2a        	ldx	$2a                     ; 0x2a <__rc26>
     c0e: 86 14        	stx	$14                     ; 0x14 <__rc4>
     c10: a6 2b        	ldx	$2b                     ; 0x2b <__rc27>
     c12: 86 15        	stx	$15                     ; 0x15 <__rc5>
     c14: a2 71        	ldx	#$71
     c16: 86 16        	stx	$16                     ; 0x16 <__rc6>
     c18: a2 84        	ldx	#$84
     c1a: 86 17        	stx	$17                     ; 0x17 <__rc7>
     c1c: a2 7d        	ldx	#$7d
     c1e: 86 18        	stx	$18                     ; 0x18 <__rc8>
     c20: a2 84        	ldx	#$84
     c22: 86 19        	stx	$19                     ; 0x19 <__rc9>
     c24: a2 0a        	ldx	#$a
     c26: 86 12        	stx	$12                     ; 0x12 <__rc2>
     c28: a2 0c        	ldx	#$c
     c2a: 86 13        	stx	$13                     ; 0x13 <__rc3>
     c2c: a2 02        	ldx	#$2
     c2e: a9 00        	lda	#$0
     c30: 20 a6 45     	jsr	$45a6 <setupMem4Track>
     c33: a6 2a        	ldx	$2a                     ; 0x2a <__rc26>
     c35: 86 14        	stx	$14                     ; 0x14 <__rc4>
     c37: a6 2b        	ldx	$2b                     ; 0x2b <__rc27>
     c39: 86 15        	stx	$15                     ; 0x15 <__rc5>
     c3b: a2 89        	ldx	#$89
     c3d: 86 16        	stx	$16                     ; 0x16 <__rc6>
     c3f: a2 84        	ldx	#$84
     c41: 86 17        	stx	$17                     ; 0x17 <__rc7>
     c43: a2 95        	ldx	#$95
     c45: 86 18        	stx	$18                     ; 0x18 <__rc8>
     c47: a2 84        	ldx	#$84
     c49: 86 19        	stx	$19                     ; 0x19 <__rc9>
     c4b: a2 0a        	ldx	#$a
     c4d: 86 12        	stx	$12                     ; 0x12 <__rc2>
     c4f: a2 0c        	ldx	#$c
     c51: 86 13        	stx	$13                     ; 0x13 <__rc3>
     c53: a2 02        	ldx	#$2
     c55: a9 00        	lda	#$0
     c57: 20 a6 45     	jsr	$45a6 <setupMem4Track>
     c5a: a6 2a        	ldx	$2a                     ; 0x2a <__rc26>
     c5c: 86 14        	stx	$14                     ; 0x14 <__rc4>
     c5e: a6 2b        	ldx	$2b                     ; 0x2b <__rc27>
     c60: 86 15        	stx	$15                     ; 0x15 <__rc5>
     c62: a2 a1        	ldx	#$a1
     c64: 86 16        	stx	$16                     ; 0x16 <__rc6>
     c66: a2 84        	ldx	#$84
     c68: 86 17        	stx	$17                     ; 0x17 <__rc7>
     c6a: a2 c1        	ldx	#$c1
     c6c: 86 18        	stx	$18                     ; 0x18 <__rc8>
     c6e: a2 84        	ldx	#$84
     c70: 86 19        	stx	$19                     ; 0x19 <__rc9>
     c72: a2 20        	ldx	#$20
     c74: 64 12        	stz	$12                     ; 0x12 <__rc2>
     c76: 86 13        	stx	$13                     ; 0x13 <__rc3>
     c78: a2 01        	ldx	#$1
     c7a: a9 02        	lda	#$2
     c7c: 20 a6 45     	jsr	$45a6 <setupMem4Track>
     c7f: 20 d3 3d     	jsr	$3dd3 <escReset>
     c82: 20 93 3f     	jsr	$3f93 <prepTempoLUT>
     c85: a2 80        	ldx	#$80
     c87: 86 f3        	stx	$f3                     ; 0xf3 <__zp_bss_size+0x99>
     c89: 18           	clc
     c8a: a5 10        	lda	$10                     ; 0x10 <__rc0>
     c8c: 69 1a        	adc	#$1a
     c8e: 85 12        	sta	$12                     ; 0x12 <__rc2>
     c90: a5 11        	lda	$11                     ; 0x11 <__rc1>
     c92: 69 00        	adc	#$0
     c94: 85 13        	sta	$13                     ; 0x13 <__rc3>
     c96: a2 53        	ldx	#$53
     c98: 86 14        	stx	$14                     ; 0x14 <__rc4>
     c9a: a2 86        	ldx	#$86
     c9c: 86 15        	stx	$15                     ; 0x15 <__rc5>
     c9e: 20 f0 ff     	jsr	$fff0 <__heap_start+0x7998>
     ca1: 92 12        	sta	($12)                   ; 0x12 <__rc2>
     ca3: a9 00        	lda	#$0
     ca5: 6a           	ror
     ca6: 85 14        	sta	$14                     ; 0x14 <__rc4>
     ca8: a9 09        	lda	#$9
     caa: 18           	clc
     cab: 72 12        	adc	($12)                   ; 0x12 <__rc2>
     cad: 85 80        	sta	$80                     ; 0x80 <refTimer.1>
     caf: 64 f3        	stz	$f3                     ; 0xf3 <__zp_bss_size+0x99>
     cb1: a6 80        	ldx	$80                     ; 0x80 <refTimer.1>
     cb3: 86 f4        	stx	$f4                     ; 0xf4 <__zp_bss_size+0x9a>
     cb5: 64 f5        	stz	$f5                     ; 0xf5 <__zp_bss_size+0x9b>
     cb7: 18           	clc
     cb8: a5 10        	lda	$10                     ; 0x10 <__rc0>
     cba: 69 1b        	adc	#$1b
     cbc: 85 12        	sta	$12                     ; 0x12 <__rc2>
     cbe: a5 11        	lda	$11                     ; 0x11 <__rc1>
     cc0: 69 00        	adc	#$0
     cc2: 85 13        	sta	$13                     ; 0x13 <__rc3>
     cc4: a2 90        	ldx	#$90
     cc6: 20 f0 ff     	jsr	$fff0 <__heap_start+0x7998>
     cc9: 92 12        	sta	($12)                   ; 0x12 <__rc2>
     ccb: a9 00        	lda	#$0
     ccd: 6a           	ror
     cce: 85 14        	sta	$14                     ; 0x14 <__rc4>
     cd0: 86 30        	stx	$30                     ; 0x30 <_ccolor>
     cd2: ad a0 dd     	lda	$dda0                   ; 0xdda0 <__heap_start+0x5748>
     cd5: 29 02        	and	#$2
     cd7: d0 1e        	bne	$cf7 <f256main+0x3e3>
     cd9: ae a2 dd     	ldx	$dda2                   ; 0xdda2 <__heap_start+0x574a>
     cdc: ad a3 dd     	lda	$dda3                   ; 0xdda3 <__heap_start+0x574b>
     cdf: 29 0f        	and	#$f
     ce1: d0 04        	bne	$ce7 <f256main+0x3d3>
     ce3: e0 00        	cpx	#$0
     ce5: f0 10        	beq	$cf7 <f256main+0x3e3>
     ce7: ac a1 dd     	ldy	$dda1                   ; 0xdda1 <__heap_start+0x5749>
     cea: ca           	dex
     ceb: e0 ff        	cpx	#$ff
     ced: d0 01        	bne	$cf0 <f256main+0x3dc>
     cef: 3a           	dec
     cf0: a8           	tay
     cf1: d0 f4        	bne	$ce7 <f256main+0x3d3>
     cf3: e0 00        	cpx	#$0
     cf5: d0 f0        	bne	$ce7 <f256main+0x3d3>
     cf7: a2 d4        	ldx	#$d4
     cf9: a0 00        	ldy	#$0
     cfb: 18           	clc
     cfc: 98           	tya
     cfd: 69 00        	adc	#$0
     cff: 85 14        	sta	$14                     ; 0x14 <__rc4>
     d01: 8a           	txa
     d02: 69 01        	adc	#$1
     d04: 85 15        	sta	$15                     ; 0x15 <__rc5>
     d06: 84 12        	sty	$12                     ; 0x12 <__rc2>
     d08: 86 13        	stx	$13                     ; 0x13 <__rc3>
     d0a: a9 00        	lda	#$0
     d0c: 92 12        	sta	($12)                   ; 0x12 <__rc2>
     d0e: 5a           	phy
     d0f: a4 14        	ldy	$14                     ; 0x14 <__rc4>
     d11: 84 12        	sty	$12                     ; 0x12 <__rc2>
     d13: a4 15        	ldy	$15                     ; 0x15 <__rc5>
     d15: 84 13        	sty	$13                     ; 0x13 <__rc3>
     d17: 7a           	ply
     d18: 92 12        	sta	($12)                   ; 0x12 <__rc2>
     d1a: c8           	iny
     d1b: d0 01        	bne	$d1e <f256main+0x40a>
     d1d: e8           	inx
     d1e: c0 19        	cpy	#$19
     d20: d0 d9        	bne	$cfb <f256main+0x3e7>
     d22: 20 ad 42     	jsr	$42ad <sid_setInstrumentAllChannels>
     d25: ad a1 d6     	lda	$d6a1                   ; 0xd6a1 <__heap_start+0x5049>
     d28: 29 f7        	and	#$f7
     d2a: 8d a1 d6     	sta	$d6a1                   ; 0xd6a1 <__heap_start+0x5049>
     d2d: ad a1 d6     	lda	$d6a1                   ; 0xd6a1 <__heap_start+0x5049>
     d30: 29 fb        	and	#$fb
     d32: 8d a1 d6     	sta	$d6a1                   ; 0xd6a1 <__heap_start+0x5049>
     d35: a2 01        	ldx	#$1
     d37: 8e 80 d5     	stx	$d580                   ; 0xd580 <__heap_start+0x4f28>
     d3a: a0 20        	ldy	#$20
     d3c: 8c 81 d5     	sty	$d581                   ; 0xd581 <__heap_start+0x4f29>
     d3f: a0 02        	ldy	#$2
     d41: 8c 80 d5     	sty	$d580                   ; 0xd580 <__heap_start+0x4f28>
     d44: 9c 81 d5     	stz	$d581                   ; 0xd581 <__heap_start+0x4f29>
     d47: c8           	iny
     d48: 8c 80 d5     	sty	$d580                   ; 0xd580 <__heap_start+0x4f28>
     d4b: 9c 81 d5     	stz	$d581                   ; 0xd581 <__heap_start+0x4f29>
     d4e: c8           	iny
     d4f: 8c 82 d5     	sty	$d582                   ; 0xd582 <__heap_start+0x4f2a>
     d52: 9c 81 d5     	stz	$d581                   ; 0xd581 <__heap_start+0x4f29>
     d55: c8           	iny
     d56: 8c 82 d5     	sty	$d582                   ; 0xd582 <__heap_start+0x4f2a>
     d59: 8e 81 d5     	stx	$d581                   ; 0xd581 <__heap_start+0x4f29>
     d5c: a2 08        	ldx	#$8
     d5e: 8e 80 d5     	stx	$d580                   ; 0xd580 <__heap_start+0x4f28>
     d61: 9c 81 d5     	stz	$d581                   ; 0xd581 <__heap_start+0x4f29>
     d64: a2 c0        	ldx	#$c0
     d66: a0 30        	ldy	#$30
     d68: 8e 80 d5     	stx	$d580                   ; 0xd580 <__heap_start+0x4f28>
     d6b: 8c 81 d5     	sty	$d581                   ; 0xd581 <__heap_start+0x4f29>
     d6e: e8           	inx
     d6f: e0 c9        	cpx	#$c9
     d71: d0 f5        	bne	$d68 <f256main+0x454>
     d73: a2 b0        	ldx	#$b0
     d75: 8e 80 d5     	stx	$d580                   ; 0xd580 <__heap_start+0x4f28>
     d78: 9c 81 d5     	stz	$d581                   ; 0xd581 <__heap_start+0x4f29>
     d7b: e8           	inx
     d7c: e0 b9        	cpx	#$b9
     d7e: d0 f5        	bne	$d75 <f256main+0x461>
     d80: a0 00        	ldy	#$0
     d82: a2 0e        	ldx	#$e
     d84: 86 12        	stx	$12                     ; 0x12 <__rc2>
     d86: a2 85        	ldx	#$85
     d88: 86 13        	stx	$13                     ; 0x13 <__rc3>
     d8a: 84 24        	sty	$24                     ; 0x24 <__rc20>
     d8c: 98           	tya
     d8d: 20 51 41     	jsr	$4151 <opl3_setInstrument>
     d90: 18           	clc
     d91: a5 24        	lda	$24                     ; 0x24 <__rc20>
     d93: 69 c0        	adc	#$c0
     d95: 8d 80 d5     	sta	$d580                   ; 0xd580 <__heap_start+0x4f28>
     d98: a4 24        	ldy	$24                     ; 0x24 <__rc20>
     d9a: a2 30        	ldx	#$30
     d9c: 8e 81 d5     	stx	$d581                   ; 0xd581 <__heap_start+0x4f29>
     d9f: c8           	iny
     da0: c0 09        	cpy	#$9
     da2: d0 de        	bne	$d82 <f256main+0x46e>
     da4: ad a7 d6     	lda	$d6a7                   ; 0xd6a7 <__heap_start+0x504f>
     da7: 29 3f        	and	#$3f
     da9: c9 22        	cmp	#$22
     dab: f0 07        	beq	$db4 <f256main+0x4a0>
     dad: c9 11        	cmp	#$11
     daf: f0 03        	beq	$db4 <f256main+0x4a0>
     db1: 4c b8 0e     	jmp	$eb8 <f256main+0x5a4>
     db4: a2 03        	ldx	#$3
     db6: 8e 01 d7     	stx	$d701                   ; 0xd701 <__heap_start+0x50a9>
     db9: 9c 02 d7     	stz	$d702                   ; 0xd702 <__heap_start+0x50aa>
     dbc: 9c 02 d7     	stz	$d702                   ; 0xd702 <__heap_start+0x50aa>
     dbf: a2 40        	ldx	#$40
     dc1: 8e 03 d7     	stx	$d703                   ; 0xd703 <__heap_start+0x50ab>
     dc4: a2 01        	ldx	#$1
     dc6: 8e 00 d7     	stx	$d700                   ; 0xd700 <__heap_start+0x50a8>
     dc9: 9c 00 d7     	stz	$d700                   ; 0xd700 <__heap_start+0x50a8>
     dcc: ae 00 d7     	ldx	$d700                   ; 0xd700 <__heap_start+0x50a8>
     dcf: 30 fb        	bmi	$dcc <f256main+0x4b8>
     dd1: a9 00        	lda	#$0
     dd3: aa           	tax
     dd4: a8           	tay
     dd5: 0a           	asl
     dd6: 85 12        	sta	$12                     ; 0x12 <__rc2>
     dd8: 86 15        	stx	$15                     ; 0x15 <__rc5>
     dda: 8a           	txa
     ddb: 2a           	rol
     ddc: 85 13        	sta	$13                     ; 0x13 <__rc3>
     dde: a9 f9        	lda	#$f9
     de0: 18           	clc
     de1: 65 12        	adc	$12                     ; 0x12 <__rc2>
     de3: 85 14        	sta	$14                     ; 0x14 <__rc4>
     de5: a9 83        	lda	#$83
     de7: 65 13        	adc	$13                     ; 0x13 <__rc3>
     de9: a6 14        	ldx	$14                     ; 0x14 <__rc4>
     deb: 86 12        	stx	$12                     ; 0x12 <__rc2>
     ded: 85 13        	sta	$13                     ; 0x13 <__rc3>
     def: 85 17        	sta	$17                     ; 0x17 <__rc7>
     df1: 18           	clc
     df2: 98           	tya
     df3: 69 02        	adc	#$2
     df5: aa           	tax
     df6: a5 15        	lda	$15                     ; 0x15 <__rc5>
     df8: 69 00        	adc	#$0
     dfa: 85 16        	sta	$16                     ; 0x16 <__rc6>
     dfc: 18           	clc
     dfd: a5 14        	lda	$14                     ; 0x14 <__rc4>
     dff: 69 02        	adc	#$2
     e01: 85 14        	sta	$14                     ; 0x14 <__rc4>
     e03: a5 17        	lda	$17                     ; 0x17 <__rc7>
     e05: 69 00        	adc	#$0
     e07: 85 15        	sta	$15                     ; 0x15 <__rc5>
     e09: a0 02        	ldy	#$2
     e0b: b1 12        	lda	($12),y                 ; 0x12 <__rc2>
     e0d: 85 19        	sta	$19                     ; 0x19 <__rc9>
     e0f: 88           	dey
     e10: b1 14        	lda	($14),y                 ; 0x14 <__rc4>
     e12: d0 09        	bne	$e1d <f256main+0x509>
     e14: e6 19        	inc	$19                     ; 0x19 <__rc9>
     e16: c6 19        	dec	$19                     ; 0x19 <__rc9>
     e18: d0 03        	bne	$e1d <f256main+0x509>
     e1a: 4c b3 0e     	jmp	$eb3 <f256main+0x59f>
     e1d: 5a           	phy
     e1e: a4 19        	ldy	$19                     ; 0x19 <__rc9>
     e20: 84 17        	sty	$17                     ; 0x17 <__rc7>
     e22: 7a           	ply
     e23: 85 18        	sta	$18                     ; 0x18 <__rc8>
     e25: b2 12        	lda	($12)                   ; 0x12 <__rc2>
     e27: 85 19        	sta	$19                     ; 0x19 <__rc9>
     e29: b1 12        	lda	($12),y                 ; 0x12 <__rc2>
     e2b: 85 1a        	sta	$1a                     ; 0x1a <__rc10>
     e2d: 8a           	txa
     e2e: a6 16        	ldx	$16                     ; 0x16 <__rc6>
     e30: 85 14        	sta	$14                     ; 0x14 <__rc4>
     e32: 0a           	asl
     e33: 85 12        	sta	$12                     ; 0x12 <__rc2>
     e35: 86 15        	stx	$15                     ; 0x15 <__rc5>
     e37: 8a           	txa
     e38: 2a           	rol
     e39: 85 13        	sta	$13                     ; 0x13 <__rc3>
     e3b: a9 f9        	lda	#$f9
     e3d: 18           	clc
     e3e: 65 12        	adc	$12                     ; 0x12 <__rc2>
     e40: 85 12        	sta	$12                     ; 0x12 <__rc2>
     e42: a9 83        	lda	#$83
     e44: 65 13        	adc	$13                     ; 0x13 <__rc3>
     e46: 85 13        	sta	$13                     ; 0x13 <__rc3>
     e48: b2 12        	lda	($12)                   ; 0x12 <__rc2>
     e4a: 85 16        	sta	$16                     ; 0x16 <__rc6>
     e4c: b1 12        	lda	($12),y                 ; 0x12 <__rc2>
     e4e: a6 19        	ldx	$19                     ; 0x19 <__rc9>
     e50: 8e 01 d7     	stx	$d701                   ; 0xd701 <__heap_start+0x50a9>
     e53: a6 1a        	ldx	$1a                     ; 0x1a <__rc10>
     e55: 8e 02 d7     	stx	$d702                   ; 0xd702 <__heap_start+0x50aa>
     e58: a6 16        	ldx	$16                     ; 0x16 <__rc6>
     e5a: 8e 02 d7     	stx	$d702                   ; 0xd702 <__heap_start+0x50aa>
     e5d: 8d 03 d7     	sta	$d703                   ; 0xd703 <__heap_start+0x50ab>
     e60: 8c 00 d7     	sty	$d700                   ; 0xd700 <__heap_start+0x50a8>
     e63: 9c 00 d7     	stz	$d700                   ; 0xd700 <__heap_start+0x50a8>
     e66: ae 00 d7     	ldx	$d700                   ; 0xd700 <__heap_start+0x50a8>
     e69: 30 fb        	bmi	$e66 <f256main+0x552>
     e6b: 5a           	phy
     e6c: a6 17        	ldx	$17                     ; 0x17 <__rc7>
     e6e: 86 12        	stx	$12                     ; 0x12 <__rc2>
     e70: a6 18        	ldx	$18                     ; 0x18 <__rc8>
     e72: 86 13        	stx	$13                     ; 0x13 <__rc3>
     e74: a2 ff        	ldx	#$ff
     e76: c6 12        	dec	$12                     ; 0x12 <__rc2>
     e78: e4 12        	cpx	$12                     ; 0x12 <__rc2>
     e7a: d0 02        	bne	$e7e <f256main+0x56a>
     e7c: c6 13        	dec	$13                     ; 0x13 <__rc3>
     e7e: a5 14        	lda	$14                     ; 0x14 <__rc4>
     e80: a6 15        	ldx	$15                     ; 0x15 <__rc5>
     e82: 1a           	inc
     e83: d0 01        	bne	$e86 <f256main+0x572>
     e85: e8           	inx
     e86: a4 12        	ldy	$12                     ; 0x12 <__rc2>
     e88: 84 17        	sty	$17                     ; 0x17 <__rc7>
     e8a: a4 13        	ldy	$13                     ; 0x13 <__rc3>
     e8c: 84 18        	sty	$18                     ; 0x18 <__rc8>
     e8e: 7a           	ply
     e8f: e6 13        	inc	$13                     ; 0x13 <__rc3>
     e91: c6 13        	dec	$13                     ; 0x13 <__rc3>
     e93: f0 03        	beq	$e98 <f256main+0x584>
     e95: 4c 30 0e     	jmp	$e30 <f256main+0x51c>
     e98: e6 12        	inc	$12                     ; 0x12 <__rc2>
     e9a: c6 12        	dec	$12                     ; 0x12 <__rc2>
     e9c: f0 03        	beq	$ea1 <f256main+0x58d>
     e9e: 4c 30 0e     	jmp	$e30 <f256main+0x51c>
     ea1: e0 00        	cpx	#$0
     ea3: d0 07        	bne	$eac <f256main+0x598>
     ea5: c9 1c        	cmp	#$1c
     ea7: b0 0f        	bcs	$eb8 <f256main+0x5a4>
     ea9: 4c d4 0d     	jmp	$dd4 <f256main+0x4c0>
     eac: e0 00        	cpx	#$0
     eae: b0 08        	bcs	$eb8 <f256main+0x5a4>
     eb0: 4c d4 0d     	jmp	$dd4 <f256main+0x4c0>
     eb3: 8a           	txa
     eb4: a6 16        	ldx	$16                     ; 0x16 <__rc6>
     eb6: 80 e9        	bra	$ea1 <f256main+0x58d>
     eb8: a2 27        	ldx	#$27
     eba: 86 31        	stx	$31                     ; 0x31 <note>
     ebc: 64 32        	stz	$32                     ; 0x32 <note+0x1>
     ebe: 86 81        	stx	$81                     ; 0x81 <oldCursorNote>
     ec0: 64 82        	stz	$82                     ; 0x82 <oldCursorNote+0x1>
     ec2: a6 01        	ldx	$1                      ; 0x1 <__data_size+0x1>
     ec4: a0 01        	ldy	#$1
     ec6: 84 01        	sty	$1                      ; 0x1 <__data_size+0x1>
     ec8: 9c 20 d2     	stz	$d220                   ; 0xd220 <__heap_start+0x4bc8>
     ecb: 9c 21 d2     	stz	$d221                   ; 0xd221 <__heap_start+0x4bc9>
     ece: a9 ff        	lda	#$ff
     ed0: 8d 22 d2     	sta	$d222                   ; 0xd222 <__heap_start+0x4bca>
     ed3: 8d 23 d2     	sta	$d223                   ; 0xd223 <__heap_start+0x4bcb>
     ed6: 86 01        	stx	$1                      ; 0x1 <__data_size+0x1>
     ed8: a2 53        	ldx	#$53
     eda: 86 2e        	stx	$2e                     ; 0x2e <__rc30>
     edc: a2 86        	ldx	#$86
     ede: 86 2f        	stx	$2f                     ; 0x2f <__rc31>
     ee0: 64 12        	stz	$12                     ; 0x12 <__rc2>
     ee2: 1a           	inc
     ee3: a0 12        	ldy	#$12
     ee5: 91 10        	sta	($10),y                 ; 0x10 <__rc0>
     ee7: 88           	dey
     ee8: 91 10        	sta	($10),y                 ; 0x10 <__rc0>
     eea: 64 26        	stz	$26                     ; 0x26 <__rc22>
     eec: 88           	dey
     eed: 91 10        	sta	($10),y                 ; 0x10 <__rc0>
     eef: a2 90        	ldx	#$90
     ef1: 8a           	txa
     ef2: 88           	dey
     ef3: 91 10        	sta	($10),y                 ; 0x10 <__rc0>
     ef5: ad a0 dd     	lda	$dda0                   ; 0xdda0 <__heap_start+0x5748>
     ef8: 29 02        	and	#$2
     efa: f0 03        	beq	$eff <f256main+0x5eb>
     efc: 4c 24 11     	jmp	$1124 <f256main+0x810>
     eff: ae a2 dd     	ldx	$dda2                   ; 0xdda2 <__heap_start+0x574a>
     f02: 86 24        	stx	$24                     ; 0x24 <__rc20>
     f04: ad a3 dd     	lda	$dda3                   ; 0xdda3 <__heap_start+0x574b>
     f07: a6 61        	ldx	$61                     ; 0x61 <instSelectMode>
     f09: d0 35        	bne	$f40 <f256main+0x62c>
     f0b: a2 05        	ldx	#$5
     f0d: 86 33        	stx	$33                     ; 0x33 <_col>
     f0f: 8e 14 d0     	stx	$d014                   ; 0xd014 <__heap_start+0x49bc>
     f12: 9c 15 d0     	stz	$d015                   ; 0xd015 <__heap_start+0x49bd>
     f15: ca           	dex
     f16: 86 34        	stx	$34                     ; 0x34 <_row>
     f18: 8e 16 d0     	stx	$d016                   ; 0xd016 <__heap_start+0x49be>
     f1b: 9c 17 d0     	stz	$d017                   ; 0xd017 <__heap_start+0x49bf>
     f1e: a2 a2        	ldx	#$a2
     f20: 86 12        	stx	$12                     ; 0x12 <__rc2>
     f22: a2 7d        	ldx	#$7d
     f24: 86 13        	stx	$13                     ; 0x13 <__rc3>
     f26: 85 2b        	sta	$2b                     ; 0x2b <__rc27>
     f28: 20 ae 2f     	jsr	$2fae <textPrint>
     f2b: a5 2b        	lda	$2b                     ; 0x2b <__rc27>
     f2d: a2 05        	ldx	#$5
     f2f: 86 33        	stx	$33                     ; 0x33 <_col>
     f31: 8e 14 d0     	stx	$d014                   ; 0xd014 <__heap_start+0x49bc>
     f34: 9c 15 d0     	stz	$d015                   ; 0xd015 <__heap_start+0x49bd>
     f37: ca           	dex
     f38: 86 34        	stx	$34                     ; 0x34 <_row>
     f3a: 8e 16 d0     	stx	$d016                   ; 0xd016 <__heap_start+0x49be>
     f3d: 9c 17 d0     	stz	$d017                   ; 0xd017 <__heap_start+0x49bf>
     f40: 29 0f        	and	#$f
     f42: a6 24        	ldx	$24                     ; 0x24 <__rc20>
     f44: 86 2b        	stx	$2b                     ; 0x2b <__rc27>
     f46: aa           	tax
     f47: d0 36        	bne	$f7f <f256main+0x66b>
     f49: a6 2b        	ldx	$2b                     ; 0x2b <__rc27>
     f4b: d0 32        	bne	$f7f <f256main+0x66b>
     f4d: 4c 24 11     	jmp	$1124 <f256main+0x810>
     f50: a5 16        	lda	$16                     ; 0x16 <__rc6>
     f52: 30 18        	bmi	$f6c <f256main+0x658>
     f54: a0 0f        	ldy	#$f
     f56: b1 10        	lda	($10),y                 ; 0x10 <__rc0>
     f58: 29 f0        	and	#$f0
     f5a: c9 80        	cmp	#$80
     f5c: f0 04        	beq	$f62 <f256main+0x64e>
     f5e: c9 90        	cmp	#$90
     f60: d0 15        	bne	$f77 <f256main+0x663>
     f62: a2 01        	ldx	#$1
     f64: 8a           	txa
     f65: a0 12        	ldy	#$12
     f67: 91 10        	sta	($10),y                 ; 0x10 <__rc0>
     f69: 4c e3 10     	jmp	$10e3 <f256main+0x7cf>
     f6c: 64 12        	stz	$12                     ; 0x12 <__rc2>
     f6e: a9 00        	lda	#$0
     f70: a0 12        	ldy	#$12
     f72: 91 10        	sta	($10),y                 ; 0x10 <__rc0>
     f74: 4c ed 10     	jmp	$10ed <f256main+0x7d9>
     f77: a2 01        	ldx	#$1
     f79: 8a           	txa
     f7a: a0 12        	ldy	#$12
     f7c: 4c e5 10     	jmp	$10e5 <f256main+0x7d1>
     f7f: ae a1 dd     	ldx	$dda1                   ; 0xdda1 <__heap_start+0x5749>
     f82: e0 fe        	cpx	#$fe
     f84: d0 03        	bne	$f89 <f256main+0x675>
     f86: 4c 0e 11     	jmp	$110e <f256main+0x7fa>
     f89: 86 16        	stx	$16                     ; 0x16 <__rc6>
     f8b: a6 26        	ldx	$26                     ; 0x26 <__rc22>
     f8d: e0 ff        	cpx	#$ff
     f8f: d0 02        	bne	$f93 <f256main+0x67f>
     f91: a2 00        	ldx	#$0
     f93: e8           	inx
     f94: 48           	pha
     f95: a0 12        	ldy	#$12
     f97: b1 10        	lda	($10),y                 ; 0x10 <__rc0>
     f99: a8           	tay
     f9a: 68           	pla
     f9b: c0 00        	cpy	#$0
     f9d: f0 40        	beq	$fdf <f256main+0x6cb>
     f9f: 85 25        	sta	$25                     ; 0x25 <__rc21>
     fa1: 86 26        	stx	$26                     ; 0x26 <__rc22>
     fa3: a6 6a        	ldx	$6a                     ; 0x6a <gPtr>
     fa5: a4 6b        	ldy	$6b                     ; 0x6b <gPtr+0x1>
     fa7: 86 12        	stx	$12                     ; 0x12 <__rc2>
     fa9: 84 13        	sty	$13                     ; 0x13 <__rc3>
     fab: a2 40        	ldx	#$40
     fad: a5 16        	lda	$16                     ; 0x16 <__rc6>
     faf: c9 40        	cmp	#$40
     fb1: 90 01        	bcc	$fb4 <f256main+0x6a0>
     fb3: aa           	tax
     fb4: a0 05        	ldy	#$5
     fb6: b1 12        	lda	($12),y                 ; 0x12 <__rc2>
     fb8: 85 18        	sta	$18                     ; 0x18 <__rc8>
     fba: b2 12        	lda	($12)                   ; 0x12 <__rc2>
     fbc: 85 14        	sta	$14                     ; 0x14 <__rc4>
     fbe: c8           	iny
     fbf: b1 12        	lda	($12),y                 ; 0x12 <__rc2>
     fc1: 86 13        	stx	$13                     ; 0x13 <__rc3>
     fc3: a6 2a        	ldx	$2a                     ; 0x2a <__rc26>
     fc5: 86 12        	stx	$12                     ; 0x12 <__rc2>
     fc7: 85 15        	sta	$15                     ; 0x15 <__rc5>
     fc9: 64 16        	stz	$16                     ; 0x16 <__rc6>
     fcb: 64 17        	stz	$17                     ; 0x17 <__rc7>
     fcd: a6 18        	ldx	$18                     ; 0x18 <__rc8>
     fcf: a0 11        	ldy	#$11
     fd1: b1 10        	lda	($10),y                 ; 0x10 <__rc0>
     fd3: 20 66 31     	jsr	$3166 <dispatchNote>
     fd6: 64 12        	stz	$12                     ; 0x12 <__rc2>
     fd8: a9 00        	lda	#$0
     fda: a0 12        	ldy	#$12
     fdc: 4c 0a 11     	jmp	$110a <f256main+0x7f6>
     fdf: 85 25        	sta	$25                     ; 0x25 <__rc21>
     fe1: a0 10        	ldy	#$10
     fe3: b1 10        	lda	($10),y                 ; 0x10 <__rc0>
     fe5: d0 03        	bne	$fea <f256main+0x6d6>
     fe7: 4c 5e 10     	jmp	$105e <f256main+0x74a>
     fea: 86 26        	stx	$26                     ; 0x26 <__rc22>
     fec: a5 16        	lda	$16                     ; 0x16 <__rc6>
     fee: 18           	clc
     fef: 69 ec        	adc	#$ec
     ff1: a0 01        	ldy	#$1
     ff3: 48           	pha
     ff4: 5a           	phy
     ff5: a0 11        	ldy	#$11
     ff7: b1 10        	lda	($10),y                 ; 0x10 <__rc0>
     ff9: 7a           	ply
     ffa: aa           	tax
     ffb: 68           	pla
     ffc: e0 00        	cpx	#$0
     ffe: d0 03        	bne	$1003 <f256main+0x6ef>
    1000: 4c 84 10     	jmp	$1084 <f256main+0x770>
    1003: a6 16        	ldx	$16                     ; 0x16 <__rc6>
    1005: 86 2a        	stx	$2a                     ; 0x2a <__rc26>
    1007: 0a           	asl
    1008: 64 12        	stz	$12                     ; 0x12 <__rc2>
    100a: 26 12        	rol	$12                     ; 0x12 <__rc2>
    100c: 0a           	asl
    100d: 85 13        	sta	$13                     ; 0x13 <__rc3>
    100f: 26 12        	rol	$12                     ; 0x12 <__rc2>
    1011: a9 00        	lda	#$0
    1013: 18           	clc
    1014: 65 13        	adc	$13                     ; 0x13 <__rc3>
    1016: aa           	tax
    1017: a9 d0        	lda	#$d0
    1019: 65 12        	adc	$12                     ; 0x12 <__rc2>
    101b: 86 12        	stx	$12                     ; 0x12 <__rc2>
    101d: 85 13        	sta	$13                     ; 0x13 <__rc3>
    101f: a6 01        	ldx	$1                      ; 0x1 <__data_size+0x1>
    1021: 84 01        	sty	$1                      ; 0x1 <__data_size+0x1>
    1023: a9 ff        	lda	#$ff
    1025: 92 12        	sta	($12)                   ; 0x12 <__rc2>
    1027: 1a           	inc
    1028: 91 12        	sta	($12),y                 ; 0x12 <__rc2>
    102a: a0 02        	ldy	#$2
    102c: 3a           	dec
    102d: 91 12        	sta	($12),y                 ; 0x12 <__rc2>
    102f: c8           	iny
    1030: 91 12        	sta	($12),y                 ; 0x12 <__rc2>
    1032: 86 01        	stx	$1                      ; 0x1 <__data_size+0x1>
    1034: 64 33        	stz	$33                     ; 0x33 <_col>
    1036: 9c 14 d0     	stz	$d014                   ; 0xd014 <__heap_start+0x49bc>
    1039: 9c 15 d0     	stz	$d015                   ; 0xd015 <__heap_start+0x49bd>
    103c: a2 14        	ldx	#$14
    103e: 86 34        	stx	$34                     ; 0x34 <_row>
    1040: 8e 16 d0     	stx	$d016                   ; 0xd016 <__heap_start+0x49be>
    1043: 9c 17 d0     	stz	$d017                   ; 0xd017 <__heap_start+0x49bf>
    1046: 64 12        	stz	$12                     ; 0x12 <__rc2>
    1048: 64 13        	stz	$13                     ; 0x13 <__rc3>
    104a: a2 00        	ldx	#$0
    104c: a5 16        	lda	$16                     ; 0x16 <__rc6>
    104e: 20 96 40     	jsr	$4096 <textPrintUInt>
    1051: a2 01        	ldx	#$1
    1053: 8a           	txa
    1054: a0 12        	ldy	#$12
    1056: 91 10        	sta	($10),y                 ; 0x10 <__rc0>
    1058: 88           	dey
    1059: 91 10        	sta	($10),y                 ; 0x10 <__rc0>
    105b: 4c eb 10     	jmp	$10eb <f256main+0x7d7>
    105e: 86 26        	stx	$26                     ; 0x26 <__rc22>
    1060: a5 16        	lda	$16                     ; 0x16 <__rc6>
    1062: 29 f0        	and	#$f0
    1064: c9 90        	cmp	#$90
    1066: d0 03        	bne	$106b <f256main+0x757>
    1068: 4c f3 10     	jmp	$10f3 <f256main+0x7df>
    106b: c9 80        	cmp	#$80
    106d: f0 03        	beq	$1072 <f256main+0x75e>
    106f: 4c 50 0f     	jmp	$f50 <f256main+0x63c>
    1072: a2 01        	ldx	#$1
    1074: 8a           	txa
    1075: a0 10        	ldy	#$10
    1077: 91 10        	sta	($10),y                 ; 0x10 <__rc0>
    1079: 64 12        	stz	$12                     ; 0x12 <__rc2>
    107b: a9 00        	lda	#$0
    107d: c8           	iny
    107e: 91 10        	sta	($10),y                 ; 0x10 <__rc0>
    1080: c8           	iny
    1081: 4c 04 11     	jmp	$1104 <f256main+0x7f0>
    1084: aa           	tax
    1085: bc a8 82     	ldy	$82a8,x                 ; 0x82a8 <sidChoiceToVoice+0x5>
    1088: a2 01        	ldx	#$1
    108a: c0 00        	cpy	#$0
    108c: f0 02        	beq	$1090 <f256main+0x77c>
    108e: a2 00        	ldx	#$0
    1090: 64 12        	stz	$12                     ; 0x12 <__rc2>
    1092: a0 01        	ldy	#$1
    1094: 64 13        	stz	$13                     ; 0x13 <__rc3>
    1096: e0 00        	cpx	#$0
    1098: d0 02        	bne	$109c <f256main+0x788>
    109a: 84 13        	sty	$13                     ; 0x13 <__rc3>
    109c: 46 13        	lsr	$13                     ; 0x13 <__rc3>
    109e: 64 13        	stz	$13                     ; 0x13 <__rc3>
    10a0: 66 13        	ror	$13                     ; 0x13 <__rc3>
    10a2: 10 04        	bpl	$10a8 <f256main+0x794>
    10a4: a2 ff        	ldx	#$ff
    10a6: 80 02        	bra	$10aa <f256main+0x796>
    10a8: a2 00        	ldx	#$0
    10aa: 06 13        	asl	$13                     ; 0x13 <__rc3>
    10ac: 86 17        	stx	$17                     ; 0x17 <__rc7>
    10ae: 26 17        	rol	$17                     ; 0x17 <__rc7>
    10b0: 0a           	asl
    10b1: 26 12        	rol	$12                     ; 0x12 <__rc2>
    10b3: 0a           	asl
    10b4: 26 12        	rol	$12                     ; 0x12 <__rc2>
    10b6: 64 13        	stz	$13                     ; 0x13 <__rc3>
    10b8: 18           	clc
    10b9: 65 13        	adc	$13                     ; 0x13 <__rc3>
    10bb: 85 14        	sta	$14                     ; 0x14 <__rc4>
    10bd: a9 d0        	lda	#$d0
    10bf: 65 12        	adc	$12                     ; 0x12 <__rc2>
    10c1: 85 15        	sta	$15                     ; 0x15 <__rc5>
    10c3: a6 01        	ldx	$1                      ; 0x1 <__data_size+0x1>
    10c5: a9 01        	lda	#$1
    10c7: 85 01        	sta	$1                      ; 0x1 <__data_size+0x1>
    10c9: a5 17        	lda	$17                     ; 0x17 <__rc7>
    10cb: 91 14        	sta	($14),y                 ; 0x14 <__rc4>
    10cd: 92 14        	sta	($14)                   ; 0x14 <__rc4>
    10cf: a0 02        	ldy	#$2
    10d1: 91 14        	sta	($14),y                 ; 0x14 <__rc4>
    10d3: a9 ff        	lda	#$ff
    10d5: c8           	iny
    10d6: 91 14        	sta	($14),y                 ; 0x14 <__rc4>
    10d8: 86 01        	stx	$1                      ; 0x1 <__data_size+0x1>
    10da: a2 01        	ldx	#$1
    10dc: 8a           	txa
    10dd: a0 12        	ldy	#$12
    10df: 91 10        	sta	($10),y                 ; 0x10 <__rc0>
    10e1: a9 00        	lda	#$0
    10e3: a0 11        	ldy	#$11
    10e5: 91 10        	sta	($10),y                 ; 0x10 <__rc0>
    10e7: a6 16        	ldx	$16                     ; 0x16 <__rc6>
    10e9: 86 2a        	stx	$2a                     ; 0x2a <__rc26>
    10eb: 64 12        	stz	$12                     ; 0x12 <__rc2>
    10ed: a9 00        	lda	#$0
    10ef: a0 10        	ldy	#$10
    10f1: 80 17        	bra	$110a <f256main+0x7f6>
    10f3: a2 01        	ldx	#$1
    10f5: 8a           	txa
    10f6: a0 10        	ldy	#$10
    10f8: 91 10        	sta	($10),y                 ; 0x10 <__rc0>
    10fa: 64 12        	stz	$12                     ; 0x12 <__rc2>
    10fc: a9 00        	lda	#$0
    10fe: a0 12        	ldy	#$12
    1100: 91 10        	sta	($10),y                 ; 0x10 <__rc0>
    1102: 8a           	txa
    1103: 88           	dey
    1104: 91 10        	sta	($10),y                 ; 0x10 <__rc0>
    1106: a5 16        	lda	$16                     ; 0x16 <__rc6>
    1108: a0 0f        	ldy	#$f
    110a: 91 10        	sta	($10),y                 ; 0x10 <__rc0>
    110c: a5 25        	lda	$25                     ; 0x25 <__rc21>
    110e: a2 ff        	ldx	#$ff
    1110: c6 2b        	dec	$2b                     ; 0x2b <__rc27>
    1112: e4 2b        	cpx	$2b                     ; 0x2b <__rc27>
    1114: d0 01        	bne	$1117 <f256main+0x803>
    1116: 3a           	dec
    1117: aa           	tax
    1118: f0 03        	beq	$111d <f256main+0x809>
    111a: 4c 7f 0f     	jmp	$f7f <f256main+0x66b>
    111d: a6 2b        	ldx	$2b                     ; 0x2b <__rc27>
    111f: f0 03        	beq	$1124 <f256main+0x810>
    1121: 4c 7f 0f     	jmp	$f7f <f256main+0x66b>
    1124: 64 83        	stz	$83                     ; 0x83 <kernelEventData>
    1126: 18           	clc
    1127: a5 10        	lda	$10                     ; 0x10 <__rc0>
    1129: 69 13        	adc	#$13
    112b: 85 12        	sta	$12                     ; 0x12 <__rc2>
    112d: a5 11        	lda	$11                     ; 0x11 <__rc1>
    112f: 69 00        	adc	#$0
    1131: 85 13        	sta	$13                     ; 0x13 <__rc3>
    1133: 20 00 ff     	jsr	$ff00 <__heap_start+0x78a8>
    1136: 92 12        	sta	($12)                   ; 0x12 <__rc2>
    1138: a9 00        	lda	#$0
    113a: 6a           	ror
    113b: 85 2e        	sta	$2e                     ; 0x2e <__rc30>
    113d: a6 83        	ldx	$83                     ; 0x83 <kernelEventData>
    113f: e0 08        	cpx	#$8
    1141: f0 4c        	beq	$118f <f256main+0x87b>
    1143: e0 0a        	cpx	#$a
    1145: f0 2c        	beq	$1173 <f256main+0x85f>
    1147: e0 52        	cpx	#$52
    1149: f0 03        	beq	$114e <f256main+0x83a>
    114b: 4c f5 0e     	jmp	$ef5 <f256main+0x5e1>
    114e: a6 87        	ldx	$87                     ; 0x87 <kernelEventData+0x4>
    1150: d0 03        	bne	$1155 <f256main+0x841>
    1152: 4c 0e 12     	jmp	$120e <f256main+0x8fa>
    1155: 18           	clc
    1156: 86 2d        	stx	$2d                     ; 0x2d <__rc29>
    1158: 8a           	txa
    1159: 69 fa        	adc	#$fa
    115b: aa           	tax
    115c: 85 2b        	sta	$2b                     ; 0x2b <__rc27>
    115e: a9 00        	lda	#$0
    1160: 69 ff        	adc	#$ff
    1162: 85 2c        	sta	$2c                     ; 0x2c <__rc28>
    1164: f0 03        	beq	$1169 <f256main+0x855>
    1166: 4c 52 12     	jmp	$1252 <f256main+0x93e>
    1169: e0 fa        	cpx	#$fa
    116b: 90 03        	bcc	$1170 <f256main+0x85c>
    116d: 4c f5 0e     	jmp	$ef5 <f256main+0x5e1>
    1170: 4c 59 12     	jmp	$1259 <f256main+0x945>
    1173: a6 87        	ldx	$87                     ; 0x87 <kernelEventData+0x4>
    1175: e0 01        	cpx	#$1
    1177: d0 03        	bne	$117c <f256main+0x868>
    1179: 4c 1f 15     	jmp	$151f <f256main+0xc0b>
    117c: e0 20        	cpx	#$20
    117e: d0 03        	bne	$1183 <f256main+0x86f>
    1180: 4c ee 14     	jmp	$14ee <f256main+0xbda>
    1183: e0 05        	cpx	#$5
    1185: f0 03        	beq	$118a <f256main+0x876>
    1187: 4c f5 0e     	jmp	$ef5 <f256main+0x5e1>
    118a: 64 63        	stz	$63                     ; 0x63 <altHit>
    118c: 4c f5 0e     	jmp	$ef5 <f256main+0x5e1>
    118f: a5 87        	lda	$87                     ; 0x87 <kernelEventData+0x4>
    1191: aa           	tax
    1192: 38           	sec
    1193: e9 01        	sbc	#$1
    1195: 50 02        	bvc	$1199 <f256main+0x885>
    1197: 49 80        	eor	#$80
    1199: a8           	tay
    119a: 10 3b        	bpl	$11d7 <f256main+0x8c3>
    119c: 8a           	txa
    119d: 38           	sec
    119e: e9 94        	sbc	#$94
    11a0: 50 02        	bvc	$11a4 <f256main+0x890>
    11a2: 49 80        	eor	#$80
    11a4: a8           	tay
    11a5: 30 03        	bmi	$11aa <f256main+0x896>
    11a7: 4c 74 14     	jmp	$1474 <f256main+0xb60>
    11aa: a0 12        	ldy	#$12
    11ac: b1 10        	lda	($10),y                 ; 0x10 <__rc0>
    11ae: 85 25        	sta	$25                     ; 0x25 <__rc21>
    11b0: 8a           	txa
    11b1: 18           	clc
    11b2: 69 7f        	adc	#$7f
    11b4: c9 07        	cmp	#$7
    11b6: 90 03        	bcc	$11bb <f256main+0x8a7>
    11b8: 4c f4 18     	jmp	$18f4 <f256main+0xfe0>
    11bb: 0a           	asl
    11bc: aa           	tax
    11bd: 7c a1 75     	jmp	($75a1,x)               ; 0x75a1 <__set_v+0x1>
    11c0: a4 61        	ldy	$61                     ; 0x61 <instSelectMode>
    11c2: a2 01        	ldx	#$1
    11c4: 98           	tya
    11c5: f0 02        	beq	$11c9 <f256main+0x8b5>
    11c7: a2 00        	ldx	#$0
    11c9: a9 20        	lda	#$20
    11cb: e0 00        	cpx	#$0
    11cd: d0 03        	bne	$11d2 <f256main+0x8be>
    11cf: 4c 36 1e     	jmp	$1e36 <f256main+0x1522>
    11d2: a0 01        	ldy	#$1
    11d4: 4c 38 1e     	jmp	$1e38 <f256main+0x1524>
    11d7: 8a           	txa
    11d8: 38           	sec
    11d9: e9 5d        	sbc	#$5d
    11db: 50 02        	bvc	$11df <f256main+0x8cb>
    11dd: 49 80        	eor	#$80
    11df: a8           	tay
    11e0: 30 03        	bmi	$11e5 <f256main+0x8d1>
    11e2: 4c 24 15     	jmp	$1524 <f256main+0xc10>
    11e5: 8a           	txa
    11e6: 38           	sec
    11e7: e9 20        	sbc	#$20
    11e9: 50 02        	bvc	$11ed <f256main+0x8d9>
    11eb: 49 80        	eor	#$80
    11ed: a8           	tay
    11ee: 30 03        	bmi	$11f3 <f256main+0x8df>
    11f0: 4c 38 16     	jmp	$1638 <f256main+0xd24>
    11f3: a0 12        	ldy	#$12
    11f5: b1 10        	lda	($10),y                 ; 0x10 <__rc0>
    11f7: 85 25        	sta	$25                     ; 0x25 <__rc21>
    11f9: e0 01        	cpx	#$1
    11fb: d0 03        	bne	$1200 <f256main+0x8ec>
    11fd: 4c 98 19     	jmp	$1998 <f256main+0x1084>
    1200: e0 05        	cpx	#$5
    1202: f0 03        	beq	$1207 <f256main+0x8f3>
    1204: 4c 7c 2a     	jmp	$2a7c <f256main+0x2168>
    1207: a2 01        	ldx	#$1
    1209: 86 63        	stx	$63                     ; 0x63 <altHit>
    120b: 4c 7c 2a     	jmp	$2a7c <f256main+0x2168>
    120e: a2 80        	ldx	#$80
    1210: 86 f3        	stx	$f3                     ; 0xf3 <__zp_bss_size+0x99>
    1212: 18           	clc
    1213: a5 10        	lda	$10                     ; 0x10 <__rc0>
    1215: 69 1c        	adc	#$1c
    1217: 85 12        	sta	$12                     ; 0x12 <__rc2>
    1219: a5 11        	lda	$11                     ; 0x11 <__rc1>
    121b: 69 00        	adc	#$0
    121d: 85 13        	sta	$13                     ; 0x13 <__rc3>
    121f: 20 f0 ff     	jsr	$fff0 <__heap_start+0x7998>
    1222: 92 12        	sta	($12)                   ; 0x12 <__rc2>
    1224: a9 00        	lda	#$0
    1226: 6a           	ror
    1227: 85 2e        	sta	$2e                     ; 0x2e <__rc30>
    1229: a9 09        	lda	#$9
    122b: 18           	clc
    122c: 72 12        	adc	($12)                   ; 0x12 <__rc2>
    122e: 85 80        	sta	$80                     ; 0x80 <refTimer.1>
    1230: 64 f3        	stz	$f3                     ; 0xf3 <__zp_bss_size+0x99>
    1232: a6 80        	ldx	$80                     ; 0x80 <refTimer.1>
    1234: 86 f4        	stx	$f4                     ; 0xf4 <__zp_bss_size+0x9a>
    1236: 64 f5        	stz	$f5                     ; 0xf5 <__zp_bss_size+0x9b>
    1238: 18           	clc
    1239: a5 10        	lda	$10                     ; 0x10 <__rc0>
    123b: 69 1d        	adc	#$1d
    123d: 85 12        	sta	$12                     ; 0x12 <__rc2>
    123f: a5 11        	lda	$11                     ; 0x11 <__rc1>
    1241: 69 00        	adc	#$0
    1243: 85 13        	sta	$13                     ; 0x13 <__rc3>
    1245: 20 f0 ff     	jsr	$fff0 <__heap_start+0x7998>
    1248: 92 12        	sta	($12)                   ; 0x12 <__rc2>
    124a: a9 00        	lda	#$0
    124c: 6a           	ror
    124d: 85 2e        	sta	$2e                     ; 0x2e <__rc30>
    124f: 4c f5 0e     	jmp	$ef5 <f256main+0x5e1>
    1252: c9 00        	cmp	#$0
    1254: 90 03        	bcc	$1259 <f256main+0x945>
    1256: 4c f5 0e     	jmp	$ef5 <f256main+0x5e1>
    1259: a5 7e        	lda	$7e                     ; 0x7e <theBeats>
    125b: a6 7f        	ldx	$7f                     ; 0x7f <theBeats+0x1>
    125d: 85 12        	sta	$12                     ; 0x12 <__rc2>
    125f: 85 1b        	sta	$1b                     ; 0x1b <__rc11>
    1261: 86 13        	stx	$13                     ; 0x13 <__rc3>
    1263: 86 19        	stx	$19                     ; 0x19 <__rc9>
    1265: a6 6a        	ldx	$6a                     ; 0x6a <gPtr>
    1267: a0 12        	ldy	#$12
    1269: b1 10        	lda	($10),y                 ; 0x10 <__rc0>
    126b: 85 27        	sta	$27                     ; 0x27 <__rc23>
    126d: a4 6b        	ldy	$6b                     ; 0x6b <gPtr+0x1>
    126f: 86 16        	stx	$16                     ; 0x16 <__rc6>
    1271: 84 17        	sty	$17                     ; 0x17 <__rc7>
    1273: a0 08        	ldy	#$8
    1275: b1 16        	lda	($16),y                 ; 0x16 <__rc6>
    1277: 85 1a        	sta	$1a                     ; 0x1a <__rc10>
    1279: 64 14        	stz	$14                     ; 0x14 <__rc4>
    127b: 0a           	asl
    127c: 64 18        	stz	$18                     ; 0x18 <__rc8>
    127e: 26 18        	rol	$18                     ; 0x18 <__rc8>
    1280: 0a           	asl
    1281: 26 18        	rol	$18                     ; 0x18 <__rc8>
    1283: 0a           	asl
    1284: 26 18        	rol	$18                     ; 0x18 <__rc8>
    1286: 0a           	asl
    1287: 26 18        	rol	$18                     ; 0x18 <__rc8>
    1289: 38           	sec
    128a: e5 1a        	sbc	$1a                     ; 0x1a <__rc10>
    128c: 85 15        	sta	$15                     ; 0x15 <__rc5>
    128e: a5 18        	lda	$18                     ; 0x18 <__rc8>
    1290: e9 00        	sbc	#$0
    1292: 85 18        	sta	$18                     ; 0x18 <__rc8>
    1294: a5 1b        	lda	$1b                     ; 0x1b <__rc11>
    1296: 18           	clc
    1297: 65 15        	adc	$15                     ; 0x15 <__rc5>
    1299: 85 15        	sta	$15                     ; 0x15 <__rc5>
    129b: a5 19        	lda	$19                     ; 0x19 <__rc9>
    129d: 85 1e        	sta	$1e                     ; 0x1e <__rc14>
    129f: 65 18        	adc	$18                     ; 0x18 <__rc8>
    12a1: a6 15        	ldx	$15                     ; 0x15 <__rc5>
    12a3: a4 15        	ldy	$15                     ; 0x15 <__rc5>
    12a5: 84 18        	sty	$18                     ; 0x18 <__rc8>
    12a7: 85 15        	sta	$15                     ; 0x15 <__rc5>
    12a9: 85 19        	sta	$19                     ; 0x19 <__rc9>
    12ab: b2 18        	lda	($18)                   ; 0x18 <__rc8>
    12ad: d0 03        	bne	$12b2 <f256main+0x99e>
    12af: 4c f5 0e     	jmp	$ef5 <f256main+0x5e1>
    12b2: 18           	clc
    12b3: 8a           	txa
    12b4: 69 0b        	adc	#$b
    12b6: 85 1c        	sta	$1c                     ; 0x1c <__rc12>
    12b8: a5 15        	lda	$15                     ; 0x15 <__rc5>
    12ba: 69 00        	adc	#$0
    12bc: 85 1d        	sta	$1d                     ; 0x1d <__rc13>
    12be: a0 01        	ldy	#$1
    12c0: b1 1c        	lda	($1c),y                 ; 0x1c <__rc12>
    12c2: 85 15        	sta	$15                     ; 0x15 <__rc5>
    12c4: 18           	clc
    12c5: a5 2d        	lda	$2d                     ; 0x2d <__rc29>
    12c7: a0 0b        	ldy	#$b
    12c9: 71 18        	adc	($18),y                 ; 0x18 <__rc8>
    12cb: aa           	tax
    12cc: a5 15        	lda	$15                     ; 0x15 <__rc5>
    12ce: 69 00        	adc	#$0
    12d0: 85 15        	sta	$15                     ; 0x15 <__rc5>
    12d2: 18           	clc
    12d3: 8a           	txa
    12d4: 69 fa        	adc	#$fa
    12d6: 85 18        	sta	$18                     ; 0x18 <__rc8>
    12d8: a5 15        	lda	$15                     ; 0x15 <__rc5>
    12da: 69 ff        	adc	#$ff
    12dc: 85 19        	sta	$19                     ; 0x19 <__rc9>
    12de: b2 18        	lda	($18)                   ; 0x18 <__rc8>
    12e0: c9 02        	cmp	#$2
    12e2: d0 0a        	bne	$12ee <f256main+0x9da>
    12e4: a9 00        	lda	#$0
    12e6: 92 18        	sta	($18)                   ; 0x18 <__rc8>
    12e8: a0 08        	ldy	#$8
    12ea: b1 16        	lda	($16),y                 ; 0x16 <__rc6>
    12ec: 85 1a        	sta	$1a                     ; 0x1a <__rc10>
    12ee: a5 1a        	lda	$1a                     ; 0x1a <__rc10>
    12f0: 0a           	asl
    12f1: 64 16        	stz	$16                     ; 0x16 <__rc6>
    12f3: 26 16        	rol	$16                     ; 0x16 <__rc6>
    12f5: 0a           	asl
    12f6: 26 16        	rol	$16                     ; 0x16 <__rc6>
    12f8: 0a           	asl
    12f9: 26 16        	rol	$16                     ; 0x16 <__rc6>
    12fb: 0a           	asl
    12fc: 26 16        	rol	$16                     ; 0x16 <__rc6>
    12fe: 38           	sec
    12ff: e5 1a        	sbc	$1a                     ; 0x1a <__rc10>
    1301: 85 15        	sta	$15                     ; 0x15 <__rc5>
    1303: a5 16        	lda	$16                     ; 0x16 <__rc6>
    1305: e5 14        	sbc	$14                     ; 0x14 <__rc4>
    1307: 85 14        	sta	$14                     ; 0x14 <__rc4>
    1309: 18           	clc
    130a: a5 1b        	lda	$1b                     ; 0x1b <__rc11>
    130c: 65 15        	adc	$15                     ; 0x15 <__rc5>
    130e: aa           	tax
    130f: a5 1e        	lda	$1e                     ; 0x1e <__rc14>
    1311: 65 14        	adc	$14                     ; 0x14 <__rc4>
    1313: 86 14        	stx	$14                     ; 0x14 <__rc4>
    1315: 85 15        	sta	$15                     ; 0x15 <__rc5>
    1317: a8           	tay
    1318: 18           	clc
    1319: 8a           	txa
    131a: 69 0b        	adc	#$b
    131c: 85 16        	sta	$16                     ; 0x16 <__rc6>
    131e: 98           	tya
    131f: 69 00        	adc	#$0
    1321: 85 17        	sta	$17                     ; 0x17 <__rc7>
    1323: a0 01        	ldy	#$1
    1325: b1 16        	lda	($16),y                 ; 0x16 <__rc6>
    1327: 85 17        	sta	$17                     ; 0x17 <__rc7>
    1329: 18           	clc
    132a: a5 2d        	lda	$2d                     ; 0x2d <__rc29>
    132c: 85 16        	sta	$16                     ; 0x16 <__rc6>
    132e: a0 0b        	ldy	#$b
    1330: 71 14        	adc	($14),y                 ; 0x14 <__rc4>
    1332: aa           	tax
    1333: a5 17        	lda	$17                     ; 0x17 <__rc7>
    1335: 69 00        	adc	#$0
    1337: 85 14        	sta	$14                     ; 0x14 <__rc4>
    1339: 18           	clc
    133a: 8a           	txa
    133b: 69 fa        	adc	#$fa
    133d: aa           	tax
    133e: a5 14        	lda	$14                     ; 0x14 <__rc4>
    1340: 69 ff        	adc	#$ff
    1342: 85 15        	sta	$15                     ; 0x15 <__rc5>
    1344: 86 14        	stx	$14                     ; 0x14 <__rc4>
    1346: a5 2b        	lda	$2b                     ; 0x2b <__rc27>
    1348: 0a           	asl
    1349: 85 17        	sta	$17                     ; 0x17 <__rc7>
    134b: a5 2c        	lda	$2c                     ; 0x2c <__rc28>
    134d: 2a           	rol
    134e: 85 18        	sta	$18                     ; 0x18 <__rc8>
    1350: b2 14        	lda	($14)                   ; 0x14 <__rc4>
    1352: c9 01        	cmp	#$1
    1354: f0 03        	beq	$1359 <f256main+0xa45>
    1356: 4c dc 16     	jmp	$16dc <f256main+0xdc8>
    1359: a2 80        	ldx	#$80
    135b: 86 f3        	stx	$f3                     ; 0xf3 <__zp_bss_size+0x99>
    135d: 18           	clc
    135e: a5 10        	lda	$10                     ; 0x10 <__rc0>
    1360: 69 1e        	adc	#$1e
    1362: 85 12        	sta	$12                     ; 0x12 <__rc2>
    1364: a5 11        	lda	$11                     ; 0x11 <__rc1>
    1366: 69 00        	adc	#$0
    1368: 85 13        	sta	$13                     ; 0x13 <__rc3>
    136a: 20 f0 ff     	jsr	$fff0 <__heap_start+0x7998>
    136d: 92 12        	sta	($12)                   ; 0x12 <__rc2>
    136f: a9 00        	lda	#$0
    1371: 6a           	ror
    1372: 85 2e        	sta	$2e                     ; 0x2e <__rc30>
    1374: b2 12        	lda	($12)                   ; 0x12 <__rc2>
    1376: 85 12        	sta	$12                     ; 0x12 <__rc2>
    1378: b2 28        	lda	($28)                   ; 0x28 <__rc24>
    137a: aa           	tax
    137b: 18           	clc
    137c: a5 12        	lda	$12                     ; 0x12 <__rc2>
    137e: 75 6c        	adc	$6c,x                   ; 0x6c <mainTempoLUT>
    1380: 85 19        	sta	$19                     ; 0x19 <__rc9>
    1382: a6 6a        	ldx	$6a                     ; 0x6a <gPtr>
    1384: a4 6b        	ldy	$6b                     ; 0x6b <gPtr+0x1>
    1386: 86 12        	stx	$12                     ; 0x12 <__rc2>
    1388: 84 13        	sty	$13                     ; 0x13 <__rc3>
    138a: a0 08        	ldy	#$8
    138c: b1 12        	lda	($12),y                 ; 0x12 <__rc2>
    138e: 85 12        	sta	$12                     ; 0x12 <__rc2>
    1390: 0a           	asl
    1391: aa           	tax
    1392: a9 00        	lda	#$0
    1394: 2a           	rol
    1395: 86 13        	stx	$13                     ; 0x13 <__rc3>
    1397: 06 13        	asl	$13                     ; 0x13 <__rc3>
    1399: 2a           	rol
    139a: 06 13        	asl	$13                     ; 0x13 <__rc3>
    139c: 2a           	rol
    139d: 06 13        	asl	$13                     ; 0x13 <__rc3>
    139f: 2a           	rol
    13a0: aa           	tax
    13a1: 38           	sec
    13a2: a5 13        	lda	$13                     ; 0x13 <__rc3>
    13a4: e5 12        	sbc	$12                     ; 0x12 <__rc2>
    13a6: 85 12        	sta	$12                     ; 0x12 <__rc2>
    13a8: 8a           	txa
    13a9: e9 00        	sbc	#$0
    13ab: a8           	tay
    13ac: 18           	clc
    13ad: a5 12        	lda	$12                     ; 0x12 <__rc2>
    13af: 65 7e        	adc	$7e                     ; 0x7e <theBeats>
    13b1: aa           	tax
    13b2: 98           	tya
    13b3: 65 7f        	adc	$7f                     ; 0x7f <theBeats+0x1>
    13b5: 86 12        	stx	$12                     ; 0x12 <__rc2>
    13b7: 85 13        	sta	$13                     ; 0x13 <__rc3>
    13b9: a8           	tay
    13ba: 18           	clc
    13bb: 8a           	txa
    13bc: 69 0d        	adc	#$d
    13be: 85 14        	sta	$14                     ; 0x14 <__rc4>
    13c0: 98           	tya
    13c1: 69 00        	adc	#$0
    13c3: 85 15        	sta	$15                     ; 0x15 <__rc5>
    13c5: 18           	clc
    13c6: a5 17        	lda	$17                     ; 0x17 <__rc7>
    13c8: 65 2b        	adc	$2b                     ; 0x2b <__rc27>
    13ca: aa           	tax
    13cb: a5 18        	lda	$18                     ; 0x18 <__rc8>
    13cd: 65 2c        	adc	$2c                     ; 0x2c <__rc28>
    13cf: 85 17        	sta	$17                     ; 0x17 <__rc7>
    13d1: 18           	clc
    13d2: a0 0d        	ldy	#$d
    13d4: 8a           	txa
    13d5: 71 12        	adc	($12),y                 ; 0x12 <__rc2>
    13d7: 85 12        	sta	$12                     ; 0x12 <__rc2>
    13d9: a0 01        	ldy	#$1
    13db: a5 17        	lda	$17                     ; 0x17 <__rc7>
    13dd: 71 14        	adc	($14),y                 ; 0x14 <__rc4>
    13df: 85 13        	sta	$13                     ; 0x13 <__rc3>
    13e1: a5 19        	lda	$19                     ; 0x19 <__rc9>
    13e3: 91 12        	sta	($12),y                 ; 0x12 <__rc2>
    13e5: b2 12        	lda	($12)                   ; 0x12 <__rc2>
    13e7: 85 f3        	sta	$f3                     ; 0xf3 <__zp_bss_size+0x99>
    13e9: b1 12        	lda	($12),y                 ; 0x12 <__rc2>
    13eb: 85 f4        	sta	$f4                     ; 0xf4 <__zp_bss_size+0x9a>
    13ed: c8           	iny
    13ee: b1 12        	lda	($12),y                 ; 0x12 <__rc2>
    13f0: 85 f5        	sta	$f5                     ; 0xf5 <__zp_bss_size+0x9b>
    13f2: 18           	clc
    13f3: a5 10        	lda	$10                     ; 0x10 <__rc0>
    13f5: 69 1f        	adc	#$1f
    13f7: 85 12        	sta	$12                     ; 0x12 <__rc2>
    13f9: a5 11        	lda	$11                     ; 0x11 <__rc1>
    13fb: 69 00        	adc	#$0
    13fd: 85 13        	sta	$13                     ; 0x13 <__rc3>
    13ff: 20 f0 ff     	jsr	$fff0 <__heap_start+0x7998>
    1402: 92 12        	sta	($12)                   ; 0x12 <__rc2>
    1404: a9 00        	lda	#$0
    1406: 6a           	ror
    1407: 85 2e        	sta	$2e                     ; 0x2e <__rc30>
    1409: a6 6a        	ldx	$6a                     ; 0x6a <gPtr>
    140b: a4 6b        	ldy	$6b                     ; 0x6b <gPtr+0x1>
    140d: 86 12        	stx	$12                     ; 0x12 <__rc2>
    140f: 84 13        	sty	$13                     ; 0x13 <__rc3>
    1411: a0 08        	ldy	#$8
    1413: b1 12        	lda	($12),y                 ; 0x12 <__rc2>
    1415: 85 12        	sta	$12                     ; 0x12 <__rc2>
    1417: 0a           	asl
    1418: aa           	tax
    1419: a9 00        	lda	#$0
    141b: 2a           	rol
    141c: 86 13        	stx	$13                     ; 0x13 <__rc3>
    141e: 06 13        	asl	$13                     ; 0x13 <__rc3>
    1420: 2a           	rol
    1421: 06 13        	asl	$13                     ; 0x13 <__rc3>
    1423: 2a           	rol
    1424: 06 13        	asl	$13                     ; 0x13 <__rc3>
    1426: 2a           	rol
    1427: aa           	tax
    1428: 38           	sec
    1429: a5 13        	lda	$13                     ; 0x13 <__rc3>
    142b: e5 12        	sbc	$12                     ; 0x12 <__rc2>
    142d: 85 12        	sta	$12                     ; 0x12 <__rc2>
    142f: 8a           	txa
    1430: e9 00        	sbc	#$0
    1432: a8           	tay
    1433: 18           	clc
    1434: a5 12        	lda	$12                     ; 0x12 <__rc2>
    1436: 65 7e        	adc	$7e                     ; 0x7e <theBeats>
    1438: aa           	tax
    1439: 98           	tya
    143a: 65 7f        	adc	$7f                     ; 0x7f <theBeats+0x1>
    143c: 86 12        	stx	$12                     ; 0x12 <__rc2>
    143e: 85 13        	sta	$13                     ; 0x13 <__rc3>
    1440: a8           	tay
    1441: 18           	clc
    1442: 8a           	txa
    1443: 69 0b        	adc	#$b
    1445: 85 14        	sta	$14                     ; 0x14 <__rc4>
    1447: 98           	tya
    1448: 69 00        	adc	#$0
    144a: 85 15        	sta	$15                     ; 0x15 <__rc5>
    144c: a0 01        	ldy	#$1
    144e: b1 14        	lda	($14),y                 ; 0x14 <__rc4>
    1450: 85 14        	sta	$14                     ; 0x14 <__rc4>
    1452: 18           	clc
    1453: a5 16        	lda	$16                     ; 0x16 <__rc6>
    1455: a0 0b        	ldy	#$b
    1457: 71 12        	adc	($12),y                 ; 0x12 <__rc2>
    1459: aa           	tax
    145a: a5 14        	lda	$14                     ; 0x14 <__rc4>
    145c: 69 00        	adc	#$0
    145e: 85 12        	sta	$12                     ; 0x12 <__rc2>
    1460: 18           	clc
    1461: 8a           	txa
    1462: 69 fa        	adc	#$fa
    1464: aa           	tax
    1465: a5 12        	lda	$12                     ; 0x12 <__rc2>
    1467: 69 ff        	adc	#$ff
    1469: 85 13        	sta	$13                     ; 0x13 <__rc3>
    146b: 86 12        	stx	$12                     ; 0x12 <__rc2>
    146d: a9 02        	lda	#$2
    146f: 92 12        	sta	($12)                   ; 0x12 <__rc2>
    1471: 4c f5 0e     	jmp	$ef5 <f256main+0x5e1>
    1474: 8a           	txa
    1475: 18           	clc
    1476: 69 4a        	adc	#$4a
    1478: c9 04        	cmp	#$4
    147a: 90 03        	bcc	$147f <f256main+0xb6b>
    147c: 4c b2 18     	jmp	$18b2 <f256main+0xf9e>
    147f: 0a           	asl
    1480: aa           	tax
    1481: 7c af 75     	jmp	($75af,x)               ; 0x75af <__set_v+0xf>
    1484: a0 12        	ldy	#$12
    1486: b1 10        	lda	($10),y                 ; 0x10 <__rc0>
    1488: 85 25        	sta	$25                     ; 0x25 <__rc21>
    148a: a6 61        	ldx	$61                     ; 0x61 <instSelectMode>
    148c: a4 6a        	ldy	$6a                     ; 0x6a <gPtr>
    148e: a5 6b        	lda	$6b                     ; 0x6b <gPtr+0x1>
    1490: 84 12        	sty	$12                     ; 0x12 <__rc2>
    1492: 85 13        	sta	$13                     ; 0x13 <__rc3>
    1494: a0 06        	ldy	#$6
    1496: b1 12        	lda	($12),y                 ; 0x12 <__rc2>
    1498: e0 00        	cpx	#$0
    149a: d0 03        	bne	$149f <f256main+0xb8b>
    149c: 4c f5 24     	jmp	$24f5 <f256main+0x1be1>
    149f: aa           	tax
    14a0: f0 03        	beq	$14a5 <f256main+0xb91>
    14a2: 4c 15 28     	jmp	$2815 <f256main+0x1f01>
    14a5: a6 12        	ldx	$12                     ; 0x12 <__rc2>
    14a7: 86 14        	stx	$14                     ; 0x14 <__rc4>
    14a9: a6 13        	ldx	$13                     ; 0x13 <__rc3>
    14ab: 86 15        	stx	$15                     ; 0x15 <__rc5>
    14ad: e6 14        	inc	$14                     ; 0x14 <__rc4>
    14af: d0 02        	bne	$14b3 <f256main+0xb9f>
    14b1: e6 15        	inc	$15                     ; 0x15 <__rc5>
    14b3: a5 64        	lda	$64                     ; 0x64 <shiftHit>
    14b5: 29 01        	and	#$1
    14b7: a2 1d        	ldx	#$1d
    14b9: a0 00        	ldy	#$0
    14bb: c9 00        	cmp	#$0
    14bd: d0 02        	bne	$14c1 <f256main+0xbad>
    14bf: a2 02        	ldx	#$2
    14c1: a9 01        	lda	#$1
    14c3: 25 64        	and	$64                     ; 0x64 <shiftHit>
    14c5: 85 17        	sta	$17                     ; 0x17 <__rc7>
    14c7: 98           	tya
    14c8: f0 03        	beq	$14cd <f256main+0xbb9>
    14ca: 4c 58 27     	jmp	$2758 <f256main+0x1e44>
    14cd: a0 01        	ldy	#$1
    14cf: b1 12        	lda	($12),y                 ; 0x12 <__rc2>
    14d1: 85 16        	sta	$16                     ; 0x16 <__rc6>
    14d3: b1 14        	lda	($14),y                 ; 0x14 <__rc4>
    14d5: a4 16        	ldy	$16                     ; 0x16 <__rc6>
    14d7: 84 14        	sty	$14                     ; 0x14 <__rc4>
    14d9: 85 15        	sta	$15                     ; 0x15 <__rc5>
    14db: a0 05        	ldy	#$5
    14dd: b1 12        	lda	($12),y                 ; 0x12 <__rc2>
    14df: a8           	tay
    14e0: b1 14        	lda	($14),y                 ; 0x14 <__rc4>
    14e2: 85 14        	sta	$14                     ; 0x14 <__rc4>
    14e4: e4 14        	cpx	$14                     ; 0x14 <__rc4>
    14e6: b0 03        	bcs	$14eb <f256main+0xbd7>
    14e8: 4c 5f 27     	jmp	$275f <f256main+0x1e4b>
    14eb: 4c 7c 2a     	jmp	$2a7c <f256main+0x2168>
    14ee: a6 6a        	ldx	$6a                     ; 0x6a <gPtr>
    14f0: a4 6b        	ldy	$6b                     ; 0x6b <gPtr+0x1>
    14f2: 86 12        	stx	$12                     ; 0x12 <__rc2>
    14f4: 84 13        	sty	$13                     ; 0x13 <__rc3>
    14f6: a0 05        	ldy	#$5
    14f8: b1 12        	lda	($12),y                 ; 0x12 <__rc2>
    14fa: 85 18        	sta	$18                     ; 0x18 <__rc8>
    14fc: a9 15        	lda	#$15
    14fe: 18           	clc
    14ff: 65 31        	adc	$31                     ; 0x31 <note>
    1501: aa           	tax
    1502: b2 12        	lda	($12)                   ; 0x12 <__rc2>
    1504: 85 14        	sta	$14                     ; 0x14 <__rc4>
    1506: c8           	iny
    1507: b1 12        	lda	($12),y                 ; 0x12 <__rc2>
    1509: 86 12        	stx	$12                     ; 0x12 <__rc2>
    150b: a2 3f        	ldx	#$3f
    150d: 86 13        	stx	$13                     ; 0x13 <__rc3>
    150f: 85 15        	sta	$15                     ; 0x15 <__rc5>
    1511: 64 16        	stz	$16                     ; 0x16 <__rc6>
    1513: 64 17        	stz	$17                     ; 0x17 <__rc7>
    1515: a6 18        	ldx	$18                     ; 0x18 <__rc8>
    1517: a9 00        	lda	#$0
    1519: 20 66 31     	jsr	$3166 <dispatchNote>
    151c: 4c f5 0e     	jmp	$ef5 <f256main+0x5e1>
    151f: 64 64        	stz	$64                     ; 0x64 <shiftHit>
    1521: 4c f5 0e     	jmp	$ef5 <f256main+0x5e1>
    1524: 8a           	txa
    1525: 38           	sec
    1526: e9 6d        	sbc	#$6d
    1528: 50 02        	bvc	$152c <f256main+0xc18>
    152a: 49 80        	eor	#$80
    152c: a8           	tay
    152d: 30 03        	bmi	$1532 <f256main+0xc1e>
    152f: 4c a0 16     	jmp	$16a0 <f256main+0xd8c>
    1532: a0 12        	ldy	#$12
    1534: b1 10        	lda	($10),y                 ; 0x10 <__rc0>
    1536: 85 25        	sta	$25                     ; 0x25 <__rc21>
    1538: e0 5d        	cpx	#$5d
    153a: d0 03        	bne	$153f <f256main+0xc2b>
    153c: 4c 9f 19     	jmp	$199f <f256main+0x108b>
    153f: e0 63        	cpx	#$63
    1541: f0 03        	beq	$1546 <f256main+0xc32>
    1543: 4c 7c 2a     	jmp	$2a7c <f256main+0x2168>
    1546: a6 61        	ldx	$61                     ; 0x61 <instSelectMode>
    1548: f0 03        	beq	$154d <f256main+0xc39>
    154a: 4c 7c 2a     	jmp	$2a7c <f256main+0x2168>
    154d: a6 6a        	ldx	$6a                     ; 0x6a <gPtr>
    154f: a4 6b        	ldy	$6b                     ; 0x6b <gPtr+0x1>
    1551: 86 12        	stx	$12                     ; 0x12 <__rc2>
    1553: 84 13        	sty	$13                     ; 0x13 <__rc3>
    1555: a0 06        	ldy	#$6
    1557: b1 12        	lda	($12),y                 ; 0x12 <__rc2>
    1559: aa           	tax
    155a: 1a           	inc
    155b: 91 12        	sta	($12),y                 ; 0x12 <__rc2>
    155d: e0 00        	cpx	#$0
    155f: d0 15        	bne	$1576 <f256main+0xc62>
    1561: a9 00        	lda	#$0
    1563: 20 ad 42     	jsr	$42ad <sid_setInstrumentAllChannels>
    1566: 64 65        	stz	$65                     ; 0x65 <chipAct.0>
    1568: 64 66        	stz	$66                     ; 0x66 <chipAct.1>
    156a: a6 6a        	ldx	$6a                     ; 0x6a <gPtr>
    156c: a4 6b        	ldy	$6b                     ; 0x6b <gPtr+0x1>
    156e: 86 12        	stx	$12                     ; 0x12 <__rc2>
    1570: 84 13        	sty	$13                     ; 0x13 <__rc3>
    1572: a0 06        	ldy	#$6
    1574: b1 12        	lda	($12),y                 ; 0x12 <__rc2>
    1576: c9 02        	cmp	#$2
    1578: d0 48        	bne	$15c2 <f256main+0xcae>
    157a: a2 d4        	ldx	#$d4
    157c: a0 00        	ldy	#$0
    157e: 18           	clc
    157f: 98           	tya
    1580: 69 00        	adc	#$0
    1582: 85 14        	sta	$14                     ; 0x14 <__rc4>
    1584: 8a           	txa
    1585: 69 01        	adc	#$1
    1587: 85 15        	sta	$15                     ; 0x15 <__rc5>
    1589: 84 12        	sty	$12                     ; 0x12 <__rc2>
    158b: 86 13        	stx	$13                     ; 0x13 <__rc3>
    158d: a9 00        	lda	#$0
    158f: 92 12        	sta	($12)                   ; 0x12 <__rc2>
    1591: 5a           	phy
    1592: a4 14        	ldy	$14                     ; 0x14 <__rc4>
    1594: 84 12        	sty	$12                     ; 0x12 <__rc2>
    1596: a4 15        	ldy	$15                     ; 0x15 <__rc5>
    1598: 84 13        	sty	$13                     ; 0x13 <__rc3>
    159a: 7a           	ply
    159b: 92 12        	sta	($12)                   ; 0x12 <__rc2>
    159d: c8           	iny
    159e: d0 01        	bne	$15a1 <f256main+0xc8d>
    15a0: e8           	inx
    15a1: c0 19        	cpy	#$19
    15a3: d0 d9        	bne	$157e <f256main+0xc6a>
    15a5: a2 43        	ldx	#$43
    15a7: 86 12        	stx	$12                     ; 0x12 <__rc2>
    15a9: a2 00        	ldx	#$0
    15ab: 86 13        	stx	$13                     ; 0x13 <__rc3>
    15ad: 64 14        	stz	$14                     ; 0x14 <__rc4>
    15af: a2 06        	ldx	#$6
    15b1: 20 90 60     	jsr	$6090 <__memset>
    15b4: 64 67        	stz	$67                     ; 0x67 <chipAct.2>
    15b6: a6 6a        	ldx	$6a                     ; 0x6a <gPtr>
    15b8: a4 6b        	ldy	$6b                     ; 0x6b <gPtr+0x1>
    15ba: 86 12        	stx	$12                     ; 0x12 <__rc2>
    15bc: 84 13        	sty	$13                     ; 0x13 <__rc3>
    15be: a0 06        	ldy	#$6
    15c0: b1 12        	lda	($12),y                 ; 0x12 <__rc2>
    15c2: c9 03        	cmp	#$3
    15c4: d0 3a        	bne	$1600 <f256main+0xcec>
    15c6: a2 37        	ldx	#$37
    15c8: 86 12        	stx	$12                     ; 0x12 <__rc2>
    15ca: a2 00        	ldx	#$0
    15cc: 86 13        	stx	$13                     ; 0x13 <__rc3>
    15ce: 64 14        	stz	$14                     ; 0x14 <__rc4>
    15d0: a2 06        	ldx	#$6
    15d2: a9 00        	lda	#$0
    15d4: 20 90 60     	jsr	$6090 <__memset>
    15d7: a2 ff        	ldx	#$ff
    15d9: a0 10        	ldy	#$10
    15db: 98           	tya
    15dc: 09 9f        	ora	#$9f
    15de: 8d 00 d6     	sta	$d600                   ; 0xd600 <__heap_start+0x4fa8>
    15e1: 8d 10 d6     	sta	$d610                   ; 0xd610 <__heap_start+0x4fb8>
    15e4: 8a           	txa
    15e5: 18           	clc
    15e6: 69 02        	adc	#$2
    15e8: aa           	tax
    15e9: 18           	clc
    15ea: 98           	tya
    15eb: 69 20        	adc	#$20
    15ed: a8           	tay
    15ee: e0 06        	cpx	#$6
    15f0: 90 e9        	bcc	$15db <f256main+0xcc7>
    15f2: 64 68        	stz	$68                     ; 0x68 <chipAct.3>
    15f4: a6 6a        	ldx	$6a                     ; 0x6a <gPtr>
    15f6: a4 6b        	ldy	$6b                     ; 0x6b <gPtr+0x1>
    15f8: 86 12        	stx	$12                     ; 0x12 <__rc2>
    15fa: 84 13        	sty	$13                     ; 0x13 <__rc3>
    15fc: a0 06        	ldy	#$6
    15fe: b1 12        	lda	($12),y                 ; 0x12 <__rc2>
    1600: c9 04        	cmp	#$4
    1602: 90 2e        	bcc	$1632 <f256main+0xd1e>
    1604: a2 b0        	ldx	#$b0
    1606: 8e 80 d5     	stx	$d580                   ; 0xd580 <__heap_start+0x4f28>
    1609: 9c 81 d5     	stz	$d581                   ; 0xd581 <__heap_start+0x4f29>
    160c: e8           	inx
    160d: e0 b9        	cpx	#$b9
    160f: d0 f5        	bne	$1606 <f256main+0xcf2>
    1611: a2 4f        	ldx	#$4f
    1613: 86 12        	stx	$12                     ; 0x12 <__rc2>
    1615: a2 00        	ldx	#$0
    1617: 86 13        	stx	$13                     ; 0x13 <__rc3>
    1619: 64 14        	stz	$14                     ; 0x14 <__rc4>
    161b: a9 00        	lda	#$0
    161d: a2 09        	ldx	#$9
    161f: 20 90 60     	jsr	$6090 <__memset>
    1622: a6 6a        	ldx	$6a                     ; 0x6a <gPtr>
    1624: a4 6b        	ldy	$6b                     ; 0x6b <gPtr+0x1>
    1626: 86 12        	stx	$12                     ; 0x12 <__rc2>
    1628: 84 13        	sty	$13                     ; 0x13 <__rc3>
    162a: a0 06        	ldy	#$6
    162c: a9 00        	lda	#$0
    162e: 91 12        	sta	($12),y                 ; 0x12 <__rc2>
    1630: 64 69        	stz	$69                     ; 0x69 <chipAct.4>
    1632: 20 84 49     	jsr	$4984 <showChipChoiceText>
    1635: 4c 7c 2a     	jmp	$2a7c <f256main+0x2168>
    1638: a0 12        	ldy	#$12
    163a: b1 10        	lda	($10),y                 ; 0x10 <__rc0>
    163c: 85 25        	sta	$25                     ; 0x25 <__rc21>
    163e: e0 20        	cpx	#$20
    1640: d0 03        	bne	$1645 <f256main+0xd31>
    1642: 4c 41 1a     	jmp	$1a41 <f256main+0x112d>
    1645: e0 5b        	cpx	#$5b
    1647: f0 03        	beq	$164c <f256main+0xd38>
    1649: 4c 7c 2a     	jmp	$2a7c <f256main+0x2168>
    164c: a6 7e        	ldx	$7e                     ; 0x7e <theBeats>
    164e: 86 16        	stx	$16                     ; 0x16 <__rc6>
    1650: a6 7f        	ldx	$7f                     ; 0x7f <theBeats+0x1>
    1652: 86 17        	stx	$17                     ; 0x17 <__rc7>
    1654: a6 6a        	ldx	$6a                     ; 0x6a <gPtr>
    1656: a4 6b        	ldy	$6b                     ; 0x6b <gPtr+0x1>
    1658: 86 12        	stx	$12                     ; 0x12 <__rc2>
    165a: 84 13        	sty	$13                     ; 0x13 <__rc3>
    165c: a0 08        	ldy	#$8
    165e: b1 12        	lda	($12),y                 ; 0x12 <__rc2>
    1660: 85 14        	sta	$14                     ; 0x14 <__rc4>
    1662: 0a           	asl
    1663: 64 15        	stz	$15                     ; 0x15 <__rc5>
    1665: 26 15        	rol	$15                     ; 0x15 <__rc5>
    1667: 0a           	asl
    1668: 26 15        	rol	$15                     ; 0x15 <__rc5>
    166a: 0a           	asl
    166b: 26 15        	rol	$15                     ; 0x15 <__rc5>
    166d: 0a           	asl
    166e: 26 15        	rol	$15                     ; 0x15 <__rc5>
    1670: 38           	sec
    1671: e5 14        	sbc	$14                     ; 0x14 <__rc4>
    1673: 85 14        	sta	$14                     ; 0x14 <__rc4>
    1675: a5 15        	lda	$15                     ; 0x15 <__rc5>
    1677: e9 00        	sbc	#$0
    1679: a8           	tay
    167a: a6 14        	ldx	$14                     ; 0x14 <__rc4>
    167c: a5 14        	lda	$14                     ; 0x14 <__rc4>
    167e: 18           	clc
    167f: 65 7e        	adc	$7e                     ; 0x7e <theBeats>
    1681: 85 14        	sta	$14                     ; 0x14 <__rc4>
    1683: 98           	tya
    1684: 65 7f        	adc	$7f                     ; 0x7f <theBeats+0x1>
    1686: 85 15        	sta	$15                     ; 0x15 <__rc5>
    1688: b2 14        	lda	($14)                   ; 0x14 <__rc4>
    168a: d0 03        	bne	$168f <f256main+0xd7b>
    168c: 4c 92 24     	jmp	$2492 <f256main+0x1b7e>
    168f: a5 64        	lda	$64                     ; 0x64 <shiftHit>
    1691: 29 01        	and	#$1
    1693: a2 f6        	ldx	#$f6
    1695: a8           	tay
    1696: f0 03        	beq	$169b <f256main+0xd87>
    1698: 4c ed 19     	jmp	$19ed <f256main+0x10d9>
    169b: a2 ff        	ldx	#$ff
    169d: 4c ed 19     	jmp	$19ed <f256main+0x10d9>
    16a0: a0 12        	ldy	#$12
    16a2: b1 10        	lda	($10),y                 ; 0x10 <__rc0>
    16a4: 85 25        	sta	$25                     ; 0x25 <__rc21>
    16a6: e0 6d        	cpx	#$6d
    16a8: d0 03        	bne	$16ad <f256main+0xd99>
    16aa: 4c 6c 1a     	jmp	$1a6c <f256main+0x1158>
    16ad: e0 78        	cpx	#$78
    16af: f0 03        	beq	$16b4 <f256main+0xda0>
    16b1: 4c 7c 2a     	jmp	$2a7c <f256main+0x2168>
    16b4: a6 61        	ldx	$61                     ; 0x61 <instSelectMode>
    16b6: f0 03        	beq	$16bb <f256main+0xda7>
    16b8: 4c 7c 2a     	jmp	$2a7c <f256main+0x2168>
    16bb: a6 6a        	ldx	$6a                     ; 0x6a <gPtr>
    16bd: a4 6b        	ldy	$6b                     ; 0x6b <gPtr+0x1>
    16bf: 86 12        	stx	$12                     ; 0x12 <__rc2>
    16c1: 84 13        	sty	$13                     ; 0x13 <__rc3>
    16c3: a0 07        	ldy	#$7
    16c5: b1 12        	lda	($12),y                 ; 0x12 <__rc2>
    16c7: a2 01        	ldx	#$1
    16c9: c9 00        	cmp	#$0
    16cb: f0 02        	beq	$16cf <f256main+0xdbb>
    16cd: a2 00        	ldx	#$0
    16cf: 8a           	txa
    16d0: d0 03        	bne	$16d5 <f256main+0xdc1>
    16d2: 4c c7 25     	jmp	$25c7 <f256main+0x1cb3>
    16d5: 86 2b        	stx	$2b                     ; 0x2b <__rc27>
    16d7: a9 01        	lda	#$1
    16d9: 4c cb 25     	jmp	$25cb <f256main+0x1cb7>
    16dc: a5 18        	lda	$18                     ; 0x18 <__rc8>
    16de: 91 10        	sta	($10),y                 ; 0x10 <__rc0>
    16e0: a5 17        	lda	$17                     ; 0x17 <__rc7>
    16e2: a0 0d        	ldy	#$d
    16e4: 91 10        	sta	($10),y                 ; 0x10 <__rc0>
    16e6: a0 04        	ldy	#$4
    16e8: b1 10        	lda	($10),y                 ; 0x10 <__rc0>
    16ea: 85 24        	sta	$24                     ; 0x24 <__rc20>
    16ec: c8           	iny
    16ed: b1 10        	lda	($10),y                 ; 0x10 <__rc0>
    16ef: 85 25        	sta	$25                     ; 0x25 <__rc21>
    16f1: a6 24        	ldx	$24                     ; 0x24 <__rc20>
    16f3: 86 14        	stx	$14                     ; 0x14 <__rc4>
    16f5: 85 15        	sta	$15                     ; 0x15 <__rc5>
    16f7: a6 28        	ldx	$28                     ; 0x28 <__rc24>
    16f9: 86 16        	stx	$16                     ; 0x16 <__rc6>
    16fb: a6 29        	ldx	$29                     ; 0x29 <__rc25>
    16fd: 86 17        	stx	$17                     ; 0x17 <__rc7>
    16ff: a0 08        	ldy	#$8
    1701: b1 10        	lda	($10),y                 ; 0x10 <__rc0>
    1703: 85 2e        	sta	$2e                     ; 0x2e <__rc30>
    1705: c8           	iny
    1706: b1 10        	lda	($10),y                 ; 0x10 <__rc0>
    1708: 85 2f        	sta	$2f                     ; 0x2f <__rc31>
    170a: a6 2e        	ldx	$2e                     ; 0x2e <__rc30>
    170c: 86 18        	stx	$18                     ; 0x18 <__rc8>
    170e: 85 19        	sta	$19                     ; 0x19 <__rc9>
    1710: a6 2b        	ldx	$2b                     ; 0x2b <__rc27>
    1712: a5 1a        	lda	$1a                     ; 0x1a <__rc10>
    1714: 20 14 43     	jsr	$4314 <getBeatTrackNoteInfo>
    1717: a0 01        	ldy	#$1
    1719: b1 2e        	lda	($2e),y                 ; 0x2e <__rc30>
    171b: 85 18        	sta	$18                     ; 0x18 <__rc8>
    171d: a9 7f        	lda	#$7f
    171f: 32 24        	and	($24)                   ; 0x24 <__rc20>
    1721: 85 12        	sta	$12                     ; 0x12 <__rc2>
    1723: a6 6a        	ldx	$6a                     ; 0x6a <gPtr>
    1725: a4 6b        	ldy	$6b                     ; 0x6b <gPtr+0x1>
    1727: 86 14        	stx	$14                     ; 0x14 <__rc4>
    1729: 84 15        	sty	$15                     ; 0x15 <__rc5>
    172b: b2 14        	lda	($14)                   ; 0x14 <__rc4>
    172d: 85 14        	sta	$14                     ; 0x14 <__rc4>
    172f: b2 2e        	lda	($2e)                   ; 0x2e <__rc30>
    1731: 85 15        	sta	$15                     ; 0x15 <__rc5>
    1733: a0 02        	ldy	#$2
    1735: b1 2e        	lda	($2e),y                 ; 0x2e <__rc30>
    1737: a2 7f        	ldx	#$7f
    1739: 86 13        	stx	$13                     ; 0x13 <__rc3>
    173b: a2 01        	ldx	#$1
    173d: 86 16        	stx	$16                     ; 0x16 <__rc6>
    173f: 85 17        	sta	$17                     ; 0x17 <__rc7>
    1741: a6 18        	ldx	$18                     ; 0x18 <__rc8>
    1743: a9 00        	lda	#$0
    1745: 20 66 31     	jsr	$3166 <dispatchNote>
    1748: a6 6a        	ldx	$6a                     ; 0x6a <gPtr>
    174a: a4 6b        	ldy	$6b                     ; 0x6b <gPtr+0x1>
    174c: 86 12        	stx	$12                     ; 0x12 <__rc2>
    174e: 84 13        	sty	$13                     ; 0x13 <__rc3>
    1750: a0 08        	ldy	#$8
    1752: b1 12        	lda	($12),y                 ; 0x12 <__rc2>
    1754: 85 12        	sta	$12                     ; 0x12 <__rc2>
    1756: 0a           	asl
    1757: aa           	tax
    1758: a9 00        	lda	#$0
    175a: 2a           	rol
    175b: 86 13        	stx	$13                     ; 0x13 <__rc3>
    175d: 06 13        	asl	$13                     ; 0x13 <__rc3>
    175f: 2a           	rol
    1760: 06 13        	asl	$13                     ; 0x13 <__rc3>
    1762: 2a           	rol
    1763: 06 13        	asl	$13                     ; 0x13 <__rc3>
    1765: 2a           	rol
    1766: aa           	tax
    1767: 38           	sec
    1768: a5 13        	lda	$13                     ; 0x13 <__rc3>
    176a: e5 12        	sbc	$12                     ; 0x12 <__rc2>
    176c: 85 12        	sta	$12                     ; 0x12 <__rc2>
    176e: 8a           	txa
    176f: e9 00        	sbc	#$0
    1771: aa           	tax
    1772: 18           	clc
    1773: a5 12        	lda	$12                     ; 0x12 <__rc2>
    1775: 65 7e        	adc	$7e                     ; 0x7e <theBeats>
    1777: 85 12        	sta	$12                     ; 0x12 <__rc2>
    1779: 8a           	txa
    177a: 65 7f        	adc	$7f                     ; 0x7f <theBeats+0x1>
    177c: 85 13        	sta	$13                     ; 0x13 <__rc3>
    177e: a0 02        	ldy	#$2
    1780: b1 12        	lda	($12),y                 ; 0x12 <__rc2>
    1782: 3a           	dec
    1783: 91 12        	sta	($12),y                 ; 0x12 <__rc2>
    1785: 64 33        	stz	$33                     ; 0x33 <_col>
    1787: 9c 14 d0     	stz	$d014                   ; 0xd014 <__heap_start+0x49bc>
    178a: 9c 15 d0     	stz	$d015                   ; 0xd015 <__heap_start+0x49bd>
    178d: a2 10        	ldx	#$10
    178f: 86 34        	stx	$34                     ; 0x34 <_row>
    1791: 8e 16 d0     	stx	$d016                   ; 0xd016 <__heap_start+0x49be>
    1794: 9c 17 d0     	stz	$d017                   ; 0xd017 <__heap_start+0x49bf>
    1797: a6 6a        	ldx	$6a                     ; 0x6a <gPtr>
    1799: a5 6b        	lda	$6b                     ; 0x6b <gPtr+0x1>
    179b: 86 12        	stx	$12                     ; 0x12 <__rc2>
    179d: 85 13        	sta	$13                     ; 0x13 <__rc3>
    179f: a0 08        	ldy	#$8
    17a1: b1 12        	lda	($12),y                 ; 0x12 <__rc2>
    17a3: 85 12        	sta	$12                     ; 0x12 <__rc2>
    17a5: 0a           	asl
    17a6: aa           	tax
    17a7: a9 00        	lda	#$0
    17a9: 2a           	rol
    17aa: 86 13        	stx	$13                     ; 0x13 <__rc3>
    17ac: 06 13        	asl	$13                     ; 0x13 <__rc3>
    17ae: 2a           	rol
    17af: 06 13        	asl	$13                     ; 0x13 <__rc3>
    17b1: 2a           	rol
    17b2: 06 13        	asl	$13                     ; 0x13 <__rc3>
    17b4: 2a           	rol
    17b5: aa           	tax
    17b6: 38           	sec
    17b7: a5 13        	lda	$13                     ; 0x13 <__rc3>
    17b9: e5 12        	sbc	$12                     ; 0x12 <__rc2>
    17bb: 85 12        	sta	$12                     ; 0x12 <__rc2>
    17bd: 8a           	txa
    17be: e9 00        	sbc	#$0
    17c0: aa           	tax
    17c1: 18           	clc
    17c2: a5 12        	lda	$12                     ; 0x12 <__rc2>
    17c4: 65 7e        	adc	$7e                     ; 0x7e <theBeats>
    17c6: 85 12        	sta	$12                     ; 0x12 <__rc2>
    17c8: 8a           	txa
    17c9: 65 7f        	adc	$7f                     ; 0x7f <theBeats+0x1>
    17cb: 85 13        	sta	$13                     ; 0x13 <__rc3>
    17cd: a0 02        	ldy	#$2
    17cf: b1 12        	lda	($12),y                 ; 0x12 <__rc2>
    17d1: 92 10        	sta	($10)                   ; 0x10 <__rc0>
    17d3: 88           	dey
    17d4: a9 00        	lda	#$0
    17d6: 91 10        	sta	($10),y                 ; 0x10 <__rc0>
    17d8: a2 c2        	ldx	#$c2
    17da: 86 12        	stx	$12                     ; 0x12 <__rc2>
    17dc: a2 81        	ldx	#$81
    17de: 86 13        	stx	$13                     ; 0x13 <__rc3>
    17e0: 20 65 52     	jsr	$5265 <printf>
    17e3: a5 62        	lda	$62                     ; 0x62 <needsToWaitExpiration>
    17e5: 29 01        	and	#$1
    17e7: 85 13        	sta	$13                     ; 0x13 <__rc3>
    17e9: a6 7e        	ldx	$7e                     ; 0x7e <theBeats>
    17eb: 86 17        	stx	$17                     ; 0x17 <__rc7>
    17ed: a6 6a        	ldx	$6a                     ; 0x6a <gPtr>
    17ef: a4 6b        	ldy	$6b                     ; 0x6b <gPtr+0x1>
    17f1: 86 14        	stx	$14                     ; 0x14 <__rc4>
    17f3: 84 15        	sty	$15                     ; 0x15 <__rc5>
    17f5: a0 08        	ldy	#$8
    17f7: b1 14        	lda	($14),y                 ; 0x14 <__rc4>
    17f9: 85 16        	sta	$16                     ; 0x16 <__rc6>
    17fb: 0a           	asl
    17fc: 64 12        	stz	$12                     ; 0x12 <__rc2>
    17fe: 26 12        	rol	$12                     ; 0x12 <__rc2>
    1800: 0a           	asl
    1801: 26 12        	rol	$12                     ; 0x12 <__rc2>
    1803: 0a           	asl
    1804: 26 12        	rol	$12                     ; 0x12 <__rc2>
    1806: 0a           	asl
    1807: 26 12        	rol	$12                     ; 0x12 <__rc2>
    1809: a4 12        	ldy	$12                     ; 0x12 <__rc2>
    180b: a6 7f        	ldx	$7f                     ; 0x7f <theBeats+0x1>
    180d: e6 13        	inc	$13                     ; 0x13 <__rc3>
    180f: c6 13        	dec	$13                     ; 0x13 <__rc3>
    1811: d0 03        	bne	$1816 <f256main+0xf02>
    1813: 4c f0 1c     	jmp	$1cf0 <f256main+0x13dc>
    1816: 38           	sec
    1817: e5 16        	sbc	$16                     ; 0x16 <__rc6>
    1819: 85 12        	sta	$12                     ; 0x12 <__rc2>
    181b: 98           	tya
    181c: e9 00        	sbc	#$0
    181e: 85 13        	sta	$13                     ; 0x13 <__rc3>
    1820: 18           	clc
    1821: a5 17        	lda	$17                     ; 0x17 <__rc7>
    1823: 65 12        	adc	$12                     ; 0x12 <__rc2>
    1825: 85 12        	sta	$12                     ; 0x12 <__rc2>
    1827: 8a           	txa
    1828: 65 13        	adc	$13                     ; 0x13 <__rc3>
    182a: 85 13        	sta	$13                     ; 0x13 <__rc3>
    182c: a0 02        	ldy	#$2
    182e: b1 12        	lda	($12),y                 ; 0x12 <__rc2>
    1830: a2 53        	ldx	#$53
    1832: 86 2e        	stx	$2e                     ; 0x2e <__rc30>
    1834: a2 86        	ldx	#$86
    1836: 86 2f        	stx	$2f                     ; 0x2f <__rc31>
    1838: aa           	tax
    1839: f0 03        	beq	$183e <f256main+0xf2a>
    183b: 4c f5 0e     	jmp	$ef5 <f256main+0x5e1>
    183e: 64 33        	stz	$33                     ; 0x33 <_col>
    1840: 9c 14 d0     	stz	$d014                   ; 0xd014 <__heap_start+0x49bc>
    1843: 9c 15 d0     	stz	$d015                   ; 0xd015 <__heap_start+0x49bd>
    1846: a2 11        	ldx	#$11
    1848: 86 34        	stx	$34                     ; 0x34 <_row>
    184a: 8e 16 d0     	stx	$d016                   ; 0xd016 <__heap_start+0x49be>
    184d: 9c 17 d0     	stz	$d017                   ; 0xd017 <__heap_start+0x49bf>
    1850: a2 56        	ldx	#$56
    1852: 86 12        	stx	$12                     ; 0x12 <__rc2>
    1854: a2 81        	ldx	#$81
    1856: 86 13        	stx	$13                     ; 0x13 <__rc3>
    1858: 20 65 52     	jsr	$5265 <printf>
    185b: 64 62        	stz	$62                     ; 0x62 <needsToWaitExpiration>
    185d: a6 6a        	ldx	$6a                     ; 0x6a <gPtr>
    185f: a4 6b        	ldy	$6b                     ; 0x6b <gPtr+0x1>
    1861: 86 12        	stx	$12                     ; 0x12 <__rc2>
    1863: 84 13        	sty	$13                     ; 0x13 <__rc3>
    1865: a0 08        	ldy	#$8
    1867: b1 12        	lda	($12),y                 ; 0x12 <__rc2>
    1869: 48           	pha
    186a: a5 27        	lda	$27                     ; 0x27 <__rc23>
    186c: a0 12        	ldy	#$12
    186e: 91 10        	sta	($10),y                 ; 0x10 <__rc0>
    1870: 68           	pla
    1871: 85 12        	sta	$12                     ; 0x12 <__rc2>
    1873: 0a           	asl
    1874: a8           	tay
    1875: a9 00        	lda	#$0
    1877: 2a           	rol
    1878: 84 13        	sty	$13                     ; 0x13 <__rc3>
    187a: 06 13        	asl	$13                     ; 0x13 <__rc3>
    187c: 2a           	rol
    187d: 06 13        	asl	$13                     ; 0x13 <__rc3>
    187f: 2a           	rol
    1880: 06 13        	asl	$13                     ; 0x13 <__rc3>
    1882: 2a           	rol
    1883: a8           	tay
    1884: 38           	sec
    1885: a5 13        	lda	$13                     ; 0x13 <__rc3>
    1887: e5 12        	sbc	$12                     ; 0x12 <__rc2>
    1889: 85 12        	sta	$12                     ; 0x12 <__rc2>
    188b: 98           	tya
    188c: e9 00        	sbc	#$0
    188e: a8           	tay
    188f: 18           	clc
    1890: a5 12        	lda	$12                     ; 0x12 <__rc2>
    1892: 65 7e        	adc	$7e                     ; 0x7e <theBeats>
    1894: 85 12        	sta	$12                     ; 0x12 <__rc2>
    1896: 98           	tya
    1897: 65 7f        	adc	$7f                     ; 0x7f <theBeats+0x1>
    1899: 85 13        	sta	$13                     ; 0x13 <__rc3>
    189b: a9 00        	lda	#$0
    189d: 92 12        	sta	($12)                   ; 0x12 <__rc2>
    189f: a0 01        	ldy	#$1
    18a1: b1 12        	lda	($12),y                 ; 0x12 <__rc2>
    18a3: d0 03        	bne	$18a8 <f256main+0xf94>
    18a5: 4c f5 0e     	jmp	$ef5 <f256main+0x5e1>
    18a8: a9 00        	lda	#$0
    18aa: 91 12        	sta	($12),y                 ; 0x12 <__rc2>
    18ac: 20 0c 37     	jsr	$370c <launchBeat>
    18af: 4c f5 0e     	jmp	$ef5 <f256main+0x5e1>
    18b2: a0 12        	ldy	#$12
    18b4: b1 10        	lda	($10),y                 ; 0x10 <__rc0>
    18b6: 85 25        	sta	$25                     ; 0x25 <__rc21>
    18b8: e0 94        	cpx	#$94
    18ba: f0 03        	beq	$18bf <f256main+0xfab>
    18bc: 4c 7c 2a     	jmp	$2a7c <f256main+0x2168>
    18bf: a6 61        	ldx	$61                     ; 0x61 <instSelectMode>
    18c1: d0 03        	bne	$18c6 <f256main+0xfb2>
    18c3: 4c 7c 2a     	jmp	$2a7c <f256main+0x2168>
    18c6: a2 02        	ldx	#$2
    18c8: 86 01        	stx	$1                      ; 0x1 <__data_size+0x1>
    18ca: a2 c0        	ldx	#$c0
    18cc: a0 00        	ldy	#$0
    18ce: a9 20        	lda	#$20
    18d0: 84 12        	sty	$12                     ; 0x12 <__rc2>
    18d2: 86 13        	stx	$13                     ; 0x13 <__rc3>
    18d4: 92 12        	sta	($12)                   ; 0x12 <__rc2>
    18d6: c8           	iny
    18d7: d0 01        	bne	$18da <f256main+0xfc6>
    18d9: e8           	inx
    18da: e0 d2        	cpx	#$d2
    18dc: d0 f2        	bne	$18d0 <f256main+0xfbc>
    18de: c0 c0        	cpy	#$c0
    18e0: d0 ee        	bne	$18d0 <f256main+0xfbc>
    18e2: 64 01        	stz	$1                      ; 0x1 <__data_size+0x1>
    18e4: a6 6a        	ldx	$6a                     ; 0x6a <gPtr>
    18e6: a4 6b        	ldy	$6b                     ; 0x6b <gPtr+0x1>
    18e8: 86 12        	stx	$12                     ; 0x12 <__rc2>
    18ea: 84 13        	sty	$13                     ; 0x13 <__rc3>
    18ec: 20 fe 4a     	jsr	$4afe <textTitle>
    18ef: 64 61        	stz	$61                     ; 0x61 <instSelectMode>
    18f1: 4c 7c 2a     	jmp	$2a7c <f256main+0x2168>
    18f4: e0 92        	cpx	#$92
    18f6: f0 03        	beq	$18fb <f256main+0xfe7>
    18f8: 4c 7c 2a     	jmp	$2a7c <f256main+0x2168>
    18fb: 20 d3 3d     	jsr	$3dd3 <escReset>
    18fe: 4c 7c 2a     	jmp	$2a7c <f256main+0x2168>
    1901: a6 61        	ldx	$61                     ; 0x61 <instSelectMode>
    1903: f0 03        	beq	$1908 <f256main+0xff4>
    1905: 4c 7c 2a     	jmp	$2a7c <f256main+0x2168>
    1908: a6 6a        	ldx	$6a                     ; 0x6a <gPtr>
    190a: a4 6b        	ldy	$6b                     ; 0x6b <gPtr+0x1>
    190c: 86 12        	stx	$12                     ; 0x12 <__rc2>
    190e: 84 13        	sty	$13                     ; 0x13 <__rc3>
    1910: a9 00        	lda	#$0
    1912: a0 07        	ldy	#$7
    1914: 91 12        	sta	($12),y                 ; 0x12 <__rc2>
    1916: a0 05        	ldy	#$5
    1918: b1 12        	lda	($12),y                 ; 0x12 <__rc2>
    191a: aa           	tax
    191b: 1a           	inc
    191c: 91 12        	sta	($12),y                 ; 0x12 <__rc2>
    191e: e0 01        	cpx	#$1
    1920: d0 03        	bne	$1925 <f256main+0x1011>
    1922: 4c 11 27     	jmp	$2711 <f256main+0x1dfd>
    1925: e0 09        	cpx	#$9
    1927: f0 03        	beq	$192c <f256main+0x1018>
    1929: 4c 15 27     	jmp	$2715 <f256main+0x1e01>
    192c: a9 00        	lda	#$0
    192e: 4c 13 27     	jmp	$2713 <f256main+0x1dff>
    1931: a6 61        	ldx	$61                     ; 0x61 <instSelectMode>
    1933: f0 03        	beq	$1938 <f256main+0x1024>
    1935: 4c 7c 2a     	jmp	$2a7c <f256main+0x2168>
    1938: a6 6a        	ldx	$6a                     ; 0x6a <gPtr>
    193a: a4 6b        	ldy	$6b                     ; 0x6b <gPtr+0x1>
    193c: 86 12        	stx	$12                     ; 0x12 <__rc2>
    193e: 84 13        	sty	$13                     ; 0x13 <__rc3>
    1940: a0 08        	ldy	#$8
    1942: b1 12        	lda	($12),y                 ; 0x12 <__rc2>
    1944: 85 14        	sta	$14                     ; 0x14 <__rc4>
    1946: 0a           	asl
    1947: aa           	tax
    1948: a9 00        	lda	#$0
    194a: 2a           	rol
    194b: 86 15        	stx	$15                     ; 0x15 <__rc5>
    194d: 06 15        	asl	$15                     ; 0x15 <__rc5>
    194f: 2a           	rol
    1950: 06 15        	asl	$15                     ; 0x15 <__rc5>
    1952: 2a           	rol
    1953: 06 15        	asl	$15                     ; 0x15 <__rc5>
    1955: 2a           	rol
    1956: aa           	tax
    1957: 38           	sec
    1958: a5 15        	lda	$15                     ; 0x15 <__rc5>
    195a: e5 14        	sbc	$14                     ; 0x14 <__rc4>
    195c: 85 15        	sta	$15                     ; 0x15 <__rc5>
    195e: 8a           	txa
    195f: e9 00        	sbc	#$0
    1961: aa           	tax
    1962: 18           	clc
    1963: a5 15        	lda	$15                     ; 0x15 <__rc5>
    1965: 65 7e        	adc	$7e                     ; 0x7e <theBeats>
    1967: 85 16        	sta	$16                     ; 0x16 <__rc6>
    1969: 8a           	txa
    196a: 65 7f        	adc	$7f                     ; 0x7f <theBeats+0x1>
    196c: 85 17        	sta	$17                     ; 0x17 <__rc7>
    196e: b2 16        	lda	($16)                   ; 0x16 <__rc6>
    1970: f0 03        	beq	$1975 <f256main+0x1061>
    1972: 4c c5 24     	jmp	$24c5 <f256main+0x1bb1>
    1975: a5 62        	lda	$62                     ; 0x62 <needsToWaitExpiration>
    1977: 29 01        	and	#$1
    1979: f0 03        	beq	$197e <f256main+0x106a>
    197b: 4c 7c 2a     	jmp	$2a7c <f256main+0x2168>
    197e: a5 14        	lda	$14                     ; 0x14 <__rc4>
    1980: d0 03        	bne	$1985 <f256main+0x1071>
    1982: 4c f9 2c     	jmp	$2cf9 <f256main+0x23e5>
    1985: a5 14        	lda	$14                     ; 0x14 <__rc4>
    1987: 1a           	inc
    1988: 4c fb 2c     	jmp	$2cfb <f256main+0x23e7>
    198b: a6 61        	ldx	$61                     ; 0x61 <instSelectMode>
    198d: f0 03        	beq	$1992 <f256main+0x107e>
    198f: 4c 7c 2a     	jmp	$2a7c <f256main+0x2168>
    1992: 20 0c 37     	jsr	$370c <launchBeat>
    1995: 4c 7c 2a     	jmp	$2a7c <f256main+0x2168>
    1998: a2 01        	ldx	#$1
    199a: 86 64        	stx	$64                     ; 0x64 <shiftHit>
    199c: 4c 7c 2a     	jmp	$2a7c <f256main+0x2168>
    199f: a6 7e        	ldx	$7e                     ; 0x7e <theBeats>
    19a1: 86 16        	stx	$16                     ; 0x16 <__rc6>
    19a3: a6 7f        	ldx	$7f                     ; 0x7f <theBeats+0x1>
    19a5: 86 17        	stx	$17                     ; 0x17 <__rc7>
    19a7: a6 6a        	ldx	$6a                     ; 0x6a <gPtr>
    19a9: a4 6b        	ldy	$6b                     ; 0x6b <gPtr+0x1>
    19ab: 86 12        	stx	$12                     ; 0x12 <__rc2>
    19ad: 84 13        	sty	$13                     ; 0x13 <__rc3>
    19af: a0 08        	ldy	#$8
    19b1: b1 12        	lda	($12),y                 ; 0x12 <__rc2>
    19b3: 85 14        	sta	$14                     ; 0x14 <__rc4>
    19b5: 0a           	asl
    19b6: 64 15        	stz	$15                     ; 0x15 <__rc5>
    19b8: 26 15        	rol	$15                     ; 0x15 <__rc5>
    19ba: 0a           	asl
    19bb: 26 15        	rol	$15                     ; 0x15 <__rc5>
    19bd: 0a           	asl
    19be: 26 15        	rol	$15                     ; 0x15 <__rc5>
    19c0: 0a           	asl
    19c1: 26 15        	rol	$15                     ; 0x15 <__rc5>
    19c3: 38           	sec
    19c4: e5 14        	sbc	$14                     ; 0x14 <__rc4>
    19c6: 85 14        	sta	$14                     ; 0x14 <__rc4>
    19c8: a5 15        	lda	$15                     ; 0x15 <__rc5>
    19ca: e9 00        	sbc	#$0
    19cc: a8           	tay
    19cd: a6 14        	ldx	$14                     ; 0x14 <__rc4>
    19cf: a5 14        	lda	$14                     ; 0x14 <__rc4>
    19d1: 18           	clc
    19d2: 65 7e        	adc	$7e                     ; 0x7e <theBeats>
    19d4: 85 14        	sta	$14                     ; 0x14 <__rc4>
    19d6: 98           	tya
    19d7: 65 7f        	adc	$7f                     ; 0x7f <theBeats+0x1>
    19d9: 85 15        	sta	$15                     ; 0x15 <__rc5>
    19db: b2 14        	lda	($14)                   ; 0x14 <__rc4>
    19dd: d0 03        	bne	$19e2 <f256main+0x10ce>
    19df: 4c 46 24     	jmp	$2446 <f256main+0x1b32>
    19e2: a5 64        	lda	$64                     ; 0x64 <shiftHit>
    19e4: 29 01        	and	#$1
    19e6: a2 0a        	ldx	#$a
    19e8: a8           	tay
    19e9: d0 02        	bne	$19ed <f256main+0x10d9>
    19eb: a2 01        	ldx	#$1
    19ed: 18           	clc
    19ee: a0 09        	ldy	#$9
    19f0: 8a           	txa
    19f1: 71 12        	adc	($12),y                 ; 0x12 <__rc2>
    19f3: 91 12        	sta	($12),y                 ; 0x12 <__rc2>
    19f5: 20 93 3f     	jsr	$3f93 <prepTempoLUT>
    19f8: a6 6a        	ldx	$6a                     ; 0x6a <gPtr>
    19fa: a4 6b        	ldy	$6b                     ; 0x6b <gPtr+0x1>
    19fc: 86 2c        	stx	$2c                     ; 0x2c <__rc28>
    19fe: 84 2d        	sty	$2d                     ; 0x2d <__rc29>
    1a00: a0 09        	ldy	#$9
    1a02: b1 2c        	lda	($2c),y                 ; 0x2c <__rc28>
    1a04: 20 2a 49     	jsr	$492a <updateTempoText>
    1a07: a2 01        	ldx	#$1
    1a09: 86 62        	stx	$62                     ; 0x62 <needsToWaitExpiration>
    1a0b: a0 08        	ldy	#$8
    1a0d: b1 2c        	lda	($2c),y                 ; 0x2c <__rc28>
    1a0f: 85 12        	sta	$12                     ; 0x12 <__rc2>
    1a11: 0a           	asl
    1a12: aa           	tax
    1a13: a9 00        	lda	#$0
    1a15: 2a           	rol
    1a16: 86 13        	stx	$13                     ; 0x13 <__rc3>
    1a18: 06 13        	asl	$13                     ; 0x13 <__rc3>
    1a1a: 2a           	rol
    1a1b: 06 13        	asl	$13                     ; 0x13 <__rc3>
    1a1d: 2a           	rol
    1a1e: 06 13        	asl	$13                     ; 0x13 <__rc3>
    1a20: 2a           	rol
    1a21: aa           	tax
    1a22: 38           	sec
    1a23: a5 13        	lda	$13                     ; 0x13 <__rc3>
    1a25: e5 12        	sbc	$12                     ; 0x12 <__rc2>
    1a27: 85 12        	sta	$12                     ; 0x12 <__rc2>
    1a29: 8a           	txa
    1a2a: e9 00        	sbc	#$0
    1a2c: aa           	tax
    1a2d: 18           	clc
    1a2e: a5 12        	lda	$12                     ; 0x12 <__rc2>
    1a30: 65 7e        	adc	$7e                     ; 0x7e <theBeats>
    1a32: 85 12        	sta	$12                     ; 0x12 <__rc2>
    1a34: 8a           	txa
    1a35: 65 7f        	adc	$7f                     ; 0x7f <theBeats+0x1>
    1a37: 85 13        	sta	$13                     ; 0x13 <__rc3>
    1a39: a9 01        	lda	#$1
    1a3b: a8           	tay
    1a3c: 91 12        	sta	($12),y                 ; 0x12 <__rc2>
    1a3e: 4c 7c 2a     	jmp	$2a7c <f256main+0x2168>
    1a41: a6 6a        	ldx	$6a                     ; 0x6a <gPtr>
    1a43: a4 6b        	ldy	$6b                     ; 0x6b <gPtr+0x1>
    1a45: 86 12        	stx	$12                     ; 0x12 <__rc2>
    1a47: 84 13        	sty	$13                     ; 0x13 <__rc3>
    1a49: a0 06        	ldy	#$6
    1a4b: b1 12        	lda	($12),y                 ; 0x12 <__rc2>
    1a4d: c9 03        	cmp	#$3
    1a4f: f0 03        	beq	$1a54 <f256main+0x1140>
    1a51: 4c 6b 1e     	jmp	$1e6b <f256main+0x1557>
    1a54: a9 15        	lda	#$15
    1a56: 18           	clc
    1a57: 65 31        	adc	$31                     ; 0x31 <note>
    1a59: 85 12        	sta	$12                     ; 0x12 <__rc2>
    1a5b: 64 13        	stz	$13                     ; 0x13 <__rc3>
    1a5d: 64 14        	stz	$14                     ; 0x14 <__rc4>
    1a5f: a2 03        	ldx	#$3
    1a61: 86 15        	stx	$15                     ; 0x15 <__rc5>
    1a63: 64 16        	stz	$16                     ; 0x16 <__rc6>
    1a65: 64 17        	stz	$17                     ; 0x17 <__rc7>
    1a67: a2 00        	ldx	#$0
    1a69: 4c 8b 1e     	jmp	$1e8b <f256main+0x1577>
    1a6c: a0 b0        	ldy	#$b0
    1a6e: 8c b1 dd     	sty	$ddb1                   ; 0xddb1 <__heap_start+0x5759>
    1a71: a2 7b        	ldx	#$7b
    1a73: 8e b1 dd     	stx	$ddb1                   ; 0xddb1 <__heap_start+0x5759>
    1a76: 9c b1 dd     	stz	$ddb1                   ; 0xddb1 <__heap_start+0x5759>
    1a79: 8c a1 dd     	sty	$dda1                   ; 0xdda1 <__heap_start+0x5749>
    1a7c: 8e a1 dd     	stx	$dda1                   ; 0xdda1 <__heap_start+0x5749>
    1a7f: 9c a1 dd     	stz	$dda1                   ; 0xdda1 <__heap_start+0x5749>
    1a82: c8           	iny
    1a83: 8c b1 dd     	sty	$ddb1                   ; 0xddb1 <__heap_start+0x5759>
    1a86: 8e b1 dd     	stx	$ddb1                   ; 0xddb1 <__heap_start+0x5759>
    1a89: 9c b1 dd     	stz	$ddb1                   ; 0xddb1 <__heap_start+0x5759>
    1a8c: 8c a1 dd     	sty	$dda1                   ; 0xdda1 <__heap_start+0x5749>
    1a8f: 8e a1 dd     	stx	$dda1                   ; 0xdda1 <__heap_start+0x5749>
    1a92: 9c a1 dd     	stz	$dda1                   ; 0xdda1 <__heap_start+0x5749>
    1a95: a0 b9        	ldy	#$b9
    1a97: 8c b1 dd     	sty	$ddb1                   ; 0xddb1 <__heap_start+0x5759>
    1a9a: 8e b1 dd     	stx	$ddb1                   ; 0xddb1 <__heap_start+0x5759>
    1a9d: 9c b1 dd     	stz	$ddb1                   ; 0xddb1 <__heap_start+0x5759>
    1aa0: 8c a1 dd     	sty	$dda1                   ; 0xdda1 <__heap_start+0x5749>
    1aa3: 8e a1 dd     	stx	$dda1                   ; 0xdda1 <__heap_start+0x5749>
    1aa6: 9c a1 dd     	stz	$dda1                   ; 0xdda1 <__heap_start+0x5749>
    1aa9: a5 6a        	lda	$6a                     ; 0x6a <gPtr>
    1aab: a4 6b        	ldy	$6b                     ; 0x6b <gPtr+0x1>
    1aad: 85 12        	sta	$12                     ; 0x12 <__rc2>
    1aaf: 84 13        	sty	$13                     ; 0x13 <__rc3>
    1ab1: a9 ff        	lda	#$ff
    1ab3: 52 12        	eor	($12)                   ; 0x12 <__rc2>
    1ab5: 92 12        	sta	($12)                   ; 0x12 <__rc2>
    1ab7: a0 b0        	ldy	#$b0
    1ab9: 8c b1 dd     	sty	$ddb1                   ; 0xddb1 <__heap_start+0x5759>
    1abc: 8e b1 dd     	stx	$ddb1                   ; 0xddb1 <__heap_start+0x5759>
    1abf: 9c b1 dd     	stz	$ddb1                   ; 0xddb1 <__heap_start+0x5759>
    1ac2: 8c a1 dd     	sty	$dda1                   ; 0xdda1 <__heap_start+0x5749>
    1ac5: 8e a1 dd     	stx	$dda1                   ; 0xdda1 <__heap_start+0x5749>
    1ac8: 9c a1 dd     	stz	$dda1                   ; 0xdda1 <__heap_start+0x5749>
    1acb: c8           	iny
    1acc: 8c b1 dd     	sty	$ddb1                   ; 0xddb1 <__heap_start+0x5759>
    1acf: 8e b1 dd     	stx	$ddb1                   ; 0xddb1 <__heap_start+0x5759>
    1ad2: 9c b1 dd     	stz	$ddb1                   ; 0xddb1 <__heap_start+0x5759>
    1ad5: 8c a1 dd     	sty	$dda1                   ; 0xdda1 <__heap_start+0x5749>
    1ad8: 8e a1 dd     	stx	$dda1                   ; 0xdda1 <__heap_start+0x5749>
    1adb: 9c a1 dd     	stz	$dda1                   ; 0xdda1 <__heap_start+0x5749>
    1ade: a0 b9        	ldy	#$b9
    1ae0: 8c b1 dd     	sty	$ddb1                   ; 0xddb1 <__heap_start+0x5759>
    1ae3: 8e b1 dd     	stx	$ddb1                   ; 0xddb1 <__heap_start+0x5759>
    1ae6: 9c b1 dd     	stz	$ddb1                   ; 0xddb1 <__heap_start+0x5759>
    1ae9: 8c a1 dd     	sty	$dda1                   ; 0xdda1 <__heap_start+0x5749>
    1aec: 8e a1 dd     	stx	$dda1                   ; 0xdda1 <__heap_start+0x5749>
    1aef: 9c a1 dd     	stz	$dda1                   ; 0xdda1 <__heap_start+0x5749>
    1af2: a6 6a        	ldx	$6a                     ; 0x6a <gPtr>
    1af4: a4 6b        	ldy	$6b                     ; 0x6b <gPtr+0x1>
    1af6: 86 12        	stx	$12                     ; 0x12 <__rc2>
    1af8: 84 13        	sty	$13                     ; 0x13 <__rc3>
    1afa: b2 12        	lda	($12)                   ; 0x12 <__rc2>
    1afc: d0 03        	bne	$1b01 <f256main+0x11ed>
    1afe: 4c 80 24     	jmp	$2480 <f256main+0x1b6c>
    1b01: a2 65        	ldx	#$65
    1b03: 86 14        	stx	$14                     ; 0x14 <__rc4>
    1b05: a2 00        	ldx	#$0
    1b07: 4c 86 24     	jmp	$2486 <f256main+0x1b72>
    1b0a: a6 61        	ldx	$61                     ; 0x61 <instSelectMode>
    1b0c: d0 03        	bne	$1b11 <f256main+0x11fd>
    1b0e: 4c cc 24     	jmp	$24cc <f256main+0x1bb8>
    1b11: a0 12        	ldy	#$12
    1b13: b1 10        	lda	($10),y                 ; 0x10 <__rc0>
    1b15: 85 25        	sta	$25                     ; 0x25 <__rc21>
    1b17: a6 6a        	ldx	$6a                     ; 0x6a <gPtr>
    1b19: a0 01        	ldy	#$1
    1b1b: a5 6b        	lda	$6b                     ; 0x6b <gPtr+0x1>
    1b1d: 86 2c        	stx	$2c                     ; 0x2c <__rc28>
    1b1f: 85 2d        	sta	$2d                     ; 0x2d <__rc29>
    1b21: 86 12        	stx	$12                     ; 0x12 <__rc2>
    1b23: 85 13        	sta	$13                     ; 0x13 <__rc3>
    1b25: e6 12        	inc	$12                     ; 0x12 <__rc2>
    1b27: d0 02        	bne	$1b2b <f256main+0x1217>
    1b29: e6 13        	inc	$13                     ; 0x13 <__rc3>
    1b2b: b1 2c        	lda	($2c),y                 ; 0x2c <__rc28>
    1b2d: aa           	tax
    1b2e: b1 12        	lda	($12),y                 ; 0x12 <__rc2>
    1b30: 86 12        	stx	$12                     ; 0x12 <__rc2>
    1b32: 85 13        	sta	$13                     ; 0x13 <__rc3>
    1b34: a0 05        	ldy	#$5
    1b36: b1 2c        	lda	($2c),y                 ; 0x2c <__rc28>
    1b38: a8           	tay
    1b39: b1 12        	lda	($12),y                 ; 0x12 <__rc2>
    1b3b: d0 03        	bne	$1b40 <f256main+0x122c>
    1b3d: 4c 40 25     	jmp	$2540 <f256main+0x1c2c>
    1b40: a6 2c        	ldx	$2c                     ; 0x2c <__rc28>
    1b42: 86 12        	stx	$12                     ; 0x12 <__rc2>
    1b44: a6 2d        	ldx	$2d                     ; 0x2d <__rc29>
    1b46: 86 13        	stx	$13                     ; 0x13 <__rc3>
    1b48: a9 00        	lda	#$0
    1b4a: 20 d2 4d     	jsr	$4dd2 <highLightInstChoice>
    1b4d: a0 06        	ldy	#$6
    1b4f: b1 2c        	lda	($2c),y                 ; 0x2c <__rc28>
    1b51: d0 23        	bne	$1b76 <f256main+0x1262>
    1b53: a6 2c        	ldx	$2c                     ; 0x2c <__rc28>
    1b55: 86 12        	stx	$12                     ; 0x12 <__rc2>
    1b57: a6 2d        	ldx	$2d                     ; 0x2d <__rc29>
    1b59: 86 13        	stx	$13                     ; 0x13 <__rc3>
    1b5b: e6 12        	inc	$12                     ; 0x12 <__rc2>
    1b5d: d0 02        	bne	$1b61 <f256main+0x124d>
    1b5f: e6 13        	inc	$13                     ; 0x13 <__rc3>
    1b61: a0 01        	ldy	#$1
    1b63: b1 2c        	lda	($2c),y                 ; 0x2c <__rc28>
    1b65: aa           	tax
    1b66: b1 12        	lda	($12),y                 ; 0x12 <__rc2>
    1b68: 86 12        	stx	$12                     ; 0x12 <__rc2>
    1b6a: 85 13        	sta	$13                     ; 0x13 <__rc3>
    1b6c: a0 05        	ldy	#$5
    1b6e: b1 2c        	lda	($2c),y                 ; 0x2c <__rc28>
    1b70: a8           	tay
    1b71: b1 12        	lda	($12),y                 ; 0x12 <__rc2>
    1b73: 3a           	dec
    1b74: 91 12        	sta	($12),y                 ; 0x12 <__rc2>
    1b76: a6 2c        	ldx	$2c                     ; 0x2c <__rc28>
    1b78: 86 12        	stx	$12                     ; 0x12 <__rc2>
    1b7a: a6 2d        	ldx	$2d                     ; 0x2d <__rc29>
    1b7c: 86 13        	stx	$13                     ; 0x13 <__rc3>
    1b7e: a9 01        	lda	#$1
    1b80: 20 d2 4d     	jsr	$4dd2 <highLightInstChoice>
    1b83: a6 6a        	ldx	$6a                     ; 0x6a <gPtr>
    1b85: a4 6b        	ldy	$6b                     ; 0x6b <gPtr+0x1>
    1b87: 86 2c        	stx	$2c                     ; 0x2c <__rc28>
    1b89: 84 2d        	sty	$2d                     ; 0x2d <__rc29>
    1b8b: 86 12        	stx	$12                     ; 0x12 <__rc2>
    1b8d: 84 13        	sty	$13                     ; 0x13 <__rc3>
    1b8f: e6 12        	inc	$12                     ; 0x12 <__rc2>
    1b91: d0 02        	bne	$1b95 <f256main+0x1281>
    1b93: e6 13        	inc	$13                     ; 0x13 <__rc3>
    1b95: a0 01        	ldy	#$1
    1b97: b1 2c        	lda	($2c),y                 ; 0x2c <__rc28>
    1b99: aa           	tax
    1b9a: b1 12        	lda	($12),y                 ; 0x12 <__rc2>
    1b9c: 86 12        	stx	$12                     ; 0x12 <__rc2>
    1b9e: 85 13        	sta	$13                     ; 0x13 <__rc3>
    1ba0: a0 05        	ldy	#$5
    1ba2: b1 2c        	lda	($2c),y                 ; 0x2c <__rc28>
    1ba4: a8           	tay
    1ba5: b1 12        	lda	($12),y                 ; 0x12 <__rc2>
    1ba7: 85 18        	sta	$18                     ; 0x18 <__rc8>
    1ba9: 4c 42 25     	jmp	$2542 <f256main+0x1c2e>
    1bac: a6 61        	ldx	$61                     ; 0x61 <instSelectMode>
    1bae: d0 03        	bne	$1bb3 <f256main+0x129f>
    1bb0: 4c e2 24     	jmp	$24e2 <f256main+0x1bce>
    1bb3: a0 12        	ldy	#$12
    1bb5: b1 10        	lda	($10),y                 ; 0x10 <__rc0>
    1bb7: 85 25        	sta	$25                     ; 0x25 <__rc21>
    1bb9: a6 6a        	ldx	$6a                     ; 0x6a <gPtr>
    1bbb: a0 01        	ldy	#$1
    1bbd: a5 6b        	lda	$6b                     ; 0x6b <gPtr+0x1>
    1bbf: 86 2c        	stx	$2c                     ; 0x2c <__rc28>
    1bc1: 85 2d        	sta	$2d                     ; 0x2d <__rc29>
    1bc3: 86 12        	stx	$12                     ; 0x12 <__rc2>
    1bc5: 85 13        	sta	$13                     ; 0x13 <__rc3>
    1bc7: e6 12        	inc	$12                     ; 0x12 <__rc2>
    1bc9: d0 02        	bne	$1bcd <f256main+0x12b9>
    1bcb: e6 13        	inc	$13                     ; 0x13 <__rc3>
    1bcd: b1 2c        	lda	($2c),y                 ; 0x2c <__rc28>
    1bcf: aa           	tax
    1bd0: b1 12        	lda	($12),y                 ; 0x12 <__rc2>
    1bd2: 86 12        	stx	$12                     ; 0x12 <__rc2>
    1bd4: 85 13        	sta	$13                     ; 0x13 <__rc3>
    1bd6: a0 05        	ldy	#$5
    1bd8: b1 2c        	lda	($2c),y                 ; 0x2c <__rc28>
    1bda: a8           	tay
    1bdb: b1 12        	lda	($12),y                 ; 0x12 <__rc2>
    1bdd: c9 7f        	cmp	#$7f
    1bdf: 90 03        	bcc	$1be4 <f256main+0x12d0>
    1be1: 4c 4b 1c     	jmp	$1c4b <f256main+0x1337>
    1be4: a6 2c        	ldx	$2c                     ; 0x2c <__rc28>
    1be6: 86 12        	stx	$12                     ; 0x12 <__rc2>
    1be8: a6 2d        	ldx	$2d                     ; 0x2d <__rc29>
    1bea: 86 13        	stx	$13                     ; 0x13 <__rc3>
    1bec: a9 00        	lda	#$0
    1bee: 20 d2 4d     	jsr	$4dd2 <highLightInstChoice>
    1bf1: a0 06        	ldy	#$6
    1bf3: b1 2c        	lda	($2c),y                 ; 0x2c <__rc28>
    1bf5: d0 23        	bne	$1c1a <f256main+0x1306>
    1bf7: a6 2c        	ldx	$2c                     ; 0x2c <__rc28>
    1bf9: 86 12        	stx	$12                     ; 0x12 <__rc2>
    1bfb: a6 2d        	ldx	$2d                     ; 0x2d <__rc29>
    1bfd: 86 13        	stx	$13                     ; 0x13 <__rc3>
    1bff: e6 12        	inc	$12                     ; 0x12 <__rc2>
    1c01: d0 02        	bne	$1c05 <f256main+0x12f1>
    1c03: e6 13        	inc	$13                     ; 0x13 <__rc3>
    1c05: a0 01        	ldy	#$1
    1c07: b1 2c        	lda	($2c),y                 ; 0x2c <__rc28>
    1c09: aa           	tax
    1c0a: b1 12        	lda	($12),y                 ; 0x12 <__rc2>
    1c0c: 86 12        	stx	$12                     ; 0x12 <__rc2>
    1c0e: 85 13        	sta	$13                     ; 0x13 <__rc3>
    1c10: a0 05        	ldy	#$5
    1c12: b1 2c        	lda	($2c),y                 ; 0x2c <__rc28>
    1c14: a8           	tay
    1c15: b1 12        	lda	($12),y                 ; 0x12 <__rc2>
    1c17: 1a           	inc
    1c18: 91 12        	sta	($12),y                 ; 0x12 <__rc2>
    1c1a: a6 2c        	ldx	$2c                     ; 0x2c <__rc28>
    1c1c: 86 12        	stx	$12                     ; 0x12 <__rc2>
    1c1e: a6 2d        	ldx	$2d                     ; 0x2d <__rc29>
    1c20: 86 13        	stx	$13                     ; 0x13 <__rc3>
    1c22: a9 01        	lda	#$1
    1c24: 20 d2 4d     	jsr	$4dd2 <highLightInstChoice>
    1c27: a6 6a        	ldx	$6a                     ; 0x6a <gPtr>
    1c29: a4 6b        	ldy	$6b                     ; 0x6b <gPtr+0x1>
    1c2b: 86 2c        	stx	$2c                     ; 0x2c <__rc28>
    1c2d: 84 2d        	sty	$2d                     ; 0x2d <__rc29>
    1c2f: 86 12        	stx	$12                     ; 0x12 <__rc2>
    1c31: 84 13        	sty	$13                     ; 0x13 <__rc3>
    1c33: e6 12        	inc	$12                     ; 0x12 <__rc2>
    1c35: d0 02        	bne	$1c39 <f256main+0x1325>
    1c37: e6 13        	inc	$13                     ; 0x13 <__rc3>
    1c39: a0 01        	ldy	#$1
    1c3b: b1 2c        	lda	($2c),y                 ; 0x2c <__rc28>
    1c3d: aa           	tax
    1c3e: b1 12        	lda	($12),y                 ; 0x12 <__rc2>
    1c40: 86 12        	stx	$12                     ; 0x12 <__rc2>
    1c42: 85 13        	sta	$13                     ; 0x13 <__rc3>
    1c44: a0 05        	ldy	#$5
    1c46: b1 2c        	lda	($2c),y                 ; 0x2c <__rc28>
    1c48: a8           	tay
    1c49: b1 12        	lda	($12),y                 ; 0x12 <__rc2>
    1c4b: 85 14        	sta	$14                     ; 0x14 <__rc4>
    1c4d: b2 2c        	lda	($2c)                   ; 0x2c <__rc28>
    1c4f: a2 a1        	ldx	#$a1
    1c51: 86 12        	stx	$12                     ; 0x12 <__rc2>
    1c53: a2 dd        	ldx	#$dd
    1c55: 86 13        	stx	$13                     ; 0x13 <__rc3>
    1c57: a2 b1        	ldx	#$b1
    1c59: 86 16        	stx	$16                     ; 0x16 <__rc6>
    1c5b: a2 dd        	ldx	#$dd
    1c5d: 86 17        	stx	$17                     ; 0x17 <__rc7>
    1c5f: 48           	pha
    1c60: 5a           	phy
    1c61: a5 16        	lda	$16                     ; 0x16 <__rc6>
    1c63: a0 0d        	ldy	#$d
    1c65: 91 10        	sta	($10),y                 ; 0x10 <__rc0>
    1c67: a5 17        	lda	$17                     ; 0x17 <__rc7>
    1c69: c8           	iny
    1c6a: 91 10        	sta	($10),y                 ; 0x10 <__rc0>
    1c6c: 7a           	ply
    1c6d: 68           	pla
    1c6e: f0 0d        	beq	$1c7d <f256main+0x1369>
    1c70: 5a           	phy
    1c71: a0 0d        	ldy	#$d
    1c73: b1 10        	lda	($10),y                 ; 0x10 <__rc0>
    1c75: 85 12        	sta	$12                     ; 0x12 <__rc2>
    1c77: c8           	iny
    1c78: b1 10        	lda	($10),y                 ; 0x10 <__rc0>
    1c7a: 7a           	ply
    1c7b: 85 13        	sta	$13                     ; 0x13 <__rc3>
    1c7d: 98           	tya
    1c7e: 09 c0        	ora	#$c0
    1c80: 92 12        	sta	($12)                   ; 0x12 <__rc2>
    1c82: a5 14        	lda	$14                     ; 0x14 <__rc4>
    1c84: 4c 79 25     	jmp	$2579 <f256main+0x1c65>
    1c87: a0 12        	ldy	#$12
    1c89: b1 10        	lda	($10),y                 ; 0x10 <__rc0>
    1c8b: 85 25        	sta	$25                     ; 0x25 <__rc21>
    1c8d: a6 61        	ldx	$61                     ; 0x61 <instSelectMode>
    1c8f: a4 6a        	ldy	$6a                     ; 0x6a <gPtr>
    1c91: a5 6b        	lda	$6b                     ; 0x6b <gPtr+0x1>
    1c93: 84 12        	sty	$12                     ; 0x12 <__rc2>
    1c95: 85 13        	sta	$13                     ; 0x13 <__rc3>
    1c97: a0 06        	ldy	#$6
    1c99: b1 12        	lda	($12),y                 ; 0x12 <__rc2>
    1c9b: e0 00        	cpx	#$0
    1c9d: d0 03        	bne	$1ca2 <f256main+0x138e>
    1c9f: 4c 1d 25     	jmp	$251d <f256main+0x1c09>
    1ca2: aa           	tax
    1ca3: f0 03        	beq	$1ca8 <f256main+0x1394>
    1ca5: 4c 67 29     	jmp	$2967 <f256main+0x2053>
    1ca8: a6 12        	ldx	$12                     ; 0x12 <__rc2>
    1caa: 86 14        	stx	$14                     ; 0x14 <__rc4>
    1cac: a6 13        	ldx	$13                     ; 0x13 <__rc3>
    1cae: 86 15        	stx	$15                     ; 0x15 <__rc5>
    1cb0: e6 14        	inc	$14                     ; 0x14 <__rc4>
    1cb2: d0 02        	bne	$1cb6 <f256main+0x13a2>
    1cb4: e6 15        	inc	$15                     ; 0x15 <__rc5>
    1cb6: a5 64        	lda	$64                     ; 0x64 <shiftHit>
    1cb8: 29 01        	and	#$1
    1cba: a2 62        	ldx	#$62
    1cbc: 64 17        	stz	$17                     ; 0x17 <__rc7>
    1cbe: a8           	tay
    1cbf: d0 02        	bne	$1cc3 <f256main+0x13af>
    1cc1: a2 7d        	ldx	#$7d
    1cc3: 86 16        	stx	$16                     ; 0x16 <__rc6>
    1cc5: a9 01        	lda	#$1
    1cc7: 25 64        	and	$64                     ; 0x64 <shiftHit>
    1cc9: 85 18        	sta	$18                     ; 0x18 <__rc8>
    1ccb: a2 00        	ldx	#$0
    1ccd: e4 17        	cpx	$17                     ; 0x17 <__rc7>
    1ccf: f0 03        	beq	$1cd4 <f256main+0x13c0>
    1cd1: 4c aa 28     	jmp	$28aa <f256main+0x1f96>
    1cd4: a0 01        	ldy	#$1
    1cd6: b1 12        	lda	($12),y                 ; 0x12 <__rc2>
    1cd8: aa           	tax
    1cd9: b1 14        	lda	($14),y                 ; 0x14 <__rc4>
    1cdb: 86 14        	stx	$14                     ; 0x14 <__rc4>
    1cdd: 85 15        	sta	$15                     ; 0x15 <__rc5>
    1cdf: a0 05        	ldy	#$5
    1ce1: b1 12        	lda	($12),y                 ; 0x12 <__rc2>
    1ce3: a8           	tay
    1ce4: b1 14        	lda	($14),y                 ; 0x14 <__rc4>
    1ce6: c5 16        	cmp	$16                     ; 0x16 <__rc6>
    1ce8: b0 03        	bcs	$1ced <f256main+0x13d9>
    1cea: 4c b1 28     	jmp	$28b1 <f256main+0x1f9d>
    1ced: 4c 7c 2a     	jmp	$2a7c <f256main+0x2168>
    1cf0: 5a           	phy
    1cf1: a4 17        	ldy	$17                     ; 0x17 <__rc7>
    1cf3: 84 19        	sty	$19                     ; 0x19 <__rc9>
    1cf5: a4 17        	ldy	$17                     ; 0x17 <__rc7>
    1cf7: 84 12        	sty	$12                     ; 0x12 <__rc2>
    1cf9: 7a           	ply
    1cfa: 86 13        	stx	$13                     ; 0x13 <__rc3>
    1cfc: 38           	sec
    1cfd: e5 16        	sbc	$16                     ; 0x16 <__rc6>
    1cff: 85 16        	sta	$16                     ; 0x16 <__rc6>
    1d01: 98           	tya
    1d02: e9 00        	sbc	#$0
    1d04: 85 17        	sta	$17                     ; 0x17 <__rc7>
    1d06: 18           	clc
    1d07: a5 19        	lda	$19                     ; 0x19 <__rc9>
    1d09: 65 16        	adc	$16                     ; 0x16 <__rc6>
    1d0b: a8           	tay
    1d0c: 8a           	txa
    1d0d: 65 17        	adc	$17                     ; 0x17 <__rc7>
    1d0f: 84 1a        	sty	$1a                     ; 0x1a <__rc10>
    1d11: 85 1b        	sta	$1b                     ; 0x1b <__rc11>
    1d13: aa           	tax
    1d14: 18           	clc
    1d15: 98           	tya
    1d16: 69 09        	adc	#$9
    1d18: 85 18        	sta	$18                     ; 0x18 <__rc8>
    1d1a: 8a           	txa
    1d1b: 69 00        	adc	#$0
    1d1d: 85 19        	sta	$19                     ; 0x19 <__rc9>
    1d1f: a0 01        	ldy	#$1
    1d21: b1 18        	lda	($18),y                 ; 0x18 <__rc8>
    1d23: 85 1c        	sta	$1c                     ; 0x1c <__rc12>
    1d25: 18           	clc
    1d26: a6 28        	ldx	$28                     ; 0x28 <__rc24>
    1d28: 86 16        	stx	$16                     ; 0x16 <__rc6>
    1d2a: a6 29        	ldx	$29                     ; 0x29 <__rc25>
    1d2c: 86 17        	stx	$17                     ; 0x17 <__rc7>
    1d2e: a0 08        	ldy	#$8
    1d30: b1 10        	lda	($10),y                 ; 0x10 <__rc0>
    1d32: 85 28        	sta	$28                     ; 0x28 <__rc24>
    1d34: c8           	iny
    1d35: b1 10        	lda	($10),y                 ; 0x10 <__rc0>
    1d37: 85 29        	sta	$29                     ; 0x29 <__rc25>
    1d39: a5 2d        	lda	$2d                     ; 0x2d <__rc29>
    1d3b: 71 1a        	adc	($1a),y                 ; 0x1a <__rc10>
    1d3d: aa           	tax
    1d3e: a5 1c        	lda	$1c                     ; 0x1c <__rc12>
    1d40: 69 00        	adc	#$0
    1d42: 85 18        	sta	$18                     ; 0x18 <__rc8>
    1d44: 18           	clc
    1d45: 8a           	txa
    1d46: 69 fa        	adc	#$fa
    1d48: aa           	tax
    1d49: a5 18        	lda	$18                     ; 0x18 <__rc8>
    1d4b: 69 ff        	adc	#$ff
    1d4d: 86 18        	stx	$18                     ; 0x18 <__rc8>
    1d4f: 85 19        	sta	$19                     ; 0x19 <__rc9>
    1d51: b2 18        	lda	($18)                   ; 0x18 <__rc8>
    1d53: 1a           	inc
    1d54: 92 18        	sta	($18)                   ; 0x18 <__rc8>
    1d56: 88           	dey
    1d57: b1 14        	lda	($14),y                 ; 0x14 <__rc4>
    1d59: a6 24        	ldx	$24                     ; 0x24 <__rc20>
    1d5b: 86 14        	stx	$14                     ; 0x14 <__rc4>
    1d5d: a6 25        	ldx	$25                     ; 0x25 <__rc21>
    1d5f: 86 15        	stx	$15                     ; 0x15 <__rc5>
    1d61: 48           	pha
    1d62: a5 16        	lda	$16                     ; 0x16 <__rc6>
    1d64: a0 06        	ldy	#$6
    1d66: 91 10        	sta	($10),y                 ; 0x10 <__rc0>
    1d68: a5 17        	lda	$17                     ; 0x17 <__rc7>
    1d6a: c8           	iny
    1d6b: 91 10        	sta	($10),y                 ; 0x10 <__rc0>
    1d6d: 68           	pla
    1d6e: a6 28        	ldx	$28                     ; 0x28 <__rc24>
    1d70: 86 18        	stx	$18                     ; 0x18 <__rc8>
    1d72: a6 29        	ldx	$29                     ; 0x29 <__rc25>
    1d74: 86 19        	stx	$19                     ; 0x19 <__rc9>
    1d76: a6 2b        	ldx	$2b                     ; 0x2b <__rc27>
    1d78: 20 14 43     	jsr	$4314 <getBeatTrackNoteInfo>
    1d7b: a6 7e        	ldx	$7e                     ; 0x7e <theBeats>
    1d7d: 86 1a        	stx	$1a                     ; 0x1a <__rc10>
    1d7f: a6 7f        	ldx	$7f                     ; 0x7f <theBeats+0x1>
    1d81: 86 1b        	stx	$1b                     ; 0x1b <__rc11>
    1d83: a5 6a        	lda	$6a                     ; 0x6a <gPtr>
    1d85: a6 6b        	ldx	$6b                     ; 0x6b <gPtr+0x1>
    1d87: 85 14        	sta	$14                     ; 0x14 <__rc4>
    1d89: 86 15        	stx	$15                     ; 0x15 <__rc5>
    1d8b: a0 08        	ldy	#$8
    1d8d: b1 14        	lda	($14),y                 ; 0x14 <__rc4>
    1d8f: 85 12        	sta	$12                     ; 0x12 <__rc2>
    1d91: 0a           	asl
    1d92: aa           	tax
    1d93: a9 00        	lda	#$0
    1d95: 2a           	rol
    1d96: 86 13        	stx	$13                     ; 0x13 <__rc3>
    1d98: 06 13        	asl	$13                     ; 0x13 <__rc3>
    1d9a: 2a           	rol
    1d9b: 06 13        	asl	$13                     ; 0x13 <__rc3>
    1d9d: 2a           	rol
    1d9e: 06 13        	asl	$13                     ; 0x13 <__rc3>
    1da0: 2a           	rol
    1da1: aa           	tax
    1da2: 38           	sec
    1da3: a5 13        	lda	$13                     ; 0x13 <__rc3>
    1da5: e5 12        	sbc	$12                     ; 0x12 <__rc2>
    1da7: 85 12        	sta	$12                     ; 0x12 <__rc2>
    1da9: 8a           	txa
    1daa: e9 00        	sbc	#$0
    1dac: a8           	tay
    1dad: 18           	clc
    1dae: a5 12        	lda	$12                     ; 0x12 <__rc2>
    1db0: 65 7e        	adc	$7e                     ; 0x7e <theBeats>
    1db2: aa           	tax
    1db3: 98           	tya
    1db4: 65 7f        	adc	$7f                     ; 0x7f <theBeats+0x1>
    1db6: 86 12        	stx	$12                     ; 0x12 <__rc2>
    1db8: 85 13        	sta	$13                     ; 0x13 <__rc3>
    1dba: a8           	tay
    1dbb: 18           	clc
    1dbc: 8a           	txa
    1dbd: 69 09        	adc	#$9
    1dbf: 85 16        	sta	$16                     ; 0x16 <__rc6>
    1dc1: 98           	tya
    1dc2: 69 00        	adc	#$0
    1dc4: 85 17        	sta	$17                     ; 0x17 <__rc7>
    1dc6: a0 01        	ldy	#$1
    1dc8: b1 16        	lda	($16),y                 ; 0x16 <__rc6>
    1dca: 85 16        	sta	$16                     ; 0x16 <__rc6>
    1dcc: 18           	clc
    1dcd: a5 2d        	lda	$2d                     ; 0x2d <__rc29>
    1dcf: a0 09        	ldy	#$9
    1dd1: 71 12        	adc	($12),y                 ; 0x12 <__rc2>
    1dd3: aa           	tax
    1dd4: a5 16        	lda	$16                     ; 0x16 <__rc6>
    1dd6: 69 00        	adc	#$0
    1dd8: 85 12        	sta	$12                     ; 0x12 <__rc2>
    1dda: 18           	clc
    1ddb: 8a           	txa
    1ddc: 69 fa        	adc	#$fa
    1dde: 85 16        	sta	$16                     ; 0x16 <__rc6>
    1de0: a5 12        	lda	$12                     ; 0x12 <__rc2>
    1de2: 69 ff        	adc	#$ff
    1de4: 85 17        	sta	$17                     ; 0x17 <__rc7>
    1de6: b2 16        	lda	($16)                   ; 0x16 <__rc6>
    1de8: a0 03        	ldy	#$3
    1dea: d1 28        	cmp	($28),y                 ; 0x28 <__rc24>
    1dec: f0 03        	beq	$1df1 <f256main+0x14dd>
    1dee: 4c 93 1e     	jmp	$1e93 <f256main+0x157f>
    1df1: a6 1a        	ldx	$1a                     ; 0x1a <__rc10>
    1df3: 86 12        	stx	$12                     ; 0x12 <__rc2>
    1df5: a6 1b        	ldx	$1b                     ; 0x1b <__rc11>
    1df7: 86 13        	stx	$13                     ; 0x13 <__rc3>
    1df9: a9 00        	lda	#$0
    1dfb: 92 16        	sta	($16)                   ; 0x16 <__rc6>
    1dfd: a0 08        	ldy	#$8
    1dff: b1 14        	lda	($14),y                 ; 0x14 <__rc4>
    1e01: a6 24        	ldx	$24                     ; 0x24 <__rc20>
    1e03: 86 14        	stx	$14                     ; 0x14 <__rc4>
    1e05: a6 25        	ldx	$25                     ; 0x25 <__rc21>
    1e07: 86 15        	stx	$15                     ; 0x15 <__rc5>
    1e09: 48           	pha
    1e0a: a0 06        	ldy	#$6
    1e0c: b1 10        	lda	($10),y                 ; 0x10 <__rc0>
    1e0e: 85 16        	sta	$16                     ; 0x16 <__rc6>
    1e10: c8           	iny
    1e11: b1 10        	lda	($10),y                 ; 0x10 <__rc0>
    1e13: 85 17        	sta	$17                     ; 0x17 <__rc7>
    1e15: 68           	pla
    1e16: a6 16        	ldx	$16                     ; 0x16 <__rc6>
    1e18: 86 2e        	stx	$2e                     ; 0x2e <__rc30>
    1e1a: a6 17        	ldx	$17                     ; 0x17 <__rc7>
    1e1c: 86 2f        	stx	$2f                     ; 0x2f <__rc31>
    1e1e: a6 28        	ldx	$28                     ; 0x28 <__rc24>
    1e20: 86 18        	stx	$18                     ; 0x18 <__rc8>
    1e22: a6 29        	ldx	$29                     ; 0x29 <__rc25>
    1e24: 86 19        	stx	$19                     ; 0x19 <__rc9>
    1e26: a6 2b        	ldx	$2b                     ; 0x2b <__rc27>
    1e28: 20 14 43     	jsr	$4314 <getBeatTrackNoteInfo>
    1e2b: a6 6a        	ldx	$6a                     ; 0x6a <gPtr>
    1e2d: a4 6b        	ldy	$6b                     ; 0x6b <gPtr+0x1>
    1e2f: 86 14        	stx	$14                     ; 0x14 <__rc4>
    1e31: 84 15        	sty	$15                     ; 0x15 <__rc5>
    1e33: 4c 9e 1e     	jmp	$1e9e <f256main+0x158a>
    1e36: a0 00        	ldy	#$0
    1e38: 84 61        	sty	$61                     ; 0x61 <instSelectMode>
    1e3a: e0 00        	cpx	#$0
    1e3c: f0 03        	beq	$1e41 <f256main+0x152d>
    1e3e: 4c 6d 20     	jmp	$206d <f256main+0x1759>
    1e41: a2 02        	ldx	#$2
    1e43: 86 01        	stx	$1                      ; 0x1 <__data_size+0x1>
    1e45: a2 c0        	ldx	#$c0
    1e47: a0 00        	ldy	#$0
    1e49: 84 12        	sty	$12                     ; 0x12 <__rc2>
    1e4b: 86 13        	stx	$13                     ; 0x13 <__rc3>
    1e4d: 92 12        	sta	($12)                   ; 0x12 <__rc2>
    1e4f: c8           	iny
    1e50: d0 01        	bne	$1e53 <f256main+0x153f>
    1e52: e8           	inx
    1e53: e0 d2        	cpx	#$d2
    1e55: d0 f2        	bne	$1e49 <f256main+0x1535>
    1e57: c0 c0        	cpy	#$c0
    1e59: d0 ee        	bne	$1e49 <f256main+0x1535>
    1e5b: 64 01        	stz	$1                      ; 0x1 <__data_size+0x1>
    1e5d: a6 6a        	ldx	$6a                     ; 0x6a <gPtr>
    1e5f: a4 6b        	ldy	$6b                     ; 0x6b <gPtr+0x1>
    1e61: 86 12        	stx	$12                     ; 0x12 <__rc2>
    1e63: 84 13        	sty	$13                     ; 0x13 <__rc3>
    1e65: 20 fe 4a     	jsr	$4afe <textTitle>
    1e68: 4c 7c 2a     	jmp	$2a7c <f256main+0x2168>
    1e6b: 85 15        	sta	$15                     ; 0x15 <__rc5>
    1e6d: a0 05        	ldy	#$5
    1e6f: a9 90        	lda	#$90
    1e71: 11 12        	ora	($12),y                 ; 0x12 <__rc2>
    1e73: 85 18        	sta	$18                     ; 0x18 <__rc8>
    1e75: a9 15        	lda	#$15
    1e77: 18           	clc
    1e78: 65 31        	adc	$31                     ; 0x31 <note>
    1e7a: aa           	tax
    1e7b: b2 12        	lda	($12)                   ; 0x12 <__rc2>
    1e7d: 86 12        	stx	$12                     ; 0x12 <__rc2>
    1e7f: 85 14        	sta	$14                     ; 0x14 <__rc4>
    1e81: a2 7f        	ldx	#$7f
    1e83: 86 13        	stx	$13                     ; 0x13 <__rc3>
    1e85: 64 16        	stz	$16                     ; 0x16 <__rc6>
    1e87: 64 17        	stz	$17                     ; 0x17 <__rc7>
    1e89: a6 18        	ldx	$18                     ; 0x18 <__rc8>
    1e8b: a9 01        	lda	#$1
    1e8d: 20 66 31     	jsr	$3166 <dispatchNote>
    1e90: 4c 7c 2a     	jmp	$2a7c <f256main+0x2168>
    1e93: a0 06        	ldy	#$6
    1e95: b1 10        	lda	($10),y                 ; 0x10 <__rc0>
    1e97: 85 2e        	sta	$2e                     ; 0x2e <__rc30>
    1e99: c8           	iny
    1e9a: b1 10        	lda	($10),y                 ; 0x10 <__rc0>
    1e9c: 85 2f        	sta	$2f                     ; 0x2f <__rc31>
    1e9e: b2 24        	lda	($24)                   ; 0x24 <__rc20>
    1ea0: a0 01        	ldy	#$1
    1ea2: aa           	tax
    1ea3: 30 03        	bmi	$1ea8 <f256main+0x1594>
    1ea5: 4c 19 1f     	jmp	$1f19 <f256main+0x1605>
    1ea8: a0 08        	ldy	#$8
    1eaa: b1 14        	lda	($14),y                 ; 0x14 <__rc4>
    1eac: 85 12        	sta	$12                     ; 0x12 <__rc2>
    1eae: 0a           	asl
    1eaf: a8           	tay
    1eb0: a9 00        	lda	#$0
    1eb2: 2a           	rol
    1eb3: 84 13        	sty	$13                     ; 0x13 <__rc3>
    1eb5: 06 13        	asl	$13                     ; 0x13 <__rc3>
    1eb7: 2a           	rol
    1eb8: 06 13        	asl	$13                     ; 0x13 <__rc3>
    1eba: 2a           	rol
    1ebb: 06 13        	asl	$13                     ; 0x13 <__rc3>
    1ebd: 2a           	rol
    1ebe: a8           	tay
    1ebf: 38           	sec
    1ec0: a5 13        	lda	$13                     ; 0x13 <__rc3>
    1ec2: e5 12        	sbc	$12                     ; 0x12 <__rc2>
    1ec4: 85 12        	sta	$12                     ; 0x12 <__rc2>
    1ec6: 98           	tya
    1ec7: e9 00        	sbc	#$0
    1ec9: 85 13        	sta	$13                     ; 0x13 <__rc3>
    1ecb: 18           	clc
    1ecc: a5 12        	lda	$12                     ; 0x12 <__rc2>
    1ece: 65 7e        	adc	$7e                     ; 0x7e <theBeats>
    1ed0: a8           	tay
    1ed1: a5 13        	lda	$13                     ; 0x13 <__rc3>
    1ed3: 65 7f        	adc	$7f                     ; 0x7f <theBeats+0x1>
    1ed5: 84 12        	sty	$12                     ; 0x12 <__rc2>
    1ed7: 85 13        	sta	$13                     ; 0x13 <__rc3>
    1ed9: 85 17        	sta	$17                     ; 0x17 <__rc7>
    1edb: 18           	clc
    1edc: 98           	tya
    1edd: 69 0b        	adc	#$b
    1edf: 85 16        	sta	$16                     ; 0x16 <__rc6>
    1ee1: a5 17        	lda	$17                     ; 0x17 <__rc7>
    1ee3: 69 00        	adc	#$0
    1ee5: 85 17        	sta	$17                     ; 0x17 <__rc7>
    1ee7: a0 01        	ldy	#$1
    1ee9: b1 16        	lda	($16),y                 ; 0x16 <__rc6>
    1eeb: 85 16        	sta	$16                     ; 0x16 <__rc6>
    1eed: 18           	clc
    1eee: a0 0b        	ldy	#$b
    1ef0: a5 2d        	lda	$2d                     ; 0x2d <__rc29>
    1ef2: 71 12        	adc	($12),y                 ; 0x12 <__rc2>
    1ef4: 85 13        	sta	$13                     ; 0x13 <__rc3>
    1ef6: a0 01        	ldy	#$1
    1ef8: a5 16        	lda	$16                     ; 0x16 <__rc6>
    1efa: 69 00        	adc	#$0
    1efc: 85 12        	sta	$12                     ; 0x12 <__rc2>
    1efe: 18           	clc
    1eff: a5 13        	lda	$13                     ; 0x13 <__rc3>
    1f01: 69 fa        	adc	#$fa
    1f03: 85 16        	sta	$16                     ; 0x16 <__rc6>
    1f05: a5 12        	lda	$12                     ; 0x12 <__rc2>
    1f07: 69 ff        	adc	#$ff
    1f09: 5a           	phy
    1f0a: a4 16        	ldy	$16                     ; 0x16 <__rc6>
    1f0c: 84 12        	sty	$12                     ; 0x12 <__rc2>
    1f0e: 7a           	ply
    1f0f: 85 13        	sta	$13                     ; 0x13 <__rc3>
    1f11: b2 12        	lda	($12)                   ; 0x12 <__rc2>
    1f13: d0 04        	bne	$1f19 <f256main+0x1605>
    1f15: a9 01        	lda	#$1
    1f17: 92 12        	sta	($12)                   ; 0x12 <__rc2>
    1f19: 5a           	phy
    1f1a: a0 08        	ldy	#$8
    1f1c: b1 10        	lda	($10),y                 ; 0x10 <__rc0>
    1f1e: 85 16        	sta	$16                     ; 0x16 <__rc6>
    1f20: c8           	iny
    1f21: b1 10        	lda	($10),y                 ; 0x10 <__rc0>
    1f23: 7a           	ply
    1f24: 85 17        	sta	$17                     ; 0x17 <__rc7>
    1f26: b1 16        	lda	($16),y                 ; 0x16 <__rc6>
    1f28: 85 19        	sta	$19                     ; 0x19 <__rc9>
    1f2a: 8a           	txa
    1f2b: 29 7f        	and	#$7f
    1f2d: 85 18        	sta	$18                     ; 0x18 <__rc8>
    1f2f: b2 16        	lda	($16)                   ; 0x16 <__rc6>
    1f31: a2 4c        	ldx	#$4c
    1f33: a4 2e        	ldy	$2e                     ; 0x2e <__rc30>
    1f35: 84 28        	sty	$28                     ; 0x28 <__rc24>
    1f37: a4 2f        	ldy	$2f                     ; 0x2f <__rc31>
    1f39: 84 29        	sty	$29                     ; 0x29 <__rc25>
    1f3b: a0 53        	ldy	#$53
    1f3d: 84 2e        	sty	$2e                     ; 0x2e <__rc30>
    1f3f: a0 86        	ldy	#$86
    1f41: 84 2f        	sty	$2f                     ; 0x2f <__rc31>
    1f43: 85 16        	sta	$16                     ; 0x16 <__rc6>
    1f45: c9 02        	cmp	#$2
    1f47: f0 02        	beq	$1f4b <f256main+0x1637>
    1f49: a2 7f        	ldx	#$7f
    1f4b: b2 14        	lda	($14)                   ; 0x14 <__rc4>
    1f4d: 85 1a        	sta	$1a                     ; 0x1a <__rc10>
    1f4f: a0 02        	ldy	#$2
    1f51: 5a           	phy
    1f52: a0 08        	ldy	#$8
    1f54: b1 10        	lda	($10),y                 ; 0x10 <__rc0>
    1f56: 85 12        	sta	$12                     ; 0x12 <__rc2>
    1f58: c8           	iny
    1f59: b1 10        	lda	($10),y                 ; 0x10 <__rc0>
    1f5b: 7a           	ply
    1f5c: 85 13        	sta	$13                     ; 0x13 <__rc3>
    1f5e: b1 12        	lda	($12),y                 ; 0x12 <__rc2>
    1f60: 85 17        	sta	$17                     ; 0x17 <__rc7>
    1f62: a4 18        	ldy	$18                     ; 0x18 <__rc8>
    1f64: 84 12        	sty	$12                     ; 0x12 <__rc2>
    1f66: 86 13        	stx	$13                     ; 0x13 <__rc3>
    1f68: a6 1a        	ldx	$1a                     ; 0x1a <__rc10>
    1f6a: 86 14        	stx	$14                     ; 0x14 <__rc4>
    1f6c: a6 16        	ldx	$16                     ; 0x16 <__rc6>
    1f6e: 86 15        	stx	$15                     ; 0x15 <__rc5>
    1f70: a9 01        	lda	#$1
    1f72: 85 16        	sta	$16                     ; 0x16 <__rc6>
    1f74: a6 19        	ldx	$19                     ; 0x19 <__rc9>
    1f76: 20 66 31     	jsr	$3166 <dispatchNote>
    1f79: a6 6a        	ldx	$6a                     ; 0x6a <gPtr>
    1f7b: a4 6b        	ldy	$6b                     ; 0x6b <gPtr+0x1>
    1f7d: 86 12        	stx	$12                     ; 0x12 <__rc2>
    1f7f: 84 13        	sty	$13                     ; 0x13 <__rc3>
    1f81: a0 08        	ldy	#$8
    1f83: b1 12        	lda	($12),y                 ; 0x12 <__rc2>
    1f85: 85 12        	sta	$12                     ; 0x12 <__rc2>
    1f87: 0a           	asl
    1f88: aa           	tax
    1f89: a9 00        	lda	#$0
    1f8b: 2a           	rol
    1f8c: 86 13        	stx	$13                     ; 0x13 <__rc3>
    1f8e: 06 13        	asl	$13                     ; 0x13 <__rc3>
    1f90: 2a           	rol
    1f91: 06 13        	asl	$13                     ; 0x13 <__rc3>
    1f93: 2a           	rol
    1f94: 06 13        	asl	$13                     ; 0x13 <__rc3>
    1f96: 2a           	rol
    1f97: aa           	tax
    1f98: 38           	sec
    1f99: a5 13        	lda	$13                     ; 0x13 <__rc3>
    1f9b: e5 12        	sbc	$12                     ; 0x12 <__rc2>
    1f9d: 85 12        	sta	$12                     ; 0x12 <__rc2>
    1f9f: 8a           	txa
    1fa0: e9 00        	sbc	#$0
    1fa2: aa           	tax
    1fa3: 18           	clc
    1fa4: a5 12        	lda	$12                     ; 0x12 <__rc2>
    1fa6: 65 7e        	adc	$7e                     ; 0x7e <theBeats>
    1fa8: 85 12        	sta	$12                     ; 0x12 <__rc2>
    1faa: 8a           	txa
    1fab: 65 7f        	adc	$7f                     ; 0x7f <theBeats+0x1>
    1fad: 85 13        	sta	$13                     ; 0x13 <__rc3>
    1faf: a0 02        	ldy	#$2
    1fb1: b1 12        	lda	($12),y                 ; 0x12 <__rc2>
    1fb3: 1a           	inc
    1fb4: 91 12        	sta	($12),y                 ; 0x12 <__rc2>
    1fb6: a2 80        	ldx	#$80
    1fb8: 86 f3        	stx	$f3                     ; 0xf3 <__zp_bss_size+0x99>
    1fba: 18           	clc
    1fbb: a5 10        	lda	$10                     ; 0x10 <__rc0>
    1fbd: 69 20        	adc	#$20
    1fbf: 85 12        	sta	$12                     ; 0x12 <__rc2>
    1fc1: a5 11        	lda	$11                     ; 0x11 <__rc1>
    1fc3: 69 00        	adc	#$0
    1fc5: 85 13        	sta	$13                     ; 0x13 <__rc3>
    1fc7: 20 f0 ff     	jsr	$fff0 <__heap_start+0x7998>
    1fca: 92 12        	sta	($12)                   ; 0x12 <__rc2>
    1fcc: a9 00        	lda	#$0
    1fce: 6a           	ror
    1fcf: 85 2e        	sta	$2e                     ; 0x2e <__rc30>
    1fd1: b2 12        	lda	($12)                   ; 0x12 <__rc2>
    1fd3: 85 12        	sta	$12                     ; 0x12 <__rc2>
    1fd5: b2 28        	lda	($28)                   ; 0x28 <__rc24>
    1fd7: aa           	tax
    1fd8: 18           	clc
    1fd9: a5 12        	lda	$12                     ; 0x12 <__rc2>
    1fdb: 75 6c        	adc	$6c,x                   ; 0x6c <mainTempoLUT>
    1fdd: 85 18        	sta	$18                     ; 0x18 <__rc8>
    1fdf: a6 6a        	ldx	$6a                     ; 0x6a <gPtr>
    1fe1: a4 6b        	ldy	$6b                     ; 0x6b <gPtr+0x1>
    1fe3: 86 12        	stx	$12                     ; 0x12 <__rc2>
    1fe5: 84 13        	sty	$13                     ; 0x13 <__rc3>
    1fe7: a0 08        	ldy	#$8
    1fe9: b1 12        	lda	($12),y                 ; 0x12 <__rc2>
    1feb: 85 12        	sta	$12                     ; 0x12 <__rc2>
    1fed: 0a           	asl
    1fee: aa           	tax
    1fef: a9 00        	lda	#$0
    1ff1: 2a           	rol
    1ff2: 86 13        	stx	$13                     ; 0x13 <__rc3>
    1ff4: 06 13        	asl	$13                     ; 0x13 <__rc3>
    1ff6: 2a           	rol
    1ff7: 06 13        	asl	$13                     ; 0x13 <__rc3>
    1ff9: 2a           	rol
    1ffa: 06 13        	asl	$13                     ; 0x13 <__rc3>
    1ffc: 2a           	rol
    1ffd: aa           	tax
    1ffe: 38           	sec
    1fff: a5 13        	lda	$13                     ; 0x13 <__rc3>
    2001: e5 12        	sbc	$12                     ; 0x12 <__rc2>
    2003: 85 12        	sta	$12                     ; 0x12 <__rc2>
    2005: 8a           	txa
    2006: e9 00        	sbc	#$0
    2008: a8           	tay
    2009: 18           	clc
    200a: a5 12        	lda	$12                     ; 0x12 <__rc2>
    200c: 65 7e        	adc	$7e                     ; 0x7e <theBeats>
    200e: aa           	tax
    200f: 98           	tya
    2010: 65 7f        	adc	$7f                     ; 0x7f <theBeats+0x1>
    2012: 86 12        	stx	$12                     ; 0x12 <__rc2>
    2014: 85 13        	sta	$13                     ; 0x13 <__rc3>
    2016: a8           	tay
    2017: 18           	clc
    2018: 8a           	txa
    2019: 69 0d        	adc	#$d
    201b: 85 14        	sta	$14                     ; 0x14 <__rc4>
    201d: 98           	tya
    201e: 69 00        	adc	#$0
    2020: 85 15        	sta	$15                     ; 0x15 <__rc5>
    2022: 18           	clc
    2023: a0 0d        	ldy	#$d
    2025: b1 10        	lda	($10),y                 ; 0x10 <__rc0>
    2027: 65 2b        	adc	$2b                     ; 0x2b <__rc27>
    2029: aa           	tax
    202a: a0 0b        	ldy	#$b
    202c: b1 10        	lda	($10),y                 ; 0x10 <__rc0>
    202e: 65 2c        	adc	$2c                     ; 0x2c <__rc28>
    2030: 85 16        	sta	$16                     ; 0x16 <__rc6>
    2032: 18           	clc
    2033: a0 0d        	ldy	#$d
    2035: 8a           	txa
    2036: 71 12        	adc	($12),y                 ; 0x12 <__rc2>
    2038: 85 12        	sta	$12                     ; 0x12 <__rc2>
    203a: a0 01        	ldy	#$1
    203c: a5 16        	lda	$16                     ; 0x16 <__rc6>
    203e: 71 14        	adc	($14),y                 ; 0x14 <__rc4>
    2040: 85 13        	sta	$13                     ; 0x13 <__rc3>
    2042: a5 18        	lda	$18                     ; 0x18 <__rc8>
    2044: 91 12        	sta	($12),y                 ; 0x12 <__rc2>
    2046: b2 12        	lda	($12)                   ; 0x12 <__rc2>
    2048: 85 f3        	sta	$f3                     ; 0xf3 <__zp_bss_size+0x99>
    204a: b1 12        	lda	($12),y                 ; 0x12 <__rc2>
    204c: 85 f4        	sta	$f4                     ; 0xf4 <__zp_bss_size+0x9a>
    204e: c8           	iny
    204f: b1 12        	lda	($12),y                 ; 0x12 <__rc2>
    2051: 85 f5        	sta	$f5                     ; 0xf5 <__zp_bss_size+0x9b>
    2053: 18           	clc
    2054: a5 10        	lda	$10                     ; 0x10 <__rc0>
    2056: 69 21        	adc	#$21
    2058: 85 12        	sta	$12                     ; 0x12 <__rc2>
    205a: a5 11        	lda	$11                     ; 0x11 <__rc1>
    205c: 69 00        	adc	#$0
    205e: 85 13        	sta	$13                     ; 0x13 <__rc3>
    2060: 20 f0 ff     	jsr	$fff0 <__heap_start+0x7998>
    2063: 92 12        	sta	($12)                   ; 0x12 <__rc2>
    2065: a9 00        	lda	#$0
    2067: 6a           	ror
    2068: 85 2e        	sta	$2e                     ; 0x2e <__rc30>
    206a: 4c f5 0e     	jmp	$ef5 <f256main+0x5e1>
    206d: a6 6a        	ldx	$6a                     ; 0x6a <gPtr>
    206f: a4 6b        	ldy	$6b                     ; 0x6b <gPtr+0x1>
    2071: 86 2c        	stx	$2c                     ; 0x2c <__rc28>
    2073: 84 2d        	sty	$2d                     ; 0x2d <__rc29>
    2075: a0 06        	ldy	#$6
    2077: b1 2c        	lda	($2c),y                 ; 0x2c <__rc28>
    2079: f0 03        	beq	$207e <f256main+0x176a>
    207b: 4c e3 20     	jmp	$20e3 <f256main+0x17cf>
    207e: b2 2c        	lda	($2c)                   ; 0x2c <__rc28>
    2080: a2 a1        	ldx	#$a1
    2082: 86 12        	stx	$12                     ; 0x12 <__rc2>
    2084: a2 dd        	ldx	#$dd
    2086: 86 13        	stx	$13                     ; 0x13 <__rc3>
    2088: aa           	tax
    2089: f0 08        	beq	$2093 <f256main+0x177f>
    208b: a2 b1        	ldx	#$b1
    208d: 86 12        	stx	$12                     ; 0x12 <__rc2>
    208f: a2 dd        	ldx	#$dd
    2091: 86 13        	stx	$13                     ; 0x13 <__rc3>
    2093: a9 b0        	lda	#$b0
    2095: 92 12        	sta	($12)                   ; 0x12 <__rc2>
    2097: a9 7b        	lda	#$7b
    2099: 92 12        	sta	($12)                   ; 0x12 <__rc2>
    209b: a9 00        	lda	#$0
    209d: 92 12        	sta	($12)                   ; 0x12 <__rc2>
    209f: b2 2c        	lda	($2c)                   ; 0x2c <__rc28>
    20a1: a2 a1        	ldx	#$a1
    20a3: 86 12        	stx	$12                     ; 0x12 <__rc2>
    20a5: a2 dd        	ldx	#$dd
    20a7: 86 13        	stx	$13                     ; 0x13 <__rc3>
    20a9: aa           	tax
    20aa: f0 08        	beq	$20b4 <f256main+0x17a0>
    20ac: a2 b1        	ldx	#$b1
    20ae: 86 12        	stx	$12                     ; 0x12 <__rc2>
    20b0: a2 dd        	ldx	#$dd
    20b2: 86 13        	stx	$13                     ; 0x13 <__rc3>
    20b4: a9 b1        	lda	#$b1
    20b6: 92 12        	sta	($12)                   ; 0x12 <__rc2>
    20b8: a9 7b        	lda	#$7b
    20ba: 92 12        	sta	($12)                   ; 0x12 <__rc2>
    20bc: a9 00        	lda	#$0
    20be: 92 12        	sta	($12)                   ; 0x12 <__rc2>
    20c0: b2 2c        	lda	($2c)                   ; 0x2c <__rc28>
    20c2: a2 a1        	ldx	#$a1
    20c4: 86 12        	stx	$12                     ; 0x12 <__rc2>
    20c6: a2 dd        	ldx	#$dd
    20c8: 86 13        	stx	$13                     ; 0x13 <__rc3>
    20ca: aa           	tax
    20cb: f0 08        	beq	$20d5 <f256main+0x17c1>
    20cd: a2 b1        	ldx	#$b1
    20cf: 86 12        	stx	$12                     ; 0x12 <__rc2>
    20d1: a2 dd        	ldx	#$dd
    20d3: 86 13        	stx	$13                     ; 0x13 <__rc3>
    20d5: a9 b9        	lda	#$b9
    20d7: 92 12        	sta	($12)                   ; 0x12 <__rc2>
    20d9: a9 7b        	lda	#$7b
    20db: 92 12        	sta	($12)                   ; 0x12 <__rc2>
    20dd: a9 00        	lda	#$0
    20df: 92 12        	sta	($12)                   ; 0x12 <__rc2>
    20e1: b1 2c        	lda	($2c),y                 ; 0x2c <__rc28>
    20e3: c9 01        	cmp	#$1
    20e5: d0 32        	bne	$2119 <f256main+0x1805>
    20e7: ad 04 d4     	lda	$d404                   ; 0xd404 <__heap_start+0x4dac>
    20ea: 29 fe        	and	#$fe
    20ec: 8d 04 d4     	sta	$d404                   ; 0xd404 <__heap_start+0x4dac>
    20ef: ad 0b d4     	lda	$d40b                   ; 0xd40b <__heap_start+0x4db3>
    20f2: 29 fe        	and	#$fe
    20f4: 8d 0b d4     	sta	$d40b                   ; 0xd40b <__heap_start+0x4db3>
    20f7: ad 12 d4     	lda	$d412                   ; 0xd412 <__heap_start+0x4dba>
    20fa: 29 fe        	and	#$fe
    20fc: 8d 12 d4     	sta	$d412                   ; 0xd412 <__heap_start+0x4dba>
    20ff: ad 04 d5     	lda	$d504                   ; 0xd504 <__heap_start+0x4eac>
    2102: 29 fe        	and	#$fe
    2104: 8d 04 d5     	sta	$d504                   ; 0xd504 <__heap_start+0x4eac>
    2107: ad 0b d5     	lda	$d50b                   ; 0xd50b <__heap_start+0x4eb3>
    210a: 29 fe        	and	#$fe
    210c: 8d 0b d5     	sta	$d50b                   ; 0xd50b <__heap_start+0x4eb3>
    210f: ad 12 d5     	lda	$d512                   ; 0xd512 <__heap_start+0x4eba>
    2112: 29 fe        	and	#$fe
    2114: 8d 12 d5     	sta	$d512                   ; 0xd512 <__heap_start+0x4eba>
    2117: b1 2c        	lda	($2c),y                 ; 0x2c <__rc28>
    2119: a0 02        	ldy	#$2
    211b: c9 03        	cmp	#$3
    211d: d0 0d        	bne	$212c <f256main+0x1818>
    211f: a2 b0        	ldx	#$b0
    2121: 8e 80 d5     	stx	$d580                   ; 0xd580 <__heap_start+0x4f28>
    2124: 9c 81 d5     	stz	$d581                   ; 0xd581 <__heap_start+0x4f29>
    2127: e8           	inx
    2128: e0 b9        	cpx	#$b9
    212a: d0 f5        	bne	$2121 <f256main+0x180d>
    212c: 84 01        	sty	$1                      ; 0x1 <__data_size+0x1>
    212e: a2 c0        	ldx	#$c0
    2130: a0 00        	ldy	#$0
    2132: a9 20        	lda	#$20
    2134: 84 12        	sty	$12                     ; 0x12 <__rc2>
    2136: 86 13        	stx	$13                     ; 0x13 <__rc3>
    2138: 92 12        	sta	($12)                   ; 0x12 <__rc2>
    213a: c8           	iny
    213b: d0 01        	bne	$213e <f256main+0x182a>
    213d: e8           	inx
    213e: e0 d2        	cpx	#$d2
    2140: d0 f2        	bne	$2134 <f256main+0x1820>
    2142: c0 c0        	cpy	#$c0
    2144: d0 ee        	bne	$2134 <f256main+0x1820>
    2146: 64 01        	stz	$1                      ; 0x1 <__data_size+0x1>
    2148: a2 90        	ldx	#$90
    214a: 86 30        	stx	$30                     ; 0x30 <_ccolor>
    214c: a0 06        	ldy	#$6
    214e: b1 2c        	lda	($2c),y                 ; 0x2c <__rc28>
    2150: a2 02        	ldx	#$2
    2152: c9 00        	cmp	#$0
    2154: f0 03        	beq	$2159 <f256main+0x1845>
    2156: 4c 19 23     	jmp	$2319 <f256main+0x1a05>
    2159: a5 28        	lda	$28                     ; 0x28 <__rc24>
    215b: 91 10        	sta	($10),y                 ; 0x10 <__rc0>
    215d: a5 29        	lda	$29                     ; 0x29 <__rc25>
    215f: a0 07        	ldy	#$7
    2161: 91 10        	sta	($10),y                 ; 0x10 <__rc0>
    2163: 64 2b        	stz	$2b                     ; 0x2b <__rc27>
    2165: 64 33        	stz	$33                     ; 0x33 <_col>
    2167: 9c 14 d0     	stz	$d014                   ; 0xd014 <__heap_start+0x49bc>
    216a: 9c 15 d0     	stz	$d015                   ; 0xd015 <__heap_start+0x49bd>
    216d: 64 34        	stz	$34                     ; 0x34 <_row>
    216f: 9c 16 d0     	stz	$d016                   ; 0xd016 <__heap_start+0x49be>
    2172: 9c 17 d0     	stz	$d017                   ; 0xd017 <__heap_start+0x49bf>
    2175: a2 3a        	ldx	#$3a
    2177: 86 12        	stx	$12                     ; 0x12 <__rc2>
    2179: a2 79        	ldx	#$79
    217b: 86 13        	stx	$13                     ; 0x13 <__rc3>
    217d: 20 ae 2f     	jsr	$2fae <textPrint>
    2180: a0 05        	ldy	#$5
    2182: b1 2c        	lda	($2c),y                 ; 0x2c <__rc28>
    2184: 92 10        	sta	($10)                   ; 0x10 <__rc0>
    2186: a9 00        	lda	#$0
    2188: a0 01        	ldy	#$1
    218a: 91 10        	sta	($10),y                 ; 0x10 <__rc0>
    218c: a2 9e        	ldx	#$9e
    218e: 86 12        	stx	$12                     ; 0x12 <__rc2>
    2190: a2 7d        	ldx	#$7d
    2192: 86 13        	stx	$13                     ; 0x13 <__rc3>
    2194: 20 65 52     	jsr	$5265 <printf>
    2197: a2 29        	ldx	#$29
    2199: 86 12        	stx	$12                     ; 0x12 <__rc2>
    219b: a2 77        	ldx	#$77
    219d: 86 13        	stx	$13                     ; 0x13 <__rc3>
    219f: 20 ae 2f     	jsr	$2fae <textPrint>
    21a2: a2 50        	ldx	#$50
    21a4: 86 30        	stx	$30                     ; 0x30 <_ccolor>
    21a6: a2 82        	ldx	#$82
    21a8: 8a           	txa
    21a9: a0 0d        	ldy	#$d
    21ab: 91 10        	sta	($10),y                 ; 0x10 <__rc0>
    21ad: a2 01        	ldx	#$1
    21af: 8a           	txa
    21b0: a0 0a        	ldy	#$a
    21b2: 91 10        	sta	($10),y                 ; 0x10 <__rc0>
    21b4: a2 6f        	ldx	#$6f
    21b6: 86 12        	stx	$12                     ; 0x12 <__rc2>
    21b8: a2 76        	ldx	#$76
    21ba: 86 13        	stx	$13                     ; 0x13 <__rc3>
    21bc: a5 12        	lda	$12                     ; 0x12 <__rc2>
    21be: c8           	iny
    21bf: 91 10        	sta	($10),y                 ; 0x10 <__rc0>
    21c1: a5 13        	lda	$13                     ; 0x13 <__rc3>
    21c3: c8           	iny
    21c4: 4c 3b 22     	jmp	$223b <f256main+0x1927>
    21c7: b1 10        	lda	($10),y                 ; 0x10 <__rc0>
    21c9: 85 28        	sta	$28                     ; 0x28 <__rc24>
    21cb: 49 80        	eor	#$80
    21cd: a2 34        	ldx	#$34
    21cf: 86 33        	stx	$33                     ; 0x33 <_col>
    21d1: 8e 14 d0     	stx	$d014                   ; 0xd014 <__heap_start+0x49bc>
    21d4: 9c 15 d0     	stz	$d015                   ; 0xd015 <__heap_start+0x49bd>
    21d7: 48           	pha
    21d8: a0 0a        	ldy	#$a
    21da: b1 10        	lda	($10),y                 ; 0x10 <__rc0>
    21dc: aa           	tax
    21dd: 68           	pla
    21de: 86 34        	stx	$34                     ; 0x34 <_row>
    21e0: 8e 16 d0     	stx	$d016                   ; 0xd016 <__heap_start+0x49be>
    21e3: 86 29        	stx	$29                     ; 0x29 <__rc25>
    21e5: 9c 17 d0     	stz	$d017                   ; 0xd017 <__heap_start+0x49bf>
    21e8: a6 2b        	ldx	$2b                     ; 0x2b <__rc27>
    21ea: bc 1d 85     	ldy	$851d,x                 ; 0x851d <midi_instruments+0x4>
    21ed: 84 14        	sty	$14                     ; 0x14 <__rc4>
    21ef: 48           	pha
    21f0: bd 1e 85     	lda	$851e,x                 ; 0x851e <midi_instruments+0x5>
    21f3: aa           	tax
    21f4: 68           	pla
    21f5: 86 15        	stx	$15                     ; 0x15 <__rc5>
    21f7: a6 10        	ldx	$10                     ; 0x10 <__rc0>
    21f9: 92 10        	sta	($10)                   ; 0x10 <__rc0>
    21fb: a9 00        	lda	#$0
    21fd: a0 01        	ldy	#$1
    21ff: 91 10        	sta	($10),y                 ; 0x10 <__rc0>
    2201: 18           	clc
    2202: 8a           	txa
    2203: 69 02        	adc	#$2
    2205: 85 12        	sta	$12                     ; 0x12 <__rc2>
    2207: a5 11        	lda	$11                     ; 0x11 <__rc1>
    2209: 69 00        	adc	#$0
    220b: 85 13        	sta	$13                     ; 0x13 <__rc3>
    220d: c8           	iny
    220e: a5 14        	lda	$14                     ; 0x14 <__rc4>
    2210: 91 10        	sta	($10),y                 ; 0x10 <__rc0>
    2212: a5 15        	lda	$15                     ; 0x15 <__rc5>
    2214: 88           	dey
    2215: 91 12        	sta	($12),y                 ; 0x12 <__rc2>
    2217: a0 0b        	ldy	#$b
    2219: b1 10        	lda	($10),y                 ; 0x10 <__rc0>
    221b: 85 12        	sta	$12                     ; 0x12 <__rc2>
    221d: c8           	iny
    221e: b1 10        	lda	($10),y                 ; 0x10 <__rc0>
    2220: 85 13        	sta	$13                     ; 0x13 <__rc3>
    2222: 20 65 52     	jsr	$5265 <printf>
    2225: e6 29        	inc	$29                     ; 0x29 <__rc25>
    2227: a5 29        	lda	$29                     ; 0x29 <__rc25>
    2229: a0 0a        	ldy	#$a
    222b: 91 10        	sta	($10),y                 ; 0x10 <__rc0>
    222d: 18           	clc
    222e: a5 2b        	lda	$2b                     ; 0x2b <__rc27>
    2230: 69 06        	adc	#$6
    2232: 85 2b        	sta	$2b                     ; 0x2b <__rc27>
    2234: 18           	clc
    2235: a5 28        	lda	$28                     ; 0x28 <__rc24>
    2237: 69 03        	adc	#$3
    2239: a0 0d        	ldy	#$d
    223b: 91 10        	sta	($10),y                 ; 0x10 <__rc0>
    223d: a0 0d        	ldy	#$d
    223f: b1 10        	lda	($10),y                 ; 0x10 <__rc0>
    2241: 85 28        	sta	$28                     ; 0x28 <__rc24>
    2243: 18           	clc
    2244: 69 7e        	adc	#$7e
    2246: a2 02        	ldx	#$2
    2248: 86 33        	stx	$33                     ; 0x33 <_col>
    224a: 8e 14 d0     	stx	$d014                   ; 0xd014 <__heap_start+0x49bc>
    224d: 9c 15 d0     	stz	$d015                   ; 0xd015 <__heap_start+0x49bd>
    2250: 48           	pha
    2251: a0 0a        	ldy	#$a
    2253: b1 10        	lda	($10),y                 ; 0x10 <__rc0>
    2255: aa           	tax
    2256: 68           	pla
    2257: 86 34        	stx	$34                     ; 0x34 <_row>
    2259: 8e 16 d0     	stx	$d016                   ; 0xd016 <__heap_start+0x49be>
    225c: 86 24        	stx	$24                     ; 0x24 <__rc20>
    225e: 9c 17 d0     	stz	$d017                   ; 0xd017 <__heap_start+0x49bf>
    2261: a6 2b        	ldx	$2b                     ; 0x2b <__rc27>
    2263: bc 19 85     	ldy	$8519,x                 ; 0x8519 <midi_instruments>
    2266: 84 14        	sty	$14                     ; 0x14 <__rc4>
    2268: bc 1a 85     	ldy	$851a,x                 ; 0x851a <midi_instruments+0x1>
    226b: 84 15        	sty	$15                     ; 0x15 <__rc5>
    226d: 86 29        	stx	$29                     ; 0x29 <__rc25>
    226f: a6 10        	ldx	$10                     ; 0x10 <__rc0>
    2271: 92 10        	sta	($10)                   ; 0x10 <__rc0>
    2273: a0 01        	ldy	#$1
    2275: a9 00        	lda	#$0
    2277: 91 10        	sta	($10),y                 ; 0x10 <__rc0>
    2279: 18           	clc
    227a: 8a           	txa
    227b: 69 02        	adc	#$2
    227d: aa           	tax
    227e: a5 11        	lda	$11                     ; 0x11 <__rc1>
    2280: 69 00        	adc	#$0
    2282: 86 12        	stx	$12                     ; 0x12 <__rc2>
    2284: 85 13        	sta	$13                     ; 0x13 <__rc3>
    2286: c8           	iny
    2287: a5 14        	lda	$14                     ; 0x14 <__rc4>
    2289: 91 10        	sta	($10),y                 ; 0x10 <__rc0>
    228b: a5 15        	lda	$15                     ; 0x15 <__rc5>
    228d: 88           	dey
    228e: 91 12        	sta	($12),y                 ; 0x12 <__rc2>
    2290: a0 0b        	ldy	#$b
    2292: b1 10        	lda	($10),y                 ; 0x10 <__rc0>
    2294: 85 2e        	sta	$2e                     ; 0x2e <__rc30>
    2296: c8           	iny
    2297: b1 10        	lda	($10),y                 ; 0x10 <__rc0>
    2299: 85 2f        	sta	$2f                     ; 0x2f <__rc31>
    229b: a6 2e        	ldx	$2e                     ; 0x2e <__rc30>
    229d: 86 12        	stx	$12                     ; 0x12 <__rc2>
    229f: 85 13        	sta	$13                     ; 0x13 <__rc3>
    22a1: 20 65 52     	jsr	$5265 <printf>
    22a4: a2 1b        	ldx	#$1b
    22a6: 86 33        	stx	$33                     ; 0x33 <_col>
    22a8: 8e 14 d0     	stx	$d014                   ; 0xd014 <__heap_start+0x49bc>
    22ab: 9c 15 d0     	stz	$d015                   ; 0xd015 <__heap_start+0x49bd>
    22ae: a6 24        	ldx	$24                     ; 0x24 <__rc20>
    22b0: 86 34        	stx	$34                     ; 0x34 <_row>
    22b2: 8e 16 d0     	stx	$d016                   ; 0xd016 <__heap_start+0x49be>
    22b5: 9c 17 d0     	stz	$d017                   ; 0xd017 <__heap_start+0x49bf>
    22b8: a5 28        	lda	$28                     ; 0x28 <__rc24>
    22ba: 18           	clc
    22bb: 69 7f        	adc	#$7f
    22bd: a6 29        	ldx	$29                     ; 0x29 <__rc25>
    22bf: bc 1b 85     	ldy	$851b,x                 ; 0x851b <midi_instruments+0x2>
    22c2: 84 14        	sty	$14                     ; 0x14 <__rc4>
    22c4: 48           	pha
    22c5: bd 1c 85     	lda	$851c,x                 ; 0x851c <midi_instruments+0x3>
    22c8: aa           	tax
    22c9: 68           	pla
    22ca: 86 15        	stx	$15                     ; 0x15 <__rc5>
    22cc: a6 10        	ldx	$10                     ; 0x10 <__rc0>
    22ce: 92 10        	sta	($10)                   ; 0x10 <__rc0>
    22d0: a0 01        	ldy	#$1
    22d2: a9 00        	lda	#$0
    22d4: 91 10        	sta	($10),y                 ; 0x10 <__rc0>
    22d6: 18           	clc
    22d7: 8a           	txa
    22d8: 69 02        	adc	#$2
    22da: 85 12        	sta	$12                     ; 0x12 <__rc2>
    22dc: a5 11        	lda	$11                     ; 0x11 <__rc1>
    22de: 69 00        	adc	#$0
    22e0: 85 13        	sta	$13                     ; 0x13 <__rc3>
    22e2: c8           	iny
    22e3: a5 14        	lda	$14                     ; 0x14 <__rc4>
    22e5: 91 10        	sta	($10),y                 ; 0x10 <__rc0>
    22e7: a5 15        	lda	$15                     ; 0x15 <__rc5>
    22e9: 88           	dey
    22ea: 91 12        	sta	($12),y                 ; 0x12 <__rc2>
    22ec: a6 2e        	ldx	$2e                     ; 0x2e <__rc30>
    22ee: 86 12        	stx	$12                     ; 0x12 <__rc2>
    22f0: a6 2f        	ldx	$2f                     ; 0x2f <__rc31>
    22f2: 86 13        	stx	$13                     ; 0x13 <__rc3>
    22f4: 20 65 52     	jsr	$5265 <printf>
    22f7: a0 0d        	ldy	#$d
    22f9: b1 10        	lda	($10),y                 ; 0x10 <__rc0>
    22fb: f0 03        	beq	$2300 <f256main+0x19ec>
    22fd: 4c c7 21     	jmp	$21c7 <f256main+0x18b3>
    2300: a0 06        	ldy	#$6
    2302: b1 2c        	lda	($2c),y                 ; 0x2c <__rc28>
    2304: a2 2c        	ldx	#$2c
    2306: 48           	pha
    2307: b1 10        	lda	($10),y                 ; 0x10 <__rc0>
    2309: 85 28        	sta	$28                     ; 0x28 <__rc24>
    230b: c8           	iny
    230c: b1 10        	lda	($10),y                 ; 0x10 <__rc0>
    230e: 85 29        	sta	$29                     ; 0x29 <__rc25>
    2310: 68           	pla
    2311: a0 53        	ldy	#$53
    2313: 84 2e        	sty	$2e                     ; 0x2e <__rc30>
    2315: a0 86        	ldy	#$86
    2317: 84 2f        	sty	$2f                     ; 0x2f <__rc31>
    2319: c9 01        	cmp	#$1
    231b: f0 03        	beq	$2320 <f256main+0x1a0c>
    231d: 4c cf 23     	jmp	$23cf <f256main+0x1abb>
    2320: 64 2e        	stz	$2e                     ; 0x2e <__rc30>
    2322: 64 33        	stz	$33                     ; 0x33 <_col>
    2324: 9c 14 d0     	stz	$d014                   ; 0xd014 <__heap_start+0x49bc>
    2327: 9c 15 d0     	stz	$d015                   ; 0xd015 <__heap_start+0x49bd>
    232a: 64 34        	stz	$34                     ; 0x34 <_row>
    232c: 9c 16 d0     	stz	$d016                   ; 0xd016 <__heap_start+0x49be>
    232f: 9c 17 d0     	stz	$d017                   ; 0xd017 <__heap_start+0x49bf>
    2332: a0 e4        	ldy	#$e4
    2334: 84 12        	sty	$12                     ; 0x12 <__rc2>
    2336: a0 7f        	ldy	#$7f
    2338: 84 13        	sty	$13                     ; 0x13 <__rc3>
    233a: 86 2b        	stx	$2b                     ; 0x2b <__rc27>
    233c: 20 ae 2f     	jsr	$2fae <textPrint>
    233f: a2 50        	ldx	#$50
    2341: 86 30        	stx	$30                     ; 0x30 <_ccolor>
    2343: a2 00        	ldx	#$0
    2345: a0 6f        	ldy	#$6f
    2347: 84 12        	sty	$12                     ; 0x12 <__rc2>
    2349: a0 76        	ldy	#$76
    234b: 84 13        	sty	$13                     ; 0x13 <__rc3>
    234d: a5 12        	lda	$12                     ; 0x12 <__rc2>
    234f: a0 0b        	ldy	#$b
    2351: 91 10        	sta	($10),y                 ; 0x10 <__rc0>
    2353: a5 13        	lda	$13                     ; 0x13 <__rc3>
    2355: c8           	iny
    2356: 91 10        	sta	($10),y                 ; 0x10 <__rc0>
    2358: 86 12        	stx	$12                     ; 0x12 <__rc2>
    235a: 86 2f        	stx	$2f                     ; 0x2f <__rc31>
    235c: a5 2b        	lda	$2b                     ; 0x2b <__rc27>
    235e: 18           	clc
    235f: 65 12        	adc	$12                     ; 0x12 <__rc2>
    2361: a2 02        	ldx	#$2
    2363: 86 33        	stx	$33                     ; 0x33 <_col>
    2365: 8e 14 d0     	stx	$d014                   ; 0xd014 <__heap_start+0x49bc>
    2368: 9c 15 d0     	stz	$d015                   ; 0xd015 <__heap_start+0x49bd>
    236b: 85 34        	sta	$34                     ; 0x34 <_row>
    236d: 8d 16 d0     	sta	$d016                   ; 0xd016 <__heap_start+0x49be>
    2370: 9c 17 d0     	stz	$d017                   ; 0xd017 <__heap_start+0x49bf>
    2373: a6 2e        	ldx	$2e                     ; 0x2e <__rc30>
    2375: bc 19 86     	ldy	$8619,x                 ; 0x8619 <sid_instruments_names>
    2378: 84 14        	sty	$14                     ; 0x14 <__rc4>
    237a: bd 1a 86     	lda	$861a,x                 ; 0x861a <sid_instruments_names+0x1>
    237d: aa           	tax
    237e: 86 15        	stx	$15                     ; 0x15 <__rc5>
    2380: a5 10        	lda	$10                     ; 0x10 <__rc0>
    2382: a6 11        	ldx	$11                     ; 0x11 <__rc1>
    2384: 18           	clc
    2385: 69 02        	adc	#$2
    2387: 85 12        	sta	$12                     ; 0x12 <__rc2>
    2389: 8a           	txa
    238a: 69 00        	adc	#$0
    238c: 85 13        	sta	$13                     ; 0x13 <__rc3>
    238e: a5 2f        	lda	$2f                     ; 0x2f <__rc31>
    2390: 92 10        	sta	($10)                   ; 0x10 <__rc0>
    2392: a9 00        	lda	#$0
    2394: a0 01        	ldy	#$1
    2396: 91 10        	sta	($10),y                 ; 0x10 <__rc0>
    2398: c8           	iny
    2399: a5 14        	lda	$14                     ; 0x14 <__rc4>
    239b: 91 10        	sta	($10),y                 ; 0x10 <__rc0>
    239d: a5 15        	lda	$15                     ; 0x15 <__rc5>
    239f: 88           	dey
    23a0: 91 12        	sta	($12),y                 ; 0x12 <__rc2>
    23a2: a0 0b        	ldy	#$b
    23a4: b1 10        	lda	($10),y                 ; 0x10 <__rc0>
    23a6: 85 12        	sta	$12                     ; 0x12 <__rc2>
    23a8: c8           	iny
    23a9: b1 10        	lda	($10),y                 ; 0x10 <__rc0>
    23ab: 85 13        	sta	$13                     ; 0x13 <__rc3>
    23ad: 20 65 52     	jsr	$5265 <printf>
    23b0: a6 2f        	ldx	$2f                     ; 0x2f <__rc31>
    23b2: e8           	inx
    23b3: 18           	clc
    23b4: a5 2e        	lda	$2e                     ; 0x2e <__rc30>
    23b6: 69 02        	adc	#$2
    23b8: 85 2e        	sta	$2e                     ; 0x2e <__rc30>
    23ba: c9 0a        	cmp	#$a
    23bc: f0 03        	beq	$23c1 <f256main+0x1aad>
    23be: 4c 58 23     	jmp	$2358 <f256main+0x1a44>
    23c1: a0 06        	ldy	#$6
    23c3: b1 2c        	lda	($2c),y                 ; 0x2c <__rc28>
    23c5: a6 2b        	ldx	$2b                     ; 0x2b <__rc27>
    23c7: a0 53        	ldy	#$53
    23c9: 84 2e        	sty	$2e                     ; 0x2e <__rc30>
    23cb: a0 86        	ldy	#$86
    23cd: 84 2f        	sty	$2f                     ; 0x2f <__rc31>
    23cf: c9 03        	cmp	#$3
    23d1: f0 03        	beq	$23d6 <f256main+0x1ac2>
    23d3: 4c 36 24     	jmp	$2436 <f256main+0x1b22>
    23d6: 64 33        	stz	$33                     ; 0x33 <_col>
    23d8: 9c 14 d0     	stz	$d014                   ; 0xd014 <__heap_start+0x49bc>
    23db: 9c 15 d0     	stz	$d015                   ; 0xd015 <__heap_start+0x49bd>
    23de: 64 34        	stz	$34                     ; 0x34 <_row>
    23e0: 9c 16 d0     	stz	$d016                   ; 0xd016 <__heap_start+0x49be>
    23e3: 9c 17 d0     	stz	$d017                   ; 0xd017 <__heap_start+0x49bf>
    23e6: a0 4b        	ldy	#$4b
    23e8: 84 12        	sty	$12                     ; 0x12 <__rc2>
    23ea: a0 77        	ldy	#$77
    23ec: 84 13        	sty	$13                     ; 0x13 <__rc3>
    23ee: 86 24        	stx	$24                     ; 0x24 <__rc20>
    23f0: 20 ae 2f     	jsr	$2fae <textPrint>
    23f3: a2 50        	ldx	#$50
    23f5: 86 30        	stx	$30                     ; 0x30 <_ccolor>
    23f7: a2 02        	ldx	#$2
    23f9: 86 33        	stx	$33                     ; 0x33 <_col>
    23fb: 8e 14 d0     	stx	$d014                   ; 0xd014 <__heap_start+0x49bc>
    23fe: 9c 15 d0     	stz	$d015                   ; 0xd015 <__heap_start+0x49bd>
    2401: a6 24        	ldx	$24                     ; 0x24 <__rc20>
    2403: 86 34        	stx	$34                     ; 0x34 <_row>
    2405: 8e 16 d0     	stx	$d016                   ; 0xd016 <__heap_start+0x49be>
    2408: 9c 17 d0     	stz	$d017                   ; 0xd017 <__heap_start+0x49bf>
    240b: a5 10        	lda	$10                     ; 0x10 <__rc0>
    240d: a6 11        	ldx	$11                     ; 0x11 <__rc1>
    240f: 18           	clc
    2410: 69 02        	adc	#$2
    2412: 85 12        	sta	$12                     ; 0x12 <__rc2>
    2414: 8a           	txa
    2415: 69 00        	adc	#$0
    2417: 85 13        	sta	$13                     ; 0x13 <__rc3>
    2419: a9 00        	lda	#$0
    241b: 92 10        	sta	($10)                   ; 0x10 <__rc0>
    241d: a0 01        	ldy	#$1
    241f: 91 10        	sta	($10),y                 ; 0x10 <__rc0>
    2421: a9 6c        	lda	#$6c
    2423: c8           	iny
    2424: 91 10        	sta	($10),y                 ; 0x10 <__rc0>
    2426: a9 80        	lda	#$80
    2428: 88           	dey
    2429: 91 12        	sta	($12),y                 ; 0x12 <__rc2>
    242b: a2 6f        	ldx	#$6f
    242d: 86 12        	stx	$12                     ; 0x12 <__rc2>
    242f: a2 76        	ldx	#$76
    2431: 86 13        	stx	$13                     ; 0x13 <__rc3>
    2433: 20 65 52     	jsr	$5265 <printf>
    2436: a6 2c        	ldx	$2c                     ; 0x2c <__rc28>
    2438: 86 12        	stx	$12                     ; 0x12 <__rc2>
    243a: a6 2d        	ldx	$2d                     ; 0x2d <__rc29>
    243c: 86 13        	stx	$13                     ; 0x13 <__rc3>
    243e: a9 01        	lda	#$1
    2440: 20 d2 4d     	jsr	$4dd2 <highLightInstChoice>
    2443: 4c 7c 2a     	jmp	$2a7c <f256main+0x2168>
    2446: a5 62        	lda	$62                     ; 0x62 <needsToWaitExpiration>
    2448: 29 01        	and	#$1
    244a: f0 03        	beq	$244f <f256main+0x1b3b>
    244c: 4c 7c 2a     	jmp	$2a7c <f256main+0x2168>
    244f: 84 15        	sty	$15                     ; 0x15 <__rc5>
    2451: 86 14        	stx	$14                     ; 0x14 <__rc4>
    2453: 18           	clc
    2454: a5 16        	lda	$16                     ; 0x16 <__rc6>
    2456: 65 14        	adc	$14                     ; 0x14 <__rc4>
    2458: 85 14        	sta	$14                     ; 0x14 <__rc4>
    245a: a5 17        	lda	$17                     ; 0x17 <__rc7>
    245c: 65 15        	adc	$15                     ; 0x15 <__rc5>
    245e: 85 15        	sta	$15                     ; 0x15 <__rc5>
    2460: b2 14        	lda	($14)                   ; 0x14 <__rc4>
    2462: f0 03        	beq	$2467 <f256main+0x1b53>
    2464: 4c c5 24     	jmp	$24c5 <f256main+0x1bb1>
    2467: a6 61        	ldx	$61                     ; 0x61 <instSelectMode>
    2469: f0 03        	beq	$246e <f256main+0x1b5a>
    246b: 4c 7c 2a     	jmp	$2a7c <f256main+0x2168>
    246e: a5 64        	lda	$64                     ; 0x64 <shiftHit>
    2470: 29 01        	and	#$1
    2472: d0 03        	bne	$2477 <f256main+0x1b63>
    2474: 4c 63 2e     	jmp	$2e63 <f256main+0x254f>
    2477: a2 09        	ldx	#$9
    2479: 64 15        	stz	$15                     ; 0x15 <__rc5>
    247b: 86 14        	stx	$14                     ; 0x14 <__rc4>
    247d: 4c 67 2e     	jmp	$2e67 <f256main+0x2553>
    2480: a2 66        	ldx	#$66
    2482: 86 14        	stx	$14                     ; 0x14 <__rc4>
    2484: a2 00        	ldx	#$0
    2486: 86 15        	stx	$15                     ; 0x15 <__rc5>
    2488: a9 00        	lda	#$0
    248a: 92 14        	sta	($14)                   ; 0x14 <__rc4>
    248c: 20 7c 4a     	jsr	$4a7c <showMIDIChoiceText>
    248f: 4c 7c 2a     	jmp	$2a7c <f256main+0x2168>
    2492: a5 62        	lda	$62                     ; 0x62 <needsToWaitExpiration>
    2494: 29 01        	and	#$1
    2496: f0 03        	beq	$249b <f256main+0x1b87>
    2498: 4c 7c 2a     	jmp	$2a7c <f256main+0x2168>
    249b: 84 15        	sty	$15                     ; 0x15 <__rc5>
    249d: 86 14        	stx	$14                     ; 0x14 <__rc4>
    249f: 18           	clc
    24a0: a5 16        	lda	$16                     ; 0x16 <__rc6>
    24a2: 65 14        	adc	$14                     ; 0x14 <__rc4>
    24a4: 85 14        	sta	$14                     ; 0x14 <__rc4>
    24a6: a5 17        	lda	$17                     ; 0x17 <__rc7>
    24a8: 65 15        	adc	$15                     ; 0x15 <__rc5>
    24aa: 85 15        	sta	$15                     ; 0x15 <__rc5>
    24ac: b2 14        	lda	($14)                   ; 0x14 <__rc4>
    24ae: f0 15        	beq	$24c5 <f256main+0x1bb1>
    24b0: a6 61        	ldx	$61                     ; 0x61 <instSelectMode>
    24b2: f0 03        	beq	$24b7 <f256main+0x1ba3>
    24b4: 4c 7c 2a     	jmp	$2a7c <f256main+0x2168>
    24b7: a5 64        	lda	$64                     ; 0x64 <shiftHit>
    24b9: 29 01        	and	#$1
    24bb: d0 03        	bne	$24c0 <f256main+0x1bac>
    24bd: 4c 03 2d     	jmp	$2d03 <f256main+0x23ef>
    24c0: a2 09        	ldx	#$9
    24c2: 4c 05 2d     	jmp	$2d05 <f256main+0x23f1>
    24c5: a2 01        	ldx	#$1
    24c7: 86 62        	stx	$62                     ; 0x62 <needsToWaitExpiration>
    24c9: 4c 7c 2a     	jmp	$2a7c <f256main+0x2168>
    24cc: a0 12        	ldy	#$12
    24ce: b1 10        	lda	($10),y                 ; 0x10 <__rc0>
    24d0: 85 25        	sta	$25                     ; 0x25 <__rc21>
    24d2: a5 64        	lda	$64                     ; 0x64 <shiftHit>
    24d4: 29 01        	and	#$1
    24d6: d0 03        	bne	$24db <f256main+0x1bc7>
    24d8: 4c 45 26     	jmp	$2645 <f256main+0x1d31>
    24db: a2 0b        	ldx	#$b
    24dd: 48           	pha
    24de: 8a           	txa
    24df: 4c 4a 26     	jmp	$264a <f256main+0x1d36>
    24e2: a5 64        	lda	$64                     ; 0x64 <shiftHit>
    24e4: 29 01        	and	#$1
    24e6: a2 4c        	ldx	#$4c
    24e8: 64 12        	stz	$12                     ; 0x12 <__rc2>
    24ea: a8           	tay
    24eb: d0 03        	bne	$24f0 <f256main+0x1bdc>
    24ed: 4c b1 26     	jmp	$26b1 <f256main+0x1d9d>
    24f0: 85 16        	sta	$16                     ; 0x16 <__rc6>
    24f2: 4c b5 26     	jmp	$26b5 <f256main+0x1da1>
    24f5: a0 01        	ldy	#$1
    24f7: aa           	tax
    24f8: f0 03        	beq	$24fd <f256main+0x1be9>
    24fa: 4c db 2b     	jmp	$2bdb <f256main+0x22c7>
    24fd: a6 12        	ldx	$12                     ; 0x12 <__rc2>
    24ff: 86 14        	stx	$14                     ; 0x14 <__rc4>
    2501: a6 13        	ldx	$13                     ; 0x13 <__rc3>
    2503: 86 15        	stx	$15                     ; 0x15 <__rc5>
    2505: e6 14        	inc	$14                     ; 0x14 <__rc4>
    2507: d0 02        	bne	$250b <f256main+0x1bf7>
    2509: e6 15        	inc	$15                     ; 0x15 <__rc5>
    250b: a5 64        	lda	$64                     ; 0x64 <shiftHit>
    250d: 29 01        	and	#$1
    250f: d0 03        	bne	$2514 <f256main+0x1c00>
    2511: 4c 9a 2a     	jmp	$2a9a <f256main+0x2186>
    2514: a2 09        	ldx	#$9
    2516: 64 17        	stz	$17                     ; 0x17 <__rc7>
    2518: 86 16        	stx	$16                     ; 0x16 <__rc6>
    251a: 4c 9e 2a     	jmp	$2a9e <f256main+0x218a>
    251d: aa           	tax
    251e: f0 03        	beq	$2523 <f256main+0x1c0f>
    2520: 4c e5 2c     	jmp	$2ce5 <f256main+0x23d1>
    2523: a6 12        	ldx	$12                     ; 0x12 <__rc2>
    2525: 86 14        	stx	$14                     ; 0x14 <__rc4>
    2527: a6 13        	ldx	$13                     ; 0x13 <__rc3>
    2529: 86 15        	stx	$15                     ; 0x15 <__rc5>
    252b: e6 14        	inc	$14                     ; 0x14 <__rc4>
    252d: d0 02        	bne	$2531 <f256main+0x1c1d>
    252f: e6 15        	inc	$15                     ; 0x15 <__rc5>
    2531: a5 64        	lda	$64                     ; 0x64 <shiftHit>
    2533: 29 01        	and	#$1
    2535: d0 03        	bne	$253a <f256main+0x1c26>
    2537: 4c 0f 2b     	jmp	$2b0f <f256main+0x21fb>
    253a: a2 09        	ldx	#$9
    253c: 8a           	txa
    253d: 4c 13 2b     	jmp	$2b13 <f256main+0x21ff>
    2540: 64 18        	stz	$18                     ; 0x18 <__rc8>
    2542: b2 2c        	lda	($2c)                   ; 0x2c <__rc28>
    2544: a2 a1        	ldx	#$a1
    2546: 86 12        	stx	$12                     ; 0x12 <__rc2>
    2548: a2 dd        	ldx	#$dd
    254a: 86 13        	stx	$13                     ; 0x13 <__rc3>
    254c: a2 b1        	ldx	#$b1
    254e: 86 14        	stx	$14                     ; 0x14 <__rc4>
    2550: a2 dd        	ldx	#$dd
    2552: 86 15        	stx	$15                     ; 0x15 <__rc5>
    2554: 48           	pha
    2555: 5a           	phy
    2556: a5 14        	lda	$14                     ; 0x14 <__rc4>
    2558: a0 0d        	ldy	#$d
    255a: 91 10        	sta	($10),y                 ; 0x10 <__rc0>
    255c: a5 15        	lda	$15                     ; 0x15 <__rc5>
    255e: c8           	iny
    255f: 91 10        	sta	($10),y                 ; 0x10 <__rc0>
    2561: 7a           	ply
    2562: 68           	pla
    2563: f0 0d        	beq	$2572 <f256main+0x1c5e>
    2565: 5a           	phy
    2566: a0 0d        	ldy	#$d
    2568: b1 10        	lda	($10),y                 ; 0x10 <__rc0>
    256a: 85 12        	sta	$12                     ; 0x12 <__rc2>
    256c: c8           	iny
    256d: b1 10        	lda	($10),y                 ; 0x10 <__rc0>
    256f: 7a           	ply
    2570: 85 13        	sta	$13                     ; 0x13 <__rc3>
    2572: 98           	tya
    2573: 09 c0        	ora	#$c0
    2575: 92 12        	sta	($12)                   ; 0x12 <__rc2>
    2577: a5 18        	lda	$18                     ; 0x18 <__rc8>
    2579: 92 12        	sta	($12)                   ; 0x12 <__rc2>
    257b: a6 6a        	ldx	$6a                     ; 0x6a <gPtr>
    257d: a4 6b        	ldy	$6b                     ; 0x6b <gPtr+0x1>
    257f: 86 12        	stx	$12                     ; 0x12 <__rc2>
    2581: 84 13        	sty	$13                     ; 0x13 <__rc3>
    2583: 86 14        	stx	$14                     ; 0x14 <__rc4>
    2585: 84 15        	sty	$15                     ; 0x15 <__rc5>
    2587: e6 14        	inc	$14                     ; 0x14 <__rc4>
    2589: d0 02        	bne	$258d <f256main+0x1c79>
    258b: e6 15        	inc	$15                     ; 0x15 <__rc5>
    258d: a0 01        	ldy	#$1
    258f: b1 12        	lda	($12),y                 ; 0x12 <__rc2>
    2591: aa           	tax
    2592: b1 14        	lda	($14),y                 ; 0x14 <__rc4>
    2594: 86 14        	stx	$14                     ; 0x14 <__rc4>
    2596: 85 15        	sta	$15                     ; 0x15 <__rc5>
    2598: a0 05        	ldy	#$5
    259a: b1 12        	lda	($12),y                 ; 0x12 <__rc2>
    259c: aa           	tax
    259d: a8           	tay
    259e: b1 14        	lda	($14),y                 ; 0x14 <__rc4>
    25a0: 85 16        	sta	$16                     ; 0x16 <__rc6>
    25a2: b2 12        	lda	($12)                   ; 0x12 <__rc2>
    25a4: 48           	pha
    25a5: a0 0d        	ldy	#$d
    25a7: b1 10        	lda	($10),y                 ; 0x10 <__rc0>
    25a9: 85 12        	sta	$12                     ; 0x12 <__rc2>
    25ab: c8           	iny
    25ac: b1 10        	lda	($10),y                 ; 0x10 <__rc0>
    25ae: 85 13        	sta	$13                     ; 0x13 <__rc3>
    25b0: 68           	pla
    25b1: f0 08        	beq	$25bb <f256main+0x1ca7>
    25b3: a0 a1        	ldy	#$a1
    25b5: 84 12        	sty	$12                     ; 0x12 <__rc2>
    25b7: a0 dd        	ldy	#$dd
    25b9: 84 13        	sty	$13                     ; 0x13 <__rc3>
    25bb: 8a           	txa
    25bc: 09 c0        	ora	#$c0
    25be: 92 12        	sta	($12)                   ; 0x12 <__rc2>
    25c0: a5 16        	lda	$16                     ; 0x16 <__rc6>
    25c2: 92 12        	sta	($12)                   ; 0x12 <__rc2>
    25c4: 4c 7c 2a     	jmp	$2a7c <f256main+0x2168>
    25c7: 86 2b        	stx	$2b                     ; 0x2b <__rc27>
    25c9: a9 00        	lda	#$0
    25cb: 91 12        	sta	($12),y                 ; 0x12 <__rc2>
    25cd: a9 00        	lda	#$0
    25cf: a0 05        	ldy	#$5
    25d1: 91 12        	sta	($12),y                 ; 0x12 <__rc2>
    25d3: a2 90        	ldx	#$90
    25d5: 86 30        	stx	$30                     ; 0x30 <_ccolor>
    25d7: 64 33        	stz	$33                     ; 0x33 <_col>
    25d9: 9c 14 d0     	stz	$d014                   ; 0xd014 <__heap_start+0x49bc>
    25dc: 9c 15 d0     	stz	$d015                   ; 0xd015 <__heap_start+0x49bd>
    25df: a2 1e        	ldx	#$1e
    25e1: 86 34        	stx	$34                     ; 0x34 <_row>
    25e3: 8e 16 d0     	stx	$d016                   ; 0xd016 <__heap_start+0x49be>
    25e6: 9c 17 d0     	stz	$d017                   ; 0xd017 <__heap_start+0x49bf>
    25e9: a2 fa        	ldx	#$fa
    25eb: 86 35        	stx	$35                     ; 0x35 <__putchar.s>
    25ed: a2 35        	ldx	#$35
    25ef: 86 12        	stx	$12                     ; 0x12 <__rc2>
    25f1: a2 00        	ldx	#$0
    25f3: 86 13        	stx	$13                     ; 0x13 <__rc3>
    25f5: 20 ae 2f     	jsr	$2fae <textPrint>
    25f8: 64 33        	stz	$33                     ; 0x33 <_col>
    25fa: 9c 14 d0     	stz	$d014                   ; 0xd014 <__heap_start+0x49bc>
    25fd: 9c 15 d0     	stz	$d015                   ; 0xd015 <__heap_start+0x49bd>
    2600: a2 1f        	ldx	#$1f
    2602: 86 34        	stx	$34                     ; 0x34 <_row>
    2604: 8e 16 d0     	stx	$d016                   ; 0xd016 <__heap_start+0x49be>
    2607: 9c 17 d0     	stz	$d017                   ; 0xd017 <__heap_start+0x49bf>
    260a: a2 cf        	ldx	#$cf
    260c: 86 12        	stx	$12                     ; 0x12 <__rc2>
    260e: a2 76        	ldx	#$76
    2610: 86 13        	stx	$13                     ; 0x13 <__rc3>
    2612: a5 2b        	lda	$2b                     ; 0x2b <__rc27>
    2614: f0 0c        	beq	$2622 <f256main+0x1d0e>
    2616: a2 fa        	ldx	#$fa
    2618: 86 35        	stx	$35                     ; 0x35 <__putchar.s>
    261a: a2 35        	ldx	#$35
    261c: 86 12        	stx	$12                     ; 0x12 <__rc2>
    261e: a2 00        	ldx	#$0
    2620: 86 13        	stx	$13                     ; 0x13 <__rc3>
    2622: 20 ae 2f     	jsr	$2fae <textPrint>
    2625: 64 33        	stz	$33                     ; 0x33 <_col>
    2627: 9c 14 d0     	stz	$d014                   ; 0xd014 <__heap_start+0x49bc>
    262a: 9c 15 d0     	stz	$d015                   ; 0xd015 <__heap_start+0x49bd>
    262d: a2 20        	ldx	#$20
    262f: 86 34        	stx	$34                     ; 0x34 <_row>
    2631: 8e 16 d0     	stx	$d016                   ; 0xd016 <__heap_start+0x49be>
    2634: 9c 17 d0     	stz	$d017                   ; 0xd017 <__heap_start+0x49bf>
    2637: a2 cf        	ldx	#$cf
    2639: 86 12        	stx	$12                     ; 0x12 <__rc2>
    263b: a2 76        	ldx	#$76
    263d: 86 13        	stx	$13                     ; 0x13 <__rc3>
    263f: 20 ae 2f     	jsr	$2fae <textPrint>
    2642: 4c 15 27     	jmp	$2715 <f256main+0x1e01>
    2645: 64 12        	stz	$12                     ; 0x12 <__rc2>
    2647: 48           	pha
    2648: a9 00        	lda	#$0
    264a: a0 0d        	ldy	#$d
    264c: 91 10        	sta	($10),y                 ; 0x10 <__rc0>
    264e: 68           	pla
    264f: 64 13        	stz	$13                     ; 0x13 <__rc3>
    2651: a4 31        	ldy	$31                     ; 0x31 <note>
    2653: a6 32        	ldx	$32                     ; 0x32 <note+0x1>
    2655: 86 12        	stx	$12                     ; 0x12 <__rc2>
    2657: a2 00        	ldx	#$0
    2659: e4 12        	cpx	$12                     ; 0x12 <__rc2>
    265b: d0 12        	bne	$266f <f256main+0x1d5b>
    265d: 84 16        	sty	$16                     ; 0x16 <__rc6>
    265f: 84 13        	sty	$13                     ; 0x13 <__rc3>
    2661: 48           	pha
    2662: a0 0d        	ldy	#$d
    2664: b1 10        	lda	($10),y                 ; 0x10 <__rc0>
    2666: aa           	tax
    2667: 68           	pla
    2668: e4 13        	cpx	$13                     ; 0x13 <__rc3>
    266a: 90 0c        	bcc	$2678 <f256main+0x1d64>
    266c: 4c bd 29     	jmp	$29bd <f256main+0x20a9>
    266f: 84 16        	sty	$16                     ; 0x16 <__rc6>
    2671: e4 12        	cpx	$12                     ; 0x12 <__rc2>
    2673: 90 03        	bcc	$2678 <f256main+0x1d64>
    2675: 4c bd 29     	jmp	$29bd <f256main+0x20a9>
    2678: 85 13        	sta	$13                     ; 0x13 <__rc3>
    267a: a6 6a        	ldx	$6a                     ; 0x6a <gPtr>
    267c: a4 6b        	ldy	$6b                     ; 0x6b <gPtr+0x1>
    267e: 86 14        	stx	$14                     ; 0x14 <__rc4>
    2680: 84 15        	sty	$15                     ; 0x15 <__rc5>
    2682: a0 06        	ldy	#$6
    2684: b1 14        	lda	($14),y                 ; 0x14 <__rc4>
    2686: d0 03        	bne	$268b <f256main+0x1d77>
    2688: 4c 92 29     	jmp	$2992 <f256main+0x207e>
    268b: 85 15        	sta	$15                     ; 0x15 <__rc5>
    268d: 18           	clc
    268e: a5 16        	lda	$16                     ; 0x16 <__rc6>
    2690: 69 15        	adc	#$15
    2692: 85 12        	sta	$12                     ; 0x12 <__rc2>
    2694: 64 13        	stz	$13                     ; 0x13 <__rc3>
    2696: 64 14        	stz	$14                     ; 0x14 <__rc4>
    2698: 64 16        	stz	$16                     ; 0x16 <__rc6>
    269a: 64 17        	stz	$17                     ; 0x17 <__rc7>
    269c: a2 00        	ldx	#$0
    269e: 8a           	txa
    269f: 20 66 31     	jsr	$3166 <dispatchNote>
    26a2: a6 31        	ldx	$31                     ; 0x31 <note>
    26a4: 86 16        	stx	$16                     ; 0x16 <__rc6>
    26a6: a6 32        	ldx	$32                     ; 0x32 <note+0x1>
    26a8: 86 14        	stx	$14                     ; 0x14 <__rc4>
    26aa: a5 64        	lda	$64                     ; 0x64 <shiftHit>
    26ac: 29 01        	and	#$1
    26ae: 4c 98 29     	jmp	$2998 <f256main+0x2084>
    26b1: 85 16        	sta	$16                     ; 0x16 <__rc6>
    26b3: a2 57        	ldx	#$57
    26b5: 86 13        	stx	$13                     ; 0x13 <__rc3>
    26b7: a6 31        	ldx	$31                     ; 0x31 <note>
    26b9: a5 32        	lda	$32                     ; 0x32 <note+0x1>
    26bb: c5 12        	cmp	$12                     ; 0x12 <__rc2>
    26bd: d0 0b        	bne	$26ca <f256main+0x1db6>
    26bf: 85 15        	sta	$15                     ; 0x15 <__rc5>
    26c1: 86 14        	stx	$14                     ; 0x14 <__rc4>
    26c3: e4 13        	cpx	$13                     ; 0x13 <__rc3>
    26c5: 90 0e        	bcc	$26d5 <f256main+0x1dc1>
    26c7: 4c fa 29     	jmp	$29fa <f256main+0x20e6>
    26ca: 86 14        	stx	$14                     ; 0x14 <__rc4>
    26cc: 85 15        	sta	$15                     ; 0x15 <__rc5>
    26ce: c5 12        	cmp	$12                     ; 0x12 <__rc2>
    26d0: 90 03        	bcc	$26d5 <f256main+0x1dc1>
    26d2: 4c fa 29     	jmp	$29fa <f256main+0x20e6>
    26d5: a0 12        	ldy	#$12
    26d7: b1 10        	lda	($10),y                 ; 0x10 <__rc0>
    26d9: a6 6a        	ldx	$6a                     ; 0x6a <gPtr>
    26db: a4 6b        	ldy	$6b                     ; 0x6b <gPtr+0x1>
    26dd: 86 12        	stx	$12                     ; 0x12 <__rc2>
    26df: 84 13        	sty	$13                     ; 0x13 <__rc3>
    26e1: a0 06        	ldy	#$6
    26e3: b1 12        	lda	($12),y                 ; 0x12 <__rc2>
    26e5: aa           	tax
    26e6: d0 03        	bne	$26eb <f256main+0x1dd7>
    26e8: 4c d7 29     	jmp	$29d7 <f256main+0x20c3>
    26eb: 18           	clc
    26ec: a5 14        	lda	$14                     ; 0x14 <__rc4>
    26ee: 69 15        	adc	#$15
    26f0: 85 12        	sta	$12                     ; 0x12 <__rc2>
    26f2: 64 13        	stz	$13                     ; 0x13 <__rc3>
    26f4: 64 14        	stz	$14                     ; 0x14 <__rc4>
    26f6: 86 15        	stx	$15                     ; 0x15 <__rc5>
    26f8: 64 16        	stz	$16                     ; 0x16 <__rc6>
    26fa: 64 17        	stz	$17                     ; 0x17 <__rc7>
    26fc: a2 00        	ldx	#$0
    26fe: 8a           	txa
    26ff: 20 66 31     	jsr	$3166 <dispatchNote>
    2702: a6 31        	ldx	$31                     ; 0x31 <note>
    2704: 86 14        	stx	$14                     ; 0x14 <__rc4>
    2706: a6 32        	ldx	$32                     ; 0x32 <note+0x1>
    2708: 86 15        	stx	$15                     ; 0x15 <__rc5>
    270a: a5 64        	lda	$64                     ; 0x64 <shiftHit>
    270c: 29 01        	and	#$1
    270e: 4c d9 29     	jmp	$29d9 <f256main+0x20c5>
    2711: a9 09        	lda	#$9
    2713: 91 12        	sta	($12),y                 ; 0x12 <__rc2>
    2715: 20 ec 47     	jsr	$47ec <channelTextMenu>
    2718: a2 b0        	ldx	#$b0
    271a: 8e b1 dd     	stx	$ddb1                   ; 0xddb1 <__heap_start+0x5759>
    271d: a0 7b        	ldy	#$7b
    271f: 8c b1 dd     	sty	$ddb1                   ; 0xddb1 <__heap_start+0x5759>
    2722: 9c b1 dd     	stz	$ddb1                   ; 0xddb1 <__heap_start+0x5759>
    2725: 8e a1 dd     	stx	$dda1                   ; 0xdda1 <__heap_start+0x5749>
    2728: 8c a1 dd     	sty	$dda1                   ; 0xdda1 <__heap_start+0x5749>
    272b: 9c a1 dd     	stz	$dda1                   ; 0xdda1 <__heap_start+0x5749>
    272e: e8           	inx
    272f: 8e b1 dd     	stx	$ddb1                   ; 0xddb1 <__heap_start+0x5759>
    2732: 8c b1 dd     	sty	$ddb1                   ; 0xddb1 <__heap_start+0x5759>
    2735: 9c b1 dd     	stz	$ddb1                   ; 0xddb1 <__heap_start+0x5759>
    2738: 8e a1 dd     	stx	$dda1                   ; 0xdda1 <__heap_start+0x5749>
    273b: 8c a1 dd     	sty	$dda1                   ; 0xdda1 <__heap_start+0x5749>
    273e: 9c a1 dd     	stz	$dda1                   ; 0xdda1 <__heap_start+0x5749>
    2741: a2 b9        	ldx	#$b9
    2743: 8e b1 dd     	stx	$ddb1                   ; 0xddb1 <__heap_start+0x5759>
    2746: 8c b1 dd     	sty	$ddb1                   ; 0xddb1 <__heap_start+0x5759>
    2749: 9c b1 dd     	stz	$ddb1                   ; 0xddb1 <__heap_start+0x5759>
    274c: 8e a1 dd     	stx	$dda1                   ; 0xdda1 <__heap_start+0x5749>
    274f: 8c a1 dd     	sty	$dda1                   ; 0xdda1 <__heap_start+0x5749>
    2752: 9c a1 dd     	stz	$dda1                   ; 0xdda1 <__heap_start+0x5749>
    2755: 4c 7c 2a     	jmp	$2a7c <f256main+0x2168>
    2758: c0 00        	cpy	#$0
    275a: 90 03        	bcc	$275f <f256main+0x1e4b>
    275c: 4c 7c 2a     	jmp	$2a7c <f256main+0x2168>
    275f: a5 17        	lda	$17                     ; 0x17 <__rc7>
    2761: 20 a3 4f     	jsr	$4fa3 <modalMoveUp>
    2764: a6 6a        	ldx	$6a                     ; 0x6a <gPtr>
    2766: a4 6b        	ldy	$6b                     ; 0x6b <gPtr+0x1>
    2768: 86 12        	stx	$12                     ; 0x12 <__rc2>
    276a: 84 13        	sty	$13                     ; 0x13 <__rc3>
    276c: 86 14        	stx	$14                     ; 0x14 <__rc4>
    276e: 84 15        	sty	$15                     ; 0x15 <__rc5>
    2770: e6 14        	inc	$14                     ; 0x14 <__rc4>
    2772: d0 02        	bne	$2776 <f256main+0x1e62>
    2774: e6 15        	inc	$15                     ; 0x15 <__rc5>
    2776: a0 01        	ldy	#$1
    2778: b1 12        	lda	($12),y                 ; 0x12 <__rc2>
    277a: aa           	tax
    277b: b1 14        	lda	($14),y                 ; 0x14 <__rc4>
    277d: 86 14        	stx	$14                     ; 0x14 <__rc4>
    277f: 85 15        	sta	$15                     ; 0x15 <__rc5>
    2781: a0 05        	ldy	#$5
    2783: b1 12        	lda	($12),y                 ; 0x12 <__rc2>
    2785: aa           	tax
    2786: a8           	tay
    2787: b1 14        	lda	($14),y                 ; 0x14 <__rc4>
    2789: 85 18        	sta	$18                     ; 0x18 <__rc8>
    278b: b2 12        	lda	($12)                   ; 0x12 <__rc2>
    278d: a0 a1        	ldy	#$a1
    278f: 84 12        	sty	$12                     ; 0x12 <__rc2>
    2791: a0 dd        	ldy	#$dd
    2793: 84 13        	sty	$13                     ; 0x13 <__rc3>
    2795: a0 b1        	ldy	#$b1
    2797: 84 14        	sty	$14                     ; 0x14 <__rc4>
    2799: a0 dd        	ldy	#$dd
    279b: 84 15        	sty	$15                     ; 0x15 <__rc5>
    279d: 48           	pha
    279e: a5 14        	lda	$14                     ; 0x14 <__rc4>
    27a0: a0 0d        	ldy	#$d
    27a2: 91 10        	sta	($10),y                 ; 0x10 <__rc0>
    27a4: a5 15        	lda	$15                     ; 0x15 <__rc5>
    27a6: c8           	iny
    27a7: 91 10        	sta	($10),y                 ; 0x10 <__rc0>
    27a9: 68           	pla
    27aa: f0 0b        	beq	$27b7 <f256main+0x1ea3>
    27ac: a0 0d        	ldy	#$d
    27ae: b1 10        	lda	($10),y                 ; 0x10 <__rc0>
    27b0: 85 12        	sta	$12                     ; 0x12 <__rc2>
    27b2: c8           	iny
    27b3: b1 10        	lda	($10),y                 ; 0x10 <__rc0>
    27b5: 85 13        	sta	$13                     ; 0x13 <__rc3>
    27b7: 8a           	txa
    27b8: 09 c0        	ora	#$c0
    27ba: 92 12        	sta	($12)                   ; 0x12 <__rc2>
    27bc: a5 18        	lda	$18                     ; 0x18 <__rc8>
    27be: 92 12        	sta	($12)                   ; 0x12 <__rc2>
    27c0: a6 6a        	ldx	$6a                     ; 0x6a <gPtr>
    27c2: a4 6b        	ldy	$6b                     ; 0x6b <gPtr+0x1>
    27c4: 86 12        	stx	$12                     ; 0x12 <__rc2>
    27c6: 84 13        	sty	$13                     ; 0x13 <__rc3>
    27c8: 86 14        	stx	$14                     ; 0x14 <__rc4>
    27ca: 84 15        	sty	$15                     ; 0x15 <__rc5>
    27cc: e6 14        	inc	$14                     ; 0x14 <__rc4>
    27ce: d0 02        	bne	$27d2 <f256main+0x1ebe>
    27d0: e6 15        	inc	$15                     ; 0x15 <__rc5>
    27d2: a0 01        	ldy	#$1
    27d4: b1 12        	lda	($12),y                 ; 0x12 <__rc2>
    27d6: aa           	tax
    27d7: b1 14        	lda	($14),y                 ; 0x14 <__rc4>
    27d9: 86 14        	stx	$14                     ; 0x14 <__rc4>
    27db: 85 15        	sta	$15                     ; 0x15 <__rc5>
    27dd: a0 05        	ldy	#$5
    27df: b1 12        	lda	($12),y                 ; 0x12 <__rc2>
    27e1: aa           	tax
    27e2: a8           	tay
    27e3: b1 14        	lda	($14),y                 ; 0x14 <__rc4>
    27e5: 85 16        	sta	$16                     ; 0x16 <__rc6>
    27e7: b2 12        	lda	($12)                   ; 0x12 <__rc2>
    27e9: 48           	pha
    27ea: a0 0d        	ldy	#$d
    27ec: b1 10        	lda	($10),y                 ; 0x10 <__rc0>
    27ee: 85 12        	sta	$12                     ; 0x12 <__rc2>
    27f0: c8           	iny
    27f1: b1 10        	lda	($10),y                 ; 0x10 <__rc0>
    27f3: 85 13        	sta	$13                     ; 0x13 <__rc3>
    27f5: 68           	pla
    27f6: f0 08        	beq	$2800 <f256main+0x1eec>
    27f8: a0 a1        	ldy	#$a1
    27fa: 84 12        	sty	$12                     ; 0x12 <__rc2>
    27fc: a0 dd        	ldy	#$dd
    27fe: 84 13        	sty	$13                     ; 0x13 <__rc3>
    2800: 8a           	txa
    2801: 09 c0        	ora	#$c0
    2803: 92 12        	sta	($12)                   ; 0x12 <__rc2>
    2805: a5 16        	lda	$16                     ; 0x16 <__rc6>
    2807: 92 12        	sta	($12)                   ; 0x12 <__rc2>
    2809: a6 6a        	ldx	$6a                     ; 0x6a <gPtr>
    280b: a4 6b        	ldy	$6b                     ; 0x6b <gPtr+0x1>
    280d: 86 12        	stx	$12                     ; 0x12 <__rc2>
    280f: 84 13        	sty	$13                     ; 0x13 <__rc3>
    2811: a0 06        	ldy	#$6
    2813: b1 12        	lda	($12),y                 ; 0x12 <__rc2>
    2815: c9 01        	cmp	#$1
    2817: d0 2b        	bne	$2844 <f256main+0x1f30>
    2819: a0 03        	ldy	#$3
    281b: b1 12        	lda	($12),y                 ; 0x12 <__rc2>
    281d: d0 03        	bne	$2822 <f256main+0x1f0e>
    281f: 4c 7c 2a     	jmp	$2a7c <f256main+0x2168>
    2822: a9 01        	lda	#$1
    2824: 25 64        	and	$64                     ; 0x64 <shiftHit>
    2826: 20 a3 4f     	jsr	$4fa3 <modalMoveUp>
    2829: a6 6a        	ldx	$6a                     ; 0x6a <gPtr>
    282b: a4 6b        	ldy	$6b                     ; 0x6b <gPtr+0x1>
    282d: 86 12        	stx	$12                     ; 0x12 <__rc2>
    282f: 84 13        	sty	$13                     ; 0x13 <__rc3>
    2831: a0 03        	ldy	#$3
    2833: b1 12        	lda	($12),y                 ; 0x12 <__rc2>
    2835: 20 ad 42     	jsr	$42ad <sid_setInstrumentAllChannels>
    2838: a6 6a        	ldx	$6a                     ; 0x6a <gPtr>
    283a: a4 6b        	ldy	$6b                     ; 0x6b <gPtr+0x1>
    283c: 86 12        	stx	$12                     ; 0x12 <__rc2>
    283e: 84 13        	sty	$13                     ; 0x13 <__rc3>
    2840: a0 06        	ldy	#$6
    2842: b1 12        	lda	($12),y                 ; 0x12 <__rc2>
    2844: c9 03        	cmp	#$3
    2846: f0 03        	beq	$284b <f256main+0x1f37>
    2848: 4c 7c 2a     	jmp	$2a7c <f256main+0x2168>
    284b: a0 04        	ldy	#$4
    284d: b1 12        	lda	($12),y                 ; 0x12 <__rc2>
    284f: d0 03        	bne	$2854 <f256main+0x1f40>
    2851: 4c 7c 2a     	jmp	$2a7c <f256main+0x2168>
    2854: a9 01        	lda	#$1
    2856: 25 64        	and	$64                     ; 0x64 <shiftHit>
    2858: 20 a3 4f     	jsr	$4fa3 <modalMoveUp>
    285b: a6 6a        	ldx	$6a                     ; 0x6a <gPtr>
    285d: a4 6b        	ldy	$6b                     ; 0x6b <gPtr+0x1>
    285f: 86 12        	stx	$12                     ; 0x12 <__rc2>
    2861: 84 13        	sty	$13                     ; 0x13 <__rc3>
    2863: a0 04        	ldy	#$4
    2865: b1 12        	lda	($12),y                 ; 0x12 <__rc2>
    2867: a2 0b        	ldx	#$b
    2869: 86 12        	stx	$12                     ; 0x12 <__rc2>
    286b: 64 13        	stz	$13                     ; 0x13 <__rc3>
    286d: a2 00        	ldx	#$0
    286f: 20 f9 60     	jsr	$60f9 <__mulhi3>
    2872: 85 12        	sta	$12                     ; 0x12 <__rc2>
    2874: 86 13        	stx	$13                     ; 0x13 <__rc3>
    2876: a9 0e        	lda	#$e
    2878: 18           	clc
    2879: 65 12        	adc	$12                     ; 0x12 <__rc2>
    287b: 85 2c        	sta	$2c                     ; 0x2c <__rc28>
    287d: a9 85        	lda	#$85
    287f: 65 13        	adc	$13                     ; 0x13 <__rc3>
    2881: 85 2d        	sta	$2d                     ; 0x2d <__rc29>
    2883: a0 00        	ldy	#$0
    2885: a6 2c        	ldx	$2c                     ; 0x2c <__rc28>
    2887: 86 12        	stx	$12                     ; 0x12 <__rc2>
    2889: a6 2d        	ldx	$2d                     ; 0x2d <__rc29>
    288b: 86 13        	stx	$13                     ; 0x13 <__rc3>
    288d: 84 24        	sty	$24                     ; 0x24 <__rc20>
    288f: 98           	tya
    2890: 20 51 41     	jsr	$4151 <opl3_setInstrument>
    2893: 18           	clc
    2894: a5 24        	lda	$24                     ; 0x24 <__rc20>
    2896: 69 c0        	adc	#$c0
    2898: 8d 80 d5     	sta	$d580                   ; 0xd580 <__heap_start+0x4f28>
    289b: a4 24        	ldy	$24                     ; 0x24 <__rc20>
    289d: a2 30        	ldx	#$30
    289f: 8e 81 d5     	stx	$d581                   ; 0xd581 <__heap_start+0x4f29>
    28a2: c8           	iny
    28a3: c0 09        	cpy	#$9
    28a5: d0 de        	bne	$2885 <f256main+0x1f71>
    28a7: 4c 7c 2a     	jmp	$2a7c <f256main+0x2168>
    28aa: e4 17        	cpx	$17                     ; 0x17 <__rc7>
    28ac: 90 03        	bcc	$28b1 <f256main+0x1f9d>
    28ae: 4c 7c 2a     	jmp	$2a7c <f256main+0x2168>
    28b1: a5 18        	lda	$18                     ; 0x18 <__rc8>
    28b3: 20 0e 50     	jsr	$500e <modalMoveDown>
    28b6: a6 6a        	ldx	$6a                     ; 0x6a <gPtr>
    28b8: a4 6b        	ldy	$6b                     ; 0x6b <gPtr+0x1>
    28ba: 86 12        	stx	$12                     ; 0x12 <__rc2>
    28bc: 84 13        	sty	$13                     ; 0x13 <__rc3>
    28be: 86 14        	stx	$14                     ; 0x14 <__rc4>
    28c0: 84 15        	sty	$15                     ; 0x15 <__rc5>
    28c2: e6 14        	inc	$14                     ; 0x14 <__rc4>
    28c4: d0 02        	bne	$28c8 <f256main+0x1fb4>
    28c6: e6 15        	inc	$15                     ; 0x15 <__rc5>
    28c8: a0 01        	ldy	#$1
    28ca: b1 12        	lda	($12),y                 ; 0x12 <__rc2>
    28cc: aa           	tax
    28cd: b1 14        	lda	($14),y                 ; 0x14 <__rc4>
    28cf: 86 14        	stx	$14                     ; 0x14 <__rc4>
    28d1: 85 15        	sta	$15                     ; 0x15 <__rc5>
    28d3: a0 05        	ldy	#$5
    28d5: b1 12        	lda	($12),y                 ; 0x12 <__rc2>
    28d7: aa           	tax
    28d8: a8           	tay
    28d9: b1 14        	lda	($14),y                 ; 0x14 <__rc4>
    28db: 85 18        	sta	$18                     ; 0x18 <__rc8>
    28dd: b2 12        	lda	($12)                   ; 0x12 <__rc2>
    28df: a0 a1        	ldy	#$a1
    28e1: 84 12        	sty	$12                     ; 0x12 <__rc2>
    28e3: a0 dd        	ldy	#$dd
    28e5: 84 13        	sty	$13                     ; 0x13 <__rc3>
    28e7: a0 b1        	ldy	#$b1
    28e9: 84 14        	sty	$14                     ; 0x14 <__rc4>
    28eb: a0 dd        	ldy	#$dd
    28ed: 84 15        	sty	$15                     ; 0x15 <__rc5>
    28ef: 48           	pha
    28f0: a5 14        	lda	$14                     ; 0x14 <__rc4>
    28f2: a0 0d        	ldy	#$d
    28f4: 91 10        	sta	($10),y                 ; 0x10 <__rc0>
    28f6: a5 15        	lda	$15                     ; 0x15 <__rc5>
    28f8: c8           	iny
    28f9: 91 10        	sta	($10),y                 ; 0x10 <__rc0>
    28fb: 68           	pla
    28fc: f0 0b        	beq	$2909 <f256main+0x1ff5>
    28fe: a0 0d        	ldy	#$d
    2900: b1 10        	lda	($10),y                 ; 0x10 <__rc0>
    2902: 85 12        	sta	$12                     ; 0x12 <__rc2>
    2904: c8           	iny
    2905: b1 10        	lda	($10),y                 ; 0x10 <__rc0>
    2907: 85 13        	sta	$13                     ; 0x13 <__rc3>
    2909: 8a           	txa
    290a: 09 c0        	ora	#$c0
    290c: 92 12        	sta	($12)                   ; 0x12 <__rc2>
    290e: a5 18        	lda	$18                     ; 0x18 <__rc8>
    2910: 92 12        	sta	($12)                   ; 0x12 <__rc2>
    2912: a6 6a        	ldx	$6a                     ; 0x6a <gPtr>
    2914: a4 6b        	ldy	$6b                     ; 0x6b <gPtr+0x1>
    2916: 86 12        	stx	$12                     ; 0x12 <__rc2>
    2918: 84 13        	sty	$13                     ; 0x13 <__rc3>
    291a: 86 14        	stx	$14                     ; 0x14 <__rc4>
    291c: 84 15        	sty	$15                     ; 0x15 <__rc5>
    291e: e6 14        	inc	$14                     ; 0x14 <__rc4>
    2920: d0 02        	bne	$2924 <f256main+0x2010>
    2922: e6 15        	inc	$15                     ; 0x15 <__rc5>
    2924: a0 01        	ldy	#$1
    2926: b1 12        	lda	($12),y                 ; 0x12 <__rc2>
    2928: aa           	tax
    2929: b1 14        	lda	($14),y                 ; 0x14 <__rc4>
    292b: 86 14        	stx	$14                     ; 0x14 <__rc4>
    292d: 85 15        	sta	$15                     ; 0x15 <__rc5>
    292f: a0 05        	ldy	#$5
    2931: b1 12        	lda	($12),y                 ; 0x12 <__rc2>
    2933: aa           	tax
    2934: a8           	tay
    2935: b1 14        	lda	($14),y                 ; 0x14 <__rc4>
    2937: 85 16        	sta	$16                     ; 0x16 <__rc6>
    2939: b2 12        	lda	($12)                   ; 0x12 <__rc2>
    293b: 48           	pha
    293c: a0 0d        	ldy	#$d
    293e: b1 10        	lda	($10),y                 ; 0x10 <__rc0>
    2940: 85 12        	sta	$12                     ; 0x12 <__rc2>
    2942: c8           	iny
    2943: b1 10        	lda	($10),y                 ; 0x10 <__rc0>
    2945: 85 13        	sta	$13                     ; 0x13 <__rc3>
    2947: 68           	pla
    2948: f0 08        	beq	$2952 <f256main+0x203e>
    294a: a0 a1        	ldy	#$a1
    294c: 84 12        	sty	$12                     ; 0x12 <__rc2>
    294e: a0 dd        	ldy	#$dd
    2950: 84 13        	sty	$13                     ; 0x13 <__rc3>
    2952: 8a           	txa
    2953: 09 c0        	ora	#$c0
    2955: 92 12        	sta	($12)                   ; 0x12 <__rc2>
    2957: a5 16        	lda	$16                     ; 0x16 <__rc6>
    2959: 92 12        	sta	($12)                   ; 0x12 <__rc2>
    295b: a6 6a        	ldx	$6a                     ; 0x6a <gPtr>
    295d: a4 6b        	ldy	$6b                     ; 0x6b <gPtr+0x1>
    295f: 86 12        	stx	$12                     ; 0x12 <__rc2>
    2961: 84 13        	sty	$13                     ; 0x13 <__rc3>
    2963: a0 06        	ldy	#$6
    2965: b1 12        	lda	($12),y                 ; 0x12 <__rc2>
    2967: c9 01        	cmp	#$1
    2969: f0 03        	beq	$296e <f256main+0x205a>
    296b: 4c 7c 2a     	jmp	$2a7c <f256main+0x2168>
    296e: a0 03        	ldy	#$3
    2970: b1 12        	lda	($12),y                 ; 0x12 <__rc2>
    2972: c9 04        	cmp	#$4
    2974: 90 03        	bcc	$2979 <f256main+0x2065>
    2976: 4c 7c 2a     	jmp	$2a7c <f256main+0x2168>
    2979: a9 01        	lda	#$1
    297b: 25 64        	and	$64                     ; 0x64 <shiftHit>
    297d: 20 0e 50     	jsr	$500e <modalMoveDown>
    2980: a6 6a        	ldx	$6a                     ; 0x6a <gPtr>
    2982: a4 6b        	ldy	$6b                     ; 0x6b <gPtr+0x1>
    2984: 86 12        	stx	$12                     ; 0x12 <__rc2>
    2986: 84 13        	sty	$13                     ; 0x13 <__rc3>
    2988: a0 03        	ldy	#$3
    298a: b1 12        	lda	($12),y                 ; 0x12 <__rc2>
    298c: 20 ad 42     	jsr	$42ad <sid_setInstrumentAllChannels>
    298f: 4c 7c 2a     	jmp	$2a7c <f256main+0x2168>
    2992: a6 12        	ldx	$12                     ; 0x12 <__rc2>
    2994: 86 14        	stx	$14                     ; 0x14 <__rc4>
    2996: a5 13        	lda	$13                     ; 0x13 <__rc3>
    2998: aa           	tax
    2999: f0 0a        	beq	$29a5 <f256main+0x2091>
    299b: a2 f5        	ldx	#$f5
    299d: a0 ff        	ldy	#$ff
    299f: 86 12        	stx	$12                     ; 0x12 <__rc2>
    29a1: 84 13        	sty	$13                     ; 0x13 <__rc3>
    29a3: 80 04        	bra	$29a9 <f256main+0x2095>
    29a5: 64 12        	stz	$12                     ; 0x12 <__rc2>
    29a7: 64 13        	stz	$13                     ; 0x13 <__rc3>
    29a9: 18           	clc
    29aa: a5 16        	lda	$16                     ; 0x16 <__rc6>
    29ac: 65 12        	adc	$12                     ; 0x12 <__rc2>
    29ae: a8           	tay
    29af: a5 14        	lda	$14                     ; 0x14 <__rc4>
    29b1: 65 13        	adc	$13                     ; 0x13 <__rc3>
    29b3: 88           	dey
    29b4: c0 ff        	cpy	#$ff
    29b6: d0 01        	bne	$29b9 <f256main+0x20a5>
    29b8: 3a           	dec
    29b9: 84 31        	sty	$31                     ; 0x31 <note>
    29bb: 85 32        	sta	$32                     ; 0x32 <note+0x1>
    29bd: a5 63        	lda	$63                     ; 0x63 <altHit>
    29bf: 29 01        	and	#$1
    29c1: f0 04        	beq	$29c7 <f256main+0x20b3>
    29c3: 64 31        	stz	$31                     ; 0x31 <note>
    29c5: 64 32        	stz	$32                     ; 0x32 <note+0x1>
    29c7: 18           	clc
    29c8: a9 61        	lda	#$61
    29ca: 65 81        	adc	$81                     ; 0x81 <oldCursorNote>
    29cc: a6 01        	ldx	$1                      ; 0x1 <__data_size+0x1>
    29ce: a0 01        	ldy	#$1
    29d0: 84 01        	sty	$1                      ; 0x1 <__data_size+0x1>
    29d2: 0a           	asl
    29d3: 64 12        	stz	$12                     ; 0x12 <__rc2>
    29d5: 80 41        	bra	$2a18 <f256main+0x2104>
    29d7: a5 16        	lda	$16                     ; 0x16 <__rc6>
    29d9: aa           	tax
    29da: f0 08        	beq	$29e4 <f256main+0x20d0>
    29dc: a2 0b        	ldx	#$b
    29de: 64 12        	stz	$12                     ; 0x12 <__rc2>
    29e0: 86 13        	stx	$13                     ; 0x13 <__rc3>
    29e2: 80 04        	bra	$29e8 <f256main+0x20d4>
    29e4: 64 13        	stz	$13                     ; 0x13 <__rc3>
    29e6: 64 12        	stz	$12                     ; 0x12 <__rc2>
    29e8: 18           	clc
    29e9: a5 14        	lda	$14                     ; 0x14 <__rc4>
    29eb: 65 13        	adc	$13                     ; 0x13 <__rc3>
    29ed: aa           	tax
    29ee: a5 15        	lda	$15                     ; 0x15 <__rc5>
    29f0: 65 12        	adc	$12                     ; 0x12 <__rc2>
    29f2: e8           	inx
    29f3: d0 01        	bne	$29f6 <f256main+0x20e2>
    29f5: 1a           	inc
    29f6: 86 31        	stx	$31                     ; 0x31 <note>
    29f8: 85 32        	sta	$32                     ; 0x32 <note+0x1>
    29fa: a0 12        	ldy	#$12
    29fc: b1 10        	lda	($10),y                 ; 0x10 <__rc0>
    29fe: 85 25        	sta	$25                     ; 0x25 <__rc21>
    2a00: a5 63        	lda	$63                     ; 0x63 <altHit>
    2a02: 29 01        	and	#$1
    2a04: f0 06        	beq	$2a0c <f256main+0x20f8>
    2a06: a2 57        	ldx	#$57
    2a08: 86 31        	stx	$31                     ; 0x31 <note>
    2a0a: 64 32        	stz	$32                     ; 0x32 <note+0x1>
    2a0c: 18           	clc
    2a0d: a9 61        	lda	#$61
    2a0f: 65 81        	adc	$81                     ; 0x81 <oldCursorNote>
    2a11: a6 01        	ldx	$1                      ; 0x1 <__data_size+0x1>
    2a13: a0 01        	ldy	#$1
    2a15: 84 01        	sty	$1                      ; 0x1 <__data_size+0x1>
    2a17: 0a           	asl
    2a18: 26 12        	rol	$12                     ; 0x12 <__rc2>
    2a1a: 0a           	asl
    2a1b: 85 13        	sta	$13                     ; 0x13 <__rc3>
    2a1d: 26 12        	rol	$12                     ; 0x12 <__rc2>
    2a1f: a9 00        	lda	#$0
    2a21: 18           	clc
    2a22: 65 13        	adc	$13                     ; 0x13 <__rc3>
    2a24: 85 13        	sta	$13                     ; 0x13 <__rc3>
    2a26: a9 d0        	lda	#$d0
    2a28: 65 12        	adc	$12                     ; 0x12 <__rc2>
    2a2a: 5a           	phy
    2a2b: a4 13        	ldy	$13                     ; 0x13 <__rc3>
    2a2d: 84 12        	sty	$12                     ; 0x12 <__rc2>
    2a2f: 7a           	ply
    2a30: 85 13        	sta	$13                     ; 0x13 <__rc3>
    2a32: a9 00        	lda	#$0
    2a34: 92 12        	sta	($12)                   ; 0x12 <__rc2>
    2a36: 91 12        	sta	($12),y                 ; 0x12 <__rc2>
    2a38: a0 02        	ldy	#$2
    2a3a: 91 12        	sta	($12),y                 ; 0x12 <__rc2>
    2a3c: 3a           	dec
    2a3d: c8           	iny
    2a3e: 91 12        	sta	($12),y                 ; 0x12 <__rc2>
    2a40: 86 01        	stx	$1                      ; 0x1 <__data_size+0x1>
    2a42: 18           	clc
    2a43: a9 61        	lda	#$61
    2a45: 65 31        	adc	$31                     ; 0x31 <note>
    2a47: 0a           	asl
    2a48: 64 12        	stz	$12                     ; 0x12 <__rc2>
    2a4a: 26 12        	rol	$12                     ; 0x12 <__rc2>
    2a4c: 0a           	asl
    2a4d: 85 13        	sta	$13                     ; 0x13 <__rc3>
    2a4f: 26 12        	rol	$12                     ; 0x12 <__rc2>
    2a51: a9 00        	lda	#$0
    2a53: 18           	clc
    2a54: 65 13        	adc	$13                     ; 0x13 <__rc3>
    2a56: aa           	tax
    2a57: a9 d0        	lda	#$d0
    2a59: 65 12        	adc	$12                     ; 0x12 <__rc2>
    2a5b: 86 12        	stx	$12                     ; 0x12 <__rc2>
    2a5d: 85 13        	sta	$13                     ; 0x13 <__rc3>
    2a5f: a6 01        	ldx	$1                      ; 0x1 <__data_size+0x1>
    2a61: a0 01        	ldy	#$1
    2a63: 84 01        	sty	$1                      ; 0x1 <__data_size+0x1>
    2a65: a9 00        	lda	#$0
    2a67: 92 12        	sta	($12)                   ; 0x12 <__rc2>
    2a69: 91 12        	sta	($12),y                 ; 0x12 <__rc2>
    2a6b: 3a           	dec
    2a6c: c8           	iny
    2a6d: 91 12        	sta	($12),y                 ; 0x12 <__rc2>
    2a6f: c8           	iny
    2a70: 91 12        	sta	($12),y                 ; 0x12 <__rc2>
    2a72: 86 01        	stx	$1                      ; 0x1 <__data_size+0x1>
    2a74: a6 31        	ldx	$31                     ; 0x31 <note>
    2a76: 86 81        	stx	$81                     ; 0x81 <oldCursorNote>
    2a78: a6 32        	ldx	$32                     ; 0x32 <note+0x1>
    2a7a: 86 82        	stx	$82                     ; 0x82 <oldCursorNote+0x1>
    2a7c: a5 25        	lda	$25                     ; 0x25 <__rc21>
    2a7e: a0 12        	ldy	#$12
    2a80: 91 10        	sta	($10),y                 ; 0x10 <__rc0>
    2a82: a5 87        	lda	$87                     ; 0x87 <kernelEventData+0x4>
    2a84: 92 10        	sta	($10)                   ; 0x10 <__rc0>
    2a86: a9 00        	lda	#$0
    2a88: a0 01        	ldy	#$1
    2a8a: 91 10        	sta	($10),y                 ; 0x10 <__rc0>
    2a8c: a2 e0        	ldx	#$e0
    2a8e: 86 12        	stx	$12                     ; 0x12 <__rc2>
    2a90: a2 80        	ldx	#$80
    2a92: 86 13        	stx	$13                     ; 0x13 <__rc3>
    2a94: 20 65 52     	jsr	$5265 <printf>
    2a97: 4c f5 0e     	jmp	$ef5 <f256main+0x5e1>
    2a9a: 64 16        	stz	$16                     ; 0x16 <__rc6>
    2a9c: 64 17        	stz	$17                     ; 0x17 <__rc7>
    2a9e: b1 12        	lda	($12),y                 ; 0x12 <__rc2>
    2aa0: aa           	tax
    2aa1: b1 14        	lda	($14),y                 ; 0x14 <__rc4>
    2aa3: 86 14        	stx	$14                     ; 0x14 <__rc4>
    2aa5: 85 15        	sta	$15                     ; 0x15 <__rc5>
    2aa7: a0 05        	ldy	#$5
    2aa9: b1 12        	lda	($12),y                 ; 0x12 <__rc2>
    2aab: a8           	tay
    2aac: b1 14        	lda	($14),y                 ; 0x14 <__rc4>
    2aae: a2 00        	ldx	#$0
    2ab0: e4 17        	cpx	$17                     ; 0x17 <__rc7>
    2ab2: d0 08        	bne	$2abc <f256main+0x21a8>
    2ab4: aa           	tax
    2ab5: a5 16        	lda	$16                     ; 0x16 <__rc6>
    2ab7: 49 7f        	eor	#$7f
    2ab9: 85 17        	sta	$17                     ; 0x17 <__rc7>
    2abb: 8a           	txa
    2abc: e4 17        	cpx	$17                     ; 0x17 <__rc7>
    2abe: b0 23        	bcs	$2ae3 <f256main+0x21cf>
    2ac0: 18           	clc
    2ac1: 65 16        	adc	$16                     ; 0x16 <__rc6>
    2ac3: 1a           	inc
    2ac4: 91 14        	sta	($14),y                 ; 0x14 <__rc4>
    2ac6: a6 12        	ldx	$12                     ; 0x12 <__rc2>
    2ac8: 86 16        	stx	$16                     ; 0x16 <__rc6>
    2aca: a6 13        	ldx	$13                     ; 0x13 <__rc3>
    2acc: 86 17        	stx	$17                     ; 0x17 <__rc7>
    2ace: e6 16        	inc	$16                     ; 0x16 <__rc6>
    2ad0: d0 02        	bne	$2ad4 <f256main+0x21c0>
    2ad2: e6 17        	inc	$17                     ; 0x17 <__rc7>
    2ad4: a0 01        	ldy	#$1
    2ad6: b1 12        	lda	($12),y                 ; 0x12 <__rc2>
    2ad8: 85 14        	sta	$14                     ; 0x14 <__rc4>
    2ada: b1 16        	lda	($16),y                 ; 0x16 <__rc6>
    2adc: 85 15        	sta	$15                     ; 0x15 <__rc5>
    2ade: a0 05        	ldy	#$5
    2ae0: b1 12        	lda	($12),y                 ; 0x12 <__rc2>
    2ae2: a8           	tay
    2ae3: a5 63        	lda	$63                     ; 0x63 <altHit>
    2ae5: 29 01        	and	#$1
    2ae7: d0 03        	bne	$2aec <f256main+0x21d8>
    2ae9: 4c 4a 2b     	jmp	$2b4a <f256main+0x2236>
    2aec: a9 7f        	lda	#$7f
    2aee: 91 14        	sta	($14),y                 ; 0x14 <__rc4>
    2af0: a6 12        	ldx	$12                     ; 0x12 <__rc2>
    2af2: 86 14        	stx	$14                     ; 0x14 <__rc4>
    2af4: a6 13        	ldx	$13                     ; 0x13 <__rc3>
    2af6: 86 15        	stx	$15                     ; 0x15 <__rc5>
    2af8: e6 14        	inc	$14                     ; 0x14 <__rc4>
    2afa: d0 02        	bne	$2afe <f256main+0x21ea>
    2afc: e6 15        	inc	$15                     ; 0x15 <__rc5>
    2afe: a0 01        	ldy	#$1
    2b00: b1 12        	lda	($12),y                 ; 0x12 <__rc2>
    2b02: aa           	tax
    2b03: b1 14        	lda	($14),y                 ; 0x14 <__rc4>
    2b05: 86 14        	stx	$14                     ; 0x14 <__rc4>
    2b07: 85 15        	sta	$15                     ; 0x15 <__rc5>
    2b09: a0 05        	ldy	#$5
    2b0b: b1 12        	lda	($12),y                 ; 0x12 <__rc2>
    2b0d: 80 3c        	bra	$2b4b <f256main+0x2237>
    2b0f: 64 16        	stz	$16                     ; 0x16 <__rc6>
    2b11: a9 00        	lda	#$0
    2b13: a0 0d        	ldy	#$d
    2b15: 91 10        	sta	($10),y                 ; 0x10 <__rc0>
    2b17: a2 00        	ldx	#$0
    2b19: a0 01        	ldy	#$1
    2b1b: b1 12        	lda	($12),y                 ; 0x12 <__rc2>
    2b1d: 85 16        	sta	$16                     ; 0x16 <__rc6>
    2b1f: b1 14        	lda	($14),y                 ; 0x14 <__rc4>
    2b21: a4 16        	ldy	$16                     ; 0x16 <__rc6>
    2b23: 84 14        	sty	$14                     ; 0x14 <__rc4>
    2b25: 85 15        	sta	$15                     ; 0x15 <__rc5>
    2b27: a0 05        	ldy	#$5
    2b29: b1 12        	lda	($12),y                 ; 0x12 <__rc2>
    2b2b: a8           	tay
    2b2c: b1 14        	lda	($14),y                 ; 0x14 <__rc4>
    2b2e: e0 00        	cpx	#$0
    2b30: f0 03        	beq	$2b35 <f256main+0x2221>
    2b32: 4c f9 2b     	jmp	$2bf9 <f256main+0x22e5>
    2b35: 85 16        	sta	$16                     ; 0x16 <__rc6>
    2b37: 48           	pha
    2b38: 5a           	phy
    2b39: a0 0d        	ldy	#$d
    2b3b: b1 10        	lda	($10),y                 ; 0x10 <__rc0>
    2b3d: 7a           	ply
    2b3e: aa           	tax
    2b3f: 68           	pla
    2b40: e4 16        	cpx	$16                     ; 0x16 <__rc6>
    2b42: b0 03        	bcs	$2b47 <f256main+0x2233>
    2b44: 4c fd 2b     	jmp	$2bfd <f256main+0x22e9>
    2b47: 4c 2b 2c     	jmp	$2c2b <f256main+0x2317>
    2b4a: 98           	tya
    2b4b: aa           	tax
    2b4c: a8           	tay
    2b4d: b1 14        	lda	($14),y                 ; 0x14 <__rc4>
    2b4f: 85 18        	sta	$18                     ; 0x18 <__rc8>
    2b51: b2 12        	lda	($12)                   ; 0x12 <__rc2>
    2b53: a0 a1        	ldy	#$a1
    2b55: 84 12        	sty	$12                     ; 0x12 <__rc2>
    2b57: a0 dd        	ldy	#$dd
    2b59: 84 13        	sty	$13                     ; 0x13 <__rc3>
    2b5b: a0 b1        	ldy	#$b1
    2b5d: 84 14        	sty	$14                     ; 0x14 <__rc4>
    2b5f: a0 dd        	ldy	#$dd
    2b61: 84 15        	sty	$15                     ; 0x15 <__rc5>
    2b63: 48           	pha
    2b64: a5 14        	lda	$14                     ; 0x14 <__rc4>
    2b66: a0 0d        	ldy	#$d
    2b68: 91 10        	sta	($10),y                 ; 0x10 <__rc0>
    2b6a: a5 15        	lda	$15                     ; 0x15 <__rc5>
    2b6c: c8           	iny
    2b6d: 91 10        	sta	($10),y                 ; 0x10 <__rc0>
    2b6f: 68           	pla
    2b70: f0 0b        	beq	$2b7d <f256main+0x2269>
    2b72: a0 0d        	ldy	#$d
    2b74: b1 10        	lda	($10),y                 ; 0x10 <__rc0>
    2b76: 85 12        	sta	$12                     ; 0x12 <__rc2>
    2b78: c8           	iny
    2b79: b1 10        	lda	($10),y                 ; 0x10 <__rc0>
    2b7b: 85 13        	sta	$13                     ; 0x13 <__rc3>
    2b7d: 8a           	txa
    2b7e: 09 c0        	ora	#$c0
    2b80: 92 12        	sta	($12)                   ; 0x12 <__rc2>
    2b82: a5 18        	lda	$18                     ; 0x18 <__rc8>
    2b84: 92 12        	sta	($12)                   ; 0x12 <__rc2>
    2b86: a6 6a        	ldx	$6a                     ; 0x6a <gPtr>
    2b88: a4 6b        	ldy	$6b                     ; 0x6b <gPtr+0x1>
    2b8a: 86 12        	stx	$12                     ; 0x12 <__rc2>
    2b8c: 84 13        	sty	$13                     ; 0x13 <__rc3>
    2b8e: 86 14        	stx	$14                     ; 0x14 <__rc4>
    2b90: 84 15        	sty	$15                     ; 0x15 <__rc5>
    2b92: e6 14        	inc	$14                     ; 0x14 <__rc4>
    2b94: d0 02        	bne	$2b98 <f256main+0x2284>
    2b96: e6 15        	inc	$15                     ; 0x15 <__rc5>
    2b98: a0 01        	ldy	#$1
    2b9a: b1 12        	lda	($12),y                 ; 0x12 <__rc2>
    2b9c: aa           	tax
    2b9d: b1 14        	lda	($14),y                 ; 0x14 <__rc4>
    2b9f: 86 14        	stx	$14                     ; 0x14 <__rc4>
    2ba1: 85 15        	sta	$15                     ; 0x15 <__rc5>
    2ba3: a0 05        	ldy	#$5
    2ba5: b1 12        	lda	($12),y                 ; 0x12 <__rc2>
    2ba7: aa           	tax
    2ba8: a8           	tay
    2ba9: b1 14        	lda	($14),y                 ; 0x14 <__rc4>
    2bab: 85 16        	sta	$16                     ; 0x16 <__rc6>
    2bad: b2 12        	lda	($12)                   ; 0x12 <__rc2>
    2baf: 48           	pha
    2bb0: a0 0d        	ldy	#$d
    2bb2: b1 10        	lda	($10),y                 ; 0x10 <__rc0>
    2bb4: 85 12        	sta	$12                     ; 0x12 <__rc2>
    2bb6: c8           	iny
    2bb7: b1 10        	lda	($10),y                 ; 0x10 <__rc0>
    2bb9: 85 13        	sta	$13                     ; 0x13 <__rc3>
    2bbb: 68           	pla
    2bbc: f0 08        	beq	$2bc6 <f256main+0x22b2>
    2bbe: a0 a1        	ldy	#$a1
    2bc0: 84 12        	sty	$12                     ; 0x12 <__rc2>
    2bc2: a0 dd        	ldy	#$dd
    2bc4: 84 13        	sty	$13                     ; 0x13 <__rc3>
    2bc6: 8a           	txa
    2bc7: 09 c0        	ora	#$c0
    2bc9: 92 12        	sta	($12)                   ; 0x12 <__rc2>
    2bcb: a5 16        	lda	$16                     ; 0x16 <__rc6>
    2bcd: 92 12        	sta	($12)                   ; 0x12 <__rc2>
    2bcf: a6 6a        	ldx	$6a                     ; 0x6a <gPtr>
    2bd1: a4 6b        	ldy	$6b                     ; 0x6b <gPtr+0x1>
    2bd3: 86 12        	stx	$12                     ; 0x12 <__rc2>
    2bd5: 84 13        	sty	$13                     ; 0x13 <__rc3>
    2bd7: a0 06        	ldy	#$6
    2bd9: b1 12        	lda	($12),y                 ; 0x12 <__rc2>
    2bdb: c9 03        	cmp	#$3
    2bdd: f0 0b        	beq	$2bea <f256main+0x22d6>
    2bdf: c9 01        	cmp	#$1
    2be1: f0 03        	beq	$2be6 <f256main+0x22d2>
    2be3: 4c 7c 2a     	jmp	$2a7c <f256main+0x2168>
    2be6: a0 03        	ldy	#$3
    2be8: 80 02        	bra	$2bec <f256main+0x22d8>
    2bea: a0 04        	ldy	#$4
    2bec: b1 12        	lda	($12),y                 ; 0x12 <__rc2>
    2bee: c9 05        	cmp	#$5
    2bf0: 90 03        	bcc	$2bf5 <f256main+0x22e1>
    2bf2: 4c 7c 2a     	jmp	$2a7c <f256main+0x2168>
    2bf5: 1a           	inc
    2bf6: 4c 3c 1a     	jmp	$1a3c <f256main+0x1128>
    2bf9: e0 00        	cpx	#$0
    2bfb: b0 2e        	bcs	$2c2b <f256main+0x2317>
    2bfd: aa           	tax
    2bfe: 5a           	phy
    2bff: a0 0d        	ldy	#$d
    2c01: b1 10        	lda	($10),y                 ; 0x10 <__rc0>
    2c03: 7a           	ply
    2c04: 49 ff        	eor	#$ff
    2c06: 85 16        	sta	$16                     ; 0x16 <__rc6>
    2c08: 18           	clc
    2c09: 8a           	txa
    2c0a: 65 16        	adc	$16                     ; 0x16 <__rc6>
    2c0c: 91 14        	sta	($14),y                 ; 0x14 <__rc4>
    2c0e: a6 12        	ldx	$12                     ; 0x12 <__rc2>
    2c10: 86 16        	stx	$16                     ; 0x16 <__rc6>
    2c12: a6 13        	ldx	$13                     ; 0x13 <__rc3>
    2c14: 86 17        	stx	$17                     ; 0x17 <__rc7>
    2c16: e6 16        	inc	$16                     ; 0x16 <__rc6>
    2c18: d0 02        	bne	$2c1c <f256main+0x2308>
    2c1a: e6 17        	inc	$17                     ; 0x17 <__rc7>
    2c1c: a0 01        	ldy	#$1
    2c1e: b1 12        	lda	($12),y                 ; 0x12 <__rc2>
    2c20: 85 14        	sta	$14                     ; 0x14 <__rc4>
    2c22: b1 16        	lda	($16),y                 ; 0x16 <__rc6>
    2c24: 85 15        	sta	$15                     ; 0x15 <__rc5>
    2c26: a0 05        	ldy	#$5
    2c28: b1 12        	lda	($12),y                 ; 0x12 <__rc2>
    2c2a: a8           	tay
    2c2b: a5 63        	lda	$63                     ; 0x63 <altHit>
    2c2d: 29 01        	and	#$1
    2c2f: f0 23        	beq	$2c54 <f256main+0x2340>
    2c31: a9 00        	lda	#$0
    2c33: 91 14        	sta	($14),y                 ; 0x14 <__rc4>
    2c35: a6 12        	ldx	$12                     ; 0x12 <__rc2>
    2c37: 86 14        	stx	$14                     ; 0x14 <__rc4>
    2c39: a6 13        	ldx	$13                     ; 0x13 <__rc3>
    2c3b: 86 15        	stx	$15                     ; 0x15 <__rc5>
    2c3d: e6 14        	inc	$14                     ; 0x14 <__rc4>
    2c3f: d0 02        	bne	$2c43 <f256main+0x232f>
    2c41: e6 15        	inc	$15                     ; 0x15 <__rc5>
    2c43: a0 01        	ldy	#$1
    2c45: b1 12        	lda	($12),y                 ; 0x12 <__rc2>
    2c47: aa           	tax
    2c48: b1 14        	lda	($14),y                 ; 0x14 <__rc4>
    2c4a: 86 14        	stx	$14                     ; 0x14 <__rc4>
    2c4c: 85 15        	sta	$15                     ; 0x15 <__rc5>
    2c4e: a0 05        	ldy	#$5
    2c50: b1 12        	lda	($12),y                 ; 0x12 <__rc2>
    2c52: 80 01        	bra	$2c55 <f256main+0x2341>
    2c54: 98           	tya
    2c55: aa           	tax
    2c56: a8           	tay
    2c57: b1 14        	lda	($14),y                 ; 0x14 <__rc4>
    2c59: 85 18        	sta	$18                     ; 0x18 <__rc8>
    2c5b: b2 12        	lda	($12)                   ; 0x12 <__rc2>
    2c5d: a0 a1        	ldy	#$a1
    2c5f: 84 12        	sty	$12                     ; 0x12 <__rc2>
    2c61: a0 dd        	ldy	#$dd
    2c63: 84 13        	sty	$13                     ; 0x13 <__rc3>
    2c65: a0 b1        	ldy	#$b1
    2c67: 84 14        	sty	$14                     ; 0x14 <__rc4>
    2c69: a0 dd        	ldy	#$dd
    2c6b: 84 15        	sty	$15                     ; 0x15 <__rc5>
    2c6d: 48           	pha
    2c6e: a5 14        	lda	$14                     ; 0x14 <__rc4>
    2c70: a0 0d        	ldy	#$d
    2c72: 91 10        	sta	($10),y                 ; 0x10 <__rc0>
    2c74: a5 15        	lda	$15                     ; 0x15 <__rc5>
    2c76: c8           	iny
    2c77: 91 10        	sta	($10),y                 ; 0x10 <__rc0>
    2c79: 68           	pla
    2c7a: f0 0b        	beq	$2c87 <f256main+0x2373>
    2c7c: a0 0d        	ldy	#$d
    2c7e: b1 10        	lda	($10),y                 ; 0x10 <__rc0>
    2c80: 85 12        	sta	$12                     ; 0x12 <__rc2>
    2c82: c8           	iny
    2c83: b1 10        	lda	($10),y                 ; 0x10 <__rc0>
    2c85: 85 13        	sta	$13                     ; 0x13 <__rc3>
    2c87: 8a           	txa
    2c88: 09 c0        	ora	#$c0
    2c8a: 92 12        	sta	($12)                   ; 0x12 <__rc2>
    2c8c: a5 18        	lda	$18                     ; 0x18 <__rc8>
    2c8e: 92 12        	sta	($12)                   ; 0x12 <__rc2>
    2c90: a6 6a        	ldx	$6a                     ; 0x6a <gPtr>
    2c92: a4 6b        	ldy	$6b                     ; 0x6b <gPtr+0x1>
    2c94: 86 12        	stx	$12                     ; 0x12 <__rc2>
    2c96: 84 13        	sty	$13                     ; 0x13 <__rc3>
    2c98: 86 14        	stx	$14                     ; 0x14 <__rc4>
    2c9a: 84 15        	sty	$15                     ; 0x15 <__rc5>
    2c9c: e6 14        	inc	$14                     ; 0x14 <__rc4>
    2c9e: d0 02        	bne	$2ca2 <f256main+0x238e>
    2ca0: e6 15        	inc	$15                     ; 0x15 <__rc5>
    2ca2: a0 01        	ldy	#$1
    2ca4: b1 12        	lda	($12),y                 ; 0x12 <__rc2>
    2ca6: aa           	tax
    2ca7: b1 14        	lda	($14),y                 ; 0x14 <__rc4>
    2ca9: 86 14        	stx	$14                     ; 0x14 <__rc4>
    2cab: 85 15        	sta	$15                     ; 0x15 <__rc5>
    2cad: a0 05        	ldy	#$5
    2caf: b1 12        	lda	($12),y                 ; 0x12 <__rc2>
    2cb1: aa           	tax
    2cb2: a8           	tay
    2cb3: b1 14        	lda	($14),y                 ; 0x14 <__rc4>
    2cb5: 85 16        	sta	$16                     ; 0x16 <__rc6>
    2cb7: b2 12        	lda	($12)                   ; 0x12 <__rc2>
    2cb9: 48           	pha
    2cba: a0 0d        	ldy	#$d
    2cbc: b1 10        	lda	($10),y                 ; 0x10 <__rc0>
    2cbe: 85 12        	sta	$12                     ; 0x12 <__rc2>
    2cc0: c8           	iny
    2cc1: b1 10        	lda	($10),y                 ; 0x10 <__rc0>
    2cc3: 85 13        	sta	$13                     ; 0x13 <__rc3>
    2cc5: 68           	pla
    2cc6: f0 08        	beq	$2cd0 <f256main+0x23bc>
    2cc8: a0 a1        	ldy	#$a1
    2cca: 84 12        	sty	$12                     ; 0x12 <__rc2>
    2ccc: a0 dd        	ldy	#$dd
    2cce: 84 13        	sty	$13                     ; 0x13 <__rc3>
    2cd0: 8a           	txa
    2cd1: 09 c0        	ora	#$c0
    2cd3: 92 12        	sta	($12)                   ; 0x12 <__rc2>
    2cd5: a5 16        	lda	$16                     ; 0x16 <__rc6>
    2cd7: 92 12        	sta	($12)                   ; 0x12 <__rc2>
    2cd9: a6 6a        	ldx	$6a                     ; 0x6a <gPtr>
    2cdb: a4 6b        	ldy	$6b                     ; 0x6b <gPtr+0x1>
    2cdd: 86 12        	stx	$12                     ; 0x12 <__rc2>
    2cdf: 84 13        	sty	$13                     ; 0x13 <__rc3>
    2ce1: a0 06        	ldy	#$6
    2ce3: b1 12        	lda	($12),y                 ; 0x12 <__rc2>
    2ce5: c9 01        	cmp	#$1
    2ce7: f0 03        	beq	$2cec <f256main+0x23d8>
    2ce9: 4c 7c 2a     	jmp	$2a7c <f256main+0x2168>
    2cec: a0 03        	ldy	#$3
    2cee: b1 12        	lda	($12),y                 ; 0x12 <__rc2>
    2cf0: d0 03        	bne	$2cf5 <f256main+0x23e1>
    2cf2: 4c 7c 2a     	jmp	$2a7c <f256main+0x2168>
    2cf5: 3a           	dec
    2cf6: 4c 3c 1a     	jmp	$1a3c <f256main+0x1128>
    2cf9: a9 00        	lda	#$0
    2cfb: 91 12        	sta	($12),y                 ; 0x12 <__rc2>
    2cfd: 20 c3 48     	jsr	$48c3 <refreshBeatTextChoice>
    2d00: 4c 7c 2a     	jmp	$2a7c <f256main+0x2168>
    2d03: a2 00        	ldx	#$0
    2d05: 64 14        	stz	$14                     ; 0x14 <__rc4>
    2d07: a0 09        	ldy	#$9
    2d09: b1 12        	lda	($12),y                 ; 0x12 <__rc2>
    2d0b: 85 16        	sta	$16                     ; 0x16 <__rc6>
    2d0d: 18           	clc
    2d0e: 86 15        	stx	$15                     ; 0x15 <__rc5>
    2d10: 8a           	txa
    2d11: 69 1e        	adc	#$1e
    2d13: a8           	tay
    2d14: a9 00        	lda	#$0
    2d16: 69 00        	adc	#$0
    2d18: d0 0b        	bne	$2d25 <f256main+0x2411>
    2d1a: a6 16        	ldx	$16                     ; 0x16 <__rc6>
    2d1c: 86 14        	stx	$14                     ; 0x14 <__rc4>
    2d1e: c4 14        	cpy	$14                     ; 0x14 <__rc4>
    2d20: 90 0a        	bcc	$2d2c <f256main+0x2418>
    2d22: 4c 7c 2a     	jmp	$2a7c <f256main+0x2168>
    2d25: c9 00        	cmp	#$0
    2d27: 90 03        	bcc	$2d2c <f256main+0x2418>
    2d29: 4c 7c 2a     	jmp	$2a7c <f256main+0x2168>
    2d2c: a5 15        	lda	$15                     ; 0x15 <__rc5>
    2d2e: 49 ff        	eor	#$ff
    2d30: 85 14        	sta	$14                     ; 0x14 <__rc4>
    2d32: 18           	clc
    2d33: a5 16        	lda	$16                     ; 0x16 <__rc6>
    2d35: 65 14        	adc	$14                     ; 0x14 <__rc4>
    2d37: a0 09        	ldy	#$9
    2d39: 91 12        	sta	($12),y                 ; 0x12 <__rc2>
    2d3b: 20 93 3f     	jsr	$3f93 <prepTempoLUT>
    2d3e: a6 6a        	ldx	$6a                     ; 0x6a <gPtr>
    2d40: a4 6b        	ldy	$6b                     ; 0x6b <gPtr+0x1>
    2d42: 86 12        	stx	$12                     ; 0x12 <__rc2>
    2d44: 84 13        	sty	$13                     ; 0x13 <__rc3>
    2d46: a0 09        	ldy	#$9
    2d48: b1 12        	lda	($12),y                 ; 0x12 <__rc2>
    2d4a: 20 2a 49     	jsr	$492a <updateTempoText>
    2d4d: a2 b0        	ldx	#$b0
    2d4f: 8e b1 dd     	stx	$ddb1                   ; 0xddb1 <__heap_start+0x5759>
    2d52: a0 7b        	ldy	#$7b
    2d54: 8c b1 dd     	sty	$ddb1                   ; 0xddb1 <__heap_start+0x5759>
    2d57: 9c b1 dd     	stz	$ddb1                   ; 0xddb1 <__heap_start+0x5759>
    2d5a: 8e a1 dd     	stx	$dda1                   ; 0xdda1 <__heap_start+0x5749>
    2d5d: 8c a1 dd     	sty	$dda1                   ; 0xdda1 <__heap_start+0x5749>
    2d60: 9c a1 dd     	stz	$dda1                   ; 0xdda1 <__heap_start+0x5749>
    2d63: e8           	inx
    2d64: 8e b1 dd     	stx	$ddb1                   ; 0xddb1 <__heap_start+0x5759>
    2d67: 8c b1 dd     	sty	$ddb1                   ; 0xddb1 <__heap_start+0x5759>
    2d6a: 9c b1 dd     	stz	$ddb1                   ; 0xddb1 <__heap_start+0x5759>
    2d6d: 8e a1 dd     	stx	$dda1                   ; 0xdda1 <__heap_start+0x5749>
    2d70: 8c a1 dd     	sty	$dda1                   ; 0xdda1 <__heap_start+0x5749>
    2d73: 9c a1 dd     	stz	$dda1                   ; 0xdda1 <__heap_start+0x5749>
    2d76: a2 b9        	ldx	#$b9
    2d78: 8e b1 dd     	stx	$ddb1                   ; 0xddb1 <__heap_start+0x5759>
    2d7b: 8c b1 dd     	sty	$ddb1                   ; 0xddb1 <__heap_start+0x5759>
    2d7e: 9c b1 dd     	stz	$ddb1                   ; 0xddb1 <__heap_start+0x5759>
    2d81: 8e a1 dd     	stx	$dda1                   ; 0xdda1 <__heap_start+0x5749>
    2d84: 8c a1 dd     	sty	$dda1                   ; 0xdda1 <__heap_start+0x5749>
    2d87: 9c a1 dd     	stz	$dda1                   ; 0xdda1 <__heap_start+0x5749>
    2d8a: a6 7e        	ldx	$7e                     ; 0x7e <theBeats>
    2d8c: 86 18        	stx	$18                     ; 0x18 <__rc8>
    2d8e: a6 7f        	ldx	$7f                     ; 0x7f <theBeats+0x1>
    2d90: a5 6a        	lda	$6a                     ; 0x6a <gPtr>
    2d92: a4 6b        	ldy	$6b                     ; 0x6b <gPtr+0x1>
    2d94: 85 12        	sta	$12                     ; 0x12 <__rc2>
    2d96: 84 13        	sty	$13                     ; 0x13 <__rc3>
    2d98: a0 08        	ldy	#$8
    2d9a: b1 12        	lda	($12),y                 ; 0x12 <__rc2>
    2d9c: 85 14        	sta	$14                     ; 0x14 <__rc4>
    2d9e: 64 15        	stz	$15                     ; 0x15 <__rc5>
    2da0: 0a           	asl
    2da1: 64 17        	stz	$17                     ; 0x17 <__rc7>
    2da3: 26 17        	rol	$17                     ; 0x17 <__rc7>
    2da5: 0a           	asl
    2da6: 26 17        	rol	$17                     ; 0x17 <__rc7>
    2da8: 0a           	asl
    2da9: 26 17        	rol	$17                     ; 0x17 <__rc7>
    2dab: 0a           	asl
    2dac: 26 17        	rol	$17                     ; 0x17 <__rc7>
    2dae: 38           	sec
    2daf: e5 14        	sbc	$14                     ; 0x14 <__rc4>
    2db1: 85 16        	sta	$16                     ; 0x16 <__rc6>
    2db3: a5 17        	lda	$17                     ; 0x17 <__rc7>
    2db5: e9 00        	sbc	#$0
    2db7: 85 17        	sta	$17                     ; 0x17 <__rc7>
    2db9: a4 18        	ldy	$18                     ; 0x18 <__rc8>
    2dbb: 84 19        	sty	$19                     ; 0x19 <__rc9>
    2dbd: a5 18        	lda	$18                     ; 0x18 <__rc8>
    2dbf: 18           	clc
    2dc0: 65 16        	adc	$16                     ; 0x16 <__rc6>
    2dc2: 85 16        	sta	$16                     ; 0x16 <__rc6>
    2dc4: 8a           	txa
    2dc5: 65 17        	adc	$17                     ; 0x17 <__rc7>
    2dc7: 85 17        	sta	$17                     ; 0x17 <__rc7>
    2dc9: a0 04        	ldy	#$4
    2dcb: b1 16        	lda	($16),y                 ; 0x16 <__rc6>
    2dcd: d0 03        	bne	$2dd2 <f256main+0x24be>
    2dcf: 4c 7c 2a     	jmp	$2a7c <f256main+0x2168>
    2dd2: a0 00        	ldy	#$0
    2dd4: a5 14        	lda	$14                     ; 0x14 <__rc4>
    2dd6: 0a           	asl
    2dd7: 64 16        	stz	$16                     ; 0x16 <__rc6>
    2dd9: 26 16        	rol	$16                     ; 0x16 <__rc6>
    2ddb: 0a           	asl
    2ddc: 26 16        	rol	$16                     ; 0x16 <__rc6>
    2dde: 0a           	asl
    2ddf: 26 16        	rol	$16                     ; 0x16 <__rc6>
    2de1: 0a           	asl
    2de2: 26 16        	rol	$16                     ; 0x16 <__rc6>
    2de4: 38           	sec
    2de5: e5 14        	sbc	$14                     ; 0x14 <__rc4>
    2de7: 85 14        	sta	$14                     ; 0x14 <__rc4>
    2de9: a5 16        	lda	$16                     ; 0x16 <__rc6>
    2deb: e5 15        	sbc	$15                     ; 0x15 <__rc5>
    2ded: 85 15        	sta	$15                     ; 0x15 <__rc5>
    2def: a5 19        	lda	$19                     ; 0x19 <__rc9>
    2df1: 18           	clc
    2df2: 65 14        	adc	$14                     ; 0x14 <__rc4>
    2df4: 85 16        	sta	$16                     ; 0x16 <__rc6>
    2df6: 8a           	txa
    2df7: 65 15        	adc	$15                     ; 0x15 <__rc5>
    2df9: 5a           	phy
    2dfa: a4 16        	ldy	$16                     ; 0x16 <__rc6>
    2dfc: 84 14        	sty	$14                     ; 0x14 <__rc4>
    2dfe: 7a           	ply
    2dff: 85 15        	sta	$15                     ; 0x15 <__rc5>
    2e01: 85 17        	sta	$17                     ; 0x17 <__rc7>
    2e03: 18           	clc
    2e04: a5 16        	lda	$16                     ; 0x16 <__rc6>
    2e06: 69 09        	adc	#$9
    2e08: 85 16        	sta	$16                     ; 0x16 <__rc6>
    2e0a: a5 17        	lda	$17                     ; 0x17 <__rc7>
    2e0c: 69 00        	adc	#$0
    2e0e: 85 17        	sta	$17                     ; 0x17 <__rc7>
    2e10: 84 1a        	sty	$1a                     ; 0x1a <__rc10>
    2e12: a0 09        	ldy	#$9
    2e14: b1 14        	lda	($14),y                 ; 0x14 <__rc4>
    2e16: 85 14        	sta	$14                     ; 0x14 <__rc4>
    2e18: a0 01        	ldy	#$1
    2e1a: b1 16        	lda	($16),y                 ; 0x16 <__rc6>
    2e1c: 85 15        	sta	$15                     ; 0x15 <__rc5>
    2e1e: a9 00        	lda	#$0
    2e20: a4 1a        	ldy	$1a                     ; 0x1a <__rc10>
    2e22: 91 14        	sta	($14),y                 ; 0x14 <__rc4>
    2e24: a0 08        	ldy	#$8
    2e26: b1 12        	lda	($12),y                 ; 0x12 <__rc2>
    2e28: 85 14        	sta	$14                     ; 0x14 <__rc4>
    2e2a: 0a           	asl
    2e2b: 64 16        	stz	$16                     ; 0x16 <__rc6>
    2e2d: 26 16        	rol	$16                     ; 0x16 <__rc6>
    2e2f: 0a           	asl
    2e30: 26 16        	rol	$16                     ; 0x16 <__rc6>
    2e32: 0a           	asl
    2e33: 26 16        	rol	$16                     ; 0x16 <__rc6>
    2e35: 0a           	asl
    2e36: 26 16        	rol	$16                     ; 0x16 <__rc6>
    2e38: 38           	sec
    2e39: e5 14        	sbc	$14                     ; 0x14 <__rc4>
    2e3b: 85 15        	sta	$15                     ; 0x15 <__rc5>
    2e3d: a5 16        	lda	$16                     ; 0x16 <__rc6>
    2e3f: e9 00        	sbc	#$0
    2e41: 85 16        	sta	$16                     ; 0x16 <__rc6>
    2e43: a5 19        	lda	$19                     ; 0x19 <__rc9>
    2e45: 18           	clc
    2e46: 65 15        	adc	$15                     ; 0x15 <__rc5>
    2e48: a8           	tay
    2e49: 8a           	txa
    2e4a: 65 16        	adc	$16                     ; 0x16 <__rc6>
    2e4c: 85 17        	sta	$17                     ; 0x17 <__rc7>
    2e4e: 84 16        	sty	$16                     ; 0x16 <__rc6>
    2e50: a4 1a        	ldy	$1a                     ; 0x1a <__rc10>
    2e52: c8           	iny
    2e53: 98           	tya
    2e54: a0 04        	ldy	#$4
    2e56: d1 16        	cmp	($16),y                 ; 0x16 <__rc6>
    2e58: 64 15        	stz	$15                     ; 0x15 <__rc5>
    2e5a: a8           	tay
    2e5b: b0 03        	bcs	$2e60 <f256main+0x254c>
    2e5d: 4c d4 2d     	jmp	$2dd4 <f256main+0x24c0>
    2e60: 4c 7c 2a     	jmp	$2a7c <f256main+0x2168>
    2e63: 64 14        	stz	$14                     ; 0x14 <__rc4>
    2e65: 64 15        	stz	$15                     ; 0x15 <__rc5>
    2e67: a0 09        	ldy	#$9
    2e69: b1 12        	lda	($12),y                 ; 0x12 <__rc2>
    2e6b: a2 00        	ldx	#$0
    2e6d: e4 15        	cpx	$15                     ; 0x15 <__rc5>
    2e6f: d0 08        	bne	$2e79 <f256main+0x2565>
    2e71: aa           	tax
    2e72: a5 14        	lda	$14                     ; 0x14 <__rc4>
    2e74: 49 ff        	eor	#$ff
    2e76: 85 15        	sta	$15                     ; 0x15 <__rc5>
    2e78: 8a           	txa
    2e79: e4 15        	cpx	$15                     ; 0x15 <__rc5>
    2e7b: 90 03        	bcc	$2e80 <f256main+0x256c>
    2e7d: 4c 7c 2a     	jmp	$2a7c <f256main+0x2168>
    2e80: 18           	clc
    2e81: 65 14        	adc	$14                     ; 0x14 <__rc4>
    2e83: 1a           	inc
    2e84: 91 12        	sta	($12),y                 ; 0x12 <__rc2>
    2e86: 20 93 3f     	jsr	$3f93 <prepTempoLUT>
    2e89: a6 6a        	ldx	$6a                     ; 0x6a <gPtr>
    2e8b: a4 6b        	ldy	$6b                     ; 0x6b <gPtr+0x1>
    2e8d: 86 12        	stx	$12                     ; 0x12 <__rc2>
    2e8f: 84 13        	sty	$13                     ; 0x13 <__rc3>
    2e91: a0 09        	ldy	#$9
    2e93: b1 12        	lda	($12),y                 ; 0x12 <__rc2>
    2e95: 20 2a 49     	jsr	$492a <updateTempoText>
    2e98: a2 b0        	ldx	#$b0
    2e9a: 8e b1 dd     	stx	$ddb1                   ; 0xddb1 <__heap_start+0x5759>
    2e9d: a0 7b        	ldy	#$7b
    2e9f: 8c b1 dd     	sty	$ddb1                   ; 0xddb1 <__heap_start+0x5759>
    2ea2: 9c b1 dd     	stz	$ddb1                   ; 0xddb1 <__heap_start+0x5759>
    2ea5: 8e a1 dd     	stx	$dda1                   ; 0xdda1 <__heap_start+0x5749>
    2ea8: 8c a1 dd     	sty	$dda1                   ; 0xdda1 <__heap_start+0x5749>
    2eab: 9c a1 dd     	stz	$dda1                   ; 0xdda1 <__heap_start+0x5749>
    2eae: e8           	inx
    2eaf: 8e b1 dd     	stx	$ddb1                   ; 0xddb1 <__heap_start+0x5759>
    2eb2: 8c b1 dd     	sty	$ddb1                   ; 0xddb1 <__heap_start+0x5759>
    2eb5: 9c b1 dd     	stz	$ddb1                   ; 0xddb1 <__heap_start+0x5759>
    2eb8: 8e a1 dd     	stx	$dda1                   ; 0xdda1 <__heap_start+0x5749>
    2ebb: 8c a1 dd     	sty	$dda1                   ; 0xdda1 <__heap_start+0x5749>
    2ebe: 9c a1 dd     	stz	$dda1                   ; 0xdda1 <__heap_start+0x5749>
    2ec1: a2 b9        	ldx	#$b9
    2ec3: 8e b1 dd     	stx	$ddb1                   ; 0xddb1 <__heap_start+0x5759>
    2ec6: 8c b1 dd     	sty	$ddb1                   ; 0xddb1 <__heap_start+0x5759>
    2ec9: 9c b1 dd     	stz	$ddb1                   ; 0xddb1 <__heap_start+0x5759>
    2ecc: 8e a1 dd     	stx	$dda1                   ; 0xdda1 <__heap_start+0x5749>
    2ecf: 8c a1 dd     	sty	$dda1                   ; 0xdda1 <__heap_start+0x5749>
    2ed2: 9c a1 dd     	stz	$dda1                   ; 0xdda1 <__heap_start+0x5749>
    2ed5: a6 7e        	ldx	$7e                     ; 0x7e <theBeats>
    2ed7: 86 18        	stx	$18                     ; 0x18 <__rc8>
    2ed9: a6 7f        	ldx	$7f                     ; 0x7f <theBeats+0x1>
    2edb: a5 6a        	lda	$6a                     ; 0x6a <gPtr>
    2edd: a4 6b        	ldy	$6b                     ; 0x6b <gPtr+0x1>
    2edf: 85 12        	sta	$12                     ; 0x12 <__rc2>
    2ee1: 84 13        	sty	$13                     ; 0x13 <__rc3>
    2ee3: a0 08        	ldy	#$8
    2ee5: b1 12        	lda	($12),y                 ; 0x12 <__rc2>
    2ee7: 85 14        	sta	$14                     ; 0x14 <__rc4>
    2ee9: 64 15        	stz	$15                     ; 0x15 <__rc5>
    2eeb: 0a           	asl
    2eec: 64 17        	stz	$17                     ; 0x17 <__rc7>
    2eee: 26 17        	rol	$17                     ; 0x17 <__rc7>
    2ef0: 0a           	asl
    2ef1: 26 17        	rol	$17                     ; 0x17 <__rc7>
    2ef3: 0a           	asl
    2ef4: 26 17        	rol	$17                     ; 0x17 <__rc7>
    2ef6: 0a           	asl
    2ef7: 26 17        	rol	$17                     ; 0x17 <__rc7>
    2ef9: 38           	sec
    2efa: e5 14        	sbc	$14                     ; 0x14 <__rc4>
    2efc: 85 16        	sta	$16                     ; 0x16 <__rc6>
    2efe: a5 17        	lda	$17                     ; 0x17 <__rc7>
    2f00: e9 00        	sbc	#$0
    2f02: 85 17        	sta	$17                     ; 0x17 <__rc7>
    2f04: a4 18        	ldy	$18                     ; 0x18 <__rc8>
    2f06: 84 19        	sty	$19                     ; 0x19 <__rc9>
    2f08: a5 18        	lda	$18                     ; 0x18 <__rc8>
    2f0a: 18           	clc
    2f0b: 65 16        	adc	$16                     ; 0x16 <__rc6>
    2f0d: 85 16        	sta	$16                     ; 0x16 <__rc6>
    2f0f: 8a           	txa
    2f10: 65 17        	adc	$17                     ; 0x17 <__rc7>
    2f12: 85 17        	sta	$17                     ; 0x17 <__rc7>
    2f14: a0 04        	ldy	#$4
    2f16: b1 16        	lda	($16),y                 ; 0x16 <__rc6>
    2f18: d0 03        	bne	$2f1d <f256main+0x2609>
    2f1a: 4c 7c 2a     	jmp	$2a7c <f256main+0x2168>
    2f1d: a0 00        	ldy	#$0
    2f1f: a5 14        	lda	$14                     ; 0x14 <__rc4>
    2f21: 0a           	asl
    2f22: 64 16        	stz	$16                     ; 0x16 <__rc6>
    2f24: 26 16        	rol	$16                     ; 0x16 <__rc6>
    2f26: 0a           	asl
    2f27: 26 16        	rol	$16                     ; 0x16 <__rc6>
    2f29: 0a           	asl
    2f2a: 26 16        	rol	$16                     ; 0x16 <__rc6>
    2f2c: 0a           	asl
    2f2d: 26 16        	rol	$16                     ; 0x16 <__rc6>
    2f2f: 38           	sec
    2f30: e5 14        	sbc	$14                     ; 0x14 <__rc4>
    2f32: 85 14        	sta	$14                     ; 0x14 <__rc4>
    2f34: a5 16        	lda	$16                     ; 0x16 <__rc6>
    2f36: e5 15        	sbc	$15                     ; 0x15 <__rc5>
    2f38: 85 15        	sta	$15                     ; 0x15 <__rc5>
    2f3a: a5 19        	lda	$19                     ; 0x19 <__rc9>
    2f3c: 18           	clc
    2f3d: 65 14        	adc	$14                     ; 0x14 <__rc4>
    2f3f: 85 16        	sta	$16                     ; 0x16 <__rc6>
    2f41: 8a           	txa
    2f42: 65 15        	adc	$15                     ; 0x15 <__rc5>
    2f44: 5a           	phy
    2f45: a4 16        	ldy	$16                     ; 0x16 <__rc6>
    2f47: 84 14        	sty	$14                     ; 0x14 <__rc4>
    2f49: 7a           	ply
    2f4a: 85 15        	sta	$15                     ; 0x15 <__rc5>
    2f4c: 85 17        	sta	$17                     ; 0x17 <__rc7>
    2f4e: 18           	clc
    2f4f: a5 16        	lda	$16                     ; 0x16 <__rc6>
    2f51: 69 09        	adc	#$9
    2f53: 85 16        	sta	$16                     ; 0x16 <__rc6>
    2f55: a5 17        	lda	$17                     ; 0x17 <__rc7>
    2f57: 69 00        	adc	#$0
    2f59: 85 17        	sta	$17                     ; 0x17 <__rc7>
    2f5b: 84 1a        	sty	$1a                     ; 0x1a <__rc10>
    2f5d: a0 09        	ldy	#$9
    2f5f: b1 14        	lda	($14),y                 ; 0x14 <__rc4>
    2f61: 85 14        	sta	$14                     ; 0x14 <__rc4>
    2f63: a0 01        	ldy	#$1
    2f65: b1 16        	lda	($16),y                 ; 0x16 <__rc6>
    2f67: 85 15        	sta	$15                     ; 0x15 <__rc5>
    2f69: a9 00        	lda	#$0
    2f6b: a4 1a        	ldy	$1a                     ; 0x1a <__rc10>
    2f6d: 91 14        	sta	($14),y                 ; 0x14 <__rc4>
    2f6f: a0 08        	ldy	#$8
    2f71: b1 12        	lda	($12),y                 ; 0x12 <__rc2>
    2f73: 85 14        	sta	$14                     ; 0x14 <__rc4>
    2f75: 0a           	asl
    2f76: 64 16        	stz	$16                     ; 0x16 <__rc6>
    2f78: 26 16        	rol	$16                     ; 0x16 <__rc6>
    2f7a: 0a           	asl
    2f7b: 26 16        	rol	$16                     ; 0x16 <__rc6>
    2f7d: 0a           	asl
    2f7e: 26 16        	rol	$16                     ; 0x16 <__rc6>
    2f80: 0a           	asl
    2f81: 26 16        	rol	$16                     ; 0x16 <__rc6>
    2f83: 38           	sec
    2f84: e5 14        	sbc	$14                     ; 0x14 <__rc4>
    2f86: 85 15        	sta	$15                     ; 0x15 <__rc5>
    2f88: a5 16        	lda	$16                     ; 0x16 <__rc6>
    2f8a: e9 00        	sbc	#$0
    2f8c: 85 16        	sta	$16                     ; 0x16 <__rc6>
    2f8e: a5 19        	lda	$19                     ; 0x19 <__rc9>
    2f90: 18           	clc
    2f91: 65 15        	adc	$15                     ; 0x15 <__rc5>
    2f93: a8           	tay
    2f94: 8a           	txa
    2f95: 65 16        	adc	$16                     ; 0x16 <__rc6>
    2f97: 85 17        	sta	$17                     ; 0x17 <__rc7>
    2f99: 84 16        	sty	$16                     ; 0x16 <__rc6>
    2f9b: a4 1a        	ldy	$1a                     ; 0x1a <__rc10>
    2f9d: c8           	iny
    2f9e: 98           	tya
    2f9f: a0 04        	ldy	#$4
    2fa1: d1 16        	cmp	($16),y                 ; 0x16 <__rc6>
    2fa3: 64 15        	stz	$15                     ; 0x15 <__rc5>
    2fa5: a8           	tay
    2fa6: b0 03        	bcs	$2fab <f256main+0x2697>
    2fa8: 4c 1f 2f     	jmp	$2f1f <f256main+0x260b>
    2fab: 4c 7c 2a     	jmp	$2a7c <f256main+0x2168>

00002fae <textPrint>:
    2fae: a6 01        	ldx	$1                      ; 0x1 <__data_size+0x1>
    2fb0: 86 ed        	stx	$ed                     ; 0xed <__zp_bss_size+0x93>
    2fb2: a6 34        	ldx	$34                     ; 0x34 <_row>
    2fb4: a0 50        	ldy	#$50
    2fb6: 8c 00 de     	sty	$de00                   ; 0xde00 <__heap_start+0x57a8>
    2fb9: 9c 01 de     	stz	$de01                   ; 0xde01 <__heap_start+0x57a9>
    2fbc: 8e 02 de     	stx	$de02                   ; 0xde02 <__heap_start+0x57aa>
    2fbf: 9c 03 de     	stz	$de03                   ; 0xde03 <__heap_start+0x57ab>
    2fc2: ae 10 de     	ldx	$de10                   ; 0xde10 <__heap_start+0x57b8>
    2fc5: ac 11 de     	ldy	$de11                   ; 0xde11 <__heap_start+0x57b9>
    2fc8: 84 15        	sty	$15                     ; 0x15 <__rc5>
    2fca: ad 12 de     	lda	$de12                   ; 0xde12 <__heap_start+0x57ba>
    2fcd: ac 13 de     	ldy	$de13                   ; 0xde13 <__heap_start+0x57bb>
    2fd0: 84 1c        	sty	$1c                     ; 0x1c <__rc12>
    2fd2: 9c 08 de     	stz	$de08                   ; 0xde08 <__heap_start+0x57b0>
    2fd5: a0 c0        	ldy	#$c0
    2fd7: 8c 09 de     	sty	$de09                   ; 0xde09 <__heap_start+0x57b1>
    2fda: 9c 0a de     	stz	$de0a                   ; 0xde0a <__heap_start+0x57b2>
    2fdd: 9c 0b de     	stz	$de0b                   ; 0xde0b <__heap_start+0x57b3>
    2fe0: 8e 0c de     	stx	$de0c                   ; 0xde0c <__heap_start+0x57b4>
    2fe3: 64 14        	stz	$14                     ; 0x14 <__rc4>
    2fe5: a2 00        	ldx	#$0
    2fe7: 86 16        	stx	$16                     ; 0x16 <__rc6>
    2fe9: a2 c0        	ldx	#$c0
    2feb: 86 17        	stx	$17                     ; 0x17 <__rc7>
    2fed: a2 11        	ldx	#$11
    2fef: 86 18        	stx	$18                     ; 0x18 <__rc8>
    2ff1: a2 c9        	ldx	#$c9
    2ff3: 86 19        	stx	$19                     ; 0x19 <__rc9>
    2ff5: a2 10        	ldx	#$10
    2ff7: 86 1a        	stx	$1a                     ; 0x1a <__rc10>
    2ff9: a2 c9        	ldx	#$c9
    2ffb: 86 1b        	stx	$1b                     ; 0x1b <__rc11>
    2ffd: a6 15        	ldx	$15                     ; 0x15 <__rc5>
    2fff: 8e 0d de     	stx	$de0d                   ; 0xde0d <__heap_start+0x57b5>
    3002: 8d 0e de     	sta	$de0e                   ; 0xde0e <__heap_start+0x57b6>
    3005: a6 1c        	ldx	$1c                     ; 0x1c <__rc12>
    3007: 8e 0f de     	stx	$de0f                   ; 0xde0f <__heap_start+0x57b7>
    300a: ac 18 de     	ldy	$de18                   ; 0xde18 <__heap_start+0x57c0>
    300d: ad 19 de     	lda	$de19                   ; 0xde19 <__heap_start+0x57c1>
    3010: ae 1a de     	ldx	$de1a                   ; 0xde1a <__heap_start+0x57c2>
    3013: ae 1b de     	ldx	$de1b                   ; 0xde1b <__heap_start+0x57c3>
    3016: 84 1c        	sty	$1c                     ; 0x1c <__rc12>
    3018: 85 1d        	sta	$1d                     ; 0x1d <__rc13>
    301a: 64 15        	stz	$15                     ; 0x15 <__rc5>
    301c: 80 13        	bra	$3031 <textPrint+0x83>
    301e: a5 1c        	lda	$1c                     ; 0x1c <__rc12>
    3020: 18           	clc
    3021: 69 50        	adc	#$50
    3023: 85 1c        	sta	$1c                     ; 0x1c <__rc12>
    3025: a5 1d        	lda	$1d                     ; 0x1d <__rc13>
    3027: 69 00        	adc	#$0
    3029: 85 1d        	sta	$1d                     ; 0x1d <__rc13>
    302b: e6 14        	inc	$14                     ; 0x14 <__rc4>
    302d: d0 02        	bne	$3031 <textPrint+0x83>
    302f: e6 15        	inc	$15                     ; 0x15 <__rc5>
    3031: a5 12        	lda	$12                     ; 0x12 <__rc2>
    3033: 18           	clc
    3034: 65 14        	adc	$14                     ; 0x14 <__rc4>
    3036: 85 1e        	sta	$1e                     ; 0x1e <__rc14>
    3038: a5 13        	lda	$13                     ; 0x13 <__rc3>
    303a: 65 15        	adc	$15                     ; 0x15 <__rc5>
    303c: 85 1f        	sta	$1f                     ; 0x1f <__rc15>
    303e: b2 1e        	lda	($1e)                   ; 0x1e <__rc14>
    3040: c9 0a        	cmp	#$a
    3042: f0 26        	beq	$306a <textPrint+0xbc>
    3044: c9 0d        	cmp	#$d
    3046: f0 22        	beq	$306a <textPrint+0xbc>
    3048: aa           	tax
    3049: d0 03        	bne	$304e <textPrint+0xa0>
    304b: 4c 4f 31     	jmp	$314f <textPrint+0x1a1>
    304e: a2 03        	ldx	#$3
    3050: 86 01        	stx	$1                      ; 0x1 <__data_size+0x1>
    3052: a5 30        	lda	$30                     ; 0x30 <_ccolor>
    3054: a4 33        	ldy	$33                     ; 0x33 <_col>
    3056: 91 1c        	sta	($1c),y                 ; 0x1c <__rc12>
    3058: ca           	dex
    3059: 86 01        	stx	$1                      ; 0x1 <__data_size+0x1>
    305b: b2 1e        	lda	($1e)                   ; 0x1e <__rc14>
    305d: a4 33        	ldy	$33                     ; 0x33 <_col>
    305f: 91 1c        	sta	($1c),y                 ; 0x1c <__rc12>
    3061: a6 33        	ldx	$33                     ; 0x33 <_col>
    3063: e8           	inx
    3064: e6 33        	inc	$33                     ; 0x33 <_col>
    3066: e0 50        	cpx	#$50
    3068: d0 c1        	bne	$302b <textPrint+0x7d>
    306a: 64 33        	stz	$33                     ; 0x33 <_col>
    306c: a6 34        	ldx	$34                     ; 0x34 <_row>
    306e: e8           	inx
    306f: e6 34        	inc	$34                     ; 0x34 <_row>
    3071: e0 1e        	cpx	#$1e
    3073: f0 03        	beq	$3078 <textPrint+0xca>
    3075: 4c 1e 30     	jmp	$301e <textPrint+0x70>
    3078: a2 03        	ldx	#$3
    307a: 86 01        	stx	$1                      ; 0x1 <__data_size+0x1>
    307c: a2 01        	ldx	#$1
    307e: 86 1c        	stx	$1c                     ; 0x1c <__rc12>
    3080: a2 09        	ldx	#$9
    3082: a9 10        	lda	#$10
    3084: a0 00        	ldy	#$0
    3086: 84 1e        	sty	$1e                     ; 0x1e <__rc14>
    3088: a0 c0        	ldy	#$c0
    308a: 84 1f        	sty	$1f                     ; 0x1f <__rc15>
    308c: 85 1d        	sta	$1d                     ; 0x1d <__rc13>
    308e: a0 50        	ldy	#$50
    3090: b1 1e        	lda	($1e),y                 ; 0x1e <__rc14>
    3092: 92 1e        	sta	($1e)                   ; 0x1e <__rc14>
    3094: a9 ff        	lda	#$ff
    3096: c6 1d        	dec	$1d                     ; 0x1d <__rc13>
    3098: c5 1d        	cmp	$1d                     ; 0x1d <__rc13>
    309a: d0 01        	bne	$309d <textPrint+0xef>
    309c: ca           	dex
    309d: e6 1e        	inc	$1e                     ; 0x1e <__rc14>
    309f: d0 02        	bne	$30a3 <textPrint+0xf5>
    30a1: e6 1f        	inc	$1f                     ; 0x1f <__rc15>
    30a3: 8a           	txa
    30a4: d0 ea        	bne	$3090 <textPrint+0xe2>
    30a6: a5 1d        	lda	$1d                     ; 0x1d <__rc13>
    30a8: d0 e6        	bne	$3090 <textPrint+0xe2>
    30aa: a2 02        	ldx	#$2
    30ac: 86 01        	stx	$1                      ; 0x1 <__data_size+0x1>
    30ae: a2 00        	ldx	#$0
    30b0: a5 1c        	lda	$1c                     ; 0x1c <__rc12>
    30b2: d0 ca        	bne	$307e <textPrint+0xd0>
    30b4: a2 03        	ldx	#$3
    30b6: 86 01        	stx	$1                      ; 0x1 <__data_size+0x1>
    30b8: a5 30        	lda	$30                     ; 0x30 <_ccolor>
    30ba: a2 50        	ldx	#$50
    30bc: a0 11        	ldy	#$11
    30be: 84 1c        	sty	$1c                     ; 0x1c <__rc12>
    30c0: a0 c9        	ldy	#$c9
    30c2: 84 1d        	sty	$1d                     ; 0x1d <__rc13>
    30c4: a0 10        	ldy	#$10
    30c6: 84 1e        	sty	$1e                     ; 0x1e <__rc14>
    30c8: a0 c9        	ldy	#$c9
    30ca: 84 1f        	sty	$1f                     ; 0x1f <__rc15>
    30cc: a4 1c        	ldy	$1c                     ; 0x1c <__rc12>
    30ce: 84 22        	sty	$22                     ; 0x22 <__rc18>
    30d0: a4 1d        	ldy	$1d                     ; 0x1d <__rc13>
    30d2: 84 23        	sty	$23                     ; 0x23 <__rc19>
    30d4: 92 1e        	sta	($1e)                   ; 0x1e <__rc14>
    30d6: e6 1c        	inc	$1c                     ; 0x1c <__rc12>
    30d8: d0 02        	bne	$30dc <textPrint+0x12e>
    30da: e6 1d        	inc	$1d                     ; 0x1d <__rc13>
    30dc: ca           	dex
    30dd: a4 22        	ldy	$22                     ; 0x22 <__rc18>
    30df: 84 1e        	sty	$1e                     ; 0x1e <__rc14>
    30e1: a4 23        	ldy	$23                     ; 0x23 <__rc19>
    30e3: 84 1f        	sty	$1f                     ; 0x1f <__rc15>
    30e5: e0 00        	cpx	#$0
    30e7: d0 e3        	bne	$30cc <textPrint+0x11e>
    30e9: a2 02        	ldx	#$2
    30eb: 86 01        	stx	$1                      ; 0x1 <__data_size+0x1>
    30ed: a2 50        	ldx	#$50
    30ef: a0 11        	ldy	#$11
    30f1: 84 1c        	sty	$1c                     ; 0x1c <__rc12>
    30f3: a0 c9        	ldy	#$c9
    30f5: 84 1d        	sty	$1d                     ; 0x1d <__rc13>
    30f7: a0 10        	ldy	#$10
    30f9: 84 1e        	sty	$1e                     ; 0x1e <__rc14>
    30fb: a0 c9        	ldy	#$c9
    30fd: 84 1f        	sty	$1f                     ; 0x1f <__rc15>
    30ff: a9 20        	lda	#$20
    3101: a4 1c        	ldy	$1c                     ; 0x1c <__rc12>
    3103: 84 22        	sty	$22                     ; 0x22 <__rc18>
    3105: a4 1d        	ldy	$1d                     ; 0x1d <__rc13>
    3107: 84 23        	sty	$23                     ; 0x23 <__rc19>
    3109: 92 1e        	sta	($1e)                   ; 0x1e <__rc14>
    310b: e6 1c        	inc	$1c                     ; 0x1c <__rc12>
    310d: d0 02        	bne	$3111 <textPrint+0x163>
    310f: e6 1d        	inc	$1d                     ; 0x1d <__rc13>
    3111: ca           	dex
    3112: a4 22        	ldy	$22                     ; 0x22 <__rc18>
    3114: 84 1e        	sty	$1e                     ; 0x1e <__rc14>
    3116: a4 23        	ldy	$23                     ; 0x23 <__rc19>
    3118: 84 1f        	sty	$1f                     ; 0x1f <__rc15>
    311a: e0 00        	cpx	#$0
    311c: d0 e3        	bne	$3101 <textPrint+0x153>
    311e: c6 34        	dec	$34                     ; 0x34 <_row>
    3120: 9c 08 de     	stz	$de08                   ; 0xde08 <__heap_start+0x57b0>
    3123: a2 c0        	ldx	#$c0
    3125: 8e 09 de     	stx	$de09                   ; 0xde09 <__heap_start+0x57b1>
    3128: 9c 0a de     	stz	$de0a                   ; 0xde0a <__heap_start+0x57b2>
    312b: 9c 0b de     	stz	$de0b                   ; 0xde0b <__heap_start+0x57b3>
    312e: a2 1d        	ldx	#$1d
    3130: 8e 0c de     	stx	$de0c                   ; 0xde0c <__heap_start+0x57b4>
    3133: 9c 0d de     	stz	$de0d                   ; 0xde0d <__heap_start+0x57b5>
    3136: 9c 0e de     	stz	$de0e                   ; 0xde0e <__heap_start+0x57b6>
    3139: 9c 0f de     	stz	$de0f                   ; 0xde0f <__heap_start+0x57b7>
    313c: ae 18 de     	ldx	$de18                   ; 0xde18 <__heap_start+0x57c0>
    313f: ac 19 de     	ldy	$de19                   ; 0xde19 <__heap_start+0x57c1>
    3142: ad 1a de     	lda	$de1a                   ; 0xde1a <__heap_start+0x57c2>
    3145: ad 1b de     	lda	$de1b                   ; 0xde1b <__heap_start+0x57c3>
    3148: 86 1c        	stx	$1c                     ; 0x1c <__rc12>
    314a: 84 1d        	sty	$1d                     ; 0x1d <__rc13>
    314c: 4c 2b 30     	jmp	$302b <textPrint+0x7d>
    314f: a6 ed        	ldx	$ed                     ; 0xed <__zp_bss_size+0x93>
    3151: 86 01        	stx	$1                      ; 0x1 <__data_size+0x1>
    3153: a6 33        	ldx	$33                     ; 0x33 <_col>
    3155: a4 34        	ldy	$34                     ; 0x34 <_row>
    3157: 8e 14 d0     	stx	$d014                   ; 0xd014 <__heap_start+0x49bc>
    315a: 9c 15 d0     	stz	$d015                   ; 0xd015 <__heap_start+0x49bd>
    315d: 84 34        	sty	$34                     ; 0x34 <_row>
    315f: 8c 16 d0     	sty	$d016                   ; 0xd016 <__heap_start+0x49be>
    3162: 9c 17 d0     	stz	$d017                   ; 0xd017 <__heap_start+0x49bf>
    3165: 60           	rts

00003166 <dispatchNote>:
    3166: 86 1b        	stx	$1b                     ; 0x1b <__rc11>
    3168: a6 12        	ldx	$12                     ; 0x12 <__rc2>
    316a: 86 1a        	stx	$1a                     ; 0x1a <__rc10>
    316c: a4 15        	ldy	$15                     ; 0x15 <__rc5>
    316e: aa           	tax
    316f: f0 07        	beq	$3178 <dispatchNote+0x12>
    3171: a6 1a        	ldx	$1a                     ; 0x1a <__rc10>
    3173: d0 03        	bne	$3178 <dispatchNote+0x12>
    3175: 4c dc 34     	jmp	$34dc <dispatchNote+0x376>
    3178: c0 05        	cpy	#$5
    317a: 90 03        	bcc	$317f <dispatchNote+0x19>
    317c: 4c dc 34     	jmp	$34dc <dispatchNote+0x376>
    317f: 84 12        	sty	$12                     ; 0x12 <__rc2>
    3181: 06 12        	asl	$12                     ; 0x12 <__rc2>
    3183: a6 12        	ldx	$12                     ; 0x12 <__rc2>
    3185: 7c b7 75     	jmp	($75b7,x)               ; 0x75b7 <__set_v+0x17>
    3188: a2 b1        	ldx	#$b1
    318a: 86 1c        	stx	$1c                     ; 0x1c <__rc12>
    318c: a2 dd        	ldx	#$dd
    318e: 86 1d        	stx	$1d                     ; 0x1d <__rc13>
    3190: a2 a1        	ldx	#$a1
    3192: 86 18        	stx	$18                     ; 0x18 <__rc8>
    3194: a2 dd        	ldx	#$dd
    3196: 86 19        	stx	$19                     ; 0x19 <__rc9>
    3198: aa           	tax
    3199: d0 03        	bne	$319e <dispatchNote+0x38>
    319b: 4c 2f 32     	jmp	$322f <dispatchNote+0xc9>
    319e: c0 04        	cpy	#$4
    31a0: f0 03        	beq	$31a5 <dispatchNote+0x3f>
    31a2: 4c 53 32     	jmp	$3253 <dispatchNote+0xed>
    31a5: a5 1b        	lda	$1b                     ; 0x1b <__rc11>
    31a7: 09 90        	ora	#$90
    31a9: 8d b1 dd     	sta	$ddb1                   ; 0xddb1 <__heap_start+0x5759>
    31ac: a6 1a        	ldx	$1a                     ; 0x1a <__rc10>
    31ae: 8e b1 dd     	stx	$ddb1                   ; 0xddb1 <__heap_start+0x5759>
    31b1: a6 13        	ldx	$13                     ; 0x13 <__rc3>
    31b3: 86 15        	stx	$15                     ; 0x15 <__rc5>
    31b5: 8e b1 dd     	stx	$ddb1                   ; 0xddb1 <__heap_start+0x5759>
    31b8: a6 6a        	ldx	$6a                     ; 0x6a <gPtr>
    31ba: a4 6b        	ldy	$6b                     ; 0x6b <gPtr+0x1>
    31bc: 86 16        	stx	$16                     ; 0x16 <__rc6>
    31be: 84 17        	sty	$17                     ; 0x17 <__rc7>
    31c0: a0 07        	ldy	#$7
    31c2: b1 16        	lda	($16),y                 ; 0x16 <__rc6>
    31c4: a2 b1        	ldx	#$b1
    31c6: 86 18        	stx	$18                     ; 0x18 <__rc8>
    31c8: a2 dd        	ldx	#$dd
    31ca: 86 19        	stx	$19                     ; 0x19 <__rc9>
    31cc: aa           	tax
    31cd: f0 03        	beq	$31d2 <dispatchNote+0x6c>
    31cf: 4c eb 33     	jmp	$33eb <dispatchNote+0x285>
    31d2: 4c f7 33     	jmp	$33f7 <dispatchNote+0x291>
    31d5: aa           	tax
    31d6: d0 03        	bne	$31db <dispatchNote+0x75>
    31d8: 4c 8a 32     	jmp	$328a <dispatchNote+0x124>
    31db: a5 16        	lda	$16                     ; 0x16 <__rc6>
    31dd: d0 03        	bne	$31e2 <dispatchNote+0x7c>
    31df: 4c 6e 33     	jmp	$336e <dispatchNote+0x208>
    31e2: a5 1b        	lda	$1b                     ; 0x1b <__rc11>
    31e4: a6 1b        	ldx	$1b                     ; 0x1b <__rc11>
    31e6: c9 ff        	cmp	#$ff
    31e8: f0 03        	beq	$31ed <dispatchNote+0x87>
    31ea: 4c 82 33     	jmp	$3382 <dispatchNote+0x21c>
    31ed: 4c dc 34     	jmp	$34dc <dispatchNote+0x376>
    31f0: aa           	tax
    31f1: d0 03        	bne	$31f6 <dispatchNote+0x90>
    31f3: 4c 19 33     	jmp	$3319 <dispatchNote+0x1b3>
    31f6: a5 16        	lda	$16                     ; 0x16 <__rc6>
    31f8: d0 03        	bne	$31fd <dispatchNote+0x97>
    31fa: 4c 8f 33     	jmp	$338f <dispatchNote+0x229>
    31fd: a4 1b        	ldy	$1b                     ; 0x1b <__rc11>
    31ff: a6 1b        	ldx	$1b                     ; 0x1b <__rc11>
    3201: a5 1a        	lda	$1a                     ; 0x1a <__rc10>
    3203: 9d 43 00     	sta	$43,x                   ; 0x43 <polySIDBuffer>
    3206: a5 1b        	lda	$1b                     ; 0x1b <__rc11>
    3208: 30 03        	bmi	$320d <dispatchNote+0xa7>
    320a: 4c 01 34     	jmp	$3401 <dispatchNote+0x29b>
    320d: a2 ff        	ldx	#$ff
    320f: 86 12        	stx	$12                     ; 0x12 <__rc2>
    3211: 4c 03 34     	jmp	$3403 <dispatchNote+0x29d>
    3214: aa           	tax
    3215: d0 03        	bne	$321a <dispatchNote+0xb4>
    3217: 4c 29 33     	jmp	$3329 <dispatchNote+0x1c3>
    321a: a5 16        	lda	$16                     ; 0x16 <__rc6>
    321c: d0 03        	bne	$3221 <dispatchNote+0xbb>
    321e: 4c ac 33     	jmp	$33ac <dispatchNote+0x246>
    3221: a6 1b        	ldx	$1b                     ; 0x1b <__rc11>
    3223: 86 12        	stx	$12                     ; 0x12 <__rc2>
    3225: e0 ff        	cpx	#$ff
    3227: f0 03        	beq	$322c <dispatchNote+0xc6>
    3229: 4c c2 33     	jmp	$33c2 <dispatchNote+0x25c>
    322c: 4c dc 34     	jmp	$34dc <dispatchNote+0x376>
    322f: c0 04        	cpy	#$4
    3231: f0 03        	beq	$3236 <dispatchNote+0xd0>
    3233: 4c 46 33     	jmp	$3346 <dispatchNote+0x1e0>
    3236: 84 12        	sty	$12                     ; 0x12 <__rc2>
    3238: a5 1b        	lda	$1b                     ; 0x1b <__rc11>
    323a: 09 80        	ora	#$80
    323c: 8d b1 dd     	sta	$ddb1                   ; 0xddb1 <__heap_start+0x5759>
    323f: a6 1a        	ldx	$1a                     ; 0x1a <__rc10>
    3241: 8e b1 dd     	stx	$ddb1                   ; 0xddb1 <__heap_start+0x5759>
    3244: a6 13        	ldx	$13                     ; 0x13 <__rc3>
    3246: 8e b1 dd     	stx	$ddb1                   ; 0xddb1 <__heap_start+0x5759>
    3249: a5 14        	lda	$14                     ; 0x14 <__rc4>
    324b: f0 03        	beq	$3250 <dispatchNote+0xea>
    324d: 4c 62 33     	jmp	$3362 <dispatchNote+0x1fc>
    3250: 4c 07 36     	jmp	$3607 <dispatchNote+0x4a1>
    3253: a5 1b        	lda	$1b                     ; 0x1b <__rc11>
    3255: 09 90        	ora	#$90
    3257: a6 1a        	ldx	$1a                     ; 0x1a <__rc10>
    3259: a4 14        	ldy	$14                     ; 0x14 <__rc4>
    325b: d0 03        	bne	$3260 <dispatchNote+0xfa>
    325d: 4c d0 33     	jmp	$33d0 <dispatchNote+0x26a>
    3260: 8d b1 dd     	sta	$ddb1                   ; 0xddb1 <__heap_start+0x5759>
    3263: 8e b1 dd     	stx	$ddb1                   ; 0xddb1 <__heap_start+0x5759>
    3266: a4 13        	ldy	$13                     ; 0x13 <__rc3>
    3268: 84 15        	sty	$15                     ; 0x15 <__rc5>
    326a: 8c b1 dd     	sty	$ddb1                   ; 0xddb1 <__heap_start+0x5759>
    326d: a5 6a        	lda	$6a                     ; 0x6a <gPtr>
    326f: a4 6b        	ldy	$6b                     ; 0x6b <gPtr+0x1>
    3271: 85 16        	sta	$16                     ; 0x16 <__rc6>
    3273: 84 17        	sty	$17                     ; 0x17 <__rc7>
    3275: a0 07        	ldy	#$7
    3277: b1 16        	lda	($16),y                 ; 0x16 <__rc6>
    3279: a2 b1        	ldx	#$b1
    327b: 86 18        	stx	$18                     ; 0x18 <__rc8>
    327d: a2 dd        	ldx	#$dd
    327f: 86 19        	stx	$19                     ; 0x19 <__rc9>
    3281: aa           	tax
    3282: f0 03        	beq	$3287 <dispatchNote+0x121>
    3284: 4c eb 33     	jmp	$33eb <dispatchNote+0x285>
    3287: 4c fb 33     	jmp	$33fb <dispatchNote+0x295>
    328a: a2 00        	ldx	#$0
    328c: a5 1a        	lda	$1a                     ; 0x1a <__rc10>
    328e: 85 12        	sta	$12                     ; 0x12 <__rc2>
    3290: b4 4f        	ldy	$4f,x                   ; 0x4f <polyOPL3Buffer>
    3292: c4 12        	cpy	$12                     ; 0x12 <__rc2>
    3294: f0 07        	beq	$329d <dispatchNote+0x137>
    3296: e8           	inx
    3297: e0 09        	cpx	#$9
    3299: d0 f5        	bne	$3290 <dispatchNote+0x12a>
    329b: a2 ff        	ldx	#$ff
    329d: 86 91        	stx	$91                     ; 0x91 <__zp_bss_size+0x37>
    329f: 18           	clc
    32a0: 69 05        	adc	#$5
    32a2: 64 13        	stz	$13                     ; 0x13 <__rc3>
    32a4: 85 16        	sta	$16                     ; 0x16 <__rc6>
    32a6: a9 00        	lda	#$0
    32a8: 69 00        	adc	#$0
    32aa: a2 8d        	ldx	#$8d
    32ac: a0 00        	ldy	#$0
    32ae: 86 14        	stx	$14                     ; 0x14 <__rc4>
    32b0: 84 15        	sty	$15                     ; 0x15 <__rc5>
    32b2: a2 0c        	ldx	#$c
    32b4: 86 12        	stx	$12                     ; 0x12 <__rc2>
    32b6: aa           	tax
    32b7: a5 16        	lda	$16                     ; 0x16 <__rc6>
    32b9: 20 64 65     	jsr	$6564 <__udivmodhi4>
    32bc: aa           	tax
    32bd: a4 8d        	ldy	$8d                     ; 0x8d <__zp_bss_size+0x33>
    32bf: 84 12        	sty	$12                     ; 0x12 <__rc2>
    32c1: a5 8e        	lda	$8e                     ; 0x8e <__zp_bss_size+0x34>
    32c3: a0 01        	ldy	#$1
    32c5: 06 12        	asl	$12                     ; 0x12 <__rc2>
    32c7: 2a           	rol
    32c8: 85 13        	sta	$13                     ; 0x13 <__rc3>
    32ca: a9 01        	lda	#$1
    32cc: 18           	clc
    32cd: 65 12        	adc	$12                     ; 0x12 <__rc2>
    32cf: 85 12        	sta	$12                     ; 0x12 <__rc2>
    32d1: a9 83        	lda	#$83
    32d3: 65 13        	adc	$13                     ; 0x13 <__rc3>
    32d5: 85 13        	sta	$13                     ; 0x13 <__rc3>
    32d7: b2 12        	lda	($12)                   ; 0x12 <__rc2>
    32d9: 85 14        	sta	$14                     ; 0x14 <__rc4>
    32db: b1 12        	lda	($12),y                 ; 0x12 <__rc2>
    32dd: 85 13        	sta	$13                     ; 0x13 <__rc3>
    32df: 18           	clc
    32e0: 8a           	txa
    32e1: 69 3e        	adc	#$3e
    32e3: a8           	tay
    32e4: a6 91        	ldx	$91                     ; 0x91 <__zp_bss_size+0x37>
    32e6: 86 12        	stx	$12                     ; 0x12 <__rc2>
    32e8: 8a           	txa
    32e9: 09 a0        	ora	#$a0
    32eb: 8d 80 d5     	sta	$d580                   ; 0xd580 <__heap_start+0x4f28>
    32ee: a5 14        	lda	$14                     ; 0x14 <__rc4>
    32f0: 8d 81 d5     	sta	$d581                   ; 0xd581 <__heap_start+0x4f29>
    32f3: 8a           	txa
    32f4: 09 b0        	ora	#$b0
    32f6: 85 14        	sta	$14                     ; 0x14 <__rc4>
    32f8: a5 13        	lda	$13                     ; 0x13 <__rc3>
    32fa: 29 03        	and	#$3
    32fc: 85 13        	sta	$13                     ; 0x13 <__rc3>
    32fe: 98           	tya
    32ff: 0a           	asl
    3300: a6 14        	ldx	$14                     ; 0x14 <__rc4>
    3302: 8e 80 d5     	stx	$d580                   ; 0xd580 <__heap_start+0x4f28>
    3305: 0a           	asl
    3306: 05 13        	ora	$13                     ; 0x13 <__rc3>
    3308: 8d 81 d5     	sta	$d581                   ; 0xd581 <__heap_start+0x4f29>
    330b: a5 12        	lda	$12                     ; 0x12 <__rc2>
    330d: 30 03        	bmi	$3312 <dispatchNote+0x1ac>
    330f: 4c c2 34     	jmp	$34c2 <dispatchNote+0x35c>
    3312: a2 ff        	ldx	#$ff
    3314: 86 13        	stx	$13                     ; 0x13 <__rc3>
    3316: 4c c4 34     	jmp	$34c4 <dispatchNote+0x35e>
    3319: a5 16        	lda	$16                     ; 0x16 <__rc6>
    331b: d0 03        	bne	$3320 <dispatchNote+0x1ba>
    331d: 4c df 35     	jmp	$35df <dispatchNote+0x479>
    3320: a5 1b        	lda	$1b                     ; 0x1b <__rc11>
    3322: a6 1b        	ldx	$1b                     ; 0x1b <__rc11>
    3324: 74 43        	stz	$43,x                   ; 0x43 <polySIDBuffer>
    3326: 4c 62 36     	jmp	$3662 <dispatchNote+0x4fc>
    3329: a0 d6        	ldy	#$d6
    332b: a2 00        	ldx	#$0
    332d: a5 1a        	lda	$1a                     ; 0x1a <__rc10>
    332f: 85 12        	sta	$12                     ; 0x12 <__rc2>
    3331: b5 37        	lda	$37,x                   ; 0x37 <polyPSGBuffer>
    3333: c5 12        	cmp	$12                     ; 0x12 <__rc2>
    3335: d0 03        	bne	$333a <dispatchNote+0x1d4>
    3337: 4c a5 34     	jmp	$34a5 <dispatchNote+0x33f>
    333a: e8           	inx
    333b: e0 06        	cpx	#$6
    333d: d0 f2        	bne	$3331 <dispatchNote+0x1cb>
    333f: 64 12        	stz	$12                     ; 0x12 <__rc2>
    3341: 64 36        	stz	$36                     ; 0x36 <__putchar.s+0x1>
    3343: 4c b4 34     	jmp	$34b4 <dispatchNote+0x34e>
    3346: 84 12        	sty	$12                     ; 0x12 <__rc2>
    3348: a5 1b        	lda	$1b                     ; 0x1b <__rc11>
    334a: 09 80        	ora	#$80
    334c: a6 1a        	ldx	$1a                     ; 0x1a <__rc10>
    334e: a4 13        	ldy	$13                     ; 0x13 <__rc3>
    3350: e6 14        	inc	$14                     ; 0x14 <__rc4>
    3352: c6 14        	dec	$14                     ; 0x14 <__rc4>
    3354: d0 03        	bne	$3359 <dispatchNote+0x1f3>
    3356: 4c fe 35     	jmp	$35fe <dispatchNote+0x498>
    3359: 8d b1 dd     	sta	$ddb1                   ; 0xddb1 <__heap_start+0x5759>
    335c: 8e b1 dd     	stx	$ddb1                   ; 0xddb1 <__heap_start+0x5759>
    335f: 8c b1 dd     	sty	$ddb1                   ; 0xddb1 <__heap_start+0x5759>
    3362: a5 66        	lda	$66                     ; 0x66 <chipAct.1>
    3364: b8           	clv
    3365: a2 66        	ldx	#$66
    3367: 86 16        	stx	$16                     ; 0x16 <__rc6>
    3369: a2 00        	ldx	#$0
    336b: 4c 12 36     	jmp	$3612 <dispatchNote+0x4ac>
    336e: a2 00        	ldx	#$0
    3370: 80 08        	bra	$337a <dispatchNote+0x214>
    3372: e8           	inx
    3373: e0 09        	cpx	#$9
    3375: d0 03        	bne	$337a <dispatchNote+0x214>
    3377: 4c dc 34     	jmp	$34dc <dispatchNote+0x376>
    337a: b4 58        	ldy	$58,x                   ; 0x58 <reservedOPL3>
    337c: d0 f4        	bne	$3372 <dispatchNote+0x20c>
    337e: b4 4f        	ldy	$4f,x                   ; 0x4f <polyOPL3Buffer>
    3380: d0 f0        	bne	$3372 <dispatchNote+0x20c>
    3382: 8a           	txa
    3383: 30 03        	bmi	$3388 <dispatchNote+0x222>
    3385: 4c dd 34     	jmp	$34dd <dispatchNote+0x377>
    3388: 86 91        	stx	$91                     ; 0x91 <__zp_bss_size+0x37>
    338a: a2 ff        	ldx	#$ff
    338c: 4c e1 34     	jmp	$34e1 <dispatchNote+0x37b>
    338f: a2 00        	ldx	#$0
    3391: 80 08        	bra	$339b <dispatchNote+0x235>
    3393: e8           	inx
    3394: e0 06        	cpx	#$6
    3396: d0 03        	bne	$339b <dispatchNote+0x235>
    3398: 4c dc 34     	jmp	$34dc <dispatchNote+0x376>
    339b: b4 49        	ldy	$49,x                   ; 0x49 <reservedSID>
    339d: d0 f4        	bne	$3393 <dispatchNote+0x22d>
    339f: b4 43        	ldy	$43,x                   ; 0x43 <polySIDBuffer>
    33a1: d0 f0        	bne	$3393 <dispatchNote+0x22d>
    33a3: 64 12        	stz	$12                     ; 0x12 <__rc2>
    33a5: 86 13        	stx	$13                     ; 0x13 <__rc3>
    33a7: 86 1b        	stx	$1b                     ; 0x1b <__rc11>
    33a9: 4c 0c 34     	jmp	$340c <dispatchNote+0x2a6>
    33ac: a2 00        	ldx	#$0
    33ae: 80 08        	bra	$33b8 <dispatchNote+0x252>
    33b0: e8           	inx
    33b1: e0 06        	cpx	#$6
    33b3: d0 03        	bne	$33b8 <dispatchNote+0x252>
    33b5: 4c dc 34     	jmp	$34dc <dispatchNote+0x376>
    33b8: b4 3d        	ldy	$3d,x                   ; 0x3d <reservedPSG>
    33ba: d0 f4        	bne	$33b0 <dispatchNote+0x24a>
    33bc: b4 37        	ldy	$37,x                   ; 0x37 <polyPSGBuffer>
    33be: d0 f0        	bne	$33b0 <dispatchNote+0x24a>
    33c0: 86 12        	stx	$12                     ; 0x12 <__rc2>
    33c2: a5 12        	lda	$12                     ; 0x12 <__rc2>
    33c4: 30 03        	bmi	$33c9 <dispatchNote+0x263>
    33c6: 4c 6f 35     	jmp	$356f <dispatchNote+0x409>
    33c9: a2 ff        	ldx	#$ff
    33cb: 86 18        	stx	$18                     ; 0x18 <__rc8>
    33cd: 4c 71 35     	jmp	$3571 <dispatchNote+0x40b>
    33d0: 8d a1 dd     	sta	$dda1                   ; 0xdda1 <__heap_start+0x5749>
    33d3: 8e a1 dd     	stx	$dda1                   ; 0xdda1 <__heap_start+0x5749>
    33d6: a4 13        	ldy	$13                     ; 0x13 <__rc3>
    33d8: 84 15        	sty	$15                     ; 0x15 <__rc5>
    33da: 8c a1 dd     	sty	$dda1                   ; 0xdda1 <__heap_start+0x5749>
    33dd: a5 6a        	lda	$6a                     ; 0x6a <gPtr>
    33df: a4 6b        	ldy	$6b                     ; 0x6b <gPtr+0x1>
    33e1: 85 12        	sta	$12                     ; 0x12 <__rc2>
    33e3: 84 13        	sty	$13                     ; 0x13 <__rc3>
    33e5: a0 07        	ldy	#$7
    33e7: b1 12        	lda	($12),y                 ; 0x12 <__rc2>
    33e9: f0 0c        	beq	$33f7 <dispatchNote+0x291>
    33eb: a9 91        	lda	#$91
    33ed: 92 18        	sta	($18)                   ; 0x18 <__rc8>
    33ef: a5 1a        	lda	$1a                     ; 0x1a <__rc10>
    33f1: 92 18        	sta	($18)                   ; 0x18 <__rc8>
    33f3: a5 15        	lda	$15                     ; 0x15 <__rc5>
    33f5: 92 18        	sta	($18)                   ; 0x18 <__rc8>
    33f7: a5 14        	lda	$14                     ; 0x14 <__rc4>
    33f9: f0 03        	beq	$33fe <dispatchNote+0x298>
    33fb: e6 66        	inc	$66                     ; 0x66 <chipAct.1>
    33fd: 60           	rts
    33fe: e6 65        	inc	$65                     ; 0x65 <chipAct.0>
    3400: 60           	rts
    3401: 64 12        	stz	$12                     ; 0x12 <__rc2>
    3403: 84 13        	sty	$13                     ; 0x13 <__rc3>
    3405: c0 ff        	cpy	#$ff
    3407: d0 03        	bne	$340c <dispatchNote+0x2a6>
    3409: 4c dc 34     	jmp	$34dc <dispatchNote+0x376>
    340c: 38           	sec
    340d: a5 1b        	lda	$1b                     ; 0x1b <__rc11>
    340f: e9 03        	sbc	#$3
    3411: 50 02        	bvc	$3415 <dispatchNote+0x2af>
    3413: 49 80        	eor	#$80
    3415: a2 d5        	ldx	#$d5
    3417: a8           	tay
    3418: 10 02        	bpl	$341c <dispatchNote+0x2b6>
    341a: a2 d4        	ldx	#$d4
    341c: a9 a3        	lda	#$a3
    341e: 18           	clc
    341f: 65 13        	adc	$13                     ; 0x13 <__rc3>
    3421: 85 14        	sta	$14                     ; 0x14 <__rc4>
    3423: a9 82        	lda	#$82
    3425: 65 12        	adc	$12                     ; 0x12 <__rc2>
    3427: 85 15        	sta	$15                     ; 0x15 <__rc5>
    3429: b2 14        	lda	($14)                   ; 0x14 <__rc4>
    342b: 86 19        	stx	$19                     ; 0x19 <__rc9>
    342d: a6 1a        	ldx	$1a                     ; 0x1a <__rc10>
    342f: bc 8e 83     	ldy	$838e,x                 ; 0x838e <psgHigh+0x35>
    3432: 85 14        	sta	$14                     ; 0x14 <__rc4>
    3434: 85 1c        	sta	$1c                     ; 0x1c <__rc12>
    3436: a5 19        	lda	$19                     ; 0x19 <__rc9>
    3438: 85 15        	sta	$15                     ; 0x15 <__rc5>
    343a: 98           	tya
    343b: 92 14        	sta	($14)                   ; 0x14 <__rc4>
    343d: bc 13 7a     	ldy	$7a13,x                 ; 0x7a13 <__set_v+0x473>
    3440: a6 19        	ldx	$19                     ; 0x19 <__rc9>
    3442: a5 1c        	lda	$1c                     ; 0x1c <__rc12>
    3444: 85 18        	sta	$18                     ; 0x18 <__rc8>
    3446: e6 18        	inc	$18                     ; 0x18 <__rc8>
    3448: d0 01        	bne	$344b <dispatchNote+0x2e5>
    344a: e8           	inx
    344b: 86 19        	stx	$19                     ; 0x19 <__rc9>
    344d: 98           	tya
    344e: 92 18        	sta	($18)                   ; 0x18 <__rc8>
    3450: a5 16        	lda	$16                     ; 0x16 <__rc6>
    3452: d0 0e        	bne	$3462 <dispatchNote+0x2fc>
    3454: a6 6a        	ldx	$6a                     ; 0x6a <gPtr>
    3456: a4 6b        	ldy	$6b                     ; 0x6b <gPtr+0x1>
    3458: 86 16        	stx	$16                     ; 0x16 <__rc6>
    345a: 84 17        	sty	$17                     ; 0x17 <__rc7>
    345c: a0 03        	ldy	#$3
    345e: b1 16        	lda	($16),y                 ; 0x16 <__rc6>
    3460: 85 17        	sta	$17                     ; 0x17 <__rc7>
    3462: 64 18        	stz	$18                     ; 0x18 <__rc8>
    3464: a5 17        	lda	$17                     ; 0x17 <__rc7>
    3466: 0a           	asl
    3467: 26 18        	rol	$18                     ; 0x18 <__rc8>
    3469: 0a           	asl
    346a: 26 18        	rol	$18                     ; 0x18 <__rc8>
    346c: 0a           	asl
    346d: 26 18        	rol	$18                     ; 0x18 <__rc8>
    346f: 18           	clc
    3470: 65 17        	adc	$17                     ; 0x17 <__rc7>
    3472: 85 16        	sta	$16                     ; 0x16 <__rc6>
    3474: a5 18        	lda	$18                     ; 0x18 <__rc8>
    3476: 69 00        	adc	#$0
    3478: 85 17        	sta	$17                     ; 0x17 <__rc7>
    347a: a9 e1        	lda	#$e1
    347c: 18           	clc
    347d: 65 16        	adc	$16                     ; 0x16 <__rc6>
    347f: 85 16        	sta	$16                     ; 0x16 <__rc6>
    3481: a9 84        	lda	#$84
    3483: 65 17        	adc	$17                     ; 0x17 <__rc7>
    3485: 85 17        	sta	$17                     ; 0x17 <__rc7>
    3487: a0 05        	ldy	#$5
    3489: a9 01        	lda	#$1
    348b: 11 16        	ora	($16),y                 ; 0x16 <__rc6>
    348d: 88           	dey
    348e: 91 14        	sta	($14),y                 ; 0x14 <__rc4>
    3490: e6 67        	inc	$67                     ; 0x67 <chipAct.2>
    3492: a9 43        	lda	#$43
    3494: 18           	clc
    3495: 65 13        	adc	$13                     ; 0x13 <__rc3>
    3497: aa           	tax
    3498: a9 00        	lda	#$0
    349a: 65 12        	adc	$12                     ; 0x12 <__rc2>
    349c: 86 12        	stx	$12                     ; 0x12 <__rc2>
    349e: 85 13        	sta	$13                     ; 0x13 <__rc3>
    34a0: a5 1a        	lda	$1a                     ; 0x1a <__rc10>
    34a2: 92 12        	sta	($12)                   ; 0x12 <__rc2>
    34a4: 60           	rts
    34a5: 64 12        	stz	$12                     ; 0x12 <__rc2>
    34a7: 74 37        	stz	$37,x                   ; 0x37 <polyPSGBuffer>
    34a9: bd 9d 82     	lda	$829d,x                 ; 0x829d <polyPSGChanBits>
    34ac: e0 03        	cpx	#$3
    34ae: 90 04        	bcc	$34b4 <dispatchNote+0x34e>
    34b0: a2 10        	ldx	#$10
    34b2: 86 12        	stx	$12                     ; 0x12 <__rc2>
    34b4: 84 13        	sty	$13                     ; 0x13 <__rc3>
    34b6: 09 9f        	ora	#$9f
    34b8: 92 12        	sta	($12)                   ; 0x12 <__rc2>
    34ba: a6 68        	ldx	$68                     ; 0x68 <chipAct.3>
    34bc: f0 1e        	beq	$34dc <dispatchNote+0x376>
    34be: ca           	dex
    34bf: 86 68        	stx	$68                     ; 0x68 <chipAct.3>
    34c1: 60           	rts
    34c2: 64 13        	stz	$13                     ; 0x13 <__rc3>
    34c4: a9 4f        	lda	#$4f
    34c6: 18           	clc
    34c7: 65 12        	adc	$12                     ; 0x12 <__rc2>
    34c9: 85 12        	sta	$12                     ; 0x12 <__rc2>
    34cb: a9 00        	lda	#$0
    34cd: 65 13        	adc	$13                     ; 0x13 <__rc3>
    34cf: 85 13        	sta	$13                     ; 0x13 <__rc3>
    34d1: a9 00        	lda	#$0
    34d3: 92 12        	sta	($12)                   ; 0x12 <__rc2>
    34d5: a6 69        	ldx	$69                     ; 0x69 <chipAct.4>
    34d7: f0 03        	beq	$34dc <dispatchNote+0x376>
    34d9: ca           	dex
    34da: 86 69        	stx	$69                     ; 0x69 <chipAct.4>
    34dc: 60           	rts
    34dd: 86 91        	stx	$91                     ; 0x91 <__zp_bss_size+0x37>
    34df: a2 00        	ldx	#$0
    34e1: 86 92        	stx	$92                     ; 0x92 <__zp_bss_size+0x38>
    34e3: 18           	clc
    34e4: a6 1a        	ldx	$1a                     ; 0x1a <__rc10>
    34e6: 86 93        	stx	$93                     ; 0x93 <__zp_bss_size+0x39>
    34e8: a5 1a        	lda	$1a                     ; 0x1a <__rc10>
    34ea: 69 05        	adc	#$5
    34ec: 85 16        	sta	$16                     ; 0x16 <__rc6>
    34ee: 64 13        	stz	$13                     ; 0x13 <__rc3>
    34f0: a9 00        	lda	#$0
    34f2: 69 00        	adc	#$0
    34f4: a2 8f        	ldx	#$8f
    34f6: a0 00        	ldy	#$0
    34f8: 86 14        	stx	$14                     ; 0x14 <__rc4>
    34fa: 84 15        	sty	$15                     ; 0x15 <__rc5>
    34fc: a2 0c        	ldx	#$c
    34fe: 86 12        	stx	$12                     ; 0x12 <__rc2>
    3500: aa           	tax
    3501: a5 16        	lda	$16                     ; 0x16 <__rc6>
    3503: 20 64 65     	jsr	$6564 <__udivmodhi4>
    3506: aa           	tax
    3507: a4 8f        	ldy	$8f                     ; 0x8f <__zp_bss_size+0x35>
    3509: 84 12        	sty	$12                     ; 0x12 <__rc2>
    350b: a5 90        	lda	$90                     ; 0x90 <__zp_bss_size+0x36>
    350d: 06 12        	asl	$12                     ; 0x12 <__rc2>
    350f: 2a           	rol
    3510: 85 13        	sta	$13                     ; 0x13 <__rc3>
    3512: a9 01        	lda	#$1
    3514: 18           	clc
    3515: 65 12        	adc	$12                     ; 0x12 <__rc2>
    3517: 85 14        	sta	$14                     ; 0x14 <__rc4>
    3519: a9 83        	lda	#$83
    351b: 65 13        	adc	$13                     ; 0x13 <__rc3>
    351d: a0 01        	ldy	#$1
    351f: 85 15        	sta	$15                     ; 0x15 <__rc5>
    3521: b1 14        	lda	($14),y                 ; 0x14 <__rc4>
    3523: 85 13        	sta	$13                     ; 0x13 <__rc3>
    3525: 18           	clc
    3526: 8a           	txa
    3527: 69 3e        	adc	#$3e
    3529: 85 16        	sta	$16                     ; 0x16 <__rc6>
    352b: a6 91        	ldx	$91                     ; 0x91 <__zp_bss_size+0x37>
    352d: 86 12        	stx	$12                     ; 0x12 <__rc2>
    352f: 8a           	txa
    3530: 09 a0        	ora	#$a0
    3532: a8           	tay
    3533: b2 14        	lda	($14)                   ; 0x14 <__rc4>
    3535: 8c 80 d5     	sty	$d580                   ; 0xd580 <__heap_start+0x4f28>
    3538: 8d 81 d5     	sta	$d581                   ; 0xd581 <__heap_start+0x4f29>
    353b: 8a           	txa
    353c: 09 b0        	ora	#$b0
    353e: 85 14        	sta	$14                     ; 0x14 <__rc4>
    3540: a5 13        	lda	$13                     ; 0x13 <__rc3>
    3542: 29 03        	and	#$3
    3544: 85 13        	sta	$13                     ; 0x13 <__rc3>
    3546: a5 16        	lda	$16                     ; 0x16 <__rc6>
    3548: 0a           	asl
    3549: 0a           	asl
    354a: 05 13        	ora	$13                     ; 0x13 <__rc3>
    354c: 09 20        	ora	#$20
    354e: a6 14        	ldx	$14                     ; 0x14 <__rc4>
    3550: 8e 80 d5     	stx	$d580                   ; 0xd580 <__heap_start+0x4f28>
    3553: 8d 81 d5     	sta	$d581                   ; 0xd581 <__heap_start+0x4f29>
    3556: a9 4f        	lda	#$4f
    3558: 18           	clc
    3559: 65 12        	adc	$12                     ; 0x12 <__rc2>
    355b: a8           	tay
    355c: a6 92        	ldx	$92                     ; 0x92 <__zp_bss_size+0x38>
    355e: 86 12        	stx	$12                     ; 0x12 <__rc2>
    3560: a9 00        	lda	#$0
    3562: 65 12        	adc	$12                     ; 0x12 <__rc2>
    3564: 84 12        	sty	$12                     ; 0x12 <__rc2>
    3566: 85 13        	sta	$13                     ; 0x13 <__rc3>
    3568: a5 93        	lda	$93                     ; 0x93 <__zp_bss_size+0x39>
    356a: 92 12        	sta	($12)                   ; 0x12 <__rc2>
    356c: e6 69        	inc	$69                     ; 0x69 <chipAct.4>
    356e: 60           	rts
    356f: 64 18        	stz	$18                     ; 0x18 <__rc8>
    3571: a9 9d        	lda	#$9d
    3573: 18           	clc
    3574: 65 12        	adc	$12                     ; 0x12 <__rc2>
    3576: 85 14        	sta	$14                     ; 0x14 <__rc4>
    3578: a9 82        	lda	#$82
    357a: 65 18        	adc	$18                     ; 0x18 <__rc8>
    357c: 85 15        	sta	$15                     ; 0x15 <__rc5>
    357e: b2 14        	lda	($14)                   ; 0x14 <__rc4>
    3580: a8           	tay
    3581: 85 14        	sta	$14                     ; 0x14 <__rc4>
    3583: a5 12        	lda	$12                     ; 0x12 <__rc2>
    3585: 38           	sec
    3586: e9 03        	sbc	#$3
    3588: 85 19        	sta	$19                     ; 0x19 <__rc9>
    358a: 50 04        	bvc	$3590 <dispatchNote+0x42a>
    358c: 49 80        	eor	#$80
    358e: 85 19        	sta	$19                     ; 0x19 <__rc9>
    3590: a2 10        	ldx	#$10
    3592: 86 16        	stx	$16                     ; 0x16 <__rc6>
    3594: a2 d6        	ldx	#$d6
    3596: 86 17        	stx	$17                     ; 0x17 <__rc7>
    3598: a6 1a        	ldx	$1a                     ; 0x1a <__rc10>
    359a: a5 13        	lda	$13                     ; 0x13 <__rc3>
    359c: 4a           	lsr
    359d: 4a           	lsr
    359e: 4a           	lsr
    359f: 49 0f        	eor	#$f
    35a1: 85 15        	sta	$15                     ; 0x15 <__rc5>
    35a3: bd ec 82     	lda	$82ec,x                 ; 0x82ec <noteColors+0x43>
    35a6: 85 1b        	sta	$1b                     ; 0x1b <__rc11>
    35a8: bd 2c 83     	lda	$832c,x                 ; 0x832c <psgLow+0x13>
    35ab: aa           	tax
    35ac: 86 13        	stx	$13                     ; 0x13 <__rc3>
    35ae: 98           	tya
    35af: 05 15        	ora	$15                     ; 0x15 <__rc5>
    35b1: 09 90        	ora	#$90
    35b3: a6 19        	ldx	$19                     ; 0x19 <__rc9>
    35b5: 10 08        	bpl	$35bf <dispatchNote+0x459>
    35b7: a2 00        	ldx	#$0
    35b9: 86 16        	stx	$16                     ; 0x16 <__rc6>
    35bb: a2 d6        	ldx	#$d6
    35bd: 86 17        	stx	$17                     ; 0x17 <__rc7>
    35bf: 92 16        	sta	($16)                   ; 0x16 <__rc6>
    35c1: a5 1b        	lda	$1b                     ; 0x1b <__rc11>
    35c3: 05 14        	ora	$14                     ; 0x14 <__rc4>
    35c5: 92 16        	sta	($16)                   ; 0x16 <__rc6>
    35c7: a5 13        	lda	$13                     ; 0x13 <__rc3>
    35c9: 92 16        	sta	($16)                   ; 0x16 <__rc6>
    35cb: a9 37        	lda	#$37
    35cd: 18           	clc
    35ce: 65 12        	adc	$12                     ; 0x12 <__rc2>
    35d0: 85 12        	sta	$12                     ; 0x12 <__rc2>
    35d2: a9 00        	lda	#$0
    35d4: 65 18        	adc	$18                     ; 0x18 <__rc8>
    35d6: 85 13        	sta	$13                     ; 0x13 <__rc3>
    35d8: a5 1a        	lda	$1a                     ; 0x1a <__rc10>
    35da: 92 12        	sta	($12)                   ; 0x12 <__rc2>
    35dc: e6 68        	inc	$68                     ; 0x68 <chipAct.3>
    35de: 60           	rts
    35df: a2 00        	ldx	#$0
    35e1: a4 1a        	ldy	$1a                     ; 0x1a <__rc10>
    35e3: 84 12        	sty	$12                     ; 0x12 <__rc2>
    35e5: b4 43        	ldy	$43,x                   ; 0x43 <polySIDBuffer>
    35e7: c4 12        	cpy	$12                     ; 0x12 <__rc2>
    35e9: d0 03        	bne	$35ee <dispatchNote+0x488>
    35eb: 4c 61 36     	jmp	$3661 <dispatchNote+0x4fb>
    35ee: e8           	inx
    35ef: e0 06        	cpx	#$6
    35f1: d0 f2        	bne	$35e5 <dispatchNote+0x47f>
    35f3: a2 d4        	ldx	#$d4
    35f5: a0 ff        	ldy	#$ff
    35f7: 84 13        	sty	$13                     ; 0x13 <__rc3>
    35f9: 84 12        	sty	$12                     ; 0x12 <__rc2>
    35fb: 4c 7d 36     	jmp	$367d <dispatchNote+0x517>
    35fe: 8d a1 dd     	sta	$dda1                   ; 0xdda1 <__heap_start+0x5749>
    3601: 8e a1 dd     	stx	$dda1                   ; 0xdda1 <__heap_start+0x5749>
    3604: 8c a1 dd     	sty	$dda1                   ; 0xdda1 <__heap_start+0x5749>
    3607: a5 65        	lda	$65                     ; 0x65 <chipAct.0>
    3609: 2c a0 75     	bit	$75a0                   ; 0x75a0 <__set_v>
    360c: a2 65        	ldx	#$65
    360e: 86 16        	stx	$16                     ; 0x16 <__rc6>
    3610: a2 00        	ldx	#$0
    3612: 86 17        	stx	$17                     ; 0x17 <__rc7>
    3614: aa           	tax
    3615: f0 03        	beq	$361a <dispatchNote+0x4b4>
    3617: 3a           	dec
    3618: 92 16        	sta	($16)                   ; 0x16 <__rc6>
    361a: a6 6a        	ldx	$6a                     ; 0x6a <gPtr>
    361c: a5 6b        	lda	$6b                     ; 0x6b <gPtr+0x1>
    361e: 86 16        	stx	$16                     ; 0x16 <__rc6>
    3620: 85 17        	sta	$17                     ; 0x17 <__rc7>
    3622: a0 07        	ldy	#$7
    3624: b1 16        	lda	($16),y                 ; 0x16 <__rc6>
    3626: d0 03        	bne	$362b <dispatchNote+0x4c5>
    3628: 4c dc 34     	jmp	$34dc <dispatchNote+0x376>
    362b: a6 12        	ldx	$12                     ; 0x12 <__rc2>
    362d: e0 04        	cpx	#$4
    362f: f0 0c        	beq	$363d <dispatchNote+0x4d7>
    3631: a5 14        	lda	$14                     ; 0x14 <__rc4>
    3633: d0 08        	bne	$363d <dispatchNote+0x4d7>
    3635: a2 a1        	ldx	#$a1
    3637: 86 1c        	stx	$1c                     ; 0x1c <__rc12>
    3639: a2 dd        	ldx	#$dd
    363b: 86 1d        	stx	$1d                     ; 0x1d <__rc13>
    363d: a9 81        	lda	#$81
    363f: 92 1c        	sta	($1c)                   ; 0x1c <__rc12>
    3641: a5 1a        	lda	$1a                     ; 0x1a <__rc10>
    3643: 92 1c        	sta	($1c)                   ; 0x1c <__rc12>
    3645: a5 13        	lda	$13                     ; 0x13 <__rc3>
    3647: 92 1c        	sta	($1c)                   ; 0x1c <__rc12>
    3649: 50 0b        	bvc	$3656 <dispatchNote+0x4f0>
    364b: a6 65        	ldx	$65                     ; 0x65 <chipAct.0>
    364d: d0 03        	bne	$3652 <dispatchNote+0x4ec>
    364f: 4c dc 34     	jmp	$34dc <dispatchNote+0x376>
    3652: ca           	dex
    3653: 86 65        	stx	$65                     ; 0x65 <chipAct.0>
    3655: 60           	rts
    3656: a6 66        	ldx	$66                     ; 0x66 <chipAct.1>
    3658: d0 03        	bne	$365d <dispatchNote+0x4f7>
    365a: 4c dc 34     	jmp	$34dc <dispatchNote+0x376>
    365d: ca           	dex
    365e: 86 66        	stx	$66                     ; 0x66 <chipAct.1>
    3660: 60           	rts
    3661: 8a           	txa
    3662: aa           	tax
    3663: 10 06        	bpl	$366b <dispatchNote+0x505>
    3665: a2 ff        	ldx	#$ff
    3667: 86 12        	stx	$12                     ; 0x12 <__rc2>
    3669: 80 02        	bra	$366d <dispatchNote+0x507>
    366b: 64 12        	stz	$12                     ; 0x12 <__rc2>
    366d: 85 13        	sta	$13                     ; 0x13 <__rc3>
    366f: 38           	sec
    3670: e9 03        	sbc	#$3
    3672: 50 02        	bvc	$3676 <dispatchNote+0x510>
    3674: 49 80        	eor	#$80
    3676: a2 d4        	ldx	#$d4
    3678: a8           	tay
    3679: 30 02        	bmi	$367d <dispatchNote+0x517>
    367b: a2 d5        	ldx	#$d5
    367d: a9 a3        	lda	#$a3
    367f: 18           	clc
    3680: 65 13        	adc	$13                     ; 0x13 <__rc3>
    3682: 85 14        	sta	$14                     ; 0x14 <__rc4>
    3684: a9 82        	lda	#$82
    3686: 65 12        	adc	$12                     ; 0x12 <__rc2>
    3688: 85 15        	sta	$15                     ; 0x15 <__rc5>
    368a: a9 43        	lda	#$43
    368c: 18           	clc
    368d: 65 13        	adc	$13                     ; 0x13 <__rc3>
    368f: a8           	tay
    3690: a9 00        	lda	#$0
    3692: 65 12        	adc	$12                     ; 0x12 <__rc2>
    3694: 85 13        	sta	$13                     ; 0x13 <__rc3>
    3696: 84 12        	sty	$12                     ; 0x12 <__rc2>
    3698: b2 14        	lda	($14)                   ; 0x14 <__rc4>
    369a: 85 14        	sta	$14                     ; 0x14 <__rc4>
    369c: a9 00        	lda	#$0
    369e: 92 12        	sta	($12)                   ; 0x12 <__rc2>
    36a0: a4 1a        	ldy	$1a                     ; 0x1a <__rc10>
    36a2: b9 8e 83     	lda	$838e,y                 ; 0x838e <psgHigh+0x35>
    36a5: 5a           	phy
    36a6: a4 14        	ldy	$14                     ; 0x14 <__rc4>
    36a8: 84 12        	sty	$12                     ; 0x12 <__rc2>
    36aa: 7a           	ply
    36ab: 86 13        	stx	$13                     ; 0x13 <__rc3>
    36ad: 92 12        	sta	($12)                   ; 0x12 <__rc2>
    36af: b9 13 7a     	lda	$7a13,y                 ; 0x7a13 <__set_v+0x473>
    36b2: a8           	tay
    36b3: e6 14        	inc	$14                     ; 0x14 <__rc4>
    36b5: d0 01        	bne	$36b8 <dispatchNote+0x552>
    36b7: e8           	inx
    36b8: 86 15        	stx	$15                     ; 0x15 <__rc5>
    36ba: 98           	tya
    36bb: 92 14        	sta	($14)                   ; 0x14 <__rc4>
    36bd: a5 16        	lda	$16                     ; 0x16 <__rc6>
    36bf: d0 0e        	bne	$36cf <dispatchNote+0x569>
    36c1: a6 6a        	ldx	$6a                     ; 0x6a <gPtr>
    36c3: a4 6b        	ldy	$6b                     ; 0x6b <gPtr+0x1>
    36c5: 86 14        	stx	$14                     ; 0x14 <__rc4>
    36c7: 84 15        	sty	$15                     ; 0x15 <__rc5>
    36c9: a0 03        	ldy	#$3
    36cb: b1 14        	lda	($14),y                 ; 0x14 <__rc4>
    36cd: 85 17        	sta	$17                     ; 0x17 <__rc7>
    36cf: a5 17        	lda	$17                     ; 0x17 <__rc7>
    36d1: 0a           	asl
    36d2: aa           	tax
    36d3: a9 00        	lda	#$0
    36d5: 2a           	rol
    36d6: 86 14        	stx	$14                     ; 0x14 <__rc4>
    36d8: 06 14        	asl	$14                     ; 0x14 <__rc4>
    36da: 2a           	rol
    36db: 06 14        	asl	$14                     ; 0x14 <__rc4>
    36dd: 2a           	rol
    36de: aa           	tax
    36df: 18           	clc
    36e0: a5 14        	lda	$14                     ; 0x14 <__rc4>
    36e2: 65 17        	adc	$17                     ; 0x17 <__rc7>
    36e4: 85 14        	sta	$14                     ; 0x14 <__rc4>
    36e6: 8a           	txa
    36e7: 69 00        	adc	#$0
    36e9: 85 15        	sta	$15                     ; 0x15 <__rc5>
    36eb: a9 e1        	lda	#$e1
    36ed: 18           	clc
    36ee: 65 14        	adc	$14                     ; 0x14 <__rc4>
    36f0: 85 14        	sta	$14                     ; 0x14 <__rc4>
    36f2: a9 84        	lda	#$84
    36f4: 65 15        	adc	$15                     ; 0x15 <__rc5>
    36f6: 85 15        	sta	$15                     ; 0x15 <__rc5>
    36f8: a0 05        	ldy	#$5
    36fa: a9 fe        	lda	#$fe
    36fc: 31 14        	and	($14),y                 ; 0x14 <__rc4>
    36fe: 88           	dey
    36ff: 91 12        	sta	($12),y                 ; 0x12 <__rc2>
    3701: a6 67        	ldx	$67                     ; 0x67 <chipAct.2>
    3703: d0 03        	bne	$3708 <dispatchNote+0x5a2>
    3705: 4c dc 34     	jmp	$34dc <dispatchNote+0x376>
    3708: ca           	dex
    3709: 86 67        	stx	$67                     ; 0x67 <chipAct.2>
    370b: 60           	rts

0000370c <launchBeat>:
    370c: 18           	clc
    370d: a5 10        	lda	$10                     ; 0x10 <__rc0>
    370f: 69 f5        	adc	#$f5
    3711: 85 10        	sta	$10                     ; 0x10 <__rc0>
    3713: a5 11        	lda	$11                     ; 0x11 <__rc1>
    3715: 69 ff        	adc	#$ff
    3717: 85 11        	sta	$11                     ; 0x11 <__rc1>
    3719: a6 24        	ldx	$24                     ; 0x24 <__rc20>
    371b: da           	phx
    371c: a6 25        	ldx	$25                     ; 0x25 <__rc21>
    371e: da           	phx
    371f: a6 26        	ldx	$26                     ; 0x26 <__rc22>
    3721: da           	phx
    3722: a6 27        	ldx	$27                     ; 0x27 <__rc23>
    3724: da           	phx
    3725: a5 28        	lda	$28                     ; 0x28 <__rc24>
    3727: a0 06        	ldy	#$6
    3729: 91 10        	sta	($10),y                 ; 0x10 <__rc0>
    372b: a5 29        	lda	$29                     ; 0x29 <__rc25>
    372d: 88           	dey
    372e: 91 10        	sta	($10),y                 ; 0x10 <__rc0>
    3730: a5 2a        	lda	$2a                     ; 0x2a <__rc26>
    3732: 88           	dey
    3733: 91 10        	sta	($10),y                 ; 0x10 <__rc0>
    3735: a5 2b        	lda	$2b                     ; 0x2b <__rc27>
    3737: 88           	dey
    3738: 91 10        	sta	($10),y                 ; 0x10 <__rc0>
    373a: a5 2c        	lda	$2c                     ; 0x2c <__rc28>
    373c: 88           	dey
    373d: 91 10        	sta	($10),y                 ; 0x10 <__rc0>
    373f: a5 2d        	lda	$2d                     ; 0x2d <__rc29>
    3741: 88           	dey
    3742: 91 10        	sta	($10),y                 ; 0x10 <__rc0>
    3744: a5 2e        	lda	$2e                     ; 0x2e <__rc30>
    3746: 88           	dey
    3747: 91 10        	sta	($10),y                 ; 0x10 <__rc0>
    3749: 18           	clc
    374a: a5 10        	lda	$10                     ; 0x10 <__rc0>
    374c: 69 08        	adc	#$8
    374e: 85 26        	sta	$26                     ; 0x26 <__rc22>
    3750: a5 11        	lda	$11                     ; 0x11 <__rc1>
    3752: 69 00        	adc	#$0
    3754: 85 27        	sta	$27                     ; 0x27 <__rc23>
    3756: 98           	tya
    3757: 92 26        	sta	($26)                   ; 0x26 <__rc22>
    3759: 18           	clc
    375a: 48           	pha
    375b: a5 10        	lda	$10                     ; 0x10 <__rc0>
    375d: 69 07        	adc	#$7
    375f: 85 28        	sta	$28                     ; 0x28 <__rc24>
    3761: a5 11        	lda	$11                     ; 0x11 <__rc1>
    3763: 69 00        	adc	#$0
    3765: 85 29        	sta	$29                     ; 0x29 <__rc25>
    3767: 68           	pla
    3768: 92 28        	sta	($28)                   ; 0x28 <__rc24>
    376a: 64 2a        	stz	$2a                     ; 0x2a <__rc26>
    376c: a9 04        	lda	#$4
    376e: a2 00        	ldx	#$0
    3770: 20 91 5e     	jsr	$5e91 <malloc>
    3773: a6 12        	ldx	$12                     ; 0x12 <__rc2>
    3775: 86 24        	stx	$24                     ; 0x24 <__rc20>
    3777: a6 13        	ldx	$13                     ; 0x13 <__rc3>
    3779: 86 25        	stx	$25                     ; 0x25 <__rc21>
    377b: a6 7e        	ldx	$7e                     ; 0x7e <theBeats>
    377d: 86 17        	stx	$17                     ; 0x17 <__rc7>
    377f: a6 7f        	ldx	$7f                     ; 0x7f <theBeats+0x1>
    3781: 86 16        	stx	$16                     ; 0x16 <__rc6>
    3783: a6 6a        	ldx	$6a                     ; 0x6a <gPtr>
    3785: a4 6b        	ldy	$6b                     ; 0x6b <gPtr+0x1>
    3787: 86 12        	stx	$12                     ; 0x12 <__rc2>
    3789: 84 13        	sty	$13                     ; 0x13 <__rc3>
    378b: a0 08        	ldy	#$8
    378d: b1 12        	lda	($12),y                 ; 0x12 <__rc2>
    378f: 85 1a        	sta	$1a                     ; 0x1a <__rc10>
    3791: 0a           	asl
    3792: 26 2a        	rol	$2a                     ; 0x2a <__rc26>
    3794: 0a           	asl
    3795: 26 2a        	rol	$2a                     ; 0x2a <__rc26>
    3797: 0a           	asl
    3798: 26 2a        	rol	$2a                     ; 0x2a <__rc26>
    379a: 0a           	asl
    379b: 26 2a        	rol	$2a                     ; 0x2a <__rc26>
    379d: 38           	sec
    379e: 85 18        	sta	$18                     ; 0x18 <__rc8>
    37a0: e5 1a        	sbc	$1a                     ; 0x1a <__rc10>
    37a2: 85 14        	sta	$14                     ; 0x14 <__rc4>
    37a4: a4 2a        	ldy	$2a                     ; 0x2a <__rc26>
    37a6: a5 2a        	lda	$2a                     ; 0x2a <__rc26>
    37a8: e9 00        	sbc	#$0
    37aa: 85 15        	sta	$15                     ; 0x15 <__rc5>
    37ac: a5 17        	lda	$17                     ; 0x17 <__rc7>
    37ae: 18           	clc
    37af: 65 14        	adc	$14                     ; 0x14 <__rc4>
    37b1: 85 14        	sta	$14                     ; 0x14 <__rc4>
    37b3: a5 16        	lda	$16                     ; 0x16 <__rc6>
    37b5: 65 15        	adc	$15                     ; 0x15 <__rc5>
    37b7: 85 15        	sta	$15                     ; 0x15 <__rc5>
    37b9: b2 14        	lda	($14)                   ; 0x14 <__rc4>
    37bb: f0 06        	beq	$37c3 <launchBeat+0xb7>
    37bd: a2 01        	ldx	#$1
    37bf: 86 62        	stx	$62                     ; 0x62 <needsToWaitExpiration>
    37c1: 80 09        	bra	$37cc <launchBeat+0xc0>
    37c3: a5 62        	lda	$62                     ; 0x62 <needsToWaitExpiration>
    37c5: 29 01        	and	#$1
    37c7: d0 03        	bne	$37cc <launchBeat+0xc0>
    37c9: 4c bf 38     	jmp	$38bf <launchBeat+0x1b3>
    37cc: 38           	sec
    37cd: a5 18        	lda	$18                     ; 0x18 <__rc8>
    37cf: e5 1a        	sbc	$1a                     ; 0x1a <__rc10>
    37d1: 85 12        	sta	$12                     ; 0x12 <__rc2>
    37d3: 98           	tya
    37d4: e9 00        	sbc	#$0
    37d6: 85 13        	sta	$13                     ; 0x13 <__rc3>
    37d8: a5 17        	lda	$17                     ; 0x17 <__rc7>
    37da: 18           	clc
    37db: 65 12        	adc	$12                     ; 0x12 <__rc2>
    37dd: 85 12        	sta	$12                     ; 0x12 <__rc2>
    37df: a5 16        	lda	$16                     ; 0x16 <__rc6>
    37e1: 65 13        	adc	$13                     ; 0x13 <__rc3>
    37e3: 85 13        	sta	$13                     ; 0x13 <__rc3>
    37e5: a0 04        	ldy	#$4
    37e7: b1 12        	lda	($12),y                 ; 0x12 <__rc2>
    37e9: d0 03        	bne	$37ee <launchBeat+0xe2>
    37eb: 4c 47 3c     	jmp	$3c47 <launchBeat+0x53b>
    37ee: a6 16        	ldx	$16                     ; 0x16 <__rc6>
    37f0: a4 17        	ldy	$17                     ; 0x17 <__rc7>
    37f2: 84 12        	sty	$12                     ; 0x12 <__rc2>
    37f4: 86 13        	stx	$13                     ; 0x13 <__rc3>
    37f6: a9 00        	lda	#$0
    37f8: 4c 68 38     	jmp	$3868 <launchBeat+0x15c>
    37fb: a2 00        	ldx	#$0
    37fd: b4 3d        	ldy	$3d,x                   ; 0x3d <reservedPSG>
    37ff: c0 01        	cpy	#$1
    3801: d0 02        	bne	$3805 <launchBeat+0xf9>
    3803: 74 3d        	stz	$3d,x                   ; 0x3d <reservedPSG>
    3805: e8           	inx
    3806: e0 06        	cpx	#$6
    3808: d0 f3        	bne	$37fd <launchBeat+0xf1>
    380a: c9 03        	cmp	#$3
    380c: d0 0f        	bne	$381d <launchBeat+0x111>
    380e: a2 00        	ldx	#$0
    3810: b4 58        	ldy	$58,x                   ; 0x58 <reservedOPL3>
    3812: c0 01        	cpy	#$1
    3814: d0 02        	bne	$3818 <launchBeat+0x10c>
    3816: 74 58        	stz	$58,x                   ; 0x58 <reservedOPL3>
    3818: e8           	inx
    3819: e0 09        	cpx	#$9
    381b: d0 f3        	bne	$3810 <launchBeat+0x104>
    381d: a6 7e        	ldx	$7e                     ; 0x7e <theBeats>
    381f: a4 7f        	ldy	$7f                     ; 0x7f <theBeats+0x1>
    3821: 86 12        	stx	$12                     ; 0x12 <__rc2>
    3823: 84 13        	sty	$13                     ; 0x13 <__rc3>
    3825: a6 6a        	ldx	$6a                     ; 0x6a <gPtr>
    3827: a4 6b        	ldy	$6b                     ; 0x6b <gPtr+0x1>
    3829: 86 14        	stx	$14                     ; 0x14 <__rc4>
    382b: 84 15        	sty	$15                     ; 0x15 <__rc5>
    382d: a0 08        	ldy	#$8
    382f: b1 14        	lda	($14),y                 ; 0x14 <__rc4>
    3831: 85 1a        	sta	$1a                     ; 0x1a <__rc10>
    3833: 0a           	asl
    3834: aa           	tax
    3835: a9 00        	lda	#$0
    3837: 2a           	rol
    3838: 86 14        	stx	$14                     ; 0x14 <__rc4>
    383a: 06 14        	asl	$14                     ; 0x14 <__rc4>
    383c: 2a           	rol
    383d: 06 14        	asl	$14                     ; 0x14 <__rc4>
    383f: 2a           	rol
    3840: 06 14        	asl	$14                     ; 0x14 <__rc4>
    3842: 2a           	rol
    3843: aa           	tax
    3844: 38           	sec
    3845: a5 14        	lda	$14                     ; 0x14 <__rc4>
    3847: e5 1a        	sbc	$1a                     ; 0x1a <__rc10>
    3849: 85 14        	sta	$14                     ; 0x14 <__rc4>
    384b: 8a           	txa
    384c: e9 00        	sbc	#$0
    384e: aa           	tax
    384f: 18           	clc
    3850: a5 14        	lda	$14                     ; 0x14 <__rc4>
    3852: 65 7e        	adc	$7e                     ; 0x7e <theBeats>
    3854: 85 14        	sta	$14                     ; 0x14 <__rc4>
    3856: 8a           	txa
    3857: 65 7f        	adc	$7f                     ; 0x7f <theBeats+0x1>
    3859: a6 2a        	ldx	$2a                     ; 0x2a <__rc26>
    385b: e8           	inx
    385c: 85 15        	sta	$15                     ; 0x15 <__rc5>
    385e: 8a           	txa
    385f: a0 04        	ldy	#$4
    3861: d1 14        	cmp	($14),y                 ; 0x14 <__rc4>
    3863: 90 03        	bcc	$3868 <launchBeat+0x15c>
    3865: 4c 47 3c     	jmp	$3c47 <launchBeat+0x53b>
    3868: a6 26        	ldx	$26                     ; 0x26 <__rc22>
    386a: 86 14        	stx	$14                     ; 0x14 <__rc4>
    386c: a6 27        	ldx	$27                     ; 0x27 <__rc23>
    386e: 86 15        	stx	$15                     ; 0x15 <__rc5>
    3870: a6 28        	ldx	$28                     ; 0x28 <__rc24>
    3872: 86 16        	stx	$16                     ; 0x16 <__rc6>
    3874: a6 29        	ldx	$29                     ; 0x29 <__rc25>
    3876: 86 17        	stx	$17                     ; 0x17 <__rc7>
    3878: a6 24        	ldx	$24                     ; 0x24 <__rc20>
    387a: 86 18        	stx	$18                     ; 0x18 <__rc8>
    387c: a6 25        	ldx	$25                     ; 0x25 <__rc21>
    387e: 86 19        	stx	$19                     ; 0x19 <__rc9>
    3880: 85 2a        	sta	$2a                     ; 0x2a <__rc26>
    3882: aa           	tax
    3883: a5 1a        	lda	$1a                     ; 0x1a <__rc10>
    3885: 20 14 43     	jsr	$4314 <getBeatTrackNoteInfo>
    3888: b2 24        	lda	($24)                   ; 0x24 <__rc20>
    388a: c9 03        	cmp	#$3
    388c: d0 03        	bne	$3891 <launchBeat+0x185>
    388e: 4c 0e 38     	jmp	$380e <launchBeat+0x102>
    3891: c9 02        	cmp	#$2
    3893: d0 03        	bne	$3898 <launchBeat+0x18c>
    3895: 4c fb 37     	jmp	$37fb <launchBeat+0xef>
    3898: c9 01        	cmp	#$1
    389a: f0 03        	beq	$389f <launchBeat+0x193>
    389c: 4c 1d 38     	jmp	$381d <launchBeat+0x111>
    389f: a2 00        	ldx	#$0
    38a1: b4 49        	ldy	$49,x                   ; 0x49 <reservedSID>
    38a3: c0 01        	cpy	#$1
    38a5: d0 02        	bne	$38a9 <launchBeat+0x19d>
    38a7: 74 49        	stz	$49,x                   ; 0x49 <reservedSID>
    38a9: e8           	inx
    38aa: e0 06        	cpx	#$6
    38ac: d0 f3        	bne	$38a1 <launchBeat+0x195>
    38ae: c9 03        	cmp	#$3
    38b0: d0 03        	bne	$38b5 <launchBeat+0x1a9>
    38b2: 4c 0e 38     	jmp	$380e <launchBeat+0x102>
    38b5: c9 02        	cmp	#$2
    38b7: d0 03        	bne	$38bc <launchBeat+0x1b0>
    38b9: 4c fb 37     	jmp	$37fb <launchBeat+0xef>
    38bc: 4c 1d 38     	jmp	$381d <launchBeat+0x111>
    38bf: a9 01        	lda	#$1
    38c1: 92 14        	sta	($14)                   ; 0x14 <__rc4>
    38c3: 38           	sec
    38c4: a5 18        	lda	$18                     ; 0x18 <__rc8>
    38c6: e5 1a        	sbc	$1a                     ; 0x1a <__rc10>
    38c8: 85 14        	sta	$14                     ; 0x14 <__rc4>
    38ca: 98           	tya
    38cb: e9 00        	sbc	#$0
    38cd: 85 15        	sta	$15                     ; 0x15 <__rc5>
    38cf: a5 17        	lda	$17                     ; 0x17 <__rc7>
    38d1: 18           	clc
    38d2: 65 14        	adc	$14                     ; 0x14 <__rc4>
    38d4: 85 14        	sta	$14                     ; 0x14 <__rc4>
    38d6: a5 16        	lda	$16                     ; 0x16 <__rc6>
    38d8: 65 15        	adc	$15                     ; 0x15 <__rc5>
    38da: 85 15        	sta	$15                     ; 0x15 <__rc5>
    38dc: a0 03        	ldy	#$3
    38de: b1 14        	lda	($14),y                 ; 0x14 <__rc4>
    38e0: a0 09        	ldy	#$9
    38e2: 91 12        	sta	($12),y                 ; 0x12 <__rc2>
    38e4: 20 93 3f     	jsr	$3f93 <prepTempoLUT>
    38e7: a6 6a        	ldx	$6a                     ; 0x6a <gPtr>
    38e9: a4 6b        	ldy	$6b                     ; 0x6b <gPtr+0x1>
    38eb: 86 2c        	stx	$2c                     ; 0x2c <__rc28>
    38ed: 84 2d        	sty	$2d                     ; 0x2d <__rc29>
    38ef: a0 09        	ldy	#$9
    38f1: b1 2c        	lda	($2c),y                 ; 0x2c <__rc28>
    38f3: 20 2a 49     	jsr	$492a <updateTempoText>
    38f6: a6 7e        	ldx	$7e                     ; 0x7e <theBeats>
    38f8: 86 13        	stx	$13                     ; 0x13 <__rc3>
    38fa: a0 08        	ldy	#$8
    38fc: b1 2c        	lda	($2c),y                 ; 0x2c <__rc28>
    38fe: 85 12        	sta	$12                     ; 0x12 <__rc2>
    3900: 0a           	asl
    3901: aa           	tax
    3902: a9 00        	lda	#$0
    3904: 2a           	rol
    3905: 86 14        	stx	$14                     ; 0x14 <__rc4>
    3907: 06 14        	asl	$14                     ; 0x14 <__rc4>
    3909: 2a           	rol
    390a: 06 14        	asl	$14                     ; 0x14 <__rc4>
    390c: 2a           	rol
    390d: 06 14        	asl	$14                     ; 0x14 <__rc4>
    390f: 2a           	rol
    3910: a8           	tay
    3911: a6 7f        	ldx	$7f                     ; 0x7f <theBeats+0x1>
    3913: 38           	sec
    3914: a5 14        	lda	$14                     ; 0x14 <__rc4>
    3916: e5 12        	sbc	$12                     ; 0x12 <__rc2>
    3918: 85 12        	sta	$12                     ; 0x12 <__rc2>
    391a: 98           	tya
    391b: e9 00        	sbc	#$0
    391d: a8           	tay
    391e: 18           	clc
    391f: a5 12        	lda	$12                     ; 0x12 <__rc2>
    3921: 65 7e        	adc	$7e                     ; 0x7e <theBeats>
    3923: 85 14        	sta	$14                     ; 0x14 <__rc4>
    3925: 98           	tya
    3926: 65 7f        	adc	$7f                     ; 0x7f <theBeats+0x1>
    3928: 64 16        	stz	$16                     ; 0x16 <__rc6>
    392a: 85 15        	sta	$15                     ; 0x15 <__rc5>
    392c: a0 04        	ldy	#$4
    392e: b1 14        	lda	($14),y                 ; 0x14 <__rc4>
    3930: d0 03        	bne	$3935 <launchBeat+0x229>
    3932: 4c 47 3c     	jmp	$3c47 <launchBeat+0x53b>
    3935: a4 13        	ldy	$13                     ; 0x13 <__rc3>
    3937: 84 12        	sty	$12                     ; 0x12 <__rc2>
    3939: 86 13        	stx	$13                     ; 0x13 <__rc3>
    393b: a0 02        	ldy	#$2
    393d: 84 2a        	sty	$2a                     ; 0x2a <__rc26>
    393f: 64 2b        	stz	$2b                     ; 0x2b <__rc27>
    3941: a2 00        	ldx	#$0
    3943: 4c c0 3b     	jmp	$3bc0 <launchBeat+0x4b4>
    3946: a0 01        	ldy	#$1
    3948: b1 24        	lda	($24),y                 ; 0x24 <__rc20>
    394a: 85 2c        	sta	$2c                     ; 0x2c <__rc28>
    394c: a2 03        	ldx	#$3
    394e: 20 93 62     	jsr	$6293 <__udivqi3>
    3951: 85 14        	sta	$14                     ; 0x14 <__rc4>
    3953: 0a           	asl
    3954: 18           	clc
    3955: 65 14        	adc	$14                     ; 0x14 <__rc4>
    3957: 85 12        	sta	$12                     ; 0x12 <__rc2>
    3959: 38           	sec
    395a: a5 2c        	lda	$2c                     ; 0x2c <__rc28>
    395c: e5 12        	sbc	$12                     ; 0x12 <__rc2>
    395e: aa           	tax
    395f: a0 02        	ldy	#$2
    3961: b1 24        	lda	($24),y                 ; 0x24 <__rc20>
    3963: 85 12        	sta	$12                     ; 0x12 <__rc2>
    3965: 0a           	asl
    3966: 64 13        	stz	$13                     ; 0x13 <__rc3>
    3968: 26 13        	rol	$13                     ; 0x13 <__rc3>
    396a: 0a           	asl
    396b: 26 13        	rol	$13                     ; 0x13 <__rc3>
    396d: 0a           	asl
    396e: 26 13        	rol	$13                     ; 0x13 <__rc3>
    3970: 18           	clc
    3971: 65 12        	adc	$12                     ; 0x12 <__rc2>
    3973: 85 12        	sta	$12                     ; 0x12 <__rc2>
    3975: a5 13        	lda	$13                     ; 0x13 <__rc3>
    3977: 69 00        	adc	#$0
    3979: 85 13        	sta	$13                     ; 0x13 <__rc3>
    397b: a9 e1        	lda	#$e1
    397d: 18           	clc
    397e: 65 12        	adc	$12                     ; 0x12 <__rc2>
    3980: 85 12        	sta	$12                     ; 0x12 <__rc2>
    3982: a9 84        	lda	#$84
    3984: 65 13        	adc	$13                     ; 0x13 <__rc3>
    3986: 85 13        	sta	$13                     ; 0x13 <__rc3>
    3988: a5 14        	lda	$14                     ; 0x14 <__rc4>
    398a: 20 25 42     	jsr	$4225 <sid_setInstrument>
    398d: a0 02        	ldy	#$2
    398f: b1 24        	lda	($24),y                 ; 0x24 <__rc20>
    3991: 88           	dey
    3992: 85 12        	sta	$12                     ; 0x12 <__rc2>
    3994: 0a           	asl
    3995: 64 13        	stz	$13                     ; 0x13 <__rc3>
    3997: 26 13        	rol	$13                     ; 0x13 <__rc3>
    3999: 0a           	asl
    399a: 26 13        	rol	$13                     ; 0x13 <__rc3>
    399c: 0a           	asl
    399d: 26 13        	rol	$13                     ; 0x13 <__rc3>
    399f: 18           	clc
    39a0: 65 12        	adc	$12                     ; 0x12 <__rc2>
    39a2: 85 12        	sta	$12                     ; 0x12 <__rc2>
    39a4: a5 13        	lda	$13                     ; 0x13 <__rc3>
    39a6: 69 00        	adc	#$0
    39a8: 85 13        	sta	$13                     ; 0x13 <__rc3>
    39aa: a9 e1        	lda	#$e1
    39ac: 18           	clc
    39ad: 65 12        	adc	$12                     ; 0x12 <__rc2>
    39af: 85 12        	sta	$12                     ; 0x12 <__rc2>
    39b1: a9 84        	lda	#$84
    39b3: 65 13        	adc	$13                     ; 0x13 <__rc3>
    39b5: 85 13        	sta	$13                     ; 0x13 <__rc3>
    39b7: 9c 14 d4     	stz	$d414                   ; 0xd414 <__heap_start+0x4dbc>
    39ba: 9c 15 d4     	stz	$d415                   ; 0xd415 <__heap_start+0x4dbd>
    39bd: 9c 17 d4     	stz	$d417                   ; 0xd417 <__heap_start+0x4dbf>
    39c0: b2 12        	lda	($12)                   ; 0x12 <__rc2>
    39c2: 8d 18 d4     	sta	$d418                   ; 0xd418 <__heap_start+0x4dc0>
    39c5: 9c 14 d5     	stz	$d514                   ; 0xd514 <__heap_start+0x4ebc>
    39c8: 9c 15 d5     	stz	$d515                   ; 0xd515 <__heap_start+0x4ebd>
    39cb: 9c 17 d5     	stz	$d517                   ; 0xd517 <__heap_start+0x4ebf>
    39ce: 8d 18 d5     	sta	$d518                   ; 0xd518 <__heap_start+0x4ec0>
    39d1: 80 49        	bra	$3a1c <launchBeat+0x310>
    39d3: a0 02        	ldy	#$2
    39d5: b1 24        	lda	($24),y                 ; 0x24 <__rc20>
    39d7: a2 0b        	ldx	#$b
    39d9: 86 12        	stx	$12                     ; 0x12 <__rc2>
    39db: 64 13        	stz	$13                     ; 0x13 <__rc3>
    39dd: a2 00        	ldx	#$0
    39df: 20 f9 60     	jsr	$60f9 <__mulhi3>
    39e2: 85 12        	sta	$12                     ; 0x12 <__rc2>
    39e4: 86 13        	stx	$13                     ; 0x13 <__rc3>
    39e6: a9 0e        	lda	#$e
    39e8: 18           	clc
    39e9: 65 12        	adc	$12                     ; 0x12 <__rc2>
    39eb: 85 12        	sta	$12                     ; 0x12 <__rc2>
    39ed: a9 85        	lda	#$85
    39ef: 65 13        	adc	$13                     ; 0x13 <__rc3>
    39f1: 85 13        	sta	$13                     ; 0x13 <__rc3>
    39f3: a0 01        	ldy	#$1
    39f5: b1 24        	lda	($24),y                 ; 0x24 <__rc20>
    39f7: 20 51 41     	jsr	$4151 <opl3_setInstrument>
    39fa: a0 01        	ldy	#$1
    39fc: b1 24        	lda	($24),y                 ; 0x24 <__rc20>
    39fe: c9 40        	cmp	#$40
    3a00: a2 80        	ldx	#$80
    3a02: 86 12        	stx	$12                     ; 0x12 <__rc2>
    3a04: a2 d5        	ldx	#$d5
    3a06: 86 13        	stx	$13                     ; 0x13 <__rc3>
    3a08: 90 08        	bcc	$3a12 <launchBeat+0x306>
    3a0a: a2 82        	ldx	#$82
    3a0c: 86 12        	stx	$12                     ; 0x12 <__rc2>
    3a0e: a2 d5        	ldx	#$d5
    3a10: 86 13        	stx	$13                     ; 0x13 <__rc3>
    3a12: 18           	clc
    3a13: 69 c0        	adc	#$c0
    3a15: 92 12        	sta	($12)                   ; 0x12 <__rc2>
    3a17: a2 30        	ldx	#$30
    3a19: 8e 81 d5     	stx	$d581                   ; 0xd581 <__heap_start+0x4f29>
    3a1c: b1 24        	lda	($24),y                 ; 0x24 <__rc20>
    3a1e: 85 18        	sta	$18                     ; 0x18 <__rc8>
    3a20: b2 26        	lda	($26)                   ; 0x26 <__rc22>
    3a22: 85 12        	sta	$12                     ; 0x12 <__rc2>
    3a24: b2 24        	lda	($24)                   ; 0x24 <__rc20>
    3a26: a2 4c        	ldx	#$4c
    3a28: 85 15        	sta	$15                     ; 0x15 <__rc5>
    3a2a: c9 02        	cmp	#$2
    3a2c: f0 02        	beq	$3a30 <launchBeat+0x324>
    3a2e: a2 7f        	ldx	#$7f
    3a30: a4 6a        	ldy	$6a                     ; 0x6a <gPtr>
    3a32: 86 13        	stx	$13                     ; 0x13 <__rc3>
    3a34: a6 6b        	ldx	$6b                     ; 0x6b <gPtr+0x1>
    3a36: 84 16        	sty	$16                     ; 0x16 <__rc6>
    3a38: 86 17        	stx	$17                     ; 0x17 <__rc7>
    3a3a: b2 16        	lda	($16)                   ; 0x16 <__rc6>
    3a3c: 85 14        	sta	$14                     ; 0x14 <__rc4>
    3a3e: a0 02        	ldy	#$2
    3a40: b1 24        	lda	($24),y                 ; 0x24 <__rc20>
    3a42: 85 17        	sta	$17                     ; 0x17 <__rc7>
    3a44: a9 01        	lda	#$1
    3a46: 85 16        	sta	$16                     ; 0x16 <__rc6>
    3a48: a6 18        	ldx	$18                     ; 0x18 <__rc8>
    3a4a: 20 66 31     	jsr	$3166 <dispatchNote>
    3a4d: b2 24        	lda	($24)                   ; 0x24 <__rc20>
    3a4f: c9 01        	cmp	#$1
    3a51: d0 09        	bne	$3a5c <launchBeat+0x350>
    3a53: a0 01        	ldy	#$1
    3a55: b1 24        	lda	($24),y                 ; 0x24 <__rc20>
    3a57: aa           	tax
    3a58: 98           	tya
    3a59: 9d 49 00     	sta	$49,x                   ; 0x49 <reservedSID>
    3a5c: a6 6a        	ldx	$6a                     ; 0x6a <gPtr>
    3a5e: a4 6b        	ldy	$6b                     ; 0x6b <gPtr+0x1>
    3a60: 86 12        	stx	$12                     ; 0x12 <__rc2>
    3a62: 84 13        	sty	$13                     ; 0x13 <__rc3>
    3a64: a0 08        	ldy	#$8
    3a66: b1 12        	lda	($12),y                 ; 0x12 <__rc2>
    3a68: 85 12        	sta	$12                     ; 0x12 <__rc2>
    3a6a: 0a           	asl
    3a6b: aa           	tax
    3a6c: a9 00        	lda	#$0
    3a6e: 2a           	rol
    3a6f: 86 13        	stx	$13                     ; 0x13 <__rc3>
    3a71: 06 13        	asl	$13                     ; 0x13 <__rc3>
    3a73: 2a           	rol
    3a74: 06 13        	asl	$13                     ; 0x13 <__rc3>
    3a76: 2a           	rol
    3a77: 06 13        	asl	$13                     ; 0x13 <__rc3>
    3a79: 2a           	rol
    3a7a: aa           	tax
    3a7b: 38           	sec
    3a7c: a5 13        	lda	$13                     ; 0x13 <__rc3>
    3a7e: e5 12        	sbc	$12                     ; 0x12 <__rc2>
    3a80: 85 12        	sta	$12                     ; 0x12 <__rc2>
    3a82: 8a           	txa
    3a83: e9 00        	sbc	#$0
    3a85: aa           	tax
    3a86: 18           	clc
    3a87: a5 12        	lda	$12                     ; 0x12 <__rc2>
    3a89: 65 7e        	adc	$7e                     ; 0x7e <theBeats>
    3a8b: 85 12        	sta	$12                     ; 0x12 <__rc2>
    3a8d: 8a           	txa
    3a8e: 65 7f        	adc	$7f                     ; 0x7f <theBeats+0x1>
    3a90: 85 13        	sta	$13                     ; 0x13 <__rc3>
    3a92: a0 02        	ldy	#$2
    3a94: b1 12        	lda	($12),y                 ; 0x12 <__rc2>
    3a96: 1a           	inc
    3a97: 91 12        	sta	($12),y                 ; 0x12 <__rc2>
    3a99: a2 80        	ldx	#$80
    3a9b: 86 f3        	stx	$f3                     ; 0xf3 <__zp_bss_size+0x99>
    3a9d: 18           	clc
    3a9e: a5 10        	lda	$10                     ; 0x10 <__rc0>
    3aa0: 69 09        	adc	#$9
    3aa2: 85 12        	sta	$12                     ; 0x12 <__rc2>
    3aa4: a5 11        	lda	$11                     ; 0x11 <__rc1>
    3aa6: 69 00        	adc	#$0
    3aa8: 85 13        	sta	$13                     ; 0x13 <__rc3>
    3aaa: a2 53        	ldx	#$53
    3aac: 86 18        	stx	$18                     ; 0x18 <__rc8>
    3aae: a2 86        	ldx	#$86
    3ab0: 86 19        	stx	$19                     ; 0x19 <__rc9>
    3ab2: 20 f0 ff     	jsr	$fff0 <__heap_start+0x7998>
    3ab5: 92 12        	sta	($12)                   ; 0x12 <__rc2>
    3ab7: a9 00        	lda	#$0
    3ab9: 6a           	ror
    3aba: 85 18        	sta	$18                     ; 0x18 <__rc8>
    3abc: b2 12        	lda	($12)                   ; 0x12 <__rc2>
    3abe: 85 12        	sta	$12                     ; 0x12 <__rc2>
    3ac0: b2 28        	lda	($28)                   ; 0x28 <__rc24>
    3ac2: aa           	tax
    3ac3: 18           	clc
    3ac4: a5 12        	lda	$12                     ; 0x12 <__rc2>
    3ac6: 75 6c        	adc	$6c,x                   ; 0x6c <mainTempoLUT>
    3ac8: 85 16        	sta	$16                     ; 0x16 <__rc6>
    3aca: a6 6a        	ldx	$6a                     ; 0x6a <gPtr>
    3acc: a4 6b        	ldy	$6b                     ; 0x6b <gPtr+0x1>
    3ace: 86 12        	stx	$12                     ; 0x12 <__rc2>
    3ad0: 84 13        	sty	$13                     ; 0x13 <__rc3>
    3ad2: a0 08        	ldy	#$8
    3ad4: b1 12        	lda	($12),y                 ; 0x12 <__rc2>
    3ad6: 85 12        	sta	$12                     ; 0x12 <__rc2>
    3ad8: 0a           	asl
    3ad9: aa           	tax
    3ada: a9 00        	lda	#$0
    3adc: 2a           	rol
    3add: 86 13        	stx	$13                     ; 0x13 <__rc3>
    3adf: 06 13        	asl	$13                     ; 0x13 <__rc3>
    3ae1: 2a           	rol
    3ae2: 06 13        	asl	$13                     ; 0x13 <__rc3>
    3ae4: 2a           	rol
    3ae5: 06 13        	asl	$13                     ; 0x13 <__rc3>
    3ae7: 2a           	rol
    3ae8: aa           	tax
    3ae9: 38           	sec
    3aea: a5 13        	lda	$13                     ; 0x13 <__rc3>
    3aec: e5 12        	sbc	$12                     ; 0x12 <__rc2>
    3aee: 85 12        	sta	$12                     ; 0x12 <__rc2>
    3af0: 8a           	txa
    3af1: e9 00        	sbc	#$0
    3af3: a8           	tay
    3af4: 18           	clc
    3af5: a5 12        	lda	$12                     ; 0x12 <__rc2>
    3af7: 65 7e        	adc	$7e                     ; 0x7e <theBeats>
    3af9: aa           	tax
    3afa: 98           	tya
    3afb: 65 7f        	adc	$7f                     ; 0x7f <theBeats+0x1>
    3afd: 86 12        	stx	$12                     ; 0x12 <__rc2>
    3aff: 85 13        	sta	$13                     ; 0x13 <__rc3>
    3b01: a8           	tay
    3b02: 18           	clc
    3b03: 8a           	txa
    3b04: 69 0d        	adc	#$d
    3b06: 85 14        	sta	$14                     ; 0x14 <__rc4>
    3b08: 98           	tya
    3b09: 69 00        	adc	#$0
    3b0b: 85 15        	sta	$15                     ; 0x15 <__rc5>
    3b0d: 18           	clc
    3b0e: a5 2a        	lda	$2a                     ; 0x2a <__rc26>
    3b10: a0 0d        	ldy	#$d
    3b12: 71 12        	adc	($12),y                 ; 0x12 <__rc2>
    3b14: 85 12        	sta	$12                     ; 0x12 <__rc2>
    3b16: a5 2b        	lda	$2b                     ; 0x2b <__rc27>
    3b18: a0 01        	ldy	#$1
    3b1a: 71 14        	adc	($14),y                 ; 0x14 <__rc4>
    3b1c: a8           	tay
    3b1d: a6 12        	ldx	$12                     ; 0x12 <__rc2>
    3b1f: 86 17        	stx	$17                     ; 0x17 <__rc7>
    3b21: 85 13        	sta	$13                     ; 0x13 <__rc3>
    3b23: a6 12        	ldx	$12                     ; 0x12 <__rc2>
    3b25: 86 14        	stx	$14                     ; 0x14 <__rc4>
    3b27: 85 15        	sta	$15                     ; 0x15 <__rc5>
    3b29: a2 ff        	ldx	#$ff
    3b2b: c6 14        	dec	$14                     ; 0x14 <__rc4>
    3b2d: e4 14        	cpx	$14                     ; 0x14 <__rc4>
    3b2f: d0 02        	bne	$3b33 <launchBeat+0x427>
    3b31: c6 15        	dec	$15                     ; 0x15 <__rc5>
    3b33: a5 16        	lda	$16                     ; 0x16 <__rc6>
    3b35: 92 14        	sta	($14)                   ; 0x14 <__rc4>
    3b37: 18           	clc
    3b38: a5 17        	lda	$17                     ; 0x17 <__rc7>
    3b3a: 69 fe        	adc	#$fe
    3b3c: 85 16        	sta	$16                     ; 0x16 <__rc6>
    3b3e: 98           	tya
    3b3f: 69 ff        	adc	#$ff
    3b41: 85 17        	sta	$17                     ; 0x17 <__rc7>
    3b43: b2 16        	lda	($16)                   ; 0x16 <__rc6>
    3b45: 85 f3        	sta	$f3                     ; 0xf3 <__zp_bss_size+0x99>
    3b47: b2 14        	lda	($14)                   ; 0x14 <__rc4>
    3b49: 85 f4        	sta	$f4                     ; 0xf4 <__zp_bss_size+0x9a>
    3b4b: b2 12        	lda	($12)                   ; 0x12 <__rc2>
    3b4d: 85 f5        	sta	$f5                     ; 0xf5 <__zp_bss_size+0x9b>
    3b4f: 18           	clc
    3b50: a5 10        	lda	$10                     ; 0x10 <__rc0>
    3b52: 69 0a        	adc	#$a
    3b54: 85 12        	sta	$12                     ; 0x12 <__rc2>
    3b56: a5 11        	lda	$11                     ; 0x11 <__rc1>
    3b58: 69 00        	adc	#$0
    3b5a: 85 13        	sta	$13                     ; 0x13 <__rc3>
    3b5c: 20 f0 ff     	jsr	$fff0 <__heap_start+0x7998>
    3b5f: 92 12        	sta	($12)                   ; 0x12 <__rc2>
    3b61: a9 00        	lda	#$0
    3b63: 6a           	ror
    3b64: 85 18        	sta	$18                     ; 0x18 <__rc8>
    3b66: a6 7e        	ldx	$7e                     ; 0x7e <theBeats>
    3b68: a4 7f        	ldy	$7f                     ; 0x7f <theBeats+0x1>
    3b6a: 86 12        	stx	$12                     ; 0x12 <__rc2>
    3b6c: 84 13        	sty	$13                     ; 0x13 <__rc3>
    3b6e: a6 6a        	ldx	$6a                     ; 0x6a <gPtr>
    3b70: a4 6b        	ldy	$6b                     ; 0x6b <gPtr+0x1>
    3b72: 86 2c        	stx	$2c                     ; 0x2c <__rc28>
    3b74: 84 2d        	sty	$2d                     ; 0x2d <__rc29>
    3b76: a0 08        	ldy	#$8
    3b78: b1 2c        	lda	($2c),y                 ; 0x2c <__rc28>
    3b7a: 85 14        	sta	$14                     ; 0x14 <__rc4>
    3b7c: 0a           	asl
    3b7d: aa           	tax
    3b7e: a9 00        	lda	#$0
    3b80: 2a           	rol
    3b81: 86 15        	stx	$15                     ; 0x15 <__rc5>
    3b83: 06 15        	asl	$15                     ; 0x15 <__rc5>
    3b85: 2a           	rol
    3b86: 06 15        	asl	$15                     ; 0x15 <__rc5>
    3b88: 2a           	rol
    3b89: 06 15        	asl	$15                     ; 0x15 <__rc5>
    3b8b: 2a           	rol
    3b8c: aa           	tax
    3b8d: 38           	sec
    3b8e: a5 15        	lda	$15                     ; 0x15 <__rc5>
    3b90: e5 14        	sbc	$14                     ; 0x14 <__rc4>
    3b92: 85 14        	sta	$14                     ; 0x14 <__rc4>
    3b94: 8a           	txa
    3b95: e9 00        	sbc	#$0
    3b97: aa           	tax
    3b98: 18           	clc
    3b99: a5 14        	lda	$14                     ; 0x14 <__rc4>
    3b9b: 65 7e        	adc	$7e                     ; 0x7e <theBeats>
    3b9d: 85 14        	sta	$14                     ; 0x14 <__rc4>
    3b9f: 8a           	txa
    3ba0: 65 7f        	adc	$7f                     ; 0x7f <theBeats+0x1>
    3ba2: e6 2e        	inc	$2e                     ; 0x2e <__rc30>
    3ba4: 85 15        	sta	$15                     ; 0x15 <__rc5>
    3ba6: 18           	clc
    3ba7: a5 2a        	lda	$2a                     ; 0x2a <__rc26>
    3ba9: 69 03        	adc	#$3
    3bab: 85 2a        	sta	$2a                     ; 0x2a <__rc26>
    3bad: a5 2b        	lda	$2b                     ; 0x2b <__rc27>
    3baf: 69 00        	adc	#$0
    3bb1: 85 2b        	sta	$2b                     ; 0x2b <__rc27>
    3bb3: a0 04        	ldy	#$4
    3bb5: a5 2e        	lda	$2e                     ; 0x2e <__rc30>
    3bb7: d1 14        	cmp	($14),y                 ; 0x14 <__rc4>
    3bb9: a6 2e        	ldx	$2e                     ; 0x2e <__rc30>
    3bbb: 90 03        	bcc	$3bc0 <launchBeat+0x4b4>
    3bbd: 4c 5e 3c     	jmp	$3c5e <launchBeat+0x552>
    3bc0: a5 14        	lda	$14                     ; 0x14 <__rc4>
    3bc2: 18           	clc
    3bc3: 69 09        	adc	#$9
    3bc5: 85 16        	sta	$16                     ; 0x16 <__rc6>
    3bc7: a5 15        	lda	$15                     ; 0x15 <__rc5>
    3bc9: 69 00        	adc	#$0
    3bcb: 85 17        	sta	$17                     ; 0x17 <__rc7>
    3bcd: a0 09        	ldy	#$9
    3bcf: b1 14        	lda	($14),y                 ; 0x14 <__rc4>
    3bd1: 85 14        	sta	$14                     ; 0x14 <__rc4>
    3bd3: a0 01        	ldy	#$1
    3bd5: b1 16        	lda	($16),y                 ; 0x16 <__rc6>
    3bd7: 85 15        	sta	$15                     ; 0x15 <__rc5>
    3bd9: a9 00        	lda	#$0
    3bdb: da           	phx
    3bdc: 7a           	ply
    3bdd: 91 14        	sta	($14),y                 ; 0x14 <__rc4>
    3bdf: a0 08        	ldy	#$8
    3be1: b1 2c        	lda	($2c),y                 ; 0x2c <__rc28>
    3be3: a4 26        	ldy	$26                     ; 0x26 <__rc22>
    3be5: 84 14        	sty	$14                     ; 0x14 <__rc4>
    3be7: a4 27        	ldy	$27                     ; 0x27 <__rc23>
    3be9: 84 15        	sty	$15                     ; 0x15 <__rc5>
    3beb: a4 28        	ldy	$28                     ; 0x28 <__rc24>
    3bed: 84 16        	sty	$16                     ; 0x16 <__rc6>
    3bef: a4 29        	ldy	$29                     ; 0x29 <__rc25>
    3bf1: 84 17        	sty	$17                     ; 0x17 <__rc7>
    3bf3: a4 24        	ldy	$24                     ; 0x24 <__rc20>
    3bf5: 84 18        	sty	$18                     ; 0x18 <__rc8>
    3bf7: a4 25        	ldy	$25                     ; 0x25 <__rc21>
    3bf9: 84 19        	sty	$19                     ; 0x19 <__rc9>
    3bfb: 86 2e        	stx	$2e                     ; 0x2e <__rc30>
    3bfd: 20 14 43     	jsr	$4314 <getBeatTrackNoteInfo>
    3c00: b2 24        	lda	($24)                   ; 0x24 <__rc20>
    3c02: c9 03        	cmp	#$3
    3c04: d0 03        	bne	$3c09 <launchBeat+0x4fd>
    3c06: 4c d3 39     	jmp	$39d3 <launchBeat+0x2c7>
    3c09: c9 01        	cmp	#$1
    3c0b: d0 03        	bne	$3c10 <launchBeat+0x504>
    3c0d: 4c 46 39     	jmp	$3946 <launchBeat+0x23a>
    3c10: a0 01        	ldy	#$1
    3c12: aa           	tax
    3c13: f0 03        	beq	$3c18 <launchBeat+0x50c>
    3c15: 4c 1c 3a     	jmp	$3a1c <launchBeat+0x310>
    3c18: b1 24        	lda	($24),y                 ; 0x24 <__rc20>
    3c1a: c9 09        	cmp	#$9
    3c1c: d0 03        	bne	$3c21 <launchBeat+0x515>
    3c1e: 4c 1c 3a     	jmp	$3a1c <launchBeat+0x310>
    3c21: a0 02        	ldy	#$2
    3c23: aa           	tax
    3c24: b1 24        	lda	($24),y                 ; 0x24 <__rc20>
    3c26: 85 12        	sta	$12                     ; 0x12 <__rc2>
    3c28: 8a           	txa
    3c29: 09 c0        	ora	#$c0
    3c2b: 8d b1 dd     	sta	$ddb1                   ; 0xddb1 <__heap_start+0x5759>
    3c2e: a6 12        	ldx	$12                     ; 0x12 <__rc2>
    3c30: 8e b1 dd     	stx	$ddb1                   ; 0xddb1 <__heap_start+0x5759>
    3c33: b1 24        	lda	($24),y                 ; 0x24 <__rc20>
    3c35: 85 12        	sta	$12                     ; 0x12 <__rc2>
    3c37: 88           	dey
    3c38: a9 c0        	lda	#$c0
    3c3a: 11 24        	ora	($24),y                 ; 0x24 <__rc20>
    3c3c: 8d a1 dd     	sta	$dda1                   ; 0xdda1 <__heap_start+0x5749>
    3c3f: a6 12        	ldx	$12                     ; 0x12 <__rc2>
    3c41: 8e a1 dd     	stx	$dda1                   ; 0xdda1 <__heap_start+0x5749>
    3c44: 4c 1c 3a     	jmp	$3a1c <launchBeat+0x310>
    3c47: a2 00        	ldx	#$0
    3c49: 86 12        	stx	$12                     ; 0x12 <__rc2>
    3c4b: a2 00        	ldx	#$0
    3c4d: 86 13        	stx	$13                     ; 0x13 <__rc3>
    3c4f: a6 25        	ldx	$25                     ; 0x25 <__rc21>
    3c51: e4 13        	cpx	$13                     ; 0x13 <__rc3>
    3c53: d0 09        	bne	$3c5e <launchBeat+0x552>
    3c55: a6 24        	ldx	$24                     ; 0x24 <__rc20>
    3c57: e4 12        	cpx	$12                     ; 0x12 <__rc2>
    3c59: d0 03        	bne	$3c5e <launchBeat+0x552>
    3c5b: 4c 88 3d     	jmp	$3d88 <launchBeat+0x67c>
    3c5e: a2 00        	ldx	#$0
    3c60: a0 10        	ldy	#$10
    3c62: a9 58        	lda	#$58
    3c64: 86 12        	stx	$12                     ; 0x12 <__rc2>
    3c66: 84 13        	sty	$13                     ; 0x13 <__rc3>
    3c68: 18           	clc
    3c69: 65 12        	adc	$12                     ; 0x12 <__rc2>
    3c6b: 85 2c        	sta	$2c                     ; 0x2c <__rc28>
    3c6d: a9 86        	lda	#$86
    3c6f: 65 13        	adc	$13                     ; 0x13 <__rc3>
    3c71: 85 2d        	sta	$2d                     ; 0x2d <__rc29>
    3c73: a5 24        	lda	$24                     ; 0x24 <__rc20>
    3c75: 18           	clc
    3c76: 69 fe        	adc	#$fe
    3c78: 85 13        	sta	$13                     ; 0x13 <__rc3>
    3c7a: a5 25        	lda	$25                     ; 0x25 <__rc21>
    3c7c: 69 ff        	adc	#$ff
    3c7e: a6 13        	ldx	$13                     ; 0x13 <__rc3>
    3c80: 86 26        	stx	$26                     ; 0x26 <__rc22>
    3c82: aa           	tax
    3c83: 85 27        	sta	$27                     ; 0x27 <__rc23>
    3c85: b2 26        	lda	($26)                   ; 0x26 <__rc22>
    3c87: 85 12        	sta	$12                     ; 0x12 <__rc2>
    3c89: a0 01        	ldy	#$1
    3c8b: b1 26        	lda	($26),y                 ; 0x26 <__rc22>
    3c8d: 85 2a        	sta	$2a                     ; 0x2a <__rc26>
    3c8f: a9 fe        	lda	#$fe
    3c91: 32 26        	and	($26)                   ; 0x26 <__rc22>
    3c93: 85 2b        	sta	$2b                     ; 0x2b <__rc27>
    3c95: a4 13        	ldy	$13                     ; 0x13 <__rc3>
    3c97: 84 15        	sty	$15                     ; 0x15 <__rc5>
    3c99: a5 13        	lda	$13                     ; 0x13 <__rc3>
    3c9b: 18           	clc
    3c9c: 65 2b        	adc	$2b                     ; 0x2b <__rc27>
    3c9e: 85 28        	sta	$28                     ; 0x28 <__rc24>
    3ca0: 8a           	txa
    3ca1: 86 16        	stx	$16                     ; 0x16 <__rc6>
    3ca3: 65 2a        	adc	$2a                     ; 0x2a <__rc26>
    3ca5: c5 2d        	cmp	$2d                     ; 0x2d <__rc29>
    3ca7: d0 10        	bne	$3cb9 <launchBeat+0x5ad>
    3ca9: a6 28        	ldx	$28                     ; 0x28 <__rc24>
    3cab: e4 2c        	cpx	$2c                     ; 0x2c <__rc28>
    3cad: d0 0a        	bne	$3cb9 <launchBeat+0x5ad>
    3caf: a2 00        	ldx	#$0
    3cb1: 86 28        	stx	$28                     ; 0x28 <__rc24>
    3cb3: a2 00        	ldx	#$0
    3cb5: 86 29        	stx	$29                     ; 0x29 <__rc25>
    3cb7: 80 02        	bra	$3cbb <launchBeat+0x5af>
    3cb9: 85 29        	sta	$29                     ; 0x29 <__rc25>
    3cbb: a5 12        	lda	$12                     ; 0x12 <__rc2>
    3cbd: 29 01        	and	#$1
    3cbf: f0 4b        	beq	$3d0c <launchBeat+0x600>
    3cc1: a5 24        	lda	$24                     ; 0x24 <__rc20>
    3cc3: 18           	clc
    3cc4: 69 fc        	adc	#$fc
    3cc6: 85 12        	sta	$12                     ; 0x12 <__rc2>
    3cc8: a5 25        	lda	$25                     ; 0x25 <__rc21>
    3cca: 69 ff        	adc	#$ff
    3ccc: 85 13        	sta	$13                     ; 0x13 <__rc3>
    3cce: a0 01        	ldy	#$1
    3cd0: 38           	sec
    3cd1: a9 00        	lda	#$0
    3cd3: f2 12        	sbc	($12)                   ; 0x12 <__rc2>
    3cd5: 85 14        	sta	$14                     ; 0x14 <__rc4>
    3cd7: a9 00        	lda	#$0
    3cd9: f1 12        	sbc	($12),y                 ; 0x12 <__rc2>
    3cdb: 85 12        	sta	$12                     ; 0x12 <__rc2>
    3cdd: a5 15        	lda	$15                     ; 0x15 <__rc5>
    3cdf: 18           	clc
    3ce0: 65 14        	adc	$14                     ; 0x14 <__rc4>
    3ce2: 85 26        	sta	$26                     ; 0x26 <__rc22>
    3ce4: a5 16        	lda	$16                     ; 0x16 <__rc6>
    3ce6: 65 12        	adc	$12                     ; 0x12 <__rc2>
    3ce8: 85 27        	sta	$27                     ; 0x27 <__rc23>
    3cea: b1 26        	lda	($26),y                 ; 0x26 <__rc22>
    3cec: 85 24        	sta	$24                     ; 0x24 <__rc20>
    3cee: a9 fe        	lda	#$fe
    3cf0: 32 26        	and	($26)                   ; 0x26 <__rc22>
    3cf2: 85 25        	sta	$25                     ; 0x25 <__rc21>
    3cf4: a6 26        	ldx	$26                     ; 0x26 <__rc22>
    3cf6: 86 12        	stx	$12                     ; 0x12 <__rc2>
    3cf8: a6 27        	ldx	$27                     ; 0x27 <__rc23>
    3cfa: 86 13        	stx	$13                     ; 0x13 <__rc3>
    3cfc: 20 56 04     	jsr	$456 <_ZN12_GLOBAL__N_19FreeChunk6removeEv>
    3cff: 18           	clc
    3d00: a5 25        	lda	$25                     ; 0x25 <__rc21>
    3d02: 65 2b        	adc	$2b                     ; 0x2b <__rc27>
    3d04: 85 2b        	sta	$2b                     ; 0x2b <__rc27>
    3d06: a5 24        	lda	$24                     ; 0x24 <__rc20>
    3d08: 65 2a        	adc	$2a                     ; 0x2a <__rc26>
    3d0a: 85 2a        	sta	$2a                     ; 0x2a <__rc26>
    3d0c: a2 00        	ldx	#$0
    3d0e: 86 12        	stx	$12                     ; 0x12 <__rc2>
    3d10: a2 00        	ldx	#$0
    3d12: 86 13        	stx	$13                     ; 0x13 <__rc3>
    3d14: a6 29        	ldx	$29                     ; 0x29 <__rc25>
    3d16: e4 13        	cpx	$13                     ; 0x13 <__rc3>
    3d18: d0 0d        	bne	$3d27 <launchBeat+0x61b>
    3d1a: a6 28        	ldx	$28                     ; 0x28 <__rc24>
    3d1c: e4 12        	cpx	$12                     ; 0x12 <__rc2>
    3d1e: d0 07        	bne	$3d27 <launchBeat+0x61b>
    3d20: a2 01        	ldx	#$1
    3d22: 8e 54 86     	stx	$8654                   ; 0x8654 <_ZN12_GLOBAL__N_19last_freeE>
    3d25: 80 52        	bra	$3d79 <launchBeat+0x66d>
    3d27: a0 01        	ldy	#$1
    3d29: b1 28        	lda	($28),y                 ; 0x28 <__rc24>
    3d2b: aa           	tax
    3d2c: a9 fe        	lda	#$fe
    3d2e: 32 28        	and	($28)                   ; 0x28 <__rc24>
    3d30: 18           	clc
    3d31: 85 25        	sta	$25                     ; 0x25 <__rc21>
    3d33: 65 28        	adc	$28                     ; 0x28 <__rc24>
    3d35: 85 12        	sta	$12                     ; 0x12 <__rc2>
    3d37: 8a           	txa
    3d38: 86 24        	stx	$24                     ; 0x24 <__rc20>
    3d3a: 65 29        	adc	$29                     ; 0x29 <__rc25>
    3d3c: c5 2d        	cmp	$2d                     ; 0x2d <__rc29>
    3d3e: d0 0f        	bne	$3d4f <launchBeat+0x643>
    3d40: a6 12        	ldx	$12                     ; 0x12 <__rc2>
    3d42: e4 2c        	cpx	$2c                     ; 0x2c <__rc28>
    3d44: d0 09        	bne	$3d4f <launchBeat+0x643>
    3d46: a9 01        	lda	#$1
    3d48: 64 12        	stz	$12                     ; 0x12 <__rc2>
    3d4a: 2d 54 86     	and	$8654                   ; 0x8654 <_ZN12_GLOBAL__N_19last_freeE>
    3d4d: 80 08        	bra	$3d57 <launchBeat+0x64b>
    3d4f: 85 13        	sta	$13                     ; 0x13 <__rc3>
    3d51: a9 01        	lda	#$1
    3d53: 32 12        	and	($12)                   ; 0x12 <__rc2>
    3d55: 64 12        	stz	$12                     ; 0x12 <__rc2>
    3d57: a6 12        	ldx	$12                     ; 0x12 <__rc2>
    3d59: d0 06        	bne	$3d61 <launchBeat+0x655>
    3d5b: aa           	tax
    3d5c: d0 03        	bne	$3d61 <launchBeat+0x655>
    3d5e: 4c c6 3d     	jmp	$3dc6 <launchBeat+0x6ba>
    3d61: a6 28        	ldx	$28                     ; 0x28 <__rc24>
    3d63: 86 12        	stx	$12                     ; 0x12 <__rc2>
    3d65: a6 29        	ldx	$29                     ; 0x29 <__rc25>
    3d67: 86 13        	stx	$13                     ; 0x13 <__rc3>
    3d69: 20 56 04     	jsr	$456 <_ZN12_GLOBAL__N_19FreeChunk6removeEv>
    3d6c: 18           	clc
    3d6d: a5 25        	lda	$25                     ; 0x25 <__rc21>
    3d6f: 65 2b        	adc	$2b                     ; 0x2b <__rc27>
    3d71: 85 2b        	sta	$2b                     ; 0x2b <__rc27>
    3d73: a5 24        	lda	$24                     ; 0x24 <__rc20>
    3d75: 65 2a        	adc	$2a                     ; 0x2a <__rc26>
    3d77: 85 2a        	sta	$2a                     ; 0x2a <__rc26>
    3d79: a6 26        	ldx	$26                     ; 0x26 <__rc22>
    3d7b: 86 12        	stx	$12                     ; 0x12 <__rc2>
    3d7d: a6 27        	ldx	$27                     ; 0x27 <__rc23>
    3d7f: 86 13        	stx	$13                     ; 0x13 <__rc3>
    3d81: a6 2a        	ldx	$2a                     ; 0x2a <__rc26>
    3d83: a5 2b        	lda	$2b                     ; 0x2b <__rc27>
    3d85: 20 1c 03     	jsr	$31c <_ZN12_GLOBAL__N_19FreeChunk6insertEPvj>
    3d88: a0 00        	ldy	#$0
    3d8a: b1 10        	lda	($10),y                 ; 0x10 <__rc0>
    3d8c: 85 2e        	sta	$2e                     ; 0x2e <__rc30>
    3d8e: c8           	iny
    3d8f: b1 10        	lda	($10),y                 ; 0x10 <__rc0>
    3d91: 85 2d        	sta	$2d                     ; 0x2d <__rc29>
    3d93: c8           	iny
    3d94: b1 10        	lda	($10),y                 ; 0x10 <__rc0>
    3d96: 85 2c        	sta	$2c                     ; 0x2c <__rc28>
    3d98: c8           	iny
    3d99: b1 10        	lda	($10),y                 ; 0x10 <__rc0>
    3d9b: 85 2b        	sta	$2b                     ; 0x2b <__rc27>
    3d9d: c8           	iny
    3d9e: b1 10        	lda	($10),y                 ; 0x10 <__rc0>
    3da0: 85 2a        	sta	$2a                     ; 0x2a <__rc26>
    3da2: c8           	iny
    3da3: b1 10        	lda	($10),y                 ; 0x10 <__rc0>
    3da5: 85 29        	sta	$29                     ; 0x29 <__rc25>
    3da7: c8           	iny
    3da8: b1 10        	lda	($10),y                 ; 0x10 <__rc0>
    3daa: 85 28        	sta	$28                     ; 0x28 <__rc24>
    3dac: fa           	plx
    3dad: 86 27        	stx	$27                     ; 0x27 <__rc23>
    3daf: fa           	plx
    3db0: 86 26        	stx	$26                     ; 0x26 <__rc22>
    3db2: fa           	plx
    3db3: 86 25        	stx	$25                     ; 0x25 <__rc21>
    3db5: fa           	plx
    3db6: 86 24        	stx	$24                     ; 0x24 <__rc20>
    3db8: 18           	clc
    3db9: a5 10        	lda	$10                     ; 0x10 <__rc0>
    3dbb: 69 0b        	adc	#$b
    3dbd: 85 10        	sta	$10                     ; 0x10 <__rc0>
    3dbf: a5 11        	lda	$11                     ; 0x11 <__rc1>
    3dc1: 69 00        	adc	#$0
    3dc3: 85 11        	sta	$11                     ; 0x11 <__rc1>
    3dc5: 60           	rts
    3dc6: b2 28        	lda	($28)                   ; 0x28 <__rc24>
    3dc8: 09 01        	ora	#$1
    3dca: 92 28        	sta	($28)                   ; 0x28 <__rc24>
    3dcc: a5 24        	lda	$24                     ; 0x24 <__rc20>
    3dce: 91 28        	sta	($28),y                 ; 0x28 <__rc24>
    3dd0: 4c 79 3d     	jmp	$3d79 <launchBeat+0x66d>

00003dd3 <escReset>:
    3dd3: a2 b1        	ldx	#$b1
    3dd5: 86 14        	stx	$14                     ; 0x14 <__rc4>
    3dd7: a2 dd        	ldx	#$dd
    3dd9: 86 15        	stx	$15                     ; 0x15 <__rc5>
    3ddb: a2 a1        	ldx	#$a1
    3ddd: 86 12        	stx	$12                     ; 0x12 <__rc2>
    3ddf: a2 dd        	ldx	#$dd
    3de1: 86 13        	stx	$13                     ; 0x13 <__rc3>
    3de3: a6 6a        	ldx	$6a                     ; 0x6a <gPtr>
    3de5: a4 6b        	ldy	$6b                     ; 0x6b <gPtr+0x1>
    3de7: 86 16        	stx	$16                     ; 0x16 <__rc6>
    3de9: 84 17        	sty	$17                     ; 0x17 <__rc7>
    3deb: b2 16        	lda	($16)                   ; 0x16 <__rc6>
    3ded: a2 a1        	ldx	#$a1
    3def: 86 16        	stx	$16                     ; 0x16 <__rc6>
    3df1: a2 dd        	ldx	#$dd
    3df3: 86 17        	stx	$17                     ; 0x17 <__rc7>
    3df5: aa           	tax
    3df6: f0 08        	beq	$3e00 <escReset+0x2d>
    3df8: a2 b1        	ldx	#$b1
    3dfa: 86 16        	stx	$16                     ; 0x16 <__rc6>
    3dfc: a2 dd        	ldx	#$dd
    3dfe: 86 17        	stx	$17                     ; 0x17 <__rc7>
    3e00: a9 c0        	lda	#$c0
    3e02: 92 16        	sta	($16)                   ; 0x16 <__rc6>
    3e04: aa           	tax
    3e05: a9 00        	lda	#$0
    3e07: 92 16        	sta	($16)                   ; 0x16 <__rc6>
    3e09: 8a           	txa
    3e0a: 1a           	inc
    3e0b: c9 d0        	cmp	#$d0
    3e0d: d0 f3        	bne	$3e02 <escReset+0x2f>
    3e0f: a9 ff        	lda	#$ff
    3e11: 92 16        	sta	($16)                   ; 0x16 <__rc6>
    3e13: a6 6a        	ldx	$6a                     ; 0x6a <gPtr>
    3e15: a4 6b        	ldy	$6b                     ; 0x6b <gPtr+0x1>
    3e17: 86 16        	stx	$16                     ; 0x16 <__rc6>
    3e19: 84 17        	sty	$17                     ; 0x17 <__rc7>
    3e1b: b2 16        	lda	($16)                   ; 0x16 <__rc6>
    3e1d: c9 ff        	cmp	#$ff
    3e1f: f0 08        	beq	$3e29 <escReset+0x56>
    3e21: a2 b1        	ldx	#$b1
    3e23: 86 12        	stx	$12                     ; 0x12 <__rc2>
    3e25: a2 dd        	ldx	#$dd
    3e27: 86 13        	stx	$13                     ; 0x13 <__rc3>
    3e29: a9 c0        	lda	#$c0
    3e2b: 92 12        	sta	($12)                   ; 0x12 <__rc2>
    3e2d: aa           	tax
    3e2e: a9 00        	lda	#$0
    3e30: 92 12        	sta	($12)                   ; 0x12 <__rc2>
    3e32: 8a           	txa
    3e33: 1a           	inc
    3e34: c9 d0        	cmp	#$d0
    3e36: d0 f3        	bne	$3e2b <escReset+0x58>
    3e38: a9 ff        	lda	#$ff
    3e3a: 92 12        	sta	($12)                   ; 0x12 <__rc2>
    3e3c: a6 6a        	ldx	$6a                     ; 0x6a <gPtr>
    3e3e: a4 6b        	ldy	$6b                     ; 0x6b <gPtr+0x1>
    3e40: 86 8f        	stx	$8f                     ; 0x8f <__zp_bss_size+0x35>
    3e42: 86 8d        	stx	$8d                     ; 0x8d <__zp_bss_size+0x33>
    3e44: 84 90        	sty	$90                     ; 0x90 <__zp_bss_size+0x36>
    3e46: 84 8e        	sty	$8e                     ; 0x8e <__zp_bss_size+0x34>
    3e48: 1a           	inc
    3e49: 92 8d        	sta	($8d)                   ; 0x8d <__zp_bss_size+0x33>
    3e4b: a9 0a        	lda	#$a
    3e4d: a2 00        	ldx	#$0
    3e4f: 20 91 5e     	jsr	$5e91 <malloc>
    3e52: a6 8d        	ldx	$8d                     ; 0x8d <__zp_bss_size+0x33>
    3e54: 86 14        	stx	$14                     ; 0x14 <__rc4>
    3e56: a6 8e        	ldx	$8e                     ; 0x8e <__zp_bss_size+0x34>
    3e58: 86 15        	stx	$15                     ; 0x15 <__rc5>
    3e5a: e6 14        	inc	$14                     ; 0x14 <__rc4>
    3e5c: d0 02        	bne	$3e60 <escReset+0x8d>
    3e5e: e6 15        	inc	$15                     ; 0x15 <__rc5>
    3e60: a5 12        	lda	$12                     ; 0x12 <__rc2>
    3e62: a0 01        	ldy	#$1
    3e64: 91 8d        	sta	($8d),y                 ; 0x8d <__zp_bss_size+0x33>
    3e66: a5 13        	lda	$13                     ; 0x13 <__rc3>
    3e68: 91 14        	sta	($14),y                 ; 0x14 <__rc4>
    3e6a: a2 00        	ldx	#$0
    3e6c: 86 14        	stx	$14                     ; 0x14 <__rc4>
    3e6e: a2 00        	ldx	#$0
    3e70: 86 15        	stx	$15                     ; 0x15 <__rc5>
    3e72: a6 13        	ldx	$13                     ; 0x13 <__rc3>
    3e74: e4 15        	cpx	$15                     ; 0x15 <__rc5>
    3e76: d0 11        	bne	$3e89 <escReset+0xb6>
    3e78: a6 12        	ldx	$12                     ; 0x12 <__rc2>
    3e7a: e4 14        	cpx	$14                     ; 0x14 <__rc4>
    3e7c: d0 0b        	bne	$3e89 <escReset+0xb6>
    3e7e: a2 03        	ldx	#$3
    3e80: 86 12        	stx	$12                     ; 0x12 <__rc2>
    3e82: a2 76        	ldx	#$76
    3e84: 86 13        	stx	$13                     ; 0x13 <__rc3>
    3e86: 20 65 52     	jsr	$5265 <printf>
    3e89: 18           	clc
    3e8a: a5 8f        	lda	$8f                     ; 0x8f <__zp_bss_size+0x35>
    3e8c: 69 03        	adc	#$3
    3e8e: 85 12        	sta	$12                     ; 0x12 <__rc2>
    3e90: a5 90        	lda	$90                     ; 0x90 <__zp_bss_size+0x36>
    3e92: 69 00        	adc	#$0
    3e94: 85 13        	sta	$13                     ; 0x13 <__rc3>
    3e96: a2 06        	ldx	#$6
    3e98: 64 14        	stz	$14                     ; 0x14 <__rc4>
    3e9a: a9 00        	lda	#$0
    3e9c: 20 90 60     	jsr	$6090 <__memset>
    3e9f: a0 09        	ldy	#$9
    3ea1: a9 78        	lda	#$78
    3ea3: 91 8d        	sta	($8d),y                 ; 0x8d <__zp_bss_size+0x33>
    3ea5: a0 00        	ldy	#$0
    3ea7: a6 8d        	ldx	$8d                     ; 0x8d <__zp_bss_size+0x33>
    3ea9: 86 12        	stx	$12                     ; 0x12 <__rc2>
    3eab: a6 8e        	ldx	$8e                     ; 0x8e <__zp_bss_size+0x34>
    3ead: 86 13        	stx	$13                     ; 0x13 <__rc3>
    3eaf: e6 12        	inc	$12                     ; 0x12 <__rc2>
    3eb1: d0 02        	bne	$3eb5 <escReset+0xe2>
    3eb3: e6 13        	inc	$13                     ; 0x13 <__rc3>
    3eb5: 84 14        	sty	$14                     ; 0x14 <__rc4>
    3eb7: a0 01        	ldy	#$1
    3eb9: b1 8d        	lda	($8d),y                 ; 0x8d <__zp_bss_size+0x33>
    3ebb: aa           	tax
    3ebc: b1 12        	lda	($12),y                 ; 0x12 <__rc2>
    3ebe: a4 14        	ldy	$14                     ; 0x14 <__rc4>
    3ec0: 85 13        	sta	$13                     ; 0x13 <__rc3>
    3ec2: 86 12        	stx	$12                     ; 0x12 <__rc2>
    3ec4: a9 00        	lda	#$0
    3ec6: 91 12        	sta	($12),y                 ; 0x12 <__rc2>
    3ec8: c8           	iny
    3ec9: c0 0a        	cpy	#$a
    3ecb: d0 da        	bne	$3ea7 <escReset+0xd4>
    3ecd: a2 02        	ldx	#$2
    3ecf: 86 01        	stx	$1                      ; 0x1 <__data_size+0x1>
    3ed1: a2 c0        	ldx	#$c0
    3ed3: a0 00        	ldy	#$0
    3ed5: a9 20        	lda	#$20
    3ed7: 84 12        	sty	$12                     ; 0x12 <__rc2>
    3ed9: 86 13        	stx	$13                     ; 0x13 <__rc3>
    3edb: 92 12        	sta	($12)                   ; 0x12 <__rc2>
    3edd: c8           	iny
    3ede: d0 01        	bne	$3ee1 <escReset+0x10e>
    3ee0: e8           	inx
    3ee1: e0 d2        	cpx	#$d2
    3ee3: d0 f2        	bne	$3ed7 <escReset+0x104>
    3ee5: c0 c0        	cpy	#$c0
    3ee7: d0 ee        	bne	$3ed7 <escReset+0x104>
    3ee9: 64 01        	stz	$1                      ; 0x1 <__data_size+0x1>
    3eeb: a6 6a        	ldx	$6a                     ; 0x6a <gPtr>
    3eed: a4 6b        	ldy	$6b                     ; 0x6b <gPtr+0x1>
    3eef: 86 12        	stx	$12                     ; 0x12 <__rc2>
    3ef1: 84 13        	sty	$13                     ; 0x13 <__rc3>
    3ef3: 20 fe 4a     	jsr	$4afe <textTitle>
    3ef6: ad 04 d4     	lda	$d404                   ; 0xd404 <__heap_start+0x4dac>
    3ef9: 29 fe        	and	#$fe
    3efb: 8d 04 d4     	sta	$d404                   ; 0xd404 <__heap_start+0x4dac>
    3efe: ad 0b d4     	lda	$d40b                   ; 0xd40b <__heap_start+0x4db3>
    3f01: 29 fe        	and	#$fe
    3f03: 8d 0b d4     	sta	$d40b                   ; 0xd40b <__heap_start+0x4db3>
    3f06: ad 12 d4     	lda	$d412                   ; 0xd412 <__heap_start+0x4dba>
    3f09: 29 fe        	and	#$fe
    3f0b: 8d 12 d4     	sta	$d412                   ; 0xd412 <__heap_start+0x4dba>
    3f0e: ad 04 d5     	lda	$d504                   ; 0xd504 <__heap_start+0x4eac>
    3f11: 29 fe        	and	#$fe
    3f13: 8d 04 d5     	sta	$d504                   ; 0xd504 <__heap_start+0x4eac>
    3f16: ad 0b d5     	lda	$d50b                   ; 0xd50b <__heap_start+0x4eb3>
    3f19: 29 fe        	and	#$fe
    3f1b: 8d 0b d5     	sta	$d50b                   ; 0xd50b <__heap_start+0x4eb3>
    3f1e: ad 12 d5     	lda	$d512                   ; 0xd512 <__heap_start+0x4eba>
    3f21: 29 fe        	and	#$fe
    3f23: 8d 12 d5     	sta	$d512                   ; 0xd512 <__heap_start+0x4eba>
    3f26: a2 10        	ldx	#$10
    3f28: a0 ff        	ldy	#$ff
    3f2a: 8a           	txa
    3f2b: 09 9f        	ora	#$9f
    3f2d: 8d 00 d6     	sta	$d600                   ; 0xd600 <__heap_start+0x4fa8>
    3f30: 8d 10 d6     	sta	$d610                   ; 0xd610 <__heap_start+0x4fb8>
    3f33: 18           	clc
    3f34: 98           	tya
    3f35: 69 02        	adc	#$2
    3f37: 85 12        	sta	$12                     ; 0x12 <__rc2>
    3f39: 18           	clc
    3f3a: 8a           	txa
    3f3b: 69 20        	adc	#$20
    3f3d: aa           	tax
    3f3e: a4 12        	ldy	$12                     ; 0x12 <__rc2>
    3f40: a5 12        	lda	$12                     ; 0x12 <__rc2>
    3f42: c9 06        	cmp	#$6
    3f44: 90 e4        	bcc	$3f2a <escReset+0x157>
    3f46: 64 61        	stz	$61                     ; 0x61 <instSelectMode>
    3f48: a2 c2        	ldx	#$c2
    3f4a: 8e b1 dd     	stx	$ddb1                   ; 0xddb1 <__heap_start+0x5759>
    3f4d: a0 73        	ldy	#$73
    3f4f: 8c b1 dd     	sty	$ddb1                   ; 0xddb1 <__heap_start+0x5759>
    3f52: 8e a1 dd     	stx	$dda1                   ; 0xdda1 <__heap_start+0x5749>
    3f55: 8c a1 dd     	sty	$dda1                   ; 0xdda1 <__heap_start+0x5749>
    3f58: a6 6a        	ldx	$6a                     ; 0x6a <gPtr>
    3f5a: a4 6b        	ldy	$6b                     ; 0x6b <gPtr+0x1>
    3f5c: 86 12        	stx	$12                     ; 0x12 <__rc2>
    3f5e: 84 13        	sty	$13                     ; 0x13 <__rc3>
    3f60: 86 14        	stx	$14                     ; 0x14 <__rc4>
    3f62: 84 15        	sty	$15                     ; 0x15 <__rc5>
    3f64: e6 14        	inc	$14                     ; 0x14 <__rc4>
    3f66: d0 02        	bne	$3f6a <escReset+0x197>
    3f68: e6 15        	inc	$15                     ; 0x15 <__rc5>
    3f6a: a0 01        	ldy	#$1
    3f6c: b1 12        	lda	($12),y                 ; 0x12 <__rc2>
    3f6e: 85 16        	sta	$16                     ; 0x16 <__rc6>
    3f70: b1 14        	lda	($14),y                 ; 0x14 <__rc4>
    3f72: 85 17        	sta	$17                     ; 0x17 <__rc7>
    3f74: a9 00        	lda	#$0
    3f76: 92 16        	sta	($16)                   ; 0x16 <__rc6>
    3f78: b1 12        	lda	($12),y                 ; 0x12 <__rc2>
    3f7a: 85 16        	sta	$16                     ; 0x16 <__rc6>
    3f7c: b1 14        	lda	($14),y                 ; 0x14 <__rc4>
    3f7e: 85 17        	sta	$17                     ; 0x17 <__rc7>
    3f80: a9 00        	lda	#$0
    3f82: 91 16        	sta	($16),y                 ; 0x16 <__rc6>
    3f84: b1 12        	lda	($12),y                 ; 0x12 <__rc2>
    3f86: 85 12        	sta	$12                     ; 0x12 <__rc2>
    3f88: b1 14        	lda	($14),y                 ; 0x14 <__rc4>
    3f8a: 85 13        	sta	$13                     ; 0x13 <__rc3>
    3f8c: a0 09        	ldy	#$9
    3f8e: a9 00        	lda	#$0
    3f90: 91 12        	sta	($12),y                 ; 0x12 <__rc2>
    3f92: 60           	rts

00003f93 <prepTempoLUT>:
    3f93: 18           	clc
    3f94: a5 10        	lda	$10                     ; 0x10 <__rc0>
    3f96: 69 fe        	adc	#$fe
    3f98: 85 10        	sta	$10                     ; 0x10 <__rc0>
    3f9a: a5 11        	lda	$11                     ; 0x11 <__rc1>
    3f9c: 69 ff        	adc	#$ff
    3f9e: 85 11        	sta	$11                     ; 0x11 <__rc1>
    3fa0: a6 6a        	ldx	$6a                     ; 0x6a <gPtr>
    3fa2: a4 6b        	ldy	$6b                     ; 0x6b <gPtr+0x1>
    3fa4: 86 12        	stx	$12                     ; 0x12 <__rc2>
    3fa6: 84 13        	sty	$13                     ; 0x13 <__rc3>
    3fa8: a0 09        	ldy	#$9
    3faa: b1 12        	lda	($12),y                 ; 0x12 <__rc2>
    3fac: 64 12        	stz	$12                     ; 0x12 <__rc2>
    3fae: 64 13        	stz	$13                     ; 0x13 <__rc3>
    3fb0: a2 00        	ldx	#$0
    3fb2: 20 4d 72     	jsr	$724d <__floatunsisf>
    3fb5: 85 14        	sta	$14                     ; 0x14 <__rc4>
    3fb7: 86 15        	stx	$15                     ; 0x15 <__rc5>
    3fb9: a6 12        	ldx	$12                     ; 0x12 <__rc2>
    3fbb: a4 13        	ldy	$13                     ; 0x13 <__rc3>
    3fbd: a9 e1        	lda	#$e1
    3fbf: 85 12        	sta	$12                     ; 0x12 <__rc2>
    3fc1: a9 43        	lda	#$43
    3fc3: 85 13        	sta	$13                     ; 0x13 <__rc3>
    3fc5: 86 16        	stx	$16                     ; 0x16 <__rc6>
    3fc7: 84 17        	sty	$17                     ; 0x17 <__rc7>
    3fc9: a2 00        	ldx	#$0
    3fcb: 64 8d        	stz	$8d                     ; 0x8d <__zp_bss_size+0x33>
    3fcd: 8a           	txa
    3fce: 20 3f 66     	jsr	$663f <__divsf3>
    3fd1: 20 d1 71     	jsr	$71d1 <__fixunssfsi>
    3fd4: 85 13        	sta	$13                     ; 0x13 <__rc3>
    3fd6: 85 6c        	sta	$6c                     ; 0x6c <mainTempoLUT>
    3fd8: a0 01        	ldy	#$1
    3fda: 84 12        	sty	$12                     ; 0x12 <__rc2>
    3fdc: a5 13        	lda	$13                     ; 0x13 <__rc3>
    3fde: 0a           	asl
    3fdf: c6 12        	dec	$12                     ; 0x12 <__rc2>
    3fe1: d0 fb        	bne	$3fde <prepTempoLUT+0x4b>
    3fe3: a6 8d        	ldx	$8d                     ; 0x8d <__zp_bss_size+0x33>
    3fe5: 9d 6d 00     	sta	$6d,x                   ; 0x6d <mainTempoLUT+0x1>
    3fe8: c8           	iny
    3fe9: e8           	inx
    3fea: 86 8d        	stx	$8d                     ; 0x8d <__zp_bss_size+0x33>
    3fec: c0 06        	cpy	#$6
    3fee: d0 ea        	bne	$3fda <prepTempoLUT+0x47>
    3ff0: 64 8d        	stz	$8d                     ; 0x8d <__zp_bss_size+0x33>
    3ff2: a2 00        	ldx	#$0
    3ff4: b5 6c        	lda	$6c,x                   ; 0x6c <mainTempoLUT>
    3ff6: 0a           	asl
    3ff7: 64 14        	stz	$14                     ; 0x14 <__rc4>
    3ff9: 26 14        	rol	$14                     ; 0x14 <__rc4>
    3ffb: 86 8e        	stx	$8e                     ; 0x8e <__zp_bss_size+0x34>
    3ffd: a2 03        	ldx	#$3
    3fff: 86 12        	stx	$12                     ; 0x12 <__rc2>
    4001: 64 13        	stz	$13                     ; 0x13 <__rc3>
    4003: a6 14        	ldx	$14                     ; 0x14 <__rc4>
    4005: 20 ef 62     	jsr	$62ef <__udivhi3>
    4008: a6 8e        	ldx	$8e                     ; 0x8e <__zp_bss_size+0x34>
    400a: 9d 72 00     	sta	$72,x                   ; 0x72 <mainTempoLUT+0x6>
    400d: e8           	inx
    400e: e0 06        	cpx	#$6
    4010: d0 e2        	bne	$3ff4 <prepTempoLUT+0x61>
    4012: a5 6d        	lda	$6d                     ; 0x6d <mainTempoLUT+0x1>
    4014: 0a           	asl
    4015: 85 12        	sta	$12                     ; 0x12 <__rc2>
    4017: 0a           	asl
    4018: 0a           	asl
    4019: 0a           	asl
    401a: 18           	clc
    401b: 65 12        	adc	$12                     ; 0x12 <__rc2>
    401d: 85 7d        	sta	$7d                     ; 0x7d <mainTempoLUT+0x11>
    401f: a2 03        	ldx	#$3
    4021: 20 93 62     	jsr	$6293 <__udivqi3>
    4024: 0a           	asl
    4025: 85 77        	sta	$77                     ; 0x77 <mainTempoLUT+0xb>
    4027: 64 12        	stz	$12                     ; 0x12 <__rc2>
    4029: 64 33        	stz	$33                     ; 0x33 <_col>
    402b: 9c 14 d0     	stz	$d014                   ; 0xd014 <__heap_start+0x49bc>
    402e: 9c 15 d0     	stz	$d015                   ; 0xd015 <__heap_start+0x49bd>
    4031: a2 0a        	ldx	#$a
    4033: 86 34        	stx	$34                     ; 0x34 <_row>
    4035: 8e 16 d0     	stx	$d016                   ; 0xd016 <__heap_start+0x49be>
    4038: 9c 17 d0     	stz	$d017                   ; 0xd017 <__heap_start+0x49bf>
    403b: a2 00        	ldx	#$0
    403d: b5 6c        	lda	$6c,x                   ; 0x6c <mainTempoLUT>
    403f: 92 10        	sta	($10)                   ; 0x10 <__rc0>
    4041: a9 00        	lda	#$0
    4043: a0 01        	ldy	#$1
    4045: 91 10        	sta	($10),y                 ; 0x10 <__rc0>
    4047: a0 77        	ldy	#$77
    4049: 84 12        	sty	$12                     ; 0x12 <__rc2>
    404b: a0 78        	ldy	#$78
    404d: 84 13        	sty	$13                     ; 0x13 <__rc3>
    404f: 86 8d        	stx	$8d                     ; 0x8d <__zp_bss_size+0x33>
    4051: 20 65 52     	jsr	$5265 <printf>
    4054: a6 8d        	ldx	$8d                     ; 0x8d <__zp_bss_size+0x33>
    4056: e8           	inx
    4057: e0 12        	cpx	#$12
    4059: d0 e2        	bne	$403d <prepTempoLUT+0xaa>
    405b: a2 0a        	ldx	#$a
    405d: 86 35        	stx	$35                     ; 0x35 <__putchar.s>
    405f: a2 35        	ldx	#$35
    4061: 86 12        	stx	$12                     ; 0x12 <__rc2>
    4063: a2 00        	ldx	#$0
    4065: 86 13        	stx	$13                     ; 0x13 <__rc3>
    4067: 20 ae 2f     	jsr	$2fae <textPrint>
    406a: a9 00        	lda	#$0
    406c: 92 10        	sta	($10)                   ; 0x10 <__rc0>
    406e: 85 8d        	sta	$8d                     ; 0x8d <__zp_bss_size+0x33>
    4070: a9 00        	lda	#$0
    4072: a0 01        	ldy	#$1
    4074: 91 10        	sta	($10),y                 ; 0x10 <__rc0>
    4076: a2 77        	ldx	#$77
    4078: 86 12        	stx	$12                     ; 0x12 <__rc2>
    407a: a2 78        	ldx	#$78
    407c: 86 13        	stx	$13                     ; 0x13 <__rc3>
    407e: 20 65 52     	jsr	$5265 <printf>
    4081: a5 8d        	lda	$8d                     ; 0x8d <__zp_bss_size+0x33>
    4083: 1a           	inc
    4084: c9 12        	cmp	#$12
    4086: d0 e4        	bne	$406c <prepTempoLUT+0xd9>
    4088: 18           	clc
    4089: a5 10        	lda	$10                     ; 0x10 <__rc0>
    408b: 69 02        	adc	#$2
    408d: 85 10        	sta	$10                     ; 0x10 <__rc0>
    408f: a5 11        	lda	$11                     ; 0x11 <__rc1>
    4091: 69 00        	adc	#$0
    4093: 85 11        	sta	$11                     ; 0x11 <__rc1>
    4095: 60           	rts

00004096 <textPrintUInt>:
    4096: 48           	pha
    4097: 18           	clc
    4098: a5 10        	lda	$10                     ; 0x10 <__rc0>
    409a: 69 fe        	adc	#$fe
    409c: 85 10        	sta	$10                     ; 0x10 <__rc0>
    409e: a5 11        	lda	$11                     ; 0x11 <__rc1>
    40a0: 69 ff        	adc	#$ff
    40a2: 85 11        	sta	$11                     ; 0x11 <__rc1>
    40a4: 68           	pla
    40a5: a4 24        	ldy	$24                     ; 0x24 <__rc20>
    40a7: 5a           	phy
    40a8: a4 25        	ldy	$25                     ; 0x25 <__rc21>
    40aa: 5a           	phy
    40ab: a4 26        	ldy	$26                     ; 0x26 <__rc22>
    40ad: 5a           	phy
    40ae: a4 27        	ldy	$27                     ; 0x27 <__rc23>
    40b0: 5a           	phy
    40b1: 86 25        	stx	$25                     ; 0x25 <__rc21>
    40b3: a4 12        	ldy	$12                     ; 0x12 <__rc2>
    40b5: a6 13        	ldx	$13                     ; 0x13 <__rc3>
    40b7: d0 18        	bne	$40d1 <textPrintUInt+0x3b>
    40b9: 86 27        	stx	$27                     ; 0x27 <__rc23>
    40bb: c0 00        	cpy	#$0
    40bd: f0 03        	beq	$40c2 <textPrintUInt+0x2c>
    40bf: 4c 41 41     	jmp	$4141 <textPrintUInt+0xab>
    40c2: a6 25        	ldx	$25                     ; 0x25 <__rc21>
    40c4: f0 03        	beq	$40c9 <textPrintUInt+0x33>
    40c6: 4c 4a 41     	jmp	$414a <textPrintUInt+0xb4>
    40c9: 84 26        	sty	$26                     ; 0x26 <__rc22>
    40cb: c9 0a        	cmp	#$a
    40cd: b0 0a        	bcs	$40d9 <textPrintUInt+0x43>
    40cf: 80 29        	bra	$40fa <textPrintUInt+0x64>
    40d1: 84 26        	sty	$26                     ; 0x26 <__rc22>
    40d3: 86 27        	stx	$27                     ; 0x27 <__rc23>
    40d5: e0 00        	cpx	#$0
    40d7: 90 21        	bcc	$40fa <textPrintUInt+0x64>
    40d9: 8d 06 de     	sta	$de06                   ; 0xde06 <__heap_start+0x57ae>
    40dc: a4 25        	ldy	$25                     ; 0x25 <__rc21>
    40de: 8c 07 de     	sty	$de07                   ; 0xde07 <__heap_start+0x57af>
    40e1: a2 0a        	ldx	#$a
    40e3: 8e 04 de     	stx	$de04                   ; 0xde04 <__heap_start+0x57ac>
    40e6: 9c 05 de     	stz	$de05                   ; 0xde05 <__heap_start+0x57ad>
    40e9: 85 24        	sta	$24                     ; 0x24 <__rc20>
    40eb: ad 14 de     	lda	$de14                   ; 0xde14 <__heap_start+0x57bc>
    40ee: ae 15 de     	ldx	$de15                   ; 0xde15 <__heap_start+0x57bd>
    40f1: 64 12        	stz	$12                     ; 0x12 <__rc2>
    40f3: 64 13        	stz	$13                     ; 0x13 <__rc3>
    40f5: 20 96 40     	jsr	$4096 <textPrintUInt>
    40f8: a5 24        	lda	$24                     ; 0x24 <__rc20>
    40fa: a2 0a        	ldx	#$a
    40fc: a4 26        	ldy	$26                     ; 0x26 <__rc22>
    40fe: 84 12        	sty	$12                     ; 0x12 <__rc2>
    4100: a4 27        	ldy	$27                     ; 0x27 <__rc23>
    4102: 84 13        	sty	$13                     ; 0x13 <__rc3>
    4104: 86 14        	stx	$14                     ; 0x14 <__rc4>
    4106: 64 15        	stz	$15                     ; 0x15 <__rc5>
    4108: 64 16        	stz	$16                     ; 0x16 <__rc6>
    410a: 64 17        	stz	$17                     ; 0x17 <__rc7>
    410c: a6 25        	ldx	$25                     ; 0x25 <__rc21>
    410e: 20 af 63     	jsr	$63af <__umodsi3>
    4111: 09 30        	ora	#$30
    4113: 18           	clc
    4114: a6 10        	ldx	$10                     ; 0x10 <__rc0>
    4116: 86 12        	stx	$12                     ; 0x12 <__rc2>
    4118: a6 11        	ldx	$11                     ; 0x11 <__rc1>
    411a: 86 13        	stx	$13                     ; 0x13 <__rc3>
    411c: 92 12        	sta	($12)                   ; 0x12 <__rc2>
    411e: a0 01        	ldy	#$1
    4120: a9 00        	lda	#$0
    4122: 91 12        	sta	($12),y                 ; 0x12 <__rc2>
    4124: 20 ae 2f     	jsr	$2fae <textPrint>
    4127: fa           	plx
    4128: 86 27        	stx	$27                     ; 0x27 <__rc23>
    412a: fa           	plx
    412b: 86 26        	stx	$26                     ; 0x26 <__rc22>
    412d: fa           	plx
    412e: 86 25        	stx	$25                     ; 0x25 <__rc21>
    4130: fa           	plx
    4131: 86 24        	stx	$24                     ; 0x24 <__rc20>
    4133: 18           	clc
    4134: a5 10        	lda	$10                     ; 0x10 <__rc0>
    4136: 69 02        	adc	#$2
    4138: 85 10        	sta	$10                     ; 0x10 <__rc0>
    413a: a5 11        	lda	$11                     ; 0x11 <__rc1>
    413c: 69 00        	adc	#$0
    413e: 85 11        	sta	$11                     ; 0x11 <__rc1>
    4140: 60           	rts
    4141: 84 26        	sty	$26                     ; 0x26 <__rc22>
    4143: c0 00        	cpy	#$0
    4145: 90 b3        	bcc	$40fa <textPrintUInt+0x64>
    4147: 4c d9 40     	jmp	$40d9 <textPrintUInt+0x43>
    414a: 84 26        	sty	$26                     ; 0x26 <__rc22>
    414c: a6 25        	ldx	$25                     ; 0x25 <__rc21>
    414e: 4c d5 40     	jmp	$40d5 <textPrintUInt+0x3f>

00004151 <opl3_setInstrument>:
    4151: c9 03        	cmp	#$3
    4153: 90 0c        	bcc	$4161 <opl3_setInstrument+0x10>
    4155: c9 06        	cmp	#$6
    4157: 90 05        	bcc	$415e <opl3_setInstrument+0xd>
    4159: 18           	clc
    415a: 69 0a        	adc	#$a
    415c: 80 03        	bra	$4161 <opl3_setInstrument+0x10>
    415e: 18           	clc
    415f: 69 05        	adc	#$5
    4161: a2 80        	ldx	#$80
    4163: 86 14        	stx	$14                     ; 0x14 <__rc4>
    4165: a2 d5        	ldx	#$d5
    4167: 86 15        	stx	$15                     ; 0x15 <__rc5>
    4169: aa           	tax
    416a: 09 20        	ora	#$20
    416c: 85 17        	sta	$17                     ; 0x17 <__rc7>
    416e: a0 01        	ldy	#$1
    4170: b1 12        	lda	($12),y                 ; 0x12 <__rc2>
    4172: a4 17        	ldy	$17                     ; 0x17 <__rc7>
    4174: 8c 80 d5     	sty	$d580                   ; 0xd580 <__heap_start+0x4f28>
    4177: 8d 81 d5     	sta	$d581                   ; 0xd581 <__heap_start+0x4f29>
    417a: 18           	clc
    417b: 8a           	txa
    417c: 69 03        	adc	#$3
    417e: a8           	tay
    417f: b2 12        	lda	($12)                   ; 0x12 <__rc2>
    4181: 85 18        	sta	$18                     ; 0x18 <__rc8>
    4183: 86 16        	stx	$16                     ; 0x16 <__rc6>
    4185: e0 fd        	cpx	#$fd
    4187: 98           	tya
    4188: 84 17        	sty	$17                     ; 0x17 <__rc7>
    418a: 09 20        	ora	#$20
    418c: 90 08        	bcc	$4196 <opl3_setInstrument+0x45>
    418e: a2 82        	ldx	#$82
    4190: 86 14        	stx	$14                     ; 0x14 <__rc4>
    4192: a2 d5        	ldx	#$d5
    4194: 86 15        	stx	$15                     ; 0x15 <__rc5>
    4196: 92 14        	sta	($14)                   ; 0x14 <__rc4>
    4198: a6 18        	ldx	$18                     ; 0x18 <__rc8>
    419a: 8e 81 d5     	stx	$d581                   ; 0xd581 <__heap_start+0x4f29>
    419d: a6 16        	ldx	$16                     ; 0x16 <__rc6>
    419f: a5 16        	lda	$16                     ; 0x16 <__rc6>
    41a1: 09 40        	ora	#$40
    41a3: 85 18        	sta	$18                     ; 0x18 <__rc8>
    41a5: a0 03        	ldy	#$3
    41a7: b1 12        	lda	($12),y                 ; 0x12 <__rc2>
    41a9: a4 18        	ldy	$18                     ; 0x18 <__rc8>
    41ab: 8c 80 d5     	sty	$d580                   ; 0xd580 <__heap_start+0x4f28>
    41ae: 8d 81 d5     	sta	$d581                   ; 0xd581 <__heap_start+0x4f29>
    41b1: a0 02        	ldy	#$2
    41b3: b1 12        	lda	($12),y                 ; 0x12 <__rc2>
    41b5: 85 16        	sta	$16                     ; 0x16 <__rc6>
    41b7: a5 17        	lda	$17                     ; 0x17 <__rc7>
    41b9: 09 40        	ora	#$40
    41bb: 92 14        	sta	($14)                   ; 0x14 <__rc4>
    41bd: a4 16        	ldy	$16                     ; 0x16 <__rc6>
    41bf: 8c 81 d5     	sty	$d581                   ; 0xd581 <__heap_start+0x4f29>
    41c2: 8a           	txa
    41c3: 09 60        	ora	#$60
    41c5: 85 18        	sta	$18                     ; 0x18 <__rc8>
    41c7: a0 05        	ldy	#$5
    41c9: b1 12        	lda	($12),y                 ; 0x12 <__rc2>
    41cb: a4 18        	ldy	$18                     ; 0x18 <__rc8>
    41cd: 8c 80 d5     	sty	$d580                   ; 0xd580 <__heap_start+0x4f28>
    41d0: 8d 81 d5     	sta	$d581                   ; 0xd581 <__heap_start+0x4f29>
    41d3: a0 04        	ldy	#$4
    41d5: b1 12        	lda	($12),y                 ; 0x12 <__rc2>
    41d7: 85 16        	sta	$16                     ; 0x16 <__rc6>
    41d9: a5 17        	lda	$17                     ; 0x17 <__rc7>
    41db: 09 60        	ora	#$60
    41dd: 92 14        	sta	($14)                   ; 0x14 <__rc4>
    41df: a4 16        	ldy	$16                     ; 0x16 <__rc6>
    41e1: 8c 81 d5     	sty	$d581                   ; 0xd581 <__heap_start+0x4f29>
    41e4: 8a           	txa
    41e5: 09 80        	ora	#$80
    41e7: 85 18        	sta	$18                     ; 0x18 <__rc8>
    41e9: a0 07        	ldy	#$7
    41eb: b1 12        	lda	($12),y                 ; 0x12 <__rc2>
    41ed: a4 18        	ldy	$18                     ; 0x18 <__rc8>
    41ef: 8c 80 d5     	sty	$d580                   ; 0xd580 <__heap_start+0x4f28>
    41f2: 8d 81 d5     	sta	$d581                   ; 0xd581 <__heap_start+0x4f29>
    41f5: a0 06        	ldy	#$6
    41f7: b1 12        	lda	($12),y                 ; 0x12 <__rc2>
    41f9: 85 16        	sta	$16                     ; 0x16 <__rc6>
    41fb: a5 17        	lda	$17                     ; 0x17 <__rc7>
    41fd: 09 80        	ora	#$80
    41ff: 92 14        	sta	($14)                   ; 0x14 <__rc4>
    4201: a4 16        	ldy	$16                     ; 0x16 <__rc6>
    4203: 8c 81 d5     	sty	$d581                   ; 0xd581 <__heap_start+0x4f29>
    4206: 8a           	txa
    4207: 09 e0        	ora	#$e0
    4209: aa           	tax
    420a: a0 09        	ldy	#$9
    420c: b1 12        	lda	($12),y                 ; 0x12 <__rc2>
    420e: 8e 80 d5     	stx	$d580                   ; 0xd580 <__heap_start+0x4f28>
    4211: 8d 81 d5     	sta	$d581                   ; 0xd581 <__heap_start+0x4f29>
    4214: 88           	dey
    4215: b1 12        	lda	($12),y                 ; 0x12 <__rc2>
    4217: 85 12        	sta	$12                     ; 0x12 <__rc2>
    4219: a5 17        	lda	$17                     ; 0x17 <__rc7>
    421b: 09 e0        	ora	#$e0
    421d: 92 14        	sta	($14)                   ; 0x14 <__rc4>
    421f: a6 12        	ldx	$12                     ; 0x12 <__rc2>
    4221: 8e 81 d5     	stx	$d581                   ; 0xd581 <__heap_start+0x4f29>
    4224: 60           	rts

00004225 <sid_setInstrument>:
    4225: a8           	tay
    4226: a9 00        	lda	#$0
    4228: 85 90        	sta	$90                     ; 0x90 <__zp_bss_size+0x36>
    422a: 98           	tya
    422b: f0 04        	beq	$4231 <sid_setInstrument+0xc>
    422d: a0 d5        	ldy	#$d5
    422f: 80 02        	bra	$4233 <sid_setInstrument+0xe>
    4231: a0 d4        	ldy	#$d4
    4233: 84 91        	sty	$91                     ; 0x91 <__zp_bss_size+0x37>
    4235: e0 02        	cpx	#$2
    4237: f0 08        	beq	$4241 <sid_setInstrument+0x1c>
    4239: e0 01        	cpx	#$1
    423b: d0 08        	bne	$4245 <sid_setInstrument+0x20>
    423d: a2 07        	ldx	#$7
    423f: 80 02        	bra	$4243 <sid_setInstrument+0x1e>
    4241: a2 0e        	ldx	#$e
    4243: 86 90        	stx	$90                     ; 0x90 <__zp_bss_size+0x36>
    4245: a0 01        	ldy	#$1
    4247: b1 12        	lda	($12),y                 ; 0x12 <__rc2>
    4249: 85 17        	sta	$17                     ; 0x17 <__rc7>
    424b: a6 90        	ldx	$90                     ; 0x90 <__zp_bss_size+0x36>
    424d: 86 16        	stx	$16                     ; 0x16 <__rc6>
    424f: 8a           	txa
    4250: 18           	clc
    4251: 69 02        	adc	#$2
    4253: 85 14        	sta	$14                     ; 0x14 <__rc4>
    4255: a6 91        	ldx	$91                     ; 0x91 <__zp_bss_size+0x37>
    4257: 8a           	txa
    4258: 69 00        	adc	#$0
    425a: 85 15        	sta	$15                     ; 0x15 <__rc5>
    425c: a5 17        	lda	$17                     ; 0x17 <__rc7>
    425e: 92 14        	sta	($14)                   ; 0x14 <__rc4>
    4260: c8           	iny
    4261: b1 12        	lda	($12),y                 ; 0x12 <__rc2>
    4263: 85 17        	sta	$17                     ; 0x17 <__rc7>
    4265: a5 16        	lda	$16                     ; 0x16 <__rc6>
    4267: 18           	clc
    4268: 69 03        	adc	#$3
    426a: 85 14        	sta	$14                     ; 0x14 <__rc4>
    426c: 8a           	txa
    426d: 69 00        	adc	#$0
    426f: 85 15        	sta	$15                     ; 0x15 <__rc5>
    4271: a5 17        	lda	$17                     ; 0x17 <__rc7>
    4273: 92 14        	sta	($14)                   ; 0x14 <__rc4>
    4275: c8           	iny
    4276: b1 12        	lda	($12),y                 ; 0x12 <__rc2>
    4278: 85 17        	sta	$17                     ; 0x17 <__rc7>
    427a: a5 16        	lda	$16                     ; 0x16 <__rc6>
    427c: 18           	clc
    427d: 69 05        	adc	#$5
    427f: 85 14        	sta	$14                     ; 0x14 <__rc4>
    4281: 8a           	txa
    4282: 69 00        	adc	#$0
    4284: 85 15        	sta	$15                     ; 0x15 <__rc5>
    4286: a5 17        	lda	$17                     ; 0x17 <__rc7>
    4288: 92 14        	sta	($14)                   ; 0x14 <__rc4>
    428a: a5 16        	lda	$16                     ; 0x16 <__rc6>
    428c: 18           	clc
    428d: 69 06        	adc	#$6
    428f: 85 14        	sta	$14                     ; 0x14 <__rc4>
    4291: 8a           	txa
    4292: 69 00        	adc	#$0
    4294: 18           	clc
    4295: 85 15        	sta	$15                     ; 0x15 <__rc5>
    4297: c8           	iny
    4298: b1 12        	lda	($12),y                 ; 0x12 <__rc2>
    429a: 92 14        	sta	($14)                   ; 0x14 <__rc4>
    429c: a5 16        	lda	$16                     ; 0x16 <__rc6>
    429e: 69 04        	adc	#$4
    42a0: 85 14        	sta	$14                     ; 0x14 <__rc4>
    42a2: 8a           	txa
    42a3: 69 00        	adc	#$0
    42a5: 85 15        	sta	$15                     ; 0x15 <__rc5>
    42a7: c8           	iny
    42a8: b1 12        	lda	($12),y                 ; 0x12 <__rc2>
    42aa: 92 14        	sta	($14)                   ; 0x14 <__rc4>
    42ac: 60           	rts

000042ad <sid_setInstrumentAllChannels>:
    42ad: 85 12        	sta	$12                     ; 0x12 <__rc2>
    42af: 0a           	asl
    42b0: 64 13        	stz	$13                     ; 0x13 <__rc3>
    42b2: 26 13        	rol	$13                     ; 0x13 <__rc3>
    42b4: 0a           	asl
    42b5: 26 13        	rol	$13                     ; 0x13 <__rc3>
    42b7: 0a           	asl
    42b8: 26 13        	rol	$13                     ; 0x13 <__rc3>
    42ba: 18           	clc
    42bb: 65 12        	adc	$12                     ; 0x12 <__rc2>
    42bd: 85 12        	sta	$12                     ; 0x12 <__rc2>
    42bf: a5 13        	lda	$13                     ; 0x13 <__rc3>
    42c1: 69 00        	adc	#$0
    42c3: 85 13        	sta	$13                     ; 0x13 <__rc3>
    42c5: a9 e1        	lda	#$e1
    42c7: 18           	clc
    42c8: 65 12        	adc	$12                     ; 0x12 <__rc2>
    42ca: 85 8d        	sta	$8d                     ; 0x8d <__zp_bss_size+0x33>
    42cc: a9 84        	lda	#$84
    42ce: 65 13        	adc	$13                     ; 0x13 <__rc3>
    42d0: 85 8e        	sta	$8e                     ; 0x8e <__zp_bss_size+0x34>
    42d2: a2 00        	ldx	#$0
    42d4: a4 8d        	ldy	$8d                     ; 0x8d <__zp_bss_size+0x33>
    42d6: 84 12        	sty	$12                     ; 0x12 <__rc2>
    42d8: a4 8e        	ldy	$8e                     ; 0x8e <__zp_bss_size+0x34>
    42da: 84 13        	sty	$13                     ; 0x13 <__rc3>
    42dc: 86 8f        	stx	$8f                     ; 0x8f <__zp_bss_size+0x35>
    42de: a9 00        	lda	#$0
    42e0: 20 25 42     	jsr	$4225 <sid_setInstrument>
    42e3: a6 8d        	ldx	$8d                     ; 0x8d <__zp_bss_size+0x33>
    42e5: 86 12        	stx	$12                     ; 0x12 <__rc2>
    42e7: a6 8e        	ldx	$8e                     ; 0x8e <__zp_bss_size+0x34>
    42e9: 86 13        	stx	$13                     ; 0x13 <__rc3>
    42eb: a6 8f        	ldx	$8f                     ; 0x8f <__zp_bss_size+0x35>
    42ed: a9 01        	lda	#$1
    42ef: 20 25 42     	jsr	$4225 <sid_setInstrument>
    42f2: a6 8f        	ldx	$8f                     ; 0x8f <__zp_bss_size+0x35>
    42f4: e8           	inx
    42f5: e0 03        	cpx	#$3
    42f7: d0 db        	bne	$42d4 <sid_setInstrumentAllChannels+0x27>
    42f9: 9c 14 d4     	stz	$d414                   ; 0xd414 <__heap_start+0x4dbc>
    42fc: 9c 15 d4     	stz	$d415                   ; 0xd415 <__heap_start+0x4dbd>
    42ff: 9c 17 d4     	stz	$d417                   ; 0xd417 <__heap_start+0x4dbf>
    4302: b2 8d        	lda	($8d)                   ; 0x8d <__zp_bss_size+0x33>
    4304: 8d 18 d4     	sta	$d418                   ; 0xd418 <__heap_start+0x4dc0>
    4307: 9c 14 d5     	stz	$d514                   ; 0xd514 <__heap_start+0x4ebc>
    430a: 9c 15 d5     	stz	$d515                   ; 0xd515 <__heap_start+0x4ebd>
    430d: 9c 17 d5     	stz	$d517                   ; 0xd517 <__heap_start+0x4ebf>
    4310: 8d 18 d5     	sta	$d518                   ; 0xd518 <__heap_start+0x4ec0>
    4313: 60           	rts

00004314 <getBeatTrackNoteInfo>:
    4314: 48           	pha
    4315: 18           	clc
    4316: a5 10        	lda	$10                     ; 0x10 <__rc0>
    4318: 69 fb        	adc	#$fb
    431a: 85 10        	sta	$10                     ; 0x10 <__rc0>
    431c: a5 11        	lda	$11                     ; 0x11 <__rc1>
    431e: 69 ff        	adc	#$ff
    4320: 85 11        	sta	$11                     ; 0x11 <__rc1>
    4322: 68           	pla
    4323: a4 24        	ldy	$24                     ; 0x24 <__rc20>
    4325: 5a           	phy
    4326: a4 25        	ldy	$25                     ; 0x25 <__rc21>
    4328: 5a           	phy
    4329: a4 26        	ldy	$26                     ; 0x26 <__rc22>
    432b: 5a           	phy
    432c: a4 27        	ldy	$27                     ; 0x27 <__rc23>
    432e: 5a           	phy
    432f: 48           	pha
    4330: a5 28        	lda	$28                     ; 0x28 <__rc24>
    4332: a0 04        	ldy	#$4
    4334: 91 10        	sta	($10),y                 ; 0x10 <__rc0>
    4336: a5 29        	lda	$29                     ; 0x29 <__rc25>
    4338: 88           	dey
    4339: 91 10        	sta	($10),y                 ; 0x10 <__rc0>
    433b: a5 2a        	lda	$2a                     ; 0x2a <__rc26>
    433d: 88           	dey
    433e: 91 10        	sta	($10),y                 ; 0x10 <__rc0>
    4340: a5 2b        	lda	$2b                     ; 0x2b <__rc27>
    4342: 88           	dey
    4343: 91 10        	sta	($10),y                 ; 0x10 <__rc0>
    4345: a5 2c        	lda	$2c                     ; 0x2c <__rc28>
    4347: 88           	dey
    4348: 91 10        	sta	($10),y                 ; 0x10 <__rc0>
    434a: 68           	pla
    434b: 85 1b        	sta	$1b                     ; 0x1b <__rc11>
    434d: 86 24        	stx	$24                     ; 0x24 <__rc20>
    434f: 0a           	asl
    4350: 64 1a        	stz	$1a                     ; 0x1a <__rc10>
    4352: a2 00        	ldx	#$0
    4354: 64 1c        	stz	$1c                     ; 0x1c <__rc12>
    4356: 26 1c        	rol	$1c                     ; 0x1c <__rc12>
    4358: 0a           	asl
    4359: 26 1c        	rol	$1c                     ; 0x1c <__rc12>
    435b: 0a           	asl
    435c: 26 1c        	rol	$1c                     ; 0x1c <__rc12>
    435e: 0a           	asl
    435f: 26 1c        	rol	$1c                     ; 0x1c <__rc12>
    4361: 38           	sec
    4362: e5 1b        	sbc	$1b                     ; 0x1b <__rc11>
    4364: aa           	tax
    4365: a5 1c        	lda	$1c                     ; 0x1c <__rc12>
    4367: e9 00        	sbc	#$0
    4369: 85 1b        	sta	$1b                     ; 0x1b <__rc11>
    436b: 18           	clc
    436c: 8a           	txa
    436d: 65 12        	adc	$12                     ; 0x12 <__rc2>
    436f: a8           	tay
    4370: a5 13        	lda	$13                     ; 0x13 <__rc3>
    4372: 65 1b        	adc	$1b                     ; 0x1b <__rc11>
    4374: 84 22        	sty	$22                     ; 0x22 <__rc18>
    4376: 84 12        	sty	$12                     ; 0x12 <__rc2>
    4378: 85 23        	sta	$23                     ; 0x23 <__rc19>
    437a: 85 13        	sta	$13                     ; 0x13 <__rc3>
    437c: a0 04        	ldy	#$4
    437e: b1 12        	lda	($12),y                 ; 0x12 <__rc2>
    4380: d0 03        	bne	$4385 <getBeatTrackNoteInfo+0x71>
    4382: 4c 72 45     	jmp	$4572 <getBeatTrackNoteInfo+0x25e>
    4385: a0 05        	ldy	#$5
    4387: a5 22        	lda	$22                     ; 0x22 <__rc18>
    4389: 18           	clc
    438a: 69 05        	adc	#$5
    438c: 85 1c        	sta	$1c                     ; 0x1c <__rc12>
    438e: a5 23        	lda	$23                     ; 0x23 <__rc19>
    4390: 69 00        	adc	#$0
    4392: 85 1d        	sta	$1d                     ; 0x1d <__rc13>
    4394: b1 12        	lda	($12),y                 ; 0x12 <__rc2>
    4396: 85 25        	sta	$25                     ; 0x25 <__rc21>
    4398: a0 01        	ldy	#$1
    439a: b1 1c        	lda	($1c),y                 ; 0x1c <__rc12>
    439c: 85 26        	sta	$26                     ; 0x26 <__rc22>
    439e: c8           	iny
    439f: b1 1c        	lda	($1c),y                 ; 0x1c <__rc12>
    43a1: 85 27        	sta	$27                     ; 0x27 <__rc23>
    43a3: c8           	iny
    43a4: b1 1c        	lda	($1c),y                 ; 0x1c <__rc12>
    43a6: 85 28        	sta	$28                     ; 0x28 <__rc24>
    43a8: 80 37        	bra	$43e1 <getBeatTrackNoteInfo+0xcd>
    43aa: 0a           	asl
    43ab: 64 1c        	stz	$1c                     ; 0x1c <__rc12>
    43ad: 26 1c        	rol	$1c                     ; 0x1c <__rc12>
    43af: 18           	clc
    43b0: 69 04        	adc	#$4
    43b2: 85 1b        	sta	$1b                     ; 0x1b <__rc11>
    43b4: a5 1c        	lda	$1c                     ; 0x1c <__rc12>
    43b6: 69 00        	adc	#$0
    43b8: 85 1c        	sta	$1c                     ; 0x1c <__rc12>
    43ba: 18           	clc
    43bb: a5 2b        	lda	$2b                     ; 0x2b <__rc27>
    43bd: 65 1b        	adc	$1b                     ; 0x1b <__rc11>
    43bf: 85 25        	sta	$25                     ; 0x25 <__rc21>
    43c1: a5 2a        	lda	$2a                     ; 0x2a <__rc26>
    43c3: 65 1c        	adc	$1c                     ; 0x1c <__rc12>
    43c5: 85 26        	sta	$26                     ; 0x26 <__rc22>
    43c7: a5 29        	lda	$29                     ; 0x29 <__rc25>
    43c9: 69 00        	adc	#$0
    43cb: 85 27        	sta	$27                     ; 0x27 <__rc23>
    43cd: a5 28        	lda	$28                     ; 0x28 <__rc24>
    43cf: 69 00        	adc	#$0
    43d1: 85 28        	sta	$28                     ; 0x28 <__rc24>
    43d3: a5 1a        	lda	$1a                     ; 0x1a <__rc10>
    43d5: 1a           	inc
    43d6: a0 04        	ldy	#$4
    43d8: d1 12        	cmp	($12),y                 ; 0x12 <__rc2>
    43da: 85 1a        	sta	$1a                     ; 0x1a <__rc10>
    43dc: 90 03        	bcc	$43e1 <getBeatTrackNoteInfo+0xcd>
    43de: 4c 72 45     	jmp	$4572 <getBeatTrackNoteInfo+0x25e>
    43e1: 18           	clc
    43e2: a6 25        	ldx	$25                     ; 0x25 <__rc21>
    43e4: a5 25        	lda	$25                     ; 0x25 <__rc21>
    43e6: 69 03        	adc	#$3
    43e8: 85 1c        	sta	$1c                     ; 0x1c <__rc12>
    43ea: 86 2b        	stx	$2b                     ; 0x2b <__rc27>
    43ec: a5 26        	lda	$26                     ; 0x26 <__rc22>
    43ee: 85 2a        	sta	$2a                     ; 0x2a <__rc26>
    43f0: 69 00        	adc	#$0
    43f2: a8           	tay
    43f3: a5 27        	lda	$27                     ; 0x27 <__rc23>
    43f5: 85 29        	sta	$29                     ; 0x29 <__rc25>
    43f7: 69 00        	adc	#$0
    43f9: 84 1b        	sty	$1b                     ; 0x1b <__rc11>
    43fb: 06 1b        	asl	$1b                     ; 0x1b <__rc11>
    43fd: 2a           	rol
    43fe: 06 1b        	asl	$1b                     ; 0x1b <__rc11>
    4400: 2a           	rol
    4401: 06 1b        	asl	$1b                     ; 0x1b <__rc11>
    4403: 2a           	rol
    4404: a6 0f        	ldx	$f                      ; 0xf <__bss_size+0x7>
    4406: 78           	sei
    4407: 85 25        	sta	$25                     ; 0x25 <__rc21>
    4409: 85 0f        	sta	$f                      ; 0xf <__bss_size+0x7>
    440b: 98           	tya
    440c: 09 e0        	ora	#$e0
    440e: 85 1d        	sta	$1d                     ; 0x1d <__rc13>
    4410: b2 1c        	lda	($1c)                   ; 0x1c <__rc12>
    4412: 85 1b        	sta	$1b                     ; 0x1b <__rc11>
    4414: 86 0f        	stx	$f                      ; 0xf <__bss_size+0x7>
    4416: 58           	cli
    4417: a6 24        	ldx	$24                     ; 0x24 <__rc20>
    4419: e4 1a        	cpx	$1a                     ; 0x1a <__rc10>
    441b: f0 03        	beq	$4420 <getBeatTrackNoteInfo+0x10c>
    441d: 4c aa 43     	jmp	$43aa <getBeatTrackNoteInfo+0x96>
    4420: 86 2c        	stx	$2c                     ; 0x2c <__rc28>
    4422: a6 0f        	ldx	$f                      ; 0xf <__bss_size+0x7>
    4424: 78           	sei
    4425: a4 2a        	ldy	$2a                     ; 0x2a <__rc26>
    4427: 84 1e        	sty	$1e                     ; 0x1e <__rc14>
    4429: 06 1e        	asl	$1e                     ; 0x1e <__rc14>
    442b: a5 29        	lda	$29                     ; 0x29 <__rc25>
    442d: 2a           	rol
    442e: 06 1e        	asl	$1e                     ; 0x1e <__rc14>
    4430: 2a           	rol
    4431: 06 1e        	asl	$1e                     ; 0x1e <__rc14>
    4433: 2a           	rol
    4434: 85 0f        	sta	$f                      ; 0xf <__bss_size+0x7>
    4436: a5 2a        	lda	$2a                     ; 0x2a <__rc26>
    4438: 09 e0        	ora	#$e0
    443a: a4 2b        	ldy	$2b                     ; 0x2b <__rc27>
    443c: 84 1e        	sty	$1e                     ; 0x1e <__rc14>
    443e: 85 1f        	sta	$1f                     ; 0x1f <__rc15>
    4440: b2 1e        	lda	($1e)                   ; 0x1e <__rc14>
    4442: 86 0f        	stx	$f                      ; 0xf <__bss_size+0x7>
    4444: 58           	cli
    4445: 92 18        	sta	($18)                   ; 0x18 <__rc8>
    4447: a4 2a        	ldy	$2a                     ; 0x2a <__rc26>
    4449: a5 29        	lda	$29                     ; 0x29 <__rc25>
    444b: a6 28        	ldx	$28                     ; 0x28 <__rc24>
    444d: e6 1e        	inc	$1e                     ; 0x1e <__rc14>
    444f: d0 07        	bne	$4458 <getBeatTrackNoteInfo+0x144>
    4451: c8           	iny
    4452: d0 04        	bne	$4458 <getBeatTrackNoteInfo+0x144>
    4454: 1a           	inc
    4455: d0 01        	bne	$4458 <getBeatTrackNoteInfo+0x144>
    4457: e8           	inx
    4458: a6 0f        	ldx	$f                      ; 0xf <__bss_size+0x7>
    445a: 78           	sei
    445b: 84 1f        	sty	$1f                     ; 0x1f <__rc15>
    445d: 06 1f        	asl	$1f                     ; 0x1f <__rc15>
    445f: 2a           	rol
    4460: 06 1f        	asl	$1f                     ; 0x1f <__rc15>
    4462: 2a           	rol
    4463: 06 1f        	asl	$1f                     ; 0x1f <__rc15>
    4465: 2a           	rol
    4466: 85 0f        	sta	$f                      ; 0xf <__bss_size+0x7>
    4468: 98           	tya
    4469: 09 e0        	ora	#$e0
    446b: 85 1f        	sta	$1f                     ; 0x1f <__rc15>
    446d: b2 1e        	lda	($1e)                   ; 0x1e <__rc14>
    446f: 86 0f        	stx	$f                      ; 0xf <__bss_size+0x7>
    4471: 58           	cli
    4472: a0 01        	ldy	#$1
    4474: 91 18        	sta	($18),y                 ; 0x18 <__rc8>
    4476: a5 2b        	lda	$2b                     ; 0x2b <__rc27>
    4478: 18           	clc
    4479: 69 02        	adc	#$2
    447b: a8           	tay
    447c: a5 2a        	lda	$2a                     ; 0x2a <__rc26>
    447e: 69 00        	adc	#$0
    4480: 85 1f        	sta	$1f                     ; 0x1f <__rc15>
    4482: a5 29        	lda	$29                     ; 0x29 <__rc25>
    4484: 69 00        	adc	#$0
    4486: a6 0f        	ldx	$f                      ; 0xf <__bss_size+0x7>
    4488: 78           	sei
    4489: 5a           	phy
    448a: a4 1f        	ldy	$1f                     ; 0x1f <__rc15>
    448c: 84 1e        	sty	$1e                     ; 0x1e <__rc14>
    448e: 7a           	ply
    448f: 06 1e        	asl	$1e                     ; 0x1e <__rc14>
    4491: 2a           	rol
    4492: 06 1e        	asl	$1e                     ; 0x1e <__rc14>
    4494: 2a           	rol
    4495: 06 1e        	asl	$1e                     ; 0x1e <__rc14>
    4497: 2a           	rol
    4498: 85 0f        	sta	$f                      ; 0xf <__bss_size+0x7>
    449a: a5 1f        	lda	$1f                     ; 0x1f <__rc15>
    449c: 09 e0        	ora	#$e0
    449e: 84 1e        	sty	$1e                     ; 0x1e <__rc14>
    44a0: 85 1f        	sta	$1f                     ; 0x1f <__rc15>
    44a2: b2 1e        	lda	($1e)                   ; 0x1e <__rc14>
    44a4: 86 0f        	stx	$f                      ; 0xf <__bss_size+0x7>
    44a6: 58           	cli
    44a7: a0 02        	ldy	#$2
    44a9: 91 18        	sta	($18),y                 ; 0x18 <__rc8>
    44ab: a6 0f        	ldx	$f                      ; 0xf <__bss_size+0x7>
    44ad: 78           	sei
    44ae: a4 25        	ldy	$25                     ; 0x25 <__rc21>
    44b0: 84 0f        	sty	$f                      ; 0xf <__bss_size+0x7>
    44b2: b2 1c        	lda	($1c)                   ; 0x1c <__rc12>
    44b4: 86 0f        	stx	$f                      ; 0xf <__bss_size+0x7>
    44b6: 58           	cli
    44b7: a0 03        	ldy	#$3
    44b9: 91 18        	sta	($18),y                 ; 0x18 <__rc8>
    44bb: a6 2b        	ldx	$2b                     ; 0x2b <__rc27>
    44bd: 86 25        	stx	$25                     ; 0x25 <__rc21>
    44bf: a5 2b        	lda	$2b                     ; 0x2b <__rc27>
    44c1: 18           	clc
    44c2: 69 04        	adc	#$4
    44c4: 85 2b        	sta	$2b                     ; 0x2b <__rc27>
    44c6: a5 2a        	lda	$2a                     ; 0x2a <__rc26>
    44c8: 69 00        	adc	#$0
    44ca: 85 2a        	sta	$2a                     ; 0x2a <__rc26>
    44cc: a5 29        	lda	$29                     ; 0x29 <__rc25>
    44ce: 69 00        	adc	#$0
    44d0: 85 29        	sta	$29                     ; 0x29 <__rc25>
    44d2: a5 22        	lda	$22                     ; 0x22 <__rc18>
    44d4: 18           	clc
    44d5: 69 09        	adc	#$9
    44d7: 85 1c        	sta	$1c                     ; 0x1c <__rc12>
    44d9: a5 23        	lda	$23                     ; 0x23 <__rc19>
    44db: 69 00        	adc	#$0
    44dd: 85 1d        	sta	$1d                     ; 0x1d <__rc13>
    44df: a0 09        	ldy	#$9
    44e1: b1 12        	lda	($12),y                 ; 0x12 <__rc2>
    44e3: 85 1e        	sta	$1e                     ; 0x1e <__rc14>
    44e5: a0 01        	ldy	#$1
    44e7: b1 1c        	lda	($1c),y                 ; 0x1c <__rc12>
    44e9: 85 1f        	sta	$1f                     ; 0x1f <__rc15>
    44eb: 18           	clc
    44ec: a5 2b        	lda	$2b                     ; 0x2b <__rc27>
    44ee: a4 2c        	ldy	$2c                     ; 0x2c <__rc28>
    44f0: 71 1e        	adc	($1e),y                 ; 0x1e <__rc14>
    44f2: a8           	tay
    44f3: a5 2a        	lda	$2a                     ; 0x2a <__rc26>
    44f5: 69 00        	adc	#$0
    44f7: 85 1f        	sta	$1f                     ; 0x1f <__rc15>
    44f9: a5 29        	lda	$29                     ; 0x29 <__rc25>
    44fb: 69 00        	adc	#$0
    44fd: a6 1f        	ldx	$1f                     ; 0x1f <__rc15>
    44ff: 86 1e        	stx	$1e                     ; 0x1e <__rc14>
    4501: 06 1e        	asl	$1e                     ; 0x1e <__rc14>
    4503: 2a           	rol
    4504: 06 1e        	asl	$1e                     ; 0x1e <__rc14>
    4506: 2a           	rol
    4507: 06 1e        	asl	$1e                     ; 0x1e <__rc14>
    4509: 2a           	rol
    450a: a6 0f        	ldx	$f                      ; 0xf <__bss_size+0x7>
    450c: 78           	sei
    450d: 85 0f        	sta	$f                      ; 0xf <__bss_size+0x7>
    450f: 84 1e        	sty	$1e                     ; 0x1e <__rc14>
    4511: a5 1f        	lda	$1f                     ; 0x1f <__rc15>
    4513: 09 e0        	ora	#$e0
    4515: 85 1f        	sta	$1f                     ; 0x1f <__rc15>
    4517: b2 1e        	lda	($1e)                   ; 0x1e <__rc14>
    4519: 86 0f        	stx	$f                      ; 0xf <__bss_size+0x7>
    451b: 58           	cli
    451c: 92 14        	sta	($14)                   ; 0x14 <__rc4>
    451e: 18           	clc
    451f: a5 2b        	lda	$2b                     ; 0x2b <__rc27>
    4521: 65 1b        	adc	$1b                     ; 0x1b <__rc11>
    4523: aa           	tax
    4524: a5 2a        	lda	$2a                     ; 0x2a <__rc26>
    4526: 69 00        	adc	#$0
    4528: 85 1b        	sta	$1b                     ; 0x1b <__rc11>
    452a: a5 29        	lda	$29                     ; 0x29 <__rc25>
    452c: 69 00        	adc	#$0
    452e: 85 1e        	sta	$1e                     ; 0x1e <__rc14>
    4530: a0 09        	ldy	#$9
    4532: b1 12        	lda	($12),y                 ; 0x12 <__rc2>
    4534: 85 1f        	sta	$1f                     ; 0x1f <__rc15>
    4536: a0 01        	ldy	#$1
    4538: b1 1c        	lda	($1c),y                 ; 0x1c <__rc12>
    453a: a4 1f        	ldy	$1f                     ; 0x1f <__rc15>
    453c: 84 1c        	sty	$1c                     ; 0x1c <__rc12>
    453e: 85 1d        	sta	$1d                     ; 0x1d <__rc13>
    4540: 18           	clc
    4541: a4 2c        	ldy	$2c                     ; 0x2c <__rc28>
    4543: 8a           	txa
    4544: 71 1c        	adc	($1c),y                 ; 0x1c <__rc12>
    4546: 85 1c        	sta	$1c                     ; 0x1c <__rc12>
    4548: a5 1b        	lda	$1b                     ; 0x1b <__rc11>
    454a: 69 00        	adc	#$0
    454c: a8           	tay
    454d: a5 1e        	lda	$1e                     ; 0x1e <__rc14>
    454f: 69 00        	adc	#$0
    4551: 85 1b        	sta	$1b                     ; 0x1b <__rc11>
    4553: 98           	tya
    4554: 0a           	asl
    4555: 26 1b        	rol	$1b                     ; 0x1b <__rc11>
    4557: 0a           	asl
    4558: 26 1b        	rol	$1b                     ; 0x1b <__rc11>
    455a: 0a           	asl
    455b: a5 1b        	lda	$1b                     ; 0x1b <__rc11>
    455d: 2a           	rol
    455e: a6 0f        	ldx	$f                      ; 0xf <__bss_size+0x7>
    4560: 78           	sei
    4561: 85 0f        	sta	$f                      ; 0xf <__bss_size+0x7>
    4563: 98           	tya
    4564: 09 e0        	ora	#$e0
    4566: 85 1d        	sta	$1d                     ; 0x1d <__rc13>
    4568: b2 1c        	lda	($1c)                   ; 0x1c <__rc12>
    456a: 86 0f        	stx	$f                      ; 0xf <__bss_size+0x7>
    456c: 58           	cli
    456d: 92 16        	sta	($16)                   ; 0x16 <__rc6>
    456f: 4c d3 43     	jmp	$43d3 <getBeatTrackNoteInfo+0xbf>
    4572: a0 00        	ldy	#$0
    4574: b1 10        	lda	($10),y                 ; 0x10 <__rc0>
    4576: 85 2c        	sta	$2c                     ; 0x2c <__rc28>
    4578: c8           	iny
    4579: b1 10        	lda	($10),y                 ; 0x10 <__rc0>
    457b: 85 2b        	sta	$2b                     ; 0x2b <__rc27>
    457d: c8           	iny
    457e: b1 10        	lda	($10),y                 ; 0x10 <__rc0>
    4580: 85 2a        	sta	$2a                     ; 0x2a <__rc26>
    4582: c8           	iny
    4583: b1 10        	lda	($10),y                 ; 0x10 <__rc0>
    4585: 85 29        	sta	$29                     ; 0x29 <__rc25>
    4587: c8           	iny
    4588: b1 10        	lda	($10),y                 ; 0x10 <__rc0>
    458a: 85 28        	sta	$28                     ; 0x28 <__rc24>
    458c: fa           	plx
    458d: 86 27        	stx	$27                     ; 0x27 <__rc23>
    458f: fa           	plx
    4590: 86 26        	stx	$26                     ; 0x26 <__rc22>
    4592: fa           	plx
    4593: 86 25        	stx	$25                     ; 0x25 <__rc21>
    4595: fa           	plx
    4596: 86 24        	stx	$24                     ; 0x24 <__rc20>
    4598: 18           	clc
    4599: a5 10        	lda	$10                     ; 0x10 <__rc0>
    459b: 69 05        	adc	#$5
    459d: 85 10        	sta	$10                     ; 0x10 <__rc0>
    459f: a5 11        	lda	$11                     ; 0x11 <__rc1>
    45a1: 69 00        	adc	#$0
    45a3: 85 11        	sta	$11                     ; 0x11 <__rc1>
    45a5: 60           	rts

000045a6 <setupMem4Track>:
    45a6: 85 1d        	sta	$1d                     ; 0x1d <__rc13>
    45a8: 86 1c        	stx	$1c                     ; 0x1c <__rc12>
    45aa: a0 01        	ldy	#$1
    45ac: b1 14        	lda	($14),y                 ; 0x14 <__rc4>
    45ae: 85 1a        	sta	$1a                     ; 0x1a <__rc10>
    45b0: 85 1b        	sta	$1b                     ; 0x1b <__rc11>
    45b2: c8           	iny
    45b3: b1 14        	lda	($14),y                 ; 0x14 <__rc4>
    45b5: 06 1a        	asl	$1a                     ; 0x1a <__rc10>
    45b7: 2a           	rol
    45b8: 06 1a        	asl	$1a                     ; 0x1a <__rc10>
    45ba: 2a           	rol
    45bb: 06 1a        	asl	$1a                     ; 0x1a <__rc10>
    45bd: 2a           	rol
    45be: a8           	tay
    45bf: b2 14        	lda	($14)                   ; 0x14 <__rc4>
    45c1: a6 0f        	ldx	$f                      ; 0xf <__bss_size+0x7>
    45c3: 78           	sei
    45c4: 84 0f        	sty	$f                      ; 0xf <__bss_size+0x7>
    45c6: 85 1a        	sta	$1a                     ; 0x1a <__rc10>
    45c8: a5 1b        	lda	$1b                     ; 0x1b <__rc11>
    45ca: 09 e0        	ora	#$e0
    45cc: 85 1b        	sta	$1b                     ; 0x1b <__rc11>
    45ce: a5 1d        	lda	$1d                     ; 0x1d <__rc13>
    45d0: 92 1a        	sta	($1a)                   ; 0x1a <__rc10>
    45d2: 86 0f        	stx	$f                      ; 0xf <__bss_size+0x7>
    45d4: 58           	cli
    45d5: b2 14        	lda	($14)                   ; 0x14 <__rc4>
    45d7: 85 1a        	sta	$1a                     ; 0x1a <__rc10>
    45d9: a0 01        	ldy	#$1
    45db: b1 14        	lda	($14),y                 ; 0x14 <__rc4>
    45dd: 85 1d        	sta	$1d                     ; 0x1d <__rc13>
    45df: c8           	iny
    45e0: b1 14        	lda	($14),y                 ; 0x14 <__rc4>
    45e2: aa           	tax
    45e3: c8           	iny
    45e4: b1 14        	lda	($14),y                 ; 0x14 <__rc4>
    45e6: e6 1a        	inc	$1a                     ; 0x1a <__rc10>
    45e8: d0 08        	bne	$45f2 <setupMem4Track+0x4c>
    45ea: e6 1d        	inc	$1d                     ; 0x1d <__rc13>
    45ec: d0 04        	bne	$45f2 <setupMem4Track+0x4c>
    45ee: e8           	inx
    45ef: d0 01        	bne	$45f2 <setupMem4Track+0x4c>
    45f1: 1a           	inc
    45f2: 91 14        	sta	($14),y                 ; 0x14 <__rc4>
    45f4: 8a           	txa
    45f5: a0 02        	ldy	#$2
    45f7: 91 14        	sta	($14),y                 ; 0x14 <__rc4>
    45f9: a5 1d        	lda	$1d                     ; 0x1d <__rc13>
    45fb: 0a           	asl
    45fc: 86 1b        	stx	$1b                     ; 0x1b <__rc11>
    45fe: 26 1b        	rol	$1b                     ; 0x1b <__rc11>
    4600: 0a           	asl
    4601: 26 1b        	rol	$1b                     ; 0x1b <__rc11>
    4603: 0a           	asl
    4604: 26 1b        	rol	$1b                     ; 0x1b <__rc11>
    4606: a5 1a        	lda	$1a                     ; 0x1a <__rc10>
    4608: 92 14        	sta	($14)                   ; 0x14 <__rc4>
    460a: a5 1d        	lda	$1d                     ; 0x1d <__rc13>
    460c: 88           	dey
    460d: 91 14        	sta	($14),y                 ; 0x14 <__rc4>
    460f: a6 0f        	ldx	$f                      ; 0xf <__bss_size+0x7>
    4611: 78           	sei
    4612: a4 1b        	ldy	$1b                     ; 0x1b <__rc11>
    4614: 84 0f        	sty	$f                      ; 0xf <__bss_size+0x7>
    4616: 09 e0        	ora	#$e0
    4618: 85 1b        	sta	$1b                     ; 0x1b <__rc11>
    461a: a5 1c        	lda	$1c                     ; 0x1c <__rc12>
    461c: 92 1a        	sta	($1a)                   ; 0x1a <__rc10>
    461e: 86 0f        	stx	$f                      ; 0xf <__bss_size+0x7>
    4620: 58           	cli
    4621: b2 14        	lda	($14)                   ; 0x14 <__rc4>
    4623: 85 1a        	sta	$1a                     ; 0x1a <__rc10>
    4625: a0 01        	ldy	#$1
    4627: b1 14        	lda	($14),y                 ; 0x14 <__rc4>
    4629: 85 1c        	sta	$1c                     ; 0x1c <__rc12>
    462b: c8           	iny
    462c: b1 14        	lda	($14),y                 ; 0x14 <__rc4>
    462e: aa           	tax
    462f: c8           	iny
    4630: b1 14        	lda	($14),y                 ; 0x14 <__rc4>
    4632: e6 1a        	inc	$1a                     ; 0x1a <__rc10>
    4634: d0 08        	bne	$463e <setupMem4Track+0x98>
    4636: e6 1c        	inc	$1c                     ; 0x1c <__rc12>
    4638: d0 04        	bne	$463e <setupMem4Track+0x98>
    463a: e8           	inx
    463b: d0 01        	bne	$463e <setupMem4Track+0x98>
    463d: 1a           	inc
    463e: 91 14        	sta	($14),y                 ; 0x14 <__rc4>
    4640: 8a           	txa
    4641: a0 02        	ldy	#$2
    4643: 91 14        	sta	($14),y                 ; 0x14 <__rc4>
    4645: a5 1c        	lda	$1c                     ; 0x1c <__rc12>
    4647: 0a           	asl
    4648: 86 1b        	stx	$1b                     ; 0x1b <__rc11>
    464a: 26 1b        	rol	$1b                     ; 0x1b <__rc11>
    464c: 0a           	asl
    464d: 26 1b        	rol	$1b                     ; 0x1b <__rc11>
    464f: 0a           	asl
    4650: 26 1b        	rol	$1b                     ; 0x1b <__rc11>
    4652: a5 1a        	lda	$1a                     ; 0x1a <__rc10>
    4654: 92 14        	sta	($14)                   ; 0x14 <__rc4>
    4656: a5 1c        	lda	$1c                     ; 0x1c <__rc12>
    4658: 88           	dey
    4659: 91 14        	sta	($14),y                 ; 0x14 <__rc4>
    465b: a6 0f        	ldx	$f                      ; 0xf <__bss_size+0x7>
    465d: 78           	sei
    465e: a4 1b        	ldy	$1b                     ; 0x1b <__rc11>
    4660: 84 0f        	sty	$f                      ; 0xf <__bss_size+0x7>
    4662: 09 e0        	ora	#$e0
    4664: 85 1b        	sta	$1b                     ; 0x1b <__rc11>
    4666: a5 12        	lda	$12                     ; 0x12 <__rc2>
    4668: 92 1a        	sta	($1a)                   ; 0x1a <__rc10>
    466a: 86 0f        	stx	$f                      ; 0xf <__bss_size+0x7>
    466c: 58           	cli
    466d: b2 14        	lda	($14)                   ; 0x14 <__rc4>
    466f: 85 1c        	sta	$1c                     ; 0x1c <__rc12>
    4671: a0 01        	ldy	#$1
    4673: b1 14        	lda	($14),y                 ; 0x14 <__rc4>
    4675: 85 1a        	sta	$1a                     ; 0x1a <__rc10>
    4677: c8           	iny
    4678: b1 14        	lda	($14),y                 ; 0x14 <__rc4>
    467a: aa           	tax
    467b: c8           	iny
    467c: b1 14        	lda	($14),y                 ; 0x14 <__rc4>
    467e: e6 1c        	inc	$1c                     ; 0x1c <__rc12>
    4680: d0 08        	bne	$468a <setupMem4Track+0xe4>
    4682: e6 1a        	inc	$1a                     ; 0x1a <__rc10>
    4684: d0 04        	bne	$468a <setupMem4Track+0xe4>
    4686: e8           	inx
    4687: d0 01        	bne	$468a <setupMem4Track+0xe4>
    4689: 1a           	inc
    468a: 91 14        	sta	($14),y                 ; 0x14 <__rc4>
    468c: 8a           	txa
    468d: a0 02        	ldy	#$2
    468f: 91 14        	sta	($14),y                 ; 0x14 <__rc4>
    4691: a5 1a        	lda	$1a                     ; 0x1a <__rc10>
    4693: 0a           	asl
    4694: 86 12        	stx	$12                     ; 0x12 <__rc2>
    4696: 26 12        	rol	$12                     ; 0x12 <__rc2>
    4698: 0a           	asl
    4699: 26 12        	rol	$12                     ; 0x12 <__rc2>
    469b: 0a           	asl
    469c: 26 12        	rol	$12                     ; 0x12 <__rc2>
    469e: a5 1c        	lda	$1c                     ; 0x1c <__rc12>
    46a0: 92 14        	sta	($14)                   ; 0x14 <__rc4>
    46a2: 88           	dey
    46a3: a5 1a        	lda	$1a                     ; 0x1a <__rc10>
    46a5: 91 14        	sta	($14),y                 ; 0x14 <__rc4>
    46a7: a6 0f        	ldx	$f                      ; 0xf <__bss_size+0x7>
    46a9: 78           	sei
    46aa: a4 12        	ldy	$12                     ; 0x12 <__rc2>
    46ac: 84 0f        	sty	$f                      ; 0xf <__bss_size+0x7>
    46ae: 09 e0        	ora	#$e0
    46b0: 85 1d        	sta	$1d                     ; 0x1d <__rc13>
    46b2: a5 13        	lda	$13                     ; 0x13 <__rc3>
    46b4: 85 1a        	sta	$1a                     ; 0x1a <__rc10>
    46b6: 92 1c        	sta	($1c)                   ; 0x1c <__rc12>
    46b8: 86 0f        	stx	$f                      ; 0xf <__bss_size+0x7>
    46ba: 58           	cli
    46bb: b2 14        	lda	($14)                   ; 0x14 <__rc4>
    46bd: 85 1b        	sta	$1b                     ; 0x1b <__rc11>
    46bf: a0 01        	ldy	#$1
    46c1: b1 14        	lda	($14),y                 ; 0x14 <__rc4>
    46c3: 85 12        	sta	$12                     ; 0x12 <__rc2>
    46c5: c8           	iny
    46c6: b1 14        	lda	($14),y                 ; 0x14 <__rc4>
    46c8: 85 13        	sta	$13                     ; 0x13 <__rc3>
    46ca: c8           	iny
    46cb: b1 14        	lda	($14),y                 ; 0x14 <__rc4>
    46cd: aa           	tax
    46ce: a5 1b        	lda	$1b                     ; 0x1b <__rc11>
    46d0: 1a           	inc
    46d1: d0 09        	bne	$46dc <setupMem4Track+0x136>
    46d3: e6 12        	inc	$12                     ; 0x12 <__rc2>
    46d5: d0 05        	bne	$46dc <setupMem4Track+0x136>
    46d7: e6 13        	inc	$13                     ; 0x13 <__rc3>
    46d9: d0 01        	bne	$46dc <setupMem4Track+0x136>
    46db: e8           	inx
    46dc: 92 14        	sta	($14)                   ; 0x14 <__rc4>
    46de: a5 12        	lda	$12                     ; 0x12 <__rc2>
    46e0: a0 01        	ldy	#$1
    46e2: 91 14        	sta	($14),y                 ; 0x14 <__rc4>
    46e4: c8           	iny
    46e5: a5 13        	lda	$13                     ; 0x13 <__rc3>
    46e7: 91 14        	sta	($14),y                 ; 0x14 <__rc4>
    46e9: 8a           	txa
    46ea: c8           	iny
    46eb: 91 14        	sta	($14),y                 ; 0x14 <__rc4>
    46ed: a0 00        	ldy	#$0
    46ef: 80 47        	bra	$4738 <setupMem4Track+0x192>
    46f1: e6 1c        	inc	$1c                     ; 0x1c <__rc12>
    46f3: 92 14        	sta	($14)                   ; 0x14 <__rc4>
    46f5: a0 01        	ldy	#$1
    46f7: a5 1d        	lda	$1d                     ; 0x1d <__rc13>
    46f9: 91 14        	sta	($14),y                 ; 0x14 <__rc4>
    46fb: c8           	iny
    46fc: a5 1e        	lda	$1e                     ; 0x1e <__rc14>
    46fe: 91 14        	sta	($14),y                 ; 0x14 <__rc4>
    4700: c8           	iny
    4701: a5 1c        	lda	$1c                     ; 0x1c <__rc12>
    4703: 91 14        	sta	($14),y                 ; 0x14 <__rc4>
    4705: a4 12        	ldy	$12                     ; 0x12 <__rc2>
    4707: b1 16        	lda	($16),y                 ; 0x16 <__rc6>
    4709: 85 1c        	sta	$1c                     ; 0x1c <__rc12>
    470b: a5 1b        	lda	$1b                     ; 0x1b <__rc11>
    470d: 85 12        	sta	$12                     ; 0x12 <__rc2>
    470f: 06 12        	asl	$12                     ; 0x12 <__rc2>
    4711: 8a           	txa
    4712: 2a           	rol
    4713: 06 12        	asl	$12                     ; 0x12 <__rc2>
    4715: 2a           	rol
    4716: 06 12        	asl	$12                     ; 0x12 <__rc2>
    4718: 2a           	rol
    4719: a6 0f        	ldx	$f                      ; 0xf <__bss_size+0x7>
    471b: 78           	sei
    471c: 85 0f        	sta	$f                      ; 0xf <__bss_size+0x7>
    471e: a5 13        	lda	$13                     ; 0x13 <__rc3>
    4720: 85 12        	sta	$12                     ; 0x12 <__rc2>
    4722: a5 1b        	lda	$1b                     ; 0x1b <__rc11>
    4724: 09 e0        	ora	#$e0
    4726: 85 13        	sta	$13                     ; 0x13 <__rc3>
    4728: a5 1c        	lda	$1c                     ; 0x1c <__rc12>
    472a: 92 12        	sta	($12)                   ; 0x12 <__rc2>
    472c: 86 0f        	stx	$f                      ; 0xf <__bss_size+0x7>
    472e: 58           	cli
    472f: c8           	iny
    4730: 84 12        	sty	$12                     ; 0x12 <__rc2>
    4732: a6 1a        	ldx	$1a                     ; 0x1a <__rc10>
    4734: e4 12        	cpx	$12                     ; 0x12 <__rc2>
    4736: f0 34        	beq	$476c <setupMem4Track+0x1c6>
    4738: b2 14        	lda	($14)                   ; 0x14 <__rc4>
    473a: 85 13        	sta	$13                     ; 0x13 <__rc3>
    473c: 84 12        	sty	$12                     ; 0x12 <__rc2>
    473e: a0 01        	ldy	#$1
    4740: b1 14        	lda	($14),y                 ; 0x14 <__rc4>
    4742: 85 1b        	sta	$1b                     ; 0x1b <__rc11>
    4744: c8           	iny
    4745: b1 14        	lda	($14),y                 ; 0x14 <__rc4>
    4747: aa           	tax
    4748: c8           	iny
    4749: b1 14        	lda	($14),y                 ; 0x14 <__rc4>
    474b: 85 1c        	sta	$1c                     ; 0x1c <__rc12>
    474d: a5 13        	lda	$13                     ; 0x13 <__rc3>
    474f: a4 1b        	ldy	$1b                     ; 0x1b <__rc11>
    4751: 84 1d        	sty	$1d                     ; 0x1d <__rc13>
    4753: 86 1e        	stx	$1e                     ; 0x1e <__rc14>
    4755: 1a           	inc
    4756: f0 03        	beq	$475b <setupMem4Track+0x1b5>
    4758: 4c f3 46     	jmp	$46f3 <setupMem4Track+0x14d>
    475b: e6 1d        	inc	$1d                     ; 0x1d <__rc13>
    475d: f0 03        	beq	$4762 <setupMem4Track+0x1bc>
    475f: 4c f3 46     	jmp	$46f3 <setupMem4Track+0x14d>
    4762: e6 1e        	inc	$1e                     ; 0x1e <__rc14>
    4764: d0 03        	bne	$4769 <setupMem4Track+0x1c3>
    4766: 4c f1 46     	jmp	$46f1 <setupMem4Track+0x14b>
    4769: 4c f3 46     	jmp	$46f3 <setupMem4Track+0x14d>
    476c: a0 00        	ldy	#$0
    476e: 80 47        	bra	$47b7 <setupMem4Track+0x211>
    4770: e6 1b        	inc	$1b                     ; 0x1b <__rc11>
    4772: 92 14        	sta	($14)                   ; 0x14 <__rc4>
    4774: a0 01        	ldy	#$1
    4776: a5 1c        	lda	$1c                     ; 0x1c <__rc12>
    4778: 91 14        	sta	($14),y                 ; 0x14 <__rc4>
    477a: c8           	iny
    477b: a5 17        	lda	$17                     ; 0x17 <__rc7>
    477d: 91 14        	sta	($14),y                 ; 0x14 <__rc4>
    477f: c8           	iny
    4780: a5 1b        	lda	$1b                     ; 0x1b <__rc11>
    4782: 91 14        	sta	($14),y                 ; 0x14 <__rc4>
    4784: a4 12        	ldy	$12                     ; 0x12 <__rc2>
    4786: b1 18        	lda	($18),y                 ; 0x18 <__rc8>
    4788: 85 17        	sta	$17                     ; 0x17 <__rc7>
    478a: a5 16        	lda	$16                     ; 0x16 <__rc6>
    478c: 85 12        	sta	$12                     ; 0x12 <__rc2>
    478e: 06 12        	asl	$12                     ; 0x12 <__rc2>
    4790: 8a           	txa
    4791: 2a           	rol
    4792: 06 12        	asl	$12                     ; 0x12 <__rc2>
    4794: 2a           	rol
    4795: 06 12        	asl	$12                     ; 0x12 <__rc2>
    4797: 2a           	rol
    4798: a6 0f        	ldx	$f                      ; 0xf <__bss_size+0x7>
    479a: 78           	sei
    479b: 85 0f        	sta	$f                      ; 0xf <__bss_size+0x7>
    479d: a5 13        	lda	$13                     ; 0x13 <__rc3>
    479f: 85 12        	sta	$12                     ; 0x12 <__rc2>
    47a1: a5 16        	lda	$16                     ; 0x16 <__rc6>
    47a3: 09 e0        	ora	#$e0
    47a5: 85 13        	sta	$13                     ; 0x13 <__rc3>
    47a7: a5 17        	lda	$17                     ; 0x17 <__rc7>
    47a9: 92 12        	sta	($12)                   ; 0x12 <__rc2>
    47ab: 86 0f        	stx	$f                      ; 0xf <__bss_size+0x7>
    47ad: 58           	cli
    47ae: c8           	iny
    47af: 84 12        	sty	$12                     ; 0x12 <__rc2>
    47b1: a6 1a        	ldx	$1a                     ; 0x1a <__rc10>
    47b3: e4 12        	cpx	$12                     ; 0x12 <__rc2>
    47b5: f0 34        	beq	$47eb <setupMem4Track+0x245>
    47b7: b2 14        	lda	($14)                   ; 0x14 <__rc4>
    47b9: 85 13        	sta	$13                     ; 0x13 <__rc3>
    47bb: 84 12        	sty	$12                     ; 0x12 <__rc2>
    47bd: a0 01        	ldy	#$1
    47bf: b1 14        	lda	($14),y                 ; 0x14 <__rc4>
    47c1: 85 16        	sta	$16                     ; 0x16 <__rc6>
    47c3: c8           	iny
    47c4: b1 14        	lda	($14),y                 ; 0x14 <__rc4>
    47c6: aa           	tax
    47c7: c8           	iny
    47c8: b1 14        	lda	($14),y                 ; 0x14 <__rc4>
    47ca: 85 1b        	sta	$1b                     ; 0x1b <__rc11>
    47cc: 86 17        	stx	$17                     ; 0x17 <__rc7>
    47ce: a5 13        	lda	$13                     ; 0x13 <__rc3>
    47d0: a4 16        	ldy	$16                     ; 0x16 <__rc6>
    47d2: 84 1c        	sty	$1c                     ; 0x1c <__rc12>
    47d4: 1a           	inc
    47d5: f0 03        	beq	$47da <setupMem4Track+0x234>
    47d7: 4c 72 47     	jmp	$4772 <setupMem4Track+0x1cc>
    47da: e6 1c        	inc	$1c                     ; 0x1c <__rc12>
    47dc: f0 03        	beq	$47e1 <setupMem4Track+0x23b>
    47de: 4c 72 47     	jmp	$4772 <setupMem4Track+0x1cc>
    47e1: e6 17        	inc	$17                     ; 0x17 <__rc7>
    47e3: d0 03        	bne	$47e8 <setupMem4Track+0x242>
    47e5: 4c 70 47     	jmp	$4770 <setupMem4Track+0x1ca>
    47e8: 4c 72 47     	jmp	$4772 <setupMem4Track+0x1cc>
    47eb: 60           	rts

000047ec <channelTextMenu>:
    47ec: a2 40        	ldx	#$40
    47ee: 86 30        	stx	$30                     ; 0x30 <_ccolor>
    47f0: 64 33        	stz	$33                     ; 0x33 <_col>
    47f2: 9c 14 d0     	stz	$d014                   ; 0xd014 <__heap_start+0x49bc>
    47f5: 9c 15 d0     	stz	$d015                   ; 0xd015 <__heap_start+0x49bd>
    47f8: a2 1a        	ldx	#$1a
    47fa: 86 34        	stx	$34                     ; 0x34 <_row>
    47fc: 8e 16 d0     	stx	$d016                   ; 0xd016 <__heap_start+0x49be>
    47ff: 9c 17 d0     	stz	$d017                   ; 0xd017 <__heap_start+0x49bf>
    4802: a2 a8        	ldx	#$a8
    4804: 86 12        	stx	$12                     ; 0x12 <__rc2>
    4806: a2 76        	ldx	#$76
    4808: 86 13        	stx	$13                     ; 0x13 <__rc3>
    480a: 20 ae 2f     	jsr	$2fae <textPrint>
    480d: 64 33        	stz	$33                     ; 0x33 <_col>
    480f: 9c 14 d0     	stz	$d014                   ; 0xd014 <__heap_start+0x49bc>
    4812: 9c 15 d0     	stz	$d015                   ; 0xd015 <__heap_start+0x49bd>
    4815: a2 1b        	ldx	#$1b
    4817: 86 34        	stx	$34                     ; 0x34 <_row>
    4819: 8e 16 d0     	stx	$d016                   ; 0xd016 <__heap_start+0x49be>
    481c: 9c 17 d0     	stz	$d017                   ; 0xd017 <__heap_start+0x49bf>
    481f: a2 c2        	ldx	#$c2
    4821: 86 12        	stx	$12                     ; 0x12 <__rc2>
    4823: a2 78        	ldx	#$78
    4825: 86 13        	stx	$13                     ; 0x13 <__rc3>
    4827: 20 ae 2f     	jsr	$2fae <textPrint>
    482a: a2 01        	ldx	#$1
    482c: 86 33        	stx	$33                     ; 0x33 <_col>
    482e: 8e 14 d0     	stx	$d014                   ; 0xd014 <__heap_start+0x49bc>
    4831: 9c 15 d0     	stz	$d015                   ; 0xd015 <__heap_start+0x49bd>
    4834: a2 1d        	ldx	#$1d
    4836: 86 34        	stx	$34                     ; 0x34 <_row>
    4838: 8e 16 d0     	stx	$d016                   ; 0xd016 <__heap_start+0x49be>
    483b: 9c 17 d0     	stz	$d017                   ; 0xd017 <__heap_start+0x49bf>
    483e: a2 7e        	ldx	#$7e
    4840: 86 12        	stx	$12                     ; 0x12 <__rc2>
    4842: a2 7a        	ldx	#$7a
    4844: 86 13        	stx	$13                     ; 0x13 <__rc3>
    4846: 20 ae 2f     	jsr	$2fae <textPrint>
    4849: a2 02        	ldx	#$2
    484b: 86 33        	stx	$33                     ; 0x33 <_col>
    484d: 8e 14 d0     	stx	$d014                   ; 0xd014 <__heap_start+0x49bc>
    4850: 9c 15 d0     	stz	$d015                   ; 0xd015 <__heap_start+0x49bd>
    4853: a2 1e        	ldx	#$1e
    4855: 86 34        	stx	$34                     ; 0x34 <_row>
    4857: 8e 16 d0     	stx	$d016                   ; 0xd016 <__heap_start+0x49be>
    485a: 9c 17 d0     	stz	$d017                   ; 0xd017 <__heap_start+0x49bf>
    485d: a2 0a        	ldx	#$a
    485f: 86 12        	stx	$12                     ; 0x12 <__rc2>
    4861: a2 77        	ldx	#$77
    4863: 86 13        	stx	$13                     ; 0x13 <__rc3>
    4865: 20 ae 2f     	jsr	$2fae <textPrint>
    4868: a2 02        	ldx	#$2
    486a: 86 33        	stx	$33                     ; 0x33 <_col>
    486c: 8e 14 d0     	stx	$d014                   ; 0xd014 <__heap_start+0x49bc>
    486f: 9c 15 d0     	stz	$d015                   ; 0xd015 <__heap_start+0x49bd>
    4872: a2 1f        	ldx	#$1f
    4874: 86 34        	stx	$34                     ; 0x34 <_row>
    4876: 8e 16 d0     	stx	$d016                   ; 0xd016 <__heap_start+0x49be>
    4879: 9c 17 d0     	stz	$d017                   ; 0xd017 <__heap_start+0x49bf>
    487c: a2 1d        	ldx	#$1d
    487e: 86 12        	stx	$12                     ; 0x12 <__rc2>
    4880: a2 81        	ldx	#$81
    4882: 86 13        	stx	$13                     ; 0x13 <__rc3>
    4884: 20 ae 2f     	jsr	$2fae <textPrint>
    4887: a2 02        	ldx	#$2
    4889: 86 33        	stx	$33                     ; 0x33 <_col>
    488b: 8e 14 d0     	stx	$d014                   ; 0xd014 <__heap_start+0x49bc>
    488e: 9c 15 d0     	stz	$d015                   ; 0xd015 <__heap_start+0x49bd>
    4891: a2 20        	ldx	#$20
    4893: 86 34        	stx	$34                     ; 0x34 <_row>
    4895: 8e 16 d0     	stx	$d016                   ; 0xd016 <__heap_start+0x49be>
    4898: 9c 17 d0     	stz	$d017                   ; 0xd017 <__heap_start+0x49bf>
    489b: a2 b7        	ldx	#$b7
    489d: 86 12        	stx	$12                     ; 0x12 <__rc2>
    489f: a2 81        	ldx	#$81
    48a1: 86 13        	stx	$13                     ; 0x13 <__rc3>
    48a3: 20 ae 2f     	jsr	$2fae <textPrint>
    48a6: 64 33        	stz	$33                     ; 0x33 <_col>
    48a8: 9c 14 d0     	stz	$d014                   ; 0xd014 <__heap_start+0x49bc>
    48ab: 9c 15 d0     	stz	$d015                   ; 0xd015 <__heap_start+0x49bd>
    48ae: a2 21        	ldx	#$21
    48b0: 86 34        	stx	$34                     ; 0x34 <_row>
    48b2: 8e 16 d0     	stx	$d016                   ; 0xd016 <__heap_start+0x49be>
    48b5: 9c 17 d0     	stz	$d017                   ; 0xd017 <__heap_start+0x49bf>
    48b8: a2 73        	ldx	#$73
    48ba: 86 12        	stx	$12                     ; 0x12 <__rc2>
    48bc: a2 7d        	ldx	#$7d
    48be: 86 13        	stx	$13                     ; 0x13 <__rc3>
    48c0: 4c ae 2f     	jmp	$2fae <textPrint>

000048c3 <refreshBeatTextChoice>:
    48c3: 18           	clc
    48c4: a5 10        	lda	$10                     ; 0x10 <__rc0>
    48c6: 69 fe        	adc	#$fe
    48c8: 85 10        	sta	$10                     ; 0x10 <__rc0>
    48ca: a5 11        	lda	$11                     ; 0x11 <__rc1>
    48cc: 69 ff        	adc	#$ff
    48ce: 85 11        	sta	$11                     ; 0x11 <__rc1>
    48d0: a2 90        	ldx	#$90
    48d2: 86 30        	stx	$30                     ; 0x30 <_ccolor>
    48d4: a2 2e        	ldx	#$2e
    48d6: 86 33        	stx	$33                     ; 0x33 <_col>
    48d8: 8e 14 d0     	stx	$d014                   ; 0xd014 <__heap_start+0x49bc>
    48db: 9c 15 d0     	stz	$d015                   ; 0xd015 <__heap_start+0x49bd>
    48de: a2 1d        	ldx	#$1d
    48e0: 86 34        	stx	$34                     ; 0x34 <_row>
    48e2: 8e 16 d0     	stx	$d016                   ; 0xd016 <__heap_start+0x49be>
    48e5: 9c 17 d0     	stz	$d017                   ; 0xd017 <__heap_start+0x49bf>
    48e8: a2 93        	ldx	#$93
    48ea: 86 12        	stx	$12                     ; 0x12 <__rc2>
    48ec: a2 7d        	ldx	#$7d
    48ee: 86 13        	stx	$13                     ; 0x13 <__rc3>
    48f0: 20 ae 2f     	jsr	$2fae <textPrint>
    48f3: a2 2e        	ldx	#$2e
    48f5: 86 33        	stx	$33                     ; 0x33 <_col>
    48f7: 8e 14 d0     	stx	$d014                   ; 0xd014 <__heap_start+0x49bc>
    48fa: 9c 15 d0     	stz	$d015                   ; 0xd015 <__heap_start+0x49bd>
    48fd: a2 1d        	ldx	#$1d
    48ff: 86 34        	stx	$34                     ; 0x34 <_row>
    4901: 8e 16 d0     	stx	$d016                   ; 0xd016 <__heap_start+0x49be>
    4904: 9c 17 d0     	stz	$d017                   ; 0xd017 <__heap_start+0x49bf>
    4907: a9 27        	lda	#$27
    4909: 92 10        	sta	($10)                   ; 0x10 <__rc0>
    490b: a0 01        	ldy	#$1
    490d: a9 7c        	lda	#$7c
    490f: 91 10        	sta	($10),y                 ; 0x10 <__rc0>
    4911: a2 f5        	ldx	#$f5
    4913: 86 12        	stx	$12                     ; 0x12 <__rc2>
    4915: a2 7b        	ldx	#$7b
    4917: 86 13        	stx	$13                     ; 0x13 <__rc3>
    4919: 20 65 52     	jsr	$5265 <printf>
    491c: 18           	clc
    491d: a5 10        	lda	$10                     ; 0x10 <__rc0>
    491f: 69 02        	adc	#$2
    4921: 85 10        	sta	$10                     ; 0x10 <__rc0>
    4923: a5 11        	lda	$11                     ; 0x11 <__rc1>
    4925: 69 00        	adc	#$0
    4927: 85 11        	sta	$11                     ; 0x11 <__rc1>
    4929: 60           	rts

0000492a <updateTempoText>:
    492a: 85 96        	sta	$96                     ; 0x96 <__zp_bss_size+0x3c>
    492c: a2 40        	ldx	#$40
    492e: 86 30        	stx	$30                     ; 0x30 <_ccolor>
    4930: a2 2d        	ldx	#$2d
    4932: 86 33        	stx	$33                     ; 0x33 <_col>
    4934: 8e 14 d0     	stx	$d014                   ; 0xd014 <__heap_start+0x49bc>
    4937: 9c 15 d0     	stz	$d015                   ; 0xd015 <__heap_start+0x49bd>
    493a: a2 1f        	ldx	#$1f
    493c: 86 34        	stx	$34                     ; 0x34 <_row>
    493e: 8e 16 d0     	stx	$d016                   ; 0xd016 <__heap_start+0x49be>
    4941: 9c 17 d0     	stz	$d017                   ; 0xd017 <__heap_start+0x49bf>
    4944: a2 61        	ldx	#$61
    4946: 86 12        	stx	$12                     ; 0x12 <__rc2>
    4948: a2 82        	ldx	#$82
    494a: 86 13        	stx	$13                     ; 0x13 <__rc3>
    494c: 20 ae 2f     	jsr	$2fae <textPrint>
    494f: 64 12        	stz	$12                     ; 0x12 <__rc2>
    4951: 64 13        	stz	$13                     ; 0x13 <__rc3>
    4953: a2 00        	ldx	#$0
    4955: a5 96        	lda	$96                     ; 0x96 <__zp_bss_size+0x3c>
    4957: 20 96 40     	jsr	$4096 <textPrintUInt>
    495a: a2 a7        	ldx	#$a7
    495c: 86 12        	stx	$12                     ; 0x12 <__rc2>
    495e: a2 7f        	ldx	#$7f
    4960: 86 13        	stx	$13                     ; 0x13 <__rc3>
    4962: 20 ae 2f     	jsr	$2fae <textPrint>
    4965: a2 2d        	ldx	#$2d
    4967: 86 33        	stx	$33                     ; 0x33 <_col>
    4969: 8e 14 d0     	stx	$d014                   ; 0xd014 <__heap_start+0x49bc>
    496c: 9c 15 d0     	stz	$d015                   ; 0xd015 <__heap_start+0x49bd>
    496f: a2 20        	ldx	#$20
    4971: 86 34        	stx	$34                     ; 0x34 <_row>
    4973: 8e 16 d0     	stx	$d016                   ; 0xd016 <__heap_start+0x49be>
    4976: 9c 17 d0     	stz	$d017                   ; 0xd017 <__heap_start+0x49bf>
    4979: a2 8d        	ldx	#$8d
    497b: 86 12        	stx	$12                     ; 0x12 <__rc2>
    497d: a2 7a        	ldx	#$7a
    497f: 86 13        	stx	$13                     ; 0x13 <__rc3>
    4981: 4c ae 2f     	jmp	$2fae <textPrint>

00004984 <showChipChoiceText>:
    4984: a0 06        	ldy	#$6
    4986: b1 12        	lda	($12),y                 ; 0x12 <__rc2>
    4988: c9 04        	cmp	#$4
    498a: 90 03        	bcc	$498f <showChipChoiceText+0xb>
    498c: 4c 7b 4a     	jmp	$4a7b <showChipChoiceText+0xf7>
    498f: 0a           	asl
    4990: aa           	tax
    4991: 7c c1 75     	jmp	($75c1,x)               ; 0x75c1 <__set_v+0x21>
    4994: 20 7c 4a     	jsr	$4a7c <showMIDIChoiceText>
    4997: a0 40        	ldy	#$40
    4999: a2 c0        	ldx	#$c0
    499b: 86 12        	stx	$12                     ; 0x12 <__rc2>
    499d: a2 79        	ldx	#$79
    499f: 86 13        	stx	$13                     ; 0x13 <__rc3>
    49a1: a2 2d        	ldx	#$2d
    49a3: 4c 64 4a     	jmp	$4a64 <showChipChoiceText+0xe0>
    49a6: 20 7c 4a     	jsr	$4a7c <showMIDIChoiceText>
    49a9: a2 2c        	ldx	#$2c
    49ab: 86 33        	stx	$33                     ; 0x33 <_col>
    49ad: 8e 14 d0     	stx	$d014                   ; 0xd014 <__heap_start+0x49bc>
    49b0: 9c 15 d0     	stz	$d015                   ; 0xd015 <__heap_start+0x49bd>
    49b3: a2 39        	ldx	#$39
    49b5: 86 34        	stx	$34                     ; 0x34 <_row>
    49b7: 8e 16 d0     	stx	$d016                   ; 0xd016 <__heap_start+0x49be>
    49ba: 9c 17 d0     	stz	$d017                   ; 0xd017 <__heap_start+0x49bf>
    49bd: a2 40        	ldx	#$40
    49bf: 86 30        	stx	$30                     ; 0x30 <_ccolor>
    49c1: a2 d9        	ldx	#$d9
    49c3: 86 12        	stx	$12                     ; 0x12 <__rc2>
    49c5: a2 80        	ldx	#$80
    49c7: 86 13        	stx	$13                     ; 0x13 <__rc3>
    49c9: 20 ae 2f     	jsr	$2fae <textPrint>
    49cc: a2 32        	ldx	#$32
    49ce: 86 33        	stx	$33                     ; 0x33 <_col>
    49d0: 8e 14 d0     	stx	$d014                   ; 0xd014 <__heap_start+0x49bc>
    49d3: 9c 15 d0     	stz	$d015                   ; 0xd015 <__heap_start+0x49bd>
    49d6: a2 39        	ldx	#$39
    49d8: 86 34        	stx	$34                     ; 0x34 <_row>
    49da: 8e 16 d0     	stx	$d016                   ; 0xd016 <__heap_start+0x49be>
    49dd: 9c 17 d0     	stz	$d017                   ; 0xd017 <__heap_start+0x49bf>
    49e0: a2 90        	ldx	#$90
    49e2: 86 30        	stx	$30                     ; 0x30 <_ccolor>
    49e4: a2 bb        	ldx	#$bb
    49e6: 86 12        	stx	$12                     ; 0x12 <__rc2>
    49e8: a2 81        	ldx	#$81
    49ea: 86 13        	stx	$13                     ; 0x13 <__rc3>
    49ec: 20 ae 2f     	jsr	$2fae <textPrint>
    49ef: a0 40        	ldy	#$40
    49f1: a2 32        	ldx	#$32
    49f3: 86 12        	stx	$12                     ; 0x12 <__rc2>
    49f5: a2 79        	ldx	#$79
    49f7: 86 13        	stx	$13                     ; 0x13 <__rc3>
    49f9: a2 38        	ldx	#$38
    49fb: 4c 64 4a     	jmp	$4a64 <showChipChoiceText+0xe0>
    49fe: 20 7c 4a     	jsr	$4a7c <showMIDIChoiceText>
    4a01: a2 2c        	ldx	#$2c
    4a03: 86 33        	stx	$33                     ; 0x33 <_col>
    4a05: 8e 14 d0     	stx	$d014                   ; 0xd014 <__heap_start+0x49bc>
    4a08: 9c 15 d0     	stz	$d015                   ; 0xd015 <__heap_start+0x49bd>
    4a0b: a2 39        	ldx	#$39
    4a0d: 86 34        	stx	$34                     ; 0x34 <_row>
    4a0f: 8e 16 d0     	stx	$d016                   ; 0xd016 <__heap_start+0x49be>
    4a12: 9c 17 d0     	stz	$d017                   ; 0xd017 <__heap_start+0x49bf>
    4a15: a2 40        	ldx	#$40
    4a17: 86 30        	stx	$30                     ; 0x30 <_ccolor>
    4a19: a2 78        	ldx	#$78
    4a1b: 86 12        	stx	$12                     ; 0x12 <__rc2>
    4a1d: a2 80        	ldx	#$80
    4a1f: 86 13        	stx	$13                     ; 0x13 <__rc3>
    4a21: 20 ae 2f     	jsr	$2fae <textPrint>
    4a24: a2 31        	ldx	#$31
    4a26: 86 12        	stx	$12                     ; 0x12 <__rc2>
    4a28: a2 7f        	ldx	#$7f
    4a2a: 86 13        	stx	$13                     ; 0x13 <__rc3>
    4a2c: a2 38        	ldx	#$38
    4a2e: a0 90        	ldy	#$90
    4a30: 80 32        	bra	$4a64 <showChipChoiceText+0xe0>
    4a32: 20 7c 4a     	jsr	$4a7c <showMIDIChoiceText>
    4a35: a2 2c        	ldx	#$2c
    4a37: 86 33        	stx	$33                     ; 0x33 <_col>
    4a39: 8e 14 d0     	stx	$d014                   ; 0xd014 <__heap_start+0x49bc>
    4a3c: 9c 15 d0     	stz	$d015                   ; 0xd015 <__heap_start+0x49bd>
    4a3f: a2 39        	ldx	#$39
    4a41: 86 34        	stx	$34                     ; 0x34 <_row>
    4a43: 8e 16 d0     	stx	$d016                   ; 0xd016 <__heap_start+0x49be>
    4a46: 9c 17 d0     	stz	$d017                   ; 0xd017 <__heap_start+0x49bf>
    4a49: a2 90        	ldx	#$90
    4a4b: 86 30        	stx	$30                     ; 0x30 <_ccolor>
    4a4d: a2 ae        	ldx	#$ae
    4a4f: 86 12        	stx	$12                     ; 0x12 <__rc2>
    4a51: a2 7a        	ldx	#$7a
    4a53: 86 13        	stx	$13                     ; 0x13 <__rc3>
    4a55: 20 ae 2f     	jsr	$2fae <textPrint>
    4a58: a0 40        	ldy	#$40
    4a5a: a2 2c        	ldx	#$2c
    4a5c: 86 12        	stx	$12                     ; 0x12 <__rc2>
    4a5e: a2 78        	ldx	#$78
    4a60: 86 13        	stx	$13                     ; 0x13 <__rc3>
    4a62: a2 32        	ldx	#$32
    4a64: 86 33        	stx	$33                     ; 0x33 <_col>
    4a66: 8e 14 d0     	stx	$d014                   ; 0xd014 <__heap_start+0x49bc>
    4a69: 9c 15 d0     	stz	$d015                   ; 0xd015 <__heap_start+0x49bd>
    4a6c: a2 39        	ldx	#$39
    4a6e: 86 34        	stx	$34                     ; 0x34 <_row>
    4a70: 8e 16 d0     	stx	$d016                   ; 0xd016 <__heap_start+0x49be>
    4a73: 9c 17 d0     	stz	$d017                   ; 0xd017 <__heap_start+0x49bf>
    4a76: 84 30        	sty	$30                     ; 0x30 <_ccolor>
    4a78: 20 ae 2f     	jsr	$2fae <textPrint>
    4a7b: 60           	rts

00004a7c <showMIDIChoiceText>:
    4a7c: a6 12        	ldx	$12                     ; 0x12 <__rc2>
    4a7e: 86 96        	stx	$96                     ; 0x96 <__zp_bss_size+0x3c>
    4a80: a6 13        	ldx	$13                     ; 0x13 <__rc3>
    4a82: 86 97        	stx	$97                     ; 0x97 <__zp_bss_size+0x3d>
    4a84: a0 06        	ldy	#$6
    4a86: b1 12        	lda	($12),y                 ; 0x12 <__rc2>
    4a88: f0 06        	beq	$4a90 <showMIDIChoiceText+0x14>
    4a8a: a2 40        	ldx	#$40
    4a8c: 86 98        	stx	$98                     ; 0x98 <__zp_bss_size+0x3e>
    4a8e: 80 12        	bra	$4aa2 <showMIDIChoiceText+0x26>
    4a90: b2 96        	lda	($96)                   ; 0x96 <__zp_bss_size+0x3c>
    4a92: f0 08        	beq	$4a9c <showMIDIChoiceText+0x20>
    4a94: a2 90        	ldx	#$90
    4a96: 86 98        	stx	$98                     ; 0x98 <__zp_bss_size+0x3e>
    4a98: a2 40        	ldx	#$40
    4a9a: 80 06        	bra	$4aa2 <showMIDIChoiceText+0x26>
    4a9c: a2 40        	ldx	#$40
    4a9e: 86 98        	stx	$98                     ; 0x98 <__zp_bss_size+0x3e>
    4aa0: a2 90        	ldx	#$90
    4aa2: 86 30        	stx	$30                     ; 0x30 <_ccolor>
    4aa4: a2 1d        	ldx	#$1d
    4aa6: 86 33        	stx	$33                     ; 0x33 <_col>
    4aa8: 8e 14 d0     	stx	$d014                   ; 0xd014 <__heap_start+0x49bc>
    4aab: 9c 15 d0     	stz	$d015                   ; 0xd015 <__heap_start+0x49bd>
    4aae: a2 39        	ldx	#$39
    4ab0: 86 34        	stx	$34                     ; 0x34 <_row>
    4ab2: 8e 16 d0     	stx	$d016                   ; 0xd016 <__heap_start+0x49be>
    4ab5: 9c 17 d0     	stz	$d017                   ; 0xd017 <__heap_start+0x49bf>
    4ab8: b2 96        	lda	($96)                   ; 0x96 <__zp_bss_size+0x3c>
    4aba: f0 08        	beq	$4ac4 <showMIDIChoiceText+0x48>
    4abc: a2 3f        	ldx	#$3f
    4abe: 86 12        	stx	$12                     ; 0x12 <__rc2>
    4ac0: a2 7c        	ldx	#$7c
    4ac2: 80 06        	bra	$4aca <showMIDIChoiceText+0x4e>
    4ac4: a2 bb        	ldx	#$bb
    4ac6: 86 12        	stx	$12                     ; 0x12 <__rc2>
    4ac8: a2 7e        	ldx	#$7e
    4aca: 86 13        	stx	$13                     ; 0x13 <__rc3>
    4acc: 20 ae 2f     	jsr	$2fae <textPrint>
    4acf: a6 98        	ldx	$98                     ; 0x98 <__zp_bss_size+0x3e>
    4ad1: 86 30        	stx	$30                     ; 0x30 <_ccolor>
    4ad3: a2 1d        	ldx	#$1d
    4ad5: 86 33        	stx	$33                     ; 0x33 <_col>
    4ad7: 8e 14 d0     	stx	$d014                   ; 0xd014 <__heap_start+0x49bc>
    4ada: 9c 15 d0     	stz	$d015                   ; 0xd015 <__heap_start+0x49bd>
    4add: a2 3a        	ldx	#$3a
    4adf: 86 34        	stx	$34                     ; 0x34 <_row>
    4ae1: 8e 16 d0     	stx	$d016                   ; 0xd016 <__heap_start+0x49be>
    4ae4: 9c 17 d0     	stz	$d017                   ; 0xd017 <__heap_start+0x49bf>
    4ae7: b2 96        	lda	($96)                   ; 0x96 <__zp_bss_size+0x3c>
    4ae9: f0 08        	beq	$4af3 <showMIDIChoiceText+0x77>
    4aeb: a2 4f        	ldx	#$4f
    4aed: 86 12        	stx	$12                     ; 0x12 <__rc2>
    4aef: a2 7b        	ldx	#$7b
    4af1: 80 06        	bra	$4af9 <showMIDIChoiceText+0x7d>
    4af3: a2 fb        	ldx	#$fb
    4af5: 86 12        	stx	$12                     ; 0x12 <__rc2>
    4af7: a2 7d        	ldx	#$7d
    4af9: 86 13        	stx	$13                     ; 0x13 <__rc3>
    4afb: 4c ae 2f     	jmp	$2fae <textPrint>

00004afe <textTitle>:
    4afe: 18           	clc
    4aff: a5 10        	lda	$10                     ; 0x10 <__rc0>
    4b01: 69 f8        	adc	#$f8
    4b03: 85 10        	sta	$10                     ; 0x10 <__rc0>
    4b05: a5 11        	lda	$11                     ; 0x11 <__rc1>
    4b07: 69 ff        	adc	#$ff
    4b09: 85 11        	sta	$11                     ; 0x11 <__rc1>
    4b0b: a6 12        	ldx	$12                     ; 0x12 <__rc2>
    4b0d: 86 91        	stx	$91                     ; 0x91 <__zp_bss_size+0x37>
    4b0f: a6 13        	ldx	$13                     ; 0x13 <__rc3>
    4b11: 86 92        	stx	$92                     ; 0x92 <__zp_bss_size+0x38>
    4b13: a2 10        	ldx	#$10
    4b15: 86 30        	stx	$30                     ; 0x30 <_ccolor>
    4b17: a2 15        	ldx	#$15
    4b19: 86 33        	stx	$33                     ; 0x33 <_col>
    4b1b: 8e 14 d0     	stx	$d014                   ; 0xd014 <__heap_start+0x49bc>
    4b1e: 9c 15 d0     	stz	$d015                   ; 0xd015 <__heap_start+0x49bd>
    4b21: 64 34        	stz	$34                     ; 0x34 <_row>
    4b23: 9c 16 d0     	stz	$d016                   ; 0xd016 <__heap_start+0x49be>
    4b26: 9c 17 d0     	stz	$d017                   ; 0xd017 <__heap_start+0x49bf>
    4b29: a2 1d        	ldx	#$1d
    4b2b: a9 f8        	lda	#$f8
    4b2d: a0 ff        	ldy	#$ff
    4b2f: 85 93        	sta	$93                     ; 0x93 <__zp_bss_size+0x39>
    4b31: 84 94        	sty	$94                     ; 0x94 <__zp_bss_size+0x3a>
    4b33: 86 35        	stx	$35                     ; 0x35 <__putchar.s>
    4b35: 86 95        	stx	$95                     ; 0x95 <__zp_bss_size+0x3b>
    4b37: a2 35        	ldx	#$35
    4b39: 86 12        	stx	$12                     ; 0x12 <__rc2>
    4b3b: a2 00        	ldx	#$0
    4b3d: 86 13        	stx	$13                     ; 0x13 <__rc3>
    4b3f: 20 ae 2f     	jsr	$2fae <textPrint>
    4b42: a6 95        	ldx	$95                     ; 0x95 <__zp_bss_size+0x3b>
    4b44: ca           	dex
    4b45: e6 93        	inc	$93                     ; 0x93 <__zp_bss_size+0x39>
    4b47: d0 ea        	bne	$4b33 <textTitle+0x35>
    4b49: e6 94        	inc	$94                     ; 0x94 <__zp_bss_size+0x3a>
    4b4b: d0 e6        	bne	$4b33 <textTitle+0x35>
    4b4d: a2 1e        	ldx	#$1e
    4b4f: 86 33        	stx	$33                     ; 0x33 <_col>
    4b51: 8e 14 d0     	stx	$d014                   ; 0xd014 <__heap_start+0x49bc>
    4b54: 9c 15 d0     	stz	$d015                   ; 0xd015 <__heap_start+0x49bd>
    4b57: 64 34        	stz	$34                     ; 0x34 <_row>
    4b59: 9c 16 d0     	stz	$d016                   ; 0xd016 <__heap_start+0x49be>
    4b5c: 9c 17 d0     	stz	$d017                   ; 0xd017 <__heap_start+0x49bf>
    4b5f: a2 f0        	ldx	#$f0
    4b61: 86 30        	stx	$30                     ; 0x30 <_ccolor>
    4b63: a2 99        	ldx	#$99
    4b65: 86 12        	stx	$12                     ; 0x12 <__rc2>
    4b67: a2 7f        	ldx	#$7f
    4b69: 86 13        	stx	$13                     ; 0x13 <__rc3>
    4b6b: 20 65 52     	jsr	$5265 <printf>
    4b6e: a2 10        	ldx	#$10
    4b70: 86 30        	stx	$30                     ; 0x30 <_ccolor>
    4b72: a2 2c        	ldx	#$2c
    4b74: 86 33        	stx	$33                     ; 0x33 <_col>
    4b76: 8e 14 d0     	stx	$d014                   ; 0xd014 <__heap_start+0x49bc>
    4b79: 9c 15 d0     	stz	$d015                   ; 0xd015 <__heap_start+0x49bd>
    4b7c: 64 34        	stz	$34                     ; 0x34 <_row>
    4b7e: 9c 16 d0     	stz	$d016                   ; 0xd016 <__heap_start+0x49be>
    4b81: 9c 17 d0     	stz	$d017                   ; 0xd017 <__heap_start+0x49bf>
    4b84: a0 16        	ldy	#$16
    4b86: 84 35        	sty	$35                     ; 0x35 <__putchar.s>
    4b88: a2 35        	ldx	#$35
    4b8a: 86 12        	stx	$12                     ; 0x12 <__rc2>
    4b8c: a2 00        	ldx	#$0
    4b8e: 86 13        	stx	$13                     ; 0x13 <__rc3>
    4b90: 84 93        	sty	$93                     ; 0x93 <__zp_bss_size+0x39>
    4b92: 20 ae 2f     	jsr	$2fae <textPrint>
    4b95: a4 93        	ldy	$93                     ; 0x93 <__zp_bss_size+0x39>
    4b97: c8           	iny
    4b98: c0 1e        	cpy	#$1e
    4b9a: d0 ea        	bne	$4b86 <textTitle+0x88>
    4b9c: a2 21        	ldx	#$21
    4b9e: 86 33        	stx	$33                     ; 0x33 <_col>
    4ba0: 8e 14 d0     	stx	$d014                   ; 0xd014 <__heap_start+0x49bc>
    4ba3: 9c 15 d0     	stz	$d015                   ; 0xd015 <__heap_start+0x49bd>
    4ba6: a2 01        	ldx	#$1
    4ba8: 86 34        	stx	$34                     ; 0x34 <_row>
    4baa: 8e 16 d0     	stx	$d016                   ; 0xd016 <__heap_start+0x49be>
    4bad: 9c 17 d0     	stz	$d017                   ; 0xd017 <__heap_start+0x49bf>
    4bb0: a2 f0        	ldx	#$f0
    4bb2: 86 30        	stx	$30                     ; 0x30 <_ccolor>
    4bb4: a2 dc        	ldx	#$dc
    4bb6: 86 12        	stx	$12                     ; 0x12 <__rc2>
    4bb8: a2 7f        	ldx	#$7f
    4bba: 86 13        	stx	$13                     ; 0x13 <__rc3>
    4bbc: 20 ae 2f     	jsr	$2fae <textPrint>
    4bbf: 9c 00 de     	stz	$de00                   ; 0xde00 <__heap_start+0x57a8>
    4bc2: 9c 01 de     	stz	$de01                   ; 0xde01 <__heap_start+0x57a9>
    4bc5: a2 04        	ldx	#$4
    4bc7: 8e 02 de     	stx	$de02                   ; 0xde02 <__heap_start+0x57aa>
    4bca: 9c 03 de     	stz	$de03                   ; 0xde03 <__heap_start+0x57ab>
    4bcd: ae 10 de     	ldx	$de10                   ; 0xde10 <__heap_start+0x57b8>
    4bd0: 86 12        	stx	$12                     ; 0x12 <__rc2>
    4bd2: ae 11 de     	ldx	$de11                   ; 0xde11 <__heap_start+0x57b9>
    4bd5: 86 13        	stx	$13                     ; 0x13 <__rc3>
    4bd7: ae 12 de     	ldx	$de12                   ; 0xde12 <__heap_start+0x57ba>
    4bda: ae 13 de     	ldx	$de13                   ; 0xde13 <__heap_start+0x57bb>
    4bdd: 18           	clc
    4bde: a9 00        	lda	#$0
    4be0: 65 12        	adc	$12                     ; 0x12 <__rc2>
    4be2: 85 12        	sta	$12                     ; 0x12 <__rc2>
    4be4: a9 d8        	lda	#$d8
    4be6: 65 13        	adc	$13                     ; 0x13 <__rc3>
    4be8: 85 13        	sta	$13                     ; 0x13 <__rc3>
    4bea: a9 ff        	lda	#$ff
    4bec: 92 12        	sta	($12)                   ; 0x12 <__rc2>
    4bee: a0 01        	ldy	#$1
    4bf0: 91 12        	sta	($12),y                 ; 0x12 <__rc2>
    4bf2: c8           	iny
    4bf3: 91 12        	sta	($12),y                 ; 0x12 <__rc2>
    4bf5: c8           	iny
    4bf6: 91 12        	sta	($12),y                 ; 0x12 <__rc2>
    4bf8: a2 70        	ldx	#$70
    4bfa: 86 30        	stx	$30                     ; 0x30 <_ccolor>
    4bfc: 64 33        	stz	$33                     ; 0x33 <_col>
    4bfe: 9c 14 d0     	stz	$d014                   ; 0xd014 <__heap_start+0x49bc>
    4c01: 9c 15 d0     	stz	$d015                   ; 0xd015 <__heap_start+0x49bd>
    4c04: a2 02        	ldx	#$2
    4c06: 86 34        	stx	$34                     ; 0x34 <_row>
    4c08: 8e 16 d0     	stx	$d016                   ; 0xd016 <__heap_start+0x49be>
    4c0b: 9c 17 d0     	stz	$d017                   ; 0xd017 <__heap_start+0x49bf>
    4c0e: a2 cd        	ldx	#$cd
    4c10: 86 12        	stx	$12                     ; 0x12 <__rc2>
    4c12: a2 7a        	ldx	#$7a
    4c14: 86 13        	stx	$13                     ; 0x13 <__rc3>
    4c16: 20 ae 2f     	jsr	$2fae <textPrint>
    4c19: 20 ec 47     	jsr	$47ec <channelTextMenu>
    4c1c: a2 40        	ldx	#$40
    4c1e: 86 30        	stx	$30                     ; 0x30 <_ccolor>
    4c20: a0 09        	ldy	#$9
    4c22: b1 91        	lda	($91),y                 ; 0x91 <__zp_bss_size+0x37>
    4c24: 20 2a 49     	jsr	$492a <updateTempoText>
    4c27: a2 2d        	ldx	#$2d
    4c29: 86 33        	stx	$33                     ; 0x33 <_col>
    4c2b: 8e 14 d0     	stx	$d014                   ; 0xd014 <__heap_start+0x49bc>
    4c2e: 9c 15 d0     	stz	$d015                   ; 0xd015 <__heap_start+0x49bd>
    4c31: a2 1a        	ldx	#$1a
    4c33: 86 34        	stx	$34                     ; 0x34 <_row>
    4c35: 8e 16 d0     	stx	$d016                   ; 0xd016 <__heap_start+0x49be>
    4c38: 9c 17 d0     	stz	$d017                   ; 0xd017 <__heap_start+0x49bf>
    4c3b: a2 0e        	ldx	#$e
    4c3d: 86 12        	stx	$12                     ; 0x12 <__rc2>
    4c3f: a2 77        	ldx	#$77
    4c41: 86 13        	stx	$13                     ; 0x13 <__rc3>
    4c43: 20 ae 2f     	jsr	$2fae <textPrint>
    4c46: a2 2d        	ldx	#$2d
    4c48: 86 33        	stx	$33                     ; 0x33 <_col>
    4c4a: 8e 14 d0     	stx	$d014                   ; 0xd014 <__heap_start+0x49bc>
    4c4d: 9c 15 d0     	stz	$d015                   ; 0xd015 <__heap_start+0x49bd>
    4c50: a2 1b        	ldx	#$1b
    4c52: 86 34        	stx	$34                     ; 0x34 <_row>
    4c54: 8e 16 d0     	stx	$d016                   ; 0xd016 <__heap_start+0x49be>
    4c57: 9c 17 d0     	stz	$d017                   ; 0xd017 <__heap_start+0x49bf>
    4c5a: a2 0d        	ldx	#$d
    4c5c: 86 12        	stx	$12                     ; 0x12 <__rc2>
    4c5e: a2 78        	ldx	#$78
    4c60: 86 13        	stx	$13                     ; 0x13 <__rc3>
    4c62: 20 ae 2f     	jsr	$2fae <textPrint>
    4c65: 20 c3 48     	jsr	$48c3 <refreshBeatTextChoice>
    4c68: a2 40        	ldx	#$40
    4c6a: 86 30        	stx	$30                     ; 0x30 <_ccolor>
    4c6c: 64 33        	stz	$33                     ; 0x33 <_col>
    4c6e: 9c 14 d0     	stz	$d014                   ; 0xd014 <__heap_start+0x49bc>
    4c71: 9c 15 d0     	stz	$d015                   ; 0xd015 <__heap_start+0x49bd>
    4c74: a2 23        	ldx	#$23
    4c76: 86 34        	stx	$34                     ; 0x34 <_row>
    4c78: 8e 16 d0     	stx	$d016                   ; 0xd016 <__heap_start+0x49be>
    4c7b: 9c 17 d0     	stz	$d017                   ; 0xd017 <__heap_start+0x49bf>
    4c7e: a9 f8        	lda	#$f8
    4c80: 92 10        	sta	($10)                   ; 0x10 <__rc0>
    4c82: a0 01        	ldy	#$1
    4c84: a9 00        	lda	#$0
    4c86: 91 10        	sta	($10),y                 ; 0x10 <__rc0>
    4c88: c8           	iny
    4c89: a9 fb        	lda	#$fb
    4c8b: 91 10        	sta	($10),y                 ; 0x10 <__rc0>
    4c8d: c8           	iny
    4c8e: a9 00        	lda	#$0
    4c90: 91 10        	sta	($10),y                 ; 0x10 <__rc0>
    4c92: a2 80        	ldx	#$80
    4c94: 86 12        	stx	$12                     ; 0x12 <__rc2>
    4c96: a2 7c        	ldx	#$7c
    4c98: 86 13        	stx	$13                     ; 0x13 <__rc3>
    4c9a: 20 65 52     	jsr	$5265 <printf>
    4c9d: 64 33        	stz	$33                     ; 0x33 <_col>
    4c9f: 9c 14 d0     	stz	$d014                   ; 0xd014 <__heap_start+0x49bc>
    4ca2: 9c 15 d0     	stz	$d015                   ; 0xd015 <__heap_start+0x49bd>
    4ca5: a2 24        	ldx	#$24
    4ca7: 86 34        	stx	$34                     ; 0x34 <_row>
    4ca9: 8e 16 d0     	stx	$d016                   ; 0xd016 <__heap_start+0x49be>
    4cac: 9c 17 d0     	stz	$d017                   ; 0xd017 <__heap_start+0x49bf>
    4caf: a9 f8        	lda	#$f8
    4cb1: 92 10        	sta	($10)                   ; 0x10 <__rc0>
    4cb3: a9 00        	lda	#$0
    4cb5: a0 01        	ldy	#$1
    4cb7: 91 10        	sta	($10),y                 ; 0x10 <__rc0>
    4cb9: c8           	iny
    4cba: a9 fb        	lda	#$fb
    4cbc: 91 10        	sta	($10),y                 ; 0x10 <__rc0>
    4cbe: c8           	iny
    4cbf: a9 00        	lda	#$0
    4cc1: 91 10        	sta	($10),y                 ; 0x10 <__rc0>
    4cc3: c8           	iny
    4cc4: a9 f8        	lda	#$f8
    4cc6: 91 10        	sta	($10),y                 ; 0x10 <__rc0>
    4cc8: c8           	iny
    4cc9: a9 00        	lda	#$0
    4ccb: 91 10        	sta	($10),y                 ; 0x10 <__rc0>
    4ccd: c8           	iny
    4cce: a9 fb        	lda	#$fb
    4cd0: 91 10        	sta	($10),y                 ; 0x10 <__rc0>
    4cd2: c8           	iny
    4cd3: a9 00        	lda	#$0
    4cd5: 91 10        	sta	($10),y                 ; 0x10 <__rc0>
    4cd7: a2 a5        	ldx	#$a5
    4cd9: 86 12        	stx	$12                     ; 0x12 <__rc2>
    4cdb: a2 7c        	ldx	#$7c
    4cdd: 86 13        	stx	$13                     ; 0x13 <__rc3>
    4cdf: 20 65 52     	jsr	$5265 <printf>
    4ce2: 64 33        	stz	$33                     ; 0x33 <_col>
    4ce4: 9c 14 d0     	stz	$d014                   ; 0xd014 <__heap_start+0x49bc>
    4ce7: 9c 15 d0     	stz	$d015                   ; 0xd015 <__heap_start+0x49bd>
    4cea: a2 28        	ldx	#$28
    4cec: 86 34        	stx	$34                     ; 0x34 <_row>
    4cee: 8e 16 d0     	stx	$d016                   ; 0xd016 <__heap_start+0x49be>
    4cf1: 9c 17 d0     	stz	$d017                   ; 0xd017 <__heap_start+0x49bf>
    4cf4: a2 a2        	ldx	#$a2
    4cf6: 86 12        	stx	$12                     ; 0x12 <__rc2>
    4cf8: a2 80        	ldx	#$80
    4cfa: 86 13        	stx	$13                     ; 0x13 <__rc3>
    4cfc: 20 ae 2f     	jsr	$2fae <textPrint>
    4cff: 64 33        	stz	$33                     ; 0x33 <_col>
    4d01: 9c 14 d0     	stz	$d014                   ; 0xd014 <__heap_start+0x49bc>
    4d04: 9c 15 d0     	stz	$d015                   ; 0xd015 <__heap_start+0x49bd>
    4d07: a2 29        	ldx	#$29
    4d09: 86 34        	stx	$34                     ; 0x34 <_row>
    4d0b: 8e 16 d0     	stx	$d016                   ; 0xd016 <__heap_start+0x49be>
    4d0e: 9c 17 d0     	stz	$d017                   ; 0xd017 <__heap_start+0x49bf>
    4d11: a9 f9        	lda	#$f9
    4d13: 92 10        	sta	($10)                   ; 0x10 <__rc0>
    4d15: a0 01        	ldy	#$1
    4d17: a9 00        	lda	#$0
    4d19: 91 10        	sta	($10),y                 ; 0x10 <__rc0>
    4d1b: c8           	iny
    4d1c: a9 fa        	lda	#$fa
    4d1e: 91 10        	sta	($10),y                 ; 0x10 <__rc0>
    4d20: c8           	iny
    4d21: a9 00        	lda	#$0
    4d23: 91 10        	sta	($10),y                 ; 0x10 <__rc0>
    4d25: a2 12        	ldx	#$12
    4d27: 86 12        	stx	$12                     ; 0x12 <__rc2>
    4d29: a2 7f        	ldx	#$7f
    4d2b: 86 13        	stx	$13                     ; 0x13 <__rc3>
    4d2d: 20 65 52     	jsr	$5265 <printf>
    4d30: 64 33        	stz	$33                     ; 0x33 <_col>
    4d32: 9c 14 d0     	stz	$d014                   ; 0xd014 <__heap_start+0x49bc>
    4d35: 9c 15 d0     	stz	$d015                   ; 0xd015 <__heap_start+0x49bd>
    4d38: a2 2a        	ldx	#$2a
    4d3a: 86 34        	stx	$34                     ; 0x34 <_row>
    4d3c: 8e 16 d0     	stx	$d016                   ; 0xd016 <__heap_start+0x49be>
    4d3f: 9c 17 d0     	stz	$d017                   ; 0xd017 <__heap_start+0x49bf>
    4d42: a0 01        	ldy	#$1
    4d44: a9 00        	lda	#$0
    4d46: 91 10        	sta	($10),y                 ; 0x10 <__rc0>
    4d48: c8           	iny
    4d49: a9 fa        	lda	#$fa
    4d4b: 91 10        	sta	($10),y                 ; 0x10 <__rc0>
    4d4d: c8           	iny
    4d4e: a9 00        	lda	#$0
    4d50: 91 10        	sta	($10),y                 ; 0x10 <__rc0>
    4d52: a9 f9        	lda	#$f9
    4d54: 92 10        	sta	($10)                   ; 0x10 <__rc0>
    4d56: c8           	iny
    4d57: 91 10        	sta	($10),y                 ; 0x10 <__rc0>
    4d59: c8           	iny
    4d5a: a9 00        	lda	#$0
    4d5c: 91 10        	sta	($10),y                 ; 0x10 <__rc0>
    4d5e: c8           	iny
    4d5f: a9 fa        	lda	#$fa
    4d61: 91 10        	sta	($10),y                 ; 0x10 <__rc0>
    4d63: c8           	iny
    4d64: a9 00        	lda	#$0
    4d66: 91 10        	sta	($10),y                 ; 0x10 <__rc0>
    4d68: a2 f1        	ldx	#$f1
    4d6a: 86 12        	stx	$12                     ; 0x12 <__rc2>
    4d6c: a2 7c        	ldx	#$7c
    4d6e: 86 13        	stx	$13                     ; 0x13 <__rc3>
    4d70: 20 65 52     	jsr	$5265 <printf>
    4d73: a2 40        	ldx	#$40
    4d75: 86 30        	stx	$30                     ; 0x30 <_ccolor>
    4d77: a2 05        	ldx	#$5
    4d79: 86 33        	stx	$33                     ; 0x33 <_col>
    4d7b: 8e 14 d0     	stx	$d014                   ; 0xd014 <__heap_start+0x49bc>
    4d7e: 9c 15 d0     	stz	$d015                   ; 0xd015 <__heap_start+0x49bd>
    4d81: a2 39        	ldx	#$39
    4d83: 86 34        	stx	$34                     ; 0x34 <_row>
    4d85: 8e 16 d0     	stx	$d016                   ; 0xd016 <__heap_start+0x49be>
    4d88: 9c 17 d0     	stz	$d017                   ; 0xd017 <__heap_start+0x49bf>
    4d8b: a2 e2        	ldx	#$e2
    4d8d: 86 12        	stx	$12                     ; 0x12 <__rc2>
    4d8f: a2 7d        	ldx	#$7d
    4d91: 86 13        	stx	$13                     ; 0x13 <__rc3>
    4d93: 20 ae 2f     	jsr	$2fae <textPrint>
    4d96: a2 40        	ldx	#$40
    4d98: 86 30        	stx	$30                     ; 0x30 <_ccolor>
    4d9a: a2 05        	ldx	#$5
    4d9c: 86 33        	stx	$33                     ; 0x33 <_col>
    4d9e: 8e 14 d0     	stx	$d014                   ; 0xd014 <__heap_start+0x49bc>
    4da1: 9c 15 d0     	stz	$d015                   ; 0xd015 <__heap_start+0x49bd>
    4da4: a2 3a        	ldx	#$3a
    4da6: 86 34        	stx	$34                     ; 0x34 <_row>
    4da8: 8e 16 d0     	stx	$d016                   ; 0xd016 <__heap_start+0x49be>
    4dab: 9c 17 d0     	stz	$d017                   ; 0xd017 <__heap_start+0x49bf>
    4dae: a2 87        	ldx	#$87
    4db0: 86 12        	stx	$12                     ; 0x12 <__rc2>
    4db2: a2 7f        	ldx	#$7f
    4db4: 86 13        	stx	$13                     ; 0x13 <__rc3>
    4db6: 20 ae 2f     	jsr	$2fae <textPrint>
    4db9: a6 91        	ldx	$91                     ; 0x91 <__zp_bss_size+0x37>
    4dbb: 86 12        	stx	$12                     ; 0x12 <__rc2>
    4dbd: a6 92        	ldx	$92                     ; 0x92 <__zp_bss_size+0x38>
    4dbf: 86 13        	stx	$13                     ; 0x13 <__rc3>
    4dc1: 20 84 49     	jsr	$4984 <showChipChoiceText>
    4dc4: 18           	clc
    4dc5: a5 10        	lda	$10                     ; 0x10 <__rc0>
    4dc7: 69 08        	adc	#$8
    4dc9: 85 10        	sta	$10                     ; 0x10 <__rc0>
    4dcb: a5 11        	lda	$11                     ; 0x11 <__rc1>
    4dcd: 69 00        	adc	#$0
    4dcf: 85 11        	sta	$11                     ; 0x11 <__rc1>
    4dd1: 60           	rts

00004dd2 <highLightInstChoice>:
    4dd2: 48           	pha
    4dd3: 18           	clc
    4dd4: a5 10        	lda	$10                     ; 0x10 <__rc0>
    4dd6: 69 fc        	adc	#$fc
    4dd8: 85 10        	sta	$10                     ; 0x10 <__rc0>
    4dda: a5 11        	lda	$11                     ; 0x11 <__rc1>
    4ddc: 69 ff        	adc	#$ff
    4dde: 85 11        	sta	$11                     ; 0x11 <__rc1>
    4de0: 68           	pla
    4de1: a6 12        	ldx	$12                     ; 0x12 <__rc2>
    4de3: 86 90        	stx	$90                     ; 0x90 <__zp_bss_size+0x36>
    4de5: a6 13        	ldx	$13                     ; 0x13 <__rc3>
    4de7: 86 91        	stx	$91                     ; 0x91 <__zp_bss_size+0x37>
    4de9: aa           	tax
    4dea: f0 04        	beq	$4df0 <highLightInstChoice+0x1e>
    4dec: a2 90        	ldx	#$90
    4dee: 80 02        	bra	$4df2 <highLightInstChoice+0x20>
    4df0: a2 50        	ldx	#$50
    4df2: 86 30        	stx	$30                     ; 0x30 <_ccolor>
    4df4: a0 06        	ldy	#$6
    4df6: b1 90        	lda	($90),y                 ; 0x90 <__zp_bss_size+0x36>
    4df8: f0 03        	beq	$4dfd <highLightInstChoice+0x2b>
    4dfa: 4c bb 4e     	jmp	$4ebb <highLightInstChoice+0xe9>
    4dfd: a0 01        	ldy	#$1
    4dff: e6 12        	inc	$12                     ; 0x12 <__rc2>
    4e01: d0 02        	bne	$4e05 <highLightInstChoice+0x33>
    4e03: e6 13        	inc	$13                     ; 0x13 <__rc3>
    4e05: a6 12        	ldx	$12                     ; 0x12 <__rc2>
    4e07: 86 14        	stx	$14                     ; 0x14 <__rc4>
    4e09: a6 13        	ldx	$13                     ; 0x13 <__rc3>
    4e0b: 86 15        	stx	$15                     ; 0x15 <__rc5>
    4e0d: a6 14        	ldx	$14                     ; 0x14 <__rc4>
    4e0f: 86 93        	stx	$93                     ; 0x93 <__zp_bss_size+0x39>
    4e11: a6 15        	ldx	$15                     ; 0x15 <__rc5>
    4e13: 86 94        	stx	$94                     ; 0x94 <__zp_bss_size+0x3a>
    4e15: b1 90        	lda	($90),y                 ; 0x90 <__zp_bss_size+0x36>
    4e17: aa           	tax
    4e18: b1 12        	lda	($12),y                 ; 0x12 <__rc2>
    4e1a: 86 12        	stx	$12                     ; 0x12 <__rc2>
    4e1c: 85 13        	sta	$13                     ; 0x13 <__rc3>
    4e1e: a0 05        	ldy	#$5
    4e20: b1 90        	lda	($90),y                 ; 0x90 <__zp_bss_size+0x36>
    4e22: a8           	tay
    4e23: b1 12        	lda	($12),y                 ; 0x12 <__rc2>
    4e25: a2 92        	ldx	#$92
    4e27: a0 00        	ldy	#$0
    4e29: 86 12        	stx	$12                     ; 0x12 <__rc2>
    4e2b: 84 13        	sty	$13                     ; 0x13 <__rc3>
    4e2d: a2 03        	ldx	#$3
    4e2f: 20 f6 64     	jsr	$64f6 <__udivmodqi4>
    4e32: 85 95        	sta	$95                     ; 0x95 <__zp_bss_size+0x3b>
    4e34: a5 92        	lda	$92                     ; 0x92 <__zp_bss_size+0x38>
    4e36: a2 19        	ldx	#$19
    4e38: 20 de 60     	jsr	$60de <__mulqi3>
    4e3b: 18           	clc
    4e3c: 69 02        	adc	#$2
    4e3e: a6 95        	ldx	$95                     ; 0x95 <__zp_bss_size+0x3b>
    4e40: e8           	inx
    4e41: 85 33        	sta	$33                     ; 0x33 <_col>
    4e43: 8d 14 d0     	sta	$d014                   ; 0xd014 <__heap_start+0x49bc>
    4e46: 9c 15 d0     	stz	$d015                   ; 0xd015 <__heap_start+0x49bd>
    4e49: 86 34        	stx	$34                     ; 0x34 <_row>
    4e4b: 8e 16 d0     	stx	$d016                   ; 0xd016 <__heap_start+0x49be>
    4e4e: 9c 17 d0     	stz	$d017                   ; 0xd017 <__heap_start+0x49bf>
    4e51: a0 01        	ldy	#$1
    4e53: b1 90        	lda	($90),y                 ; 0x90 <__zp_bss_size+0x36>
    4e55: 85 14        	sta	$14                     ; 0x14 <__rc4>
    4e57: a6 93        	ldx	$93                     ; 0x93 <__zp_bss_size+0x39>
    4e59: 86 12        	stx	$12                     ; 0x12 <__rc2>
    4e5b: a6 94        	ldx	$94                     ; 0x94 <__zp_bss_size+0x3a>
    4e5d: 86 13        	stx	$13                     ; 0x13 <__rc3>
    4e5f: b1 12        	lda	($12),y                 ; 0x12 <__rc2>
    4e61: a6 14        	ldx	$14                     ; 0x14 <__rc4>
    4e63: 86 12        	stx	$12                     ; 0x12 <__rc2>
    4e65: 85 13        	sta	$13                     ; 0x13 <__rc3>
    4e67: a0 05        	ldy	#$5
    4e69: b1 90        	lda	($90),y                 ; 0x90 <__zp_bss_size+0x36>
    4e6b: a8           	tay
    4e6c: b1 12        	lda	($12),y                 ; 0x12 <__rc2>
    4e6e: aa           	tax
    4e6f: 0a           	asl
    4e70: 85 12        	sta	$12                     ; 0x12 <__rc2>
    4e72: a9 00        	lda	#$0
    4e74: 2a           	rol
    4e75: 85 13        	sta	$13                     ; 0x13 <__rc3>
    4e77: a9 19        	lda	#$19
    4e79: 18           	clc
    4e7a: 65 12        	adc	$12                     ; 0x12 <__rc2>
    4e7c: 85 12        	sta	$12                     ; 0x12 <__rc2>
    4e7e: a9 85        	lda	#$85
    4e80: 65 13        	adc	$13                     ; 0x13 <__rc3>
    4e82: 85 13        	sta	$13                     ; 0x13 <__rc3>
    4e84: b2 12        	lda	($12)                   ; 0x12 <__rc2>
    4e86: 85 15        	sta	$15                     ; 0x15 <__rc5>
    4e88: a0 01        	ldy	#$1
    4e8a: b1 12        	lda	($12),y                 ; 0x12 <__rc2>
    4e8c: 85 14        	sta	$14                     ; 0x14 <__rc4>
    4e8e: a5 10        	lda	$10                     ; 0x10 <__rc0>
    4e90: 18           	clc
    4e91: 69 02        	adc	#$2
    4e93: 85 12        	sta	$12                     ; 0x12 <__rc2>
    4e95: a5 11        	lda	$11                     ; 0x11 <__rc1>
    4e97: 69 00        	adc	#$0
    4e99: 85 13        	sta	$13                     ; 0x13 <__rc3>
    4e9b: c8           	iny
    4e9c: a5 15        	lda	$15                     ; 0x15 <__rc5>
    4e9e: 91 10        	sta	($10),y                 ; 0x10 <__rc0>
    4ea0: 8a           	txa
    4ea1: 92 10        	sta	($10)                   ; 0x10 <__rc0>
    4ea3: a9 00        	lda	#$0
    4ea5: 88           	dey
    4ea6: 91 10        	sta	($10),y                 ; 0x10 <__rc0>
    4ea8: a5 14        	lda	$14                     ; 0x14 <__rc4>
    4eaa: 91 12        	sta	($12),y                 ; 0x12 <__rc2>
    4eac: a2 df        	ldx	#$df
    4eae: 86 12        	stx	$12                     ; 0x12 <__rc2>
    4eb0: a2 77        	ldx	#$77
    4eb2: 86 13        	stx	$13                     ; 0x13 <__rc3>
    4eb4: 20 65 52     	jsr	$5265 <printf>
    4eb7: a0 06        	ldy	#$6
    4eb9: b1 90        	lda	($90),y                 ; 0x90 <__zp_bss_size+0x36>
    4ebb: c9 01        	cmp	#$1
    4ebd: f0 03        	beq	$4ec2 <highLightInstChoice+0xf0>
    4ebf: 4c 2a 4f     	jmp	$4f2a <highLightInstChoice+0x158>
    4ec2: a0 03        	ldy	#$3
    4ec4: 18           	clc
    4ec5: a9 02        	lda	#$2
    4ec7: 71 90        	adc	($90),y                 ; 0x90 <__zp_bss_size+0x36>
    4ec9: a2 02        	ldx	#$2
    4ecb: 86 33        	stx	$33                     ; 0x33 <_col>
    4ecd: 8e 14 d0     	stx	$d014                   ; 0xd014 <__heap_start+0x49bc>
    4ed0: 9c 15 d0     	stz	$d015                   ; 0xd015 <__heap_start+0x49bd>
    4ed3: 85 34        	sta	$34                     ; 0x34 <_row>
    4ed5: 8d 16 d0     	sta	$d016                   ; 0xd016 <__heap_start+0x49be>
    4ed8: 9c 17 d0     	stz	$d017                   ; 0xd017 <__heap_start+0x49bf>
    4edb: b1 90        	lda	($90),y                 ; 0x90 <__zp_bss_size+0x36>
    4edd: aa           	tax
    4ede: 0a           	asl
    4edf: 85 12        	sta	$12                     ; 0x12 <__rc2>
    4ee1: a9 00        	lda	#$0
    4ee3: 2a           	rol
    4ee4: 85 13        	sta	$13                     ; 0x13 <__rc3>
    4ee6: a9 19        	lda	#$19
    4ee8: 18           	clc
    4ee9: 65 12        	adc	$12                     ; 0x12 <__rc2>
    4eeb: 85 12        	sta	$12                     ; 0x12 <__rc2>
    4eed: a9 86        	lda	#$86
    4eef: 65 13        	adc	$13                     ; 0x13 <__rc3>
    4ef1: a0 01        	ldy	#$1
    4ef3: 85 13        	sta	$13                     ; 0x13 <__rc3>
    4ef5: b2 12        	lda	($12)                   ; 0x12 <__rc2>
    4ef7: 85 15        	sta	$15                     ; 0x15 <__rc5>
    4ef9: b1 12        	lda	($12),y                 ; 0x12 <__rc2>
    4efb: 85 14        	sta	$14                     ; 0x14 <__rc4>
    4efd: a5 10        	lda	$10                     ; 0x10 <__rc0>
    4eff: 18           	clc
    4f00: 69 02        	adc	#$2
    4f02: 85 12        	sta	$12                     ; 0x12 <__rc2>
    4f04: a5 11        	lda	$11                     ; 0x11 <__rc1>
    4f06: 69 00        	adc	#$0
    4f08: 85 13        	sta	$13                     ; 0x13 <__rc3>
    4f0a: c8           	iny
    4f0b: a5 15        	lda	$15                     ; 0x15 <__rc5>
    4f0d: 91 10        	sta	($10),y                 ; 0x10 <__rc0>
    4f0f: 8a           	txa
    4f10: 92 10        	sta	($10)                   ; 0x10 <__rc0>
    4f12: a9 00        	lda	#$0
    4f14: 88           	dey
    4f15: 91 10        	sta	($10),y                 ; 0x10 <__rc0>
    4f17: a5 14        	lda	$14                     ; 0x14 <__rc4>
    4f19: 91 12        	sta	($12),y                 ; 0x12 <__rc2>
    4f1b: a2 df        	ldx	#$df
    4f1d: 86 12        	stx	$12                     ; 0x12 <__rc2>
    4f1f: a2 77        	ldx	#$77
    4f21: 86 13        	stx	$13                     ; 0x13 <__rc3>
    4f23: 20 65 52     	jsr	$5265 <printf>
    4f26: a0 06        	ldy	#$6
    4f28: b1 90        	lda	($90),y                 ; 0x90 <__zp_bss_size+0x36>
    4f2a: c9 03        	cmp	#$3
    4f2c: f0 03        	beq	$4f31 <highLightInstChoice+0x15f>
    4f2e: 4c 95 4f     	jmp	$4f95 <highLightInstChoice+0x1c3>
    4f31: a0 04        	ldy	#$4
    4f33: 18           	clc
    4f34: a9 02        	lda	#$2
    4f36: 71 90        	adc	($90),y                 ; 0x90 <__zp_bss_size+0x36>
    4f38: a2 02        	ldx	#$2
    4f3a: 86 33        	stx	$33                     ; 0x33 <_col>
    4f3c: 8e 14 d0     	stx	$d014                   ; 0xd014 <__heap_start+0x49bc>
    4f3f: 9c 15 d0     	stz	$d015                   ; 0xd015 <__heap_start+0x49bd>
    4f42: 85 34        	sta	$34                     ; 0x34 <_row>
    4f44: 8d 16 d0     	sta	$d016                   ; 0xd016 <__heap_start+0x49be>
    4f47: 9c 17 d0     	stz	$d017                   ; 0xd017 <__heap_start+0x49bf>
    4f4a: b1 90        	lda	($90),y                 ; 0x90 <__zp_bss_size+0x36>
    4f4c: aa           	tax
    4f4d: 0a           	asl
    4f4e: 85 12        	sta	$12                     ; 0x12 <__rc2>
    4f50: a9 00        	lda	#$0
    4f52: 2a           	rol
    4f53: 85 13        	sta	$13                     ; 0x13 <__rc3>
    4f55: a9 23        	lda	#$23
    4f57: 18           	clc
    4f58: 65 12        	adc	$12                     ; 0x12 <__rc2>
    4f5a: 85 12        	sta	$12                     ; 0x12 <__rc2>
    4f5c: a9 86        	lda	#$86
    4f5e: 65 13        	adc	$13                     ; 0x13 <__rc3>
    4f60: a0 01        	ldy	#$1
    4f62: 85 13        	sta	$13                     ; 0x13 <__rc3>
    4f64: b2 12        	lda	($12)                   ; 0x12 <__rc2>
    4f66: 85 15        	sta	$15                     ; 0x15 <__rc5>
    4f68: b1 12        	lda	($12),y                 ; 0x12 <__rc2>
    4f6a: 85 14        	sta	$14                     ; 0x14 <__rc4>
    4f6c: a5 10        	lda	$10                     ; 0x10 <__rc0>
    4f6e: 18           	clc
    4f6f: 69 02        	adc	#$2
    4f71: 85 12        	sta	$12                     ; 0x12 <__rc2>
    4f73: a5 11        	lda	$11                     ; 0x11 <__rc1>
    4f75: 69 00        	adc	#$0
    4f77: 85 13        	sta	$13                     ; 0x13 <__rc3>
    4f79: c8           	iny
    4f7a: a5 15        	lda	$15                     ; 0x15 <__rc5>
    4f7c: 91 10        	sta	($10),y                 ; 0x10 <__rc0>
    4f7e: 8a           	txa
    4f7f: 92 10        	sta	($10)                   ; 0x10 <__rc0>
    4f81: a9 00        	lda	#$0
    4f83: 88           	dey
    4f84: 91 10        	sta	($10),y                 ; 0x10 <__rc0>
    4f86: a5 14        	lda	$14                     ; 0x14 <__rc4>
    4f88: 91 12        	sta	($12),y                 ; 0x12 <__rc2>
    4f8a: a2 df        	ldx	#$df
    4f8c: 86 12        	stx	$12                     ; 0x12 <__rc2>
    4f8e: a2 77        	ldx	#$77
    4f90: 86 13        	stx	$13                     ; 0x13 <__rc3>
    4f92: 20 65 52     	jsr	$5265 <printf>
    4f95: 18           	clc
    4f96: a5 10        	lda	$10                     ; 0x10 <__rc0>
    4f98: 69 04        	adc	#$4
    4f9a: 85 10        	sta	$10                     ; 0x10 <__rc0>
    4f9c: a5 11        	lda	$11                     ; 0x11 <__rc1>
    4f9e: 69 00        	adc	#$0
    4fa0: 85 11        	sta	$11                     ; 0x11 <__rc1>
    4fa2: 60           	rts

00004fa3 <modalMoveUp>:
    4fa3: 85 8f        	sta	$8f                     ; 0x8f <__zp_bss_size+0x35>
    4fa5: a6 12        	ldx	$12                     ; 0x12 <__rc2>
    4fa7: 86 8d        	stx	$8d                     ; 0x8d <__zp_bss_size+0x33>
    4fa9: a6 13        	ldx	$13                     ; 0x13 <__rc3>
    4fab: 86 8e        	stx	$8e                     ; 0x8e <__zp_bss_size+0x34>
    4fad: a9 00        	lda	#$0
    4faf: 20 d2 4d     	jsr	$4dd2 <highLightInstChoice>
    4fb2: a0 06        	ldy	#$6
    4fb4: b1 8d        	lda	($8d),y                 ; 0x8d <__zp_bss_size+0x33>
    4fb6: d0 36        	bne	$4fee <modalMoveUp+0x4b>
    4fb8: a2 e5        	ldx	#$e5
    4fba: a5 8f        	lda	$8f                     ; 0x8f <__zp_bss_size+0x35>
    4fbc: 20 de 60     	jsr	$60de <__mulqi3>
    4fbf: aa           	tax
    4fc0: a4 8d        	ldy	$8d                     ; 0x8d <__zp_bss_size+0x33>
    4fc2: 84 12        	sty	$12                     ; 0x12 <__rc2>
    4fc4: a4 8e        	ldy	$8e                     ; 0x8e <__zp_bss_size+0x34>
    4fc6: 84 13        	sty	$13                     ; 0x13 <__rc3>
    4fc8: e6 12        	inc	$12                     ; 0x12 <__rc2>
    4fca: d0 02        	bne	$4fce <modalMoveUp+0x2b>
    4fcc: e6 13        	inc	$13                     ; 0x13 <__rc3>
    4fce: a0 01        	ldy	#$1
    4fd0: b1 8d        	lda	($8d),y                 ; 0x8d <__zp_bss_size+0x33>
    4fd2: 85 14        	sta	$14                     ; 0x14 <__rc4>
    4fd4: b1 12        	lda	($12),y                 ; 0x12 <__rc2>
    4fd6: a4 14        	ldy	$14                     ; 0x14 <__rc4>
    4fd8: 84 12        	sty	$12                     ; 0x12 <__rc2>
    4fda: 85 13        	sta	$13                     ; 0x13 <__rc3>
    4fdc: a0 05        	ldy	#$5
    4fde: b1 8d        	lda	($8d),y                 ; 0x8d <__zp_bss_size+0x33>
    4fe0: a8           	tay
    4fe1: 18           	clc
    4fe2: 8a           	txa
    4fe3: 71 12        	adc	($12),y                 ; 0x12 <__rc2>
    4fe5: 18           	clc
    4fe6: 69 fd        	adc	#$fd
    4fe8: 91 12        	sta	($12),y                 ; 0x12 <__rc2>
    4fea: a0 06        	ldy	#$6
    4fec: b1 8d        	lda	($8d),y                 ; 0x8d <__zp_bss_size+0x33>
    4fee: c9 01        	cmp	#$1
    4ff0: f0 08        	beq	$4ffa <modalMoveUp+0x57>
    4ff2: c9 03        	cmp	#$3
    4ff4: d0 0b        	bne	$5001 <modalMoveUp+0x5e>
    4ff6: a0 04        	ldy	#$4
    4ff8: 80 02        	bra	$4ffc <modalMoveUp+0x59>
    4ffa: a0 03        	ldy	#$3
    4ffc: b1 8d        	lda	($8d),y                 ; 0x8d <__zp_bss_size+0x33>
    4ffe: 3a           	dec
    4fff: 91 8d        	sta	($8d),y                 ; 0x8d <__zp_bss_size+0x33>
    5001: a9 01        	lda	#$1
    5003: a6 8d        	ldx	$8d                     ; 0x8d <__zp_bss_size+0x33>
    5005: 86 12        	stx	$12                     ; 0x12 <__rc2>
    5007: a6 8e        	ldx	$8e                     ; 0x8e <__zp_bss_size+0x34>
    5009: 86 13        	stx	$13                     ; 0x13 <__rc3>
    500b: 4c d2 4d     	jmp	$4dd2 <highLightInstChoice>

0000500e <modalMoveDown>:
    500e: 85 8f        	sta	$8f                     ; 0x8f <__zp_bss_size+0x35>
    5010: a6 12        	ldx	$12                     ; 0x12 <__rc2>
    5012: 86 8d        	stx	$8d                     ; 0x8d <__zp_bss_size+0x33>
    5014: a6 13        	ldx	$13                     ; 0x13 <__rc3>
    5016: 86 8e        	stx	$8e                     ; 0x8e <__zp_bss_size+0x34>
    5018: a9 00        	lda	#$0
    501a: 20 d2 4d     	jsr	$4dd2 <highLightInstChoice>
    501d: a0 06        	ldy	#$6
    501f: b1 8d        	lda	($8d),y                 ; 0x8d <__zp_bss_size+0x33>
    5021: d0 36        	bne	$5059 <modalMoveDown+0x4b>
    5023: a2 1b        	ldx	#$1b
    5025: a5 8f        	lda	$8f                     ; 0x8f <__zp_bss_size+0x35>
    5027: 20 de 60     	jsr	$60de <__mulqi3>
    502a: aa           	tax
    502b: a4 8d        	ldy	$8d                     ; 0x8d <__zp_bss_size+0x33>
    502d: 84 12        	sty	$12                     ; 0x12 <__rc2>
    502f: a4 8e        	ldy	$8e                     ; 0x8e <__zp_bss_size+0x34>
    5031: 84 13        	sty	$13                     ; 0x13 <__rc3>
    5033: e6 12        	inc	$12                     ; 0x12 <__rc2>
    5035: d0 02        	bne	$5039 <modalMoveDown+0x2b>
    5037: e6 13        	inc	$13                     ; 0x13 <__rc3>
    5039: a0 01        	ldy	#$1
    503b: b1 8d        	lda	($8d),y                 ; 0x8d <__zp_bss_size+0x33>
    503d: 85 14        	sta	$14                     ; 0x14 <__rc4>
    503f: b1 12        	lda	($12),y                 ; 0x12 <__rc2>
    5041: a4 14        	ldy	$14                     ; 0x14 <__rc4>
    5043: 84 12        	sty	$12                     ; 0x12 <__rc2>
    5045: 85 13        	sta	$13                     ; 0x13 <__rc3>
    5047: a0 05        	ldy	#$5
    5049: b1 8d        	lda	($8d),y                 ; 0x8d <__zp_bss_size+0x33>
    504b: a8           	tay
    504c: 18           	clc
    504d: 8a           	txa
    504e: 71 12        	adc	($12),y                 ; 0x12 <__rc2>
    5050: 18           	clc
    5051: 69 03        	adc	#$3
    5053: 91 12        	sta	($12),y                 ; 0x12 <__rc2>
    5055: a0 06        	ldy	#$6
    5057: b1 8d        	lda	($8d),y                 ; 0x8d <__zp_bss_size+0x33>
    5059: c9 01        	cmp	#$1
    505b: f0 08        	beq	$5065 <modalMoveDown+0x57>
    505d: c9 03        	cmp	#$3
    505f: d0 0b        	bne	$506c <modalMoveDown+0x5e>
    5061: a0 04        	ldy	#$4
    5063: 80 02        	bra	$5067 <modalMoveDown+0x59>
    5065: a0 03        	ldy	#$3
    5067: b1 8d        	lda	($8d),y                 ; 0x8d <__zp_bss_size+0x33>
    5069: 1a           	inc
    506a: 91 8d        	sta	($8d),y                 ; 0x8d <__zp_bss_size+0x33>
    506c: a9 01        	lda	#$1
    506e: a6 8d        	ldx	$8d                     ; 0x8d <__zp_bss_size+0x33>
    5070: 86 12        	stx	$12                     ; 0x12 <__rc2>
    5072: a6 8e        	ldx	$8e                     ; 0x8e <__zp_bss_size+0x34>
    5074: 86 13        	stx	$13                     ; 0x13 <__rc3>
    5076: 4c d2 4d     	jmp	$4dd2 <highLightInstChoice>

00005079 <exit>:
    5079: 20 1b 03     	jsr	$31b <_fini>
    507c: 80 fe        	bra	$507c <exit+0x3>

0000507e <_ZN12_GLOBAL__N_13putEcP6Status>:
    507e: 85 18        	sta	$18                     ; 0x18 <__rc8>
    5080: a6 13        	ldx	$13                     ; 0x13 <__rc3>
    5082: 18           	clc
    5083: a5 12        	lda	$12                     ; 0x12 <__rc2>
    5085: 69 05        	adc	#$5
    5087: a8           	tay
    5088: a5 13        	lda	$13                     ; 0x13 <__rc3>
    508a: 86 15        	stx	$15                     ; 0x15 <__rc5>
    508c: 69 00        	adc	#$0
    508e: 18           	clc
    508f: 84 16        	sty	$16                     ; 0x16 <__rc6>
    5091: a0 05        	ldy	#$5
    5093: 85 17        	sta	$17                     ; 0x17 <__rc7>
    5095: b1 12        	lda	($12),y                 ; 0x12 <__rc2>
    5097: aa           	tax
    5098: a5 12        	lda	$12                     ; 0x12 <__rc2>
    509a: 69 03        	adc	#$3
    509c: 85 14        	sta	$14                     ; 0x14 <__rc4>
    509e: a5 15        	lda	$15                     ; 0x15 <__rc5>
    50a0: 69 00        	adc	#$0
    50a2: 85 15        	sta	$15                     ; 0x15 <__rc5>
    50a4: a0 01        	ldy	#$1
    50a6: b1 16        	lda	($16),y                 ; 0x16 <__rc6>
    50a8: d1 14        	cmp	($14),y                 ; 0x14 <__rc4>
    50aa: d0 11        	bne	$50bd <_ZN12_GLOBAL__N_13putEcP6Status+0x3f>
    50ac: a0 03        	ldy	#$3
    50ae: 85 17        	sta	$17                     ; 0x17 <__rc7>
    50b0: b1 12        	lda	($12),y                 ; 0x12 <__rc2>
    50b2: 85 14        	sta	$14                     ; 0x14 <__rc4>
    50b4: 86 16        	stx	$16                     ; 0x16 <__rc6>
    50b6: e4 14        	cpx	$14                     ; 0x14 <__rc4>
    50b8: 90 0e        	bcc	$50c8 <_ZN12_GLOBAL__N_13putEcP6Status+0x4a>
    50ba: 4c 31 51     	jmp	$5131 <_ZN12_GLOBAL__N_13putEcP6Status+0xb3>
    50bd: 86 16        	stx	$16                     ; 0x16 <__rc6>
    50bf: d1 14        	cmp	($14),y                 ; 0x14 <__rc4>
    50c1: 85 17        	sta	$17                     ; 0x17 <__rc7>
    50c3: 90 03        	bcc	$50c8 <_ZN12_GLOBAL__N_13putEcP6Status+0x4a>
    50c5: 4c 31 51     	jmp	$5131 <_ZN12_GLOBAL__N_13putEcP6Status+0xb3>
    50c8: a5 12        	lda	$12                     ; 0x12 <__rc2>
    50ca: 18           	clc
    50cb: 69 0f        	adc	#$f
    50cd: 85 14        	sta	$14                     ; 0x14 <__rc4>
    50cf: a5 13        	lda	$13                     ; 0x13 <__rc3>
    50d1: 69 00        	adc	#$0
    50d3: 85 15        	sta	$15                     ; 0x15 <__rc5>
    50d5: a0 01        	ldy	#$1
    50d7: b1 14        	lda	($14),y                 ; 0x14 <__rc4>
    50d9: a2 00        	ldx	#$0
    50db: 86 14        	stx	$14                     ; 0x14 <__rc4>
    50dd: a2 00        	ldx	#$0
    50df: 86 15        	stx	$15                     ; 0x15 <__rc5>
    50e1: c5 15        	cmp	$15                     ; 0x15 <__rc5>
    50e3: d0 2d        	bne	$5112 <_ZN12_GLOBAL__N_13putEcP6Status+0x94>
    50e5: a0 0f        	ldy	#$f
    50e7: b1 12        	lda	($12),y                 ; 0x12 <__rc2>
    50e9: c5 14        	cmp	$14                     ; 0x14 <__rc4>
    50eb: d0 25        	bne	$5112 <_ZN12_GLOBAL__N_13putEcP6Status+0x94>
    50ed: a5 12        	lda	$12                     ; 0x12 <__rc2>
    50ef: 18           	clc
    50f0: 69 09        	adc	#$9
    50f2: 85 14        	sta	$14                     ; 0x14 <__rc4>
    50f4: a5 13        	lda	$13                     ; 0x13 <__rc3>
    50f6: 69 00        	adc	#$0
    50f8: a0 09        	ldy	#$9
    50fa: 85 15        	sta	$15                     ; 0x15 <__rc5>
    50fc: 18           	clc
    50fd: a5 16        	lda	$16                     ; 0x16 <__rc6>
    50ff: 71 12        	adc	($12),y                 ; 0x12 <__rc2>
    5101: aa           	tax
    5102: a0 01        	ldy	#$1
    5104: a5 17        	lda	$17                     ; 0x17 <__rc7>
    5106: 71 14        	adc	($14),y                 ; 0x14 <__rc4>
    5108: 86 14        	stx	$14                     ; 0x14 <__rc4>
    510a: 85 15        	sta	$15                     ; 0x15 <__rc5>
    510c: a5 18        	lda	$18                     ; 0x18 <__rc8>
    510e: 92 14        	sta	($14)                   ; 0x14 <__rc4>
    5110: 80 1f        	bra	$5131 <_ZN12_GLOBAL__N_13putEcP6Status+0xb3>
    5112: a6 12        	ldx	$12                     ; 0x12 <__rc2>
    5114: 86 eb        	stx	$eb                     ; 0xeb <__zp_bss_size+0x91>
    5116: a6 13        	ldx	$13                     ; 0x13 <__rc3>
    5118: 86 ec        	stx	$ec                     ; 0xec <__zp_bss_size+0x92>
    511a: a5 18        	lda	$18                     ; 0x18 <__rc8>
    511c: 85 35        	sta	$35                     ; 0x35 <__putchar.s>
    511e: a2 35        	ldx	#$35
    5120: 86 12        	stx	$12                     ; 0x12 <__rc2>
    5122: a2 00        	ldx	#$0
    5124: 86 13        	stx	$13                     ; 0x13 <__rc3>
    5126: 20 ae 2f     	jsr	$2fae <textPrint>
    5129: a6 eb        	ldx	$eb                     ; 0xeb <__zp_bss_size+0x91>
    512b: 86 12        	stx	$12                     ; 0x12 <__rc2>
    512d: a6 ec        	ldx	$ec                     ; 0xec <__zp_bss_size+0x92>
    512f: 86 13        	stx	$13                     ; 0x13 <__rc3>
    5131: a0 05        	ldy	#$5
    5133: a5 12        	lda	$12                     ; 0x12 <__rc2>
    5135: 18           	clc
    5136: 69 05        	adc	#$5
    5138: 85 14        	sta	$14                     ; 0x14 <__rc4>
    513a: a5 13        	lda	$13                     ; 0x13 <__rc3>
    513c: 69 00        	adc	#$0
    513e: 85 15        	sta	$15                     ; 0x15 <__rc5>
    5140: b1 12        	lda	($12),y                 ; 0x12 <__rc2>
    5142: aa           	tax
    5143: a0 01        	ldy	#$1
    5145: b1 14        	lda	($14),y                 ; 0x14 <__rc4>
    5147: e8           	inx
    5148: d0 01        	bne	$514b <_ZN12_GLOBAL__N_13putEcP6Status+0xcd>
    514a: 1a           	inc
    514b: 85 16        	sta	$16                     ; 0x16 <__rc6>
    514d: 8a           	txa
    514e: a0 05        	ldy	#$5
    5150: 91 12        	sta	($12),y                 ; 0x12 <__rc2>
    5152: a0 01        	ldy	#$1
    5154: a5 16        	lda	$16                     ; 0x16 <__rc6>
    5156: 91 14        	sta	($14),y                 ; 0x14 <__rc4>
    5158: 60           	rts

00005159 <_ZN12_GLOBAL__N_112print_stringEPKcP6Status>:
    5159: a6 12        	ldx	$12                     ; 0x12 <__rc2>
    515b: 86 e3        	stx	$e3                     ; 0xe3 <__zp_bss_size+0x89>
    515d: a6 13        	ldx	$13                     ; 0x13 <__rc3>
    515f: 86 e4        	stx	$e4                     ; 0xe4 <__zp_bss_size+0x8a>
    5161: a6 14        	ldx	$14                     ; 0x14 <__rc4>
    5163: 86 e5        	stx	$e5                     ; 0xe5 <__zp_bss_size+0x8b>
    5165: a6 15        	ldx	$15                     ; 0x15 <__rc5>
    5167: 86 e6        	stx	$e6                     ; 0xe6 <__zp_bss_size+0x8c>
    5169: a5 e5        	lda	$e5                     ; 0xe5 <__zp_bss_size+0x8b>
    516b: 18           	clc
    516c: 69 0d        	adc	#$d
    516e: 85 12        	sta	$12                     ; 0x12 <__rc2>
    5170: a5 e6        	lda	$e6                     ; 0xe6 <__zp_bss_size+0x8c>
    5172: 69 00        	adc	#$0
    5174: 85 13        	sta	$13                     ; 0x13 <__rc3>
    5176: a0 01        	ldy	#$1
    5178: b1 12        	lda	($12),y                 ; 0x12 <__rc2>
    517a: 30 16        	bmi	$5192 <_ZN12_GLOBAL__N_112print_stringEPKcP6Status+0x39>
    517c: a0 0d        	ldy	#$d
    517e: 85 12        	sta	$12                     ; 0x12 <__rc2>
    5180: b1 e5        	lda	($e5),y                 ; 0xe5 <__zp_bss_size+0x8b>
    5182: a6 12        	ldx	$12                     ; 0x12 <__rc2>
    5184: 86 ea        	stx	$ea                     ; 0xea <__zp_bss_size+0x90>
    5186: d0 0f        	bne	$5197 <_ZN12_GLOBAL__N_112print_stringEPKcP6Status+0x3e>
    5188: aa           	tax
    5189: d0 0c        	bne	$5197 <_ZN12_GLOBAL__N_112print_stringEPKcP6Status+0x3e>
    518b: 64 e7        	stz	$e7                     ; 0xe7 <__zp_bss_size+0x8d>
    518d: a2 00        	ldx	#$0
    518f: 4c 60 52     	jmp	$5260 <_ZN12_GLOBAL__N_112print_stringEPKcP6Status+0x107>
    5192: a9 ff        	lda	#$ff
    5194: aa           	tax
    5195: 86 ea        	stx	$ea                     ; 0xea <__zp_bss_size+0x90>
    5197: 85 e7        	sta	$e7                     ; 0xe7 <__zp_bss_size+0x8d>
    5199: 64 12        	stz	$12                     ; 0x12 <__rc2>
    519b: a4 e3        	ldy	$e3                     ; 0xe3 <__zp_bss_size+0x89>
    519d: a6 e4        	ldx	$e4                     ; 0xe4 <__zp_bss_size+0x8a>
    519f: 86 16        	stx	$16                     ; 0x16 <__rc6>
    51a1: 64 13        	stz	$13                     ; 0x13 <__rc3>
    51a3: 98           	tya
    51a4: 18           	clc
    51a5: 65 12        	adc	$12                     ; 0x12 <__rc2>
    51a7: 85 14        	sta	$14                     ; 0x14 <__rc4>
    51a9: a5 e4        	lda	$e4                     ; 0xe4 <__zp_bss_size+0x8a>
    51ab: 65 13        	adc	$13                     ; 0x13 <__rc3>
    51ad: 85 15        	sta	$15                     ; 0x15 <__rc5>
    51af: b2 14        	lda	($14)                   ; 0x14 <__rc4>
    51b1: d0 03        	bne	$51b6 <_ZN12_GLOBAL__N_112print_stringEPKcP6Status+0x5d>
    51b3: 4c 5a 52     	jmp	$525a <_ZN12_GLOBAL__N_112print_stringEPKcP6Status+0x101>
    51b6: e6 12        	inc	$12                     ; 0x12 <__rc2>
    51b8: d0 02        	bne	$51bc <_ZN12_GLOBAL__N_112print_stringEPKcP6Status+0x63>
    51ba: e6 13        	inc	$13                     ; 0x13 <__rc3>
    51bc: a6 ea        	ldx	$ea                     ; 0xea <__zp_bss_size+0x90>
    51be: e4 13        	cpx	$13                     ; 0x13 <__rc3>
    51c0: d0 e1        	bne	$51a3 <_ZN12_GLOBAL__N_112print_stringEPKcP6Status+0x4a>
    51c2: a6 e7        	ldx	$e7                     ; 0xe7 <__zp_bss_size+0x8d>
    51c4: e4 12        	cpx	$12                     ; 0x12 <__rc2>
    51c6: d0 db        	bne	$51a3 <_ZN12_GLOBAL__N_112print_stringEPKcP6Status+0x4a>
    51c8: a0 01        	ldy	#$1
    51ca: b1 e5        	lda	($e5),y                 ; 0xe5 <__zp_bss_size+0x8b>
    51cc: 29 01        	and	#$1
    51ce: f0 03        	beq	$51d3 <_ZN12_GLOBAL__N_112print_stringEPKcP6Status+0x7a>
    51d0: 4c 2b 52     	jmp	$522b <_ZN12_GLOBAL__N_112print_stringEPKcP6Status+0xd2>
    51d3: a5 e5        	lda	$e5                     ; 0xe5 <__zp_bss_size+0x8b>
    51d5: 18           	clc
    51d6: 69 0b        	adc	#$b
    51d8: 85 14        	sta	$14                     ; 0x14 <__rc4>
    51da: a5 e6        	lda	$e6                     ; 0xe6 <__zp_bss_size+0x8c>
    51dc: 69 00        	adc	#$0
    51de: 85 15        	sta	$15                     ; 0x15 <__rc5>
    51e0: a0 0b        	ldy	#$b
    51e2: b1 e5        	lda	($e5),y                 ; 0xe5 <__zp_bss_size+0x8b>
    51e4: 85 13        	sta	$13                     ; 0x13 <__rc3>
    51e6: a0 01        	ldy	#$1
    51e8: b1 14        	lda	($14),y                 ; 0x14 <__rc4>
    51ea: 85 12        	sta	$12                     ; 0x12 <__rc2>
    51ec: a6 ea        	ldx	$ea                     ; 0xea <__zp_bss_size+0x90>
    51ee: e4 12        	cpx	$12                     ; 0x12 <__rc2>
    51f0: d0 08        	bne	$51fa <_ZN12_GLOBAL__N_112print_stringEPKcP6Status+0xa1>
    51f2: a6 e7        	ldx	$e7                     ; 0xe7 <__zp_bss_size+0x8d>
    51f4: e4 13        	cpx	$13                     ; 0x13 <__rc3>
    51f6: 90 06        	bcc	$51fe <_ZN12_GLOBAL__N_112print_stringEPKcP6Status+0xa5>
    51f8: 80 31        	bra	$522b <_ZN12_GLOBAL__N_112print_stringEPKcP6Status+0xd2>
    51fa: e4 12        	cpx	$12                     ; 0x12 <__rc2>
    51fc: b0 2d        	bcs	$522b <_ZN12_GLOBAL__N_112print_stringEPKcP6Status+0xd2>
    51fe: 38           	sec
    51ff: a5 e7        	lda	$e7                     ; 0xe7 <__zp_bss_size+0x8d>
    5201: e5 13        	sbc	$13                     ; 0x13 <__rc3>
    5203: a8           	tay
    5204: a5 ea        	lda	$ea                     ; 0xea <__zp_bss_size+0x90>
    5206: e5 12        	sbc	$12                     ; 0x12 <__rc2>
    5208: 85 e9        	sta	$e9                     ; 0xe9 <__zp_bss_size+0x8f>
    520a: a6 e5        	ldx	$e5                     ; 0xe5 <__zp_bss_size+0x8b>
    520c: 86 12        	stx	$12                     ; 0x12 <__rc2>
    520e: a6 e6        	ldx	$e6                     ; 0xe6 <__zp_bss_size+0x8c>
    5210: 86 13        	stx	$13                     ; 0x13 <__rc3>
    5212: 84 e8        	sty	$e8                     ; 0xe8 <__zp_bss_size+0x8e>
    5214: a9 20        	lda	#$20
    5216: 20 7e 50     	jsr	$507e <_ZN12_GLOBAL__N_13putEcP6Status>
    5219: a6 e9        	ldx	$e9                     ; 0xe9 <__zp_bss_size+0x8f>
    521b: e6 e8        	inc	$e8                     ; 0xe8 <__zp_bss_size+0x8e>
    521d: d0 01        	bne	$5220 <_ZN12_GLOBAL__N_112print_stringEPKcP6Status+0xc7>
    521f: e8           	inx
    5220: 86 e9        	stx	$e9                     ; 0xe9 <__zp_bss_size+0x8f>
    5222: a4 e8        	ldy	$e8                     ; 0xe8 <__zp_bss_size+0x8e>
    5224: 8a           	txa
    5225: d0 e3        	bne	$520a <_ZN12_GLOBAL__N_112print_stringEPKcP6Status+0xb1>
    5227: a5 e8        	lda	$e8                     ; 0xe8 <__zp_bss_size+0x8e>
    5229: d0 df        	bne	$520a <_ZN12_GLOBAL__N_112print_stringEPKcP6Status+0xb1>
    522b: a4 ea        	ldy	$ea                     ; 0xea <__zp_bss_size+0x90>
    522d: d0 04        	bne	$5233 <_ZN12_GLOBAL__N_112print_stringEPKcP6Status+0xda>
    522f: a5 e7        	lda	$e7                     ; 0xe7 <__zp_bss_size+0x8d>
    5231: f0 26        	beq	$5259 <_ZN12_GLOBAL__N_112print_stringEPKcP6Status+0x100>
    5233: a2 ff        	ldx	#$ff
    5235: c6 e7        	dec	$e7                     ; 0xe7 <__zp_bss_size+0x8d>
    5237: e4 e7        	cpx	$e7                     ; 0xe7 <__zp_bss_size+0x8d>
    5239: d0 01        	bne	$523c <_ZN12_GLOBAL__N_112print_stringEPKcP6Status+0xe3>
    523b: 88           	dey
    523c: 84 e8        	sty	$e8                     ; 0xe8 <__zp_bss_size+0x8e>
    523e: b2 e3        	lda	($e3)                   ; 0xe3 <__zp_bss_size+0x89>
    5240: e6 e3        	inc	$e3                     ; 0xe3 <__zp_bss_size+0x89>
    5242: d0 02        	bne	$5246 <_ZN12_GLOBAL__N_112print_stringEPKcP6Status+0xed>
    5244: e6 e4        	inc	$e4                     ; 0xe4 <__zp_bss_size+0x8a>
    5246: a6 e5        	ldx	$e5                     ; 0xe5 <__zp_bss_size+0x8b>
    5248: 86 12        	stx	$12                     ; 0x12 <__rc2>
    524a: a6 e6        	ldx	$e6                     ; 0xe6 <__zp_bss_size+0x8c>
    524c: 86 13        	stx	$13                     ; 0x13 <__rc3>
    524e: 20 7e 50     	jsr	$507e <_ZN12_GLOBAL__N_13putEcP6Status>
    5251: a4 e8        	ldy	$e8                     ; 0xe8 <__zp_bss_size+0x8e>
    5253: d0 de        	bne	$5233 <_ZN12_GLOBAL__N_112print_stringEPKcP6Status+0xda>
    5255: a5 e7        	lda	$e7                     ; 0xe7 <__zp_bss_size+0x8d>
    5257: d0 da        	bne	$5233 <_ZN12_GLOBAL__N_112print_stringEPKcP6Status+0xda>
    5259: 60           	rts
    525a: a6 12        	ldx	$12                     ; 0x12 <__rc2>
    525c: 86 e7        	stx	$e7                     ; 0xe7 <__zp_bss_size+0x8d>
    525e: a6 13        	ldx	$13                     ; 0x13 <__rc3>
    5260: 86 ea        	stx	$ea                     ; 0xea <__zp_bss_size+0x90>
    5262: 4c c8 51     	jmp	$51c8 <_ZN12_GLOBAL__N_112print_stringEPKcP6Status+0x6f>

00005265 <printf>:
    5265: a6 12        	ldx	$12                     ; 0x12 <__rc2>
    5267: 86 98        	stx	$98                     ; 0x98 <__zp_bss_size+0x3e>
    5269: a6 13        	ldx	$13                     ; 0x13 <__rc3>
    526b: 86 99        	stx	$99                     ; 0x99 <__zp_bss_size+0x3f>
    526d: 18           	clc
    526e: a6 10        	ldx	$10                     ; 0x10 <__rc0>
    5270: a4 11        	ldy	$11                     ; 0x11 <__rc1>
    5272: 86 d9        	stx	$d9                     ; 0xd9 <__zp_bss_size+0x7f>
    5274: 84 da        	sty	$da                     ; 0xda <__zp_bss_size+0x80>
    5276: a6 d9        	ldx	$d9                     ; 0xd9 <__zp_bss_size+0x7f>
    5278: a4 da        	ldy	$da                     ; 0xda <__zp_bss_size+0x80>
    527a: 86 c4        	stx	$c4                     ; 0xc4 <__zp_bss_size+0x6a>
    527c: 84 c5        	sty	$c5                     ; 0xc5 <__zp_bss_size+0x6b>
    527e: a2 ff        	ldx	#$ff
    5280: 86 c9        	stx	$c9                     ; 0xc9 <__zp_bss_size+0x6f>
    5282: 86 ca        	stx	$ca                     ; 0xca <__zp_bss_size+0x70>
    5284: 64 cb        	stz	$cb                     ; 0xcb <__zp_bss_size+0x71>
    5286: 64 cc        	stz	$cc                     ; 0xcc <__zp_bss_size+0x72>
    5288: e8           	inx
    5289: 86 9a        	stx	$9a                     ; 0x9a <__zp_bss_size+0x40>
    528b: a2 00        	ldx	#$0
    528d: 86 9b        	stx	$9b                     ; 0x9b <__zp_bss_size+0x41>
    528f: a6 9a        	ldx	$9a                     ; 0x9a <__zp_bss_size+0x40>
    5291: a4 9b        	ldy	$9b                     ; 0x9b <__zp_bss_size+0x41>
    5293: 86 cf        	stx	$cf                     ; 0xcf <__zp_bss_size+0x75>
    5295: 84 d0        	sty	$d0                     ; 0xd0 <__zp_bss_size+0x76>
    5297: a2 02        	ldx	#$2
    5299: 86 d5        	stx	$d5                     ; 0xd5 <__zp_bss_size+0x7b>
    529b: 64 d6        	stz	$d6                     ; 0xd6 <__zp_bss_size+0x7c>
    529d: a6 c4        	ldx	$c4                     ; 0xc4 <__zp_bss_size+0x6a>
    529f: a4 c5        	ldy	$c5                     ; 0xc5 <__zp_bss_size+0x6b>
    52a1: 86 d7        	stx	$d7                     ; 0xd7 <__zp_bss_size+0x7d>
    52a3: 84 d8        	sty	$d8                     ; 0xd8 <__zp_bss_size+0x7e>
    52a5: a2 bb        	ldx	#$bb
    52a7: a0 00        	ldy	#$0
    52a9: 86 12        	stx	$12                     ; 0x12 <__rc2>
    52ab: 84 13        	sty	$13                     ; 0x13 <__rc3>
    52ad: a0 01        	ldy	#$1
    52af: a9 a2        	lda	#$a2
    52b1: 18           	clc
    52b2: 69 02        	adc	#$2
    52b4: 85 e1        	sta	$e1                     ; 0xe1 <__zp_bss_size+0x87>
    52b6: a9 00        	lda	#$0
    52b8: 69 00        	adc	#$0
    52ba: 85 e2        	sta	$e2                     ; 0xe2 <__zp_bss_size+0x88>
    52bc: e6 12        	inc	$12                     ; 0x12 <__rc2>
    52be: d0 02        	bne	$52c2 <printf+0x5d>
    52c0: e6 13        	inc	$13                     ; 0x13 <__rc3>
    52c2: a6 12        	ldx	$12                     ; 0x12 <__rc2>
    52c4: 86 dd        	stx	$dd                     ; 0xdd <__zp_bss_size+0x83>
    52c6: a6 13        	ldx	$13                     ; 0x13 <__rc3>
    52c8: 86 de        	stx	$de                     ; 0xde <__zp_bss_size+0x84>
    52ca: a6 98        	ldx	$98                     ; 0x98 <__zp_bss_size+0x3e>
    52cc: 86 9c        	stx	$9c                     ; 0x9c <__zp_bss_size+0x42>
    52ce: a6 99        	ldx	$99                     ; 0x99 <__zp_bss_size+0x3f>
    52d0: 86 9d        	stx	$9d                     ; 0x9d <__zp_bss_size+0x43>
    52d2: b2 98        	lda	($98)                   ; 0x98 <__zp_bss_size+0x3e>
    52d4: c9 25        	cmp	#$25
    52d6: f0 2b        	beq	$5303 <printf+0x9e>
    52d8: aa           	tax
    52d9: d0 03        	bne	$52de <printf+0x79>
    52db: 4c 90 5e     	jmp	$5e90 <printf+0xc2b>
    52de: 85 35        	sta	$35                     ; 0x35 <__putchar.s>
    52e0: a2 35        	ldx	#$35
    52e2: 86 12        	stx	$12                     ; 0x12 <__rc2>
    52e4: a2 00        	ldx	#$0
    52e6: 86 13        	stx	$13                     ; 0x13 <__rc3>
    52e8: 20 ae 2f     	jsr	$2fae <textPrint>
    52eb: a0 01        	ldy	#$1
    52ed: e6 9c        	inc	$9c                     ; 0x9c <__zp_bss_size+0x42>
    52ef: d0 02        	bne	$52f3 <printf+0x8e>
    52f1: e6 9d        	inc	$9d                     ; 0x9d <__zp_bss_size+0x43>
    52f3: e6 cb        	inc	$cb                     ; 0xcb <__zp_bss_size+0x71>
    52f5: d0 02        	bne	$52f9 <printf+0x94>
    52f7: e6 cc        	inc	$cc                     ; 0xcc <__zp_bss_size+0x72>
    52f9: a6 9c        	ldx	$9c                     ; 0x9c <__zp_bss_size+0x42>
    52fb: 86 98        	stx	$98                     ; 0x98 <__zp_bss_size+0x3e>
    52fd: a6 9d        	ldx	$9d                     ; 0x9d <__zp_bss_size+0x43>
    52ff: 86 99        	stx	$99                     ; 0x99 <__zp_bss_size+0x3f>
    5301: 80 c7        	bra	$52ca <printf+0x65>
    5303: a6 98        	ldx	$98                     ; 0x98 <__zp_bss_size+0x3e>
    5305: 86 12        	stx	$12                     ; 0x12 <__rc2>
    5307: a6 99        	ldx	$99                     ; 0x99 <__zp_bss_size+0x3f>
    5309: 86 13        	stx	$13                     ; 0x13 <__rc3>
    530b: e6 12        	inc	$12                     ; 0x12 <__rc2>
    530d: d0 02        	bne	$5311 <printf+0xac>
    530f: e6 13        	inc	$13                     ; 0x13 <__rc3>
    5311: b1 9c        	lda	($9c),y                 ; 0x9c <__zp_bss_size+0x42>
    5313: c9 25        	cmp	#$25
    5315: d0 16        	bne	$532d <printf+0xc8>
    5317: a4 cb        	ldy	$cb                     ; 0xcb <__zp_bss_size+0x71>
    5319: a5 cc        	lda	$cc                     ; 0xcc <__zp_bss_size+0x72>
    531b: c5 ca        	cmp	$ca                     ; 0xca <__zp_bss_size+0x70>
    531d: f0 03        	beq	$5322 <printf+0xbd>
    531f: 4c 34 54     	jmp	$5434 <printf+0x1cf>
    5322: a6 c9        	ldx	$c9                     ; 0xc9 <__zp_bss_size+0x6f>
    5324: 86 12        	stx	$12                     ; 0x12 <__rc2>
    5326: 84 13        	sty	$13                     ; 0x13 <__rc3>
    5328: c4 12        	cpy	$12                     ; 0x12 <__rc2>
    532a: 4c 38 54     	jmp	$5438 <printf+0x1d3>
    532d: 64 c7        	stz	$c7                     ; 0xc7 <__zp_bss_size+0x6d>
    532f: 64 c8        	stz	$c8                     ; 0xc8 <__zp_bss_size+0x6e>
    5331: 64 c6        	stz	$c6                     ; 0xc6 <__zp_bss_size+0x6c>
    5333: 64 d1        	stz	$d1                     ; 0xd1 <__zp_bss_size+0x77>
    5335: 64 d2        	stz	$d2                     ; 0xd2 <__zp_bss_size+0x78>
    5337: a2 ff        	ldx	#$ff
    5339: 86 d3        	stx	$d3                     ; 0xd3 <__zp_bss_size+0x79>
    533b: 86 d4        	stx	$d4                     ; 0xd4 <__zp_bss_size+0x7a>
    533d: 64 97        	stz	$97                     ; 0x97 <__zp_bss_size+0x3d>
    533f: 80 33        	bra	$5374 <printf+0x10f>
    5341: a2 02        	ldx	#$2
    5343: 80 15        	bra	$535a <printf+0xf5>
    5345: e0 20        	cpx	#$20
    5347: f0 15        	beq	$535e <printf+0xf9>
    5349: 86 15        	stx	$15                     ; 0x15 <__rc5>
    534b: e0 23        	cpx	#$23
    534d: f0 03        	beq	$5352 <printf+0xed>
    534f: 4c d1 53     	jmp	$53d1 <printf+0x16c>
    5352: a5 97        	lda	$97                     ; 0x97 <__zp_bss_size+0x3d>
    5354: a2 04        	ldx	#$4
    5356: 80 02        	bra	$535a <printf+0xf5>
    5358: a2 10        	ldx	#$10
    535a: 86 14        	stx	$14                     ; 0x14 <__rc4>
    535c: 80 06        	bra	$5364 <printf+0xff>
    535e: a2 08        	ldx	#$8
    5360: 86 14        	stx	$14                     ; 0x14 <__rc4>
    5362: a5 97        	lda	$97                     ; 0x97 <__zp_bss_size+0x3d>
    5364: 05 14        	ora	$14                     ; 0x14 <__rc4>
    5366: 85 97        	sta	$97                     ; 0x97 <__zp_bss_size+0x3d>
    5368: 85 c7        	sta	$c7                     ; 0xc7 <__zp_bss_size+0x6d>
    536a: a2 00        	ldx	#$0
    536c: 86 c8        	stx	$c8                     ; 0xc8 <__zp_bss_size+0x6e>
    536e: e6 12        	inc	$12                     ; 0x12 <__rc2>
    5370: d0 02        	bne	$5374 <printf+0x10f>
    5372: e6 13        	inc	$13                     ; 0x13 <__rc3>
    5374: b2 12        	lda	($12)                   ; 0x12 <__rc2>
    5376: aa           	tax
    5377: 18           	clc
    5378: 69 d6        	adc	#$d6
    537a: c9 07        	cmp	#$7
    537c: b0 c7        	bcs	$5345 <printf+0xe0>
    537e: 86 15        	stx	$15                     ; 0x15 <__rc5>
    5380: 0a           	asl
    5381: aa           	tax
    5382: a0 01        	ldy	#$1
    5384: 84 14        	sty	$14                     ; 0x14 <__rc4>
    5386: a5 97        	lda	$97                     ; 0x97 <__zp_bss_size+0x3d>
    5388: 7c c9 75     	jmp	($75c9,x)               ; 0x75c9 <__set_v+0x29>
    538b: a5 d7        	lda	$d7                     ; 0xd7 <__zp_bss_size+0x7d>
    538d: a6 d8        	ldx	$d8                     ; 0xd8 <__zp_bss_size+0x7e>
    538f: 85 16        	sta	$16                     ; 0x16 <__rc6>
    5391: 86 17        	stx	$17                     ; 0x17 <__rc7>
    5393: 18           	clc
    5394: 69 02        	adc	#$2
    5396: a8           	tay
    5397: 8a           	txa
    5398: 69 00        	adc	#$0
    539a: 84 d7        	sty	$d7                     ; 0xd7 <__zp_bss_size+0x7d>
    539c: 85 d8        	sta	$d8                     ; 0xd8 <__zp_bss_size+0x7e>
    539e: b2 16        	lda	($16)                   ; 0x16 <__rc6>
    53a0: 85 15        	sta	$15                     ; 0x15 <__rc5>
    53a2: a0 01        	ldy	#$1
    53a4: b1 16        	lda	($16),y                 ; 0x16 <__rc6>
    53a6: 85 14        	sta	$14                     ; 0x14 <__rc4>
    53a8: 10 15        	bpl	$53bf <printf+0x15a>
    53aa: a5 97        	lda	$97                     ; 0x97 <__zp_bss_size+0x3d>
    53ac: 09 01        	ora	#$1
    53ae: 85 97        	sta	$97                     ; 0x97 <__zp_bss_size+0x3d>
    53b0: 85 c7        	sta	$c7                     ; 0xc7 <__zp_bss_size+0x6d>
    53b2: a2 00        	ldx	#$0
    53b4: 86 c8        	stx	$c8                     ; 0xc8 <__zp_bss_size+0x6e>
    53b6: 8a           	txa
    53b7: 38           	sec
    53b8: e5 15        	sbc	$15                     ; 0x15 <__rc5>
    53ba: 85 15        	sta	$15                     ; 0x15 <__rc5>
    53bc: 8a           	txa
    53bd: e5 14        	sbc	$14                     ; 0x14 <__rc4>
    53bf: a6 15        	ldx	$15                     ; 0x15 <__rc5>
    53c1: 86 d1        	stx	$d1                     ; 0xd1 <__zp_bss_size+0x77>
    53c3: 85 d2        	sta	$d2                     ; 0xd2 <__zp_bss_size+0x78>
    53c5: e6 12        	inc	$12                     ; 0x12 <__rc2>
    53c7: f0 03        	beq	$53cc <printf+0x167>
    53c9: 4c 90 54     	jmp	$5490 <printf+0x22b>
    53cc: e6 13        	inc	$13                     ; 0x13 <__rc3>
    53ce: 4c 90 54     	jmp	$5490 <printf+0x22b>
    53d1: a5 15        	lda	$15                     ; 0x15 <__rc5>
    53d3: 18           	clc
    53d4: 69 d0        	adc	#$d0
    53d6: c9 0a        	cmp	#$a
    53d8: 90 03        	bcc	$53dd <printf+0x178>
    53da: 4c 82 54     	jmp	$5482 <printf+0x21d>
    53dd: a6 15        	ldx	$15                     ; 0x15 <__rc5>
    53df: 86 14        	stx	$14                     ; 0x14 <__rc4>
    53e1: 64 16        	stz	$16                     ; 0x16 <__rc6>
    53e3: 64 15        	stz	$15                     ; 0x15 <__rc5>
    53e5: 64 17        	stz	$17                     ; 0x17 <__rc7>
    53e7: a0 01        	ldy	#$1
    53e9: 06 16        	asl	$16                     ; 0x16 <__rc6>
    53eb: 26 17        	rol	$17                     ; 0x17 <__rc7>
    53ed: a5 16        	lda	$16                     ; 0x16 <__rc6>
    53ef: 0a           	asl
    53f0: aa           	tax
    53f1: a5 17        	lda	$17                     ; 0x17 <__rc7>
    53f3: 2a           	rol
    53f4: 86 18        	stx	$18                     ; 0x18 <__rc8>
    53f6: 06 18        	asl	$18                     ; 0x18 <__rc8>
    53f8: 2a           	rol
    53f9: aa           	tax
    53fa: a5 18        	lda	$18                     ; 0x18 <__rc8>
    53fc: 18           	clc
    53fd: 65 16        	adc	$16                     ; 0x16 <__rc6>
    53ff: 85 16        	sta	$16                     ; 0x16 <__rc6>
    5401: 8a           	txa
    5402: 65 17        	adc	$17                     ; 0x17 <__rc7>
    5404: 85 17        	sta	$17                     ; 0x17 <__rc7>
    5406: a5 16        	lda	$16                     ; 0x16 <__rc6>
    5408: 18           	clc
    5409: 65 14        	adc	$14                     ; 0x14 <__rc4>
    540b: 85 14        	sta	$14                     ; 0x14 <__rc4>
    540d: a5 17        	lda	$17                     ; 0x17 <__rc7>
    540f: 65 15        	adc	$15                     ; 0x15 <__rc5>
    5411: aa           	tax
    5412: 18           	clc
    5413: a5 14        	lda	$14                     ; 0x14 <__rc4>
    5415: 69 d0        	adc	#$d0
    5417: 85 16        	sta	$16                     ; 0x16 <__rc6>
    5419: 8a           	txa
    541a: 69 ff        	adc	#$ff
    541c: 85 17        	sta	$17                     ; 0x17 <__rc7>
    541e: b1 12        	lda	($12),y                 ; 0x12 <__rc2>
    5420: 85 14        	sta	$14                     ; 0x14 <__rc4>
    5422: 18           	clc
    5423: 69 d0        	adc	#$d0
    5425: e6 12        	inc	$12                     ; 0x12 <__rc2>
    5427: d0 02        	bne	$542b <printf+0x1c6>
    5429: e6 13        	inc	$13                     ; 0x13 <__rc3>
    542b: c9 0a        	cmp	#$a
    542d: 64 15        	stz	$15                     ; 0x15 <__rc5>
    542f: 90 b8        	bcc	$53e9 <printf+0x184>
    5431: 4c 88 54     	jmp	$5488 <printf+0x223>
    5434: 84 13        	sty	$13                     ; 0x13 <__rc3>
    5436: c5 ca        	cmp	$ca                     ; 0xca <__zp_bss_size+0x70>
    5438: a0 01        	ldy	#$1
    543a: b0 30        	bcs	$546c <printf+0x207>
    543c: a6 d6        	ldx	$d6                     ; 0xd6 <__zp_bss_size+0x7c>
    543e: e4 9b        	cpx	$9b                     ; 0x9b <__zp_bss_size+0x41>
    5440: d0 19        	bne	$545b <printf+0x1f6>
    5442: a6 d5        	ldx	$d5                     ; 0xd5 <__zp_bss_size+0x7b>
    5444: e4 9a        	cpx	$9a                     ; 0x9a <__zp_bss_size+0x40>
    5446: d0 13        	bne	$545b <printf+0x1f6>
    5448: 18           	clc
    5449: aa           	tax
    544a: a5 13        	lda	$13                     ; 0x13 <__rc3>
    544c: 65 cf        	adc	$cf                     ; 0xcf <__zp_bss_size+0x75>
    544e: 85 12        	sta	$12                     ; 0x12 <__rc2>
    5450: 8a           	txa
    5451: 65 d0        	adc	$d0                     ; 0xd0 <__zp_bss_size+0x76>
    5453: 85 13        	sta	$13                     ; 0x13 <__rc3>
    5455: a9 25        	lda	#$25
    5457: 92 12        	sta	($12)                   ; 0x12 <__rc2>
    5459: 80 11        	bra	$546c <printf+0x207>
    545b: a2 25        	ldx	#$25
    545d: 86 35        	stx	$35                     ; 0x35 <__putchar.s>
    545f: a2 35        	ldx	#$35
    5461: 86 12        	stx	$12                     ; 0x12 <__rc2>
    5463: a2 00        	ldx	#$0
    5465: 86 13        	stx	$13                     ; 0x13 <__rc3>
    5467: 20 ae 2f     	jsr	$2fae <textPrint>
    546a: a0 01        	ldy	#$1
    546c: e6 cb        	inc	$cb                     ; 0xcb <__zp_bss_size+0x71>
    546e: d0 02        	bne	$5472 <printf+0x20d>
    5470: e6 cc        	inc	$cc                     ; 0xcc <__zp_bss_size+0x72>
    5472: a5 9c        	lda	$9c                     ; 0x9c <__zp_bss_size+0x42>
    5474: 18           	clc
    5475: 69 02        	adc	#$2
    5477: 85 98        	sta	$98                     ; 0x98 <__zp_bss_size+0x3e>
    5479: a5 9d        	lda	$9d                     ; 0x9d <__zp_bss_size+0x43>
    547b: 69 00        	adc	#$0
    547d: 85 99        	sta	$99                     ; 0x99 <__zp_bss_size+0x3f>
    547f: 4c ca 52     	jmp	$52ca <printf+0x65>
    5482: 64 16        	stz	$16                     ; 0x16 <__rc6>
    5484: 64 17        	stz	$17                     ; 0x17 <__rc7>
    5486: a0 01        	ldy	#$1
    5488: a6 16        	ldx	$16                     ; 0x16 <__rc6>
    548a: 86 d1        	stx	$d1                     ; 0xd1 <__zp_bss_size+0x77>
    548c: a5 17        	lda	$17                     ; 0x17 <__rc7>
    548e: 85 d2        	sta	$d2                     ; 0xd2 <__zp_bss_size+0x78>
    5490: 86 a0        	stx	$a0                     ; 0xa0 <__zp_bss_size+0x46>
    5492: 85 9e        	sta	$9e                     ; 0x9e <__zp_bss_size+0x44>
    5494: b2 12        	lda	($12)                   ; 0x12 <__rc2>
    5496: a2 ff        	ldx	#$ff
    5498: c9 2e        	cmp	#$2e
    549a: d0 39        	bne	$54d5 <printf+0x270>
    549c: b1 12        	lda	($12),y                 ; 0x12 <__rc2>
    549e: c9 2a        	cmp	#$2a
    54a0: d0 38        	bne	$54da <printf+0x275>
    54a2: a5 d7        	lda	$d7                     ; 0xd7 <__zp_bss_size+0x7d>
    54a4: a6 d8        	ldx	$d8                     ; 0xd8 <__zp_bss_size+0x7e>
    54a6: 85 14        	sta	$14                     ; 0x14 <__rc4>
    54a8: 86 15        	stx	$15                     ; 0x15 <__rc5>
    54aa: 18           	clc
    54ab: 69 02        	adc	#$2
    54ad: 85 16        	sta	$16                     ; 0x16 <__rc6>
    54af: 8a           	txa
    54b0: 69 00        	adc	#$0
    54b2: a6 16        	ldx	$16                     ; 0x16 <__rc6>
    54b4: 86 d7        	stx	$d7                     ; 0xd7 <__zp_bss_size+0x7d>
    54b6: 85 d8        	sta	$d8                     ; 0xd8 <__zp_bss_size+0x7e>
    54b8: a5 12        	lda	$12                     ; 0x12 <__rc2>
    54ba: 18           	clc
    54bb: 69 02        	adc	#$2
    54bd: 85 12        	sta	$12                     ; 0x12 <__rc2>
    54bf: a5 13        	lda	$13                     ; 0x13 <__rc3>
    54c1: 69 00        	adc	#$0
    54c3: 85 13        	sta	$13                     ; 0x13 <__rc3>
    54c5: b2 14        	lda	($14)                   ; 0x14 <__rc4>
    54c7: aa           	tax
    54c8: b1 14        	lda	($14),y                 ; 0x14 <__rc4>
    54ca: 86 18        	stx	$18                     ; 0x18 <__rc8>
    54cc: 86 d3        	stx	$d3                     ; 0xd3 <__zp_bss_size+0x79>
    54ce: 85 19        	sta	$19                     ; 0x19 <__rc9>
    54d0: 85 d4        	sta	$d4                     ; 0xd4 <__zp_bss_size+0x7a>
    54d2: 4c 85 55     	jmp	$5585 <printf+0x320>
    54d5: 86 18        	stx	$18                     ; 0x18 <__rc8>
    54d7: 4c 95 55     	jmp	$5595 <printf+0x330>
    54da: 85 17        	sta	$17                     ; 0x17 <__rc7>
    54dc: 18           	clc
    54dd: 69 d0        	adc	#$d0
    54df: c9 0a        	cmp	#$a
    54e1: 90 03        	bcc	$54e6 <printf+0x281>
    54e3: 4c 77 55     	jmp	$5577 <printf+0x312>
    54e6: 64 16        	stz	$16                     ; 0x16 <__rc6>
    54e8: a2 01        	ldx	#$1
    54ea: 64 18        	stz	$18                     ; 0x18 <__rc8>
    54ec: 64 19        	stz	$19                     ; 0x19 <__rc9>
    54ee: a0 01        	ldy	#$1
    54f0: 64 1a        	stz	$1a                     ; 0x1a <__rc10>
    54f2: 5a           	phy
    54f3: a4 1a        	ldy	$1a                     ; 0x1a <__rc10>
    54f5: 84 14        	sty	$14                     ; 0x14 <__rc4>
    54f7: 86 15        	stx	$15                     ; 0x15 <__rc5>
    54f9: 06 18        	asl	$18                     ; 0x18 <__rc8>
    54fb: 26 19        	rol	$19                     ; 0x19 <__rc9>
    54fd: a5 18        	lda	$18                     ; 0x18 <__rc8>
    54ff: 0a           	asl
    5500: 85 1d        	sta	$1d                     ; 0x1d <__rc13>
    5502: a5 19        	lda	$19                     ; 0x19 <__rc9>
    5504: 2a           	rol
    5505: 06 1d        	asl	$1d                     ; 0x1d <__rc13>
    5507: 2a           	rol
    5508: 85 1e        	sta	$1e                     ; 0x1e <__rc14>
    550a: a5 1d        	lda	$1d                     ; 0x1d <__rc13>
    550c: 18           	clc
    550d: 65 18        	adc	$18                     ; 0x18 <__rc8>
    550f: 85 18        	sta	$18                     ; 0x18 <__rc8>
    5511: a5 1e        	lda	$1e                     ; 0x1e <__rc14>
    5513: 65 19        	adc	$19                     ; 0x19 <__rc9>
    5515: 85 19        	sta	$19                     ; 0x19 <__rc9>
    5517: a5 18        	lda	$18                     ; 0x18 <__rc8>
    5519: 18           	clc
    551a: 65 17        	adc	$17                     ; 0x17 <__rc7>
    551c: 85 17        	sta	$17                     ; 0x17 <__rc7>
    551e: a5 19        	lda	$19                     ; 0x19 <__rc9>
    5520: 65 16        	adc	$16                     ; 0x16 <__rc6>
    5522: 85 16        	sta	$16                     ; 0x16 <__rc6>
    5524: 18           	clc
    5525: a5 17        	lda	$17                     ; 0x17 <__rc7>
    5527: 69 d0        	adc	#$d0
    5529: 85 18        	sta	$18                     ; 0x18 <__rc8>
    552b: a5 16        	lda	$16                     ; 0x16 <__rc6>
    552d: 69 ff        	adc	#$ff
    552f: 85 19        	sta	$19                     ; 0x19 <__rc9>
    5531: e8           	inx
    5532: d0 02        	bne	$5536 <printf+0x2d1>
    5534: e6 1a        	inc	$1a                     ; 0x1a <__rc10>
    5536: a5 12        	lda	$12                     ; 0x12 <__rc2>
    5538: 18           	clc
    5539: 65 15        	adc	$15                     ; 0x15 <__rc5>
    553b: 85 1d        	sta	$1d                     ; 0x1d <__rc13>
    553d: a5 13        	lda	$13                     ; 0x13 <__rc3>
    553f: 65 14        	adc	$14                     ; 0x14 <__rc4>
    5541: a4 1d        	ldy	$1d                     ; 0x1d <__rc13>
    5543: 84 16        	sty	$16                     ; 0x16 <__rc6>
    5545: 7a           	ply
    5546: 85 17        	sta	$17                     ; 0x17 <__rc7>
    5548: b1 16        	lda	($16),y                 ; 0x16 <__rc6>
    554a: 85 17        	sta	$17                     ; 0x17 <__rc7>
    554c: 18           	clc
    554d: 69 d0        	adc	#$d0
    554f: c9 0a        	cmp	#$a
    5551: 64 16        	stz	$16                     ; 0x16 <__rc6>
    5553: b0 03        	bcs	$5558 <printf+0x2f3>
    5555: 4c f2 54     	jmp	$54f2 <printf+0x28d>
    5558: a5 12        	lda	$12                     ; 0x12 <__rc2>
    555a: 18           	clc
    555b: 65 15        	adc	$15                     ; 0x15 <__rc5>
    555d: 85 12        	sta	$12                     ; 0x12 <__rc2>
    555f: a5 13        	lda	$13                     ; 0x13 <__rc3>
    5561: 65 14        	adc	$14                     ; 0x14 <__rc4>
    5563: 85 13        	sta	$13                     ; 0x13 <__rc3>
    5565: e6 12        	inc	$12                     ; 0x12 <__rc2>
    5567: d0 02        	bne	$556b <printf+0x306>
    5569: e6 13        	inc	$13                     ; 0x13 <__rc3>
    556b: a6 18        	ldx	$18                     ; 0x18 <__rc8>
    556d: 86 d3        	stx	$d3                     ; 0xd3 <__zp_bss_size+0x79>
    556f: a6 19        	ldx	$19                     ; 0x19 <__rc9>
    5571: 86 d4        	stx	$d4                     ; 0xd4 <__zp_bss_size+0x7a>
    5573: a0 01        	ldy	#$1
    5575: 80 0e        	bra	$5585 <printf+0x320>
    5577: e6 12        	inc	$12                     ; 0x12 <__rc2>
    5579: d0 02        	bne	$557d <printf+0x318>
    557b: e6 13        	inc	$13                     ; 0x13 <__rc3>
    557d: 64 18        	stz	$18                     ; 0x18 <__rc8>
    557f: 64 d3        	stz	$d3                     ; 0xd3 <__zp_bss_size+0x79>
    5581: 64 d4        	stz	$d4                     ; 0xd4 <__zp_bss_size+0x7a>
    5583: 64 19        	stz	$19                     ; 0x19 <__rc9>
    5585: a5 97        	lda	$97                     ; 0x97 <__zp_bss_size+0x3d>
    5587: 29 ef        	and	#$ef
    5589: 85 97        	sta	$97                     ; 0x97 <__zp_bss_size+0x3d>
    558b: 85 c7        	sta	$c7                     ; 0xc7 <__zp_bss_size+0x6d>
    558d: a2 00        	ldx	#$0
    558f: 86 c8        	stx	$c8                     ; 0xc8 <__zp_bss_size+0x6e>
    5591: b2 12        	lda	($12)                   ; 0x12 <__rc2>
    5593: a6 19        	ldx	$19                     ; 0x19 <__rc9>
    5595: 86 15        	stx	$15                     ; 0x15 <__rc5>
    5597: a6 12        	ldx	$12                     ; 0x12 <__rc2>
    5599: 86 98        	stx	$98                     ; 0x98 <__zp_bss_size+0x3e>
    559b: a6 13        	ldx	$13                     ; 0x13 <__rc3>
    559d: 86 99        	stx	$99                     ; 0x99 <__zp_bss_size+0x3f>
    559f: e6 98        	inc	$98                     ; 0x98 <__zp_bss_size+0x3e>
    55a1: d0 02        	bne	$55a5 <printf+0x340>
    55a3: e6 99        	inc	$99                     ; 0x99 <__zp_bss_size+0x3f>
    55a5: 85 14        	sta	$14                     ; 0x14 <__rc4>
    55a7: 38           	sec
    55a8: e9 6c        	sbc	#$6c
    55aa: 50 02        	bvc	$55ae <printf+0x349>
    55ac: 49 80        	eor	#$80
    55ae: aa           	tax
    55af: 10 1d        	bpl	$55ce <printf+0x369>
    55b1: a5 14        	lda	$14                     ; 0x14 <__rc4>
    55b3: c9 4c        	cmp	#$4c
    55b5: f0 27        	beq	$55de <printf+0x379>
    55b7: c9 68        	cmp	#$68
    55b9: d0 03        	bne	$55be <printf+0x359>
    55bb: 4c 45 56     	jmp	$5645 <printf+0x3e0>
    55be: a2 08        	ldx	#$8
    55c0: c9 6a        	cmp	#$6a
    55c2: d0 2e        	bne	$55f2 <printf+0x38d>
    55c4: a5 98        	lda	$98                     ; 0x98 <__zp_bss_size+0x3e>
    55c6: 85 12        	sta	$12                     ; 0x12 <__rc2>
    55c8: a5 99        	lda	$99                     ; 0x99 <__zp_bss_size+0x3f>
    55ca: 85 13        	sta	$13                     ; 0x13 <__rc3>
    55cc: 80 43        	bra	$5611 <printf+0x3ac>
    55ce: a6 14        	ldx	$14                     ; 0x14 <__rc4>
    55d0: e0 6c        	cpx	#$6c
    55d2: f0 23        	beq	$55f7 <printf+0x392>
    55d4: e0 74        	cpx	#$74
    55d6: f0 12        	beq	$55ea <printf+0x385>
    55d8: e0 7a        	cpx	#$7a
    55da: f0 0e        	beq	$55ea <printf+0x385>
    55dc: 80 14        	bra	$55f2 <printf+0x38d>
    55de: a5 97        	lda	$97                     ; 0x97 <__zp_bss_size+0x3d>
    55e0: 09 40        	ora	#$40
    55e2: 85 97        	sta	$97                     ; 0x97 <__zp_bss_size+0x3d>
    55e4: 85 c7        	sta	$c7                     ; 0xc7 <__zp_bss_size+0x6d>
    55e6: a2 00        	ldx	#$0
    55e8: 86 c8        	stx	$c8                     ; 0xc8 <__zp_bss_size+0x6e>
    55ea: a6 98        	ldx	$98                     ; 0x98 <__zp_bss_size+0x3e>
    55ec: 86 12        	stx	$12                     ; 0x12 <__rc2>
    55ee: a6 99        	ldx	$99                     ; 0x99 <__zp_bss_size+0x3f>
    55f0: 86 13        	stx	$13                     ; 0x13 <__rc3>
    55f2: a2 02        	ldx	#$2
    55f4: 8a           	txa
    55f5: 80 1c        	bra	$5613 <printf+0x3ae>
    55f7: b1 12        	lda	($12),y                 ; 0x12 <__rc2>
    55f9: a2 04        	ldx	#$4
    55fb: c9 6c        	cmp	#$6c
    55fd: f0 03        	beq	$5602 <printf+0x39d>
    55ff: 4c 54 59     	jmp	$5954 <printf+0x6ef>
    5602: a5 12        	lda	$12                     ; 0x12 <__rc2>
    5604: 18           	clc
    5605: 69 02        	adc	#$2
    5607: 85 12        	sta	$12                     ; 0x12 <__rc2>
    5609: a5 13        	lda	$13                     ; 0x13 <__rc3>
    560b: 69 00        	adc	#$0
    560d: 85 13        	sta	$13                     ; 0x13 <__rc3>
    560f: a2 08        	ldx	#$8
    5611: a9 08        	lda	#$8
    5613: 85 dc        	sta	$dc                     ; 0xdc <__zp_bss_size+0x82>
    5615: b2 12        	lda	($12)                   ; 0x12 <__rc2>
    5617: 5a           	phy
    5618: a4 12        	ldy	$12                     ; 0x12 <__rc2>
    561a: 84 98        	sty	$98                     ; 0x98 <__zp_bss_size+0x3e>
    561c: a4 13        	ldy	$13                     ; 0x13 <__rc3>
    561e: 84 99        	sty	$99                     ; 0x99 <__zp_bss_size+0x3f>
    5620: 7a           	ply
    5621: 86 9a        	stx	$9a                     ; 0x9a <__zp_bss_size+0x40>
    5623: aa           	tax
    5624: 18           	clc
    5625: 69 9d        	adc	#$9d
    5627: c9 16        	cmp	#$16
    5629: b0 39        	bcs	$5664 <printf+0x3ff>
    562b: 0a           	asl
    562c: aa           	tax
    562d: 7c d7 75     	jmp	($75d7,x)               ; 0x75d7 <__set_v+0x37>
    5630: a6 15        	ldx	$15                     ; 0x15 <__rc5>
    5632: 86 df        	stx	$df                     ; 0xdf <__zp_bss_size+0x85>
    5634: a6 18        	ldx	$18                     ; 0x18 <__rc8>
    5636: 86 e0        	stx	$e0                     ; 0xe0 <__zp_bss_size+0x86>
    5638: a0 0a        	ldy	#$a
    563a: a2 0a        	ldx	#$a
    563c: 86 db        	stx	$db                     ; 0xdb <__zp_bss_size+0x81>
    563e: 84 c6        	sty	$c6                     ; 0xc6 <__zp_bss_size+0x6c>
    5640: 64 a1        	stz	$a1                     ; 0xa1 <__zp_bss_size+0x47>
    5642: 4c 64 57     	jmp	$5764 <printf+0x4ff>
    5645: b1 12        	lda	($12),y                 ; 0x12 <__rc2>
    5647: a2 02        	ldx	#$2
    5649: c9 68        	cmp	#$68
    564b: f0 03        	beq	$5650 <printf+0x3eb>
    564d: 4c 5a 59     	jmp	$595a <printf+0x6f5>
    5650: a5 12        	lda	$12                     ; 0x12 <__rc2>
    5652: 18           	clc
    5653: 69 02        	adc	#$2
    5655: 85 12        	sta	$12                     ; 0x12 <__rc2>
    5657: a5 13        	lda	$13                     ; 0x13 <__rc3>
    5659: 69 00        	adc	#$0
    565b: 85 13        	sta	$13                     ; 0x13 <__rc3>
    565d: a2 01        	ldx	#$1
    565f: 86 dc        	stx	$dc                     ; 0xdc <__zp_bss_size+0x82>
    5661: e8           	inx
    5662: 80 b1        	bra	$5615 <printf+0x3b0>
    5664: e0 58        	cpx	#$58
    5666: f0 03        	beq	$566b <printf+0x406>
    5668: 4c 4c 5e     	jmp	$5e4c <printf+0xbe7>
    566b: a6 15        	ldx	$15                     ; 0x15 <__rc5>
    566d: 86 df        	stx	$df                     ; 0xdf <__zp_bss_size+0x85>
    566f: a6 18        	ldx	$18                     ; 0x18 <__rc8>
    5671: 86 e0        	stx	$e0                     ; 0xe0 <__zp_bss_size+0x86>
    5673: a2 10        	ldx	#$10
    5675: 86 c6        	stx	$c6                     ; 0xc6 <__zp_bss_size+0x6c>
    5677: a9 00        	lda	#$0
    5679: 09 01        	ora	#$1
    567b: a6 97        	ldx	$97                     ; 0x97 <__zp_bss_size+0x3d>
    567d: 80 29        	bra	$56a8 <printf+0x443>
    567f: a6 15        	ldx	$15                     ; 0x15 <__rc5>
    5681: 86 df        	stx	$df                     ; 0xdf <__zp_bss_size+0x85>
    5683: a6 18        	ldx	$18                     ; 0x18 <__rc8>
    5685: 86 e0        	stx	$e0                     ; 0xe0 <__zp_bss_size+0x86>
    5687: a2 10        	ldx	#$10
    5689: 86 c6        	stx	$c6                     ; 0xc6 <__zp_bss_size+0x6c>
    568b: a5 97        	lda	$97                     ; 0x97 <__zp_bss_size+0x3d>
    568d: 09 84        	ora	#$84
    568f: 80 10        	bra	$56a1 <printf+0x43c>
    5691: a6 15        	ldx	$15                     ; 0x15 <__rc5>
    5693: 86 df        	stx	$df                     ; 0xdf <__zp_bss_size+0x85>
    5695: a6 18        	ldx	$18                     ; 0x18 <__rc8>
    5697: 86 e0        	stx	$e0                     ; 0xe0 <__zp_bss_size+0x86>
    5699: a2 10        	ldx	#$10
    569b: 86 c6        	stx	$c6                     ; 0xc6 <__zp_bss_size+0x6c>
    569d: a5 97        	lda	$97                     ; 0x97 <__zp_bss_size+0x3d>
    569f: 09 80        	ora	#$80
    56a1: aa           	tax
    56a2: a9 00        	lda	#$0
    56a4: 09 01        	ora	#$1
    56a6: 86 97        	stx	$97                     ; 0x97 <__zp_bss_size+0x3d>
    56a8: 86 c7        	stx	$c7                     ; 0xc7 <__zp_bss_size+0x6d>
    56aa: 85 a1        	sta	$a1                     ; 0xa1 <__zp_bss_size+0x47>
    56ac: 85 c8        	sta	$c8                     ; 0xc8 <__zp_bss_size+0x6e>
    56ae: a2 10        	ldx	#$10
    56b0: 86 db        	stx	$db                     ; 0xdb <__zp_bss_size+0x81>
    56b2: 4c 64 57     	jmp	$5764 <printf+0x4ff>
    56b5: a5 d7        	lda	$d7                     ; 0xd7 <__zp_bss_size+0x7d>
    56b7: a6 d8        	ldx	$d8                     ; 0xd8 <__zp_bss_size+0x7e>
    56b9: 85 12        	sta	$12                     ; 0x12 <__rc2>
    56bb: 86 13        	stx	$13                     ; 0x13 <__rc3>
    56bd: 18           	clc
    56be: 69 02        	adc	#$2
    56c0: 85 14        	sta	$14                     ; 0x14 <__rc4>
    56c2: 8a           	txa
    56c3: 69 00        	adc	#$0
    56c5: a6 14        	ldx	$14                     ; 0x14 <__rc4>
    56c7: 86 d7        	stx	$d7                     ; 0xd7 <__zp_bss_size+0x7d>
    56c9: 85 d8        	sta	$d8                     ; 0xd8 <__zp_bss_size+0x7e>
    56cb: b2 12        	lda	($12)                   ; 0x12 <__rc2>
    56cd: aa           	tax
    56ce: b1 12        	lda	($12),y                 ; 0x12 <__rc2>
    56d0: 86 12        	stx	$12                     ; 0x12 <__rc2>
    56d2: 85 13        	sta	$13                     ; 0x13 <__rc3>
    56d4: a5 cb        	lda	$cb                     ; 0xcb <__zp_bss_size+0x71>
    56d6: a6 cc        	ldx	$cc                     ; 0xcc <__zp_bss_size+0x72>
    56d8: 92 12        	sta	($12)                   ; 0x12 <__rc2>
    56da: 8a           	txa
    56db: 91 12        	sta	($12),y                 ; 0x12 <__rc2>
    56dd: 4c 3d 57     	jmp	$573d <printf+0x4d8>
    56e0: a5 d7        	lda	$d7                     ; 0xd7 <__zp_bss_size+0x7d>
    56e2: a6 d8        	ldx	$d8                     ; 0xd8 <__zp_bss_size+0x7e>
    56e4: 85 12        	sta	$12                     ; 0x12 <__rc2>
    56e6: 86 13        	stx	$13                     ; 0x13 <__rc3>
    56e8: 18           	clc
    56e9: 69 02        	adc	#$2
    56eb: 85 14        	sta	$14                     ; 0x14 <__rc4>
    56ed: 8a           	txa
    56ee: 69 00        	adc	#$0
    56f0: a6 14        	ldx	$14                     ; 0x14 <__rc4>
    56f2: 86 d7        	stx	$d7                     ; 0xd7 <__zp_bss_size+0x7d>
    56f4: 85 d8        	sta	$d8                     ; 0xd8 <__zp_bss_size+0x7e>
    56f6: b2 12        	lda	($12)                   ; 0x12 <__rc2>
    56f8: aa           	tax
    56f9: b1 12        	lda	($12),y                 ; 0x12 <__rc2>
    56fb: 86 12        	stx	$12                     ; 0x12 <__rc2>
    56fd: 85 13        	sta	$13                     ; 0x13 <__rc3>
    56ff: 80 2f        	bra	$5730 <printf+0x4cb>
    5701: a6 15        	ldx	$15                     ; 0x15 <__rc5>
    5703: 86 df        	stx	$df                     ; 0xdf <__zp_bss_size+0x85>
    5705: a6 18        	ldx	$18                     ; 0x18 <__rc8>
    5707: 86 e0        	stx	$e0                     ; 0xe0 <__zp_bss_size+0x86>
    5709: a0 08        	ldy	#$8
    570b: a2 08        	ldx	#$8
    570d: 80 45        	bra	$5754 <printf+0x4ef>
    570f: a5 d7        	lda	$d7                     ; 0xd7 <__zp_bss_size+0x7d>
    5711: a6 d8        	ldx	$d8                     ; 0xd8 <__zp_bss_size+0x7e>
    5713: 85 12        	sta	$12                     ; 0x12 <__rc2>
    5715: 86 13        	stx	$13                     ; 0x13 <__rc3>
    5717: 18           	clc
    5718: 69 02        	adc	#$2
    571a: a8           	tay
    571b: 8a           	txa
    571c: 69 00        	adc	#$0
    571e: 84 d7        	sty	$d7                     ; 0xd7 <__zp_bss_size+0x7d>
    5720: 85 d8        	sta	$d8                     ; 0xd8 <__zp_bss_size+0x7e>
    5722: b2 12        	lda	($12)                   ; 0x12 <__rc2>
    5724: 85 b9        	sta	$b9                     ; 0xb9 <__zp_bss_size+0x5f>
    5726: 64 ba        	stz	$ba                     ; 0xba <__zp_bss_size+0x60>
    5728: a2 b9        	ldx	#$b9
    572a: 86 12        	stx	$12                     ; 0x12 <__rc2>
    572c: a2 00        	ldx	#$0
    572e: 86 13        	stx	$13                     ; 0x13 <__rc3>
    5730: a2 c6        	ldx	#$c6
    5732: 86 14        	stx	$14                     ; 0x14 <__rc4>
    5734: a2 00        	ldx	#$0
    5736: 86 15        	stx	$15                     ; 0x15 <__rc5>
    5738: 20 59 51     	jsr	$5159 <_ZN12_GLOBAL__N_112print_stringEPKcP6Status>
    573b: a0 01        	ldy	#$1
    573d: a2 00        	ldx	#$0
    573f: 86 9a        	stx	$9a                     ; 0x9a <__zp_bss_size+0x40>
    5741: a2 00        	ldx	#$0
    5743: 86 9b        	stx	$9b                     ; 0x9b <__zp_bss_size+0x41>
    5745: 4c 34 5e     	jmp	$5e34 <printf+0xbcf>
    5748: a6 15        	ldx	$15                     ; 0x15 <__rc5>
    574a: 86 df        	stx	$df                     ; 0xdf <__zp_bss_size+0x85>
    574c: a6 18        	ldx	$18                     ; 0x18 <__rc8>
    574e: 86 e0        	stx	$e0                     ; 0xe0 <__zp_bss_size+0x86>
    5750: a0 0a        	ldy	#$a
    5752: a2 0a        	ldx	#$a
    5754: 86 db        	stx	$db                     ; 0xdb <__zp_bss_size+0x81>
    5756: 84 c6        	sty	$c6                     ; 0xc6 <__zp_bss_size+0x6c>
    5758: a9 00        	lda	#$0
    575a: 09 01        	ora	#$1
    575c: a6 97        	ldx	$97                     ; 0x97 <__zp_bss_size+0x3d>
    575e: 86 c7        	stx	$c7                     ; 0xc7 <__zp_bss_size+0x6d>
    5760: 85 a1        	sta	$a1                     ; 0xa1 <__zp_bss_size+0x47>
    5762: 85 c8        	sta	$c8                     ; 0xc8 <__zp_bss_size+0x6e>
    5764: a5 dc        	lda	$dc                     ; 0xdc <__zp_bss_size+0x82>
    5766: 85 bb        	sta	$bb                     ; 0xbb <__zp_bss_size+0x61>
    5768: a4 d7        	ldy	$d7                     ; 0xd7 <__zp_bss_size+0x7d>
    576a: a6 d8        	ldx	$d8                     ; 0xd8 <__zp_bss_size+0x7e>
    576c: 86 9f        	stx	$9f                     ; 0x9f <__zp_bss_size+0x45>
    576e: 84 14        	sty	$14                     ; 0x14 <__rc4>
    5770: 84 96        	sty	$96                     ; 0x96 <__zp_bss_size+0x3c>
    5772: 86 15        	stx	$15                     ; 0x15 <__rc5>
    5774: a6 dd        	ldx	$dd                     ; 0xdd <__zp_bss_size+0x83>
    5776: 86 12        	stx	$12                     ; 0x12 <__rc2>
    5778: a6 de        	ldx	$de                     ; 0xde <__zp_bss_size+0x84>
    577a: 86 13        	stx	$13                     ; 0x13 <__rc3>
    577c: a2 00        	ldx	#$0
    577e: 85 9b        	sta	$9b                     ; 0x9b <__zp_bss_size+0x41>
    5780: 20 64 60     	jsr	$6064 <memcpy>
    5783: 18           	clc
    5784: a5 96        	lda	$96                     ; 0x96 <__zp_bss_size+0x3c>
    5786: 65 9a        	adc	$9a                     ; 0x9a <__zp_bss_size+0x40>
    5788: aa           	tax
    5789: a5 9f        	lda	$9f                     ; 0x9f <__zp_bss_size+0x45>
    578b: 69 00        	adc	#$0
    578d: 86 d7        	stx	$d7                     ; 0xd7 <__zp_bss_size+0x7d>
    578f: 85 d8        	sta	$d8                     ; 0xd8 <__zp_bss_size+0x7e>
    5791: a5 a1        	lda	$a1                     ; 0xa1 <__zp_bss_size+0x47>
    5793: 29 01        	and	#$1
    5795: b8           	clv
    5796: f0 03        	beq	$579b <printf+0x536>
    5798: 4c ef 57     	jmp	$57ef <printf+0x58a>
    579b: a6 9b        	ldx	$9b                     ; 0x9b <__zp_bss_size+0x41>
    579d: b5 bb        	lda	$bb,x                   ; 0xbb <__zp_bss_size+0x61>
    579f: aa           	tax
    57a0: a0 01        	ldy	#$1
    57a2: a5 9e        	lda	$9e                     ; 0x9e <__zp_bss_size+0x44>
    57a4: 85 1a        	sta	$1a                     ; 0x1a <__rc10>
    57a6: a5 e0        	lda	$e0                     ; 0xe0 <__zp_bss_size+0x86>
    57a8: 85 9e        	sta	$9e                     ; 0x9e <__zp_bss_size+0x44>
    57aa: a9 00        	lda	#$0
    57ac: 85 9a        	sta	$9a                     ; 0x9a <__zp_bss_size+0x40>
    57ae: a9 00        	lda	#$0
    57b0: 85 9b        	sta	$9b                     ; 0x9b <__zp_bss_size+0x41>
    57b2: a5 df        	lda	$df                     ; 0xdf <__zp_bss_size+0x85>
    57b4: 85 9f        	sta	$9f                     ; 0x9f <__zp_bss_size+0x45>
    57b6: 8a           	txa
    57b7: 10 4c        	bpl	$5805 <printf+0x5a0>
    57b9: a2 00        	ldx	#$0
    57bb: 64 12        	stz	$12                     ; 0x12 <__rc2>
    57bd: a9 00        	lda	#$0
    57bf: 38           	sec
    57c0: f5 bc        	sbc	$bc,x                   ; 0xbc <__zp_bss_size+0x62>
    57c2: a0 00        	ldy	#$0
    57c4: b0 02        	bcs	$57c8 <printf+0x563>
    57c6: a0 01        	ldy	#$1
    57c8: 38           	sec
    57c9: e5 12        	sbc	$12                     ; 0x12 <__rc2>
    57cb: 85 13        	sta	$13                     ; 0x13 <__rc3>
    57cd: 64 12        	stz	$12                     ; 0x12 <__rc2>
    57cf: b0 04        	bcs	$57d5 <printf+0x570>
    57d1: a9 01        	lda	#$1
    57d3: 85 12        	sta	$12                     ; 0x12 <__rc2>
    57d5: 98           	tya
    57d6: 05 12        	ora	$12                     ; 0x12 <__rc2>
    57d8: 85 12        	sta	$12                     ; 0x12 <__rc2>
    57da: a5 13        	lda	$13                     ; 0x13 <__rc3>
    57dc: 9d bc 00     	sta	$bc,x                   ; 0xbc <__zp_bss_size+0x62>
    57df: e8           	inx
    57e0: 86 13        	stx	$13                     ; 0x13 <__rc3>
    57e2: a4 dc        	ldy	$dc                     ; 0xdc <__zp_bss_size+0x82>
    57e4: c4 13        	cpy	$13                     ; 0x13 <__rc3>
    57e6: d0 d5        	bne	$57bd <printf+0x558>
    57e8: 2c a0 75     	bit	$75a0                   ; 0x75a0 <__set_v>
    57eb: a0 01        	ldy	#$1
    57ed: 80 16        	bra	$5805 <printf+0x5a0>
    57ef: a0 01        	ldy	#$1
    57f1: a6 9e        	ldx	$9e                     ; 0x9e <__zp_bss_size+0x44>
    57f3: 86 1a        	stx	$1a                     ; 0x1a <__rc10>
    57f5: a6 e0        	ldx	$e0                     ; 0xe0 <__zp_bss_size+0x86>
    57f7: 86 9e        	stx	$9e                     ; 0x9e <__zp_bss_size+0x44>
    57f9: a2 00        	ldx	#$0
    57fb: 86 9a        	stx	$9a                     ; 0x9a <__zp_bss_size+0x40>
    57fd: a2 00        	ldx	#$0
    57ff: 86 9b        	stx	$9b                     ; 0x9b <__zp_bss_size+0x41>
    5801: a6 df        	ldx	$df                     ; 0xdf <__zp_bss_size+0x85>
    5803: 86 9f        	stx	$9f                     ; 0x9f <__zp_bss_size+0x45>
    5805: a2 01        	ldx	#$1
    5807: 70 02        	bvs	$580b <printf+0x5a6>
    5809: a2 00        	ldx	#$0
    580b: 86 16        	stx	$16                     ; 0x16 <__rc6>
    580d: a5 dc        	lda	$dc                     ; 0xdc <__zp_bss_size+0x82>
    580f: 0a           	asl
    5810: 0a           	asl
    5811: 0a           	asl
    5812: 85 12        	sta	$12                     ; 0x12 <__rc2>
    5814: a2 00        	ldx	#$0
    5816: 8a           	txa
    5817: e0 00        	cpx	#$0
    5819: d0 03        	bne	$581e <printf+0x5b9>
    581b: 4c a3 58     	jmp	$58a3 <printf+0x63e>
    581e: 85 17        	sta	$17                     ; 0x17 <__rc7>
    5820: 86 96        	stx	$96                     ; 0x96 <__zp_bss_size+0x3c>
    5822: ca           	dex
    5823: 86 15        	stx	$15                     ; 0x15 <__rc5>
    5825: a2 00        	ldx	#$0
    5827: 64 13        	stz	$13                     ; 0x13 <__rc3>
    5829: 80 0d        	bra	$5838 <printf+0x5d3>
    582b: a4 13        	ldy	$13                     ; 0x13 <__rc3>
    582d: 99 a4 00     	sta	$a4,y                   ; 0xa4 <__zp_bss_size+0x4a>
    5830: a4 15        	ldy	$15                     ; 0x15 <__rc5>
    5832: c4 13        	cpy	$13                     ; 0x13 <__rc3>
    5834: f0 38        	beq	$586e <printf+0x609>
    5836: e6 13        	inc	$13                     ; 0x13 <__rc3>
    5838: a4 13        	ldy	$13                     ; 0x13 <__rc3>
    583a: b9 a4 00     	lda	$a4,y                   ; 0xa4 <__zp_bss_size+0x4a>
    583d: 0a           	asl
    583e: e0 00        	cpx	#$0
    5840: f0 02        	beq	$5844 <printf+0x5df>
    5842: 09 01        	ora	#$1
    5844: a4 db        	ldy	$db                     ; 0xdb <__zp_bss_size+0x81>
    5846: 84 14        	sty	$14                     ; 0x14 <__rc4>
    5848: c5 14        	cmp	$14                     ; 0x14 <__rc4>
    584a: a2 01        	ldx	#$1
    584c: b0 02        	bcs	$5850 <printf+0x5eb>
    584e: a2 00        	ldx	#$0
    5850: 90 d9        	bcc	$582b <printf+0x5c6>
    5852: 84 14        	sty	$14                     ; 0x14 <__rc4>
    5854: 38           	sec
    5855: e5 14        	sbc	$14                     ; 0x14 <__rc4>
    5857: a4 13        	ldy	$13                     ; 0x13 <__rc3>
    5859: 99 a4 00     	sta	$a4,y                   ; 0xa4 <__zp_bss_size+0x4a>
    585c: a4 15        	ldy	$15                     ; 0x15 <__rc5>
    585e: c4 13        	cpy	$13                     ; 0x13 <__rc3>
    5860: d0 d4        	bne	$5836 <printf+0x5d1>
    5862: a4 96        	ldy	$96                     ; 0x96 <__zp_bss_size+0x3c>
    5864: a6 96        	ldx	$96                     ; 0x96 <__zp_bss_size+0x3c>
    5866: e8           	inx
    5867: a9 01        	lda	#$1
    5869: 99 a4 00     	sta	$a4,y                   ; 0xa4 <__zp_bss_size+0x4a>
    586c: 86 96        	stx	$96                     ; 0x96 <__zp_bss_size+0x3c>
    586e: a6 dc        	ldx	$dc                     ; 0xdc <__zp_bss_size+0x82>
    5870: b5 bb        	lda	$bb,x                   ; 0xbb <__zp_bss_size+0x61>
    5872: aa           	tax
    5873: a0 01        	ldy	#$1
    5875: 8a           	txa
    5876: 10 47        	bpl	$58bf <printf+0x65a>
    5878: a5 96        	lda	$96                     ; 0x96 <__zp_bss_size+0x3c>
    587a: f0 34        	beq	$58b0 <printf+0x64b>
    587c: a2 00        	ldx	#$0
    587e: a4 db        	ldy	$db                     ; 0xdb <__zp_bss_size+0x81>
    5880: 84 14        	sty	$14                     ; 0x14 <__rc4>
    5882: b5 a4        	lda	$a4,x                   ; 0xa4 <__zp_bss_size+0x4a>
    5884: 1a           	inc
    5885: f6 a4        	inc	$a4,x                   ; 0xa4 <__zp_bss_size+0x4a>
    5887: c5 14        	cmp	$14                     ; 0x14 <__rc4>
    5889: b0 03        	bcs	$588e <printf+0x629>
    588b: 4c ea 58     	jmp	$58ea <printf+0x685>
    588e: a4 14        	ldy	$14                     ; 0x14 <__rc4>
    5890: 84 13        	sty	$13                     ; 0x13 <__rc3>
    5892: 38           	sec
    5893: e5 13        	sbc	$13                     ; 0x13 <__rc3>
    5895: 9d a4 00     	sta	$a4,x                   ; 0xa4 <__zp_bss_size+0x4a>
    5898: e8           	inx
    5899: 86 13        	stx	$13                     ; 0x13 <__rc3>
    589b: a4 96        	ldy	$96                     ; 0x96 <__zp_bss_size+0x3c>
    589d: c4 13        	cpy	$13                     ; 0x13 <__rc3>
    589f: d0 e1        	bne	$5882 <printf+0x61d>
    58a1: 80 0f        	bra	$58b2 <printf+0x64d>
    58a3: 85 17        	sta	$17                     ; 0x17 <__rc7>
    58a5: a6 dc        	ldx	$dc                     ; 0xdc <__zp_bss_size+0x82>
    58a7: b5 bb        	lda	$bb,x                   ; 0xbb <__zp_bss_size+0x61>
    58a9: aa           	tax
    58aa: 64 96        	stz	$96                     ; 0x96 <__zp_bss_size+0x3c>
    58ac: 30 04        	bmi	$58b2 <printf+0x64d>
    58ae: 80 0f        	bra	$58bf <printf+0x65a>
    58b0: 64 96        	stz	$96                     ; 0x96 <__zp_bss_size+0x3c>
    58b2: a4 96        	ldy	$96                     ; 0x96 <__zp_bss_size+0x3c>
    58b4: a6 96        	ldx	$96                     ; 0x96 <__zp_bss_size+0x3c>
    58b6: e8           	inx
    58b7: a9 01        	lda	#$1
    58b9: 99 a4 00     	sta	$a4,y                   ; 0xa4 <__zp_bss_size+0x4a>
    58bc: a8           	tay
    58bd: 86 96        	stx	$96                     ; 0x96 <__zp_bss_size+0x3c>
    58bf: a2 01        	ldx	#$1
    58c1: 64 13        	stz	$13                     ; 0x13 <__rc3>
    58c3: a5 dc        	lda	$dc                     ; 0xdc <__zp_bss_size+0x82>
    58c5: 85 14        	sta	$14                     ; 0x14 <__rc4>
    58c7: b5 bb        	lda	$bb,x                   ; 0xbb <__zp_bss_size+0x61>
    58c9: 0a           	asl
    58ca: 64 15        	stz	$15                     ; 0x15 <__rc5>
    58cc: 26 15        	rol	$15                     ; 0x15 <__rc5>
    58ce: 05 13        	ora	$13                     ; 0x13 <__rc3>
    58d0: 9d bb 00     	sta	$bb,x                   ; 0xbb <__zp_bss_size+0x61>
    58d3: e8           	inx
    58d4: c6 14        	dec	$14                     ; 0x14 <__rc4>
    58d6: a5 15        	lda	$15                     ; 0x15 <__rc5>
    58d8: 85 13        	sta	$13                     ; 0x13 <__rc3>
    58da: a5 14        	lda	$14                     ; 0x14 <__rc4>
    58dc: d0 e9        	bne	$58c7 <printf+0x662>
    58de: a5 17        	lda	$17                     ; 0x17 <__rc7>
    58e0: 1a           	inc
    58e1: c5 12        	cmp	$12                     ; 0x12 <__rc2>
    58e3: a6 96        	ldx	$96                     ; 0x96 <__zp_bss_size+0x3c>
    58e5: b0 07        	bcs	$58ee <printf+0x689>
    58e7: 4c 17 58     	jmp	$5817 <printf+0x5b2>
    58ea: a0 01        	ldy	#$1
    58ec: 80 d1        	bra	$58bf <printf+0x65a>
    58ee: a5 97        	lda	$97                     ; 0x97 <__zp_bss_size+0x3d>
    58f0: e6 9f        	inc	$9f                     ; 0x9f <__zp_bss_size+0x45>
    58f2: c6 9f        	dec	$9f                     ; 0x9f <__zp_bss_size+0x45>
    58f4: 10 08        	bpl	$58fe <printf+0x699>
    58f6: a2 01        	ldx	#$1
    58f8: 64 9f        	stz	$9f                     ; 0x9f <__zp_bss_size+0x45>
    58fa: 86 9e        	stx	$9e                     ; 0x9e <__zp_bss_size+0x44>
    58fc: a6 96        	ldx	$96                     ; 0x96 <__zp_bss_size+0x3c>
    58fe: 29 04        	and	#$4
    5900: f0 2b        	beq	$592d <printf+0x6c8>
    5902: a5 db        	lda	$db                     ; 0xdb <__zp_bss_size+0x81>
    5904: c9 10        	cmp	#$10
    5906: f0 14        	beq	$591c <printf+0x6b7>
    5908: c9 08        	cmp	#$8
    590a: d0 21        	bne	$592d <printf+0x6c8>
    590c: a2 00        	ldx	#$0
    590e: e4 9f        	cpx	$9f                     ; 0x9f <__zp_bss_size+0x45>
    5910: f0 03        	beq	$5915 <printf+0x6b0>
    5912: 4c 59 5e     	jmp	$5e59 <printf+0xbf4>
    5915: a6 96        	ldx	$96                     ; 0x96 <__zp_bss_size+0x3c>
    5917: e4 9e        	cpx	$9e                     ; 0x9e <__zp_bss_size+0x44>
    5919: 4c 5b 5e     	jmp	$5e5b <printf+0xbf6>
    591c: 8a           	txa
    591d: f0 0e        	beq	$592d <printf+0x6c8>
    591f: a5 97        	lda	$97                     ; 0x97 <__zp_bss_size+0x3d>
    5921: 29 80        	and	#$80
    5923: d0 03        	bne	$5928 <printf+0x6c3>
    5925: 4c 74 5e     	jmp	$5e74 <printf+0xc0f>
    5928: a2 78        	ldx	#$78
    592a: 4c 76 5e     	jmp	$5e76 <printf+0xc11>
    592d: a6 97        	ldx	$97                     ; 0x97 <__zp_bss_size+0x3d>
    592f: a9 2d        	lda	#$2d
    5931: 85 df        	sta	$df                     ; 0xdf <__zp_bss_size+0x85>
    5933: a5 16        	lda	$16                     ; 0x16 <__rc6>
    5935: d0 32        	bne	$5969 <printf+0x704>
    5937: 86 12        	stx	$12                     ; 0x12 <__rc2>
    5939: 8a           	txa
    593a: 29 02        	and	#$2
    593c: a2 2b        	ldx	#$2b
    593e: 86 df        	stx	$df                     ; 0xdf <__zp_bss_size+0x85>
    5940: aa           	tax
    5941: d0 26        	bne	$5969 <printf+0x704>
    5943: a5 12        	lda	$12                     ; 0x12 <__rc2>
    5945: 29 08        	and	#$8
    5947: d0 1c        	bne	$5965 <printf+0x700>
    5949: a2 01        	ldx	#$1
    594b: 86 dc        	stx	$dc                     ; 0xdc <__zp_bss_size+0x82>
    594d: a9 00        	lda	#$0
    594f: aa           	tax
    5950: 86 db        	stx	$db                     ; 0xdb <__zp_bss_size+0x81>
    5952: 80 1c        	bra	$5970 <printf+0x70b>
    5954: 85 12        	sta	$12                     ; 0x12 <__rc2>
    5956: a9 04        	lda	#$4
    5958: 80 04        	bra	$595e <printf+0x6f9>
    595a: 85 12        	sta	$12                     ; 0x12 <__rc2>
    595c: a9 02        	lda	#$2
    595e: 85 dc        	sta	$dc                     ; 0xdc <__zp_bss_size+0x82>
    5960: a5 12        	lda	$12                     ; 0x12 <__rc2>
    5962: 4c 21 56     	jmp	$5621 <printf+0x3bc>
    5965: a2 20        	ldx	#$20
    5967: 86 df        	stx	$df                     ; 0xdf <__zp_bss_size+0x85>
    5969: a2 00        	ldx	#$0
    596b: 86 dc        	stx	$dc                     ; 0xdc <__zp_bss_size+0x82>
    596d: 86 db        	stx	$db                     ; 0xdb <__zp_bss_size+0x81>
    596f: 98           	tya
    5970: a6 9f        	ldx	$9f                     ; 0x9f <__zp_bss_size+0x45>
    5972: d0 35        	bne	$59a9 <printf+0x744>
    5974: a6 9e        	ldx	$9e                     ; 0x9e <__zp_bss_size+0x44>
    5976: a4 96        	ldy	$96                     ; 0x96 <__zp_bss_size+0x3c>
    5978: 84 12        	sty	$12                     ; 0x12 <__rc2>
    597a: e4 12        	cpx	$12                     ; 0x12 <__rc2>
    597c: a6 9e        	ldx	$9e                     ; 0x9e <__zp_bss_size+0x44>
    597e: 86 12        	stx	$12                     ; 0x12 <__rc2>
    5980: a6 9f        	ldx	$9f                     ; 0x9f <__zp_bss_size+0x45>
    5982: 86 13        	stx	$13                     ; 0x13 <__rc3>
    5984: b0 04        	bcs	$598a <printf+0x725>
    5986: 84 12        	sty	$12                     ; 0x12 <__rc2>
    5988: 64 13        	stz	$13                     ; 0x13 <__rc3>
    598a: 85 18        	sta	$18                     ; 0x18 <__rc8>
    598c: 18           	clc
    598d: 65 12        	adc	$12                     ; 0x12 <__rc2>
    598f: 85 16        	sta	$16                     ; 0x16 <__rc6>
    5991: 85 14        	sta	$14                     ; 0x14 <__rc4>
    5993: a5 13        	lda	$13                     ; 0x13 <__rc3>
    5995: 69 00        	adc	#$0
    5997: 85 15        	sta	$15                     ; 0x15 <__rc5>
    5999: c5 1a        	cmp	$1a                     ; 0x1a <__rc10>
    599b: d0 1e        	bne	$59bb <printf+0x756>
    599d: a6 1a        	ldx	$1a                     ; 0x1a <__rc10>
    599f: 86 17        	stx	$17                     ; 0x17 <__rc7>
    59a1: a6 a0        	ldx	$a0                     ; 0xa0 <__zp_bss_size+0x46>
    59a3: a5 16        	lda	$16                     ; 0x16 <__rc6>
    59a5: c5 a0        	cmp	$a0                     ; 0xa0 <__zp_bss_size+0x46>
    59a7: 80 1c        	bra	$59c5 <printf+0x760>
    59a9: a6 9f        	ldx	$9f                     ; 0x9f <__zp_bss_size+0x45>
    59ab: e0 00        	cpx	#$0
    59ad: a6 9e        	ldx	$9e                     ; 0x9e <__zp_bss_size+0x44>
    59af: 86 12        	stx	$12                     ; 0x12 <__rc2>
    59b1: a6 9f        	ldx	$9f                     ; 0x9f <__zp_bss_size+0x45>
    59b3: 86 13        	stx	$13                     ; 0x13 <__rc3>
    59b5: a4 96        	ldy	$96                     ; 0x96 <__zp_bss_size+0x3c>
    59b7: 90 cd        	bcc	$5986 <printf+0x721>
    59b9: 80 cf        	bra	$598a <printf+0x725>
    59bb: a6 a0        	ldx	$a0                     ; 0xa0 <__zp_bss_size+0x46>
    59bd: 5a           	phy
    59be: a4 1a        	ldy	$1a                     ; 0x1a <__rc10>
    59c0: 84 17        	sty	$17                     ; 0x17 <__rc7>
    59c2: 7a           	ply
    59c3: c5 1a        	cmp	$1a                     ; 0x1a <__rc10>
    59c5: 64 a1        	stz	$a1                     ; 0xa1 <__zp_bss_size+0x47>
    59c7: 64 a0        	stz	$a0                     ; 0xa0 <__zp_bss_size+0x46>
    59c9: 90 03        	bcc	$59ce <printf+0x769>
    59cb: 4c 6f 5a     	jmp	$5a6f <printf+0x80a>
    59ce: a5 97        	lda	$97                     ; 0x97 <__zp_bss_size+0x3d>
    59d0: 29 11        	and	#$11
    59d2: 86 16        	stx	$16                     ; 0x16 <__rc6>
    59d4: f0 0f        	beq	$59e5 <printf+0x780>
    59d6: 8a           	txa
    59d7: 38           	sec
    59d8: e5 14        	sbc	$14                     ; 0x14 <__rc4>
    59da: 85 a1        	sta	$a1                     ; 0xa1 <__zp_bss_size+0x47>
    59dc: a5 1a        	lda	$1a                     ; 0x1a <__rc10>
    59de: e5 15        	sbc	$15                     ; 0x15 <__rc5>
    59e0: 85 a0        	sta	$a0                     ; 0xa0 <__zp_bss_size+0x46>
    59e2: 4c 6f 5a     	jmp	$5a6f <printf+0x80a>
    59e5: a6 cb        	ldx	$cb                     ; 0xcb <__zp_bss_size+0x71>
    59e7: 86 14        	stx	$14                     ; 0x14 <__rc4>
    59e9: 38           	sec
    59ea: a5 18        	lda	$18                     ; 0x18 <__rc8>
    59ec: e5 16        	sbc	$16                     ; 0x16 <__rc6>
    59ee: aa           	tax
    59ef: a9 00        	lda	#$0
    59f1: e5 17        	sbc	$17                     ; 0x17 <__rc7>
    59f3: a8           	tay
    59f4: 18           	clc
    59f5: 8a           	txa
    59f6: 65 12        	adc	$12                     ; 0x12 <__rc2>
    59f8: 85 97        	sta	$97                     ; 0x97 <__zp_bss_size+0x3d>
    59fa: 98           	tya
    59fb: 65 13        	adc	$13                     ; 0x13 <__rc3>
    59fd: a4 cc        	ldy	$cc                     ; 0xcc <__zp_bss_size+0x72>
    59ff: 4c 53 5a     	jmp	$5a53 <printf+0x7ee>
    5a02: c4 ca        	cpy	$ca                     ; 0xca <__zp_bss_size+0x70>
    5a04: b0 2f        	bcs	$5a35 <printf+0x7d0>
    5a06: a6 d6        	ldx	$d6                     ; 0xd6 <__zp_bss_size+0x7c>
    5a08: e4 9b        	cpx	$9b                     ; 0x9b <__zp_bss_size+0x41>
    5a0a: d0 18        	bne	$5a24 <printf+0x7bf>
    5a0c: a6 d5        	ldx	$d5                     ; 0xd5 <__zp_bss_size+0x7b>
    5a0e: e4 9a        	cpx	$9a                     ; 0x9a <__zp_bss_size+0x40>
    5a10: d0 12        	bne	$5a24 <printf+0x7bf>
    5a12: 18           	clc
    5a13: a5 14        	lda	$14                     ; 0x14 <__rc4>
    5a15: 65 cf        	adc	$cf                     ; 0xcf <__zp_bss_size+0x75>
    5a17: 85 12        	sta	$12                     ; 0x12 <__rc2>
    5a19: 98           	tya
    5a1a: 65 d0        	adc	$d0                     ; 0xd0 <__zp_bss_size+0x76>
    5a1c: 85 13        	sta	$13                     ; 0x13 <__rc3>
    5a1e: a9 20        	lda	#$20
    5a20: 92 12        	sta	($12)                   ; 0x12 <__rc2>
    5a22: 80 0f        	bra	$5a33 <printf+0x7ce>
    5a24: a2 20        	ldx	#$20
    5a26: 86 35        	stx	$35                     ; 0x35 <__putchar.s>
    5a28: a2 35        	ldx	#$35
    5a2a: 86 12        	stx	$12                     ; 0x12 <__rc2>
    5a2c: a2 00        	ldx	#$0
    5a2e: 86 13        	stx	$13                     ; 0x13 <__rc3>
    5a30: 20 ae 2f     	jsr	$2fae <textPrint>
    5a33: a5 a0        	lda	$a0                     ; 0xa0 <__zp_bss_size+0x46>
    5a35: a6 cb        	ldx	$cb                     ; 0xcb <__zp_bss_size+0x71>
    5a37: a4 cc        	ldy	$cc                     ; 0xcc <__zp_bss_size+0x72>
    5a39: e8           	inx
    5a3a: d0 01        	bne	$5a3d <printf+0x7d8>
    5a3c: c8           	iny
    5a3d: 86 14        	stx	$14                     ; 0x14 <__rc4>
    5a3f: 86 cb        	stx	$cb                     ; 0xcb <__zp_bss_size+0x71>
    5a41: 84 cc        	sty	$cc                     ; 0xcc <__zp_bss_size+0x72>
    5a43: a6 97        	ldx	$97                     ; 0x97 <__zp_bss_size+0x3d>
    5a45: e8           	inx
    5a46: d0 01        	bne	$5a49 <printf+0x7e4>
    5a48: 1a           	inc
    5a49: 86 97        	stx	$97                     ; 0x97 <__zp_bss_size+0x3d>
    5a4b: c9 00        	cmp	#$0
    5a4d: d0 04        	bne	$5a53 <printf+0x7ee>
    5a4f: e0 00        	cpx	#$0
    5a51: f0 16        	beq	$5a69 <printf+0x804>
    5a53: 85 a0        	sta	$a0                     ; 0xa0 <__zp_bss_size+0x46>
    5a55: c4 ca        	cpy	$ca                     ; 0xca <__zp_bss_size+0x70>
    5a57: f0 03        	beq	$5a5c <printf+0x7f7>
    5a59: 4c 02 5a     	jmp	$5a02 <printf+0x79d>
    5a5c: a6 c9        	ldx	$c9                     ; 0xc9 <__zp_bss_size+0x6f>
    5a5e: 86 12        	stx	$12                     ; 0x12 <__rc2>
    5a60: a6 14        	ldx	$14                     ; 0x14 <__rc4>
    5a62: e4 12        	cpx	$12                     ; 0x12 <__rc2>
    5a64: b0 cf        	bcs	$5a35 <printf+0x7d0>
    5a66: 4c 06 5a     	jmp	$5a06 <printf+0x7a1>
    5a69: 64 a1        	stz	$a1                     ; 0xa1 <__zp_bss_size+0x47>
    5a6b: 64 a0        	stz	$a0                     ; 0xa0 <__zp_bss_size+0x46>
    5a6d: a4 96        	ldy	$96                     ; 0x96 <__zp_bss_size+0x3c>
    5a6f: a6 dc        	ldx	$dc                     ; 0xdc <__zp_bss_size+0x82>
    5a71: f0 03        	beq	$5a76 <printf+0x811>
    5a73: 4c cd 5a     	jmp	$5acd <printf+0x868>
    5a76: a6 cb        	ldx	$cb                     ; 0xcb <__zp_bss_size+0x71>
    5a78: a5 cc        	lda	$cc                     ; 0xcc <__zp_bss_size+0x72>
    5a7a: c5 ca        	cmp	$ca                     ; 0xca <__zp_bss_size+0x70>
    5a7c: d0 10        	bne	$5a8e <printf+0x829>
    5a7e: 86 13        	stx	$13                     ; 0x13 <__rc3>
    5a80: a6 c9        	ldx	$c9                     ; 0xc9 <__zp_bss_size+0x6f>
    5a82: 86 12        	stx	$12                     ; 0x12 <__rc2>
    5a84: a4 96        	ldy	$96                     ; 0x96 <__zp_bss_size+0x3c>
    5a86: a6 13        	ldx	$13                     ; 0x13 <__rc3>
    5a88: e4 12        	cpx	$12                     ; 0x12 <__rc2>
    5a8a: 90 08        	bcc	$5a94 <printf+0x82f>
    5a8c: 80 39        	bra	$5ac7 <printf+0x862>
    5a8e: 86 13        	stx	$13                     ; 0x13 <__rc3>
    5a90: c5 ca        	cmp	$ca                     ; 0xca <__zp_bss_size+0x70>
    5a92: b0 33        	bcs	$5ac7 <printf+0x862>
    5a94: a6 d6        	ldx	$d6                     ; 0xd6 <__zp_bss_size+0x7c>
    5a96: e4 9b        	cpx	$9b                     ; 0x9b <__zp_bss_size+0x41>
    5a98: d0 1c        	bne	$5ab6 <printf+0x851>
    5a9a: a6 d5        	ldx	$d5                     ; 0xd5 <__zp_bss_size+0x7b>
    5a9c: e4 9a        	cpx	$9a                     ; 0x9a <__zp_bss_size+0x40>
    5a9e: d0 16        	bne	$5ab6 <printf+0x851>
    5aa0: 18           	clc
    5aa1: 85 12        	sta	$12                     ; 0x12 <__rc2>
    5aa3: a5 13        	lda	$13                     ; 0x13 <__rc3>
    5aa5: 65 cf        	adc	$cf                     ; 0xcf <__zp_bss_size+0x75>
    5aa7: aa           	tax
    5aa8: a5 12        	lda	$12                     ; 0x12 <__rc2>
    5aaa: 65 d0        	adc	$d0                     ; 0xd0 <__zp_bss_size+0x76>
    5aac: 86 12        	stx	$12                     ; 0x12 <__rc2>
    5aae: 85 13        	sta	$13                     ; 0x13 <__rc3>
    5ab0: a5 df        	lda	$df                     ; 0xdf <__zp_bss_size+0x85>
    5ab2: 92 12        	sta	($12)                   ; 0x12 <__rc2>
    5ab4: 80 0f        	bra	$5ac5 <printf+0x860>
    5ab6: a6 df        	ldx	$df                     ; 0xdf <__zp_bss_size+0x85>
    5ab8: 86 35        	stx	$35                     ; 0x35 <__putchar.s>
    5aba: a2 35        	ldx	#$35
    5abc: 86 12        	stx	$12                     ; 0x12 <__rc2>
    5abe: a2 00        	ldx	#$0
    5ac0: 86 13        	stx	$13                     ; 0x13 <__rc3>
    5ac2: 20 ae 2f     	jsr	$2fae <textPrint>
    5ac5: a4 96        	ldy	$96                     ; 0x96 <__zp_bss_size+0x3c>
    5ac7: e6 cb        	inc	$cb                     ; 0xcb <__zp_bss_size+0x71>
    5ac9: d0 02        	bne	$5acd <printf+0x868>
    5acb: e6 cc        	inc	$cc                     ; 0xcc <__zp_bss_size+0x72>
    5acd: a6 db        	ldx	$db                     ; 0xdb <__zp_bss_size+0x81>
    5acf: d0 03        	bne	$5ad4 <printf+0x86f>
    5ad1: 4c 2b 5b     	jmp	$5b2b <printf+0x8c6>
    5ad4: a6 cb        	ldx	$cb                     ; 0xcb <__zp_bss_size+0x71>
    5ad6: a5 cc        	lda	$cc                     ; 0xcc <__zp_bss_size+0x72>
    5ad8: c5 ca        	cmp	$ca                     ; 0xca <__zp_bss_size+0x70>
    5ada: d0 10        	bne	$5aec <printf+0x887>
    5adc: 86 13        	stx	$13                     ; 0x13 <__rc3>
    5ade: a6 c9        	ldx	$c9                     ; 0xc9 <__zp_bss_size+0x6f>
    5ae0: 86 12        	stx	$12                     ; 0x12 <__rc2>
    5ae2: a4 96        	ldy	$96                     ; 0x96 <__zp_bss_size+0x3c>
    5ae4: a6 13        	ldx	$13                     ; 0x13 <__rc3>
    5ae6: e4 12        	cpx	$12                     ; 0x12 <__rc2>
    5ae8: 90 08        	bcc	$5af2 <printf+0x88d>
    5aea: 80 39        	bra	$5b25 <printf+0x8c0>
    5aec: 86 13        	stx	$13                     ; 0x13 <__rc3>
    5aee: c5 ca        	cmp	$ca                     ; 0xca <__zp_bss_size+0x70>
    5af0: b0 33        	bcs	$5b25 <printf+0x8c0>
    5af2: a6 d6        	ldx	$d6                     ; 0xd6 <__zp_bss_size+0x7c>
    5af4: e4 9b        	cpx	$9b                     ; 0x9b <__zp_bss_size+0x41>
    5af6: d0 1c        	bne	$5b14 <printf+0x8af>
    5af8: a6 d5        	ldx	$d5                     ; 0xd5 <__zp_bss_size+0x7b>
    5afa: e4 9a        	cpx	$9a                     ; 0x9a <__zp_bss_size+0x40>
    5afc: d0 16        	bne	$5b14 <printf+0x8af>
    5afe: 18           	clc
    5aff: 85 12        	sta	$12                     ; 0x12 <__rc2>
    5b01: a5 13        	lda	$13                     ; 0x13 <__rc3>
    5b03: 65 cf        	adc	$cf                     ; 0xcf <__zp_bss_size+0x75>
    5b05: aa           	tax
    5b06: a5 12        	lda	$12                     ; 0x12 <__rc2>
    5b08: 65 d0        	adc	$d0                     ; 0xd0 <__zp_bss_size+0x76>
    5b0a: 86 12        	stx	$12                     ; 0x12 <__rc2>
    5b0c: 85 13        	sta	$13                     ; 0x13 <__rc3>
    5b0e: a5 e0        	lda	$e0                     ; 0xe0 <__zp_bss_size+0x86>
    5b10: 92 12        	sta	($12)                   ; 0x12 <__rc2>
    5b12: 80 0f        	bra	$5b23 <printf+0x8be>
    5b14: a6 e0        	ldx	$e0                     ; 0xe0 <__zp_bss_size+0x86>
    5b16: 86 35        	stx	$35                     ; 0x35 <__putchar.s>
    5b18: a2 35        	ldx	#$35
    5b1a: 86 12        	stx	$12                     ; 0x12 <__rc2>
    5b1c: a2 00        	ldx	#$0
    5b1e: 86 13        	stx	$13                     ; 0x13 <__rc3>
    5b20: 20 ae 2f     	jsr	$2fae <textPrint>
    5b23: a4 96        	ldy	$96                     ; 0x96 <__zp_bss_size+0x3c>
    5b25: e6 cb        	inc	$cb                     ; 0xcb <__zp_bss_size+0x71>
    5b27: d0 02        	bne	$5b2b <printf+0x8c6>
    5b29: e6 cc        	inc	$cc                     ; 0xcc <__zp_bss_size+0x72>
    5b2b: a9 10        	lda	#$10
    5b2d: 25 c7        	and	$c7                     ; 0xc7 <__zp_bss_size+0x6d>
    5b2f: d0 03        	bne	$5b34 <printf+0x8cf>
    5b31: 4c c5 5b     	jmp	$5bc5 <printf+0x960>
    5b34: a5 c7        	lda	$c7                     ; 0xc7 <__zp_bss_size+0x6d>
    5b36: 29 01        	and	#$1
    5b38: f0 03        	beq	$5b3d <printf+0x8d8>
    5b3a: 4c c5 5b     	jmp	$5bc5 <printf+0x960>
    5b3d: a6 a1        	ldx	$a1                     ; 0xa1 <__zp_bss_size+0x47>
    5b3f: a5 a0        	lda	$a0                     ; 0xa0 <__zp_bss_size+0x46>
    5b41: d0 06        	bne	$5b49 <printf+0x8e4>
    5b43: 8a           	txa
    5b44: d0 03        	bne	$5b49 <printf+0x8e4>
    5b46: 4c 89 5e     	jmp	$5e89 <printf+0xc24>
    5b49: a6 cb        	ldx	$cb                     ; 0xcb <__zp_bss_size+0x71>
    5b4b: 86 13        	stx	$13                     ; 0x13 <__rc3>
    5b4d: a5 cc        	lda	$cc                     ; 0xcc <__zp_bss_size+0x72>
    5b4f: 4c ab 5b     	jmp	$5bab <printf+0x946>
    5b52: c5 ca        	cmp	$ca                     ; 0xca <__zp_bss_size+0x70>
    5b54: b0 2e        	bcs	$5b84 <printf+0x91f>
    5b56: a6 d6        	ldx	$d6                     ; 0xd6 <__zp_bss_size+0x7c>
    5b58: e4 9b        	cpx	$9b                     ; 0x9b <__zp_bss_size+0x41>
    5b5a: d0 19        	bne	$5b75 <printf+0x910>
    5b5c: a6 d5        	ldx	$d5                     ; 0xd5 <__zp_bss_size+0x7b>
    5b5e: e4 9a        	cpx	$9a                     ; 0x9a <__zp_bss_size+0x40>
    5b60: d0 13        	bne	$5b75 <printf+0x910>
    5b62: 18           	clc
    5b63: aa           	tax
    5b64: a5 13        	lda	$13                     ; 0x13 <__rc3>
    5b66: 65 cf        	adc	$cf                     ; 0xcf <__zp_bss_size+0x75>
    5b68: 85 12        	sta	$12                     ; 0x12 <__rc2>
    5b6a: 8a           	txa
    5b6b: 65 d0        	adc	$d0                     ; 0xd0 <__zp_bss_size+0x76>
    5b6d: 85 13        	sta	$13                     ; 0x13 <__rc3>
    5b6f: a9 30        	lda	#$30
    5b71: 92 12        	sta	($12)                   ; 0x12 <__rc2>
    5b73: 80 0f        	bra	$5b84 <printf+0x91f>
    5b75: a2 30        	ldx	#$30
    5b77: 86 35        	stx	$35                     ; 0x35 <__putchar.s>
    5b79: a2 35        	ldx	#$35
    5b7b: 86 12        	stx	$12                     ; 0x12 <__rc2>
    5b7d: a2 00        	ldx	#$0
    5b7f: 86 13        	stx	$13                     ; 0x13 <__rc3>
    5b81: 20 ae 2f     	jsr	$2fae <textPrint>
    5b84: a6 cb        	ldx	$cb                     ; 0xcb <__zp_bss_size+0x71>
    5b86: a5 cc        	lda	$cc                     ; 0xcc <__zp_bss_size+0x72>
    5b88: e8           	inx
    5b89: d0 01        	bne	$5b8c <printf+0x927>
    5b8b: 1a           	inc
    5b8c: 86 13        	stx	$13                     ; 0x13 <__rc3>
    5b8e: 86 cb        	stx	$cb                     ; 0xcb <__zp_bss_size+0x71>
    5b90: 85 cc        	sta	$cc                     ; 0xcc <__zp_bss_size+0x72>
    5b92: a4 a1        	ldy	$a1                     ; 0xa1 <__zp_bss_size+0x47>
    5b94: a6 a0        	ldx	$a0                     ; 0xa0 <__zp_bss_size+0x46>
    5b96: 86 12        	stx	$12                     ; 0x12 <__rc2>
    5b98: 88           	dey
    5b99: c0 ff        	cpy	#$ff
    5b9b: d0 02        	bne	$5b9f <printf+0x93a>
    5b9d: c6 12        	dec	$12                     ; 0x12 <__rc2>
    5b9f: 84 a1        	sty	$a1                     ; 0xa1 <__zp_bss_size+0x47>
    5ba1: a6 12        	ldx	$12                     ; 0x12 <__rc2>
    5ba3: 86 a0        	stx	$a0                     ; 0xa0 <__zp_bss_size+0x46>
    5ba5: d0 04        	bne	$5bab <printf+0x946>
    5ba7: c0 00        	cpy	#$0
    5ba9: f0 14        	beq	$5bbf <printf+0x95a>
    5bab: c5 ca        	cmp	$ca                     ; 0xca <__zp_bss_size+0x70>
    5bad: f0 03        	beq	$5bb2 <printf+0x94d>
    5baf: 4c 52 5b     	jmp	$5b52 <printf+0x8ed>
    5bb2: a6 c9        	ldx	$c9                     ; 0xc9 <__zp_bss_size+0x6f>
    5bb4: 86 12        	stx	$12                     ; 0x12 <__rc2>
    5bb6: a6 13        	ldx	$13                     ; 0x13 <__rc3>
    5bb8: e4 12        	cpx	$12                     ; 0x12 <__rc2>
    5bba: b0 c8        	bcs	$5b84 <printf+0x91f>
    5bbc: 4c 56 5b     	jmp	$5b56 <printf+0x8f1>
    5bbf: 64 a1        	stz	$a1                     ; 0xa1 <__zp_bss_size+0x47>
    5bc1: 64 a0        	stz	$a0                     ; 0xa0 <__zp_bss_size+0x46>
    5bc3: a4 96        	ldy	$96                     ; 0x96 <__zp_bss_size+0x3c>
    5bc5: a2 00        	ldx	#$0
    5bc7: e4 9f        	cpx	$9f                     ; 0x9f <__zp_bss_size+0x45>
    5bc9: d0 07        	bne	$5bd2 <printf+0x96d>
    5bcb: c4 9e        	cpy	$9e                     ; 0x9e <__zp_bss_size+0x44>
    5bcd: 90 0a        	bcc	$5bd9 <printf+0x974>
    5bcf: 4c 51 5c     	jmp	$5c51 <printf+0x9ec>
    5bd2: e4 9f        	cpx	$9f                     ; 0x9f <__zp_bss_size+0x45>
    5bd4: 90 03        	bcc	$5bd9 <printf+0x974>
    5bd6: 4c 51 5c     	jmp	$5c51 <printf+0x9ec>
    5bd9: a6 cb        	ldx	$cb                     ; 0xcb <__zp_bss_size+0x71>
    5bdb: 86 13        	stx	$13                     ; 0x13 <__rc3>
    5bdd: a5 cc        	lda	$cc                     ; 0xcc <__zp_bss_size+0x72>
    5bdf: a2 ff        	ldx	#$ff
    5be1: c6 9e        	dec	$9e                     ; 0x9e <__zp_bss_size+0x44>
    5be3: e4 9e        	cpx	$9e                     ; 0x9e <__zp_bss_size+0x44>
    5be5: d0 02        	bne	$5be9 <printf+0x984>
    5be7: c6 9f        	dec	$9f                     ; 0x9f <__zp_bss_size+0x45>
    5be9: c5 ca        	cmp	$ca                     ; 0xca <__zp_bss_size+0x70>
    5beb: d0 0c        	bne	$5bf9 <printf+0x994>
    5bed: a6 c9        	ldx	$c9                     ; 0xc9 <__zp_bss_size+0x6f>
    5bef: 86 12        	stx	$12                     ; 0x12 <__rc2>
    5bf1: a6 13        	ldx	$13                     ; 0x13 <__rc3>
    5bf3: e4 12        	cpx	$12                     ; 0x12 <__rc2>
    5bf5: 90 06        	bcc	$5bfd <printf+0x998>
    5bf7: 80 32        	bra	$5c2b <printf+0x9c6>
    5bf9: c5 ca        	cmp	$ca                     ; 0xca <__zp_bss_size+0x70>
    5bfb: b0 2e        	bcs	$5c2b <printf+0x9c6>
    5bfd: a6 d6        	ldx	$d6                     ; 0xd6 <__zp_bss_size+0x7c>
    5bff: e4 9b        	cpx	$9b                     ; 0x9b <__zp_bss_size+0x41>
    5c01: d0 19        	bne	$5c1c <printf+0x9b7>
    5c03: a6 d5        	ldx	$d5                     ; 0xd5 <__zp_bss_size+0x7b>
    5c05: e4 9a        	cpx	$9a                     ; 0x9a <__zp_bss_size+0x40>
    5c07: d0 13        	bne	$5c1c <printf+0x9b7>
    5c09: 18           	clc
    5c0a: aa           	tax
    5c0b: a5 13        	lda	$13                     ; 0x13 <__rc3>
    5c0d: 65 cf        	adc	$cf                     ; 0xcf <__zp_bss_size+0x75>
    5c0f: 85 12        	sta	$12                     ; 0x12 <__rc2>
    5c11: 8a           	txa
    5c12: 65 d0        	adc	$d0                     ; 0xd0 <__zp_bss_size+0x76>
    5c14: 85 13        	sta	$13                     ; 0x13 <__rc3>
    5c16: a9 30        	lda	#$30
    5c18: 92 12        	sta	($12)                   ; 0x12 <__rc2>
    5c1a: 80 0f        	bra	$5c2b <printf+0x9c6>
    5c1c: a2 30        	ldx	#$30
    5c1e: 86 35        	stx	$35                     ; 0x35 <__putchar.s>
    5c20: a2 35        	ldx	#$35
    5c22: 86 12        	stx	$12                     ; 0x12 <__rc2>
    5c24: a2 00        	ldx	#$0
    5c26: 86 13        	stx	$13                     ; 0x13 <__rc3>
    5c28: 20 ae 2f     	jsr	$2fae <textPrint>
    5c2b: a6 cb        	ldx	$cb                     ; 0xcb <__zp_bss_size+0x71>
    5c2d: a5 cc        	lda	$cc                     ; 0xcc <__zp_bss_size+0x72>
    5c2f: e8           	inx
    5c30: d0 01        	bne	$5c33 <printf+0x9ce>
    5c32: 1a           	inc
    5c33: 86 13        	stx	$13                     ; 0x13 <__rc3>
    5c35: 86 cb        	stx	$cb                     ; 0xcb <__zp_bss_size+0x71>
    5c37: 85 cc        	sta	$cc                     ; 0xcc <__zp_bss_size+0x72>
    5c39: a2 00        	ldx	#$0
    5c3b: e4 9f        	cpx	$9f                     ; 0x9f <__zp_bss_size+0x45>
    5c3d: d0 09        	bne	$5c48 <printf+0x9e3>
    5c3f: a4 96        	ldy	$96                     ; 0x96 <__zp_bss_size+0x3c>
    5c41: c4 9e        	cpy	$9e                     ; 0x9e <__zp_bss_size+0x44>
    5c43: b0 0c        	bcs	$5c51 <printf+0x9ec>
    5c45: 4c df 5b     	jmp	$5bdf <printf+0x97a>
    5c48: e4 9f        	cpx	$9f                     ; 0x9f <__zp_bss_size+0x45>
    5c4a: a4 96        	ldy	$96                     ; 0x96 <__zp_bss_size+0x3c>
    5c4c: b0 03        	bcs	$5c51 <printf+0x9ec>
    5c4e: 4c df 5b     	jmp	$5bdf <printf+0x97a>
    5c51: 98           	tya
    5c52: d0 03        	bne	$5c57 <printf+0x9f2>
    5c54: 4c 5a 5d     	jmp	$5d5a <printf+0xaf5>
    5c57: 88           	dey
    5c58: d0 03        	bne	$5c5d <printf+0x9f8>
    5c5a: 4c ef 5c     	jmp	$5cef <printf+0xa8a>
    5c5d: 84 9e        	sty	$9e                     ; 0x9e <__zp_bss_size+0x44>
    5c5f: a6 e1        	ldx	$e1                     ; 0xe1 <__zp_bss_size+0x87>
    5c61: 8a           	txa
    5c62: 18           	clc
    5c63: 65 9e        	adc	$9e                     ; 0x9e <__zp_bss_size+0x44>
    5c65: 85 96        	sta	$96                     ; 0x96 <__zp_bss_size+0x3c>
    5c67: a5 e2        	lda	$e2                     ; 0xe2 <__zp_bss_size+0x88>
    5c69: 69 00        	adc	#$0
    5c6b: 85 97        	sta	$97                     ; 0x97 <__zp_bss_size+0x3d>
    5c6d: 4c e1 5c     	jmp	$5ce1 <printf+0xa7c>
    5c70: a8           	tay
    5c71: a9 80        	lda	#$80
    5c73: 25 c7        	and	$c7                     ; 0xc7 <__zp_bss_size+0x6d>
    5c75: f0 04        	beq	$5c7b <printf+0xa16>
    5c77: a2 61        	ldx	#$61
    5c79: 80 02        	bra	$5c7d <printf+0xa18>
    5c7b: a2 41        	ldx	#$41
    5c7d: 86 12        	stx	$12                     ; 0x12 <__rc2>
    5c7f: 18           	clc
    5c80: 98           	tya
    5c81: 65 12        	adc	$12                     ; 0x12 <__rc2>
    5c83: 18           	clc
    5c84: 69 f6        	adc	#$f6
    5c86: a4 cb        	ldy	$cb                     ; 0xcb <__zp_bss_size+0x71>
    5c88: a6 cc        	ldx	$cc                     ; 0xcc <__zp_bss_size+0x72>
    5c8a: e4 ca        	cpx	$ca                     ; 0xca <__zp_bss_size+0x70>
    5c8c: d0 0c        	bne	$5c9a <printf+0xa35>
    5c8e: 86 14        	stx	$14                     ; 0x14 <__rc4>
    5c90: a6 c9        	ldx	$c9                     ; 0xc9 <__zp_bss_size+0x6f>
    5c92: 86 12        	stx	$12                     ; 0x12 <__rc2>
    5c94: c4 12        	cpy	$12                     ; 0x12 <__rc2>
    5c96: 90 08        	bcc	$5ca0 <printf+0xa3b>
    5c98: 80 31        	bra	$5ccb <printf+0xa66>
    5c9a: 86 14        	stx	$14                     ; 0x14 <__rc4>
    5c9c: e4 ca        	cpx	$ca                     ; 0xca <__zp_bss_size+0x70>
    5c9e: b0 2b        	bcs	$5ccb <printf+0xa66>
    5ca0: a6 d6        	ldx	$d6                     ; 0xd6 <__zp_bss_size+0x7c>
    5ca2: e4 9b        	cpx	$9b                     ; 0x9b <__zp_bss_size+0x41>
    5ca4: d0 18        	bne	$5cbe <printf+0xa59>
    5ca6: a6 d5        	ldx	$d5                     ; 0xd5 <__zp_bss_size+0x7b>
    5ca8: e4 9a        	cpx	$9a                     ; 0x9a <__zp_bss_size+0x40>
    5caa: d0 12        	bne	$5cbe <printf+0xa59>
    5cac: 18           	clc
    5cad: aa           	tax
    5cae: 98           	tya
    5caf: 65 cf        	adc	$cf                     ; 0xcf <__zp_bss_size+0x75>
    5cb1: 85 12        	sta	$12                     ; 0x12 <__rc2>
    5cb3: a5 14        	lda	$14                     ; 0x14 <__rc4>
    5cb5: 65 d0        	adc	$d0                     ; 0xd0 <__zp_bss_size+0x76>
    5cb7: 85 13        	sta	$13                     ; 0x13 <__rc3>
    5cb9: 8a           	txa
    5cba: 92 12        	sta	($12)                   ; 0x12 <__rc2>
    5cbc: 80 0d        	bra	$5ccb <printf+0xa66>
    5cbe: 85 35        	sta	$35                     ; 0x35 <__putchar.s>
    5cc0: a2 35        	ldx	#$35
    5cc2: 86 12        	stx	$12                     ; 0x12 <__rc2>
    5cc4: a2 00        	ldx	#$0
    5cc6: 86 13        	stx	$13                     ; 0x13 <__rc3>
    5cc8: 20 ae 2f     	jsr	$2fae <textPrint>
    5ccb: e6 cb        	inc	$cb                     ; 0xcb <__zp_bss_size+0x71>
    5ccd: d0 02        	bne	$5cd1 <printf+0xa6c>
    5ccf: e6 cc        	inc	$cc                     ; 0xcc <__zp_bss_size+0x72>
    5cd1: c6 9e        	dec	$9e                     ; 0x9e <__zp_bss_size+0x44>
    5cd3: a2 ff        	ldx	#$ff
    5cd5: c6 96        	dec	$96                     ; 0x96 <__zp_bss_size+0x3c>
    5cd7: e4 96        	cpx	$96                     ; 0x96 <__zp_bss_size+0x3c>
    5cd9: d0 02        	bne	$5cdd <printf+0xa78>
    5cdb: c6 97        	dec	$97                     ; 0x97 <__zp_bss_size+0x3d>
    5cdd: a5 9e        	lda	$9e                     ; 0x9e <__zp_bss_size+0x44>
    5cdf: f0 0e        	beq	$5cef <printf+0xa8a>
    5ce1: b2 96        	lda	($96)                   ; 0x96 <__zp_bss_size+0x3c>
    5ce3: c9 0a        	cmp	#$a
    5ce5: 90 03        	bcc	$5cea <printf+0xa85>
    5ce7: 4c 70 5c     	jmp	$5c70 <printf+0xa0b>
    5cea: 09 30        	ora	#$30
    5cec: 4c 86 5c     	jmp	$5c86 <printf+0xa21>
    5cef: a5 a4        	lda	$a4                     ; 0xa4 <__zp_bss_size+0x4a>
    5cf1: c9 0a        	cmp	#$a
    5cf3: b0 04        	bcs	$5cf9 <printf+0xa94>
    5cf5: 09 30        	ora	#$30
    5cf7: 80 16        	bra	$5d0f <printf+0xaaa>
    5cf9: a8           	tay
    5cfa: a9 80        	lda	#$80
    5cfc: 25 c7        	and	$c7                     ; 0xc7 <__zp_bss_size+0x6d>
    5cfe: f0 04        	beq	$5d04 <printf+0xa9f>
    5d00: a2 61        	ldx	#$61
    5d02: 80 02        	bra	$5d06 <printf+0xaa1>
    5d04: a2 41        	ldx	#$41
    5d06: 86 12        	stx	$12                     ; 0x12 <__rc2>
    5d08: 18           	clc
    5d09: 98           	tya
    5d0a: 65 12        	adc	$12                     ; 0x12 <__rc2>
    5d0c: 18           	clc
    5d0d: 69 f6        	adc	#$f6
    5d0f: a4 cb        	ldy	$cb                     ; 0xcb <__zp_bss_size+0x71>
    5d11: a6 cc        	ldx	$cc                     ; 0xcc <__zp_bss_size+0x72>
    5d13: e4 ca        	cpx	$ca                     ; 0xca <__zp_bss_size+0x70>
    5d15: d0 0c        	bne	$5d23 <printf+0xabe>
    5d17: 86 14        	stx	$14                     ; 0x14 <__rc4>
    5d19: a6 c9        	ldx	$c9                     ; 0xc9 <__zp_bss_size+0x6f>
    5d1b: 86 12        	stx	$12                     ; 0x12 <__rc2>
    5d1d: c4 12        	cpy	$12                     ; 0x12 <__rc2>
    5d1f: 90 08        	bcc	$5d29 <printf+0xac4>
    5d21: 80 31        	bra	$5d54 <printf+0xaef>
    5d23: 86 14        	stx	$14                     ; 0x14 <__rc4>
    5d25: e4 ca        	cpx	$ca                     ; 0xca <__zp_bss_size+0x70>
    5d27: b0 2b        	bcs	$5d54 <printf+0xaef>
    5d29: a6 d6        	ldx	$d6                     ; 0xd6 <__zp_bss_size+0x7c>
    5d2b: e4 9b        	cpx	$9b                     ; 0x9b <__zp_bss_size+0x41>
    5d2d: d0 18        	bne	$5d47 <printf+0xae2>
    5d2f: a6 d5        	ldx	$d5                     ; 0xd5 <__zp_bss_size+0x7b>
    5d31: e4 9a        	cpx	$9a                     ; 0x9a <__zp_bss_size+0x40>
    5d33: d0 12        	bne	$5d47 <printf+0xae2>
    5d35: 18           	clc
    5d36: aa           	tax
    5d37: 98           	tya
    5d38: 65 cf        	adc	$cf                     ; 0xcf <__zp_bss_size+0x75>
    5d3a: 85 12        	sta	$12                     ; 0x12 <__rc2>
    5d3c: a5 14        	lda	$14                     ; 0x14 <__rc4>
    5d3e: 65 d0        	adc	$d0                     ; 0xd0 <__zp_bss_size+0x76>
    5d40: 85 13        	sta	$13                     ; 0x13 <__rc3>
    5d42: 8a           	txa
    5d43: 92 12        	sta	($12)                   ; 0x12 <__rc2>
    5d45: 80 0d        	bra	$5d54 <printf+0xaef>
    5d47: 85 35        	sta	$35                     ; 0x35 <__putchar.s>
    5d49: a2 35        	ldx	#$35
    5d4b: 86 12        	stx	$12                     ; 0x12 <__rc2>
    5d4d: a2 00        	ldx	#$0
    5d4f: 86 13        	stx	$13                     ; 0x13 <__rc3>
    5d51: 20 ae 2f     	jsr	$2fae <textPrint>
    5d54: e6 cb        	inc	$cb                     ; 0xcb <__zp_bss_size+0x71>
    5d56: d0 02        	bne	$5d5a <printf+0xaf5>
    5d58: e6 cc        	inc	$cc                     ; 0xcc <__zp_bss_size+0x72>
    5d5a: a5 c7        	lda	$c7                     ; 0xc7 <__zp_bss_size+0x6d>
    5d5c: 29 01        	and	#$1
    5d5e: d0 1e        	bne	$5d7e <printf+0xb19>
    5d60: a6 cb        	ldx	$cb                     ; 0xcb <__zp_bss_size+0x71>
    5d62: 86 14        	stx	$14                     ; 0x14 <__rc4>
    5d64: a5 cc        	lda	$cc                     ; 0xcc <__zp_bss_size+0x72>
    5d66: a4 c9        	ldy	$c9                     ; 0xc9 <__zp_bss_size+0x6f>
    5d68: a6 ca        	ldx	$ca                     ; 0xca <__zp_bss_size+0x70>
    5d6a: 86 12        	stx	$12                     ; 0x12 <__rc2>
    5d6c: 86 13        	stx	$13                     ; 0x13 <__rc3>
    5d6e: c5 12        	cmp	$12                     ; 0x12 <__rc2>
    5d70: f0 03        	beq	$5d75 <printf+0xb10>
    5d72: 4c 0b 5e     	jmp	$5e0b <printf+0xba6>
    5d75: 84 12        	sty	$12                     ; 0x12 <__rc2>
    5d77: a6 14        	ldx	$14                     ; 0x14 <__rc4>
    5d79: e4 12        	cpx	$12                     ; 0x12 <__rc2>
    5d7b: 4c 0f 5e     	jmp	$5e0f <printf+0xbaa>
    5d7e: a6 cb        	ldx	$cb                     ; 0xcb <__zp_bss_size+0x71>
    5d80: 86 14        	stx	$14                     ; 0x14 <__rc4>
    5d82: a5 cc        	lda	$cc                     ; 0xcc <__zp_bss_size+0x72>
    5d84: a6 a1        	ldx	$a1                     ; 0xa1 <__zp_bss_size+0x47>
    5d86: a4 a0        	ldy	$a0                     ; 0xa0 <__zp_bss_size+0x46>
    5d88: f0 03        	beq	$5d8d <printf+0xb28>
    5d8a: 4c f7 5d     	jmp	$5df7 <printf+0xb92>
    5d8d: e0 00        	cpx	#$0
    5d8f: f0 d5        	beq	$5d66 <printf+0xb01>
    5d91: 4c f7 5d     	jmp	$5df7 <printf+0xb92>
    5d94: c5 ca        	cmp	$ca                     ; 0xca <__zp_bss_size+0x70>
    5d96: b0 2e        	bcs	$5dc6 <printf+0xb61>
    5d98: a6 d6        	ldx	$d6                     ; 0xd6 <__zp_bss_size+0x7c>
    5d9a: e4 9b        	cpx	$9b                     ; 0x9b <__zp_bss_size+0x41>
    5d9c: d0 19        	bne	$5db7 <printf+0xb52>
    5d9e: a6 d5        	ldx	$d5                     ; 0xd5 <__zp_bss_size+0x7b>
    5da0: e4 9a        	cpx	$9a                     ; 0x9a <__zp_bss_size+0x40>
    5da2: d0 13        	bne	$5db7 <printf+0xb52>
    5da4: 18           	clc
    5da5: aa           	tax
    5da6: a5 14        	lda	$14                     ; 0x14 <__rc4>
    5da8: 65 cf        	adc	$cf                     ; 0xcf <__zp_bss_size+0x75>
    5daa: 85 12        	sta	$12                     ; 0x12 <__rc2>
    5dac: 8a           	txa
    5dad: 65 d0        	adc	$d0                     ; 0xd0 <__zp_bss_size+0x76>
    5daf: 85 13        	sta	$13                     ; 0x13 <__rc3>
    5db1: a9 20        	lda	#$20
    5db3: 92 12        	sta	($12)                   ; 0x12 <__rc2>
    5db5: 80 0f        	bra	$5dc6 <printf+0xb61>
    5db7: a2 20        	ldx	#$20
    5db9: 86 35        	stx	$35                     ; 0x35 <__putchar.s>
    5dbb: a2 35        	ldx	#$35
    5dbd: 86 12        	stx	$12                     ; 0x12 <__rc2>
    5dbf: a2 00        	ldx	#$0
    5dc1: 86 13        	stx	$13                     ; 0x13 <__rc3>
    5dc3: 20 ae 2f     	jsr	$2fae <textPrint>
    5dc6: a6 cb        	ldx	$cb                     ; 0xcb <__zp_bss_size+0x71>
    5dc8: a5 cc        	lda	$cc                     ; 0xcc <__zp_bss_size+0x72>
    5dca: e8           	inx
    5dcb: d0 01        	bne	$5dce <printf+0xb69>
    5dcd: 1a           	inc
    5dce: 86 14        	stx	$14                     ; 0x14 <__rc4>
    5dd0: 86 cb        	stx	$cb                     ; 0xcb <__zp_bss_size+0x71>
    5dd2: 85 cc        	sta	$cc                     ; 0xcc <__zp_bss_size+0x72>
    5dd4: a6 a1        	ldx	$a1                     ; 0xa1 <__zp_bss_size+0x47>
    5dd6: 86 12        	stx	$12                     ; 0x12 <__rc2>
    5dd8: a6 a0        	ldx	$a0                     ; 0xa0 <__zp_bss_size+0x46>
    5dda: 86 13        	stx	$13                     ; 0x13 <__rc3>
    5ddc: a2 ff        	ldx	#$ff
    5dde: c6 12        	dec	$12                     ; 0x12 <__rc2>
    5de0: e4 12        	cpx	$12                     ; 0x12 <__rc2>
    5de2: d0 02        	bne	$5de6 <printf+0xb81>
    5de4: c6 13        	dec	$13                     ; 0x13 <__rc3>
    5de6: a6 12        	ldx	$12                     ; 0x12 <__rc2>
    5de8: 86 a1        	stx	$a1                     ; 0xa1 <__zp_bss_size+0x47>
    5dea: a6 13        	ldx	$13                     ; 0x13 <__rc3>
    5dec: 86 a0        	stx	$a0                     ; 0xa0 <__zp_bss_size+0x46>
    5dee: d0 07        	bne	$5df7 <printf+0xb92>
    5df0: a6 12        	ldx	$12                     ; 0x12 <__rc2>
    5df2: d0 03        	bne	$5df7 <printf+0xb92>
    5df4: 4c 66 5d     	jmp	$5d66 <printf+0xb01>
    5df7: c5 ca        	cmp	$ca                     ; 0xca <__zp_bss_size+0x70>
    5df9: f0 03        	beq	$5dfe <printf+0xb99>
    5dfb: 4c 94 5d     	jmp	$5d94 <printf+0xb2f>
    5dfe: a6 c9        	ldx	$c9                     ; 0xc9 <__zp_bss_size+0x6f>
    5e00: 86 12        	stx	$12                     ; 0x12 <__rc2>
    5e02: a6 14        	ldx	$14                     ; 0x14 <__rc4>
    5e04: e4 12        	cpx	$12                     ; 0x12 <__rc2>
    5e06: b0 be        	bcs	$5dc6 <printf+0xb61>
    5e08: 4c 98 5d     	jmp	$5d98 <printf+0xb33>
    5e0b: 86 12        	stx	$12                     ; 0x12 <__rc2>
    5e0d: c5 12        	cmp	$12                     ; 0x12 <__rc2>
    5e0f: 98           	tya
    5e10: a0 01        	ldy	#$1
    5e12: 90 20        	bcc	$5e34 <printf+0xbcf>
    5e14: a6 13        	ldx	$13                     ; 0x13 <__rc3>
    5e16: d0 03        	bne	$5e1b <printf+0xbb6>
    5e18: aa           	tax
    5e19: f0 19        	beq	$5e34 <printf+0xbcf>
    5e1b: 18           	clc
    5e1c: 65 cf        	adc	$cf                     ; 0xcf <__zp_bss_size+0x75>
    5e1e: 85 12        	sta	$12                     ; 0x12 <__rc2>
    5e20: a5 13        	lda	$13                     ; 0x13 <__rc3>
    5e22: 65 d0        	adc	$d0                     ; 0xd0 <__zp_bss_size+0x76>
    5e24: 85 13        	sta	$13                     ; 0x13 <__rc3>
    5e26: a2 ff        	ldx	#$ff
    5e28: c6 12        	dec	$12                     ; 0x12 <__rc2>
    5e2a: e4 12        	cpx	$12                     ; 0x12 <__rc2>
    5e2c: d0 02        	bne	$5e30 <printf+0xbcb>
    5e2e: c6 13        	dec	$13                     ; 0x13 <__rc3>
    5e30: a9 00        	lda	#$0
    5e32: 92 12        	sta	($12)                   ; 0x12 <__rc2>
    5e34: e6 98        	inc	$98                     ; 0x98 <__zp_bss_size+0x3e>
    5e36: d0 02        	bne	$5e3a <printf+0xbd5>
    5e38: e6 99        	inc	$99                     ; 0x99 <__zp_bss_size+0x3f>
    5e3a: a6 99        	ldx	$99                     ; 0x99 <__zp_bss_size+0x3f>
    5e3c: e4 9d        	cpx	$9d                     ; 0x9d <__zp_bss_size+0x43>
    5e3e: f0 03        	beq	$5e43 <printf+0xbde>
    5e40: 4c ca 52     	jmp	$52ca <printf+0x65>
    5e43: a6 98        	ldx	$98                     ; 0x98 <__zp_bss_size+0x3e>
    5e45: e4 9c        	cpx	$9c                     ; 0x9c <__zp_bss_size+0x42>
    5e47: f0 03        	beq	$5e4c <printf+0xbe7>
    5e49: 4c ca 52     	jmp	$52ca <printf+0x65>
    5e4c: b2 9c        	lda	($9c)                   ; 0x9c <__zp_bss_size+0x42>
    5e4e: a2 00        	ldx	#$0
    5e50: 86 9a        	stx	$9a                     ; 0x9a <__zp_bss_size+0x40>
    5e52: a2 00        	ldx	#$0
    5e54: 86 9b        	stx	$9b                     ; 0x9b <__zp_bss_size+0x41>
    5e56: 4c de 52     	jmp	$52de <printf+0x79>
    5e59: e4 9f        	cpx	$9f                     ; 0x9f <__zp_bss_size+0x45>
    5e5b: a6 97        	ldx	$97                     ; 0x97 <__zp_bss_size+0x3d>
    5e5d: b0 03        	bcs	$5e62 <printf+0xbfd>
    5e5f: 4c 2f 59     	jmp	$592f <printf+0x6ca>
    5e62: a5 96        	lda	$96                     ; 0x96 <__zp_bss_size+0x3c>
    5e64: 85 9e        	sta	$9e                     ; 0x9e <__zp_bss_size+0x44>
    5e66: 64 9f        	stz	$9f                     ; 0x9f <__zp_bss_size+0x45>
    5e68: e6 9e        	inc	$9e                     ; 0x9e <__zp_bss_size+0x44>
    5e6a: f0 03        	beq	$5e6f <printf+0xc0a>
    5e6c: 4c 2f 59     	jmp	$592f <printf+0x6ca>
    5e6f: e6 9f        	inc	$9f                     ; 0x9f <__zp_bss_size+0x45>
    5e71: 4c 2f 59     	jmp	$592f <printf+0x6ca>
    5e74: a2 58        	ldx	#$58
    5e76: 86 e0        	stx	$e0                     ; 0xe0 <__zp_bss_size+0x86>
    5e78: a2 01        	ldx	#$1
    5e7a: 86 db        	stx	$db                     ; 0xdb <__zp_bss_size+0x81>
    5e7c: a2 30        	ldx	#$30
    5e7e: 86 df        	stx	$df                     ; 0xdf <__zp_bss_size+0x85>
    5e80: a9 02        	lda	#$2
    5e82: a2 00        	ldx	#$0
    5e84: 86 dc        	stx	$dc                     ; 0xdc <__zp_bss_size+0x82>
    5e86: 4c 70 59     	jmp	$5970 <printf+0x70b>
    5e89: 64 a1        	stz	$a1                     ; 0xa1 <__zp_bss_size+0x47>
    5e8b: 64 a0        	stz	$a0                     ; 0xa0 <__zp_bss_size+0x46>
    5e8d: 4c c5 5b     	jmp	$5bc5 <printf+0x960>
    5e90: 60           	rts

00005e91 <malloc>:
    5e91: a8           	tay
    5e92: 8a           	txa
    5e93: a2 00        	ldx	#$0
    5e95: 86 12        	stx	$12                     ; 0x12 <__rc2>
    5e97: a2 00        	ldx	#$0
    5e99: 86 13        	stx	$13                     ; 0x13 <__rc3>
    5e9b: aa           	tax
    5e9c: d0 07        	bne	$5ea5 <malloc+0x14>
    5e9e: c0 00        	cpy	#$0
    5ea0: d0 03        	bne	$5ea5 <malloc+0x14>
    5ea2: 4c 95 5f     	jmp	$5f95 <malloc+0x104>
    5ea5: 84 16        	sty	$16                     ; 0x16 <__rc6>
    5ea7: aa           	tax
    5ea8: d0 0e        	bne	$5eb8 <malloc+0x27>
    5eaa: a6 16        	ldx	$16                     ; 0x16 <__rc6>
    5eac: e0 07        	cpx	#$7
    5eae: b0 0c        	bcs	$5ebc <malloc+0x2b>
    5eb0: a2 08        	ldx	#$8
    5eb2: 86 92        	stx	$92                     ; 0x92 <__zp_bss_size+0x38>
    5eb4: a9 00        	lda	#$0
    5eb6: 80 2f        	bra	$5ee7 <malloc+0x56>
    5eb8: c9 00        	cmp	#$0
    5eba: 90 f4        	bcc	$5eb0 <malloc+0x1f>
    5ebc: a8           	tay
    5ebd: a5 16        	lda	$16                     ; 0x16 <__rc6>
    5ebf: 29 01        	and	#$1
    5ec1: a2 02        	ldx	#$2
    5ec3: 64 14        	stz	$14                     ; 0x14 <__rc4>
    5ec5: c9 00        	cmp	#$0
    5ec7: f0 02        	beq	$5ecb <malloc+0x3a>
    5ec9: a2 03        	ldx	#$3
    5ecb: 86 15        	stx	$15                     ; 0x15 <__rc5>
    5ecd: 18           	clc
    5ece: a5 16        	lda	$16                     ; 0x16 <__rc6>
    5ed0: 65 15        	adc	$15                     ; 0x15 <__rc5>
    5ed2: aa           	tax
    5ed3: 98           	tya
    5ed4: 65 14        	adc	$14                     ; 0x14 <__rc4>
    5ed6: 90 03        	bcc	$5edb <malloc+0x4a>
    5ed8: 4c 95 5f     	jmp	$5f95 <malloc+0x104>
    5edb: 86 92        	stx	$92                     ; 0x92 <__zp_bss_size+0x38>
    5edd: a8           	tay
    5ede: d0 07        	bne	$5ee7 <malloc+0x56>
    5ee0: e0 00        	cpx	#$0
    5ee2: d0 03        	bne	$5ee7 <malloc+0x56>
    5ee4: 4c 95 5f     	jmp	$5f95 <malloc+0x104>
    5ee7: 85 91        	sta	$91                     ; 0x91 <__zp_bss_size+0x37>
    5ee9: a5 8a        	lda	$8a                     ; 0x8a <_ZN12_GLOBAL__N_111initializedE>
    5eeb: 29 01        	and	#$1
    5eed: d0 2c        	bne	$5f1b <malloc+0x8a>
    5eef: a9 00        	lda	#$0
    5ef1: a2 10        	ldx	#$10
    5ef3: a0 58        	ldy	#$58
    5ef5: 84 12        	sty	$12                     ; 0x12 <__rc2>
    5ef7: a0 86        	ldy	#$86
    5ef9: 84 13        	sty	$13                     ; 0x13 <__rc3>
    5efb: 20 1c 03     	jsr	$31c <_ZN12_GLOBAL__N_19FreeChunk6insertEPvj>
    5efe: a2 00        	ldx	#$0
    5f00: 86 12        	stx	$12                     ; 0x12 <__rc2>
    5f02: a2 00        	ldx	#$0
    5f04: 86 13        	stx	$13                     ; 0x13 <__rc3>
    5f06: ae 59 86     	ldx	$8659                   ; 0x8659 <__heap_start+0x1>
    5f09: a9 fe        	lda	#$fe
    5f0b: 2d 58 86     	and	$8658                   ; 0x8658 <__heap_start>
    5f0e: 8d 58 86     	sta	$8658                   ; 0x8658 <__heap_start>
    5f11: 8e 59 86     	stx	$8659                   ; 0x8659 <__heap_start+0x1>
    5f14: a2 01        	ldx	#$1
    5f16: 8e 54 86     	stx	$8654                   ; 0x8654 <_ZN12_GLOBAL__N_19last_freeE>
    5f19: 86 8a        	stx	$8a                     ; 0x8a <_ZN12_GLOBAL__N_111initializedE>
    5f1b: ae 55 86     	ldx	$8655                   ; 0x8655 <_ZN12_GLOBAL__N_19free_listE>
    5f1e: 86 16        	stx	$16                     ; 0x16 <__rc6>
    5f20: ac 56 86     	ldy	$8656                   ; 0x8656 <_ZN12_GLOBAL__N_19free_listE+0x1>
    5f23: 84 17        	sty	$17                     ; 0x17 <__rc7>
    5f25: a9 00        	lda	#$0
    5f27: 85 14        	sta	$14                     ; 0x14 <__rc4>
    5f29: a9 00        	lda	#$0
    5f2b: 85 15        	sta	$15                     ; 0x15 <__rc5>
    5f2d: c4 15        	cpy	$15                     ; 0x15 <__rc5>
    5f2f: d0 07        	bne	$5f38 <malloc+0xa7>
    5f31: e4 14        	cpx	$14                     ; 0x14 <__rc4>
    5f33: d0 03        	bne	$5f38 <malloc+0xa7>
    5f35: 4c 95 5f     	jmp	$5f95 <malloc+0x104>
    5f38: a2 00        	ldx	#$0
    5f3a: a0 10        	ldy	#$10
    5f3c: 86 14        	stx	$14                     ; 0x14 <__rc4>
    5f3e: 84 15        	sty	$15                     ; 0x15 <__rc5>
    5f40: 18           	clc
    5f41: a9 58        	lda	#$58
    5f43: 65 14        	adc	$14                     ; 0x14 <__rc4>
    5f45: 85 18        	sta	$18                     ; 0x18 <__rc8>
    5f47: a9 86        	lda	#$86
    5f49: 65 15        	adc	$15                     ; 0x15 <__rc5>
    5f4b: 85 95        	sta	$95                     ; 0x95 <__zp_bss_size+0x3b>
    5f4d: a0 01        	ldy	#$1
    5f4f: a6 91        	ldx	$91                     ; 0x91 <__zp_bss_size+0x37>
    5f51: 86 19        	stx	$19                     ; 0x19 <__rc9>
    5f53: a6 16        	ldx	$16                     ; 0x16 <__rc6>
    5f55: 86 14        	stx	$14                     ; 0x14 <__rc4>
    5f57: a6 17        	ldx	$17                     ; 0x17 <__rc7>
    5f59: 86 15        	stx	$15                     ; 0x15 <__rc5>
    5f5b: b1 14        	lda	($14),y                 ; 0x14 <__rc4>
    5f5d: c5 19        	cmp	$19                     ; 0x19 <__rc9>
    5f5f: d0 0e        	bne	$5f6f <malloc+0xde>
    5f61: b2 14        	lda	($14)                   ; 0x14 <__rc4>
    5f63: 29 fe        	and	#$fe
    5f65: a6 92        	ldx	$92                     ; 0x92 <__zp_bss_size+0x38>
    5f67: 86 1a        	stx	$1a                     ; 0x1a <__rc10>
    5f69: c5 1a        	cmp	$1a                     ; 0x1a <__rc10>
    5f6b: b0 29        	bcs	$5f96 <malloc+0x105>
    5f6d: 80 04        	bra	$5f73 <malloc+0xe2>
    5f6f: c5 19        	cmp	$19                     ; 0x19 <__rc9>
    5f71: b0 23        	bcs	$5f96 <malloc+0x105>
    5f73: a5 14        	lda	$14                     ; 0x14 <__rc4>
    5f75: 18           	clc
    5f76: 69 02        	adc	#$2
    5f78: 85 1a        	sta	$1a                     ; 0x1a <__rc10>
    5f7a: a5 15        	lda	$15                     ; 0x15 <__rc5>
    5f7c: 69 00        	adc	#$0
    5f7e: 85 1b        	sta	$1b                     ; 0x1b <__rc11>
    5f80: a0 02        	ldy	#$2
    5f82: b1 14        	lda	($14),y                 ; 0x14 <__rc4>
    5f84: 85 14        	sta	$14                     ; 0x14 <__rc4>
    5f86: 88           	dey
    5f87: b1 1a        	lda	($1a),y                 ; 0x1a <__rc10>
    5f89: 85 15        	sta	$15                     ; 0x15 <__rc5>
    5f8b: c5 17        	cmp	$17                     ; 0x17 <__rc7>
    5f8d: d0 cc        	bne	$5f5b <malloc+0xca>
    5f8f: a5 14        	lda	$14                     ; 0x14 <__rc4>
    5f91: c5 16        	cmp	$16                     ; 0x16 <__rc6>
    5f93: d0 c6        	bne	$5f5b <malloc+0xca>
    5f95: 60           	rts
    5f96: a6 18        	ldx	$18                     ; 0x18 <__rc8>
    5f98: 86 96        	stx	$96                     ; 0x96 <__zp_bss_size+0x3c>
    5f9a: a6 14        	ldx	$14                     ; 0x14 <__rc4>
    5f9c: 86 12        	stx	$12                     ; 0x12 <__rc2>
    5f9e: a6 15        	ldx	$15                     ; 0x15 <__rc5>
    5fa0: 86 13        	stx	$13                     ; 0x13 <__rc3>
    5fa2: a6 14        	ldx	$14                     ; 0x14 <__rc4>
    5fa4: 86 93        	stx	$93                     ; 0x93 <__zp_bss_size+0x39>
    5fa6: a6 15        	ldx	$15                     ; 0x15 <__rc5>
    5fa8: 86 94        	stx	$94                     ; 0x94 <__zp_bss_size+0x3a>
    5faa: 20 56 04     	jsr	$456 <_ZN12_GLOBAL__N_19FreeChunk6removeEv>
    5fad: a6 93        	ldx	$93                     ; 0x93 <__zp_bss_size+0x39>
    5faf: 86 12        	stx	$12                     ; 0x12 <__rc2>
    5fb1: a6 94        	ldx	$94                     ; 0x94 <__zp_bss_size+0x3a>
    5fb3: 86 13        	stx	$13                     ; 0x13 <__rc3>
    5fb5: a0 01        	ldy	#$1
    5fb7: b1 12        	lda	($12),y                 ; 0x12 <__rc2>
    5fb9: 85 15        	sta	$15                     ; 0x15 <__rc5>
    5fbb: a9 fe        	lda	#$fe
    5fbd: 32 12        	and	($12)                   ; 0x12 <__rc2>
    5fbf: 38           	sec
    5fc0: a6 92        	ldx	$92                     ; 0x92 <__zp_bss_size+0x38>
    5fc2: 86 14        	stx	$14                     ; 0x14 <__rc4>
    5fc4: 85 17        	sta	$17                     ; 0x17 <__rc7>
    5fc6: e5 14        	sbc	$14                     ; 0x14 <__rc4>
    5fc8: a8           	tay
    5fc9: a6 91        	ldx	$91                     ; 0x91 <__zp_bss_size+0x37>
    5fcb: 86 14        	stx	$14                     ; 0x14 <__rc4>
    5fcd: a5 15        	lda	$15                     ; 0x15 <__rc5>
    5fcf: 85 16        	sta	$16                     ; 0x16 <__rc6>
    5fd1: e5 14        	sbc	$14                     ; 0x14 <__rc4>
    5fd3: d0 06        	bne	$5fdb <malloc+0x14a>
    5fd5: 85 18        	sta	$18                     ; 0x18 <__rc8>
    5fd7: c0 08        	cpy	#$8
    5fd9: 80 04        	bra	$5fdf <malloc+0x14e>
    5fdb: 85 18        	sta	$18                     ; 0x18 <__rc8>
    5fdd: c9 00        	cmp	#$0
    5fdf: a6 96        	ldx	$96                     ; 0x96 <__zp_bss_size+0x3c>
    5fe1: 86 14        	stx	$14                     ; 0x14 <__rc4>
    5fe3: a6 95        	ldx	$95                     ; 0x95 <__zp_bss_size+0x3b>
    5fe5: 86 15        	stx	$15                     ; 0x15 <__rc5>
    5fe7: a5 17        	lda	$17                     ; 0x17 <__rc7>
    5fe9: 90 42        	bcc	$602d <malloc+0x19c>
    5feb: 18           	clc
    5fec: a5 92        	lda	$92                     ; 0x92 <__zp_bss_size+0x38>
    5fee: 85 92        	sta	$92                     ; 0x92 <__zp_bss_size+0x38>
    5ff0: 65 12        	adc	$12                     ; 0x12 <__rc2>
    5ff2: 85 12        	sta	$12                     ; 0x12 <__rc2>
    5ff4: a6 91        	ldx	$91                     ; 0x91 <__zp_bss_size+0x37>
    5ff6: 86 91        	stx	$91                     ; 0x91 <__zp_bss_size+0x37>
    5ff8: a5 91        	lda	$91                     ; 0x91 <__zp_bss_size+0x37>
    5ffa: 65 13        	adc	$13                     ; 0x13 <__rc3>
    5ffc: 85 13        	sta	$13                     ; 0x13 <__rc3>
    5ffe: a6 18        	ldx	$18                     ; 0x18 <__rc8>
    6000: 98           	tya
    6001: 20 1c 03     	jsr	$31c <_ZN12_GLOBAL__N_19FreeChunk6insertEPvj>
    6004: a6 93        	ldx	$93                     ; 0x93 <__zp_bss_size+0x39>
    6006: 86 12        	stx	$12                     ; 0x12 <__rc2>
    6008: a6 94        	ldx	$94                     ; 0x94 <__zp_bss_size+0x3a>
    600a: 86 13        	stx	$13                     ; 0x13 <__rc3>
    600c: a5 92        	lda	$92                     ; 0x92 <__zp_bss_size+0x38>
    600e: 29 fe        	and	#$fe
    6010: 85 14        	sta	$14                     ; 0x14 <__rc4>
    6012: a0 01        	ldy	#$1
    6014: 98           	tya
    6015: 32 12        	and	($12)                   ; 0x12 <__rc2>
    6017: 05 14        	ora	$14                     ; 0x14 <__rc4>
    6019: 92 12        	sta	($12)                   ; 0x12 <__rc2>
    601b: a5 91        	lda	$91                     ; 0x91 <__zp_bss_size+0x37>
    601d: 91 12        	sta	($12),y                 ; 0x12 <__rc2>
    601f: a5 14        	lda	$14                     ; 0x14 <__rc4>
    6021: a6 91        	ldx	$91                     ; 0x91 <__zp_bss_size+0x37>
    6023: 86 16        	stx	$16                     ; 0x16 <__rc6>
    6025: a6 96        	ldx	$96                     ; 0x96 <__zp_bss_size+0x3c>
    6027: 86 14        	stx	$14                     ; 0x14 <__rc4>
    6029: a6 95        	ldx	$95                     ; 0x95 <__zp_bss_size+0x3b>
    602b: 86 15        	stx	$15                     ; 0x15 <__rc5>
    602d: 18           	clc
    602e: 65 12        	adc	$12                     ; 0x12 <__rc2>
    6030: a8           	tay
    6031: a5 16        	lda	$16                     ; 0x16 <__rc6>
    6033: 65 13        	adc	$13                     ; 0x13 <__rc3>
    6035: c5 15        	cmp	$15                     ; 0x15 <__rc5>
    6037: d0 09        	bne	$6042 <malloc+0x1b1>
    6039: c4 14        	cpy	$14                     ; 0x14 <__rc4>
    603b: d0 05        	bne	$6042 <malloc+0x1b1>
    603d: 9c 54 86     	stz	$8654                   ; 0x8654 <_ZN12_GLOBAL__N_19last_freeE>
    6040: 80 14        	bra	$6056 <malloc+0x1c5>
    6042: 84 14        	sty	$14                     ; 0x14 <__rc4>
    6044: 85 15        	sta	$15                     ; 0x15 <__rc5>
    6046: a0 01        	ldy	#$1
    6048: b1 14        	lda	($14),y                 ; 0x14 <__rc4>
    604a: 85 16        	sta	$16                     ; 0x16 <__rc6>
    604c: a9 fe        	lda	#$fe
    604e: 32 14        	and	($14)                   ; 0x14 <__rc4>
    6050: 92 14        	sta	($14)                   ; 0x14 <__rc4>
    6052: a5 16        	lda	$16                     ; 0x16 <__rc6>
    6054: 91 14        	sta	($14),y                 ; 0x14 <__rc4>
    6056: a5 12        	lda	$12                     ; 0x12 <__rc2>
    6058: 18           	clc
    6059: 69 02        	adc	#$2
    605b: 85 12        	sta	$12                     ; 0x12 <__rc2>
    605d: a5 13        	lda	$13                     ; 0x13 <__rc3>
    605f: 69 00        	adc	#$0
    6061: 85 13        	sta	$13                     ; 0x13 <__rc3>
    6063: 60           	rts

00006064 <memcpy>:
    6064: a8           	tay
    6065: 8a           	txa
    6066: d0 03        	bne	$606b <memcpy+0x7>
    6068: 98           	tya
    6069: f0 24        	beq	$608f <memcpy+0x2b>
    606b: a5 12        	lda	$12                     ; 0x12 <__rc2>
    606d: 85 16        	sta	$16                     ; 0x16 <__rc6>
    606f: a5 13        	lda	$13                     ; 0x13 <__rc3>
    6071: 85 17        	sta	$17                     ; 0x17 <__rc7>
    6073: b2 14        	lda	($14)                   ; 0x14 <__rc4>
    6075: 92 16        	sta	($16)                   ; 0x16 <__rc6>
    6077: e6 16        	inc	$16                     ; 0x16 <__rc6>
    6079: d0 02        	bne	$607d <memcpy+0x19>
    607b: e6 17        	inc	$17                     ; 0x17 <__rc7>
    607d: e6 14        	inc	$14                     ; 0x14 <__rc4>
    607f: d0 02        	bne	$6083 <memcpy+0x1f>
    6081: e6 15        	inc	$15                     ; 0x15 <__rc5>
    6083: 88           	dey
    6084: c0 ff        	cpy	#$ff
    6086: d0 01        	bne	$6089 <memcpy+0x25>
    6088: ca           	dex
    6089: 8a           	txa
    608a: d0 e7        	bne	$6073 <memcpy+0xf>
    608c: 98           	tya
    608d: d0 e4        	bne	$6073 <memcpy+0xf>
    608f: 60           	rts

00006090 <__memset>:
    6090: a4 14        	ldy	$14                     ; 0x14 <__rc4>
    6092: d0 04        	bne	$6098 <__memset+0x8>
    6094: e0 00        	cpx	#$0
    6096: f0 17        	beq	$60af <__memset+0x1f>
    6098: 92 12        	sta	($12)                   ; 0x12 <__rc2>
    609a: e6 12        	inc	$12                     ; 0x12 <__rc2>
    609c: d0 02        	bne	$60a0 <__memset+0x10>
    609e: e6 13        	inc	$13                     ; 0x13 <__rc3>
    60a0: ca           	dex
    60a1: e0 ff        	cpx	#$ff
    60a3: d0 02        	bne	$60a7 <__memset+0x17>
    60a5: c6 14        	dec	$14                     ; 0x14 <__rc4>
    60a7: a4 14        	ldy	$14                     ; 0x14 <__rc4>
    60a9: d0 ed        	bne	$6098 <__memset+0x8>
    60ab: e0 00        	cpx	#$0
    60ad: d0 e9        	bne	$6098 <__memset+0x8>
    60af: 60           	rts

000060b0 <__ashlsi3>:
    60b0: 86 15        	stx	$15                     ; 0x15 <__rc5>
    60b2: a6 14        	ldx	$14                     ; 0x14 <__rc4>
    60b4: f0 0e        	beq	$60c4 <__ashlsi3+0x14>
    60b6: a6 14        	ldx	$14                     ; 0x14 <__rc4>
    60b8: ca           	dex
    60b9: 0a           	asl
    60ba: 26 15        	rol	$15                     ; 0x15 <__rc5>
    60bc: 26 12        	rol	$12                     ; 0x12 <__rc2>
    60be: 26 13        	rol	$13                     ; 0x13 <__rc3>
    60c0: e0 00        	cpx	#$0
    60c2: d0 f4        	bne	$60b8 <__ashlsi3+0x8>
    60c4: a6 15        	ldx	$15                     ; 0x15 <__rc5>
    60c6: 60           	rts

000060c7 <__lshrsi3>:
    60c7: 86 15        	stx	$15                     ; 0x15 <__rc5>
    60c9: a6 14        	ldx	$14                     ; 0x14 <__rc4>
    60cb: f0 0e        	beq	$60db <__lshrsi3+0x14>
    60cd: a6 14        	ldx	$14                     ; 0x14 <__rc4>
    60cf: ca           	dex
    60d0: 46 13        	lsr	$13                     ; 0x13 <__rc3>
    60d2: 66 12        	ror	$12                     ; 0x12 <__rc2>
    60d4: 66 15        	ror	$15                     ; 0x15 <__rc5>
    60d6: 6a           	ror
    60d7: e0 00        	cpx	#$0
    60d9: d0 f4        	bne	$60cf <__lshrsi3+0x8>
    60db: a6 15        	ldx	$15                     ; 0x15 <__rc5>
    60dd: 60           	rts

000060de <__mulqi3>:
    60de: e0 00        	cpx	#$0
    60e0: f0 14        	beq	$60f6 <__mulqi3+0x18>
    60e2: 85 12        	sta	$12                     ; 0x12 <__rc2>
    60e4: 86 13        	stx	$13                     ; 0x13 <__rc3>
    60e6: a9 00        	lda	#$0
    60e8: 46 13        	lsr	$13                     ; 0x13 <__rc3>
    60ea: 90 03        	bcc	$60ef <__mulqi3+0x11>
    60ec: 18           	clc
    60ed: 65 12        	adc	$12                     ; 0x12 <__rc2>
    60ef: 06 12        	asl	$12                     ; 0x12 <__rc2>
    60f1: a6 13        	ldx	$13                     ; 0x13 <__rc3>
    60f3: d0 f3        	bne	$60e8 <__mulqi3+0xa>
    60f5: 60           	rts
    60f6: a9 00        	lda	#$0
    60f8: 60           	rts

000060f9 <__mulhi3>:
    60f9: a4 13        	ldy	$13                     ; 0x13 <__rc3>
    60fb: d0 04        	bne	$6101 <__mulhi3+0x8>
    60fd: a4 12        	ldy	$12                     ; 0x12 <__rc2>
    60ff: f0 25        	beq	$6126 <__mulhi3+0x2d>
    6101: 85 14        	sta	$14                     ; 0x14 <__rc4>
    6103: 86 15        	stx	$15                     ; 0x15 <__rc5>
    6105: a0 00        	ldy	#$0
    6107: 98           	tya
    6108: 46 13        	lsr	$13                     ; 0x13 <__rc3>
    610a: 66 12        	ror	$12                     ; 0x12 <__rc2>
    610c: 90 09        	bcc	$6117 <__mulhi3+0x1e>
    610e: aa           	tax
    610f: 98           	tya
    6110: 18           	clc
    6111: 65 14        	adc	$14                     ; 0x14 <__rc4>
    6113: a8           	tay
    6114: 8a           	txa
    6115: 65 15        	adc	$15                     ; 0x15 <__rc5>
    6117: 06 14        	asl	$14                     ; 0x14 <__rc4>
    6119: 26 15        	rol	$15                     ; 0x15 <__rc5>
    611b: a6 13        	ldx	$13                     ; 0x13 <__rc3>
    611d: d0 e9        	bne	$6108 <__mulhi3+0xf>
    611f: a6 12        	ldx	$12                     ; 0x12 <__rc2>
    6121: d0 e5        	bne	$6108 <__mulhi3+0xf>
    6123: aa           	tax
    6124: 98           	tya
    6125: 60           	rts
    6126: a0 00        	ldy	#$0
    6128: 98           	tya
    6129: 80 f8        	bra	$6123 <__mulhi3+0x2a>

0000612b <__mulsi3>:
    612b: a4 17        	ldy	$17                     ; 0x17 <__rc7>
    612d: d0 0f        	bne	$613e <__mulsi3+0x13>
    612f: a4 16        	ldy	$16                     ; 0x16 <__rc6>
    6131: d0 0b        	bne	$613e <__mulsi3+0x13>
    6133: a4 15        	ldy	$15                     ; 0x15 <__rc5>
    6135: d0 07        	bne	$613e <__mulsi3+0x13>
    6137: a4 14        	ldy	$14                     ; 0x14 <__rc4>
    6139: d0 03        	bne	$613e <__mulsi3+0x13>
    613b: 4c 92 61     	jmp	$6192 <__mulsi3+0x67>
    613e: 85 18        	sta	$18                     ; 0x18 <__rc8>
    6140: 86 19        	stx	$19                     ; 0x19 <__rc9>
    6142: a0 00        	ldy	#$0
    6144: a2 00        	ldx	#$0
    6146: 64 1a        	stz	$1a                     ; 0x1a <__rc10>
    6148: 98           	tya
    6149: 46 17        	lsr	$17                     ; 0x17 <__rc7>
    614b: 66 16        	ror	$16                     ; 0x16 <__rc6>
    614d: 66 15        	ror	$15                     ; 0x15 <__rc5>
    614f: 66 14        	ror	$14                     ; 0x14 <__rc4>
    6151: 90 15        	bcc	$6168 <__mulsi3+0x3d>
    6153: 85 1b        	sta	$1b                     ; 0x1b <__rc11>
    6155: 98           	tya
    6156: 18           	clc
    6157: 65 18        	adc	$18                     ; 0x18 <__rc8>
    6159: a8           	tay
    615a: 8a           	txa
    615b: 65 19        	adc	$19                     ; 0x19 <__rc9>
    615d: aa           	tax
    615e: a5 1a        	lda	$1a                     ; 0x1a <__rc10>
    6160: 65 12        	adc	$12                     ; 0x12 <__rc2>
    6162: 85 1a        	sta	$1a                     ; 0x1a <__rc10>
    6164: a5 1b        	lda	$1b                     ; 0x1b <__rc11>
    6166: 65 13        	adc	$13                     ; 0x13 <__rc3>
    6168: 06 18        	asl	$18                     ; 0x18 <__rc8>
    616a: 26 19        	rol	$19                     ; 0x19 <__rc9>
    616c: 26 12        	rol	$12                     ; 0x12 <__rc2>
    616e: 26 13        	rol	$13                     ; 0x13 <__rc3>
    6170: e6 17        	inc	$17                     ; 0x17 <__rc7>
    6172: c6 17        	dec	$17                     ; 0x17 <__rc7>
    6174: d0 d3        	bne	$6149 <__mulsi3+0x1e>
    6176: e6 16        	inc	$16                     ; 0x16 <__rc6>
    6178: c6 16        	dec	$16                     ; 0x16 <__rc6>
    617a: d0 cd        	bne	$6149 <__mulsi3+0x1e>
    617c: e6 15        	inc	$15                     ; 0x15 <__rc5>
    617e: c6 15        	dec	$15                     ; 0x15 <__rc5>
    6180: d0 c7        	bne	$6149 <__mulsi3+0x1e>
    6182: e6 14        	inc	$14                     ; 0x14 <__rc4>
    6184: c6 14        	dec	$14                     ; 0x14 <__rc4>
    6186: d0 c1        	bne	$6149 <__mulsi3+0x1e>
    6188: 5a           	phy
    6189: a4 1a        	ldy	$1a                     ; 0x1a <__rc10>
    618b: 84 12        	sty	$12                     ; 0x12 <__rc2>
    618d: 7a           	ply
    618e: 85 13        	sta	$13                     ; 0x13 <__rc3>
    6190: 98           	tya
    6191: 60           	rts
    6192: a0 00        	ldy	#$0
    6194: a2 00        	ldx	#$0
    6196: 64 1a        	stz	$1a                     ; 0x1a <__rc10>
    6198: 98           	tya
    6199: 80 ed        	bra	$6188 <__mulsi3+0x5d>

0000619b <__muldi3>:
    619b: a4 1f        	ldy	$1f                     ; 0x1f <__rc15>
    619d: d0 1f        	bne	$61be <__muldi3+0x23>
    619f: a4 1e        	ldy	$1e                     ; 0x1e <__rc14>
    61a1: d0 1b        	bne	$61be <__muldi3+0x23>
    61a3: a4 1d        	ldy	$1d                     ; 0x1d <__rc13>
    61a5: d0 17        	bne	$61be <__muldi3+0x23>
    61a7: a4 1c        	ldy	$1c                     ; 0x1c <__rc12>
    61a9: d0 13        	bne	$61be <__muldi3+0x23>
    61ab: a4 1b        	ldy	$1b                     ; 0x1b <__rc11>
    61ad: d0 0f        	bne	$61be <__muldi3+0x23>
    61af: a4 1a        	ldy	$1a                     ; 0x1a <__rc10>
    61b1: d0 0b        	bne	$61be <__muldi3+0x23>
    61b3: a4 19        	ldy	$19                     ; 0x19 <__rc9>
    61b5: d0 07        	bne	$61be <__muldi3+0x23>
    61b7: a4 18        	ldy	$18                     ; 0x18 <__rc8>
    61b9: d0 03        	bne	$61be <__muldi3+0x23>
    61bb: 4c 82 62     	jmp	$6282 <__muldi3+0xe7>
    61be: 85 22        	sta	$22                     ; 0x22 <__rc18>
    61c0: 86 23        	stx	$23                     ; 0x23 <__rc19>
    61c2: a0 00        	ldy	#$0
    61c4: a2 00        	ldx	#$0
    61c6: 64 ad        	stz	$ad                     ; 0xad <__zp_bss_size+0x53>
    61c8: 64 ae        	stz	$ae                     ; 0xae <__zp_bss_size+0x54>
    61ca: 64 af        	stz	$af                     ; 0xaf <__zp_bss_size+0x55>
    61cc: 64 b0        	stz	$b0                     ; 0xb0 <__zp_bss_size+0x56>
    61ce: 64 b1        	stz	$b1                     ; 0xb1 <__zp_bss_size+0x57>
    61d0: 98           	tya
    61d1: 46 1f        	lsr	$1f                     ; 0x1f <__rc15>
    61d3: 66 1e        	ror	$1e                     ; 0x1e <__rc14>
    61d5: 66 1d        	ror	$1d                     ; 0x1d <__rc13>
    61d7: 66 1c        	ror	$1c                     ; 0x1c <__rc12>
    61d9: 66 1b        	ror	$1b                     ; 0x1b <__rc11>
    61db: 66 1a        	ror	$1a                     ; 0x1a <__rc10>
    61dd: 66 19        	ror	$19                     ; 0x19 <__rc9>
    61df: 66 18        	ror	$18                     ; 0x18 <__rc8>
    61e1: 90 2d        	bcc	$6210 <__muldi3+0x75>
    61e3: 85 b2        	sta	$b2                     ; 0xb2 <__zp_bss_size+0x58>
    61e5: 98           	tya
    61e6: 18           	clc
    61e7: 65 22        	adc	$22                     ; 0x22 <__rc18>
    61e9: a8           	tay
    61ea: 8a           	txa
    61eb: 65 23        	adc	$23                     ; 0x23 <__rc19>
    61ed: aa           	tax
    61ee: a5 ad        	lda	$ad                     ; 0xad <__zp_bss_size+0x53>
    61f0: 65 12        	adc	$12                     ; 0x12 <__rc2>
    61f2: 85 ad        	sta	$ad                     ; 0xad <__zp_bss_size+0x53>
    61f4: a5 ae        	lda	$ae                     ; 0xae <__zp_bss_size+0x54>
    61f6: 65 13        	adc	$13                     ; 0x13 <__rc3>
    61f8: 85 ae        	sta	$ae                     ; 0xae <__zp_bss_size+0x54>
    61fa: a5 af        	lda	$af                     ; 0xaf <__zp_bss_size+0x55>
    61fc: 65 14        	adc	$14                     ; 0x14 <__rc4>
    61fe: 85 af        	sta	$af                     ; 0xaf <__zp_bss_size+0x55>
    6200: a5 b0        	lda	$b0                     ; 0xb0 <__zp_bss_size+0x56>
    6202: 65 15        	adc	$15                     ; 0x15 <__rc5>
    6204: 85 b0        	sta	$b0                     ; 0xb0 <__zp_bss_size+0x56>
    6206: a5 b1        	lda	$b1                     ; 0xb1 <__zp_bss_size+0x57>
    6208: 65 16        	adc	$16                     ; 0x16 <__rc6>
    620a: 85 b1        	sta	$b1                     ; 0xb1 <__zp_bss_size+0x57>
    620c: a5 b2        	lda	$b2                     ; 0xb2 <__zp_bss_size+0x58>
    620e: 65 17        	adc	$17                     ; 0x17 <__rc7>
    6210: 06 22        	asl	$22                     ; 0x22 <__rc18>
    6212: 26 23        	rol	$23                     ; 0x23 <__rc19>
    6214: 26 12        	rol	$12                     ; 0x12 <__rc2>
    6216: 26 13        	rol	$13                     ; 0x13 <__rc3>
    6218: 26 14        	rol	$14                     ; 0x14 <__rc4>
    621a: 26 15        	rol	$15                     ; 0x15 <__rc5>
    621c: 26 16        	rol	$16                     ; 0x16 <__rc6>
    621e: 26 17        	rol	$17                     ; 0x17 <__rc7>
    6220: e6 1f        	inc	$1f                     ; 0x1f <__rc15>
    6222: c6 1f        	dec	$1f                     ; 0x1f <__rc15>
    6224: f0 03        	beq	$6229 <__muldi3+0x8e>
    6226: 4c d1 61     	jmp	$61d1 <__muldi3+0x36>
    6229: e6 1e        	inc	$1e                     ; 0x1e <__rc14>
    622b: c6 1e        	dec	$1e                     ; 0x1e <__rc14>
    622d: f0 03        	beq	$6232 <__muldi3+0x97>
    622f: 4c d1 61     	jmp	$61d1 <__muldi3+0x36>
    6232: e6 1d        	inc	$1d                     ; 0x1d <__rc13>
    6234: c6 1d        	dec	$1d                     ; 0x1d <__rc13>
    6236: f0 03        	beq	$623b <__muldi3+0xa0>
    6238: 4c d1 61     	jmp	$61d1 <__muldi3+0x36>
    623b: e6 1c        	inc	$1c                     ; 0x1c <__rc12>
    623d: c6 1c        	dec	$1c                     ; 0x1c <__rc12>
    623f: f0 03        	beq	$6244 <__muldi3+0xa9>
    6241: 4c d1 61     	jmp	$61d1 <__muldi3+0x36>
    6244: e6 1b        	inc	$1b                     ; 0x1b <__rc11>
    6246: c6 1b        	dec	$1b                     ; 0x1b <__rc11>
    6248: f0 03        	beq	$624d <__muldi3+0xb2>
    624a: 4c d1 61     	jmp	$61d1 <__muldi3+0x36>
    624d: e6 1a        	inc	$1a                     ; 0x1a <__rc10>
    624f: c6 1a        	dec	$1a                     ; 0x1a <__rc10>
    6251: f0 03        	beq	$6256 <__muldi3+0xbb>
    6253: 4c d1 61     	jmp	$61d1 <__muldi3+0x36>
    6256: e6 19        	inc	$19                     ; 0x19 <__rc9>
    6258: c6 19        	dec	$19                     ; 0x19 <__rc9>
    625a: f0 03        	beq	$625f <__muldi3+0xc4>
    625c: 4c d1 61     	jmp	$61d1 <__muldi3+0x36>
    625f: e6 18        	inc	$18                     ; 0x18 <__rc8>
    6261: c6 18        	dec	$18                     ; 0x18 <__rc8>
    6263: f0 03        	beq	$6268 <__muldi3+0xcd>
    6265: 4c d1 61     	jmp	$61d1 <__muldi3+0x36>
    6268: 5a           	phy
    6269: a4 ad        	ldy	$ad                     ; 0xad <__zp_bss_size+0x53>
    626b: 84 12        	sty	$12                     ; 0x12 <__rc2>
    626d: a4 ae        	ldy	$ae                     ; 0xae <__zp_bss_size+0x54>
    626f: 84 13        	sty	$13                     ; 0x13 <__rc3>
    6271: a4 af        	ldy	$af                     ; 0xaf <__zp_bss_size+0x55>
    6273: 84 14        	sty	$14                     ; 0x14 <__rc4>
    6275: a4 b0        	ldy	$b0                     ; 0xb0 <__zp_bss_size+0x56>
    6277: 84 15        	sty	$15                     ; 0x15 <__rc5>
    6279: a4 b1        	ldy	$b1                     ; 0xb1 <__zp_bss_size+0x57>
    627b: 84 16        	sty	$16                     ; 0x16 <__rc6>
    627d: 7a           	ply
    627e: 85 17        	sta	$17                     ; 0x17 <__rc7>
    6280: 98           	tya
    6281: 60           	rts
    6282: a0 00        	ldy	#$0
    6284: a2 00        	ldx	#$0
    6286: 64 ad        	stz	$ad                     ; 0xad <__zp_bss_size+0x53>
    6288: 64 ae        	stz	$ae                     ; 0xae <__zp_bss_size+0x54>
    628a: 64 af        	stz	$af                     ; 0xaf <__zp_bss_size+0x55>
    628c: 64 b0        	stz	$b0                     ; 0xb0 <__zp_bss_size+0x56>
    628e: 64 b1        	stz	$b1                     ; 0xb1 <__zp_bss_size+0x57>
    6290: 98           	tya
    6291: 80 d5        	bra	$6268 <__muldi3+0xcd>

00006293 <__udivqi3>:
    6293: a8           	tay
    6294: a9 00        	lda	#$0
    6296: e0 00        	cpx	#$0
    6298: d0 03        	bne	$629d <__udivqi3+0xa>
    629a: 4c ee 62     	jmp	$62ee <__udivqi3+0x5b>
    629d: 86 13        	stx	$13                     ; 0x13 <__rc3>
    629f: c4 13        	cpy	$13                     ; 0x13 <__rc3>
    62a1: 90 4b        	bcc	$62ee <__udivqi3+0x5b>
    62a3: a9 01        	lda	#$1
    62a5: a6 13        	ldx	$13                     ; 0x13 <__rc3>
    62a7: 30 45        	bmi	$62ee <__udivqi3+0x5b>
    62a9: 84 14        	sty	$14                     ; 0x14 <__rc4>
    62ab: a2 00        	ldx	#$0
    62ad: a4 13        	ldy	$13                     ; 0x13 <__rc3>
    62af: 84 12        	sty	$12                     ; 0x12 <__rc2>
    62b1: 06 12        	asl	$12                     ; 0x12 <__rc2>
    62b3: a4 14        	ldy	$14                     ; 0x14 <__rc4>
    62b5: c4 12        	cpy	$12                     ; 0x12 <__rc2>
    62b7: 90 09        	bcc	$62c2 <__udivqi3+0x2f>
    62b9: e8           	inx
    62ba: a4 12        	ldy	$12                     ; 0x12 <__rc2>
    62bc: 84 13        	sty	$13                     ; 0x13 <__rc3>
    62be: 10 f1        	bpl	$62b1 <__udivqi3+0x1e>
    62c0: 80 04        	bra	$62c6 <__udivqi3+0x33>
    62c2: a4 13        	ldy	$13                     ; 0x13 <__rc3>
    62c4: 84 12        	sty	$12                     ; 0x12 <__rc2>
    62c6: e0 00        	cpx	#$0
    62c8: f0 24        	beq	$62ee <__udivqi3+0x5b>
    62ca: 38           	sec
    62cb: a5 14        	lda	$14                     ; 0x14 <__rc4>
    62cd: e5 12        	sbc	$12                     ; 0x12 <__rc2>
    62cf: 85 13        	sta	$13                     ; 0x13 <__rc3>
    62d1: a9 01        	lda	#$1
    62d3: 46 12        	lsr	$12                     ; 0x12 <__rc2>
    62d5: 0a           	asl
    62d6: a8           	tay
    62d7: a5 13        	lda	$13                     ; 0x13 <__rc3>
    62d9: c5 12        	cmp	$12                     ; 0x12 <__rc2>
    62db: 90 0b        	bcc	$62e8 <__udivqi3+0x55>
    62dd: 98           	tya
    62de: 09 01        	ora	#$1
    62e0: a8           	tay
    62e1: 38           	sec
    62e2: a5 13        	lda	$13                     ; 0x13 <__rc3>
    62e4: e5 12        	sbc	$12                     ; 0x12 <__rc2>
    62e6: 85 13        	sta	$13                     ; 0x13 <__rc3>
    62e8: ca           	dex
    62e9: 98           	tya
    62ea: e0 00        	cpx	#$0
    62ec: d0 e5        	bne	$62d3 <__udivqi3+0x40>
    62ee: 60           	rts

000062ef <__udivhi3>:
    62ef: 64 14        	stz	$14                     ; 0x14 <__rc4>
    62f1: a4 13        	ldy	$13                     ; 0x13 <__rc3>
    62f3: d0 04        	bne	$62f9 <__udivhi3+0xa>
    62f5: a4 12        	ldy	$12                     ; 0x12 <__rc2>
    62f7: f0 0e        	beq	$6307 <__udivhi3+0x18>
    62f9: 85 17        	sta	$17                     ; 0x17 <__rc7>
    62fb: 8a           	txa
    62fc: e4 13        	cpx	$13                     ; 0x13 <__rc3>
    62fe: d0 0e        	bne	$630e <__udivhi3+0x1f>
    6300: a5 17        	lda	$17                     ; 0x17 <__rc7>
    6302: c5 12        	cmp	$12                     ; 0x12 <__rc2>
    6304: 8a           	txa
    6305: b0 0b        	bcs	$6312 <__udivhi3+0x23>
    6307: a2 00        	ldx	#$0
    6309: 86 8f        	stx	$8f                     ; 0x8f <__zp_bss_size+0x35>
    630b: 4c aa 63     	jmp	$63aa <__udivhi3+0xbb>
    630e: c5 13        	cmp	$13                     ; 0x13 <__rc3>
    6310: 90 f5        	bcc	$6307 <__udivhi3+0x18>
    6312: a2 01        	ldx	#$1
    6314: 86 8f        	stx	$8f                     ; 0x8f <__zp_bss_size+0x35>
    6316: a6 13        	ldx	$13                     ; 0x13 <__rc3>
    6318: 10 03        	bpl	$631d <__udivhi3+0x2e>
    631a: 4c aa 63     	jmp	$63aa <__udivhi3+0xbb>
    631d: a2 00        	ldx	#$0
    631f: a4 12        	ldy	$12                     ; 0x12 <__rc2>
    6321: 84 15        	sty	$15                     ; 0x15 <__rc5>
    6323: a4 13        	ldy	$13                     ; 0x13 <__rc3>
    6325: 84 16        	sty	$16                     ; 0x16 <__rc6>
    6327: 06 15        	asl	$15                     ; 0x15 <__rc5>
    6329: 26 16        	rol	$16                     ; 0x16 <__rc6>
    632b: c5 16        	cmp	$16                     ; 0x16 <__rc6>
    632d: d0 08        	bne	$6337 <__udivhi3+0x48>
    632f: a4 17        	ldy	$17                     ; 0x17 <__rc7>
    6331: c4 15        	cpy	$15                     ; 0x15 <__rc5>
    6333: 90 13        	bcc	$6348 <__udivhi3+0x59>
    6335: 80 04        	bra	$633b <__udivhi3+0x4c>
    6337: c5 16        	cmp	$16                     ; 0x16 <__rc6>
    6339: 90 0d        	bcc	$6348 <__udivhi3+0x59>
    633b: e8           	inx
    633c: a4 15        	ldy	$15                     ; 0x15 <__rc5>
    633e: 84 12        	sty	$12                     ; 0x12 <__rc2>
    6340: a4 16        	ldy	$16                     ; 0x16 <__rc6>
    6342: 84 13        	sty	$13                     ; 0x13 <__rc3>
    6344: 10 e1        	bpl	$6327 <__udivhi3+0x38>
    6346: 80 08        	bra	$6350 <__udivhi3+0x61>
    6348: a4 12        	ldy	$12                     ; 0x12 <__rc2>
    634a: 84 15        	sty	$15                     ; 0x15 <__rc5>
    634c: a4 13        	ldy	$13                     ; 0x13 <__rc3>
    634e: 84 16        	sty	$16                     ; 0x16 <__rc6>
    6350: e0 00        	cpx	#$0
    6352: d0 03        	bne	$6357 <__udivhi3+0x68>
    6354: 4c aa 63     	jmp	$63aa <__udivhi3+0xbb>
    6357: 38           	sec
    6358: a8           	tay
    6359: a5 17        	lda	$17                     ; 0x17 <__rc7>
    635b: e5 15        	sbc	$15                     ; 0x15 <__rc5>
    635d: 85 12        	sta	$12                     ; 0x12 <__rc2>
    635f: 98           	tya
    6360: e5 16        	sbc	$16                     ; 0x16 <__rc6>
    6362: a0 01        	ldy	#$1
    6364: 84 8f        	sty	$8f                     ; 0x8f <__zp_bss_size+0x35>
    6366: 64 14        	stz	$14                     ; 0x14 <__rc4>
    6368: 46 16        	lsr	$16                     ; 0x16 <__rc6>
    636a: 66 15        	ror	$15                     ; 0x15 <__rc5>
    636c: a4 8f        	ldy	$8f                     ; 0x8f <__zp_bss_size+0x35>
    636e: 84 13        	sty	$13                     ; 0x13 <__rc3>
    6370: 06 13        	asl	$13                     ; 0x13 <__rc3>
    6372: a0 01        	ldy	#$1
    6374: b0 02        	bcs	$6378 <__udivhi3+0x89>
    6376: a0 00        	ldy	#$0
    6378: 84 17        	sty	$17                     ; 0x17 <__rc7>
    637a: a4 13        	ldy	$13                     ; 0x13 <__rc3>
    637c: 84 8f        	sty	$8f                     ; 0x8f <__zp_bss_size+0x35>
    637e: c5 16        	cmp	$16                     ; 0x16 <__rc6>
    6380: d0 22        	bne	$63a4 <__udivhi3+0xb5>
    6382: a4 12        	ldy	$12                     ; 0x12 <__rc2>
    6384: c4 15        	cpy	$15                     ; 0x15 <__rc5>
    6386: 90 11        	bcc	$6399 <__udivhi3+0xaa>
    6388: a8           	tay
    6389: a5 8f        	lda	$8f                     ; 0x8f <__zp_bss_size+0x35>
    638b: 09 01        	ora	#$1
    638d: 85 8f        	sta	$8f                     ; 0x8f <__zp_bss_size+0x35>
    638f: 38           	sec
    6390: a5 12        	lda	$12                     ; 0x12 <__rc2>
    6392: e5 15        	sbc	$15                     ; 0x15 <__rc5>
    6394: 85 12        	sta	$12                     ; 0x12 <__rc2>
    6396: 98           	tya
    6397: e5 16        	sbc	$16                     ; 0x16 <__rc6>
    6399: a4 17        	ldy	$17                     ; 0x17 <__rc7>
    639b: c0 01        	cpy	#$1
    639d: 26 14        	rol	$14                     ; 0x14 <__rc4>
    639f: ca           	dex
    63a0: d0 c6        	bne	$6368 <__udivhi3+0x79>
    63a2: 80 06        	bra	$63aa <__udivhi3+0xbb>
    63a4: c5 16        	cmp	$16                     ; 0x16 <__rc6>
    63a6: b0 e0        	bcs	$6388 <__udivhi3+0x99>
    63a8: 80 ef        	bra	$6399 <__udivhi3+0xaa>
    63aa: a6 14        	ldx	$14                     ; 0x14 <__rc4>
    63ac: a5 8f        	lda	$8f                     ; 0x8f <__zp_bss_size+0x35>
    63ae: 60           	rts

000063af <__umodsi3>:
    63af: 85 1c        	sta	$1c                     ; 0x1c <__rc12>
    63b1: 86 1a        	stx	$1a                     ; 0x1a <__rc10>
    63b3: a5 13        	lda	$13                     ; 0x13 <__rc3>
    63b5: a6 17        	ldx	$17                     ; 0x17 <__rc7>
    63b7: d0 0f        	bne	$63c8 <__umodsi3+0x19>
    63b9: a6 16        	ldx	$16                     ; 0x16 <__rc6>
    63bb: d0 0b        	bne	$63c8 <__umodsi3+0x19>
    63bd: a6 15        	ldx	$15                     ; 0x15 <__rc5>
    63bf: d0 07        	bne	$63c8 <__umodsi3+0x19>
    63c1: a6 14        	ldx	$14                     ; 0x14 <__rc4>
    63c3: d0 03        	bne	$63c8 <__umodsi3+0x19>
    63c5: 4c ef 64     	jmp	$64ef <__umodsi3+0x140>
    63c8: c5 17        	cmp	$17                     ; 0x17 <__rc7>
    63ca: d0 15        	bne	$63e1 <__umodsi3+0x32>
    63cc: a6 12        	ldx	$12                     ; 0x12 <__rc2>
    63ce: e4 16        	cpx	$16                     ; 0x16 <__rc6>
    63d0: d0 16        	bne	$63e8 <__umodsi3+0x39>
    63d2: a6 1a        	ldx	$1a                     ; 0x1a <__rc10>
    63d4: e4 15        	cpx	$15                     ; 0x15 <__rc5>
    63d6: d0 17        	bne	$63ef <__umodsi3+0x40>
    63d8: a6 1c        	ldx	$1c                     ; 0x1c <__rc12>
    63da: e4 14        	cpx	$14                     ; 0x14 <__rc4>
    63dc: b0 1a        	bcs	$63f8 <__umodsi3+0x49>
    63de: 4c ef 64     	jmp	$64ef <__umodsi3+0x140>
    63e1: c5 17        	cmp	$17                     ; 0x17 <__rc7>
    63e3: b0 13        	bcs	$63f8 <__umodsi3+0x49>
    63e5: 4c ef 64     	jmp	$64ef <__umodsi3+0x140>
    63e8: e4 16        	cpx	$16                     ; 0x16 <__rc6>
    63ea: b0 0c        	bcs	$63f8 <__umodsi3+0x49>
    63ec: 4c ef 64     	jmp	$64ef <__umodsi3+0x140>
    63ef: a6 1a        	ldx	$1a                     ; 0x1a <__rc10>
    63f1: e4 15        	cpx	$15                     ; 0x15 <__rc5>
    63f3: b0 03        	bcs	$63f8 <__umodsi3+0x49>
    63f5: 4c ef 64     	jmp	$64ef <__umodsi3+0x140>
    63f8: a6 17        	ldx	$17                     ; 0x17 <__rc7>
    63fa: 10 03        	bpl	$63ff <__umodsi3+0x50>
    63fc: 4c d8 64     	jmp	$64d8 <__umodsi3+0x129>
    63ff: a2 00        	ldx	#$0
    6401: a4 14        	ldy	$14                     ; 0x14 <__rc4>
    6403: 84 1b        	sty	$1b                     ; 0x1b <__rc11>
    6405: a4 15        	ldy	$15                     ; 0x15 <__rc5>
    6407: 84 13        	sty	$13                     ; 0x13 <__rc3>
    6409: a4 16        	ldy	$16                     ; 0x16 <__rc6>
    640b: 84 18        	sty	$18                     ; 0x18 <__rc8>
    640d: a4 17        	ldy	$17                     ; 0x17 <__rc7>
    640f: 84 19        	sty	$19                     ; 0x19 <__rc9>
    6411: 06 1b        	asl	$1b                     ; 0x1b <__rc11>
    6413: 26 13        	rol	$13                     ; 0x13 <__rc3>
    6415: 26 18        	rol	$18                     ; 0x18 <__rc8>
    6417: 26 19        	rol	$19                     ; 0x19 <__rc9>
    6419: c5 19        	cmp	$19                     ; 0x19 <__rc9>
    641b: d0 16        	bne	$6433 <__umodsi3+0x84>
    641d: a4 12        	ldy	$12                     ; 0x12 <__rc2>
    641f: c4 18        	cpy	$18                     ; 0x18 <__rc8>
    6421: d0 16        	bne	$6439 <__umodsi3+0x8a>
    6423: a4 1a        	ldy	$1a                     ; 0x1a <__rc10>
    6425: c4 13        	cpy	$13                     ; 0x13 <__rc3>
    6427: d0 16        	bne	$643f <__umodsi3+0x90>
    6429: a8           	tay
    642a: a5 1c        	lda	$1c                     ; 0x1c <__rc12>
    642c: c5 1b        	cmp	$1b                     ; 0x1b <__rc11>
    642e: 98           	tya
    642f: 90 29        	bcc	$645a <__umodsi3+0xab>
    6431: 80 12        	bra	$6445 <__umodsi3+0x96>
    6433: c5 19        	cmp	$19                     ; 0x19 <__rc9>
    6435: 90 23        	bcc	$645a <__umodsi3+0xab>
    6437: 80 0c        	bra	$6445 <__umodsi3+0x96>
    6439: c4 18        	cpy	$18                     ; 0x18 <__rc8>
    643b: 90 1d        	bcc	$645a <__umodsi3+0xab>
    643d: 80 06        	bra	$6445 <__umodsi3+0x96>
    643f: a4 1a        	ldy	$1a                     ; 0x1a <__rc10>
    6441: c4 13        	cpy	$13                     ; 0x13 <__rc3>
    6443: 90 15        	bcc	$645a <__umodsi3+0xab>
    6445: e8           	inx
    6446: a4 1b        	ldy	$1b                     ; 0x1b <__rc11>
    6448: 84 14        	sty	$14                     ; 0x14 <__rc4>
    644a: a4 13        	ldy	$13                     ; 0x13 <__rc3>
    644c: 84 15        	sty	$15                     ; 0x15 <__rc5>
    644e: a4 18        	ldy	$18                     ; 0x18 <__rc8>
    6450: 84 16        	sty	$16                     ; 0x16 <__rc6>
    6452: a4 19        	ldy	$19                     ; 0x19 <__rc9>
    6454: 84 17        	sty	$17                     ; 0x17 <__rc7>
    6456: 10 b9        	bpl	$6411 <__umodsi3+0x62>
    6458: 80 10        	bra	$646a <__umodsi3+0xbb>
    645a: a4 14        	ldy	$14                     ; 0x14 <__rc4>
    645c: 84 1b        	sty	$1b                     ; 0x1b <__rc11>
    645e: a4 15        	ldy	$15                     ; 0x15 <__rc5>
    6460: 84 13        	sty	$13                     ; 0x13 <__rc3>
    6462: a4 16        	ldy	$16                     ; 0x16 <__rc6>
    6464: 84 18        	sty	$18                     ; 0x18 <__rc8>
    6466: a4 17        	ldy	$17                     ; 0x17 <__rc7>
    6468: 84 19        	sty	$19                     ; 0x19 <__rc9>
    646a: 38           	sec
    646b: a8           	tay
    646c: a5 1c        	lda	$1c                     ; 0x1c <__rc12>
    646e: e5 1b        	sbc	$1b                     ; 0x1b <__rc11>
    6470: 85 1c        	sta	$1c                     ; 0x1c <__rc12>
    6472: a5 1a        	lda	$1a                     ; 0x1a <__rc10>
    6474: e5 13        	sbc	$13                     ; 0x13 <__rc3>
    6476: 85 1a        	sta	$1a                     ; 0x1a <__rc10>
    6478: a5 12        	lda	$12                     ; 0x12 <__rc2>
    647a: e5 18        	sbc	$18                     ; 0x18 <__rc8>
    647c: 85 12        	sta	$12                     ; 0x12 <__rc2>
    647e: 98           	tya
    647f: e5 19        	sbc	$19                     ; 0x19 <__rc9>
    6481: e0 00        	cpx	#$0
    6483: d0 11        	bne	$6496 <__umodsi3+0xe7>
    6485: 4c ef 64     	jmp	$64ef <__umodsi3+0x140>
    6488: c4 18        	cpy	$18                     ; 0x18 <__rc8>
    648a: b0 30        	bcs	$64bc <__umodsi3+0x10d>
    648c: 80 45        	bra	$64d3 <__umodsi3+0x124>
    648e: a4 1a        	ldy	$1a                     ; 0x1a <__rc10>
    6490: c4 13        	cpy	$13                     ; 0x13 <__rc3>
    6492: b0 28        	bcs	$64bc <__umodsi3+0x10d>
    6494: 80 3d        	bra	$64d3 <__umodsi3+0x124>
    6496: 46 19        	lsr	$19                     ; 0x19 <__rc9>
    6498: 66 18        	ror	$18                     ; 0x18 <__rc8>
    649a: 66 13        	ror	$13                     ; 0x13 <__rc3>
    649c: 66 1b        	ror	$1b                     ; 0x1b <__rc11>
    649e: c5 19        	cmp	$19                     ; 0x19 <__rc9>
    64a0: d0 16        	bne	$64b8 <__umodsi3+0x109>
    64a2: a4 12        	ldy	$12                     ; 0x12 <__rc2>
    64a4: c4 18        	cpy	$18                     ; 0x18 <__rc8>
    64a6: d0 e0        	bne	$6488 <__umodsi3+0xd9>
    64a8: a4 1a        	ldy	$1a                     ; 0x1a <__rc10>
    64aa: c4 13        	cpy	$13                     ; 0x13 <__rc3>
    64ac: d0 e0        	bne	$648e <__umodsi3+0xdf>
    64ae: a8           	tay
    64af: a5 1c        	lda	$1c                     ; 0x1c <__rc12>
    64b1: c5 1b        	cmp	$1b                     ; 0x1b <__rc11>
    64b3: 98           	tya
    64b4: b0 06        	bcs	$64bc <__umodsi3+0x10d>
    64b6: 80 1b        	bra	$64d3 <__umodsi3+0x124>
    64b8: c5 19        	cmp	$19                     ; 0x19 <__rc9>
    64ba: 90 17        	bcc	$64d3 <__umodsi3+0x124>
    64bc: a8           	tay
    64bd: 38           	sec
    64be: a5 1c        	lda	$1c                     ; 0x1c <__rc12>
    64c0: e5 1b        	sbc	$1b                     ; 0x1b <__rc11>
    64c2: 85 1c        	sta	$1c                     ; 0x1c <__rc12>
    64c4: a5 1a        	lda	$1a                     ; 0x1a <__rc10>
    64c6: e5 13        	sbc	$13                     ; 0x13 <__rc3>
    64c8: 85 1a        	sta	$1a                     ; 0x1a <__rc10>
    64ca: a5 12        	lda	$12                     ; 0x12 <__rc2>
    64cc: e5 18        	sbc	$18                     ; 0x18 <__rc8>
    64ce: 85 12        	sta	$12                     ; 0x12 <__rc2>
    64d0: 98           	tya
    64d1: e5 19        	sbc	$19                     ; 0x19 <__rc9>
    64d3: ca           	dex
    64d4: d0 c0        	bne	$6496 <__umodsi3+0xe7>
    64d6: 80 17        	bra	$64ef <__umodsi3+0x140>
    64d8: 38           	sec
    64d9: a8           	tay
    64da: a5 1c        	lda	$1c                     ; 0x1c <__rc12>
    64dc: e5 14        	sbc	$14                     ; 0x14 <__rc4>
    64de: 85 1c        	sta	$1c                     ; 0x1c <__rc12>
    64e0: a5 1a        	lda	$1a                     ; 0x1a <__rc10>
    64e2: e5 15        	sbc	$15                     ; 0x15 <__rc5>
    64e4: 85 1a        	sta	$1a                     ; 0x1a <__rc10>
    64e6: a5 12        	lda	$12                     ; 0x12 <__rc2>
    64e8: e5 16        	sbc	$16                     ; 0x16 <__rc6>
    64ea: 85 12        	sta	$12                     ; 0x12 <__rc2>
    64ec: 98           	tya
    64ed: e5 17        	sbc	$17                     ; 0x17 <__rc7>
    64ef: 85 13        	sta	$13                     ; 0x13 <__rc3>
    64f1: a6 1a        	ldx	$1a                     ; 0x1a <__rc10>
    64f3: a5 1c        	lda	$1c                     ; 0x1c <__rc12>
    64f5: 60           	rts

000064f6 <__udivmodqi4>:
    64f6: a8           	tay
    64f7: a9 00        	lda	#$0
    64f9: e0 00        	cpx	#$0
    64fb: f0 25        	beq	$6522 <__udivmodqi4+0x2c>
    64fd: 86 15        	stx	$15                     ; 0x15 <__rc5>
    64ff: 84 16        	sty	$16                     ; 0x16 <__rc6>
    6501: c4 15        	cpy	$15                     ; 0x15 <__rc5>
    6503: b0 03        	bcs	$6508 <__udivmodqi4+0x12>
    6505: 4c 5d 65     	jmp	$655d <__udivmodqi4+0x67>
    6508: a5 15        	lda	$15                     ; 0x15 <__rc5>
    650a: 30 1a        	bmi	$6526 <__udivmodqi4+0x30>
    650c: a2 00        	ldx	#$0
    650e: a5 15        	lda	$15                     ; 0x15 <__rc5>
    6510: 85 14        	sta	$14                     ; 0x14 <__rc4>
    6512: 98           	tya
    6513: 06 14        	asl	$14                     ; 0x14 <__rc4>
    6515: c5 14        	cmp	$14                     ; 0x14 <__rc4>
    6517: 90 15        	bcc	$652e <__udivmodqi4+0x38>
    6519: e8           	inx
    651a: a4 14        	ldy	$14                     ; 0x14 <__rc4>
    651c: 84 15        	sty	$15                     ; 0x15 <__rc5>
    651e: 10 f3        	bpl	$6513 <__udivmodqi4+0x1d>
    6520: 80 10        	bra	$6532 <__udivmodqi4+0x3c>
    6522: 84 16        	sty	$16                     ; 0x16 <__rc6>
    6524: 80 37        	bra	$655d <__udivmodqi4+0x67>
    6526: 38           	sec
    6527: 98           	tya
    6528: e5 15        	sbc	$15                     ; 0x15 <__rc5>
    652a: 85 16        	sta	$16                     ; 0x16 <__rc6>
    652c: 80 2d        	bra	$655b <__udivmodqi4+0x65>
    652e: a4 15        	ldy	$15                     ; 0x15 <__rc5>
    6530: 84 14        	sty	$14                     ; 0x14 <__rc4>
    6532: 38           	sec
    6533: e5 14        	sbc	$14                     ; 0x14 <__rc4>
    6535: 85 16        	sta	$16                     ; 0x16 <__rc6>
    6537: 8a           	txa
    6538: f0 21        	beq	$655b <__udivmodqi4+0x65>
    653a: a9 01        	lda	#$1
    653c: 46 14        	lsr	$14                     ; 0x14 <__rc4>
    653e: 0a           	asl
    653f: a8           	tay
    6540: a5 16        	lda	$16                     ; 0x16 <__rc6>
    6542: c5 14        	cmp	$14                     ; 0x14 <__rc4>
    6544: 90 0d        	bcc	$6553 <__udivmodqi4+0x5d>
    6546: 85 15        	sta	$15                     ; 0x15 <__rc5>
    6548: 98           	tya
    6549: 09 01        	ora	#$1
    654b: a8           	tay
    654c: 38           	sec
    654d: a5 15        	lda	$15                     ; 0x15 <__rc5>
    654f: e5 14        	sbc	$14                     ; 0x14 <__rc4>
    6551: 85 16        	sta	$16                     ; 0x16 <__rc6>
    6553: ca           	dex
    6554: 98           	tya
    6555: e0 00        	cpx	#$0
    6557: d0 e3        	bne	$653c <__udivmodqi4+0x46>
    6559: 80 02        	bra	$655d <__udivmodqi4+0x67>
    655b: a9 01        	lda	#$1
    655d: aa           	tax
    655e: a5 16        	lda	$16                     ; 0x16 <__rc6>
    6560: 92 12        	sta	($12)                   ; 0x12 <__rc2>
    6562: 8a           	txa
    6563: 60           	rts

00006564 <__udivmodhi4>:
    6564: 86 1a        	stx	$1a                     ; 0x1a <__rc10>
    6566: 64 16        	stz	$16                     ; 0x16 <__rc6>
    6568: a4 13        	ldy	$13                     ; 0x13 <__rc3>
    656a: d0 04        	bne	$6570 <__udivmodhi4+0xc>
    656c: a4 12        	ldy	$12                     ; 0x12 <__rc2>
    656e: f0 08        	beq	$6578 <__udivmodhi4+0x14>
    6570: e4 13        	cpx	$13                     ; 0x13 <__rc3>
    6572: d0 0d        	bne	$6581 <__udivmodhi4+0x1d>
    6574: c5 12        	cmp	$12                     ; 0x12 <__rc2>
    6576: b0 0d        	bcs	$6585 <__udivmodhi4+0x21>
    6578: a6 1a        	ldx	$1a                     ; 0x1a <__rc10>
    657a: 86 12        	stx	$12                     ; 0x12 <__rc2>
    657c: a2 00        	ldx	#$0
    657e: 4c 29 66     	jmp	$6629 <__udivmodhi4+0xc5>
    6581: e4 13        	cpx	$13                     ; 0x13 <__rc3>
    6583: 90 f3        	bcc	$6578 <__udivmodhi4+0x14>
    6585: a6 13        	ldx	$13                     ; 0x13 <__rc3>
    6587: 10 03        	bpl	$658c <__udivmodhi4+0x28>
    6589: 4c 1c 66     	jmp	$661c <__udivmodhi4+0xb8>
    658c: a2 00        	ldx	#$0
    658e: a4 12        	ldy	$12                     ; 0x12 <__rc2>
    6590: 84 17        	sty	$17                     ; 0x17 <__rc7>
    6592: a4 13        	ldy	$13                     ; 0x13 <__rc3>
    6594: 84 18        	sty	$18                     ; 0x18 <__rc8>
    6596: 06 17        	asl	$17                     ; 0x17 <__rc7>
    6598: 26 18        	rol	$18                     ; 0x18 <__rc8>
    659a: a4 1a        	ldy	$1a                     ; 0x1a <__rc10>
    659c: c4 18        	cpy	$18                     ; 0x18 <__rc8>
    659e: d0 06        	bne	$65a6 <__udivmodhi4+0x42>
    65a0: c5 17        	cmp	$17                     ; 0x17 <__rc7>
    65a2: b0 08        	bcs	$65ac <__udivmodhi4+0x48>
    65a4: 80 13        	bra	$65b9 <__udivmodhi4+0x55>
    65a6: a4 1a        	ldy	$1a                     ; 0x1a <__rc10>
    65a8: c4 18        	cpy	$18                     ; 0x18 <__rc8>
    65aa: 90 0d        	bcc	$65b9 <__udivmodhi4+0x55>
    65ac: e8           	inx
    65ad: a4 17        	ldy	$17                     ; 0x17 <__rc7>
    65af: 84 12        	sty	$12                     ; 0x12 <__rc2>
    65b1: a4 18        	ldy	$18                     ; 0x18 <__rc8>
    65b3: 84 13        	sty	$13                     ; 0x13 <__rc3>
    65b5: 10 df        	bpl	$6596 <__udivmodhi4+0x32>
    65b7: 80 08        	bra	$65c1 <__udivmodhi4+0x5d>
    65b9: a4 12        	ldy	$12                     ; 0x12 <__rc2>
    65bb: 84 17        	sty	$17                     ; 0x17 <__rc7>
    65bd: a4 13        	ldy	$13                     ; 0x13 <__rc3>
    65bf: 84 18        	sty	$18                     ; 0x18 <__rc8>
    65c1: 38           	sec
    65c2: e5 17        	sbc	$17                     ; 0x17 <__rc7>
    65c4: a8           	tay
    65c5: a5 1a        	lda	$1a                     ; 0x1a <__rc10>
    65c7: e5 18        	sbc	$18                     ; 0x18 <__rc8>
    65c9: 85 12        	sta	$12                     ; 0x12 <__rc2>
    65cb: 8a           	txa
    65cc: d0 03        	bne	$65d1 <__udivmodhi4+0x6d>
    65ce: 4c 38 66     	jmp	$6638 <__udivmodhi4+0xd4>
    65d1: a9 01        	lda	#$1
    65d3: 85 94        	sta	$94                     ; 0x94 <__zp_bss_size+0x3a>
    65d5: 64 16        	stz	$16                     ; 0x16 <__rc6>
    65d7: 98           	tya
    65d8: 46 18        	lsr	$18                     ; 0x18 <__rc8>
    65da: 66 17        	ror	$17                     ; 0x17 <__rc7>
    65dc: a4 94        	ldy	$94                     ; 0x94 <__zp_bss_size+0x3a>
    65de: 84 13        	sty	$13                     ; 0x13 <__rc3>
    65e0: 06 13        	asl	$13                     ; 0x13 <__rc3>
    65e2: a0 01        	ldy	#$1
    65e4: b0 02        	bcs	$65e8 <__udivmodhi4+0x84>
    65e6: a0 00        	ldy	#$0
    65e8: 84 19        	sty	$19                     ; 0x19 <__rc9>
    65ea: a4 13        	ldy	$13                     ; 0x13 <__rc3>
    65ec: 84 94        	sty	$94                     ; 0x94 <__zp_bss_size+0x3a>
    65ee: a4 12        	ldy	$12                     ; 0x12 <__rc2>
    65f0: c4 18        	cpy	$18                     ; 0x18 <__rc8>
    65f2: d0 22        	bne	$6616 <__udivmodhi4+0xb2>
    65f4: c5 17        	cmp	$17                     ; 0x17 <__rc7>
    65f6: 90 13        	bcc	$660b <__udivmodhi4+0xa7>
    65f8: a8           	tay
    65f9: a5 94        	lda	$94                     ; 0x94 <__zp_bss_size+0x3a>
    65fb: 09 01        	ora	#$1
    65fd: 85 94        	sta	$94                     ; 0x94 <__zp_bss_size+0x3a>
    65ff: 38           	sec
    6600: 98           	tya
    6601: e5 17        	sbc	$17                     ; 0x17 <__rc7>
    6603: a8           	tay
    6604: a5 12        	lda	$12                     ; 0x12 <__rc2>
    6606: e5 18        	sbc	$18                     ; 0x18 <__rc8>
    6608: 85 12        	sta	$12                     ; 0x12 <__rc2>
    660a: 98           	tya
    660b: a4 19        	ldy	$19                     ; 0x19 <__rc9>
    660d: c0 01        	cpy	#$1
    660f: 26 16        	rol	$16                     ; 0x16 <__rc6>
    6611: ca           	dex
    6612: d0 c4        	bne	$65d8 <__udivmodhi4+0x74>
    6614: 80 15        	bra	$662b <__udivmodhi4+0xc7>
    6616: c4 18        	cpy	$18                     ; 0x18 <__rc8>
    6618: b0 de        	bcs	$65f8 <__udivmodhi4+0x94>
    661a: 80 ef        	bra	$660b <__udivmodhi4+0xa7>
    661c: 38           	sec
    661d: e5 12        	sbc	$12                     ; 0x12 <__rc2>
    661f: aa           	tax
    6620: a5 1a        	lda	$1a                     ; 0x1a <__rc10>
    6622: e5 13        	sbc	$13                     ; 0x13 <__rc3>
    6624: 85 12        	sta	$12                     ; 0x12 <__rc2>
    6626: 8a           	txa
    6627: a2 01        	ldx	#$1
    6629: 86 94        	stx	$94                     ; 0x94 <__zp_bss_size+0x3a>
    662b: 92 14        	sta	($14)                   ; 0x14 <__rc4>
    662d: a0 01        	ldy	#$1
    662f: a5 12        	lda	$12                     ; 0x12 <__rc2>
    6631: 91 14        	sta	($14),y                 ; 0x14 <__rc4>
    6633: a6 16        	ldx	$16                     ; 0x16 <__rc6>
    6635: a5 94        	lda	$94                     ; 0x94 <__zp_bss_size+0x3a>
    6637: 60           	rts
    6638: a2 01        	ldx	#$1
    663a: 86 94        	stx	$94                     ; 0x94 <__zp_bss_size+0x3a>
    663c: 98           	tya
    663d: 80 ec        	bra	$662b <__udivmodhi4+0xc7>

0000663f <__divsf3>:
    663f: 85 9a        	sta	$9a                     ; 0x9a <__zp_bss_size+0x40>
    6641: 86 97        	stx	$97                     ; 0x97 <__zp_bss_size+0x3d>
    6643: a6 12        	ldx	$12                     ; 0x12 <__rc2>
    6645: 86 19        	stx	$19                     ; 0x19 <__rc9>
    6647: a6 14        	ldx	$14                     ; 0x14 <__rc4>
    6649: 86 94        	stx	$94                     ; 0x94 <__zp_bss_size+0x3a>
    664b: a6 15        	ldx	$15                     ; 0x15 <__rc5>
    664d: a5 12        	lda	$12                     ; 0x12 <__rc2>
    664f: 0a           	asl
    6650: a4 13        	ldy	$13                     ; 0x13 <__rc3>
    6652: 84 14        	sty	$14                     ; 0x14 <__rc4>
    6654: 26 14        	rol	$14                     ; 0x14 <__rc4>
    6656: a5 16        	lda	$16                     ; 0x16 <__rc6>
    6658: a4 17        	ldy	$17                     ; 0x17 <__rc7>
    665a: 84 12        	sty	$12                     ; 0x12 <__rc2>
    665c: 0a           	asl
    665d: 26 12        	rol	$12                     ; 0x12 <__rc2>
    665f: 18           	clc
    6660: a4 14        	ldy	$14                     ; 0x14 <__rc4>
    6662: 84 9b        	sty	$9b                     ; 0x9b <__zp_bss_size+0x41>
    6664: a5 14        	lda	$14                     ; 0x14 <__rc4>
    6666: 69 01        	adc	#$1
    6668: a8           	tay
    6669: a9 00        	lda	#$0
    666b: 69 ff        	adc	#$ff
    666d: 85 1a        	sta	$1a                     ; 0x1a <__rc10>
    666f: a5 13        	lda	$13                     ; 0x13 <__rc3>
    6671: 85 14        	sta	$14                     ; 0x14 <__rc4>
    6673: a5 17        	lda	$17                     ; 0x17 <__rc7>
    6675: 45 13        	eor	$13                     ; 0x13 <__rc3>
    6677: 29 80        	and	#$80
    6679: 85 9c        	sta	$9c                     ; 0x9c <__zp_bss_size+0x42>
    667b: a5 19        	lda	$19                     ; 0x19 <__rc9>
    667d: 29 7f        	and	#$7f
    667f: 85 9d        	sta	$9d                     ; 0x9d <__zp_bss_size+0x43>
    6681: a5 16        	lda	$16                     ; 0x16 <__rc6>
    6683: 85 91        	sta	$91                     ; 0x91 <__zp_bss_size+0x37>
    6685: a5 16        	lda	$16                     ; 0x16 <__rc6>
    6687: 29 7f        	and	#$7f
    6689: 85 8f        	sta	$8f                     ; 0x8f <__zp_bss_size+0x35>
    668b: a5 1a        	lda	$1a                     ; 0x1a <__rc10>
    668d: c9 ff        	cmp	#$ff
    668f: d0 04        	bne	$6695 <__divsf3+0x56>
    6691: c0 02        	cpy	#$2
    6693: 80 02        	bra	$6697 <__divsf3+0x58>
    6695: c9 ff        	cmp	#$ff
    6697: a4 13        	ldy	$13                     ; 0x13 <__rc3>
    6699: a5 19        	lda	$19                     ; 0x19 <__rc9>
    669b: 90 2d        	bcc	$66ca <__divsf3+0x8b>
    669d: 18           	clc
    669e: a5 12        	lda	$12                     ; 0x12 <__rc2>
    66a0: 69 01        	adc	#$1
    66a2: a8           	tay
    66a3: a9 00        	lda	#$0
    66a5: 69 ff        	adc	#$ff
    66a7: c9 ff        	cmp	#$ff
    66a9: d0 17        	bne	$66c2 <__divsf3+0x83>
    66ab: c0 02        	cpy	#$2
    66ad: 90 17        	bcc	$66c6 <__divsf3+0x87>
    66af: a4 8f        	ldy	$8f                     ; 0x8f <__zp_bss_size+0x35>
    66b1: 84 16        	sty	$16                     ; 0x16 <__rc6>
    66b3: 86 9e        	stx	$9e                     ; 0x9e <__zp_bss_size+0x44>
    66b5: a2 00        	ldx	#$0
    66b7: 86 a0        	stx	$a0                     ; 0xa0 <__zp_bss_size+0x46>
    66b9: a0 00        	ldy	#$0
    66bb: 64 14        	stz	$14                     ; 0x14 <__rc4>
    66bd: 64 15        	stz	$15                     ; 0x15 <__rc5>
    66bf: 4c 44 6c     	jmp	$6c44 <__divsf3+0x605>
    66c2: c9 ff        	cmp	#$ff
    66c4: b0 e9        	bcs	$66af <__divsf3+0x70>
    66c6: a4 13        	ldy	$13                     ; 0x13 <__rc3>
    66c8: a5 19        	lda	$19                     ; 0x19 <__rc9>
    66ca: 85 16        	sta	$16                     ; 0x16 <__rc6>
    66cc: 98           	tya
    66cd: 29 7f        	and	#$7f
    66cf: c9 7f        	cmp	#$7f
    66d1: d0 14        	bne	$66e7 <__divsf3+0xa8>
    66d3: 85 13        	sta	$13                     ; 0x13 <__rc3>
    66d5: a5 16        	lda	$16                     ; 0x16 <__rc6>
    66d7: c9 80        	cmp	#$80
    66d9: d0 43        	bne	$671e <__divsf3+0xdf>
    66db: a4 97        	ldy	$97                     ; 0x97 <__zp_bss_size+0x3d>
    66dd: d0 4f        	bne	$672e <__divsf3+0xef>
    66df: a4 9a        	ldy	$9a                     ; 0x9a <__zp_bss_size+0x40>
    66e1: c0 01        	cpy	#$1
    66e3: 90 0a        	bcc	$66ef <__divsf3+0xb0>
    66e5: 80 3b        	bra	$6722 <__divsf3+0xe3>
    66e7: 85 13        	sta	$13                     ; 0x13 <__rc3>
    66e9: c9 7f        	cmp	#$7f
    66eb: a5 16        	lda	$16                     ; 0x16 <__rc6>
    66ed: b0 33        	bcs	$6722 <__divsf3+0xe3>
    66ef: a5 17        	lda	$17                     ; 0x17 <__rc7>
    66f1: 29 7f        	and	#$7f
    66f3: 85 92        	sta	$92                     ; 0x92 <__zp_bss_size+0x38>
    66f5: c9 7f        	cmp	#$7f
    66f7: d0 31        	bne	$672a <__divsf3+0xeb>
    66f9: a4 91        	ldy	$91                     ; 0x91 <__zp_bss_size+0x37>
    66fb: c0 80        	cpy	#$80
    66fd: d0 37        	bne	$6736 <__divsf3+0xf7>
    66ff: a5 19        	lda	$19                     ; 0x19 <__rc9>
    6701: e0 00        	cpx	#$0
    6703: f0 03        	beq	$6708 <__divsf3+0xc9>
    6705: 4c e8 67     	jmp	$67e8 <__divsf3+0x1a9>
    6708: a4 94        	ldy	$94                     ; 0x94 <__zp_bss_size+0x3a>
    670a: c0 01        	cpy	#$1
    670c: 90 2e        	bcc	$673c <__divsf3+0xfd>
    670e: a5 91        	lda	$91                     ; 0x91 <__zp_bss_size+0x37>
    6710: 09 40        	ora	#$40
    6712: a4 94        	ldy	$94                     ; 0x94 <__zp_bss_size+0x3a>
    6714: 84 9a        	sty	$9a                     ; 0x9a <__zp_bss_size+0x40>
    6716: 86 97        	stx	$97                     ; 0x97 <__zp_bss_size+0x3d>
    6718: a8           	tay
    6719: a5 17        	lda	$17                     ; 0x17 <__rc7>
    671b: 4c 9a 71     	jmp	$719a <__divsf3+0xb5b>
    671e: c9 80        	cmp	#$80
    6720: 90 cd        	bcc	$66ef <__divsf3+0xb0>
    6722: 09 40        	ora	#$40
    6724: a8           	tay
    6725: a5 14        	lda	$14                     ; 0x14 <__rc4>
    6727: 4c 9a 71     	jmp	$719a <__divsf3+0xb5b>
    672a: c9 7f        	cmp	#$7f
    672c: 80 0a        	bra	$6738 <__divsf3+0xf9>
    672e: a4 97        	ldy	$97                     ; 0x97 <__zp_bss_size+0x3d>
    6730: c0 00        	cpy	#$0
    6732: 90 bb        	bcc	$66ef <__divsf3+0xb0>
    6734: 80 ec        	bra	$6722 <__divsf3+0xe3>
    6736: c0 80        	cpy	#$80
    6738: a5 19        	lda	$19                     ; 0x19 <__rc9>
    673a: b0 d2        	bcs	$670e <__divsf3+0xcf>
    673c: a4 13        	ldy	$13                     ; 0x13 <__rc3>
    673e: 84 14        	sty	$14                     ; 0x14 <__rc4>
    6740: c0 7f        	cpy	#$7f
    6742: d0 36        	bne	$677a <__divsf3+0x13b>
    6744: c9 80        	cmp	#$80
    6746: d0 32        	bne	$677a <__divsf3+0x13b>
    6748: a4 97        	ldy	$97                     ; 0x97 <__zp_bss_size+0x3d>
    674a: d0 2e        	bne	$677a <__divsf3+0x13b>
    674c: a4 9a        	ldy	$9a                     ; 0x9a <__zp_bss_size+0x40>
    674e: d0 2a        	bne	$677a <__divsf3+0x13b>
    6750: a5 92        	lda	$92                     ; 0x92 <__zp_bss_size+0x38>
    6752: c9 7f        	cmp	#$7f
    6754: f0 03        	beq	$6759 <__divsf3+0x11a>
    6756: 4c 0c 70     	jmp	$700c <__divsf3+0x9cd>
    6759: a4 91        	ldy	$91                     ; 0x91 <__zp_bss_size+0x37>
    675b: c0 80        	cpy	#$80
    675d: f0 03        	beq	$6762 <__divsf3+0x123>
    675f: 4c 0c 70     	jmp	$700c <__divsf3+0x9cd>
    6762: 8a           	txa
    6763: f0 03        	beq	$6768 <__divsf3+0x129>
    6765: 4c 0c 70     	jmp	$700c <__divsf3+0x9cd>
    6768: a5 94        	lda	$94                     ; 0x94 <__zp_bss_size+0x3a>
    676a: f0 03        	beq	$676f <__divsf3+0x130>
    676c: 4c 0c 70     	jmp	$700c <__divsf3+0x9cd>
    676f: a0 c0        	ldy	#$c0
    6771: a9 7f        	lda	#$7f
    6773: 64 9a        	stz	$9a                     ; 0x9a <__zp_bss_size+0x40>
    6775: 64 97        	stz	$97                     ; 0x97 <__zp_bss_size+0x3d>
    6777: 4c 9a 71     	jmp	$719a <__divsf3+0xb5b>
    677a: a4 92        	ldy	$92                     ; 0x92 <__zp_bss_size+0x38>
    677c: c0 7f        	cpy	#$7f
    677e: d0 11        	bne	$6791 <__divsf3+0x152>
    6780: a4 91        	ldy	$91                     ; 0x91 <__zp_bss_size+0x37>
    6782: c0 80        	cpy	#$80
    6784: d0 0b        	bne	$6791 <__divsf3+0x152>
    6786: e0 00        	cpx	#$0
    6788: d0 07        	bne	$6791 <__divsf3+0x152>
    678a: a4 94        	ldy	$94                     ; 0x94 <__zp_bss_size+0x3a>
    678c: d0 03        	bne	$6791 <__divsf3+0x152>
    678e: 4c 78 70     	jmp	$7078 <__divsf3+0xa39>
    6791: a4 9a        	ldy	$9a                     ; 0x9a <__zp_bss_size+0x40>
    6793: 48           	pha
    6794: a5 97        	lda	$97                     ; 0x97 <__zp_bss_size+0x3d>
    6796: 85 13        	sta	$13                     ; 0x13 <__rc3>
    6798: a5 14        	lda	$14                     ; 0x14 <__rc4>
    679a: 85 16        	sta	$16                     ; 0x16 <__rc6>
    679c: 68           	pla
    679d: e6 16        	inc	$16                     ; 0x16 <__rc6>
    679f: c6 16        	dec	$16                     ; 0x16 <__rc6>
    67a1: d0 0e        	bne	$67b1 <__divsf3+0x172>
    67a3: c9 00        	cmp	#$0
    67a5: d0 0a        	bne	$67b1 <__divsf3+0x172>
    67a7: a5 13        	lda	$13                     ; 0x13 <__rc3>
    67a9: d0 06        	bne	$67b1 <__divsf3+0x172>
    67ab: 98           	tya
    67ac: d0 03        	bne	$67b1 <__divsf3+0x172>
    67ae: 4c b3 71     	jmp	$71b3 <__divsf3+0xb74>
    67b1: a4 94        	ldy	$94                     ; 0x94 <__zp_bss_size+0x3a>
    67b3: a5 91        	lda	$91                     ; 0x91 <__zp_bss_size+0x37>
    67b5: 85 13        	sta	$13                     ; 0x13 <__rc3>
    67b7: a5 92        	lda	$92                     ; 0x92 <__zp_bss_size+0x38>
    67b9: d0 0d        	bne	$67c8 <__divsf3+0x189>
    67bb: a5 13        	lda	$13                     ; 0x13 <__rc3>
    67bd: d0 09        	bne	$67c8 <__divsf3+0x189>
    67bf: 8a           	txa
    67c0: d0 06        	bne	$67c8 <__divsf3+0x189>
    67c2: 98           	tya
    67c3: d0 03        	bne	$67c8 <__divsf3+0x189>
    67c5: 4c 0c 70     	jmp	$700c <__divsf3+0x9cd>
    67c8: a5 14        	lda	$14                     ; 0x14 <__rc4>
    67ca: d0 14        	bne	$67e0 <__divsf3+0x1a1>
    67cc: a4 19        	ldy	$19                     ; 0x19 <__rc9>
    67ce: c0 80        	cpy	#$80
    67d0: d0 20        	bne	$67f2 <__divsf3+0x1b3>
    67d2: a4 8f        	ldy	$8f                     ; 0x8f <__zp_bss_size+0x35>
    67d4: 84 16        	sty	$16                     ; 0x16 <__rc6>
    67d6: a5 91        	lda	$91                     ; 0x91 <__zp_bss_size+0x37>
    67d8: a4 97        	ldy	$97                     ; 0x97 <__zp_bss_size+0x3d>
    67da: d0 22        	bne	$67fe <__divsf3+0x1bf>
    67dc: a4 9a        	ldy	$9a                     ; 0x9a <__zp_bss_size+0x40>
    67de: 80 20        	bra	$6800 <__divsf3+0x1c1>
    67e0: a4 14        	ldy	$14                     ; 0x14 <__rc4>
    67e2: c0 00        	cpy	#$0
    67e4: b0 10        	bcs	$67f6 <__divsf3+0x1b7>
    67e6: 80 25        	bra	$680d <__divsf3+0x1ce>
    67e8: e0 00        	cpx	#$0
    67ea: 90 03        	bcc	$67ef <__divsf3+0x1b0>
    67ec: 4c 0e 67     	jmp	$670e <__divsf3+0xcf>
    67ef: 4c 3c 67     	jmp	$673c <__divsf3+0xfd>
    67f2: c0 80        	cpy	#$80
    67f4: 90 17        	bcc	$680d <__divsf3+0x1ce>
    67f6: a4 8f        	ldy	$8f                     ; 0x8f <__zp_bss_size+0x35>
    67f8: 84 16        	sty	$16                     ; 0x16 <__rc6>
    67fa: a5 91        	lda	$91                     ; 0x91 <__zp_bss_size+0x37>
    67fc: 80 06        	bra	$6804 <__divsf3+0x1c5>
    67fe: a4 97        	ldy	$97                     ; 0x97 <__zp_bss_size+0x3d>
    6800: c0 00        	cpy	#$0
    6802: 90 09        	bcc	$680d <__divsf3+0x1ce>
    6804: 64 13        	stz	$13                     ; 0x13 <__rc3>
    6806: 64 14        	stz	$14                     ; 0x14 <__rc4>
    6808: 64 15        	stz	$15                     ; 0x15 <__rc5>
    680a: 4c 12 6a     	jmp	$6a12 <__divsf3+0x3d3>
    680d: 86 9e        	stx	$9e                     ; 0x9e <__zp_bss_size+0x44>
    680f: a4 94        	ldy	$94                     ; 0x94 <__zp_bss_size+0x3a>
    6811: 84 9f        	sty	$9f                     ; 0x9f <__zp_bss_size+0x45>
    6813: a6 12        	ldx	$12                     ; 0x12 <__rc2>
    6815: 86 a1        	stx	$a1                     ; 0xa1 <__zp_bss_size+0x47>
    6817: a4 9d        	ldy	$9d                     ; 0x9d <__zp_bss_size+0x43>
    6819: 98           	tya
    681a: 4a           	lsr
    681b: 85 12        	sta	$12                     ; 0x12 <__rc2>
    681d: a6 97        	ldx	$97                     ; 0x97 <__zp_bss_size+0x3d>
    681f: a5 97        	lda	$97                     ; 0x97 <__zp_bss_size+0x3d>
    6821: 6a           	ror
    6822: 85 13        	sta	$13                     ; 0x13 <__rc3>
    6824: a5 9a        	lda	$9a                     ; 0x9a <__zp_bss_size+0x40>
    6826: 6a           	ror
    6827: 85 14        	sta	$14                     ; 0x14 <__rc4>
    6829: a5 9a        	lda	$9a                     ; 0x9a <__zp_bss_size+0x40>
    682b: 05 14        	ora	$14                     ; 0x14 <__rc4>
    682d: 85 16        	sta	$16                     ; 0x16 <__rc6>
    682f: a5 97        	lda	$97                     ; 0x97 <__zp_bss_size+0x3d>
    6831: 05 13        	ora	$13                     ; 0x13 <__rc3>
    6833: 85 15        	sta	$15                     ; 0x15 <__rc5>
    6835: 98           	tya
    6836: 05 12        	ora	$12                     ; 0x12 <__rc2>
    6838: 85 17        	sta	$17                     ; 0x17 <__rc7>
    683a: 4a           	lsr
    683b: 5a           	phy
    683c: a4 15        	ldy	$15                     ; 0x15 <__rc5>
    683e: 84 12        	sty	$12                     ; 0x12 <__rc2>
    6840: 66 12        	ror	$12                     ; 0x12 <__rc2>
    6842: a4 16        	ldy	$16                     ; 0x16 <__rc6>
    6844: 84 13        	sty	$13                     ; 0x13 <__rc3>
    6846: 66 13        	ror	$13                     ; 0x13 <__rc3>
    6848: 4a           	lsr
    6849: 85 14        	sta	$14                     ; 0x14 <__rc4>
    684b: 66 12        	ror	$12                     ; 0x12 <__rc2>
    684d: 66 13        	ror	$13                     ; 0x13 <__rc3>
    684f: a5 16        	lda	$16                     ; 0x16 <__rc6>
    6851: 05 13        	ora	$13                     ; 0x13 <__rc3>
    6853: 85 16        	sta	$16                     ; 0x16 <__rc6>
    6855: a5 15        	lda	$15                     ; 0x15 <__rc5>
    6857: 05 12        	ora	$12                     ; 0x12 <__rc2>
    6859: 85 15        	sta	$15                     ; 0x15 <__rc5>
    685b: a5 17        	lda	$17                     ; 0x17 <__rc7>
    685d: 05 14        	ora	$14                     ; 0x14 <__rc4>
    685f: 85 17        	sta	$17                     ; 0x17 <__rc7>
    6861: 4a           	lsr
    6862: a4 15        	ldy	$15                     ; 0x15 <__rc5>
    6864: 84 12        	sty	$12                     ; 0x12 <__rc2>
    6866: 66 12        	ror	$12                     ; 0x12 <__rc2>
    6868: a4 16        	ldy	$16                     ; 0x16 <__rc6>
    686a: 84 13        	sty	$13                     ; 0x13 <__rc3>
    686c: 66 13        	ror	$13                     ; 0x13 <__rc3>
    686e: 4a           	lsr
    686f: 66 12        	ror	$12                     ; 0x12 <__rc2>
    6871: 66 13        	ror	$13                     ; 0x13 <__rc3>
    6873: 4a           	lsr
    6874: 66 12        	ror	$12                     ; 0x12 <__rc2>
    6876: 66 13        	ror	$13                     ; 0x13 <__rc3>
    6878: 4a           	lsr
    6879: 85 14        	sta	$14                     ; 0x14 <__rc4>
    687b: 66 12        	ror	$12                     ; 0x12 <__rc2>
    687d: 66 13        	ror	$13                     ; 0x13 <__rc3>
    687f: a5 16        	lda	$16                     ; 0x16 <__rc6>
    6881: 05 13        	ora	$13                     ; 0x13 <__rc3>
    6883: 85 16        	sta	$16                     ; 0x16 <__rc6>
    6885: a5 15        	lda	$15                     ; 0x15 <__rc5>
    6887: 05 12        	ora	$12                     ; 0x12 <__rc2>
    6889: 85 13        	sta	$13                     ; 0x13 <__rc3>
    688b: a5 17        	lda	$17                     ; 0x17 <__rc7>
    688d: 05 14        	ora	$14                     ; 0x14 <__rc4>
    688f: 85 17        	sta	$17                     ; 0x17 <__rc7>
    6891: a5 16        	lda	$16                     ; 0x16 <__rc6>
    6893: 05 13        	ora	$13                     ; 0x13 <__rc3>
    6895: 85 14        	sta	$14                     ; 0x14 <__rc4>
    6897: a5 13        	lda	$13                     ; 0x13 <__rc3>
    6899: 05 17        	ora	$17                     ; 0x17 <__rc7>
    689b: 85 15        	sta	$15                     ; 0x15 <__rc5>
    689d: a5 14        	lda	$14                     ; 0x14 <__rc4>
    689f: 05 17        	ora	$17                     ; 0x17 <__rc7>
    68a1: 85 16        	sta	$16                     ; 0x16 <__rc6>
    68a3: a5 17        	lda	$17                     ; 0x17 <__rc7>
    68a5: 85 14        	sta	$14                     ; 0x14 <__rc4>
    68a7: 46 14        	lsr	$14                     ; 0x14 <__rc4>
    68a9: a5 16        	lda	$16                     ; 0x16 <__rc6>
    68ab: 4a           	lsr
    68ac: 29 55        	and	#$55
    68ae: 85 12        	sta	$12                     ; 0x12 <__rc2>
    68b0: a5 15        	lda	$15                     ; 0x15 <__rc5>
    68b2: 4a           	lsr
    68b3: 29 55        	and	#$55
    68b5: 85 13        	sta	$13                     ; 0x13 <__rc3>
    68b7: a5 14        	lda	$14                     ; 0x14 <__rc4>
    68b9: 29 55        	and	#$55
    68bb: 85 14        	sta	$14                     ; 0x14 <__rc4>
    68bd: 38           	sec
    68be: a5 16        	lda	$16                     ; 0x16 <__rc6>
    68c0: e5 12        	sbc	$12                     ; 0x12 <__rc2>
    68c2: 85 12        	sta	$12                     ; 0x12 <__rc2>
    68c4: a5 15        	lda	$15                     ; 0x15 <__rc5>
    68c6: e5 13        	sbc	$13                     ; 0x13 <__rc3>
    68c8: 85 13        	sta	$13                     ; 0x13 <__rc3>
    68ca: a5 17        	lda	$17                     ; 0x17 <__rc7>
    68cc: e5 14        	sbc	$14                     ; 0x14 <__rc4>
    68ce: 85 14        	sta	$14                     ; 0x14 <__rc4>
    68d0: a9 00        	lda	#$0
    68d2: e9 00        	sbc	#$0
    68d4: 85 15        	sta	$15                     ; 0x15 <__rc5>
    68d6: a5 12        	lda	$12                     ; 0x12 <__rc2>
    68d8: 85 16        	sta	$16                     ; 0x16 <__rc6>
    68da: 29 33        	and	#$33
    68dc: 85 12        	sta	$12                     ; 0x12 <__rc2>
    68de: a5 13        	lda	$13                     ; 0x13 <__rc3>
    68e0: 85 17        	sta	$17                     ; 0x17 <__rc7>
    68e2: 29 33        	and	#$33
    68e4: 85 13        	sta	$13                     ; 0x13 <__rc3>
    68e6: a5 14        	lda	$14                     ; 0x14 <__rc4>
    68e8: 85 18        	sta	$18                     ; 0x18 <__rc8>
    68ea: 29 33        	and	#$33
    68ec: 85 14        	sta	$14                     ; 0x14 <__rc4>
    68ee: a5 15        	lda	$15                     ; 0x15 <__rc5>
    68f0: 4a           	lsr
    68f1: 85 19        	sta	$19                     ; 0x19 <__rc9>
    68f3: 46 18        	lsr	$18                     ; 0x18 <__rc8>
    68f5: 46 17        	lsr	$17                     ; 0x17 <__rc7>
    68f7: a5 16        	lda	$16                     ; 0x16 <__rc6>
    68f9: 4a           	lsr
    68fa: 46 19        	lsr	$19                     ; 0x19 <__rc9>
    68fc: 46 18        	lsr	$18                     ; 0x18 <__rc8>
    68fe: a4 17        	ldy	$17                     ; 0x17 <__rc7>
    6900: 84 16        	sty	$16                     ; 0x16 <__rc6>
    6902: 46 16        	lsr	$16                     ; 0x16 <__rc6>
    6904: 4a           	lsr
    6905: 29 33        	and	#$33
    6907: 85 1a        	sta	$1a                     ; 0x1a <__rc10>
    6909: a5 16        	lda	$16                     ; 0x16 <__rc6>
    690b: 29 33        	and	#$33
    690d: 85 16        	sta	$16                     ; 0x16 <__rc6>
    690f: a5 18        	lda	$18                     ; 0x18 <__rc8>
    6911: 29 33        	and	#$33
    6913: 85 17        	sta	$17                     ; 0x17 <__rc7>
    6915: a5 19        	lda	$19                     ; 0x19 <__rc9>
    6917: 29 33        	and	#$33
    6919: 85 18        	sta	$18                     ; 0x18 <__rc8>
    691b: a5 15        	lda	$15                     ; 0x15 <__rc5>
    691d: 29 33        	and	#$33
    691f: 85 15        	sta	$15                     ; 0x15 <__rc5>
    6921: 18           	clc
    6922: a5 1a        	lda	$1a                     ; 0x1a <__rc10>
    6924: 65 12        	adc	$12                     ; 0x12 <__rc2>
    6926: 85 12        	sta	$12                     ; 0x12 <__rc2>
    6928: a5 16        	lda	$16                     ; 0x16 <__rc6>
    692a: 65 13        	adc	$13                     ; 0x13 <__rc3>
    692c: 85 13        	sta	$13                     ; 0x13 <__rc3>
    692e: a5 17        	lda	$17                     ; 0x17 <__rc7>
    6930: 65 14        	adc	$14                     ; 0x14 <__rc4>
    6932: 85 14        	sta	$14                     ; 0x14 <__rc4>
    6934: a5 18        	lda	$18                     ; 0x18 <__rc8>
    6936: 65 15        	adc	$15                     ; 0x15 <__rc5>
    6938: 85 15        	sta	$15                     ; 0x15 <__rc5>
    693a: 4a           	lsr
    693b: 85 16        	sta	$16                     ; 0x16 <__rc6>
    693d: a5 14        	lda	$14                     ; 0x14 <__rc4>
    693f: 6a           	ror
    6940: a4 13        	ldy	$13                     ; 0x13 <__rc3>
    6942: 84 17        	sty	$17                     ; 0x17 <__rc7>
    6944: 66 17        	ror	$17                     ; 0x17 <__rc7>
    6946: a4 12        	ldy	$12                     ; 0x12 <__rc2>
    6948: 84 18        	sty	$18                     ; 0x18 <__rc8>
    694a: 7a           	ply
    694b: 66 18        	ror	$18                     ; 0x18 <__rc8>
    694d: 46 16        	lsr	$16                     ; 0x16 <__rc6>
    694f: 6a           	ror
    6950: 66 17        	ror	$17                     ; 0x17 <__rc7>
    6952: 66 18        	ror	$18                     ; 0x18 <__rc8>
    6954: 46 16        	lsr	$16                     ; 0x16 <__rc6>
    6956: 6a           	ror
    6957: 66 17        	ror	$17                     ; 0x17 <__rc7>
    6959: 66 18        	ror	$18                     ; 0x18 <__rc8>
    695b: 46 16        	lsr	$16                     ; 0x16 <__rc6>
    695d: 6a           	ror
    695e: 85 19        	sta	$19                     ; 0x19 <__rc9>
    6960: a5 17        	lda	$17                     ; 0x17 <__rc7>
    6962: 85 1a        	sta	$1a                     ; 0x1a <__rc10>
    6964: 66 1a        	ror	$1a                     ; 0x1a <__rc10>
    6966: a5 18        	lda	$18                     ; 0x18 <__rc8>
    6968: 6a           	ror
    6969: 18           	clc
    696a: 65 12        	adc	$12                     ; 0x12 <__rc2>
    696c: 85 12        	sta	$12                     ; 0x12 <__rc2>
    696e: a5 1a        	lda	$1a                     ; 0x1a <__rc10>
    6970: 65 13        	adc	$13                     ; 0x13 <__rc3>
    6972: 85 13        	sta	$13                     ; 0x13 <__rc3>
    6974: a5 19        	lda	$19                     ; 0x19 <__rc9>
    6976: 65 14        	adc	$14                     ; 0x14 <__rc4>
    6978: 85 14        	sta	$14                     ; 0x14 <__rc4>
    697a: a5 16        	lda	$16                     ; 0x16 <__rc6>
    697c: 65 15        	adc	$15                     ; 0x15 <__rc5>
    697e: 85 15        	sta	$15                     ; 0x15 <__rc5>
    6980: a5 12        	lda	$12                     ; 0x12 <__rc2>
    6982: 29 0f        	and	#$f
    6984: 85 12        	sta	$12                     ; 0x12 <__rc2>
    6986: 85 18        	sta	$18                     ; 0x18 <__rc8>
    6988: a5 13        	lda	$13                     ; 0x13 <__rc3>
    698a: 29 0f        	and	#$f
    698c: 85 13        	sta	$13                     ; 0x13 <__rc3>
    698e: 85 17        	sta	$17                     ; 0x17 <__rc7>
    6990: a5 14        	lda	$14                     ; 0x14 <__rc4>
    6992: 29 0f        	and	#$f
    6994: 85 14        	sta	$14                     ; 0x14 <__rc4>
    6996: 85 19        	sta	$19                     ; 0x19 <__rc9>
    6998: a5 15        	lda	$15                     ; 0x15 <__rc5>
    699a: 29 0f        	and	#$f
    699c: 85 16        	sta	$16                     ; 0x16 <__rc6>
    699e: 18           	clc
    699f: a5 18        	lda	$18                     ; 0x18 <__rc8>
    69a1: 69 00        	adc	#$0
    69a3: 85 15        	sta	$15                     ; 0x15 <__rc5>
    69a5: 85 1a        	sta	$1a                     ; 0x1a <__rc10>
    69a7: a5 17        	lda	$17                     ; 0x17 <__rc7>
    69a9: 65 12        	adc	$12                     ; 0x12 <__rc2>
    69ab: 85 12        	sta	$12                     ; 0x12 <__rc2>
    69ad: 85 18        	sta	$18                     ; 0x18 <__rc8>
    69af: a5 19        	lda	$19                     ; 0x19 <__rc9>
    69b1: 65 13        	adc	$13                     ; 0x13 <__rc3>
    69b3: 85 17        	sta	$17                     ; 0x17 <__rc7>
    69b5: a5 16        	lda	$16                     ; 0x16 <__rc6>
    69b7: 65 14        	adc	$14                     ; 0x14 <__rc4>
    69b9: 85 13        	sta	$13                     ; 0x13 <__rc3>
    69bb: 18           	clc
    69bc: a5 1a        	lda	$1a                     ; 0x1a <__rc10>
    69be: 69 00        	adc	#$0
    69c0: a5 18        	lda	$18                     ; 0x18 <__rc8>
    69c2: 69 00        	adc	#$0
    69c4: a5 17        	lda	$17                     ; 0x17 <__rc7>
    69c6: 65 15        	adc	$15                     ; 0x15 <__rc5>
    69c8: a5 13        	lda	$13                     ; 0x13 <__rc3>
    69ca: 65 12        	adc	$12                     ; 0x12 <__rc2>
    69cc: 85 12        	sta	$12                     ; 0x12 <__rc2>
    69ce: a9 20        	lda	#$20
    69d0: 38           	sec
    69d1: e5 12        	sbc	$12                     ; 0x12 <__rc2>
    69d3: 85 12        	sta	$12                     ; 0x12 <__rc2>
    69d5: a9 00        	lda	#$0
    69d7: e9 00        	sbc	#$0
    69d9: 85 93        	sta	$93                     ; 0x93 <__zp_bss_size+0x39>
    69db: 64 13        	stz	$13                     ; 0x13 <__rc3>
    69dd: a5 12        	lda	$12                     ; 0x12 <__rc2>
    69df: 85 94        	sta	$94                     ; 0x94 <__zp_bss_size+0x3a>
    69e1: 18           	clc
    69e2: 69 f8        	adc	#$f8
    69e4: 85 14        	sta	$14                     ; 0x14 <__rc4>
    69e6: 84 12        	sty	$12                     ; 0x12 <__rc2>
    69e8: a5 9a        	lda	$9a                     ; 0x9a <__zp_bss_size+0x40>
    69ea: 20 b0 60     	jsr	$60b0 <__ashlsi3>
    69ed: 85 9a        	sta	$9a                     ; 0x9a <__zp_bss_size+0x40>
    69ef: 86 97        	stx	$97                     ; 0x97 <__zp_bss_size+0x3d>
    69f1: a6 12        	ldx	$12                     ; 0x12 <__rc2>
    69f3: 86 9d        	stx	$9d                     ; 0x9d <__zp_bss_size+0x43>
    69f5: a9 09        	lda	#$9
    69f7: 38           	sec
    69f8: e5 94        	sbc	$94                     ; 0x94 <__zp_bss_size+0x3a>
    69fa: 85 14        	sta	$14                     ; 0x14 <__rc4>
    69fc: a9 00        	lda	#$0
    69fe: e5 93        	sbc	$93                     ; 0x93 <__zp_bss_size+0x39>
    6a00: 85 15        	sta	$15                     ; 0x15 <__rc5>
    6a02: a6 a1        	ldx	$a1                     ; 0xa1 <__zp_bss_size+0x47>
    6a04: 86 12        	stx	$12                     ; 0x12 <__rc2>
    6a06: a4 9f        	ldy	$9f                     ; 0x9f <__zp_bss_size+0x45>
    6a08: 84 94        	sty	$94                     ; 0x94 <__zp_bss_size+0x3a>
    6a0a: a6 9e        	ldx	$9e                     ; 0x9e <__zp_bss_size+0x44>
    6a0c: a4 8f        	ldy	$8f                     ; 0x8f <__zp_bss_size+0x35>
    6a0e: 84 16        	sty	$16                     ; 0x16 <__rc6>
    6a10: a5 91        	lda	$91                     ; 0x91 <__zp_bss_size+0x37>
    6a12: a4 92        	ldy	$92                     ; 0x92 <__zp_bss_size+0x38>
    6a14: d0 11        	bne	$6a27 <__divsf3+0x3e8>
    6a16: c9 80        	cmp	#$80
    6a18: d0 1e        	bne	$6a38 <__divsf3+0x3f9>
    6a1a: 8a           	txa
    6a1b: f0 03        	beq	$6a20 <__divsf3+0x3e1>
    6a1d: 4c a3 71     	jmp	$71a3 <__divsf3+0xb64>
    6a20: 86 9e        	stx	$9e                     ; 0x9e <__zp_bss_size+0x44>
    6a22: a6 94        	ldx	$94                     ; 0x94 <__zp_bss_size+0x3a>
    6a24: 4c a9 71     	jmp	$71a9 <__divsf3+0xb6a>
    6a27: a4 92        	ldy	$92                     ; 0x92 <__zp_bss_size+0x38>
    6a29: 86 9e        	stx	$9e                     ; 0x9e <__zp_bss_size+0x44>
    6a2b: c0 00        	cpy	#$0
    6a2d: 90 0f        	bcc	$6a3e <__divsf3+0x3ff>
    6a2f: a6 13        	ldx	$13                     ; 0x13 <__rc3>
    6a31: 86 a0        	stx	$a0                     ; 0xa0 <__zp_bss_size+0x46>
    6a33: a0 00        	ldy	#$0
    6a35: 4c 44 6c     	jmp	$6c44 <__divsf3+0x605>
    6a38: 86 9e        	stx	$9e                     ; 0x9e <__zp_bss_size+0x44>
    6a3a: c9 80        	cmp	#$80
    6a3c: b0 f1        	bcs	$6a2f <__divsf3+0x3f0>
    6a3e: a6 15        	ldx	$15                     ; 0x15 <__rc5>
    6a40: 86 9f        	stx	$9f                     ; 0x9f <__zp_bss_size+0x45>
    6a42: a6 14        	ldx	$14                     ; 0x14 <__rc4>
    6a44: 86 a2        	stx	$a2                     ; 0xa2 <__zp_bss_size+0x48>
    6a46: a6 12        	ldx	$12                     ; 0x12 <__rc2>
    6a48: 86 a1        	stx	$a1                     ; 0xa1 <__zp_bss_size+0x47>
    6a4a: a6 13        	ldx	$13                     ; 0x13 <__rc3>
    6a4c: 86 a0        	stx	$a0                     ; 0xa0 <__zp_bss_size+0x46>
    6a4e: a5 8f        	lda	$8f                     ; 0x8f <__zp_bss_size+0x35>
    6a50: 4a           	lsr
    6a51: 85 12        	sta	$12                     ; 0x12 <__rc2>
    6a53: a6 9e        	ldx	$9e                     ; 0x9e <__zp_bss_size+0x44>
    6a55: 8a           	txa
    6a56: 6a           	ror
    6a57: 85 13        	sta	$13                     ; 0x13 <__rc3>
    6a59: a5 94        	lda	$94                     ; 0x94 <__zp_bss_size+0x3a>
    6a5b: 6a           	ror
    6a5c: 85 14        	sta	$14                     ; 0x14 <__rc4>
    6a5e: a5 94        	lda	$94                     ; 0x94 <__zp_bss_size+0x3a>
    6a60: 05 14        	ora	$14                     ; 0x14 <__rc4>
    6a62: 85 15        	sta	$15                     ; 0x15 <__rc5>
    6a64: 8a           	txa
    6a65: 05 13        	ora	$13                     ; 0x13 <__rc3>
    6a67: a8           	tay
    6a68: a5 8f        	lda	$8f                     ; 0x8f <__zp_bss_size+0x35>
    6a6a: 05 12        	ora	$12                     ; 0x12 <__rc2>
    6a6c: 85 17        	sta	$17                     ; 0x17 <__rc7>
    6a6e: 4a           	lsr
    6a6f: 84 12        	sty	$12                     ; 0x12 <__rc2>
    6a71: 66 12        	ror	$12                     ; 0x12 <__rc2>
    6a73: 48           	pha
    6a74: a5 15        	lda	$15                     ; 0x15 <__rc5>
    6a76: 85 13        	sta	$13                     ; 0x13 <__rc3>
    6a78: 68           	pla
    6a79: 66 13        	ror	$13                     ; 0x13 <__rc3>
    6a7b: 4a           	lsr
    6a7c: 85 14        	sta	$14                     ; 0x14 <__rc4>
    6a7e: 66 12        	ror	$12                     ; 0x12 <__rc2>
    6a80: 66 13        	ror	$13                     ; 0x13 <__rc3>
    6a82: a5 15        	lda	$15                     ; 0x15 <__rc5>
    6a84: 05 13        	ora	$13                     ; 0x13 <__rc3>
    6a86: 85 15        	sta	$15                     ; 0x15 <__rc5>
    6a88: 98           	tya
    6a89: 05 12        	ora	$12                     ; 0x12 <__rc2>
    6a8b: a8           	tay
    6a8c: a5 17        	lda	$17                     ; 0x17 <__rc7>
    6a8e: 05 14        	ora	$14                     ; 0x14 <__rc4>
    6a90: 85 17        	sta	$17                     ; 0x17 <__rc7>
    6a92: 4a           	lsr
    6a93: 84 12        	sty	$12                     ; 0x12 <__rc2>
    6a95: 66 12        	ror	$12                     ; 0x12 <__rc2>
    6a97: 48           	pha
    6a98: a5 15        	lda	$15                     ; 0x15 <__rc5>
    6a9a: 85 13        	sta	$13                     ; 0x13 <__rc3>
    6a9c: 68           	pla
    6a9d: 66 13        	ror	$13                     ; 0x13 <__rc3>
    6a9f: 4a           	lsr
    6aa0: 66 12        	ror	$12                     ; 0x12 <__rc2>
    6aa2: 66 13        	ror	$13                     ; 0x13 <__rc3>
    6aa4: 4a           	lsr
    6aa5: 66 12        	ror	$12                     ; 0x12 <__rc2>
    6aa7: 66 13        	ror	$13                     ; 0x13 <__rc3>
    6aa9: 4a           	lsr
    6aaa: 85 14        	sta	$14                     ; 0x14 <__rc4>
    6aac: 66 12        	ror	$12                     ; 0x12 <__rc2>
    6aae: 66 13        	ror	$13                     ; 0x13 <__rc3>
    6ab0: a5 15        	lda	$15                     ; 0x15 <__rc5>
    6ab2: 05 13        	ora	$13                     ; 0x13 <__rc3>
    6ab4: 85 13        	sta	$13                     ; 0x13 <__rc3>
    6ab6: 98           	tya
    6ab7: 05 12        	ora	$12                     ; 0x12 <__rc2>
    6ab9: a8           	tay
    6aba: a5 17        	lda	$17                     ; 0x17 <__rc7>
    6abc: 05 14        	ora	$14                     ; 0x14 <__rc4>
    6abe: 85 14        	sta	$14                     ; 0x14 <__rc4>
    6ac0: 84 12        	sty	$12                     ; 0x12 <__rc2>
    6ac2: a5 13        	lda	$13                     ; 0x13 <__rc3>
    6ac4: 05 12        	ora	$12                     ; 0x12 <__rc2>
    6ac6: 85 13        	sta	$13                     ; 0x13 <__rc3>
    6ac8: 98           	tya
    6ac9: 05 14        	ora	$14                     ; 0x14 <__rc4>
    6acb: a8           	tay
    6acc: a5 13        	lda	$13                     ; 0x13 <__rc3>
    6ace: 05 14        	ora	$14                     ; 0x14 <__rc4>
    6ad0: 85 15        	sta	$15                     ; 0x15 <__rc5>
    6ad2: a5 14        	lda	$14                     ; 0x14 <__rc4>
    6ad4: 85 17        	sta	$17                     ; 0x17 <__rc7>
    6ad6: 46 14        	lsr	$14                     ; 0x14 <__rc4>
    6ad8: a5 15        	lda	$15                     ; 0x15 <__rc5>
    6ada: 4a           	lsr
    6adb: 29 55        	and	#$55
    6add: 85 12        	sta	$12                     ; 0x12 <__rc2>
    6adf: 98           	tya
    6ae0: 4a           	lsr
    6ae1: 29 55        	and	#$55
    6ae3: 85 13        	sta	$13                     ; 0x13 <__rc3>
    6ae5: a5 14        	lda	$14                     ; 0x14 <__rc4>
    6ae7: 29 55        	and	#$55
    6ae9: 85 14        	sta	$14                     ; 0x14 <__rc4>
    6aeb: 38           	sec
    6aec: a5 15        	lda	$15                     ; 0x15 <__rc5>
    6aee: e5 12        	sbc	$12                     ; 0x12 <__rc2>
    6af0: 85 12        	sta	$12                     ; 0x12 <__rc2>
    6af2: 98           	tya
    6af3: e5 13        	sbc	$13                     ; 0x13 <__rc3>
    6af5: 85 13        	sta	$13                     ; 0x13 <__rc3>
    6af7: a5 17        	lda	$17                     ; 0x17 <__rc7>
    6af9: e5 14        	sbc	$14                     ; 0x14 <__rc4>
    6afb: a8           	tay
    6afc: a9 00        	lda	#$0
    6afe: e9 00        	sbc	#$0
    6b00: 85 15        	sta	$15                     ; 0x15 <__rc5>
    6b02: a5 12        	lda	$12                     ; 0x12 <__rc2>
    6b04: 85 17        	sta	$17                     ; 0x17 <__rc7>
    6b06: 29 33        	and	#$33
    6b08: 85 12        	sta	$12                     ; 0x12 <__rc2>
    6b0a: a5 13        	lda	$13                     ; 0x13 <__rc3>
    6b0c: 85 19        	sta	$19                     ; 0x19 <__rc9>
    6b0e: 29 33        	and	#$33
    6b10: 85 13        	sta	$13                     ; 0x13 <__rc3>
    6b12: 98           	tya
    6b13: 29 33        	and	#$33
    6b15: 85 14        	sta	$14                     ; 0x14 <__rc4>
    6b17: a5 15        	lda	$15                     ; 0x15 <__rc5>
    6b19: 4a           	lsr
    6b1a: 85 1b        	sta	$1b                     ; 0x1b <__rc11>
    6b1c: 98           	tya
    6b1d: 4a           	lsr
    6b1e: 85 1a        	sta	$1a                     ; 0x1a <__rc10>
    6b20: 46 19        	lsr	$19                     ; 0x19 <__rc9>
    6b22: a5 17        	lda	$17                     ; 0x17 <__rc7>
    6b24: 4a           	lsr
    6b25: 46 1b        	lsr	$1b                     ; 0x1b <__rc11>
    6b27: 46 1a        	lsr	$1a                     ; 0x1a <__rc10>
    6b29: a4 19        	ldy	$19                     ; 0x19 <__rc9>
    6b2b: 84 17        	sty	$17                     ; 0x17 <__rc7>
    6b2d: 46 17        	lsr	$17                     ; 0x17 <__rc7>
    6b2f: 4a           	lsr
    6b30: 29 33        	and	#$33
    6b32: 85 1c        	sta	$1c                     ; 0x1c <__rc12>
    6b34: a5 17        	lda	$17                     ; 0x17 <__rc7>
    6b36: 29 33        	and	#$33
    6b38: a8           	tay
    6b39: a5 1a        	lda	$1a                     ; 0x1a <__rc10>
    6b3b: 29 33        	and	#$33
    6b3d: 85 17        	sta	$17                     ; 0x17 <__rc7>
    6b3f: a5 1b        	lda	$1b                     ; 0x1b <__rc11>
    6b41: 29 33        	and	#$33
    6b43: 85 19        	sta	$19                     ; 0x19 <__rc9>
    6b45: a5 15        	lda	$15                     ; 0x15 <__rc5>
    6b47: 29 33        	and	#$33
    6b49: 85 15        	sta	$15                     ; 0x15 <__rc5>
    6b4b: 18           	clc
    6b4c: a5 1c        	lda	$1c                     ; 0x1c <__rc12>
    6b4e: 65 12        	adc	$12                     ; 0x12 <__rc2>
    6b50: 85 12        	sta	$12                     ; 0x12 <__rc2>
    6b52: 98           	tya
    6b53: 65 13        	adc	$13                     ; 0x13 <__rc3>
    6b55: 85 13        	sta	$13                     ; 0x13 <__rc3>
    6b57: a5 17        	lda	$17                     ; 0x17 <__rc7>
    6b59: 65 14        	adc	$14                     ; 0x14 <__rc4>
    6b5b: 85 14        	sta	$14                     ; 0x14 <__rc4>
    6b5d: a5 19        	lda	$19                     ; 0x19 <__rc9>
    6b5f: 65 15        	adc	$15                     ; 0x15 <__rc5>
    6b61: 85 15        	sta	$15                     ; 0x15 <__rc5>
    6b63: 4a           	lsr
    6b64: a8           	tay
    6b65: a5 14        	lda	$14                     ; 0x14 <__rc4>
    6b67: 6a           	ror
    6b68: 5a           	phy
    6b69: a4 13        	ldy	$13                     ; 0x13 <__rc3>
    6b6b: 84 19        	sty	$19                     ; 0x19 <__rc9>
    6b6d: 66 19        	ror	$19                     ; 0x19 <__rc9>
    6b6f: a4 12        	ldy	$12                     ; 0x12 <__rc2>
    6b71: 84 17        	sty	$17                     ; 0x17 <__rc7>
    6b73: 66 17        	ror	$17                     ; 0x17 <__rc7>
    6b75: a4 17        	ldy	$17                     ; 0x17 <__rc7>
    6b77: 84 1a        	sty	$1a                     ; 0x1a <__rc10>
    6b79: 7a           	ply
    6b7a: 84 17        	sty	$17                     ; 0x17 <__rc7>
    6b7c: 46 17        	lsr	$17                     ; 0x17 <__rc7>
    6b7e: 6a           	ror
    6b7f: 66 19        	ror	$19                     ; 0x19 <__rc9>
    6b81: 66 1a        	ror	$1a                     ; 0x1a <__rc10>
    6b83: 46 17        	lsr	$17                     ; 0x17 <__rc7>
    6b85: 6a           	ror
    6b86: 66 19        	ror	$19                     ; 0x19 <__rc9>
    6b88: 66 1a        	ror	$1a                     ; 0x1a <__rc10>
    6b8a: 46 17        	lsr	$17                     ; 0x17 <__rc7>
    6b8c: 6a           	ror
    6b8d: 85 1b        	sta	$1b                     ; 0x1b <__rc11>
    6b8f: a4 19        	ldy	$19                     ; 0x19 <__rc9>
    6b91: 84 1c        	sty	$1c                     ; 0x1c <__rc12>
    6b93: 66 1c        	ror	$1c                     ; 0x1c <__rc12>
    6b95: a5 1a        	lda	$1a                     ; 0x1a <__rc10>
    6b97: 6a           	ror
    6b98: 18           	clc
    6b99: 65 12        	adc	$12                     ; 0x12 <__rc2>
    6b9b: a8           	tay
    6b9c: a5 1c        	lda	$1c                     ; 0x1c <__rc12>
    6b9e: 65 13        	adc	$13                     ; 0x13 <__rc3>
    6ba0: 85 13        	sta	$13                     ; 0x13 <__rc3>
    6ba2: a5 1b        	lda	$1b                     ; 0x1b <__rc11>
    6ba4: 65 14        	adc	$14                     ; 0x14 <__rc4>
    6ba6: 85 14        	sta	$14                     ; 0x14 <__rc4>
    6ba8: a5 17        	lda	$17                     ; 0x17 <__rc7>
    6baa: 65 15        	adc	$15                     ; 0x15 <__rc5>
    6bac: 85 15        	sta	$15                     ; 0x15 <__rc5>
    6bae: 98           	tya
    6baf: 29 0f        	and	#$f
    6bb1: 85 12        	sta	$12                     ; 0x12 <__rc2>
    6bb3: a8           	tay
    6bb4: a5 13        	lda	$13                     ; 0x13 <__rc3>
    6bb6: 29 0f        	and	#$f
    6bb8: 85 13        	sta	$13                     ; 0x13 <__rc3>
    6bba: 85 1a        	sta	$1a                     ; 0x1a <__rc10>
    6bbc: a5 14        	lda	$14                     ; 0x14 <__rc4>
    6bbe: 29 0f        	and	#$f
    6bc0: 85 14        	sta	$14                     ; 0x14 <__rc4>
    6bc2: 85 19        	sta	$19                     ; 0x19 <__rc9>
    6bc4: a5 15        	lda	$15                     ; 0x15 <__rc5>
    6bc6: 29 0f        	and	#$f
    6bc8: 85 17        	sta	$17                     ; 0x17 <__rc7>
    6bca: 18           	clc
    6bcb: 98           	tya
    6bcc: 69 00        	adc	#$0
    6bce: 85 15        	sta	$15                     ; 0x15 <__rc5>
    6bd0: 85 1b        	sta	$1b                     ; 0x1b <__rc11>
    6bd2: a5 1a        	lda	$1a                     ; 0x1a <__rc10>
    6bd4: 65 12        	adc	$12                     ; 0x12 <__rc2>
    6bd6: 85 12        	sta	$12                     ; 0x12 <__rc2>
    6bd8: a5 19        	lda	$19                     ; 0x19 <__rc9>
    6bda: 65 13        	adc	$13                     ; 0x13 <__rc3>
    6bdc: 85 13        	sta	$13                     ; 0x13 <__rc3>
    6bde: a5 17        	lda	$17                     ; 0x17 <__rc7>
    6be0: 65 14        	adc	$14                     ; 0x14 <__rc4>
    6be2: a8           	tay
    6be3: 18           	clc
    6be4: a5 1b        	lda	$1b                     ; 0x1b <__rc11>
    6be6: 69 00        	adc	#$0
    6be8: a5 12        	lda	$12                     ; 0x12 <__rc2>
    6bea: 69 00        	adc	#$0
    6bec: a5 13        	lda	$13                     ; 0x13 <__rc3>
    6bee: 65 15        	adc	$15                     ; 0x15 <__rc5>
    6bf0: 98           	tya
    6bf1: 65 12        	adc	$12                     ; 0x12 <__rc2>
    6bf3: 85 12        	sta	$12                     ; 0x12 <__rc2>
    6bf5: a9 20        	lda	#$20
    6bf7: 38           	sec
    6bf8: e5 12        	sbc	$12                     ; 0x12 <__rc2>
    6bfa: 85 8f        	sta	$8f                     ; 0x8f <__zp_bss_size+0x35>
    6bfc: a9 00        	lda	#$0
    6bfe: e9 00        	sbc	#$0
    6c00: 85 90        	sta	$90                     ; 0x90 <__zp_bss_size+0x36>
    6c02: a5 8f        	lda	$8f                     ; 0x8f <__zp_bss_size+0x35>
    6c04: 18           	clc
    6c05: 69 f8        	adc	#$f8
    6c07: a4 16        	ldy	$16                     ; 0x16 <__rc6>
    6c09: 84 12        	sty	$12                     ; 0x12 <__rc2>
    6c0b: 64 13        	stz	$13                     ; 0x13 <__rc3>
    6c0d: 85 14        	sta	$14                     ; 0x14 <__rc4>
    6c0f: a5 94        	lda	$94                     ; 0x94 <__zp_bss_size+0x3a>
    6c11: 20 b0 60     	jsr	$60b0 <__ashlsi3>
    6c14: 85 94        	sta	$94                     ; 0x94 <__zp_bss_size+0x3a>
    6c16: 86 9e        	stx	$9e                     ; 0x9e <__zp_bss_size+0x44>
    6c18: a6 12        	ldx	$12                     ; 0x12 <__rc2>
    6c1a: 86 16        	stx	$16                     ; 0x16 <__rc6>
    6c1c: a4 13        	ldy	$13                     ; 0x13 <__rc3>
    6c1e: a6 a2        	ldx	$a2                     ; 0xa2 <__zp_bss_size+0x48>
    6c20: 86 12        	stx	$12                     ; 0x12 <__rc2>
    6c22: 18           	clc
    6c23: a5 8f        	lda	$8f                     ; 0x8f <__zp_bss_size+0x35>
    6c25: 65 12        	adc	$12                     ; 0x12 <__rc2>
    6c27: 85 13        	sta	$13                     ; 0x13 <__rc3>
    6c29: a6 9f        	ldx	$9f                     ; 0x9f <__zp_bss_size+0x45>
    6c2b: 86 12        	stx	$12                     ; 0x12 <__rc2>
    6c2d: a5 90        	lda	$90                     ; 0x90 <__zp_bss_size+0x36>
    6c2f: 65 12        	adc	$12                     ; 0x12 <__rc2>
    6c31: 85 12        	sta	$12                     ; 0x12 <__rc2>
    6c33: 18           	clc
    6c34: a5 13        	lda	$13                     ; 0x13 <__rc3>
    6c36: 69 f7        	adc	#$f7
    6c38: 85 14        	sta	$14                     ; 0x14 <__rc4>
    6c3a: a5 12        	lda	$12                     ; 0x12 <__rc2>
    6c3c: 69 ff        	adc	#$ff
    6c3e: 85 15        	sta	$15                     ; 0x15 <__rc5>
    6c40: a6 a1        	ldx	$a1                     ; 0xa1 <__zp_bss_size+0x47>
    6c42: 86 12        	stx	$12                     ; 0x12 <__rc2>
    6c44: a5 16        	lda	$16                     ; 0x16 <__rc6>
    6c46: 09 80        	ora	#$80
    6c48: 38           	sec
    6c49: 85 90        	sta	$90                     ; 0x90 <__zp_bss_size+0x36>
    6c4b: a5 9b        	lda	$9b                     ; 0x9b <__zp_bss_size+0x41>
    6c4d: e5 12        	sbc	$12                     ; 0x12 <__rc2>
    6c4f: aa           	tax
    6c50: a9 00        	lda	#$0
    6c52: e9 00        	sbc	#$0
    6c54: 85 12        	sta	$12                     ; 0x12 <__rc2>
    6c56: 18           	clc
    6c57: 8a           	txa
    6c58: 65 14        	adc	$14                     ; 0x14 <__rc4>
    6c5a: aa           	tax
    6c5b: a5 12        	lda	$12                     ; 0x12 <__rc2>
    6c5d: 65 15        	adc	$15                     ; 0x15 <__rc5>
    6c5f: 85 12        	sta	$12                     ; 0x12 <__rc2>
    6c61: 18           	clc
    6c62: 8a           	txa
    6c63: 86 9b        	stx	$9b                     ; 0x9b <__zp_bss_size+0x41>
    6c65: 69 7f        	adc	#$7f
    6c67: 85 a4        	sta	$a4                     ; 0xa4 <__zp_bss_size+0x4a>
    6c69: a5 12        	lda	$12                     ; 0x12 <__rc2>
    6c6b: a6 12        	ldx	$12                     ; 0x12 <__rc2>
    6c6d: 86 a8        	stx	$a8                     ; 0xa8 <__zp_bss_size+0x4e>
    6c6f: 69 00        	adc	#$0
    6c71: 85 a3        	sta	$a3                     ; 0xa3 <__zp_bss_size+0x49>
    6c73: a5 94        	lda	$94                     ; 0x94 <__zp_bss_size+0x3a>
    6c75: 85 9f        	sta	$9f                     ; 0x9f <__zp_bss_size+0x45>
    6c77: 06 94        	asl	$94                     ; 0x94 <__zp_bss_size+0x3a>
    6c79: a6 9e        	ldx	$9e                     ; 0x9e <__zp_bss_size+0x44>
    6c7b: 86 91        	stx	$91                     ; 0x91 <__zp_bss_size+0x37>
    6c7d: 26 91        	rol	$91                     ; 0x91 <__zp_bss_size+0x37>
    6c7f: a6 90        	ldx	$90                     ; 0x90 <__zp_bss_size+0x36>
    6c81: 86 a2        	stx	$a2                     ; 0xa2 <__zp_bss_size+0x48>
    6c83: 26 90        	rol	$90                     ; 0x90 <__zp_bss_size+0x36>
    6c85: 98           	tya
    6c86: 84 a1        	sty	$a1                     ; 0xa1 <__zp_bss_size+0x47>
    6c88: 2a           	rol
    6c89: 85 ac        	sta	$ac                     ; 0xac <__zp_bss_size+0x52>
    6c8b: 4a           	lsr
    6c8c: a6 90        	ldx	$90                     ; 0x90 <__zp_bss_size+0x36>
    6c8e: 86 ab        	stx	$ab                     ; 0xab <__zp_bss_size+0x51>
    6c90: 66 90        	ror	$90                     ; 0x90 <__zp_bss_size+0x36>
    6c92: a6 91        	ldx	$91                     ; 0x91 <__zp_bss_size+0x37>
    6c94: 86 aa        	stx	$aa                     ; 0xaa <__zp_bss_size+0x50>
    6c96: 66 91        	ror	$91                     ; 0x91 <__zp_bss_size+0x37>
    6c98: a6 94        	ldx	$94                     ; 0x94 <__zp_bss_size+0x3a>
    6c9a: 86 a9        	stx	$a9                     ; 0xa9 <__zp_bss_size+0x4f>
    6c9c: 66 94        	ror	$94                     ; 0x94 <__zp_bss_size+0x3a>
    6c9e: 64 95        	stz	$95                     ; 0x95 <__zp_bss_size+0x3b>
    6ca0: 66 95        	ror	$95                     ; 0x95 <__zp_bss_size+0x3b>
    6ca2: a9 33        	lda	#$33
    6ca4: 38           	sec
    6ca5: e5 95        	sbc	$95                     ; 0x95 <__zp_bss_size+0x3b>
    6ca7: 85 8f        	sta	$8f                     ; 0x8f <__zp_bss_size+0x35>
    6ca9: a9 f3        	lda	#$f3
    6cab: e5 94        	sbc	$94                     ; 0x94 <__zp_bss_size+0x3a>
    6cad: 85 96        	sta	$96                     ; 0x96 <__zp_bss_size+0x3c>
    6caf: a9 04        	lda	#$4
    6cb1: e5 91        	sbc	$91                     ; 0x91 <__zp_bss_size+0x37>
    6cb3: 85 98        	sta	$98                     ; 0x98 <__zp_bss_size+0x3e>
    6cb5: a9 75        	lda	#$75
    6cb7: e5 90        	sbc	$90                     ; 0x90 <__zp_bss_size+0x36>
    6cb9: 85 99        	sta	$99                     ; 0x99 <__zp_bss_size+0x3f>
    6cbb: a6 9d        	ldx	$9d                     ; 0x9d <__zp_bss_size+0x43>
    6cbd: 8a           	txa
    6cbe: 09 80        	ora	#$80
    6cc0: 85 93        	sta	$93                     ; 0x93 <__zp_bss_size+0x39>
    6cc2: 64 92        	stz	$92                     ; 0x92 <__zp_bss_size+0x38>
    6cc4: a6 98        	ldx	$98                     ; 0x98 <__zp_bss_size+0x3e>
    6cc6: 86 12        	stx	$12                     ; 0x12 <__rc2>
    6cc8: a6 99        	ldx	$99                     ; 0x99 <__zp_bss_size+0x3f>
    6cca: 86 13        	stx	$13                     ; 0x13 <__rc3>
    6ccc: 64 14        	stz	$14                     ; 0x14 <__rc4>
    6cce: 64 15        	stz	$15                     ; 0x15 <__rc5>
    6cd0: 64 16        	stz	$16                     ; 0x16 <__rc6>
    6cd2: 64 17        	stz	$17                     ; 0x17 <__rc7>
    6cd4: a6 95        	ldx	$95                     ; 0x95 <__zp_bss_size+0x3b>
    6cd6: 86 18        	stx	$18                     ; 0x18 <__rc8>
    6cd8: a6 94        	ldx	$94                     ; 0x94 <__zp_bss_size+0x3a>
    6cda: 86 19        	stx	$19                     ; 0x19 <__rc9>
    6cdc: a6 91        	ldx	$91                     ; 0x91 <__zp_bss_size+0x37>
    6cde: 86 1a        	stx	$1a                     ; 0x1a <__rc10>
    6ce0: a6 90        	ldx	$90                     ; 0x90 <__zp_bss_size+0x36>
    6ce2: 86 1b        	stx	$1b                     ; 0x1b <__rc11>
    6ce4: 64 1c        	stz	$1c                     ; 0x1c <__rc12>
    6ce6: 64 1d        	stz	$1d                     ; 0x1d <__rc13>
    6ce8: 64 1e        	stz	$1e                     ; 0x1e <__rc14>
    6cea: 64 1f        	stz	$1f                     ; 0x1f <__rc15>
    6cec: a6 96        	ldx	$96                     ; 0x96 <__zp_bss_size+0x3c>
    6cee: a5 8f        	lda	$8f                     ; 0x8f <__zp_bss_size+0x35>
    6cf0: 20 9b 61     	jsr	$619b <__muldi3>
    6cf3: a9 00        	lda	#$0
    6cf5: 38           	sec
    6cf6: e5 14        	sbc	$14                     ; 0x14 <__rc4>
    6cf8: a8           	tay
    6cf9: a9 00        	lda	#$0
    6cfb: e5 15        	sbc	$15                     ; 0x15 <__rc5>
    6cfd: aa           	tax
    6cfe: a9 00        	lda	#$0
    6d00: e5 16        	sbc	$16                     ; 0x16 <__rc6>
    6d02: 85 12        	sta	$12                     ; 0x12 <__rc2>
    6d04: a9 00        	lda	#$0
    6d06: e5 17        	sbc	$17                     ; 0x17 <__rc7>
    6d08: 85 13        	sta	$13                     ; 0x13 <__rc3>
    6d0a: a5 8f        	lda	$8f                     ; 0x8f <__zp_bss_size+0x35>
    6d0c: 85 18        	sta	$18                     ; 0x18 <__rc8>
    6d0e: a5 96        	lda	$96                     ; 0x96 <__zp_bss_size+0x3c>
    6d10: 85 19        	sta	$19                     ; 0x19 <__rc9>
    6d12: a5 98        	lda	$98                     ; 0x98 <__zp_bss_size+0x3e>
    6d14: 85 1a        	sta	$1a                     ; 0x1a <__rc10>
    6d16: a5 99        	lda	$99                     ; 0x99 <__zp_bss_size+0x3f>
    6d18: 85 1b        	sta	$1b                     ; 0x1b <__rc11>
    6d1a: 64 14        	stz	$14                     ; 0x14 <__rc4>
    6d1c: 64 15        	stz	$15                     ; 0x15 <__rc5>
    6d1e: 64 16        	stz	$16                     ; 0x16 <__rc6>
    6d20: 64 17        	stz	$17                     ; 0x17 <__rc7>
    6d22: 64 1c        	stz	$1c                     ; 0x1c <__rc12>
    6d24: 64 1d        	stz	$1d                     ; 0x1d <__rc13>
    6d26: 64 1e        	stz	$1e                     ; 0x1e <__rc14>
    6d28: 64 1f        	stz	$1f                     ; 0x1f <__rc15>
    6d2a: 98           	tya
    6d2b: 20 9b 61     	jsr	$619b <__muldi3>
    6d2e: a6 14        	ldx	$14                     ; 0x14 <__rc4>
    6d30: 86 96        	stx	$96                     ; 0x96 <__zp_bss_size+0x3c>
    6d32: a6 15        	ldx	$15                     ; 0x15 <__rc5>
    6d34: 86 8f        	stx	$8f                     ; 0x8f <__zp_bss_size+0x35>
    6d36: a6 16        	ldx	$16                     ; 0x16 <__rc6>
    6d38: 86 98        	stx	$98                     ; 0x98 <__zp_bss_size+0x3e>
    6d3a: a6 17        	ldx	$17                     ; 0x17 <__rc7>
    6d3c: 86 99        	stx	$99                     ; 0x99 <__zp_bss_size+0x3f>
    6d3e: 06 13        	asl	$13                     ; 0x13 <__rc3>
    6d40: 26 96        	rol	$96                     ; 0x96 <__zp_bss_size+0x3c>
    6d42: 26 8f        	rol	$8f                     ; 0x8f <__zp_bss_size+0x35>
    6d44: 26 98        	rol	$98                     ; 0x98 <__zp_bss_size+0x3e>
    6d46: 26 99        	rol	$99                     ; 0x99 <__zp_bss_size+0x3f>
    6d48: a6 98        	ldx	$98                     ; 0x98 <__zp_bss_size+0x3e>
    6d4a: 86 12        	stx	$12                     ; 0x12 <__rc2>
    6d4c: a6 99        	ldx	$99                     ; 0x99 <__zp_bss_size+0x3f>
    6d4e: 86 13        	stx	$13                     ; 0x13 <__rc3>
    6d50: 64 14        	stz	$14                     ; 0x14 <__rc4>
    6d52: 64 15        	stz	$15                     ; 0x15 <__rc5>
    6d54: 64 16        	stz	$16                     ; 0x16 <__rc6>
    6d56: 64 17        	stz	$17                     ; 0x17 <__rc7>
    6d58: a6 95        	ldx	$95                     ; 0x95 <__zp_bss_size+0x3b>
    6d5a: 86 18        	stx	$18                     ; 0x18 <__rc8>
    6d5c: a6 94        	ldx	$94                     ; 0x94 <__zp_bss_size+0x3a>
    6d5e: 86 19        	stx	$19                     ; 0x19 <__rc9>
    6d60: a6 91        	ldx	$91                     ; 0x91 <__zp_bss_size+0x37>
    6d62: 86 1a        	stx	$1a                     ; 0x1a <__rc10>
    6d64: a6 90        	ldx	$90                     ; 0x90 <__zp_bss_size+0x36>
    6d66: 86 1b        	stx	$1b                     ; 0x1b <__rc11>
    6d68: 64 1c        	stz	$1c                     ; 0x1c <__rc12>
    6d6a: 64 1d        	stz	$1d                     ; 0x1d <__rc13>
    6d6c: 64 1e        	stz	$1e                     ; 0x1e <__rc14>
    6d6e: 64 1f        	stz	$1f                     ; 0x1f <__rc15>
    6d70: a6 8f        	ldx	$8f                     ; 0x8f <__zp_bss_size+0x35>
    6d72: a5 96        	lda	$96                     ; 0x96 <__zp_bss_size+0x3c>
    6d74: 20 9b 61     	jsr	$619b <__muldi3>
    6d77: a9 00        	lda	#$0
    6d79: 38           	sec
    6d7a: e5 14        	sbc	$14                     ; 0x14 <__rc4>
    6d7c: 85 18        	sta	$18                     ; 0x18 <__rc8>
    6d7e: a9 00        	lda	#$0
    6d80: e5 15        	sbc	$15                     ; 0x15 <__rc5>
    6d82: 85 19        	sta	$19                     ; 0x19 <__rc9>
    6d84: a9 00        	lda	#$0
    6d86: e5 16        	sbc	$16                     ; 0x16 <__rc6>
    6d88: 85 1a        	sta	$1a                     ; 0x1a <__rc10>
    6d8a: a9 00        	lda	#$0
    6d8c: e5 17        	sbc	$17                     ; 0x17 <__rc7>
    6d8e: a6 98        	ldx	$98                     ; 0x98 <__zp_bss_size+0x3e>
    6d90: 86 12        	stx	$12                     ; 0x12 <__rc2>
    6d92: a6 99        	ldx	$99                     ; 0x99 <__zp_bss_size+0x3f>
    6d94: 86 13        	stx	$13                     ; 0x13 <__rc3>
    6d96: 64 14        	stz	$14                     ; 0x14 <__rc4>
    6d98: 64 15        	stz	$15                     ; 0x15 <__rc5>
    6d9a: 64 16        	stz	$16                     ; 0x16 <__rc6>
    6d9c: 64 17        	stz	$17                     ; 0x17 <__rc7>
    6d9e: 85 1b        	sta	$1b                     ; 0x1b <__rc11>
    6da0: 64 1c        	stz	$1c                     ; 0x1c <__rc12>
    6da2: 64 1d        	stz	$1d                     ; 0x1d <__rc13>
    6da4: 64 1e        	stz	$1e                     ; 0x1e <__rc14>
    6da6: 64 1f        	stz	$1f                     ; 0x1f <__rc15>
    6da8: a6 8f        	ldx	$8f                     ; 0x8f <__zp_bss_size+0x35>
    6daa: a5 96        	lda	$96                     ; 0x96 <__zp_bss_size+0x3c>
    6dac: 20 9b 61     	jsr	$619b <__muldi3>
    6daf: a6 14        	ldx	$14                     ; 0x14 <__rc4>
    6db1: 86 96        	stx	$96                     ; 0x96 <__zp_bss_size+0x3c>
    6db3: a6 15        	ldx	$15                     ; 0x15 <__rc5>
    6db5: 86 8f        	stx	$8f                     ; 0x8f <__zp_bss_size+0x35>
    6db7: a6 16        	ldx	$16                     ; 0x16 <__rc6>
    6db9: 86 98        	stx	$98                     ; 0x98 <__zp_bss_size+0x3e>
    6dbb: a6 17        	ldx	$17                     ; 0x17 <__rc7>
    6dbd: 86 99        	stx	$99                     ; 0x99 <__zp_bss_size+0x3f>
    6dbf: 06 13        	asl	$13                     ; 0x13 <__rc3>
    6dc1: 26 96        	rol	$96                     ; 0x96 <__zp_bss_size+0x3c>
    6dc3: 26 8f        	rol	$8f                     ; 0x8f <__zp_bss_size+0x35>
    6dc5: 26 98        	rol	$98                     ; 0x98 <__zp_bss_size+0x3e>
    6dc7: 26 99        	rol	$99                     ; 0x99 <__zp_bss_size+0x3f>
    6dc9: a6 98        	ldx	$98                     ; 0x98 <__zp_bss_size+0x3e>
    6dcb: 86 12        	stx	$12                     ; 0x12 <__rc2>
    6dcd: a6 99        	ldx	$99                     ; 0x99 <__zp_bss_size+0x3f>
    6dcf: 86 13        	stx	$13                     ; 0x13 <__rc3>
    6dd1: 64 14        	stz	$14                     ; 0x14 <__rc4>
    6dd3: 64 15        	stz	$15                     ; 0x15 <__rc5>
    6dd5: 64 16        	stz	$16                     ; 0x16 <__rc6>
    6dd7: 64 17        	stz	$17                     ; 0x17 <__rc7>
    6dd9: a6 95        	ldx	$95                     ; 0x95 <__zp_bss_size+0x3b>
    6ddb: 86 18        	stx	$18                     ; 0x18 <__rc8>
    6ddd: a6 94        	ldx	$94                     ; 0x94 <__zp_bss_size+0x3a>
    6ddf: 86 19        	stx	$19                     ; 0x19 <__rc9>
    6de1: a6 91        	ldx	$91                     ; 0x91 <__zp_bss_size+0x37>
    6de3: 86 1a        	stx	$1a                     ; 0x1a <__rc10>
    6de5: a6 90        	ldx	$90                     ; 0x90 <__zp_bss_size+0x36>
    6de7: 86 1b        	stx	$1b                     ; 0x1b <__rc11>
    6de9: 64 1c        	stz	$1c                     ; 0x1c <__rc12>
    6deb: 64 1d        	stz	$1d                     ; 0x1d <__rc13>
    6ded: 64 1e        	stz	$1e                     ; 0x1e <__rc14>
    6def: 64 1f        	stz	$1f                     ; 0x1f <__rc15>
    6df1: a6 8f        	ldx	$8f                     ; 0x8f <__zp_bss_size+0x35>
    6df3: a5 96        	lda	$96                     ; 0x96 <__zp_bss_size+0x3c>
    6df5: 20 9b 61     	jsr	$619b <__muldi3>
    6df8: a9 00        	lda	#$0
    6dfa: 38           	sec
    6dfb: e5 14        	sbc	$14                     ; 0x14 <__rc4>
    6dfd: 85 18        	sta	$18                     ; 0x18 <__rc8>
    6dff: a9 00        	lda	#$0
    6e01: e5 15        	sbc	$15                     ; 0x15 <__rc5>
    6e03: 85 19        	sta	$19                     ; 0x19 <__rc9>
    6e05: a9 00        	lda	#$0
    6e07: e5 16        	sbc	$16                     ; 0x16 <__rc6>
    6e09: 85 1a        	sta	$1a                     ; 0x1a <__rc10>
    6e0b: a9 00        	lda	#$0
    6e0d: e5 17        	sbc	$17                     ; 0x17 <__rc7>
    6e0f: a6 98        	ldx	$98                     ; 0x98 <__zp_bss_size+0x3e>
    6e11: 86 12        	stx	$12                     ; 0x12 <__rc2>
    6e13: a6 99        	ldx	$99                     ; 0x99 <__zp_bss_size+0x3f>
    6e15: 86 13        	stx	$13                     ; 0x13 <__rc3>
    6e17: 64 14        	stz	$14                     ; 0x14 <__rc4>
    6e19: 64 15        	stz	$15                     ; 0x15 <__rc5>
    6e1b: 64 16        	stz	$16                     ; 0x16 <__rc6>
    6e1d: 64 17        	stz	$17                     ; 0x17 <__rc7>
    6e1f: 85 1b        	sta	$1b                     ; 0x1b <__rc11>
    6e21: 64 1c        	stz	$1c                     ; 0x1c <__rc12>
    6e23: 64 1d        	stz	$1d                     ; 0x1d <__rc13>
    6e25: 64 1e        	stz	$1e                     ; 0x1e <__rc14>
    6e27: 64 1f        	stz	$1f                     ; 0x1f <__rc15>
    6e29: a6 8f        	ldx	$8f                     ; 0x8f <__zp_bss_size+0x35>
    6e2b: a5 96        	lda	$96                     ; 0x96 <__zp_bss_size+0x3c>
    6e2d: 20 9b 61     	jsr	$619b <__muldi3>
    6e30: a5 14        	lda	$14                     ; 0x14 <__rc4>
    6e32: 06 13        	asl	$13                     ; 0x13 <__rc3>
    6e34: 2a           	rol
    6e35: 26 15        	rol	$15                     ; 0x15 <__rc5>
    6e37: 26 16        	rol	$16                     ; 0x16 <__rc6>
    6e39: a6 17        	ldx	$17                     ; 0x17 <__rc7>
    6e3b: 86 12        	stx	$12                     ; 0x12 <__rc2>
    6e3d: 26 12        	rol	$12                     ; 0x12 <__rc2>
    6e3f: 18           	clc
    6e40: 69 f4        	adc	#$f4
    6e42: a8           	tay
    6e43: a5 15        	lda	$15                     ; 0x15 <__rc5>
    6e45: 69 ff        	adc	#$ff
    6e47: 85 22        	sta	$22                     ; 0x22 <__rc18>
    6e49: a5 16        	lda	$16                     ; 0x16 <__rc6>
    6e4b: 69 ff        	adc	#$ff
    6e4d: 85 14        	sta	$14                     ; 0x14 <__rc4>
    6e4f: a5 12        	lda	$12                     ; 0x12 <__rc2>
    6e51: 69 ff        	adc	#$ff
    6e53: a6 9a        	ldx	$9a                     ; 0x9a <__zp_bss_size+0x40>
    6e55: 86 18        	stx	$18                     ; 0x18 <__rc8>
    6e57: 06 18        	asl	$18                     ; 0x18 <__rc8>
    6e59: a6 97        	ldx	$97                     ; 0x97 <__zp_bss_size+0x3d>
    6e5b: 86 19        	stx	$19                     ; 0x19 <__rc9>
    6e5d: 26 19        	rol	$19                     ; 0x19 <__rc9>
    6e5f: a6 93        	ldx	$93                     ; 0x93 <__zp_bss_size+0x39>
    6e61: 86 91        	stx	$91                     ; 0x91 <__zp_bss_size+0x37>
    6e63: a6 93        	ldx	$93                     ; 0x93 <__zp_bss_size+0x39>
    6e65: 86 1a        	stx	$1a                     ; 0x1a <__rc10>
    6e67: 26 1a        	rol	$1a                     ; 0x1a <__rc10>
    6e69: a6 a0        	ldx	$a0                     ; 0xa0 <__zp_bss_size+0x46>
    6e6b: 86 1b        	stx	$1b                     ; 0x1b <__rc11>
    6e6d: 26 1b        	rol	$1b                     ; 0x1b <__rc11>
    6e6f: a6 14        	ldx	$14                     ; 0x14 <__rc4>
    6e71: 86 12        	stx	$12                     ; 0x12 <__rc2>
    6e73: 85 13        	sta	$13                     ; 0x13 <__rc3>
    6e75: 64 14        	stz	$14                     ; 0x14 <__rc4>
    6e77: 64 15        	stz	$15                     ; 0x15 <__rc5>
    6e79: 64 16        	stz	$16                     ; 0x16 <__rc6>
    6e7b: 64 17        	stz	$17                     ; 0x17 <__rc7>
    6e7d: a6 18        	ldx	$18                     ; 0x18 <__rc8>
    6e7f: 86 9d        	stx	$9d                     ; 0x9d <__zp_bss_size+0x43>
    6e81: a6 19        	ldx	$19                     ; 0x19 <__rc9>
    6e83: 86 a5        	stx	$a5                     ; 0xa5 <__zp_bss_size+0x4b>
    6e85: a6 1a        	ldx	$1a                     ; 0x1a <__rc10>
    6e87: 86 a6        	stx	$a6                     ; 0xa6 <__zp_bss_size+0x4c>
    6e89: a6 1b        	ldx	$1b                     ; 0x1b <__rc11>
    6e8b: 86 a7        	stx	$a7                     ; 0xa7 <__zp_bss_size+0x4d>
    6e8d: 64 1c        	stz	$1c                     ; 0x1c <__rc12>
    6e8f: 64 1d        	stz	$1d                     ; 0x1d <__rc13>
    6e91: 64 1e        	stz	$1e                     ; 0x1e <__rc14>
    6e93: 64 1f        	stz	$1f                     ; 0x1f <__rc15>
    6e95: a6 22        	ldx	$22                     ; 0x22 <__rc18>
    6e97: 98           	tya
    6e98: 20 9b 61     	jsr	$619b <__muldi3>
    6e9b: a6 14        	ldx	$14                     ; 0x14 <__rc4>
    6e9d: 86 96        	stx	$96                     ; 0x96 <__zp_bss_size+0x3c>
    6e9f: a6 15        	ldx	$15                     ; 0x15 <__rc5>
    6ea1: 86 18        	stx	$18                     ; 0x18 <__rc8>
    6ea3: a6 16        	ldx	$16                     ; 0x16 <__rc6>
    6ea5: a4 17        	ldy	$17                     ; 0x17 <__rc7>
    6ea7: a5 97        	lda	$97                     ; 0x97 <__zp_bss_size+0x3d>
    6ea9: 4a           	lsr
    6eaa: a5 9a        	lda	$9a                     ; 0x9a <__zp_bss_size+0x40>
    6eac: 6a           	ror
    6ead: 64 94        	stz	$94                     ; 0x94 <__zp_bss_size+0x3a>
    6eaf: 66 94        	ror	$94                     ; 0x94 <__zp_bss_size+0x3a>
    6eb1: 64 95        	stz	$95                     ; 0x95 <__zp_bss_size+0x3b>
    6eb3: 66 95        	ror	$95                     ; 0x95 <__zp_bss_size+0x3b>
    6eb5: 66 92        	ror	$92                     ; 0x92 <__zp_bss_size+0x38>
    6eb7: 86 12        	stx	$12                     ; 0x12 <__rc2>
    6eb9: 84 13        	sty	$13                     ; 0x13 <__rc3>
    6ebb: c0 01        	cpy	#$1
    6ebd: d0 18        	bne	$6ed7 <__divsf3+0x898>
    6ebf: e0 00        	cpx	#$0
    6ec1: d0 18        	bne	$6edb <__divsf3+0x89c>
    6ec3: a6 9f        	ldx	$9f                     ; 0x9f <__zp_bss_size+0x45>
    6ec5: 86 14        	stx	$14                     ; 0x14 <__rc4>
    6ec7: a6 a2        	ldx	$a2                     ; 0xa2 <__zp_bss_size+0x48>
    6ec9: 86 16        	stx	$16                     ; 0x16 <__rc6>
    6ecb: a6 18        	ldx	$18                     ; 0x18 <__rc8>
    6ecd: f0 03        	beq	$6ed2 <__divsf3+0x893>
    6ecf: 4c 45 6f     	jmp	$6f45 <__divsf3+0x906>
    6ed2: a6 96        	ldx	$96                     ; 0x96 <__zp_bss_size+0x3c>
    6ed4: 4c 47 6f     	jmp	$6f47 <__divsf3+0x908>
    6ed7: c0 01        	cpy	#$1
    6ed9: 80 02        	bra	$6edd <__divsf3+0x89e>
    6edb: e0 00        	cpx	#$0
    6edd: a6 9f        	ldx	$9f                     ; 0x9f <__zp_bss_size+0x45>
    6edf: 86 14        	stx	$14                     ; 0x14 <__rc4>
    6ee1: a6 9e        	ldx	$9e                     ; 0x9e <__zp_bss_size+0x44>
    6ee3: 86 15        	stx	$15                     ; 0x15 <__rc5>
    6ee5: a6 a2        	ldx	$a2                     ; 0xa2 <__zp_bss_size+0x48>
    6ee7: 86 16        	stx	$16                     ; 0x16 <__rc6>
    6ee9: b0 03        	bcs	$6eee <__divsf3+0x8af>
    6eeb: 4c 52 6f     	jmp	$6f52 <__divsf3+0x913>
    6eee: 46 13        	lsr	$13                     ; 0x13 <__rc3>
    6ef0: 66 12        	ror	$12                     ; 0x12 <__rc2>
    6ef2: a6 18        	ldx	$18                     ; 0x18 <__rc8>
    6ef4: 86 90        	stx	$90                     ; 0x90 <__zp_bss_size+0x36>
    6ef6: 66 90        	ror	$90                     ; 0x90 <__zp_bss_size+0x36>
    6ef8: 66 96        	ror	$96                     ; 0x96 <__zp_bss_size+0x3c>
    6efa: a6 12        	ldx	$12                     ; 0x12 <__rc2>
    6efc: 86 93        	stx	$93                     ; 0x93 <__zp_bss_size+0x39>
    6efe: a6 13        	ldx	$13                     ; 0x13 <__rc3>
    6f00: 86 9b        	stx	$9b                     ; 0x9b <__zp_bss_size+0x41>
    6f02: a6 a1        	ldx	$a1                     ; 0xa1 <__zp_bss_size+0x47>
    6f04: 86 17        	stx	$17                     ; 0x17 <__rc7>
    6f06: a6 90        	ldx	$90                     ; 0x90 <__zp_bss_size+0x36>
    6f08: 85 98        	sta	$98                     ; 0x98 <__zp_bss_size+0x3e>
    6f0a: a5 96        	lda	$96                     ; 0x96 <__zp_bss_size+0x3c>
    6f0c: 20 2b 61     	jsr	$612b <__mulsi3>
    6f0f: 85 14        	sta	$14                     ; 0x14 <__rc4>
    6f11: 86 15        	stx	$15                     ; 0x15 <__rc5>
    6f13: 38           	sec
    6f14: a5 92        	lda	$92                     ; 0x92 <__zp_bss_size+0x38>
    6f16: e5 14        	sbc	$14                     ; 0x14 <__rc4>
    6f18: 85 14        	sta	$14                     ; 0x14 <__rc4>
    6f1a: a5 95        	lda	$95                     ; 0x95 <__zp_bss_size+0x3b>
    6f1c: e5 15        	sbc	$15                     ; 0x15 <__rc5>
    6f1e: 85 1d        	sta	$1d                     ; 0x1d <__rc13>
    6f20: a5 94        	lda	$94                     ; 0x94 <__zp_bss_size+0x3a>
    6f22: e5 12        	sbc	$12                     ; 0x12 <__rc2>
    6f24: 85 1c        	sta	$1c                     ; 0x1c <__rc12>
    6f26: a5 98        	lda	$98                     ; 0x98 <__zp_bss_size+0x3e>
    6f28: e5 13        	sbc	$13                     ; 0x13 <__rc3>
    6f2a: 85 1b        	sta	$1b                     ; 0x1b <__rc11>
    6f2c: a6 96        	ldx	$96                     ; 0x96 <__zp_bss_size+0x3c>
    6f2e: 86 15        	stx	$15                     ; 0x15 <__rc5>
    6f30: a6 90        	ldx	$90                     ; 0x90 <__zp_bss_size+0x36>
    6f32: 86 16        	stx	$16                     ; 0x16 <__rc6>
    6f34: a6 97        	ldx	$97                     ; 0x97 <__zp_bss_size+0x3d>
    6f36: 86 18        	stx	$18                     ; 0x18 <__rc8>
    6f38: a6 a4        	ldx	$a4                     ; 0xa4 <__zp_bss_size+0x4a>
    6f3a: 86 12        	stx	$12                     ; 0x12 <__rc2>
    6f3c: a6 a0        	ldx	$a0                     ; 0xa0 <__zp_bss_size+0x46>
    6f3e: 86 1a        	stx	$1a                     ; 0x1a <__rc10>
    6f40: a5 a3        	lda	$a3                     ; 0xa3 <__zp_bss_size+0x49>
    6f42: 4c fb 6f     	jmp	$6ffb <__divsf3+0x9bc>
    6f45: a6 15        	ldx	$15                     ; 0x15 <__rc5>
    6f47: e0 00        	cpx	#$0
    6f49: a6 9e        	ldx	$9e                     ; 0x9e <__zp_bss_size+0x44>
    6f4b: 86 15        	stx	$15                     ; 0x15 <__rc5>
    6f4d: 90 03        	bcc	$6f52 <__divsf3+0x913>
    6f4f: 4c ee 6e     	jmp	$6eee <__divsf3+0x8af>
    6f52: a6 a1        	ldx	$a1                     ; 0xa1 <__zp_bss_size+0x47>
    6f54: 86 17        	stx	$17                     ; 0x17 <__rc7>
    6f56: a6 13        	ldx	$13                     ; 0x13 <__rc3>
    6f58: d0 11        	bne	$6f6b <__divsf3+0x92c>
    6f5a: a6 12        	ldx	$12                     ; 0x12 <__rc2>
    6f5c: e0 80        	cpx	#$80
    6f5e: d0 1f        	bne	$6f7f <__divsf3+0x940>
    6f60: a6 18        	ldx	$18                     ; 0x18 <__rc8>
    6f62: f0 03        	beq	$6f67 <__divsf3+0x928>
    6f64: 4c 67 71     	jmp	$7167 <__divsf3+0xb28>
    6f67: a6 96        	ldx	$96                     ; 0x96 <__zp_bss_size+0x3c>
    6f69: 80 02        	bra	$6f6d <__divsf3+0x92e>
    6f6b: a6 13        	ldx	$13                     ; 0x13 <__rc3>
    6f6d: e0 00        	cpx	#$0
    6f6f: 90 12        	bcc	$6f83 <__divsf3+0x944>
    6f71: a6 a3        	ldx	$a3                     ; 0xa3 <__zp_bss_size+0x49>
    6f73: 86 8f        	stx	$8f                     ; 0x8f <__zp_bss_size+0x35>
    6f75: a6 a4        	ldx	$a4                     ; 0xa4 <__zp_bss_size+0x4a>
    6f77: 86 90        	stx	$90                     ; 0x90 <__zp_bss_size+0x36>
    6f79: a6 18        	ldx	$18                     ; 0x18 <__rc8>
    6f7b: 86 91        	stx	$91                     ; 0x91 <__zp_bss_size+0x37>
    6f7d: 80 1f        	bra	$6f9e <__divsf3+0x95f>
    6f7f: e0 80        	cpx	#$80
    6f81: b0 ee        	bcs	$6f71 <__divsf3+0x932>
    6f83: aa           	tax
    6f84: 06 96        	asl	$96                     ; 0x96 <__zp_bss_size+0x3c>
    6f86: a4 18        	ldy	$18                     ; 0x18 <__rc8>
    6f88: 84 91        	sty	$91                     ; 0x91 <__zp_bss_size+0x37>
    6f8a: 26 91        	rol	$91                     ; 0x91 <__zp_bss_size+0x37>
    6f8c: 26 12        	rol	$12                     ; 0x12 <__rc2>
    6f8e: 26 13        	rol	$13                     ; 0x13 <__rc3>
    6f90: a5 9b        	lda	$9b                     ; 0x9b <__zp_bss_size+0x41>
    6f92: 18           	clc
    6f93: 69 7e        	adc	#$7e
    6f95: 85 90        	sta	$90                     ; 0x90 <__zp_bss_size+0x36>
    6f97: a5 a8        	lda	$a8                     ; 0xa8 <__zp_bss_size+0x4e>
    6f99: 69 00        	adc	#$0
    6f9b: 85 8f        	sta	$8f                     ; 0x8f <__zp_bss_size+0x35>
    6f9d: 8a           	txa
    6f9e: 06 92        	asl	$92                     ; 0x92 <__zp_bss_size+0x38>
    6fa0: 26 95        	rol	$95                     ; 0x95 <__zp_bss_size+0x3b>
    6fa2: 26 94        	rol	$94                     ; 0x94 <__zp_bss_size+0x3a>
    6fa4: 2a           	rol
    6fa5: a6 12        	ldx	$12                     ; 0x12 <__rc2>
    6fa7: 86 93        	stx	$93                     ; 0x93 <__zp_bss_size+0x39>
    6fa9: a6 13        	ldx	$13                     ; 0x13 <__rc3>
    6fab: 86 9b        	stx	$9b                     ; 0x9b <__zp_bss_size+0x41>
    6fad: a6 91        	ldx	$91                     ; 0x91 <__zp_bss_size+0x37>
    6faf: 85 97        	sta	$97                     ; 0x97 <__zp_bss_size+0x3d>
    6fb1: a5 96        	lda	$96                     ; 0x96 <__zp_bss_size+0x3c>
    6fb3: 20 2b 61     	jsr	$612b <__mulsi3>
    6fb6: 85 14        	sta	$14                     ; 0x14 <__rc4>
    6fb8: 86 15        	stx	$15                     ; 0x15 <__rc5>
    6fba: 38           	sec
    6fbb: a5 92        	lda	$92                     ; 0x92 <__zp_bss_size+0x38>
    6fbd: e5 14        	sbc	$14                     ; 0x14 <__rc4>
    6fbf: 85 14        	sta	$14                     ; 0x14 <__rc4>
    6fc1: a5 95        	lda	$95                     ; 0x95 <__zp_bss_size+0x3b>
    6fc3: e5 15        	sbc	$15                     ; 0x15 <__rc5>
    6fc5: 85 1d        	sta	$1d                     ; 0x1d <__rc13>
    6fc7: a5 94        	lda	$94                     ; 0x94 <__zp_bss_size+0x3a>
    6fc9: e5 12        	sbc	$12                     ; 0x12 <__rc2>
    6fcb: 85 1c        	sta	$1c                     ; 0x1c <__rc12>
    6fcd: a5 97        	lda	$97                     ; 0x97 <__zp_bss_size+0x3d>
    6fcf: e5 13        	sbc	$13                     ; 0x13 <__rc3>
    6fd1: 85 1b        	sta	$1b                     ; 0x1b <__rc11>
    6fd3: a6 96        	ldx	$96                     ; 0x96 <__zp_bss_size+0x3c>
    6fd5: 86 15        	stx	$15                     ; 0x15 <__rc5>
    6fd7: a6 91        	ldx	$91                     ; 0x91 <__zp_bss_size+0x37>
    6fd9: 86 16        	stx	$16                     ; 0x16 <__rc6>
    6fdb: a2 ff        	ldx	#$ff
    6fdd: c6 90        	dec	$90                     ; 0x90 <__zp_bss_size+0x36>
    6fdf: e4 90        	cpx	$90                     ; 0x90 <__zp_bss_size+0x36>
    6fe1: d0 02        	bne	$6fe5 <__divsf3+0x9a6>
    6fe3: c6 8f        	dec	$8f                     ; 0x8f <__zp_bss_size+0x35>
    6fe5: a6 90        	ldx	$90                     ; 0x90 <__zp_bss_size+0x36>
    6fe7: 86 12        	stx	$12                     ; 0x12 <__rc2>
    6fe9: a6 9d        	ldx	$9d                     ; 0x9d <__zp_bss_size+0x43>
    6feb: 86 9a        	stx	$9a                     ; 0x9a <__zp_bss_size+0x40>
    6fed: a6 a5        	ldx	$a5                     ; 0xa5 <__zp_bss_size+0x4b>
    6fef: 86 18        	stx	$18                     ; 0x18 <__rc8>
    6ff1: a6 a6        	ldx	$a6                     ; 0xa6 <__zp_bss_size+0x4c>
    6ff3: 86 91        	stx	$91                     ; 0x91 <__zp_bss_size+0x37>
    6ff5: a6 a7        	ldx	$a7                     ; 0xa7 <__zp_bss_size+0x4d>
    6ff7: 86 1a        	stx	$1a                     ; 0x1a <__rc10>
    6ff9: a5 8f        	lda	$8f                     ; 0x8f <__zp_bss_size+0x35>
    6ffb: a6 12        	ldx	$12                     ; 0x12 <__rc2>
    6ffd: e0 ff        	cpx	#$ff
    6fff: 85 13        	sta	$13                     ; 0x13 <__rc3>
    7001: e9 00        	sbc	#$0
    7003: 50 02        	bvc	$7007 <__divsf3+0x9c8>
    7005: 49 80        	eor	#$80
    7007: a4 9f        	ldy	$9f                     ; 0x9f <__zp_bss_size+0x45>
    7009: aa           	tax
    700a: 30 0d        	bmi	$7019 <__divsf3+0x9da>
    700c: a5 9c        	lda	$9c                     ; 0x9c <__zp_bss_size+0x42>
    700e: 09 7f        	ora	#$7f
    7010: 64 9a        	stz	$9a                     ; 0x9a <__zp_bss_size+0x40>
    7012: 64 97        	stz	$97                     ; 0x97 <__zp_bss_size+0x3d>
    7014: a0 80        	ldy	#$80
    7016: 4c 9a 71     	jmp	$719a <__divsf3+0xb5b>
    7019: a6 12        	ldx	$12                     ; 0x12 <__rc2>
    701b: e0 01        	cpx	#$1
    701d: a5 13        	lda	$13                     ; 0x13 <__rc3>
    701f: e9 00        	sbc	#$0
    7021: 50 02        	bvc	$7025 <__divsf3+0x9e6>
    7023: 49 80        	eor	#$80
    7025: a6 9e        	ldx	$9e                     ; 0x9e <__zp_bss_size+0x44>
    7027: c9 00        	cmp	#$0
    7029: 30 3e        	bmi	$7069 <__divsf3+0xa2a>
    702b: 86 18        	stx	$18                     ; 0x18 <__rc8>
    702d: a5 93        	lda	$93                     ; 0x93 <__zp_bss_size+0x39>
    702f: 29 7f        	and	#$7f
    7031: 85 17        	sta	$17                     ; 0x17 <__rc7>
    7033: 46 13        	lsr	$13                     ; 0x13 <__rc3>
    7035: 66 12        	ror	$12                     ; 0x12 <__rc2>
    7037: a6 12        	ldx	$12                     ; 0x12 <__rc2>
    7039: 86 8f        	stx	$8f                     ; 0x8f <__zp_bss_size+0x35>
    703b: 64 19        	stz	$19                     ; 0x19 <__rc9>
    703d: 66 19        	ror	$19                     ; 0x19 <__rc9>
    703f: 64 1a        	stz	$1a                     ; 0x1a <__rc10>
    7041: 66 1a        	ror	$1a                     ; 0x1a <__rc10>
    7043: a9 00        	lda	#$0
    7045: 6a           	ror
    7046: 06 14        	asl	$14                     ; 0x14 <__rc4>
    7048: a6 1d        	ldx	$1d                     ; 0x1d <__rc13>
    704a: 86 12        	stx	$12                     ; 0x12 <__rc2>
    704c: 26 12        	rol	$12                     ; 0x12 <__rc2>
    704e: a6 1c        	ldx	$1c                     ; 0x1c <__rc12>
    7050: 86 13        	stx	$13                     ; 0x13 <__rc3>
    7052: 26 13        	rol	$13                     ; 0x13 <__rc3>
    7054: 26 1b        	rol	$1b                     ; 0x1b <__rc11>
    7056: 05 15        	ora	$15                     ; 0x15 <__rc5>
    7058: 85 92        	sta	$92                     ; 0x92 <__zp_bss_size+0x38>
    705a: a5 1a        	lda	$1a                     ; 0x1a <__rc10>
    705c: 05 16        	ora	$16                     ; 0x16 <__rc6>
    705e: 85 90        	sta	$90                     ; 0x90 <__zp_bss_size+0x36>
    7060: a5 19        	lda	$19                     ; 0x19 <__rc9>
    7062: 05 17        	ora	$17                     ; 0x17 <__rc7>
    7064: 85 9b        	sta	$9b                     ; 0x9b <__zp_bss_size+0x41>
    7066: 4c 2e 71     	jmp	$712e <__divsf3+0xaef>
    7069: a6 12        	ldx	$12                     ; 0x12 <__rc2>
    706b: e0 e9        	cpx	#$e9
    706d: a5 13        	lda	$13                     ; 0x13 <__rc3>
    706f: e9 ff        	sbc	#$ff
    7071: 50 02        	bvc	$7075 <__divsf3+0xa36>
    7073: 49 80        	eor	#$80
    7075: aa           	tax
    7076: 10 0b        	bpl	$7083 <__divsf3+0xa44>
    7078: 64 9a        	stz	$9a                     ; 0x9a <__zp_bss_size+0x40>
    707a: 64 97        	stz	$97                     ; 0x97 <__zp_bss_size+0x3d>
    707c: a0 00        	ldy	#$0
    707e: a5 9c        	lda	$9c                     ; 0x9c <__zp_bss_size+0x42>
    7080: 4c 9a 71     	jmp	$719a <__divsf3+0xb5b>
    7083: 18           	clc
    7084: a5 12        	lda	$12                     ; 0x12 <__rc2>
    7086: 69 17        	adc	#$17
    7088: 85 92        	sta	$92                     ; 0x92 <__zp_bss_size+0x38>
    708a: a9 01        	lda	#$1
    708c: 38           	sec
    708d: e5 12        	sbc	$12                     ; 0x12 <__rc2>
    708f: a6 93        	ldx	$93                     ; 0x93 <__zp_bss_size+0x39>
    7091: 86 12        	stx	$12                     ; 0x12 <__rc2>
    7093: a6 9b        	ldx	$9b                     ; 0x9b <__zp_bss_size+0x41>
    7095: 86 13        	stx	$13                     ; 0x13 <__rc3>
    7097: 85 14        	sta	$14                     ; 0x14 <__rc4>
    7099: a6 16        	ldx	$16                     ; 0x16 <__rc6>
    709b: a4 18        	ldy	$18                     ; 0x18 <__rc8>
    709d: 84 94        	sty	$94                     ; 0x94 <__zp_bss_size+0x3a>
    709f: a4 91        	ldy	$91                     ; 0x91 <__zp_bss_size+0x37>
    70a1: 84 96        	sty	$96                     ; 0x96 <__zp_bss_size+0x3c>
    70a3: a4 1a        	ldy	$1a                     ; 0x1a <__rc10>
    70a5: 84 95        	sty	$95                     ; 0x95 <__zp_bss_size+0x3b>
    70a7: a5 15        	lda	$15                     ; 0x15 <__rc5>
    70a9: 20 c7 60     	jsr	$60c7 <__lshrsi3>
    70ac: 85 90        	sta	$90                     ; 0x90 <__zp_bss_size+0x36>
    70ae: 86 8f        	stx	$8f                     ; 0x8f <__zp_bss_size+0x35>
    70b0: a6 12        	ldx	$12                     ; 0x12 <__rc2>
    70b2: 86 97        	stx	$97                     ; 0x97 <__zp_bss_size+0x3d>
    70b4: a6 13        	ldx	$13                     ; 0x13 <__rc3>
    70b6: 86 91        	stx	$91                     ; 0x91 <__zp_bss_size+0x37>
    70b8: a6 96        	ldx	$96                     ; 0x96 <__zp_bss_size+0x3c>
    70ba: 86 12        	stx	$12                     ; 0x12 <__rc2>
    70bc: a6 95        	ldx	$95                     ; 0x95 <__zp_bss_size+0x3b>
    70be: 86 13        	stx	$13                     ; 0x13 <__rc3>
    70c0: a6 92        	ldx	$92                     ; 0x92 <__zp_bss_size+0x38>
    70c2: 86 14        	stx	$14                     ; 0x14 <__rc4>
    70c4: a6 94        	ldx	$94                     ; 0x94 <__zp_bss_size+0x3a>
    70c6: a5 9a        	lda	$9a                     ; 0x9a <__zp_bss_size+0x40>
    70c8: 20 b0 60     	jsr	$60b0 <__ashlsi3>
    70cb: 85 95        	sta	$95                     ; 0x95 <__zp_bss_size+0x3b>
    70cd: 86 94        	stx	$94                     ; 0x94 <__zp_bss_size+0x3a>
    70cf: a6 12        	ldx	$12                     ; 0x12 <__rc2>
    70d1: 86 93        	stx	$93                     ; 0x93 <__zp_bss_size+0x39>
    70d3: a6 13        	ldx	$13                     ; 0x13 <__rc3>
    70d5: 86 96        	stx	$96                     ; 0x96 <__zp_bss_size+0x3c>
    70d7: a6 ab        	ldx	$ab                     ; 0xab <__zp_bss_size+0x51>
    70d9: 86 12        	stx	$12                     ; 0x12 <__rc2>
    70db: a6 ac        	ldx	$ac                     ; 0xac <__zp_bss_size+0x52>
    70dd: 86 13        	stx	$13                     ; 0x13 <__rc3>
    70df: a6 90        	ldx	$90                     ; 0x90 <__zp_bss_size+0x36>
    70e1: 86 92        	stx	$92                     ; 0x92 <__zp_bss_size+0x38>
    70e3: a6 90        	ldx	$90                     ; 0x90 <__zp_bss_size+0x36>
    70e5: 86 14        	stx	$14                     ; 0x14 <__rc4>
    70e7: a6 8f        	ldx	$8f                     ; 0x8f <__zp_bss_size+0x35>
    70e9: 86 90        	stx	$90                     ; 0x90 <__zp_bss_size+0x36>
    70eb: a6 8f        	ldx	$8f                     ; 0x8f <__zp_bss_size+0x35>
    70ed: 86 15        	stx	$15                     ; 0x15 <__rc5>
    70ef: a6 97        	ldx	$97                     ; 0x97 <__zp_bss_size+0x3d>
    70f1: 86 9b        	stx	$9b                     ; 0x9b <__zp_bss_size+0x41>
    70f3: a6 97        	ldx	$97                     ; 0x97 <__zp_bss_size+0x3d>
    70f5: 86 16        	stx	$16                     ; 0x16 <__rc6>
    70f7: a6 91        	ldx	$91                     ; 0x91 <__zp_bss_size+0x37>
    70f9: 86 8f        	stx	$8f                     ; 0x8f <__zp_bss_size+0x35>
    70fb: a6 91        	ldx	$91                     ; 0x91 <__zp_bss_size+0x37>
    70fd: 86 17        	stx	$17                     ; 0x17 <__rc7>
    70ff: a6 aa        	ldx	$aa                     ; 0xaa <__zp_bss_size+0x50>
    7101: a5 a9        	lda	$a9                     ; 0xa9 <__zp_bss_size+0x4f>
    7103: 20 2b 61     	jsr	$612b <__mulsi3>
    7106: a4 9f        	ldy	$9f                     ; 0x9f <__zp_bss_size+0x45>
    7108: 85 14        	sta	$14                     ; 0x14 <__rc4>
    710a: 86 15        	stx	$15                     ; 0x15 <__rc5>
    710c: 38           	sec
    710d: a5 95        	lda	$95                     ; 0x95 <__zp_bss_size+0x3b>
    710f: e5 14        	sbc	$14                     ; 0x14 <__rc4>
    7111: 85 14        	sta	$14                     ; 0x14 <__rc4>
    7113: a5 94        	lda	$94                     ; 0x94 <__zp_bss_size+0x3a>
    7115: e5 15        	sbc	$15                     ; 0x15 <__rc5>
    7117: aa           	tax
    7118: a5 93        	lda	$93                     ; 0x93 <__zp_bss_size+0x39>
    711a: e5 12        	sbc	$12                     ; 0x12 <__rc2>
    711c: 85 15        	sta	$15                     ; 0x15 <__rc5>
    711e: a5 96        	lda	$96                     ; 0x96 <__zp_bss_size+0x3c>
    7120: e5 13        	sbc	$13                     ; 0x13 <__rc3>
    7122: 85 1b        	sta	$1b                     ; 0x1b <__rc11>
    7124: 86 12        	stx	$12                     ; 0x12 <__rc2>
    7126: a6 15        	ldx	$15                     ; 0x15 <__rc5>
    7128: 86 13        	stx	$13                     ; 0x13 <__rc3>
    712a: a6 9e        	ldx	$9e                     ; 0x9e <__zp_bss_size+0x44>
    712c: 86 18        	stx	$18                     ; 0x18 <__rc8>
    712e: a5 92        	lda	$92                     ; 0x92 <__zp_bss_size+0x38>
    7130: 85 15        	sta	$15                     ; 0x15 <__rc5>
    7132: 29 01        	and	#$1
    7134: 18           	clc
    7135: 65 14        	adc	$14                     ; 0x14 <__rc4>
    7137: 85 16        	sta	$16                     ; 0x16 <__rc6>
    7139: 64 14        	stz	$14                     ; 0x14 <__rc4>
    713b: a9 00        	lda	#$0
    713d: 65 12        	adc	$12                     ; 0x12 <__rc2>
    713f: 85 17        	sta	$17                     ; 0x17 <__rc7>
    7141: a9 00        	lda	#$0
    7143: 65 13        	adc	$13                     ; 0x13 <__rc3>
    7145: 85 13        	sta	$13                     ; 0x13 <__rc3>
    7147: a5 1b        	lda	$1b                     ; 0x1b <__rc11>
    7149: 65 14        	adc	$14                     ; 0x14 <__rc4>
    714b: 85 12        	sta	$12                     ; 0x12 <__rc2>
    714d: a6 a1        	ldx	$a1                     ; 0xa1 <__zp_bss_size+0x47>
    714f: e4 12        	cpx	$12                     ; 0x12 <__rc2>
    7151: d0 1d        	bne	$7170 <__divsf3+0xb31>
    7153: a6 a2        	ldx	$a2                     ; 0xa2 <__zp_bss_size+0x48>
    7155: e4 13        	cpx	$13                     ; 0x13 <__rc3>
    7157: d0 0a        	bne	$7163 <__divsf3+0xb24>
    7159: a6 18        	ldx	$18                     ; 0x18 <__rc8>
    715b: e4 17        	cpx	$17                     ; 0x17 <__rc7>
    715d: d0 0d        	bne	$716c <__divsf3+0xb2d>
    715f: c4 16        	cpy	$16                     ; 0x16 <__rc6>
    7161: 80 0f        	bra	$7172 <__divsf3+0xb33>
    7163: a4 13        	ldy	$13                     ; 0x13 <__rc3>
    7165: 80 07        	bra	$716e <__divsf3+0xb2f>
    7167: a6 18        	ldx	$18                     ; 0x18 <__rc8>
    7169: 4c 6d 6f     	jmp	$6f6d <__divsf3+0x92e>
    716c: a4 17        	ldy	$17                     ; 0x17 <__rc7>
    716e: 84 12        	sty	$12                     ; 0x12 <__rc2>
    7170: e4 12        	cpx	$12                     ; 0x12 <__rc2>
    7172: 64 12        	stz	$12                     ; 0x12 <__rc2>
    7174: a5 9b        	lda	$9b                     ; 0x9b <__zp_bss_size+0x41>
    7176: 85 13        	sta	$13                     ; 0x13 <__rc3>
    7178: b0 04        	bcs	$717e <__divsf3+0xb3f>
    717a: a2 01        	ldx	#$1
    717c: 86 12        	stx	$12                     ; 0x12 <__rc2>
    717e: a5 15        	lda	$15                     ; 0x15 <__rc5>
    7180: 18           	clc
    7181: 65 12        	adc	$12                     ; 0x12 <__rc2>
    7183: 85 9a        	sta	$9a                     ; 0x9a <__zp_bss_size+0x40>
    7185: a5 90        	lda	$90                     ; 0x90 <__zp_bss_size+0x36>
    7187: 69 00        	adc	#$0
    7189: 85 97        	sta	$97                     ; 0x97 <__zp_bss_size+0x3d>
    718b: a5 13        	lda	$13                     ; 0x13 <__rc3>
    718d: 69 00        	adc	#$0
    718f: a8           	tay
    7190: a5 8f        	lda	$8f                     ; 0x8f <__zp_bss_size+0x35>
    7192: 69 00        	adc	#$0
    7194: a6 9c        	ldx	$9c                     ; 0x9c <__zp_bss_size+0x42>
    7196: 86 12        	stx	$12                     ; 0x12 <__rc2>
    7198: 05 12        	ora	$12                     ; 0x12 <__rc2>
    719a: 84 12        	sty	$12                     ; 0x12 <__rc2>
    719c: 85 13        	sta	$13                     ; 0x13 <__rc3>
    719e: a6 97        	ldx	$97                     ; 0x97 <__zp_bss_size+0x3d>
    71a0: a5 9a        	lda	$9a                     ; 0x9a <__zp_bss_size+0x40>
    71a2: 60           	rts
    71a3: 86 9e        	stx	$9e                     ; 0x9e <__zp_bss_size+0x44>
    71a5: a4 8f        	ldy	$8f                     ; 0x8f <__zp_bss_size+0x35>
    71a7: 84 16        	sty	$16                     ; 0x16 <__rc6>
    71a9: e0 00        	cpx	#$0
    71ab: 90 03        	bcc	$71b0 <__divsf3+0xb71>
    71ad: 4c 2f 6a     	jmp	$6a2f <__divsf3+0x3f0>
    71b0: 4c 3e 6a     	jmp	$6a3e <__divsf3+0x3ff>
    71b3: a5 92        	lda	$92                     ; 0x92 <__zp_bss_size+0x38>
    71b5: f0 03        	beq	$71ba <__divsf3+0xb7b>
    71b7: 4c 78 70     	jmp	$7078 <__divsf3+0xa39>
    71ba: a5 91        	lda	$91                     ; 0x91 <__zp_bss_size+0x37>
    71bc: f0 03        	beq	$71c1 <__divsf3+0xb82>
    71be: 4c 78 70     	jmp	$7078 <__divsf3+0xa39>
    71c1: 8a           	txa
    71c2: f0 03        	beq	$71c7 <__divsf3+0xb88>
    71c4: 4c 78 70     	jmp	$7078 <__divsf3+0xa39>
    71c7: a5 94        	lda	$94                     ; 0x94 <__zp_bss_size+0x3a>
    71c9: d0 03        	bne	$71ce <__divsf3+0xb8f>
    71cb: 4c 6f 67     	jmp	$676f <__divsf3+0x130>
    71ce: 4c 78 70     	jmp	$7078 <__divsf3+0xa39>

000071d1 <__fixunssfsi>:
    71d1: 86 15        	stx	$15                     ; 0x15 <__rc5>
    71d3: a2 00        	ldx	#$0
    71d5: 86 8f        	stx	$8f                     ; 0x8f <__zp_bss_size+0x35>
    71d7: a4 13        	ldy	$13                     ; 0x13 <__rc3>
    71d9: 30 26        	bmi	$7201 <__fixunssfsi+0x30>
    71db: 85 16        	sta	$16                     ; 0x16 <__rc6>
    71dd: a5 12        	lda	$12                     ; 0x12 <__rc2>
    71df: 0a           	asl
    71e0: 26 13        	rol	$13                     ; 0x13 <__rc3>
    71e2: a6 13        	ldx	$13                     ; 0x13 <__rc3>
    71e4: e0 7f        	cpx	#$7f
    71e6: a2 00        	ldx	#$0
    71e8: 8a           	txa
    71e9: a8           	tay
    71ea: b0 03        	bcs	$71ef <__fixunssfsi+0x1e>
    71ec: 4c 46 72     	jmp	$7246 <__fixunssfsi+0x75>
    71ef: 18           	clc
    71f0: a5 13        	lda	$13                     ; 0x13 <__rc3>
    71f2: 69 61        	adc	#$61
    71f4: aa           	tax
    71f5: a9 00        	lda	#$0
    71f7: 69 ff        	adc	#$ff
    71f9: c9 ff        	cmp	#$ff
    71fb: d0 09        	bne	$7206 <__fixunssfsi+0x35>
    71fd: e0 e0        	cpx	#$e0
    71ff: 80 07        	bra	$7208 <__fixunssfsi+0x37>
    7201: a9 00        	lda	#$0
    7203: a8           	tay
    7204: 80 40        	bra	$7246 <__fixunssfsi+0x75>
    7206: c9 ff        	cmp	#$ff
    7208: a2 ff        	ldx	#$ff
    720a: 86 8f        	stx	$8f                     ; 0x8f <__zp_bss_size+0x35>
    720c: 8a           	txa
    720d: a8           	tay
    720e: 90 36        	bcc	$7246 <__fixunssfsi+0x75>
    7210: a5 12        	lda	$12                     ; 0x12 <__rc2>
    7212: 29 7f        	and	#$7f
    7214: 09 80        	ora	#$80
    7216: 85 12        	sta	$12                     ; 0x12 <__rc2>
    7218: a6 13        	ldx	$13                     ; 0x13 <__rc3>
    721a: e0 96        	cpx	#$96
    721c: b0 12        	bcs	$7230 <__fixunssfsi+0x5f>
    721e: 38           	sec
    721f: a9 96        	lda	#$96
    7221: e5 13        	sbc	$13                     ; 0x13 <__rc3>
    7223: 64 13        	stz	$13                     ; 0x13 <__rc3>
    7225: 85 14        	sta	$14                     ; 0x14 <__rc4>
    7227: a6 15        	ldx	$15                     ; 0x15 <__rc5>
    7229: a5 16        	lda	$16                     ; 0x16 <__rc6>
    722b: 20 c7 60     	jsr	$60c7 <__lshrsi3>
    722e: 80 10        	bra	$7240 <__fixunssfsi+0x6f>
    7230: 18           	clc
    7231: a5 13        	lda	$13                     ; 0x13 <__rc3>
    7233: 69 6a        	adc	#$6a
    7235: 64 13        	stz	$13                     ; 0x13 <__rc3>
    7237: 85 14        	sta	$14                     ; 0x14 <__rc4>
    7239: a6 15        	ldx	$15                     ; 0x15 <__rc5>
    723b: a5 16        	lda	$16                     ; 0x16 <__rc6>
    723d: 20 b0 60     	jsr	$60b0 <__ashlsi3>
    7240: 85 8f        	sta	$8f                     ; 0x8f <__zp_bss_size+0x35>
    7242: a5 12        	lda	$12                     ; 0x12 <__rc2>
    7244: a4 13        	ldy	$13                     ; 0x13 <__rc3>
    7246: 85 12        	sta	$12                     ; 0x12 <__rc2>
    7248: 84 13        	sty	$13                     ; 0x13 <__rc3>
    724a: a5 8f        	lda	$8f                     ; 0x8f <__zp_bss_size+0x35>
    724c: 60           	rts

0000724d <__floatunsisf>:
    724d: 85 15        	sta	$15                     ; 0x15 <__rc5>
    724f: 86 16        	stx	$16                     ; 0x16 <__rc6>
    7251: a5 13        	lda	$13                     ; 0x13 <__rc3>
    7253: d0 0f        	bne	$7264 <__floatunsisf+0x17>
    7255: a5 12        	lda	$12                     ; 0x12 <__rc2>
    7257: d0 0b        	bne	$7264 <__floatunsisf+0x17>
    7259: a5 16        	lda	$16                     ; 0x16 <__rc6>
    725b: d0 07        	bne	$7264 <__floatunsisf+0x17>
    725d: a5 15        	lda	$15                     ; 0x15 <__rc5>
    725f: d0 03        	bne	$7264 <__floatunsisf+0x17>
    7261: 4c 96 75     	jmp	$7596 <__floatunsisf+0x349>
    7264: a5 13        	lda	$13                     ; 0x13 <__rc3>
    7266: 4a           	lsr
    7267: 85 18        	sta	$18                     ; 0x18 <__rc8>
    7269: a5 12        	lda	$12                     ; 0x12 <__rc2>
    726b: 6a           	ror
    726c: 85 17        	sta	$17                     ; 0x17 <__rc7>
    726e: 86 19        	stx	$19                     ; 0x19 <__rc9>
    7270: 66 19        	ror	$19                     ; 0x19 <__rc9>
    7272: a5 15        	lda	$15                     ; 0x15 <__rc5>
    7274: 6a           	ror
    7275: 05 15        	ora	$15                     ; 0x15 <__rc5>
    7277: a8           	tay
    7278: a5 19        	lda	$19                     ; 0x19 <__rc9>
    727a: 05 16        	ora	$16                     ; 0x16 <__rc6>
    727c: aa           	tax
    727d: a5 17        	lda	$17                     ; 0x17 <__rc7>
    727f: 05 12        	ora	$12                     ; 0x12 <__rc2>
    7281: 85 1a        	sta	$1a                     ; 0x1a <__rc10>
    7283: a5 18        	lda	$18                     ; 0x18 <__rc8>
    7285: 05 13        	ora	$13                     ; 0x13 <__rc3>
    7287: 85 1b        	sta	$1b                     ; 0x1b <__rc11>
    7289: 4a           	lsr
    728a: 5a           	phy
    728b: a4 1a        	ldy	$1a                     ; 0x1a <__rc10>
    728d: 84 14        	sty	$14                     ; 0x14 <__rc4>
    728f: 7a           	ply
    7290: 66 14        	ror	$14                     ; 0x14 <__rc4>
    7292: 86 17        	stx	$17                     ; 0x17 <__rc7>
    7294: 66 17        	ror	$17                     ; 0x17 <__rc7>
    7296: 84 18        	sty	$18                     ; 0x18 <__rc8>
    7298: 66 18        	ror	$18                     ; 0x18 <__rc8>
    729a: 4a           	lsr
    729b: 85 19        	sta	$19                     ; 0x19 <__rc9>
    729d: 66 14        	ror	$14                     ; 0x14 <__rc4>
    729f: 66 17        	ror	$17                     ; 0x17 <__rc7>
    72a1: 66 18        	ror	$18                     ; 0x18 <__rc8>
    72a3: 98           	tya
    72a4: 05 18        	ora	$18                     ; 0x18 <__rc8>
    72a6: a8           	tay
    72a7: 8a           	txa
    72a8: 05 17        	ora	$17                     ; 0x17 <__rc7>
    72aa: aa           	tax
    72ab: a5 1a        	lda	$1a                     ; 0x1a <__rc10>
    72ad: 05 14        	ora	$14                     ; 0x14 <__rc4>
    72af: 85 1a        	sta	$1a                     ; 0x1a <__rc10>
    72b1: a5 1b        	lda	$1b                     ; 0x1b <__rc11>
    72b3: 05 19        	ora	$19                     ; 0x19 <__rc9>
    72b5: 85 1b        	sta	$1b                     ; 0x1b <__rc11>
    72b7: 4a           	lsr
    72b8: 5a           	phy
    72b9: a4 1a        	ldy	$1a                     ; 0x1a <__rc10>
    72bb: 84 14        	sty	$14                     ; 0x14 <__rc4>
    72bd: 7a           	ply
    72be: 66 14        	ror	$14                     ; 0x14 <__rc4>
    72c0: 86 17        	stx	$17                     ; 0x17 <__rc7>
    72c2: 66 17        	ror	$17                     ; 0x17 <__rc7>
    72c4: 84 18        	sty	$18                     ; 0x18 <__rc8>
    72c6: 66 18        	ror	$18                     ; 0x18 <__rc8>
    72c8: 4a           	lsr
    72c9: 66 14        	ror	$14                     ; 0x14 <__rc4>
    72cb: 66 17        	ror	$17                     ; 0x17 <__rc7>
    72cd: 66 18        	ror	$18                     ; 0x18 <__rc8>
    72cf: 4a           	lsr
    72d0: 66 14        	ror	$14                     ; 0x14 <__rc4>
    72d2: 66 17        	ror	$17                     ; 0x17 <__rc7>
    72d4: 66 18        	ror	$18                     ; 0x18 <__rc8>
    72d6: 4a           	lsr
    72d7: 85 19        	sta	$19                     ; 0x19 <__rc9>
    72d9: 66 14        	ror	$14                     ; 0x14 <__rc4>
    72db: 66 17        	ror	$17                     ; 0x17 <__rc7>
    72dd: 66 18        	ror	$18                     ; 0x18 <__rc8>
    72df: 98           	tya
    72e0: 05 18        	ora	$18                     ; 0x18 <__rc8>
    72e2: 85 18        	sta	$18                     ; 0x18 <__rc8>
    72e4: 8a           	txa
    72e5: 05 17        	ora	$17                     ; 0x17 <__rc7>
    72e7: aa           	tax
    72e8: a5 1a        	lda	$1a                     ; 0x1a <__rc10>
    72ea: 05 14        	ora	$14                     ; 0x14 <__rc4>
    72ec: a8           	tay
    72ed: a5 1b        	lda	$1b                     ; 0x1b <__rc11>
    72ef: 05 19        	ora	$19                     ; 0x19 <__rc9>
    72f1: 85 17        	sta	$17                     ; 0x17 <__rc7>
    72f3: 86 14        	stx	$14                     ; 0x14 <__rc4>
    72f5: a5 18        	lda	$18                     ; 0x18 <__rc8>
    72f7: 05 14        	ora	$14                     ; 0x14 <__rc4>
    72f9: 85 19        	sta	$19                     ; 0x19 <__rc9>
    72fb: 84 14        	sty	$14                     ; 0x14 <__rc4>
    72fd: 8a           	txa
    72fe: 05 14        	ora	$14                     ; 0x14 <__rc4>
    7300: 85 18        	sta	$18                     ; 0x18 <__rc8>
    7302: a6 17        	ldx	$17                     ; 0x17 <__rc7>
    7304: 86 14        	stx	$14                     ; 0x14 <__rc4>
    7306: 86 1a        	stx	$1a                     ; 0x1a <__rc10>
    7308: 98           	tya
    7309: 05 14        	ora	$14                     ; 0x14 <__rc4>
    730b: 85 17        	sta	$17                     ; 0x17 <__rc7>
    730d: 85 1b        	sta	$1b                     ; 0x1b <__rc11>
    730f: a5 19        	lda	$19                     ; 0x19 <__rc9>
    7311: 05 17        	ora	$17                     ; 0x17 <__rc7>
    7313: a8           	tay
    7314: a5 18        	lda	$18                     ; 0x18 <__rc8>
    7316: 05 14        	ora	$14                     ; 0x14 <__rc4>
    7318: aa           	tax
    7319: 98           	tya
    731a: 4a           	lsr
    731b: 29 55        	and	#$55
    731d: 85 14        	sta	$14                     ; 0x14 <__rc4>
    731f: 8a           	txa
    7320: 4a           	lsr
    7321: 29 55        	and	#$55
    7323: 85 17        	sta	$17                     ; 0x17 <__rc7>
    7325: a5 1b        	lda	$1b                     ; 0x1b <__rc11>
    7327: 4a           	lsr
    7328: 29 55        	and	#$55
    732a: 85 18        	sta	$18                     ; 0x18 <__rc8>
    732c: a5 1a        	lda	$1a                     ; 0x1a <__rc10>
    732e: 4a           	lsr
    732f: 29 55        	and	#$55
    7331: 85 19        	sta	$19                     ; 0x19 <__rc9>
    7333: 38           	sec
    7334: 98           	tya
    7335: e5 14        	sbc	$14                     ; 0x14 <__rc4>
    7337: 85 14        	sta	$14                     ; 0x14 <__rc4>
    7339: 8a           	txa
    733a: e5 17        	sbc	$17                     ; 0x17 <__rc7>
    733c: aa           	tax
    733d: a5 1b        	lda	$1b                     ; 0x1b <__rc11>
    733f: e5 18        	sbc	$18                     ; 0x18 <__rc8>
    7341: 85 18        	sta	$18                     ; 0x18 <__rc8>
    7343: a5 1a        	lda	$1a                     ; 0x1a <__rc10>
    7345: e5 19        	sbc	$19                     ; 0x19 <__rc9>
    7347: a8           	tay
    7348: a5 14        	lda	$14                     ; 0x14 <__rc4>
    734a: 85 19        	sta	$19                     ; 0x19 <__rc9>
    734c: 29 33        	and	#$33
    734e: 85 14        	sta	$14                     ; 0x14 <__rc4>
    7350: 8a           	txa
    7351: 29 33        	and	#$33
    7353: 85 17        	sta	$17                     ; 0x17 <__rc7>
    7355: a5 18        	lda	$18                     ; 0x18 <__rc8>
    7357: 85 1a        	sta	$1a                     ; 0x1a <__rc10>
    7359: 29 33        	and	#$33
    735b: 85 18        	sta	$18                     ; 0x18 <__rc8>
    735d: 98           	tya
    735e: 4a           	lsr
    735f: 85 1c        	sta	$1c                     ; 0x1c <__rc12>
    7361: a5 1a        	lda	$1a                     ; 0x1a <__rc10>
    7363: 4a           	lsr
    7364: 85 1b        	sta	$1b                     ; 0x1b <__rc11>
    7366: 8a           	txa
    7367: 4a           	lsr
    7368: 85 1a        	sta	$1a                     ; 0x1a <__rc10>
    736a: a5 19        	lda	$19                     ; 0x19 <__rc9>
    736c: 4a           	lsr
    736d: 46 1c        	lsr	$1c                     ; 0x1c <__rc12>
    736f: 46 1b        	lsr	$1b                     ; 0x1b <__rc11>
    7371: a6 1a        	ldx	$1a                     ; 0x1a <__rc10>
    7373: 86 19        	stx	$19                     ; 0x19 <__rc9>
    7375: 46 19        	lsr	$19                     ; 0x19 <__rc9>
    7377: 4a           	lsr
    7378: 29 33        	and	#$33
    737a: 85 1d        	sta	$1d                     ; 0x1d <__rc13>
    737c: a5 19        	lda	$19                     ; 0x19 <__rc9>
    737e: 29 33        	and	#$33
    7380: aa           	tax
    7381: a5 1b        	lda	$1b                     ; 0x1b <__rc11>
    7383: 29 33        	and	#$33
    7385: 85 1a        	sta	$1a                     ; 0x1a <__rc10>
    7387: a5 1c        	lda	$1c                     ; 0x1c <__rc12>
    7389: 29 33        	and	#$33
    738b: 85 1b        	sta	$1b                     ; 0x1b <__rc11>
    738d: 98           	tya
    738e: 29 33        	and	#$33
    7390: 85 19        	sta	$19                     ; 0x19 <__rc9>
    7392: 18           	clc
    7393: a5 1d        	lda	$1d                     ; 0x1d <__rc13>
    7395: 65 14        	adc	$14                     ; 0x14 <__rc4>
    7397: 85 14        	sta	$14                     ; 0x14 <__rc4>
    7399: 8a           	txa
    739a: 65 17        	adc	$17                     ; 0x17 <__rc7>
    739c: 85 17        	sta	$17                     ; 0x17 <__rc7>
    739e: a5 1a        	lda	$1a                     ; 0x1a <__rc10>
    73a0: 65 18        	adc	$18                     ; 0x18 <__rc8>
    73a2: 85 18        	sta	$18                     ; 0x18 <__rc8>
    73a4: a5 1b        	lda	$1b                     ; 0x1b <__rc11>
    73a6: 65 19        	adc	$19                     ; 0x19 <__rc9>
    73a8: 85 19        	sta	$19                     ; 0x19 <__rc9>
    73aa: 4a           	lsr
    73ab: aa           	tax
    73ac: a5 18        	lda	$18                     ; 0x18 <__rc8>
    73ae: 6a           	ror
    73af: a4 17        	ldy	$17                     ; 0x17 <__rc7>
    73b1: 84 1b        	sty	$1b                     ; 0x1b <__rc11>
    73b3: 66 1b        	ror	$1b                     ; 0x1b <__rc11>
    73b5: a4 14        	ldy	$14                     ; 0x14 <__rc4>
    73b7: 84 1c        	sty	$1c                     ; 0x1c <__rc12>
    73b9: 66 1c        	ror	$1c                     ; 0x1c <__rc12>
    73bb: 86 1a        	stx	$1a                     ; 0x1a <__rc10>
    73bd: 46 1a        	lsr	$1a                     ; 0x1a <__rc10>
    73bf: 6a           	ror
    73c0: 66 1b        	ror	$1b                     ; 0x1b <__rc11>
    73c2: 66 1c        	ror	$1c                     ; 0x1c <__rc12>
    73c4: 46 1a        	lsr	$1a                     ; 0x1a <__rc10>
    73c6: 6a           	ror
    73c7: 66 1b        	ror	$1b                     ; 0x1b <__rc11>
    73c9: 66 1c        	ror	$1c                     ; 0x1c <__rc12>
    73cb: 46 1a        	lsr	$1a                     ; 0x1a <__rc10>
    73cd: 6a           	ror
    73ce: 85 1d        	sta	$1d                     ; 0x1d <__rc13>
    73d0: a6 1b        	ldx	$1b                     ; 0x1b <__rc11>
    73d2: 86 1e        	stx	$1e                     ; 0x1e <__rc14>
    73d4: 66 1e        	ror	$1e                     ; 0x1e <__rc14>
    73d6: a5 1c        	lda	$1c                     ; 0x1c <__rc12>
    73d8: 6a           	ror
    73d9: 18           	clc
    73da: 65 14        	adc	$14                     ; 0x14 <__rc4>
    73dc: a8           	tay
    73dd: a5 1e        	lda	$1e                     ; 0x1e <__rc14>
    73df: 65 17        	adc	$17                     ; 0x17 <__rc7>
    73e1: aa           	tax
    73e2: a5 1d        	lda	$1d                     ; 0x1d <__rc13>
    73e4: 65 18        	adc	$18                     ; 0x18 <__rc8>
    73e6: 85 18        	sta	$18                     ; 0x18 <__rc8>
    73e8: a5 1a        	lda	$1a                     ; 0x1a <__rc10>
    73ea: 65 19        	adc	$19                     ; 0x19 <__rc9>
    73ec: 85 19        	sta	$19                     ; 0x19 <__rc9>
    73ee: 98           	tya
    73ef: 29 0f        	and	#$f
    73f1: 85 14        	sta	$14                     ; 0x14 <__rc4>
    73f3: 85 1a        	sta	$1a                     ; 0x1a <__rc10>
    73f5: 8a           	txa
    73f6: 29 0f        	and	#$f
    73f8: 85 17        	sta	$17                     ; 0x17 <__rc7>
    73fa: a8           	tay
    73fb: a5 18        	lda	$18                     ; 0x18 <__rc8>
    73fd: 29 0f        	and	#$f
    73ff: 85 18        	sta	$18                     ; 0x18 <__rc8>
    7401: aa           	tax
    7402: a5 19        	lda	$19                     ; 0x19 <__rc9>
    7404: 29 0f        	and	#$f
    7406: 85 19        	sta	$19                     ; 0x19 <__rc9>
    7408: 18           	clc
    7409: a5 1a        	lda	$1a                     ; 0x1a <__rc10>
    740b: 69 00        	adc	#$0
    740d: 85 1b        	sta	$1b                     ; 0x1b <__rc11>
    740f: 98           	tya
    7410: 65 14        	adc	$14                     ; 0x14 <__rc4>
    7412: a8           	tay
    7413: 8a           	txa
    7414: 65 17        	adc	$17                     ; 0x17 <__rc7>
    7416: 85 1a        	sta	$1a                     ; 0x1a <__rc10>
    7418: a5 19        	lda	$19                     ; 0x19 <__rc9>
    741a: 65 18        	adc	$18                     ; 0x18 <__rc8>
    741c: aa           	tax
    741d: a5 1b        	lda	$1b                     ; 0x1b <__rc11>
    741f: 85 14        	sta	$14                     ; 0x14 <__rc4>
    7421: 18           	clc
    7422: 69 00        	adc	#$0
    7424: 98           	tya
    7425: 84 17        	sty	$17                     ; 0x17 <__rc7>
    7427: 69 00        	adc	#$0
    7429: a5 1a        	lda	$1a                     ; 0x1a <__rc10>
    742b: 65 14        	adc	$14                     ; 0x14 <__rc4>
    742d: 8a           	txa
    742e: 65 17        	adc	$17                     ; 0x17 <__rc7>
    7430: 85 14        	sta	$14                     ; 0x14 <__rc4>
    7432: a9 20        	lda	#$20
    7434: 38           	sec
    7435: e5 14        	sbc	$14                     ; 0x14 <__rc4>
    7437: 85 14        	sta	$14                     ; 0x14 <__rc4>
    7439: 85 19        	sta	$19                     ; 0x19 <__rc9>
    743b: a9 00        	lda	#$0
    743d: e9 00        	sbc	#$0
    743f: 85 18        	sta	$18                     ; 0x18 <__rc8>
    7441: 85 8f        	sta	$8f                     ; 0x8f <__zp_bss_size+0x35>
    7443: a6 19        	ldx	$19                     ; 0x19 <__rc9>
    7445: 86 91        	stx	$91                     ; 0x91 <__zp_bss_size+0x37>
    7447: a5 19        	lda	$19                     ; 0x19 <__rc9>
    7449: 49 1f        	eor	#$1f
    744b: 85 17        	sta	$17                     ; 0x17 <__rc7>
    744d: a6 8f        	ldx	$8f                     ; 0x8f <__zp_bss_size+0x35>
    744f: f0 03        	beq	$7454 <__floatunsisf+0x207>
    7451: 4c c9 74     	jmp	$74c9 <__floatunsisf+0x27c>
    7454: c9 18        	cmp	#$18
    7456: b0 03        	bcs	$745b <__floatunsisf+0x20e>
    7458: 4c d2 74     	jmp	$74d2 <__floatunsisf+0x285>
    745b: 38           	sec
    745c: a9 08        	lda	#$8
    745e: a6 14        	ldx	$14                     ; 0x14 <__rc4>
    7460: 86 90        	stx	$90                     ; 0x90 <__zp_bss_size+0x36>
    7462: e5 14        	sbc	$14                     ; 0x14 <__rc4>
    7464: a6 12        	ldx	$12                     ; 0x12 <__rc2>
    7466: 86 96        	stx	$96                     ; 0x96 <__zp_bss_size+0x3c>
    7468: a6 13        	ldx	$13                     ; 0x13 <__rc3>
    746a: 86 98        	stx	$98                     ; 0x98 <__zp_bss_size+0x3e>
    746c: 85 14        	sta	$14                     ; 0x14 <__rc4>
    746e: a6 16        	ldx	$16                     ; 0x16 <__rc6>
    7470: a5 15        	lda	$15                     ; 0x15 <__rc5>
    7472: a4 15        	ldy	$15                     ; 0x15 <__rc5>
    7474: 84 97        	sty	$97                     ; 0x97 <__zp_bss_size+0x3d>
    7476: a4 16        	ldy	$16                     ; 0x16 <__rc6>
    7478: 84 99        	sty	$99                     ; 0x99 <__zp_bss_size+0x3f>
    747a: 20 c7 60     	jsr	$60c7 <__lshrsi3>
    747d: 85 93        	sta	$93                     ; 0x93 <__zp_bss_size+0x39>
    747f: 86 92        	stx	$92                     ; 0x92 <__zp_bss_size+0x38>
    7481: a5 12        	lda	$12                     ; 0x12 <__rc2>
    7483: a6 13        	ldx	$13                     ; 0x13 <__rc3>
    7485: 86 95        	stx	$95                     ; 0x95 <__zp_bss_size+0x3b>
    7487: 49 80        	eor	#$80
    7489: 85 94        	sta	$94                     ; 0x94 <__zp_bss_size+0x3a>
    748b: a5 91        	lda	$91                     ; 0x91 <__zp_bss_size+0x37>
    748d: 18           	clc
    748e: 69 18        	adc	#$18
    7490: a6 96        	ldx	$96                     ; 0x96 <__zp_bss_size+0x3c>
    7492: 86 12        	stx	$12                     ; 0x12 <__rc2>
    7494: a6 98        	ldx	$98                     ; 0x98 <__zp_bss_size+0x3e>
    7496: 86 13        	stx	$13                     ; 0x13 <__rc3>
    7498: 85 14        	sta	$14                     ; 0x14 <__rc4>
    749a: a6 99        	ldx	$99                     ; 0x99 <__zp_bss_size+0x3f>
    749c: a5 97        	lda	$97                     ; 0x97 <__zp_bss_size+0x3d>
    749e: 20 b0 60     	jsr	$60b0 <__ashlsi3>
    74a1: 85 15        	sta	$15                     ; 0x15 <__rc5>
    74a3: 86 16        	stx	$16                     ; 0x16 <__rc6>
    74a5: a6 12        	ldx	$12                     ; 0x12 <__rc2>
    74a7: a4 13        	ldy	$13                     ; 0x13 <__rc3>
    74a9: c0 80        	cpy	#$80
    74ab: d0 4e        	bne	$74fb <__floatunsisf+0x2ae>
    74ad: a5 8f        	lda	$8f                     ; 0x8f <__zp_bss_size+0x35>
    74af: 85 12        	sta	$12                     ; 0x12 <__rc2>
    74b1: 8a           	txa
    74b2: d0 4f        	bne	$7503 <__floatunsisf+0x2b6>
    74b4: a5 90        	lda	$90                     ; 0x90 <__zp_bss_size+0x36>
    74b6: 85 13        	sta	$13                     ; 0x13 <__rc3>
    74b8: a5 93        	lda	$93                     ; 0x93 <__zp_bss_size+0x39>
    74ba: 85 14        	sta	$14                     ; 0x14 <__rc4>
    74bc: a5 16        	lda	$16                     ; 0x16 <__rc6>
    74be: f0 03        	beq	$74c3 <__floatunsisf+0x276>
    74c0: 4c 8f 75     	jmp	$758f <__floatunsisf+0x342>
    74c3: a5 15        	lda	$15                     ; 0x15 <__rc5>
    74c5: c9 01        	cmp	#$1
    74c7: 80 44        	bra	$750d <__floatunsisf+0x2c0>
    74c9: a6 18        	ldx	$18                     ; 0x18 <__rc8>
    74cb: e0 00        	cpx	#$0
    74cd: 90 03        	bcc	$74d2 <__floatunsisf+0x285>
    74cf: 4c 5b 74     	jmp	$745b <__floatunsisf+0x20e>
    74d2: a6 14        	ldx	$14                     ; 0x14 <__rc4>
    74d4: 86 90        	stx	$90                     ; 0x90 <__zp_bss_size+0x36>
    74d6: 38           	sec
    74d7: a9 17        	lda	#$17
    74d9: e5 17        	sbc	$17                     ; 0x17 <__rc7>
    74db: 85 14        	sta	$14                     ; 0x14 <__rc4>
    74dd: a6 16        	ldx	$16                     ; 0x16 <__rc6>
    74df: a5 15        	lda	$15                     ; 0x15 <__rc5>
    74e1: 20 b0 60     	jsr	$60b0 <__ashlsi3>
    74e4: 85 14        	sta	$14                     ; 0x14 <__rc4>
    74e6: 86 17        	stx	$17                     ; 0x17 <__rc7>
    74e8: a5 12        	lda	$12                     ; 0x12 <__rc2>
    74ea: a6 13        	ldx	$13                     ; 0x13 <__rc3>
    74ec: 86 15        	stx	$15                     ; 0x15 <__rc5>
    74ee: 49 80        	eor	#$80
    74f0: a6 8f        	ldx	$8f                     ; 0x8f <__zp_bss_size+0x35>
    74f2: 86 12        	stx	$12                     ; 0x12 <__rc2>
    74f4: a6 90        	ldx	$90                     ; 0x90 <__zp_bss_size+0x36>
    74f6: 86 13        	stx	$13                     ; 0x13 <__rc3>
    74f8: 4c 5e 75     	jmp	$755e <__floatunsisf+0x311>
    74fb: c0 80        	cpy	#$80
    74fd: a5 8f        	lda	$8f                     ; 0x8f <__zp_bss_size+0x35>
    74ff: 85 12        	sta	$12                     ; 0x12 <__rc2>
    7501: 80 02        	bra	$7505 <__floatunsisf+0x2b8>
    7503: e0 00        	cpx	#$0
    7505: a5 90        	lda	$90                     ; 0x90 <__zp_bss_size+0x36>
    7507: 85 13        	sta	$13                     ; 0x13 <__rc3>
    7509: a5 93        	lda	$93                     ; 0x93 <__zp_bss_size+0x39>
    750b: 85 14        	sta	$14                     ; 0x14 <__rc4>
    750d: a5 92        	lda	$92                     ; 0x92 <__zp_bss_size+0x38>
    750f: 85 17        	sta	$17                     ; 0x17 <__rc7>
    7511: b0 30        	bcs	$7543 <__floatunsisf+0x2f6>
    7513: c0 80        	cpy	#$80
    7515: d0 41        	bne	$7558 <__floatunsisf+0x30b>
    7517: 8a           	txa
    7518: d0 3e        	bne	$7558 <__floatunsisf+0x30b>
    751a: a5 16        	lda	$16                     ; 0x16 <__rc6>
    751c: d0 3a        	bne	$7558 <__floatunsisf+0x30b>
    751e: a5 15        	lda	$15                     ; 0x15 <__rc5>
    7520: d0 36        	bne	$7558 <__floatunsisf+0x30b>
    7522: a5 14        	lda	$14                     ; 0x14 <__rc4>
    7524: 29 01        	and	#$1
    7526: 18           	clc
    7527: 65 14        	adc	$14                     ; 0x14 <__rc4>
    7529: a8           	tay
    752a: a6 92        	ldx	$92                     ; 0x92 <__zp_bss_size+0x38>
    752c: 8a           	txa
    752d: 69 00        	adc	#$0
    752f: 85 17        	sta	$17                     ; 0x17 <__rc7>
    7531: a5 94        	lda	$94                     ; 0x94 <__zp_bss_size+0x3a>
    7533: 69 00        	adc	#$0
    7535: 85 16        	sta	$16                     ; 0x16 <__rc6>
    7537: a5 95        	lda	$95                     ; 0x95 <__zp_bss_size+0x3b>
    7539: 69 00        	adc	#$0
    753b: 85 15        	sta	$15                     ; 0x15 <__rc5>
    753d: a5 16        	lda	$16                     ; 0x16 <__rc6>
    753f: 84 14        	sty	$14                     ; 0x14 <__rc4>
    7541: 80 1b        	bra	$755e <__floatunsisf+0x311>
    7543: a5 94        	lda	$94                     ; 0x94 <__zp_bss_size+0x3a>
    7545: a6 95        	ldx	$95                     ; 0x95 <__zp_bss_size+0x3b>
    7547: 86 15        	stx	$15                     ; 0x15 <__rc5>
    7549: e6 14        	inc	$14                     ; 0x14 <__rc4>
    754b: d0 09        	bne	$7556 <__floatunsisf+0x309>
    754d: e6 17        	inc	$17                     ; 0x17 <__rc7>
    754f: d0 05        	bne	$7556 <__floatunsisf+0x309>
    7551: 1a           	inc
    7552: d0 02        	bne	$7556 <__floatunsisf+0x309>
    7554: e6 15        	inc	$15                     ; 0x15 <__rc5>
    7556: 80 06        	bra	$755e <__floatunsisf+0x311>
    7558: a5 94        	lda	$94                     ; 0x94 <__zp_bss_size+0x3a>
    755a: a6 95        	ldx	$95                     ; 0x95 <__zp_bss_size+0x3b>
    755c: 86 15        	stx	$15                     ; 0x15 <__rc5>
    755e: 85 16        	sta	$16                     ; 0x16 <__rc6>
    7560: 38           	sec
    7561: a9 9e        	lda	#$9e
    7563: e5 13        	sbc	$13                     ; 0x13 <__rc3>
    7565: 85 13        	sta	$13                     ; 0x13 <__rc3>
    7567: a9 00        	lda	#$0
    7569: e5 12        	sbc	$12                     ; 0x12 <__rc2>
    756b: 4a           	lsr
    756c: 66 13        	ror	$13                     ; 0x13 <__rc3>
    756e: 64 18        	stz	$18                     ; 0x18 <__rc8>
    7570: 66 18        	ror	$18                     ; 0x18 <__rc8>
    7572: a9 00        	lda	#$0
    7574: 6a           	ror
    7575: aa           	tax
    7576: a9 00        	lda	#$0
    7578: 6a           	ror
    7579: 18           	clc
    757a: 65 14        	adc	$14                     ; 0x14 <__rc4>
    757c: a8           	tay
    757d: 8a           	txa
    757e: 65 17        	adc	$17                     ; 0x17 <__rc7>
    7580: aa           	tax
    7581: a5 18        	lda	$18                     ; 0x18 <__rc8>
    7583: 65 16        	adc	$16                     ; 0x16 <__rc6>
    7585: 85 12        	sta	$12                     ; 0x12 <__rc2>
    7587: a5 13        	lda	$13                     ; 0x13 <__rc3>
    7589: 65 15        	adc	$15                     ; 0x15 <__rc5>
    758b: 85 13        	sta	$13                     ; 0x13 <__rc3>
    758d: 98           	tya
    758e: 60           	rts
    758f: a5 16        	lda	$16                     ; 0x16 <__rc6>
    7591: c9 00        	cmp	#$0
    7593: 4c 0d 75     	jmp	$750d <__floatunsisf+0x2c0>
    7596: a0 00        	ldy	#$0
    7598: a2 00        	ldx	#$0
    759a: 64 12        	stz	$12                     ; 0x12 <__rc2>
    759c: 64 13        	stz	$13                     ; 0x13 <__rc3>
    759e: 80 ed        	bra	$758d <__floatunsisf+0x340>
