
midiTest.elf:	file format elf32-mos

SYMBOL TABLE:
00000000 l    df *ABS*	00000000 zero-bss.c
00000000 l    df *ABS*	00000000 zero-zp-bss.c
00000000 l    df *ABS*	00000000 copy-zp-data.c
00000000 l    df *ABS*	00000000 ld-temp.o
00000576 l     F .text	000003a0 f256Init
00000081 l     O .zp.bss	00000007 kernelEventData
00000030 l     O .zp.data	00000001 _ccolor
00008bc0 l     O .rodata	00000030 textColors
00000033 l     O .zp.bss	00000001 _col
00000034 l     O .zp.bss	00000001 _row
000092f9 l     O .bss	00000004 _BITMAP_BASE.0
000092ff l     O .bss	00000001 kernelError
0000091c l     F .text	00002747 f256main
00006571 l     F .text	000001d3 malloc
0000006a l     O .zp.bss	00000002 gPtr
0000007e l     O .zp.bss	00000002 theBeats
00004341 l     F .text	000001cc setupMem4ABeat
00005945 l     F .text	00000c2c printf
00008d84 l     O .rodata	00000002 beat00_notes
00008d86 l     O .rodata	00000002 beat00_delays
0000479f l     F .text	00000251 setupMem4Track
00008d88 l     O .rodata	0000006a beat40_notes
00008df2 l     O .rodata	0000006a beat40_delays
00008e5c l     O .rodata	00000010 beat41_notes
00008e6c l     O .rodata	00000010 beat41_delays
00008e7c l     O .rodata	000000d8 beat51_notes
00008f54 l     O .rodata	000000d8 beat51_delays
0000902c l     O .rodata	0000000c beat60_notes
00009038 l     O .rodata	0000000c beat60_delays
00009044 l     O .rodata	00000008 beat61_notes
0000904c l     O .rodata	00000008 beat61_delays
00009054 l     O .rodata	0000000c beat62_notes
00009060 l     O .rodata	0000000c beat62_delays
0000906c l     O .rodata	0000000c beat63_notes
00009078 l     O .rodata	0000000c beat63_delays
00009084 l     O .rodata	0000000c beat64_notes
00009090 l     O .rodata	0000000c beat64_delays
00003dda l     F .text	000001cb escReset
00003fa5 l     F .text	000000d6 prepTempoLUT
00000080 l     O .zp.bss	00000001 refTimer.1
000042da l     F .text	00000067 sid_setInstrumentAllChannels
0000420a l     F .text	00000048 opl3_setInstrumentAllChannels
00008d4c l     O .rodata	00000038 rtmplugin
00000031 l     O .zp.data	00000002 note
000092fd l     O .bss	00000002 oldCursorNote
00000061 l     O .zp.bss	00000001 instSelectMode
00003063 l     F .text	000001b8 textPrint
0000321b l     F .text	000005a6 dispatchNote
0000407b l     F .text	000000bb textPrintUInt
00008bfc l     O .rodata	00000058 noteColors
00000063 l     O .zp.bss	00000001 altHit
00000065 l     O .zp.bss	00000001 chipAct.0
0000006c l     O .zp.bss	00000012 mainTempoLUT
00000064 l     O .zp.bss	00000001 shiftHit
00000066 l     O .zp.bss	00000001 chipAct.1
00000043 l     O .zp.bss	00000006 polySIDBuffer
00000067 l     O .zp.bss	00000001 chipAct.2
00000037 l     O .zp.bss	00000006 polyPSGBuffer
00000068 l     O .zp.bss	00000001 chipAct.3
0000004f l     O .zp.bss	00000009 polyOPL3Buffer
00000069 l     O .zp.bss	00000001 chipAct.4
00004f51 l     F .text	000000f8 showChipChoiceText
00000035 l     O .zp.bss	00000002 __putchar.s
0000450d l     F .text	00000292 getBeatTrackNoteInfo
00000062 l     O .zp.bss	00000001 needsToWaitExpiration
000050cb l     F .text	000003e7 textTitle
00004e60 l     F .text	00000097 refreshBeatTextChoice
000037c1 l     F .text	00000619 launchBeat
00004ef7 l     F .text	0000005a updateTempoText
000054b2 l     F .text	000001d1 highLightInstChoice
000091bb l     O .rodata	00000100 midi_instruments
000092c3 l     O .rodata	0000000a sid_instruments_names
000092cd l     O .rodata	0000002c opl3_instrument_names
00005049 l     F .text	00000082 showMIDIChoiceText
00004d76 l     F .text	000000ea channelTextMenu
000049f0 l     F .text	00000386 refreshInstrumentText
00005683 l     F .text	0000006b modalMoveUp
000056ee l     F .text	0000006b modalMoveDown
00006dd6 l     F .text	000000db __udivmodhi4
00008c54 l     O .rodata	00000018 opl3_fnums
00000058 l     O .zp.bss	00000009 reservedOPL3
00000049 l     O .zp.bss	00000006 reservedSID
0000003d l     O .zp.bss	00000006 reservedPSG
00008bf6 l     O .rodata	00000006 sidChoiceToVoice
00008cec l     O .rodata	00000060 sidLow
000082ea l     O .rodata	00000060 sidHigh
0000909c l     O .rodata	0000002d sid_instrument_defs
00008bf0 l     O .rodata	00000006 polyPSGChanBits
00008c6c l     O .rodata	00000040 psgLow
00008cac l     O .rodata	00000040 psgHigh
00006744 l     F .text	00000192 free
00006b05 l     F .text	0000005c __udivqi3
00004252 l     F .text	00000088 sid_setInstrument
0000696b l     F .text	00000032 __mulhi3
000090c9 l     O .rodata	000000f2 opl3_instrument_defs
00004136 l     F .text	000000d4 opl3_setInstrument
00007abf l     F .text	00000353 __floatunsisf
00006eb1 l     F .text	00000b92 __divsf3
00007a43 l     F .text	0000007c __fixunssfsi
00006b61 l     F .text	000000c0 __udivhi3
00006c21 l     F .text	00000147 __umodsi3
000092bb l     O .rodata	00000008 presetBeatCount_names
00006d68 l     F .text	0000006e __udivmodqi4
00006950 l     F .text	0000001b __mulqi3
0000575e l     F .text	000000db _ZN12_GLOBAL__N_13putEcP6Status
00005839 l     F .text	0000010c _ZN12_GLOBAL__N_112print_stringEPKcP6Status
00000088 l     O .zp.bss	00000001 _ZN12_GLOBAL__N_111initializedE
0000031c l     F .text	0000013d _ZN12_GLOBAL__N_19FreeChunk6insertEPvj
00009300 l     O .bss	00000001 _ZN12_GLOBAL__N_19last_freeE
00009303 l     O .bss	00000002 _ZN12_GLOBAL__N_19free_listE
0000045a l     F .text	000000df _ZN12_GLOBAL__N_19FreeChunk6removeEv
00009301 l     O .bss	00000002 _ZN12_GLOBAL__N_19free_sizeE
00006922 l     F .text	00000017 __ashlsi3
00006939 l     F .text	00000017 __lshrsi3
0000699d l     F .text	00000070 __mulsi3
00006a0d l     F .text	000000f8 __muldi3
00000916 g     F .text	00000006 main
0004ac00 g       .pia1	00000000 pia1_end
000303fc g       .palpiano	00000000 palpiano_end
00038000 g       .pia1	00000000 pia1_start
00030000 g       .palpiano	00000000 palpiano_start
00000318 g       .text	00000000 __after_main
00000304 g       .text	00000000 __do_init_stack
00000312 g       .text	00000000 __do_copy_zp_data
0000055f g     F .text	00000017 __copy_zp_data
0000030c g       .text	00000000 __do_zero_bss
00000539 g     F .text	00000013 __zero_bss
0000030f g       .text	00000000 __do_zero_zp_bss
0000054c g     F .text	00000013 __zero_zp_bss
00005759 g     F .text	00000005 exit
0000031b g       .text	00000000 _fini
00007e12 g       .rodata	00000000 __set_v
00006902  w    F .text	00000020 __memset
00001000  w      *ABS*	00000000 __heap_default_limit
00009306 g       .noinit	00000000 __heap_start
000068d6  w    F .text	0000002c memcpy
00000010 g       *ABS*	00000000 __rc0
00000012 g       *ABS*	00000000 __rc2
00000014 g       *ABS*	00000000 __rc4
00000016 g       *ABS*	00000000 __rc6
00000018 g       *ABS*	00000000 __rc8
0000001a g       *ABS*	00000000 __rc10
0000001c g       *ABS*	00000000 __rc12
0000001e g       *ABS*	00000000 __rc14
00000020 g       *ABS*	00000000 __rc16
00000022 g       *ABS*	00000000 __rc18
00000024 g       *ABS*	00000000 __rc20
00000026 g       *ABS*	00000000 __rc22
00000028 g       *ABS*	00000000 __rc24
0000002a g       *ABS*	00000000 __rc26
0000002c g       *ABS*	00000000 __rc28
0000002e g       *ABS*	00000000 __rc30
0000002f g       *ABS*	00000000 __rc31
00000300 g       *ABS*	00000000 __f256_start
0000c000 g       *ABS*	00000000 __stack
0000c000 g       *ABS*	00000000 __SLOT_ADDR
0800c000 g       *ABS*	00000000 __block8_lma
00002000 g       *ABS*	00000000 __BLOCK_SIZE
0900c000 g       *ABS*	00000000 __block9_lma
0a00c000 g       *ABS*	00000000 __block10_lma
0b00c000 g       *ABS*	00000000 __block11_lma
0c00c000 g       *ABS*	00000000 __block12_lma
0d00c000 g       *ABS*	00000000 __block13_lma
0e00c000 g       *ABS*	00000000 __block14_lma
0f00c000 g       *ABS*	00000000 __block15_lma
1000c000 g       *ABS*	00000000 __block16_lma
1100c000 g       *ABS*	00000000 __block17_lma
1200c000 g       *ABS*	00000000 __block18_lma
1300c000 g       *ABS*	00000000 __block19_lma
1400c000 g       *ABS*	00000000 __block20_lma
1500c000 g       *ABS*	00000000 __block21_lma
1600c000 g       *ABS*	00000000 __block22_lma
1700c000 g       *ABS*	00000000 __block23_lma
00030000 g       *ABS*	00000000 __palpiano_lma
000003fc g       *ABS*	00000000 __palpiano_size
00038000 g       *ABS*	00000000 __pia1_lma
00012c00 g       *ABS*	00000000 __pia1_size
000092f9 g       .bss	00000000 __bss_start
000303fc g       .palpiano	00000000 end_palpiano
0004ac00 g       .pia1	00000000 end_pia1
00000304 g       .text	00000000 _start
0000002d g       *ABS*	00000000 __rc29
0000002b g       *ABS*	00000000 __rc27
00000029 g       *ABS*	00000000 __rc25
00000027 g       *ABS*	00000000 __rc23
00000025 g       *ABS*	00000000 __rc21
00000023 g       *ABS*	00000000 __rc19
00000021 g       *ABS*	00000000 __rc17
0000001f g       *ABS*	00000000 __rc15
0000001d g       *ABS*	00000000 __rc13
0000001b g       *ABS*	00000000 __rc11
00000019 g       *ABS*	00000000 __rc9
00000017 g       *ABS*	00000000 __rc7
00000015 g       *ABS*	00000000 __rc5
00000013 g       *ABS*	00000000 __rc3
00000011 g       *ABS*	00000000 __rc1
00000030 g       .zp.data	00000000 __zp_data_start
00000300 g       *ABS*	00000000 __zp_data_load_start
00000003 g       *ABS*	00000000 __zp_data_size
00000033 g       .zp.bss	00000000 __zp_bss_start
00000056 g       *ABS*	00000000 __zp_bss_size
00000304 g       .text	00000000 _init
00007e12 g       .text	00000000 __init_array_start
00007e12 g       .text	00000000 __init_array_end
00007e12 g       .text	00000000 __fini_array_start
00007e12 g       .text	00000000 __fini_array_end
000092f9 g       .data	00000000 __data_start
000092f9 g       .data	00000000 __data_end
000092f9 g       *ABS*	00000000 __data_load_start
00000000 g       *ABS*	00000000 __data_size
00009305 g       .bss	00000000 __bss_end
0000000c g       *ABS*	00000000 __bss_size
00009305 g       .noinit	00000000 end_block8
00009305 g       .noinit	00000000 end_block9
00009305 g       .noinit	00000000 end_block10
00009305 g       .noinit	00000000 end_block11
00009305 g       .noinit	00000000 end_block12
00009305 g       .noinit	00000000 end_block13
00009305 g       .noinit	00000000 end_block14
00009305 g       .noinit	00000000 end_block15
00009305 g       .noinit	00000000 end_block16
00009305 g       .noinit	00000000 end_block17
00009305 g       .noinit	00000000 end_block18
00009305 g       .noinit	00000000 end_block19
00009305 g       .noinit	00000000 end_block20
00009305 g       .noinit	00000000 end_block21
00009305 g       .noinit	00000000 end_block22
00009305 g       .noinit	00000000 end_block23

Disassembly of section .text:

00000304 <_start>:
     304: a9 00        	lda	#$0
     306: 85 10        	sta	$10                     ; 0x2010 <f256main+0x16f4>
     308: a9 c0        	lda	#$c0
     30a: 85 11        	sta	$11                     ; 0x2011 <f256main+0x16f5>

0000030c <__do_zero_bss>:
     30c: 20 39 05     	jsr	$539 <__zero_bss>

0000030f <__do_zero_zp_bss>:
     30f: 20 4c 05     	jsr	$54c <__zero_zp_bss>

00000312 <__do_copy_zp_data>:
     312: 20 5f 05     	jsr	$55f <__copy_zp_data>
     315: 20 16 09     	jsr	$916 <main>

00000318 <__after_main>:
     318: 4c 59 57     	jmp	$5759 <exit>

0000031b <_fini>:
     31b: 60           	rts

0000031c <_ZN12_GLOBAL__N_19FreeChunk6insertEPvj>:
     31c: 85 16        	sta	$16                     ; 0x2016 <f256main+0x16fa>
     31e: 29 fe        	and	#$fe
     320: 85 14        	sta	$14                     ; 0x2014 <f256main+0x16f8>
     322: a0 01        	ldy	#$1
     324: 98           	tya
     325: 32 12        	and	($12)                   ; 0x2012 <f256main+0x16f6>
     327: 05 14        	ora	$14                     ; 0x2014 <f256main+0x16f8>
     329: 92 12        	sta	($12)                   ; 0x2012 <f256main+0x16f6>
     32b: a5 12        	lda	$12                     ; 0x2012 <f256main+0x16f6>
     32d: 18           	clc
     32e: 65 14        	adc	$14                     ; 0x2014 <f256main+0x16f8>
     330: 85 15        	sta	$15                     ; 0x2015 <f256main+0x16f9>
     332: 8a           	txa
     333: 65 13        	adc	$13                     ; 0x2013 <f256main+0x16f7>
     335: 85 14        	sta	$14                     ; 0x2014 <f256main+0x16f8>
     337: 18           	clc
     338: a5 15        	lda	$15                     ; 0x2015 <f256main+0x16f9>
     33a: 69 fe        	adc	#$fe
     33c: 85 17        	sta	$17                     ; 0x2017 <f256main+0x16fb>
     33e: a5 14        	lda	$14                     ; 0x2014 <f256main+0x16f8>
     340: 69 ff        	adc	#$ff
     342: 85 15        	sta	$15                     ; 0x2015 <f256main+0x16f9>
     344: a5 17        	lda	$17                     ; 0x2017 <f256main+0x16fb>
     346: 85 14        	sta	$14                     ; 0x2014 <f256main+0x16f8>
     348: 8a           	txa
     349: 91 12        	sta	($12),y                 ; 0x2012 <f256main+0x16f6>
     34b: a5 16        	lda	$16                     ; 0x2016 <f256main+0x16fa>
     34d: 92 14        	sta	($14)                   ; 0x2014 <f256main+0x16f8>
     34f: 8a           	txa
     350: 91 14        	sta	($14),y                 ; 0x2014 <f256main+0x16f8>
     352: b1 12        	lda	($12),y                 ; 0x2012 <f256main+0x16f6>
     354: 85 14        	sta	$14                     ; 0x2014 <f256main+0x16f8>
     356: a9 fe        	lda	#$fe
     358: 32 12        	and	($12)                   ; 0x2012 <f256main+0x16f6>
     35a: 18           	clc
     35b: 6d 01 93     	adc	$9301                   ; 0x9301 <_ZN12_GLOBAL__N_19free_sizeE>
     35e: aa           	tax
     35f: a5 14        	lda	$14                     ; 0x2014 <f256main+0x16f8>
     361: 6d 02 93     	adc	$9302                   ; 0x9302 <_ZN12_GLOBAL__N_19free_sizeE+0x1>
     364: a8           	tay
     365: 18           	clc
     366: 8a           	txa
     367: 69 fe        	adc	#$fe
     369: aa           	tax
     36a: 98           	tya
     36b: 69 ff        	adc	#$ff
     36d: 8e 01 93     	stx	$9301                   ; 0x9301 <_ZN12_GLOBAL__N_19free_sizeE>
     370: 8d 02 93     	sta	$9302                   ; 0x9302 <_ZN12_GLOBAL__N_19free_sizeE+0x1>
     373: ae 03 93     	ldx	$9303                   ; 0x9303 <_ZN12_GLOBAL__N_19free_listE>
     376: 86 16        	stx	$16                     ; 0x2016 <f256main+0x16fa>
     378: ac 04 93     	ldy	$9304                   ; 0x9304 <_ZN12_GLOBAL__N_19free_listE+0x1>
     37b: a2 00        	ldx	#$0
     37d: 86 14        	stx	$14                     ; 0x2014 <f256main+0x16f8>
     37f: a2 00        	ldx	#$0
     381: 86 15        	stx	$15                     ; 0x2015 <f256main+0x16f9>
     383: c4 15        	cpy	$15                     ; 0x2015 <f256main+0x16f9>
     385: d0 3e        	bne	$3c5 <_ZN12_GLOBAL__N_19FreeChunk6insertEPvj+0xa9>
     387: a6 16        	ldx	$16                     ; 0x2016 <f256main+0x16fa>
     389: e4 14        	cpx	$14                     ; 0x2014 <f256main+0x16f8>
     38b: d0 38        	bne	$3c5 <_ZN12_GLOBAL__N_19FreeChunk6insertEPvj+0xa9>
     38d: a0 04        	ldy	#$4
     38f: a5 12        	lda	$12                     ; 0x2012 <f256main+0x16f6>
     391: 18           	clc
     392: 69 04        	adc	#$4
     394: 85 14        	sta	$14                     ; 0x2014 <f256main+0x16f8>
     396: a5 13        	lda	$13                     ; 0x2013 <f256main+0x16f7>
     398: 69 00        	adc	#$0
     39a: 18           	clc
     39b: 85 15        	sta	$15                     ; 0x2015 <f256main+0x16f9>
     39d: a5 12        	lda	$12                     ; 0x2012 <f256main+0x16f6>
     39f: 91 12        	sta	($12),y                 ; 0x2012 <f256main+0x16f6>
     3a1: a0 02        	ldy	#$2
     3a3: 85 17        	sta	$17                     ; 0x2017 <f256main+0x16fb>
     3a5: 69 02        	adc	#$2
     3a7: 85 16        	sta	$16                     ; 0x2016 <f256main+0x16fa>
     3a9: a5 17        	lda	$17                     ; 0x2017 <f256main+0x16fb>
     3ab: 91 12        	sta	($12),y                 ; 0x2012 <f256main+0x16f6>
     3ad: a5 13        	lda	$13                     ; 0x2013 <f256main+0x16f7>
     3af: 69 00        	adc	#$0
     3b1: 85 17        	sta	$17                     ; 0x2017 <f256main+0x16fb>
     3b3: 88           	dey
     3b4: a5 13        	lda	$13                     ; 0x2013 <f256main+0x16f7>
     3b6: 91 14        	sta	($14),y                 ; 0x2014 <f256main+0x16f8>
     3b8: 91 16        	sta	($16),y                 ; 0x2016 <f256main+0x16fa>
     3ba: a6 12        	ldx	$12                     ; 0x2012 <f256main+0x16f6>
     3bc: 8e 03 93     	stx	$9303                   ; 0x9303 <_ZN12_GLOBAL__N_19free_listE>
     3bf: a6 13        	ldx	$13                     ; 0x2013 <f256main+0x16f7>
     3c1: 8e 04 93     	stx	$9304                   ; 0x9304 <_ZN12_GLOBAL__N_19free_listE+0x1>
     3c4: 60           	rts
     3c5: a6 12        	ldx	$12                     ; 0x2012 <f256main+0x16f6>
     3c7: a5 12        	lda	$12                     ; 0x2012 <f256main+0x16f6>
     3c9: 18           	clc
     3ca: 69 02        	adc	#$2
     3cc: 85 14        	sta	$14                     ; 0x2014 <f256main+0x16f8>
     3ce: 84 18        	sty	$18                     ; 0x2018 <f256main+0x16fc>
     3d0: a5 13        	lda	$13                     ; 0x2013 <f256main+0x16f7>
     3d2: 69 00        	adc	#$0
     3d4: 85 15        	sta	$15                     ; 0x2015 <f256main+0x16f9>
     3d6: a5 16        	lda	$16                     ; 0x2016 <f256main+0x16fa>
     3d8: 84 17        	sty	$17                     ; 0x2017 <f256main+0x16fb>
     3da: a0 02        	ldy	#$2
     3dc: 91 12        	sta	($12),y                 ; 0x2012 <f256main+0x16f6>
     3de: 85 19        	sta	$19                     ; 0x2019 <f256main+0x16fd>
     3e0: 88           	dey
     3e1: a5 18        	lda	$18                     ; 0x2018 <f256main+0x16fc>
     3e3: 91 14        	sta	($14),y                 ; 0x2014 <f256main+0x16f8>
     3e5: 18           	clc
     3e6: a5 19        	lda	$19                     ; 0x2019 <f256main+0x16fd>
     3e8: 69 04        	adc	#$4
     3ea: a8           	tay
     3eb: a5 18        	lda	$18                     ; 0x2018 <f256main+0x16fc>
     3ed: 69 00        	adc	#$0
     3ef: 85 19        	sta	$19                     ; 0x2019 <f256main+0x16fd>
     3f1: 84 18        	sty	$18                     ; 0x2018 <f256main+0x16fc>
     3f3: 8a           	txa
     3f4: 18           	clc
     3f5: 69 04        	adc	#$4
     3f7: 85 1a        	sta	$1a                     ; 0x201a <f256main+0x16fe>
     3f9: a5 13        	lda	$13                     ; 0x2013 <f256main+0x16f7>
     3fb: 69 00        	adc	#$0
     3fd: 85 1b        	sta	$1b                     ; 0x201b <f256main+0x16ff>
     3ff: a0 04        	ldy	#$4
     401: b1 16        	lda	($16),y                 ; 0x2016 <f256main+0x16fa>
     403: 85 16        	sta	$16                     ; 0x2016 <f256main+0x16fa>
     405: 85 1d        	sta	$1d                     ; 0x201d <f256main+0x1701>
     407: a0 01        	ldy	#$1
     409: b1 18        	lda	($18),y                 ; 0x2018 <f256main+0x16fc>
     40b: 85 17        	sta	$17                     ; 0x2017 <f256main+0x16fb>
     40d: 85 19        	sta	$19                     ; 0x2019 <f256main+0x16fd>
     40f: a0 04        	ldy	#$4
     411: a5 1d        	lda	$1d                     ; 0x201d <f256main+0x1701>
     413: 91 12        	sta	($12),y                 ; 0x2012 <f256main+0x16f6>
     415: a5 19        	lda	$19                     ; 0x2019 <f256main+0x16fd>
     417: a0 01        	ldy	#$1
     419: 91 1a        	sta	($1a),y                 ; 0x201a <f256main+0x16fe>
     41b: 18           	clc
     41c: a5 1d        	lda	$1d                     ; 0x201d <f256main+0x1701>
     41e: 69 02        	adc	#$2
     420: 85 18        	sta	$18                     ; 0x2018 <f256main+0x16fc>
     422: a5 19        	lda	$19                     ; 0x2019 <f256main+0x16fd>
     424: 69 00        	adc	#$0
     426: 85 19        	sta	$19                     ; 0x2019 <f256main+0x16fd>
     428: 8a           	txa
     429: c8           	iny
     42a: 91 16        	sta	($16),y                 ; 0x2016 <f256main+0x16fa>
     42c: a5 13        	lda	$13                     ; 0x2013 <f256main+0x16f7>
     42e: 88           	dey
     42f: 91 18        	sta	($18),y                 ; 0x2018 <f256main+0x16fc>
     431: c8           	iny
     432: b1 12        	lda	($12),y                 ; 0x2012 <f256main+0x16f6>
     434: 85 16        	sta	$16                     ; 0x2016 <f256main+0x16fa>
     436: 85 18        	sta	$18                     ; 0x2018 <f256main+0x16fc>
     438: 88           	dey
     439: b1 14        	lda	($14),y                 ; 0x2014 <f256main+0x16f8>
     43b: 85 17        	sta	$17                     ; 0x2017 <f256main+0x16fb>
     43d: 85 14        	sta	$14                     ; 0x2014 <f256main+0x16f8>
     43f: 8a           	txa
     440: a0 04        	ldy	#$4
     442: 91 16        	sta	($16),y                 ; 0x2016 <f256main+0x16fa>
     444: 18           	clc
     445: a5 18        	lda	$18                     ; 0x2018 <f256main+0x16fc>
     447: 69 04        	adc	#$4
     449: a8           	tay
     44a: a5 14        	lda	$14                     ; 0x2014 <f256main+0x16f8>
     44c: 69 00        	adc	#$0
     44e: 84 14        	sty	$14                     ; 0x2014 <f256main+0x16f8>
     450: 85 15        	sta	$15                     ; 0x2015 <f256main+0x16f9>
     452: a5 13        	lda	$13                     ; 0x2013 <f256main+0x16f7>
     454: a0 01        	ldy	#$1
     456: 91 14        	sta	($14),y                 ; 0x2014 <f256main+0x16f8>
     458: 60           	rts
     459: 00           	brk

0000045a <_ZN12_GLOBAL__N_19FreeChunk6removeEv>:
     45a: a0 01        	ldy	#$1
     45c: a9 fe        	lda	#$fe
     45e: 32 12        	and	($12)                   ; 0x2012 <f256main+0x16f6>
     460: 85 14        	sta	$14                     ; 0x2014 <f256main+0x16f8>
     462: ad 01 93     	lda	$9301                   ; 0x9301 <_ZN12_GLOBAL__N_19free_sizeE>
     465: ae 02 93     	ldx	$9302                   ; 0x9302 <_ZN12_GLOBAL__N_19free_sizeE+0x1>
     468: 86 15        	stx	$15                     ; 0x2015 <f256main+0x16f9>
     46a: 38           	sec
     46b: e5 14        	sbc	$14                     ; 0x2014 <f256main+0x16f8>
     46d: aa           	tax
     46e: a5 15        	lda	$15                     ; 0x2015 <f256main+0x16f9>
     470: f1 12        	sbc	($12),y                 ; 0x2012 <f256main+0x16f6>
     472: 85 14        	sta	$14                     ; 0x2014 <f256main+0x16f8>
     474: 18           	clc
     475: 8a           	txa
     476: 69 02        	adc	#$2
     478: 85 15        	sta	$15                     ; 0x2015 <f256main+0x16f9>
     47a: a5 14        	lda	$14                     ; 0x2014 <f256main+0x16f8>
     47c: 69 00        	adc	#$0
     47e: a6 15        	ldx	$15                     ; 0x2015 <f256main+0x16f9>
     480: 8e 01 93     	stx	$9301                   ; 0x9301 <_ZN12_GLOBAL__N_19free_sizeE>
     483: 8d 02 93     	sta	$9302                   ; 0x9302 <_ZN12_GLOBAL__N_19free_sizeE+0x1>
     486: a5 12        	lda	$12                     ; 0x2012 <f256main+0x16f6>
     488: 18           	clc
     489: 69 02        	adc	#$2
     48b: 85 14        	sta	$14                     ; 0x2014 <f256main+0x16f8>
     48d: a5 13        	lda	$13                     ; 0x2013 <f256main+0x16f7>
     48f: 69 00        	adc	#$0
     491: c8           	iny
     492: 85 15        	sta	$15                     ; 0x2015 <f256main+0x16f9>
     494: b1 12        	lda	($12),y                 ; 0x2012 <f256main+0x16f6>
     496: aa           	tax
     497: 88           	dey
     498: b1 14        	lda	($14),y                 ; 0x2014 <f256main+0x16f8>
     49a: 85 19        	sta	$19                     ; 0x2019 <f256main+0x16fd>
     49c: c5 13        	cmp	$13                     ; 0x2013 <f256main+0x16f7>
     49e: d0 0f        	bne	$4af <_ZN12_GLOBAL__N_19FreeChunk6removeEv+0x55>
     4a0: e4 12        	cpx	$12                     ; 0x2012 <f256main+0x16f6>
     4a2: d0 0b        	bne	$4af <_ZN12_GLOBAL__N_19FreeChunk6removeEv+0x55>
     4a4: a2 00        	ldx	#$0
     4a6: 86 14        	stx	$14                     ; 0x2014 <f256main+0x16f8>
     4a8: a2 00        	ldx	#$0
     4aa: 86 15        	stx	$15                     ; 0x2015 <f256main+0x16f9>
     4ac: 4c 2e 05     	jmp	$52e <_ZN12_GLOBAL__N_19FreeChunk6removeEv+0xd4>
     4af: 86 18        	stx	$18                     ; 0x2018 <f256main+0x16fc>
     4b1: a6 12        	ldx	$12                     ; 0x2012 <f256main+0x16f6>
     4b3: a5 12        	lda	$12                     ; 0x2012 <f256main+0x16f6>
     4b5: 86 1b        	stx	$1b                     ; 0x201b <f256main+0x16ff>
     4b7: 18           	clc
     4b8: 69 04        	adc	#$4
     4ba: 85 14        	sta	$14                     ; 0x2014 <f256main+0x16f8>
     4bc: a5 13        	lda	$13                     ; 0x2013 <f256main+0x16f7>
     4be: 69 00        	adc	#$0
     4c0: a0 04        	ldy	#$4
     4c2: 85 15        	sta	$15                     ; 0x2015 <f256main+0x16f9>
     4c4: b1 12        	lda	($12),y                 ; 0x2012 <f256main+0x16f6>
     4c6: 85 1c        	sta	$1c                     ; 0x201c <f256main+0x1700>
     4c8: 18           	clc
     4c9: 69 02        	adc	#$2
     4cb: 85 16        	sta	$16                     ; 0x2016 <f256main+0x16fa>
     4cd: a0 01        	ldy	#$1
     4cf: b1 14        	lda	($14),y                 ; 0x2014 <f256main+0x16f8>
     4d1: aa           	tax
     4d2: 69 00        	adc	#$0
     4d4: a4 16        	ldy	$16                     ; 0x2016 <f256main+0x16fa>
     4d6: 84 14        	sty	$14                     ; 0x2014 <f256main+0x16f8>
     4d8: 85 15        	sta	$15                     ; 0x2015 <f256main+0x16f9>
     4da: a4 1c        	ldy	$1c                     ; 0x201c <f256main+0x1700>
     4dc: 84 16        	sty	$16                     ; 0x2016 <f256main+0x16fa>
     4de: 86 17        	stx	$17                     ; 0x2017 <f256main+0x16fb>
     4e0: a0 02        	ldy	#$2
     4e2: a5 18        	lda	$18                     ; 0x2018 <f256main+0x16fc>
     4e4: 91 16        	sta	($16),y                 ; 0x2016 <f256main+0x16fa>
     4e6: a5 19        	lda	$19                     ; 0x2019 <f256main+0x16fd>
     4e8: 88           	dey
     4e9: 91 14        	sta	($14),y                 ; 0x2014 <f256main+0x16f8>
     4eb: 18           	clc
     4ec: a5 1b        	lda	$1b                     ; 0x201b <f256main+0x16ff>
     4ee: 69 02        	adc	#$2
     4f0: 85 14        	sta	$14                     ; 0x2014 <f256main+0x16f8>
     4f2: a5 13        	lda	$13                     ; 0x2013 <f256main+0x16f7>
     4f4: 69 00        	adc	#$0
     4f6: 85 15        	sta	$15                     ; 0x2015 <f256main+0x16f9>
     4f8: c8           	iny
     4f9: b1 12        	lda	($12),y                 ; 0x2012 <f256main+0x16f6>
     4fb: 85 16        	sta	$16                     ; 0x2016 <f256main+0x16fa>
     4fd: 88           	dey
     4fe: b1 14        	lda	($14),y                 ; 0x2014 <f256main+0x16f8>
     500: a4 16        	ldy	$16                     ; 0x2016 <f256main+0x16fa>
     502: 84 14        	sty	$14                     ; 0x2014 <f256main+0x16f8>
     504: 85 15        	sta	$15                     ; 0x2015 <f256main+0x16f9>
     506: 85 17        	sta	$17                     ; 0x2017 <f256main+0x16fb>
     508: a0 04        	ldy	#$4
     50a: a5 1c        	lda	$1c                     ; 0x201c <f256main+0x1700>
     50c: 91 14        	sta	($14),y                 ; 0x2014 <f256main+0x16f8>
     50e: 18           	clc
     50f: a5 16        	lda	$16                     ; 0x2016 <f256main+0x16fa>
     511: 69 04        	adc	#$4
     513: 85 16        	sta	$16                     ; 0x2016 <f256main+0x16fa>
     515: a5 17        	lda	$17                     ; 0x2017 <f256main+0x16fb>
     517: 69 00        	adc	#$0
     519: 85 17        	sta	$17                     ; 0x2017 <f256main+0x16fb>
     51b: 8a           	txa
     51c: a0 01        	ldy	#$1
     51e: 91 16        	sta	($16),y                 ; 0x2016 <f256main+0x16fa>
     520: ae 04 93     	ldx	$9304                   ; 0x9304 <_ZN12_GLOBAL__N_19free_listE+0x1>
     523: e4 13        	cpx	$13                     ; 0x2013 <f256main+0x16f7>
     525: d0 11        	bne	$538 <_ZN12_GLOBAL__N_19FreeChunk6removeEv+0xde>
     527: ae 03 93     	ldx	$9303                   ; 0x9303 <_ZN12_GLOBAL__N_19free_listE>
     52a: e4 12        	cpx	$12                     ; 0x2012 <f256main+0x16f6>
     52c: d0 0a        	bne	$538 <_ZN12_GLOBAL__N_19FreeChunk6removeEv+0xde>
     52e: a6 14        	ldx	$14                     ; 0x2014 <f256main+0x16f8>
     530: a4 15        	ldy	$15                     ; 0x2015 <f256main+0x16f9>
     532: 8e 03 93     	stx	$9303                   ; 0x9303 <_ZN12_GLOBAL__N_19free_listE>
     535: 8c 04 93     	sty	$9304                   ; 0x9304 <_ZN12_GLOBAL__N_19free_listE+0x1>
     538: 60           	rts

00000539 <__zero_bss>:
     539: a2 0c        	ldx	#$c
     53b: a0 00        	ldy	#$0
     53d: a9 f9        	lda	#$f9
     53f: 85 12        	sta	$12                     ; 0x2012 <f256main+0x16f6>
     541: a9 92        	lda	#$92
     543: 85 13        	sta	$13                     ; 0x2013 <f256main+0x16f7>
     545: a9 00        	lda	#$0
     547: 84 14        	sty	$14                     ; 0x2014 <f256main+0x16f8>
     549: 4c 02 69     	jmp	$6902 <__memset>

0000054c <__zero_zp_bss>:
     54c: a2 56        	ldx	#$56
     54e: a0 00        	ldy	#$0
     550: a9 33        	lda	#$33
     552: 85 12        	sta	$12                     ; 0x2012 <f256main+0x16f6>
     554: a9 00        	lda	#$0
     556: 85 13        	sta	$13                     ; 0x2013 <f256main+0x16f7>
     558: a9 00        	lda	#$0
     55a: 84 14        	sty	$14                     ; 0x2014 <f256main+0x16f8>
     55c: 4c 02 69     	jmp	$6902 <__memset>

0000055f <__copy_zp_data>:
     55f: a9 03        	lda	#$3
     561: a2 00        	ldx	#$0
     563: a0 30        	ldy	#$30
     565: 84 12        	sty	$12                     ; 0x2012 <f256main+0x16f6>
     567: a0 00        	ldy	#$0
     569: 84 13        	sty	$13                     ; 0x2013 <f256main+0x16f7>
     56b: a0 00        	ldy	#$0
     56d: 84 14        	sty	$14                     ; 0x2014 <f256main+0x16f8>
     56f: a0 03        	ldy	#$3
     571: 84 15        	sty	$15                     ; 0x2015 <f256main+0x16f9>
     573: 4c d6 68     	jmp	$68d6 <memcpy>

00000576 <f256Init>:
     576: 64 14        	stz	$14                     ; 0x2014 <f256main+0x16f8>
     578: a2 00        	ldx	#$0
     57a: 86 12        	stx	$12                     ; 0x2012 <f256main+0x16f6>
     57c: a2 c0        	ldx	#$c0
     57e: 86 13        	stx	$13                     ; 0x2013 <f256main+0x16f7>
     580: 64 01        	stz	$1                      ; 0x2001 <f256main+0x16e5>
     582: a2 3f        	ldx	#$3f
     584: 8e 00 d0     	stx	$d000                   ; 0xd000 <__heap_start+0x3cfa>
     587: a2 b3        	ldx	#$b3
     589: 86 00        	stx	$0                      ; 0x2000 <f256main+0x16e4>
     58b: 64 08        	stz	$8                      ; 0x2008 <f256main+0x16ec>
     58d: a2 01        	ldx	#$1
     58f: 86 09        	stx	$9                      ; 0x2009 <f256main+0x16ed>
     591: e8           	inx
     592: 86 0a        	stx	$a                      ; 0x200a <f256main+0x16ee>
     594: e8           	inx
     595: 86 0b        	stx	$b                      ; 0x200b <f256main+0x16ef>
     597: e8           	inx
     598: 86 0c        	stx	$c                      ; 0x200c <f256main+0x16f0>
     59a: e8           	inx
     59b: 86 0d        	stx	$d                      ; 0x200d <f256main+0x16f1>
     59d: a2 81        	ldx	#$81
     59f: a0 00        	ldy	#$0
     5a1: 86 f0        	stx	$f0                     ; 0x20f0 <f256main+0x17d4>
     5a3: 84 f1        	sty	$f1                     ; 0x20f1 <f256main+0x17d5>
     5a5: a2 00        	ldx	#$0
     5a7: 86 18        	stx	$18                     ; 0x2018 <f256main+0x16fc>
     5a9: ca           	dex
     5aa: 86 19        	stx	$19                     ; 0x2019 <f256main+0x16fd>
     5ac: 8a           	txa
     5ad: 0a           	asl
     5ae: 0a           	asl
     5af: 18           	clc
     5b0: 69 d4        	adc	#$d4
     5b2: 85 1a        	sta	$1a                     ; 0x201a <f256main+0x16fe>
     5b4: a0 00        	ldy	#$0
     5b6: 64 17        	stz	$17                     ; 0x2017 <f256main+0x16fb>
     5b8: 64 16        	stz	$16                     ; 0x2016 <f256main+0x16fa>
     5ba: a6 19        	ldx	$19                     ; 0x2019 <f256main+0x16fd>
     5bc: e0 03        	cpx	#$3
     5be: a6 01        	ldx	$1                      ; 0x2001 <f256main+0x16e5>
     5c0: 86 1c        	stx	$1c                     ; 0x201c <f256main+0x1700>
     5c2: a2 d0        	ldx	#$d0
     5c4: 84 1b        	sty	$1b                     ; 0x201b <f256main+0x16ff>
     5c6: b0 02        	bcs	$5ca <f256Init+0x54>
     5c8: a6 1a        	ldx	$1a                     ; 0x201a <f256main+0x16fe>
     5ca: 86 15        	stx	$15                     ; 0x2015 <f256main+0x16f9>
     5cc: a5 17        	lda	$17                     ; 0x2017 <f256main+0x16fb>
     5ce: 18           	clc
     5cf: 65 14        	adc	$14                     ; 0x2014 <f256main+0x16f8>
     5d1: a8           	tay
     5d2: a6 17        	ldx	$17                     ; 0x2017 <f256main+0x16fb>
     5d4: a5 16        	lda	$16                     ; 0x2016 <f256main+0x16fa>
     5d6: 85 1d        	sta	$1d                     ; 0x201d <f256main+0x1701>
     5d8: a5 16        	lda	$16                     ; 0x2016 <f256main+0x16fa>
     5da: 65 15        	adc	$15                     ; 0x2015 <f256main+0x16f9>
     5dc: 84 16        	sty	$16                     ; 0x2016 <f256main+0x16fa>
     5de: a0 01        	ldy	#$1
     5e0: 84 01        	sty	$1                      ; 0x2001 <f256main+0x16e5>
     5e2: 85 17        	sta	$17                     ; 0x2017 <f256main+0x16fb>
     5e4: a5 1b        	lda	$1b                     ; 0x201b <f256main+0x16ff>
     5e6: 92 16        	sta	($16)                   ; 0x2016 <f256main+0x16fa>
     5e8: 91 16        	sta	($16),y                 ; 0x2016 <f256main+0x16fa>
     5ea: c8           	iny
     5eb: 91 16        	sta	($16),y                 ; 0x2016 <f256main+0x16fa>
     5ed: 85 15        	sta	$15                     ; 0x2015 <f256main+0x16f9>
     5ef: c8           	iny
     5f0: a9 ff        	lda	#$ff
     5f2: 91 16        	sta	($16),y                 ; 0x2016 <f256main+0x16fa>
     5f4: 8a           	txa
     5f5: a6 1c        	ldx	$1c                     ; 0x201c <f256main+0x1700>
     5f7: 86 01        	stx	$1                      ; 0x2001 <f256main+0x16e5>
     5f9: 18           	clc
     5fa: 69 04        	adc	#$4
     5fc: 85 17        	sta	$17                     ; 0x2017 <f256main+0x16fb>
     5fe: a5 1d        	lda	$1d                     ; 0x201d <f256main+0x1701>
     600: 69 00        	adc	#$0
     602: e6 15        	inc	$15                     ; 0x2015 <f256main+0x16f9>
     604: a4 15        	ldy	$15                     ; 0x2015 <f256main+0x16f9>
     606: 85 16        	sta	$16                     ; 0x2016 <f256main+0x16fa>
     608: c9 04        	cmp	#$4
     60a: f0 03        	beq	$60f <f256Init+0x99>
     60c: 4c ba 05     	jmp	$5ba <f256Init+0x44>
     60f: a5 17        	lda	$17                     ; 0x2017 <f256main+0x16fb>
     611: f0 03        	beq	$616 <f256Init+0xa0>
     613: 4c ba 05     	jmp	$5ba <f256Init+0x44>
     616: a6 18        	ldx	$18                     ; 0x2018 <f256main+0x16fc>
     618: e8           	inx
     619: e0 04        	cpx	#$4
     61b: f0 03        	beq	$620 <f256Init+0xaa>
     61d: 4c a7 05     	jmp	$5a7 <f256Init+0x31>
     620: ad 02 d0     	lda	$d002                   ; 0xd002 <__heap_start+0x3cfc>
     623: a2 f0        	ldx	#$f0
     625: 29 f0        	and	#$f0
     627: 8d 02 d0     	sta	$d002                   ; 0xd002 <__heap_start+0x3cfc>
     62a: ad 02 d0     	lda	$d002                   ; 0xd002 <__heap_start+0x3cfc>
     62d: 29 0f        	and	#$f
     62f: 09 10        	ora	#$10
     631: 8d 02 d0     	sta	$d002                   ; 0xd002 <__heap_start+0x3cfc>
     634: a0 02        	ldy	#$2
     636: 8c 03 d0     	sty	$d003                   ; 0xd003 <__heap_start+0x3cfd>
     639: 86 30        	stx	$30                     ; 0x2030 <f256main+0x1714>
     63b: ad 01 d0     	lda	$d001                   ; 0xd001 <__heap_start+0x3cfb>
     63e: 29 f9        	and	#$f9
     640: 09 04        	ora	#$4
     642: 8d 01 d0     	sta	$d001                   ; 0xd001 <__heap_start+0x3cfb>
     645: 64 14        	stz	$14                     ; 0x2014 <f256main+0x16f8>
     647: 9c 10 d0     	stz	$d010                   ; 0xd010 <__heap_start+0x3d0a>
     64a: a2 00        	ldx	#$0
     64c: 64 15        	stz	$15                     ; 0x2015 <f256main+0x16f9>
     64e: 86 18        	stx	$18                     ; 0x2018 <f256main+0x16fc>
     650: a4 18        	ldy	$18                     ; 0x2018 <f256main+0x16fc>
     652: be c0 8b     	ldx	$8bc0,y                 ; 0x8bc0 <textColors>
     655: 86 19        	stx	$19                     ; 0x2019 <f256main+0x16fd>
     657: be c1 8b     	ldx	$8bc1,y                 ; 0x8bc1 <textColors+0x1>
     65a: 86 1a        	stx	$1a                     ; 0x201a <f256main+0x16fe>
     65c: be c2 8b     	ldx	$8bc2,y                 ; 0x8bc2 <textColors+0x2>
     65f: 86 1b        	stx	$1b                     ; 0x201b <f256main+0x16ff>
     661: a6 15        	ldx	$15                     ; 0x2015 <f256main+0x16f9>
     663: 8e 00 de     	stx	$de00                   ; 0xde00 <__heap_start+0x4afa>
     666: 86 17        	stx	$17                     ; 0x2017 <f256main+0x16fb>
     668: 9c 01 de     	stz	$de01                   ; 0xde01 <__heap_start+0x4afb>
     66b: a2 04        	ldx	#$4
     66d: 8e 02 de     	stx	$de02                   ; 0xde02 <__heap_start+0x4afc>
     670: 9c 03 de     	stz	$de03                   ; 0xde03 <__heap_start+0x4afd>
     673: ad 10 de     	lda	$de10                   ; 0xde10 <__heap_start+0x4b0a>
     676: ac 11 de     	ldy	$de11                   ; 0xde11 <__heap_start+0x4b0b>
     679: 84 15        	sty	$15                     ; 0x2015 <f256main+0x16f9>
     67b: ac 12 de     	ldy	$de12                   ; 0xde12 <__heap_start+0x4b0c>
     67e: ac 13 de     	ldy	$de13                   ; 0xde13 <__heap_start+0x4b0d>
     681: 18           	clc
     682: 65 14        	adc	$14                     ; 0x2014 <f256main+0x16f8>
     684: 85 16        	sta	$16                     ; 0x2016 <f256main+0x16fa>
     686: a6 17        	ldx	$17                     ; 0x2017 <f256main+0x16fb>
     688: a9 d8        	lda	#$d8
     68a: 65 15        	adc	$15                     ; 0x2015 <f256main+0x16f9>
     68c: 85 17        	sta	$17                     ; 0x2017 <f256main+0x16fb>
     68e: a5 1b        	lda	$1b                     ; 0x201b <f256main+0x16ff>
     690: 92 16        	sta	($16)                   ; 0x2016 <f256main+0x16fa>
     692: a0 01        	ldy	#$1
     694: a5 1a        	lda	$1a                     ; 0x201a <f256main+0x16fe>
     696: 91 16        	sta	($16),y                 ; 0x2016 <f256main+0x16fa>
     698: c8           	iny
     699: a5 19        	lda	$19                     ; 0x2019 <f256main+0x16fd>
     69b: 91 16        	sta	($16),y                 ; 0x2016 <f256main+0x16fa>
     69d: c8           	iny
     69e: a9 ff        	lda	#$ff
     6a0: 91 16        	sta	($16),y                 ; 0x2016 <f256main+0x16fa>
     6a2: 8e 00 de     	stx	$de00                   ; 0xde00 <__heap_start+0x4afa>
     6a5: 9c 01 de     	stz	$de01                   ; 0xde01 <__heap_start+0x4afb>
     6a8: c8           	iny
     6a9: 8c 02 de     	sty	$de02                   ; 0xde02 <__heap_start+0x4afc>
     6ac: 9c 03 de     	stz	$de03                   ; 0xde03 <__heap_start+0x4afd>
     6af: ad 10 de     	lda	$de10                   ; 0xde10 <__heap_start+0x4b0a>
     6b2: 85 15        	sta	$15                     ; 0x2015 <f256main+0x16f9>
     6b4: ad 11 de     	lda	$de11                   ; 0xde11 <__heap_start+0x4b0b>
     6b7: 85 16        	sta	$16                     ; 0x2016 <f256main+0x16fa>
     6b9: a9 40        	lda	#$40
     6bb: 18           	clc
     6bc: 65 15        	adc	$15                     ; 0x2015 <f256main+0x16f9>
     6be: a8           	tay
     6bf: a9 d8        	lda	#$d8
     6c1: 65 16        	adc	$16                     ; 0x2016 <f256main+0x16fa>
     6c3: 85 17        	sta	$17                     ; 0x2017 <f256main+0x16fb>
     6c5: 84 16        	sty	$16                     ; 0x2016 <f256main+0x16fa>
     6c7: ad 12 de     	lda	$de12                   ; 0xde12 <__heap_start+0x4b0c>
     6ca: ad 13 de     	lda	$de13                   ; 0xde13 <__heap_start+0x4b0d>
     6cd: a5 1b        	lda	$1b                     ; 0x201b <f256main+0x16ff>
     6cf: 92 16        	sta	($16)                   ; 0x2016 <f256main+0x16fa>
     6d1: a5 1a        	lda	$1a                     ; 0x201a <f256main+0x16fe>
     6d3: a0 01        	ldy	#$1
     6d5: 91 16        	sta	($16),y                 ; 0x2016 <f256main+0x16fa>
     6d7: a5 19        	lda	$19                     ; 0x2019 <f256main+0x16fd>
     6d9: c8           	iny
     6da: 91 16        	sta	($16),y                 ; 0x2016 <f256main+0x16fa>
     6dc: c8           	iny
     6dd: a9 ff        	lda	#$ff
     6df: 91 16        	sta	($16),y                 ; 0x2016 <f256main+0x16fa>
     6e1: e8           	inx
     6e2: 86 15        	stx	$15                     ; 0x2015 <f256main+0x16f9>
     6e4: 18           	clc
     6e5: a5 18        	lda	$18                     ; 0x2018 <f256main+0x16fc>
     6e7: 69 03        	adc	#$3
     6e9: aa           	tax
     6ea: c9 30        	cmp	#$30
     6ec: f0 03        	beq	$6f1 <f256Init+0x17b>
     6ee: 4c 4e 06     	jmp	$64e <f256Init+0xd8>
     6f1: a6 01        	ldx	$1                      ; 0x2001 <f256main+0x16e5>
     6f3: 86 18        	stx	$18                     ; 0x2018 <f256main+0x16fc>
     6f5: a2 50        	ldx	#$50
     6f7: 8e 00 de     	stx	$de00                   ; 0xde00 <__heap_start+0x4afa>
     6fa: 9c 01 de     	stz	$de01                   ; 0xde01 <__heap_start+0x4afb>
     6fd: a2 1e        	ldx	#$1e
     6ff: 8e 02 de     	stx	$de02                   ; 0xde02 <__heap_start+0x4afc>
     702: 9c 03 de     	stz	$de03                   ; 0xde03 <__heap_start+0x4afd>
     705: ae 10 de     	ldx	$de10                   ; 0xde10 <__heap_start+0x4b0a>
     708: ac 11 de     	ldy	$de11                   ; 0xde11 <__heap_start+0x4b0b>
     70b: ad 12 de     	lda	$de12                   ; 0xde12 <__heap_start+0x4b0c>
     70e: ad 13 de     	lda	$de13                   ; 0xde13 <__heap_start+0x4b0d>
     711: a9 02        	lda	#$2
     713: 85 01        	sta	$1                      ; 0x2001 <f256main+0x16e5>
     715: e0 01        	cpx	#$1
     717: 98           	tya
     718: e9 00        	sbc	#$0
     71a: 50 02        	bvc	$71e <f256Init+0x1a8>
     71c: 49 80        	eor	#$80
     71e: c9 00        	cmp	#$0
     720: 30 4c        	bmi	$76e <f256Init+0x1f8>
     722: a9 20        	lda	#$20
     724: 86 19        	stx	$19                     ; 0x2019 <f256main+0x16fd>
     726: 86 14        	stx	$14                     ; 0x2014 <f256main+0x16f8>
     728: 84 15        	sty	$15                     ; 0x2015 <f256main+0x16f9>
     72a: a2 00        	ldx	#$0
     72c: 86 16        	stx	$16                     ; 0x2016 <f256main+0x16fa>
     72e: a2 c0        	ldx	#$c0
     730: 86 17        	stx	$17                     ; 0x2017 <f256main+0x16fb>
     732: 92 16        	sta	($16)                   ; 0x2016 <f256main+0x16fa>
     734: e6 16        	inc	$16                     ; 0x2016 <f256main+0x16fa>
     736: d0 02        	bne	$73a <f256Init+0x1c4>
     738: e6 17        	inc	$17                     ; 0x2017 <f256main+0x16fb>
     73a: a2 ff        	ldx	#$ff
     73c: c6 14        	dec	$14                     ; 0x2014 <f256main+0x16f8>
     73e: e4 14        	cpx	$14                     ; 0x2014 <f256main+0x16f8>
     740: d0 02        	bne	$744 <f256Init+0x1ce>
     742: c6 15        	dec	$15                     ; 0x2015 <f256main+0x16f9>
     744: a6 15        	ldx	$15                     ; 0x2015 <f256main+0x16f9>
     746: d0 ea        	bne	$732 <f256Init+0x1bc>
     748: a6 14        	ldx	$14                     ; 0x2014 <f256main+0x16f8>
     74a: d0 e6        	bne	$732 <f256Init+0x1bc>
     74c: a2 03        	ldx	#$3
     74e: 86 01        	stx	$1                      ; 0x2001 <f256main+0x16e5>
     750: a6 30        	ldx	$30                     ; 0x2030 <f256main+0x1714>
     752: 86 14        	stx	$14                     ; 0x2014 <f256main+0x16f8>
     754: a6 19        	ldx	$19                     ; 0x2019 <f256main+0x16fd>
     756: a5 14        	lda	$14                     ; 0x2014 <f256main+0x16f8>
     758: 92 12        	sta	($12)                   ; 0x2012 <f256main+0x16f6>
     75a: e6 12        	inc	$12                     ; 0x2012 <f256main+0x16f6>
     75c: d0 02        	bne	$760 <f256Init+0x1ea>
     75e: e6 13        	inc	$13                     ; 0x2013 <f256main+0x16f7>
     760: ca           	dex
     761: e0 ff        	cpx	#$ff
     763: d0 01        	bne	$766 <f256Init+0x1f0>
     765: 88           	dey
     766: 98           	tya
     767: d0 ed        	bne	$756 <f256Init+0x1e0>
     769: 8a           	txa
     76a: d0 ea        	bne	$756 <f256Init+0x1e0>
     76c: 80 04        	bra	$772 <f256Init+0x1fc>
     76e: a2 03        	ldx	#$3
     770: 86 01        	stx	$1                      ; 0x2001 <f256main+0x16e5>
     772: a6 18        	ldx	$18                     ; 0x2018 <f256main+0x16fc>
     774: 86 01        	stx	$1                      ; 0x2001 <f256main+0x16e5>
     776: 64 33        	stz	$33                     ; 0x2033 <f256main+0x1717>
     778: 9c 14 d0     	stz	$d014                   ; 0xd014 <__heap_start+0x3d0e>
     77b: 9c 15 d0     	stz	$d015                   ; 0xd015 <__heap_start+0x3d0f>
     77e: 64 34        	stz	$34                     ; 0x2034 <f256main+0x1718>
     780: 9c 16 d0     	stz	$d016                   ; 0xd016 <__heap_start+0x3d10>
     783: 9c 17 d0     	stz	$d017                   ; 0xd017 <__heap_start+0x3d11>
     786: a2 40        	ldx	#$40
     788: 8e 00 de     	stx	$de00                   ; 0xde00 <__heap_start+0x4afa>
     78b: a2 01        	ldx	#$1
     78d: 8e 01 de     	stx	$de01                   ; 0xde01 <__heap_start+0x4afb>
     790: a2 f0        	ldx	#$f0
     792: 8e 02 de     	stx	$de02                   ; 0xde02 <__heap_start+0x4afc>
     795: 9c 03 de     	stz	$de03                   ; 0xde03 <__heap_start+0x4afd>
     798: ae 10 de     	ldx	$de10                   ; 0xde10 <__heap_start+0x4b0a>
     79b: 86 17        	stx	$17                     ; 0x2017 <f256main+0x16fb>
     79d: ae 11 de     	ldx	$de11                   ; 0xde11 <__heap_start+0x4b0b>
     7a0: 86 12        	stx	$12                     ; 0x2012 <f256main+0x16f6>
     7a2: ae 12 de     	ldx	$de12                   ; 0xde12 <__heap_start+0x4b0c>
     7a5: 86 13        	stx	$13                     ; 0x2013 <f256main+0x16f7>
     7a7: ae 13 de     	ldx	$de13                   ; 0xde13 <__heap_start+0x4b0d>
     7aa: 86 14        	stx	$14                     ; 0x2014 <f256main+0x16f8>
     7ac: a4 12        	ldy	$12                     ; 0x2012 <f256main+0x16f6>
     7ae: 84 15        	sty	$15                     ; 0x2015 <f256main+0x16f9>
     7b0: 06 15        	asl	$15                     ; 0x2015 <f256main+0x16f9>
     7b2: a5 13        	lda	$13                     ; 0x2013 <f256main+0x16f7>
     7b4: 2a           	rol
     7b5: 86 16        	stx	$16                     ; 0x2016 <f256main+0x16fa>
     7b7: 26 16        	rol	$16                     ; 0x2016 <f256main+0x16fa>
     7b9: 06 15        	asl	$15                     ; 0x2015 <f256main+0x16f9>
     7bb: 2a           	rol
     7bc: 26 16        	rol	$16                     ; 0x2016 <f256main+0x16fa>
     7be: 06 15        	asl	$15                     ; 0x2015 <f256main+0x16f9>
     7c0: 2a           	rol
     7c1: 26 16        	rol	$16                     ; 0x2016 <f256main+0x16fa>
     7c3: 85 15        	sta	$15                     ; 0x2015 <f256main+0x16f9>
     7c5: 8d 00 de     	sta	$de00                   ; 0xde00 <__heap_start+0x4afa>
     7c8: a5 16        	lda	$16                     ; 0x2016 <f256main+0x16fa>
     7ca: 8d 01 de     	sta	$de01                   ; 0xde01 <__heap_start+0x4afb>
     7cd: 9c 02 de     	stz	$de02                   ; 0xde02 <__heap_start+0x4afc>
     7d0: a2 20        	ldx	#$20
     7d2: 8e 03 de     	stx	$de03                   ; 0xde03 <__heap_start+0x4afd>
     7d5: ae 10 de     	ldx	$de10                   ; 0xde10 <__heap_start+0x4b0a>
     7d8: 86 16        	stx	$16                     ; 0x2016 <f256main+0x16fa>
     7da: ae 11 de     	ldx	$de11                   ; 0xde11 <__heap_start+0x4b0b>
     7dd: 86 18        	stx	$18                     ; 0x2018 <f256main+0x16fc>
     7df: ac 12 de     	ldy	$de12                   ; 0xde12 <__heap_start+0x4b0c>
     7e2: ae 13 de     	ldx	$de13                   ; 0xde13 <__heap_start+0x4b0d>
     7e5: e4 14        	cpx	$14                     ; 0x2014 <f256main+0x16f8>
     7e7: d0 14        	bne	$7fd <f256Init+0x287>
     7e9: c4 13        	cpy	$13                     ; 0x2013 <f256main+0x16f7>
     7eb: d0 10        	bne	$7fd <f256Init+0x287>
     7ed: a6 18        	ldx	$18                     ; 0x2018 <f256main+0x16fc>
     7ef: e4 12        	cpx	$12                     ; 0x2012 <f256main+0x16f6>
     7f1: d0 0a        	bne	$7fd <f256Init+0x287>
     7f3: a6 16        	ldx	$16                     ; 0x2016 <f256main+0x16fa>
     7f5: e4 17        	cpx	$17                     ; 0x2017 <f256main+0x16fb>
     7f7: d0 04        	bne	$7fd <f256Init+0x287>
     7f9: a6 15        	ldx	$15                     ; 0x2015 <f256main+0x16f9>
     7fb: 80 06        	bra	$803 <f256Init+0x28d>
     7fd: a6 15        	ldx	$15                     ; 0x2015 <f256main+0x16f9>
     7ff: e8           	inx
     800: d0 01        	bne	$803 <f256Init+0x28d>
     802: 1a           	inc
     803: 8e 00 de     	stx	$de00                   ; 0xde00 <__heap_start+0x4afa>
     806: 8d 01 de     	sta	$de01                   ; 0xde01 <__heap_start+0x4afb>
     809: 9c 02 de     	stz	$de02                   ; 0xde02 <__heap_start+0x4afc>
     80c: a2 20        	ldx	#$20
     80e: 8e 03 de     	stx	$de03                   ; 0xde03 <__heap_start+0x4afd>
     811: ae 10 de     	ldx	$de10                   ; 0xde10 <__heap_start+0x4b0a>
     814: 86 12        	stx	$12                     ; 0x2012 <f256main+0x16f6>
     816: ae 11 de     	ldx	$de11                   ; 0xde11 <__heap_start+0x4b0b>
     819: 86 13        	stx	$13                     ; 0x2013 <f256main+0x16f7>
     81b: ae 12 de     	ldx	$de12                   ; 0xde12 <__heap_start+0x4b0c>
     81e: 86 14        	stx	$14                     ; 0x2014 <f256main+0x16f8>
     820: ae 13 de     	ldx	$de13                   ; 0xde13 <__heap_start+0x4b0d>
     823: 86 15        	stx	$15                     ; 0x2015 <f256main+0x16f9>
     825: a9 00        	lda	#$0
     827: 38           	sec
     828: e5 12        	sbc	$12                     ; 0x2012 <f256main+0x16f6>
     82a: 85 17        	sta	$17                     ; 0x2017 <f256main+0x16fb>
     82c: a9 00        	lda	#$0
     82e: e5 13        	sbc	$13                     ; 0x2013 <f256main+0x16f7>
     830: aa           	tax
     831: a9 08        	lda	#$8
     833: e5 14        	sbc	$14                     ; 0x2014 <f256main+0x16f8>
     835: 85 16        	sta	$16                     ; 0x2016 <f256main+0x16fa>
     837: a9 00        	lda	#$0
     839: e5 15        	sbc	$15                     ; 0x2015 <f256main+0x16f9>
     83b: 8e fa 92     	stx	$92fa                   ; 0x92fa <__bss_start+0x1>
     83e: a4 16        	ldy	$16                     ; 0x2016 <f256main+0x16fa>
     840: 8c fb 92     	sty	$92fb                   ; 0x92fb <__bss_start+0x2>
     843: 8d fc 92     	sta	$92fc                   ; 0x92fc <__bss_start+0x3>
     846: 38           	sec
     847: a5 17        	lda	$17                     ; 0x2017 <f256main+0x16fb>
     849: e5 12        	sbc	$12                     ; 0x2012 <f256main+0x16f6>
     84b: a8           	tay
     84c: 8a           	txa
     84d: e5 13        	sbc	$13                     ; 0x2013 <f256main+0x16f7>
     84f: 85 18        	sta	$18                     ; 0x2018 <f256main+0x16fc>
     851: a5 16        	lda	$16                     ; 0x2016 <f256main+0x16fa>
     853: e5 14        	sbc	$14                     ; 0x2014 <f256main+0x16f8>
     855: 85 15        	sta	$15                     ; 0x2015 <f256main+0x16f9>
     857: 98           	tya
     858: 84 16        	sty	$16                     ; 0x2016 <f256main+0x16fa>
     85a: 38           	sec
     85b: e5 12        	sbc	$12                     ; 0x2012 <f256main+0x16f6>
     85d: 85 12        	sta	$12                     ; 0x2012 <f256main+0x16f6>
     85f: a5 18        	lda	$18                     ; 0x2018 <f256main+0x16fc>
     861: e5 13        	sbc	$13                     ; 0x2013 <f256main+0x16f7>
     863: 85 13        	sta	$13                     ; 0x2013 <f256main+0x16f7>
     865: a4 15        	ldy	$15                     ; 0x2015 <f256main+0x16f9>
     867: a5 15        	lda	$15                     ; 0x2015 <f256main+0x16f9>
     869: e5 14        	sbc	$14                     ; 0x2014 <f256main+0x16f8>
     86b: a6 17        	ldx	$17                     ; 0x2017 <f256main+0x16fb>
     86d: 8e f9 92     	stx	$92f9                   ; 0x92f9 <__bss_start>
     870: 8e 01 d1     	stx	$d101                   ; 0xd101 <__heap_start+0x3dfb>
     873: ae fa 92     	ldx	$92fa                   ; 0x92fa <__bss_start+0x1>
     876: 8e 02 d1     	stx	$d102                   ; 0xd102 <__heap_start+0x3dfc>
     879: ae fb 92     	ldx	$92fb                   ; 0x92fb <__bss_start+0x2>
     87c: 8e 03 d1     	stx	$d103                   ; 0xd103 <__heap_start+0x3dfd>
     87f: a6 16        	ldx	$16                     ; 0x2016 <f256main+0x16fa>
     881: 8e 09 d1     	stx	$d109                   ; 0xd109 <__heap_start+0x3e03>
     884: a6 18        	ldx	$18                     ; 0x2018 <f256main+0x16fc>
     886: 8e 0a d1     	stx	$d10a                   ; 0xd10a <__heap_start+0x3e04>
     889: 8c 0b d1     	sty	$d10b                   ; 0xd10b <__heap_start+0x3e05>
     88c: a6 12        	ldx	$12                     ; 0x2012 <f256main+0x16f6>
     88e: 8e 11 d1     	stx	$d111                   ; 0xd111 <__heap_start+0x3e0b>
     891: a6 13        	ldx	$13                     ; 0x2013 <f256main+0x16f7>
     893: 8e 12 d1     	stx	$d112                   ; 0xd112 <__heap_start+0x3e0c>
     896: 8d 13 d1     	sta	$d113                   ; 0xd113 <__heap_start+0x3e0d>
     899: 9c 00 d1     	stz	$d100                   ; 0xd100 <__heap_start+0x3dfa>
     89c: 9c 08 d1     	stz	$d108                   ; 0xd108 <__heap_start+0x3e02>
     89f: 9c 10 d1     	stz	$d110                   ; 0xd110 <__heap_start+0x3e0a>
     8a2: a2 10        	ldx	#$10
     8a4: 8e 00 d2     	stx	$d200                   ; 0xd200 <__heap_start+0x3efa>
     8a7: 8e 0c d2     	stx	$d20c                   ; 0xd20c <__heap_start+0x3f06>
     8aa: 8e 18 d2     	stx	$d218                   ; 0xd218 <__heap_start+0x3f12>
     8ad: a0 d9        	ldy	#$d9
     8af: a2 40        	ldx	#$40
     8b1: 64 12        	stz	$12                     ; 0x2012 <f256main+0x16f6>
     8b3: 84 13        	sty	$13                     ; 0x2013 <f256main+0x16f7>
     8b5: a9 00        	lda	#$0
     8b7: 92 12        	sta	($12)                   ; 0x2012 <f256main+0x16f6>
     8b9: ca           	dex
     8ba: 18           	clc
     8bb: a5 12        	lda	$12                     ; 0x2012 <f256main+0x16f6>
     8bd: 69 08        	adc	#$8
     8bf: 85 12        	sta	$12                     ; 0x2012 <f256main+0x16f6>
     8c1: 98           	tya
     8c2: 69 00        	adc	#$0
     8c4: a8           	tay
     8c5: 8a           	txa
     8c6: d0 eb        	bne	$8b3 <f256Init+0x33d>
     8c8: a2 89        	ldx	#$89
     8ca: a0 00        	ldy	#$0
     8cc: 86 fb        	stx	$fb                     ; 0x20fb <f256main+0x17df>
     8ce: 84 fc        	sty	$fc                     ; 0x20fc <f256main+0x17e0>
     8d0: a2 08        	ldx	#$8
     8d2: 86 fd        	stx	$fd                     ; 0x20fd <f256main+0x17e1>
     8d4: a2 91        	ldx	#$91
     8d6: a0 00        	ldy	#$0
     8d8: 86 12        	stx	$12                     ; 0x2012 <f256main+0x16f6>
     8da: 84 13        	sty	$13                     ; 0x2013 <f256main+0x16f7>
     8dc: a2 ff        	ldx	#$ff
     8de: 86 14        	stx	$14                     ; 0x2014 <f256main+0x16f8>
     8e0: a2 92        	ldx	#$92
     8e2: 86 15        	stx	$15                     ; 0x2015 <f256main+0x16f9>
     8e4: 20 dc ff     	jsr	$ffdc <__heap_start+0x6cd6>
     8e7: 92 12        	sta	($12)                   ; 0x2012 <f256main+0x16f6>
     8e9: a9 00        	lda	#$0
     8eb: 6a           	ror
     8ec: 85 14        	sta	$14                     ; 0x2014 <f256main+0x16f8>
     8ee: a6 8f        	ldx	$8f                     ; 0x208f <f256main+0x1773>
     8f0: a4 90        	ldy	$90                     ; 0x2090 <f256main+0x1774>
     8f2: 8e 00 de     	stx	$de00                   ; 0xde00 <__heap_start+0x4afa>
     8f5: 9c 01 de     	stz	$de01                   ; 0xde01 <__heap_start+0x4afb>
     8f8: 8c 02 de     	sty	$de02                   ; 0xde02 <__heap_start+0x4afc>
     8fb: 9c 03 de     	stz	$de03                   ; 0xde03 <__heap_start+0x4afd>
     8fe: ae 10 de     	ldx	$de10                   ; 0xde10 <__heap_start+0x4b0a>
     901: ac 11 de     	ldy	$de11                   ; 0xde11 <__heap_start+0x4b0b>
     904: ad 12 de     	lda	$de12                   ; 0xde12 <__heap_start+0x4b0c>
     907: ad 13 de     	lda	$de13                   ; 0xde13 <__heap_start+0x4b0d>
     90a: 8e a4 d6     	stx	$d6a4                   ; 0xd6a4 <__heap_start+0x439e>
     90d: 8c a5 d6     	sty	$d6a5                   ; 0xd6a5 <__heap_start+0x439f>
     910: a2 03        	ldx	#$3
     912: 8e a6 d6     	stx	$d6a6                   ; 0xd6a6 <__heap_start+0x43a0>
     915: 60           	rts

00000916 <main>:
     916: 20 76 05     	jsr	$576 <f256Init>
     919: 20 1c 09     	jsr	$91c <f256main>

0000091c <f256main>:
     91c: 18           	clc
     91d: a5 10        	lda	$10                     ; 0x2010 <f256main+0x16f4>
     91f: 69 e0        	adc	#$e0
     921: 85 10        	sta	$10                     ; 0x2010 <f256main+0x16f4>
     923: a5 11        	lda	$11                     ; 0x2011 <f256main+0x16f5>
     925: 69 ff        	adc	#$ff
     927: 85 11        	sta	$11                     ; 0x2011 <f256main+0x16f5>
     929: a9 00        	lda	#$0
     92b: 64 01        	stz	$1                      ; 0x2001 <f256main+0x16e5>
     92d: 18           	clc
     92e: 48           	pha
     92f: a5 10        	lda	$10                     ; 0x2010 <f256main+0x16f4>
     931: 69 13        	adc	#$13
     933: 85 24        	sta	$24                     ; 0x2024 <f256main+0x1708>
     935: a5 11        	lda	$11                     ; 0x2011 <f256main+0x16f5>
     937: 69 00        	adc	#$0
     939: 85 25        	sta	$25                     ; 0x2025 <f256main+0x1709>
     93b: 68           	pla
     93c: 92 24        	sta	($24)                   ; 0x2024 <f256main+0x1708>
     93e: 18           	clc
     93f: 48           	pha
     940: a5 10        	lda	$10                     ; 0x2010 <f256main+0x16f4>
     942: 69 12        	adc	#$12
     944: 85 28        	sta	$28                     ; 0x2028 <f256main+0x170c>
     946: a5 11        	lda	$11                     ; 0x2011 <f256main+0x16f5>
     948: 69 00        	adc	#$0
     94a: 85 29        	sta	$29                     ; 0x2029 <f256main+0x170d>
     94c: 68           	pla
     94d: 92 28        	sta	($28)                   ; 0x2028 <f256main+0x170c>
     94f: aa           	tax
     950: a9 04        	lda	#$4
     952: 20 71 65     	jsr	$6571 <malloc>
     955: a0 00        	ldy	#$0
     957: 5a           	phy
     958: a5 12        	lda	$12                     ; 0x2012 <f256main+0x16f6>
     95a: a0 04        	ldy	#$4
     95c: 91 10        	sta	($10),y                 ; 0x2010 <f256main+0x16f4>
     95e: a5 13        	lda	$13                     ; 0x2013 <f256main+0x16f7>
     960: c8           	iny
     961: 91 10        	sta	($10),y                 ; 0x2010 <f256main+0x16f4>
     963: 7a           	ply
     964: 64 01        	stz	$1                      ; 0x2001 <f256main+0x16e5>
     966: a2 0f        	ldx	#$f
     968: 8e 00 d0     	stx	$d000                   ; 0xd000 <__heap_start+0x3cfa>
     96b: 9c 01 d0     	stz	$d001                   ; 0xd001 <__heap_start+0x3cfb>
     96e: e8           	inx
     96f: 8e 02 d0     	stx	$d002                   ; 0xd002 <__heap_start+0x3cfc>
     972: a2 02        	ldx	#$2
     974: 8e 03 d0     	stx	$d003                   ; 0xd003 <__heap_start+0x3cfd>
     977: 9c 0d d0     	stz	$d00d                   ; 0xd00d <__heap_start+0x3d07>
     97a: 9c 0e d0     	stz	$d00e                   ; 0xd00e <__heap_start+0x3d08>
     97d: 9c 0f d0     	stz	$d00f                   ; 0xd00f <__heap_start+0x3d09>
     980: ca           	dex
     981: 86 01        	stx	$1                      ; 0x2001 <f256main+0x16e5>
     983: a2 d0        	ldx	#$d0
     985: 18           	clc
     986: 84 16        	sty	$16                     ; 0x2016 <f256main+0x16fa>
     988: 98           	tya
     989: 69 00        	adc	#$0
     98b: 85 14        	sta	$14                     ; 0x2014 <f256main+0x16f8>
     98d: 8a           	txa
     98e: 69 10        	adc	#$10
     990: 85 15        	sta	$15                     ; 0x2015 <f256main+0x16f9>
     992: 84 12        	sty	$12                     ; 0x2012 <f256main+0x16f6>
     994: 86 13        	stx	$13                     ; 0x2013 <f256main+0x16f7>
     996: a4 0f        	ldy	$f                      ; 0x200f <f256main+0x16f3>
     998: 78           	sei
     999: a9 18        	lda	#$18
     99b: 85 0f        	sta	$f                      ; 0x200f <f256main+0x16f3>
     99d: b2 14        	lda	($14)                   ; 0x2014 <f256main+0x16f8>
     99f: 84 0f        	sty	$f                      ; 0x200f <f256main+0x16f3>
     9a1: 58           	cli
     9a2: 92 12        	sta	($12)                   ; 0x2012 <f256main+0x16f6>
     9a4: a4 16        	ldy	$16                     ; 0x2016 <f256main+0x16fa>
     9a6: c8           	iny
     9a7: d0 01        	bne	$9aa <f256main+0x8e>
     9a9: e8           	inx
     9aa: e0 d3        	cpx	#$d3
     9ac: d0 d7        	bne	$985 <f256main+0x69>
     9ae: c0 ff        	cpy	#$ff
     9b0: d0 d3        	bne	$985 <f256main+0x69>
     9b2: 64 01        	stz	$1                      ; 0x2001 <f256main+0x16e5>
     9b4: a2 ff        	ldx	#$ff
     9b6: 8e 40 d8     	stx	$d840                   ; 0xd840 <__heap_start+0x453a>
     9b9: 8e 41 d8     	stx	$d841                   ; 0xd841 <__heap_start+0x453b>
     9bc: 8e 42 d8     	stx	$d842                   ; 0xd842 <__heap_start+0x453c>
     9bf: 9c 43 d8     	stz	$d843                   ; 0xd843 <__heap_start+0x453d>
     9c2: 9c f9 92     	stz	$92f9                   ; 0x92f9 <__bss_start>
     9c5: a2 80        	ldx	#$80
     9c7: 8e fa 92     	stx	$92fa                   ; 0x92fa <__bss_start+0x1>
     9ca: a0 03        	ldy	#$3
     9cc: 8c fb 92     	sty	$92fb                   ; 0x92fb <__bss_start+0x2>
     9cf: 9c fc 92     	stz	$92fc                   ; 0x92fc <__bss_start+0x3>
     9d2: 9c 01 d1     	stz	$d101                   ; 0xd101 <__heap_start+0x3dfb>
     9d5: 8e 02 d1     	stx	$d102                   ; 0xd102 <__heap_start+0x3dfc>
     9d8: 8c 03 d1     	sty	$d103                   ; 0xd103 <__heap_start+0x3dfd>
     9db: a2 01        	ldx	#$1
     9dd: 8e 00 d1     	stx	$d100                   ; 0xd100 <__heap_start+0x3dfa>
     9e0: ad 00 d1     	lda	$d100                   ; 0xd100 <__heap_start+0x3dfa>
     9e3: 29 f9        	and	#$f9
     9e5: 8d 00 d1     	sta	$d100                   ; 0xd100 <__heap_start+0x3dfa>
     9e8: 9c 08 d1     	stz	$d108                   ; 0xd108 <__heap_start+0x3e02>
     9eb: 9c 10 d1     	stz	$d110                   ; 0xd110 <__heap_start+0x3e0a>
     9ee: a9 0a        	lda	#$a
     9f0: ca           	dex
     9f1: 20 71 65     	jsr	$6571 <malloc>
     9f4: a6 12        	ldx	$12                     ; 0x2012 <f256main+0x16f6>
     9f6: a4 13        	ldy	$13                     ; 0x2013 <f256main+0x16f7>
     9f8: 86 6a        	stx	$6a                     ; 0x206a <f256main+0x174e>
     9fa: 84 6b        	sty	$6b                     ; 0x206b <f256main+0x174f>
     9fc: a9 3c        	lda	#$3c
     9fe: a2 00        	ldx	#$0
     a00: 20 71 65     	jsr	$6571 <malloc>
     a03: a6 12        	ldx	$12                     ; 0x2012 <f256main+0x16f6>
     a05: 86 2c        	stx	$2c                     ; 0x202c <f256main+0x1710>
     a07: a6 13        	ldx	$13                     ; 0x2013 <f256main+0x16f7>
     a09: 86 2d        	stx	$2d                     ; 0x202d <f256main+0x1711>
     a0b: a6 2c        	ldx	$2c                     ; 0x202c <f256main+0x1710>
     a0d: a4 2d        	ldy	$2d                     ; 0x202d <f256main+0x1711>
     a0f: 86 7e        	stx	$7e                     ; 0x207e <f256main+0x1762>
     a11: 84 7f        	sty	$7f                     ; 0x207f <f256main+0x1763>
     a13: 18           	clc
     a14: a5 10        	lda	$10                     ; 0x2010 <f256main+0x16f4>
     a16: 69 14        	adc	#$14
     a18: 85 2a        	sta	$2a                     ; 0x202a <f256main+0x170e>
     a1a: a5 11        	lda	$11                     ; 0x2011 <f256main+0x16f5>
     a1c: 69 00        	adc	#$0
     a1e: 85 2b        	sta	$2b                     ; 0x202b <f256main+0x170f>
     a20: a9 00        	lda	#$0
     a22: 92 2a        	sta	($2a)                   ; 0x202a <f256main+0x170e>
     a24: a0 01        	ldy	#$1
     a26: 91 2a        	sta	($2a),y                 ; 0x202a <f256main+0x170e>
     a28: c8           	iny
     a29: a2 01        	ldx	#$1
     a2b: 8a           	txa
     a2c: 91 2a        	sta	($2a),y                 ; 0x202a <f256main+0x170e>
     a2e: c8           	iny
     a2f: 3a           	dec
     a30: 91 2a        	sta	($2a),y                 ; 0x202a <f256main+0x170e>
     a32: 86 14        	stx	$14                     ; 0x2014 <f256main+0x16f8>
     a34: 64 15        	stz	$15                     ; 0x2015 <f256main+0x16f9>
     a36: 64 16        	stz	$16                     ; 0x2016 <f256main+0x16fa>
     a38: 86 17        	stx	$17                     ; 0x2017 <f256main+0x16fb>
     a3a: 64 18        	stz	$18                     ; 0x2018 <f256main+0x16fc>
     a3c: a2 5a        	ldx	#$5a
     a3e: 20 41 43     	jsr	$4341 <setupMem4ABeat>
     a41: c9 ff        	cmp	#$ff
     a43: d0 0b        	bne	$a50 <f256main+0x134>
     a45: a2 29        	ldx	#$29
     a47: 86 12        	stx	$12                     ; 0x2012 <f256main+0x16f6>
     a49: a2 85        	ldx	#$85
     a4b: 86 13        	stx	$13                     ; 0x2013 <f256main+0x16f7>
     a4d: 20 45 59     	jsr	$5945 <printf>
     a50: a2 09        	ldx	#$9
     a52: a4 2a        	ldy	$2a                     ; 0x202a <f256main+0x170e>
     a54: 84 14        	sty	$14                     ; 0x2014 <f256main+0x16f8>
     a56: a4 2b        	ldy	$2b                     ; 0x202b <f256main+0x170f>
     a58: 84 15        	sty	$15                     ; 0x2015 <f256main+0x16f9>
     a5a: a0 84        	ldy	#$84
     a5c: 84 16        	sty	$16                     ; 0x2016 <f256main+0x16fa>
     a5e: a0 8d        	ldy	#$8d
     a60: 84 17        	sty	$17                     ; 0x2017 <f256main+0x16fb>
     a62: a0 86        	ldy	#$86
     a64: 84 18        	sty	$18                     ; 0x2018 <f256main+0x16fc>
     a66: a0 8d        	ldy	#$8d
     a68: 84 19        	sty	$19                     ; 0x2019 <f256main+0x16fd>
     a6a: a0 02        	ldy	#$2
     a6c: 64 12        	stz	$12                     ; 0x2012 <f256main+0x16f6>
     a6e: 84 13        	sty	$13                     ; 0x2013 <f256main+0x16f7>
     a70: a9 00        	lda	#$0
     a72: 20 9f 47     	jsr	$479f <setupMem4Track>
     a75: b2 2a        	lda	($2a)                   ; 0x202a <f256main+0x170e>
     a77: 85 15        	sta	$15                     ; 0x2015 <f256main+0x16f9>
     a79: a0 01        	ldy	#$1
     a7b: b1 2a        	lda	($2a),y                 ; 0x202a <f256main+0x170e>
     a7d: 85 16        	sta	$16                     ; 0x2016 <f256main+0x16fa>
     a7f: c8           	iny
     a80: b1 2a        	lda	($2a),y                 ; 0x202a <f256main+0x170e>
     a82: 85 17        	sta	$17                     ; 0x2017 <f256main+0x16fb>
     a84: c8           	iny
     a85: b1 2a        	lda	($2a),y                 ; 0x202a <f256main+0x170e>
     a87: 85 18        	sta	$18                     ; 0x2018 <f256main+0x16fc>
     a89: a6 2c        	ldx	$2c                     ; 0x202c <f256main+0x1710>
     a8b: 86 12        	stx	$12                     ; 0x2012 <f256main+0x16f6>
     a8d: a6 2d        	ldx	$2d                     ; 0x202d <f256main+0x1711>
     a8f: 86 13        	stx	$13                     ; 0x2013 <f256main+0x16f7>
     a91: a9 01        	lda	#$1
     a93: a2 78        	ldx	#$78
     a95: 88           	dey
     a96: 84 14        	sty	$14                     ; 0x2014 <f256main+0x16f8>
     a98: 20 41 43     	jsr	$4341 <setupMem4ABeat>
     a9b: c9 ff        	cmp	#$ff
     a9d: d0 0b        	bne	$aaa <f256main+0x18e>
     a9f: a2 29        	ldx	#$29
     aa1: 86 12        	stx	$12                     ; 0x2012 <f256main+0x16f6>
     aa3: a2 85        	ldx	#$85
     aa5: 86 13        	stx	$13                     ; 0x2013 <f256main+0x16f7>
     aa7: 20 45 59     	jsr	$5945 <printf>
     aaa: a2 00        	ldx	#$0
     aac: a4 2a        	ldy	$2a                     ; 0x202a <f256main+0x170e>
     aae: 84 14        	sty	$14                     ; 0x2014 <f256main+0x16f8>
     ab0: a4 2b        	ldy	$2b                     ; 0x202b <f256main+0x170f>
     ab2: 84 15        	sty	$15                     ; 0x2015 <f256main+0x16f9>
     ab4: a0 88        	ldy	#$88
     ab6: 84 16        	sty	$16                     ; 0x2016 <f256main+0x16fa>
     ab8: a0 8d        	ldy	#$8d
     aba: 84 17        	sty	$17                     ; 0x2017 <f256main+0x16fb>
     abc: a0 f2        	ldy	#$f2
     abe: 84 18        	sty	$18                     ; 0x2018 <f256main+0x16fc>
     ac0: a0 8d        	ldy	#$8d
     ac2: 84 19        	sty	$19                     ; 0x2019 <f256main+0x16fd>
     ac4: a0 6a        	ldy	#$6a
     ac6: a9 01        	lda	#$1
     ac8: 85 12        	sta	$12                     ; 0x2012 <f256main+0x16f6>
     aca: 84 13        	sty	$13                     ; 0x2013 <f256main+0x16f7>
     acc: 20 9f 47     	jsr	$479f <setupMem4Track>
     acf: a0 03        	ldy	#$3
     ad1: a6 2a        	ldx	$2a                     ; 0x202a <f256main+0x170e>
     ad3: 86 14        	stx	$14                     ; 0x2014 <f256main+0x16f8>
     ad5: a6 2b        	ldx	$2b                     ; 0x202b <f256main+0x170f>
     ad7: 86 15        	stx	$15                     ; 0x2015 <f256main+0x16f9>
     ad9: a2 5c        	ldx	#$5c
     adb: 86 16        	stx	$16                     ; 0x2016 <f256main+0x16fa>
     add: a2 8e        	ldx	#$8e
     adf: 86 17        	stx	$17                     ; 0x2017 <f256main+0x16fb>
     ae1: a2 6c        	ldx	#$6c
     ae3: 86 18        	stx	$18                     ; 0x2018 <f256main+0x16fc>
     ae5: a2 8e        	ldx	#$8e
     ae7: 86 19        	stx	$19                     ; 0x2019 <f256main+0x16fd>
     ae9: a2 10        	ldx	#$10
     aeb: 84 12        	sty	$12                     ; 0x2012 <f256main+0x16f6>
     aed: 86 13        	stx	$13                     ; 0x2013 <f256main+0x16f7>
     aef: a2 02        	ldx	#$2
     af1: a9 01        	lda	#$1
     af3: 20 9f 47     	jsr	$479f <setupMem4Track>
     af6: b2 2a        	lda	($2a)                   ; 0x202a <f256main+0x170e>
     af8: 85 15        	sta	$15                     ; 0x2015 <f256main+0x16f9>
     afa: a0 01        	ldy	#$1
     afc: b1 2a        	lda	($2a),y                 ; 0x202a <f256main+0x170e>
     afe: 85 16        	sta	$16                     ; 0x2016 <f256main+0x16fa>
     b00: c8           	iny
     b01: b1 2a        	lda	($2a),y                 ; 0x202a <f256main+0x170e>
     b03: 85 17        	sta	$17                     ; 0x2017 <f256main+0x16fb>
     b05: c8           	iny
     b06: b1 2a        	lda	($2a),y                 ; 0x202a <f256main+0x170e>
     b08: a6 2c        	ldx	$2c                     ; 0x202c <f256main+0x1710>
     b0a: 86 12        	stx	$12                     ; 0x2012 <f256main+0x16f6>
     b0c: a6 2d        	ldx	$2d                     ; 0x202d <f256main+0x1711>
     b0e: 86 13        	stx	$13                     ; 0x2013 <f256main+0x16f7>
     b10: a2 5c        	ldx	#$5c
     b12: a0 01        	ldy	#$1
     b14: 84 14        	sty	$14                     ; 0x2014 <f256main+0x16f8>
     b16: 85 18        	sta	$18                     ; 0x2018 <f256main+0x16fc>
     b18: a9 02        	lda	#$2
     b1a: 20 41 43     	jsr	$4341 <setupMem4ABeat>
     b1d: c9 ff        	cmp	#$ff
     b1f: d0 0b        	bne	$b2c <f256main+0x210>
     b21: a2 29        	ldx	#$29
     b23: 86 12        	stx	$12                     ; 0x2012 <f256main+0x16f6>
     b25: a2 85        	ldx	#$85
     b27: 86 13        	stx	$13                     ; 0x2013 <f256main+0x16f7>
     b29: 20 45 59     	jsr	$5945 <printf>
     b2c: a2 12        	ldx	#$12
     b2e: a4 2a        	ldy	$2a                     ; 0x202a <f256main+0x170e>
     b30: 84 14        	sty	$14                     ; 0x2014 <f256main+0x16f8>
     b32: a4 2b        	ldy	$2b                     ; 0x202b <f256main+0x170f>
     b34: 84 15        	sty	$15                     ; 0x2015 <f256main+0x16f9>
     b36: a0 7c        	ldy	#$7c
     b38: 84 16        	sty	$16                     ; 0x2016 <f256main+0x16fa>
     b3a: a0 8e        	ldy	#$8e
     b3c: 84 17        	sty	$17                     ; 0x2017 <f256main+0x16fb>
     b3e: a0 54        	ldy	#$54
     b40: 84 18        	sty	$18                     ; 0x2018 <f256main+0x16fc>
     b42: a0 8f        	ldy	#$8f
     b44: 84 19        	sty	$19                     ; 0x2019 <f256main+0x16fd>
     b46: a0 d8        	ldy	#$d8
     b48: 86 12        	stx	$12                     ; 0x2012 <f256main+0x16f6>
     b4a: 84 13        	sty	$13                     ; 0x2013 <f256main+0x16f7>
     b4c: a2 03        	ldx	#$3
     b4e: 8a           	txa
     b4f: 20 9f 47     	jsr	$479f <setupMem4Track>
     b52: b2 2a        	lda	($2a)                   ; 0x202a <f256main+0x170e>
     b54: 85 15        	sta	$15                     ; 0x2015 <f256main+0x16f9>
     b56: a0 01        	ldy	#$1
     b58: b1 2a        	lda	($2a),y                 ; 0x202a <f256main+0x170e>
     b5a: 85 16        	sta	$16                     ; 0x2016 <f256main+0x16fa>
     b5c: c8           	iny
     b5d: b1 2a        	lda	($2a),y                 ; 0x202a <f256main+0x170e>
     b5f: 85 17        	sta	$17                     ; 0x2017 <f256main+0x16fb>
     b61: c8           	iny
     b62: b1 2a        	lda	($2a),y                 ; 0x202a <f256main+0x170e>
     b64: a6 2c        	ldx	$2c                     ; 0x202c <f256main+0x1710>
     b66: 86 12        	stx	$12                     ; 0x2012 <f256main+0x16f6>
     b68: a6 2d        	ldx	$2d                     ; 0x202d <f256main+0x1711>
     b6a: 86 13        	stx	$13                     ; 0x2013 <f256main+0x16f7>
     b6c: a2 78        	ldx	#$78
     b6e: a0 05        	ldy	#$5
     b70: 84 14        	sty	$14                     ; 0x2014 <f256main+0x16f8>
     b72: 85 18        	sta	$18                     ; 0x2018 <f256main+0x16fc>
     b74: a9 03        	lda	#$3
     b76: 20 41 43     	jsr	$4341 <setupMem4ABeat>
     b79: c9 ff        	cmp	#$ff
     b7b: d0 0b        	bne	$b88 <f256main+0x26c>
     b7d: a2 29        	ldx	#$29
     b7f: 86 12        	stx	$12                     ; 0x2012 <f256main+0x16f6>
     b81: a2 85        	ldx	#$85
     b83: 86 13        	stx	$13                     ; 0x2013 <f256main+0x16f7>
     b85: 20 45 59     	jsr	$5945 <printf>
     b88: a9 03        	lda	#$3
     b8a: a6 2a        	ldx	$2a                     ; 0x202a <f256main+0x170e>
     b8c: 86 14        	stx	$14                     ; 0x2014 <f256main+0x16f8>
     b8e: a6 2b        	ldx	$2b                     ; 0x202b <f256main+0x170f>
     b90: 86 15        	stx	$15                     ; 0x2015 <f256main+0x16f9>
     b92: a2 2c        	ldx	#$2c
     b94: 86 16        	stx	$16                     ; 0x2016 <f256main+0x16fa>
     b96: a2 90        	ldx	#$90
     b98: 86 17        	stx	$17                     ; 0x2017 <f256main+0x16fb>
     b9a: a2 38        	ldx	#$38
     b9c: 86 18        	stx	$18                     ; 0x2018 <f256main+0x16fc>
     b9e: a2 90        	ldx	#$90
     ba0: 86 19        	stx	$19                     ; 0x2019 <f256main+0x16fd>
     ba2: a2 0c        	ldx	#$c
     ba4: 86 12        	stx	$12                     ; 0x2012 <f256main+0x16f6>
     ba6: 86 13        	stx	$13                     ; 0x2013 <f256main+0x16f7>
     ba8: a2 01        	ldx	#$1
     baa: 20 9f 47     	jsr	$479f <setupMem4Track>
     bad: a6 2a        	ldx	$2a                     ; 0x202a <f256main+0x170e>
     baf: 86 14        	stx	$14                     ; 0x2014 <f256main+0x16f8>
     bb1: a6 2b        	ldx	$2b                     ; 0x202b <f256main+0x170f>
     bb3: 86 15        	stx	$15                     ; 0x2015 <f256main+0x16f9>
     bb5: a2 44        	ldx	#$44
     bb7: 86 16        	stx	$16                     ; 0x2016 <f256main+0x16fa>
     bb9: a2 90        	ldx	#$90
     bbb: 86 17        	stx	$17                     ; 0x2017 <f256main+0x16fb>
     bbd: a2 4c        	ldx	#$4c
     bbf: 86 18        	stx	$18                     ; 0x2018 <f256main+0x16fc>
     bc1: a2 90        	ldx	#$90
     bc3: 86 19        	stx	$19                     ; 0x2019 <f256main+0x16fd>
     bc5: a2 08        	ldx	#$8
     bc7: a0 01        	ldy	#$1
     bc9: 84 12        	sty	$12                     ; 0x2012 <f256main+0x16f6>
     bcb: 86 13        	stx	$13                     ; 0x2013 <f256main+0x16f7>
     bcd: e8           	inx
     bce: a9 00        	lda	#$0
     bd0: 20 9f 47     	jsr	$479f <setupMem4Track>
     bd3: a0 0a        	ldy	#$a
     bd5: a6 2a        	ldx	$2a                     ; 0x202a <f256main+0x170e>
     bd7: 86 14        	stx	$14                     ; 0x2014 <f256main+0x16f8>
     bd9: a6 2b        	ldx	$2b                     ; 0x202b <f256main+0x170f>
     bdb: 86 15        	stx	$15                     ; 0x2015 <f256main+0x16f9>
     bdd: a2 54        	ldx	#$54
     bdf: 86 16        	stx	$16                     ; 0x2016 <f256main+0x16fa>
     be1: a2 90        	ldx	#$90
     be3: 86 17        	stx	$17                     ; 0x2017 <f256main+0x16fb>
     be5: a2 60        	ldx	#$60
     be7: 86 18        	stx	$18                     ; 0x2018 <f256main+0x16fc>
     be9: a2 90        	ldx	#$90
     beb: 86 19        	stx	$19                     ; 0x2019 <f256main+0x16fd>
     bed: 84 12        	sty	$12                     ; 0x2012 <f256main+0x16f6>
     bef: a2 0c        	ldx	#$c
     bf1: 86 13        	stx	$13                     ; 0x2013 <f256main+0x16f7>
     bf3: a2 02        	ldx	#$2
     bf5: a9 00        	lda	#$0
     bf7: 20 9f 47     	jsr	$479f <setupMem4Track>
     bfa: a6 2a        	ldx	$2a                     ; 0x202a <f256main+0x170e>
     bfc: 86 14        	stx	$14                     ; 0x2014 <f256main+0x16f8>
     bfe: a6 2b        	ldx	$2b                     ; 0x202b <f256main+0x170f>
     c00: 86 15        	stx	$15                     ; 0x2015 <f256main+0x16f9>
     c02: a2 6c        	ldx	#$6c
     c04: 86 16        	stx	$16                     ; 0x2016 <f256main+0x16fa>
     c06: a2 90        	ldx	#$90
     c08: 86 17        	stx	$17                     ; 0x2017 <f256main+0x16fb>
     c0a: a2 78        	ldx	#$78
     c0c: 86 18        	stx	$18                     ; 0x2018 <f256main+0x16fc>
     c0e: a2 90        	ldx	#$90
     c10: 86 19        	stx	$19                     ; 0x2019 <f256main+0x16fd>
     c12: a2 0a        	ldx	#$a
     c14: 86 12        	stx	$12                     ; 0x2012 <f256main+0x16f6>
     c16: a2 0c        	ldx	#$c
     c18: 86 13        	stx	$13                     ; 0x2013 <f256main+0x16f7>
     c1a: a2 02        	ldx	#$2
     c1c: a9 00        	lda	#$0
     c1e: 20 9f 47     	jsr	$479f <setupMem4Track>
     c21: a6 2a        	ldx	$2a                     ; 0x202a <f256main+0x170e>
     c23: 86 14        	stx	$14                     ; 0x2014 <f256main+0x16f8>
     c25: a6 2b        	ldx	$2b                     ; 0x202b <f256main+0x170f>
     c27: 86 15        	stx	$15                     ; 0x2015 <f256main+0x16f9>
     c29: a2 84        	ldx	#$84
     c2b: 86 16        	stx	$16                     ; 0x2016 <f256main+0x16fa>
     c2d: a2 90        	ldx	#$90
     c2f: 86 17        	stx	$17                     ; 0x2017 <f256main+0x16fb>
     c31: a2 90        	ldx	#$90
     c33: 86 18        	stx	$18                     ; 0x2018 <f256main+0x16fc>
     c35: a2 90        	ldx	#$90
     c37: 86 19        	stx	$19                     ; 0x2019 <f256main+0x16fd>
     c39: a2 0a        	ldx	#$a
     c3b: 86 12        	stx	$12                     ; 0x2012 <f256main+0x16f6>
     c3d: a2 0c        	ldx	#$c
     c3f: 86 13        	stx	$13                     ; 0x2013 <f256main+0x16f7>
     c41: a2 02        	ldx	#$2
     c43: a9 00        	lda	#$0
     c45: 20 9f 47     	jsr	$479f <setupMem4Track>
     c48: 20 da 3d     	jsr	$3dda <escReset>
     c4b: 20 a5 3f     	jsr	$3fa5 <prepTempoLUT>
     c4e: a2 80        	ldx	#$80
     c50: 86 f3        	stx	$f3                     ; 0x20f3 <f256main+0x17d7>
     c52: 18           	clc
     c53: a5 10        	lda	$10                     ; 0x2010 <f256main+0x16f4>
     c55: 69 18        	adc	#$18
     c57: 85 12        	sta	$12                     ; 0x2012 <f256main+0x16f6>
     c59: a5 11        	lda	$11                     ; 0x2011 <f256main+0x16f5>
     c5b: 69 00        	adc	#$0
     c5d: 85 13        	sta	$13                     ; 0x2013 <f256main+0x16f7>
     c5f: a2 ff        	ldx	#$ff
     c61: 86 14        	stx	$14                     ; 0x2014 <f256main+0x16f8>
     c63: a2 92        	ldx	#$92
     c65: 86 15        	stx	$15                     ; 0x2015 <f256main+0x16f9>
     c67: 20 f0 ff     	jsr	$fff0 <__heap_start+0x6cea>
     c6a: 92 12        	sta	($12)                   ; 0x2012 <f256main+0x16f6>
     c6c: a9 00        	lda	#$0
     c6e: 6a           	ror
     c6f: 85 14        	sta	$14                     ; 0x2014 <f256main+0x16f8>
     c71: a9 09        	lda	#$9
     c73: 18           	clc
     c74: 72 12        	adc	($12)                   ; 0x2012 <f256main+0x16f6>
     c76: 85 80        	sta	$80                     ; 0x2080 <f256main+0x1764>
     c78: 64 f3        	stz	$f3                     ; 0x20f3 <f256main+0x17d7>
     c7a: a6 80        	ldx	$80                     ; 0x2080 <f256main+0x1764>
     c7c: 86 f4        	stx	$f4                     ; 0x20f4 <f256main+0x17d8>
     c7e: 64 f5        	stz	$f5                     ; 0x20f5 <f256main+0x17d9>
     c80: 18           	clc
     c81: a5 10        	lda	$10                     ; 0x2010 <f256main+0x16f4>
     c83: 69 19        	adc	#$19
     c85: 85 12        	sta	$12                     ; 0x2012 <f256main+0x16f6>
     c87: a5 11        	lda	$11                     ; 0x2011 <f256main+0x16f5>
     c89: 69 00        	adc	#$0
     c8b: 85 13        	sta	$13                     ; 0x2013 <f256main+0x16f7>
     c8d: a2 90        	ldx	#$90
     c8f: 20 f0 ff     	jsr	$fff0 <__heap_start+0x6cea>
     c92: 92 12        	sta	($12)                   ; 0x2012 <f256main+0x16f6>
     c94: a9 00        	lda	#$0
     c96: 6a           	ror
     c97: 85 14        	sta	$14                     ; 0x2014 <f256main+0x16f8>
     c99: 86 30        	stx	$30                     ; 0x2030 <f256main+0x1714>
     c9b: ad a0 dd     	lda	$dda0                   ; 0xdda0 <__heap_start+0x4a9a>
     c9e: 29 02        	and	#$2
     ca0: d0 1e        	bne	$cc0 <f256main+0x3a4>
     ca2: ae a2 dd     	ldx	$dda2                   ; 0xdda2 <__heap_start+0x4a9c>
     ca5: ad a3 dd     	lda	$dda3                   ; 0xdda3 <__heap_start+0x4a9d>
     ca8: 29 0f        	and	#$f
     caa: d0 04        	bne	$cb0 <f256main+0x394>
     cac: e0 00        	cpx	#$0
     cae: f0 10        	beq	$cc0 <f256main+0x3a4>
     cb0: ac a1 dd     	ldy	$dda1                   ; 0xdda1 <__heap_start+0x4a9b>
     cb3: ca           	dex
     cb4: e0 ff        	cpx	#$ff
     cb6: d0 01        	bne	$cb9 <f256main+0x39d>
     cb8: 3a           	dec
     cb9: a8           	tay
     cba: d0 f4        	bne	$cb0 <f256main+0x394>
     cbc: e0 00        	cpx	#$0
     cbe: d0 f0        	bne	$cb0 <f256main+0x394>
     cc0: a2 d4        	ldx	#$d4
     cc2: a0 00        	ldy	#$0
     cc4: 18           	clc
     cc5: 98           	tya
     cc6: 69 00        	adc	#$0
     cc8: 85 14        	sta	$14                     ; 0x2014 <f256main+0x16f8>
     cca: 8a           	txa
     ccb: 69 01        	adc	#$1
     ccd: 85 15        	sta	$15                     ; 0x2015 <f256main+0x16f9>
     ccf: 84 12        	sty	$12                     ; 0x2012 <f256main+0x16f6>
     cd1: 86 13        	stx	$13                     ; 0x2013 <f256main+0x16f7>
     cd3: a9 00        	lda	#$0
     cd5: 92 12        	sta	($12)                   ; 0x2012 <f256main+0x16f6>
     cd7: 5a           	phy
     cd8: a4 14        	ldy	$14                     ; 0x2014 <f256main+0x16f8>
     cda: 84 12        	sty	$12                     ; 0x2012 <f256main+0x16f6>
     cdc: a4 15        	ldy	$15                     ; 0x2015 <f256main+0x16f9>
     cde: 84 13        	sty	$13                     ; 0x2013 <f256main+0x16f7>
     ce0: 7a           	ply
     ce1: 92 12        	sta	($12)                   ; 0x2012 <f256main+0x16f6>
     ce3: c8           	iny
     ce4: d0 01        	bne	$ce7 <f256main+0x3cb>
     ce6: e8           	inx
     ce7: c0 19        	cpy	#$19
     ce9: d0 d9        	bne	$cc4 <f256main+0x3a8>
     ceb: 20 da 42     	jsr	$42da <sid_setInstrumentAllChannels>
     cee: ad a1 d6     	lda	$d6a1                   ; 0xd6a1 <__heap_start+0x439b>
     cf1: 29 f7        	and	#$f7
     cf3: 8d a1 d6     	sta	$d6a1                   ; 0xd6a1 <__heap_start+0x439b>
     cf6: ad a1 d6     	lda	$d6a1                   ; 0xd6a1 <__heap_start+0x439b>
     cf9: 29 fb        	and	#$fb
     cfb: 8d a1 d6     	sta	$d6a1                   ; 0xd6a1 <__heap_start+0x439b>
     cfe: a2 01        	ldx	#$1
     d00: 8e 80 d5     	stx	$d580                   ; 0xd580 <__heap_start+0x427a>
     d03: a0 20        	ldy	#$20
     d05: 8c 81 d5     	sty	$d581                   ; 0xd581 <__heap_start+0x427b>
     d08: a0 02        	ldy	#$2
     d0a: 8c 80 d5     	sty	$d580                   ; 0xd580 <__heap_start+0x427a>
     d0d: 9c 81 d5     	stz	$d581                   ; 0xd581 <__heap_start+0x427b>
     d10: c8           	iny
     d11: 8c 80 d5     	sty	$d580                   ; 0xd580 <__heap_start+0x427a>
     d14: 9c 81 d5     	stz	$d581                   ; 0xd581 <__heap_start+0x427b>
     d17: c8           	iny
     d18: 8c 82 d5     	sty	$d582                   ; 0xd582 <__heap_start+0x427c>
     d1b: 9c 81 d5     	stz	$d581                   ; 0xd581 <__heap_start+0x427b>
     d1e: c8           	iny
     d1f: 8c 82 d5     	sty	$d582                   ; 0xd582 <__heap_start+0x427c>
     d22: 8e 81 d5     	stx	$d581                   ; 0xd581 <__heap_start+0x427b>
     d25: a2 08        	ldx	#$8
     d27: 8e 80 d5     	stx	$d580                   ; 0xd580 <__heap_start+0x427a>
     d2a: 9c 81 d5     	stz	$d581                   ; 0xd581 <__heap_start+0x427b>
     d2d: a2 c0        	ldx	#$c0
     d2f: a0 30        	ldy	#$30
     d31: 8e 80 d5     	stx	$d580                   ; 0xd580 <__heap_start+0x427a>
     d34: 8c 81 d5     	sty	$d581                   ; 0xd581 <__heap_start+0x427b>
     d37: e8           	inx
     d38: e0 c9        	cpx	#$c9
     d3a: d0 f5        	bne	$d31 <f256main+0x415>
     d3c: a2 b0        	ldx	#$b0
     d3e: 8e 80 d5     	stx	$d580                   ; 0xd580 <__heap_start+0x427a>
     d41: 9c 81 d5     	stz	$d581                   ; 0xd581 <__heap_start+0x427b>
     d44: e8           	inx
     d45: e0 b9        	cpx	#$b9
     d47: d0 f5        	bne	$d3e <f256main+0x422>
     d49: a9 00        	lda	#$0
     d4b: 20 0a 42     	jsr	$420a <opl3_setInstrumentAllChannels>
     d4e: ad a7 d6     	lda	$d6a7                   ; 0xd6a7 <__heap_start+0x43a1>
     d51: 29 3f        	and	#$3f
     d53: c9 22        	cmp	#$22
     d55: f0 07        	beq	$d5e <f256main+0x442>
     d57: c9 11        	cmp	#$11
     d59: f0 03        	beq	$d5e <f256main+0x442>
     d5b: 4c 62 0e     	jmp	$e62 <f256main+0x546>
     d5e: a2 03        	ldx	#$3
     d60: 8e 01 d7     	stx	$d701                   ; 0xd701 <__heap_start+0x43fb>
     d63: 9c 02 d7     	stz	$d702                   ; 0xd702 <__heap_start+0x43fc>
     d66: 9c 02 d7     	stz	$d702                   ; 0xd702 <__heap_start+0x43fc>
     d69: a2 40        	ldx	#$40
     d6b: 8e 03 d7     	stx	$d703                   ; 0xd703 <__heap_start+0x43fd>
     d6e: a2 01        	ldx	#$1
     d70: 8e 00 d7     	stx	$d700                   ; 0xd700 <__heap_start+0x43fa>
     d73: 9c 00 d7     	stz	$d700                   ; 0xd700 <__heap_start+0x43fa>
     d76: ae 00 d7     	ldx	$d700                   ; 0xd700 <__heap_start+0x43fa>
     d79: 30 fb        	bmi	$d76 <f256main+0x45a>
     d7b: a9 00        	lda	#$0
     d7d: aa           	tax
     d7e: a8           	tay
     d7f: 0a           	asl
     d80: 85 12        	sta	$12                     ; 0x2012 <f256main+0x16f6>
     d82: 86 15        	stx	$15                     ; 0x2015 <f256main+0x16f9>
     d84: 8a           	txa
     d85: 2a           	rol
     d86: 85 13        	sta	$13                     ; 0x2013 <f256main+0x16f7>
     d88: a9 4c        	lda	#$4c
     d8a: 18           	clc
     d8b: 65 12        	adc	$12                     ; 0x2012 <f256main+0x16f6>
     d8d: 85 14        	sta	$14                     ; 0x2014 <f256main+0x16f8>
     d8f: a9 8d        	lda	#$8d
     d91: 65 13        	adc	$13                     ; 0x2013 <f256main+0x16f7>
     d93: a6 14        	ldx	$14                     ; 0x2014 <f256main+0x16f8>
     d95: 86 12        	stx	$12                     ; 0x2012 <f256main+0x16f6>
     d97: 85 13        	sta	$13                     ; 0x2013 <f256main+0x16f7>
     d99: 85 17        	sta	$17                     ; 0x2017 <f256main+0x16fb>
     d9b: 18           	clc
     d9c: 98           	tya
     d9d: 69 02        	adc	#$2
     d9f: aa           	tax
     da0: a5 15        	lda	$15                     ; 0x2015 <f256main+0x16f9>
     da2: 69 00        	adc	#$0
     da4: 85 16        	sta	$16                     ; 0x2016 <f256main+0x16fa>
     da6: 18           	clc
     da7: a5 14        	lda	$14                     ; 0x2014 <f256main+0x16f8>
     da9: 69 02        	adc	#$2
     dab: 85 14        	sta	$14                     ; 0x2014 <f256main+0x16f8>
     dad: a5 17        	lda	$17                     ; 0x2017 <f256main+0x16fb>
     daf: 69 00        	adc	#$0
     db1: 85 15        	sta	$15                     ; 0x2015 <f256main+0x16f9>
     db3: a0 02        	ldy	#$2
     db5: b1 12        	lda	($12),y                 ; 0x2012 <f256main+0x16f6>
     db7: 85 19        	sta	$19                     ; 0x2019 <f256main+0x16fd>
     db9: 88           	dey
     dba: b1 14        	lda	($14),y                 ; 0x2014 <f256main+0x16f8>
     dbc: d0 09        	bne	$dc7 <f256main+0x4ab>
     dbe: e6 19        	inc	$19                     ; 0x2019 <f256main+0x16fd>
     dc0: c6 19        	dec	$19                     ; 0x2019 <f256main+0x16fd>
     dc2: d0 03        	bne	$dc7 <f256main+0x4ab>
     dc4: 4c 5d 0e     	jmp	$e5d <f256main+0x541>
     dc7: 5a           	phy
     dc8: a4 19        	ldy	$19                     ; 0x2019 <f256main+0x16fd>
     dca: 84 17        	sty	$17                     ; 0x2017 <f256main+0x16fb>
     dcc: 7a           	ply
     dcd: 85 18        	sta	$18                     ; 0x2018 <f256main+0x16fc>
     dcf: b2 12        	lda	($12)                   ; 0x2012 <f256main+0x16f6>
     dd1: 85 19        	sta	$19                     ; 0x2019 <f256main+0x16fd>
     dd3: b1 12        	lda	($12),y                 ; 0x2012 <f256main+0x16f6>
     dd5: 85 1a        	sta	$1a                     ; 0x201a <f256main+0x16fe>
     dd7: 8a           	txa
     dd8: a6 16        	ldx	$16                     ; 0x2016 <f256main+0x16fa>
     dda: 85 14        	sta	$14                     ; 0x2014 <f256main+0x16f8>
     ddc: 0a           	asl
     ddd: 85 12        	sta	$12                     ; 0x2012 <f256main+0x16f6>
     ddf: 86 15        	stx	$15                     ; 0x2015 <f256main+0x16f9>
     de1: 8a           	txa
     de2: 2a           	rol
     de3: 85 13        	sta	$13                     ; 0x2013 <f256main+0x16f7>
     de5: a9 4c        	lda	#$4c
     de7: 18           	clc
     de8: 65 12        	adc	$12                     ; 0x2012 <f256main+0x16f6>
     dea: 85 12        	sta	$12                     ; 0x2012 <f256main+0x16f6>
     dec: a9 8d        	lda	#$8d
     dee: 65 13        	adc	$13                     ; 0x2013 <f256main+0x16f7>
     df0: 85 13        	sta	$13                     ; 0x2013 <f256main+0x16f7>
     df2: b2 12        	lda	($12)                   ; 0x2012 <f256main+0x16f6>
     df4: 85 16        	sta	$16                     ; 0x2016 <f256main+0x16fa>
     df6: b1 12        	lda	($12),y                 ; 0x2012 <f256main+0x16f6>
     df8: a6 19        	ldx	$19                     ; 0x2019 <f256main+0x16fd>
     dfa: 8e 01 d7     	stx	$d701                   ; 0xd701 <__heap_start+0x43fb>
     dfd: a6 1a        	ldx	$1a                     ; 0x201a <f256main+0x16fe>
     dff: 8e 02 d7     	stx	$d702                   ; 0xd702 <__heap_start+0x43fc>
     e02: a6 16        	ldx	$16                     ; 0x2016 <f256main+0x16fa>
     e04: 8e 02 d7     	stx	$d702                   ; 0xd702 <__heap_start+0x43fc>
     e07: 8d 03 d7     	sta	$d703                   ; 0xd703 <__heap_start+0x43fd>
     e0a: 8c 00 d7     	sty	$d700                   ; 0xd700 <__heap_start+0x43fa>
     e0d: 9c 00 d7     	stz	$d700                   ; 0xd700 <__heap_start+0x43fa>
     e10: ae 00 d7     	ldx	$d700                   ; 0xd700 <__heap_start+0x43fa>
     e13: 30 fb        	bmi	$e10 <f256main+0x4f4>
     e15: 5a           	phy
     e16: a6 17        	ldx	$17                     ; 0x2017 <f256main+0x16fb>
     e18: 86 12        	stx	$12                     ; 0x2012 <f256main+0x16f6>
     e1a: a6 18        	ldx	$18                     ; 0x2018 <f256main+0x16fc>
     e1c: 86 13        	stx	$13                     ; 0x2013 <f256main+0x16f7>
     e1e: a2 ff        	ldx	#$ff
     e20: c6 12        	dec	$12                     ; 0x2012 <f256main+0x16f6>
     e22: e4 12        	cpx	$12                     ; 0x2012 <f256main+0x16f6>
     e24: d0 02        	bne	$e28 <f256main+0x50c>
     e26: c6 13        	dec	$13                     ; 0x2013 <f256main+0x16f7>
     e28: a5 14        	lda	$14                     ; 0x2014 <f256main+0x16f8>
     e2a: a6 15        	ldx	$15                     ; 0x2015 <f256main+0x16f9>
     e2c: 1a           	inc
     e2d: d0 01        	bne	$e30 <f256main+0x514>
     e2f: e8           	inx
     e30: a4 12        	ldy	$12                     ; 0x2012 <f256main+0x16f6>
     e32: 84 17        	sty	$17                     ; 0x2017 <f256main+0x16fb>
     e34: a4 13        	ldy	$13                     ; 0x2013 <f256main+0x16f7>
     e36: 84 18        	sty	$18                     ; 0x2018 <f256main+0x16fc>
     e38: 7a           	ply
     e39: e6 13        	inc	$13                     ; 0x2013 <f256main+0x16f7>
     e3b: c6 13        	dec	$13                     ; 0x2013 <f256main+0x16f7>
     e3d: f0 03        	beq	$e42 <f256main+0x526>
     e3f: 4c da 0d     	jmp	$dda <f256main+0x4be>
     e42: e6 12        	inc	$12                     ; 0x2012 <f256main+0x16f6>
     e44: c6 12        	dec	$12                     ; 0x2012 <f256main+0x16f6>
     e46: f0 03        	beq	$e4b <f256main+0x52f>
     e48: 4c da 0d     	jmp	$dda <f256main+0x4be>
     e4b: e0 00        	cpx	#$0
     e4d: d0 07        	bne	$e56 <f256main+0x53a>
     e4f: c9 1c        	cmp	#$1c
     e51: b0 0f        	bcs	$e62 <f256main+0x546>
     e53: 4c 7e 0d     	jmp	$d7e <f256main+0x462>
     e56: e0 00        	cpx	#$0
     e58: b0 08        	bcs	$e62 <f256main+0x546>
     e5a: 4c 7e 0d     	jmp	$d7e <f256main+0x462>
     e5d: 8a           	txa
     e5e: a6 16        	ldx	$16                     ; 0x2016 <f256main+0x16fa>
     e60: 80 e9        	bra	$e4b <f256main+0x52f>
     e62: a5 24        	lda	$24                     ; 0x2024 <f256main+0x1708>
     e64: a0 06        	ldy	#$6
     e66: 91 10        	sta	($10),y                 ; 0x2010 <f256main+0x16f4>
     e68: a5 25        	lda	$25                     ; 0x2025 <f256main+0x1709>
     e6a: c8           	iny
     e6b: 91 10        	sta	($10),y                 ; 0x2010 <f256main+0x16f4>
     e6d: a2 27        	ldx	#$27
     e6f: 86 31        	stx	$31                     ; 0x2031 <f256main+0x1715>
     e71: 64 32        	stz	$32                     ; 0x2032 <f256main+0x1716>
     e73: 8e fd 92     	stx	$92fd                   ; 0x92fd <oldCursorNote>
     e76: 9c fe 92     	stz	$92fe                   ; 0x92fe <oldCursorNote+0x1>
     e79: a6 01        	ldx	$1                      ; 0x2001 <f256main+0x16e5>
     e7b: a0 01        	ldy	#$1
     e7d: 84 01        	sty	$1                      ; 0x2001 <f256main+0x16e5>
     e7f: 9c 20 d2     	stz	$d220                   ; 0xd220 <__heap_start+0x3f1a>
     e82: 9c 21 d2     	stz	$d221                   ; 0xd221 <__heap_start+0x3f1b>
     e85: a9 ff        	lda	#$ff
     e87: 8d 22 d2     	sta	$d222                   ; 0xd222 <__heap_start+0x3f1c>
     e8a: 8d 23 d2     	sta	$d223                   ; 0xd223 <__heap_start+0x3f1d>
     e8d: 86 01        	stx	$1                      ; 0x2001 <f256main+0x16e5>
     e8f: a2 ff        	ldx	#$ff
     e91: 86 2e        	stx	$2e                     ; 0x202e <f256main+0x1712>
     e93: a2 92        	ldx	#$92
     e95: 86 2f        	stx	$2f                     ; 0x202f <f256main+0x1713>
     e97: 64 25        	stz	$25                     ; 0x2025 <f256main+0x1709>
     e99: 64 12        	stz	$12                     ; 0x2012 <f256main+0x16f6>
     e9b: 1a           	inc
     e9c: a0 10        	ldy	#$10
     e9e: 91 10        	sta	($10),y                 ; 0x2010 <f256main+0x16f4>
     ea0: 64 26        	stz	$26                     ; 0x2026 <f256main+0x170a>
     ea2: 88           	dey
     ea3: 91 10        	sta	($10),y                 ; 0x2010 <f256main+0x16f4>
     ea5: a2 90        	ldx	#$90
     ea7: 8a           	txa
     ea8: 88           	dey
     ea9: 91 10        	sta	($10),y                 ; 0x2010 <f256main+0x16f4>
     eab: ad a0 dd     	lda	$dda0                   ; 0xdda0 <__heap_start+0x4a9a>
     eae: 29 02        	and	#$2
     eb0: f0 03        	beq	$eb5 <f256main+0x599>
     eb2: 4c d2 10     	jmp	$10d2 <f256main+0x7b6>
     eb5: ac a2 dd     	ldy	$dda2                   ; 0xdda2 <__heap_start+0x4a9c>
     eb8: ad a3 dd     	lda	$dda3                   ; 0xdda3 <__heap_start+0x4a9d>
     ebb: a6 61        	ldx	$61                     ; 0x2061 <f256main+0x1745>
     ebd: d0 39        	bne	$ef8 <f256main+0x5dc>
     ebf: a2 05        	ldx	#$5
     ec1: 86 33        	stx	$33                     ; 0x2033 <f256main+0x1717>
     ec3: 8e 14 d0     	stx	$d014                   ; 0xd014 <__heap_start+0x3d0e>
     ec6: 9c 15 d0     	stz	$d015                   ; 0xd015 <__heap_start+0x3d0f>
     ec9: ca           	dex
     eca: 86 34        	stx	$34                     ; 0x2034 <f256main+0x1718>
     ecc: 8e 16 d0     	stx	$d016                   ; 0xd016 <__heap_start+0x3d10>
     ecf: 9c 17 d0     	stz	$d017                   ; 0xd017 <__heap_start+0x3d11>
     ed2: a2 a2        	ldx	#$a2
     ed4: 86 12        	stx	$12                     ; 0x2012 <f256main+0x16f6>
     ed6: a2 86        	ldx	#$86
     ed8: 86 13        	stx	$13                     ; 0x2013 <f256main+0x16f7>
     eda: 85 2b        	sta	$2b                     ; 0x202b <f256main+0x170f>
     edc: 84 24        	sty	$24                     ; 0x2024 <f256main+0x1708>
     ede: 20 63 30     	jsr	$3063 <textPrint>
     ee1: a4 24        	ldy	$24                     ; 0x2024 <f256main+0x1708>
     ee3: a5 2b        	lda	$2b                     ; 0x202b <f256main+0x170f>
     ee5: a2 05        	ldx	#$5
     ee7: 86 33        	stx	$33                     ; 0x2033 <f256main+0x1717>
     ee9: 8e 14 d0     	stx	$d014                   ; 0xd014 <__heap_start+0x3d0e>
     eec: 9c 15 d0     	stz	$d015                   ; 0xd015 <__heap_start+0x3d0f>
     eef: ca           	dex
     ef0: 86 34        	stx	$34                     ; 0x2034 <f256main+0x1718>
     ef2: 8e 16 d0     	stx	$d016                   ; 0xd016 <__heap_start+0x3d10>
     ef5: 9c 17 d0     	stz	$d017                   ; 0xd017 <__heap_start+0x3d11>
     ef8: 29 0f        	and	#$f
     efa: d0 07        	bne	$f03 <f256main+0x5e7>
     efc: c0 00        	cpy	#$0
     efe: d0 03        	bne	$f03 <f256main+0x5e7>
     f00: 4c d2 10     	jmp	$10d2 <f256main+0x7b6>
     f03: 84 2b        	sty	$2b                     ; 0x202b <f256main+0x170f>
     f05: a4 25        	ldy	$25                     ; 0x2025 <f256main+0x1709>
     f07: ae a1 dd     	ldx	$dda1                   ; 0xdda1 <__heap_start+0x4a9b>
     f0a: e0 fe        	cpx	#$fe
     f0c: d0 03        	bne	$f11 <f256main+0x5f5>
     f0e: 4c 8f 10     	jmp	$108f <f256main+0x773>
     f11: 86 17        	stx	$17                     ; 0x2017 <f256main+0x16fb>
     f13: a6 26        	ldx	$26                     ; 0x2026 <f256main+0x170a>
     f15: e0 ff        	cpx	#$ff
     f17: d0 02        	bne	$f1b <f256main+0x5ff>
     f19: a2 00        	ldx	#$0
     f1b: e8           	inx
     f1c: c0 00        	cpy	#$0
     f1e: f0 3e        	beq	$f5e <f256main+0x642>
     f20: 85 25        	sta	$25                     ; 0x2025 <f256main+0x1709>
     f22: 86 26        	stx	$26                     ; 0x2026 <f256main+0x170a>
     f24: a6 6a        	ldx	$6a                     ; 0x206a <f256main+0x174e>
     f26: a4 6b        	ldy	$6b                     ; 0x206b <f256main+0x174f>
     f28: 86 12        	stx	$12                     ; 0x2012 <f256main+0x16f6>
     f2a: 84 13        	sty	$13                     ; 0x2013 <f256main+0x16f7>
     f2c: a2 40        	ldx	#$40
     f2e: a5 17        	lda	$17                     ; 0x2017 <f256main+0x16fb>
     f30: c9 40        	cmp	#$40
     f32: 90 01        	bcc	$f35 <f256main+0x619>
     f34: aa           	tax
     f35: a0 05        	ldy	#$5
     f37: b1 12        	lda	($12),y                 ; 0x2012 <f256main+0x16f6>
     f39: 85 18        	sta	$18                     ; 0x2018 <f256main+0x16fc>
     f3b: b2 12        	lda	($12)                   ; 0x2012 <f256main+0x16f6>
     f3d: 85 14        	sta	$14                     ; 0x2014 <f256main+0x16f8>
     f3f: c8           	iny
     f40: b1 12        	lda	($12),y                 ; 0x2012 <f256main+0x16f6>
     f42: 86 13        	stx	$13                     ; 0x2013 <f256main+0x16f7>
     f44: a6 2a        	ldx	$2a                     ; 0x202a <f256main+0x170e>
     f46: 86 12        	stx	$12                     ; 0x2012 <f256main+0x16f6>
     f48: 85 15        	sta	$15                     ; 0x2015 <f256main+0x16f9>
     f4a: 64 16        	stz	$16                     ; 0x2016 <f256main+0x16fa>
     f4c: 64 17        	stz	$17                     ; 0x2017 <f256main+0x16fb>
     f4e: a6 18        	ldx	$18                     ; 0x2018 <f256main+0x16fc>
     f50: a0 10        	ldy	#$10
     f52: b1 10        	lda	($10),y                 ; 0x2010 <f256main+0x16f4>
     f54: 20 1b 32     	jsr	$321b <dispatchNote>
     f57: a0 00        	ldy	#$0
     f59: a5 25        	lda	$25                     ; 0x2025 <f256main+0x1709>
     f5b: 4c 8f 10     	jmp	$108f <f256main+0x773>
     f5e: 48           	pha
     f5f: a0 0f        	ldy	#$f
     f61: b1 10        	lda	($10),y                 ; 0x2010 <f256main+0x16f4>
     f63: a8           	tay
     f64: 68           	pla
     f65: c0 00        	cpy	#$0
     f67: d0 03        	bne	$f6c <f256main+0x650>
     f69: 4c e2 0f     	jmp	$fe2 <f256main+0x6c6>
     f6c: 85 16        	sta	$16                     ; 0x2016 <f256main+0x16fa>
     f6e: 86 26        	stx	$26                     ; 0x2026 <f256main+0x170a>
     f70: 18           	clc
     f71: a5 17        	lda	$17                     ; 0x2017 <f256main+0x16fb>
     f73: 69 ec        	adc	#$ec
     f75: a0 01        	ldy	#$1
     f77: 48           	pha
     f78: 5a           	phy
     f79: a0 10        	ldy	#$10
     f7b: b1 10        	lda	($10),y                 ; 0x2010 <f256main+0x16f4>
     f7d: 7a           	ply
     f7e: aa           	tax
     f7f: 68           	pla
     f80: e0 00        	cpx	#$0
     f82: d0 03        	bne	$f87 <f256main+0x66b>
     f84: 4c 0d 10     	jmp	$100d <f256main+0x6f1>
     f87: a6 17        	ldx	$17                     ; 0x2017 <f256main+0x16fb>
     f89: 86 2a        	stx	$2a                     ; 0x202a <f256main+0x170e>
     f8b: a6 16        	ldx	$16                     ; 0x2016 <f256main+0x16fa>
     f8d: 86 25        	stx	$25                     ; 0x2025 <f256main+0x1709>
     f8f: 85 14        	sta	$14                     ; 0x2014 <f256main+0x16f8>
     f91: 0a           	asl
     f92: 64 12        	stz	$12                     ; 0x2012 <f256main+0x16f6>
     f94: 26 12        	rol	$12                     ; 0x2012 <f256main+0x16f6>
     f96: 0a           	asl
     f97: 85 13        	sta	$13                     ; 0x2013 <f256main+0x16f7>
     f99: 26 12        	rol	$12                     ; 0x2012 <f256main+0x16f6>
     f9b: a9 00        	lda	#$0
     f9d: 18           	clc
     f9e: 65 13        	adc	$13                     ; 0x2013 <f256main+0x16f7>
     fa0: aa           	tax
     fa1: a9 d0        	lda	#$d0
     fa3: 65 12        	adc	$12                     ; 0x2012 <f256main+0x16f6>
     fa5: 86 12        	stx	$12                     ; 0x2012 <f256main+0x16f6>
     fa7: 85 13        	sta	$13                     ; 0x2013 <f256main+0x16f7>
     fa9: a6 01        	ldx	$1                      ; 0x2001 <f256main+0x16e5>
     fab: 84 01        	sty	$1                      ; 0x2001 <f256main+0x16e5>
     fad: a9 ff        	lda	#$ff
     faf: 92 12        	sta	($12)                   ; 0x2012 <f256main+0x16f6>
     fb1: 1a           	inc
     fb2: 91 12        	sta	($12),y                 ; 0x2012 <f256main+0x16f6>
     fb4: a0 02        	ldy	#$2
     fb6: 3a           	dec
     fb7: 91 12        	sta	($12),y                 ; 0x2012 <f256main+0x16f6>
     fb9: c8           	iny
     fba: 91 12        	sta	($12),y                 ; 0x2012 <f256main+0x16f6>
     fbc: 86 01        	stx	$1                      ; 0x2001 <f256main+0x16e5>
     fbe: 64 12        	stz	$12                     ; 0x2012 <f256main+0x16f6>
     fc0: 64 13        	stz	$13                     ; 0x2013 <f256main+0x16f7>
     fc2: a2 00        	ldx	#$0
     fc4: a5 14        	lda	$14                     ; 0x2014 <f256main+0x16f8>
     fc6: 20 7b 40     	jsr	$407b <textPrintUInt>
     fc9: a5 25        	lda	$25                     ; 0x2025 <f256main+0x1709>
     fcb: a0 01        	ldy	#$1
     fcd: a2 01        	ldx	#$1
     fcf: 48           	pha
     fd0: 5a           	phy
     fd1: 8a           	txa
     fd2: a0 10        	ldy	#$10
     fd4: 91 10        	sta	($10),y                 ; 0x2010 <f256main+0x16f4>
     fd6: 64 12        	stz	$12                     ; 0x2012 <f256main+0x16f6>
     fd8: a9 00        	lda	#$0
     fda: 88           	dey
     fdb: 91 10        	sta	($10),y                 ; 0x2010 <f256main+0x16f4>
     fdd: 7a           	ply
     fde: 68           	pla
     fdf: 4c 8f 10     	jmp	$108f <f256main+0x773>
     fe2: 85 16        	sta	$16                     ; 0x2016 <f256main+0x16fa>
     fe4: 86 26        	stx	$26                     ; 0x2026 <f256main+0x170a>
     fe6: a5 17        	lda	$17                     ; 0x2017 <f256main+0x16fb>
     fe8: 29 f0        	and	#$f0
     fea: c9 90        	cmp	#$90
     fec: d0 03        	bne	$ff1 <f256main+0x6d5>
     fee: 4c 78 10     	jmp	$1078 <f256main+0x75c>
     ff1: c9 80        	cmp	#$80
     ff3: f0 03        	beq	$ff8 <f256main+0x6dc>
     ff5: 4c a5 10     	jmp	$10a5 <f256main+0x789>
     ff8: a2 01        	ldx	#$1
     ffa: 8a           	txa
     ffb: a0 0f        	ldy	#$f
     ffd: 91 10        	sta	($10),y                 ; 0x2010 <f256main+0x16f4>
     fff: 64 12        	stz	$12                     ; 0x2012 <f256main+0x16f6>
    1001: a9 00        	lda	#$0
    1003: c8           	iny
    1004: 91 10        	sta	($10),y                 ; 0x2010 <f256main+0x16f4>
    1006: a8           	tay
    1007: a5 17        	lda	$17                     ; 0x2017 <f256main+0x16fb>
    1009: 5a           	phy
    100a: 4c 88 10     	jmp	$1088 <f256main+0x76c>
    100d: 85 14        	sta	$14                     ; 0x2014 <f256main+0x16f8>
    100f: aa           	tax
    1010: bc fb 8b     	ldy	$8bfb,x                 ; 0x8bfb <sidChoiceToVoice+0x5>
    1013: a2 01        	ldx	#$1
    1015: 98           	tya
    1016: f0 02        	beq	$101a <f256main+0x6fe>
    1018: a2 00        	ldx	#$0
    101a: 64 12        	stz	$12                     ; 0x2012 <f256main+0x16f6>
    101c: a0 01        	ldy	#$1
    101e: 64 13        	stz	$13                     ; 0x2013 <f256main+0x16f7>
    1020: 8a           	txa
    1021: d0 02        	bne	$1025 <f256main+0x709>
    1023: 84 13        	sty	$13                     ; 0x2013 <f256main+0x16f7>
    1025: 46 13        	lsr	$13                     ; 0x2013 <f256main+0x16f7>
    1027: 64 13        	stz	$13                     ; 0x2013 <f256main+0x16f7>
    1029: 66 13        	ror	$13                     ; 0x2013 <f256main+0x16f7>
    102b: 10 04        	bpl	$1031 <f256main+0x715>
    102d: a9 ff        	lda	#$ff
    102f: 80 02        	bra	$1033 <f256main+0x717>
    1031: a9 00        	lda	#$0
    1033: 06 13        	asl	$13                     ; 0x2013 <f256main+0x16f7>
    1035: 2a           	rol
    1036: 85 18        	sta	$18                     ; 0x2018 <f256main+0x16fc>
    1038: a5 14        	lda	$14                     ; 0x2014 <f256main+0x16f8>
    103a: 0a           	asl
    103b: 26 12        	rol	$12                     ; 0x2012 <f256main+0x16f6>
    103d: 0a           	asl
    103e: 26 12        	rol	$12                     ; 0x2012 <f256main+0x16f6>
    1040: 64 13        	stz	$13                     ; 0x2013 <f256main+0x16f7>
    1042: 18           	clc
    1043: 65 13        	adc	$13                     ; 0x2013 <f256main+0x16f7>
    1045: 85 14        	sta	$14                     ; 0x2014 <f256main+0x16f8>
    1047: a9 d0        	lda	#$d0
    1049: 65 12        	adc	$12                     ; 0x2012 <f256main+0x16f6>
    104b: 85 15        	sta	$15                     ; 0x2015 <f256main+0x16f9>
    104d: a6 01        	ldx	$1                      ; 0x2001 <f256main+0x16e5>
    104f: a9 01        	lda	#$1
    1051: 85 01        	sta	$1                      ; 0x2001 <f256main+0x16e5>
    1053: a5 18        	lda	$18                     ; 0x2018 <f256main+0x16fc>
    1055: 91 14        	sta	($14),y                 ; 0x2014 <f256main+0x16f8>
    1057: 92 14        	sta	($14)                   ; 0x2014 <f256main+0x16f8>
    1059: a0 02        	ldy	#$2
    105b: 91 14        	sta	($14),y                 ; 0x2014 <f256main+0x16f8>
    105d: a9 ff        	lda	#$ff
    105f: c8           	iny
    1060: 91 14        	sta	($14),y                 ; 0x2014 <f256main+0x16f8>
    1062: 86 01        	stx	$1                      ; 0x2001 <f256main+0x16e5>
    1064: a0 01        	ldy	#$1
    1066: 5a           	phy
    1067: 1a           	inc
    1068: a0 10        	ldy	#$10
    106a: 91 10        	sta	($10),y                 ; 0x2010 <f256main+0x16f4>
    106c: a6 17        	ldx	$17                     ; 0x2017 <f256main+0x16fb>
    106e: 86 2a        	stx	$2a                     ; 0x202a <f256main+0x170e>
    1070: 64 12        	stz	$12                     ; 0x2012 <f256main+0x16f6>
    1072: a9 00        	lda	#$0
    1074: a0 0f        	ldy	#$f
    1076: 80 12        	bra	$108a <f256main+0x76e>
    1078: a2 01        	ldx	#$1
    107a: 8a           	txa
    107b: a0 0f        	ldy	#$f
    107d: 91 10        	sta	($10),y                 ; 0x2010 <f256main+0x16f4>
    107f: a0 00        	ldy	#$0
    1081: 5a           	phy
    1082: a0 10        	ldy	#$10
    1084: 91 10        	sta	($10),y                 ; 0x2010 <f256main+0x16f4>
    1086: a5 17        	lda	$17                     ; 0x2017 <f256main+0x16fb>
    1088: a0 0e        	ldy	#$e
    108a: 91 10        	sta	($10),y                 ; 0x2010 <f256main+0x16f4>
    108c: 7a           	ply
    108d: a5 16        	lda	$16                     ; 0x2016 <f256main+0x16fa>
    108f: a2 ff        	ldx	#$ff
    1091: c6 2b        	dec	$2b                     ; 0x202b <f256main+0x170f>
    1093: e4 2b        	cpx	$2b                     ; 0x202b <f256main+0x170f>
    1095: d0 01        	bne	$1098 <f256main+0x77c>
    1097: 3a           	dec
    1098: aa           	tax
    1099: f0 03        	beq	$109e <f256main+0x782>
    109b: 4c 07 0f     	jmp	$f07 <f256main+0x5eb>
    109e: a6 2b        	ldx	$2b                     ; 0x202b <f256main+0x170f>
    10a0: f0 32        	beq	$10d4 <f256main+0x7b8>
    10a2: 4c 07 0f     	jmp	$f07 <f256main+0x5eb>
    10a5: a5 17        	lda	$17                     ; 0x2017 <f256main+0x16fb>
    10a7: 30 17        	bmi	$10c0 <f256main+0x7a4>
    10a9: a0 0e        	ldy	#$e
    10ab: b1 10        	lda	($10),y                 ; 0x2010 <f256main+0x16f4>
    10ad: 29 f0        	and	#$f0
    10af: c9 80        	cmp	#$80
    10b1: f0 04        	beq	$10b7 <f256main+0x79b>
    10b3: c9 90        	cmp	#$90
    10b5: d0 0d        	bne	$10c4 <f256main+0x7a8>
    10b7: a0 01        	ldy	#$1
    10b9: a2 01        	ldx	#$1
    10bb: 5a           	phy
    10bc: 8a           	txa
    10bd: 4c 68 10     	jmp	$1068 <f256main+0x74c>
    10c0: a0 00        	ldy	#$0
    10c2: 80 06        	bra	$10ca <f256main+0x7ae>
    10c4: a0 01        	ldy	#$1
    10c6: a6 17        	ldx	$17                     ; 0x2017 <f256main+0x16fb>
    10c8: 86 2a        	stx	$2a                     ; 0x202a <f256main+0x170e>
    10ca: 64 12        	stz	$12                     ; 0x2012 <f256main+0x16f6>
    10cc: a9 00        	lda	#$0
    10ce: 5a           	phy
    10cf: 4c 74 10     	jmp	$1074 <f256main+0x758>
    10d2: a4 25        	ldy	$25                     ; 0x2025 <f256main+0x1709>
    10d4: 64 81        	stz	$81                     ; 0x2081 <f256main+0x1765>
    10d6: 18           	clc
    10d7: a5 10        	lda	$10                     ; 0x2010 <f256main+0x16f4>
    10d9: 69 11        	adc	#$11
    10db: 85 12        	sta	$12                     ; 0x2012 <f256main+0x16f6>
    10dd: a5 11        	lda	$11                     ; 0x2011 <f256main+0x16f5>
    10df: 69 00        	adc	#$0
    10e1: 85 13        	sta	$13                     ; 0x2013 <f256main+0x16f7>
    10e3: 20 00 ff     	jsr	$ff00 <__heap_start+0x6bfa>
    10e6: 92 12        	sta	($12)                   ; 0x2012 <f256main+0x16f6>
    10e8: a9 00        	lda	#$0
    10ea: 6a           	ror
    10eb: 85 2e        	sta	$2e                     ; 0x202e <f256main+0x1712>
    10ed: a6 81        	ldx	$81                     ; 0x2081 <f256main+0x1765>
    10ef: e0 08        	cpx	#$8
    10f1: f0 4e        	beq	$1141 <f256main+0x825>
    10f3: 84 25        	sty	$25                     ; 0x2025 <f256main+0x1709>
    10f5: e0 0a        	cpx	#$a
    10f7: f0 2c        	beq	$1125 <f256main+0x809>
    10f9: e0 52        	cpx	#$52
    10fb: f0 03        	beq	$1100 <f256main+0x7e4>
    10fd: 4c ab 0e     	jmp	$eab <f256main+0x58f>
    1100: a6 85        	ldx	$85                     ; 0x2085 <f256main+0x1769>
    1102: d0 03        	bne	$1107 <f256main+0x7eb>
    1104: 4c b7 11     	jmp	$11b7 <f256main+0x89b>
    1107: 18           	clc
    1108: 86 2d        	stx	$2d                     ; 0x202d <f256main+0x1711>
    110a: 8a           	txa
    110b: 69 fa        	adc	#$fa
    110d: aa           	tax
    110e: 85 2b        	sta	$2b                     ; 0x202b <f256main+0x170f>
    1110: a9 00        	lda	#$0
    1112: 69 ff        	adc	#$ff
    1114: 85 2c        	sta	$2c                     ; 0x202c <f256main+0x1710>
    1116: f0 03        	beq	$111b <f256main+0x7ff>
    1118: 4c 18 12     	jmp	$1218 <f256main+0x8fc>
    111b: e0 fa        	cpx	#$fa
    111d: 90 03        	bcc	$1122 <f256main+0x806>
    111f: 4c ab 0e     	jmp	$eab <f256main+0x58f>
    1122: 4c 1f 12     	jmp	$121f <f256main+0x903>
    1125: a6 85        	ldx	$85                     ; 0x2085 <f256main+0x1769>
    1127: e0 01        	cpx	#$1
    1129: d0 03        	bne	$112e <f256main+0x812>
    112b: 4c d4 14     	jmp	$14d4 <f256main+0xbb8>
    112e: e0 20        	cpx	#$20
    1130: d0 03        	bne	$1135 <f256main+0x819>
    1132: 4c a3 14     	jmp	$14a3 <f256main+0xb87>
    1135: e0 05        	cpx	#$5
    1137: f0 03        	beq	$113c <f256main+0x820>
    1139: 4c ab 0e     	jmp	$eab <f256main+0x58f>
    113c: 64 63        	stz	$63                     ; 0x2063 <f256main+0x1747>
    113e: 4c ab 0e     	jmp	$eab <f256main+0x58f>
    1141: a5 85        	lda	$85                     ; 0x2085 <f256main+0x1769>
    1143: 38           	sec
    1144: aa           	tax
    1145: e9 01        	sbc	#$1
    1147: 50 02        	bvc	$114b <f256main+0x82f>
    1149: 49 80        	eor	#$80
    114b: c9 00        	cmp	#$0
    114d: 10 34        	bpl	$1183 <f256main+0x867>
    114f: 38           	sec
    1150: 8a           	txa
    1151: e9 94        	sbc	#$94
    1153: 50 02        	bvc	$1157 <f256main+0x83b>
    1155: 49 80        	eor	#$80
    1157: 84 25        	sty	$25                     ; 0x2025 <f256main+0x1709>
    1159: a8           	tay
    115a: 30 03        	bmi	$115f <f256main+0x843>
    115c: 4c 2f 14     	jmp	$142f <f256main+0xb13>
    115f: 18           	clc
    1160: 8a           	txa
    1161: 69 7f        	adc	#$7f
    1163: c9 07        	cmp	#$7
    1165: 90 03        	bcc	$116a <f256main+0x84e>
    1167: 4c 94 19     	jmp	$1994 <f256main+0x1078>
    116a: 0a           	asl
    116b: aa           	tax
    116c: 7c 13 7e     	jmp	($7e13,x)               ; 0x7e13 <__set_v+0x1>
    116f: a4 61        	ldy	$61                     ; 0x2061 <f256main+0x1745>
    1171: a2 01        	ldx	#$1
    1173: 98           	tya
    1174: f0 02        	beq	$1178 <f256main+0x85c>
    1176: a2 00        	ldx	#$0
    1178: 8a           	txa
    1179: d0 03        	bne	$117e <f256main+0x862>
    117b: 4c cb 1e     	jmp	$1ecb <f256main+0x15af>
    117e: a0 01        	ldy	#$1
    1180: 4c cd 1e     	jmp	$1ecd <f256main+0x15b1>
    1183: 38           	sec
    1184: 8a           	txa
    1185: e9 5d        	sbc	#$5d
    1187: 50 02        	bvc	$118b <f256main+0x86f>
    1189: 49 80        	eor	#$80
    118b: c9 00        	cmp	#$0
    118d: 30 03        	bmi	$1192 <f256main+0x876>
    118f: 4c d9 14     	jmp	$14d9 <f256main+0xbbd>
    1192: 38           	sec
    1193: 8a           	txa
    1194: e9 20        	sbc	#$20
    1196: 50 02        	bvc	$119a <f256main+0x87e>
    1198: 49 80        	eor	#$80
    119a: 84 25        	sty	$25                     ; 0x2025 <f256main+0x1709>
    119c: a8           	tay
    119d: 30 03        	bmi	$11a2 <f256main+0x886>
    119f: 4c d1 16     	jmp	$16d1 <f256main+0xdb5>
    11a2: e0 01        	cpx	#$1
    11a4: d0 03        	bne	$11a9 <f256main+0x88d>
    11a6: 4c 3c 1a     	jmp	$1a3c <f256main+0x1120>
    11a9: e0 05        	cpx	#$5
    11ab: f0 03        	beq	$11b0 <f256main+0x894>
    11ad: 4c ab 0e     	jmp	$eab <f256main+0x58f>
    11b0: a2 01        	ldx	#$1
    11b2: 86 63        	stx	$63                     ; 0x2063 <f256main+0x1747>
    11b4: 4c ab 0e     	jmp	$eab <f256main+0x58f>
    11b7: a2 80        	ldx	#$80
    11b9: 86 f3        	stx	$f3                     ; 0x20f3 <f256main+0x17d7>
    11bb: 18           	clc
    11bc: a5 10        	lda	$10                     ; 0x2010 <f256main+0x16f4>
    11be: 69 1a        	adc	#$1a
    11c0: 85 12        	sta	$12                     ; 0x2012 <f256main+0x16f6>
    11c2: a5 11        	lda	$11                     ; 0x2011 <f256main+0x16f5>
    11c4: 69 00        	adc	#$0
    11c6: 85 13        	sta	$13                     ; 0x2013 <f256main+0x16f7>
    11c8: 20 f0 ff     	jsr	$fff0 <__heap_start+0x6cea>
    11cb: 92 12        	sta	($12)                   ; 0x2012 <f256main+0x16f6>
    11cd: a9 00        	lda	#$0
    11cf: 6a           	ror
    11d0: 85 2e        	sta	$2e                     ; 0x202e <f256main+0x1712>
    11d2: 18           	clc
    11d3: a9 09        	lda	#$9
    11d5: 72 12        	adc	($12)                   ; 0x2012 <f256main+0x16f6>
    11d7: 85 80        	sta	$80                     ; 0x2080 <f256main+0x1764>
    11d9: 64 f3        	stz	$f3                     ; 0x20f3 <f256main+0x17d7>
    11db: a6 80        	ldx	$80                     ; 0x2080 <f256main+0x1764>
    11dd: 86 f4        	stx	$f4                     ; 0x20f4 <f256main+0x17d8>
    11df: 64 f5        	stz	$f5                     ; 0x20f5 <f256main+0x17d9>
    11e1: 18           	clc
    11e2: a5 10        	lda	$10                     ; 0x2010 <f256main+0x16f4>
    11e4: 69 1b        	adc	#$1b
    11e6: 85 12        	sta	$12                     ; 0x2012 <f256main+0x16f6>
    11e8: a5 11        	lda	$11                     ; 0x2011 <f256main+0x16f5>
    11ea: 69 00        	adc	#$0
    11ec: 85 13        	sta	$13                     ; 0x2013 <f256main+0x16f7>
    11ee: 20 f0 ff     	jsr	$fff0 <__heap_start+0x6cea>
    11f1: 92 12        	sta	($12)                   ; 0x2012 <f256main+0x16f6>
    11f3: a9 00        	lda	#$0
    11f5: 6a           	ror
    11f6: 85 2e        	sta	$2e                     ; 0x202e <f256main+0x1712>
    11f8: a2 45        	ldx	#$45
    11fa: 86 33        	stx	$33                     ; 0x2033 <f256main+0x1717>
    11fc: 8e 14 d0     	stx	$d014                   ; 0xd014 <__heap_start+0x3d0e>
    11ff: 9c 15 d0     	stz	$d015                   ; 0xd015 <__heap_start+0x3d0f>
    1202: a2 03        	ldx	#$3
    1204: 86 34        	stx	$34                     ; 0x2034 <f256main+0x1718>
    1206: 8e 16 d0     	stx	$d016                   ; 0xd016 <__heap_start+0x3d10>
    1209: 9c 17 d0     	stz	$d017                   ; 0xd017 <__heap_start+0x3d11>
    120c: a6 65        	ldx	$65                     ; 0x2065 <f256main+0x1749>
    120e: d0 03        	bne	$1213 <f256main+0x8f7>
    1210: 4c e9 15     	jmp	$15e9 <f256main+0xccd>
    1213: a0 90        	ldy	#$90
    1215: 4c eb 15     	jmp	$15eb <f256main+0xccf>
    1218: c9 00        	cmp	#$0
    121a: 90 03        	bcc	$121f <f256main+0x903>
    121c: 4c ab 0e     	jmp	$eab <f256main+0x58f>
    121f: a4 7e        	ldy	$7e                     ; 0x207e <f256main+0x1762>
    1221: a6 7f        	ldx	$7f                     ; 0x207f <f256main+0x1763>
    1223: 84 12        	sty	$12                     ; 0x2012 <f256main+0x16f6>
    1225: 84 1b        	sty	$1b                     ; 0x201b <f256main+0x16ff>
    1227: 86 13        	stx	$13                     ; 0x2013 <f256main+0x16f7>
    1229: 86 19        	stx	$19                     ; 0x2019 <f256main+0x16fd>
    122b: a6 6a        	ldx	$6a                     ; 0x206a <f256main+0x174e>
    122d: a4 6b        	ldy	$6b                     ; 0x206b <f256main+0x174f>
    122f: 86 16        	stx	$16                     ; 0x2016 <f256main+0x16fa>
    1231: 84 17        	sty	$17                     ; 0x2017 <f256main+0x16fb>
    1233: a0 08        	ldy	#$8
    1235: b1 16        	lda	($16),y                 ; 0x2016 <f256main+0x16fa>
    1237: 85 1a        	sta	$1a                     ; 0x201a <f256main+0x16fe>
    1239: 64 14        	stz	$14                     ; 0x2014 <f256main+0x16f8>
    123b: 0a           	asl
    123c: 64 18        	stz	$18                     ; 0x2018 <f256main+0x16fc>
    123e: 26 18        	rol	$18                     ; 0x2018 <f256main+0x16fc>
    1240: 0a           	asl
    1241: 26 18        	rol	$18                     ; 0x2018 <f256main+0x16fc>
    1243: 0a           	asl
    1244: 26 18        	rol	$18                     ; 0x2018 <f256main+0x16fc>
    1246: 0a           	asl
    1247: 26 18        	rol	$18                     ; 0x2018 <f256main+0x16fc>
    1249: 38           	sec
    124a: e5 1a        	sbc	$1a                     ; 0x201a <f256main+0x16fe>
    124c: 85 15        	sta	$15                     ; 0x2015 <f256main+0x16f9>
    124e: a5 18        	lda	$18                     ; 0x2018 <f256main+0x16fc>
    1250: e9 00        	sbc	#$0
    1252: 85 18        	sta	$18                     ; 0x2018 <f256main+0x16fc>
    1254: a5 1b        	lda	$1b                     ; 0x201b <f256main+0x16ff>
    1256: 18           	clc
    1257: 65 15        	adc	$15                     ; 0x2015 <f256main+0x16f9>
    1259: a8           	tay
    125a: a5 19        	lda	$19                     ; 0x2019 <f256main+0x16fd>
    125c: 85 1e        	sta	$1e                     ; 0x201e <f256main+0x1702>
    125e: 65 18        	adc	$18                     ; 0x2018 <f256main+0x16fc>
    1260: 5a           	phy
    1261: fa           	plx
    1262: 84 18        	sty	$18                     ; 0x2018 <f256main+0x16fc>
    1264: a8           	tay
    1265: 85 19        	sta	$19                     ; 0x2019 <f256main+0x16fd>
    1267: b2 18        	lda	($18)                   ; 0x2018 <f256main+0x16fc>
    1269: d0 03        	bne	$126e <f256main+0x952>
    126b: 4c ab 0e     	jmp	$eab <f256main+0x58f>
    126e: 18           	clc
    126f: 8a           	txa
    1270: 69 0b        	adc	#$b
    1272: 85 1c        	sta	$1c                     ; 0x201c <f256main+0x1700>
    1274: 98           	tya
    1275: 69 00        	adc	#$0
    1277: 85 1d        	sta	$1d                     ; 0x201d <f256main+0x1701>
    1279: a0 01        	ldy	#$1
    127b: b1 1c        	lda	($1c),y                 ; 0x201c <f256main+0x1700>
    127d: 85 15        	sta	$15                     ; 0x2015 <f256main+0x16f9>
    127f: 18           	clc
    1280: a5 2d        	lda	$2d                     ; 0x202d <f256main+0x1711>
    1282: a0 0b        	ldy	#$b
    1284: 71 18        	adc	($18),y                 ; 0x2018 <f256main+0x16fc>
    1286: aa           	tax
    1287: a5 15        	lda	$15                     ; 0x2015 <f256main+0x16f9>
    1289: 69 00        	adc	#$0
    128b: 85 15        	sta	$15                     ; 0x2015 <f256main+0x16f9>
    128d: 18           	clc
    128e: 8a           	txa
    128f: 69 fa        	adc	#$fa
    1291: 85 18        	sta	$18                     ; 0x2018 <f256main+0x16fc>
    1293: a5 15        	lda	$15                     ; 0x2015 <f256main+0x16f9>
    1295: 69 ff        	adc	#$ff
    1297: 85 19        	sta	$19                     ; 0x2019 <f256main+0x16fd>
    1299: b2 18        	lda	($18)                   ; 0x2018 <f256main+0x16fc>
    129b: c9 02        	cmp	#$2
    129d: d0 0a        	bne	$12a9 <f256main+0x98d>
    129f: a9 00        	lda	#$0
    12a1: 92 18        	sta	($18)                   ; 0x2018 <f256main+0x16fc>
    12a3: a0 08        	ldy	#$8
    12a5: b1 16        	lda	($16),y                 ; 0x2016 <f256main+0x16fa>
    12a7: 85 1a        	sta	$1a                     ; 0x201a <f256main+0x16fe>
    12a9: a5 1a        	lda	$1a                     ; 0x201a <f256main+0x16fe>
    12ab: 0a           	asl
    12ac: 64 16        	stz	$16                     ; 0x2016 <f256main+0x16fa>
    12ae: 26 16        	rol	$16                     ; 0x2016 <f256main+0x16fa>
    12b0: 0a           	asl
    12b1: 26 16        	rol	$16                     ; 0x2016 <f256main+0x16fa>
    12b3: 0a           	asl
    12b4: 26 16        	rol	$16                     ; 0x2016 <f256main+0x16fa>
    12b6: 0a           	asl
    12b7: 26 16        	rol	$16                     ; 0x2016 <f256main+0x16fa>
    12b9: 38           	sec
    12ba: e5 1a        	sbc	$1a                     ; 0x201a <f256main+0x16fe>
    12bc: 85 15        	sta	$15                     ; 0x2015 <f256main+0x16f9>
    12be: a5 16        	lda	$16                     ; 0x2016 <f256main+0x16fa>
    12c0: e5 14        	sbc	$14                     ; 0x2014 <f256main+0x16f8>
    12c2: 85 14        	sta	$14                     ; 0x2014 <f256main+0x16f8>
    12c4: 18           	clc
    12c5: a5 1b        	lda	$1b                     ; 0x201b <f256main+0x16ff>
    12c7: 65 15        	adc	$15                     ; 0x2015 <f256main+0x16f9>
    12c9: aa           	tax
    12ca: a5 1e        	lda	$1e                     ; 0x201e <f256main+0x1702>
    12cc: 65 14        	adc	$14                     ; 0x2014 <f256main+0x16f8>
    12ce: 86 14        	stx	$14                     ; 0x2014 <f256main+0x16f8>
    12d0: 85 15        	sta	$15                     ; 0x2015 <f256main+0x16f9>
    12d2: a8           	tay
    12d3: 18           	clc
    12d4: 8a           	txa
    12d5: 69 0b        	adc	#$b
    12d7: 85 16        	sta	$16                     ; 0x2016 <f256main+0x16fa>
    12d9: 98           	tya
    12da: 69 00        	adc	#$0
    12dc: 85 17        	sta	$17                     ; 0x2017 <f256main+0x16fb>
    12de: a0 01        	ldy	#$1
    12e0: b1 16        	lda	($16),y                 ; 0x2016 <f256main+0x16fa>
    12e2: 85 17        	sta	$17                     ; 0x2017 <f256main+0x16fb>
    12e4: 18           	clc
    12e5: a5 2d        	lda	$2d                     ; 0x202d <f256main+0x1711>
    12e7: 85 16        	sta	$16                     ; 0x2016 <f256main+0x16fa>
    12e9: a0 0b        	ldy	#$b
    12eb: 71 14        	adc	($14),y                 ; 0x2014 <f256main+0x16f8>
    12ed: aa           	tax
    12ee: a5 17        	lda	$17                     ; 0x2017 <f256main+0x16fb>
    12f0: 69 00        	adc	#$0
    12f2: 85 14        	sta	$14                     ; 0x2014 <f256main+0x16f8>
    12f4: 18           	clc
    12f5: 8a           	txa
    12f6: 69 fa        	adc	#$fa
    12f8: aa           	tax
    12f9: a5 14        	lda	$14                     ; 0x2014 <f256main+0x16f8>
    12fb: 69 ff        	adc	#$ff
    12fd: 85 15        	sta	$15                     ; 0x2015 <f256main+0x16f9>
    12ff: 86 14        	stx	$14                     ; 0x2014 <f256main+0x16f8>
    1301: a5 2b        	lda	$2b                     ; 0x202b <f256main+0x170f>
    1303: 0a           	asl
    1304: 85 17        	sta	$17                     ; 0x2017 <f256main+0x16fb>
    1306: a5 2c        	lda	$2c                     ; 0x202c <f256main+0x1710>
    1308: 2a           	rol
    1309: 85 18        	sta	$18                     ; 0x2018 <f256main+0x16fc>
    130b: b2 14        	lda	($14)                   ; 0x2014 <f256main+0x16f8>
    130d: c9 01        	cmp	#$1
    130f: f0 03        	beq	$1314 <f256main+0x9f8>
    1311: 4c 69 17     	jmp	$1769 <f256main+0xe4d>
    1314: a2 80        	ldx	#$80
    1316: 86 f3        	stx	$f3                     ; 0x20f3 <f256main+0x17d7>
    1318: 18           	clc
    1319: a5 10        	lda	$10                     ; 0x2010 <f256main+0x16f4>
    131b: 69 1c        	adc	#$1c
    131d: 85 12        	sta	$12                     ; 0x2012 <f256main+0x16f6>
    131f: a5 11        	lda	$11                     ; 0x2011 <f256main+0x16f5>
    1321: 69 00        	adc	#$0
    1323: 85 13        	sta	$13                     ; 0x2013 <f256main+0x16f7>
    1325: 20 f0 ff     	jsr	$fff0 <__heap_start+0x6cea>
    1328: 92 12        	sta	($12)                   ; 0x2012 <f256main+0x16f6>
    132a: a9 00        	lda	#$0
    132c: 6a           	ror
    132d: 85 2e        	sta	$2e                     ; 0x202e <f256main+0x1712>
    132f: b2 12        	lda	($12)                   ; 0x2012 <f256main+0x16f6>
    1331: 85 12        	sta	$12                     ; 0x2012 <f256main+0x16f6>
    1333: b2 28        	lda	($28)                   ; 0x2028 <f256main+0x170c>
    1335: aa           	tax
    1336: 18           	clc
    1337: a5 12        	lda	$12                     ; 0x2012 <f256main+0x16f6>
    1339: 75 6c        	adc	$6c,x                   ; 0x206c <f256main+0x1750>
    133b: 85 19        	sta	$19                     ; 0x2019 <f256main+0x16fd>
    133d: a6 6a        	ldx	$6a                     ; 0x206a <f256main+0x174e>
    133f: a4 6b        	ldy	$6b                     ; 0x206b <f256main+0x174f>
    1341: 86 12        	stx	$12                     ; 0x2012 <f256main+0x16f6>
    1343: 84 13        	sty	$13                     ; 0x2013 <f256main+0x16f7>
    1345: a0 08        	ldy	#$8
    1347: b1 12        	lda	($12),y                 ; 0x2012 <f256main+0x16f6>
    1349: 85 12        	sta	$12                     ; 0x2012 <f256main+0x16f6>
    134b: 0a           	asl
    134c: aa           	tax
    134d: a9 00        	lda	#$0
    134f: 2a           	rol
    1350: 86 13        	stx	$13                     ; 0x2013 <f256main+0x16f7>
    1352: 06 13        	asl	$13                     ; 0x2013 <f256main+0x16f7>
    1354: 2a           	rol
    1355: 06 13        	asl	$13                     ; 0x2013 <f256main+0x16f7>
    1357: 2a           	rol
    1358: 06 13        	asl	$13                     ; 0x2013 <f256main+0x16f7>
    135a: 2a           	rol
    135b: aa           	tax
    135c: 38           	sec
    135d: a5 13        	lda	$13                     ; 0x2013 <f256main+0x16f7>
    135f: e5 12        	sbc	$12                     ; 0x2012 <f256main+0x16f6>
    1361: 85 12        	sta	$12                     ; 0x2012 <f256main+0x16f6>
    1363: 8a           	txa
    1364: e9 00        	sbc	#$0
    1366: a8           	tay
    1367: 18           	clc
    1368: a5 12        	lda	$12                     ; 0x2012 <f256main+0x16f6>
    136a: 65 7e        	adc	$7e                     ; 0x207e <f256main+0x1762>
    136c: aa           	tax
    136d: 98           	tya
    136e: 65 7f        	adc	$7f                     ; 0x207f <f256main+0x1763>
    1370: 86 12        	stx	$12                     ; 0x2012 <f256main+0x16f6>
    1372: 85 13        	sta	$13                     ; 0x2013 <f256main+0x16f7>
    1374: a8           	tay
    1375: 18           	clc
    1376: 8a           	txa
    1377: 69 0d        	adc	#$d
    1379: 85 14        	sta	$14                     ; 0x2014 <f256main+0x16f8>
    137b: 98           	tya
    137c: 69 00        	adc	#$0
    137e: 85 15        	sta	$15                     ; 0x2015 <f256main+0x16f9>
    1380: 18           	clc
    1381: a5 17        	lda	$17                     ; 0x2017 <f256main+0x16fb>
    1383: 65 2b        	adc	$2b                     ; 0x202b <f256main+0x170f>
    1385: aa           	tax
    1386: a5 18        	lda	$18                     ; 0x2018 <f256main+0x16fc>
    1388: 65 2c        	adc	$2c                     ; 0x202c <f256main+0x1710>
    138a: 85 17        	sta	$17                     ; 0x2017 <f256main+0x16fb>
    138c: 18           	clc
    138d: a0 0d        	ldy	#$d
    138f: 8a           	txa
    1390: 71 12        	adc	($12),y                 ; 0x2012 <f256main+0x16f6>
    1392: 85 12        	sta	$12                     ; 0x2012 <f256main+0x16f6>
    1394: a0 01        	ldy	#$1
    1396: a5 17        	lda	$17                     ; 0x2017 <f256main+0x16fb>
    1398: 71 14        	adc	($14),y                 ; 0x2014 <f256main+0x16f8>
    139a: 85 13        	sta	$13                     ; 0x2013 <f256main+0x16f7>
    139c: a5 19        	lda	$19                     ; 0x2019 <f256main+0x16fd>
    139e: 91 12        	sta	($12),y                 ; 0x2012 <f256main+0x16f6>
    13a0: b2 12        	lda	($12)                   ; 0x2012 <f256main+0x16f6>
    13a2: 85 f3        	sta	$f3                     ; 0x20f3 <f256main+0x17d7>
    13a4: b1 12        	lda	($12),y                 ; 0x2012 <f256main+0x16f6>
    13a6: 85 f4        	sta	$f4                     ; 0x20f4 <f256main+0x17d8>
    13a8: c8           	iny
    13a9: b1 12        	lda	($12),y                 ; 0x2012 <f256main+0x16f6>
    13ab: 85 f5        	sta	$f5                     ; 0x20f5 <f256main+0x17d9>
    13ad: 18           	clc
    13ae: a5 10        	lda	$10                     ; 0x2010 <f256main+0x16f4>
    13b0: 69 1d        	adc	#$1d
    13b2: 85 12        	sta	$12                     ; 0x2012 <f256main+0x16f6>
    13b4: a5 11        	lda	$11                     ; 0x2011 <f256main+0x16f5>
    13b6: 69 00        	adc	#$0
    13b8: 85 13        	sta	$13                     ; 0x2013 <f256main+0x16f7>
    13ba: 20 f0 ff     	jsr	$fff0 <__heap_start+0x6cea>
    13bd: 92 12        	sta	($12)                   ; 0x2012 <f256main+0x16f6>
    13bf: a9 00        	lda	#$0
    13c1: 6a           	ror
    13c2: 85 2e        	sta	$2e                     ; 0x202e <f256main+0x1712>
    13c4: a6 6a        	ldx	$6a                     ; 0x206a <f256main+0x174e>
    13c6: a4 6b        	ldy	$6b                     ; 0x206b <f256main+0x174f>
    13c8: 86 12        	stx	$12                     ; 0x2012 <f256main+0x16f6>
    13ca: 84 13        	sty	$13                     ; 0x2013 <f256main+0x16f7>
    13cc: a0 08        	ldy	#$8
    13ce: b1 12        	lda	($12),y                 ; 0x2012 <f256main+0x16f6>
    13d0: 85 12        	sta	$12                     ; 0x2012 <f256main+0x16f6>
    13d2: 0a           	asl
    13d3: aa           	tax
    13d4: a9 00        	lda	#$0
    13d6: 2a           	rol
    13d7: 86 13        	stx	$13                     ; 0x2013 <f256main+0x16f7>
    13d9: 06 13        	asl	$13                     ; 0x2013 <f256main+0x16f7>
    13db: 2a           	rol
    13dc: 06 13        	asl	$13                     ; 0x2013 <f256main+0x16f7>
    13de: 2a           	rol
    13df: 06 13        	asl	$13                     ; 0x2013 <f256main+0x16f7>
    13e1: 2a           	rol
    13e2: aa           	tax
    13e3: 38           	sec
    13e4: a5 13        	lda	$13                     ; 0x2013 <f256main+0x16f7>
    13e6: e5 12        	sbc	$12                     ; 0x2012 <f256main+0x16f6>
    13e8: 85 12        	sta	$12                     ; 0x2012 <f256main+0x16f6>
    13ea: 8a           	txa
    13eb: e9 00        	sbc	#$0
    13ed: a8           	tay
    13ee: 18           	clc
    13ef: a5 12        	lda	$12                     ; 0x2012 <f256main+0x16f6>
    13f1: 65 7e        	adc	$7e                     ; 0x207e <f256main+0x1762>
    13f3: aa           	tax
    13f4: 98           	tya
    13f5: 65 7f        	adc	$7f                     ; 0x207f <f256main+0x1763>
    13f7: 86 12        	stx	$12                     ; 0x2012 <f256main+0x16f6>
    13f9: 85 13        	sta	$13                     ; 0x2013 <f256main+0x16f7>
    13fb: a8           	tay
    13fc: 18           	clc
    13fd: 8a           	txa
    13fe: 69 0b        	adc	#$b
    1400: 85 14        	sta	$14                     ; 0x2014 <f256main+0x16f8>
    1402: 98           	tya
    1403: 69 00        	adc	#$0
    1405: 85 15        	sta	$15                     ; 0x2015 <f256main+0x16f9>
    1407: a0 01        	ldy	#$1
    1409: b1 14        	lda	($14),y                 ; 0x2014 <f256main+0x16f8>
    140b: 85 14        	sta	$14                     ; 0x2014 <f256main+0x16f8>
    140d: 18           	clc
    140e: a5 16        	lda	$16                     ; 0x2016 <f256main+0x16fa>
    1410: a0 0b        	ldy	#$b
    1412: 71 12        	adc	($12),y                 ; 0x2012 <f256main+0x16f6>
    1414: aa           	tax
    1415: a5 14        	lda	$14                     ; 0x2014 <f256main+0x16f8>
    1417: 69 00        	adc	#$0
    1419: 85 12        	sta	$12                     ; 0x2012 <f256main+0x16f6>
    141b: 18           	clc
    141c: 8a           	txa
    141d: 69 fa        	adc	#$fa
    141f: aa           	tax
    1420: a5 12        	lda	$12                     ; 0x2012 <f256main+0x16f6>
    1422: 69 ff        	adc	#$ff
    1424: 85 13        	sta	$13                     ; 0x2013 <f256main+0x16f7>
    1426: 86 12        	stx	$12                     ; 0x2012 <f256main+0x16f6>
    1428: a9 02        	lda	#$2
    142a: 92 12        	sta	($12)                   ; 0x2012 <f256main+0x16f6>
    142c: 4c ab 0e     	jmp	$eab <f256main+0x58f>
    142f: 18           	clc
    1430: 8a           	txa
    1431: 69 4a        	adc	#$4a
    1433: c9 04        	cmp	#$4
    1435: 90 03        	bcc	$143a <f256main+0xb1e>
    1437: 4c 58 19     	jmp	$1958 <f256main+0x103c>
    143a: 0a           	asl
    143b: aa           	tax
    143c: 7c 21 7e     	jmp	($7e21,x)               ; 0x7e21 <__set_v+0xf>
    143f: a6 61        	ldx	$61                     ; 0x2061 <f256main+0x1745>
    1441: a4 6a        	ldy	$6a                     ; 0x206a <f256main+0x174e>
    1443: a5 6b        	lda	$6b                     ; 0x206b <f256main+0x174f>
    1445: 84 12        	sty	$12                     ; 0x2012 <f256main+0x16f6>
    1447: 85 13        	sta	$13                     ; 0x2013 <f256main+0x16f7>
    1449: a0 06        	ldy	#$6
    144b: b1 12        	lda	($12),y                 ; 0x2012 <f256main+0x16f6>
    144d: e0 00        	cpx	#$0
    144f: d0 03        	bne	$1454 <f256main+0xb38>
    1451: 4c ed 25     	jmp	$25ed <f256main+0x1cd1>
    1454: aa           	tax
    1455: f0 03        	beq	$145a <f256main+0xb3e>
    1457: 4c 07 29     	jmp	$2907 <f256main+0x1feb>
    145a: a6 12        	ldx	$12                     ; 0x2012 <f256main+0x16f6>
    145c: 86 14        	stx	$14                     ; 0x2014 <f256main+0x16f8>
    145e: a6 13        	ldx	$13                     ; 0x2013 <f256main+0x16f7>
    1460: 86 15        	stx	$15                     ; 0x2015 <f256main+0x16f9>
    1462: e6 14        	inc	$14                     ; 0x2014 <f256main+0x16f8>
    1464: d0 02        	bne	$1468 <f256main+0xb4c>
    1466: e6 15        	inc	$15                     ; 0x2015 <f256main+0x16f9>
    1468: a5 64        	lda	$64                     ; 0x2064 <f256main+0x1748>
    146a: 29 01        	and	#$1
    146c: a2 1d        	ldx	#$1d
    146e: a0 00        	ldy	#$0
    1470: c9 00        	cmp	#$0
    1472: d0 02        	bne	$1476 <f256main+0xb5a>
    1474: a2 02        	ldx	#$2
    1476: a9 01        	lda	#$1
    1478: 25 64        	and	$64                     ; 0x2064 <f256main+0x1748>
    147a: 85 17        	sta	$17                     ; 0x2017 <f256main+0x16fb>
    147c: 98           	tya
    147d: f0 03        	beq	$1482 <f256main+0xb66>
    147f: 4c 4a 28     	jmp	$284a <f256main+0x1f2e>
    1482: a0 01        	ldy	#$1
    1484: b1 12        	lda	($12),y                 ; 0x2012 <f256main+0x16f6>
    1486: 85 16        	sta	$16                     ; 0x2016 <f256main+0x16fa>
    1488: b1 14        	lda	($14),y                 ; 0x2014 <f256main+0x16f8>
    148a: a4 16        	ldy	$16                     ; 0x2016 <f256main+0x16fa>
    148c: 84 14        	sty	$14                     ; 0x2014 <f256main+0x16f8>
    148e: 85 15        	sta	$15                     ; 0x2015 <f256main+0x16f9>
    1490: a0 05        	ldy	#$5
    1492: b1 12        	lda	($12),y                 ; 0x2012 <f256main+0x16f6>
    1494: a8           	tay
    1495: b1 14        	lda	($14),y                 ; 0x2014 <f256main+0x16f8>
    1497: 85 14        	sta	$14                     ; 0x2014 <f256main+0x16f8>
    1499: e4 14        	cpx	$14                     ; 0x2014 <f256main+0x16f8>
    149b: 90 03        	bcc	$14a0 <f256main+0xb84>
    149d: 4c ab 0e     	jmp	$eab <f256main+0x58f>
    14a0: 4c 51 28     	jmp	$2851 <f256main+0x1f35>
    14a3: a6 6a        	ldx	$6a                     ; 0x206a <f256main+0x174e>
    14a5: a4 6b        	ldy	$6b                     ; 0x206b <f256main+0x174f>
    14a7: 86 12        	stx	$12                     ; 0x2012 <f256main+0x16f6>
    14a9: 84 13        	sty	$13                     ; 0x2013 <f256main+0x16f7>
    14ab: a0 05        	ldy	#$5
    14ad: b1 12        	lda	($12),y                 ; 0x2012 <f256main+0x16f6>
    14af: 85 18        	sta	$18                     ; 0x2018 <f256main+0x16fc>
    14b1: 18           	clc
    14b2: a9 15        	lda	#$15
    14b4: 65 31        	adc	$31                     ; 0x2031 <f256main+0x1715>
    14b6: aa           	tax
    14b7: b2 12        	lda	($12)                   ; 0x2012 <f256main+0x16f6>
    14b9: 85 14        	sta	$14                     ; 0x2014 <f256main+0x16f8>
    14bb: c8           	iny
    14bc: b1 12        	lda	($12),y                 ; 0x2012 <f256main+0x16f6>
    14be: 86 12        	stx	$12                     ; 0x2012 <f256main+0x16f6>
    14c0: a2 3f        	ldx	#$3f
    14c2: 86 13        	stx	$13                     ; 0x2013 <f256main+0x16f7>
    14c4: 85 15        	sta	$15                     ; 0x2015 <f256main+0x16f9>
    14c6: 64 16        	stz	$16                     ; 0x2016 <f256main+0x16fa>
    14c8: 64 17        	stz	$17                     ; 0x2017 <f256main+0x16fb>
    14ca: a6 18        	ldx	$18                     ; 0x2018 <f256main+0x16fc>
    14cc: a9 00        	lda	#$0
    14ce: 20 1b 32     	jsr	$321b <dispatchNote>
    14d1: 4c ab 0e     	jmp	$eab <f256main+0x58f>
    14d4: 64 64        	stz	$64                     ; 0x2064 <f256main+0x1748>
    14d6: 4c ab 0e     	jmp	$eab <f256main+0x58f>
    14d9: 38           	sec
    14da: 8a           	txa
    14db: e9 6d        	sbc	#$6d
    14dd: 50 02        	bvc	$14e1 <f256main+0xbc5>
    14df: 49 80        	eor	#$80
    14e1: 84 25        	sty	$25                     ; 0x2025 <f256main+0x1709>
    14e3: a8           	tay
    14e4: 30 03        	bmi	$14e9 <f256main+0xbcd>
    14e6: 4c 33 17     	jmp	$1733 <f256main+0xe17>
    14e9: e0 5d        	cpx	#$5d
    14eb: d0 03        	bne	$14f0 <f256main+0xbd4>
    14ed: 4c 43 1a     	jmp	$1a43 <f256main+0x1127>
    14f0: e0 63        	cpx	#$63
    14f2: f0 03        	beq	$14f7 <f256main+0xbdb>
    14f4: 4c ab 0e     	jmp	$eab <f256main+0x58f>
    14f7: a6 61        	ldx	$61                     ; 0x2061 <f256main+0x1745>
    14f9: f0 03        	beq	$14fe <f256main+0xbe2>
    14fb: 4c ab 0e     	jmp	$eab <f256main+0x58f>
    14fe: a6 6a        	ldx	$6a                     ; 0x206a <f256main+0x174e>
    1500: a4 6b        	ldy	$6b                     ; 0x206b <f256main+0x174f>
    1502: 86 12        	stx	$12                     ; 0x2012 <f256main+0x16f6>
    1504: 84 13        	sty	$13                     ; 0x2013 <f256main+0x16f7>
    1506: a0 06        	ldy	#$6
    1508: b1 12        	lda	($12),y                 ; 0x2012 <f256main+0x16f6>
    150a: aa           	tax
    150b: 1a           	inc
    150c: 91 12        	sta	($12),y                 ; 0x2012 <f256main+0x16f6>
    150e: e0 00        	cpx	#$0
    1510: d0 15        	bne	$1527 <f256main+0xc0b>
    1512: a9 00        	lda	#$0
    1514: 20 da 42     	jsr	$42da <sid_setInstrumentAllChannels>
    1517: 64 65        	stz	$65                     ; 0x2065 <f256main+0x1749>
    1519: 64 66        	stz	$66                     ; 0x2066 <f256main+0x174a>
    151b: a6 6a        	ldx	$6a                     ; 0x206a <f256main+0x174e>
    151d: a4 6b        	ldy	$6b                     ; 0x206b <f256main+0x174f>
    151f: 86 12        	stx	$12                     ; 0x2012 <f256main+0x16f6>
    1521: 84 13        	sty	$13                     ; 0x2013 <f256main+0x16f7>
    1523: a0 06        	ldy	#$6
    1525: b1 12        	lda	($12),y                 ; 0x2012 <f256main+0x16f6>
    1527: c9 02        	cmp	#$2
    1529: d0 48        	bne	$1573 <f256main+0xc57>
    152b: a2 d4        	ldx	#$d4
    152d: a0 00        	ldy	#$0
    152f: 98           	tya
    1530: 18           	clc
    1531: 69 00        	adc	#$0
    1533: 85 14        	sta	$14                     ; 0x2014 <f256main+0x16f8>
    1535: 8a           	txa
    1536: 69 01        	adc	#$1
    1538: 85 15        	sta	$15                     ; 0x2015 <f256main+0x16f9>
    153a: 84 12        	sty	$12                     ; 0x2012 <f256main+0x16f6>
    153c: 86 13        	stx	$13                     ; 0x2013 <f256main+0x16f7>
    153e: a9 00        	lda	#$0
    1540: 92 12        	sta	($12)                   ; 0x2012 <f256main+0x16f6>
    1542: 5a           	phy
    1543: a4 14        	ldy	$14                     ; 0x2014 <f256main+0x16f8>
    1545: 84 12        	sty	$12                     ; 0x2012 <f256main+0x16f6>
    1547: a4 15        	ldy	$15                     ; 0x2015 <f256main+0x16f9>
    1549: 84 13        	sty	$13                     ; 0x2013 <f256main+0x16f7>
    154b: 7a           	ply
    154c: 92 12        	sta	($12)                   ; 0x2012 <f256main+0x16f6>
    154e: c8           	iny
    154f: d0 01        	bne	$1552 <f256main+0xc36>
    1551: e8           	inx
    1552: c0 19        	cpy	#$19
    1554: d0 d9        	bne	$152f <f256main+0xc13>
    1556: a2 43        	ldx	#$43
    1558: 86 12        	stx	$12                     ; 0x2012 <f256main+0x16f6>
    155a: a2 00        	ldx	#$0
    155c: 86 13        	stx	$13                     ; 0x2013 <f256main+0x16f7>
    155e: 64 14        	stz	$14                     ; 0x2014 <f256main+0x16f8>
    1560: a2 06        	ldx	#$6
    1562: 20 02 69     	jsr	$6902 <__memset>
    1565: 64 67        	stz	$67                     ; 0x2067 <f256main+0x174b>
    1567: a6 6a        	ldx	$6a                     ; 0x206a <f256main+0x174e>
    1569: a4 6b        	ldy	$6b                     ; 0x206b <f256main+0x174f>
    156b: 86 12        	stx	$12                     ; 0x2012 <f256main+0x16f6>
    156d: 84 13        	sty	$13                     ; 0x2013 <f256main+0x16f7>
    156f: a0 06        	ldy	#$6
    1571: b1 12        	lda	($12),y                 ; 0x2012 <f256main+0x16f6>
    1573: c9 03        	cmp	#$3
    1575: d0 3a        	bne	$15b1 <f256main+0xc95>
    1577: a2 37        	ldx	#$37
    1579: 86 12        	stx	$12                     ; 0x2012 <f256main+0x16f6>
    157b: a2 00        	ldx	#$0
    157d: 86 13        	stx	$13                     ; 0x2013 <f256main+0x16f7>
    157f: 64 14        	stz	$14                     ; 0x2014 <f256main+0x16f8>
    1581: a2 06        	ldx	#$6
    1583: a9 00        	lda	#$0
    1585: 20 02 69     	jsr	$6902 <__memset>
    1588: a2 ff        	ldx	#$ff
    158a: a0 10        	ldy	#$10
    158c: 98           	tya
    158d: 09 9f        	ora	#$9f
    158f: 8d 00 d6     	sta	$d600                   ; 0xd600 <__heap_start+0x42fa>
    1592: 8d 10 d6     	sta	$d610                   ; 0xd610 <__heap_start+0x430a>
    1595: 8a           	txa
    1596: 18           	clc
    1597: 69 02        	adc	#$2
    1599: aa           	tax
    159a: 18           	clc
    159b: 98           	tya
    159c: 69 20        	adc	#$20
    159e: a8           	tay
    159f: e0 06        	cpx	#$6
    15a1: 90 e9        	bcc	$158c <f256main+0xc70>
    15a3: 64 68        	stz	$68                     ; 0x2068 <f256main+0x174c>
    15a5: a6 6a        	ldx	$6a                     ; 0x206a <f256main+0x174e>
    15a7: a4 6b        	ldy	$6b                     ; 0x206b <f256main+0x174f>
    15a9: 86 12        	stx	$12                     ; 0x2012 <f256main+0x16f6>
    15ab: 84 13        	sty	$13                     ; 0x2013 <f256main+0x16f7>
    15ad: a0 06        	ldy	#$6
    15af: b1 12        	lda	($12),y                 ; 0x2012 <f256main+0x16f6>
    15b1: c9 04        	cmp	#$4
    15b3: 90 2e        	bcc	$15e3 <f256main+0xcc7>
    15b5: a2 b0        	ldx	#$b0
    15b7: 8e 80 d5     	stx	$d580                   ; 0xd580 <__heap_start+0x427a>
    15ba: 9c 81 d5     	stz	$d581                   ; 0xd581 <__heap_start+0x427b>
    15bd: e8           	inx
    15be: e0 b9        	cpx	#$b9
    15c0: d0 f5        	bne	$15b7 <f256main+0xc9b>
    15c2: a2 4f        	ldx	#$4f
    15c4: 86 12        	stx	$12                     ; 0x2012 <f256main+0x16f6>
    15c6: a2 00        	ldx	#$0
    15c8: 86 13        	stx	$13                     ; 0x2013 <f256main+0x16f7>
    15ca: 64 14        	stz	$14                     ; 0x2014 <f256main+0x16f8>
    15cc: a9 00        	lda	#$0
    15ce: a2 09        	ldx	#$9
    15d0: 20 02 69     	jsr	$6902 <__memset>
    15d3: a6 6a        	ldx	$6a                     ; 0x206a <f256main+0x174e>
    15d5: a4 6b        	ldy	$6b                     ; 0x206b <f256main+0x174f>
    15d7: 86 12        	stx	$12                     ; 0x2012 <f256main+0x16f6>
    15d9: 84 13        	sty	$13                     ; 0x2013 <f256main+0x16f7>
    15db: a0 06        	ldy	#$6
    15dd: a9 00        	lda	#$0
    15df: 91 12        	sta	($12),y                 ; 0x2012 <f256main+0x16f6>
    15e1: 64 69        	stz	$69                     ; 0x2069 <f256main+0x174d>
    15e3: 20 51 4f     	jsr	$4f51 <showChipChoiceText>
    15e6: 4c ab 0e     	jmp	$eab <f256main+0x58f>
    15e9: a0 40        	ldy	#$40
    15eb: 84 30        	sty	$30                     ; 0x2030 <f256main+0x1714>
    15ed: a0 b3        	ldy	#$b3
    15ef: 8a           	txa
    15f0: f0 02        	beq	$15f4 <f256main+0xcd8>
    15f2: a0 b4        	ldy	#$b4
    15f4: 84 35        	sty	$35                     ; 0x2035 <f256main+0x1719>
    15f6: a2 35        	ldx	#$35
    15f8: 86 12        	stx	$12                     ; 0x2012 <f256main+0x16f6>
    15fa: a2 00        	ldx	#$0
    15fc: 86 13        	stx	$13                     ; 0x2013 <f256main+0x16f7>
    15fe: 20 63 30     	jsr	$3063 <textPrint>
    1601: a2 45        	ldx	#$45
    1603: 86 33        	stx	$33                     ; 0x2033 <f256main+0x1717>
    1605: 8e 14 d0     	stx	$d014                   ; 0xd014 <__heap_start+0x3d0e>
    1608: 9c 15 d0     	stz	$d015                   ; 0xd015 <__heap_start+0x3d0f>
    160b: a2 04        	ldx	#$4
    160d: 86 34        	stx	$34                     ; 0x2034 <f256main+0x1718>
    160f: 8e 16 d0     	stx	$d016                   ; 0xd016 <__heap_start+0x3d10>
    1612: 9c 17 d0     	stz	$d017                   ; 0xd017 <__heap_start+0x3d11>
    1615: a4 66        	ldy	$66                     ; 0x2066 <f256main+0x174a>
    1617: a2 40        	ldx	#$40
    1619: a9 b3        	lda	#$b3
    161b: c0 00        	cpy	#$0
    161d: f0 04        	beq	$1623 <f256main+0xd07>
    161f: a9 b4        	lda	#$b4
    1621: a2 90        	ldx	#$90
    1623: 86 30        	stx	$30                     ; 0x2030 <f256main+0x1714>
    1625: 85 35        	sta	$35                     ; 0x2035 <f256main+0x1719>
    1627: a2 35        	ldx	#$35
    1629: 86 12        	stx	$12                     ; 0x2012 <f256main+0x16f6>
    162b: a2 00        	ldx	#$0
    162d: 86 13        	stx	$13                     ; 0x2013 <f256main+0x16f7>
    162f: 20 63 30     	jsr	$3063 <textPrint>
    1632: a2 45        	ldx	#$45
    1634: 86 33        	stx	$33                     ; 0x2033 <f256main+0x1717>
    1636: 8e 14 d0     	stx	$d014                   ; 0xd014 <__heap_start+0x3d0e>
    1639: 9c 15 d0     	stz	$d015                   ; 0xd015 <__heap_start+0x3d0f>
    163c: a2 05        	ldx	#$5
    163e: 86 34        	stx	$34                     ; 0x2034 <f256main+0x1718>
    1640: 8e 16 d0     	stx	$d016                   ; 0xd016 <__heap_start+0x3d10>
    1643: 9c 17 d0     	stz	$d017                   ; 0xd017 <__heap_start+0x3d11>
    1646: a6 67        	ldx	$67                     ; 0x2067 <f256main+0x174b>
    1648: a0 40        	ldy	#$40
    164a: 8a           	txa
    164b: f0 02        	beq	$164f <f256main+0xd33>
    164d: a0 90        	ldy	#$90
    164f: 84 30        	sty	$30                     ; 0x2030 <f256main+0x1714>
    1651: 8a           	txa
    1652: f0 04        	beq	$1658 <f256main+0xd3c>
    1654: a2 b4        	ldx	#$b4
    1656: 80 02        	bra	$165a <f256main+0xd3e>
    1658: a2 b3        	ldx	#$b3
    165a: 86 35        	stx	$35                     ; 0x2035 <f256main+0x1719>
    165c: a2 35        	ldx	#$35
    165e: 86 12        	stx	$12                     ; 0x2012 <f256main+0x16f6>
    1660: a2 00        	ldx	#$0
    1662: 86 13        	stx	$13                     ; 0x2013 <f256main+0x16f7>
    1664: 20 63 30     	jsr	$3063 <textPrint>
    1667: a2 45        	ldx	#$45
    1669: 86 33        	stx	$33                     ; 0x2033 <f256main+0x1717>
    166b: 8e 14 d0     	stx	$d014                   ; 0xd014 <__heap_start+0x3d0e>
    166e: 9c 15 d0     	stz	$d015                   ; 0xd015 <__heap_start+0x3d0f>
    1671: a2 06        	ldx	#$6
    1673: 86 34        	stx	$34                     ; 0x2034 <f256main+0x1718>
    1675: 8e 16 d0     	stx	$d016                   ; 0xd016 <__heap_start+0x3d10>
    1678: 9c 17 d0     	stz	$d017                   ; 0xd017 <__heap_start+0x3d11>
    167b: a6 68        	ldx	$68                     ; 0x2068 <f256main+0x174c>
    167d: f0 06        	beq	$1685 <f256main+0xd69>
    167f: a2 b4        	ldx	#$b4
    1681: a0 90        	ldy	#$90
    1683: 80 04        	bra	$1689 <f256main+0xd6d>
    1685: a2 b3        	ldx	#$b3
    1687: a0 40        	ldy	#$40
    1689: 84 30        	sty	$30                     ; 0x2030 <f256main+0x1714>
    168b: 86 35        	stx	$35                     ; 0x2035 <f256main+0x1719>
    168d: a2 35        	ldx	#$35
    168f: 86 12        	stx	$12                     ; 0x2012 <f256main+0x16f6>
    1691: a2 00        	ldx	#$0
    1693: 86 13        	stx	$13                     ; 0x2013 <f256main+0x16f7>
    1695: 20 63 30     	jsr	$3063 <textPrint>
    1698: a2 45        	ldx	#$45
    169a: 86 33        	stx	$33                     ; 0x2033 <f256main+0x1717>
    169c: 8e 14 d0     	stx	$d014                   ; 0xd014 <__heap_start+0x3d0e>
    169f: 9c 15 d0     	stz	$d015                   ; 0xd015 <__heap_start+0x3d0f>
    16a2: a2 07        	ldx	#$7
    16a4: 86 34        	stx	$34                     ; 0x2034 <f256main+0x1718>
    16a6: 8e 16 d0     	stx	$d016                   ; 0xd016 <__heap_start+0x3d10>
    16a9: 9c 17 d0     	stz	$d017                   ; 0xd017 <__heap_start+0x3d11>
    16ac: a6 69        	ldx	$69                     ; 0x2069 <f256main+0x174d>
    16ae: f0 04        	beq	$16b4 <f256main+0xd98>
    16b0: a0 90        	ldy	#$90
    16b2: 80 02        	bra	$16b6 <f256main+0xd9a>
    16b4: a0 40        	ldy	#$40
    16b6: 84 30        	sty	$30                     ; 0x2030 <f256main+0x1714>
    16b8: 8a           	txa
    16b9: f0 04        	beq	$16bf <f256main+0xda3>
    16bb: a2 b4        	ldx	#$b4
    16bd: 80 02        	bra	$16c1 <f256main+0xda5>
    16bf: a2 b3        	ldx	#$b3
    16c1: 86 35        	stx	$35                     ; 0x2035 <f256main+0x1719>
    16c3: a2 35        	ldx	#$35
    16c5: 86 12        	stx	$12                     ; 0x2012 <f256main+0x16f6>
    16c7: a2 00        	ldx	#$0
    16c9: 86 13        	stx	$13                     ; 0x2013 <f256main+0x16f7>
    16cb: 20 63 30     	jsr	$3063 <textPrint>
    16ce: 4c ab 0e     	jmp	$eab <f256main+0x58f>
    16d1: e0 20        	cpx	#$20
    16d3: d0 03        	bne	$16d8 <f256main+0xdbc>
    16d5: 4c e5 1a     	jmp	$1ae5 <f256main+0x11c9>
    16d8: e0 5b        	cpx	#$5b
    16da: f0 03        	beq	$16df <f256main+0xdc3>
    16dc: 4c ab 0e     	jmp	$eab <f256main+0x58f>
    16df: a6 7e        	ldx	$7e                     ; 0x207e <f256main+0x1762>
    16e1: 86 16        	stx	$16                     ; 0x2016 <f256main+0x16fa>
    16e3: a6 7f        	ldx	$7f                     ; 0x207f <f256main+0x1763>
    16e5: 86 17        	stx	$17                     ; 0x2017 <f256main+0x16fb>
    16e7: a6 6a        	ldx	$6a                     ; 0x206a <f256main+0x174e>
    16e9: a4 6b        	ldy	$6b                     ; 0x206b <f256main+0x174f>
    16eb: 86 12        	stx	$12                     ; 0x2012 <f256main+0x16f6>
    16ed: 84 13        	sty	$13                     ; 0x2013 <f256main+0x16f7>
    16ef: a0 08        	ldy	#$8
    16f1: b1 12        	lda	($12),y                 ; 0x2012 <f256main+0x16f6>
    16f3: 85 14        	sta	$14                     ; 0x2014 <f256main+0x16f8>
    16f5: 0a           	asl
    16f6: 64 15        	stz	$15                     ; 0x2015 <f256main+0x16f9>
    16f8: 26 15        	rol	$15                     ; 0x2015 <f256main+0x16f9>
    16fa: 0a           	asl
    16fb: 26 15        	rol	$15                     ; 0x2015 <f256main+0x16f9>
    16fd: 0a           	asl
    16fe: 26 15        	rol	$15                     ; 0x2015 <f256main+0x16f9>
    1700: 0a           	asl
    1701: 26 15        	rol	$15                     ; 0x2015 <f256main+0x16f9>
    1703: 38           	sec
    1704: e5 14        	sbc	$14                     ; 0x2014 <f256main+0x16f8>
    1706: 85 14        	sta	$14                     ; 0x2014 <f256main+0x16f8>
    1708: a5 15        	lda	$15                     ; 0x2015 <f256main+0x16f9>
    170a: e9 00        	sbc	#$0
    170c: a8           	tay
    170d: 18           	clc
    170e: a6 14        	ldx	$14                     ; 0x2014 <f256main+0x16f8>
    1710: a5 14        	lda	$14                     ; 0x2014 <f256main+0x16f8>
    1712: 65 7e        	adc	$7e                     ; 0x207e <f256main+0x1762>
    1714: 85 14        	sta	$14                     ; 0x2014 <f256main+0x16f8>
    1716: 98           	tya
    1717: 65 7f        	adc	$7f                     ; 0x207f <f256main+0x1763>
    1719: 85 15        	sta	$15                     ; 0x2015 <f256main+0x16f9>
    171b: b2 14        	lda	($14)                   ; 0x2014 <f256main+0x16f8>
    171d: d0 03        	bne	$1722 <f256main+0xe06>
    171f: 4c 7b 25     	jmp	$257b <f256main+0x1c5f>
    1722: a5 64        	lda	$64                     ; 0x2064 <f256main+0x1748>
    1724: 29 01        	and	#$1
    1726: a2 f6        	ldx	#$f6
    1728: a8           	tay
    1729: f0 03        	beq	$172e <f256main+0xe12>
    172b: 4c 91 1a     	jmp	$1a91 <f256main+0x1175>
    172e: a2 ff        	ldx	#$ff
    1730: 4c 91 1a     	jmp	$1a91 <f256main+0x1175>
    1733: e0 6d        	cpx	#$6d
    1735: d0 03        	bne	$173a <f256main+0xe1e>
    1737: 4c 10 1b     	jmp	$1b10 <f256main+0x11f4>
    173a: e0 78        	cpx	#$78
    173c: f0 03        	beq	$1741 <f256main+0xe25>
    173e: 4c ab 0e     	jmp	$eab <f256main+0x58f>
    1741: a6 61        	ldx	$61                     ; 0x2061 <f256main+0x1745>
    1743: f0 03        	beq	$1748 <f256main+0xe2c>
    1745: 4c ab 0e     	jmp	$eab <f256main+0x58f>
    1748: a6 6a        	ldx	$6a                     ; 0x206a <f256main+0x174e>
    174a: a4 6b        	ldy	$6b                     ; 0x206b <f256main+0x174f>
    174c: 86 12        	stx	$12                     ; 0x2012 <f256main+0x16f6>
    174e: 84 13        	sty	$13                     ; 0x2013 <f256main+0x16f7>
    1750: a0 07        	ldy	#$7
    1752: b1 12        	lda	($12),y                 ; 0x2012 <f256main+0x16f6>
    1754: a2 01        	ldx	#$1
    1756: c9 00        	cmp	#$0
    1758: f0 02        	beq	$175c <f256main+0xe40>
    175a: a2 00        	ldx	#$0
    175c: 8a           	txa
    175d: d0 03        	bne	$1762 <f256main+0xe46>
    175f: 4c c1 26     	jmp	$26c1 <f256main+0x1da5>
    1762: 86 2b        	stx	$2b                     ; 0x202b <f256main+0x170f>
    1764: a9 01        	lda	#$1
    1766: 4c c5 26     	jmp	$26c5 <f256main+0x1da9>
    1769: a5 18        	lda	$18                     ; 0x2018 <f256main+0x16fc>
    176b: 91 10        	sta	($10),y                 ; 0x2010 <f256main+0x16f4>
    176d: a5 17        	lda	$17                     ; 0x2017 <f256main+0x16fb>
    176f: a0 0c        	ldy	#$c
    1771: 91 10        	sta	($10),y                 ; 0x2010 <f256main+0x16f4>
    1773: a6 28        	ldx	$28                     ; 0x2028 <f256main+0x170c>
    1775: 86 16        	stx	$16                     ; 0x2016 <f256main+0x16fa>
    1777: a6 29        	ldx	$29                     ; 0x2029 <f256main+0x170d>
    1779: 86 17        	stx	$17                     ; 0x2017 <f256main+0x16fb>
    177b: a0 06        	ldy	#$6
    177d: b1 10        	lda	($10),y                 ; 0x2010 <f256main+0x16f4>
    177f: 85 28        	sta	$28                     ; 0x2028 <f256main+0x170c>
    1781: c8           	iny
    1782: b1 10        	lda	($10),y                 ; 0x2010 <f256main+0x16f4>
    1784: 85 29        	sta	$29                     ; 0x2029 <f256main+0x170d>
    1786: a6 28        	ldx	$28                     ; 0x2028 <f256main+0x170c>
    1788: 86 14        	stx	$14                     ; 0x2014 <f256main+0x16f8>
    178a: 85 15        	sta	$15                     ; 0x2015 <f256main+0x16f9>
    178c: a5 16        	lda	$16                     ; 0x2016 <f256main+0x16fa>
    178e: c8           	iny
    178f: 91 10        	sta	($10),y                 ; 0x2010 <f256main+0x16f4>
    1791: a5 17        	lda	$17                     ; 0x2017 <f256main+0x16fb>
    1793: c8           	iny
    1794: 91 10        	sta	($10),y                 ; 0x2010 <f256main+0x16f4>
    1796: a0 04        	ldy	#$4
    1798: b1 10        	lda	($10),y                 ; 0x2010 <f256main+0x16f4>
    179a: 85 2e        	sta	$2e                     ; 0x202e <f256main+0x1712>
    179c: c8           	iny
    179d: b1 10        	lda	($10),y                 ; 0x2010 <f256main+0x16f4>
    179f: 85 2f        	sta	$2f                     ; 0x202f <f256main+0x1713>
    17a1: a6 2e        	ldx	$2e                     ; 0x202e <f256main+0x1712>
    17a3: 86 18        	stx	$18                     ; 0x2018 <f256main+0x16fc>
    17a5: 85 19        	sta	$19                     ; 0x2019 <f256main+0x16fd>
    17a7: a6 2b        	ldx	$2b                     ; 0x202b <f256main+0x170f>
    17a9: a5 1a        	lda	$1a                     ; 0x201a <f256main+0x16fe>
    17ab: 20 0d 45     	jsr	$450d <getBeatTrackNoteInfo>
    17ae: a0 01        	ldy	#$1
    17b0: b1 2e        	lda	($2e),y                 ; 0x202e <f256main+0x1712>
    17b2: 85 18        	sta	$18                     ; 0x2018 <f256main+0x16fc>
    17b4: a9 7f        	lda	#$7f
    17b6: 48           	pha
    17b7: a5 28        	lda	$28                     ; 0x2028 <f256main+0x170c>
    17b9: a0 06        	ldy	#$6
    17bb: 91 10        	sta	($10),y                 ; 0x2010 <f256main+0x16f4>
    17bd: a5 29        	lda	$29                     ; 0x2029 <f256main+0x170d>
    17bf: c8           	iny
    17c0: 91 10        	sta	($10),y                 ; 0x2010 <f256main+0x16f4>
    17c2: 68           	pla
    17c3: 32 28        	and	($28)                   ; 0x2028 <f256main+0x170c>
    17c5: 85 12        	sta	$12                     ; 0x2012 <f256main+0x16f6>
    17c7: a6 6a        	ldx	$6a                     ; 0x206a <f256main+0x174e>
    17c9: a4 6b        	ldy	$6b                     ; 0x206b <f256main+0x174f>
    17cb: 86 14        	stx	$14                     ; 0x2014 <f256main+0x16f8>
    17cd: 84 15        	sty	$15                     ; 0x2015 <f256main+0x16f9>
    17cf: b2 14        	lda	($14)                   ; 0x2014 <f256main+0x16f8>
    17d1: 85 14        	sta	$14                     ; 0x2014 <f256main+0x16f8>
    17d3: b2 2e        	lda	($2e)                   ; 0x202e <f256main+0x1712>
    17d5: 85 15        	sta	$15                     ; 0x2015 <f256main+0x16f9>
    17d7: a0 02        	ldy	#$2
    17d9: b1 2e        	lda	($2e),y                 ; 0x202e <f256main+0x1712>
    17db: a2 7f        	ldx	#$7f
    17dd: 86 13        	stx	$13                     ; 0x2013 <f256main+0x16f7>
    17df: a2 01        	ldx	#$1
    17e1: 86 16        	stx	$16                     ; 0x2016 <f256main+0x16fa>
    17e3: 85 17        	sta	$17                     ; 0x2017 <f256main+0x16fb>
    17e5: a6 18        	ldx	$18                     ; 0x2018 <f256main+0x16fc>
    17e7: a9 00        	lda	#$0
    17e9: 20 1b 32     	jsr	$321b <dispatchNote>
    17ec: a6 6a        	ldx	$6a                     ; 0x206a <f256main+0x174e>
    17ee: a4 6b        	ldy	$6b                     ; 0x206b <f256main+0x174f>
    17f0: 86 12        	stx	$12                     ; 0x2012 <f256main+0x16f6>
    17f2: 84 13        	sty	$13                     ; 0x2013 <f256main+0x16f7>
    17f4: a0 08        	ldy	#$8
    17f6: b1 12        	lda	($12),y                 ; 0x2012 <f256main+0x16f6>
    17f8: 85 12        	sta	$12                     ; 0x2012 <f256main+0x16f6>
    17fa: 0a           	asl
    17fb: aa           	tax
    17fc: a9 00        	lda	#$0
    17fe: 2a           	rol
    17ff: 86 13        	stx	$13                     ; 0x2013 <f256main+0x16f7>
    1801: 06 13        	asl	$13                     ; 0x2013 <f256main+0x16f7>
    1803: 2a           	rol
    1804: 06 13        	asl	$13                     ; 0x2013 <f256main+0x16f7>
    1806: 2a           	rol
    1807: 06 13        	asl	$13                     ; 0x2013 <f256main+0x16f7>
    1809: 2a           	rol
    180a: aa           	tax
    180b: 38           	sec
    180c: a5 13        	lda	$13                     ; 0x2013 <f256main+0x16f7>
    180e: e5 12        	sbc	$12                     ; 0x2012 <f256main+0x16f6>
    1810: 85 12        	sta	$12                     ; 0x2012 <f256main+0x16f6>
    1812: 8a           	txa
    1813: e9 00        	sbc	#$0
    1815: aa           	tax
    1816: 18           	clc
    1817: a5 12        	lda	$12                     ; 0x2012 <f256main+0x16f6>
    1819: 65 7e        	adc	$7e                     ; 0x207e <f256main+0x1762>
    181b: 85 12        	sta	$12                     ; 0x2012 <f256main+0x16f6>
    181d: 8a           	txa
    181e: 65 7f        	adc	$7f                     ; 0x207f <f256main+0x1763>
    1820: 85 13        	sta	$13                     ; 0x2013 <f256main+0x16f7>
    1822: a0 02        	ldy	#$2
    1824: b1 12        	lda	($12),y                 ; 0x2012 <f256main+0x16f6>
    1826: 3a           	dec
    1827: 91 12        	sta	($12),y                 ; 0x2012 <f256main+0x16f6>
    1829: 64 33        	stz	$33                     ; 0x2033 <f256main+0x1717>
    182b: 9c 14 d0     	stz	$d014                   ; 0xd014 <__heap_start+0x3d0e>
    182e: 9c 15 d0     	stz	$d015                   ; 0xd015 <__heap_start+0x3d0f>
    1831: a2 10        	ldx	#$10
    1833: 86 34        	stx	$34                     ; 0x2034 <f256main+0x1718>
    1835: 8e 16 d0     	stx	$d016                   ; 0xd016 <__heap_start+0x3d10>
    1838: 9c 17 d0     	stz	$d017                   ; 0xd017 <__heap_start+0x3d11>
    183b: a6 6a        	ldx	$6a                     ; 0x206a <f256main+0x174e>
    183d: a5 6b        	lda	$6b                     ; 0x206b <f256main+0x174f>
    183f: 86 12        	stx	$12                     ; 0x2012 <f256main+0x16f6>
    1841: 85 13        	sta	$13                     ; 0x2013 <f256main+0x16f7>
    1843: a0 08        	ldy	#$8
    1845: b1 12        	lda	($12),y                 ; 0x2012 <f256main+0x16f6>
    1847: 85 12        	sta	$12                     ; 0x2012 <f256main+0x16f6>
    1849: 0a           	asl
    184a: aa           	tax
    184b: a9 00        	lda	#$0
    184d: 2a           	rol
    184e: 86 13        	stx	$13                     ; 0x2013 <f256main+0x16f7>
    1850: 06 13        	asl	$13                     ; 0x2013 <f256main+0x16f7>
    1852: 2a           	rol
    1853: 06 13        	asl	$13                     ; 0x2013 <f256main+0x16f7>
    1855: 2a           	rol
    1856: 06 13        	asl	$13                     ; 0x2013 <f256main+0x16f7>
    1858: 2a           	rol
    1859: aa           	tax
    185a: 38           	sec
    185b: a5 13        	lda	$13                     ; 0x2013 <f256main+0x16f7>
    185d: e5 12        	sbc	$12                     ; 0x2012 <f256main+0x16f6>
    185f: 85 12        	sta	$12                     ; 0x2012 <f256main+0x16f6>
    1861: 8a           	txa
    1862: e9 00        	sbc	#$0
    1864: aa           	tax
    1865: 18           	clc
    1866: a5 12        	lda	$12                     ; 0x2012 <f256main+0x16f6>
    1868: 65 7e        	adc	$7e                     ; 0x207e <f256main+0x1762>
    186a: 85 12        	sta	$12                     ; 0x2012 <f256main+0x16f6>
    186c: 8a           	txa
    186d: 65 7f        	adc	$7f                     ; 0x207f <f256main+0x1763>
    186f: 85 13        	sta	$13                     ; 0x2013 <f256main+0x16f7>
    1871: a0 02        	ldy	#$2
    1873: b1 12        	lda	($12),y                 ; 0x2012 <f256main+0x16f6>
    1875: 92 10        	sta	($10)                   ; 0x2010 <f256main+0x16f4>
    1877: 88           	dey
    1878: a9 00        	lda	#$0
    187a: 91 10        	sta	($10),y                 ; 0x2010 <f256main+0x16f4>
    187c: a2 15        	ldx	#$15
    187e: 86 12        	stx	$12                     ; 0x2012 <f256main+0x16f6>
    1880: a2 8b        	ldx	#$8b
    1882: 86 13        	stx	$13                     ; 0x2013 <f256main+0x16f7>
    1884: 20 45 59     	jsr	$5945 <printf>
    1887: a5 62        	lda	$62                     ; 0x2062 <f256main+0x1746>
    1889: 29 01        	and	#$1
    188b: 85 13        	sta	$13                     ; 0x2013 <f256main+0x16f7>
    188d: a6 7e        	ldx	$7e                     ; 0x207e <f256main+0x1762>
    188f: 86 17        	stx	$17                     ; 0x2017 <f256main+0x16fb>
    1891: a6 6a        	ldx	$6a                     ; 0x206a <f256main+0x174e>
    1893: a4 6b        	ldy	$6b                     ; 0x206b <f256main+0x174f>
    1895: 86 14        	stx	$14                     ; 0x2014 <f256main+0x16f8>
    1897: 84 15        	sty	$15                     ; 0x2015 <f256main+0x16f9>
    1899: a0 08        	ldy	#$8
    189b: b1 14        	lda	($14),y                 ; 0x2014 <f256main+0x16f8>
    189d: 85 16        	sta	$16                     ; 0x2016 <f256main+0x16fa>
    189f: 0a           	asl
    18a0: 64 12        	stz	$12                     ; 0x2012 <f256main+0x16f6>
    18a2: 26 12        	rol	$12                     ; 0x2012 <f256main+0x16f6>
    18a4: 0a           	asl
    18a5: 26 12        	rol	$12                     ; 0x2012 <f256main+0x16f6>
    18a7: 0a           	asl
    18a8: 26 12        	rol	$12                     ; 0x2012 <f256main+0x16f6>
    18aa: 0a           	asl
    18ab: 26 12        	rol	$12                     ; 0x2012 <f256main+0x16f6>
    18ad: a4 12        	ldy	$12                     ; 0x2012 <f256main+0x16f6>
    18af: a6 7f        	ldx	$7f                     ; 0x207f <f256main+0x1763>
    18b1: e6 13        	inc	$13                     ; 0x2013 <f256main+0x16f7>
    18b3: c6 13        	dec	$13                     ; 0x2013 <f256main+0x16f7>
    18b5: d0 03        	bne	$18ba <f256main+0xf9e>
    18b7: 4c 82 1d     	jmp	$1d82 <f256main+0x1466>
    18ba: 38           	sec
    18bb: e5 16        	sbc	$16                     ; 0x2016 <f256main+0x16fa>
    18bd: 85 12        	sta	$12                     ; 0x2012 <f256main+0x16f6>
    18bf: 98           	tya
    18c0: e9 00        	sbc	#$0
    18c2: 85 13        	sta	$13                     ; 0x2013 <f256main+0x16f7>
    18c4: 18           	clc
    18c5: a5 17        	lda	$17                     ; 0x2017 <f256main+0x16fb>
    18c7: 65 12        	adc	$12                     ; 0x2012 <f256main+0x16f6>
    18c9: 85 12        	sta	$12                     ; 0x2012 <f256main+0x16f6>
    18cb: 8a           	txa
    18cc: 65 13        	adc	$13                     ; 0x2013 <f256main+0x16f7>
    18ce: 85 13        	sta	$13                     ; 0x2013 <f256main+0x16f7>
    18d0: a0 02        	ldy	#$2
    18d2: b1 12        	lda	($12),y                 ; 0x2012 <f256main+0x16f6>
    18d4: 48           	pha
    18d5: a0 08        	ldy	#$8
    18d7: b1 10        	lda	($10),y                 ; 0x2010 <f256main+0x16f4>
    18d9: 85 28        	sta	$28                     ; 0x2028 <f256main+0x170c>
    18db: c8           	iny
    18dc: b1 10        	lda	($10),y                 ; 0x2010 <f256main+0x16f4>
    18de: 85 29        	sta	$29                     ; 0x2029 <f256main+0x170d>
    18e0: 68           	pla
    18e1: a2 ff        	ldx	#$ff
    18e3: 86 2e        	stx	$2e                     ; 0x202e <f256main+0x1712>
    18e5: a2 92        	ldx	#$92
    18e7: 86 2f        	stx	$2f                     ; 0x202f <f256main+0x1713>
    18e9: aa           	tax
    18ea: f0 03        	beq	$18ef <f256main+0xfd3>
    18ec: 4c ab 0e     	jmp	$eab <f256main+0x58f>
    18ef: 64 33        	stz	$33                     ; 0x2033 <f256main+0x1717>
    18f1: 9c 14 d0     	stz	$d014                   ; 0xd014 <__heap_start+0x3d0e>
    18f4: 9c 15 d0     	stz	$d015                   ; 0xd015 <__heap_start+0x3d0f>
    18f7: a2 11        	ldx	#$11
    18f9: 86 34        	stx	$34                     ; 0x2034 <f256main+0x1718>
    18fb: 8e 16 d0     	stx	$d016                   ; 0xd016 <__heap_start+0x3d10>
    18fe: 9c 17 d0     	stz	$d017                   ; 0xd017 <__heap_start+0x3d11>
    1901: a2 a9        	ldx	#$a9
    1903: 86 12        	stx	$12                     ; 0x2012 <f256main+0x16f6>
    1905: a2 8a        	ldx	#$8a
    1907: 86 13        	stx	$13                     ; 0x2013 <f256main+0x16f7>
    1909: 20 45 59     	jsr	$5945 <printf>
    190c: 64 62        	stz	$62                     ; 0x2062 <f256main+0x1746>
    190e: a6 6a        	ldx	$6a                     ; 0x206a <f256main+0x174e>
    1910: a4 6b        	ldy	$6b                     ; 0x206b <f256main+0x174f>
    1912: 86 12        	stx	$12                     ; 0x2012 <f256main+0x16f6>
    1914: 84 13        	sty	$13                     ; 0x2013 <f256main+0x16f7>
    1916: a0 08        	ldy	#$8
    1918: b1 12        	lda	($12),y                 ; 0x2012 <f256main+0x16f6>
    191a: 85 12        	sta	$12                     ; 0x2012 <f256main+0x16f6>
    191c: 0a           	asl
    191d: aa           	tax
    191e: a9 00        	lda	#$0
    1920: 2a           	rol
    1921: 86 13        	stx	$13                     ; 0x2013 <f256main+0x16f7>
    1923: 06 13        	asl	$13                     ; 0x2013 <f256main+0x16f7>
    1925: 2a           	rol
    1926: 06 13        	asl	$13                     ; 0x2013 <f256main+0x16f7>
    1928: 2a           	rol
    1929: 06 13        	asl	$13                     ; 0x2013 <f256main+0x16f7>
    192b: 2a           	rol
    192c: aa           	tax
    192d: 38           	sec
    192e: a5 13        	lda	$13                     ; 0x2013 <f256main+0x16f7>
    1930: e5 12        	sbc	$12                     ; 0x2012 <f256main+0x16f6>
    1932: 85 12        	sta	$12                     ; 0x2012 <f256main+0x16f6>
    1934: 8a           	txa
    1935: e9 00        	sbc	#$0
    1937: aa           	tax
    1938: 18           	clc
    1939: a5 12        	lda	$12                     ; 0x2012 <f256main+0x16f6>
    193b: 65 7e        	adc	$7e                     ; 0x207e <f256main+0x1762>
    193d: 85 12        	sta	$12                     ; 0x2012 <f256main+0x16f6>
    193f: 8a           	txa
    1940: 65 7f        	adc	$7f                     ; 0x207f <f256main+0x1763>
    1942: 85 13        	sta	$13                     ; 0x2013 <f256main+0x16f7>
    1944: a9 00        	lda	#$0
    1946: 92 12        	sta	($12)                   ; 0x2012 <f256main+0x16f6>
    1948: a0 01        	ldy	#$1
    194a: b1 12        	lda	($12),y                 ; 0x2012 <f256main+0x16f6>
    194c: d0 03        	bne	$1951 <f256main+0x1035>
    194e: 4c ab 0e     	jmp	$eab <f256main+0x58f>
    1951: a9 00        	lda	#$0
    1953: 91 12        	sta	($12),y                 ; 0x2012 <f256main+0x16f6>
    1955: 4c 06 1a     	jmp	$1a06 <f256main+0x10ea>
    1958: e0 94        	cpx	#$94
    195a: f0 03        	beq	$195f <f256main+0x1043>
    195c: 4c ab 0e     	jmp	$eab <f256main+0x58f>
    195f: a6 61        	ldx	$61                     ; 0x2061 <f256main+0x1745>
    1961: d0 03        	bne	$1966 <f256main+0x104a>
    1963: 4c ab 0e     	jmp	$eab <f256main+0x58f>
    1966: a2 02        	ldx	#$2
    1968: 86 01        	stx	$1                      ; 0x2001 <f256main+0x16e5>
    196a: a2 c0        	ldx	#$c0
    196c: a0 00        	ldy	#$0
    196e: a9 20        	lda	#$20
    1970: 84 12        	sty	$12                     ; 0x2012 <f256main+0x16f6>
    1972: 86 13        	stx	$13                     ; 0x2013 <f256main+0x16f7>
    1974: 92 12        	sta	($12)                   ; 0x2012 <f256main+0x16f6>
    1976: c8           	iny
    1977: d0 01        	bne	$197a <f256main+0x105e>
    1979: e8           	inx
    197a: e0 d2        	cpx	#$d2
    197c: d0 f2        	bne	$1970 <f256main+0x1054>
    197e: c0 c0        	cpy	#$c0
    1980: d0 ee        	bne	$1970 <f256main+0x1054>
    1982: 64 01        	stz	$1                      ; 0x2001 <f256main+0x16e5>
    1984: a6 6a        	ldx	$6a                     ; 0x206a <f256main+0x174e>
    1986: a4 6b        	ldy	$6b                     ; 0x206b <f256main+0x174f>
    1988: 86 12        	stx	$12                     ; 0x2012 <f256main+0x16f6>
    198a: 84 13        	sty	$13                     ; 0x2013 <f256main+0x16f7>
    198c: 20 cb 50     	jsr	$50cb <textTitle>
    198f: 64 61        	stz	$61                     ; 0x2061 <f256main+0x1745>
    1991: 4c ab 0e     	jmp	$eab <f256main+0x58f>
    1994: e0 92        	cpx	#$92
    1996: f0 03        	beq	$199b <f256main+0x107f>
    1998: 4c ab 0e     	jmp	$eab <f256main+0x58f>
    199b: 20 da 3d     	jsr	$3dda <escReset>
    199e: 4c ab 0e     	jmp	$eab <f256main+0x58f>
    19a1: a6 61        	ldx	$61                     ; 0x2061 <f256main+0x1745>
    19a3: f0 03        	beq	$19a8 <f256main+0x108c>
    19a5: 4c ab 0e     	jmp	$eab <f256main+0x58f>
    19a8: a6 6a        	ldx	$6a                     ; 0x206a <f256main+0x174e>
    19aa: a4 6b        	ldy	$6b                     ; 0x206b <f256main+0x174f>
    19ac: 86 12        	stx	$12                     ; 0x2012 <f256main+0x16f6>
    19ae: 84 13        	sty	$13                     ; 0x2013 <f256main+0x16f7>
    19b0: a0 08        	ldy	#$8
    19b2: b1 12        	lda	($12),y                 ; 0x2012 <f256main+0x16f6>
    19b4: 85 14        	sta	$14                     ; 0x2014 <f256main+0x16f8>
    19b6: 0a           	asl
    19b7: aa           	tax
    19b8: a9 00        	lda	#$0
    19ba: 2a           	rol
    19bb: 86 15        	stx	$15                     ; 0x2015 <f256main+0x16f9>
    19bd: 06 15        	asl	$15                     ; 0x2015 <f256main+0x16f9>
    19bf: 2a           	rol
    19c0: 06 15        	asl	$15                     ; 0x2015 <f256main+0x16f9>
    19c2: 2a           	rol
    19c3: 06 15        	asl	$15                     ; 0x2015 <f256main+0x16f9>
    19c5: 2a           	rol
    19c6: aa           	tax
    19c7: 38           	sec
    19c8: a5 15        	lda	$15                     ; 0x2015 <f256main+0x16f9>
    19ca: e5 14        	sbc	$14                     ; 0x2014 <f256main+0x16f8>
    19cc: 85 15        	sta	$15                     ; 0x2015 <f256main+0x16f9>
    19ce: 8a           	txa
    19cf: e9 00        	sbc	#$0
    19d1: aa           	tax
    19d2: 18           	clc
    19d3: a5 15        	lda	$15                     ; 0x2015 <f256main+0x16f9>
    19d5: 65 7e        	adc	$7e                     ; 0x207e <f256main+0x1762>
    19d7: 85 16        	sta	$16                     ; 0x2016 <f256main+0x16fa>
    19d9: 8a           	txa
    19da: 65 7f        	adc	$7f                     ; 0x207f <f256main+0x1763>
    19dc: 85 17        	sta	$17                     ; 0x2017 <f256main+0x16fb>
    19de: b2 16        	lda	($16)                   ; 0x2016 <f256main+0x16fa>
    19e0: f0 03        	beq	$19e5 <f256main+0x10c9>
    19e2: 4c ae 25     	jmp	$25ae <f256main+0x1c92>
    19e5: a5 62        	lda	$62                     ; 0x2062 <f256main+0x1746>
    19e7: 29 01        	and	#$1
    19e9: f0 03        	beq	$19ee <f256main+0x10d2>
    19eb: 4c ab 0e     	jmp	$eab <f256main+0x58f>
    19ee: a5 14        	lda	$14                     ; 0x2014 <f256main+0x16f8>
    19f0: 1a           	inc
    19f1: c9 04        	cmp	#$4
    19f3: d0 02        	bne	$19f7 <f256main+0x10db>
    19f5: a9 00        	lda	#$0
    19f7: 91 12        	sta	($12),y                 ; 0x2012 <f256main+0x16f6>
    19f9: 20 60 4e     	jsr	$4e60 <refreshBeatTextChoice>
    19fc: 4c ab 0e     	jmp	$eab <f256main+0x58f>
    19ff: a6 61        	ldx	$61                     ; 0x2061 <f256main+0x1745>
    1a01: f0 03        	beq	$1a06 <f256main+0x10ea>
    1a03: 4c ab 0e     	jmp	$eab <f256main+0x58f>
    1a06: 20 c1 37     	jsr	$37c1 <launchBeat>
    1a09: 4c ab 0e     	jmp	$eab <f256main+0x58f>
    1a0c: a6 61        	ldx	$61                     ; 0x2061 <f256main+0x1745>
    1a0e: f0 03        	beq	$1a13 <f256main+0x10f7>
    1a10: 4c ab 0e     	jmp	$eab <f256main+0x58f>
    1a13: a6 6a        	ldx	$6a                     ; 0x206a <f256main+0x174e>
    1a15: a4 6b        	ldy	$6b                     ; 0x206b <f256main+0x174f>
    1a17: 86 12        	stx	$12                     ; 0x2012 <f256main+0x16f6>
    1a19: 84 13        	sty	$13                     ; 0x2013 <f256main+0x16f7>
    1a1b: a9 00        	lda	#$0
    1a1d: a0 07        	ldy	#$7
    1a1f: 91 12        	sta	($12),y                 ; 0x2012 <f256main+0x16f6>
    1a21: a0 05        	ldy	#$5
    1a23: b1 12        	lda	($12),y                 ; 0x2012 <f256main+0x16f6>
    1a25: aa           	tax
    1a26: 1a           	inc
    1a27: 91 12        	sta	($12),y                 ; 0x2012 <f256main+0x16f6>
    1a29: e0 01        	cpx	#$1
    1a2b: d0 03        	bne	$1a30 <f256main+0x1114>
    1a2d: 4c f8 27     	jmp	$27f8 <f256main+0x1edc>
    1a30: e0 09        	cpx	#$9
    1a32: f0 03        	beq	$1a37 <f256main+0x111b>
    1a34: 4c fc 27     	jmp	$27fc <f256main+0x1ee0>
    1a37: a9 00        	lda	#$0
    1a39: 4c fa 27     	jmp	$27fa <f256main+0x1ede>
    1a3c: a2 01        	ldx	#$1
    1a3e: 86 64        	stx	$64                     ; 0x2064 <f256main+0x1748>
    1a40: 4c ab 0e     	jmp	$eab <f256main+0x58f>
    1a43: a6 7e        	ldx	$7e                     ; 0x207e <f256main+0x1762>
    1a45: 86 16        	stx	$16                     ; 0x2016 <f256main+0x16fa>
    1a47: a6 7f        	ldx	$7f                     ; 0x207f <f256main+0x1763>
    1a49: 86 17        	stx	$17                     ; 0x2017 <f256main+0x16fb>
    1a4b: a6 6a        	ldx	$6a                     ; 0x206a <f256main+0x174e>
    1a4d: a4 6b        	ldy	$6b                     ; 0x206b <f256main+0x174f>
    1a4f: 86 12        	stx	$12                     ; 0x2012 <f256main+0x16f6>
    1a51: 84 13        	sty	$13                     ; 0x2013 <f256main+0x16f7>
    1a53: a0 08        	ldy	#$8
    1a55: b1 12        	lda	($12),y                 ; 0x2012 <f256main+0x16f6>
    1a57: 85 14        	sta	$14                     ; 0x2014 <f256main+0x16f8>
    1a59: 0a           	asl
    1a5a: 64 15        	stz	$15                     ; 0x2015 <f256main+0x16f9>
    1a5c: 26 15        	rol	$15                     ; 0x2015 <f256main+0x16f9>
    1a5e: 0a           	asl
    1a5f: 26 15        	rol	$15                     ; 0x2015 <f256main+0x16f9>
    1a61: 0a           	asl
    1a62: 26 15        	rol	$15                     ; 0x2015 <f256main+0x16f9>
    1a64: 0a           	asl
    1a65: 26 15        	rol	$15                     ; 0x2015 <f256main+0x16f9>
    1a67: 38           	sec
    1a68: e5 14        	sbc	$14                     ; 0x2014 <f256main+0x16f8>
    1a6a: 85 14        	sta	$14                     ; 0x2014 <f256main+0x16f8>
    1a6c: a5 15        	lda	$15                     ; 0x2015 <f256main+0x16f9>
    1a6e: e9 00        	sbc	#$0
    1a70: a8           	tay
    1a71: 18           	clc
    1a72: a6 14        	ldx	$14                     ; 0x2014 <f256main+0x16f8>
    1a74: a5 14        	lda	$14                     ; 0x2014 <f256main+0x16f8>
    1a76: 65 7e        	adc	$7e                     ; 0x207e <f256main+0x1762>
    1a78: 85 14        	sta	$14                     ; 0x2014 <f256main+0x16f8>
    1a7a: 98           	tya
    1a7b: 65 7f        	adc	$7f                     ; 0x207f <f256main+0x1763>
    1a7d: 85 15        	sta	$15                     ; 0x2015 <f256main+0x16f9>
    1a7f: b2 14        	lda	($14)                   ; 0x2014 <f256main+0x16f8>
    1a81: d0 03        	bne	$1a86 <f256main+0x116a>
    1a83: 4c 2f 25     	jmp	$252f <f256main+0x1c13>
    1a86: a5 64        	lda	$64                     ; 0x2064 <f256main+0x1748>
    1a88: 29 01        	and	#$1
    1a8a: a2 0a        	ldx	#$a
    1a8c: a8           	tay
    1a8d: d0 02        	bne	$1a91 <f256main+0x1175>
    1a8f: a2 01        	ldx	#$1
    1a91: 18           	clc
    1a92: a0 09        	ldy	#$9
    1a94: 8a           	txa
    1a95: 71 12        	adc	($12),y                 ; 0x2012 <f256main+0x16f6>
    1a97: 91 12        	sta	($12),y                 ; 0x2012 <f256main+0x16f6>
    1a99: 20 a5 3f     	jsr	$3fa5 <prepTempoLUT>
    1a9c: a6 6a        	ldx	$6a                     ; 0x206a <f256main+0x174e>
    1a9e: a4 6b        	ldy	$6b                     ; 0x206b <f256main+0x174f>
    1aa0: 86 2c        	stx	$2c                     ; 0x202c <f256main+0x1710>
    1aa2: 84 2d        	sty	$2d                     ; 0x202d <f256main+0x1711>
    1aa4: a0 09        	ldy	#$9
    1aa6: b1 2c        	lda	($2c),y                 ; 0x202c <f256main+0x1710>
    1aa8: 20 f7 4e     	jsr	$4ef7 <updateTempoText>
    1aab: a2 01        	ldx	#$1
    1aad: 86 62        	stx	$62                     ; 0x2062 <f256main+0x1746>
    1aaf: a0 08        	ldy	#$8
    1ab1: b1 2c        	lda	($2c),y                 ; 0x202c <f256main+0x1710>
    1ab3: 85 12        	sta	$12                     ; 0x2012 <f256main+0x16f6>
    1ab5: 0a           	asl
    1ab6: aa           	tax
    1ab7: a9 00        	lda	#$0
    1ab9: 2a           	rol
    1aba: 86 13        	stx	$13                     ; 0x2013 <f256main+0x16f7>
    1abc: 06 13        	asl	$13                     ; 0x2013 <f256main+0x16f7>
    1abe: 2a           	rol
    1abf: 06 13        	asl	$13                     ; 0x2013 <f256main+0x16f7>
    1ac1: 2a           	rol
    1ac2: 06 13        	asl	$13                     ; 0x2013 <f256main+0x16f7>
    1ac4: 2a           	rol
    1ac5: aa           	tax
    1ac6: 38           	sec
    1ac7: a5 13        	lda	$13                     ; 0x2013 <f256main+0x16f7>
    1ac9: e5 12        	sbc	$12                     ; 0x2012 <f256main+0x16f6>
    1acb: 85 12        	sta	$12                     ; 0x2012 <f256main+0x16f6>
    1acd: 8a           	txa
    1ace: e9 00        	sbc	#$0
    1ad0: aa           	tax
    1ad1: 18           	clc
    1ad2: a5 12        	lda	$12                     ; 0x2012 <f256main+0x16f6>
    1ad4: 65 7e        	adc	$7e                     ; 0x207e <f256main+0x1762>
    1ad6: 85 12        	sta	$12                     ; 0x2012 <f256main+0x16f6>
    1ad8: 8a           	txa
    1ad9: 65 7f        	adc	$7f                     ; 0x207f <f256main+0x1763>
    1adb: 85 13        	sta	$13                     ; 0x2013 <f256main+0x16f7>
    1add: a9 01        	lda	#$1
    1adf: a8           	tay
    1ae0: 91 12        	sta	($12),y                 ; 0x2012 <f256main+0x16f6>
    1ae2: 4c ab 0e     	jmp	$eab <f256main+0x58f>
    1ae5: a6 6a        	ldx	$6a                     ; 0x206a <f256main+0x174e>
    1ae7: a4 6b        	ldy	$6b                     ; 0x206b <f256main+0x174f>
    1ae9: 86 12        	stx	$12                     ; 0x2012 <f256main+0x16f6>
    1aeb: 84 13        	sty	$13                     ; 0x2013 <f256main+0x16f7>
    1aed: a0 06        	ldy	#$6
    1aef: b1 12        	lda	($12),y                 ; 0x2012 <f256main+0x16f6>
    1af1: c9 03        	cmp	#$3
    1af3: f0 03        	beq	$1af8 <f256main+0x11dc>
    1af5: 4c 02 1f     	jmp	$1f02 <f256main+0x15e6>
    1af8: 18           	clc
    1af9: a9 15        	lda	#$15
    1afb: 65 31        	adc	$31                     ; 0x2031 <f256main+0x1715>
    1afd: 85 12        	sta	$12                     ; 0x2012 <f256main+0x16f6>
    1aff: 64 13        	stz	$13                     ; 0x2013 <f256main+0x16f7>
    1b01: 64 14        	stz	$14                     ; 0x2014 <f256main+0x16f8>
    1b03: a2 03        	ldx	#$3
    1b05: 86 15        	stx	$15                     ; 0x2015 <f256main+0x16f9>
    1b07: 64 16        	stz	$16                     ; 0x2016 <f256main+0x16fa>
    1b09: 64 17        	stz	$17                     ; 0x2017 <f256main+0x16fb>
    1b0b: a2 00        	ldx	#$0
    1b0d: 4c 22 1f     	jmp	$1f22 <f256main+0x1606>
    1b10: a0 b0        	ldy	#$b0
    1b12: 8c b1 dd     	sty	$ddb1                   ; 0xddb1 <__heap_start+0x4aab>
    1b15: a2 7b        	ldx	#$7b
    1b17: 8e b1 dd     	stx	$ddb1                   ; 0xddb1 <__heap_start+0x4aab>
    1b1a: 9c b1 dd     	stz	$ddb1                   ; 0xddb1 <__heap_start+0x4aab>
    1b1d: 8c a1 dd     	sty	$dda1                   ; 0xdda1 <__heap_start+0x4a9b>
    1b20: 8e a1 dd     	stx	$dda1                   ; 0xdda1 <__heap_start+0x4a9b>
    1b23: 9c a1 dd     	stz	$dda1                   ; 0xdda1 <__heap_start+0x4a9b>
    1b26: c8           	iny
    1b27: 8c b1 dd     	sty	$ddb1                   ; 0xddb1 <__heap_start+0x4aab>
    1b2a: 8e b1 dd     	stx	$ddb1                   ; 0xddb1 <__heap_start+0x4aab>
    1b2d: 9c b1 dd     	stz	$ddb1                   ; 0xddb1 <__heap_start+0x4aab>
    1b30: 8c a1 dd     	sty	$dda1                   ; 0xdda1 <__heap_start+0x4a9b>
    1b33: 8e a1 dd     	stx	$dda1                   ; 0xdda1 <__heap_start+0x4a9b>
    1b36: 9c a1 dd     	stz	$dda1                   ; 0xdda1 <__heap_start+0x4a9b>
    1b39: a0 b9        	ldy	#$b9
    1b3b: 8c b1 dd     	sty	$ddb1                   ; 0xddb1 <__heap_start+0x4aab>
    1b3e: 8e b1 dd     	stx	$ddb1                   ; 0xddb1 <__heap_start+0x4aab>
    1b41: 9c b1 dd     	stz	$ddb1                   ; 0xddb1 <__heap_start+0x4aab>
    1b44: 8c a1 dd     	sty	$dda1                   ; 0xdda1 <__heap_start+0x4a9b>
    1b47: 8e a1 dd     	stx	$dda1                   ; 0xdda1 <__heap_start+0x4a9b>
    1b4a: 9c a1 dd     	stz	$dda1                   ; 0xdda1 <__heap_start+0x4a9b>
    1b4d: a5 6a        	lda	$6a                     ; 0x206a <f256main+0x174e>
    1b4f: a4 6b        	ldy	$6b                     ; 0x206b <f256main+0x174f>
    1b51: 85 12        	sta	$12                     ; 0x2012 <f256main+0x16f6>
    1b53: 84 13        	sty	$13                     ; 0x2013 <f256main+0x16f7>
    1b55: a9 ff        	lda	#$ff
    1b57: 52 12        	eor	($12)                   ; 0x2012 <f256main+0x16f6>
    1b59: 92 12        	sta	($12)                   ; 0x2012 <f256main+0x16f6>
    1b5b: a0 b0        	ldy	#$b0
    1b5d: 8c b1 dd     	sty	$ddb1                   ; 0xddb1 <__heap_start+0x4aab>
    1b60: 8e b1 dd     	stx	$ddb1                   ; 0xddb1 <__heap_start+0x4aab>
    1b63: 9c b1 dd     	stz	$ddb1                   ; 0xddb1 <__heap_start+0x4aab>
    1b66: 8c a1 dd     	sty	$dda1                   ; 0xdda1 <__heap_start+0x4a9b>
    1b69: 8e a1 dd     	stx	$dda1                   ; 0xdda1 <__heap_start+0x4a9b>
    1b6c: 9c a1 dd     	stz	$dda1                   ; 0xdda1 <__heap_start+0x4a9b>
    1b6f: c8           	iny
    1b70: 8c b1 dd     	sty	$ddb1                   ; 0xddb1 <__heap_start+0x4aab>
    1b73: 8e b1 dd     	stx	$ddb1                   ; 0xddb1 <__heap_start+0x4aab>
    1b76: 9c b1 dd     	stz	$ddb1                   ; 0xddb1 <__heap_start+0x4aab>
    1b79: 8c a1 dd     	sty	$dda1                   ; 0xdda1 <__heap_start+0x4a9b>
    1b7c: 8e a1 dd     	stx	$dda1                   ; 0xdda1 <__heap_start+0x4a9b>
    1b7f: 9c a1 dd     	stz	$dda1                   ; 0xdda1 <__heap_start+0x4a9b>
    1b82: a0 b9        	ldy	#$b9
    1b84: 8c b1 dd     	sty	$ddb1                   ; 0xddb1 <__heap_start+0x4aab>
    1b87: 8e b1 dd     	stx	$ddb1                   ; 0xddb1 <__heap_start+0x4aab>
    1b8a: 9c b1 dd     	stz	$ddb1                   ; 0xddb1 <__heap_start+0x4aab>
    1b8d: 8c a1 dd     	sty	$dda1                   ; 0xdda1 <__heap_start+0x4a9b>
    1b90: 8e a1 dd     	stx	$dda1                   ; 0xdda1 <__heap_start+0x4a9b>
    1b93: 9c a1 dd     	stz	$dda1                   ; 0xdda1 <__heap_start+0x4a9b>
    1b96: a6 6a        	ldx	$6a                     ; 0x206a <f256main+0x174e>
    1b98: a4 6b        	ldy	$6b                     ; 0x206b <f256main+0x174f>
    1b9a: 86 12        	stx	$12                     ; 0x2012 <f256main+0x16f6>
    1b9c: 84 13        	sty	$13                     ; 0x2013 <f256main+0x16f7>
    1b9e: b2 12        	lda	($12)                   ; 0x2012 <f256main+0x16f6>
    1ba0: d0 03        	bne	$1ba5 <f256main+0x1289>
    1ba2: 4c 69 25     	jmp	$2569 <f256main+0x1c4d>
    1ba5: a2 65        	ldx	#$65
    1ba7: 86 14        	stx	$14                     ; 0x2014 <f256main+0x16f8>
    1ba9: a2 00        	ldx	#$0
    1bab: 4c 6f 25     	jmp	$256f <f256main+0x1c53>
    1bae: a6 61        	ldx	$61                     ; 0x2061 <f256main+0x1745>
    1bb0: d0 03        	bne	$1bb5 <f256main+0x1299>
    1bb2: 4c b5 25     	jmp	$25b5 <f256main+0x1c99>
    1bb5: a6 6a        	ldx	$6a                     ; 0x206a <f256main+0x174e>
    1bb7: a0 01        	ldy	#$1
    1bb9: a5 6b        	lda	$6b                     ; 0x206b <f256main+0x174f>
    1bbb: 86 2c        	stx	$2c                     ; 0x202c <f256main+0x1710>
    1bbd: 85 2d        	sta	$2d                     ; 0x202d <f256main+0x1711>
    1bbf: 86 12        	stx	$12                     ; 0x2012 <f256main+0x16f6>
    1bc1: 85 13        	sta	$13                     ; 0x2013 <f256main+0x16f7>
    1bc3: e6 12        	inc	$12                     ; 0x2012 <f256main+0x16f6>
    1bc5: d0 02        	bne	$1bc9 <f256main+0x12ad>
    1bc7: e6 13        	inc	$13                     ; 0x2013 <f256main+0x16f7>
    1bc9: b1 2c        	lda	($2c),y                 ; 0x202c <f256main+0x1710>
    1bcb: aa           	tax
    1bcc: b1 12        	lda	($12),y                 ; 0x2012 <f256main+0x16f6>
    1bce: 86 12        	stx	$12                     ; 0x2012 <f256main+0x16f6>
    1bd0: 85 13        	sta	$13                     ; 0x2013 <f256main+0x16f7>
    1bd2: a0 05        	ldy	#$5
    1bd4: b1 2c        	lda	($2c),y                 ; 0x202c <f256main+0x1710>
    1bd6: a8           	tay
    1bd7: b1 12        	lda	($12),y                 ; 0x2012 <f256main+0x16f6>
    1bd9: d0 03        	bne	$1bde <f256main+0x12c2>
    1bdb: 4c 3a 26     	jmp	$263a <f256main+0x1d1e>
    1bde: a6 2c        	ldx	$2c                     ; 0x202c <f256main+0x1710>
    1be0: 86 12        	stx	$12                     ; 0x2012 <f256main+0x16f6>
    1be2: a6 2d        	ldx	$2d                     ; 0x202d <f256main+0x1711>
    1be4: 86 13        	stx	$13                     ; 0x2013 <f256main+0x16f7>
    1be6: a9 00        	lda	#$0
    1be8: 20 b2 54     	jsr	$54b2 <highLightInstChoice>
    1beb: a0 06        	ldy	#$6
    1bed: b1 2c        	lda	($2c),y                 ; 0x202c <f256main+0x1710>
    1bef: d0 23        	bne	$1c14 <f256main+0x12f8>
    1bf1: a6 2c        	ldx	$2c                     ; 0x202c <f256main+0x1710>
    1bf3: 86 12        	stx	$12                     ; 0x2012 <f256main+0x16f6>
    1bf5: a6 2d        	ldx	$2d                     ; 0x202d <f256main+0x1711>
    1bf7: 86 13        	stx	$13                     ; 0x2013 <f256main+0x16f7>
    1bf9: e6 12        	inc	$12                     ; 0x2012 <f256main+0x16f6>
    1bfb: d0 02        	bne	$1bff <f256main+0x12e3>
    1bfd: e6 13        	inc	$13                     ; 0x2013 <f256main+0x16f7>
    1bff: a0 01        	ldy	#$1
    1c01: b1 2c        	lda	($2c),y                 ; 0x202c <f256main+0x1710>
    1c03: aa           	tax
    1c04: b1 12        	lda	($12),y                 ; 0x2012 <f256main+0x16f6>
    1c06: 86 12        	stx	$12                     ; 0x2012 <f256main+0x16f6>
    1c08: 85 13        	sta	$13                     ; 0x2013 <f256main+0x16f7>
    1c0a: a0 05        	ldy	#$5
    1c0c: b1 2c        	lda	($2c),y                 ; 0x202c <f256main+0x1710>
    1c0e: a8           	tay
    1c0f: b1 12        	lda	($12),y                 ; 0x2012 <f256main+0x16f6>
    1c11: 3a           	dec
    1c12: 91 12        	sta	($12),y                 ; 0x2012 <f256main+0x16f6>
    1c14: a6 2c        	ldx	$2c                     ; 0x202c <f256main+0x1710>
    1c16: 86 12        	stx	$12                     ; 0x2012 <f256main+0x16f6>
    1c18: a6 2d        	ldx	$2d                     ; 0x202d <f256main+0x1711>
    1c1a: 86 13        	stx	$13                     ; 0x2013 <f256main+0x16f7>
    1c1c: a9 01        	lda	#$1
    1c1e: 20 b2 54     	jsr	$54b2 <highLightInstChoice>
    1c21: a6 6a        	ldx	$6a                     ; 0x206a <f256main+0x174e>
    1c23: a4 6b        	ldy	$6b                     ; 0x206b <f256main+0x174f>
    1c25: 86 2c        	stx	$2c                     ; 0x202c <f256main+0x1710>
    1c27: 84 2d        	sty	$2d                     ; 0x202d <f256main+0x1711>
    1c29: 86 12        	stx	$12                     ; 0x2012 <f256main+0x16f6>
    1c2b: 84 13        	sty	$13                     ; 0x2013 <f256main+0x16f7>
    1c2d: e6 12        	inc	$12                     ; 0x2012 <f256main+0x16f6>
    1c2f: d0 02        	bne	$1c33 <f256main+0x1317>
    1c31: e6 13        	inc	$13                     ; 0x2013 <f256main+0x16f7>
    1c33: a0 01        	ldy	#$1
    1c35: b1 2c        	lda	($2c),y                 ; 0x202c <f256main+0x1710>
    1c37: aa           	tax
    1c38: b1 12        	lda	($12),y                 ; 0x2012 <f256main+0x16f6>
    1c3a: 86 12        	stx	$12                     ; 0x2012 <f256main+0x16f6>
    1c3c: 85 13        	sta	$13                     ; 0x2013 <f256main+0x16f7>
    1c3e: a0 05        	ldy	#$5
    1c40: b1 2c        	lda	($2c),y                 ; 0x202c <f256main+0x1710>
    1c42: a8           	tay
    1c43: b1 12        	lda	($12),y                 ; 0x2012 <f256main+0x16f6>
    1c45: 85 18        	sta	$18                     ; 0x2018 <f256main+0x16fc>
    1c47: 4c 3c 26     	jmp	$263c <f256main+0x1d20>
    1c4a: a6 61        	ldx	$61                     ; 0x2061 <f256main+0x1745>
    1c4c: d0 03        	bne	$1c51 <f256main+0x1335>
    1c4e: 4c c5 25     	jmp	$25c5 <f256main+0x1ca9>
    1c51: a6 6a        	ldx	$6a                     ; 0x206a <f256main+0x174e>
    1c53: a0 01        	ldy	#$1
    1c55: a5 6b        	lda	$6b                     ; 0x206b <f256main+0x174f>
    1c57: 86 2c        	stx	$2c                     ; 0x202c <f256main+0x1710>
    1c59: 85 2d        	sta	$2d                     ; 0x202d <f256main+0x1711>
    1c5b: 86 12        	stx	$12                     ; 0x2012 <f256main+0x16f6>
    1c5d: 85 13        	sta	$13                     ; 0x2013 <f256main+0x16f7>
    1c5f: e6 12        	inc	$12                     ; 0x2012 <f256main+0x16f6>
    1c61: d0 02        	bne	$1c65 <f256main+0x1349>
    1c63: e6 13        	inc	$13                     ; 0x2013 <f256main+0x16f7>
    1c65: b1 2c        	lda	($2c),y                 ; 0x202c <f256main+0x1710>
    1c67: aa           	tax
    1c68: b1 12        	lda	($12),y                 ; 0x2012 <f256main+0x16f6>
    1c6a: 86 12        	stx	$12                     ; 0x2012 <f256main+0x16f6>
    1c6c: 85 13        	sta	$13                     ; 0x2013 <f256main+0x16f7>
    1c6e: a0 05        	ldy	#$5
    1c70: b1 2c        	lda	($2c),y                 ; 0x202c <f256main+0x1710>
    1c72: a8           	tay
    1c73: b1 12        	lda	($12),y                 ; 0x2012 <f256main+0x16f6>
    1c75: c9 7f        	cmp	#$7f
    1c77: 90 03        	bcc	$1c7c <f256main+0x1360>
    1c79: 4c e3 1c     	jmp	$1ce3 <f256main+0x13c7>
    1c7c: a6 2c        	ldx	$2c                     ; 0x202c <f256main+0x1710>
    1c7e: 86 12        	stx	$12                     ; 0x2012 <f256main+0x16f6>
    1c80: a6 2d        	ldx	$2d                     ; 0x202d <f256main+0x1711>
    1c82: 86 13        	stx	$13                     ; 0x2013 <f256main+0x16f7>
    1c84: a9 00        	lda	#$0
    1c86: 20 b2 54     	jsr	$54b2 <highLightInstChoice>
    1c89: a0 06        	ldy	#$6
    1c8b: b1 2c        	lda	($2c),y                 ; 0x202c <f256main+0x1710>
    1c8d: d0 23        	bne	$1cb2 <f256main+0x1396>
    1c8f: a6 2c        	ldx	$2c                     ; 0x202c <f256main+0x1710>
    1c91: 86 12        	stx	$12                     ; 0x2012 <f256main+0x16f6>
    1c93: a6 2d        	ldx	$2d                     ; 0x202d <f256main+0x1711>
    1c95: 86 13        	stx	$13                     ; 0x2013 <f256main+0x16f7>
    1c97: e6 12        	inc	$12                     ; 0x2012 <f256main+0x16f6>
    1c99: d0 02        	bne	$1c9d <f256main+0x1381>
    1c9b: e6 13        	inc	$13                     ; 0x2013 <f256main+0x16f7>
    1c9d: a0 01        	ldy	#$1
    1c9f: b1 2c        	lda	($2c),y                 ; 0x202c <f256main+0x1710>
    1ca1: aa           	tax
    1ca2: b1 12        	lda	($12),y                 ; 0x2012 <f256main+0x16f6>
    1ca4: 86 12        	stx	$12                     ; 0x2012 <f256main+0x16f6>
    1ca6: 85 13        	sta	$13                     ; 0x2013 <f256main+0x16f7>
    1ca8: a0 05        	ldy	#$5
    1caa: b1 2c        	lda	($2c),y                 ; 0x202c <f256main+0x1710>
    1cac: a8           	tay
    1cad: b1 12        	lda	($12),y                 ; 0x2012 <f256main+0x16f6>
    1caf: 1a           	inc
    1cb0: 91 12        	sta	($12),y                 ; 0x2012 <f256main+0x16f6>
    1cb2: a6 2c        	ldx	$2c                     ; 0x202c <f256main+0x1710>
    1cb4: 86 12        	stx	$12                     ; 0x2012 <f256main+0x16f6>
    1cb6: a6 2d        	ldx	$2d                     ; 0x202d <f256main+0x1711>
    1cb8: 86 13        	stx	$13                     ; 0x2013 <f256main+0x16f7>
    1cba: a9 01        	lda	#$1
    1cbc: 20 b2 54     	jsr	$54b2 <highLightInstChoice>
    1cbf: a6 6a        	ldx	$6a                     ; 0x206a <f256main+0x174e>
    1cc1: a4 6b        	ldy	$6b                     ; 0x206b <f256main+0x174f>
    1cc3: 86 2c        	stx	$2c                     ; 0x202c <f256main+0x1710>
    1cc5: 84 2d        	sty	$2d                     ; 0x202d <f256main+0x1711>
    1cc7: 86 12        	stx	$12                     ; 0x2012 <f256main+0x16f6>
    1cc9: 84 13        	sty	$13                     ; 0x2013 <f256main+0x16f7>
    1ccb: e6 12        	inc	$12                     ; 0x2012 <f256main+0x16f6>
    1ccd: d0 02        	bne	$1cd1 <f256main+0x13b5>
    1ccf: e6 13        	inc	$13                     ; 0x2013 <f256main+0x16f7>
    1cd1: a0 01        	ldy	#$1
    1cd3: b1 2c        	lda	($2c),y                 ; 0x202c <f256main+0x1710>
    1cd5: aa           	tax
    1cd6: b1 12        	lda	($12),y                 ; 0x2012 <f256main+0x16f6>
    1cd8: 86 12        	stx	$12                     ; 0x2012 <f256main+0x16f6>
    1cda: 85 13        	sta	$13                     ; 0x2013 <f256main+0x16f7>
    1cdc: a0 05        	ldy	#$5
    1cde: b1 2c        	lda	($2c),y                 ; 0x202c <f256main+0x1710>
    1ce0: a8           	tay
    1ce1: b1 12        	lda	($12),y                 ; 0x2012 <f256main+0x16f6>
    1ce3: 85 14        	sta	$14                     ; 0x2014 <f256main+0x16f8>
    1ce5: b2 2c        	lda	($2c)                   ; 0x202c <f256main+0x1710>
    1ce7: a2 a1        	ldx	#$a1
    1ce9: 86 12        	stx	$12                     ; 0x2012 <f256main+0x16f6>
    1ceb: a2 dd        	ldx	#$dd
    1ced: 86 13        	stx	$13                     ; 0x2013 <f256main+0x16f7>
    1cef: a2 b1        	ldx	#$b1
    1cf1: 86 16        	stx	$16                     ; 0x2016 <f256main+0x16fa>
    1cf3: a2 dd        	ldx	#$dd
    1cf5: 86 17        	stx	$17                     ; 0x2017 <f256main+0x16fb>
    1cf7: 48           	pha
    1cf8: 5a           	phy
    1cf9: a5 16        	lda	$16                     ; 0x2016 <f256main+0x16fa>
    1cfb: a0 0c        	ldy	#$c
    1cfd: 91 10        	sta	($10),y                 ; 0x2010 <f256main+0x16f4>
    1cff: a5 17        	lda	$17                     ; 0x2017 <f256main+0x16fb>
    1d01: c8           	iny
    1d02: 91 10        	sta	($10),y                 ; 0x2010 <f256main+0x16f4>
    1d04: 7a           	ply
    1d05: 68           	pla
    1d06: f0 0d        	beq	$1d15 <f256main+0x13f9>
    1d08: 5a           	phy
    1d09: a0 0c        	ldy	#$c
    1d0b: b1 10        	lda	($10),y                 ; 0x2010 <f256main+0x16f4>
    1d0d: 85 12        	sta	$12                     ; 0x2012 <f256main+0x16f6>
    1d0f: c8           	iny
    1d10: b1 10        	lda	($10),y                 ; 0x2010 <f256main+0x16f4>
    1d12: 7a           	ply
    1d13: 85 13        	sta	$13                     ; 0x2013 <f256main+0x16f7>
    1d15: 98           	tya
    1d16: 09 c0        	ora	#$c0
    1d18: 92 12        	sta	($12)                   ; 0x2012 <f256main+0x16f6>
    1d1a: a5 14        	lda	$14                     ; 0x2014 <f256main+0x16f8>
    1d1c: 4c 73 26     	jmp	$2673 <f256main+0x1d57>
    1d1f: a6 61        	ldx	$61                     ; 0x2061 <f256main+0x1745>
    1d21: a4 6a        	ldy	$6a                     ; 0x206a <f256main+0x174e>
    1d23: a5 6b        	lda	$6b                     ; 0x206b <f256main+0x174f>
    1d25: 84 12        	sty	$12                     ; 0x2012 <f256main+0x16f6>
    1d27: 85 13        	sta	$13                     ; 0x2013 <f256main+0x16f7>
    1d29: a0 06        	ldy	#$6
    1d2b: b1 12        	lda	($12),y                 ; 0x2012 <f256main+0x16f6>
    1d2d: e0 00        	cpx	#$0
    1d2f: d0 03        	bne	$1d34 <f256main+0x1418>
    1d31: 4c 15 26     	jmp	$2615 <f256main+0x1cf9>
    1d34: aa           	tax
    1d35: f0 03        	beq	$1d3a <f256main+0x141e>
    1d37: 4c 0d 2a     	jmp	$2a0d <f256main+0x20f1>
    1d3a: a6 12        	ldx	$12                     ; 0x2012 <f256main+0x16f6>
    1d3c: 86 14        	stx	$14                     ; 0x2014 <f256main+0x16f8>
    1d3e: a6 13        	ldx	$13                     ; 0x2013 <f256main+0x16f7>
    1d40: 86 15        	stx	$15                     ; 0x2015 <f256main+0x16f9>
    1d42: e6 14        	inc	$14                     ; 0x2014 <f256main+0x16f8>
    1d44: d0 02        	bne	$1d48 <f256main+0x142c>
    1d46: e6 15        	inc	$15                     ; 0x2015 <f256main+0x16f9>
    1d48: a5 64        	lda	$64                     ; 0x2064 <f256main+0x1748>
    1d4a: 29 01        	and	#$1
    1d4c: a2 62        	ldx	#$62
    1d4e: 64 17        	stz	$17                     ; 0x2017 <f256main+0x16fb>
    1d50: a8           	tay
    1d51: d0 02        	bne	$1d55 <f256main+0x1439>
    1d53: a2 7d        	ldx	#$7d
    1d55: 86 16        	stx	$16                     ; 0x2016 <f256main+0x16fa>
    1d57: a9 01        	lda	#$1
    1d59: 25 64        	and	$64                     ; 0x2064 <f256main+0x1748>
    1d5b: 85 18        	sta	$18                     ; 0x2018 <f256main+0x16fc>
    1d5d: a2 00        	ldx	#$0
    1d5f: e4 17        	cpx	$17                     ; 0x2017 <f256main+0x16fb>
    1d61: f0 03        	beq	$1d66 <f256main+0x144a>
    1d63: 4c 50 29     	jmp	$2950 <f256main+0x2034>
    1d66: a0 01        	ldy	#$1
    1d68: b1 12        	lda	($12),y                 ; 0x2012 <f256main+0x16f6>
    1d6a: aa           	tax
    1d6b: b1 14        	lda	($14),y                 ; 0x2014 <f256main+0x16f8>
    1d6d: 86 14        	stx	$14                     ; 0x2014 <f256main+0x16f8>
    1d6f: 85 15        	sta	$15                     ; 0x2015 <f256main+0x16f9>
    1d71: a0 05        	ldy	#$5
    1d73: b1 12        	lda	($12),y                 ; 0x2012 <f256main+0x16f6>
    1d75: a8           	tay
    1d76: b1 14        	lda	($14),y                 ; 0x2014 <f256main+0x16f8>
    1d78: c5 16        	cmp	$16                     ; 0x2016 <f256main+0x16fa>
    1d7a: 90 03        	bcc	$1d7f <f256main+0x1463>
    1d7c: 4c ab 0e     	jmp	$eab <f256main+0x58f>
    1d7f: 4c 57 29     	jmp	$2957 <f256main+0x203b>
    1d82: 5a           	phy
    1d83: a4 17        	ldy	$17                     ; 0x2017 <f256main+0x16fb>
    1d85: 84 19        	sty	$19                     ; 0x2019 <f256main+0x16fd>
    1d87: a4 17        	ldy	$17                     ; 0x2017 <f256main+0x16fb>
    1d89: 84 12        	sty	$12                     ; 0x2012 <f256main+0x16f6>
    1d8b: 7a           	ply
    1d8c: 86 13        	stx	$13                     ; 0x2013 <f256main+0x16f7>
    1d8e: 38           	sec
    1d8f: e5 16        	sbc	$16                     ; 0x2016 <f256main+0x16fa>
    1d91: 85 16        	sta	$16                     ; 0x2016 <f256main+0x16fa>
    1d93: 98           	tya
    1d94: e9 00        	sbc	#$0
    1d96: 85 17        	sta	$17                     ; 0x2017 <f256main+0x16fb>
    1d98: 18           	clc
    1d99: a5 19        	lda	$19                     ; 0x2019 <f256main+0x16fd>
    1d9b: 65 16        	adc	$16                     ; 0x2016 <f256main+0x16fa>
    1d9d: a8           	tay
    1d9e: 8a           	txa
    1d9f: 65 17        	adc	$17                     ; 0x2017 <f256main+0x16fb>
    1da1: 84 1a        	sty	$1a                     ; 0x201a <f256main+0x16fe>
    1da3: 85 1b        	sta	$1b                     ; 0x201b <f256main+0x16ff>
    1da5: aa           	tax
    1da6: 18           	clc
    1da7: 98           	tya
    1da8: 69 09        	adc	#$9
    1daa: 85 18        	sta	$18                     ; 0x2018 <f256main+0x16fc>
    1dac: 8a           	txa
    1dad: 69 00        	adc	#$0
    1daf: 85 19        	sta	$19                     ; 0x2019 <f256main+0x16fd>
    1db1: a0 01        	ldy	#$1
    1db3: b1 18        	lda	($18),y                 ; 0x2018 <f256main+0x16fc>
    1db5: 85 16        	sta	$16                     ; 0x2016 <f256main+0x16fa>
    1db7: 18           	clc
    1db8: a0 04        	ldy	#$4
    1dba: b1 10        	lda	($10),y                 ; 0x2010 <f256main+0x16f4>
    1dbc: 85 28        	sta	$28                     ; 0x2028 <f256main+0x170c>
    1dbe: c8           	iny
    1dbf: b1 10        	lda	($10),y                 ; 0x2010 <f256main+0x16f4>
    1dc1: 85 29        	sta	$29                     ; 0x2029 <f256main+0x170d>
    1dc3: a5 2d        	lda	$2d                     ; 0x202d <f256main+0x1711>
    1dc5: a0 09        	ldy	#$9
    1dc7: 71 1a        	adc	($1a),y                 ; 0x201a <f256main+0x16fe>
    1dc9: aa           	tax
    1dca: a5 16        	lda	$16                     ; 0x2016 <f256main+0x16fa>
    1dcc: 69 00        	adc	#$0
    1dce: 85 16        	sta	$16                     ; 0x2016 <f256main+0x16fa>
    1dd0: 18           	clc
    1dd1: 8a           	txa
    1dd2: 69 fa        	adc	#$fa
    1dd4: 85 18        	sta	$18                     ; 0x2018 <f256main+0x16fc>
    1dd6: a5 16        	lda	$16                     ; 0x2016 <f256main+0x16fa>
    1dd8: 69 ff        	adc	#$ff
    1dda: 85 19        	sta	$19                     ; 0x2019 <f256main+0x16fd>
    1ddc: b2 18        	lda	($18)                   ; 0x2018 <f256main+0x16fc>
    1dde: 1a           	inc
    1ddf: 92 18        	sta	($18)                   ; 0x2018 <f256main+0x16fc>
    1de1: 88           	dey
    1de2: b1 14        	lda	($14),y                 ; 0x2014 <f256main+0x16f8>
    1de4: 48           	pha
    1de5: a0 06        	ldy	#$6
    1de7: b1 10        	lda	($10),y                 ; 0x2010 <f256main+0x16f4>
    1de9: 85 14        	sta	$14                     ; 0x2014 <f256main+0x16f8>
    1deb: c8           	iny
    1dec: b1 10        	lda	($10),y                 ; 0x2010 <f256main+0x16f4>
    1dee: 85 15        	sta	$15                     ; 0x2015 <f256main+0x16f9>
    1df0: c8           	iny
    1df1: b1 10        	lda	($10),y                 ; 0x2010 <f256main+0x16f4>
    1df3: 85 16        	sta	$16                     ; 0x2016 <f256main+0x16fa>
    1df5: c8           	iny
    1df6: b1 10        	lda	($10),y                 ; 0x2010 <f256main+0x16f4>
    1df8: 85 17        	sta	$17                     ; 0x2017 <f256main+0x16fb>
    1dfa: 68           	pla
    1dfb: a6 28        	ldx	$28                     ; 0x2028 <f256main+0x170c>
    1dfd: 86 18        	stx	$18                     ; 0x2018 <f256main+0x16fc>
    1dff: a6 29        	ldx	$29                     ; 0x2029 <f256main+0x170d>
    1e01: 86 19        	stx	$19                     ; 0x2019 <f256main+0x16fd>
    1e03: a6 2b        	ldx	$2b                     ; 0x202b <f256main+0x170f>
    1e05: 20 0d 45     	jsr	$450d <getBeatTrackNoteInfo>
    1e08: a6 7e        	ldx	$7e                     ; 0x207e <f256main+0x1762>
    1e0a: 86 1a        	stx	$1a                     ; 0x201a <f256main+0x16fe>
    1e0c: a6 7f        	ldx	$7f                     ; 0x207f <f256main+0x1763>
    1e0e: 86 1b        	stx	$1b                     ; 0x201b <f256main+0x16ff>
    1e10: a5 6a        	lda	$6a                     ; 0x206a <f256main+0x174e>
    1e12: a6 6b        	ldx	$6b                     ; 0x206b <f256main+0x174f>
    1e14: 85 14        	sta	$14                     ; 0x2014 <f256main+0x16f8>
    1e16: 86 15        	stx	$15                     ; 0x2015 <f256main+0x16f9>
    1e18: a0 08        	ldy	#$8
    1e1a: b1 14        	lda	($14),y                 ; 0x2014 <f256main+0x16f8>
    1e1c: 85 12        	sta	$12                     ; 0x2012 <f256main+0x16f6>
    1e1e: 0a           	asl
    1e1f: aa           	tax
    1e20: a9 00        	lda	#$0
    1e22: 2a           	rol
    1e23: 86 13        	stx	$13                     ; 0x2013 <f256main+0x16f7>
    1e25: 06 13        	asl	$13                     ; 0x2013 <f256main+0x16f7>
    1e27: 2a           	rol
    1e28: 06 13        	asl	$13                     ; 0x2013 <f256main+0x16f7>
    1e2a: 2a           	rol
    1e2b: 06 13        	asl	$13                     ; 0x2013 <f256main+0x16f7>
    1e2d: 2a           	rol
    1e2e: aa           	tax
    1e2f: 38           	sec
    1e30: a5 13        	lda	$13                     ; 0x2013 <f256main+0x16f7>
    1e32: e5 12        	sbc	$12                     ; 0x2012 <f256main+0x16f6>
    1e34: 85 12        	sta	$12                     ; 0x2012 <f256main+0x16f6>
    1e36: 8a           	txa
    1e37: e9 00        	sbc	#$0
    1e39: a8           	tay
    1e3a: 18           	clc
    1e3b: a5 12        	lda	$12                     ; 0x2012 <f256main+0x16f6>
    1e3d: 65 7e        	adc	$7e                     ; 0x207e <f256main+0x1762>
    1e3f: aa           	tax
    1e40: 98           	tya
    1e41: 65 7f        	adc	$7f                     ; 0x207f <f256main+0x1763>
    1e43: 86 12        	stx	$12                     ; 0x2012 <f256main+0x16f6>
    1e45: 85 13        	sta	$13                     ; 0x2013 <f256main+0x16f7>
    1e47: a8           	tay
    1e48: 18           	clc
    1e49: 8a           	txa
    1e4a: 69 09        	adc	#$9
    1e4c: 85 16        	sta	$16                     ; 0x2016 <f256main+0x16fa>
    1e4e: 98           	tya
    1e4f: 69 00        	adc	#$0
    1e51: 85 17        	sta	$17                     ; 0x2017 <f256main+0x16fb>
    1e53: a0 01        	ldy	#$1
    1e55: b1 16        	lda	($16),y                 ; 0x2016 <f256main+0x16fa>
    1e57: 85 16        	sta	$16                     ; 0x2016 <f256main+0x16fa>
    1e59: 18           	clc
    1e5a: a5 2d        	lda	$2d                     ; 0x202d <f256main+0x1711>
    1e5c: a0 09        	ldy	#$9
    1e5e: 71 12        	adc	($12),y                 ; 0x2012 <f256main+0x16f6>
    1e60: aa           	tax
    1e61: a5 16        	lda	$16                     ; 0x2016 <f256main+0x16fa>
    1e63: 69 00        	adc	#$0
    1e65: 85 12        	sta	$12                     ; 0x2012 <f256main+0x16f6>
    1e67: 18           	clc
    1e68: 8a           	txa
    1e69: 69 fa        	adc	#$fa
    1e6b: 85 16        	sta	$16                     ; 0x2016 <f256main+0x16fa>
    1e6d: a5 12        	lda	$12                     ; 0x2012 <f256main+0x16f6>
    1e6f: 69 ff        	adc	#$ff
    1e71: 85 17        	sta	$17                     ; 0x2017 <f256main+0x16fb>
    1e73: b2 16        	lda	($16)                   ; 0x2016 <f256main+0x16fa>
    1e75: a0 03        	ldy	#$3
    1e77: d1 28        	cmp	($28),y                 ; 0x2028 <f256main+0x170c>
    1e79: f0 03        	beq	$1e7e <f256main+0x1562>
    1e7b: 4c 2a 1f     	jmp	$1f2a <f256main+0x160e>
    1e7e: a6 28        	ldx	$28                     ; 0x2028 <f256main+0x170c>
    1e80: 86 18        	stx	$18                     ; 0x2018 <f256main+0x16fc>
    1e82: a6 29        	ldx	$29                     ; 0x2029 <f256main+0x170d>
    1e84: 86 19        	stx	$19                     ; 0x2019 <f256main+0x16fd>
    1e86: a6 1a        	ldx	$1a                     ; 0x201a <f256main+0x16fe>
    1e88: 86 12        	stx	$12                     ; 0x2012 <f256main+0x16f6>
    1e8a: a6 1b        	ldx	$1b                     ; 0x201b <f256main+0x16ff>
    1e8c: 86 13        	stx	$13                     ; 0x2013 <f256main+0x16f7>
    1e8e: a9 00        	lda	#$0
    1e90: 92 16        	sta	($16)                   ; 0x2016 <f256main+0x16fa>
    1e92: a0 08        	ldy	#$8
    1e94: b1 14        	lda	($14),y                 ; 0x2014 <f256main+0x16f8>
    1e96: 48           	pha
    1e97: a0 06        	ldy	#$6
    1e99: b1 10        	lda	($10),y                 ; 0x2010 <f256main+0x16f4>
    1e9b: 85 28        	sta	$28                     ; 0x2028 <f256main+0x170c>
    1e9d: c8           	iny
    1e9e: b1 10        	lda	($10),y                 ; 0x2010 <f256main+0x16f4>
    1ea0: 85 29        	sta	$29                     ; 0x2029 <f256main+0x170d>
    1ea2: a6 28        	ldx	$28                     ; 0x2028 <f256main+0x170c>
    1ea4: 86 14        	stx	$14                     ; 0x2014 <f256main+0x16f8>
    1ea6: 85 15        	sta	$15                     ; 0x2015 <f256main+0x16f9>
    1ea8: c8           	iny
    1ea9: b1 10        	lda	($10),y                 ; 0x2010 <f256main+0x16f4>
    1eab: 85 16        	sta	$16                     ; 0x2016 <f256main+0x16fa>
    1ead: c8           	iny
    1eae: b1 10        	lda	($10),y                 ; 0x2010 <f256main+0x16f4>
    1eb0: 85 17        	sta	$17                     ; 0x2017 <f256main+0x16fb>
    1eb2: 68           	pla
    1eb3: a6 16        	ldx	$16                     ; 0x2016 <f256main+0x16fa>
    1eb5: 86 2e        	stx	$2e                     ; 0x202e <f256main+0x1712>
    1eb7: a6 17        	ldx	$17                     ; 0x2017 <f256main+0x16fb>
    1eb9: 86 2f        	stx	$2f                     ; 0x202f <f256main+0x1713>
    1ebb: a6 2b        	ldx	$2b                     ; 0x202b <f256main+0x170f>
    1ebd: 20 0d 45     	jsr	$450d <getBeatTrackNoteInfo>
    1ec0: a6 6a        	ldx	$6a                     ; 0x206a <f256main+0x174e>
    1ec2: a4 6b        	ldy	$6b                     ; 0x206b <f256main+0x174f>
    1ec4: 86 14        	stx	$14                     ; 0x2014 <f256main+0x16f8>
    1ec6: 84 15        	sty	$15                     ; 0x2015 <f256main+0x16f9>
    1ec8: 4c 40 1f     	jmp	$1f40 <f256main+0x1624>
    1ecb: a0 00        	ldy	#$0
    1ecd: a9 20        	lda	#$20
    1ecf: 84 61        	sty	$61                     ; 0x2061 <f256main+0x1745>
    1ed1: e0 00        	cpx	#$0
    1ed3: f0 03        	beq	$1ed8 <f256main+0x15bc>
    1ed5: 4c eb 20     	jmp	$20eb <f256main+0x17cf>
    1ed8: a2 02        	ldx	#$2
    1eda: 86 01        	stx	$1                      ; 0x2001 <f256main+0x16e5>
    1edc: a0 c0        	ldy	#$c0
    1ede: a2 00        	ldx	#$0
    1ee0: 86 12        	stx	$12                     ; 0x2012 <f256main+0x16f6>
    1ee2: 84 13        	sty	$13                     ; 0x2013 <f256main+0x16f7>
    1ee4: 92 12        	sta	($12)                   ; 0x2012 <f256main+0x16f6>
    1ee6: e8           	inx
    1ee7: d0 01        	bne	$1eea <f256main+0x15ce>
    1ee9: c8           	iny
    1eea: c0 d2        	cpy	#$d2
    1eec: d0 f2        	bne	$1ee0 <f256main+0x15c4>
    1eee: e0 c0        	cpx	#$c0
    1ef0: d0 ee        	bne	$1ee0 <f256main+0x15c4>
    1ef2: 64 01        	stz	$1                      ; 0x2001 <f256main+0x16e5>
    1ef4: a6 6a        	ldx	$6a                     ; 0x206a <f256main+0x174e>
    1ef6: a4 6b        	ldy	$6b                     ; 0x206b <f256main+0x174f>
    1ef8: 86 12        	stx	$12                     ; 0x2012 <f256main+0x16f6>
    1efa: 84 13        	sty	$13                     ; 0x2013 <f256main+0x16f7>
    1efc: 20 cb 50     	jsr	$50cb <textTitle>
    1eff: 4c ab 0e     	jmp	$eab <f256main+0x58f>
    1f02: 85 15        	sta	$15                     ; 0x2015 <f256main+0x16f9>
    1f04: a0 05        	ldy	#$5
    1f06: a9 90        	lda	#$90
    1f08: 11 12        	ora	($12),y                 ; 0x2012 <f256main+0x16f6>
    1f0a: 85 18        	sta	$18                     ; 0x2018 <f256main+0x16fc>
    1f0c: 18           	clc
    1f0d: a9 15        	lda	#$15
    1f0f: 65 31        	adc	$31                     ; 0x2031 <f256main+0x1715>
    1f11: aa           	tax
    1f12: b2 12        	lda	($12)                   ; 0x2012 <f256main+0x16f6>
    1f14: 86 12        	stx	$12                     ; 0x2012 <f256main+0x16f6>
    1f16: 85 14        	sta	$14                     ; 0x2014 <f256main+0x16f8>
    1f18: a2 7f        	ldx	#$7f
    1f1a: 86 13        	stx	$13                     ; 0x2013 <f256main+0x16f7>
    1f1c: 64 16        	stz	$16                     ; 0x2016 <f256main+0x16fa>
    1f1e: 64 17        	stz	$17                     ; 0x2017 <f256main+0x16fb>
    1f20: a6 18        	ldx	$18                     ; 0x2018 <f256main+0x16fc>
    1f22: a9 01        	lda	#$1
    1f24: 20 1b 32     	jsr	$321b <dispatchNote>
    1f27: 4c ab 0e     	jmp	$eab <f256main+0x58f>
    1f2a: a0 08        	ldy	#$8
    1f2c: b1 10        	lda	($10),y                 ; 0x2010 <f256main+0x16f4>
    1f2e: 85 2e        	sta	$2e                     ; 0x202e <f256main+0x1712>
    1f30: c8           	iny
    1f31: b1 10        	lda	($10),y                 ; 0x2010 <f256main+0x16f4>
    1f33: 85 2f        	sta	$2f                     ; 0x202f <f256main+0x1713>
    1f35: a0 06        	ldy	#$6
    1f37: b1 10        	lda	($10),y                 ; 0x2010 <f256main+0x16f4>
    1f39: 85 28        	sta	$28                     ; 0x2028 <f256main+0x170c>
    1f3b: c8           	iny
    1f3c: b1 10        	lda	($10),y                 ; 0x2010 <f256main+0x16f4>
    1f3e: 85 29        	sta	$29                     ; 0x2029 <f256main+0x170d>
    1f40: b2 28        	lda	($28)                   ; 0x2028 <f256main+0x170c>
    1f42: aa           	tax
    1f43: 30 03        	bmi	$1f48 <f256main+0x162c>
    1f45: 4c b0 1f     	jmp	$1fb0 <f256main+0x1694>
    1f48: a0 08        	ldy	#$8
    1f4a: b1 14        	lda	($14),y                 ; 0x2014 <f256main+0x16f8>
    1f4c: 85 12        	sta	$12                     ; 0x2012 <f256main+0x16f6>
    1f4e: 0a           	asl
    1f4f: a8           	tay
    1f50: a9 00        	lda	#$0
    1f52: 2a           	rol
    1f53: 84 13        	sty	$13                     ; 0x2013 <f256main+0x16f7>
    1f55: 06 13        	asl	$13                     ; 0x2013 <f256main+0x16f7>
    1f57: 2a           	rol
    1f58: 06 13        	asl	$13                     ; 0x2013 <f256main+0x16f7>
    1f5a: 2a           	rol
    1f5b: 06 13        	asl	$13                     ; 0x2013 <f256main+0x16f7>
    1f5d: 2a           	rol
    1f5e: a8           	tay
    1f5f: 38           	sec
    1f60: a5 13        	lda	$13                     ; 0x2013 <f256main+0x16f7>
    1f62: e5 12        	sbc	$12                     ; 0x2012 <f256main+0x16f6>
    1f64: 85 12        	sta	$12                     ; 0x2012 <f256main+0x16f6>
    1f66: 98           	tya
    1f67: e9 00        	sbc	#$0
    1f69: 85 13        	sta	$13                     ; 0x2013 <f256main+0x16f7>
    1f6b: 18           	clc
    1f6c: a5 12        	lda	$12                     ; 0x2012 <f256main+0x16f6>
    1f6e: 65 7e        	adc	$7e                     ; 0x207e <f256main+0x1762>
    1f70: a8           	tay
    1f71: a5 13        	lda	$13                     ; 0x2013 <f256main+0x16f7>
    1f73: 65 7f        	adc	$7f                     ; 0x207f <f256main+0x1763>
    1f75: 84 12        	sty	$12                     ; 0x2012 <f256main+0x16f6>
    1f77: 85 13        	sta	$13                     ; 0x2013 <f256main+0x16f7>
    1f79: 85 17        	sta	$17                     ; 0x2017 <f256main+0x16fb>
    1f7b: 18           	clc
    1f7c: 98           	tya
    1f7d: 69 0b        	adc	#$b
    1f7f: 85 16        	sta	$16                     ; 0x2016 <f256main+0x16fa>
    1f81: a5 17        	lda	$17                     ; 0x2017 <f256main+0x16fb>
    1f83: 69 00        	adc	#$0
    1f85: 85 17        	sta	$17                     ; 0x2017 <f256main+0x16fb>
    1f87: a0 01        	ldy	#$1
    1f89: b1 16        	lda	($16),y                 ; 0x2016 <f256main+0x16fa>
    1f8b: 85 16        	sta	$16                     ; 0x2016 <f256main+0x16fa>
    1f8d: 18           	clc
    1f8e: a0 0b        	ldy	#$b
    1f90: a5 2d        	lda	$2d                     ; 0x202d <f256main+0x1711>
    1f92: 71 12        	adc	($12),y                 ; 0x2012 <f256main+0x16f6>
    1f94: a8           	tay
    1f95: a5 16        	lda	$16                     ; 0x2016 <f256main+0x16fa>
    1f97: 69 00        	adc	#$0
    1f99: 85 12        	sta	$12                     ; 0x2012 <f256main+0x16f6>
    1f9b: 18           	clc
    1f9c: 98           	tya
    1f9d: 69 fa        	adc	#$fa
    1f9f: a8           	tay
    1fa0: a5 12        	lda	$12                     ; 0x2012 <f256main+0x16f6>
    1fa2: 69 ff        	adc	#$ff
    1fa4: 84 12        	sty	$12                     ; 0x2012 <f256main+0x16f6>
    1fa6: 85 13        	sta	$13                     ; 0x2013 <f256main+0x16f7>
    1fa8: b2 12        	lda	($12)                   ; 0x2012 <f256main+0x16f6>
    1faa: d0 04        	bne	$1fb0 <f256main+0x1694>
    1fac: a9 01        	lda	#$1
    1fae: 92 12        	sta	($12)                   ; 0x2012 <f256main+0x16f6>
    1fb0: a0 04        	ldy	#$4
    1fb2: b1 10        	lda	($10),y                 ; 0x2010 <f256main+0x16f4>
    1fb4: 85 16        	sta	$16                     ; 0x2016 <f256main+0x16fa>
    1fb6: c8           	iny
    1fb7: b1 10        	lda	($10),y                 ; 0x2010 <f256main+0x16f4>
    1fb9: 85 17        	sta	$17                     ; 0x2017 <f256main+0x16fb>
    1fbb: a0 01        	ldy	#$1
    1fbd: b1 16        	lda	($16),y                 ; 0x2016 <f256main+0x16fa>
    1fbf: 85 18        	sta	$18                     ; 0x2018 <f256main+0x16fc>
    1fc1: 8a           	txa
    1fc2: 29 7f        	and	#$7f
    1fc4: 85 12        	sta	$12                     ; 0x2012 <f256main+0x16f6>
    1fc6: b2 14        	lda	($14)                   ; 0x2014 <f256main+0x16f8>
    1fc8: 85 14        	sta	$14                     ; 0x2014 <f256main+0x16f8>
    1fca: b2 16        	lda	($16)                   ; 0x2016 <f256main+0x16fa>
    1fcc: 85 15        	sta	$15                     ; 0x2015 <f256main+0x16f9>
    1fce: c8           	iny
    1fcf: b1 16        	lda	($16),y                 ; 0x2016 <f256main+0x16fa>
    1fd1: 85 17        	sta	$17                     ; 0x2017 <f256main+0x16fb>
    1fd3: a2 7f        	ldx	#$7f
    1fd5: 86 13        	stx	$13                     ; 0x2013 <f256main+0x16f7>
    1fd7: a9 01        	lda	#$1
    1fd9: 85 16        	sta	$16                     ; 0x2016 <f256main+0x16fa>
    1fdb: a6 18        	ldx	$18                     ; 0x2018 <f256main+0x16fc>
    1fdd: 20 1b 32     	jsr	$321b <dispatchNote>
    1fe0: a6 6a        	ldx	$6a                     ; 0x206a <f256main+0x174e>
    1fe2: a4 6b        	ldy	$6b                     ; 0x206b <f256main+0x174f>
    1fe4: 86 12        	stx	$12                     ; 0x2012 <f256main+0x16f6>
    1fe6: 84 13        	sty	$13                     ; 0x2013 <f256main+0x16f7>
    1fe8: a0 08        	ldy	#$8
    1fea: b1 12        	lda	($12),y                 ; 0x2012 <f256main+0x16f6>
    1fec: 85 12        	sta	$12                     ; 0x2012 <f256main+0x16f6>
    1fee: 0a           	asl
    1fef: aa           	tax
    1ff0: a9 00        	lda	#$0
    1ff2: 2a           	rol
    1ff3: 86 13        	stx	$13                     ; 0x2013 <f256main+0x16f7>
    1ff5: 06 13        	asl	$13                     ; 0x2013 <f256main+0x16f7>
    1ff7: 2a           	rol
    1ff8: 06 13        	asl	$13                     ; 0x2013 <f256main+0x16f7>
    1ffa: 2a           	rol
    1ffb: 06 13        	asl	$13                     ; 0x2013 <f256main+0x16f7>
    1ffd: 2a           	rol
    1ffe: aa           	tax
    1fff: 38           	sec
    2000: a5 13        	lda	$13                     ; 0x2013 <f256main+0x16f7>
    2002: e5 12        	sbc	$12                     ; 0x2012 <f256main+0x16f6>
    2004: 85 12        	sta	$12                     ; 0x2012 <f256main+0x16f6>
    2006: 8a           	txa
    2007: e9 00        	sbc	#$0
    2009: aa           	tax
    200a: 18           	clc
    200b: a5 12        	lda	$12                     ; 0x2012 <f256main+0x16f6>
    200d: 65 7e        	adc	$7e                     ; 0x207e <f256main+0x1762>
    200f: 85 12        	sta	$12                     ; 0x2012 <f256main+0x16f6>
    2011: 8a           	txa
    2012: 65 7f        	adc	$7f                     ; 0x207f <f256main+0x1763>
    2014: 85 13        	sta	$13                     ; 0x2013 <f256main+0x16f7>
    2016: a0 02        	ldy	#$2
    2018: b1 12        	lda	($12),y                 ; 0x2012 <f256main+0x16f6>
    201a: 1a           	inc
    201b: 91 12        	sta	($12),y                 ; 0x2012 <f256main+0x16f6>
    201d: a2 80        	ldx	#$80
    201f: 86 f3        	stx	$f3                     ; 0x20f3 <f256main+0x17d7>
    2021: 18           	clc
    2022: a5 10        	lda	$10                     ; 0x2010 <f256main+0x16f4>
    2024: 69 1e        	adc	#$1e
    2026: 85 12        	sta	$12                     ; 0x2012 <f256main+0x16f6>
    2028: a5 11        	lda	$11                     ; 0x2011 <f256main+0x16f5>
    202a: 69 00        	adc	#$0
    202c: 85 13        	sta	$13                     ; 0x2013 <f256main+0x16f7>
    202e: a2 ff        	ldx	#$ff
    2030: 86 14        	stx	$14                     ; 0x2014 <f256main+0x16f8>
    2032: a2 92        	ldx	#$92
    2034: 86 15        	stx	$15                     ; 0x2015 <f256main+0x16f9>
    2036: 20 f0 ff     	jsr	$fff0 <__heap_start+0x6cea>
    2039: 92 12        	sta	($12)                   ; 0x2012 <f256main+0x16f6>
    203b: a9 00        	lda	#$0
    203d: 6a           	ror
    203e: 85 14        	sta	$14                     ; 0x2014 <f256main+0x16f8>
    2040: b2 12        	lda	($12)                   ; 0x2012 <f256main+0x16f6>
    2042: 85 12        	sta	$12                     ; 0x2012 <f256main+0x16f6>
    2044: a6 2e        	ldx	$2e                     ; 0x202e <f256main+0x1712>
    2046: 86 28        	stx	$28                     ; 0x2028 <f256main+0x170c>
    2048: a6 2f        	ldx	$2f                     ; 0x202f <f256main+0x1713>
    204a: 86 29        	stx	$29                     ; 0x2029 <f256main+0x170d>
    204c: a2 ff        	ldx	#$ff
    204e: 86 2e        	stx	$2e                     ; 0x202e <f256main+0x1712>
    2050: a2 92        	ldx	#$92
    2052: 86 2f        	stx	$2f                     ; 0x202f <f256main+0x1713>
    2054: b2 28        	lda	($28)                   ; 0x2028 <f256main+0x170c>
    2056: aa           	tax
    2057: 18           	clc
    2058: a5 12        	lda	$12                     ; 0x2012 <f256main+0x16f6>
    205a: 75 6c        	adc	$6c,x                   ; 0x206c <f256main+0x1750>
    205c: 85 18        	sta	$18                     ; 0x2018 <f256main+0x16fc>
    205e: a6 6a        	ldx	$6a                     ; 0x206a <f256main+0x174e>
    2060: a4 6b        	ldy	$6b                     ; 0x206b <f256main+0x174f>
    2062: 86 12        	stx	$12                     ; 0x2012 <f256main+0x16f6>
    2064: 84 13        	sty	$13                     ; 0x2013 <f256main+0x16f7>
    2066: a0 08        	ldy	#$8
    2068: b1 12        	lda	($12),y                 ; 0x2012 <f256main+0x16f6>
    206a: 85 12        	sta	$12                     ; 0x2012 <f256main+0x16f6>
    206c: 0a           	asl
    206d: aa           	tax
    206e: a9 00        	lda	#$0
    2070: 2a           	rol
    2071: 86 13        	stx	$13                     ; 0x2013 <f256main+0x16f7>
    2073: 06 13        	asl	$13                     ; 0x2013 <f256main+0x16f7>
    2075: 2a           	rol
    2076: 06 13        	asl	$13                     ; 0x2013 <f256main+0x16f7>
    2078: 2a           	rol
    2079: 06 13        	asl	$13                     ; 0x2013 <f256main+0x16f7>
    207b: 2a           	rol
    207c: aa           	tax
    207d: 38           	sec
    207e: a5 13        	lda	$13                     ; 0x2013 <f256main+0x16f7>
    2080: e5 12        	sbc	$12                     ; 0x2012 <f256main+0x16f6>
    2082: 85 12        	sta	$12                     ; 0x2012 <f256main+0x16f6>
    2084: 8a           	txa
    2085: e9 00        	sbc	#$0
    2087: a8           	tay
    2088: 18           	clc
    2089: a5 12        	lda	$12                     ; 0x2012 <f256main+0x16f6>
    208b: 65 7e        	adc	$7e                     ; 0x207e <f256main+0x1762>
    208d: aa           	tax
    208e: 98           	tya
    208f: 65 7f        	adc	$7f                     ; 0x207f <f256main+0x1763>
    2091: 86 12        	stx	$12                     ; 0x2012 <f256main+0x16f6>
    2093: 85 13        	sta	$13                     ; 0x2013 <f256main+0x16f7>
    2095: a8           	tay
    2096: 18           	clc
    2097: 8a           	txa
    2098: 69 0d        	adc	#$d
    209a: 85 14        	sta	$14                     ; 0x2014 <f256main+0x16f8>
    209c: 98           	tya
    209d: 69 00        	adc	#$0
    209f: 85 15        	sta	$15                     ; 0x2015 <f256main+0x16f9>
    20a1: 18           	clc
    20a2: a0 0c        	ldy	#$c
    20a4: b1 10        	lda	($10),y                 ; 0x2010 <f256main+0x16f4>
    20a6: 65 2b        	adc	$2b                     ; 0x202b <f256main+0x170f>
    20a8: aa           	tax
    20a9: 88           	dey
    20aa: b1 10        	lda	($10),y                 ; 0x2010 <f256main+0x16f4>
    20ac: 65 2c        	adc	$2c                     ; 0x202c <f256main+0x1710>
    20ae: 85 16        	sta	$16                     ; 0x2016 <f256main+0x16fa>
    20b0: 18           	clc
    20b1: a0 0d        	ldy	#$d
    20b3: 8a           	txa
    20b4: 71 12        	adc	($12),y                 ; 0x2012 <f256main+0x16f6>
    20b6: 85 12        	sta	$12                     ; 0x2012 <f256main+0x16f6>
    20b8: a0 01        	ldy	#$1
    20ba: a5 16        	lda	$16                     ; 0x2016 <f256main+0x16fa>
    20bc: 71 14        	adc	($14),y                 ; 0x2014 <f256main+0x16f8>
    20be: 85 13        	sta	$13                     ; 0x2013 <f256main+0x16f7>
    20c0: a5 18        	lda	$18                     ; 0x2018 <f256main+0x16fc>
    20c2: 91 12        	sta	($12),y                 ; 0x2012 <f256main+0x16f6>
    20c4: b2 12        	lda	($12)                   ; 0x2012 <f256main+0x16f6>
    20c6: 85 f3        	sta	$f3                     ; 0x20f3 <f256main+0x17d7>
    20c8: b1 12        	lda	($12),y                 ; 0x2012 <f256main+0x16f6>
    20ca: 85 f4        	sta	$f4                     ; 0x20f4 <f256main+0x17d8>
    20cc: c8           	iny
    20cd: b1 12        	lda	($12),y                 ; 0x2012 <f256main+0x16f6>
    20cf: 85 f5        	sta	$f5                     ; 0x20f5 <f256main+0x17d9>
    20d1: 18           	clc
    20d2: a5 10        	lda	$10                     ; 0x2010 <f256main+0x16f4>
    20d4: 69 1f        	adc	#$1f
    20d6: 85 12        	sta	$12                     ; 0x2012 <f256main+0x16f6>
    20d8: a5 11        	lda	$11                     ; 0x2011 <f256main+0x16f5>
    20da: 69 00        	adc	#$0
    20dc: 85 13        	sta	$13                     ; 0x2013 <f256main+0x16f7>
    20de: 20 f0 ff     	jsr	$fff0 <__heap_start+0x6cea>
    20e1: 92 12        	sta	($12)                   ; 0x2012 <f256main+0x16f6>
    20e3: a9 00        	lda	#$0
    20e5: 6a           	ror
    20e6: 85 2e        	sta	$2e                     ; 0x202e <f256main+0x1712>
    20e8: 4c ab 0e     	jmp	$eab <f256main+0x58f>
    20eb: a6 6a        	ldx	$6a                     ; 0x206a <f256main+0x174e>
    20ed: a4 6b        	ldy	$6b                     ; 0x206b <f256main+0x174f>
    20ef: 86 2c        	stx	$2c                     ; 0x202c <f256main+0x1710>
    20f1: 84 2d        	sty	$2d                     ; 0x202d <f256main+0x1711>
    20f3: a0 06        	ldy	#$6
    20f5: b1 2c        	lda	($2c),y                 ; 0x202c <f256main+0x1710>
    20f7: f0 03        	beq	$20fc <f256main+0x17e0>
    20f9: 4c 61 21     	jmp	$2161 <f256main+0x1845>
    20fc: b2 2c        	lda	($2c)                   ; 0x202c <f256main+0x1710>
    20fe: a2 a1        	ldx	#$a1
    2100: 86 12        	stx	$12                     ; 0x2012 <f256main+0x16f6>
    2102: a2 dd        	ldx	#$dd
    2104: 86 13        	stx	$13                     ; 0x2013 <f256main+0x16f7>
    2106: aa           	tax
    2107: f0 08        	beq	$2111 <f256main+0x17f5>
    2109: a2 b1        	ldx	#$b1
    210b: 86 12        	stx	$12                     ; 0x2012 <f256main+0x16f6>
    210d: a2 dd        	ldx	#$dd
    210f: 86 13        	stx	$13                     ; 0x2013 <f256main+0x16f7>
    2111: a9 b0        	lda	#$b0
    2113: 92 12        	sta	($12)                   ; 0x2012 <f256main+0x16f6>
    2115: a9 7b        	lda	#$7b
    2117: 92 12        	sta	($12)                   ; 0x2012 <f256main+0x16f6>
    2119: a9 00        	lda	#$0
    211b: 92 12        	sta	($12)                   ; 0x2012 <f256main+0x16f6>
    211d: b2 2c        	lda	($2c)                   ; 0x202c <f256main+0x1710>
    211f: a2 a1        	ldx	#$a1
    2121: 86 12        	stx	$12                     ; 0x2012 <f256main+0x16f6>
    2123: a2 dd        	ldx	#$dd
    2125: 86 13        	stx	$13                     ; 0x2013 <f256main+0x16f7>
    2127: aa           	tax
    2128: f0 08        	beq	$2132 <f256main+0x1816>
    212a: a2 b1        	ldx	#$b1
    212c: 86 12        	stx	$12                     ; 0x2012 <f256main+0x16f6>
    212e: a2 dd        	ldx	#$dd
    2130: 86 13        	stx	$13                     ; 0x2013 <f256main+0x16f7>
    2132: a9 b1        	lda	#$b1
    2134: 92 12        	sta	($12)                   ; 0x2012 <f256main+0x16f6>
    2136: a9 7b        	lda	#$7b
    2138: 92 12        	sta	($12)                   ; 0x2012 <f256main+0x16f6>
    213a: a9 00        	lda	#$0
    213c: 92 12        	sta	($12)                   ; 0x2012 <f256main+0x16f6>
    213e: b2 2c        	lda	($2c)                   ; 0x202c <f256main+0x1710>
    2140: a2 a1        	ldx	#$a1
    2142: 86 12        	stx	$12                     ; 0x2012 <f256main+0x16f6>
    2144: a2 dd        	ldx	#$dd
    2146: 86 13        	stx	$13                     ; 0x2013 <f256main+0x16f7>
    2148: aa           	tax
    2149: f0 08        	beq	$2153 <f256main+0x1837>
    214b: a2 b1        	ldx	#$b1
    214d: 86 12        	stx	$12                     ; 0x2012 <f256main+0x16f6>
    214f: a2 dd        	ldx	#$dd
    2151: 86 13        	stx	$13                     ; 0x2013 <f256main+0x16f7>
    2153: a9 b9        	lda	#$b9
    2155: 92 12        	sta	($12)                   ; 0x2012 <f256main+0x16f6>
    2157: a9 7b        	lda	#$7b
    2159: 92 12        	sta	($12)                   ; 0x2012 <f256main+0x16f6>
    215b: a9 00        	lda	#$0
    215d: 92 12        	sta	($12)                   ; 0x2012 <f256main+0x16f6>
    215f: b1 2c        	lda	($2c),y                 ; 0x202c <f256main+0x1710>
    2161: c9 01        	cmp	#$1
    2163: d0 32        	bne	$2197 <f256main+0x187b>
    2165: ad 04 d4     	lda	$d404                   ; 0xd404 <__heap_start+0x40fe>
    2168: 29 fe        	and	#$fe
    216a: 8d 04 d4     	sta	$d404                   ; 0xd404 <__heap_start+0x40fe>
    216d: ad 0b d4     	lda	$d40b                   ; 0xd40b <__heap_start+0x4105>
    2170: 29 fe        	and	#$fe
    2172: 8d 0b d4     	sta	$d40b                   ; 0xd40b <__heap_start+0x4105>
    2175: ad 12 d4     	lda	$d412                   ; 0xd412 <__heap_start+0x410c>
    2178: 29 fe        	and	#$fe
    217a: 8d 12 d4     	sta	$d412                   ; 0xd412 <__heap_start+0x410c>
    217d: ad 04 d5     	lda	$d504                   ; 0xd504 <__heap_start+0x41fe>
    2180: 29 fe        	and	#$fe
    2182: 8d 04 d5     	sta	$d504                   ; 0xd504 <__heap_start+0x41fe>
    2185: ad 0b d5     	lda	$d50b                   ; 0xd50b <__heap_start+0x4205>
    2188: 29 fe        	and	#$fe
    218a: 8d 0b d5     	sta	$d50b                   ; 0xd50b <__heap_start+0x4205>
    218d: ad 12 d5     	lda	$d512                   ; 0xd512 <__heap_start+0x420c>
    2190: 29 fe        	and	#$fe
    2192: 8d 12 d5     	sta	$d512                   ; 0xd512 <__heap_start+0x420c>
    2195: b1 2c        	lda	($2c),y                 ; 0x202c <f256main+0x1710>
    2197: a0 02        	ldy	#$2
    2199: c9 03        	cmp	#$3
    219b: d0 0d        	bne	$21aa <f256main+0x188e>
    219d: a2 b0        	ldx	#$b0
    219f: 8e 80 d5     	stx	$d580                   ; 0xd580 <__heap_start+0x427a>
    21a2: 9c 81 d5     	stz	$d581                   ; 0xd581 <__heap_start+0x427b>
    21a5: e8           	inx
    21a6: e0 b9        	cpx	#$b9
    21a8: d0 f5        	bne	$219f <f256main+0x1883>
    21aa: 84 01        	sty	$1                      ; 0x2001 <f256main+0x16e5>
    21ac: a2 c0        	ldx	#$c0
    21ae: a0 00        	ldy	#$0
    21b0: a9 20        	lda	#$20
    21b2: 84 12        	sty	$12                     ; 0x2012 <f256main+0x16f6>
    21b4: 86 13        	stx	$13                     ; 0x2013 <f256main+0x16f7>
    21b6: 92 12        	sta	($12)                   ; 0x2012 <f256main+0x16f6>
    21b8: c8           	iny
    21b9: d0 01        	bne	$21bc <f256main+0x18a0>
    21bb: e8           	inx
    21bc: e0 d2        	cpx	#$d2
    21be: d0 f2        	bne	$21b2 <f256main+0x1896>
    21c0: c0 c0        	cpy	#$c0
    21c2: d0 ee        	bne	$21b2 <f256main+0x1896>
    21c4: 64 01        	stz	$1                      ; 0x2001 <f256main+0x16e5>
    21c6: a2 90        	ldx	#$90
    21c8: 86 30        	stx	$30                     ; 0x2030 <f256main+0x1714>
    21ca: a0 06        	ldy	#$6
    21cc: b1 2c        	lda	($2c),y                 ; 0x202c <f256main+0x1710>
    21ce: a2 02        	ldx	#$2
    21d0: a8           	tay
    21d1: f0 03        	beq	$21d6 <f256main+0x18ba>
    21d3: 4c a7 23     	jmp	$23a7 <f256main+0x1a8b>
    21d6: a5 28        	lda	$28                     ; 0x2028 <f256main+0x170c>
    21d8: a0 08        	ldy	#$8
    21da: 91 10        	sta	($10),y                 ; 0x2010 <f256main+0x16f4>
    21dc: a5 29        	lda	$29                     ; 0x2029 <f256main+0x170d>
    21de: c8           	iny
    21df: 91 10        	sta	($10),y                 ; 0x2010 <f256main+0x16f4>
    21e1: 64 2b        	stz	$2b                     ; 0x202b <f256main+0x170f>
    21e3: 64 33        	stz	$33                     ; 0x2033 <f256main+0x1717>
    21e5: 9c 14 d0     	stz	$d014                   ; 0xd014 <__heap_start+0x3d0e>
    21e8: 9c 15 d0     	stz	$d015                   ; 0xd015 <__heap_start+0x3d0f>
    21eb: 64 34        	stz	$34                     ; 0x2034 <f256main+0x1718>
    21ed: 9c 16 d0     	stz	$d016                   ; 0xd016 <__heap_start+0x3d10>
    21f0: 9c 17 d0     	stz	$d017                   ; 0xd017 <__heap_start+0x3d11>
    21f3: a2 ed        	ldx	#$ed
    21f5: 86 12        	stx	$12                     ; 0x2012 <f256main+0x16f6>
    21f7: a2 81        	ldx	#$81
    21f9: 86 13        	stx	$13                     ; 0x2013 <f256main+0x16f7>
    21fb: 20 63 30     	jsr	$3063 <textPrint>
    21fe: a0 05        	ldy	#$5
    2200: a6 2c        	ldx	$2c                     ; 0x202c <f256main+0x1710>
    2202: 86 28        	stx	$28                     ; 0x2028 <f256main+0x170c>
    2204: a6 2d        	ldx	$2d                     ; 0x202d <f256main+0x1711>
    2206: 86 29        	stx	$29                     ; 0x2029 <f256main+0x170d>
    2208: b1 2c        	lda	($2c),y                 ; 0x202c <f256main+0x1710>
    220a: 92 10        	sta	($10)                   ; 0x2010 <f256main+0x16f4>
    220c: a9 00        	lda	#$0
    220e: a0 01        	ldy	#$1
    2210: 91 10        	sta	($10),y                 ; 0x2010 <f256main+0x16f4>
    2212: a2 8e        	ldx	#$8e
    2214: 86 12        	stx	$12                     ; 0x2012 <f256main+0x16f6>
    2216: a2 86        	ldx	#$86
    2218: 86 13        	stx	$13                     ; 0x2013 <f256main+0x16f7>
    221a: 20 45 59     	jsr	$5945 <printf>
    221d: a2 bf        	ldx	#$bf
    221f: 86 12        	stx	$12                     ; 0x2012 <f256main+0x16f6>
    2221: a2 7f        	ldx	#$7f
    2223: 86 13        	stx	$13                     ; 0x2013 <f256main+0x16f7>
    2225: 20 63 30     	jsr	$3063 <textPrint>
    2228: a2 50        	ldx	#$50
    222a: 86 30        	stx	$30                     ; 0x2030 <f256main+0x1714>
    222c: a2 82        	ldx	#$82
    222e: 8a           	txa
    222f: a0 0b        	ldy	#$b
    2231: 91 10        	sta	($10),y                 ; 0x2010 <f256main+0x16f4>
    2233: a2 01        	ldx	#$1
    2235: 8a           	txa
    2236: 88           	dey
    2237: 91 10        	sta	($10),y                 ; 0x2010 <f256main+0x16f4>
    2239: a2 e1        	ldx	#$e1
    223b: 86 12        	stx	$12                     ; 0x2012 <f256main+0x16f6>
    223d: a2 7e        	ldx	#$7e
    223f: 86 13        	stx	$13                     ; 0x2013 <f256main+0x16f7>
    2241: a5 12        	lda	$12                     ; 0x2012 <f256main+0x16f6>
    2243: a0 0c        	ldy	#$c
    2245: 91 10        	sta	($10),y                 ; 0x2010 <f256main+0x16f4>
    2247: a5 13        	lda	$13                     ; 0x2013 <f256main+0x16f7>
    2249: c8           	iny
    224a: 4c c0 22     	jmp	$22c0 <f256main+0x19a4>
    224d: b1 10        	lda	($10),y                 ; 0x2010 <f256main+0x16f4>
    224f: 85 2c        	sta	$2c                     ; 0x202c <f256main+0x1710>
    2251: 49 80        	eor	#$80
    2253: a2 34        	ldx	#$34
    2255: 86 33        	stx	$33                     ; 0x2033 <f256main+0x1717>
    2257: 8e 14 d0     	stx	$d014                   ; 0xd014 <__heap_start+0x3d0e>
    225a: 9c 15 d0     	stz	$d015                   ; 0xd015 <__heap_start+0x3d0f>
    225d: 48           	pha
    225e: a0 0a        	ldy	#$a
    2260: b1 10        	lda	($10),y                 ; 0x2010 <f256main+0x16f4>
    2262: aa           	tax
    2263: 68           	pla
    2264: 86 34        	stx	$34                     ; 0x2034 <f256main+0x1718>
    2266: 8e 16 d0     	stx	$d016                   ; 0xd016 <__heap_start+0x3d10>
    2269: 86 2d        	stx	$2d                     ; 0x202d <f256main+0x1711>
    226b: 9c 17 d0     	stz	$d017                   ; 0xd017 <__heap_start+0x3d11>
    226e: a6 2b        	ldx	$2b                     ; 0x202b <f256main+0x170f>
    2270: bc bf 91     	ldy	$91bf,x                 ; 0x91bf <midi_instruments+0x4>
    2273: 84 14        	sty	$14                     ; 0x2014 <f256main+0x16f8>
    2275: 48           	pha
    2276: bd c0 91     	lda	$91c0,x                 ; 0x91c0 <midi_instruments+0x5>
    2279: aa           	tax
    227a: 68           	pla
    227b: 86 15        	stx	$15                     ; 0x2015 <f256main+0x16f9>
    227d: a6 10        	ldx	$10                     ; 0x2010 <f256main+0x16f4>
    227f: 92 10        	sta	($10)                   ; 0x2010 <f256main+0x16f4>
    2281: a9 00        	lda	#$0
    2283: a0 01        	ldy	#$1
    2285: 91 10        	sta	($10),y                 ; 0x2010 <f256main+0x16f4>
    2287: 18           	clc
    2288: 8a           	txa
    2289: 69 02        	adc	#$2
    228b: 85 12        	sta	$12                     ; 0x2012 <f256main+0x16f6>
    228d: a5 11        	lda	$11                     ; 0x2011 <f256main+0x16f5>
    228f: 69 00        	adc	#$0
    2291: 85 13        	sta	$13                     ; 0x2013 <f256main+0x16f7>
    2293: c8           	iny
    2294: a5 14        	lda	$14                     ; 0x2014 <f256main+0x16f8>
    2296: 91 10        	sta	($10),y                 ; 0x2010 <f256main+0x16f4>
    2298: a5 15        	lda	$15                     ; 0x2015 <f256main+0x16f9>
    229a: 88           	dey
    229b: 91 12        	sta	($12),y                 ; 0x2012 <f256main+0x16f6>
    229d: a0 0c        	ldy	#$c
    229f: b1 10        	lda	($10),y                 ; 0x2010 <f256main+0x16f4>
    22a1: 85 12        	sta	$12                     ; 0x2012 <f256main+0x16f6>
    22a3: c8           	iny
    22a4: b1 10        	lda	($10),y                 ; 0x2010 <f256main+0x16f4>
    22a6: 85 13        	sta	$13                     ; 0x2013 <f256main+0x16f7>
    22a8: 20 45 59     	jsr	$5945 <printf>
    22ab: e6 2d        	inc	$2d                     ; 0x202d <f256main+0x1711>
    22ad: a5 2d        	lda	$2d                     ; 0x202d <f256main+0x1711>
    22af: a0 0a        	ldy	#$a
    22b1: 91 10        	sta	($10),y                 ; 0x2010 <f256main+0x16f4>
    22b3: 18           	clc
    22b4: a5 2b        	lda	$2b                     ; 0x202b <f256main+0x170f>
    22b6: 69 06        	adc	#$6
    22b8: 85 2b        	sta	$2b                     ; 0x202b <f256main+0x170f>
    22ba: 18           	clc
    22bb: a5 2c        	lda	$2c                     ; 0x202c <f256main+0x1710>
    22bd: 69 03        	adc	#$3
    22bf: c8           	iny
    22c0: 91 10        	sta	($10),y                 ; 0x2010 <f256main+0x16f4>
    22c2: 18           	clc
    22c3: a0 0b        	ldy	#$b
    22c5: b1 10        	lda	($10),y                 ; 0x2010 <f256main+0x16f4>
    22c7: 85 2e        	sta	$2e                     ; 0x202e <f256main+0x1712>
    22c9: 69 7e        	adc	#$7e
    22cb: a2 02        	ldx	#$2
    22cd: 86 33        	stx	$33                     ; 0x2033 <f256main+0x1717>
    22cf: 8e 14 d0     	stx	$d014                   ; 0xd014 <__heap_start+0x3d0e>
    22d2: 9c 15 d0     	stz	$d015                   ; 0xd015 <__heap_start+0x3d0f>
    22d5: 48           	pha
    22d6: 88           	dey
    22d7: b1 10        	lda	($10),y                 ; 0x2010 <f256main+0x16f4>
    22d9: aa           	tax
    22da: 68           	pla
    22db: 86 34        	stx	$34                     ; 0x2034 <f256main+0x1718>
    22dd: 8e 16 d0     	stx	$d016                   ; 0xd016 <__heap_start+0x3d10>
    22e0: 86 24        	stx	$24                     ; 0x2024 <f256main+0x1708>
    22e2: 9c 17 d0     	stz	$d017                   ; 0xd017 <__heap_start+0x3d11>
    22e5: a6 2b        	ldx	$2b                     ; 0x202b <f256main+0x170f>
    22e7: bc bb 91     	ldy	$91bb,x                 ; 0x91bb <midi_instruments>
    22ea: 84 14        	sty	$14                     ; 0x2014 <f256main+0x16f8>
    22ec: bc bc 91     	ldy	$91bc,x                 ; 0x91bc <midi_instruments+0x1>
    22ef: 84 15        	sty	$15                     ; 0x2015 <f256main+0x16f9>
    22f1: 86 2f        	stx	$2f                     ; 0x202f <f256main+0x1713>
    22f3: a6 10        	ldx	$10                     ; 0x2010 <f256main+0x16f4>
    22f5: 92 10        	sta	($10)                   ; 0x2010 <f256main+0x16f4>
    22f7: a0 01        	ldy	#$1
    22f9: a9 00        	lda	#$0
    22fb: 91 10        	sta	($10),y                 ; 0x2010 <f256main+0x16f4>
    22fd: 18           	clc
    22fe: 8a           	txa
    22ff: 69 02        	adc	#$2
    2301: aa           	tax
    2302: a5 11        	lda	$11                     ; 0x2011 <f256main+0x16f5>
    2304: 69 00        	adc	#$0
    2306: 86 12        	stx	$12                     ; 0x2012 <f256main+0x16f6>
    2308: 85 13        	sta	$13                     ; 0x2013 <f256main+0x16f7>
    230a: c8           	iny
    230b: a5 14        	lda	$14                     ; 0x2014 <f256main+0x16f8>
    230d: 91 10        	sta	($10),y                 ; 0x2010 <f256main+0x16f4>
    230f: a5 15        	lda	$15                     ; 0x2015 <f256main+0x16f9>
    2311: 88           	dey
    2312: 91 12        	sta	($12),y                 ; 0x2012 <f256main+0x16f6>
    2314: a0 0c        	ldy	#$c
    2316: b1 10        	lda	($10),y                 ; 0x2010 <f256main+0x16f4>
    2318: 85 2c        	sta	$2c                     ; 0x202c <f256main+0x1710>
    231a: c8           	iny
    231b: b1 10        	lda	($10),y                 ; 0x2010 <f256main+0x16f4>
    231d: 85 2d        	sta	$2d                     ; 0x202d <f256main+0x1711>
    231f: a6 2c        	ldx	$2c                     ; 0x202c <f256main+0x1710>
    2321: 86 12        	stx	$12                     ; 0x2012 <f256main+0x16f6>
    2323: 85 13        	sta	$13                     ; 0x2013 <f256main+0x16f7>
    2325: 20 45 59     	jsr	$5945 <printf>
    2328: a2 1b        	ldx	#$1b
    232a: 86 33        	stx	$33                     ; 0x2033 <f256main+0x1717>
    232c: 8e 14 d0     	stx	$d014                   ; 0xd014 <__heap_start+0x3d0e>
    232f: 9c 15 d0     	stz	$d015                   ; 0xd015 <__heap_start+0x3d0f>
    2332: a6 24        	ldx	$24                     ; 0x2024 <f256main+0x1708>
    2334: 86 34        	stx	$34                     ; 0x2034 <f256main+0x1718>
    2336: 8e 16 d0     	stx	$d016                   ; 0xd016 <__heap_start+0x3d10>
    2339: 9c 17 d0     	stz	$d017                   ; 0xd017 <__heap_start+0x3d11>
    233c: 18           	clc
    233d: a5 2e        	lda	$2e                     ; 0x202e <f256main+0x1712>
    233f: 69 7f        	adc	#$7f
    2341: a6 2f        	ldx	$2f                     ; 0x202f <f256main+0x1713>
    2343: bc bd 91     	ldy	$91bd,x                 ; 0x91bd <midi_instruments+0x2>
    2346: 84 14        	sty	$14                     ; 0x2014 <f256main+0x16f8>
    2348: 48           	pha
    2349: bd be 91     	lda	$91be,x                 ; 0x91be <midi_instruments+0x3>
    234c: aa           	tax
    234d: 68           	pla
    234e: 86 15        	stx	$15                     ; 0x2015 <f256main+0x16f9>
    2350: a6 10        	ldx	$10                     ; 0x2010 <f256main+0x16f4>
    2352: 92 10        	sta	($10)                   ; 0x2010 <f256main+0x16f4>
    2354: a0 01        	ldy	#$1
    2356: a9 00        	lda	#$0
    2358: 91 10        	sta	($10),y                 ; 0x2010 <f256main+0x16f4>
    235a: 18           	clc
    235b: 8a           	txa
    235c: 69 02        	adc	#$2
    235e: 85 12        	sta	$12                     ; 0x2012 <f256main+0x16f6>
    2360: a5 11        	lda	$11                     ; 0x2011 <f256main+0x16f5>
    2362: 69 00        	adc	#$0
    2364: 85 13        	sta	$13                     ; 0x2013 <f256main+0x16f7>
    2366: c8           	iny
    2367: a5 14        	lda	$14                     ; 0x2014 <f256main+0x16f8>
    2369: 91 10        	sta	($10),y                 ; 0x2010 <f256main+0x16f4>
    236b: a5 15        	lda	$15                     ; 0x2015 <f256main+0x16f9>
    236d: 88           	dey
    236e: 91 12        	sta	($12),y                 ; 0x2012 <f256main+0x16f6>
    2370: a6 2c        	ldx	$2c                     ; 0x202c <f256main+0x1710>
    2372: 86 12        	stx	$12                     ; 0x2012 <f256main+0x16f6>
    2374: a6 2d        	ldx	$2d                     ; 0x202d <f256main+0x1711>
    2376: 86 13        	stx	$13                     ; 0x2013 <f256main+0x16f7>
    2378: 20 45 59     	jsr	$5945 <printf>
    237b: a0 0b        	ldy	#$b
    237d: b1 10        	lda	($10),y                 ; 0x2010 <f256main+0x16f4>
    237f: f0 03        	beq	$2384 <f256main+0x1a68>
    2381: 4c 4d 22     	jmp	$224d <f256main+0x1931>
    2384: a0 06        	ldy	#$6
    2386: a6 28        	ldx	$28                     ; 0x2028 <f256main+0x170c>
    2388: 86 2c        	stx	$2c                     ; 0x202c <f256main+0x1710>
    238a: a6 29        	ldx	$29                     ; 0x2029 <f256main+0x170d>
    238c: 86 2d        	stx	$2d                     ; 0x202d <f256main+0x1711>
    238e: b1 28        	lda	($28),y                 ; 0x2028 <f256main+0x170c>
    2390: a2 2c        	ldx	#$2c
    2392: 48           	pha
    2393: a0 08        	ldy	#$8
    2395: b1 10        	lda	($10),y                 ; 0x2010 <f256main+0x16f4>
    2397: 85 28        	sta	$28                     ; 0x2028 <f256main+0x170c>
    2399: c8           	iny
    239a: b1 10        	lda	($10),y                 ; 0x2010 <f256main+0x16f4>
    239c: 85 29        	sta	$29                     ; 0x2029 <f256main+0x170d>
    239e: 68           	pla
    239f: a0 ff        	ldy	#$ff
    23a1: 84 2e        	sty	$2e                     ; 0x202e <f256main+0x1712>
    23a3: a0 92        	ldy	#$92
    23a5: 84 2f        	sty	$2f                     ; 0x202f <f256main+0x1713>
    23a7: 48           	pha
    23a8: a5 28        	lda	$28                     ; 0x2028 <f256main+0x170c>
    23aa: a0 08        	ldy	#$8
    23ac: 91 10        	sta	($10),y                 ; 0x2010 <f256main+0x16f4>
    23ae: a5 29        	lda	$29                     ; 0x2029 <f256main+0x170d>
    23b0: c8           	iny
    23b1: 91 10        	sta	($10),y                 ; 0x2010 <f256main+0x16f4>
    23b3: 68           	pla
    23b4: 86 28        	stx	$28                     ; 0x2028 <f256main+0x170c>
    23b6: c9 01        	cmp	#$1
    23b8: f0 03        	beq	$23bd <f256main+0x1aa1>
    23ba: 4c 63 24     	jmp	$2463 <f256main+0x1b47>
    23bd: 64 29        	stz	$29                     ; 0x2029 <f256main+0x170d>
    23bf: 64 33        	stz	$33                     ; 0x2033 <f256main+0x1717>
    23c1: 9c 14 d0     	stz	$d014                   ; 0xd014 <__heap_start+0x3d0e>
    23c4: 9c 15 d0     	stz	$d015                   ; 0xd015 <__heap_start+0x3d0f>
    23c7: 64 34        	stz	$34                     ; 0x2034 <f256main+0x1718>
    23c9: 9c 16 d0     	stz	$d016                   ; 0xd016 <__heap_start+0x3d10>
    23cc: 9c 17 d0     	stz	$d017                   ; 0xd017 <__heap_start+0x3d11>
    23cf: a2 15        	ldx	#$15
    23d1: 86 12        	stx	$12                     ; 0x2012 <f256main+0x16f6>
    23d3: a2 89        	ldx	#$89
    23d5: 86 13        	stx	$13                     ; 0x2013 <f256main+0x16f7>
    23d7: 20 63 30     	jsr	$3063 <textPrint>
    23da: a2 50        	ldx	#$50
    23dc: 86 30        	stx	$30                     ; 0x2030 <f256main+0x1714>
    23de: 64 2e        	stz	$2e                     ; 0x202e <f256main+0x1712>
    23e0: a2 e1        	ldx	#$e1
    23e2: 86 12        	stx	$12                     ; 0x2012 <f256main+0x16f6>
    23e4: a2 7e        	ldx	#$7e
    23e6: 86 13        	stx	$13                     ; 0x2013 <f256main+0x16f7>
    23e8: a5 12        	lda	$12                     ; 0x2012 <f256main+0x16f6>
    23ea: a0 0c        	ldy	#$c
    23ec: 91 10        	sta	($10),y                 ; 0x2010 <f256main+0x16f4>
    23ee: a5 13        	lda	$13                     ; 0x2013 <f256main+0x16f7>
    23f0: c8           	iny
    23f1: 91 10        	sta	($10),y                 ; 0x2010 <f256main+0x16f4>
    23f3: a5 28        	lda	$28                     ; 0x2028 <f256main+0x170c>
    23f5: 18           	clc
    23f6: 65 2e        	adc	$2e                     ; 0x202e <f256main+0x1712>
    23f8: a2 02        	ldx	#$2
    23fa: 86 33        	stx	$33                     ; 0x2033 <f256main+0x1717>
    23fc: 8e 14 d0     	stx	$d014                   ; 0xd014 <__heap_start+0x3d0e>
    23ff: 9c 15 d0     	stz	$d015                   ; 0xd015 <__heap_start+0x3d0f>
    2402: 85 34        	sta	$34                     ; 0x2034 <f256main+0x1718>
    2404: 8d 16 d0     	sta	$d016                   ; 0xd016 <__heap_start+0x3d10>
    2407: 9c 17 d0     	stz	$d017                   ; 0xd017 <__heap_start+0x3d11>
    240a: a6 29        	ldx	$29                     ; 0x2029 <f256main+0x170d>
    240c: bc c3 92     	ldy	$92c3,x                 ; 0x92c3 <sid_instruments_names>
    240f: 84 14        	sty	$14                     ; 0x2014 <f256main+0x16f8>
    2411: bd c4 92     	lda	$92c4,x                 ; 0x92c4 <sid_instruments_names+0x1>
    2414: aa           	tax
    2415: 86 15        	stx	$15                     ; 0x2015 <f256main+0x16f9>
    2417: a5 10        	lda	$10                     ; 0x2010 <f256main+0x16f4>
    2419: a6 11        	ldx	$11                     ; 0x2011 <f256main+0x16f5>
    241b: 18           	clc
    241c: 69 02        	adc	#$2
    241e: 85 12        	sta	$12                     ; 0x2012 <f256main+0x16f6>
    2420: 8a           	txa
    2421: 69 00        	adc	#$0
    2423: 85 13        	sta	$13                     ; 0x2013 <f256main+0x16f7>
    2425: a5 2e        	lda	$2e                     ; 0x202e <f256main+0x1712>
    2427: 92 10        	sta	($10)                   ; 0x2010 <f256main+0x16f4>
    2429: a9 00        	lda	#$0
    242b: a0 01        	ldy	#$1
    242d: 91 10        	sta	($10),y                 ; 0x2010 <f256main+0x16f4>
    242f: c8           	iny
    2430: a5 14        	lda	$14                     ; 0x2014 <f256main+0x16f8>
    2432: 91 10        	sta	($10),y                 ; 0x2010 <f256main+0x16f4>
    2434: a5 15        	lda	$15                     ; 0x2015 <f256main+0x16f9>
    2436: 88           	dey
    2437: 91 12        	sta	($12),y                 ; 0x2012 <f256main+0x16f6>
    2439: a0 0c        	ldy	#$c
    243b: b1 10        	lda	($10),y                 ; 0x2010 <f256main+0x16f4>
    243d: 85 12        	sta	$12                     ; 0x2012 <f256main+0x16f6>
    243f: c8           	iny
    2440: b1 10        	lda	($10),y                 ; 0x2010 <f256main+0x16f4>
    2442: 85 13        	sta	$13                     ; 0x2013 <f256main+0x16f7>
    2444: 20 45 59     	jsr	$5945 <printf>
    2447: e6 2e        	inc	$2e                     ; 0x202e <f256main+0x1712>
    2449: 18           	clc
    244a: a5 29        	lda	$29                     ; 0x2029 <f256main+0x170d>
    244c: 69 02        	adc	#$2
    244e: 85 29        	sta	$29                     ; 0x2029 <f256main+0x170d>
    2450: c9 0a        	cmp	#$a
    2452: f0 03        	beq	$2457 <f256main+0x1b3b>
    2454: 4c f3 23     	jmp	$23f3 <f256main+0x1ad7>
    2457: a0 06        	ldy	#$6
    2459: b1 2c        	lda	($2c),y                 ; 0x202c <f256main+0x1710>
    245b: a2 ff        	ldx	#$ff
    245d: 86 2e        	stx	$2e                     ; 0x202e <f256main+0x1712>
    245f: a2 92        	ldx	#$92
    2461: 86 2f        	stx	$2f                     ; 0x202f <f256main+0x1713>
    2463: a0 01        	ldy	#$1
    2465: a2 e1        	ldx	#$e1
    2467: 86 12        	stx	$12                     ; 0x2012 <f256main+0x16f6>
    2469: a2 7e        	ldx	#$7e
    246b: 86 13        	stx	$13                     ; 0x2013 <f256main+0x16f7>
    246d: 48           	pha
    246e: 5a           	phy
    246f: a5 12        	lda	$12                     ; 0x2012 <f256main+0x16f6>
    2471: a0 0c        	ldy	#$c
    2473: 91 10        	sta	($10),y                 ; 0x2010 <f256main+0x16f4>
    2475: a5 13        	lda	$13                     ; 0x2013 <f256main+0x16f7>
    2477: c8           	iny
    2478: 91 10        	sta	($10),y                 ; 0x2010 <f256main+0x16f4>
    247a: 7a           	ply
    247b: 68           	pla
    247c: c9 03        	cmp	#$3
    247e: f0 03        	beq	$2483 <f256main+0x1b67>
    2480: 4c 15 25     	jmp	$2515 <f256main+0x1bf9>
    2483: a6 28        	ldx	$28                     ; 0x2028 <f256main+0x170c>
    2485: 86 2b        	stx	$2b                     ; 0x202b <f256main+0x170f>
    2487: 64 28        	stz	$28                     ; 0x2028 <f256main+0x170c>
    2489: 64 33        	stz	$33                     ; 0x2033 <f256main+0x1717>
    248b: 9c 14 d0     	stz	$d014                   ; 0xd014 <__heap_start+0x3d0e>
    248e: 9c 15 d0     	stz	$d015                   ; 0xd015 <__heap_start+0x3d0f>
    2491: 64 34        	stz	$34                     ; 0x2034 <f256main+0x1718>
    2493: 9c 16 d0     	stz	$d016                   ; 0xd016 <__heap_start+0x3d10>
    2496: 9c 17 d0     	stz	$d017                   ; 0xd017 <__heap_start+0x3d11>
    2499: a2 e1        	ldx	#$e1
    249b: 86 12        	stx	$12                     ; 0x2012 <f256main+0x16f6>
    249d: a2 7f        	ldx	#$7f
    249f: 86 13        	stx	$13                     ; 0x2013 <f256main+0x16f7>
    24a1: 20 63 30     	jsr	$3063 <textPrint>
    24a4: a2 50        	ldx	#$50
    24a6: 86 30        	stx	$30                     ; 0x2030 <f256main+0x1714>
    24a8: a2 00        	ldx	#$0
    24aa: 86 12        	stx	$12                     ; 0x2012 <f256main+0x16f6>
    24ac: 86 29        	stx	$29                     ; 0x2029 <f256main+0x170d>
    24ae: a5 2b        	lda	$2b                     ; 0x202b <f256main+0x170f>
    24b0: 18           	clc
    24b1: 65 12        	adc	$12                     ; 0x2012 <f256main+0x16f6>
    24b3: a2 02        	ldx	#$2
    24b5: 86 33        	stx	$33                     ; 0x2033 <f256main+0x1717>
    24b7: 8e 14 d0     	stx	$d014                   ; 0xd014 <__heap_start+0x3d0e>
    24ba: 9c 15 d0     	stz	$d015                   ; 0xd015 <__heap_start+0x3d0f>
    24bd: 85 34        	sta	$34                     ; 0x2034 <f256main+0x1718>
    24bf: 8d 16 d0     	sta	$d016                   ; 0xd016 <__heap_start+0x3d10>
    24c2: 9c 17 d0     	stz	$d017                   ; 0xd017 <__heap_start+0x3d11>
    24c5: a6 28        	ldx	$28                     ; 0x2028 <f256main+0x170c>
    24c7: bc cd 92     	ldy	$92cd,x                 ; 0x92cd <opl3_instrument_names>
    24ca: 84 14        	sty	$14                     ; 0x2014 <f256main+0x16f8>
    24cc: bd ce 92     	lda	$92ce,x                 ; 0x92ce <opl3_instrument_names+0x1>
    24cf: aa           	tax
    24d0: 86 15        	stx	$15                     ; 0x2015 <f256main+0x16f9>
    24d2: a5 10        	lda	$10                     ; 0x2010 <f256main+0x16f4>
    24d4: a6 11        	ldx	$11                     ; 0x2011 <f256main+0x16f5>
    24d6: 18           	clc
    24d7: 69 02        	adc	#$2
    24d9: 85 12        	sta	$12                     ; 0x2012 <f256main+0x16f6>
    24db: 8a           	txa
    24dc: 69 00        	adc	#$0
    24de: 85 13        	sta	$13                     ; 0x2013 <f256main+0x16f7>
    24e0: a5 29        	lda	$29                     ; 0x2029 <f256main+0x170d>
    24e2: 92 10        	sta	($10)                   ; 0x2010 <f256main+0x16f4>
    24e4: a9 00        	lda	#$0
    24e6: a0 01        	ldy	#$1
    24e8: 91 10        	sta	($10),y                 ; 0x2010 <f256main+0x16f4>
    24ea: c8           	iny
    24eb: a5 14        	lda	$14                     ; 0x2014 <f256main+0x16f8>
    24ed: 91 10        	sta	($10),y                 ; 0x2010 <f256main+0x16f4>
    24ef: a5 15        	lda	$15                     ; 0x2015 <f256main+0x16f9>
    24f1: 88           	dey
    24f2: 91 12        	sta	($12),y                 ; 0x2012 <f256main+0x16f6>
    24f4: a0 0c        	ldy	#$c
    24f6: b1 10        	lda	($10),y                 ; 0x2010 <f256main+0x16f4>
    24f8: 85 12        	sta	$12                     ; 0x2012 <f256main+0x16f6>
    24fa: c8           	iny
    24fb: b1 10        	lda	($10),y                 ; 0x2010 <f256main+0x16f4>
    24fd: 85 13        	sta	$13                     ; 0x2013 <f256main+0x16f7>
    24ff: 20 45 59     	jsr	$5945 <printf>
    2502: a6 29        	ldx	$29                     ; 0x2029 <f256main+0x170d>
    2504: a0 01        	ldy	#$1
    2506: e8           	inx
    2507: 18           	clc
    2508: a5 28        	lda	$28                     ; 0x2028 <f256main+0x170c>
    250a: 69 02        	adc	#$2
    250c: 85 28        	sta	$28                     ; 0x2028 <f256main+0x170c>
    250e: c9 2c        	cmp	#$2c
    2510: f0 03        	beq	$2515 <f256main+0x1bf9>
    2512: 4c aa 24     	jmp	$24aa <f256main+0x1b8e>
    2515: a6 2c        	ldx	$2c                     ; 0x202c <f256main+0x1710>
    2517: 86 12        	stx	$12                     ; 0x2012 <f256main+0x16f6>
    2519: a6 2d        	ldx	$2d                     ; 0x202d <f256main+0x1711>
    251b: 86 13        	stx	$13                     ; 0x2013 <f256main+0x16f7>
    251d: 98           	tya
    251e: 20 b2 54     	jsr	$54b2 <highLightInstChoice>
    2521: a0 08        	ldy	#$8
    2523: b1 10        	lda	($10),y                 ; 0x2010 <f256main+0x16f4>
    2525: 85 28        	sta	$28                     ; 0x2028 <f256main+0x170c>
    2527: c8           	iny
    2528: b1 10        	lda	($10),y                 ; 0x2010 <f256main+0x16f4>
    252a: 85 29        	sta	$29                     ; 0x2029 <f256main+0x170d>
    252c: 4c ab 0e     	jmp	$eab <f256main+0x58f>
    252f: a5 62        	lda	$62                     ; 0x2062 <f256main+0x1746>
    2531: 29 01        	and	#$1
    2533: f0 03        	beq	$2538 <f256main+0x1c1c>
    2535: 4c ab 0e     	jmp	$eab <f256main+0x58f>
    2538: 84 15        	sty	$15                     ; 0x2015 <f256main+0x16f9>
    253a: 86 14        	stx	$14                     ; 0x2014 <f256main+0x16f8>
    253c: 18           	clc
    253d: a5 16        	lda	$16                     ; 0x2016 <f256main+0x16fa>
    253f: 65 14        	adc	$14                     ; 0x2014 <f256main+0x16f8>
    2541: 85 14        	sta	$14                     ; 0x2014 <f256main+0x16f8>
    2543: a5 17        	lda	$17                     ; 0x2017 <f256main+0x16fb>
    2545: 65 15        	adc	$15                     ; 0x2015 <f256main+0x16f9>
    2547: 85 15        	sta	$15                     ; 0x2015 <f256main+0x16f9>
    2549: b2 14        	lda	($14)                   ; 0x2014 <f256main+0x16f8>
    254b: f0 03        	beq	$2550 <f256main+0x1c34>
    254d: 4c ae 25     	jmp	$25ae <f256main+0x1c92>
    2550: a6 61        	ldx	$61                     ; 0x2061 <f256main+0x1745>
    2552: f0 03        	beq	$2557 <f256main+0x1c3b>
    2554: 4c ab 0e     	jmp	$eab <f256main+0x58f>
    2557: a5 64        	lda	$64                     ; 0x2064 <f256main+0x1748>
    2559: 29 01        	and	#$1
    255b: d0 03        	bne	$2560 <f256main+0x1c44>
    255d: 4c 14 2f     	jmp	$2f14 <f256main+0x25f8>
    2560: a2 09        	ldx	#$9
    2562: 64 15        	stz	$15                     ; 0x2015 <f256main+0x16f9>
    2564: 86 14        	stx	$14                     ; 0x2014 <f256main+0x16f8>
    2566: 4c 18 2f     	jmp	$2f18 <f256main+0x25fc>
    2569: a2 66        	ldx	#$66
    256b: 86 14        	stx	$14                     ; 0x2014 <f256main+0x16f8>
    256d: a2 00        	ldx	#$0
    256f: 86 15        	stx	$15                     ; 0x2015 <f256main+0x16f9>
    2571: a9 00        	lda	#$0
    2573: 92 14        	sta	($14)                   ; 0x2014 <f256main+0x16f8>
    2575: 20 49 50     	jsr	$5049 <showMIDIChoiceText>
    2578: 4c ab 0e     	jmp	$eab <f256main+0x58f>
    257b: a5 62        	lda	$62                     ; 0x2062 <f256main+0x1746>
    257d: 29 01        	and	#$1
    257f: f0 03        	beq	$2584 <f256main+0x1c68>
    2581: 4c ab 0e     	jmp	$eab <f256main+0x58f>
    2584: 84 15        	sty	$15                     ; 0x2015 <f256main+0x16f9>
    2586: 86 14        	stx	$14                     ; 0x2014 <f256main+0x16f8>
    2588: 18           	clc
    2589: a5 16        	lda	$16                     ; 0x2016 <f256main+0x16fa>
    258b: 65 14        	adc	$14                     ; 0x2014 <f256main+0x16f8>
    258d: 85 14        	sta	$14                     ; 0x2014 <f256main+0x16f8>
    258f: a5 17        	lda	$17                     ; 0x2017 <f256main+0x16fb>
    2591: 65 15        	adc	$15                     ; 0x2015 <f256main+0x16f9>
    2593: 85 15        	sta	$15                     ; 0x2015 <f256main+0x16f9>
    2595: b2 14        	lda	($14)                   ; 0x2014 <f256main+0x16f8>
    2597: f0 15        	beq	$25ae <f256main+0x1c92>
    2599: a6 61        	ldx	$61                     ; 0x2061 <f256main+0x1745>
    259b: f0 03        	beq	$25a0 <f256main+0x1c84>
    259d: 4c ab 0e     	jmp	$eab <f256main+0x58f>
    25a0: a5 64        	lda	$64                     ; 0x2064 <f256main+0x1748>
    25a2: 29 01        	and	#$1
    25a4: d0 03        	bne	$25a9 <f256main+0x1c8d>
    25a6: 4c b0 2d     	jmp	$2db0 <f256main+0x2494>
    25a9: a2 09        	ldx	#$9
    25ab: 4c b2 2d     	jmp	$2db2 <f256main+0x2496>
    25ae: a2 01        	ldx	#$1
    25b0: 86 62        	stx	$62                     ; 0x2062 <f256main+0x1746>
    25b2: 4c ab 0e     	jmp	$eab <f256main+0x58f>
    25b5: a5 64        	lda	$64                     ; 0x2064 <f256main+0x1748>
    25b7: 29 01        	and	#$1
    25b9: d0 03        	bne	$25be <f256main+0x1ca2>
    25bb: 4c 47 27     	jmp	$2747 <f256main+0x1e2b>
    25be: a2 0b        	ldx	#$b
    25c0: 48           	pha
    25c1: 8a           	txa
    25c2: 4c 4c 27     	jmp	$274c <f256main+0x1e30>
    25c5: a5 64        	lda	$64                     ; 0x2064 <f256main+0x1748>
    25c7: 29 01        	and	#$1
    25c9: a2 4c        	ldx	#$4c
    25cb: 64 12        	stz	$12                     ; 0x2012 <f256main+0x16f6>
    25cd: a8           	tay
    25ce: d0 02        	bne	$25d2 <f256main+0x1cb6>
    25d0: a2 57        	ldx	#$57
    25d2: 86 13        	stx	$13                     ; 0x2013 <f256main+0x16f7>
    25d4: a6 31        	ldx	$31                     ; 0x2031 <f256main+0x1715>
    25d6: a4 32        	ldy	$32                     ; 0x2032 <f256main+0x1716>
    25d8: c4 12        	cpy	$12                     ; 0x2012 <f256main+0x16f6>
    25da: f0 03        	beq	$25df <f256main+0x1cc3>
    25dc: 4c b3 27     	jmp	$27b3 <f256main+0x1e97>
    25df: 84 15        	sty	$15                     ; 0x2015 <f256main+0x16f9>
    25e1: 86 14        	stx	$14                     ; 0x2014 <f256main+0x16f8>
    25e3: e4 13        	cpx	$13                     ; 0x2013 <f256main+0x16f7>
    25e5: b0 03        	bcs	$25ea <f256main+0x1cce>
    25e7: 4c be 27     	jmp	$27be <f256main+0x1ea2>
    25ea: 4c d2 2a     	jmp	$2ad2 <f256main+0x21b6>
    25ed: a0 01        	ldy	#$1
    25ef: aa           	tax
    25f0: f0 03        	beq	$25f5 <f256main+0x1cd9>
    25f2: 4c 95 2c     	jmp	$2c95 <f256main+0x2379>
    25f5: a6 12        	ldx	$12                     ; 0x2012 <f256main+0x16f6>
    25f7: 86 14        	stx	$14                     ; 0x2014 <f256main+0x16f8>
    25f9: a6 13        	ldx	$13                     ; 0x2013 <f256main+0x16f7>
    25fb: 86 15        	stx	$15                     ; 0x2015 <f256main+0x16f9>
    25fd: e6 14        	inc	$14                     ; 0x2014 <f256main+0x16f8>
    25ff: d0 02        	bne	$2603 <f256main+0x1ce7>
    2601: e6 15        	inc	$15                     ; 0x2015 <f256main+0x16f9>
    2603: a5 64        	lda	$64                     ; 0x2064 <f256main+0x1748>
    2605: 29 01        	and	#$1
    2607: d0 03        	bne	$260c <f256main+0x1cf0>
    2609: 4c 54 2b     	jmp	$2b54 <f256main+0x2238>
    260c: a2 09        	ldx	#$9
    260e: 64 17        	stz	$17                     ; 0x2017 <f256main+0x16fb>
    2610: 86 16        	stx	$16                     ; 0x2016 <f256main+0x16fa>
    2612: 4c 58 2b     	jmp	$2b58 <f256main+0x223c>
    2615: a0 01        	ldy	#$1
    2617: aa           	tax
    2618: f0 03        	beq	$261d <f256main+0x1d01>
    261a: 4c 9d 2d     	jmp	$2d9d <f256main+0x2481>
    261d: a6 12        	ldx	$12                     ; 0x2012 <f256main+0x16f6>
    261f: 86 14        	stx	$14                     ; 0x2014 <f256main+0x16f8>
    2621: a6 13        	ldx	$13                     ; 0x2013 <f256main+0x16f7>
    2623: 86 15        	stx	$15                     ; 0x2015 <f256main+0x16f9>
    2625: e6 14        	inc	$14                     ; 0x2014 <f256main+0x16f8>
    2627: d0 02        	bne	$262b <f256main+0x1d0f>
    2629: e6 15        	inc	$15                     ; 0x2015 <f256main+0x16f9>
    262b: a5 64        	lda	$64                     ; 0x2064 <f256main+0x1748>
    262d: 29 01        	and	#$1
    262f: d0 03        	bne	$2634 <f256main+0x1d18>
    2631: 4c c9 2b     	jmp	$2bc9 <f256main+0x22ad>
    2634: a2 09        	ldx	#$9
    2636: 8a           	txa
    2637: 4c cd 2b     	jmp	$2bcd <f256main+0x22b1>
    263a: 64 18        	stz	$18                     ; 0x2018 <f256main+0x16fc>
    263c: b2 2c        	lda	($2c)                   ; 0x202c <f256main+0x1710>
    263e: a2 a1        	ldx	#$a1
    2640: 86 12        	stx	$12                     ; 0x2012 <f256main+0x16f6>
    2642: a2 dd        	ldx	#$dd
    2644: 86 13        	stx	$13                     ; 0x2013 <f256main+0x16f7>
    2646: a2 b1        	ldx	#$b1
    2648: 86 14        	stx	$14                     ; 0x2014 <f256main+0x16f8>
    264a: a2 dd        	ldx	#$dd
    264c: 86 15        	stx	$15                     ; 0x2015 <f256main+0x16f9>
    264e: 48           	pha
    264f: 5a           	phy
    2650: a5 14        	lda	$14                     ; 0x2014 <f256main+0x16f8>
    2652: a0 0c        	ldy	#$c
    2654: 91 10        	sta	($10),y                 ; 0x2010 <f256main+0x16f4>
    2656: a5 15        	lda	$15                     ; 0x2015 <f256main+0x16f9>
    2658: c8           	iny
    2659: 91 10        	sta	($10),y                 ; 0x2010 <f256main+0x16f4>
    265b: 7a           	ply
    265c: 68           	pla
    265d: f0 0d        	beq	$266c <f256main+0x1d50>
    265f: 5a           	phy
    2660: a0 0c        	ldy	#$c
    2662: b1 10        	lda	($10),y                 ; 0x2010 <f256main+0x16f4>
    2664: 85 12        	sta	$12                     ; 0x2012 <f256main+0x16f6>
    2666: c8           	iny
    2667: b1 10        	lda	($10),y                 ; 0x2010 <f256main+0x16f4>
    2669: 7a           	ply
    266a: 85 13        	sta	$13                     ; 0x2013 <f256main+0x16f7>
    266c: 98           	tya
    266d: 09 c0        	ora	#$c0
    266f: 92 12        	sta	($12)                   ; 0x2012 <f256main+0x16f6>
    2671: a5 18        	lda	$18                     ; 0x2018 <f256main+0x16fc>
    2673: 92 12        	sta	($12)                   ; 0x2012 <f256main+0x16f6>
    2675: a6 6a        	ldx	$6a                     ; 0x206a <f256main+0x174e>
    2677: a4 6b        	ldy	$6b                     ; 0x206b <f256main+0x174f>
    2679: 86 12        	stx	$12                     ; 0x2012 <f256main+0x16f6>
    267b: 84 13        	sty	$13                     ; 0x2013 <f256main+0x16f7>
    267d: 86 14        	stx	$14                     ; 0x2014 <f256main+0x16f8>
    267f: 84 15        	sty	$15                     ; 0x2015 <f256main+0x16f9>
    2681: e6 14        	inc	$14                     ; 0x2014 <f256main+0x16f8>
    2683: d0 02        	bne	$2687 <f256main+0x1d6b>
    2685: e6 15        	inc	$15                     ; 0x2015 <f256main+0x16f9>
    2687: a0 01        	ldy	#$1
    2689: b1 12        	lda	($12),y                 ; 0x2012 <f256main+0x16f6>
    268b: aa           	tax
    268c: b1 14        	lda	($14),y                 ; 0x2014 <f256main+0x16f8>
    268e: 86 14        	stx	$14                     ; 0x2014 <f256main+0x16f8>
    2690: 85 15        	sta	$15                     ; 0x2015 <f256main+0x16f9>
    2692: a0 05        	ldy	#$5
    2694: b1 12        	lda	($12),y                 ; 0x2012 <f256main+0x16f6>
    2696: aa           	tax
    2697: a8           	tay
    2698: b1 14        	lda	($14),y                 ; 0x2014 <f256main+0x16f8>
    269a: 85 16        	sta	$16                     ; 0x2016 <f256main+0x16fa>
    269c: b2 12        	lda	($12)                   ; 0x2012 <f256main+0x16f6>
    269e: 48           	pha
    269f: a0 0c        	ldy	#$c
    26a1: b1 10        	lda	($10),y                 ; 0x2010 <f256main+0x16f4>
    26a3: 85 12        	sta	$12                     ; 0x2012 <f256main+0x16f6>
    26a5: c8           	iny
    26a6: b1 10        	lda	($10),y                 ; 0x2010 <f256main+0x16f4>
    26a8: 85 13        	sta	$13                     ; 0x2013 <f256main+0x16f7>
    26aa: 68           	pla
    26ab: f0 08        	beq	$26b5 <f256main+0x1d99>
    26ad: a0 a1        	ldy	#$a1
    26af: 84 12        	sty	$12                     ; 0x2012 <f256main+0x16f6>
    26b1: a0 dd        	ldy	#$dd
    26b3: 84 13        	sty	$13                     ; 0x2013 <f256main+0x16f7>
    26b5: 8a           	txa
    26b6: 09 c0        	ora	#$c0
    26b8: 92 12        	sta	($12)                   ; 0x2012 <f256main+0x16f6>
    26ba: a5 16        	lda	$16                     ; 0x2016 <f256main+0x16fa>
    26bc: 92 12        	sta	($12)                   ; 0x2012 <f256main+0x16f6>
    26be: 4c ab 0e     	jmp	$eab <f256main+0x58f>
    26c1: 86 2b        	stx	$2b                     ; 0x202b <f256main+0x170f>
    26c3: a9 00        	lda	#$0
    26c5: 91 12        	sta	($12),y                 ; 0x2012 <f256main+0x16f6>
    26c7: a9 00        	lda	#$0
    26c9: a0 05        	ldy	#$5
    26cb: 91 12        	sta	($12),y                 ; 0x2012 <f256main+0x16f6>
    26cd: a2 90        	ldx	#$90
    26cf: 86 30        	stx	$30                     ; 0x2030 <f256main+0x1714>
    26d1: 64 33        	stz	$33                     ; 0x2033 <f256main+0x1717>
    26d3: 9c 14 d0     	stz	$d014                   ; 0xd014 <__heap_start+0x3d0e>
    26d6: 9c 15 d0     	stz	$d015                   ; 0xd015 <__heap_start+0x3d0f>
    26d9: a2 1e        	ldx	#$1e
    26db: 86 34        	stx	$34                     ; 0x2034 <f256main+0x1718>
    26dd: 8e 16 d0     	stx	$d016                   ; 0xd016 <__heap_start+0x3d10>
    26e0: 9c 17 d0     	stz	$d017                   ; 0xd017 <__heap_start+0x3d11>
    26e3: a2 fa        	ldx	#$fa
    26e5: 86 35        	stx	$35                     ; 0x2035 <f256main+0x1719>
    26e7: a2 35        	ldx	#$35
    26e9: 86 12        	stx	$12                     ; 0x2012 <f256main+0x16f6>
    26eb: a2 00        	ldx	#$0
    26ed: 86 13        	stx	$13                     ; 0x2013 <f256main+0x16f7>
    26ef: 20 63 30     	jsr	$3063 <textPrint>
    26f2: 64 33        	stz	$33                     ; 0x2033 <f256main+0x1717>
    26f4: 9c 14 d0     	stz	$d014                   ; 0xd014 <__heap_start+0x3d0e>
    26f7: 9c 15 d0     	stz	$d015                   ; 0xd015 <__heap_start+0x3d0f>
    26fa: a2 1f        	ldx	#$1f
    26fc: 86 34        	stx	$34                     ; 0x2034 <f256main+0x1718>
    26fe: 8e 16 d0     	stx	$d016                   ; 0xd016 <__heap_start+0x3d10>
    2701: 9c 17 d0     	stz	$d017                   ; 0xd017 <__heap_start+0x3d11>
    2704: a2 9e        	ldx	#$9e
    2706: 86 12        	stx	$12                     ; 0x2012 <f256main+0x16f6>
    2708: a2 7f        	ldx	#$7f
    270a: 86 13        	stx	$13                     ; 0x2013 <f256main+0x16f7>
    270c: a5 2b        	lda	$2b                     ; 0x202b <f256main+0x170f>
    270e: f0 0c        	beq	$271c <f256main+0x1e00>
    2710: a2 fa        	ldx	#$fa
    2712: 86 35        	stx	$35                     ; 0x2035 <f256main+0x1719>
    2714: a2 35        	ldx	#$35
    2716: 86 12        	stx	$12                     ; 0x2012 <f256main+0x16f6>
    2718: a2 00        	ldx	#$0
    271a: 86 13        	stx	$13                     ; 0x2013 <f256main+0x16f7>
    271c: 20 63 30     	jsr	$3063 <textPrint>
    271f: 64 33        	stz	$33                     ; 0x2033 <f256main+0x1717>
    2721: 9c 14 d0     	stz	$d014                   ; 0xd014 <__heap_start+0x3d0e>
    2724: 9c 15 d0     	stz	$d015                   ; 0xd015 <__heap_start+0x3d0f>
    2727: a2 20        	ldx	#$20
    2729: 86 34        	stx	$34                     ; 0x2034 <f256main+0x1718>
    272b: 8e 16 d0     	stx	$d016                   ; 0xd016 <__heap_start+0x3d10>
    272e: 9c 17 d0     	stz	$d017                   ; 0xd017 <__heap_start+0x3d11>
    2731: a2 9e        	ldx	#$9e
    2733: 86 12        	stx	$12                     ; 0x2012 <f256main+0x16f6>
    2735: a2 7f        	ldx	#$7f
    2737: 86 13        	stx	$13                     ; 0x2013 <f256main+0x16f7>
    2739: 20 63 30     	jsr	$3063 <textPrint>
    273c: a6 6a        	ldx	$6a                     ; 0x206a <f256main+0x174e>
    273e: a4 6b        	ldy	$6b                     ; 0x206b <f256main+0x174f>
    2740: 86 12        	stx	$12                     ; 0x2012 <f256main+0x16f6>
    2742: 84 13        	sty	$13                     ; 0x2013 <f256main+0x16f7>
    2744: 4c fc 27     	jmp	$27fc <f256main+0x1ee0>
    2747: 64 12        	stz	$12                     ; 0x2012 <f256main+0x16f6>
    2749: 48           	pha
    274a: a9 00        	lda	#$0
    274c: a0 0c        	ldy	#$c
    274e: 91 10        	sta	($10),y                 ; 0x2010 <f256main+0x16f4>
    2750: 68           	pla
    2751: 64 13        	stz	$13                     ; 0x2013 <f256main+0x16f7>
    2753: a4 31        	ldy	$31                     ; 0x2031 <f256main+0x1715>
    2755: a6 32        	ldx	$32                     ; 0x2032 <f256main+0x1716>
    2757: 86 12        	stx	$12                     ; 0x2012 <f256main+0x16f6>
    2759: a2 00        	ldx	#$0
    275b: e4 12        	cpx	$12                     ; 0x2012 <f256main+0x16f6>
    275d: d0 12        	bne	$2771 <f256main+0x1e55>
    275f: 84 16        	sty	$16                     ; 0x2016 <f256main+0x16fa>
    2761: 84 13        	sty	$13                     ; 0x2013 <f256main+0x16f7>
    2763: 48           	pha
    2764: a0 0c        	ldy	#$c
    2766: b1 10        	lda	($10),y                 ; 0x2010 <f256main+0x16f4>
    2768: aa           	tax
    2769: 68           	pla
    276a: e4 13        	cpx	$13                     ; 0x2013 <f256main+0x16f7>
    276c: 90 0c        	bcc	$277a <f256main+0x1e5e>
    276e: 4c 94 2a     	jmp	$2a94 <f256main+0x2178>
    2771: 84 16        	sty	$16                     ; 0x2016 <f256main+0x16fa>
    2773: e4 12        	cpx	$12                     ; 0x2012 <f256main+0x16f6>
    2775: 90 03        	bcc	$277a <f256main+0x1e5e>
    2777: 4c 94 2a     	jmp	$2a94 <f256main+0x2178>
    277a: 85 13        	sta	$13                     ; 0x2013 <f256main+0x16f7>
    277c: a6 6a        	ldx	$6a                     ; 0x206a <f256main+0x174e>
    277e: a4 6b        	ldy	$6b                     ; 0x206b <f256main+0x174f>
    2780: 86 14        	stx	$14                     ; 0x2014 <f256main+0x16f8>
    2782: 84 15        	sty	$15                     ; 0x2015 <f256main+0x16f9>
    2784: a0 06        	ldy	#$6
    2786: b1 14        	lda	($14),y                 ; 0x2014 <f256main+0x16f8>
    2788: d0 03        	bne	$278d <f256main+0x1e71>
    278a: 4c 69 2a     	jmp	$2a69 <f256main+0x214d>
    278d: 85 15        	sta	$15                     ; 0x2015 <f256main+0x16f9>
    278f: 18           	clc
    2790: a5 16        	lda	$16                     ; 0x2016 <f256main+0x16fa>
    2792: 69 15        	adc	#$15
    2794: 85 12        	sta	$12                     ; 0x2012 <f256main+0x16f6>
    2796: 64 13        	stz	$13                     ; 0x2013 <f256main+0x16f7>
    2798: 64 14        	stz	$14                     ; 0x2014 <f256main+0x16f8>
    279a: 64 16        	stz	$16                     ; 0x2016 <f256main+0x16fa>
    279c: 64 17        	stz	$17                     ; 0x2017 <f256main+0x16fb>
    279e: a2 00        	ldx	#$0
    27a0: 8a           	txa
    27a1: 20 1b 32     	jsr	$321b <dispatchNote>
    27a4: a6 31        	ldx	$31                     ; 0x2031 <f256main+0x1715>
    27a6: 86 16        	stx	$16                     ; 0x2016 <f256main+0x16fa>
    27a8: a6 32        	ldx	$32                     ; 0x2032 <f256main+0x1716>
    27aa: 86 14        	stx	$14                     ; 0x2014 <f256main+0x16f8>
    27ac: a5 64        	lda	$64                     ; 0x2064 <f256main+0x1748>
    27ae: 29 01        	and	#$1
    27b0: 4c 6f 2a     	jmp	$2a6f <f256main+0x2153>
    27b3: 86 14        	stx	$14                     ; 0x2014 <f256main+0x16f8>
    27b5: 84 15        	sty	$15                     ; 0x2015 <f256main+0x16f9>
    27b7: c4 12        	cpy	$12                     ; 0x2012 <f256main+0x16f6>
    27b9: 90 03        	bcc	$27be <f256main+0x1ea2>
    27bb: 4c d2 2a     	jmp	$2ad2 <f256main+0x21b6>
    27be: 85 16        	sta	$16                     ; 0x2016 <f256main+0x16fa>
    27c0: a6 6a        	ldx	$6a                     ; 0x206a <f256main+0x174e>
    27c2: a4 6b        	ldy	$6b                     ; 0x206b <f256main+0x174f>
    27c4: 86 12        	stx	$12                     ; 0x2012 <f256main+0x16f6>
    27c6: 84 13        	sty	$13                     ; 0x2013 <f256main+0x16f7>
    27c8: a0 06        	ldy	#$6
    27ca: b1 12        	lda	($12),y                 ; 0x2012 <f256main+0x16f6>
    27cc: d0 03        	bne	$27d1 <f256main+0x1eb5>
    27ce: 4c af 2a     	jmp	$2aaf <f256main+0x2193>
    27d1: aa           	tax
    27d2: 18           	clc
    27d3: a5 14        	lda	$14                     ; 0x2014 <f256main+0x16f8>
    27d5: 69 15        	adc	#$15
    27d7: 85 12        	sta	$12                     ; 0x2012 <f256main+0x16f6>
    27d9: 64 13        	stz	$13                     ; 0x2013 <f256main+0x16f7>
    27db: 64 14        	stz	$14                     ; 0x2014 <f256main+0x16f8>
    27dd: 86 15        	stx	$15                     ; 0x2015 <f256main+0x16f9>
    27df: 64 16        	stz	$16                     ; 0x2016 <f256main+0x16fa>
    27e1: 64 17        	stz	$17                     ; 0x2017 <f256main+0x16fb>
    27e3: a2 00        	ldx	#$0
    27e5: 8a           	txa
    27e6: 20 1b 32     	jsr	$321b <dispatchNote>
    27e9: a6 31        	ldx	$31                     ; 0x2031 <f256main+0x1715>
    27eb: 86 14        	stx	$14                     ; 0x2014 <f256main+0x16f8>
    27ed: a6 32        	ldx	$32                     ; 0x2032 <f256main+0x1716>
    27ef: 86 15        	stx	$15                     ; 0x2015 <f256main+0x16f9>
    27f1: a5 64        	lda	$64                     ; 0x2064 <f256main+0x1748>
    27f3: 29 01        	and	#$1
    27f5: 4c b1 2a     	jmp	$2ab1 <f256main+0x2195>
    27f8: a9 09        	lda	#$9
    27fa: 91 12        	sta	($12),y                 ; 0x2012 <f256main+0x16f6>
    27fc: 20 76 4d     	jsr	$4d76 <channelTextMenu>
    27ff: a6 6a        	ldx	$6a                     ; 0x206a <f256main+0x174e>
    2801: a4 6b        	ldy	$6b                     ; 0x206b <f256main+0x174f>
    2803: 86 12        	stx	$12                     ; 0x2012 <f256main+0x16f6>
    2805: 84 13        	sty	$13                     ; 0x2013 <f256main+0x16f7>
    2807: 20 f0 49     	jsr	$49f0 <refreshInstrumentText>
    280a: a2 b0        	ldx	#$b0
    280c: 8e b1 dd     	stx	$ddb1                   ; 0xddb1 <__heap_start+0x4aab>
    280f: a0 7b        	ldy	#$7b
    2811: 8c b1 dd     	sty	$ddb1                   ; 0xddb1 <__heap_start+0x4aab>
    2814: 9c b1 dd     	stz	$ddb1                   ; 0xddb1 <__heap_start+0x4aab>
    2817: 8e a1 dd     	stx	$dda1                   ; 0xdda1 <__heap_start+0x4a9b>
    281a: 8c a1 dd     	sty	$dda1                   ; 0xdda1 <__heap_start+0x4a9b>
    281d: 9c a1 dd     	stz	$dda1                   ; 0xdda1 <__heap_start+0x4a9b>
    2820: e8           	inx
    2821: 8e b1 dd     	stx	$ddb1                   ; 0xddb1 <__heap_start+0x4aab>
    2824: 8c b1 dd     	sty	$ddb1                   ; 0xddb1 <__heap_start+0x4aab>
    2827: 9c b1 dd     	stz	$ddb1                   ; 0xddb1 <__heap_start+0x4aab>
    282a: 8e a1 dd     	stx	$dda1                   ; 0xdda1 <__heap_start+0x4a9b>
    282d: 8c a1 dd     	sty	$dda1                   ; 0xdda1 <__heap_start+0x4a9b>
    2830: 9c a1 dd     	stz	$dda1                   ; 0xdda1 <__heap_start+0x4a9b>
    2833: a2 b9        	ldx	#$b9
    2835: 8e b1 dd     	stx	$ddb1                   ; 0xddb1 <__heap_start+0x4aab>
    2838: 8c b1 dd     	sty	$ddb1                   ; 0xddb1 <__heap_start+0x4aab>
    283b: 9c b1 dd     	stz	$ddb1                   ; 0xddb1 <__heap_start+0x4aab>
    283e: 8e a1 dd     	stx	$dda1                   ; 0xdda1 <__heap_start+0x4a9b>
    2841: 8c a1 dd     	sty	$dda1                   ; 0xdda1 <__heap_start+0x4a9b>
    2844: 9c a1 dd     	stz	$dda1                   ; 0xdda1 <__heap_start+0x4a9b>
    2847: 4c ab 0e     	jmp	$eab <f256main+0x58f>
    284a: c0 00        	cpy	#$0
    284c: 90 03        	bcc	$2851 <f256main+0x1f35>
    284e: 4c ab 0e     	jmp	$eab <f256main+0x58f>
    2851: a5 17        	lda	$17                     ; 0x2017 <f256main+0x16fb>
    2853: 20 83 56     	jsr	$5683 <modalMoveUp>
    2856: a6 6a        	ldx	$6a                     ; 0x206a <f256main+0x174e>
    2858: a4 6b        	ldy	$6b                     ; 0x206b <f256main+0x174f>
    285a: 86 12        	stx	$12                     ; 0x2012 <f256main+0x16f6>
    285c: 84 13        	sty	$13                     ; 0x2013 <f256main+0x16f7>
    285e: 86 14        	stx	$14                     ; 0x2014 <f256main+0x16f8>
    2860: 84 15        	sty	$15                     ; 0x2015 <f256main+0x16f9>
    2862: e6 14        	inc	$14                     ; 0x2014 <f256main+0x16f8>
    2864: d0 02        	bne	$2868 <f256main+0x1f4c>
    2866: e6 15        	inc	$15                     ; 0x2015 <f256main+0x16f9>
    2868: a0 01        	ldy	#$1
    286a: b1 12        	lda	($12),y                 ; 0x2012 <f256main+0x16f6>
    286c: aa           	tax
    286d: b1 14        	lda	($14),y                 ; 0x2014 <f256main+0x16f8>
    286f: 86 14        	stx	$14                     ; 0x2014 <f256main+0x16f8>
    2871: 85 15        	sta	$15                     ; 0x2015 <f256main+0x16f9>
    2873: a0 05        	ldy	#$5
    2875: b1 12        	lda	($12),y                 ; 0x2012 <f256main+0x16f6>
    2877: aa           	tax
    2878: a8           	tay
    2879: b1 14        	lda	($14),y                 ; 0x2014 <f256main+0x16f8>
    287b: 85 18        	sta	$18                     ; 0x2018 <f256main+0x16fc>
    287d: b2 12        	lda	($12)                   ; 0x2012 <f256main+0x16f6>
    287f: a0 a1        	ldy	#$a1
    2881: 84 12        	sty	$12                     ; 0x2012 <f256main+0x16f6>
    2883: a0 dd        	ldy	#$dd
    2885: 84 13        	sty	$13                     ; 0x2013 <f256main+0x16f7>
    2887: a0 b1        	ldy	#$b1
    2889: 84 14        	sty	$14                     ; 0x2014 <f256main+0x16f8>
    288b: a0 dd        	ldy	#$dd
    288d: 84 15        	sty	$15                     ; 0x2015 <f256main+0x16f9>
    288f: 48           	pha
    2890: a5 14        	lda	$14                     ; 0x2014 <f256main+0x16f8>
    2892: a0 0c        	ldy	#$c
    2894: 91 10        	sta	($10),y                 ; 0x2010 <f256main+0x16f4>
    2896: a5 15        	lda	$15                     ; 0x2015 <f256main+0x16f9>
    2898: c8           	iny
    2899: 91 10        	sta	($10),y                 ; 0x2010 <f256main+0x16f4>
    289b: 68           	pla
    289c: f0 0b        	beq	$28a9 <f256main+0x1f8d>
    289e: a0 0c        	ldy	#$c
    28a0: b1 10        	lda	($10),y                 ; 0x2010 <f256main+0x16f4>
    28a2: 85 12        	sta	$12                     ; 0x2012 <f256main+0x16f6>
    28a4: c8           	iny
    28a5: b1 10        	lda	($10),y                 ; 0x2010 <f256main+0x16f4>
    28a7: 85 13        	sta	$13                     ; 0x2013 <f256main+0x16f7>
    28a9: 8a           	txa
    28aa: 09 c0        	ora	#$c0
    28ac: 92 12        	sta	($12)                   ; 0x2012 <f256main+0x16f6>
    28ae: a5 18        	lda	$18                     ; 0x2018 <f256main+0x16fc>
    28b0: 92 12        	sta	($12)                   ; 0x2012 <f256main+0x16f6>
    28b2: a6 6a        	ldx	$6a                     ; 0x206a <f256main+0x174e>
    28b4: a4 6b        	ldy	$6b                     ; 0x206b <f256main+0x174f>
    28b6: 86 12        	stx	$12                     ; 0x2012 <f256main+0x16f6>
    28b8: 84 13        	sty	$13                     ; 0x2013 <f256main+0x16f7>
    28ba: 86 14        	stx	$14                     ; 0x2014 <f256main+0x16f8>
    28bc: 84 15        	sty	$15                     ; 0x2015 <f256main+0x16f9>
    28be: e6 14        	inc	$14                     ; 0x2014 <f256main+0x16f8>
    28c0: d0 02        	bne	$28c4 <f256main+0x1fa8>
    28c2: e6 15        	inc	$15                     ; 0x2015 <f256main+0x16f9>
    28c4: a0 01        	ldy	#$1
    28c6: b1 12        	lda	($12),y                 ; 0x2012 <f256main+0x16f6>
    28c8: aa           	tax
    28c9: b1 14        	lda	($14),y                 ; 0x2014 <f256main+0x16f8>
    28cb: 86 14        	stx	$14                     ; 0x2014 <f256main+0x16f8>
    28cd: 85 15        	sta	$15                     ; 0x2015 <f256main+0x16f9>
    28cf: a0 05        	ldy	#$5
    28d1: b1 12        	lda	($12),y                 ; 0x2012 <f256main+0x16f6>
    28d3: aa           	tax
    28d4: a8           	tay
    28d5: b1 14        	lda	($14),y                 ; 0x2014 <f256main+0x16f8>
    28d7: 85 16        	sta	$16                     ; 0x2016 <f256main+0x16fa>
    28d9: b2 12        	lda	($12)                   ; 0x2012 <f256main+0x16f6>
    28db: 48           	pha
    28dc: a0 0c        	ldy	#$c
    28de: b1 10        	lda	($10),y                 ; 0x2010 <f256main+0x16f4>
    28e0: 85 12        	sta	$12                     ; 0x2012 <f256main+0x16f6>
    28e2: c8           	iny
    28e3: b1 10        	lda	($10),y                 ; 0x2010 <f256main+0x16f4>
    28e5: 85 13        	sta	$13                     ; 0x2013 <f256main+0x16f7>
    28e7: 68           	pla
    28e8: f0 08        	beq	$28f2 <f256main+0x1fd6>
    28ea: a0 a1        	ldy	#$a1
    28ec: 84 12        	sty	$12                     ; 0x2012 <f256main+0x16f6>
    28ee: a0 dd        	ldy	#$dd
    28f0: 84 13        	sty	$13                     ; 0x2013 <f256main+0x16f7>
    28f2: 8a           	txa
    28f3: 09 c0        	ora	#$c0
    28f5: 92 12        	sta	($12)                   ; 0x2012 <f256main+0x16f6>
    28f7: a5 16        	lda	$16                     ; 0x2016 <f256main+0x16fa>
    28f9: 92 12        	sta	($12)                   ; 0x2012 <f256main+0x16f6>
    28fb: a6 6a        	ldx	$6a                     ; 0x206a <f256main+0x174e>
    28fd: a4 6b        	ldy	$6b                     ; 0x206b <f256main+0x174f>
    28ff: 86 12        	stx	$12                     ; 0x2012 <f256main+0x16f6>
    2901: 84 13        	sty	$13                     ; 0x2013 <f256main+0x16f7>
    2903: a0 06        	ldy	#$6
    2905: b1 12        	lda	($12),y                 ; 0x2012 <f256main+0x16f6>
    2907: c9 01        	cmp	#$1
    2909: d0 2b        	bne	$2936 <f256main+0x201a>
    290b: a0 03        	ldy	#$3
    290d: b1 12        	lda	($12),y                 ; 0x2012 <f256main+0x16f6>
    290f: d0 03        	bne	$2914 <f256main+0x1ff8>
    2911: 4c ab 0e     	jmp	$eab <f256main+0x58f>
    2914: a9 01        	lda	#$1
    2916: 25 64        	and	$64                     ; 0x2064 <f256main+0x1748>
    2918: 20 83 56     	jsr	$5683 <modalMoveUp>
    291b: a6 6a        	ldx	$6a                     ; 0x206a <f256main+0x174e>
    291d: a4 6b        	ldy	$6b                     ; 0x206b <f256main+0x174f>
    291f: 86 12        	stx	$12                     ; 0x2012 <f256main+0x16f6>
    2921: 84 13        	sty	$13                     ; 0x2013 <f256main+0x16f7>
    2923: a0 03        	ldy	#$3
    2925: b1 12        	lda	($12),y                 ; 0x2012 <f256main+0x16f6>
    2927: 20 da 42     	jsr	$42da <sid_setInstrumentAllChannels>
    292a: a6 6a        	ldx	$6a                     ; 0x206a <f256main+0x174e>
    292c: a4 6b        	ldy	$6b                     ; 0x206b <f256main+0x174f>
    292e: 86 12        	stx	$12                     ; 0x2012 <f256main+0x16f6>
    2930: 84 13        	sty	$13                     ; 0x2013 <f256main+0x16f7>
    2932: a0 06        	ldy	#$6
    2934: b1 12        	lda	($12),y                 ; 0x2012 <f256main+0x16f6>
    2936: c9 03        	cmp	#$3
    2938: f0 03        	beq	$293d <f256main+0x2021>
    293a: 4c ab 0e     	jmp	$eab <f256main+0x58f>
    293d: a0 04        	ldy	#$4
    293f: b1 12        	lda	($12),y                 ; 0x2012 <f256main+0x16f6>
    2941: d0 03        	bne	$2946 <f256main+0x202a>
    2943: 4c ab 0e     	jmp	$eab <f256main+0x58f>
    2946: a9 01        	lda	#$1
    2948: 25 64        	and	$64                     ; 0x2064 <f256main+0x1748>
    294a: 20 83 56     	jsr	$5683 <modalMoveUp>
    294d: 4c 57 2a     	jmp	$2a57 <f256main+0x213b>
    2950: e4 17        	cpx	$17                     ; 0x2017 <f256main+0x16fb>
    2952: 90 03        	bcc	$2957 <f256main+0x203b>
    2954: 4c ab 0e     	jmp	$eab <f256main+0x58f>
    2957: a5 18        	lda	$18                     ; 0x2018 <f256main+0x16fc>
    2959: 20 ee 56     	jsr	$56ee <modalMoveDown>
    295c: a6 6a        	ldx	$6a                     ; 0x206a <f256main+0x174e>
    295e: a4 6b        	ldy	$6b                     ; 0x206b <f256main+0x174f>
    2960: 86 12        	stx	$12                     ; 0x2012 <f256main+0x16f6>
    2962: 84 13        	sty	$13                     ; 0x2013 <f256main+0x16f7>
    2964: 86 14        	stx	$14                     ; 0x2014 <f256main+0x16f8>
    2966: 84 15        	sty	$15                     ; 0x2015 <f256main+0x16f9>
    2968: e6 14        	inc	$14                     ; 0x2014 <f256main+0x16f8>
    296a: d0 02        	bne	$296e <f256main+0x2052>
    296c: e6 15        	inc	$15                     ; 0x2015 <f256main+0x16f9>
    296e: a0 01        	ldy	#$1
    2970: b1 12        	lda	($12),y                 ; 0x2012 <f256main+0x16f6>
    2972: aa           	tax
    2973: b1 14        	lda	($14),y                 ; 0x2014 <f256main+0x16f8>
    2975: 86 14        	stx	$14                     ; 0x2014 <f256main+0x16f8>
    2977: 85 15        	sta	$15                     ; 0x2015 <f256main+0x16f9>
    2979: a0 05        	ldy	#$5
    297b: b1 12        	lda	($12),y                 ; 0x2012 <f256main+0x16f6>
    297d: aa           	tax
    297e: a8           	tay
    297f: b1 14        	lda	($14),y                 ; 0x2014 <f256main+0x16f8>
    2981: 85 18        	sta	$18                     ; 0x2018 <f256main+0x16fc>
    2983: b2 12        	lda	($12)                   ; 0x2012 <f256main+0x16f6>
    2985: a0 a1        	ldy	#$a1
    2987: 84 12        	sty	$12                     ; 0x2012 <f256main+0x16f6>
    2989: a0 dd        	ldy	#$dd
    298b: 84 13        	sty	$13                     ; 0x2013 <f256main+0x16f7>
    298d: a0 b1        	ldy	#$b1
    298f: 84 14        	sty	$14                     ; 0x2014 <f256main+0x16f8>
    2991: a0 dd        	ldy	#$dd
    2993: 84 15        	sty	$15                     ; 0x2015 <f256main+0x16f9>
    2995: 48           	pha
    2996: a5 14        	lda	$14                     ; 0x2014 <f256main+0x16f8>
    2998: a0 0c        	ldy	#$c
    299a: 91 10        	sta	($10),y                 ; 0x2010 <f256main+0x16f4>
    299c: a5 15        	lda	$15                     ; 0x2015 <f256main+0x16f9>
    299e: c8           	iny
    299f: 91 10        	sta	($10),y                 ; 0x2010 <f256main+0x16f4>
    29a1: 68           	pla
    29a2: f0 0b        	beq	$29af <f256main+0x2093>
    29a4: a0 0c        	ldy	#$c
    29a6: b1 10        	lda	($10),y                 ; 0x2010 <f256main+0x16f4>
    29a8: 85 12        	sta	$12                     ; 0x2012 <f256main+0x16f6>
    29aa: c8           	iny
    29ab: b1 10        	lda	($10),y                 ; 0x2010 <f256main+0x16f4>
    29ad: 85 13        	sta	$13                     ; 0x2013 <f256main+0x16f7>
    29af: 8a           	txa
    29b0: 09 c0        	ora	#$c0
    29b2: 92 12        	sta	($12)                   ; 0x2012 <f256main+0x16f6>
    29b4: a5 18        	lda	$18                     ; 0x2018 <f256main+0x16fc>
    29b6: 92 12        	sta	($12)                   ; 0x2012 <f256main+0x16f6>
    29b8: a6 6a        	ldx	$6a                     ; 0x206a <f256main+0x174e>
    29ba: a4 6b        	ldy	$6b                     ; 0x206b <f256main+0x174f>
    29bc: 86 12        	stx	$12                     ; 0x2012 <f256main+0x16f6>
    29be: 84 13        	sty	$13                     ; 0x2013 <f256main+0x16f7>
    29c0: 86 14        	stx	$14                     ; 0x2014 <f256main+0x16f8>
    29c2: 84 15        	sty	$15                     ; 0x2015 <f256main+0x16f9>
    29c4: e6 14        	inc	$14                     ; 0x2014 <f256main+0x16f8>
    29c6: d0 02        	bne	$29ca <f256main+0x20ae>
    29c8: e6 15        	inc	$15                     ; 0x2015 <f256main+0x16f9>
    29ca: a0 01        	ldy	#$1
    29cc: b1 12        	lda	($12),y                 ; 0x2012 <f256main+0x16f6>
    29ce: aa           	tax
    29cf: b1 14        	lda	($14),y                 ; 0x2014 <f256main+0x16f8>
    29d1: 86 14        	stx	$14                     ; 0x2014 <f256main+0x16f8>
    29d3: 85 15        	sta	$15                     ; 0x2015 <f256main+0x16f9>
    29d5: a0 05        	ldy	#$5
    29d7: b1 12        	lda	($12),y                 ; 0x2012 <f256main+0x16f6>
    29d9: aa           	tax
    29da: a8           	tay
    29db: b1 14        	lda	($14),y                 ; 0x2014 <f256main+0x16f8>
    29dd: 85 16        	sta	$16                     ; 0x2016 <f256main+0x16fa>
    29df: b2 12        	lda	($12)                   ; 0x2012 <f256main+0x16f6>
    29e1: 48           	pha
    29e2: a0 0c        	ldy	#$c
    29e4: b1 10        	lda	($10),y                 ; 0x2010 <f256main+0x16f4>
    29e6: 85 12        	sta	$12                     ; 0x2012 <f256main+0x16f6>
    29e8: c8           	iny
    29e9: b1 10        	lda	($10),y                 ; 0x2010 <f256main+0x16f4>
    29eb: 85 13        	sta	$13                     ; 0x2013 <f256main+0x16f7>
    29ed: 68           	pla
    29ee: f0 08        	beq	$29f8 <f256main+0x20dc>
    29f0: a0 a1        	ldy	#$a1
    29f2: 84 12        	sty	$12                     ; 0x2012 <f256main+0x16f6>
    29f4: a0 dd        	ldy	#$dd
    29f6: 84 13        	sty	$13                     ; 0x2013 <f256main+0x16f7>
    29f8: 8a           	txa
    29f9: 09 c0        	ora	#$c0
    29fb: 92 12        	sta	($12)                   ; 0x2012 <f256main+0x16f6>
    29fd: a5 16        	lda	$16                     ; 0x2016 <f256main+0x16fa>
    29ff: 92 12        	sta	($12)                   ; 0x2012 <f256main+0x16f6>
    2a01: a6 6a        	ldx	$6a                     ; 0x206a <f256main+0x174e>
    2a03: a4 6b        	ldy	$6b                     ; 0x206b <f256main+0x174f>
    2a05: 86 12        	stx	$12                     ; 0x2012 <f256main+0x16f6>
    2a07: 84 13        	sty	$13                     ; 0x2013 <f256main+0x16f7>
    2a09: a0 06        	ldy	#$6
    2a0b: b1 12        	lda	($12),y                 ; 0x2012 <f256main+0x16f6>
    2a0d: c9 01        	cmp	#$1
    2a0f: d0 2d        	bne	$2a3e <f256main+0x2122>
    2a11: a0 03        	ldy	#$3
    2a13: b1 12        	lda	($12),y                 ; 0x2012 <f256main+0x16f6>
    2a15: c9 04        	cmp	#$4
    2a17: 90 03        	bcc	$2a1c <f256main+0x2100>
    2a19: 4c ab 0e     	jmp	$eab <f256main+0x58f>
    2a1c: a9 01        	lda	#$1
    2a1e: 25 64        	and	$64                     ; 0x2064 <f256main+0x1748>
    2a20: 20 ee 56     	jsr	$56ee <modalMoveDown>
    2a23: a6 6a        	ldx	$6a                     ; 0x206a <f256main+0x174e>
    2a25: a4 6b        	ldy	$6b                     ; 0x206b <f256main+0x174f>
    2a27: 86 12        	stx	$12                     ; 0x2012 <f256main+0x16f6>
    2a29: 84 13        	sty	$13                     ; 0x2013 <f256main+0x16f7>
    2a2b: a0 03        	ldy	#$3
    2a2d: b1 12        	lda	($12),y                 ; 0x2012 <f256main+0x16f6>
    2a2f: 20 da 42     	jsr	$42da <sid_setInstrumentAllChannels>
    2a32: a6 6a        	ldx	$6a                     ; 0x206a <f256main+0x174e>
    2a34: a4 6b        	ldy	$6b                     ; 0x206b <f256main+0x174f>
    2a36: 86 12        	stx	$12                     ; 0x2012 <f256main+0x16f6>
    2a38: 84 13        	sty	$13                     ; 0x2013 <f256main+0x16f7>
    2a3a: a0 06        	ldy	#$6
    2a3c: b1 12        	lda	($12),y                 ; 0x2012 <f256main+0x16f6>
    2a3e: c9 03        	cmp	#$3
    2a40: f0 03        	beq	$2a45 <f256main+0x2129>
    2a42: 4c ab 0e     	jmp	$eab <f256main+0x58f>
    2a45: a0 04        	ldy	#$4
    2a47: b1 12        	lda	($12),y                 ; 0x2012 <f256main+0x16f6>
    2a49: c9 15        	cmp	#$15
    2a4b: 90 03        	bcc	$2a50 <f256main+0x2134>
    2a4d: 4c ab 0e     	jmp	$eab <f256main+0x58f>
    2a50: a9 01        	lda	#$1
    2a52: 25 64        	and	$64                     ; 0x2064 <f256main+0x1748>
    2a54: 20 ee 56     	jsr	$56ee <modalMoveDown>
    2a57: a6 6a        	ldx	$6a                     ; 0x206a <f256main+0x174e>
    2a59: a4 6b        	ldy	$6b                     ; 0x206b <f256main+0x174f>
    2a5b: 86 12        	stx	$12                     ; 0x2012 <f256main+0x16f6>
    2a5d: 84 13        	sty	$13                     ; 0x2013 <f256main+0x16f7>
    2a5f: a0 04        	ldy	#$4
    2a61: b1 12        	lda	($12),y                 ; 0x2012 <f256main+0x16f6>
    2a63: 20 0a 42     	jsr	$420a <opl3_setInstrumentAllChannels>
    2a66: 4c ab 0e     	jmp	$eab <f256main+0x58f>
    2a69: a6 12        	ldx	$12                     ; 0x2012 <f256main+0x16f6>
    2a6b: 86 14        	stx	$14                     ; 0x2014 <f256main+0x16f8>
    2a6d: a5 13        	lda	$13                     ; 0x2013 <f256main+0x16f7>
    2a6f: aa           	tax
    2a70: f0 0a        	beq	$2a7c <f256main+0x2160>
    2a72: a2 f5        	ldx	#$f5
    2a74: a0 ff        	ldy	#$ff
    2a76: 86 12        	stx	$12                     ; 0x2012 <f256main+0x16f6>
    2a78: 84 13        	sty	$13                     ; 0x2013 <f256main+0x16f7>
    2a7a: 80 04        	bra	$2a80 <f256main+0x2164>
    2a7c: 64 12        	stz	$12                     ; 0x2012 <f256main+0x16f6>
    2a7e: 64 13        	stz	$13                     ; 0x2013 <f256main+0x16f7>
    2a80: 18           	clc
    2a81: a5 16        	lda	$16                     ; 0x2016 <f256main+0x16fa>
    2a83: 65 12        	adc	$12                     ; 0x2012 <f256main+0x16f6>
    2a85: a8           	tay
    2a86: a5 14        	lda	$14                     ; 0x2014 <f256main+0x16f8>
    2a88: 65 13        	adc	$13                     ; 0x2013 <f256main+0x16f7>
    2a8a: 88           	dey
    2a8b: c0 ff        	cpy	#$ff
    2a8d: d0 01        	bne	$2a90 <f256main+0x2174>
    2a8f: 3a           	dec
    2a90: 84 31        	sty	$31                     ; 0x2031 <f256main+0x1715>
    2a92: 85 32        	sta	$32                     ; 0x2032 <f256main+0x1716>
    2a94: a5 63        	lda	$63                     ; 0x2063 <f256main+0x1747>
    2a96: 29 01        	and	#$1
    2a98: f0 04        	beq	$2a9e <f256main+0x2182>
    2a9a: 64 31        	stz	$31                     ; 0x2031 <f256main+0x1715>
    2a9c: 64 32        	stz	$32                     ; 0x2032 <f256main+0x1716>
    2a9e: 18           	clc
    2a9f: a9 61        	lda	#$61
    2aa1: 6d fd 92     	adc	$92fd                   ; 0x92fd <oldCursorNote>
    2aa4: a6 01        	ldx	$1                      ; 0x2001 <f256main+0x16e5>
    2aa6: a0 01        	ldy	#$1
    2aa8: 84 01        	sty	$1                      ; 0x2001 <f256main+0x16e5>
    2aaa: 0a           	asl
    2aab: 64 12        	stz	$12                     ; 0x2012 <f256main+0x16f6>
    2aad: 80 3c        	bra	$2aeb <f256main+0x21cf>
    2aaf: a5 16        	lda	$16                     ; 0x2016 <f256main+0x16fa>
    2ab1: aa           	tax
    2ab2: f0 08        	beq	$2abc <f256main+0x21a0>
    2ab4: a2 0b        	ldx	#$b
    2ab6: 64 12        	stz	$12                     ; 0x2012 <f256main+0x16f6>
    2ab8: 86 13        	stx	$13                     ; 0x2013 <f256main+0x16f7>
    2aba: 80 04        	bra	$2ac0 <f256main+0x21a4>
    2abc: 64 13        	stz	$13                     ; 0x2013 <f256main+0x16f7>
    2abe: 64 12        	stz	$12                     ; 0x2012 <f256main+0x16f6>
    2ac0: 18           	clc
    2ac1: a5 14        	lda	$14                     ; 0x2014 <f256main+0x16f8>
    2ac3: 65 13        	adc	$13                     ; 0x2013 <f256main+0x16f7>
    2ac5: aa           	tax
    2ac6: a5 15        	lda	$15                     ; 0x2015 <f256main+0x16f9>
    2ac8: 65 12        	adc	$12                     ; 0x2012 <f256main+0x16f6>
    2aca: e8           	inx
    2acb: d0 01        	bne	$2ace <f256main+0x21b2>
    2acd: 1a           	inc
    2ace: 86 31        	stx	$31                     ; 0x2031 <f256main+0x1715>
    2ad0: 85 32        	sta	$32                     ; 0x2032 <f256main+0x1716>
    2ad2: a5 63        	lda	$63                     ; 0x2063 <f256main+0x1747>
    2ad4: 29 01        	and	#$1
    2ad6: f0 06        	beq	$2ade <f256main+0x21c2>
    2ad8: a2 57        	ldx	#$57
    2ada: 86 31        	stx	$31                     ; 0x2031 <f256main+0x1715>
    2adc: 64 32        	stz	$32                     ; 0x2032 <f256main+0x1716>
    2ade: 18           	clc
    2adf: a9 61        	lda	#$61
    2ae1: 6d fd 92     	adc	$92fd                   ; 0x92fd <oldCursorNote>
    2ae4: a6 01        	ldx	$1                      ; 0x2001 <f256main+0x16e5>
    2ae6: a0 01        	ldy	#$1
    2ae8: 84 01        	sty	$1                      ; 0x2001 <f256main+0x16e5>
    2aea: 0a           	asl
    2aeb: 26 12        	rol	$12                     ; 0x2012 <f256main+0x16f6>
    2aed: 0a           	asl
    2aee: 85 13        	sta	$13                     ; 0x2013 <f256main+0x16f7>
    2af0: 26 12        	rol	$12                     ; 0x2012 <f256main+0x16f6>
    2af2: a9 00        	lda	#$0
    2af4: 18           	clc
    2af5: 65 13        	adc	$13                     ; 0x2013 <f256main+0x16f7>
    2af7: 85 13        	sta	$13                     ; 0x2013 <f256main+0x16f7>
    2af9: a9 d0        	lda	#$d0
    2afb: 65 12        	adc	$12                     ; 0x2012 <f256main+0x16f6>
    2afd: 5a           	phy
    2afe: a4 13        	ldy	$13                     ; 0x2013 <f256main+0x16f7>
    2b00: 84 12        	sty	$12                     ; 0x2012 <f256main+0x16f6>
    2b02: 7a           	ply
    2b03: 85 13        	sta	$13                     ; 0x2013 <f256main+0x16f7>
    2b05: a9 00        	lda	#$0
    2b07: 92 12        	sta	($12)                   ; 0x2012 <f256main+0x16f6>
    2b09: 91 12        	sta	($12),y                 ; 0x2012 <f256main+0x16f6>
    2b0b: a0 02        	ldy	#$2
    2b0d: 91 12        	sta	($12),y                 ; 0x2012 <f256main+0x16f6>
    2b0f: 3a           	dec
    2b10: c8           	iny
    2b11: 91 12        	sta	($12),y                 ; 0x2012 <f256main+0x16f6>
    2b13: 86 01        	stx	$1                      ; 0x2001 <f256main+0x16e5>
    2b15: 18           	clc
    2b16: a9 61        	lda	#$61
    2b18: 65 31        	adc	$31                     ; 0x2031 <f256main+0x1715>
    2b1a: 0a           	asl
    2b1b: 64 12        	stz	$12                     ; 0x2012 <f256main+0x16f6>
    2b1d: 26 12        	rol	$12                     ; 0x2012 <f256main+0x16f6>
    2b1f: 0a           	asl
    2b20: 85 13        	sta	$13                     ; 0x2013 <f256main+0x16f7>
    2b22: 26 12        	rol	$12                     ; 0x2012 <f256main+0x16f6>
    2b24: a9 00        	lda	#$0
    2b26: 18           	clc
    2b27: 65 13        	adc	$13                     ; 0x2013 <f256main+0x16f7>
    2b29: aa           	tax
    2b2a: a9 d0        	lda	#$d0
    2b2c: 65 12        	adc	$12                     ; 0x2012 <f256main+0x16f6>
    2b2e: 86 12        	stx	$12                     ; 0x2012 <f256main+0x16f6>
    2b30: 85 13        	sta	$13                     ; 0x2013 <f256main+0x16f7>
    2b32: a6 01        	ldx	$1                      ; 0x2001 <f256main+0x16e5>
    2b34: a0 01        	ldy	#$1
    2b36: 84 01        	sty	$1                      ; 0x2001 <f256main+0x16e5>
    2b38: a9 00        	lda	#$0
    2b3a: 92 12        	sta	($12)                   ; 0x2012 <f256main+0x16f6>
    2b3c: 91 12        	sta	($12),y                 ; 0x2012 <f256main+0x16f6>
    2b3e: 3a           	dec
    2b3f: c8           	iny
    2b40: 91 12        	sta	($12),y                 ; 0x2012 <f256main+0x16f6>
    2b42: c8           	iny
    2b43: 91 12        	sta	($12),y                 ; 0x2012 <f256main+0x16f6>
    2b45: 86 01        	stx	$1                      ; 0x2001 <f256main+0x16e5>
    2b47: a6 31        	ldx	$31                     ; 0x2031 <f256main+0x1715>
    2b49: 8e fd 92     	stx	$92fd                   ; 0x92fd <oldCursorNote>
    2b4c: a6 32        	ldx	$32                     ; 0x2032 <f256main+0x1716>
    2b4e: 8e fe 92     	stx	$92fe                   ; 0x92fe <oldCursorNote+0x1>
    2b51: 4c ab 0e     	jmp	$eab <f256main+0x58f>
    2b54: 64 16        	stz	$16                     ; 0x2016 <f256main+0x16fa>
    2b56: 64 17        	stz	$17                     ; 0x2017 <f256main+0x16fb>
    2b58: b1 12        	lda	($12),y                 ; 0x2012 <f256main+0x16f6>
    2b5a: aa           	tax
    2b5b: b1 14        	lda	($14),y                 ; 0x2014 <f256main+0x16f8>
    2b5d: 86 14        	stx	$14                     ; 0x2014 <f256main+0x16f8>
    2b5f: 85 15        	sta	$15                     ; 0x2015 <f256main+0x16f9>
    2b61: a0 05        	ldy	#$5
    2b63: b1 12        	lda	($12),y                 ; 0x2012 <f256main+0x16f6>
    2b65: a8           	tay
    2b66: b1 14        	lda	($14),y                 ; 0x2014 <f256main+0x16f8>
    2b68: a2 00        	ldx	#$0
    2b6a: e4 17        	cpx	$17                     ; 0x2017 <f256main+0x16fb>
    2b6c: d0 08        	bne	$2b76 <f256main+0x225a>
    2b6e: aa           	tax
    2b6f: a5 16        	lda	$16                     ; 0x2016 <f256main+0x16fa>
    2b71: 49 7f        	eor	#$7f
    2b73: 85 17        	sta	$17                     ; 0x2017 <f256main+0x16fb>
    2b75: 8a           	txa
    2b76: e4 17        	cpx	$17                     ; 0x2017 <f256main+0x16fb>
    2b78: b0 23        	bcs	$2b9d <f256main+0x2281>
    2b7a: 18           	clc
    2b7b: 65 16        	adc	$16                     ; 0x2016 <f256main+0x16fa>
    2b7d: 1a           	inc
    2b7e: 91 14        	sta	($14),y                 ; 0x2014 <f256main+0x16f8>
    2b80: a6 12        	ldx	$12                     ; 0x2012 <f256main+0x16f6>
    2b82: 86 16        	stx	$16                     ; 0x2016 <f256main+0x16fa>
    2b84: a6 13        	ldx	$13                     ; 0x2013 <f256main+0x16f7>
    2b86: 86 17        	stx	$17                     ; 0x2017 <f256main+0x16fb>
    2b88: e6 16        	inc	$16                     ; 0x2016 <f256main+0x16fa>
    2b8a: d0 02        	bne	$2b8e <f256main+0x2272>
    2b8c: e6 17        	inc	$17                     ; 0x2017 <f256main+0x16fb>
    2b8e: a0 01        	ldy	#$1
    2b90: b1 12        	lda	($12),y                 ; 0x2012 <f256main+0x16f6>
    2b92: 85 14        	sta	$14                     ; 0x2014 <f256main+0x16f8>
    2b94: b1 16        	lda	($16),y                 ; 0x2016 <f256main+0x16fa>
    2b96: 85 15        	sta	$15                     ; 0x2015 <f256main+0x16f9>
    2b98: a0 05        	ldy	#$5
    2b9a: b1 12        	lda	($12),y                 ; 0x2012 <f256main+0x16f6>
    2b9c: a8           	tay
    2b9d: a5 63        	lda	$63                     ; 0x2063 <f256main+0x1747>
    2b9f: 29 01        	and	#$1
    2ba1: d0 03        	bne	$2ba6 <f256main+0x228a>
    2ba3: 4c 04 2c     	jmp	$2c04 <f256main+0x22e8>
    2ba6: a9 7f        	lda	#$7f
    2ba8: 91 14        	sta	($14),y                 ; 0x2014 <f256main+0x16f8>
    2baa: a6 12        	ldx	$12                     ; 0x2012 <f256main+0x16f6>
    2bac: 86 14        	stx	$14                     ; 0x2014 <f256main+0x16f8>
    2bae: a6 13        	ldx	$13                     ; 0x2013 <f256main+0x16f7>
    2bb0: 86 15        	stx	$15                     ; 0x2015 <f256main+0x16f9>
    2bb2: e6 14        	inc	$14                     ; 0x2014 <f256main+0x16f8>
    2bb4: d0 02        	bne	$2bb8 <f256main+0x229c>
    2bb6: e6 15        	inc	$15                     ; 0x2015 <f256main+0x16f9>
    2bb8: a0 01        	ldy	#$1
    2bba: b1 12        	lda	($12),y                 ; 0x2012 <f256main+0x16f6>
    2bbc: aa           	tax
    2bbd: b1 14        	lda	($14),y                 ; 0x2014 <f256main+0x16f8>
    2bbf: 86 14        	stx	$14                     ; 0x2014 <f256main+0x16f8>
    2bc1: 85 15        	sta	$15                     ; 0x2015 <f256main+0x16f9>
    2bc3: a0 05        	ldy	#$5
    2bc5: b1 12        	lda	($12),y                 ; 0x2012 <f256main+0x16f6>
    2bc7: 80 3c        	bra	$2c05 <f256main+0x22e9>
    2bc9: 64 16        	stz	$16                     ; 0x2016 <f256main+0x16fa>
    2bcb: a9 00        	lda	#$0
    2bcd: 5a           	phy
    2bce: a0 0c        	ldy	#$c
    2bd0: 91 10        	sta	($10),y                 ; 0x2010 <f256main+0x16f4>
    2bd2: 7a           	ply
    2bd3: a2 00        	ldx	#$0
    2bd5: b1 12        	lda	($12),y                 ; 0x2012 <f256main+0x16f6>
    2bd7: 85 16        	sta	$16                     ; 0x2016 <f256main+0x16fa>
    2bd9: b1 14        	lda	($14),y                 ; 0x2014 <f256main+0x16f8>
    2bdb: a4 16        	ldy	$16                     ; 0x2016 <f256main+0x16fa>
    2bdd: 84 14        	sty	$14                     ; 0x2014 <f256main+0x16f8>
    2bdf: 85 15        	sta	$15                     ; 0x2015 <f256main+0x16f9>
    2be1: a0 05        	ldy	#$5
    2be3: b1 12        	lda	($12),y                 ; 0x2012 <f256main+0x16f6>
    2be5: a8           	tay
    2be6: b1 14        	lda	($14),y                 ; 0x2014 <f256main+0x16f8>
    2be8: e0 00        	cpx	#$0
    2bea: f0 03        	beq	$2bef <f256main+0x22d3>
    2bec: 4c b1 2c     	jmp	$2cb1 <f256main+0x2395>
    2bef: 85 16        	sta	$16                     ; 0x2016 <f256main+0x16fa>
    2bf1: 48           	pha
    2bf2: 5a           	phy
    2bf3: a0 0c        	ldy	#$c
    2bf5: b1 10        	lda	($10),y                 ; 0x2010 <f256main+0x16f4>
    2bf7: 7a           	ply
    2bf8: aa           	tax
    2bf9: 68           	pla
    2bfa: e4 16        	cpx	$16                     ; 0x2016 <f256main+0x16fa>
    2bfc: b0 03        	bcs	$2c01 <f256main+0x22e5>
    2bfe: 4c b5 2c     	jmp	$2cb5 <f256main+0x2399>
    2c01: 4c e3 2c     	jmp	$2ce3 <f256main+0x23c7>
    2c04: 98           	tya
    2c05: aa           	tax
    2c06: a8           	tay
    2c07: b1 14        	lda	($14),y                 ; 0x2014 <f256main+0x16f8>
    2c09: 85 18        	sta	$18                     ; 0x2018 <f256main+0x16fc>
    2c0b: b2 12        	lda	($12)                   ; 0x2012 <f256main+0x16f6>
    2c0d: a0 a1        	ldy	#$a1
    2c0f: 84 12        	sty	$12                     ; 0x2012 <f256main+0x16f6>
    2c11: a0 dd        	ldy	#$dd
    2c13: 84 13        	sty	$13                     ; 0x2013 <f256main+0x16f7>
    2c15: a0 b1        	ldy	#$b1
    2c17: 84 14        	sty	$14                     ; 0x2014 <f256main+0x16f8>
    2c19: a0 dd        	ldy	#$dd
    2c1b: 84 15        	sty	$15                     ; 0x2015 <f256main+0x16f9>
    2c1d: 48           	pha
    2c1e: a5 14        	lda	$14                     ; 0x2014 <f256main+0x16f8>
    2c20: a0 0c        	ldy	#$c
    2c22: 91 10        	sta	($10),y                 ; 0x2010 <f256main+0x16f4>
    2c24: a5 15        	lda	$15                     ; 0x2015 <f256main+0x16f9>
    2c26: c8           	iny
    2c27: 91 10        	sta	($10),y                 ; 0x2010 <f256main+0x16f4>
    2c29: 68           	pla
    2c2a: f0 0b        	beq	$2c37 <f256main+0x231b>
    2c2c: a0 0c        	ldy	#$c
    2c2e: b1 10        	lda	($10),y                 ; 0x2010 <f256main+0x16f4>
    2c30: 85 12        	sta	$12                     ; 0x2012 <f256main+0x16f6>
    2c32: c8           	iny
    2c33: b1 10        	lda	($10),y                 ; 0x2010 <f256main+0x16f4>
    2c35: 85 13        	sta	$13                     ; 0x2013 <f256main+0x16f7>
    2c37: 8a           	txa
    2c38: 09 c0        	ora	#$c0
    2c3a: 92 12        	sta	($12)                   ; 0x2012 <f256main+0x16f6>
    2c3c: a5 18        	lda	$18                     ; 0x2018 <f256main+0x16fc>
    2c3e: 92 12        	sta	($12)                   ; 0x2012 <f256main+0x16f6>
    2c40: a6 6a        	ldx	$6a                     ; 0x206a <f256main+0x174e>
    2c42: a4 6b        	ldy	$6b                     ; 0x206b <f256main+0x174f>
    2c44: 86 12        	stx	$12                     ; 0x2012 <f256main+0x16f6>
    2c46: 84 13        	sty	$13                     ; 0x2013 <f256main+0x16f7>
    2c48: 86 14        	stx	$14                     ; 0x2014 <f256main+0x16f8>
    2c4a: 84 15        	sty	$15                     ; 0x2015 <f256main+0x16f9>
    2c4c: e6 14        	inc	$14                     ; 0x2014 <f256main+0x16f8>
    2c4e: d0 02        	bne	$2c52 <f256main+0x2336>
    2c50: e6 15        	inc	$15                     ; 0x2015 <f256main+0x16f9>
    2c52: a0 01        	ldy	#$1
    2c54: b1 12        	lda	($12),y                 ; 0x2012 <f256main+0x16f6>
    2c56: aa           	tax
    2c57: b1 14        	lda	($14),y                 ; 0x2014 <f256main+0x16f8>
    2c59: 86 14        	stx	$14                     ; 0x2014 <f256main+0x16f8>
    2c5b: 85 15        	sta	$15                     ; 0x2015 <f256main+0x16f9>
    2c5d: a0 05        	ldy	#$5
    2c5f: b1 12        	lda	($12),y                 ; 0x2012 <f256main+0x16f6>
    2c61: aa           	tax
    2c62: a8           	tay
    2c63: b1 14        	lda	($14),y                 ; 0x2014 <f256main+0x16f8>
    2c65: 85 16        	sta	$16                     ; 0x2016 <f256main+0x16fa>
    2c67: b2 12        	lda	($12)                   ; 0x2012 <f256main+0x16f6>
    2c69: 48           	pha
    2c6a: a0 0c        	ldy	#$c
    2c6c: b1 10        	lda	($10),y                 ; 0x2010 <f256main+0x16f4>
    2c6e: 85 12        	sta	$12                     ; 0x2012 <f256main+0x16f6>
    2c70: c8           	iny
    2c71: b1 10        	lda	($10),y                 ; 0x2010 <f256main+0x16f4>
    2c73: 85 13        	sta	$13                     ; 0x2013 <f256main+0x16f7>
    2c75: 68           	pla
    2c76: f0 08        	beq	$2c80 <f256main+0x2364>
    2c78: a0 a1        	ldy	#$a1
    2c7a: 84 12        	sty	$12                     ; 0x2012 <f256main+0x16f6>
    2c7c: a0 dd        	ldy	#$dd
    2c7e: 84 13        	sty	$13                     ; 0x2013 <f256main+0x16f7>
    2c80: 8a           	txa
    2c81: 09 c0        	ora	#$c0
    2c83: 92 12        	sta	($12)                   ; 0x2012 <f256main+0x16f6>
    2c85: a5 16        	lda	$16                     ; 0x2016 <f256main+0x16fa>
    2c87: 92 12        	sta	($12)                   ; 0x2012 <f256main+0x16f6>
    2c89: a6 6a        	ldx	$6a                     ; 0x206a <f256main+0x174e>
    2c8b: a4 6b        	ldy	$6b                     ; 0x206b <f256main+0x174f>
    2c8d: 86 12        	stx	$12                     ; 0x2012 <f256main+0x16f6>
    2c8f: 84 13        	sty	$13                     ; 0x2013 <f256main+0x16f7>
    2c91: a0 06        	ldy	#$6
    2c93: b1 12        	lda	($12),y                 ; 0x2012 <f256main+0x16f6>
    2c95: a0 04        	ldy	#$4
    2c97: c9 03        	cmp	#$3
    2c99: f0 09        	beq	$2ca4 <f256main+0x2388>
    2c9b: c9 01        	cmp	#$1
    2c9d: f0 03        	beq	$2ca2 <f256main+0x2386>
    2c9f: 4c aa 2d     	jmp	$2daa <f256main+0x248e>
    2ca2: a0 03        	ldy	#$3
    2ca4: b1 12        	lda	($12),y                 ; 0x2012 <f256main+0x16f6>
    2ca6: c9 05        	cmp	#$5
    2ca8: 90 03        	bcc	$2cad <f256main+0x2391>
    2caa: 4c aa 2d     	jmp	$2daa <f256main+0x248e>
    2cad: 1a           	inc
    2cae: 4c a8 2d     	jmp	$2da8 <f256main+0x248c>
    2cb1: e0 00        	cpx	#$0
    2cb3: b0 2e        	bcs	$2ce3 <f256main+0x23c7>
    2cb5: aa           	tax
    2cb6: 5a           	phy
    2cb7: a0 0c        	ldy	#$c
    2cb9: b1 10        	lda	($10),y                 ; 0x2010 <f256main+0x16f4>
    2cbb: 7a           	ply
    2cbc: 49 ff        	eor	#$ff
    2cbe: 85 16        	sta	$16                     ; 0x2016 <f256main+0x16fa>
    2cc0: 18           	clc
    2cc1: 8a           	txa
    2cc2: 65 16        	adc	$16                     ; 0x2016 <f256main+0x16fa>
    2cc4: 91 14        	sta	($14),y                 ; 0x2014 <f256main+0x16f8>
    2cc6: a6 12        	ldx	$12                     ; 0x2012 <f256main+0x16f6>
    2cc8: 86 16        	stx	$16                     ; 0x2016 <f256main+0x16fa>
    2cca: a6 13        	ldx	$13                     ; 0x2013 <f256main+0x16f7>
    2ccc: 86 17        	stx	$17                     ; 0x2017 <f256main+0x16fb>
    2cce: e6 16        	inc	$16                     ; 0x2016 <f256main+0x16fa>
    2cd0: d0 02        	bne	$2cd4 <f256main+0x23b8>
    2cd2: e6 17        	inc	$17                     ; 0x2017 <f256main+0x16fb>
    2cd4: a0 01        	ldy	#$1
    2cd6: b1 12        	lda	($12),y                 ; 0x2012 <f256main+0x16f6>
    2cd8: 85 14        	sta	$14                     ; 0x2014 <f256main+0x16f8>
    2cda: b1 16        	lda	($16),y                 ; 0x2016 <f256main+0x16fa>
    2cdc: 85 15        	sta	$15                     ; 0x2015 <f256main+0x16f9>
    2cde: a0 05        	ldy	#$5
    2ce0: b1 12        	lda	($12),y                 ; 0x2012 <f256main+0x16f6>
    2ce2: a8           	tay
    2ce3: a5 63        	lda	$63                     ; 0x2063 <f256main+0x1747>
    2ce5: 29 01        	and	#$1
    2ce7: f0 23        	beq	$2d0c <f256main+0x23f0>
    2ce9: a9 00        	lda	#$0
    2ceb: 91 14        	sta	($14),y                 ; 0x2014 <f256main+0x16f8>
    2ced: a6 12        	ldx	$12                     ; 0x2012 <f256main+0x16f6>
    2cef: 86 14        	stx	$14                     ; 0x2014 <f256main+0x16f8>
    2cf1: a6 13        	ldx	$13                     ; 0x2013 <f256main+0x16f7>
    2cf3: 86 15        	stx	$15                     ; 0x2015 <f256main+0x16f9>
    2cf5: e6 14        	inc	$14                     ; 0x2014 <f256main+0x16f8>
    2cf7: d0 02        	bne	$2cfb <f256main+0x23df>
    2cf9: e6 15        	inc	$15                     ; 0x2015 <f256main+0x16f9>
    2cfb: a0 01        	ldy	#$1
    2cfd: b1 12        	lda	($12),y                 ; 0x2012 <f256main+0x16f6>
    2cff: aa           	tax
    2d00: b1 14        	lda	($14),y                 ; 0x2014 <f256main+0x16f8>
    2d02: 86 14        	stx	$14                     ; 0x2014 <f256main+0x16f8>
    2d04: 85 15        	sta	$15                     ; 0x2015 <f256main+0x16f9>
    2d06: a0 05        	ldy	#$5
    2d08: b1 12        	lda	($12),y                 ; 0x2012 <f256main+0x16f6>
    2d0a: 80 01        	bra	$2d0d <f256main+0x23f1>
    2d0c: 98           	tya
    2d0d: aa           	tax
    2d0e: a8           	tay
    2d0f: b1 14        	lda	($14),y                 ; 0x2014 <f256main+0x16f8>
    2d11: 85 18        	sta	$18                     ; 0x2018 <f256main+0x16fc>
    2d13: b2 12        	lda	($12)                   ; 0x2012 <f256main+0x16f6>
    2d15: a0 a1        	ldy	#$a1
    2d17: 84 12        	sty	$12                     ; 0x2012 <f256main+0x16f6>
    2d19: a0 dd        	ldy	#$dd
    2d1b: 84 13        	sty	$13                     ; 0x2013 <f256main+0x16f7>
    2d1d: a0 b1        	ldy	#$b1
    2d1f: 84 14        	sty	$14                     ; 0x2014 <f256main+0x16f8>
    2d21: a0 dd        	ldy	#$dd
    2d23: 84 15        	sty	$15                     ; 0x2015 <f256main+0x16f9>
    2d25: 48           	pha
    2d26: a5 14        	lda	$14                     ; 0x2014 <f256main+0x16f8>
    2d28: a0 0c        	ldy	#$c
    2d2a: 91 10        	sta	($10),y                 ; 0x2010 <f256main+0x16f4>
    2d2c: a5 15        	lda	$15                     ; 0x2015 <f256main+0x16f9>
    2d2e: c8           	iny
    2d2f: 91 10        	sta	($10),y                 ; 0x2010 <f256main+0x16f4>
    2d31: 68           	pla
    2d32: f0 0b        	beq	$2d3f <f256main+0x2423>
    2d34: a0 0c        	ldy	#$c
    2d36: b1 10        	lda	($10),y                 ; 0x2010 <f256main+0x16f4>
    2d38: 85 12        	sta	$12                     ; 0x2012 <f256main+0x16f6>
    2d3a: c8           	iny
    2d3b: b1 10        	lda	($10),y                 ; 0x2010 <f256main+0x16f4>
    2d3d: 85 13        	sta	$13                     ; 0x2013 <f256main+0x16f7>
    2d3f: 8a           	txa
    2d40: 09 c0        	ora	#$c0
    2d42: 92 12        	sta	($12)                   ; 0x2012 <f256main+0x16f6>
    2d44: a5 18        	lda	$18                     ; 0x2018 <f256main+0x16fc>
    2d46: 92 12        	sta	($12)                   ; 0x2012 <f256main+0x16f6>
    2d48: a6 6a        	ldx	$6a                     ; 0x206a <f256main+0x174e>
    2d4a: a4 6b        	ldy	$6b                     ; 0x206b <f256main+0x174f>
    2d4c: 86 12        	stx	$12                     ; 0x2012 <f256main+0x16f6>
    2d4e: 84 13        	sty	$13                     ; 0x2013 <f256main+0x16f7>
    2d50: 86 14        	stx	$14                     ; 0x2014 <f256main+0x16f8>
    2d52: 84 15        	sty	$15                     ; 0x2015 <f256main+0x16f9>
    2d54: e6 14        	inc	$14                     ; 0x2014 <f256main+0x16f8>
    2d56: d0 02        	bne	$2d5a <f256main+0x243e>
    2d58: e6 15        	inc	$15                     ; 0x2015 <f256main+0x16f9>
    2d5a: a0 01        	ldy	#$1
    2d5c: b1 12        	lda	($12),y                 ; 0x2012 <f256main+0x16f6>
    2d5e: aa           	tax
    2d5f: b1 14        	lda	($14),y                 ; 0x2014 <f256main+0x16f8>
    2d61: 86 14        	stx	$14                     ; 0x2014 <f256main+0x16f8>
    2d63: 85 15        	sta	$15                     ; 0x2015 <f256main+0x16f9>
    2d65: a0 05        	ldy	#$5
    2d67: b1 12        	lda	($12),y                 ; 0x2012 <f256main+0x16f6>
    2d69: aa           	tax
    2d6a: a8           	tay
    2d6b: b1 14        	lda	($14),y                 ; 0x2014 <f256main+0x16f8>
    2d6d: 85 16        	sta	$16                     ; 0x2016 <f256main+0x16fa>
    2d6f: b2 12        	lda	($12)                   ; 0x2012 <f256main+0x16f6>
    2d71: 48           	pha
    2d72: a0 0c        	ldy	#$c
    2d74: b1 10        	lda	($10),y                 ; 0x2010 <f256main+0x16f4>
    2d76: 85 12        	sta	$12                     ; 0x2012 <f256main+0x16f6>
    2d78: c8           	iny
    2d79: b1 10        	lda	($10),y                 ; 0x2010 <f256main+0x16f4>
    2d7b: 85 13        	sta	$13                     ; 0x2013 <f256main+0x16f7>
    2d7d: 68           	pla
    2d7e: f0 08        	beq	$2d88 <f256main+0x246c>
    2d80: a0 a1        	ldy	#$a1
    2d82: 84 12        	sty	$12                     ; 0x2012 <f256main+0x16f6>
    2d84: a0 dd        	ldy	#$dd
    2d86: 84 13        	sty	$13                     ; 0x2013 <f256main+0x16f7>
    2d88: 8a           	txa
    2d89: 09 c0        	ora	#$c0
    2d8b: 92 12        	sta	($12)                   ; 0x2012 <f256main+0x16f6>
    2d8d: a5 16        	lda	$16                     ; 0x2016 <f256main+0x16fa>
    2d8f: 92 12        	sta	($12)                   ; 0x2012 <f256main+0x16f6>
    2d91: a6 6a        	ldx	$6a                     ; 0x206a <f256main+0x174e>
    2d93: a4 6b        	ldy	$6b                     ; 0x206b <f256main+0x174f>
    2d95: 86 12        	stx	$12                     ; 0x2012 <f256main+0x16f6>
    2d97: 84 13        	sty	$13                     ; 0x2013 <f256main+0x16f7>
    2d99: a0 06        	ldy	#$6
    2d9b: b1 12        	lda	($12),y                 ; 0x2012 <f256main+0x16f6>
    2d9d: c9 01        	cmp	#$1
    2d9f: d0 09        	bne	$2daa <f256main+0x248e>
    2da1: a0 03        	ldy	#$3
    2da3: b1 12        	lda	($12),y                 ; 0x2012 <f256main+0x16f6>
    2da5: f0 03        	beq	$2daa <f256main+0x248e>
    2da7: 3a           	dec
    2da8: 91 12        	sta	($12),y                 ; 0x2012 <f256main+0x16f6>
    2daa: 20 f0 49     	jsr	$49f0 <refreshInstrumentText>
    2dad: 4c ab 0e     	jmp	$eab <f256main+0x58f>
    2db0: a2 00        	ldx	#$0
    2db2: 64 14        	stz	$14                     ; 0x2014 <f256main+0x16f8>
    2db4: a0 09        	ldy	#$9
    2db6: b1 12        	lda	($12),y                 ; 0x2012 <f256main+0x16f6>
    2db8: 85 16        	sta	$16                     ; 0x2016 <f256main+0x16fa>
    2dba: 86 15        	stx	$15                     ; 0x2015 <f256main+0x16f9>
    2dbc: 8a           	txa
    2dbd: 18           	clc
    2dbe: 69 1e        	adc	#$1e
    2dc0: a8           	tay
    2dc1: a9 00        	lda	#$0
    2dc3: 69 00        	adc	#$0
    2dc5: d0 0b        	bne	$2dd2 <f256main+0x24b6>
    2dc7: a6 16        	ldx	$16                     ; 0x2016 <f256main+0x16fa>
    2dc9: 86 14        	stx	$14                     ; 0x2014 <f256main+0x16f8>
    2dcb: c4 14        	cpy	$14                     ; 0x2014 <f256main+0x16f8>
    2dcd: 90 0a        	bcc	$2dd9 <f256main+0x24bd>
    2dcf: 4c ab 0e     	jmp	$eab <f256main+0x58f>
    2dd2: c9 00        	cmp	#$0
    2dd4: 90 03        	bcc	$2dd9 <f256main+0x24bd>
    2dd6: 4c ab 0e     	jmp	$eab <f256main+0x58f>
    2dd9: a5 15        	lda	$15                     ; 0x2015 <f256main+0x16f9>
    2ddb: 49 ff        	eor	#$ff
    2ddd: 85 14        	sta	$14                     ; 0x2014 <f256main+0x16f8>
    2ddf: 18           	clc
    2de0: a5 16        	lda	$16                     ; 0x2016 <f256main+0x16fa>
    2de2: 65 14        	adc	$14                     ; 0x2014 <f256main+0x16f8>
    2de4: a0 09        	ldy	#$9
    2de6: 91 12        	sta	($12),y                 ; 0x2012 <f256main+0x16f6>
    2de8: 20 a5 3f     	jsr	$3fa5 <prepTempoLUT>
    2deb: a6 6a        	ldx	$6a                     ; 0x206a <f256main+0x174e>
    2ded: a4 6b        	ldy	$6b                     ; 0x206b <f256main+0x174f>
    2def: 86 12        	stx	$12                     ; 0x2012 <f256main+0x16f6>
    2df1: 84 13        	sty	$13                     ; 0x2013 <f256main+0x16f7>
    2df3: a0 09        	ldy	#$9
    2df5: b1 12        	lda	($12),y                 ; 0x2012 <f256main+0x16f6>
    2df7: 20 f7 4e     	jsr	$4ef7 <updateTempoText>
    2dfa: a2 b0        	ldx	#$b0
    2dfc: 8e b1 dd     	stx	$ddb1                   ; 0xddb1 <__heap_start+0x4aab>
    2dff: a0 7b        	ldy	#$7b
    2e01: 8c b1 dd     	sty	$ddb1                   ; 0xddb1 <__heap_start+0x4aab>
    2e04: 9c b1 dd     	stz	$ddb1                   ; 0xddb1 <__heap_start+0x4aab>
    2e07: 8e a1 dd     	stx	$dda1                   ; 0xdda1 <__heap_start+0x4a9b>
    2e0a: 8c a1 dd     	sty	$dda1                   ; 0xdda1 <__heap_start+0x4a9b>
    2e0d: 9c a1 dd     	stz	$dda1                   ; 0xdda1 <__heap_start+0x4a9b>
    2e10: e8           	inx
    2e11: 8e b1 dd     	stx	$ddb1                   ; 0xddb1 <__heap_start+0x4aab>
    2e14: 8c b1 dd     	sty	$ddb1                   ; 0xddb1 <__heap_start+0x4aab>
    2e17: 9c b1 dd     	stz	$ddb1                   ; 0xddb1 <__heap_start+0x4aab>
    2e1a: 8e a1 dd     	stx	$dda1                   ; 0xdda1 <__heap_start+0x4a9b>
    2e1d: 8c a1 dd     	sty	$dda1                   ; 0xdda1 <__heap_start+0x4a9b>
    2e20: 9c a1 dd     	stz	$dda1                   ; 0xdda1 <__heap_start+0x4a9b>
    2e23: a2 b9        	ldx	#$b9
    2e25: 8e b1 dd     	stx	$ddb1                   ; 0xddb1 <__heap_start+0x4aab>
    2e28: 8c b1 dd     	sty	$ddb1                   ; 0xddb1 <__heap_start+0x4aab>
    2e2b: 9c b1 dd     	stz	$ddb1                   ; 0xddb1 <__heap_start+0x4aab>
    2e2e: 8e a1 dd     	stx	$dda1                   ; 0xdda1 <__heap_start+0x4a9b>
    2e31: 8c a1 dd     	sty	$dda1                   ; 0xdda1 <__heap_start+0x4a9b>
    2e34: 9c a1 dd     	stz	$dda1                   ; 0xdda1 <__heap_start+0x4a9b>
    2e37: a6 7e        	ldx	$7e                     ; 0x207e <f256main+0x1762>
    2e39: 86 19        	stx	$19                     ; 0x2019 <f256main+0x16fd>
    2e3b: a6 7f        	ldx	$7f                     ; 0x207f <f256main+0x1763>
    2e3d: 86 18        	stx	$18                     ; 0x2018 <f256main+0x16fc>
    2e3f: a6 6a        	ldx	$6a                     ; 0x206a <f256main+0x174e>
    2e41: a4 6b        	ldy	$6b                     ; 0x206b <f256main+0x174f>
    2e43: 86 12        	stx	$12                     ; 0x2012 <f256main+0x16f6>
    2e45: 84 13        	sty	$13                     ; 0x2013 <f256main+0x16f7>
    2e47: a0 08        	ldy	#$8
    2e49: b1 12        	lda	($12),y                 ; 0x2012 <f256main+0x16f6>
    2e4b: 85 14        	sta	$14                     ; 0x2014 <f256main+0x16f8>
    2e4d: 64 15        	stz	$15                     ; 0x2015 <f256main+0x16f9>
    2e4f: 0a           	asl
    2e50: 64 17        	stz	$17                     ; 0x2017 <f256main+0x16fb>
    2e52: 26 17        	rol	$17                     ; 0x2017 <f256main+0x16fb>
    2e54: 0a           	asl
    2e55: 26 17        	rol	$17                     ; 0x2017 <f256main+0x16fb>
    2e57: 0a           	asl
    2e58: 26 17        	rol	$17                     ; 0x2017 <f256main+0x16fb>
    2e5a: 0a           	asl
    2e5b: 26 17        	rol	$17                     ; 0x2017 <f256main+0x16fb>
    2e5d: 38           	sec
    2e5e: e5 14        	sbc	$14                     ; 0x2014 <f256main+0x16f8>
    2e60: 85 16        	sta	$16                     ; 0x2016 <f256main+0x16fa>
    2e62: a5 17        	lda	$17                     ; 0x2017 <f256main+0x16fb>
    2e64: e9 00        	sbc	#$0
    2e66: 85 17        	sta	$17                     ; 0x2017 <f256main+0x16fb>
    2e68: a5 19        	lda	$19                     ; 0x2019 <f256main+0x16fd>
    2e6a: 18           	clc
    2e6b: 65 16        	adc	$16                     ; 0x2016 <f256main+0x16fa>
    2e6d: 85 16        	sta	$16                     ; 0x2016 <f256main+0x16fa>
    2e6f: a5 18        	lda	$18                     ; 0x2018 <f256main+0x16fc>
    2e71: 65 17        	adc	$17                     ; 0x2017 <f256main+0x16fb>
    2e73: 85 17        	sta	$17                     ; 0x2017 <f256main+0x16fb>
    2e75: a0 04        	ldy	#$4
    2e77: b1 16        	lda	($16),y                 ; 0x2016 <f256main+0x16fa>
    2e79: d0 03        	bne	$2e7e <f256main+0x2562>
    2e7b: 4c ab 0e     	jmp	$eab <f256main+0x58f>
    2e7e: a6 19        	ldx	$19                     ; 0x2019 <f256main+0x16fd>
    2e80: a0 00        	ldy	#$0
    2e82: a5 14        	lda	$14                     ; 0x2014 <f256main+0x16f8>
    2e84: 0a           	asl
    2e85: 64 16        	stz	$16                     ; 0x2016 <f256main+0x16fa>
    2e87: 26 16        	rol	$16                     ; 0x2016 <f256main+0x16fa>
    2e89: 0a           	asl
    2e8a: 26 16        	rol	$16                     ; 0x2016 <f256main+0x16fa>
    2e8c: 0a           	asl
    2e8d: 26 16        	rol	$16                     ; 0x2016 <f256main+0x16fa>
    2e8f: 0a           	asl
    2e90: 26 16        	rol	$16                     ; 0x2016 <f256main+0x16fa>
    2e92: 38           	sec
    2e93: e5 14        	sbc	$14                     ; 0x2014 <f256main+0x16f8>
    2e95: 85 14        	sta	$14                     ; 0x2014 <f256main+0x16f8>
    2e97: a5 16        	lda	$16                     ; 0x2016 <f256main+0x16fa>
    2e99: e5 15        	sbc	$15                     ; 0x2015 <f256main+0x16f9>
    2e9b: 85 15        	sta	$15                     ; 0x2015 <f256main+0x16f9>
    2e9d: 8a           	txa
    2e9e: 18           	clc
    2e9f: 65 14        	adc	$14                     ; 0x2014 <f256main+0x16f8>
    2ea1: 85 16        	sta	$16                     ; 0x2016 <f256main+0x16fa>
    2ea3: a5 18        	lda	$18                     ; 0x2018 <f256main+0x16fc>
    2ea5: 65 15        	adc	$15                     ; 0x2015 <f256main+0x16f9>
    2ea7: 5a           	phy
    2ea8: a4 16        	ldy	$16                     ; 0x2016 <f256main+0x16fa>
    2eaa: 84 14        	sty	$14                     ; 0x2014 <f256main+0x16f8>
    2eac: 7a           	ply
    2ead: 85 15        	sta	$15                     ; 0x2015 <f256main+0x16f9>
    2eaf: 85 17        	sta	$17                     ; 0x2017 <f256main+0x16fb>
    2eb1: 18           	clc
    2eb2: a5 16        	lda	$16                     ; 0x2016 <f256main+0x16fa>
    2eb4: 69 09        	adc	#$9
    2eb6: 85 16        	sta	$16                     ; 0x2016 <f256main+0x16fa>
    2eb8: a5 17        	lda	$17                     ; 0x2017 <f256main+0x16fb>
    2eba: 69 00        	adc	#$0
    2ebc: 85 17        	sta	$17                     ; 0x2017 <f256main+0x16fb>
    2ebe: 84 19        	sty	$19                     ; 0x2019 <f256main+0x16fd>
    2ec0: a0 09        	ldy	#$9
    2ec2: b1 14        	lda	($14),y                 ; 0x2014 <f256main+0x16f8>
    2ec4: 85 14        	sta	$14                     ; 0x2014 <f256main+0x16f8>
    2ec6: a0 01        	ldy	#$1
    2ec8: b1 16        	lda	($16),y                 ; 0x2016 <f256main+0x16fa>
    2eca: 85 15        	sta	$15                     ; 0x2015 <f256main+0x16f9>
    2ecc: a9 00        	lda	#$0
    2ece: a4 19        	ldy	$19                     ; 0x2019 <f256main+0x16fd>
    2ed0: 91 14        	sta	($14),y                 ; 0x2014 <f256main+0x16f8>
    2ed2: a0 08        	ldy	#$8
    2ed4: b1 12        	lda	($12),y                 ; 0x2012 <f256main+0x16f6>
    2ed6: 85 14        	sta	$14                     ; 0x2014 <f256main+0x16f8>
    2ed8: 0a           	asl
    2ed9: 64 16        	stz	$16                     ; 0x2016 <f256main+0x16fa>
    2edb: 26 16        	rol	$16                     ; 0x2016 <f256main+0x16fa>
    2edd: 0a           	asl
    2ede: 26 16        	rol	$16                     ; 0x2016 <f256main+0x16fa>
    2ee0: 0a           	asl
    2ee1: 26 16        	rol	$16                     ; 0x2016 <f256main+0x16fa>
    2ee3: 0a           	asl
    2ee4: 26 16        	rol	$16                     ; 0x2016 <f256main+0x16fa>
    2ee6: 38           	sec
    2ee7: e5 14        	sbc	$14                     ; 0x2014 <f256main+0x16f8>
    2ee9: 85 15        	sta	$15                     ; 0x2015 <f256main+0x16f9>
    2eeb: a5 16        	lda	$16                     ; 0x2016 <f256main+0x16fa>
    2eed: e9 00        	sbc	#$0
    2eef: 85 16        	sta	$16                     ; 0x2016 <f256main+0x16fa>
    2ef1: 8a           	txa
    2ef2: 18           	clc
    2ef3: 65 15        	adc	$15                     ; 0x2015 <f256main+0x16f9>
    2ef5: 85 15        	sta	$15                     ; 0x2015 <f256main+0x16f9>
    2ef7: a5 18        	lda	$18                     ; 0x2018 <f256main+0x16fc>
    2ef9: 65 16        	adc	$16                     ; 0x2016 <f256main+0x16fa>
    2efb: 85 17        	sta	$17                     ; 0x2017 <f256main+0x16fb>
    2efd: a4 15        	ldy	$15                     ; 0x2015 <f256main+0x16f9>
    2eff: 84 16        	sty	$16                     ; 0x2016 <f256main+0x16fa>
    2f01: a4 19        	ldy	$19                     ; 0x2019 <f256main+0x16fd>
    2f03: c8           	iny
    2f04: 98           	tya
    2f05: a0 04        	ldy	#$4
    2f07: d1 16        	cmp	($16),y                 ; 0x2016 <f256main+0x16fa>
    2f09: 64 15        	stz	$15                     ; 0x2015 <f256main+0x16f9>
    2f0b: a8           	tay
    2f0c: b0 03        	bcs	$2f11 <f256main+0x25f5>
    2f0e: 4c 82 2e     	jmp	$2e82 <f256main+0x2566>
    2f11: 4c ab 0e     	jmp	$eab <f256main+0x58f>
    2f14: 64 14        	stz	$14                     ; 0x2014 <f256main+0x16f8>
    2f16: 64 15        	stz	$15                     ; 0x2015 <f256main+0x16f9>
    2f18: a0 09        	ldy	#$9
    2f1a: b1 12        	lda	($12),y                 ; 0x2012 <f256main+0x16f6>
    2f1c: a2 00        	ldx	#$0
    2f1e: e4 15        	cpx	$15                     ; 0x2015 <f256main+0x16f9>
    2f20: d0 08        	bne	$2f2a <f256main+0x260e>
    2f22: aa           	tax
    2f23: a5 14        	lda	$14                     ; 0x2014 <f256main+0x16f8>
    2f25: 49 ff        	eor	#$ff
    2f27: 85 15        	sta	$15                     ; 0x2015 <f256main+0x16f9>
    2f29: 8a           	txa
    2f2a: e4 15        	cpx	$15                     ; 0x2015 <f256main+0x16f9>
    2f2c: 90 03        	bcc	$2f31 <f256main+0x2615>
    2f2e: 4c ab 0e     	jmp	$eab <f256main+0x58f>
    2f31: 18           	clc
    2f32: 65 14        	adc	$14                     ; 0x2014 <f256main+0x16f8>
    2f34: 1a           	inc
    2f35: 91 12        	sta	($12),y                 ; 0x2012 <f256main+0x16f6>
    2f37: 20 a5 3f     	jsr	$3fa5 <prepTempoLUT>
    2f3a: a6 6a        	ldx	$6a                     ; 0x206a <f256main+0x174e>
    2f3c: a4 6b        	ldy	$6b                     ; 0x206b <f256main+0x174f>
    2f3e: 86 12        	stx	$12                     ; 0x2012 <f256main+0x16f6>
    2f40: 84 13        	sty	$13                     ; 0x2013 <f256main+0x16f7>
    2f42: a0 09        	ldy	#$9
    2f44: b1 12        	lda	($12),y                 ; 0x2012 <f256main+0x16f6>
    2f46: 20 f7 4e     	jsr	$4ef7 <updateTempoText>
    2f49: a2 b0        	ldx	#$b0
    2f4b: 8e b1 dd     	stx	$ddb1                   ; 0xddb1 <__heap_start+0x4aab>
    2f4e: a0 7b        	ldy	#$7b
    2f50: 8c b1 dd     	sty	$ddb1                   ; 0xddb1 <__heap_start+0x4aab>
    2f53: 9c b1 dd     	stz	$ddb1                   ; 0xddb1 <__heap_start+0x4aab>
    2f56: 8e a1 dd     	stx	$dda1                   ; 0xdda1 <__heap_start+0x4a9b>
    2f59: 8c a1 dd     	sty	$dda1                   ; 0xdda1 <__heap_start+0x4a9b>
    2f5c: 9c a1 dd     	stz	$dda1                   ; 0xdda1 <__heap_start+0x4a9b>
    2f5f: e8           	inx
    2f60: 8e b1 dd     	stx	$ddb1                   ; 0xddb1 <__heap_start+0x4aab>
    2f63: 8c b1 dd     	sty	$ddb1                   ; 0xddb1 <__heap_start+0x4aab>
    2f66: 9c b1 dd     	stz	$ddb1                   ; 0xddb1 <__heap_start+0x4aab>
    2f69: 8e a1 dd     	stx	$dda1                   ; 0xdda1 <__heap_start+0x4a9b>
    2f6c: 8c a1 dd     	sty	$dda1                   ; 0xdda1 <__heap_start+0x4a9b>
    2f6f: 9c a1 dd     	stz	$dda1                   ; 0xdda1 <__heap_start+0x4a9b>
    2f72: a2 b9        	ldx	#$b9
    2f74: 8e b1 dd     	stx	$ddb1                   ; 0xddb1 <__heap_start+0x4aab>
    2f77: 8c b1 dd     	sty	$ddb1                   ; 0xddb1 <__heap_start+0x4aab>
    2f7a: 9c b1 dd     	stz	$ddb1                   ; 0xddb1 <__heap_start+0x4aab>
    2f7d: 8e a1 dd     	stx	$dda1                   ; 0xdda1 <__heap_start+0x4a9b>
    2f80: 8c a1 dd     	sty	$dda1                   ; 0xdda1 <__heap_start+0x4a9b>
    2f83: 9c a1 dd     	stz	$dda1                   ; 0xdda1 <__heap_start+0x4a9b>
    2f86: a6 7e        	ldx	$7e                     ; 0x207e <f256main+0x1762>
    2f88: 86 19        	stx	$19                     ; 0x2019 <f256main+0x16fd>
    2f8a: a6 7f        	ldx	$7f                     ; 0x207f <f256main+0x1763>
    2f8c: 86 18        	stx	$18                     ; 0x2018 <f256main+0x16fc>
    2f8e: a6 6a        	ldx	$6a                     ; 0x206a <f256main+0x174e>
    2f90: a4 6b        	ldy	$6b                     ; 0x206b <f256main+0x174f>
    2f92: 86 12        	stx	$12                     ; 0x2012 <f256main+0x16f6>
    2f94: 84 13        	sty	$13                     ; 0x2013 <f256main+0x16f7>
    2f96: a0 08        	ldy	#$8
    2f98: b1 12        	lda	($12),y                 ; 0x2012 <f256main+0x16f6>
    2f9a: 85 14        	sta	$14                     ; 0x2014 <f256main+0x16f8>
    2f9c: 64 15        	stz	$15                     ; 0x2015 <f256main+0x16f9>
    2f9e: 0a           	asl
    2f9f: 64 17        	stz	$17                     ; 0x2017 <f256main+0x16fb>
    2fa1: 26 17        	rol	$17                     ; 0x2017 <f256main+0x16fb>
    2fa3: 0a           	asl
    2fa4: 26 17        	rol	$17                     ; 0x2017 <f256main+0x16fb>
    2fa6: 0a           	asl
    2fa7: 26 17        	rol	$17                     ; 0x2017 <f256main+0x16fb>
    2fa9: 0a           	asl
    2faa: 26 17        	rol	$17                     ; 0x2017 <f256main+0x16fb>
    2fac: 38           	sec
    2fad: e5 14        	sbc	$14                     ; 0x2014 <f256main+0x16f8>
    2faf: 85 16        	sta	$16                     ; 0x2016 <f256main+0x16fa>
    2fb1: a5 17        	lda	$17                     ; 0x2017 <f256main+0x16fb>
    2fb3: e9 00        	sbc	#$0
    2fb5: 85 17        	sta	$17                     ; 0x2017 <f256main+0x16fb>
    2fb7: a5 19        	lda	$19                     ; 0x2019 <f256main+0x16fd>
    2fb9: 18           	clc
    2fba: 65 16        	adc	$16                     ; 0x2016 <f256main+0x16fa>
    2fbc: 85 16        	sta	$16                     ; 0x2016 <f256main+0x16fa>
    2fbe: a5 18        	lda	$18                     ; 0x2018 <f256main+0x16fc>
    2fc0: 65 17        	adc	$17                     ; 0x2017 <f256main+0x16fb>
    2fc2: 85 17        	sta	$17                     ; 0x2017 <f256main+0x16fb>
    2fc4: a0 04        	ldy	#$4
    2fc6: b1 16        	lda	($16),y                 ; 0x2016 <f256main+0x16fa>
    2fc8: d0 03        	bne	$2fcd <f256main+0x26b1>
    2fca: 4c ab 0e     	jmp	$eab <f256main+0x58f>
    2fcd: a6 19        	ldx	$19                     ; 0x2019 <f256main+0x16fd>
    2fcf: a0 00        	ldy	#$0
    2fd1: a5 14        	lda	$14                     ; 0x2014 <f256main+0x16f8>
    2fd3: 0a           	asl
    2fd4: 64 16        	stz	$16                     ; 0x2016 <f256main+0x16fa>
    2fd6: 26 16        	rol	$16                     ; 0x2016 <f256main+0x16fa>
    2fd8: 0a           	asl
    2fd9: 26 16        	rol	$16                     ; 0x2016 <f256main+0x16fa>
    2fdb: 0a           	asl
    2fdc: 26 16        	rol	$16                     ; 0x2016 <f256main+0x16fa>
    2fde: 0a           	asl
    2fdf: 26 16        	rol	$16                     ; 0x2016 <f256main+0x16fa>
    2fe1: 38           	sec
    2fe2: e5 14        	sbc	$14                     ; 0x2014 <f256main+0x16f8>
    2fe4: 85 14        	sta	$14                     ; 0x2014 <f256main+0x16f8>
    2fe6: a5 16        	lda	$16                     ; 0x2016 <f256main+0x16fa>
    2fe8: e5 15        	sbc	$15                     ; 0x2015 <f256main+0x16f9>
    2fea: 85 15        	sta	$15                     ; 0x2015 <f256main+0x16f9>
    2fec: 8a           	txa
    2fed: 18           	clc
    2fee: 65 14        	adc	$14                     ; 0x2014 <f256main+0x16f8>
    2ff0: 85 16        	sta	$16                     ; 0x2016 <f256main+0x16fa>
    2ff2: a5 18        	lda	$18                     ; 0x2018 <f256main+0x16fc>
    2ff4: 65 15        	adc	$15                     ; 0x2015 <f256main+0x16f9>
    2ff6: 5a           	phy
    2ff7: a4 16        	ldy	$16                     ; 0x2016 <f256main+0x16fa>
    2ff9: 84 14        	sty	$14                     ; 0x2014 <f256main+0x16f8>
    2ffb: 7a           	ply
    2ffc: 85 15        	sta	$15                     ; 0x2015 <f256main+0x16f9>
    2ffe: 85 17        	sta	$17                     ; 0x2017 <f256main+0x16fb>
    3000: 18           	clc
    3001: a5 16        	lda	$16                     ; 0x2016 <f256main+0x16fa>
    3003: 69 09        	adc	#$9
    3005: 85 16        	sta	$16                     ; 0x2016 <f256main+0x16fa>
    3007: a5 17        	lda	$17                     ; 0x2017 <f256main+0x16fb>
    3009: 69 00        	adc	#$0
    300b: 85 17        	sta	$17                     ; 0x2017 <f256main+0x16fb>
    300d: 84 19        	sty	$19                     ; 0x2019 <f256main+0x16fd>
    300f: a0 09        	ldy	#$9
    3011: b1 14        	lda	($14),y                 ; 0x2014 <f256main+0x16f8>
    3013: 85 14        	sta	$14                     ; 0x2014 <f256main+0x16f8>
    3015: a0 01        	ldy	#$1
    3017: b1 16        	lda	($16),y                 ; 0x2016 <f256main+0x16fa>
    3019: 85 15        	sta	$15                     ; 0x2015 <f256main+0x16f9>
    301b: a9 00        	lda	#$0
    301d: a4 19        	ldy	$19                     ; 0x2019 <f256main+0x16fd>
    301f: 91 14        	sta	($14),y                 ; 0x2014 <f256main+0x16f8>
    3021: a0 08        	ldy	#$8
    3023: b1 12        	lda	($12),y                 ; 0x2012 <f256main+0x16f6>
    3025: 85 14        	sta	$14                     ; 0x2014 <f256main+0x16f8>
    3027: 0a           	asl
    3028: 64 16        	stz	$16                     ; 0x2016 <f256main+0x16fa>
    302a: 26 16        	rol	$16                     ; 0x2016 <f256main+0x16fa>
    302c: 0a           	asl
    302d: 26 16        	rol	$16                     ; 0x2016 <f256main+0x16fa>
    302f: 0a           	asl
    3030: 26 16        	rol	$16                     ; 0x2016 <f256main+0x16fa>
    3032: 0a           	asl
    3033: 26 16        	rol	$16                     ; 0x2016 <f256main+0x16fa>
    3035: 38           	sec
    3036: e5 14        	sbc	$14                     ; 0x2014 <f256main+0x16f8>
    3038: 85 15        	sta	$15                     ; 0x2015 <f256main+0x16f9>
    303a: a5 16        	lda	$16                     ; 0x2016 <f256main+0x16fa>
    303c: e9 00        	sbc	#$0
    303e: 85 16        	sta	$16                     ; 0x2016 <f256main+0x16fa>
    3040: 8a           	txa
    3041: 18           	clc
    3042: 65 15        	adc	$15                     ; 0x2015 <f256main+0x16f9>
    3044: 85 15        	sta	$15                     ; 0x2015 <f256main+0x16f9>
    3046: a5 18        	lda	$18                     ; 0x2018 <f256main+0x16fc>
    3048: 65 16        	adc	$16                     ; 0x2016 <f256main+0x16fa>
    304a: 85 17        	sta	$17                     ; 0x2017 <f256main+0x16fb>
    304c: a4 15        	ldy	$15                     ; 0x2015 <f256main+0x16f9>
    304e: 84 16        	sty	$16                     ; 0x2016 <f256main+0x16fa>
    3050: a4 19        	ldy	$19                     ; 0x2019 <f256main+0x16fd>
    3052: c8           	iny
    3053: 98           	tya
    3054: a0 04        	ldy	#$4
    3056: d1 16        	cmp	($16),y                 ; 0x2016 <f256main+0x16fa>
    3058: 64 15        	stz	$15                     ; 0x2015 <f256main+0x16f9>
    305a: a8           	tay
    305b: b0 03        	bcs	$3060 <f256main+0x2744>
    305d: 4c d1 2f     	jmp	$2fd1 <f256main+0x26b5>
    3060: 4c ab 0e     	jmp	$eab <f256main+0x58f>

00003063 <textPrint>:
    3063: a6 01        	ldx	$1                      ; 0x2001 <f256main+0x16e5>
    3065: 86 ed        	stx	$ed                     ; 0x20ed <f256main+0x17d1>
    3067: a6 34        	ldx	$34                     ; 0x2034 <f256main+0x1718>
    3069: a0 50        	ldy	#$50
    306b: 8c 00 de     	sty	$de00                   ; 0xde00 <__heap_start+0x4afa>
    306e: 9c 01 de     	stz	$de01                   ; 0xde01 <__heap_start+0x4afb>
    3071: 8e 02 de     	stx	$de02                   ; 0xde02 <__heap_start+0x4afc>
    3074: 9c 03 de     	stz	$de03                   ; 0xde03 <__heap_start+0x4afd>
    3077: ae 10 de     	ldx	$de10                   ; 0xde10 <__heap_start+0x4b0a>
    307a: ac 11 de     	ldy	$de11                   ; 0xde11 <__heap_start+0x4b0b>
    307d: 84 15        	sty	$15                     ; 0x2015 <f256main+0x16f9>
    307f: ad 12 de     	lda	$de12                   ; 0xde12 <__heap_start+0x4b0c>
    3082: ac 13 de     	ldy	$de13                   ; 0xde13 <__heap_start+0x4b0d>
    3085: 84 1c        	sty	$1c                     ; 0x201c <f256main+0x1700>
    3087: 9c 08 de     	stz	$de08                   ; 0xde08 <__heap_start+0x4b02>
    308a: a0 c0        	ldy	#$c0
    308c: 8c 09 de     	sty	$de09                   ; 0xde09 <__heap_start+0x4b03>
    308f: 9c 0a de     	stz	$de0a                   ; 0xde0a <__heap_start+0x4b04>
    3092: 9c 0b de     	stz	$de0b                   ; 0xde0b <__heap_start+0x4b05>
    3095: 8e 0c de     	stx	$de0c                   ; 0xde0c <__heap_start+0x4b06>
    3098: 64 14        	stz	$14                     ; 0x2014 <f256main+0x16f8>
    309a: a2 00        	ldx	#$0
    309c: 86 16        	stx	$16                     ; 0x2016 <f256main+0x16fa>
    309e: a2 c0        	ldx	#$c0
    30a0: 86 17        	stx	$17                     ; 0x2017 <f256main+0x16fb>
    30a2: a2 11        	ldx	#$11
    30a4: 86 18        	stx	$18                     ; 0x2018 <f256main+0x16fc>
    30a6: a2 c9        	ldx	#$c9
    30a8: 86 19        	stx	$19                     ; 0x2019 <f256main+0x16fd>
    30aa: a2 10        	ldx	#$10
    30ac: 86 1a        	stx	$1a                     ; 0x201a <f256main+0x16fe>
    30ae: a2 c9        	ldx	#$c9
    30b0: 86 1b        	stx	$1b                     ; 0x201b <f256main+0x16ff>
    30b2: a6 15        	ldx	$15                     ; 0x2015 <f256main+0x16f9>
    30b4: 8e 0d de     	stx	$de0d                   ; 0xde0d <__heap_start+0x4b07>
    30b7: 8d 0e de     	sta	$de0e                   ; 0xde0e <__heap_start+0x4b08>
    30ba: a6 1c        	ldx	$1c                     ; 0x201c <f256main+0x1700>
    30bc: 8e 0f de     	stx	$de0f                   ; 0xde0f <__heap_start+0x4b09>
    30bf: ac 18 de     	ldy	$de18                   ; 0xde18 <__heap_start+0x4b12>
    30c2: ad 19 de     	lda	$de19                   ; 0xde19 <__heap_start+0x4b13>
    30c5: ae 1a de     	ldx	$de1a                   ; 0xde1a <__heap_start+0x4b14>
    30c8: ae 1b de     	ldx	$de1b                   ; 0xde1b <__heap_start+0x4b15>
    30cb: 84 1c        	sty	$1c                     ; 0x201c <f256main+0x1700>
    30cd: 85 1d        	sta	$1d                     ; 0x201d <f256main+0x1701>
    30cf: 64 15        	stz	$15                     ; 0x2015 <f256main+0x16f9>
    30d1: 80 13        	bra	$30e6 <textPrint+0x83>
    30d3: a5 1c        	lda	$1c                     ; 0x201c <f256main+0x1700>
    30d5: 18           	clc
    30d6: 69 50        	adc	#$50
    30d8: 85 1c        	sta	$1c                     ; 0x201c <f256main+0x1700>
    30da: a5 1d        	lda	$1d                     ; 0x201d <f256main+0x1701>
    30dc: 69 00        	adc	#$0
    30de: 85 1d        	sta	$1d                     ; 0x201d <f256main+0x1701>
    30e0: e6 14        	inc	$14                     ; 0x2014 <f256main+0x16f8>
    30e2: d0 02        	bne	$30e6 <textPrint+0x83>
    30e4: e6 15        	inc	$15                     ; 0x2015 <f256main+0x16f9>
    30e6: a5 12        	lda	$12                     ; 0x2012 <f256main+0x16f6>
    30e8: 18           	clc
    30e9: 65 14        	adc	$14                     ; 0x2014 <f256main+0x16f8>
    30eb: 85 1e        	sta	$1e                     ; 0x201e <f256main+0x1702>
    30ed: a5 13        	lda	$13                     ; 0x2013 <f256main+0x16f7>
    30ef: 65 15        	adc	$15                     ; 0x2015 <f256main+0x16f9>
    30f1: 85 1f        	sta	$1f                     ; 0x201f <f256main+0x1703>
    30f3: b2 1e        	lda	($1e)                   ; 0x201e <f256main+0x1702>
    30f5: c9 0a        	cmp	#$a
    30f7: f0 26        	beq	$311f <textPrint+0xbc>
    30f9: c9 0d        	cmp	#$d
    30fb: f0 22        	beq	$311f <textPrint+0xbc>
    30fd: aa           	tax
    30fe: d0 03        	bne	$3103 <textPrint+0xa0>
    3100: 4c 04 32     	jmp	$3204 <textPrint+0x1a1>
    3103: a2 03        	ldx	#$3
    3105: 86 01        	stx	$1                      ; 0x2001 <f256main+0x16e5>
    3107: a5 30        	lda	$30                     ; 0x2030 <f256main+0x1714>
    3109: a4 33        	ldy	$33                     ; 0x2033 <f256main+0x1717>
    310b: 91 1c        	sta	($1c),y                 ; 0x201c <f256main+0x1700>
    310d: ca           	dex
    310e: 86 01        	stx	$1                      ; 0x2001 <f256main+0x16e5>
    3110: b2 1e        	lda	($1e)                   ; 0x201e <f256main+0x1702>
    3112: a4 33        	ldy	$33                     ; 0x2033 <f256main+0x1717>
    3114: 91 1c        	sta	($1c),y                 ; 0x201c <f256main+0x1700>
    3116: a6 33        	ldx	$33                     ; 0x2033 <f256main+0x1717>
    3118: e8           	inx
    3119: e6 33        	inc	$33                     ; 0x2033 <f256main+0x1717>
    311b: e0 50        	cpx	#$50
    311d: d0 c1        	bne	$30e0 <textPrint+0x7d>
    311f: 64 33        	stz	$33                     ; 0x2033 <f256main+0x1717>
    3121: a6 34        	ldx	$34                     ; 0x2034 <f256main+0x1718>
    3123: e8           	inx
    3124: e6 34        	inc	$34                     ; 0x2034 <f256main+0x1718>
    3126: e0 1e        	cpx	#$1e
    3128: f0 03        	beq	$312d <textPrint+0xca>
    312a: 4c d3 30     	jmp	$30d3 <textPrint+0x70>
    312d: a2 03        	ldx	#$3
    312f: 86 01        	stx	$1                      ; 0x2001 <f256main+0x16e5>
    3131: a2 01        	ldx	#$1
    3133: 86 1c        	stx	$1c                     ; 0x201c <f256main+0x1700>
    3135: a2 09        	ldx	#$9
    3137: a9 10        	lda	#$10
    3139: a0 00        	ldy	#$0
    313b: 84 1e        	sty	$1e                     ; 0x201e <f256main+0x1702>
    313d: a0 c0        	ldy	#$c0
    313f: 84 1f        	sty	$1f                     ; 0x201f <f256main+0x1703>
    3141: 85 1d        	sta	$1d                     ; 0x201d <f256main+0x1701>
    3143: a0 50        	ldy	#$50
    3145: b1 1e        	lda	($1e),y                 ; 0x201e <f256main+0x1702>
    3147: 92 1e        	sta	($1e)                   ; 0x201e <f256main+0x1702>
    3149: a9 ff        	lda	#$ff
    314b: c6 1d        	dec	$1d                     ; 0x201d <f256main+0x1701>
    314d: c5 1d        	cmp	$1d                     ; 0x201d <f256main+0x1701>
    314f: d0 01        	bne	$3152 <textPrint+0xef>
    3151: ca           	dex
    3152: e6 1e        	inc	$1e                     ; 0x201e <f256main+0x1702>
    3154: d0 02        	bne	$3158 <textPrint+0xf5>
    3156: e6 1f        	inc	$1f                     ; 0x201f <f256main+0x1703>
    3158: 8a           	txa
    3159: d0 ea        	bne	$3145 <textPrint+0xe2>
    315b: a5 1d        	lda	$1d                     ; 0x201d <f256main+0x1701>
    315d: d0 e6        	bne	$3145 <textPrint+0xe2>
    315f: a2 02        	ldx	#$2
    3161: 86 01        	stx	$1                      ; 0x2001 <f256main+0x16e5>
    3163: a2 00        	ldx	#$0
    3165: a5 1c        	lda	$1c                     ; 0x201c <f256main+0x1700>
    3167: d0 ca        	bne	$3133 <textPrint+0xd0>
    3169: a2 03        	ldx	#$3
    316b: 86 01        	stx	$1                      ; 0x2001 <f256main+0x16e5>
    316d: a5 30        	lda	$30                     ; 0x2030 <f256main+0x1714>
    316f: a2 50        	ldx	#$50
    3171: a0 11        	ldy	#$11
    3173: 84 1c        	sty	$1c                     ; 0x201c <f256main+0x1700>
    3175: a0 c9        	ldy	#$c9
    3177: 84 1d        	sty	$1d                     ; 0x201d <f256main+0x1701>
    3179: a0 10        	ldy	#$10
    317b: 84 1e        	sty	$1e                     ; 0x201e <f256main+0x1702>
    317d: a0 c9        	ldy	#$c9
    317f: 84 1f        	sty	$1f                     ; 0x201f <f256main+0x1703>
    3181: a4 1c        	ldy	$1c                     ; 0x201c <f256main+0x1700>
    3183: 84 22        	sty	$22                     ; 0x2022 <f256main+0x1706>
    3185: a4 1d        	ldy	$1d                     ; 0x201d <f256main+0x1701>
    3187: 84 23        	sty	$23                     ; 0x2023 <f256main+0x1707>
    3189: 92 1e        	sta	($1e)                   ; 0x201e <f256main+0x1702>
    318b: e6 1c        	inc	$1c                     ; 0x201c <f256main+0x1700>
    318d: d0 02        	bne	$3191 <textPrint+0x12e>
    318f: e6 1d        	inc	$1d                     ; 0x201d <f256main+0x1701>
    3191: ca           	dex
    3192: a4 22        	ldy	$22                     ; 0x2022 <f256main+0x1706>
    3194: 84 1e        	sty	$1e                     ; 0x201e <f256main+0x1702>
    3196: a4 23        	ldy	$23                     ; 0x2023 <f256main+0x1707>
    3198: 84 1f        	sty	$1f                     ; 0x201f <f256main+0x1703>
    319a: e0 00        	cpx	#$0
    319c: d0 e3        	bne	$3181 <textPrint+0x11e>
    319e: a2 02        	ldx	#$2
    31a0: 86 01        	stx	$1                      ; 0x2001 <f256main+0x16e5>
    31a2: a2 50        	ldx	#$50
    31a4: a0 11        	ldy	#$11
    31a6: 84 1c        	sty	$1c                     ; 0x201c <f256main+0x1700>
    31a8: a0 c9        	ldy	#$c9
    31aa: 84 1d        	sty	$1d                     ; 0x201d <f256main+0x1701>
    31ac: a0 10        	ldy	#$10
    31ae: 84 1e        	sty	$1e                     ; 0x201e <f256main+0x1702>
    31b0: a0 c9        	ldy	#$c9
    31b2: 84 1f        	sty	$1f                     ; 0x201f <f256main+0x1703>
    31b4: a9 20        	lda	#$20
    31b6: a4 1c        	ldy	$1c                     ; 0x201c <f256main+0x1700>
    31b8: 84 22        	sty	$22                     ; 0x2022 <f256main+0x1706>
    31ba: a4 1d        	ldy	$1d                     ; 0x201d <f256main+0x1701>
    31bc: 84 23        	sty	$23                     ; 0x2023 <f256main+0x1707>
    31be: 92 1e        	sta	($1e)                   ; 0x201e <f256main+0x1702>
    31c0: e6 1c        	inc	$1c                     ; 0x201c <f256main+0x1700>
    31c2: d0 02        	bne	$31c6 <textPrint+0x163>
    31c4: e6 1d        	inc	$1d                     ; 0x201d <f256main+0x1701>
    31c6: ca           	dex
    31c7: a4 22        	ldy	$22                     ; 0x2022 <f256main+0x1706>
    31c9: 84 1e        	sty	$1e                     ; 0x201e <f256main+0x1702>
    31cb: a4 23        	ldy	$23                     ; 0x2023 <f256main+0x1707>
    31cd: 84 1f        	sty	$1f                     ; 0x201f <f256main+0x1703>
    31cf: e0 00        	cpx	#$0
    31d1: d0 e3        	bne	$31b6 <textPrint+0x153>
    31d3: c6 34        	dec	$34                     ; 0x2034 <f256main+0x1718>
    31d5: 9c 08 de     	stz	$de08                   ; 0xde08 <__heap_start+0x4b02>
    31d8: a2 c0        	ldx	#$c0
    31da: 8e 09 de     	stx	$de09                   ; 0xde09 <__heap_start+0x4b03>
    31dd: 9c 0a de     	stz	$de0a                   ; 0xde0a <__heap_start+0x4b04>
    31e0: 9c 0b de     	stz	$de0b                   ; 0xde0b <__heap_start+0x4b05>
    31e3: a2 1d        	ldx	#$1d
    31e5: 8e 0c de     	stx	$de0c                   ; 0xde0c <__heap_start+0x4b06>
    31e8: 9c 0d de     	stz	$de0d                   ; 0xde0d <__heap_start+0x4b07>
    31eb: 9c 0e de     	stz	$de0e                   ; 0xde0e <__heap_start+0x4b08>
    31ee: 9c 0f de     	stz	$de0f                   ; 0xde0f <__heap_start+0x4b09>
    31f1: ae 18 de     	ldx	$de18                   ; 0xde18 <__heap_start+0x4b12>
    31f4: ac 19 de     	ldy	$de19                   ; 0xde19 <__heap_start+0x4b13>
    31f7: ad 1a de     	lda	$de1a                   ; 0xde1a <__heap_start+0x4b14>
    31fa: ad 1b de     	lda	$de1b                   ; 0xde1b <__heap_start+0x4b15>
    31fd: 86 1c        	stx	$1c                     ; 0x201c <f256main+0x1700>
    31ff: 84 1d        	sty	$1d                     ; 0x201d <f256main+0x1701>
    3201: 4c e0 30     	jmp	$30e0 <textPrint+0x7d>
    3204: a6 ed        	ldx	$ed                     ; 0x20ed <f256main+0x17d1>
    3206: 86 01        	stx	$1                      ; 0x2001 <f256main+0x16e5>
    3208: a6 33        	ldx	$33                     ; 0x2033 <f256main+0x1717>
    320a: a4 34        	ldy	$34                     ; 0x2034 <f256main+0x1718>
    320c: 8e 14 d0     	stx	$d014                   ; 0xd014 <__heap_start+0x3d0e>
    320f: 9c 15 d0     	stz	$d015                   ; 0xd015 <__heap_start+0x3d0f>
    3212: 84 34        	sty	$34                     ; 0x2034 <f256main+0x1718>
    3214: 8c 16 d0     	sty	$d016                   ; 0xd016 <__heap_start+0x3d10>
    3217: 9c 17 d0     	stz	$d017                   ; 0xd017 <__heap_start+0x3d11>
    321a: 60           	rts

0000321b <dispatchNote>:
    321b: 86 1b        	stx	$1b                     ; 0x201b <f256main+0x16ff>
    321d: a6 12        	ldx	$12                     ; 0x2012 <f256main+0x16f6>
    321f: 86 1a        	stx	$1a                     ; 0x201a <f256main+0x16fe>
    3221: a4 15        	ldy	$15                     ; 0x2015 <f256main+0x16f9>
    3223: aa           	tax
    3224: f0 07        	beq	$322d <dispatchNote+0x12>
    3226: a6 1a        	ldx	$1a                     ; 0x201a <f256main+0x16fe>
    3228: d0 03        	bne	$322d <dispatchNote+0x12>
    322a: 4c 91 35     	jmp	$3591 <dispatchNote+0x376>
    322d: c0 05        	cpy	#$5
    322f: 90 03        	bcc	$3234 <dispatchNote+0x19>
    3231: 4c 91 35     	jmp	$3591 <dispatchNote+0x376>
    3234: 84 12        	sty	$12                     ; 0x2012 <f256main+0x16f6>
    3236: 06 12        	asl	$12                     ; 0x2012 <f256main+0x16f6>
    3238: a6 12        	ldx	$12                     ; 0x2012 <f256main+0x16f6>
    323a: 7c 29 7e     	jmp	($7e29,x)               ; 0x7e29 <__set_v+0x17>
    323d: a2 b1        	ldx	#$b1
    323f: 86 1c        	stx	$1c                     ; 0x201c <f256main+0x1700>
    3241: a2 dd        	ldx	#$dd
    3243: 86 1d        	stx	$1d                     ; 0x201d <f256main+0x1701>
    3245: a2 a1        	ldx	#$a1
    3247: 86 18        	stx	$18                     ; 0x2018 <f256main+0x16fc>
    3249: a2 dd        	ldx	#$dd
    324b: 86 19        	stx	$19                     ; 0x2019 <f256main+0x16fd>
    324d: aa           	tax
    324e: d0 03        	bne	$3253 <dispatchNote+0x38>
    3250: 4c e4 32     	jmp	$32e4 <dispatchNote+0xc9>
    3253: c0 04        	cpy	#$4
    3255: f0 03        	beq	$325a <dispatchNote+0x3f>
    3257: 4c 08 33     	jmp	$3308 <dispatchNote+0xed>
    325a: a5 1b        	lda	$1b                     ; 0x201b <f256main+0x16ff>
    325c: 09 90        	ora	#$90
    325e: 8d b1 dd     	sta	$ddb1                   ; 0xddb1 <__heap_start+0x4aab>
    3261: a6 1a        	ldx	$1a                     ; 0x201a <f256main+0x16fe>
    3263: 8e b1 dd     	stx	$ddb1                   ; 0xddb1 <__heap_start+0x4aab>
    3266: a6 13        	ldx	$13                     ; 0x2013 <f256main+0x16f7>
    3268: 86 15        	stx	$15                     ; 0x2015 <f256main+0x16f9>
    326a: 8e b1 dd     	stx	$ddb1                   ; 0xddb1 <__heap_start+0x4aab>
    326d: a6 6a        	ldx	$6a                     ; 0x206a <f256main+0x174e>
    326f: a4 6b        	ldy	$6b                     ; 0x206b <f256main+0x174f>
    3271: 86 16        	stx	$16                     ; 0x2016 <f256main+0x16fa>
    3273: 84 17        	sty	$17                     ; 0x2017 <f256main+0x16fb>
    3275: a0 07        	ldy	#$7
    3277: b1 16        	lda	($16),y                 ; 0x2016 <f256main+0x16fa>
    3279: a2 b1        	ldx	#$b1
    327b: 86 18        	stx	$18                     ; 0x2018 <f256main+0x16fc>
    327d: a2 dd        	ldx	#$dd
    327f: 86 19        	stx	$19                     ; 0x2019 <f256main+0x16fd>
    3281: aa           	tax
    3282: f0 03        	beq	$3287 <dispatchNote+0x6c>
    3284: 4c a0 34     	jmp	$34a0 <dispatchNote+0x285>
    3287: 4c ac 34     	jmp	$34ac <dispatchNote+0x291>
    328a: aa           	tax
    328b: d0 03        	bne	$3290 <dispatchNote+0x75>
    328d: 4c 3f 33     	jmp	$333f <dispatchNote+0x124>
    3290: a5 16        	lda	$16                     ; 0x2016 <f256main+0x16fa>
    3292: d0 03        	bne	$3297 <dispatchNote+0x7c>
    3294: 4c 23 34     	jmp	$3423 <dispatchNote+0x208>
    3297: a5 1b        	lda	$1b                     ; 0x201b <f256main+0x16ff>
    3299: a6 1b        	ldx	$1b                     ; 0x201b <f256main+0x16ff>
    329b: c9 ff        	cmp	#$ff
    329d: f0 03        	beq	$32a2 <dispatchNote+0x87>
    329f: 4c 37 34     	jmp	$3437 <dispatchNote+0x21c>
    32a2: 4c 91 35     	jmp	$3591 <dispatchNote+0x376>
    32a5: aa           	tax
    32a6: d0 03        	bne	$32ab <dispatchNote+0x90>
    32a8: 4c ce 33     	jmp	$33ce <dispatchNote+0x1b3>
    32ab: a5 16        	lda	$16                     ; 0x2016 <f256main+0x16fa>
    32ad: d0 03        	bne	$32b2 <dispatchNote+0x97>
    32af: 4c 44 34     	jmp	$3444 <dispatchNote+0x229>
    32b2: a4 1b        	ldy	$1b                     ; 0x201b <f256main+0x16ff>
    32b4: a6 1b        	ldx	$1b                     ; 0x201b <f256main+0x16ff>
    32b6: a5 1a        	lda	$1a                     ; 0x201a <f256main+0x16fe>
    32b8: 9d 43 00     	sta	$43,x                   ; 0x43 <polySIDBuffer>
    32bb: a5 1b        	lda	$1b                     ; 0x201b <f256main+0x16ff>
    32bd: 30 03        	bmi	$32c2 <dispatchNote+0xa7>
    32bf: 4c b6 34     	jmp	$34b6 <dispatchNote+0x29b>
    32c2: a2 ff        	ldx	#$ff
    32c4: 86 12        	stx	$12                     ; 0x2012 <f256main+0x16f6>
    32c6: 4c b8 34     	jmp	$34b8 <dispatchNote+0x29d>
    32c9: aa           	tax
    32ca: d0 03        	bne	$32cf <dispatchNote+0xb4>
    32cc: 4c de 33     	jmp	$33de <dispatchNote+0x1c3>
    32cf: a5 16        	lda	$16                     ; 0x2016 <f256main+0x16fa>
    32d1: d0 03        	bne	$32d6 <dispatchNote+0xbb>
    32d3: 4c 61 34     	jmp	$3461 <dispatchNote+0x246>
    32d6: a6 1b        	ldx	$1b                     ; 0x201b <f256main+0x16ff>
    32d8: 86 12        	stx	$12                     ; 0x2012 <f256main+0x16f6>
    32da: e0 ff        	cpx	#$ff
    32dc: f0 03        	beq	$32e1 <dispatchNote+0xc6>
    32de: 4c 77 34     	jmp	$3477 <dispatchNote+0x25c>
    32e1: 4c 91 35     	jmp	$3591 <dispatchNote+0x376>
    32e4: c0 04        	cpy	#$4
    32e6: f0 03        	beq	$32eb <dispatchNote+0xd0>
    32e8: 4c fb 33     	jmp	$33fb <dispatchNote+0x1e0>
    32eb: 84 12        	sty	$12                     ; 0x2012 <f256main+0x16f6>
    32ed: a5 1b        	lda	$1b                     ; 0x201b <f256main+0x16ff>
    32ef: 09 80        	ora	#$80
    32f1: 8d b1 dd     	sta	$ddb1                   ; 0xddb1 <__heap_start+0x4aab>
    32f4: a6 1a        	ldx	$1a                     ; 0x201a <f256main+0x16fe>
    32f6: 8e b1 dd     	stx	$ddb1                   ; 0xddb1 <__heap_start+0x4aab>
    32f9: a6 13        	ldx	$13                     ; 0x2013 <f256main+0x16f7>
    32fb: 8e b1 dd     	stx	$ddb1                   ; 0xddb1 <__heap_start+0x4aab>
    32fe: a5 14        	lda	$14                     ; 0x2014 <f256main+0x16f8>
    3300: f0 03        	beq	$3305 <dispatchNote+0xea>
    3302: 4c 17 34     	jmp	$3417 <dispatchNote+0x1fc>
    3305: 4c bc 36     	jmp	$36bc <dispatchNote+0x4a1>
    3308: a5 1b        	lda	$1b                     ; 0x201b <f256main+0x16ff>
    330a: 09 90        	ora	#$90
    330c: a6 1a        	ldx	$1a                     ; 0x201a <f256main+0x16fe>
    330e: a4 14        	ldy	$14                     ; 0x2014 <f256main+0x16f8>
    3310: d0 03        	bne	$3315 <dispatchNote+0xfa>
    3312: 4c 85 34     	jmp	$3485 <dispatchNote+0x26a>
    3315: 8d b1 dd     	sta	$ddb1                   ; 0xddb1 <__heap_start+0x4aab>
    3318: 8e b1 dd     	stx	$ddb1                   ; 0xddb1 <__heap_start+0x4aab>
    331b: a4 13        	ldy	$13                     ; 0x2013 <f256main+0x16f7>
    331d: 84 15        	sty	$15                     ; 0x2015 <f256main+0x16f9>
    331f: 8c b1 dd     	sty	$ddb1                   ; 0xddb1 <__heap_start+0x4aab>
    3322: a5 6a        	lda	$6a                     ; 0x206a <f256main+0x174e>
    3324: a4 6b        	ldy	$6b                     ; 0x206b <f256main+0x174f>
    3326: 85 16        	sta	$16                     ; 0x2016 <f256main+0x16fa>
    3328: 84 17        	sty	$17                     ; 0x2017 <f256main+0x16fb>
    332a: a0 07        	ldy	#$7
    332c: b1 16        	lda	($16),y                 ; 0x2016 <f256main+0x16fa>
    332e: a2 b1        	ldx	#$b1
    3330: 86 18        	stx	$18                     ; 0x2018 <f256main+0x16fc>
    3332: a2 dd        	ldx	#$dd
    3334: 86 19        	stx	$19                     ; 0x2019 <f256main+0x16fd>
    3336: aa           	tax
    3337: f0 03        	beq	$333c <dispatchNote+0x121>
    3339: 4c a0 34     	jmp	$34a0 <dispatchNote+0x285>
    333c: 4c b0 34     	jmp	$34b0 <dispatchNote+0x295>
    333f: a2 00        	ldx	#$0
    3341: a5 1a        	lda	$1a                     ; 0x201a <f256main+0x16fe>
    3343: 85 12        	sta	$12                     ; 0x2012 <f256main+0x16f6>
    3345: b4 4f        	ldy	$4f,x                   ; 0x204f <f256main+0x1733>
    3347: c4 12        	cpy	$12                     ; 0x2012 <f256main+0x16f6>
    3349: f0 07        	beq	$3352 <dispatchNote+0x137>
    334b: e8           	inx
    334c: e0 09        	cpx	#$9
    334e: d0 f5        	bne	$3345 <dispatchNote+0x12a>
    3350: a2 ff        	ldx	#$ff
    3352: 86 8d        	stx	$8d                     ; 0x208d <f256main+0x1771>
    3354: 18           	clc
    3355: 69 05        	adc	#$5
    3357: 64 13        	stz	$13                     ; 0x2013 <f256main+0x16f7>
    3359: 85 16        	sta	$16                     ; 0x2016 <f256main+0x16fa>
    335b: a9 00        	lda	#$0
    335d: 69 00        	adc	#$0
    335f: a2 89        	ldx	#$89
    3361: a0 00        	ldy	#$0
    3363: 86 14        	stx	$14                     ; 0x2014 <f256main+0x16f8>
    3365: 84 15        	sty	$15                     ; 0x2015 <f256main+0x16f9>
    3367: a2 0c        	ldx	#$c
    3369: 86 12        	stx	$12                     ; 0x2012 <f256main+0x16f6>
    336b: aa           	tax
    336c: a5 16        	lda	$16                     ; 0x2016 <f256main+0x16fa>
    336e: 20 d6 6d     	jsr	$6dd6 <__udivmodhi4>
    3371: aa           	tax
    3372: a4 89        	ldy	$89                     ; 0x2089 <f256main+0x176d>
    3374: 84 12        	sty	$12                     ; 0x2012 <f256main+0x16f6>
    3376: a5 8a        	lda	$8a                     ; 0x208a <f256main+0x176e>
    3378: a0 01        	ldy	#$1
    337a: 06 12        	asl	$12                     ; 0x2012 <f256main+0x16f6>
    337c: 2a           	rol
    337d: 85 13        	sta	$13                     ; 0x2013 <f256main+0x16f7>
    337f: a9 54        	lda	#$54
    3381: 18           	clc
    3382: 65 12        	adc	$12                     ; 0x2012 <f256main+0x16f6>
    3384: 85 12        	sta	$12                     ; 0x2012 <f256main+0x16f6>
    3386: a9 8c        	lda	#$8c
    3388: 65 13        	adc	$13                     ; 0x2013 <f256main+0x16f7>
    338a: 85 13        	sta	$13                     ; 0x2013 <f256main+0x16f7>
    338c: b2 12        	lda	($12)                   ; 0x2012 <f256main+0x16f6>
    338e: 85 14        	sta	$14                     ; 0x2014 <f256main+0x16f8>
    3390: b1 12        	lda	($12),y                 ; 0x2012 <f256main+0x16f6>
    3392: 85 13        	sta	$13                     ; 0x2013 <f256main+0x16f7>
    3394: 18           	clc
    3395: 8a           	txa
    3396: 69 3e        	adc	#$3e
    3398: a8           	tay
    3399: a6 8d        	ldx	$8d                     ; 0x208d <f256main+0x1771>
    339b: 86 12        	stx	$12                     ; 0x2012 <f256main+0x16f6>
    339d: 8a           	txa
    339e: 09 a0        	ora	#$a0
    33a0: 8d 80 d5     	sta	$d580                   ; 0xd580 <__heap_start+0x427a>
    33a3: a5 14        	lda	$14                     ; 0x2014 <f256main+0x16f8>
    33a5: 8d 81 d5     	sta	$d581                   ; 0xd581 <__heap_start+0x427b>
    33a8: 8a           	txa
    33a9: 09 b0        	ora	#$b0
    33ab: 85 14        	sta	$14                     ; 0x2014 <f256main+0x16f8>
    33ad: a5 13        	lda	$13                     ; 0x2013 <f256main+0x16f7>
    33af: 29 03        	and	#$3
    33b1: 85 13        	sta	$13                     ; 0x2013 <f256main+0x16f7>
    33b3: 98           	tya
    33b4: 0a           	asl
    33b5: a6 14        	ldx	$14                     ; 0x2014 <f256main+0x16f8>
    33b7: 8e 80 d5     	stx	$d580                   ; 0xd580 <__heap_start+0x427a>
    33ba: 0a           	asl
    33bb: 05 13        	ora	$13                     ; 0x2013 <f256main+0x16f7>
    33bd: 8d 81 d5     	sta	$d581                   ; 0xd581 <__heap_start+0x427b>
    33c0: a5 12        	lda	$12                     ; 0x2012 <f256main+0x16f6>
    33c2: 30 03        	bmi	$33c7 <dispatchNote+0x1ac>
    33c4: 4c 77 35     	jmp	$3577 <dispatchNote+0x35c>
    33c7: a2 ff        	ldx	#$ff
    33c9: 86 13        	stx	$13                     ; 0x2013 <f256main+0x16f7>
    33cb: 4c 79 35     	jmp	$3579 <dispatchNote+0x35e>
    33ce: a5 16        	lda	$16                     ; 0x2016 <f256main+0x16fa>
    33d0: d0 03        	bne	$33d5 <dispatchNote+0x1ba>
    33d2: 4c 94 36     	jmp	$3694 <dispatchNote+0x479>
    33d5: a5 1b        	lda	$1b                     ; 0x201b <f256main+0x16ff>
    33d7: a6 1b        	ldx	$1b                     ; 0x201b <f256main+0x16ff>
    33d9: 74 43        	stz	$43,x                   ; 0x2043 <f256main+0x1727>
    33db: 4c 17 37     	jmp	$3717 <dispatchNote+0x4fc>
    33de: a0 d6        	ldy	#$d6
    33e0: a2 00        	ldx	#$0
    33e2: a5 1a        	lda	$1a                     ; 0x201a <f256main+0x16fe>
    33e4: 85 12        	sta	$12                     ; 0x2012 <f256main+0x16f6>
    33e6: b5 37        	lda	$37,x                   ; 0x2037 <f256main+0x171b>
    33e8: c5 12        	cmp	$12                     ; 0x2012 <f256main+0x16f6>
    33ea: d0 03        	bne	$33ef <dispatchNote+0x1d4>
    33ec: 4c 5a 35     	jmp	$355a <dispatchNote+0x33f>
    33ef: e8           	inx
    33f0: e0 06        	cpx	#$6
    33f2: d0 f2        	bne	$33e6 <dispatchNote+0x1cb>
    33f4: 64 12        	stz	$12                     ; 0x2012 <f256main+0x16f6>
    33f6: 64 36        	stz	$36                     ; 0x2036 <f256main+0x171a>
    33f8: 4c 69 35     	jmp	$3569 <dispatchNote+0x34e>
    33fb: 84 12        	sty	$12                     ; 0x2012 <f256main+0x16f6>
    33fd: a5 1b        	lda	$1b                     ; 0x201b <f256main+0x16ff>
    33ff: 09 80        	ora	#$80
    3401: a6 1a        	ldx	$1a                     ; 0x201a <f256main+0x16fe>
    3403: a4 13        	ldy	$13                     ; 0x2013 <f256main+0x16f7>
    3405: e6 14        	inc	$14                     ; 0x2014 <f256main+0x16f8>
    3407: c6 14        	dec	$14                     ; 0x2014 <f256main+0x16f8>
    3409: d0 03        	bne	$340e <dispatchNote+0x1f3>
    340b: 4c b3 36     	jmp	$36b3 <dispatchNote+0x498>
    340e: 8d b1 dd     	sta	$ddb1                   ; 0xddb1 <__heap_start+0x4aab>
    3411: 8e b1 dd     	stx	$ddb1                   ; 0xddb1 <__heap_start+0x4aab>
    3414: 8c b1 dd     	sty	$ddb1                   ; 0xddb1 <__heap_start+0x4aab>
    3417: a5 66        	lda	$66                     ; 0x2066 <f256main+0x174a>
    3419: b8           	clv
    341a: a2 66        	ldx	#$66
    341c: 86 16        	stx	$16                     ; 0x2016 <f256main+0x16fa>
    341e: a2 00        	ldx	#$0
    3420: 4c c7 36     	jmp	$36c7 <dispatchNote+0x4ac>
    3423: a2 00        	ldx	#$0
    3425: 80 08        	bra	$342f <dispatchNote+0x214>
    3427: e8           	inx
    3428: e0 09        	cpx	#$9
    342a: d0 03        	bne	$342f <dispatchNote+0x214>
    342c: 4c 91 35     	jmp	$3591 <dispatchNote+0x376>
    342f: b4 58        	ldy	$58,x                   ; 0x2058 <f256main+0x173c>
    3431: d0 f4        	bne	$3427 <dispatchNote+0x20c>
    3433: b4 4f        	ldy	$4f,x                   ; 0x204f <f256main+0x1733>
    3435: d0 f0        	bne	$3427 <dispatchNote+0x20c>
    3437: 8a           	txa
    3438: 30 03        	bmi	$343d <dispatchNote+0x222>
    343a: 4c 92 35     	jmp	$3592 <dispatchNote+0x377>
    343d: 86 8d        	stx	$8d                     ; 0x208d <f256main+0x1771>
    343f: a2 ff        	ldx	#$ff
    3441: 4c 96 35     	jmp	$3596 <dispatchNote+0x37b>
    3444: a2 00        	ldx	#$0
    3446: 80 08        	bra	$3450 <dispatchNote+0x235>
    3448: e8           	inx
    3449: e0 06        	cpx	#$6
    344b: d0 03        	bne	$3450 <dispatchNote+0x235>
    344d: 4c 91 35     	jmp	$3591 <dispatchNote+0x376>
    3450: b4 49        	ldy	$49,x                   ; 0x2049 <f256main+0x172d>
    3452: d0 f4        	bne	$3448 <dispatchNote+0x22d>
    3454: b4 43        	ldy	$43,x                   ; 0x2043 <f256main+0x1727>
    3456: d0 f0        	bne	$3448 <dispatchNote+0x22d>
    3458: 64 12        	stz	$12                     ; 0x2012 <f256main+0x16f6>
    345a: 86 13        	stx	$13                     ; 0x2013 <f256main+0x16f7>
    345c: 86 1b        	stx	$1b                     ; 0x201b <f256main+0x16ff>
    345e: 4c c1 34     	jmp	$34c1 <dispatchNote+0x2a6>
    3461: a2 00        	ldx	#$0
    3463: 80 08        	bra	$346d <dispatchNote+0x252>
    3465: e8           	inx
    3466: e0 06        	cpx	#$6
    3468: d0 03        	bne	$346d <dispatchNote+0x252>
    346a: 4c 91 35     	jmp	$3591 <dispatchNote+0x376>
    346d: b4 3d        	ldy	$3d,x                   ; 0x203d <f256main+0x1721>
    346f: d0 f4        	bne	$3465 <dispatchNote+0x24a>
    3471: b4 37        	ldy	$37,x                   ; 0x2037 <f256main+0x171b>
    3473: d0 f0        	bne	$3465 <dispatchNote+0x24a>
    3475: 86 12        	stx	$12                     ; 0x2012 <f256main+0x16f6>
    3477: a5 12        	lda	$12                     ; 0x2012 <f256main+0x16f6>
    3479: 30 03        	bmi	$347e <dispatchNote+0x263>
    347b: 4c 24 36     	jmp	$3624 <dispatchNote+0x409>
    347e: a2 ff        	ldx	#$ff
    3480: 86 18        	stx	$18                     ; 0x2018 <f256main+0x16fc>
    3482: 4c 26 36     	jmp	$3626 <dispatchNote+0x40b>
    3485: 8d a1 dd     	sta	$dda1                   ; 0xdda1 <__heap_start+0x4a9b>
    3488: 8e a1 dd     	stx	$dda1                   ; 0xdda1 <__heap_start+0x4a9b>
    348b: a4 13        	ldy	$13                     ; 0x2013 <f256main+0x16f7>
    348d: 84 15        	sty	$15                     ; 0x2015 <f256main+0x16f9>
    348f: 8c a1 dd     	sty	$dda1                   ; 0xdda1 <__heap_start+0x4a9b>
    3492: a5 6a        	lda	$6a                     ; 0x206a <f256main+0x174e>
    3494: a4 6b        	ldy	$6b                     ; 0x206b <f256main+0x174f>
    3496: 85 12        	sta	$12                     ; 0x2012 <f256main+0x16f6>
    3498: 84 13        	sty	$13                     ; 0x2013 <f256main+0x16f7>
    349a: a0 07        	ldy	#$7
    349c: b1 12        	lda	($12),y                 ; 0x2012 <f256main+0x16f6>
    349e: f0 0c        	beq	$34ac <dispatchNote+0x291>
    34a0: a9 91        	lda	#$91
    34a2: 92 18        	sta	($18)                   ; 0x2018 <f256main+0x16fc>
    34a4: a5 1a        	lda	$1a                     ; 0x201a <f256main+0x16fe>
    34a6: 92 18        	sta	($18)                   ; 0x2018 <f256main+0x16fc>
    34a8: a5 15        	lda	$15                     ; 0x2015 <f256main+0x16f9>
    34aa: 92 18        	sta	($18)                   ; 0x2018 <f256main+0x16fc>
    34ac: a5 14        	lda	$14                     ; 0x2014 <f256main+0x16f8>
    34ae: f0 03        	beq	$34b3 <dispatchNote+0x298>
    34b0: e6 66        	inc	$66                     ; 0x2066 <f256main+0x174a>
    34b2: 60           	rts
    34b3: e6 65        	inc	$65                     ; 0x2065 <f256main+0x1749>
    34b5: 60           	rts
    34b6: 64 12        	stz	$12                     ; 0x2012 <f256main+0x16f6>
    34b8: 84 13        	sty	$13                     ; 0x2013 <f256main+0x16f7>
    34ba: c0 ff        	cpy	#$ff
    34bc: d0 03        	bne	$34c1 <dispatchNote+0x2a6>
    34be: 4c 91 35     	jmp	$3591 <dispatchNote+0x376>
    34c1: 38           	sec
    34c2: a5 1b        	lda	$1b                     ; 0x201b <f256main+0x16ff>
    34c4: e9 03        	sbc	#$3
    34c6: 50 02        	bvc	$34ca <dispatchNote+0x2af>
    34c8: 49 80        	eor	#$80
    34ca: a2 d5        	ldx	#$d5
    34cc: a8           	tay
    34cd: 10 02        	bpl	$34d1 <dispatchNote+0x2b6>
    34cf: a2 d4        	ldx	#$d4
    34d1: a9 f6        	lda	#$f6
    34d3: 18           	clc
    34d4: 65 13        	adc	$13                     ; 0x2013 <f256main+0x16f7>
    34d6: 85 14        	sta	$14                     ; 0x2014 <f256main+0x16f8>
    34d8: a9 8b        	lda	#$8b
    34da: 65 12        	adc	$12                     ; 0x2012 <f256main+0x16f6>
    34dc: 85 15        	sta	$15                     ; 0x2015 <f256main+0x16f9>
    34de: b2 14        	lda	($14)                   ; 0x2014 <f256main+0x16f8>
    34e0: 86 19        	stx	$19                     ; 0x2019 <f256main+0x16fd>
    34e2: a6 1a        	ldx	$1a                     ; 0x201a <f256main+0x16fe>
    34e4: bc e1 8c     	ldy	$8ce1,x                 ; 0x8ce1 <psgHigh+0x35>
    34e7: 85 14        	sta	$14                     ; 0x2014 <f256main+0x16f8>
    34e9: 85 1c        	sta	$1c                     ; 0x201c <f256main+0x1700>
    34eb: a5 19        	lda	$19                     ; 0x2019 <f256main+0x16fd>
    34ed: 85 15        	sta	$15                     ; 0x2015 <f256main+0x16f9>
    34ef: 98           	tya
    34f0: 92 14        	sta	($14)                   ; 0x2014 <f256main+0x16f8>
    34f2: bc df 82     	ldy	$82df,x                 ; 0x82df <__set_v+0x4cd>
    34f5: a6 19        	ldx	$19                     ; 0x2019 <f256main+0x16fd>
    34f7: a5 1c        	lda	$1c                     ; 0x201c <f256main+0x1700>
    34f9: 85 18        	sta	$18                     ; 0x2018 <f256main+0x16fc>
    34fb: e6 18        	inc	$18                     ; 0x2018 <f256main+0x16fc>
    34fd: d0 01        	bne	$3500 <dispatchNote+0x2e5>
    34ff: e8           	inx
    3500: 86 19        	stx	$19                     ; 0x2019 <f256main+0x16fd>
    3502: 98           	tya
    3503: 92 18        	sta	($18)                   ; 0x2018 <f256main+0x16fc>
    3505: a5 16        	lda	$16                     ; 0x2016 <f256main+0x16fa>
    3507: d0 0e        	bne	$3517 <dispatchNote+0x2fc>
    3509: a6 6a        	ldx	$6a                     ; 0x206a <f256main+0x174e>
    350b: a4 6b        	ldy	$6b                     ; 0x206b <f256main+0x174f>
    350d: 86 16        	stx	$16                     ; 0x2016 <f256main+0x16fa>
    350f: 84 17        	sty	$17                     ; 0x2017 <f256main+0x16fb>
    3511: a0 03        	ldy	#$3
    3513: b1 16        	lda	($16),y                 ; 0x2016 <f256main+0x16fa>
    3515: 85 17        	sta	$17                     ; 0x2017 <f256main+0x16fb>
    3517: 64 18        	stz	$18                     ; 0x2018 <f256main+0x16fc>
    3519: a5 17        	lda	$17                     ; 0x2017 <f256main+0x16fb>
    351b: 0a           	asl
    351c: 26 18        	rol	$18                     ; 0x2018 <f256main+0x16fc>
    351e: 0a           	asl
    351f: 26 18        	rol	$18                     ; 0x2018 <f256main+0x16fc>
    3521: 0a           	asl
    3522: 26 18        	rol	$18                     ; 0x2018 <f256main+0x16fc>
    3524: 18           	clc
    3525: 65 17        	adc	$17                     ; 0x2017 <f256main+0x16fb>
    3527: 85 16        	sta	$16                     ; 0x2016 <f256main+0x16fa>
    3529: a5 18        	lda	$18                     ; 0x2018 <f256main+0x16fc>
    352b: 69 00        	adc	#$0
    352d: 85 17        	sta	$17                     ; 0x2017 <f256main+0x16fb>
    352f: a9 9c        	lda	#$9c
    3531: 18           	clc
    3532: 65 16        	adc	$16                     ; 0x2016 <f256main+0x16fa>
    3534: 85 16        	sta	$16                     ; 0x2016 <f256main+0x16fa>
    3536: a9 90        	lda	#$90
    3538: 65 17        	adc	$17                     ; 0x2017 <f256main+0x16fb>
    353a: 85 17        	sta	$17                     ; 0x2017 <f256main+0x16fb>
    353c: a0 05        	ldy	#$5
    353e: a9 01        	lda	#$1
    3540: 11 16        	ora	($16),y                 ; 0x2016 <f256main+0x16fa>
    3542: 88           	dey
    3543: 91 14        	sta	($14),y                 ; 0x2014 <f256main+0x16f8>
    3545: e6 67        	inc	$67                     ; 0x2067 <f256main+0x174b>
    3547: a9 43        	lda	#$43
    3549: 18           	clc
    354a: 65 13        	adc	$13                     ; 0x2013 <f256main+0x16f7>
    354c: aa           	tax
    354d: a9 00        	lda	#$0
    354f: 65 12        	adc	$12                     ; 0x2012 <f256main+0x16f6>
    3551: 86 12        	stx	$12                     ; 0x2012 <f256main+0x16f6>
    3553: 85 13        	sta	$13                     ; 0x2013 <f256main+0x16f7>
    3555: a5 1a        	lda	$1a                     ; 0x201a <f256main+0x16fe>
    3557: 92 12        	sta	($12)                   ; 0x2012 <f256main+0x16f6>
    3559: 60           	rts
    355a: 64 12        	stz	$12                     ; 0x2012 <f256main+0x16f6>
    355c: 74 37        	stz	$37,x                   ; 0x2037 <f256main+0x171b>
    355e: bd f0 8b     	lda	$8bf0,x                 ; 0x8bf0 <polyPSGChanBits>
    3561: e0 03        	cpx	#$3
    3563: 90 04        	bcc	$3569 <dispatchNote+0x34e>
    3565: a2 10        	ldx	#$10
    3567: 86 12        	stx	$12                     ; 0x2012 <f256main+0x16f6>
    3569: 84 13        	sty	$13                     ; 0x2013 <f256main+0x16f7>
    356b: 09 9f        	ora	#$9f
    356d: 92 12        	sta	($12)                   ; 0x2012 <f256main+0x16f6>
    356f: a6 68        	ldx	$68                     ; 0x2068 <f256main+0x174c>
    3571: f0 1e        	beq	$3591 <dispatchNote+0x376>
    3573: ca           	dex
    3574: 86 68        	stx	$68                     ; 0x2068 <f256main+0x174c>
    3576: 60           	rts
    3577: 64 13        	stz	$13                     ; 0x2013 <f256main+0x16f7>
    3579: a9 4f        	lda	#$4f
    357b: 18           	clc
    357c: 65 12        	adc	$12                     ; 0x2012 <f256main+0x16f6>
    357e: 85 12        	sta	$12                     ; 0x2012 <f256main+0x16f6>
    3580: a9 00        	lda	#$0
    3582: 65 13        	adc	$13                     ; 0x2013 <f256main+0x16f7>
    3584: 85 13        	sta	$13                     ; 0x2013 <f256main+0x16f7>
    3586: a9 00        	lda	#$0
    3588: 92 12        	sta	($12)                   ; 0x2012 <f256main+0x16f6>
    358a: a6 69        	ldx	$69                     ; 0x2069 <f256main+0x174d>
    358c: f0 03        	beq	$3591 <dispatchNote+0x376>
    358e: ca           	dex
    358f: 86 69        	stx	$69                     ; 0x2069 <f256main+0x174d>
    3591: 60           	rts
    3592: 86 8d        	stx	$8d                     ; 0x208d <f256main+0x1771>
    3594: a2 00        	ldx	#$0
    3596: 86 8e        	stx	$8e                     ; 0x208e <f256main+0x1772>
    3598: 18           	clc
    3599: a6 1a        	ldx	$1a                     ; 0x201a <f256main+0x16fe>
    359b: 86 8f        	stx	$8f                     ; 0x208f <f256main+0x1773>
    359d: a5 1a        	lda	$1a                     ; 0x201a <f256main+0x16fe>
    359f: 69 05        	adc	#$5
    35a1: 85 16        	sta	$16                     ; 0x2016 <f256main+0x16fa>
    35a3: 64 13        	stz	$13                     ; 0x2013 <f256main+0x16f7>
    35a5: a9 00        	lda	#$0
    35a7: 69 00        	adc	#$0
    35a9: a2 8b        	ldx	#$8b
    35ab: a0 00        	ldy	#$0
    35ad: 86 14        	stx	$14                     ; 0x2014 <f256main+0x16f8>
    35af: 84 15        	sty	$15                     ; 0x2015 <f256main+0x16f9>
    35b1: a2 0c        	ldx	#$c
    35b3: 86 12        	stx	$12                     ; 0x2012 <f256main+0x16f6>
    35b5: aa           	tax
    35b6: a5 16        	lda	$16                     ; 0x2016 <f256main+0x16fa>
    35b8: 20 d6 6d     	jsr	$6dd6 <__udivmodhi4>
    35bb: aa           	tax
    35bc: a4 8b        	ldy	$8b                     ; 0x208b <f256main+0x176f>
    35be: 84 12        	sty	$12                     ; 0x2012 <f256main+0x16f6>
    35c0: a5 8c        	lda	$8c                     ; 0x208c <f256main+0x1770>
    35c2: 06 12        	asl	$12                     ; 0x2012 <f256main+0x16f6>
    35c4: 2a           	rol
    35c5: 85 13        	sta	$13                     ; 0x2013 <f256main+0x16f7>
    35c7: a9 54        	lda	#$54
    35c9: 18           	clc
    35ca: 65 12        	adc	$12                     ; 0x2012 <f256main+0x16f6>
    35cc: 85 14        	sta	$14                     ; 0x2014 <f256main+0x16f8>
    35ce: a9 8c        	lda	#$8c
    35d0: 65 13        	adc	$13                     ; 0x2013 <f256main+0x16f7>
    35d2: a0 01        	ldy	#$1
    35d4: 85 15        	sta	$15                     ; 0x2015 <f256main+0x16f9>
    35d6: b1 14        	lda	($14),y                 ; 0x2014 <f256main+0x16f8>
    35d8: 85 13        	sta	$13                     ; 0x2013 <f256main+0x16f7>
    35da: 18           	clc
    35db: 8a           	txa
    35dc: 69 3e        	adc	#$3e
    35de: 85 16        	sta	$16                     ; 0x2016 <f256main+0x16fa>
    35e0: a6 8d        	ldx	$8d                     ; 0x208d <f256main+0x1771>
    35e2: 86 12        	stx	$12                     ; 0x2012 <f256main+0x16f6>
    35e4: 8a           	txa
    35e5: 09 a0        	ora	#$a0
    35e7: a8           	tay
    35e8: b2 14        	lda	($14)                   ; 0x2014 <f256main+0x16f8>
    35ea: 8c 80 d5     	sty	$d580                   ; 0xd580 <__heap_start+0x427a>
    35ed: 8d 81 d5     	sta	$d581                   ; 0xd581 <__heap_start+0x427b>
    35f0: 8a           	txa
    35f1: 09 b0        	ora	#$b0
    35f3: 85 14        	sta	$14                     ; 0x2014 <f256main+0x16f8>
    35f5: a5 13        	lda	$13                     ; 0x2013 <f256main+0x16f7>
    35f7: 29 03        	and	#$3
    35f9: 85 13        	sta	$13                     ; 0x2013 <f256main+0x16f7>
    35fb: a5 16        	lda	$16                     ; 0x2016 <f256main+0x16fa>
    35fd: 0a           	asl
    35fe: 0a           	asl
    35ff: 05 13        	ora	$13                     ; 0x2013 <f256main+0x16f7>
    3601: 09 20        	ora	#$20
    3603: a6 14        	ldx	$14                     ; 0x2014 <f256main+0x16f8>
    3605: 8e 80 d5     	stx	$d580                   ; 0xd580 <__heap_start+0x427a>
    3608: 8d 81 d5     	sta	$d581                   ; 0xd581 <__heap_start+0x427b>
    360b: a9 4f        	lda	#$4f
    360d: 18           	clc
    360e: 65 12        	adc	$12                     ; 0x2012 <f256main+0x16f6>
    3610: a8           	tay
    3611: a6 8e        	ldx	$8e                     ; 0x208e <f256main+0x1772>
    3613: 86 12        	stx	$12                     ; 0x2012 <f256main+0x16f6>
    3615: a9 00        	lda	#$0
    3617: 65 12        	adc	$12                     ; 0x2012 <f256main+0x16f6>
    3619: 84 12        	sty	$12                     ; 0x2012 <f256main+0x16f6>
    361b: 85 13        	sta	$13                     ; 0x2013 <f256main+0x16f7>
    361d: a5 8f        	lda	$8f                     ; 0x208f <f256main+0x1773>
    361f: 92 12        	sta	($12)                   ; 0x2012 <f256main+0x16f6>
    3621: e6 69        	inc	$69                     ; 0x2069 <f256main+0x174d>
    3623: 60           	rts
    3624: 64 18        	stz	$18                     ; 0x2018 <f256main+0x16fc>
    3626: a9 f0        	lda	#$f0
    3628: 18           	clc
    3629: 65 12        	adc	$12                     ; 0x2012 <f256main+0x16f6>
    362b: 85 14        	sta	$14                     ; 0x2014 <f256main+0x16f8>
    362d: a9 8b        	lda	#$8b
    362f: 65 18        	adc	$18                     ; 0x2018 <f256main+0x16fc>
    3631: 85 15        	sta	$15                     ; 0x2015 <f256main+0x16f9>
    3633: b2 14        	lda	($14)                   ; 0x2014 <f256main+0x16f8>
    3635: a8           	tay
    3636: 85 14        	sta	$14                     ; 0x2014 <f256main+0x16f8>
    3638: a5 12        	lda	$12                     ; 0x2012 <f256main+0x16f6>
    363a: 38           	sec
    363b: e9 03        	sbc	#$3
    363d: 85 19        	sta	$19                     ; 0x2019 <f256main+0x16fd>
    363f: 50 04        	bvc	$3645 <dispatchNote+0x42a>
    3641: 49 80        	eor	#$80
    3643: 85 19        	sta	$19                     ; 0x2019 <f256main+0x16fd>
    3645: a2 10        	ldx	#$10
    3647: 86 16        	stx	$16                     ; 0x2016 <f256main+0x16fa>
    3649: a2 d6        	ldx	#$d6
    364b: 86 17        	stx	$17                     ; 0x2017 <f256main+0x16fb>
    364d: a6 1a        	ldx	$1a                     ; 0x201a <f256main+0x16fe>
    364f: a5 13        	lda	$13                     ; 0x2013 <f256main+0x16f7>
    3651: 4a           	lsr
    3652: 4a           	lsr
    3653: 4a           	lsr
    3654: 49 0f        	eor	#$f
    3656: 85 15        	sta	$15                     ; 0x2015 <f256main+0x16f9>
    3658: bd 3f 8c     	lda	$8c3f,x                 ; 0x8c3f <noteColors+0x43>
    365b: 85 1b        	sta	$1b                     ; 0x201b <f256main+0x16ff>
    365d: bd 7f 8c     	lda	$8c7f,x                 ; 0x8c7f <psgLow+0x13>
    3660: aa           	tax
    3661: 86 13        	stx	$13                     ; 0x2013 <f256main+0x16f7>
    3663: 98           	tya
    3664: 05 15        	ora	$15                     ; 0x2015 <f256main+0x16f9>
    3666: 09 90        	ora	#$90
    3668: a6 19        	ldx	$19                     ; 0x2019 <f256main+0x16fd>
    366a: 10 08        	bpl	$3674 <dispatchNote+0x459>
    366c: a2 00        	ldx	#$0
    366e: 86 16        	stx	$16                     ; 0x2016 <f256main+0x16fa>
    3670: a2 d6        	ldx	#$d6
    3672: 86 17        	stx	$17                     ; 0x2017 <f256main+0x16fb>
    3674: 92 16        	sta	($16)                   ; 0x2016 <f256main+0x16fa>
    3676: a5 1b        	lda	$1b                     ; 0x201b <f256main+0x16ff>
    3678: 05 14        	ora	$14                     ; 0x2014 <f256main+0x16f8>
    367a: 92 16        	sta	($16)                   ; 0x2016 <f256main+0x16fa>
    367c: a5 13        	lda	$13                     ; 0x2013 <f256main+0x16f7>
    367e: 92 16        	sta	($16)                   ; 0x2016 <f256main+0x16fa>
    3680: a9 37        	lda	#$37
    3682: 18           	clc
    3683: 65 12        	adc	$12                     ; 0x2012 <f256main+0x16f6>
    3685: 85 12        	sta	$12                     ; 0x2012 <f256main+0x16f6>
    3687: a9 00        	lda	#$0
    3689: 65 18        	adc	$18                     ; 0x2018 <f256main+0x16fc>
    368b: 85 13        	sta	$13                     ; 0x2013 <f256main+0x16f7>
    368d: a5 1a        	lda	$1a                     ; 0x201a <f256main+0x16fe>
    368f: 92 12        	sta	($12)                   ; 0x2012 <f256main+0x16f6>
    3691: e6 68        	inc	$68                     ; 0x2068 <f256main+0x174c>
    3693: 60           	rts
    3694: a2 00        	ldx	#$0
    3696: a4 1a        	ldy	$1a                     ; 0x201a <f256main+0x16fe>
    3698: 84 12        	sty	$12                     ; 0x2012 <f256main+0x16f6>
    369a: b4 43        	ldy	$43,x                   ; 0x2043 <f256main+0x1727>
    369c: c4 12        	cpy	$12                     ; 0x2012 <f256main+0x16f6>
    369e: d0 03        	bne	$36a3 <dispatchNote+0x488>
    36a0: 4c 16 37     	jmp	$3716 <dispatchNote+0x4fb>
    36a3: e8           	inx
    36a4: e0 06        	cpx	#$6
    36a6: d0 f2        	bne	$369a <dispatchNote+0x47f>
    36a8: a2 d4        	ldx	#$d4
    36aa: a0 ff        	ldy	#$ff
    36ac: 84 13        	sty	$13                     ; 0x2013 <f256main+0x16f7>
    36ae: 84 12        	sty	$12                     ; 0x2012 <f256main+0x16f6>
    36b0: 4c 32 37     	jmp	$3732 <dispatchNote+0x517>
    36b3: 8d a1 dd     	sta	$dda1                   ; 0xdda1 <__heap_start+0x4a9b>
    36b6: 8e a1 dd     	stx	$dda1                   ; 0xdda1 <__heap_start+0x4a9b>
    36b9: 8c a1 dd     	sty	$dda1                   ; 0xdda1 <__heap_start+0x4a9b>
    36bc: a5 65        	lda	$65                     ; 0x2065 <f256main+0x1749>
    36be: 2c 12 7e     	bit	$7e12                   ; 0x7e12 <__set_v>
    36c1: a2 65        	ldx	#$65
    36c3: 86 16        	stx	$16                     ; 0x2016 <f256main+0x16fa>
    36c5: a2 00        	ldx	#$0
    36c7: 86 17        	stx	$17                     ; 0x2017 <f256main+0x16fb>
    36c9: aa           	tax
    36ca: f0 03        	beq	$36cf <dispatchNote+0x4b4>
    36cc: 3a           	dec
    36cd: 92 16        	sta	($16)                   ; 0x2016 <f256main+0x16fa>
    36cf: a6 6a        	ldx	$6a                     ; 0x206a <f256main+0x174e>
    36d1: a5 6b        	lda	$6b                     ; 0x206b <f256main+0x174f>
    36d3: 86 16        	stx	$16                     ; 0x2016 <f256main+0x16fa>
    36d5: 85 17        	sta	$17                     ; 0x2017 <f256main+0x16fb>
    36d7: a0 07        	ldy	#$7
    36d9: b1 16        	lda	($16),y                 ; 0x2016 <f256main+0x16fa>
    36db: d0 03        	bne	$36e0 <dispatchNote+0x4c5>
    36dd: 4c 91 35     	jmp	$3591 <dispatchNote+0x376>
    36e0: a6 12        	ldx	$12                     ; 0x2012 <f256main+0x16f6>
    36e2: e0 04        	cpx	#$4
    36e4: f0 0c        	beq	$36f2 <dispatchNote+0x4d7>
    36e6: a5 14        	lda	$14                     ; 0x2014 <f256main+0x16f8>
    36e8: d0 08        	bne	$36f2 <dispatchNote+0x4d7>
    36ea: a2 a1        	ldx	#$a1
    36ec: 86 1c        	stx	$1c                     ; 0x201c <f256main+0x1700>
    36ee: a2 dd        	ldx	#$dd
    36f0: 86 1d        	stx	$1d                     ; 0x201d <f256main+0x1701>
    36f2: a9 81        	lda	#$81
    36f4: 92 1c        	sta	($1c)                   ; 0x201c <f256main+0x1700>
    36f6: a5 1a        	lda	$1a                     ; 0x201a <f256main+0x16fe>
    36f8: 92 1c        	sta	($1c)                   ; 0x201c <f256main+0x1700>
    36fa: a5 13        	lda	$13                     ; 0x2013 <f256main+0x16f7>
    36fc: 92 1c        	sta	($1c)                   ; 0x201c <f256main+0x1700>
    36fe: 50 0b        	bvc	$370b <dispatchNote+0x4f0>
    3700: a6 65        	ldx	$65                     ; 0x2065 <f256main+0x1749>
    3702: d0 03        	bne	$3707 <dispatchNote+0x4ec>
    3704: 4c 91 35     	jmp	$3591 <dispatchNote+0x376>
    3707: ca           	dex
    3708: 86 65        	stx	$65                     ; 0x2065 <f256main+0x1749>
    370a: 60           	rts
    370b: a6 66        	ldx	$66                     ; 0x2066 <f256main+0x174a>
    370d: d0 03        	bne	$3712 <dispatchNote+0x4f7>
    370f: 4c 91 35     	jmp	$3591 <dispatchNote+0x376>
    3712: ca           	dex
    3713: 86 66        	stx	$66                     ; 0x2066 <f256main+0x174a>
    3715: 60           	rts
    3716: 8a           	txa
    3717: aa           	tax
    3718: 10 06        	bpl	$3720 <dispatchNote+0x505>
    371a: a2 ff        	ldx	#$ff
    371c: 86 12        	stx	$12                     ; 0x2012 <f256main+0x16f6>
    371e: 80 02        	bra	$3722 <dispatchNote+0x507>
    3720: 64 12        	stz	$12                     ; 0x2012 <f256main+0x16f6>
    3722: 85 13        	sta	$13                     ; 0x2013 <f256main+0x16f7>
    3724: 38           	sec
    3725: e9 03        	sbc	#$3
    3727: 50 02        	bvc	$372b <dispatchNote+0x510>
    3729: 49 80        	eor	#$80
    372b: a2 d4        	ldx	#$d4
    372d: a8           	tay
    372e: 30 02        	bmi	$3732 <dispatchNote+0x517>
    3730: a2 d5        	ldx	#$d5
    3732: a9 f6        	lda	#$f6
    3734: 18           	clc
    3735: 65 13        	adc	$13                     ; 0x2013 <f256main+0x16f7>
    3737: 85 14        	sta	$14                     ; 0x2014 <f256main+0x16f8>
    3739: a9 8b        	lda	#$8b
    373b: 65 12        	adc	$12                     ; 0x2012 <f256main+0x16f6>
    373d: 85 15        	sta	$15                     ; 0x2015 <f256main+0x16f9>
    373f: a9 43        	lda	#$43
    3741: 18           	clc
    3742: 65 13        	adc	$13                     ; 0x2013 <f256main+0x16f7>
    3744: a8           	tay
    3745: a9 00        	lda	#$0
    3747: 65 12        	adc	$12                     ; 0x2012 <f256main+0x16f6>
    3749: 85 13        	sta	$13                     ; 0x2013 <f256main+0x16f7>
    374b: 84 12        	sty	$12                     ; 0x2012 <f256main+0x16f6>
    374d: b2 14        	lda	($14)                   ; 0x2014 <f256main+0x16f8>
    374f: 85 14        	sta	$14                     ; 0x2014 <f256main+0x16f8>
    3751: a9 00        	lda	#$0
    3753: 92 12        	sta	($12)                   ; 0x2012 <f256main+0x16f6>
    3755: a4 1a        	ldy	$1a                     ; 0x201a <f256main+0x16fe>
    3757: b9 e1 8c     	lda	$8ce1,y                 ; 0x8ce1 <psgHigh+0x35>
    375a: 5a           	phy
    375b: a4 14        	ldy	$14                     ; 0x2014 <f256main+0x16f8>
    375d: 84 12        	sty	$12                     ; 0x2012 <f256main+0x16f6>
    375f: 7a           	ply
    3760: 86 13        	stx	$13                     ; 0x2013 <f256main+0x16f7>
    3762: 92 12        	sta	($12)                   ; 0x2012 <f256main+0x16f6>
    3764: b9 df 82     	lda	$82df,y                 ; 0x82df <__set_v+0x4cd>
    3767: a8           	tay
    3768: e6 14        	inc	$14                     ; 0x2014 <f256main+0x16f8>
    376a: d0 01        	bne	$376d <dispatchNote+0x552>
    376c: e8           	inx
    376d: 86 15        	stx	$15                     ; 0x2015 <f256main+0x16f9>
    376f: 98           	tya
    3770: 92 14        	sta	($14)                   ; 0x2014 <f256main+0x16f8>
    3772: a5 16        	lda	$16                     ; 0x2016 <f256main+0x16fa>
    3774: d0 0e        	bne	$3784 <dispatchNote+0x569>
    3776: a6 6a        	ldx	$6a                     ; 0x206a <f256main+0x174e>
    3778: a4 6b        	ldy	$6b                     ; 0x206b <f256main+0x174f>
    377a: 86 14        	stx	$14                     ; 0x2014 <f256main+0x16f8>
    377c: 84 15        	sty	$15                     ; 0x2015 <f256main+0x16f9>
    377e: a0 03        	ldy	#$3
    3780: b1 14        	lda	($14),y                 ; 0x2014 <f256main+0x16f8>
    3782: 85 17        	sta	$17                     ; 0x2017 <f256main+0x16fb>
    3784: a5 17        	lda	$17                     ; 0x2017 <f256main+0x16fb>
    3786: 0a           	asl
    3787: aa           	tax
    3788: a9 00        	lda	#$0
    378a: 2a           	rol
    378b: 86 14        	stx	$14                     ; 0x2014 <f256main+0x16f8>
    378d: 06 14        	asl	$14                     ; 0x2014 <f256main+0x16f8>
    378f: 2a           	rol
    3790: 06 14        	asl	$14                     ; 0x2014 <f256main+0x16f8>
    3792: 2a           	rol
    3793: aa           	tax
    3794: 18           	clc
    3795: a5 14        	lda	$14                     ; 0x2014 <f256main+0x16f8>
    3797: 65 17        	adc	$17                     ; 0x2017 <f256main+0x16fb>
    3799: 85 14        	sta	$14                     ; 0x2014 <f256main+0x16f8>
    379b: 8a           	txa
    379c: 69 00        	adc	#$0
    379e: 85 15        	sta	$15                     ; 0x2015 <f256main+0x16f9>
    37a0: a9 9c        	lda	#$9c
    37a2: 18           	clc
    37a3: 65 14        	adc	$14                     ; 0x2014 <f256main+0x16f8>
    37a5: 85 14        	sta	$14                     ; 0x2014 <f256main+0x16f8>
    37a7: a9 90        	lda	#$90
    37a9: 65 15        	adc	$15                     ; 0x2015 <f256main+0x16f9>
    37ab: 85 15        	sta	$15                     ; 0x2015 <f256main+0x16f9>
    37ad: a0 05        	ldy	#$5
    37af: a9 fe        	lda	#$fe
    37b1: 31 14        	and	($14),y                 ; 0x2014 <f256main+0x16f8>
    37b3: 88           	dey
    37b4: 91 12        	sta	($12),y                 ; 0x2012 <f256main+0x16f6>
    37b6: a6 67        	ldx	$67                     ; 0x2067 <f256main+0x174b>
    37b8: d0 03        	bne	$37bd <dispatchNote+0x5a2>
    37ba: 4c 91 35     	jmp	$3591 <dispatchNote+0x376>
    37bd: ca           	dex
    37be: 86 67        	stx	$67                     ; 0x2067 <f256main+0x174b>
    37c0: 60           	rts

000037c1 <launchBeat>:
    37c1: 18           	clc
    37c2: a5 10        	lda	$10                     ; 0x2010 <f256main+0x16f4>
    37c4: 69 f3        	adc	#$f3
    37c6: 85 10        	sta	$10                     ; 0x2010 <f256main+0x16f4>
    37c8: a5 11        	lda	$11                     ; 0x2011 <f256main+0x16f5>
    37ca: 69 ff        	adc	#$ff
    37cc: 85 11        	sta	$11                     ; 0x2011 <f256main+0x16f5>
    37ce: a6 24        	ldx	$24                     ; 0x2024 <f256main+0x1708>
    37d0: da           	phx
    37d1: a6 25        	ldx	$25                     ; 0x2025 <f256main+0x1709>
    37d3: da           	phx
    37d4: a6 26        	ldx	$26                     ; 0x2026 <f256main+0x170a>
    37d6: da           	phx
    37d7: a6 27        	ldx	$27                     ; 0x2027 <f256main+0x170b>
    37d9: da           	phx
    37da: a5 28        	lda	$28                     ; 0x2028 <f256main+0x170c>
    37dc: a0 08        	ldy	#$8
    37de: 91 10        	sta	($10),y                 ; 0x2010 <f256main+0x16f4>
    37e0: a5 29        	lda	$29                     ; 0x2029 <f256main+0x170d>
    37e2: 88           	dey
    37e3: 91 10        	sta	($10),y                 ; 0x2010 <f256main+0x16f4>
    37e5: a5 2a        	lda	$2a                     ; 0x202a <f256main+0x170e>
    37e7: 88           	dey
    37e8: 91 10        	sta	($10),y                 ; 0x2010 <f256main+0x16f4>
    37ea: a5 2b        	lda	$2b                     ; 0x202b <f256main+0x170f>
    37ec: 88           	dey
    37ed: 91 10        	sta	($10),y                 ; 0x2010 <f256main+0x16f4>
    37ef: a5 2c        	lda	$2c                     ; 0x202c <f256main+0x1710>
    37f1: 88           	dey
    37f2: 91 10        	sta	($10),y                 ; 0x2010 <f256main+0x16f4>
    37f4: a5 2d        	lda	$2d                     ; 0x202d <f256main+0x1711>
    37f6: 88           	dey
    37f7: 91 10        	sta	($10),y                 ; 0x2010 <f256main+0x16f4>
    37f9: a5 2e        	lda	$2e                     ; 0x202e <f256main+0x1712>
    37fb: 88           	dey
    37fc: 91 10        	sta	($10),y                 ; 0x2010 <f256main+0x16f4>
    37fe: 18           	clc
    37ff: a5 10        	lda	$10                     ; 0x2010 <f256main+0x16f4>
    3801: 69 0a        	adc	#$a
    3803: 85 24        	sta	$24                     ; 0x2024 <f256main+0x1708>
    3805: a5 11        	lda	$11                     ; 0x2011 <f256main+0x16f5>
    3807: 69 00        	adc	#$0
    3809: 85 25        	sta	$25                     ; 0x2025 <f256main+0x1709>
    380b: a9 00        	lda	#$0
    380d: 92 24        	sta	($24)                   ; 0x2024 <f256main+0x1708>
    380f: 18           	clc
    3810: 48           	pha
    3811: a5 10        	lda	$10                     ; 0x2010 <f256main+0x16f4>
    3813: 69 09        	adc	#$9
    3815: 85 26        	sta	$26                     ; 0x2026 <f256main+0x170a>
    3817: a5 11        	lda	$11                     ; 0x2011 <f256main+0x16f5>
    3819: 69 00        	adc	#$0
    381b: 85 27        	sta	$27                     ; 0x2027 <f256main+0x170b>
    381d: 68           	pla
    381e: 92 26        	sta	($26)                   ; 0x2026 <f256main+0x170a>
    3820: 64 2a        	stz	$2a                     ; 0x202a <f256main+0x170e>
    3822: a9 04        	lda	#$4
    3824: a2 00        	ldx	#$0
    3826: 20 71 65     	jsr	$6571 <malloc>
    3829: a6 12        	ldx	$12                     ; 0x2012 <f256main+0x16f6>
    382b: 86 28        	stx	$28                     ; 0x2028 <f256main+0x170c>
    382d: a6 13        	ldx	$13                     ; 0x2013 <f256main+0x16f7>
    382f: 86 29        	stx	$29                     ; 0x2029 <f256main+0x170d>
    3831: a6 7e        	ldx	$7e                     ; 0x207e <f256main+0x1762>
    3833: 86 17        	stx	$17                     ; 0x2017 <f256main+0x16fb>
    3835: a6 7f        	ldx	$7f                     ; 0x207f <f256main+0x1763>
    3837: 86 16        	stx	$16                     ; 0x2016 <f256main+0x16fa>
    3839: a6 6a        	ldx	$6a                     ; 0x206a <f256main+0x174e>
    383b: a4 6b        	ldy	$6b                     ; 0x206b <f256main+0x174f>
    383d: 86 12        	stx	$12                     ; 0x2012 <f256main+0x16f6>
    383f: 84 13        	sty	$13                     ; 0x2013 <f256main+0x16f7>
    3841: a0 08        	ldy	#$8
    3843: b1 12        	lda	($12),y                 ; 0x2012 <f256main+0x16f6>
    3845: 85 1a        	sta	$1a                     ; 0x201a <f256main+0x16fe>
    3847: 0a           	asl
    3848: 26 2a        	rol	$2a                     ; 0x202a <f256main+0x170e>
    384a: 0a           	asl
    384b: 26 2a        	rol	$2a                     ; 0x202a <f256main+0x170e>
    384d: 0a           	asl
    384e: 26 2a        	rol	$2a                     ; 0x202a <f256main+0x170e>
    3850: 0a           	asl
    3851: 26 2a        	rol	$2a                     ; 0x202a <f256main+0x170e>
    3853: 38           	sec
    3854: 85 18        	sta	$18                     ; 0x2018 <f256main+0x16fc>
    3856: e5 1a        	sbc	$1a                     ; 0x201a <f256main+0x16fe>
    3858: 85 14        	sta	$14                     ; 0x2014 <f256main+0x16f8>
    385a: a4 2a        	ldy	$2a                     ; 0x202a <f256main+0x170e>
    385c: a5 2a        	lda	$2a                     ; 0x202a <f256main+0x170e>
    385e: e9 00        	sbc	#$0
    3860: 85 15        	sta	$15                     ; 0x2015 <f256main+0x16f9>
    3862: a5 17        	lda	$17                     ; 0x2017 <f256main+0x16fb>
    3864: 18           	clc
    3865: 65 14        	adc	$14                     ; 0x2014 <f256main+0x16f8>
    3867: 85 14        	sta	$14                     ; 0x2014 <f256main+0x16f8>
    3869: a5 16        	lda	$16                     ; 0x2016 <f256main+0x16fa>
    386b: 65 15        	adc	$15                     ; 0x2015 <f256main+0x16f9>
    386d: 85 15        	sta	$15                     ; 0x2015 <f256main+0x16f9>
    386f: b2 14        	lda	($14)                   ; 0x2014 <f256main+0x16f8>
    3871: f0 06        	beq	$3879 <launchBeat+0xb8>
    3873: a2 01        	ldx	#$1
    3875: 86 62        	stx	$62                     ; 0x2062 <f256main+0x1746>
    3877: 80 09        	bra	$3882 <launchBeat+0xc1>
    3879: a5 62        	lda	$62                     ; 0x2062 <f256main+0x1746>
    387b: 29 01        	and	#$1
    387d: d0 03        	bne	$3882 <launchBeat+0xc1>
    387f: 4c 1c 3a     	jmp	$3a1c <launchBeat+0x25b>
    3882: 38           	sec
    3883: a5 18        	lda	$18                     ; 0x2018 <f256main+0x16fc>
    3885: e5 1a        	sbc	$1a                     ; 0x201a <f256main+0x16fe>
    3887: 85 12        	sta	$12                     ; 0x2012 <f256main+0x16f6>
    3889: 98           	tya
    388a: e9 00        	sbc	#$0
    388c: 85 13        	sta	$13                     ; 0x2013 <f256main+0x16f7>
    388e: a5 17        	lda	$17                     ; 0x2017 <f256main+0x16fb>
    3890: 18           	clc
    3891: 65 12        	adc	$12                     ; 0x2012 <f256main+0x16f6>
    3893: 85 12        	sta	$12                     ; 0x2012 <f256main+0x16f6>
    3895: a5 16        	lda	$16                     ; 0x2016 <f256main+0x16fa>
    3897: 65 13        	adc	$13                     ; 0x2013 <f256main+0x16f7>
    3899: 85 13        	sta	$13                     ; 0x2013 <f256main+0x16f7>
    389b: a0 04        	ldy	#$4
    389d: b1 12        	lda	($12),y                 ; 0x2012 <f256main+0x16f6>
    389f: d0 03        	bne	$38a4 <launchBeat+0xe3>
    38a1: 4c ab 39     	jmp	$39ab <launchBeat+0x1ea>
    38a4: a6 16        	ldx	$16                     ; 0x2016 <f256main+0x16fa>
    38a6: a4 17        	ldy	$17                     ; 0x2017 <f256main+0x16fb>
    38a8: 84 12        	sty	$12                     ; 0x2012 <f256main+0x16f6>
    38aa: 86 13        	stx	$13                     ; 0x2013 <f256main+0x16f7>
    38ac: a9 00        	lda	#$0
    38ae: a6 24        	ldx	$24                     ; 0x2024 <f256main+0x1708>
    38b0: 86 14        	stx	$14                     ; 0x2014 <f256main+0x16f8>
    38b2: a6 25        	ldx	$25                     ; 0x2025 <f256main+0x1709>
    38b4: 86 15        	stx	$15                     ; 0x2015 <f256main+0x16f9>
    38b6: a6 26        	ldx	$26                     ; 0x2026 <f256main+0x170a>
    38b8: 86 16        	stx	$16                     ; 0x2016 <f256main+0x16fa>
    38ba: a6 27        	ldx	$27                     ; 0x2027 <f256main+0x170b>
    38bc: 86 17        	stx	$17                     ; 0x2017 <f256main+0x16fb>
    38be: a6 28        	ldx	$28                     ; 0x2028 <f256main+0x170c>
    38c0: 86 18        	stx	$18                     ; 0x2018 <f256main+0x16fc>
    38c2: a6 29        	ldx	$29                     ; 0x2029 <f256main+0x170d>
    38c4: 86 19        	stx	$19                     ; 0x2019 <f256main+0x16fd>
    38c6: 85 2a        	sta	$2a                     ; 0x202a <f256main+0x170e>
    38c8: aa           	tax
    38c9: a5 1a        	lda	$1a                     ; 0x201a <f256main+0x16fe>
    38cb: 20 0d 45     	jsr	$450d <getBeatTrackNoteInfo>
    38ce: b2 28        	lda	($28)                   ; 0x2028 <f256main+0x170c>
    38d0: c9 01        	cmp	#$1
    38d2: d0 2e        	bne	$3902 <launchBeat+0x141>
    38d4: a2 00        	ldx	#$0
    38d6: b4 49        	ldy	$49,x                   ; 0x2049 <f256main+0x172d>
    38d8: c0 01        	cpy	#$1
    38da: d0 02        	bne	$38de <launchBeat+0x11d>
    38dc: 74 49        	stz	$49,x                   ; 0x2049 <f256main+0x172d>
    38de: e8           	inx
    38df: e0 06        	cpx	#$6
    38e1: d0 f3        	bne	$38d6 <launchBeat+0x115>
    38e3: 64 33        	stz	$33                     ; 0x2033 <f256main+0x1717>
    38e5: 9c 14 d0     	stz	$d014                   ; 0xd014 <__heap_start+0x3d0e>
    38e8: 9c 15 d0     	stz	$d015                   ; 0xd015 <__heap_start+0x3d0f>
    38eb: a2 0c        	ldx	#$c
    38ed: 86 34        	stx	$34                     ; 0x2034 <f256main+0x1718>
    38ef: 8e 16 d0     	stx	$d016                   ; 0xd016 <__heap_start+0x3d10>
    38f2: 9c 17 d0     	stz	$d017                   ; 0xd017 <__heap_start+0x3d11>
    38f5: a2 92        	ldx	#$92
    38f7: 86 12        	stx	$12                     ; 0x2012 <f256main+0x16f6>
    38f9: a2 86        	ldx	#$86
    38fb: 86 13        	stx	$13                     ; 0x2013 <f256main+0x16f7>
    38fd: 20 45 59     	jsr	$5945 <printf>
    3900: b2 28        	lda	($28)                   ; 0x2028 <f256main+0x170c>
    3902: c9 02        	cmp	#$2
    3904: d0 2e        	bne	$3934 <launchBeat+0x173>
    3906: a2 00        	ldx	#$0
    3908: b4 3d        	ldy	$3d,x                   ; 0x203d <f256main+0x1721>
    390a: c0 01        	cpy	#$1
    390c: d0 02        	bne	$3910 <launchBeat+0x14f>
    390e: 74 3d        	stz	$3d,x                   ; 0x203d <f256main+0x1721>
    3910: e8           	inx
    3911: e0 06        	cpx	#$6
    3913: d0 f3        	bne	$3908 <launchBeat+0x147>
    3915: 64 33        	stz	$33                     ; 0x2033 <f256main+0x1717>
    3917: 9c 14 d0     	stz	$d014                   ; 0xd014 <__heap_start+0x3d0e>
    391a: 9c 15 d0     	stz	$d015                   ; 0xd015 <__heap_start+0x3d0f>
    391d: a2 0d        	ldx	#$d
    391f: 86 34        	stx	$34                     ; 0x2034 <f256main+0x1718>
    3921: 8e 16 d0     	stx	$d016                   ; 0xd016 <__heap_start+0x3d10>
    3924: 9c 17 d0     	stz	$d017                   ; 0xd017 <__heap_start+0x3d11>
    3927: a2 59        	ldx	#$59
    3929: 86 12        	stx	$12                     ; 0x2012 <f256main+0x16f6>
    392b: a2 88        	ldx	#$88
    392d: 86 13        	stx	$13                     ; 0x2013 <f256main+0x16f7>
    392f: 20 45 59     	jsr	$5945 <printf>
    3932: b2 28        	lda	($28)                   ; 0x2028 <f256main+0x170c>
    3934: c9 03        	cmp	#$3
    3936: d0 2c        	bne	$3964 <launchBeat+0x1a3>
    3938: a2 00        	ldx	#$0
    393a: b4 58        	ldy	$58,x                   ; 0x2058 <f256main+0x173c>
    393c: c0 01        	cpy	#$1
    393e: d0 02        	bne	$3942 <launchBeat+0x181>
    3940: 74 58        	stz	$58,x                   ; 0x2058 <f256main+0x173c>
    3942: e8           	inx
    3943: e0 09        	cpx	#$9
    3945: d0 f3        	bne	$393a <launchBeat+0x179>
    3947: 64 33        	stz	$33                     ; 0x2033 <f256main+0x1717>
    3949: 9c 14 d0     	stz	$d014                   ; 0xd014 <__heap_start+0x3d0e>
    394c: 9c 15 d0     	stz	$d015                   ; 0xd015 <__heap_start+0x3d0f>
    394f: a2 0e        	ldx	#$e
    3951: 86 34        	stx	$34                     ; 0x2034 <f256main+0x1718>
    3953: 8e 16 d0     	stx	$d016                   ; 0xd016 <__heap_start+0x3d10>
    3956: 9c 17 d0     	stz	$d017                   ; 0xd017 <__heap_start+0x3d11>
    3959: a2 55        	ldx	#$55
    395b: 86 12        	stx	$12                     ; 0x2012 <f256main+0x16f6>
    395d: a2 89        	ldx	#$89
    395f: 86 13        	stx	$13                     ; 0x2013 <f256main+0x16f7>
    3961: 20 45 59     	jsr	$5945 <printf>
    3964: a6 7e        	ldx	$7e                     ; 0x207e <f256main+0x1762>
    3966: a4 7f        	ldy	$7f                     ; 0x207f <f256main+0x1763>
    3968: 86 12        	stx	$12                     ; 0x2012 <f256main+0x16f6>
    396a: 84 13        	sty	$13                     ; 0x2013 <f256main+0x16f7>
    396c: a6 6a        	ldx	$6a                     ; 0x206a <f256main+0x174e>
    396e: a4 6b        	ldy	$6b                     ; 0x206b <f256main+0x174f>
    3970: 86 14        	stx	$14                     ; 0x2014 <f256main+0x16f8>
    3972: 84 15        	sty	$15                     ; 0x2015 <f256main+0x16f9>
    3974: a0 08        	ldy	#$8
    3976: b1 14        	lda	($14),y                 ; 0x2014 <f256main+0x16f8>
    3978: 85 1a        	sta	$1a                     ; 0x201a <f256main+0x16fe>
    397a: 0a           	asl
    397b: 64 14        	stz	$14                     ; 0x2014 <f256main+0x16f8>
    397d: 26 14        	rol	$14                     ; 0x2014 <f256main+0x16f8>
    397f: 0a           	asl
    3980: 26 14        	rol	$14                     ; 0x2014 <f256main+0x16f8>
    3982: 0a           	asl
    3983: 26 14        	rol	$14                     ; 0x2014 <f256main+0x16f8>
    3985: 0a           	asl
    3986: 26 14        	rol	$14                     ; 0x2014 <f256main+0x16f8>
    3988: 38           	sec
    3989: e5 1a        	sbc	$1a                     ; 0x201a <f256main+0x16fe>
    398b: aa           	tax
    398c: a5 14        	lda	$14                     ; 0x2014 <f256main+0x16f8>
    398e: e9 00        	sbc	#$0
    3990: 85 14        	sta	$14                     ; 0x2014 <f256main+0x16f8>
    3992: 18           	clc
    3993: 8a           	txa
    3994: 65 7e        	adc	$7e                     ; 0x207e <f256main+0x1762>
    3996: aa           	tax
    3997: a5 14        	lda	$14                     ; 0x2014 <f256main+0x16f8>
    3999: 65 7f        	adc	$7f                     ; 0x207f <f256main+0x1763>
    399b: 85 15        	sta	$15                     ; 0x2015 <f256main+0x16f9>
    399d: 86 14        	stx	$14                     ; 0x2014 <f256main+0x16f8>
    399f: a5 2a        	lda	$2a                     ; 0x202a <f256main+0x170e>
    39a1: 1a           	inc
    39a2: a0 04        	ldy	#$4
    39a4: d1 14        	cmp	($14),y                 ; 0x2014 <f256main+0x16f8>
    39a6: b0 03        	bcs	$39ab <launchBeat+0x1ea>
    39a8: 4c ae 38     	jmp	$38ae <launchBeat+0xed>
    39ab: a6 28        	ldx	$28                     ; 0x2028 <f256main+0x170c>
    39ad: 86 12        	stx	$12                     ; 0x2012 <f256main+0x16f6>
    39af: a6 29        	ldx	$29                     ; 0x2029 <f256main+0x170d>
    39b1: 86 13        	stx	$13                     ; 0x2013 <f256main+0x16f7>
    39b3: 20 44 67     	jsr	$6744 <free>
    39b6: 64 33        	stz	$33                     ; 0x2033 <f256main+0x1717>
    39b8: 9c 14 d0     	stz	$d014                   ; 0xd014 <__heap_start+0x3d0e>
    39bb: 9c 15 d0     	stz	$d015                   ; 0xd015 <__heap_start+0x3d0f>
    39be: a2 0f        	ldx	#$f
    39c0: 86 34        	stx	$34                     ; 0x2034 <f256main+0x1718>
    39c2: 8e 16 d0     	stx	$d016                   ; 0xd016 <__heap_start+0x3d10>
    39c5: 9c 17 d0     	stz	$d017                   ; 0xd017 <__heap_start+0x3d11>
    39c8: a0 01        	ldy	#$1
    39ca: 98           	tya
    39cb: 25 62        	and	$62                     ; 0x2062 <f256main+0x1746>
    39cd: 92 10        	sta	($10)                   ; 0x2010 <f256main+0x16f4>
    39cf: a9 00        	lda	#$0
    39d1: 91 10        	sta	($10),y                 ; 0x2010 <f256main+0x16f4>
    39d3: a2 85        	ldx	#$85
    39d5: 86 12        	stx	$12                     ; 0x2012 <f256main+0x16f6>
    39d7: a2 82        	ldx	#$82
    39d9: 86 13        	stx	$13                     ; 0x2013 <f256main+0x16f7>
    39db: 20 45 59     	jsr	$5945 <printf>
    39de: a0 02        	ldy	#$2
    39e0: b1 10        	lda	($10),y                 ; 0x2010 <f256main+0x16f4>
    39e2: 85 2e        	sta	$2e                     ; 0x202e <f256main+0x1712>
    39e4: c8           	iny
    39e5: b1 10        	lda	($10),y                 ; 0x2010 <f256main+0x16f4>
    39e7: 85 2d        	sta	$2d                     ; 0x202d <f256main+0x1711>
    39e9: c8           	iny
    39ea: b1 10        	lda	($10),y                 ; 0x2010 <f256main+0x16f4>
    39ec: 85 2c        	sta	$2c                     ; 0x202c <f256main+0x1710>
    39ee: c8           	iny
    39ef: b1 10        	lda	($10),y                 ; 0x2010 <f256main+0x16f4>
    39f1: 85 2b        	sta	$2b                     ; 0x202b <f256main+0x170f>
    39f3: c8           	iny
    39f4: b1 10        	lda	($10),y                 ; 0x2010 <f256main+0x16f4>
    39f6: 85 2a        	sta	$2a                     ; 0x202a <f256main+0x170e>
    39f8: c8           	iny
    39f9: b1 10        	lda	($10),y                 ; 0x2010 <f256main+0x16f4>
    39fb: 85 29        	sta	$29                     ; 0x2029 <f256main+0x170d>
    39fd: c8           	iny
    39fe: b1 10        	lda	($10),y                 ; 0x2010 <f256main+0x16f4>
    3a00: 85 28        	sta	$28                     ; 0x2028 <f256main+0x170c>
    3a02: fa           	plx
    3a03: 86 27        	stx	$27                     ; 0x2027 <f256main+0x170b>
    3a05: fa           	plx
    3a06: 86 26        	stx	$26                     ; 0x2026 <f256main+0x170a>
    3a08: fa           	plx
    3a09: 86 25        	stx	$25                     ; 0x2025 <f256main+0x1709>
    3a0b: fa           	plx
    3a0c: 86 24        	stx	$24                     ; 0x2024 <f256main+0x1708>
    3a0e: 18           	clc
    3a0f: a5 10        	lda	$10                     ; 0x2010 <f256main+0x16f4>
    3a11: 69 0d        	adc	#$d
    3a13: 85 10        	sta	$10                     ; 0x2010 <f256main+0x16f4>
    3a15: a5 11        	lda	$11                     ; 0x2011 <f256main+0x16f5>
    3a17: 69 00        	adc	#$0
    3a19: 85 11        	sta	$11                     ; 0x2011 <f256main+0x16f5>
    3a1b: 60           	rts
    3a1c: a9 01        	lda	#$1
    3a1e: 92 14        	sta	($14)                   ; 0x2014 <f256main+0x16f8>
    3a20: 38           	sec
    3a21: a5 18        	lda	$18                     ; 0x2018 <f256main+0x16fc>
    3a23: e5 1a        	sbc	$1a                     ; 0x201a <f256main+0x16fe>
    3a25: 85 14        	sta	$14                     ; 0x2014 <f256main+0x16f8>
    3a27: 98           	tya
    3a28: e9 00        	sbc	#$0
    3a2a: 85 15        	sta	$15                     ; 0x2015 <f256main+0x16f9>
    3a2c: a5 17        	lda	$17                     ; 0x2017 <f256main+0x16fb>
    3a2e: 18           	clc
    3a2f: 65 14        	adc	$14                     ; 0x2014 <f256main+0x16f8>
    3a31: 85 14        	sta	$14                     ; 0x2014 <f256main+0x16f8>
    3a33: a5 16        	lda	$16                     ; 0x2016 <f256main+0x16fa>
    3a35: 65 15        	adc	$15                     ; 0x2015 <f256main+0x16f9>
    3a37: 85 15        	sta	$15                     ; 0x2015 <f256main+0x16f9>
    3a39: a0 03        	ldy	#$3
    3a3b: b1 14        	lda	($14),y                 ; 0x2014 <f256main+0x16f8>
    3a3d: a0 09        	ldy	#$9
    3a3f: 91 12        	sta	($12),y                 ; 0x2012 <f256main+0x16f6>
    3a41: 20 a5 3f     	jsr	$3fa5 <prepTempoLUT>
    3a44: a6 6a        	ldx	$6a                     ; 0x206a <f256main+0x174e>
    3a46: a4 6b        	ldy	$6b                     ; 0x206b <f256main+0x174f>
    3a48: 86 2c        	stx	$2c                     ; 0x202c <f256main+0x1710>
    3a4a: 84 2d        	sty	$2d                     ; 0x202d <f256main+0x1711>
    3a4c: a0 09        	ldy	#$9
    3a4e: b1 2c        	lda	($2c),y                 ; 0x202c <f256main+0x1710>
    3a50: 20 f7 4e     	jsr	$4ef7 <updateTempoText>
    3a53: a6 7e        	ldx	$7e                     ; 0x207e <f256main+0x1762>
    3a55: 86 13        	stx	$13                     ; 0x2013 <f256main+0x16f7>
    3a57: a0 08        	ldy	#$8
    3a59: b1 2c        	lda	($2c),y                 ; 0x202c <f256main+0x1710>
    3a5b: 85 12        	sta	$12                     ; 0x2012 <f256main+0x16f6>
    3a5d: 0a           	asl
    3a5e: aa           	tax
    3a5f: a9 00        	lda	#$0
    3a61: 2a           	rol
    3a62: 86 14        	stx	$14                     ; 0x2014 <f256main+0x16f8>
    3a64: 06 14        	asl	$14                     ; 0x2014 <f256main+0x16f8>
    3a66: 2a           	rol
    3a67: 06 14        	asl	$14                     ; 0x2014 <f256main+0x16f8>
    3a69: 2a           	rol
    3a6a: 06 14        	asl	$14                     ; 0x2014 <f256main+0x16f8>
    3a6c: 2a           	rol
    3a6d: a8           	tay
    3a6e: a6 7f        	ldx	$7f                     ; 0x207f <f256main+0x1763>
    3a70: 38           	sec
    3a71: a5 14        	lda	$14                     ; 0x2014 <f256main+0x16f8>
    3a73: e5 12        	sbc	$12                     ; 0x2012 <f256main+0x16f6>
    3a75: 85 12        	sta	$12                     ; 0x2012 <f256main+0x16f6>
    3a77: 98           	tya
    3a78: e9 00        	sbc	#$0
    3a7a: a8           	tay
    3a7b: 18           	clc
    3a7c: a5 12        	lda	$12                     ; 0x2012 <f256main+0x16f6>
    3a7e: 65 7e        	adc	$7e                     ; 0x207e <f256main+0x1762>
    3a80: 85 14        	sta	$14                     ; 0x2014 <f256main+0x16f8>
    3a82: 98           	tya
    3a83: 65 7f        	adc	$7f                     ; 0x207f <f256main+0x1763>
    3a85: 85 15        	sta	$15                     ; 0x2015 <f256main+0x16f9>
    3a87: a0 04        	ldy	#$4
    3a89: b1 14        	lda	($14),y                 ; 0x2014 <f256main+0x16f8>
    3a8b: d0 03        	bne	$3a90 <launchBeat+0x2cf>
    3a8d: 4c cc 3d     	jmp	$3dcc <launchBeat+0x60b>
    3a90: a4 13        	ldy	$13                     ; 0x2013 <f256main+0x16f7>
    3a92: 84 12        	sty	$12                     ; 0x2012 <f256main+0x16f6>
    3a94: 86 13        	stx	$13                     ; 0x2013 <f256main+0x16f7>
    3a96: a0 02        	ldy	#$2
    3a98: 84 2a        	sty	$2a                     ; 0x202a <f256main+0x170e>
    3a9a: 64 2b        	stz	$2b                     ; 0x202b <f256main+0x170f>
    3a9c: a2 00        	ldx	#$0
    3a9e: 4c 45 3d     	jmp	$3d45 <launchBeat+0x584>
    3aa1: a0 01        	ldy	#$1
    3aa3: b1 28        	lda	($28),y                 ; 0x2028 <f256main+0x170c>
    3aa5: 85 2c        	sta	$2c                     ; 0x202c <f256main+0x1710>
    3aa7: a2 03        	ldx	#$3
    3aa9: 20 05 6b     	jsr	$6b05 <__udivqi3>
    3aac: 85 14        	sta	$14                     ; 0x2014 <f256main+0x16f8>
    3aae: 0a           	asl
    3aaf: 18           	clc
    3ab0: 65 14        	adc	$14                     ; 0x2014 <f256main+0x16f8>
    3ab2: 85 12        	sta	$12                     ; 0x2012 <f256main+0x16f6>
    3ab4: 38           	sec
    3ab5: a5 2c        	lda	$2c                     ; 0x202c <f256main+0x1710>
    3ab7: e5 12        	sbc	$12                     ; 0x2012 <f256main+0x16f6>
    3ab9: aa           	tax
    3aba: a0 02        	ldy	#$2
    3abc: b1 28        	lda	($28),y                 ; 0x2028 <f256main+0x170c>
    3abe: 85 12        	sta	$12                     ; 0x2012 <f256main+0x16f6>
    3ac0: 0a           	asl
    3ac1: 64 13        	stz	$13                     ; 0x2013 <f256main+0x16f7>
    3ac3: 26 13        	rol	$13                     ; 0x2013 <f256main+0x16f7>
    3ac5: 0a           	asl
    3ac6: 26 13        	rol	$13                     ; 0x2013 <f256main+0x16f7>
    3ac8: 0a           	asl
    3ac9: 26 13        	rol	$13                     ; 0x2013 <f256main+0x16f7>
    3acb: 18           	clc
    3acc: 65 12        	adc	$12                     ; 0x2012 <f256main+0x16f6>
    3ace: 85 12        	sta	$12                     ; 0x2012 <f256main+0x16f6>
    3ad0: a5 13        	lda	$13                     ; 0x2013 <f256main+0x16f7>
    3ad2: 69 00        	adc	#$0
    3ad4: 85 13        	sta	$13                     ; 0x2013 <f256main+0x16f7>
    3ad6: a9 9c        	lda	#$9c
    3ad8: 18           	clc
    3ad9: 65 12        	adc	$12                     ; 0x2012 <f256main+0x16f6>
    3adb: 85 12        	sta	$12                     ; 0x2012 <f256main+0x16f6>
    3add: a9 90        	lda	#$90
    3adf: 65 13        	adc	$13                     ; 0x2013 <f256main+0x16f7>
    3ae1: 85 13        	sta	$13                     ; 0x2013 <f256main+0x16f7>
    3ae3: a5 14        	lda	$14                     ; 0x2014 <f256main+0x16f8>
    3ae5: 20 52 42     	jsr	$4252 <sid_setInstrument>
    3ae8: a0 02        	ldy	#$2
    3aea: b1 28        	lda	($28),y                 ; 0x2028 <f256main+0x170c>
    3aec: 88           	dey
    3aed: 85 12        	sta	$12                     ; 0x2012 <f256main+0x16f6>
    3aef: 0a           	asl
    3af0: 64 13        	stz	$13                     ; 0x2013 <f256main+0x16f7>
    3af2: 26 13        	rol	$13                     ; 0x2013 <f256main+0x16f7>
    3af4: 0a           	asl
    3af5: 26 13        	rol	$13                     ; 0x2013 <f256main+0x16f7>
    3af7: 0a           	asl
    3af8: 26 13        	rol	$13                     ; 0x2013 <f256main+0x16f7>
    3afa: 18           	clc
    3afb: 65 12        	adc	$12                     ; 0x2012 <f256main+0x16f6>
    3afd: 85 12        	sta	$12                     ; 0x2012 <f256main+0x16f6>
    3aff: a5 13        	lda	$13                     ; 0x2013 <f256main+0x16f7>
    3b01: 69 00        	adc	#$0
    3b03: 85 13        	sta	$13                     ; 0x2013 <f256main+0x16f7>
    3b05: a9 9c        	lda	#$9c
    3b07: 18           	clc
    3b08: 65 12        	adc	$12                     ; 0x2012 <f256main+0x16f6>
    3b0a: 85 12        	sta	$12                     ; 0x2012 <f256main+0x16f6>
    3b0c: a9 90        	lda	#$90
    3b0e: 65 13        	adc	$13                     ; 0x2013 <f256main+0x16f7>
    3b10: 85 13        	sta	$13                     ; 0x2013 <f256main+0x16f7>
    3b12: 9c 14 d4     	stz	$d414                   ; 0xd414 <__heap_start+0x410e>
    3b15: 9c 15 d4     	stz	$d415                   ; 0xd415 <__heap_start+0x410f>
    3b18: 9c 17 d4     	stz	$d417                   ; 0xd417 <__heap_start+0x4111>
    3b1b: b2 12        	lda	($12)                   ; 0x2012 <f256main+0x16f6>
    3b1d: 8d 18 d4     	sta	$d418                   ; 0xd418 <__heap_start+0x4112>
    3b20: 9c 14 d5     	stz	$d514                   ; 0xd514 <__heap_start+0x420e>
    3b23: 9c 15 d5     	stz	$d515                   ; 0xd515 <__heap_start+0x420f>
    3b26: 9c 17 d5     	stz	$d517                   ; 0xd517 <__heap_start+0x4211>
    3b29: 8d 18 d5     	sta	$d518                   ; 0xd518 <__heap_start+0x4212>
    3b2c: 4c a7 3b     	jmp	$3ba7 <launchBeat+0x3e6>
    3b2f: a0 02        	ldy	#$2
    3b31: b1 28        	lda	($28),y                 ; 0x2028 <f256main+0x170c>
    3b33: a2 0b        	ldx	#$b
    3b35: 86 12        	stx	$12                     ; 0x2012 <f256main+0x16f6>
    3b37: 64 13        	stz	$13                     ; 0x2013 <f256main+0x16f7>
    3b39: a2 00        	ldx	#$0
    3b3b: 20 6b 69     	jsr	$696b <__mulhi3>
    3b3e: 85 12        	sta	$12                     ; 0x2012 <f256main+0x16f6>
    3b40: 86 13        	stx	$13                     ; 0x2013 <f256main+0x16f7>
    3b42: a9 c9        	lda	#$c9
    3b44: 18           	clc
    3b45: 65 12        	adc	$12                     ; 0x2012 <f256main+0x16f6>
    3b47: 85 12        	sta	$12                     ; 0x2012 <f256main+0x16f6>
    3b49: a9 90        	lda	#$90
    3b4b: 65 13        	adc	$13                     ; 0x2013 <f256main+0x16f7>
    3b4d: 85 13        	sta	$13                     ; 0x2013 <f256main+0x16f7>
    3b4f: a0 01        	ldy	#$1
    3b51: b1 28        	lda	($28),y                 ; 0x2028 <f256main+0x170c>
    3b53: 20 36 41     	jsr	$4136 <opl3_setInstrument>
    3b56: a0 01        	ldy	#$1
    3b58: b1 28        	lda	($28),y                 ; 0x2028 <f256main+0x170c>
    3b5a: 85 2c        	sta	$2c                     ; 0x202c <f256main+0x1710>
    3b5c: c8           	iny
    3b5d: b1 28        	lda	($28),y                 ; 0x2028 <f256main+0x170c>
    3b5f: a2 0b        	ldx	#$b
    3b61: 86 12        	stx	$12                     ; 0x2012 <f256main+0x16f6>
    3b63: 64 13        	stz	$13                     ; 0x2013 <f256main+0x16f7>
    3b65: a2 00        	ldx	#$0
    3b67: 20 6b 69     	jsr	$696b <__mulhi3>
    3b6a: 85 13        	sta	$13                     ; 0x2013 <f256main+0x16f7>
    3b6c: 86 12        	stx	$12                     ; 0x2012 <f256main+0x16f6>
    3b6e: a6 2c        	ldx	$2c                     ; 0x202c <f256main+0x1710>
    3b70: e0 40        	cpx	#$40
    3b72: a0 80        	ldy	#$80
    3b74: 84 14        	sty	$14                     ; 0x2014 <f256main+0x16f8>
    3b76: a0 d5        	ldy	#$d5
    3b78: 84 15        	sty	$15                     ; 0x2015 <f256main+0x16f9>
    3b7a: 90 08        	bcc	$3b84 <launchBeat+0x3c3>
    3b7c: a0 82        	ldy	#$82
    3b7e: 84 14        	sty	$14                     ; 0x2014 <f256main+0x16f8>
    3b80: a0 d5        	ldy	#$d5
    3b82: 84 15        	sty	$15                     ; 0x2015 <f256main+0x16f9>
    3b84: 18           	clc
    3b85: 8a           	txa
    3b86: 69 c0        	adc	#$c0
    3b88: aa           	tax
    3b89: a9 c9        	lda	#$c9
    3b8b: 18           	clc
    3b8c: 65 13        	adc	$13                     ; 0x2013 <f256main+0x16f7>
    3b8e: a8           	tay
    3b8f: a9 90        	lda	#$90
    3b91: 65 12        	adc	$12                     ; 0x2012 <f256main+0x16f6>
    3b93: 84 12        	sty	$12                     ; 0x2012 <f256main+0x16f6>
    3b95: 85 13        	sta	$13                     ; 0x2013 <f256main+0x16f7>
    3b97: a0 0a        	ldy	#$a
    3b99: b1 12        	lda	($12),y                 ; 0x2012 <f256main+0x16f6>
    3b9b: 85 12        	sta	$12                     ; 0x2012 <f256main+0x16f6>
    3b9d: 8a           	txa
    3b9e: 92 14        	sta	($14)                   ; 0x2014 <f256main+0x16f8>
    3ba0: a6 12        	ldx	$12                     ; 0x2012 <f256main+0x16f6>
    3ba2: 8e 81 d5     	stx	$d581                   ; 0xd581 <__heap_start+0x427b>
    3ba5: a0 01        	ldy	#$1
    3ba7: b1 28        	lda	($28),y                 ; 0x2028 <f256main+0x170c>
    3ba9: 85 18        	sta	$18                     ; 0x2018 <f256main+0x16fc>
    3bab: b2 24        	lda	($24)                   ; 0x2024 <f256main+0x1708>
    3bad: 85 12        	sta	$12                     ; 0x2012 <f256main+0x16f6>
    3baf: a6 6a        	ldx	$6a                     ; 0x206a <f256main+0x174e>
    3bb1: a4 6b        	ldy	$6b                     ; 0x206b <f256main+0x174f>
    3bb3: 86 14        	stx	$14                     ; 0x2014 <f256main+0x16f8>
    3bb5: 84 15        	sty	$15                     ; 0x2015 <f256main+0x16f9>
    3bb7: b2 14        	lda	($14)                   ; 0x2014 <f256main+0x16f8>
    3bb9: 85 14        	sta	$14                     ; 0x2014 <f256main+0x16f8>
    3bbb: b2 28        	lda	($28)                   ; 0x2028 <f256main+0x170c>
    3bbd: 85 15        	sta	$15                     ; 0x2015 <f256main+0x16f9>
    3bbf: a0 02        	ldy	#$2
    3bc1: b1 28        	lda	($28),y                 ; 0x2028 <f256main+0x170c>
    3bc3: 85 17        	sta	$17                     ; 0x2017 <f256main+0x16fb>
    3bc5: a2 7f        	ldx	#$7f
    3bc7: 86 13        	stx	$13                     ; 0x2013 <f256main+0x16f7>
    3bc9: a9 01        	lda	#$1
    3bcb: 85 16        	sta	$16                     ; 0x2016 <f256main+0x16fa>
    3bcd: a6 18        	ldx	$18                     ; 0x2018 <f256main+0x16fc>
    3bcf: 20 1b 32     	jsr	$321b <dispatchNote>
    3bd2: b2 28        	lda	($28)                   ; 0x2028 <f256main+0x170c>
    3bd4: c9 01        	cmp	#$1
    3bd6: d0 09        	bne	$3be1 <launchBeat+0x420>
    3bd8: a0 01        	ldy	#$1
    3bda: b1 28        	lda	($28),y                 ; 0x2028 <f256main+0x170c>
    3bdc: aa           	tax
    3bdd: 98           	tya
    3bde: 9d 49 00     	sta	$49,x                   ; 0x49 <reservedSID>
    3be1: a6 6a        	ldx	$6a                     ; 0x206a <f256main+0x174e>
    3be3: a4 6b        	ldy	$6b                     ; 0x206b <f256main+0x174f>
    3be5: 86 12        	stx	$12                     ; 0x2012 <f256main+0x16f6>
    3be7: 84 13        	sty	$13                     ; 0x2013 <f256main+0x16f7>
    3be9: a0 08        	ldy	#$8
    3beb: b1 12        	lda	($12),y                 ; 0x2012 <f256main+0x16f6>
    3bed: 85 12        	sta	$12                     ; 0x2012 <f256main+0x16f6>
    3bef: 0a           	asl
    3bf0: aa           	tax
    3bf1: a9 00        	lda	#$0
    3bf3: 2a           	rol
    3bf4: 86 13        	stx	$13                     ; 0x2013 <f256main+0x16f7>
    3bf6: 06 13        	asl	$13                     ; 0x2013 <f256main+0x16f7>
    3bf8: 2a           	rol
    3bf9: 06 13        	asl	$13                     ; 0x2013 <f256main+0x16f7>
    3bfb: 2a           	rol
    3bfc: 06 13        	asl	$13                     ; 0x2013 <f256main+0x16f7>
    3bfe: 2a           	rol
    3bff: aa           	tax
    3c00: 38           	sec
    3c01: a5 13        	lda	$13                     ; 0x2013 <f256main+0x16f7>
    3c03: e5 12        	sbc	$12                     ; 0x2012 <f256main+0x16f6>
    3c05: 85 12        	sta	$12                     ; 0x2012 <f256main+0x16f6>
    3c07: 8a           	txa
    3c08: e9 00        	sbc	#$0
    3c0a: aa           	tax
    3c0b: 18           	clc
    3c0c: a5 12        	lda	$12                     ; 0x2012 <f256main+0x16f6>
    3c0e: 65 7e        	adc	$7e                     ; 0x207e <f256main+0x1762>
    3c10: 85 12        	sta	$12                     ; 0x2012 <f256main+0x16f6>
    3c12: 8a           	txa
    3c13: 65 7f        	adc	$7f                     ; 0x207f <f256main+0x1763>
    3c15: 85 13        	sta	$13                     ; 0x2013 <f256main+0x16f7>
    3c17: a0 02        	ldy	#$2
    3c19: b1 12        	lda	($12),y                 ; 0x2012 <f256main+0x16f6>
    3c1b: 1a           	inc
    3c1c: 91 12        	sta	($12),y                 ; 0x2012 <f256main+0x16f6>
    3c1e: a2 80        	ldx	#$80
    3c20: 86 f3        	stx	$f3                     ; 0x20f3 <f256main+0x17d7>
    3c22: 18           	clc
    3c23: a5 10        	lda	$10                     ; 0x2010 <f256main+0x16f4>
    3c25: 69 0b        	adc	#$b
    3c27: 85 12        	sta	$12                     ; 0x2012 <f256main+0x16f6>
    3c29: a5 11        	lda	$11                     ; 0x2011 <f256main+0x16f5>
    3c2b: 69 00        	adc	#$0
    3c2d: 85 13        	sta	$13                     ; 0x2013 <f256main+0x16f7>
    3c2f: a2 ff        	ldx	#$ff
    3c31: 86 18        	stx	$18                     ; 0x2018 <f256main+0x16fc>
    3c33: a2 92        	ldx	#$92
    3c35: 86 19        	stx	$19                     ; 0x2019 <f256main+0x16fd>
    3c37: 20 f0 ff     	jsr	$fff0 <__heap_start+0x6cea>
    3c3a: 92 12        	sta	($12)                   ; 0x2012 <f256main+0x16f6>
    3c3c: a9 00        	lda	#$0
    3c3e: 6a           	ror
    3c3f: 85 18        	sta	$18                     ; 0x2018 <f256main+0x16fc>
    3c41: b2 12        	lda	($12)                   ; 0x2012 <f256main+0x16f6>
    3c43: 85 12        	sta	$12                     ; 0x2012 <f256main+0x16f6>
    3c45: b2 26        	lda	($26)                   ; 0x2026 <f256main+0x170a>
    3c47: aa           	tax
    3c48: 18           	clc
    3c49: a5 12        	lda	$12                     ; 0x2012 <f256main+0x16f6>
    3c4b: 75 6c        	adc	$6c,x                   ; 0x206c <f256main+0x1750>
    3c4d: 85 16        	sta	$16                     ; 0x2016 <f256main+0x16fa>
    3c4f: a6 6a        	ldx	$6a                     ; 0x206a <f256main+0x174e>
    3c51: a4 6b        	ldy	$6b                     ; 0x206b <f256main+0x174f>
    3c53: 86 12        	stx	$12                     ; 0x2012 <f256main+0x16f6>
    3c55: 84 13        	sty	$13                     ; 0x2013 <f256main+0x16f7>
    3c57: a0 08        	ldy	#$8
    3c59: b1 12        	lda	($12),y                 ; 0x2012 <f256main+0x16f6>
    3c5b: 85 12        	sta	$12                     ; 0x2012 <f256main+0x16f6>
    3c5d: 0a           	asl
    3c5e: aa           	tax
    3c5f: a9 00        	lda	#$0
    3c61: 2a           	rol
    3c62: 86 13        	stx	$13                     ; 0x2013 <f256main+0x16f7>
    3c64: 06 13        	asl	$13                     ; 0x2013 <f256main+0x16f7>
    3c66: 2a           	rol
    3c67: 06 13        	asl	$13                     ; 0x2013 <f256main+0x16f7>
    3c69: 2a           	rol
    3c6a: 06 13        	asl	$13                     ; 0x2013 <f256main+0x16f7>
    3c6c: 2a           	rol
    3c6d: aa           	tax
    3c6e: 38           	sec
    3c6f: a5 13        	lda	$13                     ; 0x2013 <f256main+0x16f7>
    3c71: e5 12        	sbc	$12                     ; 0x2012 <f256main+0x16f6>
    3c73: 85 12        	sta	$12                     ; 0x2012 <f256main+0x16f6>
    3c75: 8a           	txa
    3c76: e9 00        	sbc	#$0
    3c78: a8           	tay
    3c79: 18           	clc
    3c7a: a5 12        	lda	$12                     ; 0x2012 <f256main+0x16f6>
    3c7c: 65 7e        	adc	$7e                     ; 0x207e <f256main+0x1762>
    3c7e: aa           	tax
    3c7f: 98           	tya
    3c80: 65 7f        	adc	$7f                     ; 0x207f <f256main+0x1763>
    3c82: 86 12        	stx	$12                     ; 0x2012 <f256main+0x16f6>
    3c84: 85 13        	sta	$13                     ; 0x2013 <f256main+0x16f7>
    3c86: a8           	tay
    3c87: 18           	clc
    3c88: 8a           	txa
    3c89: 69 0d        	adc	#$d
    3c8b: 85 14        	sta	$14                     ; 0x2014 <f256main+0x16f8>
    3c8d: 98           	tya
    3c8e: 69 00        	adc	#$0
    3c90: 85 15        	sta	$15                     ; 0x2015 <f256main+0x16f9>
    3c92: 18           	clc
    3c93: a5 2a        	lda	$2a                     ; 0x202a <f256main+0x170e>
    3c95: a0 0d        	ldy	#$d
    3c97: 71 12        	adc	($12),y                 ; 0x2012 <f256main+0x16f6>
    3c99: 85 12        	sta	$12                     ; 0x2012 <f256main+0x16f6>
    3c9b: a5 2b        	lda	$2b                     ; 0x202b <f256main+0x170f>
    3c9d: a0 01        	ldy	#$1
    3c9f: 71 14        	adc	($14),y                 ; 0x2014 <f256main+0x16f8>
    3ca1: a8           	tay
    3ca2: a6 12        	ldx	$12                     ; 0x2012 <f256main+0x16f6>
    3ca4: 86 17        	stx	$17                     ; 0x2017 <f256main+0x16fb>
    3ca6: 85 13        	sta	$13                     ; 0x2013 <f256main+0x16f7>
    3ca8: a6 12        	ldx	$12                     ; 0x2012 <f256main+0x16f6>
    3caa: 86 14        	stx	$14                     ; 0x2014 <f256main+0x16f8>
    3cac: 85 15        	sta	$15                     ; 0x2015 <f256main+0x16f9>
    3cae: a2 ff        	ldx	#$ff
    3cb0: c6 14        	dec	$14                     ; 0x2014 <f256main+0x16f8>
    3cb2: e4 14        	cpx	$14                     ; 0x2014 <f256main+0x16f8>
    3cb4: d0 02        	bne	$3cb8 <launchBeat+0x4f7>
    3cb6: c6 15        	dec	$15                     ; 0x2015 <f256main+0x16f9>
    3cb8: a5 16        	lda	$16                     ; 0x2016 <f256main+0x16fa>
    3cba: 92 14        	sta	($14)                   ; 0x2014 <f256main+0x16f8>
    3cbc: 18           	clc
    3cbd: a5 17        	lda	$17                     ; 0x2017 <f256main+0x16fb>
    3cbf: 69 fe        	adc	#$fe
    3cc1: 85 16        	sta	$16                     ; 0x2016 <f256main+0x16fa>
    3cc3: 98           	tya
    3cc4: 69 ff        	adc	#$ff
    3cc6: 85 17        	sta	$17                     ; 0x2017 <f256main+0x16fb>
    3cc8: b2 16        	lda	($16)                   ; 0x2016 <f256main+0x16fa>
    3cca: 85 f3        	sta	$f3                     ; 0x20f3 <f256main+0x17d7>
    3ccc: b2 14        	lda	($14)                   ; 0x2014 <f256main+0x16f8>
    3cce: 85 f4        	sta	$f4                     ; 0x20f4 <f256main+0x17d8>
    3cd0: b2 12        	lda	($12)                   ; 0x2012 <f256main+0x16f6>
    3cd2: 85 f5        	sta	$f5                     ; 0x20f5 <f256main+0x17d9>
    3cd4: 18           	clc
    3cd5: a5 10        	lda	$10                     ; 0x2010 <f256main+0x16f4>
    3cd7: 69 0c        	adc	#$c
    3cd9: 85 12        	sta	$12                     ; 0x2012 <f256main+0x16f6>
    3cdb: a5 11        	lda	$11                     ; 0x2011 <f256main+0x16f5>
    3cdd: 69 00        	adc	#$0
    3cdf: 85 13        	sta	$13                     ; 0x2013 <f256main+0x16f7>
    3ce1: 20 f0 ff     	jsr	$fff0 <__heap_start+0x6cea>
    3ce4: 92 12        	sta	($12)                   ; 0x2012 <f256main+0x16f6>
    3ce6: a9 00        	lda	#$0
    3ce8: 6a           	ror
    3ce9: 85 18        	sta	$18                     ; 0x2018 <f256main+0x16fc>
    3ceb: a6 7e        	ldx	$7e                     ; 0x207e <f256main+0x1762>
    3ced: a4 7f        	ldy	$7f                     ; 0x207f <f256main+0x1763>
    3cef: 86 12        	stx	$12                     ; 0x2012 <f256main+0x16f6>
    3cf1: 84 13        	sty	$13                     ; 0x2013 <f256main+0x16f7>
    3cf3: a6 6a        	ldx	$6a                     ; 0x206a <f256main+0x174e>
    3cf5: a4 6b        	ldy	$6b                     ; 0x206b <f256main+0x174f>
    3cf7: 86 2c        	stx	$2c                     ; 0x202c <f256main+0x1710>
    3cf9: 84 2d        	sty	$2d                     ; 0x202d <f256main+0x1711>
    3cfb: a0 08        	ldy	#$8
    3cfd: b1 2c        	lda	($2c),y                 ; 0x202c <f256main+0x1710>
    3cff: 85 14        	sta	$14                     ; 0x2014 <f256main+0x16f8>
    3d01: 0a           	asl
    3d02: aa           	tax
    3d03: a9 00        	lda	#$0
    3d05: 2a           	rol
    3d06: 86 15        	stx	$15                     ; 0x2015 <f256main+0x16f9>
    3d08: 06 15        	asl	$15                     ; 0x2015 <f256main+0x16f9>
    3d0a: 2a           	rol
    3d0b: 06 15        	asl	$15                     ; 0x2015 <f256main+0x16f9>
    3d0d: 2a           	rol
    3d0e: 06 15        	asl	$15                     ; 0x2015 <f256main+0x16f9>
    3d10: 2a           	rol
    3d11: aa           	tax
    3d12: 38           	sec
    3d13: a5 15        	lda	$15                     ; 0x2015 <f256main+0x16f9>
    3d15: e5 14        	sbc	$14                     ; 0x2014 <f256main+0x16f8>
    3d17: 85 14        	sta	$14                     ; 0x2014 <f256main+0x16f8>
    3d19: 8a           	txa
    3d1a: e9 00        	sbc	#$0
    3d1c: aa           	tax
    3d1d: 18           	clc
    3d1e: a5 14        	lda	$14                     ; 0x2014 <f256main+0x16f8>
    3d20: 65 7e        	adc	$7e                     ; 0x207e <f256main+0x1762>
    3d22: 85 14        	sta	$14                     ; 0x2014 <f256main+0x16f8>
    3d24: 8a           	txa
    3d25: 65 7f        	adc	$7f                     ; 0x207f <f256main+0x1763>
    3d27: e6 2e        	inc	$2e                     ; 0x202e <f256main+0x1712>
    3d29: 85 15        	sta	$15                     ; 0x2015 <f256main+0x16f9>
    3d2b: 18           	clc
    3d2c: a5 2a        	lda	$2a                     ; 0x202a <f256main+0x170e>
    3d2e: 69 03        	adc	#$3
    3d30: 85 2a        	sta	$2a                     ; 0x202a <f256main+0x170e>
    3d32: a5 2b        	lda	$2b                     ; 0x202b <f256main+0x170f>
    3d34: 69 00        	adc	#$0
    3d36: 85 2b        	sta	$2b                     ; 0x202b <f256main+0x170f>
    3d38: a0 04        	ldy	#$4
    3d3a: a5 2e        	lda	$2e                     ; 0x202e <f256main+0x1712>
    3d3c: d1 14        	cmp	($14),y                 ; 0x2014 <f256main+0x16f8>
    3d3e: a6 2e        	ldx	$2e                     ; 0x202e <f256main+0x1712>
    3d40: 90 03        	bcc	$3d45 <launchBeat+0x584>
    3d42: 4c cc 3d     	jmp	$3dcc <launchBeat+0x60b>
    3d45: a5 14        	lda	$14                     ; 0x2014 <f256main+0x16f8>
    3d47: 18           	clc
    3d48: 69 09        	adc	#$9
    3d4a: 85 16        	sta	$16                     ; 0x2016 <f256main+0x16fa>
    3d4c: a5 15        	lda	$15                     ; 0x2015 <f256main+0x16f9>
    3d4e: 69 00        	adc	#$0
    3d50: 85 17        	sta	$17                     ; 0x2017 <f256main+0x16fb>
    3d52: a0 09        	ldy	#$9
    3d54: b1 14        	lda	($14),y                 ; 0x2014 <f256main+0x16f8>
    3d56: 85 14        	sta	$14                     ; 0x2014 <f256main+0x16f8>
    3d58: a0 01        	ldy	#$1
    3d5a: b1 16        	lda	($16),y                 ; 0x2016 <f256main+0x16fa>
    3d5c: 85 15        	sta	$15                     ; 0x2015 <f256main+0x16f9>
    3d5e: a9 00        	lda	#$0
    3d60: da           	phx
    3d61: 7a           	ply
    3d62: 91 14        	sta	($14),y                 ; 0x2014 <f256main+0x16f8>
    3d64: a0 08        	ldy	#$8
    3d66: b1 2c        	lda	($2c),y                 ; 0x202c <f256main+0x1710>
    3d68: a4 24        	ldy	$24                     ; 0x2024 <f256main+0x1708>
    3d6a: 84 14        	sty	$14                     ; 0x2014 <f256main+0x16f8>
    3d6c: a4 25        	ldy	$25                     ; 0x2025 <f256main+0x1709>
    3d6e: 84 15        	sty	$15                     ; 0x2015 <f256main+0x16f9>
    3d70: a4 26        	ldy	$26                     ; 0x2026 <f256main+0x170a>
    3d72: 84 16        	sty	$16                     ; 0x2016 <f256main+0x16fa>
    3d74: a4 27        	ldy	$27                     ; 0x2027 <f256main+0x170b>
    3d76: 84 17        	sty	$17                     ; 0x2017 <f256main+0x16fb>
    3d78: a4 28        	ldy	$28                     ; 0x2028 <f256main+0x170c>
    3d7a: 84 18        	sty	$18                     ; 0x2018 <f256main+0x16fc>
    3d7c: a4 29        	ldy	$29                     ; 0x2029 <f256main+0x170d>
    3d7e: 84 19        	sty	$19                     ; 0x2019 <f256main+0x16fd>
    3d80: 86 2e        	stx	$2e                     ; 0x202e <f256main+0x1712>
    3d82: 20 0d 45     	jsr	$450d <getBeatTrackNoteInfo>
    3d85: b2 28        	lda	($28)                   ; 0x2028 <f256main+0x170c>
    3d87: c9 03        	cmp	#$3
    3d89: d0 03        	bne	$3d8e <launchBeat+0x5cd>
    3d8b: 4c 2f 3b     	jmp	$3b2f <launchBeat+0x36e>
    3d8e: c9 01        	cmp	#$1
    3d90: d0 03        	bne	$3d95 <launchBeat+0x5d4>
    3d92: 4c a1 3a     	jmp	$3aa1 <launchBeat+0x2e0>
    3d95: a0 01        	ldy	#$1
    3d97: aa           	tax
    3d98: f0 03        	beq	$3d9d <launchBeat+0x5dc>
    3d9a: 4c a7 3b     	jmp	$3ba7 <launchBeat+0x3e6>
    3d9d: b1 28        	lda	($28),y                 ; 0x2028 <f256main+0x170c>
    3d9f: c9 09        	cmp	#$9
    3da1: d0 03        	bne	$3da6 <launchBeat+0x5e5>
    3da3: 4c a7 3b     	jmp	$3ba7 <launchBeat+0x3e6>
    3da6: a0 02        	ldy	#$2
    3da8: aa           	tax
    3da9: b1 28        	lda	($28),y                 ; 0x2028 <f256main+0x170c>
    3dab: 85 12        	sta	$12                     ; 0x2012 <f256main+0x16f6>
    3dad: 8a           	txa
    3dae: 09 c0        	ora	#$c0
    3db0: 8d b1 dd     	sta	$ddb1                   ; 0xddb1 <__heap_start+0x4aab>
    3db3: a6 12        	ldx	$12                     ; 0x2012 <f256main+0x16f6>
    3db5: 8e b1 dd     	stx	$ddb1                   ; 0xddb1 <__heap_start+0x4aab>
    3db8: b1 28        	lda	($28),y                 ; 0x2028 <f256main+0x170c>
    3dba: 85 12        	sta	$12                     ; 0x2012 <f256main+0x16f6>
    3dbc: 88           	dey
    3dbd: a9 c0        	lda	#$c0
    3dbf: 11 28        	ora	($28),y                 ; 0x2028 <f256main+0x170c>
    3dc1: 8d a1 dd     	sta	$dda1                   ; 0xdda1 <__heap_start+0x4a9b>
    3dc4: a6 12        	ldx	$12                     ; 0x2012 <f256main+0x16f6>
    3dc6: 8e a1 dd     	stx	$dda1                   ; 0xdda1 <__heap_start+0x4a9b>
    3dc9: 4c a7 3b     	jmp	$3ba7 <launchBeat+0x3e6>
    3dcc: a6 28        	ldx	$28                     ; 0x2028 <f256main+0x170c>
    3dce: 86 12        	stx	$12                     ; 0x2012 <f256main+0x16f6>
    3dd0: a6 29        	ldx	$29                     ; 0x2029 <f256main+0x170d>
    3dd2: 86 13        	stx	$13                     ; 0x2013 <f256main+0x16f7>
    3dd4: 20 44 67     	jsr	$6744 <free>
    3dd7: 4c de 39     	jmp	$39de <launchBeat+0x21d>

00003dda <escReset>:
    3dda: a2 b1        	ldx	#$b1
    3ddc: 86 14        	stx	$14                     ; 0x2014 <f256main+0x16f8>
    3dde: a2 dd        	ldx	#$dd
    3de0: 86 15        	stx	$15                     ; 0x2015 <f256main+0x16f9>
    3de2: a2 a1        	ldx	#$a1
    3de4: 86 12        	stx	$12                     ; 0x2012 <f256main+0x16f6>
    3de6: a2 dd        	ldx	#$dd
    3de8: 86 13        	stx	$13                     ; 0x2013 <f256main+0x16f7>
    3dea: a6 6a        	ldx	$6a                     ; 0x206a <f256main+0x174e>
    3dec: a4 6b        	ldy	$6b                     ; 0x206b <f256main+0x174f>
    3dee: 86 16        	stx	$16                     ; 0x2016 <f256main+0x16fa>
    3df0: 84 17        	sty	$17                     ; 0x2017 <f256main+0x16fb>
    3df2: b2 16        	lda	($16)                   ; 0x2016 <f256main+0x16fa>
    3df4: a2 a1        	ldx	#$a1
    3df6: 86 16        	stx	$16                     ; 0x2016 <f256main+0x16fa>
    3df8: a2 dd        	ldx	#$dd
    3dfa: 86 17        	stx	$17                     ; 0x2017 <f256main+0x16fb>
    3dfc: aa           	tax
    3dfd: f0 08        	beq	$3e07 <escReset+0x2d>
    3dff: a2 b1        	ldx	#$b1
    3e01: 86 16        	stx	$16                     ; 0x2016 <f256main+0x16fa>
    3e03: a2 dd        	ldx	#$dd
    3e05: 86 17        	stx	$17                     ; 0x2017 <f256main+0x16fb>
    3e07: a9 c0        	lda	#$c0
    3e09: 92 16        	sta	($16)                   ; 0x2016 <f256main+0x16fa>
    3e0b: aa           	tax
    3e0c: a9 00        	lda	#$0
    3e0e: 92 16        	sta	($16)                   ; 0x2016 <f256main+0x16fa>
    3e10: 8a           	txa
    3e11: 1a           	inc
    3e12: c9 d0        	cmp	#$d0
    3e14: d0 f3        	bne	$3e09 <escReset+0x2f>
    3e16: a9 ff        	lda	#$ff
    3e18: 92 16        	sta	($16)                   ; 0x2016 <f256main+0x16fa>
    3e1a: a6 6a        	ldx	$6a                     ; 0x206a <f256main+0x174e>
    3e1c: a4 6b        	ldy	$6b                     ; 0x206b <f256main+0x174f>
    3e1e: 86 16        	stx	$16                     ; 0x2016 <f256main+0x16fa>
    3e20: 84 17        	sty	$17                     ; 0x2017 <f256main+0x16fb>
    3e22: b2 16        	lda	($16)                   ; 0x2016 <f256main+0x16fa>
    3e24: c9 ff        	cmp	#$ff
    3e26: f0 08        	beq	$3e30 <escReset+0x56>
    3e28: a2 b1        	ldx	#$b1
    3e2a: 86 12        	stx	$12                     ; 0x2012 <f256main+0x16f6>
    3e2c: a2 dd        	ldx	#$dd
    3e2e: 86 13        	stx	$13                     ; 0x2013 <f256main+0x16f7>
    3e30: a9 c0        	lda	#$c0
    3e32: 92 12        	sta	($12)                   ; 0x2012 <f256main+0x16f6>
    3e34: aa           	tax
    3e35: a9 00        	lda	#$0
    3e37: 92 12        	sta	($12)                   ; 0x2012 <f256main+0x16f6>
    3e39: 8a           	txa
    3e3a: 1a           	inc
    3e3b: c9 d0        	cmp	#$d0
    3e3d: d0 f3        	bne	$3e32 <escReset+0x58>
    3e3f: a9 ff        	lda	#$ff
    3e41: 92 12        	sta	($12)                   ; 0x2012 <f256main+0x16f6>
    3e43: a6 6a        	ldx	$6a                     ; 0x206a <f256main+0x174e>
    3e45: a4 6b        	ldy	$6b                     ; 0x206b <f256main+0x174f>
    3e47: 86 8b        	stx	$8b                     ; 0x208b <f256main+0x176f>
    3e49: 86 89        	stx	$89                     ; 0x2089 <f256main+0x176d>
    3e4b: 84 8c        	sty	$8c                     ; 0x208c <f256main+0x1770>
    3e4d: 84 8a        	sty	$8a                     ; 0x208a <f256main+0x176e>
    3e4f: 1a           	inc
    3e50: 92 89        	sta	($89)                   ; 0x2089 <f256main+0x176d>
    3e52: a9 0a        	lda	#$a
    3e54: a2 00        	ldx	#$0
    3e56: 20 71 65     	jsr	$6571 <malloc>
    3e59: a6 89        	ldx	$89                     ; 0x2089 <f256main+0x176d>
    3e5b: 86 14        	stx	$14                     ; 0x2014 <f256main+0x16f8>
    3e5d: a6 8a        	ldx	$8a                     ; 0x208a <f256main+0x176e>
    3e5f: 86 15        	stx	$15                     ; 0x2015 <f256main+0x16f9>
    3e61: e6 14        	inc	$14                     ; 0x2014 <f256main+0x16f8>
    3e63: d0 02        	bne	$3e67 <escReset+0x8d>
    3e65: e6 15        	inc	$15                     ; 0x2015 <f256main+0x16f9>
    3e67: a5 12        	lda	$12                     ; 0x2012 <f256main+0x16f6>
    3e69: a0 01        	ldy	#$1
    3e6b: 91 89        	sta	($89),y                 ; 0x2089 <f256main+0x176d>
    3e6d: a5 13        	lda	$13                     ; 0x2013 <f256main+0x16f7>
    3e6f: 91 14        	sta	($14),y                 ; 0x2014 <f256main+0x16f8>
    3e71: a2 00        	ldx	#$0
    3e73: 86 14        	stx	$14                     ; 0x2014 <f256main+0x16f8>
    3e75: a2 00        	ldx	#$0
    3e77: 86 15        	stx	$15                     ; 0x2015 <f256main+0x16f9>
    3e79: a6 13        	ldx	$13                     ; 0x2013 <f256main+0x16f7>
    3e7b: e4 15        	cpx	$15                     ; 0x2015 <f256main+0x16f9>
    3e7d: d0 11        	bne	$3e90 <escReset+0xb6>
    3e7f: a6 12        	ldx	$12                     ; 0x2012 <f256main+0x16f6>
    3e81: e4 14        	cpx	$14                     ; 0x2014 <f256main+0x16f8>
    3e83: d0 0b        	bne	$3e90 <escReset+0xb6>
    3e85: a2 75        	ldx	#$75
    3e87: 86 12        	stx	$12                     ; 0x2012 <f256main+0x16f6>
    3e89: a2 7e        	ldx	#$7e
    3e8b: 86 13        	stx	$13                     ; 0x2013 <f256main+0x16f7>
    3e8d: 20 45 59     	jsr	$5945 <printf>
    3e90: 18           	clc
    3e91: a5 8b        	lda	$8b                     ; 0x208b <f256main+0x176f>
    3e93: 69 03        	adc	#$3
    3e95: 85 12        	sta	$12                     ; 0x2012 <f256main+0x16f6>
    3e97: a5 8c        	lda	$8c                     ; 0x208c <f256main+0x1770>
    3e99: 69 00        	adc	#$0
    3e9b: 85 13        	sta	$13                     ; 0x2013 <f256main+0x16f7>
    3e9d: a2 06        	ldx	#$6
    3e9f: 64 14        	stz	$14                     ; 0x2014 <f256main+0x16f8>
    3ea1: a9 00        	lda	#$0
    3ea3: 20 02 69     	jsr	$6902 <__memset>
    3ea6: a0 09        	ldy	#$9
    3ea8: a9 78        	lda	#$78
    3eaa: 91 89        	sta	($89),y                 ; 0x2089 <f256main+0x176d>
    3eac: a0 00        	ldy	#$0
    3eae: a6 89        	ldx	$89                     ; 0x2089 <f256main+0x176d>
    3eb0: 86 12        	stx	$12                     ; 0x2012 <f256main+0x16f6>
    3eb2: a6 8a        	ldx	$8a                     ; 0x208a <f256main+0x176e>
    3eb4: 86 13        	stx	$13                     ; 0x2013 <f256main+0x16f7>
    3eb6: e6 12        	inc	$12                     ; 0x2012 <f256main+0x16f6>
    3eb8: d0 02        	bne	$3ebc <escReset+0xe2>
    3eba: e6 13        	inc	$13                     ; 0x2013 <f256main+0x16f7>
    3ebc: 84 14        	sty	$14                     ; 0x2014 <f256main+0x16f8>
    3ebe: a0 01        	ldy	#$1
    3ec0: b1 89        	lda	($89),y                 ; 0x2089 <f256main+0x176d>
    3ec2: aa           	tax
    3ec3: b1 12        	lda	($12),y                 ; 0x2012 <f256main+0x16f6>
    3ec5: a4 14        	ldy	$14                     ; 0x2014 <f256main+0x16f8>
    3ec7: 85 13        	sta	$13                     ; 0x2013 <f256main+0x16f7>
    3ec9: 86 12        	stx	$12                     ; 0x2012 <f256main+0x16f6>
    3ecb: a9 00        	lda	#$0
    3ecd: 91 12        	sta	($12),y                 ; 0x2012 <f256main+0x16f6>
    3ecf: c8           	iny
    3ed0: c0 0a        	cpy	#$a
    3ed2: d0 da        	bne	$3eae <escReset+0xd4>
    3ed4: a2 02        	ldx	#$2
    3ed6: 86 01        	stx	$1                      ; 0x2001 <f256main+0x16e5>
    3ed8: a0 c0        	ldy	#$c0
    3eda: a2 00        	ldx	#$0
    3edc: a9 20        	lda	#$20
    3ede: 86 12        	stx	$12                     ; 0x2012 <f256main+0x16f6>
    3ee0: 84 13        	sty	$13                     ; 0x2013 <f256main+0x16f7>
    3ee2: 92 12        	sta	($12)                   ; 0x2012 <f256main+0x16f6>
    3ee4: e8           	inx
    3ee5: d0 01        	bne	$3ee8 <escReset+0x10e>
    3ee7: c8           	iny
    3ee8: c0 d2        	cpy	#$d2
    3eea: d0 f2        	bne	$3ede <escReset+0x104>
    3eec: e0 c0        	cpx	#$c0
    3eee: d0 ee        	bne	$3ede <escReset+0x104>
    3ef0: 64 01        	stz	$1                      ; 0x2001 <f256main+0x16e5>
    3ef2: a6 6a        	ldx	$6a                     ; 0x206a <f256main+0x174e>
    3ef4: a4 6b        	ldy	$6b                     ; 0x206b <f256main+0x174f>
    3ef6: 86 12        	stx	$12                     ; 0x2012 <f256main+0x16f6>
    3ef8: 84 13        	sty	$13                     ; 0x2013 <f256main+0x16f7>
    3efa: 20 f0 49     	jsr	$49f0 <refreshInstrumentText>
    3efd: a6 6a        	ldx	$6a                     ; 0x206a <f256main+0x174e>
    3eff: a4 6b        	ldy	$6b                     ; 0x206b <f256main+0x174f>
    3f01: 86 12        	stx	$12                     ; 0x2012 <f256main+0x16f6>
    3f03: 84 13        	sty	$13                     ; 0x2013 <f256main+0x16f7>
    3f05: 20 cb 50     	jsr	$50cb <textTitle>
    3f08: ad 04 d4     	lda	$d404                   ; 0xd404 <__heap_start+0x40fe>
    3f0b: 29 fe        	and	#$fe
    3f0d: 8d 04 d4     	sta	$d404                   ; 0xd404 <__heap_start+0x40fe>
    3f10: ad 0b d4     	lda	$d40b                   ; 0xd40b <__heap_start+0x4105>
    3f13: 29 fe        	and	#$fe
    3f15: 8d 0b d4     	sta	$d40b                   ; 0xd40b <__heap_start+0x4105>
    3f18: ad 12 d4     	lda	$d412                   ; 0xd412 <__heap_start+0x410c>
    3f1b: 29 fe        	and	#$fe
    3f1d: 8d 12 d4     	sta	$d412                   ; 0xd412 <__heap_start+0x410c>
    3f20: ad 04 d5     	lda	$d504                   ; 0xd504 <__heap_start+0x41fe>
    3f23: 29 fe        	and	#$fe
    3f25: 8d 04 d5     	sta	$d504                   ; 0xd504 <__heap_start+0x41fe>
    3f28: ad 0b d5     	lda	$d50b                   ; 0xd50b <__heap_start+0x4205>
    3f2b: 29 fe        	and	#$fe
    3f2d: 8d 0b d5     	sta	$d50b                   ; 0xd50b <__heap_start+0x4205>
    3f30: ad 12 d5     	lda	$d512                   ; 0xd512 <__heap_start+0x420c>
    3f33: 29 fe        	and	#$fe
    3f35: 8d 12 d5     	sta	$d512                   ; 0xd512 <__heap_start+0x420c>
    3f38: a2 10        	ldx	#$10
    3f3a: a0 ff        	ldy	#$ff
    3f3c: 8a           	txa
    3f3d: 09 9f        	ora	#$9f
    3f3f: 8d 00 d6     	sta	$d600                   ; 0xd600 <__heap_start+0x42fa>
    3f42: 8d 10 d6     	sta	$d610                   ; 0xd610 <__heap_start+0x430a>
    3f45: 18           	clc
    3f46: 98           	tya
    3f47: 69 02        	adc	#$2
    3f49: 85 12        	sta	$12                     ; 0x2012 <f256main+0x16f6>
    3f4b: 18           	clc
    3f4c: 8a           	txa
    3f4d: 69 20        	adc	#$20
    3f4f: aa           	tax
    3f50: a4 12        	ldy	$12                     ; 0x2012 <f256main+0x16f6>
    3f52: a5 12        	lda	$12                     ; 0x2012 <f256main+0x16f6>
    3f54: c9 06        	cmp	#$6
    3f56: 90 e4        	bcc	$3f3c <escReset+0x162>
    3f58: 64 61        	stz	$61                     ; 0x2061 <f256main+0x1745>
    3f5a: a2 c2        	ldx	#$c2
    3f5c: 8e b1 dd     	stx	$ddb1                   ; 0xddb1 <__heap_start+0x4aab>
    3f5f: a0 73        	ldy	#$73
    3f61: 8c b1 dd     	sty	$ddb1                   ; 0xddb1 <__heap_start+0x4aab>
    3f64: 8e a1 dd     	stx	$dda1                   ; 0xdda1 <__heap_start+0x4a9b>
    3f67: 8c a1 dd     	sty	$dda1                   ; 0xdda1 <__heap_start+0x4a9b>
    3f6a: a6 6a        	ldx	$6a                     ; 0x206a <f256main+0x174e>
    3f6c: a4 6b        	ldy	$6b                     ; 0x206b <f256main+0x174f>
    3f6e: 86 12        	stx	$12                     ; 0x2012 <f256main+0x16f6>
    3f70: 84 13        	sty	$13                     ; 0x2013 <f256main+0x16f7>
    3f72: 86 14        	stx	$14                     ; 0x2014 <f256main+0x16f8>
    3f74: 84 15        	sty	$15                     ; 0x2015 <f256main+0x16f9>
    3f76: e6 14        	inc	$14                     ; 0x2014 <f256main+0x16f8>
    3f78: d0 02        	bne	$3f7c <escReset+0x1a2>
    3f7a: e6 15        	inc	$15                     ; 0x2015 <f256main+0x16f9>
    3f7c: a0 01        	ldy	#$1
    3f7e: b1 12        	lda	($12),y                 ; 0x2012 <f256main+0x16f6>
    3f80: 85 16        	sta	$16                     ; 0x2016 <f256main+0x16fa>
    3f82: b1 14        	lda	($14),y                 ; 0x2014 <f256main+0x16f8>
    3f84: 85 17        	sta	$17                     ; 0x2017 <f256main+0x16fb>
    3f86: a9 00        	lda	#$0
    3f88: 92 16        	sta	($16)                   ; 0x2016 <f256main+0x16fa>
    3f8a: b1 12        	lda	($12),y                 ; 0x2012 <f256main+0x16f6>
    3f8c: 85 16        	sta	$16                     ; 0x2016 <f256main+0x16fa>
    3f8e: b1 14        	lda	($14),y                 ; 0x2014 <f256main+0x16f8>
    3f90: 85 17        	sta	$17                     ; 0x2017 <f256main+0x16fb>
    3f92: a9 00        	lda	#$0
    3f94: 91 16        	sta	($16),y                 ; 0x2016 <f256main+0x16fa>
    3f96: b1 12        	lda	($12),y                 ; 0x2012 <f256main+0x16f6>
    3f98: 85 12        	sta	$12                     ; 0x2012 <f256main+0x16f6>
    3f9a: b1 14        	lda	($14),y                 ; 0x2014 <f256main+0x16f8>
    3f9c: 85 13        	sta	$13                     ; 0x2013 <f256main+0x16f7>
    3f9e: a0 09        	ldy	#$9
    3fa0: a9 00        	lda	#$0
    3fa2: 91 12        	sta	($12),y                 ; 0x2012 <f256main+0x16f6>
    3fa4: 60           	rts

00003fa5 <prepTempoLUT>:
    3fa5: 18           	clc
    3fa6: a5 10        	lda	$10                     ; 0x2010 <f256main+0x16f4>
    3fa8: 69 fe        	adc	#$fe
    3faa: 85 10        	sta	$10                     ; 0x2010 <f256main+0x16f4>
    3fac: a5 11        	lda	$11                     ; 0x2011 <f256main+0x16f5>
    3fae: 69 ff        	adc	#$ff
    3fb0: 85 11        	sta	$11                     ; 0x2011 <f256main+0x16f5>
    3fb2: a6 6a        	ldx	$6a                     ; 0x206a <f256main+0x174e>
    3fb4: a4 6b        	ldy	$6b                     ; 0x206b <f256main+0x174f>
    3fb6: 86 12        	stx	$12                     ; 0x2012 <f256main+0x16f6>
    3fb8: 84 13        	sty	$13                     ; 0x2013 <f256main+0x16f7>
    3fba: a0 09        	ldy	#$9
    3fbc: b1 12        	lda	($12),y                 ; 0x2012 <f256main+0x16f6>
    3fbe: 64 12        	stz	$12                     ; 0x2012 <f256main+0x16f6>
    3fc0: 64 13        	stz	$13                     ; 0x2013 <f256main+0x16f7>
    3fc2: a2 00        	ldx	#$0
    3fc4: 20 bf 7a     	jsr	$7abf <__floatunsisf>
    3fc7: 85 14        	sta	$14                     ; 0x2014 <f256main+0x16f8>
    3fc9: 86 15        	stx	$15                     ; 0x2015 <f256main+0x16f9>
    3fcb: a6 12        	ldx	$12                     ; 0x2012 <f256main+0x16f6>
    3fcd: a4 13        	ldy	$13                     ; 0x2013 <f256main+0x16f7>
    3fcf: a9 e1        	lda	#$e1
    3fd1: 85 12        	sta	$12                     ; 0x2012 <f256main+0x16f6>
    3fd3: a9 43        	lda	#$43
    3fd5: 85 13        	sta	$13                     ; 0x2013 <f256main+0x16f7>
    3fd7: 86 16        	stx	$16                     ; 0x2016 <f256main+0x16fa>
    3fd9: 84 17        	sty	$17                     ; 0x2017 <f256main+0x16fb>
    3fdb: a2 00        	ldx	#$0
    3fdd: 64 89        	stz	$89                     ; 0x2089 <f256main+0x176d>
    3fdf: 8a           	txa
    3fe0: 20 b1 6e     	jsr	$6eb1 <__divsf3>
    3fe3: 20 43 7a     	jsr	$7a43 <__fixunssfsi>
    3fe6: 85 13        	sta	$13                     ; 0x2013 <f256main+0x16f7>
    3fe8: 85 6c        	sta	$6c                     ; 0x206c <f256main+0x1750>
    3fea: a0 01        	ldy	#$1
    3fec: 84 12        	sty	$12                     ; 0x2012 <f256main+0x16f6>
    3fee: a5 13        	lda	$13                     ; 0x2013 <f256main+0x16f7>
    3ff0: 0a           	asl
    3ff1: c6 12        	dec	$12                     ; 0x2012 <f256main+0x16f6>
    3ff3: d0 fb        	bne	$3ff0 <prepTempoLUT+0x4b>
    3ff5: a6 89        	ldx	$89                     ; 0x2089 <f256main+0x176d>
    3ff7: 9d 6d 00     	sta	$6d,x                   ; 0x6d <mainTempoLUT+0x1>
    3ffa: c8           	iny
    3ffb: e8           	inx
    3ffc: 86 89        	stx	$89                     ; 0x2089 <f256main+0x176d>
    3ffe: c0 06        	cpy	#$6
    4000: d0 ea        	bne	$3fec <prepTempoLUT+0x47>
    4002: 64 89        	stz	$89                     ; 0x2089 <f256main+0x176d>
    4004: a2 00        	ldx	#$0
    4006: b5 6c        	lda	$6c,x                   ; 0x206c <f256main+0x1750>
    4008: 0a           	asl
    4009: 64 14        	stz	$14                     ; 0x2014 <f256main+0x16f8>
    400b: 26 14        	rol	$14                     ; 0x2014 <f256main+0x16f8>
    400d: 86 8a        	stx	$8a                     ; 0x208a <f256main+0x176e>
    400f: a2 03        	ldx	#$3
    4011: 86 12        	stx	$12                     ; 0x2012 <f256main+0x16f6>
    4013: 64 13        	stz	$13                     ; 0x2013 <f256main+0x16f7>
    4015: a6 14        	ldx	$14                     ; 0x2014 <f256main+0x16f8>
    4017: 20 61 6b     	jsr	$6b61 <__udivhi3>
    401a: a6 8a        	ldx	$8a                     ; 0x208a <f256main+0x176e>
    401c: 9d 72 00     	sta	$72,x                   ; 0x72 <mainTempoLUT+0x6>
    401f: e8           	inx
    4020: e0 06        	cpx	#$6
    4022: d0 e2        	bne	$4006 <prepTempoLUT+0x61>
    4024: a5 6d        	lda	$6d                     ; 0x206d <f256main+0x1751>
    4026: 0a           	asl
    4027: 85 12        	sta	$12                     ; 0x2012 <f256main+0x16f6>
    4029: 0a           	asl
    402a: 0a           	asl
    402b: 0a           	asl
    402c: 18           	clc
    402d: 65 12        	adc	$12                     ; 0x2012 <f256main+0x16f6>
    402f: 85 7d        	sta	$7d                     ; 0x207d <f256main+0x1761>
    4031: a2 03        	ldx	#$3
    4033: 20 05 6b     	jsr	$6b05 <__udivqi3>
    4036: 0a           	asl
    4037: 85 77        	sta	$77                     ; 0x2077 <f256main+0x175b>
    4039: 64 12        	stz	$12                     ; 0x2012 <f256main+0x16f6>
    403b: 64 33        	stz	$33                     ; 0x2033 <f256main+0x1717>
    403d: 9c 14 d0     	stz	$d014                   ; 0xd014 <__heap_start+0x3d0e>
    4040: 9c 15 d0     	stz	$d015                   ; 0xd015 <__heap_start+0x3d0f>
    4043: a2 0a        	ldx	#$a
    4045: 86 34        	stx	$34                     ; 0x2034 <f256main+0x1718>
    4047: 8e 16 d0     	stx	$d016                   ; 0xd016 <__heap_start+0x3d10>
    404a: 9c 17 d0     	stz	$d017                   ; 0xd017 <__heap_start+0x3d11>
    404d: a2 00        	ldx	#$0
    404f: b5 6c        	lda	$6c,x                   ; 0x206c <f256main+0x1750>
    4051: 92 10        	sta	($10)                   ; 0x2010 <f256main+0x16f4>
    4053: a9 00        	lda	#$0
    4055: a0 01        	ldy	#$1
    4057: 91 10        	sta	($10),y                 ; 0x2010 <f256main+0x16f4>
    4059: a0 2b        	ldy	#$2b
    405b: 84 12        	sty	$12                     ; 0x2012 <f256main+0x16f6>
    405d: a0 8a        	ldy	#$8a
    405f: 84 13        	sty	$13                     ; 0x2013 <f256main+0x16f7>
    4061: 86 89        	stx	$89                     ; 0x2089 <f256main+0x176d>
    4063: 20 45 59     	jsr	$5945 <printf>
    4066: a6 89        	ldx	$89                     ; 0x2089 <f256main+0x176d>
    4068: e8           	inx
    4069: e0 12        	cpx	#$12
    406b: d0 e2        	bne	$404f <prepTempoLUT+0xaa>
    406d: 18           	clc
    406e: a5 10        	lda	$10                     ; 0x2010 <f256main+0x16f4>
    4070: 69 02        	adc	#$2
    4072: 85 10        	sta	$10                     ; 0x2010 <f256main+0x16f4>
    4074: a5 11        	lda	$11                     ; 0x2011 <f256main+0x16f5>
    4076: 69 00        	adc	#$0
    4078: 85 11        	sta	$11                     ; 0x2011 <f256main+0x16f5>
    407a: 60           	rts

0000407b <textPrintUInt>:
    407b: 48           	pha
    407c: 18           	clc
    407d: a5 10        	lda	$10                     ; 0x2010 <f256main+0x16f4>
    407f: 69 fe        	adc	#$fe
    4081: 85 10        	sta	$10                     ; 0x2010 <f256main+0x16f4>
    4083: a5 11        	lda	$11                     ; 0x2011 <f256main+0x16f5>
    4085: 69 ff        	adc	#$ff
    4087: 85 11        	sta	$11                     ; 0x2011 <f256main+0x16f5>
    4089: 68           	pla
    408a: a4 24        	ldy	$24                     ; 0x2024 <f256main+0x1708>
    408c: 5a           	phy
    408d: a4 25        	ldy	$25                     ; 0x2025 <f256main+0x1709>
    408f: 5a           	phy
    4090: a4 26        	ldy	$26                     ; 0x2026 <f256main+0x170a>
    4092: 5a           	phy
    4093: a4 27        	ldy	$27                     ; 0x2027 <f256main+0x170b>
    4095: 5a           	phy
    4096: 86 25        	stx	$25                     ; 0x2025 <f256main+0x1709>
    4098: a4 12        	ldy	$12                     ; 0x2012 <f256main+0x16f6>
    409a: a6 13        	ldx	$13                     ; 0x2013 <f256main+0x16f7>
    409c: d0 18        	bne	$40b6 <textPrintUInt+0x3b>
    409e: 86 27        	stx	$27                     ; 0x2027 <f256main+0x170b>
    40a0: c0 00        	cpy	#$0
    40a2: f0 03        	beq	$40a7 <textPrintUInt+0x2c>
    40a4: 4c 26 41     	jmp	$4126 <textPrintUInt+0xab>
    40a7: a6 25        	ldx	$25                     ; 0x2025 <f256main+0x1709>
    40a9: f0 03        	beq	$40ae <textPrintUInt+0x33>
    40ab: 4c 2f 41     	jmp	$412f <textPrintUInt+0xb4>
    40ae: 84 26        	sty	$26                     ; 0x2026 <f256main+0x170a>
    40b0: c9 0a        	cmp	#$a
    40b2: b0 0a        	bcs	$40be <textPrintUInt+0x43>
    40b4: 80 29        	bra	$40df <textPrintUInt+0x64>
    40b6: 84 26        	sty	$26                     ; 0x2026 <f256main+0x170a>
    40b8: 86 27        	stx	$27                     ; 0x2027 <f256main+0x170b>
    40ba: e0 00        	cpx	#$0
    40bc: 90 21        	bcc	$40df <textPrintUInt+0x64>
    40be: 8d 06 de     	sta	$de06                   ; 0xde06 <__heap_start+0x4b00>
    40c1: a4 25        	ldy	$25                     ; 0x2025 <f256main+0x1709>
    40c3: 8c 07 de     	sty	$de07                   ; 0xde07 <__heap_start+0x4b01>
    40c6: a2 0a        	ldx	#$a
    40c8: 8e 04 de     	stx	$de04                   ; 0xde04 <__heap_start+0x4afe>
    40cb: 9c 05 de     	stz	$de05                   ; 0xde05 <__heap_start+0x4aff>
    40ce: 85 24        	sta	$24                     ; 0x2024 <f256main+0x1708>
    40d0: ad 14 de     	lda	$de14                   ; 0xde14 <__heap_start+0x4b0e>
    40d3: ae 15 de     	ldx	$de15                   ; 0xde15 <__heap_start+0x4b0f>
    40d6: 64 12        	stz	$12                     ; 0x2012 <f256main+0x16f6>
    40d8: 64 13        	stz	$13                     ; 0x2013 <f256main+0x16f7>
    40da: 20 7b 40     	jsr	$407b <textPrintUInt>
    40dd: a5 24        	lda	$24                     ; 0x2024 <f256main+0x1708>
    40df: a2 0a        	ldx	#$a
    40e1: a4 26        	ldy	$26                     ; 0x2026 <f256main+0x170a>
    40e3: 84 12        	sty	$12                     ; 0x2012 <f256main+0x16f6>
    40e5: a4 27        	ldy	$27                     ; 0x2027 <f256main+0x170b>
    40e7: 84 13        	sty	$13                     ; 0x2013 <f256main+0x16f7>
    40e9: 86 14        	stx	$14                     ; 0x2014 <f256main+0x16f8>
    40eb: 64 15        	stz	$15                     ; 0x2015 <f256main+0x16f9>
    40ed: 64 16        	stz	$16                     ; 0x2016 <f256main+0x16fa>
    40ef: 64 17        	stz	$17                     ; 0x2017 <f256main+0x16fb>
    40f1: a6 25        	ldx	$25                     ; 0x2025 <f256main+0x1709>
    40f3: 20 21 6c     	jsr	$6c21 <__umodsi3>
    40f6: 09 30        	ora	#$30
    40f8: 18           	clc
    40f9: a6 10        	ldx	$10                     ; 0x2010 <f256main+0x16f4>
    40fb: 86 12        	stx	$12                     ; 0x2012 <f256main+0x16f6>
    40fd: a6 11        	ldx	$11                     ; 0x2011 <f256main+0x16f5>
    40ff: 86 13        	stx	$13                     ; 0x2013 <f256main+0x16f7>
    4101: 92 12        	sta	($12)                   ; 0x2012 <f256main+0x16f6>
    4103: a0 01        	ldy	#$1
    4105: a9 00        	lda	#$0
    4107: 91 12        	sta	($12),y                 ; 0x2012 <f256main+0x16f6>
    4109: 20 63 30     	jsr	$3063 <textPrint>
    410c: fa           	plx
    410d: 86 27        	stx	$27                     ; 0x2027 <f256main+0x170b>
    410f: fa           	plx
    4110: 86 26        	stx	$26                     ; 0x2026 <f256main+0x170a>
    4112: fa           	plx
    4113: 86 25        	stx	$25                     ; 0x2025 <f256main+0x1709>
    4115: fa           	plx
    4116: 86 24        	stx	$24                     ; 0x2024 <f256main+0x1708>
    4118: 18           	clc
    4119: a5 10        	lda	$10                     ; 0x2010 <f256main+0x16f4>
    411b: 69 02        	adc	#$2
    411d: 85 10        	sta	$10                     ; 0x2010 <f256main+0x16f4>
    411f: a5 11        	lda	$11                     ; 0x2011 <f256main+0x16f5>
    4121: 69 00        	adc	#$0
    4123: 85 11        	sta	$11                     ; 0x2011 <f256main+0x16f5>
    4125: 60           	rts
    4126: 84 26        	sty	$26                     ; 0x2026 <f256main+0x170a>
    4128: c0 00        	cpy	#$0
    412a: 90 b3        	bcc	$40df <textPrintUInt+0x64>
    412c: 4c be 40     	jmp	$40be <textPrintUInt+0x43>
    412f: 84 26        	sty	$26                     ; 0x2026 <f256main+0x170a>
    4131: a6 25        	ldx	$25                     ; 0x2025 <f256main+0x1709>
    4133: 4c ba 40     	jmp	$40ba <textPrintUInt+0x3f>

00004136 <opl3_setInstrument>:
    4136: c9 03        	cmp	#$3
    4138: 90 0c        	bcc	$4146 <opl3_setInstrument+0x10>
    413a: c9 06        	cmp	#$6
    413c: 90 05        	bcc	$4143 <opl3_setInstrument+0xd>
    413e: 18           	clc
    413f: 69 0a        	adc	#$a
    4141: 80 03        	bra	$4146 <opl3_setInstrument+0x10>
    4143: 18           	clc
    4144: 69 05        	adc	#$5
    4146: a2 80        	ldx	#$80
    4148: 86 14        	stx	$14                     ; 0x2014 <f256main+0x16f8>
    414a: a2 d5        	ldx	#$d5
    414c: 86 15        	stx	$15                     ; 0x2015 <f256main+0x16f9>
    414e: aa           	tax
    414f: 09 20        	ora	#$20
    4151: 85 17        	sta	$17                     ; 0x2017 <f256main+0x16fb>
    4153: a0 01        	ldy	#$1
    4155: b1 12        	lda	($12),y                 ; 0x2012 <f256main+0x16f6>
    4157: a4 17        	ldy	$17                     ; 0x2017 <f256main+0x16fb>
    4159: 8c 80 d5     	sty	$d580                   ; 0xd580 <__heap_start+0x427a>
    415c: 8d 81 d5     	sta	$d581                   ; 0xd581 <__heap_start+0x427b>
    415f: 18           	clc
    4160: 8a           	txa
    4161: 69 03        	adc	#$3
    4163: a8           	tay
    4164: b2 12        	lda	($12)                   ; 0x2012 <f256main+0x16f6>
    4166: 85 18        	sta	$18                     ; 0x2018 <f256main+0x16fc>
    4168: 86 16        	stx	$16                     ; 0x2016 <f256main+0x16fa>
    416a: e0 fd        	cpx	#$fd
    416c: 98           	tya
    416d: 84 17        	sty	$17                     ; 0x2017 <f256main+0x16fb>
    416f: 09 20        	ora	#$20
    4171: 90 08        	bcc	$417b <opl3_setInstrument+0x45>
    4173: a2 82        	ldx	#$82
    4175: 86 14        	stx	$14                     ; 0x2014 <f256main+0x16f8>
    4177: a2 d5        	ldx	#$d5
    4179: 86 15        	stx	$15                     ; 0x2015 <f256main+0x16f9>
    417b: 92 14        	sta	($14)                   ; 0x2014 <f256main+0x16f8>
    417d: a6 18        	ldx	$18                     ; 0x2018 <f256main+0x16fc>
    417f: 8e 81 d5     	stx	$d581                   ; 0xd581 <__heap_start+0x427b>
    4182: a6 16        	ldx	$16                     ; 0x2016 <f256main+0x16fa>
    4184: a5 16        	lda	$16                     ; 0x2016 <f256main+0x16fa>
    4186: 09 40        	ora	#$40
    4188: 85 18        	sta	$18                     ; 0x2018 <f256main+0x16fc>
    418a: a0 03        	ldy	#$3
    418c: b1 12        	lda	($12),y                 ; 0x2012 <f256main+0x16f6>
    418e: a4 18        	ldy	$18                     ; 0x2018 <f256main+0x16fc>
    4190: 8c 80 d5     	sty	$d580                   ; 0xd580 <__heap_start+0x427a>
    4193: 8d 81 d5     	sta	$d581                   ; 0xd581 <__heap_start+0x427b>
    4196: a0 02        	ldy	#$2
    4198: b1 12        	lda	($12),y                 ; 0x2012 <f256main+0x16f6>
    419a: 85 16        	sta	$16                     ; 0x2016 <f256main+0x16fa>
    419c: a5 17        	lda	$17                     ; 0x2017 <f256main+0x16fb>
    419e: 09 40        	ora	#$40
    41a0: 92 14        	sta	($14)                   ; 0x2014 <f256main+0x16f8>
    41a2: a4 16        	ldy	$16                     ; 0x2016 <f256main+0x16fa>
    41a4: 8c 81 d5     	sty	$d581                   ; 0xd581 <__heap_start+0x427b>
    41a7: 8a           	txa
    41a8: 09 60        	ora	#$60
    41aa: 85 18        	sta	$18                     ; 0x2018 <f256main+0x16fc>
    41ac: a0 05        	ldy	#$5
    41ae: b1 12        	lda	($12),y                 ; 0x2012 <f256main+0x16f6>
    41b0: a4 18        	ldy	$18                     ; 0x2018 <f256main+0x16fc>
    41b2: 8c 80 d5     	sty	$d580                   ; 0xd580 <__heap_start+0x427a>
    41b5: 8d 81 d5     	sta	$d581                   ; 0xd581 <__heap_start+0x427b>
    41b8: a0 04        	ldy	#$4
    41ba: b1 12        	lda	($12),y                 ; 0x2012 <f256main+0x16f6>
    41bc: 85 16        	sta	$16                     ; 0x2016 <f256main+0x16fa>
    41be: a5 17        	lda	$17                     ; 0x2017 <f256main+0x16fb>
    41c0: 09 60        	ora	#$60
    41c2: 92 14        	sta	($14)                   ; 0x2014 <f256main+0x16f8>
    41c4: a4 16        	ldy	$16                     ; 0x2016 <f256main+0x16fa>
    41c6: 8c 81 d5     	sty	$d581                   ; 0xd581 <__heap_start+0x427b>
    41c9: 8a           	txa
    41ca: 09 80        	ora	#$80
    41cc: 85 18        	sta	$18                     ; 0x2018 <f256main+0x16fc>
    41ce: a0 07        	ldy	#$7
    41d0: b1 12        	lda	($12),y                 ; 0x2012 <f256main+0x16f6>
    41d2: a4 18        	ldy	$18                     ; 0x2018 <f256main+0x16fc>
    41d4: 8c 80 d5     	sty	$d580                   ; 0xd580 <__heap_start+0x427a>
    41d7: 8d 81 d5     	sta	$d581                   ; 0xd581 <__heap_start+0x427b>
    41da: a0 06        	ldy	#$6
    41dc: b1 12        	lda	($12),y                 ; 0x2012 <f256main+0x16f6>
    41de: 85 16        	sta	$16                     ; 0x2016 <f256main+0x16fa>
    41e0: a5 17        	lda	$17                     ; 0x2017 <f256main+0x16fb>
    41e2: 09 80        	ora	#$80
    41e4: 92 14        	sta	($14)                   ; 0x2014 <f256main+0x16f8>
    41e6: a4 16        	ldy	$16                     ; 0x2016 <f256main+0x16fa>
    41e8: 8c 81 d5     	sty	$d581                   ; 0xd581 <__heap_start+0x427b>
    41eb: 8a           	txa
    41ec: 09 e0        	ora	#$e0
    41ee: aa           	tax
    41ef: a0 09        	ldy	#$9
    41f1: b1 12        	lda	($12),y                 ; 0x2012 <f256main+0x16f6>
    41f3: 8e 80 d5     	stx	$d580                   ; 0xd580 <__heap_start+0x427a>
    41f6: 8d 81 d5     	sta	$d581                   ; 0xd581 <__heap_start+0x427b>
    41f9: 88           	dey
    41fa: b1 12        	lda	($12),y                 ; 0x2012 <f256main+0x16f6>
    41fc: 85 12        	sta	$12                     ; 0x2012 <f256main+0x16f6>
    41fe: a5 17        	lda	$17                     ; 0x2017 <f256main+0x16fb>
    4200: 09 e0        	ora	#$e0
    4202: 92 14        	sta	($14)                   ; 0x2014 <f256main+0x16f8>
    4204: a6 12        	ldx	$12                     ; 0x2012 <f256main+0x16f6>
    4206: 8e 81 d5     	stx	$d581                   ; 0xd581 <__heap_start+0x427b>
    4209: 60           	rts

0000420a <opl3_setInstrumentAllChannels>:
    420a: a2 0b        	ldx	#$b
    420c: 86 12        	stx	$12                     ; 0x2012 <f256main+0x16f6>
    420e: 64 13        	stz	$13                     ; 0x2013 <f256main+0x16f7>
    4210: 64 8b        	stz	$8b                     ; 0x208b <f256main+0x176f>
    4212: a2 00        	ldx	#$0
    4214: 20 6b 69     	jsr	$696b <__mulhi3>
    4217: 85 12        	sta	$12                     ; 0x2012 <f256main+0x16f6>
    4219: 86 13        	stx	$13                     ; 0x2013 <f256main+0x16f7>
    421b: a9 c9        	lda	#$c9
    421d: 18           	clc
    421e: 65 12        	adc	$12                     ; 0x2012 <f256main+0x16f6>
    4220: 85 89        	sta	$89                     ; 0x2089 <f256main+0x176d>
    4222: a9 90        	lda	#$90
    4224: 65 13        	adc	$13                     ; 0x2013 <f256main+0x16f7>
    4226: 85 8a        	sta	$8a                     ; 0x208a <f256main+0x176e>
    4228: a6 89        	ldx	$89                     ; 0x2089 <f256main+0x176d>
    422a: 86 12        	stx	$12                     ; 0x2012 <f256main+0x16f6>
    422c: a6 8a        	ldx	$8a                     ; 0x208a <f256main+0x176e>
    422e: 86 13        	stx	$13                     ; 0x2013 <f256main+0x16f7>
    4230: a5 8b        	lda	$8b                     ; 0x208b <f256main+0x176f>
    4232: 20 36 41     	jsr	$4136 <opl3_setInstrument>
    4235: a0 0a        	ldy	#$a
    4237: b1 89        	lda	($89),y                 ; 0x2089 <f256main+0x176d>
    4239: 85 12        	sta	$12                     ; 0x2012 <f256main+0x16f6>
    423b: 18           	clc
    423c: a6 8b        	ldx	$8b                     ; 0x208b <f256main+0x176f>
    423e: a5 8b        	lda	$8b                     ; 0x208b <f256main+0x176f>
    4240: 69 c0        	adc	#$c0
    4242: 8d 80 d5     	sta	$d580                   ; 0xd580 <__heap_start+0x427a>
    4245: a4 12        	ldy	$12                     ; 0x2012 <f256main+0x16f6>
    4247: 8c 81 d5     	sty	$d581                   ; 0xd581 <__heap_start+0x427b>
    424a: e8           	inx
    424b: 86 8b        	stx	$8b                     ; 0x208b <f256main+0x176f>
    424d: e0 09        	cpx	#$9
    424f: d0 d7        	bne	$4228 <opl3_setInstrumentAllChannels+0x1e>
    4251: 60           	rts

00004252 <sid_setInstrument>:
    4252: a8           	tay
    4253: a9 00        	lda	#$0
    4255: 85 8c        	sta	$8c                     ; 0x208c <f256main+0x1770>
    4257: 98           	tya
    4258: f0 04        	beq	$425e <sid_setInstrument+0xc>
    425a: a0 d5        	ldy	#$d5
    425c: 80 02        	bra	$4260 <sid_setInstrument+0xe>
    425e: a0 d4        	ldy	#$d4
    4260: 84 8d        	sty	$8d                     ; 0x208d <f256main+0x1771>
    4262: e0 02        	cpx	#$2
    4264: f0 08        	beq	$426e <sid_setInstrument+0x1c>
    4266: e0 01        	cpx	#$1
    4268: d0 08        	bne	$4272 <sid_setInstrument+0x20>
    426a: a2 07        	ldx	#$7
    426c: 80 02        	bra	$4270 <sid_setInstrument+0x1e>
    426e: a2 0e        	ldx	#$e
    4270: 86 8c        	stx	$8c                     ; 0x208c <f256main+0x1770>
    4272: a0 01        	ldy	#$1
    4274: b1 12        	lda	($12),y                 ; 0x2012 <f256main+0x16f6>
    4276: 85 17        	sta	$17                     ; 0x2017 <f256main+0x16fb>
    4278: a6 8c        	ldx	$8c                     ; 0x208c <f256main+0x1770>
    427a: 86 16        	stx	$16                     ; 0x2016 <f256main+0x16fa>
    427c: 8a           	txa
    427d: 18           	clc
    427e: 69 02        	adc	#$2
    4280: 85 14        	sta	$14                     ; 0x2014 <f256main+0x16f8>
    4282: a6 8d        	ldx	$8d                     ; 0x208d <f256main+0x1771>
    4284: 8a           	txa
    4285: 69 00        	adc	#$0
    4287: 85 15        	sta	$15                     ; 0x2015 <f256main+0x16f9>
    4289: a5 17        	lda	$17                     ; 0x2017 <f256main+0x16fb>
    428b: 92 14        	sta	($14)                   ; 0x2014 <f256main+0x16f8>
    428d: c8           	iny
    428e: b1 12        	lda	($12),y                 ; 0x2012 <f256main+0x16f6>
    4290: 85 17        	sta	$17                     ; 0x2017 <f256main+0x16fb>
    4292: a5 16        	lda	$16                     ; 0x2016 <f256main+0x16fa>
    4294: 18           	clc
    4295: 69 03        	adc	#$3
    4297: 85 14        	sta	$14                     ; 0x2014 <f256main+0x16f8>
    4299: 8a           	txa
    429a: 69 00        	adc	#$0
    429c: 85 15        	sta	$15                     ; 0x2015 <f256main+0x16f9>
    429e: a5 17        	lda	$17                     ; 0x2017 <f256main+0x16fb>
    42a0: 92 14        	sta	($14)                   ; 0x2014 <f256main+0x16f8>
    42a2: c8           	iny
    42a3: b1 12        	lda	($12),y                 ; 0x2012 <f256main+0x16f6>
    42a5: 85 17        	sta	$17                     ; 0x2017 <f256main+0x16fb>
    42a7: a5 16        	lda	$16                     ; 0x2016 <f256main+0x16fa>
    42a9: 18           	clc
    42aa: 69 05        	adc	#$5
    42ac: 85 14        	sta	$14                     ; 0x2014 <f256main+0x16f8>
    42ae: 8a           	txa
    42af: 69 00        	adc	#$0
    42b1: 85 15        	sta	$15                     ; 0x2015 <f256main+0x16f9>
    42b3: a5 17        	lda	$17                     ; 0x2017 <f256main+0x16fb>
    42b5: 92 14        	sta	($14)                   ; 0x2014 <f256main+0x16f8>
    42b7: a5 16        	lda	$16                     ; 0x2016 <f256main+0x16fa>
    42b9: 18           	clc
    42ba: 69 06        	adc	#$6
    42bc: 85 14        	sta	$14                     ; 0x2014 <f256main+0x16f8>
    42be: 8a           	txa
    42bf: 69 00        	adc	#$0
    42c1: 18           	clc
    42c2: 85 15        	sta	$15                     ; 0x2015 <f256main+0x16f9>
    42c4: c8           	iny
    42c5: b1 12        	lda	($12),y                 ; 0x2012 <f256main+0x16f6>
    42c7: 92 14        	sta	($14)                   ; 0x2014 <f256main+0x16f8>
    42c9: a5 16        	lda	$16                     ; 0x2016 <f256main+0x16fa>
    42cb: 69 04        	adc	#$4
    42cd: 85 14        	sta	$14                     ; 0x2014 <f256main+0x16f8>
    42cf: 8a           	txa
    42d0: 69 00        	adc	#$0
    42d2: 85 15        	sta	$15                     ; 0x2015 <f256main+0x16f9>
    42d4: c8           	iny
    42d5: b1 12        	lda	($12),y                 ; 0x2012 <f256main+0x16f6>
    42d7: 92 14        	sta	($14)                   ; 0x2014 <f256main+0x16f8>
    42d9: 60           	rts

000042da <sid_setInstrumentAllChannels>:
    42da: 85 12        	sta	$12                     ; 0x2012 <f256main+0x16f6>
    42dc: 0a           	asl
    42dd: 64 13        	stz	$13                     ; 0x2013 <f256main+0x16f7>
    42df: 26 13        	rol	$13                     ; 0x2013 <f256main+0x16f7>
    42e1: 0a           	asl
    42e2: 26 13        	rol	$13                     ; 0x2013 <f256main+0x16f7>
    42e4: 0a           	asl
    42e5: 26 13        	rol	$13                     ; 0x2013 <f256main+0x16f7>
    42e7: 18           	clc
    42e8: 65 12        	adc	$12                     ; 0x2012 <f256main+0x16f6>
    42ea: 85 12        	sta	$12                     ; 0x2012 <f256main+0x16f6>
    42ec: a5 13        	lda	$13                     ; 0x2013 <f256main+0x16f7>
    42ee: 69 00        	adc	#$0
    42f0: 85 13        	sta	$13                     ; 0x2013 <f256main+0x16f7>
    42f2: a9 9c        	lda	#$9c
    42f4: 18           	clc
    42f5: 65 12        	adc	$12                     ; 0x2012 <f256main+0x16f6>
    42f7: 85 89        	sta	$89                     ; 0x2089 <f256main+0x176d>
    42f9: a9 90        	lda	#$90
    42fb: 65 13        	adc	$13                     ; 0x2013 <f256main+0x16f7>
    42fd: 85 8a        	sta	$8a                     ; 0x208a <f256main+0x176e>
    42ff: a2 00        	ldx	#$0
    4301: a4 89        	ldy	$89                     ; 0x2089 <f256main+0x176d>
    4303: 84 12        	sty	$12                     ; 0x2012 <f256main+0x16f6>
    4305: a4 8a        	ldy	$8a                     ; 0x208a <f256main+0x176e>
    4307: 84 13        	sty	$13                     ; 0x2013 <f256main+0x16f7>
    4309: 86 8b        	stx	$8b                     ; 0x208b <f256main+0x176f>
    430b: a9 00        	lda	#$0
    430d: 20 52 42     	jsr	$4252 <sid_setInstrument>
    4310: a6 89        	ldx	$89                     ; 0x2089 <f256main+0x176d>
    4312: 86 12        	stx	$12                     ; 0x2012 <f256main+0x16f6>
    4314: a6 8a        	ldx	$8a                     ; 0x208a <f256main+0x176e>
    4316: 86 13        	stx	$13                     ; 0x2013 <f256main+0x16f7>
    4318: a6 8b        	ldx	$8b                     ; 0x208b <f256main+0x176f>
    431a: a9 01        	lda	#$1
    431c: 20 52 42     	jsr	$4252 <sid_setInstrument>
    431f: a6 8b        	ldx	$8b                     ; 0x208b <f256main+0x176f>
    4321: e8           	inx
    4322: e0 03        	cpx	#$3
    4324: d0 db        	bne	$4301 <sid_setInstrumentAllChannels+0x27>
    4326: 9c 14 d4     	stz	$d414                   ; 0xd414 <__heap_start+0x410e>
    4329: 9c 15 d4     	stz	$d415                   ; 0xd415 <__heap_start+0x410f>
    432c: 9c 17 d4     	stz	$d417                   ; 0xd417 <__heap_start+0x4111>
    432f: b2 89        	lda	($89)                   ; 0x2089 <f256main+0x176d>
    4331: 8d 18 d4     	sta	$d418                   ; 0xd418 <__heap_start+0x4112>
    4334: 9c 14 d5     	stz	$d514                   ; 0xd514 <__heap_start+0x420e>
    4337: 9c 15 d5     	stz	$d515                   ; 0xd515 <__heap_start+0x420f>
    433a: 9c 17 d5     	stz	$d517                   ; 0xd517 <__heap_start+0x4211>
    433d: 8d 18 d5     	sta	$d518                   ; 0xd518 <__heap_start+0x4212>
    4340: 60           	rts

00004341 <setupMem4ABeat>:
    4341: 85 19        	sta	$19                     ; 0x2019 <f256main+0x16fd>
    4343: 86 1a        	stx	$1a                     ; 0x201a <f256main+0x16fe>
    4345: a6 14        	ldx	$14                     ; 0x2014 <f256main+0x16f8>
    4347: 0a           	asl
    4348: a8           	tay
    4349: a9 00        	lda	#$0
    434b: 2a           	rol
    434c: 84 14        	sty	$14                     ; 0x2014 <f256main+0x16f8>
    434e: 06 14        	asl	$14                     ; 0x2014 <f256main+0x16f8>
    4350: 2a           	rol
    4351: 06 14        	asl	$14                     ; 0x2014 <f256main+0x16f8>
    4353: 2a           	rol
    4354: 06 14        	asl	$14                     ; 0x2014 <f256main+0x16f8>
    4356: 2a           	rol
    4357: a8           	tay
    4358: 38           	sec
    4359: a5 14        	lda	$14                     ; 0x2014 <f256main+0x16f8>
    435b: e5 19        	sbc	$19                     ; 0x2019 <f256main+0x16fd>
    435d: 85 19        	sta	$19                     ; 0x2019 <f256main+0x16fd>
    435f: 98           	tya
    4360: e9 00        	sbc	#$0
    4362: 85 14        	sta	$14                     ; 0x2014 <f256main+0x16f8>
    4364: 18           	clc
    4365: a5 19        	lda	$19                     ; 0x2019 <f256main+0x16fd>
    4367: 65 12        	adc	$12                     ; 0x2012 <f256main+0x16f6>
    4369: a8           	tay
    436a: a5 13        	lda	$13                     ; 0x2013 <f256main+0x16f7>
    436c: 65 14        	adc	$14                     ; 0x2014 <f256main+0x16f8>
    436e: 85 8b        	sta	$8b                     ; 0x208b <f256main+0x176f>
    4370: 84 89        	sty	$89                     ; 0x2089 <f256main+0x176d>
    4372: 84 8d        	sty	$8d                     ; 0x208d <f256main+0x1771>
    4374: 85 8a        	sta	$8a                     ; 0x208a <f256main+0x176e>
    4376: a0 05        	ldy	#$5
    4378: a5 15        	lda	$15                     ; 0x2015 <f256main+0x16f9>
    437a: 91 89        	sta	($89),y                 ; 0x2089 <f256main+0x176d>
    437c: a0 03        	ldy	#$3
    437e: a5 1a        	lda	$1a                     ; 0x201a <f256main+0x16fe>
    4380: 91 89        	sta	($89),y                 ; 0x2089 <f256main+0x176d>
    4382: 18           	clc
    4383: a5 8d        	lda	$8d                     ; 0x208d <f256main+0x1771>
    4385: 69 05        	adc	#$5
    4387: 85 12        	sta	$12                     ; 0x2012 <f256main+0x16f6>
    4389: a5 8b        	lda	$8b                     ; 0x208b <f256main+0x176f>
    438b: 69 00        	adc	#$0
    438d: 85 13        	sta	$13                     ; 0x2013 <f256main+0x16f7>
    438f: a5 18        	lda	$18                     ; 0x2018 <f256main+0x16fc>
    4391: 91 12        	sta	($12),y                 ; 0x2012 <f256main+0x16f6>
    4393: 88           	dey
    4394: a5 17        	lda	$17                     ; 0x2017 <f256main+0x16fb>
    4396: 91 12        	sta	($12),y                 ; 0x2012 <f256main+0x16f6>
    4398: a9 00        	lda	#$0
    439a: 91 89        	sta	($89),y                 ; 0x2089 <f256main+0x176d>
    439c: a0 04        	ldy	#$4
    439e: 8a           	txa
    439f: 91 89        	sta	($89),y                 ; 0x2089 <f256main+0x176d>
    43a1: 86 14        	stx	$14                     ; 0x2014 <f256main+0x16f8>
    43a3: a0 01        	ldy	#$1
    43a5: a5 16        	lda	$16                     ; 0x2016 <f256main+0x16fa>
    43a7: 91 12        	sta	($12),y                 ; 0x2012 <f256main+0x16f6>
    43a9: a9 00        	lda	#$0
    43ab: 92 89        	sta	($89)                   ; 0x2089 <f256main+0x176d>
    43ad: 91 89        	sta	($89),y                 ; 0x2089 <f256main+0x176d>
    43af: aa           	tax
    43b0: a5 14        	lda	$14                     ; 0x2014 <f256main+0x16f8>
    43b2: 85 8e        	sta	$8e                     ; 0x208e <f256main+0x1772>
    43b4: 20 71 65     	jsr	$6571 <malloc>
    43b7: a0 09        	ldy	#$9
    43b9: a6 8d        	ldx	$8d                     ; 0x208d <f256main+0x1771>
    43bb: 86 8c        	stx	$8c                     ; 0x208c <f256main+0x1770>
    43bd: a5 8d        	lda	$8d                     ; 0x208d <f256main+0x1771>
    43bf: 18           	clc
    43c0: 69 09        	adc	#$9
    43c2: 85 14        	sta	$14                     ; 0x2014 <f256main+0x16f8>
    43c4: a5 12        	lda	$12                     ; 0x2012 <f256main+0x16f6>
    43c6: 91 89        	sta	($89),y                 ; 0x2089 <f256main+0x176d>
    43c8: a6 8b        	ldx	$8b                     ; 0x208b <f256main+0x176f>
    43ca: 86 8d        	stx	$8d                     ; 0x208d <f256main+0x1771>
    43cc: a5 8b        	lda	$8b                     ; 0x208b <f256main+0x176f>
    43ce: 69 00        	adc	#$0
    43d0: 85 15        	sta	$15                     ; 0x2015 <f256main+0x16f9>
    43d2: a5 13        	lda	$13                     ; 0x2013 <f256main+0x16f7>
    43d4: a0 01        	ldy	#$1
    43d6: 91 14        	sta	($14),y                 ; 0x2014 <f256main+0x16f8>
    43d8: a2 00        	ldx	#$0
    43da: 86 14        	stx	$14                     ; 0x2014 <f256main+0x16f8>
    43dc: a2 00        	ldx	#$0
    43de: 86 15        	stx	$15                     ; 0x2015 <f256main+0x16f9>
    43e0: a6 13        	ldx	$13                     ; 0x2013 <f256main+0x16f7>
    43e2: e4 15        	cpx	$15                     ; 0x2015 <f256main+0x16f9>
    43e4: d0 09        	bne	$43ef <setupMem4ABeat+0xae>
    43e6: a6 12        	ldx	$12                     ; 0x2012 <f256main+0x16f6>
    43e8: e4 14        	cpx	$14                     ; 0x2014 <f256main+0x16f8>
    43ea: d0 03        	bne	$43ef <setupMem4ABeat+0xae>
    43ec: a9 ff        	lda	#$ff
    43ee: 60           	rts
    43ef: a2 00        	ldx	#$0
    43f1: a5 8e        	lda	$8e                     ; 0x208e <f256main+0x1772>
    43f3: 20 71 65     	jsr	$6571 <malloc>
    43f6: 18           	clc
    43f7: a5 8c        	lda	$8c                     ; 0x208c <f256main+0x1770>
    43f9: 69 0b        	adc	#$b
    43fb: 85 14        	sta	$14                     ; 0x2014 <f256main+0x16f8>
    43fd: a5 8b        	lda	$8b                     ; 0x208b <f256main+0x176f>
    43ff: 69 00        	adc	#$0
    4401: a0 0b        	ldy	#$b
    4403: 85 15        	sta	$15                     ; 0x2015 <f256main+0x16f9>
    4405: a5 12        	lda	$12                     ; 0x2012 <f256main+0x16f6>
    4407: 91 89        	sta	($89),y                 ; 0x2089 <f256main+0x176d>
    4409: a5 13        	lda	$13                     ; 0x2013 <f256main+0x16f7>
    440b: a0 01        	ldy	#$1
    440d: 91 14        	sta	($14),y                 ; 0x2014 <f256main+0x16f8>
    440f: a2 00        	ldx	#$0
    4411: 86 14        	stx	$14                     ; 0x2014 <f256main+0x16f8>
    4413: a2 00        	ldx	#$0
    4415: 86 15        	stx	$15                     ; 0x2015 <f256main+0x16f9>
    4417: a6 13        	ldx	$13                     ; 0x2013 <f256main+0x16f7>
    4419: e4 15        	cpx	$15                     ; 0x2015 <f256main+0x16f9>
    441b: d0 0b        	bne	$4428 <setupMem4ABeat+0xe7>
    441d: a6 12        	ldx	$12                     ; 0x2012 <f256main+0x16f6>
    441f: a9 ff        	lda	#$ff
    4421: e4 14        	cpx	$14                     ; 0x2014 <f256main+0x16f8>
    4423: d0 03        	bne	$4428 <setupMem4ABeat+0xe7>
    4425: 4c 0c 45     	jmp	$450c <setupMem4ABeat+0x1cb>
    4428: a5 8e        	lda	$8e                     ; 0x208e <f256main+0x1772>
    442a: 0a           	asl
    442b: 85 12        	sta	$12                     ; 0x2012 <f256main+0x16f6>
    442d: a9 00        	lda	#$0
    442f: 2a           	rol
    4430: 85 13        	sta	$13                     ; 0x2013 <f256main+0x16f7>
    4432: a5 8e        	lda	$8e                     ; 0x208e <f256main+0x1772>
    4434: 18           	clc
    4435: 65 12        	adc	$12                     ; 0x2012 <f256main+0x16f6>
    4437: a8           	tay
    4438: a5 13        	lda	$13                     ; 0x2013 <f256main+0x16f7>
    443a: 69 00        	adc	#$0
    443c: aa           	tax
    443d: 98           	tya
    443e: 20 71 65     	jsr	$6571 <malloc>
    4441: a0 0d        	ldy	#$d
    4443: a5 8c        	lda	$8c                     ; 0x208c <f256main+0x1770>
    4445: 18           	clc
    4446: 69 0d        	adc	#$d
    4448: 85 14        	sta	$14                     ; 0x2014 <f256main+0x16f8>
    444a: a5 12        	lda	$12                     ; 0x2012 <f256main+0x16f6>
    444c: 91 89        	sta	($89),y                 ; 0x2089 <f256main+0x176d>
    444e: a5 8b        	lda	$8b                     ; 0x208b <f256main+0x176f>
    4450: 69 00        	adc	#$0
    4452: 85 15        	sta	$15                     ; 0x2015 <f256main+0x16f9>
    4454: a5 13        	lda	$13                     ; 0x2013 <f256main+0x16f7>
    4456: a0 01        	ldy	#$1
    4458: 91 14        	sta	($14),y                 ; 0x2014 <f256main+0x16f8>
    445a: a2 00        	ldx	#$0
    445c: 86 14        	stx	$14                     ; 0x2014 <f256main+0x16f8>
    445e: a2 00        	ldx	#$0
    4460: 86 15        	stx	$15                     ; 0x2015 <f256main+0x16f9>
    4462: a6 13        	ldx	$13                     ; 0x2013 <f256main+0x16f7>
    4464: e4 15        	cpx	$15                     ; 0x2015 <f256main+0x16f9>
    4466: d0 0b        	bne	$4473 <setupMem4ABeat+0x132>
    4468: a6 12        	ldx	$12                     ; 0x2012 <f256main+0x16f6>
    446a: a9 ff        	lda	#$ff
    446c: e4 14        	cpx	$14                     ; 0x2014 <f256main+0x16f8>
    446e: d0 03        	bne	$4473 <setupMem4ABeat+0x132>
    4470: 4c 0c 45     	jmp	$450c <setupMem4ABeat+0x1cb>
    4473: a2 02        	ldx	#$2
    4475: 64 15        	stz	$15                     ; 0x2015 <f256main+0x16f9>
    4477: 64 16        	stz	$16                     ; 0x2016 <f256main+0x16fa>
    4479: a5 8c        	lda	$8c                     ; 0x208c <f256main+0x1770>
    447b: 18           	clc
    447c: 69 09        	adc	#$9
    447e: 85 12        	sta	$12                     ; 0x2012 <f256main+0x16f6>
    4480: a5 8b        	lda	$8b                     ; 0x208b <f256main+0x176f>
    4482: 69 00        	adc	#$0
    4484: 85 13        	sta	$13                     ; 0x2013 <f256main+0x16f7>
    4486: a0 09        	ldy	#$9
    4488: b1 89        	lda	($89),y                 ; 0x2089 <f256main+0x176d>
    448a: 85 17        	sta	$17                     ; 0x2017 <f256main+0x16fb>
    448c: a0 01        	ldy	#$1
    448e: b1 12        	lda	($12),y                 ; 0x2012 <f256main+0x16f6>
    4490: a4 17        	ldy	$17                     ; 0x2017 <f256main+0x16fb>
    4492: 84 12        	sty	$12                     ; 0x2012 <f256main+0x16f6>
    4494: 85 13        	sta	$13                     ; 0x2013 <f256main+0x16f7>
    4496: a9 00        	lda	#$0
    4498: a4 16        	ldy	$16                     ; 0x2016 <f256main+0x16fa>
    449a: 91 12        	sta	($12),y                 ; 0x2012 <f256main+0x16f6>
    449c: a5 8c        	lda	$8c                     ; 0x208c <f256main+0x1770>
    449e: 18           	clc
    449f: 69 0b        	adc	#$b
    44a1: 85 12        	sta	$12                     ; 0x2012 <f256main+0x16f6>
    44a3: a5 8b        	lda	$8b                     ; 0x208b <f256main+0x176f>
    44a5: 69 00        	adc	#$0
    44a7: 85 13        	sta	$13                     ; 0x2013 <f256main+0x16f7>
    44a9: a0 0b        	ldy	#$b
    44ab: b1 89        	lda	($89),y                 ; 0x2089 <f256main+0x176d>
    44ad: 85 17        	sta	$17                     ; 0x2017 <f256main+0x16fb>
    44af: a0 01        	ldy	#$1
    44b1: b1 12        	lda	($12),y                 ; 0x2012 <f256main+0x16f6>
    44b3: a4 17        	ldy	$17                     ; 0x2017 <f256main+0x16fb>
    44b5: 84 12        	sty	$12                     ; 0x2012 <f256main+0x16f6>
    44b7: 85 13        	sta	$13                     ; 0x2013 <f256main+0x16f7>
    44b9: a4 16        	ldy	$16                     ; 0x2016 <f256main+0x16fa>
    44bb: a9 00        	lda	#$0
    44bd: 91 12        	sta	($12),y                 ; 0x2012 <f256main+0x16f6>
    44bf: a5 8c        	lda	$8c                     ; 0x208c <f256main+0x1770>
    44c1: 18           	clc
    44c2: 69 0d        	adc	#$d
    44c4: 85 12        	sta	$12                     ; 0x2012 <f256main+0x16f6>
    44c6: a5 8b        	lda	$8b                     ; 0x208b <f256main+0x176f>
    44c8: 69 00        	adc	#$0
    44ca: 85 13        	sta	$13                     ; 0x2013 <f256main+0x16f7>
    44cc: a0 0d        	ldy	#$d
    44ce: b1 89        	lda	($89),y                 ; 0x2089 <f256main+0x176d>
    44d0: 85 17        	sta	$17                     ; 0x2017 <f256main+0x16fb>
    44d2: a0 01        	ldy	#$1
    44d4: b1 12        	lda	($12),y                 ; 0x2012 <f256main+0x16f6>
    44d6: a4 17        	ldy	$17                     ; 0x2017 <f256main+0x16fb>
    44d8: 84 12        	sty	$12                     ; 0x2012 <f256main+0x16f6>
    44da: 85 13        	sta	$13                     ; 0x2013 <f256main+0x16f7>
    44dc: a4 15        	ldy	$15                     ; 0x2015 <f256main+0x16f9>
    44de: a9 00        	lda	#$0
    44e0: 91 12        	sta	($12),y                 ; 0x2012 <f256main+0x16f6>
    44e2: 18           	clc
    44e3: a5 16        	lda	$16                     ; 0x2016 <f256main+0x16fa>
    44e5: 69 06        	adc	#$6
    44e7: da           	phx
    44e8: 7a           	ply
    44e9: 91 12        	sta	($12),y                 ; 0x2012 <f256main+0x16f6>
    44eb: a4 16        	ldy	$16                     ; 0x2016 <f256main+0x16fa>
    44ed: 84 12        	sty	$12                     ; 0x2012 <f256main+0x16f6>
    44ef: e6 12        	inc	$12                     ; 0x2012 <f256main+0x16f6>
    44f1: 18           	clc
    44f2: 8a           	txa
    44f3: 69 03        	adc	#$3
    44f5: aa           	tax
    44f6: 18           	clc
    44f7: a5 15        	lda	$15                     ; 0x2015 <f256main+0x16f9>
    44f9: 69 03        	adc	#$3
    44fb: 85 15        	sta	$15                     ; 0x2015 <f256main+0x16f9>
    44fd: a4 12        	ldy	$12                     ; 0x2012 <f256main+0x16f6>
    44ff: 84 16        	sty	$16                     ; 0x2016 <f256main+0x16fa>
    4501: a4 8e        	ldy	$8e                     ; 0x208e <f256main+0x1772>
    4503: c4 12        	cpy	$12                     ; 0x2012 <f256main+0x16f6>
    4505: f0 03        	beq	$450a <setupMem4ABeat+0x1c9>
    4507: 4c 79 44     	jmp	$4479 <setupMem4ABeat+0x138>
    450a: a9 00        	lda	#$0
    450c: 60           	rts

0000450d <getBeatTrackNoteInfo>:
    450d: 48           	pha
    450e: 18           	clc
    450f: a5 10        	lda	$10                     ; 0x2010 <f256main+0x16f4>
    4511: 69 fb        	adc	#$fb
    4513: 85 10        	sta	$10                     ; 0x2010 <f256main+0x16f4>
    4515: a5 11        	lda	$11                     ; 0x2011 <f256main+0x16f5>
    4517: 69 ff        	adc	#$ff
    4519: 85 11        	sta	$11                     ; 0x2011 <f256main+0x16f5>
    451b: 68           	pla
    451c: a4 24        	ldy	$24                     ; 0x2024 <f256main+0x1708>
    451e: 5a           	phy
    451f: a4 25        	ldy	$25                     ; 0x2025 <f256main+0x1709>
    4521: 5a           	phy
    4522: a4 26        	ldy	$26                     ; 0x2026 <f256main+0x170a>
    4524: 5a           	phy
    4525: a4 27        	ldy	$27                     ; 0x2027 <f256main+0x170b>
    4527: 5a           	phy
    4528: 48           	pha
    4529: a5 28        	lda	$28                     ; 0x2028 <f256main+0x170c>
    452b: a0 04        	ldy	#$4
    452d: 91 10        	sta	($10),y                 ; 0x2010 <f256main+0x16f4>
    452f: a5 29        	lda	$29                     ; 0x2029 <f256main+0x170d>
    4531: 88           	dey
    4532: 91 10        	sta	($10),y                 ; 0x2010 <f256main+0x16f4>
    4534: a5 2a        	lda	$2a                     ; 0x202a <f256main+0x170e>
    4536: 88           	dey
    4537: 91 10        	sta	($10),y                 ; 0x2010 <f256main+0x16f4>
    4539: a5 2b        	lda	$2b                     ; 0x202b <f256main+0x170f>
    453b: 88           	dey
    453c: 91 10        	sta	($10),y                 ; 0x2010 <f256main+0x16f4>
    453e: a5 2c        	lda	$2c                     ; 0x202c <f256main+0x1710>
    4540: 88           	dey
    4541: 91 10        	sta	($10),y                 ; 0x2010 <f256main+0x16f4>
    4543: 68           	pla
    4544: 85 1b        	sta	$1b                     ; 0x201b <f256main+0x16ff>
    4546: 86 24        	stx	$24                     ; 0x2024 <f256main+0x1708>
    4548: 0a           	asl
    4549: 64 1a        	stz	$1a                     ; 0x201a <f256main+0x16fe>
    454b: a2 00        	ldx	#$0
    454d: 64 1c        	stz	$1c                     ; 0x201c <f256main+0x1700>
    454f: 26 1c        	rol	$1c                     ; 0x201c <f256main+0x1700>
    4551: 0a           	asl
    4552: 26 1c        	rol	$1c                     ; 0x201c <f256main+0x1700>
    4554: 0a           	asl
    4555: 26 1c        	rol	$1c                     ; 0x201c <f256main+0x1700>
    4557: 0a           	asl
    4558: 26 1c        	rol	$1c                     ; 0x201c <f256main+0x1700>
    455a: 38           	sec
    455b: e5 1b        	sbc	$1b                     ; 0x201b <f256main+0x16ff>
    455d: aa           	tax
    455e: a5 1c        	lda	$1c                     ; 0x201c <f256main+0x1700>
    4560: e9 00        	sbc	#$0
    4562: 85 1b        	sta	$1b                     ; 0x201b <f256main+0x16ff>
    4564: 18           	clc
    4565: 8a           	txa
    4566: 65 12        	adc	$12                     ; 0x2012 <f256main+0x16f6>
    4568: a8           	tay
    4569: a5 13        	lda	$13                     ; 0x2013 <f256main+0x16f7>
    456b: 65 1b        	adc	$1b                     ; 0x201b <f256main+0x16ff>
    456d: 84 22        	sty	$22                     ; 0x2022 <f256main+0x1706>
    456f: 84 12        	sty	$12                     ; 0x2012 <f256main+0x16f6>
    4571: 85 23        	sta	$23                     ; 0x2023 <f256main+0x1707>
    4573: 85 13        	sta	$13                     ; 0x2013 <f256main+0x16f7>
    4575: a0 04        	ldy	#$4
    4577: b1 12        	lda	($12),y                 ; 0x2012 <f256main+0x16f6>
    4579: d0 03        	bne	$457e <getBeatTrackNoteInfo+0x71>
    457b: 4c 6b 47     	jmp	$476b <getBeatTrackNoteInfo+0x25e>
    457e: a0 05        	ldy	#$5
    4580: a5 22        	lda	$22                     ; 0x2022 <f256main+0x1706>
    4582: 18           	clc
    4583: 69 05        	adc	#$5
    4585: 85 1c        	sta	$1c                     ; 0x201c <f256main+0x1700>
    4587: a5 23        	lda	$23                     ; 0x2023 <f256main+0x1707>
    4589: 69 00        	adc	#$0
    458b: 85 1d        	sta	$1d                     ; 0x201d <f256main+0x1701>
    458d: b1 12        	lda	($12),y                 ; 0x2012 <f256main+0x16f6>
    458f: 85 25        	sta	$25                     ; 0x2025 <f256main+0x1709>
    4591: a0 01        	ldy	#$1
    4593: b1 1c        	lda	($1c),y                 ; 0x201c <f256main+0x1700>
    4595: 85 26        	sta	$26                     ; 0x2026 <f256main+0x170a>
    4597: c8           	iny
    4598: b1 1c        	lda	($1c),y                 ; 0x201c <f256main+0x1700>
    459a: 85 27        	sta	$27                     ; 0x2027 <f256main+0x170b>
    459c: c8           	iny
    459d: b1 1c        	lda	($1c),y                 ; 0x201c <f256main+0x1700>
    459f: 85 28        	sta	$28                     ; 0x2028 <f256main+0x170c>
    45a1: 80 37        	bra	$45da <getBeatTrackNoteInfo+0xcd>
    45a3: 0a           	asl
    45a4: 64 1c        	stz	$1c                     ; 0x201c <f256main+0x1700>
    45a6: 26 1c        	rol	$1c                     ; 0x201c <f256main+0x1700>
    45a8: 18           	clc
    45a9: 69 04        	adc	#$4
    45ab: 85 1b        	sta	$1b                     ; 0x201b <f256main+0x16ff>
    45ad: a5 1c        	lda	$1c                     ; 0x201c <f256main+0x1700>
    45af: 69 00        	adc	#$0
    45b1: 85 1c        	sta	$1c                     ; 0x201c <f256main+0x1700>
    45b3: 18           	clc
    45b4: a5 2b        	lda	$2b                     ; 0x202b <f256main+0x170f>
    45b6: 65 1b        	adc	$1b                     ; 0x201b <f256main+0x16ff>
    45b8: 85 25        	sta	$25                     ; 0x2025 <f256main+0x1709>
    45ba: a5 2a        	lda	$2a                     ; 0x202a <f256main+0x170e>
    45bc: 65 1c        	adc	$1c                     ; 0x201c <f256main+0x1700>
    45be: 85 26        	sta	$26                     ; 0x2026 <f256main+0x170a>
    45c0: a5 29        	lda	$29                     ; 0x2029 <f256main+0x170d>
    45c2: 69 00        	adc	#$0
    45c4: 85 27        	sta	$27                     ; 0x2027 <f256main+0x170b>
    45c6: a5 28        	lda	$28                     ; 0x2028 <f256main+0x170c>
    45c8: 69 00        	adc	#$0
    45ca: 85 28        	sta	$28                     ; 0x2028 <f256main+0x170c>
    45cc: a5 1a        	lda	$1a                     ; 0x201a <f256main+0x16fe>
    45ce: 1a           	inc
    45cf: a0 04        	ldy	#$4
    45d1: d1 12        	cmp	($12),y                 ; 0x2012 <f256main+0x16f6>
    45d3: 85 1a        	sta	$1a                     ; 0x201a <f256main+0x16fe>
    45d5: 90 03        	bcc	$45da <getBeatTrackNoteInfo+0xcd>
    45d7: 4c 6b 47     	jmp	$476b <getBeatTrackNoteInfo+0x25e>
    45da: 18           	clc
    45db: a6 25        	ldx	$25                     ; 0x2025 <f256main+0x1709>
    45dd: a5 25        	lda	$25                     ; 0x2025 <f256main+0x1709>
    45df: 69 03        	adc	#$3
    45e1: 85 1c        	sta	$1c                     ; 0x201c <f256main+0x1700>
    45e3: 86 2b        	stx	$2b                     ; 0x202b <f256main+0x170f>
    45e5: a5 26        	lda	$26                     ; 0x2026 <f256main+0x170a>
    45e7: 85 2a        	sta	$2a                     ; 0x202a <f256main+0x170e>
    45e9: 69 00        	adc	#$0
    45eb: a8           	tay
    45ec: a5 27        	lda	$27                     ; 0x2027 <f256main+0x170b>
    45ee: 85 29        	sta	$29                     ; 0x2029 <f256main+0x170d>
    45f0: 69 00        	adc	#$0
    45f2: 84 1b        	sty	$1b                     ; 0x201b <f256main+0x16ff>
    45f4: 06 1b        	asl	$1b                     ; 0x201b <f256main+0x16ff>
    45f6: 2a           	rol
    45f7: 06 1b        	asl	$1b                     ; 0x201b <f256main+0x16ff>
    45f9: 2a           	rol
    45fa: 06 1b        	asl	$1b                     ; 0x201b <f256main+0x16ff>
    45fc: 2a           	rol
    45fd: a6 0f        	ldx	$f                      ; 0x200f <f256main+0x16f3>
    45ff: 78           	sei
    4600: 85 25        	sta	$25                     ; 0x2025 <f256main+0x1709>
    4602: 85 0f        	sta	$f                      ; 0x200f <f256main+0x16f3>
    4604: 98           	tya
    4605: 09 e0        	ora	#$e0
    4607: 85 1d        	sta	$1d                     ; 0x201d <f256main+0x1701>
    4609: b2 1c        	lda	($1c)                   ; 0x201c <f256main+0x1700>
    460b: 85 1b        	sta	$1b                     ; 0x201b <f256main+0x16ff>
    460d: 86 0f        	stx	$f                      ; 0x200f <f256main+0x16f3>
    460f: 58           	cli
    4610: a6 24        	ldx	$24                     ; 0x2024 <f256main+0x1708>
    4612: e4 1a        	cpx	$1a                     ; 0x201a <f256main+0x16fe>
    4614: f0 03        	beq	$4619 <getBeatTrackNoteInfo+0x10c>
    4616: 4c a3 45     	jmp	$45a3 <getBeatTrackNoteInfo+0x96>
    4619: 86 2c        	stx	$2c                     ; 0x202c <f256main+0x1710>
    461b: a6 0f        	ldx	$f                      ; 0x200f <f256main+0x16f3>
    461d: 78           	sei
    461e: a4 2a        	ldy	$2a                     ; 0x202a <f256main+0x170e>
    4620: 84 1e        	sty	$1e                     ; 0x201e <f256main+0x1702>
    4622: 06 1e        	asl	$1e                     ; 0x201e <f256main+0x1702>
    4624: a5 29        	lda	$29                     ; 0x2029 <f256main+0x170d>
    4626: 2a           	rol
    4627: 06 1e        	asl	$1e                     ; 0x201e <f256main+0x1702>
    4629: 2a           	rol
    462a: 06 1e        	asl	$1e                     ; 0x201e <f256main+0x1702>
    462c: 2a           	rol
    462d: 85 0f        	sta	$f                      ; 0x200f <f256main+0x16f3>
    462f: a5 2a        	lda	$2a                     ; 0x202a <f256main+0x170e>
    4631: 09 e0        	ora	#$e0
    4633: a4 2b        	ldy	$2b                     ; 0x202b <f256main+0x170f>
    4635: 84 1e        	sty	$1e                     ; 0x201e <f256main+0x1702>
    4637: 85 1f        	sta	$1f                     ; 0x201f <f256main+0x1703>
    4639: b2 1e        	lda	($1e)                   ; 0x201e <f256main+0x1702>
    463b: 86 0f        	stx	$f                      ; 0x200f <f256main+0x16f3>
    463d: 58           	cli
    463e: 92 18        	sta	($18)                   ; 0x2018 <f256main+0x16fc>
    4640: a4 2a        	ldy	$2a                     ; 0x202a <f256main+0x170e>
    4642: a5 29        	lda	$29                     ; 0x2029 <f256main+0x170d>
    4644: a6 28        	ldx	$28                     ; 0x2028 <f256main+0x170c>
    4646: e6 1e        	inc	$1e                     ; 0x201e <f256main+0x1702>
    4648: d0 07        	bne	$4651 <getBeatTrackNoteInfo+0x144>
    464a: c8           	iny
    464b: d0 04        	bne	$4651 <getBeatTrackNoteInfo+0x144>
    464d: 1a           	inc
    464e: d0 01        	bne	$4651 <getBeatTrackNoteInfo+0x144>
    4650: e8           	inx
    4651: a6 0f        	ldx	$f                      ; 0x200f <f256main+0x16f3>
    4653: 78           	sei
    4654: 84 1f        	sty	$1f                     ; 0x201f <f256main+0x1703>
    4656: 06 1f        	asl	$1f                     ; 0x201f <f256main+0x1703>
    4658: 2a           	rol
    4659: 06 1f        	asl	$1f                     ; 0x201f <f256main+0x1703>
    465b: 2a           	rol
    465c: 06 1f        	asl	$1f                     ; 0x201f <f256main+0x1703>
    465e: 2a           	rol
    465f: 85 0f        	sta	$f                      ; 0x200f <f256main+0x16f3>
    4661: 98           	tya
    4662: 09 e0        	ora	#$e0
    4664: 85 1f        	sta	$1f                     ; 0x201f <f256main+0x1703>
    4666: b2 1e        	lda	($1e)                   ; 0x201e <f256main+0x1702>
    4668: 86 0f        	stx	$f                      ; 0x200f <f256main+0x16f3>
    466a: 58           	cli
    466b: a0 01        	ldy	#$1
    466d: 91 18        	sta	($18),y                 ; 0x2018 <f256main+0x16fc>
    466f: a5 2b        	lda	$2b                     ; 0x202b <f256main+0x170f>
    4671: 18           	clc
    4672: 69 02        	adc	#$2
    4674: a8           	tay
    4675: a5 2a        	lda	$2a                     ; 0x202a <f256main+0x170e>
    4677: 69 00        	adc	#$0
    4679: 85 1f        	sta	$1f                     ; 0x201f <f256main+0x1703>
    467b: a5 29        	lda	$29                     ; 0x2029 <f256main+0x170d>
    467d: 69 00        	adc	#$0
    467f: a6 0f        	ldx	$f                      ; 0x200f <f256main+0x16f3>
    4681: 78           	sei
    4682: 5a           	phy
    4683: a4 1f        	ldy	$1f                     ; 0x201f <f256main+0x1703>
    4685: 84 1e        	sty	$1e                     ; 0x201e <f256main+0x1702>
    4687: 7a           	ply
    4688: 06 1e        	asl	$1e                     ; 0x201e <f256main+0x1702>
    468a: 2a           	rol
    468b: 06 1e        	asl	$1e                     ; 0x201e <f256main+0x1702>
    468d: 2a           	rol
    468e: 06 1e        	asl	$1e                     ; 0x201e <f256main+0x1702>
    4690: 2a           	rol
    4691: 85 0f        	sta	$f                      ; 0x200f <f256main+0x16f3>
    4693: a5 1f        	lda	$1f                     ; 0x201f <f256main+0x1703>
    4695: 09 e0        	ora	#$e0
    4697: 84 1e        	sty	$1e                     ; 0x201e <f256main+0x1702>
    4699: 85 1f        	sta	$1f                     ; 0x201f <f256main+0x1703>
    469b: b2 1e        	lda	($1e)                   ; 0x201e <f256main+0x1702>
    469d: 86 0f        	stx	$f                      ; 0x200f <f256main+0x16f3>
    469f: 58           	cli
    46a0: a0 02        	ldy	#$2
    46a2: 91 18        	sta	($18),y                 ; 0x2018 <f256main+0x16fc>
    46a4: a6 0f        	ldx	$f                      ; 0x200f <f256main+0x16f3>
    46a6: 78           	sei
    46a7: a4 25        	ldy	$25                     ; 0x2025 <f256main+0x1709>
    46a9: 84 0f        	sty	$f                      ; 0x200f <f256main+0x16f3>
    46ab: b2 1c        	lda	($1c)                   ; 0x201c <f256main+0x1700>
    46ad: 86 0f        	stx	$f                      ; 0x200f <f256main+0x16f3>
    46af: 58           	cli
    46b0: a0 03        	ldy	#$3
    46b2: 91 18        	sta	($18),y                 ; 0x2018 <f256main+0x16fc>
    46b4: a6 2b        	ldx	$2b                     ; 0x202b <f256main+0x170f>
    46b6: 86 25        	stx	$25                     ; 0x2025 <f256main+0x1709>
    46b8: a5 2b        	lda	$2b                     ; 0x202b <f256main+0x170f>
    46ba: 18           	clc
    46bb: 69 04        	adc	#$4
    46bd: 85 2b        	sta	$2b                     ; 0x202b <f256main+0x170f>
    46bf: a5 2a        	lda	$2a                     ; 0x202a <f256main+0x170e>
    46c1: 69 00        	adc	#$0
    46c3: 85 2a        	sta	$2a                     ; 0x202a <f256main+0x170e>
    46c5: a5 29        	lda	$29                     ; 0x2029 <f256main+0x170d>
    46c7: 69 00        	adc	#$0
    46c9: 85 29        	sta	$29                     ; 0x2029 <f256main+0x170d>
    46cb: a5 22        	lda	$22                     ; 0x2022 <f256main+0x1706>
    46cd: 18           	clc
    46ce: 69 09        	adc	#$9
    46d0: 85 1c        	sta	$1c                     ; 0x201c <f256main+0x1700>
    46d2: a5 23        	lda	$23                     ; 0x2023 <f256main+0x1707>
    46d4: 69 00        	adc	#$0
    46d6: 85 1d        	sta	$1d                     ; 0x201d <f256main+0x1701>
    46d8: a0 09        	ldy	#$9
    46da: b1 12        	lda	($12),y                 ; 0x2012 <f256main+0x16f6>
    46dc: 85 1e        	sta	$1e                     ; 0x201e <f256main+0x1702>
    46de: a0 01        	ldy	#$1
    46e0: b1 1c        	lda	($1c),y                 ; 0x201c <f256main+0x1700>
    46e2: 85 1f        	sta	$1f                     ; 0x201f <f256main+0x1703>
    46e4: 18           	clc
    46e5: a5 2b        	lda	$2b                     ; 0x202b <f256main+0x170f>
    46e7: a4 2c        	ldy	$2c                     ; 0x202c <f256main+0x1710>
    46e9: 71 1e        	adc	($1e),y                 ; 0x201e <f256main+0x1702>
    46eb: a8           	tay
    46ec: a5 2a        	lda	$2a                     ; 0x202a <f256main+0x170e>
    46ee: 69 00        	adc	#$0
    46f0: 85 1f        	sta	$1f                     ; 0x201f <f256main+0x1703>
    46f2: a5 29        	lda	$29                     ; 0x2029 <f256main+0x170d>
    46f4: 69 00        	adc	#$0
    46f6: a6 1f        	ldx	$1f                     ; 0x201f <f256main+0x1703>
    46f8: 86 1e        	stx	$1e                     ; 0x201e <f256main+0x1702>
    46fa: 06 1e        	asl	$1e                     ; 0x201e <f256main+0x1702>
    46fc: 2a           	rol
    46fd: 06 1e        	asl	$1e                     ; 0x201e <f256main+0x1702>
    46ff: 2a           	rol
    4700: 06 1e        	asl	$1e                     ; 0x201e <f256main+0x1702>
    4702: 2a           	rol
    4703: a6 0f        	ldx	$f                      ; 0x200f <f256main+0x16f3>
    4705: 78           	sei
    4706: 85 0f        	sta	$f                      ; 0x200f <f256main+0x16f3>
    4708: 84 1e        	sty	$1e                     ; 0x201e <f256main+0x1702>
    470a: a5 1f        	lda	$1f                     ; 0x201f <f256main+0x1703>
    470c: 09 e0        	ora	#$e0
    470e: 85 1f        	sta	$1f                     ; 0x201f <f256main+0x1703>
    4710: b2 1e        	lda	($1e)                   ; 0x201e <f256main+0x1702>
    4712: 86 0f        	stx	$f                      ; 0x200f <f256main+0x16f3>
    4714: 58           	cli
    4715: 92 14        	sta	($14)                   ; 0x2014 <f256main+0x16f8>
    4717: 18           	clc
    4718: a5 2b        	lda	$2b                     ; 0x202b <f256main+0x170f>
    471a: 65 1b        	adc	$1b                     ; 0x201b <f256main+0x16ff>
    471c: aa           	tax
    471d: a5 2a        	lda	$2a                     ; 0x202a <f256main+0x170e>
    471f: 69 00        	adc	#$0
    4721: 85 1b        	sta	$1b                     ; 0x201b <f256main+0x16ff>
    4723: a5 29        	lda	$29                     ; 0x2029 <f256main+0x170d>
    4725: 69 00        	adc	#$0
    4727: 85 1e        	sta	$1e                     ; 0x201e <f256main+0x1702>
    4729: a0 09        	ldy	#$9
    472b: b1 12        	lda	($12),y                 ; 0x2012 <f256main+0x16f6>
    472d: 85 1f        	sta	$1f                     ; 0x201f <f256main+0x1703>
    472f: a0 01        	ldy	#$1
    4731: b1 1c        	lda	($1c),y                 ; 0x201c <f256main+0x1700>
    4733: a4 1f        	ldy	$1f                     ; 0x201f <f256main+0x1703>
    4735: 84 1c        	sty	$1c                     ; 0x201c <f256main+0x1700>
    4737: 85 1d        	sta	$1d                     ; 0x201d <f256main+0x1701>
    4739: 18           	clc
    473a: a4 2c        	ldy	$2c                     ; 0x202c <f256main+0x1710>
    473c: 8a           	txa
    473d: 71 1c        	adc	($1c),y                 ; 0x201c <f256main+0x1700>
    473f: 85 1c        	sta	$1c                     ; 0x201c <f256main+0x1700>
    4741: a5 1b        	lda	$1b                     ; 0x201b <f256main+0x16ff>
    4743: 69 00        	adc	#$0
    4745: a8           	tay
    4746: a5 1e        	lda	$1e                     ; 0x201e <f256main+0x1702>
    4748: 69 00        	adc	#$0
    474a: 85 1b        	sta	$1b                     ; 0x201b <f256main+0x16ff>
    474c: 98           	tya
    474d: 0a           	asl
    474e: 26 1b        	rol	$1b                     ; 0x201b <f256main+0x16ff>
    4750: 0a           	asl
    4751: 26 1b        	rol	$1b                     ; 0x201b <f256main+0x16ff>
    4753: 0a           	asl
    4754: a5 1b        	lda	$1b                     ; 0x201b <f256main+0x16ff>
    4756: 2a           	rol
    4757: a6 0f        	ldx	$f                      ; 0x200f <f256main+0x16f3>
    4759: 78           	sei
    475a: 85 0f        	sta	$f                      ; 0x200f <f256main+0x16f3>
    475c: 98           	tya
    475d: 09 e0        	ora	#$e0
    475f: 85 1d        	sta	$1d                     ; 0x201d <f256main+0x1701>
    4761: b2 1c        	lda	($1c)                   ; 0x201c <f256main+0x1700>
    4763: 86 0f        	stx	$f                      ; 0x200f <f256main+0x16f3>
    4765: 58           	cli
    4766: 92 16        	sta	($16)                   ; 0x2016 <f256main+0x16fa>
    4768: 4c cc 45     	jmp	$45cc <getBeatTrackNoteInfo+0xbf>
    476b: a0 00        	ldy	#$0
    476d: b1 10        	lda	($10),y                 ; 0x2010 <f256main+0x16f4>
    476f: 85 2c        	sta	$2c                     ; 0x202c <f256main+0x1710>
    4771: c8           	iny
    4772: b1 10        	lda	($10),y                 ; 0x2010 <f256main+0x16f4>
    4774: 85 2b        	sta	$2b                     ; 0x202b <f256main+0x170f>
    4776: c8           	iny
    4777: b1 10        	lda	($10),y                 ; 0x2010 <f256main+0x16f4>
    4779: 85 2a        	sta	$2a                     ; 0x202a <f256main+0x170e>
    477b: c8           	iny
    477c: b1 10        	lda	($10),y                 ; 0x2010 <f256main+0x16f4>
    477e: 85 29        	sta	$29                     ; 0x2029 <f256main+0x170d>
    4780: c8           	iny
    4781: b1 10        	lda	($10),y                 ; 0x2010 <f256main+0x16f4>
    4783: 85 28        	sta	$28                     ; 0x2028 <f256main+0x170c>
    4785: fa           	plx
    4786: 86 27        	stx	$27                     ; 0x2027 <f256main+0x170b>
    4788: fa           	plx
    4789: 86 26        	stx	$26                     ; 0x2026 <f256main+0x170a>
    478b: fa           	plx
    478c: 86 25        	stx	$25                     ; 0x2025 <f256main+0x1709>
    478e: fa           	plx
    478f: 86 24        	stx	$24                     ; 0x2024 <f256main+0x1708>
    4791: 18           	clc
    4792: a5 10        	lda	$10                     ; 0x2010 <f256main+0x16f4>
    4794: 69 05        	adc	#$5
    4796: 85 10        	sta	$10                     ; 0x2010 <f256main+0x16f4>
    4798: a5 11        	lda	$11                     ; 0x2011 <f256main+0x16f5>
    479a: 69 00        	adc	#$0
    479c: 85 11        	sta	$11                     ; 0x2011 <f256main+0x16f5>
    479e: 60           	rts

0000479f <setupMem4Track>:
    479f: 85 1d        	sta	$1d                     ; 0x201d <f256main+0x1701>
    47a1: 86 1c        	stx	$1c                     ; 0x201c <f256main+0x1700>
    47a3: a0 01        	ldy	#$1
    47a5: b1 14        	lda	($14),y                 ; 0x2014 <f256main+0x16f8>
    47a7: 85 1a        	sta	$1a                     ; 0x201a <f256main+0x16fe>
    47a9: 85 1b        	sta	$1b                     ; 0x201b <f256main+0x16ff>
    47ab: c8           	iny
    47ac: b1 14        	lda	($14),y                 ; 0x2014 <f256main+0x16f8>
    47ae: 06 1a        	asl	$1a                     ; 0x201a <f256main+0x16fe>
    47b0: 2a           	rol
    47b1: 06 1a        	asl	$1a                     ; 0x201a <f256main+0x16fe>
    47b3: 2a           	rol
    47b4: 06 1a        	asl	$1a                     ; 0x201a <f256main+0x16fe>
    47b6: 2a           	rol
    47b7: a8           	tay
    47b8: b2 14        	lda	($14)                   ; 0x2014 <f256main+0x16f8>
    47ba: a6 0f        	ldx	$f                      ; 0x200f <f256main+0x16f3>
    47bc: 78           	sei
    47bd: 84 0f        	sty	$f                      ; 0x200f <f256main+0x16f3>
    47bf: 85 1a        	sta	$1a                     ; 0x201a <f256main+0x16fe>
    47c1: a5 1b        	lda	$1b                     ; 0x201b <f256main+0x16ff>
    47c3: 09 e0        	ora	#$e0
    47c5: 85 1b        	sta	$1b                     ; 0x201b <f256main+0x16ff>
    47c7: a5 1d        	lda	$1d                     ; 0x201d <f256main+0x1701>
    47c9: 92 1a        	sta	($1a)                   ; 0x201a <f256main+0x16fe>
    47cb: 86 0f        	stx	$f                      ; 0x200f <f256main+0x16f3>
    47cd: 58           	cli
    47ce: b2 14        	lda	($14)                   ; 0x2014 <f256main+0x16f8>
    47d0: 85 1a        	sta	$1a                     ; 0x201a <f256main+0x16fe>
    47d2: a0 01        	ldy	#$1
    47d4: b1 14        	lda	($14),y                 ; 0x2014 <f256main+0x16f8>
    47d6: 85 1d        	sta	$1d                     ; 0x201d <f256main+0x1701>
    47d8: c8           	iny
    47d9: b1 14        	lda	($14),y                 ; 0x2014 <f256main+0x16f8>
    47db: aa           	tax
    47dc: c8           	iny
    47dd: b1 14        	lda	($14),y                 ; 0x2014 <f256main+0x16f8>
    47df: e6 1a        	inc	$1a                     ; 0x201a <f256main+0x16fe>
    47e1: d0 08        	bne	$47eb <setupMem4Track+0x4c>
    47e3: e6 1d        	inc	$1d                     ; 0x201d <f256main+0x1701>
    47e5: d0 04        	bne	$47eb <setupMem4Track+0x4c>
    47e7: e8           	inx
    47e8: d0 01        	bne	$47eb <setupMem4Track+0x4c>
    47ea: 1a           	inc
    47eb: 91 14        	sta	($14),y                 ; 0x2014 <f256main+0x16f8>
    47ed: 8a           	txa
    47ee: a0 02        	ldy	#$2
    47f0: 91 14        	sta	($14),y                 ; 0x2014 <f256main+0x16f8>
    47f2: a5 1d        	lda	$1d                     ; 0x201d <f256main+0x1701>
    47f4: 0a           	asl
    47f5: 86 1b        	stx	$1b                     ; 0x201b <f256main+0x16ff>
    47f7: 26 1b        	rol	$1b                     ; 0x201b <f256main+0x16ff>
    47f9: 0a           	asl
    47fa: 26 1b        	rol	$1b                     ; 0x201b <f256main+0x16ff>
    47fc: 0a           	asl
    47fd: 26 1b        	rol	$1b                     ; 0x201b <f256main+0x16ff>
    47ff: a5 1a        	lda	$1a                     ; 0x201a <f256main+0x16fe>
    4801: 92 14        	sta	($14)                   ; 0x2014 <f256main+0x16f8>
    4803: a5 1d        	lda	$1d                     ; 0x201d <f256main+0x1701>
    4805: 88           	dey
    4806: 91 14        	sta	($14),y                 ; 0x2014 <f256main+0x16f8>
    4808: a6 0f        	ldx	$f                      ; 0x200f <f256main+0x16f3>
    480a: 78           	sei
    480b: a4 1b        	ldy	$1b                     ; 0x201b <f256main+0x16ff>
    480d: 84 0f        	sty	$f                      ; 0x200f <f256main+0x16f3>
    480f: 09 e0        	ora	#$e0
    4811: 85 1b        	sta	$1b                     ; 0x201b <f256main+0x16ff>
    4813: a5 1c        	lda	$1c                     ; 0x201c <f256main+0x1700>
    4815: 92 1a        	sta	($1a)                   ; 0x201a <f256main+0x16fe>
    4817: 86 0f        	stx	$f                      ; 0x200f <f256main+0x16f3>
    4819: 58           	cli
    481a: b2 14        	lda	($14)                   ; 0x2014 <f256main+0x16f8>
    481c: 85 1a        	sta	$1a                     ; 0x201a <f256main+0x16fe>
    481e: a0 01        	ldy	#$1
    4820: b1 14        	lda	($14),y                 ; 0x2014 <f256main+0x16f8>
    4822: 85 1c        	sta	$1c                     ; 0x201c <f256main+0x1700>
    4824: c8           	iny
    4825: b1 14        	lda	($14),y                 ; 0x2014 <f256main+0x16f8>
    4827: aa           	tax
    4828: c8           	iny
    4829: b1 14        	lda	($14),y                 ; 0x2014 <f256main+0x16f8>
    482b: e6 1a        	inc	$1a                     ; 0x201a <f256main+0x16fe>
    482d: d0 08        	bne	$4837 <setupMem4Track+0x98>
    482f: e6 1c        	inc	$1c                     ; 0x201c <f256main+0x1700>
    4831: d0 04        	bne	$4837 <setupMem4Track+0x98>
    4833: e8           	inx
    4834: d0 01        	bne	$4837 <setupMem4Track+0x98>
    4836: 1a           	inc
    4837: 91 14        	sta	($14),y                 ; 0x2014 <f256main+0x16f8>
    4839: 8a           	txa
    483a: a0 02        	ldy	#$2
    483c: 91 14        	sta	($14),y                 ; 0x2014 <f256main+0x16f8>
    483e: a5 1c        	lda	$1c                     ; 0x201c <f256main+0x1700>
    4840: 0a           	asl
    4841: 86 1b        	stx	$1b                     ; 0x201b <f256main+0x16ff>
    4843: 26 1b        	rol	$1b                     ; 0x201b <f256main+0x16ff>
    4845: 0a           	asl
    4846: 26 1b        	rol	$1b                     ; 0x201b <f256main+0x16ff>
    4848: 0a           	asl
    4849: 26 1b        	rol	$1b                     ; 0x201b <f256main+0x16ff>
    484b: a5 1a        	lda	$1a                     ; 0x201a <f256main+0x16fe>
    484d: 92 14        	sta	($14)                   ; 0x2014 <f256main+0x16f8>
    484f: a5 1c        	lda	$1c                     ; 0x201c <f256main+0x1700>
    4851: 88           	dey
    4852: 91 14        	sta	($14),y                 ; 0x2014 <f256main+0x16f8>
    4854: a6 0f        	ldx	$f                      ; 0x200f <f256main+0x16f3>
    4856: 78           	sei
    4857: a4 1b        	ldy	$1b                     ; 0x201b <f256main+0x16ff>
    4859: 84 0f        	sty	$f                      ; 0x200f <f256main+0x16f3>
    485b: 09 e0        	ora	#$e0
    485d: 85 1b        	sta	$1b                     ; 0x201b <f256main+0x16ff>
    485f: a5 12        	lda	$12                     ; 0x2012 <f256main+0x16f6>
    4861: 92 1a        	sta	($1a)                   ; 0x201a <f256main+0x16fe>
    4863: 86 0f        	stx	$f                      ; 0x200f <f256main+0x16f3>
    4865: 58           	cli
    4866: b2 14        	lda	($14)                   ; 0x2014 <f256main+0x16f8>
    4868: 85 1a        	sta	$1a                     ; 0x201a <f256main+0x16fe>
    486a: a0 01        	ldy	#$1
    486c: b1 14        	lda	($14),y                 ; 0x2014 <f256main+0x16f8>
    486e: 85 1b        	sta	$1b                     ; 0x201b <f256main+0x16ff>
    4870: c8           	iny
    4871: b1 14        	lda	($14),y                 ; 0x2014 <f256main+0x16f8>
    4873: aa           	tax
    4874: c8           	iny
    4875: b1 14        	lda	($14),y                 ; 0x2014 <f256main+0x16f8>
    4877: e6 1a        	inc	$1a                     ; 0x201a <f256main+0x16fe>
    4879: d0 08        	bne	$4883 <setupMem4Track+0xe4>
    487b: e6 1b        	inc	$1b                     ; 0x201b <f256main+0x16ff>
    487d: d0 04        	bne	$4883 <setupMem4Track+0xe4>
    487f: e8           	inx
    4880: d0 01        	bne	$4883 <setupMem4Track+0xe4>
    4882: 1a           	inc
    4883: 91 14        	sta	($14),y                 ; 0x2014 <f256main+0x16f8>
    4885: a0 02        	ldy	#$2
    4887: 8a           	txa
    4888: 91 14        	sta	($14),y                 ; 0x2014 <f256main+0x16f8>
    488a: a5 1b        	lda	$1b                     ; 0x201b <f256main+0x16ff>
    488c: 0a           	asl
    488d: 86 12        	stx	$12                     ; 0x2012 <f256main+0x16f6>
    488f: 26 12        	rol	$12                     ; 0x2012 <f256main+0x16f6>
    4891: 0a           	asl
    4892: 26 12        	rol	$12                     ; 0x2012 <f256main+0x16f6>
    4894: 0a           	asl
    4895: 26 12        	rol	$12                     ; 0x2012 <f256main+0x16f6>
    4897: a5 1a        	lda	$1a                     ; 0x201a <f256main+0x16fe>
    4899: 92 14        	sta	($14)                   ; 0x2014 <f256main+0x16f8>
    489b: a5 1b        	lda	$1b                     ; 0x201b <f256main+0x16ff>
    489d: 88           	dey
    489e: 91 14        	sta	($14),y                 ; 0x2014 <f256main+0x16f8>
    48a0: a6 0f        	ldx	$f                      ; 0x200f <f256main+0x16f3>
    48a2: 78           	sei
    48a3: a4 12        	ldy	$12                     ; 0x2012 <f256main+0x16f6>
    48a5: 84 0f        	sty	$f                      ; 0x200f <f256main+0x16f3>
    48a7: 09 e0        	ora	#$e0
    48a9: 85 1b        	sta	$1b                     ; 0x201b <f256main+0x16ff>
    48ab: a5 13        	lda	$13                     ; 0x2013 <f256main+0x16f7>
    48ad: 92 1a        	sta	($1a)                   ; 0x201a <f256main+0x16fe>
    48af: 86 0f        	stx	$f                      ; 0x200f <f256main+0x16f3>
    48b1: 58           	cli
    48b2: b2 14        	lda	($14)                   ; 0x2014 <f256main+0x16f8>
    48b4: aa           	tax
    48b5: a0 01        	ldy	#$1
    48b7: b1 14        	lda	($14),y                 ; 0x2014 <f256main+0x16f8>
    48b9: 85 1a        	sta	$1a                     ; 0x201a <f256main+0x16fe>
    48bb: c8           	iny
    48bc: b1 14        	lda	($14),y                 ; 0x2014 <f256main+0x16f8>
    48be: 85 1b        	sta	$1b                     ; 0x201b <f256main+0x16ff>
    48c0: c8           	iny
    48c1: b1 14        	lda	($14),y                 ; 0x2014 <f256main+0x16f8>
    48c3: 85 12        	sta	$12                     ; 0x2012 <f256main+0x16f6>
    48c5: 8a           	txa
    48c6: 1a           	inc
    48c7: d0 0a        	bne	$48d3 <setupMem4Track+0x134>
    48c9: e6 1a        	inc	$1a                     ; 0x201a <f256main+0x16fe>
    48cb: d0 06        	bne	$48d3 <setupMem4Track+0x134>
    48cd: e6 1b        	inc	$1b                     ; 0x201b <f256main+0x16ff>
    48cf: d0 02        	bne	$48d3 <setupMem4Track+0x134>
    48d1: e6 12        	inc	$12                     ; 0x2012 <f256main+0x16f6>
    48d3: 92 14        	sta	($14)                   ; 0x2014 <f256main+0x16f8>
    48d5: a5 1a        	lda	$1a                     ; 0x201a <f256main+0x16fe>
    48d7: a0 01        	ldy	#$1
    48d9: 91 14        	sta	($14),y                 ; 0x2014 <f256main+0x16f8>
    48db: c8           	iny
    48dc: a5 1b        	lda	$1b                     ; 0x201b <f256main+0x16ff>
    48de: 91 14        	sta	($14),y                 ; 0x2014 <f256main+0x16f8>
    48e0: c8           	iny
    48e1: a5 12        	lda	$12                     ; 0x2012 <f256main+0x16f6>
    48e3: 91 14        	sta	($14),y                 ; 0x2014 <f256main+0x16f8>
    48e5: a5 13        	lda	$13                     ; 0x2013 <f256main+0x16f7>
    48e7: d0 03        	bne	$48ec <setupMem4Track+0x14d>
    48e9: 4c ef 49     	jmp	$49ef <setupMem4Track+0x250>
    48ec: a6 13        	ldx	$13                     ; 0x2013 <f256main+0x16f7>
    48ee: a0 00        	ldy	#$0
    48f0: 80 43        	bra	$4935 <setupMem4Track+0x196>
    48f2: e6 1d        	inc	$1d                     ; 0x201d <f256main+0x1701>
    48f4: 92 14        	sta	($14)                   ; 0x2014 <f256main+0x16f8>
    48f6: a0 01        	ldy	#$1
    48f8: a5 1e        	lda	$1e                     ; 0x201e <f256main+0x1702>
    48fa: 91 14        	sta	($14),y                 ; 0x2014 <f256main+0x16f8>
    48fc: c8           	iny
    48fd: a5 1f        	lda	$1f                     ; 0x201f <f256main+0x1703>
    48ff: 91 14        	sta	($14),y                 ; 0x2014 <f256main+0x16f8>
    4901: a5 1d        	lda	$1d                     ; 0x201d <f256main+0x1701>
    4903: c8           	iny
    4904: 91 14        	sta	($14),y                 ; 0x2014 <f256main+0x16f8>
    4906: a4 1c        	ldy	$1c                     ; 0x201c <f256main+0x1700>
    4908: b1 16        	lda	($16),y                 ; 0x2016 <f256main+0x16fa>
    490a: 85 1c        	sta	$1c                     ; 0x201c <f256main+0x1700>
    490c: a5 13        	lda	$13                     ; 0x2013 <f256main+0x16f7>
    490e: 0a           	asl
    490f: 26 1b        	rol	$1b                     ; 0x201b <f256main+0x16ff>
    4911: 0a           	asl
    4912: 26 1b        	rol	$1b                     ; 0x201b <f256main+0x16ff>
    4914: 0a           	asl
    4915: 86 1d        	stx	$1d                     ; 0x201d <f256main+0x1701>
    4917: a5 1b        	lda	$1b                     ; 0x201b <f256main+0x16ff>
    4919: 2a           	rol
    491a: a6 0f        	ldx	$f                      ; 0x200f <f256main+0x16f3>
    491c: 78           	sei
    491d: 85 0f        	sta	$f                      ; 0x200f <f256main+0x16f3>
    491f: a5 13        	lda	$13                     ; 0x2013 <f256main+0x16f7>
    4921: 09 e0        	ora	#$e0
    4923: 85 13        	sta	$13                     ; 0x2013 <f256main+0x16f7>
    4925: a5 1c        	lda	$1c                     ; 0x201c <f256main+0x1700>
    4927: 92 12        	sta	($12)                   ; 0x2012 <f256main+0x16f6>
    4929: 86 0f        	stx	$f                      ; 0x200f <f256main+0x16f3>
    492b: a6 1d        	ldx	$1d                     ; 0x201d <f256main+0x1701>
    492d: 58           	cli
    492e: c8           	iny
    492f: 84 12        	sty	$12                     ; 0x2012 <f256main+0x16f6>
    4931: e4 12        	cpx	$12                     ; 0x2012 <f256main+0x16f6>
    4933: f0 39        	beq	$496e <setupMem4Track+0x1cf>
    4935: b2 14        	lda	($14)                   ; 0x2014 <f256main+0x16f8>
    4937: 85 12        	sta	$12                     ; 0x2012 <f256main+0x16f6>
    4939: 84 1c        	sty	$1c                     ; 0x201c <f256main+0x1700>
    493b: a0 01        	ldy	#$1
    493d: b1 14        	lda	($14),y                 ; 0x2014 <f256main+0x16f8>
    493f: 85 13        	sta	$13                     ; 0x2013 <f256main+0x16f7>
    4941: c8           	iny
    4942: b1 14        	lda	($14),y                 ; 0x2014 <f256main+0x16f8>
    4944: 85 1b        	sta	$1b                     ; 0x201b <f256main+0x16ff>
    4946: c8           	iny
    4947: b1 14        	lda	($14),y                 ; 0x2014 <f256main+0x16f8>
    4949: 85 1d        	sta	$1d                     ; 0x201d <f256main+0x1701>
    494b: a4 13        	ldy	$13                     ; 0x2013 <f256main+0x16f7>
    494d: 84 1e        	sty	$1e                     ; 0x201e <f256main+0x1702>
    494f: a4 1b        	ldy	$1b                     ; 0x201b <f256main+0x16ff>
    4951: 84 1f        	sty	$1f                     ; 0x201f <f256main+0x1703>
    4953: 86 1a        	stx	$1a                     ; 0x201a <f256main+0x16fe>
    4955: a5 12        	lda	$12                     ; 0x2012 <f256main+0x16f6>
    4957: 1a           	inc
    4958: f0 03        	beq	$495d <setupMem4Track+0x1be>
    495a: 4c f4 48     	jmp	$48f4 <setupMem4Track+0x155>
    495d: e6 1e        	inc	$1e                     ; 0x201e <f256main+0x1702>
    495f: f0 03        	beq	$4964 <setupMem4Track+0x1c5>
    4961: 4c f4 48     	jmp	$48f4 <setupMem4Track+0x155>
    4964: e6 1f        	inc	$1f                     ; 0x201f <f256main+0x1703>
    4966: d0 03        	bne	$496b <setupMem4Track+0x1cc>
    4968: 4c f2 48     	jmp	$48f2 <setupMem4Track+0x153>
    496b: 4c f4 48     	jmp	$48f4 <setupMem4Track+0x155>
    496e: a2 00        	ldx	#$0
    4970: 80 49        	bra	$49bb <setupMem4Track+0x21c>
    4972: e6 17        	inc	$17                     ; 0x2017 <f256main+0x16fb>
    4974: 92 14        	sta	($14)                   ; 0x2014 <f256main+0x16f8>
    4976: a0 01        	ldy	#$1
    4978: a5 1b        	lda	$1b                     ; 0x201b <f256main+0x16ff>
    497a: 91 14        	sta	($14),y                 ; 0x2014 <f256main+0x16f8>
    497c: c8           	iny
    497d: a5 1c        	lda	$1c                     ; 0x201c <f256main+0x1700>
    497f: 91 14        	sta	($14),y                 ; 0x2014 <f256main+0x16f8>
    4981: c8           	iny
    4982: a5 17        	lda	$17                     ; 0x2017 <f256main+0x16fb>
    4984: 91 14        	sta	($14),y                 ; 0x2014 <f256main+0x16f8>
    4986: a4 12        	ldy	$12                     ; 0x2012 <f256main+0x16f6>
    4988: b1 18        	lda	($18),y                 ; 0x2018 <f256main+0x16fc>
    498a: 85 17        	sta	$17                     ; 0x2017 <f256main+0x16fb>
    498c: a5 16        	lda	$16                     ; 0x2016 <f256main+0x16fa>
    498e: 85 12        	sta	$12                     ; 0x2012 <f256main+0x16f6>
    4990: 06 12        	asl	$12                     ; 0x2012 <f256main+0x16f6>
    4992: 8a           	txa
    4993: 2a           	rol
    4994: 06 12        	asl	$12                     ; 0x2012 <f256main+0x16f6>
    4996: 2a           	rol
    4997: 06 12        	asl	$12                     ; 0x2012 <f256main+0x16f6>
    4999: 2a           	rol
    499a: a6 0f        	ldx	$f                      ; 0x200f <f256main+0x16f3>
    499c: 78           	sei
    499d: 85 0f        	sta	$f                      ; 0x200f <f256main+0x16f3>
    499f: a5 13        	lda	$13                     ; 0x2013 <f256main+0x16f7>
    49a1: 85 12        	sta	$12                     ; 0x2012 <f256main+0x16f6>
    49a3: a5 16        	lda	$16                     ; 0x2016 <f256main+0x16fa>
    49a5: 09 e0        	ora	#$e0
    49a7: 85 13        	sta	$13                     ; 0x2013 <f256main+0x16f7>
    49a9: a5 17        	lda	$17                     ; 0x2017 <f256main+0x16fb>
    49ab: 92 12        	sta	($12)                   ; 0x2012 <f256main+0x16f6>
    49ad: 86 0f        	stx	$f                      ; 0x200f <f256main+0x16f3>
    49af: 58           	cli
    49b0: c8           	iny
    49b1: 84 12        	sty	$12                     ; 0x2012 <f256main+0x16f6>
    49b3: a6 12        	ldx	$12                     ; 0x2012 <f256main+0x16f6>
    49b5: a4 1a        	ldy	$1a                     ; 0x201a <f256main+0x16fe>
    49b7: c4 12        	cpy	$12                     ; 0x2012 <f256main+0x16f6>
    49b9: f0 34        	beq	$49ef <setupMem4Track+0x250>
    49bb: b2 14        	lda	($14)                   ; 0x2014 <f256main+0x16f8>
    49bd: 85 13        	sta	$13                     ; 0x2013 <f256main+0x16f7>
    49bf: 86 12        	stx	$12                     ; 0x2012 <f256main+0x16f6>
    49c1: a0 01        	ldy	#$1
    49c3: b1 14        	lda	($14),y                 ; 0x2014 <f256main+0x16f8>
    49c5: 85 16        	sta	$16                     ; 0x2016 <f256main+0x16fa>
    49c7: c8           	iny
    49c8: b1 14        	lda	($14),y                 ; 0x2014 <f256main+0x16f8>
    49ca: aa           	tax
    49cb: c8           	iny
    49cc: b1 14        	lda	($14),y                 ; 0x2014 <f256main+0x16f8>
    49ce: 85 17        	sta	$17                     ; 0x2017 <f256main+0x16fb>
    49d0: a5 13        	lda	$13                     ; 0x2013 <f256main+0x16f7>
    49d2: a4 16        	ldy	$16                     ; 0x2016 <f256main+0x16fa>
    49d4: 84 1b        	sty	$1b                     ; 0x201b <f256main+0x16ff>
    49d6: 86 1c        	stx	$1c                     ; 0x201c <f256main+0x1700>
    49d8: 1a           	inc
    49d9: f0 03        	beq	$49de <setupMem4Track+0x23f>
    49db: 4c 74 49     	jmp	$4974 <setupMem4Track+0x1d5>
    49de: e6 1b        	inc	$1b                     ; 0x201b <f256main+0x16ff>
    49e0: f0 03        	beq	$49e5 <setupMem4Track+0x246>
    49e2: 4c 74 49     	jmp	$4974 <setupMem4Track+0x1d5>
    49e5: e6 1c        	inc	$1c                     ; 0x201c <f256main+0x1700>
    49e7: d0 03        	bne	$49ec <setupMem4Track+0x24d>
    49e9: 4c 72 49     	jmp	$4972 <setupMem4Track+0x1d3>
    49ec: 4c 74 49     	jmp	$4974 <setupMem4Track+0x1d5>
    49ef: 60           	rts

000049f0 <refreshInstrumentText>:
    49f0: 18           	clc
    49f1: a5 10        	lda	$10                     ; 0x2010 <f256main+0x16f4>
    49f3: 69 fc        	adc	#$fc
    49f5: 85 10        	sta	$10                     ; 0x2010 <f256main+0x16f4>
    49f7: a5 11        	lda	$11                     ; 0x2011 <f256main+0x16f5>
    49f9: 69 ff        	adc	#$ff
    49fb: 85 11        	sta	$11                     ; 0x2011 <f256main+0x16f5>
    49fd: a6 12        	ldx	$12                     ; 0x2012 <f256main+0x16f6>
    49ff: 86 94        	stx	$94                     ; 0x2094 <f256main+0x1778>
    4a01: a6 13        	ldx	$13                     ; 0x2013 <f256main+0x16f7>
    4a03: 86 95        	stx	$95                     ; 0x2095 <f256main+0x1779>
    4a05: a2 05        	ldx	#$5
    4a07: 86 33        	stx	$33                     ; 0x2033 <f256main+0x1717>
    4a09: 8e 14 d0     	stx	$d014                   ; 0xd014 <__heap_start+0x3d0e>
    4a0c: 9c 15 d0     	stz	$d015                   ; 0xd015 <__heap_start+0x3d0f>
    4a0f: a2 1e        	ldx	#$1e
    4a11: 86 34        	stx	$34                     ; 0x2034 <f256main+0x1718>
    4a13: 8e 16 d0     	stx	$d016                   ; 0xd016 <__heap_start+0x3d10>
    4a16: 9c 17 d0     	stz	$d017                   ; 0xd017 <__heap_start+0x3d11>
    4a19: a2 1a        	ldx	#$1a
    4a1b: 86 12        	stx	$12                     ; 0x2012 <f256main+0x16f6>
    4a1d: a2 7f        	ldx	#$7f
    4a1f: 86 13        	stx	$13                     ; 0x2013 <f256main+0x16f7>
    4a21: 20 63 30     	jsr	$3063 <textPrint>
    4a24: a2 05        	ldx	#$5
    4a26: 86 33        	stx	$33                     ; 0x2033 <f256main+0x1717>
    4a28: 8e 14 d0     	stx	$d014                   ; 0xd014 <__heap_start+0x3d0e>
    4a2b: 9c 15 d0     	stz	$d015                   ; 0xd015 <__heap_start+0x3d0f>
    4a2e: a2 1f        	ldx	#$1f
    4a30: 86 34        	stx	$34                     ; 0x2034 <f256main+0x1718>
    4a32: 8e 16 d0     	stx	$d016                   ; 0xd016 <__heap_start+0x3d10>
    4a35: 9c 17 d0     	stz	$d017                   ; 0xd017 <__heap_start+0x3d11>
    4a38: a2 1a        	ldx	#$1a
    4a3a: 86 12        	stx	$12                     ; 0x2012 <f256main+0x16f6>
    4a3c: a2 7f        	ldx	#$7f
    4a3e: 86 13        	stx	$13                     ; 0x2013 <f256main+0x16f7>
    4a40: 20 63 30     	jsr	$3063 <textPrint>
    4a43: a2 05        	ldx	#$5
    4a45: 86 33        	stx	$33                     ; 0x2033 <f256main+0x1717>
    4a47: 8e 14 d0     	stx	$d014                   ; 0xd014 <__heap_start+0x3d0e>
    4a4a: a0 05        	ldy	#$5
    4a4c: 9c 15 d0     	stz	$d015                   ; 0xd015 <__heap_start+0x3d0f>
    4a4f: a2 1e        	ldx	#$1e
    4a51: 86 34        	stx	$34                     ; 0x2034 <f256main+0x1718>
    4a53: 8e 16 d0     	stx	$d016                   ; 0xd016 <__heap_start+0x3d10>
    4a56: 9c 17 d0     	stz	$d017                   ; 0xd017 <__heap_start+0x3d11>
    4a59: b1 94        	lda	($94),y                 ; 0x2094 <f256main+0x1778>
    4a5b: a2 90        	ldx	#$90
    4a5d: a8           	tay
    4a5e: f0 02        	beq	$4a62 <refreshInstrumentText+0x72>
    4a60: a2 40        	ldx	#$40
    4a62: 86 30        	stx	$30                     ; 0x2030 <f256main+0x1714>
    4a64: a0 01        	ldy	#$1
    4a66: a6 94        	ldx	$94                     ; 0x2094 <f256main+0x1778>
    4a68: 86 12        	stx	$12                     ; 0x2012 <f256main+0x16f6>
    4a6a: a6 95        	ldx	$95                     ; 0x2095 <f256main+0x1779>
    4a6c: 86 13        	stx	$13                     ; 0x2013 <f256main+0x16f7>
    4a6e: e6 12        	inc	$12                     ; 0x2012 <f256main+0x16f6>
    4a70: d0 02        	bne	$4a74 <refreshInstrumentText+0x84>
    4a72: e6 13        	inc	$13                     ; 0x2013 <f256main+0x16f7>
    4a74: b1 94        	lda	($94),y                 ; 0x2094 <f256main+0x1778>
    4a76: aa           	tax
    4a77: b1 12        	lda	($12),y                 ; 0x2012 <f256main+0x16f6>
    4a79: 86 12        	stx	$12                     ; 0x2012 <f256main+0x16f6>
    4a7b: 85 13        	sta	$13                     ; 0x2013 <f256main+0x16f7>
    4a7d: b2 12        	lda	($12)                   ; 0x2012 <f256main+0x16f6>
    4a7f: aa           	tax
    4a80: 0a           	asl
    4a81: 85 12        	sta	$12                     ; 0x2012 <f256main+0x16f6>
    4a83: a9 00        	lda	#$0
    4a85: 2a           	rol
    4a86: 85 13        	sta	$13                     ; 0x2013 <f256main+0x16f7>
    4a88: a9 bb        	lda	#$bb
    4a8a: 18           	clc
    4a8b: 65 12        	adc	$12                     ; 0x2012 <f256main+0x16f6>
    4a8d: 85 12        	sta	$12                     ; 0x2012 <f256main+0x16f6>
    4a8f: a9 91        	lda	#$91
    4a91: 65 13        	adc	$13                     ; 0x2013 <f256main+0x16f7>
    4a93: 85 13        	sta	$13                     ; 0x2013 <f256main+0x16f7>
    4a95: b2 12        	lda	($12)                   ; 0x2012 <f256main+0x16f6>
    4a97: 85 14        	sta	$14                     ; 0x2014 <f256main+0x16f8>
    4a99: b1 12        	lda	($12),y                 ; 0x2012 <f256main+0x16f6>
    4a9b: 85 15        	sta	$15                     ; 0x2015 <f256main+0x16f9>
    4a9d: 8a           	txa
    4a9e: 92 10        	sta	($10)                   ; 0x2010 <f256main+0x16f4>
    4aa0: a9 00        	lda	#$0
    4aa2: 91 10        	sta	($10),y                 ; 0x2010 <f256main+0x16f4>
    4aa4: 18           	clc
    4aa5: a5 10        	lda	$10                     ; 0x2010 <f256main+0x16f4>
    4aa7: 69 02        	adc	#$2
    4aa9: 85 12        	sta	$12                     ; 0x2012 <f256main+0x16f6>
    4aab: a5 11        	lda	$11                     ; 0x2011 <f256main+0x16f5>
    4aad: 69 00        	adc	#$0
    4aaf: 85 13        	sta	$13                     ; 0x2013 <f256main+0x16f7>
    4ab1: a0 02        	ldy	#$2
    4ab3: a5 14        	lda	$14                     ; 0x2014 <f256main+0x16f8>
    4ab5: 91 10        	sta	($10),y                 ; 0x2010 <f256main+0x16f4>
    4ab7: a5 15        	lda	$15                     ; 0x2015 <f256main+0x16f9>
    4ab9: 88           	dey
    4aba: 91 12        	sta	($12),y                 ; 0x2012 <f256main+0x16f6>
    4abc: a2 75        	ldx	#$75
    4abe: 86 12        	stx	$12                     ; 0x2012 <f256main+0x16f6>
    4ac0: a2 80        	ldx	#$80
    4ac2: 86 13        	stx	$13                     ; 0x2013 <f256main+0x16f7>
    4ac4: 20 45 59     	jsr	$5945 <printf>
    4ac7: a0 05        	ldy	#$5
    4ac9: 84 33        	sty	$33                     ; 0x2033 <f256main+0x1717>
    4acb: 8c 14 d0     	sty	$d014                   ; 0xd014 <__heap_start+0x3d0e>
    4ace: 9c 15 d0     	stz	$d015                   ; 0xd015 <__heap_start+0x3d0f>
    4ad1: a2 1f        	ldx	#$1f
    4ad3: 86 34        	stx	$34                     ; 0x2034 <f256main+0x1718>
    4ad5: 8e 16 d0     	stx	$d016                   ; 0xd016 <__heap_start+0x3d10>
    4ad8: 9c 17 d0     	stz	$d017                   ; 0xd017 <__heap_start+0x3d11>
    4adb: b1 94        	lda	($94),y                 ; 0x2094 <f256main+0x1778>
    4add: a2 90        	ldx	#$90
    4adf: c9 01        	cmp	#$1
    4ae1: f0 02        	beq	$4ae5 <refreshInstrumentText+0xf5>
    4ae3: a2 40        	ldx	#$40
    4ae5: 86 30        	stx	$30                     ; 0x2030 <f256main+0x1714>
    4ae7: a6 94        	ldx	$94                     ; 0x2094 <f256main+0x1778>
    4ae9: 86 12        	stx	$12                     ; 0x2012 <f256main+0x16f6>
    4aeb: a6 95        	ldx	$95                     ; 0x2095 <f256main+0x1779>
    4aed: 86 13        	stx	$13                     ; 0x2013 <f256main+0x16f7>
    4aef: e6 12        	inc	$12                     ; 0x2012 <f256main+0x16f6>
    4af1: d0 02        	bne	$4af5 <refreshInstrumentText+0x105>
    4af3: e6 13        	inc	$13                     ; 0x2013 <f256main+0x16f7>
    4af5: a0 01        	ldy	#$1
    4af7: b1 94        	lda	($94),y                 ; 0x2094 <f256main+0x1778>
    4af9: aa           	tax
    4afa: b1 12        	lda	($12),y                 ; 0x2012 <f256main+0x16f6>
    4afc: 86 12        	stx	$12                     ; 0x2012 <f256main+0x16f6>
    4afe: 85 13        	sta	$13                     ; 0x2013 <f256main+0x16f7>
    4b00: b1 12        	lda	($12),y                 ; 0x2012 <f256main+0x16f6>
    4b02: aa           	tax
    4b03: 0a           	asl
    4b04: 85 12        	sta	$12                     ; 0x2012 <f256main+0x16f6>
    4b06: a9 00        	lda	#$0
    4b08: 2a           	rol
    4b09: 85 13        	sta	$13                     ; 0x2013 <f256main+0x16f7>
    4b0b: a9 bb        	lda	#$bb
    4b0d: 18           	clc
    4b0e: 65 12        	adc	$12                     ; 0x2012 <f256main+0x16f6>
    4b10: 85 12        	sta	$12                     ; 0x2012 <f256main+0x16f6>
    4b12: a9 91        	lda	#$91
    4b14: 65 13        	adc	$13                     ; 0x2013 <f256main+0x16f7>
    4b16: 85 13        	sta	$13                     ; 0x2013 <f256main+0x16f7>
    4b18: b2 12        	lda	($12)                   ; 0x2012 <f256main+0x16f6>
    4b1a: 85 15        	sta	$15                     ; 0x2015 <f256main+0x16f9>
    4b1c: b1 12        	lda	($12),y                 ; 0x2012 <f256main+0x16f6>
    4b1e: 85 14        	sta	$14                     ; 0x2014 <f256main+0x16f8>
    4b20: a5 10        	lda	$10                     ; 0x2010 <f256main+0x16f4>
    4b22: a4 11        	ldy	$11                     ; 0x2011 <f256main+0x16f5>
    4b24: 18           	clc
    4b25: 69 02        	adc	#$2
    4b27: 85 12        	sta	$12                     ; 0x2012 <f256main+0x16f6>
    4b29: 98           	tya
    4b2a: 69 00        	adc	#$0
    4b2c: 85 13        	sta	$13                     ; 0x2013 <f256main+0x16f7>
    4b2e: a0 02        	ldy	#$2
    4b30: a5 15        	lda	$15                     ; 0x2015 <f256main+0x16f9>
    4b32: 91 10        	sta	($10),y                 ; 0x2010 <f256main+0x16f4>
    4b34: 8a           	txa
    4b35: 92 10        	sta	($10)                   ; 0x2010 <f256main+0x16f4>
    4b37: a9 00        	lda	#$0
    4b39: 88           	dey
    4b3a: 91 10        	sta	($10),y                 ; 0x2010 <f256main+0x16f4>
    4b3c: a5 14        	lda	$14                     ; 0x2014 <f256main+0x16f8>
    4b3e: 91 12        	sta	($12),y                 ; 0x2012 <f256main+0x16f6>
    4b40: a2 75        	ldx	#$75
    4b42: 86 12        	stx	$12                     ; 0x2012 <f256main+0x16f6>
    4b44: a2 80        	ldx	#$80
    4b46: 86 13        	stx	$13                     ; 0x2013 <f256main+0x16f7>
    4b48: 20 45 59     	jsr	$5945 <printf>
    4b4b: a0 05        	ldy	#$5
    4b4d: 84 33        	sty	$33                     ; 0x2033 <f256main+0x1717>
    4b4f: 8c 14 d0     	sty	$d014                   ; 0xd014 <__heap_start+0x3d0e>
    4b52: 9c 15 d0     	stz	$d015                   ; 0xd015 <__heap_start+0x3d0f>
    4b55: a2 20        	ldx	#$20
    4b57: 86 34        	stx	$34                     ; 0x2034 <f256main+0x1718>
    4b59: 8e 16 d0     	stx	$d016                   ; 0xd016 <__heap_start+0x3d10>
    4b5c: 9c 17 d0     	stz	$d017                   ; 0xd017 <__heap_start+0x3d11>
    4b5f: b1 94        	lda	($94),y                 ; 0x2094 <f256main+0x1778>
    4b61: a2 90        	ldx	#$90
    4b63: c9 09        	cmp	#$9
    4b65: f0 02        	beq	$4b69 <refreshInstrumentText+0x179>
    4b67: a2 40        	ldx	#$40
    4b69: 86 30        	stx	$30                     ; 0x2030 <f256main+0x1714>
    4b6b: a2 e2        	ldx	#$e2
    4b6d: 86 12        	stx	$12                     ; 0x2012 <f256main+0x16f6>
    4b6f: a2 86        	ldx	#$86
    4b71: 86 13        	stx	$13                     ; 0x2013 <f256main+0x16f7>
    4b73: 20 63 30     	jsr	$3063 <textPrint>
    4b76: a0 07        	ldy	#$7
    4b78: b1 94        	lda	($94),y                 ; 0x2094 <f256main+0x1778>
    4b7a: d0 03        	bne	$4b7f <refreshInstrumentText+0x18f>
    4b7c: 4c fa 4b     	jmp	$4bfa <refreshInstrumentText+0x20a>
    4b7f: a2 05        	ldx	#$5
    4b81: 86 33        	stx	$33                     ; 0x2033 <f256main+0x1717>
    4b83: 8e 14 d0     	stx	$d014                   ; 0xd014 <__heap_start+0x3d0e>
    4b86: 9c 15 d0     	stz	$d015                   ; 0xd015 <__heap_start+0x3d0f>
    4b89: a2 1f        	ldx	#$1f
    4b8b: 86 34        	stx	$34                     ; 0x2034 <f256main+0x1718>
    4b8d: 8e 16 d0     	stx	$d016                   ; 0xd016 <__heap_start+0x3d10>
    4b90: 9c 17 d0     	stz	$d017                   ; 0xd017 <__heap_start+0x3d11>
    4b93: a2 90        	ldx	#$90
    4b95: 86 30        	stx	$30                     ; 0x2030 <f256main+0x1714>
    4b97: a0 01        	ldy	#$1
    4b99: a6 94        	ldx	$94                     ; 0x2094 <f256main+0x1778>
    4b9b: 86 12        	stx	$12                     ; 0x2012 <f256main+0x16f6>
    4b9d: a6 95        	ldx	$95                     ; 0x2095 <f256main+0x1779>
    4b9f: 86 13        	stx	$13                     ; 0x2013 <f256main+0x16f7>
    4ba1: e6 12        	inc	$12                     ; 0x2012 <f256main+0x16f6>
    4ba3: d0 02        	bne	$4ba7 <refreshInstrumentText+0x1b7>
    4ba5: e6 13        	inc	$13                     ; 0x2013 <f256main+0x16f7>
    4ba7: b1 94        	lda	($94),y                 ; 0x2094 <f256main+0x1778>
    4ba9: aa           	tax
    4baa: b1 12        	lda	($12),y                 ; 0x2012 <f256main+0x16f6>
    4bac: 86 12        	stx	$12                     ; 0x2012 <f256main+0x16f6>
    4bae: 85 13        	sta	$13                     ; 0x2013 <f256main+0x16f7>
    4bb0: b1 12        	lda	($12),y                 ; 0x2012 <f256main+0x16f6>
    4bb2: aa           	tax
    4bb3: 0a           	asl
    4bb4: 85 12        	sta	$12                     ; 0x2012 <f256main+0x16f6>
    4bb6: a9 00        	lda	#$0
    4bb8: 2a           	rol
    4bb9: 85 13        	sta	$13                     ; 0x2013 <f256main+0x16f7>
    4bbb: a9 bb        	lda	#$bb
    4bbd: 18           	clc
    4bbe: 65 12        	adc	$12                     ; 0x2012 <f256main+0x16f6>
    4bc0: 85 12        	sta	$12                     ; 0x2012 <f256main+0x16f6>
    4bc2: a9 91        	lda	#$91
    4bc4: 65 13        	adc	$13                     ; 0x2013 <f256main+0x16f7>
    4bc6: 85 13        	sta	$13                     ; 0x2013 <f256main+0x16f7>
    4bc8: b2 12        	lda	($12)                   ; 0x2012 <f256main+0x16f6>
    4bca: 85 15        	sta	$15                     ; 0x2015 <f256main+0x16f9>
    4bcc: b1 12        	lda	($12),y                 ; 0x2012 <f256main+0x16f6>
    4bce: 85 14        	sta	$14                     ; 0x2014 <f256main+0x16f8>
    4bd0: a5 10        	lda	$10                     ; 0x2010 <f256main+0x16f4>
    4bd2: 18           	clc
    4bd3: 69 02        	adc	#$2
    4bd5: 85 12        	sta	$12                     ; 0x2012 <f256main+0x16f6>
    4bd7: a5 11        	lda	$11                     ; 0x2011 <f256main+0x16f5>
    4bd9: 69 00        	adc	#$0
    4bdb: 85 13        	sta	$13                     ; 0x2013 <f256main+0x16f7>
    4bdd: a0 02        	ldy	#$2
    4bdf: a5 15        	lda	$15                     ; 0x2015 <f256main+0x16f9>
    4be1: 91 10        	sta	($10),y                 ; 0x2010 <f256main+0x16f4>
    4be3: 8a           	txa
    4be4: 92 10        	sta	($10)                   ; 0x2010 <f256main+0x16f4>
    4be6: a9 00        	lda	#$0
    4be8: 88           	dey
    4be9: 91 10        	sta	($10),y                 ; 0x2010 <f256main+0x16f4>
    4beb: a5 14        	lda	$14                     ; 0x2014 <f256main+0x16f8>
    4bed: 91 12        	sta	($12),y                 ; 0x2012 <f256main+0x16f6>
    4bef: a2 75        	ldx	#$75
    4bf1: 86 12        	stx	$12                     ; 0x2012 <f256main+0x16f6>
    4bf3: a2 80        	ldx	#$80
    4bf5: 86 13        	stx	$13                     ; 0x2013 <f256main+0x16f7>
    4bf7: 20 45 59     	jsr	$5945 <printf>
    4bfa: a2 90        	ldx	#$90
    4bfc: 86 30        	stx	$30                     ; 0x2030 <f256main+0x1714>
    4bfe: a0 05        	ldy	#$5
    4c00: b1 94        	lda	($94),y                 ; 0x2094 <f256main+0x1778>
    4c02: c9 09        	cmp	#$9
    4c04: d0 03        	bne	$4c09 <refreshInstrumentText+0x219>
    4c06: 4c a8 4c     	jmp	$4ca8 <refreshInstrumentText+0x2b8>
    4c09: c9 01        	cmp	#$1
    4c0b: f0 41        	beq	$4c4e <refreshInstrumentText+0x25e>
    4c0d: aa           	tax
    4c0e: f0 03        	beq	$4c13 <refreshInstrumentText+0x223>
    4c10: 4c 03 4d     	jmp	$4d03 <refreshInstrumentText+0x313>
    4c13: 64 33        	stz	$33                     ; 0x2033 <f256main+0x1717>
    4c15: 9c 14 d0     	stz	$d014                   ; 0xd014 <__heap_start+0x3d0e>
    4c18: 9c 15 d0     	stz	$d015                   ; 0xd015 <__heap_start+0x3d0f>
    4c1b: a2 1e        	ldx	#$1e
    4c1d: 86 34        	stx	$34                     ; 0x2034 <f256main+0x1718>
    4c1f: 8e 16 d0     	stx	$d016                   ; 0xd016 <__heap_start+0x3d10>
    4c22: 9c 17 d0     	stz	$d017                   ; 0xd017 <__heap_start+0x3d11>
    4c25: a2 fa        	ldx	#$fa
    4c27: 86 35        	stx	$35                     ; 0x2035 <f256main+0x1719>
    4c29: a2 35        	ldx	#$35
    4c2b: 86 12        	stx	$12                     ; 0x2012 <f256main+0x16f6>
    4c2d: a2 00        	ldx	#$0
    4c2f: 86 13        	stx	$13                     ; 0x2013 <f256main+0x16f7>
    4c31: 20 63 30     	jsr	$3063 <textPrint>
    4c34: 64 33        	stz	$33                     ; 0x2033 <f256main+0x1717>
    4c36: 9c 14 d0     	stz	$d014                   ; 0xd014 <__heap_start+0x3d0e>
    4c39: 9c 15 d0     	stz	$d015                   ; 0xd015 <__heap_start+0x3d0f>
    4c3c: a2 1f        	ldx	#$1f
    4c3e: 86 34        	stx	$34                     ; 0x2034 <f256main+0x1718>
    4c40: 8e 16 d0     	stx	$d016                   ; 0xd016 <__heap_start+0x3d10>
    4c43: 9c 17 d0     	stz	$d017                   ; 0xd017 <__heap_start+0x3d11>
    4c46: a2 9e        	ldx	#$9e
    4c48: 86 12        	stx	$12                     ; 0x2012 <f256main+0x16f6>
    4c4a: a2 7f        	ldx	#$7f
    4c4c: 80 39        	bra	$4c87 <refreshInstrumentText+0x297>
    4c4e: 64 33        	stz	$33                     ; 0x2033 <f256main+0x1717>
    4c50: 9c 14 d0     	stz	$d014                   ; 0xd014 <__heap_start+0x3d0e>
    4c53: 9c 15 d0     	stz	$d015                   ; 0xd015 <__heap_start+0x3d0f>
    4c56: a2 1e        	ldx	#$1e
    4c58: 86 34        	stx	$34                     ; 0x2034 <f256main+0x1718>
    4c5a: 8e 16 d0     	stx	$d016                   ; 0xd016 <__heap_start+0x3d10>
    4c5d: 9c 17 d0     	stz	$d017                   ; 0xd017 <__heap_start+0x3d11>
    4c60: a2 9e        	ldx	#$9e
    4c62: 86 12        	stx	$12                     ; 0x2012 <f256main+0x16f6>
    4c64: a2 7f        	ldx	#$7f
    4c66: 86 13        	stx	$13                     ; 0x2013 <f256main+0x16f7>
    4c68: 20 63 30     	jsr	$3063 <textPrint>
    4c6b: 64 33        	stz	$33                     ; 0x2033 <f256main+0x1717>
    4c6d: 9c 14 d0     	stz	$d014                   ; 0xd014 <__heap_start+0x3d0e>
    4c70: 9c 15 d0     	stz	$d015                   ; 0xd015 <__heap_start+0x3d0f>
    4c73: a2 1f        	ldx	#$1f
    4c75: 86 34        	stx	$34                     ; 0x2034 <f256main+0x1718>
    4c77: 8e 16 d0     	stx	$d016                   ; 0xd016 <__heap_start+0x3d10>
    4c7a: 9c 17 d0     	stz	$d017                   ; 0xd017 <__heap_start+0x3d11>
    4c7d: a2 fa        	ldx	#$fa
    4c7f: 86 35        	stx	$35                     ; 0x2035 <f256main+0x1719>
    4c81: a2 35        	ldx	#$35
    4c83: 86 12        	stx	$12                     ; 0x2012 <f256main+0x16f6>
    4c85: a2 00        	ldx	#$0
    4c87: 86 13        	stx	$13                     ; 0x2013 <f256main+0x16f7>
    4c89: 20 63 30     	jsr	$3063 <textPrint>
    4c8c: a2 9e        	ldx	#$9e
    4c8e: 86 12        	stx	$12                     ; 0x2012 <f256main+0x16f6>
    4c90: a2 7f        	ldx	#$7f
    4c92: 86 13        	stx	$13                     ; 0x2013 <f256main+0x16f7>
    4c94: 64 33        	stz	$33                     ; 0x2033 <f256main+0x1717>
    4c96: 9c 14 d0     	stz	$d014                   ; 0xd014 <__heap_start+0x3d0e>
    4c99: 9c 15 d0     	stz	$d015                   ; 0xd015 <__heap_start+0x3d0f>
    4c9c: a2 20        	ldx	#$20
    4c9e: 86 34        	stx	$34                     ; 0x2034 <f256main+0x1718>
    4ca0: 8e 16 d0     	stx	$d016                   ; 0xd016 <__heap_start+0x3d10>
    4ca3: 9c 17 d0     	stz	$d017                   ; 0xd017 <__heap_start+0x3d11>
    4ca6: 80 58        	bra	$4d00 <refreshInstrumentText+0x310>
    4ca8: 64 33        	stz	$33                     ; 0x2033 <f256main+0x1717>
    4caa: 9c 14 d0     	stz	$d014                   ; 0xd014 <__heap_start+0x3d0e>
    4cad: 9c 15 d0     	stz	$d015                   ; 0xd015 <__heap_start+0x3d0f>
    4cb0: a2 1e        	ldx	#$1e
    4cb2: 86 34        	stx	$34                     ; 0x2034 <f256main+0x1718>
    4cb4: 8e 16 d0     	stx	$d016                   ; 0xd016 <__heap_start+0x3d10>
    4cb7: 9c 17 d0     	stz	$d017                   ; 0xd017 <__heap_start+0x3d11>
    4cba: a2 9e        	ldx	#$9e
    4cbc: 86 12        	stx	$12                     ; 0x2012 <f256main+0x16f6>
    4cbe: a2 7f        	ldx	#$7f
    4cc0: 86 13        	stx	$13                     ; 0x2013 <f256main+0x16f7>
    4cc2: 20 63 30     	jsr	$3063 <textPrint>
    4cc5: 64 33        	stz	$33                     ; 0x2033 <f256main+0x1717>
    4cc7: 9c 14 d0     	stz	$d014                   ; 0xd014 <__heap_start+0x3d0e>
    4cca: 9c 15 d0     	stz	$d015                   ; 0xd015 <__heap_start+0x3d0f>
    4ccd: a2 1f        	ldx	#$1f
    4ccf: 86 34        	stx	$34                     ; 0x2034 <f256main+0x1718>
    4cd1: 8e 16 d0     	stx	$d016                   ; 0xd016 <__heap_start+0x3d10>
    4cd4: 9c 17 d0     	stz	$d017                   ; 0xd017 <__heap_start+0x3d11>
    4cd7: a2 9e        	ldx	#$9e
    4cd9: 86 12        	stx	$12                     ; 0x2012 <f256main+0x16f6>
    4cdb: a2 7f        	ldx	#$7f
    4cdd: 86 13        	stx	$13                     ; 0x2013 <f256main+0x16f7>
    4cdf: 20 63 30     	jsr	$3063 <textPrint>
    4ce2: 64 33        	stz	$33                     ; 0x2033 <f256main+0x1717>
    4ce4: 9c 14 d0     	stz	$d014                   ; 0xd014 <__heap_start+0x3d0e>
    4ce7: 9c 15 d0     	stz	$d015                   ; 0xd015 <__heap_start+0x3d0f>
    4cea: a2 20        	ldx	#$20
    4cec: 86 34        	stx	$34                     ; 0x2034 <f256main+0x1718>
    4cee: 8e 16 d0     	stx	$d016                   ; 0xd016 <__heap_start+0x3d10>
    4cf1: 9c 17 d0     	stz	$d017                   ; 0xd017 <__heap_start+0x3d11>
    4cf4: a2 fa        	ldx	#$fa
    4cf6: 86 35        	stx	$35                     ; 0x2035 <f256main+0x1719>
    4cf8: a2 35        	ldx	#$35
    4cfa: 86 12        	stx	$12                     ; 0x2012 <f256main+0x16f6>
    4cfc: a2 00        	ldx	#$0
    4cfe: 86 13        	stx	$13                     ; 0x2013 <f256main+0x16f7>
    4d00: 20 63 30     	jsr	$3063 <textPrint>
    4d03: a0 07        	ldy	#$7
    4d05: b1 94        	lda	($94),y                 ; 0x2094 <f256main+0x1778>
    4d07: f0 5f        	beq	$4d68 <refreshInstrumentText+0x378>
    4d09: 64 33        	stz	$33                     ; 0x2033 <f256main+0x1717>
    4d0b: 9c 14 d0     	stz	$d014                   ; 0xd014 <__heap_start+0x3d0e>
    4d0e: 9c 15 d0     	stz	$d015                   ; 0xd015 <__heap_start+0x3d0f>
    4d11: a2 1e        	ldx	#$1e
    4d13: 86 34        	stx	$34                     ; 0x2034 <f256main+0x1718>
    4d15: 8e 16 d0     	stx	$d016                   ; 0xd016 <__heap_start+0x3d10>
    4d18: 9c 17 d0     	stz	$d017                   ; 0xd017 <__heap_start+0x3d11>
    4d1b: a2 fa        	ldx	#$fa
    4d1d: 86 35        	stx	$35                     ; 0x2035 <f256main+0x1719>
    4d1f: a2 35        	ldx	#$35
    4d21: 86 12        	stx	$12                     ; 0x2012 <f256main+0x16f6>
    4d23: a2 00        	ldx	#$0
    4d25: 86 13        	stx	$13                     ; 0x2013 <f256main+0x16f7>
    4d27: 20 63 30     	jsr	$3063 <textPrint>
    4d2a: 64 33        	stz	$33                     ; 0x2033 <f256main+0x1717>
    4d2c: 9c 14 d0     	stz	$d014                   ; 0xd014 <__heap_start+0x3d0e>
    4d2f: 9c 15 d0     	stz	$d015                   ; 0xd015 <__heap_start+0x3d0f>
    4d32: a2 1f        	ldx	#$1f
    4d34: 86 34        	stx	$34                     ; 0x2034 <f256main+0x1718>
    4d36: 8e 16 d0     	stx	$d016                   ; 0xd016 <__heap_start+0x3d10>
    4d39: 9c 17 d0     	stz	$d017                   ; 0xd017 <__heap_start+0x3d11>
    4d3c: a2 fa        	ldx	#$fa
    4d3e: 86 35        	stx	$35                     ; 0x2035 <f256main+0x1719>
    4d40: a2 35        	ldx	#$35
    4d42: 86 12        	stx	$12                     ; 0x2012 <f256main+0x16f6>
    4d44: a2 00        	ldx	#$0
    4d46: 86 13        	stx	$13                     ; 0x2013 <f256main+0x16f7>
    4d48: 20 63 30     	jsr	$3063 <textPrint>
    4d4b: 64 33        	stz	$33                     ; 0x2033 <f256main+0x1717>
    4d4d: 9c 14 d0     	stz	$d014                   ; 0xd014 <__heap_start+0x3d0e>
    4d50: 9c 15 d0     	stz	$d015                   ; 0xd015 <__heap_start+0x3d0f>
    4d53: a2 20        	ldx	#$20
    4d55: 86 34        	stx	$34                     ; 0x2034 <f256main+0x1718>
    4d57: 8e 16 d0     	stx	$d016                   ; 0xd016 <__heap_start+0x3d10>
    4d5a: 9c 17 d0     	stz	$d017                   ; 0xd017 <__heap_start+0x3d11>
    4d5d: a2 9e        	ldx	#$9e
    4d5f: 86 12        	stx	$12                     ; 0x2012 <f256main+0x16f6>
    4d61: a2 7f        	ldx	#$7f
    4d63: 86 13        	stx	$13                     ; 0x2013 <f256main+0x16f7>
    4d65: 20 63 30     	jsr	$3063 <textPrint>
    4d68: 18           	clc
    4d69: a5 10        	lda	$10                     ; 0x2010 <f256main+0x16f4>
    4d6b: 69 04        	adc	#$4
    4d6d: 85 10        	sta	$10                     ; 0x2010 <f256main+0x16f4>
    4d6f: a5 11        	lda	$11                     ; 0x2011 <f256main+0x16f5>
    4d71: 69 00        	adc	#$0
    4d73: 85 11        	sta	$11                     ; 0x2011 <f256main+0x16f5>
    4d75: 60           	rts

00004d76 <channelTextMenu>:
    4d76: a6 12        	ldx	$12                     ; 0x2012 <f256main+0x16f6>
    4d78: 86 92        	stx	$92                     ; 0x2092 <f256main+0x1776>
    4d7a: a6 13        	ldx	$13                     ; 0x2013 <f256main+0x16f7>
    4d7c: 86 93        	stx	$93                     ; 0x2093 <f256main+0x1777>
    4d7e: a2 40        	ldx	#$40
    4d80: 86 30        	stx	$30                     ; 0x2030 <f256main+0x1714>
    4d82: 64 33        	stz	$33                     ; 0x2033 <f256main+0x1717>
    4d84: 9c 14 d0     	stz	$d014                   ; 0xd014 <__heap_start+0x3d0e>
    4d87: 9c 15 d0     	stz	$d015                   ; 0xd015 <__heap_start+0x3d0f>
    4d8a: a2 1a        	ldx	#$1a
    4d8c: 86 34        	stx	$34                     ; 0x2034 <f256main+0x1718>
    4d8e: 8e 16 d0     	stx	$d016                   ; 0xd016 <__heap_start+0x3d10>
    4d91: 9c 17 d0     	stz	$d017                   ; 0xd017 <__heap_start+0x3d11>
    4d94: a2 3e        	ldx	#$3e
    4d96: 86 12        	stx	$12                     ; 0x2012 <f256main+0x16f6>
    4d98: a2 7f        	ldx	#$7f
    4d9a: 86 13        	stx	$13                     ; 0x2013 <f256main+0x16f7>
    4d9c: 20 63 30     	jsr	$3063 <textPrint>
    4d9f: 64 33        	stz	$33                     ; 0x2033 <f256main+0x1717>
    4da1: 9c 14 d0     	stz	$d014                   ; 0xd014 <__heap_start+0x3d0e>
    4da4: 9c 15 d0     	stz	$d015                   ; 0xd015 <__heap_start+0x3d0f>
    4da7: a2 1b        	ldx	#$1b
    4da9: 86 34        	stx	$34                     ; 0x2034 <f256main+0x1718>
    4dab: 8e 16 d0     	stx	$d016                   ; 0xd016 <__heap_start+0x3d10>
    4dae: 9c 17 d0     	stz	$d017                   ; 0xd017 <__heap_start+0x3d11>
    4db1: a2 75        	ldx	#$75
    4db3: 86 12        	stx	$12                     ; 0x2012 <f256main+0x16f6>
    4db5: a2 81        	ldx	#$81
    4db7: 86 13        	stx	$13                     ; 0x2013 <f256main+0x16f7>
    4db9: 20 63 30     	jsr	$3063 <textPrint>
    4dbc: a2 01        	ldx	#$1
    4dbe: 86 33        	stx	$33                     ; 0x2033 <f256main+0x1717>
    4dc0: 8e 14 d0     	stx	$d014                   ; 0xd014 <__heap_start+0x3d0e>
    4dc3: 9c 15 d0     	stz	$d015                   ; 0xd015 <__heap_start+0x3d0f>
    4dc6: a2 1d        	ldx	#$1d
    4dc8: 86 34        	stx	$34                     ; 0x2034 <f256main+0x1718>
    4dca: 8e 16 d0     	stx	$d016                   ; 0xd016 <__heap_start+0x3d10>
    4dcd: 9c 17 d0     	stz	$d017                   ; 0xd017 <__heap_start+0x3d11>
    4dd0: a2 4a        	ldx	#$4a
    4dd2: 86 12        	stx	$12                     ; 0x2012 <f256main+0x16f6>
    4dd4: a2 83        	ldx	#$83
    4dd6: 86 13        	stx	$13                     ; 0x2013 <f256main+0x16f7>
    4dd8: 20 63 30     	jsr	$3063 <textPrint>
    4ddb: a2 02        	ldx	#$2
    4ddd: 86 33        	stx	$33                     ; 0x2033 <f256main+0x1717>
    4ddf: 8e 14 d0     	stx	$d014                   ; 0xd014 <__heap_start+0x3d0e>
    4de2: 9c 15 d0     	stz	$d015                   ; 0xd015 <__heap_start+0x3d0f>
    4de5: a2 1e        	ldx	#$1e
    4de7: 86 34        	stx	$34                     ; 0x2034 <f256main+0x1718>
    4de9: 8e 16 d0     	stx	$d016                   ; 0xd016 <__heap_start+0x3d10>
    4dec: 9c 17 d0     	stz	$d017                   ; 0xd017 <__heap_start+0x3d11>
    4def: a2 a0        	ldx	#$a0
    4df1: 86 12        	stx	$12                     ; 0x2012 <f256main+0x16f6>
    4df3: a2 7f        	ldx	#$7f
    4df5: 86 13        	stx	$13                     ; 0x2013 <f256main+0x16f7>
    4df7: 20 63 30     	jsr	$3063 <textPrint>
    4dfa: a2 02        	ldx	#$2
    4dfc: 86 33        	stx	$33                     ; 0x2033 <f256main+0x1717>
    4dfe: 8e 14 d0     	stx	$d014                   ; 0xd014 <__heap_start+0x3d0e>
    4e01: 9c 15 d0     	stz	$d015                   ; 0xd015 <__heap_start+0x3d0f>
    4e04: a2 1f        	ldx	#$1f
    4e06: 86 34        	stx	$34                     ; 0x2034 <f256main+0x1718>
    4e08: 8e 16 d0     	stx	$d016                   ; 0xd016 <__heap_start+0x3d10>
    4e0b: 9c 17 d0     	stz	$d017                   ; 0xd017 <__heap_start+0x3d11>
    4e0e: a2 67        	ldx	#$67
    4e10: 86 12        	stx	$12                     ; 0x2012 <f256main+0x16f6>
    4e12: a2 8a        	ldx	#$8a
    4e14: 86 13        	stx	$13                     ; 0x2013 <f256main+0x16f7>
    4e16: 20 63 30     	jsr	$3063 <textPrint>
    4e19: a2 02        	ldx	#$2
    4e1b: 86 33        	stx	$33                     ; 0x2033 <f256main+0x1717>
    4e1d: 8e 14 d0     	stx	$d014                   ; 0xd014 <__heap_start+0x3d0e>
    4e20: 9c 15 d0     	stz	$d015                   ; 0xd015 <__heap_start+0x3d0f>
    4e23: a2 20        	ldx	#$20
    4e25: 86 34        	stx	$34                     ; 0x2034 <f256main+0x1718>
    4e27: 8e 16 d0     	stx	$d016                   ; 0xd016 <__heap_start+0x3d10>
    4e2a: 9c 17 d0     	stz	$d017                   ; 0xd017 <__heap_start+0x3d11>
    4e2d: a2 0a        	ldx	#$a
    4e2f: 86 12        	stx	$12                     ; 0x2012 <f256main+0x16f6>
    4e31: a2 8b        	ldx	#$8b
    4e33: 86 13        	stx	$13                     ; 0x2013 <f256main+0x16f7>
    4e35: 20 63 30     	jsr	$3063 <textPrint>
    4e38: 64 33        	stz	$33                     ; 0x2033 <f256main+0x1717>
    4e3a: 9c 14 d0     	stz	$d014                   ; 0xd014 <__heap_start+0x3d0e>
    4e3d: 9c 15 d0     	stz	$d015                   ; 0xd015 <__heap_start+0x3d0f>
    4e40: a2 21        	ldx	#$21
    4e42: 86 34        	stx	$34                     ; 0x2034 <f256main+0x1718>
    4e44: 8e 16 d0     	stx	$d016                   ; 0xd016 <__heap_start+0x3d10>
    4e47: 9c 17 d0     	stz	$d017                   ; 0xd017 <__heap_start+0x3d11>
    4e4a: a2 63        	ldx	#$63
    4e4c: 86 12        	stx	$12                     ; 0x2012 <f256main+0x16f6>
    4e4e: a2 86        	ldx	#$86
    4e50: 86 13        	stx	$13                     ; 0x2013 <f256main+0x16f7>
    4e52: 20 63 30     	jsr	$3063 <textPrint>
    4e55: a6 92        	ldx	$92                     ; 0x2092 <f256main+0x1776>
    4e57: 86 12        	stx	$12                     ; 0x2012 <f256main+0x16f6>
    4e59: a6 93        	ldx	$93                     ; 0x2093 <f256main+0x1777>
    4e5b: 86 13        	stx	$13                     ; 0x2013 <f256main+0x16f7>
    4e5d: 4c f0 49     	jmp	$49f0 <refreshInstrumentText>

00004e60 <refreshBeatTextChoice>:
    4e60: 18           	clc
    4e61: a5 10        	lda	$10                     ; 0x2010 <f256main+0x16f4>
    4e63: 69 fe        	adc	#$fe
    4e65: 85 10        	sta	$10                     ; 0x2010 <f256main+0x16f4>
    4e67: a5 11        	lda	$11                     ; 0x2011 <f256main+0x16f5>
    4e69: 69 ff        	adc	#$ff
    4e6b: 85 11        	sta	$11                     ; 0x2011 <f256main+0x16f5>
    4e6d: a6 12        	ldx	$12                     ; 0x2012 <f256main+0x16f6>
    4e6f: 86 92        	stx	$92                     ; 0x2092 <f256main+0x1776>
    4e71: a6 13        	ldx	$13                     ; 0x2013 <f256main+0x16f7>
    4e73: 86 93        	stx	$93                     ; 0x2093 <f256main+0x1777>
    4e75: a2 90        	ldx	#$90
    4e77: 86 30        	stx	$30                     ; 0x2030 <f256main+0x1714>
    4e79: a2 2e        	ldx	#$2e
    4e7b: 86 33        	stx	$33                     ; 0x2033 <f256main+0x1717>
    4e7d: 8e 14 d0     	stx	$d014                   ; 0xd014 <__heap_start+0x3d0e>
    4e80: 9c 15 d0     	stz	$d015                   ; 0xd015 <__heap_start+0x3d0f>
    4e83: a2 1d        	ldx	#$1d
    4e85: 86 34        	stx	$34                     ; 0x2034 <f256main+0x1718>
    4e87: 8e 16 d0     	stx	$d016                   ; 0xd016 <__heap_start+0x3d10>
    4e8a: 9c 17 d0     	stz	$d017                   ; 0xd017 <__heap_start+0x3d11>
    4e8d: a2 83        	ldx	#$83
    4e8f: 86 12        	stx	$12                     ; 0x2012 <f256main+0x16f6>
    4e91: a2 86        	ldx	#$86
    4e93: 86 13        	stx	$13                     ; 0x2013 <f256main+0x16f7>
    4e95: 20 63 30     	jsr	$3063 <textPrint>
    4e98: a2 2e        	ldx	#$2e
    4e9a: 86 33        	stx	$33                     ; 0x2033 <f256main+0x1717>
    4e9c: 8e 14 d0     	stx	$d014                   ; 0xd014 <__heap_start+0x3d0e>
    4e9f: 9c 15 d0     	stz	$d015                   ; 0xd015 <__heap_start+0x3d0f>
    4ea2: a2 1d        	ldx	#$1d
    4ea4: 86 34        	stx	$34                     ; 0x2034 <f256main+0x1718>
    4ea6: 8e 16 d0     	stx	$d016                   ; 0xd016 <__heap_start+0x3d10>
    4ea9: 9c 17 d0     	stz	$d017                   ; 0xd017 <__heap_start+0x3d11>
    4eac: a0 08        	ldy	#$8
    4eae: a6 92        	ldx	$92                     ; 0x2092 <f256main+0x1776>
    4eb0: 86 12        	stx	$12                     ; 0x2012 <f256main+0x16f6>
    4eb2: a6 93        	ldx	$93                     ; 0x2093 <f256main+0x1777>
    4eb4: 86 13        	stx	$13                     ; 0x2013 <f256main+0x16f7>
    4eb6: b1 12        	lda	($12),y                 ; 0x2012 <f256main+0x16f6>
    4eb8: 0a           	asl
    4eb9: 85 12        	sta	$12                     ; 0x2012 <f256main+0x16f6>
    4ebb: 64 13        	stz	$13                     ; 0x2013 <f256main+0x16f7>
    4ebd: 26 13        	rol	$13                     ; 0x2013 <f256main+0x16f7>
    4ebf: a9 bb        	lda	#$bb
    4ec1: 18           	clc
    4ec2: 65 12        	adc	$12                     ; 0x2012 <f256main+0x16f6>
    4ec4: 85 12        	sta	$12                     ; 0x2012 <f256main+0x16f6>
    4ec6: a9 92        	lda	#$92
    4ec8: 65 13        	adc	$13                     ; 0x2013 <f256main+0x16f7>
    4eca: 85 13        	sta	$13                     ; 0x2013 <f256main+0x16f7>
    4ecc: b2 12        	lda	($12)                   ; 0x2012 <f256main+0x16f6>
    4ece: 85 14        	sta	$14                     ; 0x2014 <f256main+0x16f8>
    4ed0: a0 01        	ldy	#$1
    4ed2: b1 12        	lda	($12),y                 ; 0x2012 <f256main+0x16f6>
    4ed4: 85 12        	sta	$12                     ; 0x2012 <f256main+0x16f6>
    4ed6: a5 14        	lda	$14                     ; 0x2014 <f256main+0x16f8>
    4ed8: 92 10        	sta	($10)                   ; 0x2010 <f256main+0x16f4>
    4eda: a5 12        	lda	$12                     ; 0x2012 <f256main+0x16f6>
    4edc: 91 10        	sta	($10),y                 ; 0x2010 <f256main+0x16f4>
    4ede: a2 e5        	ldx	#$e5
    4ee0: 86 12        	stx	$12                     ; 0x2012 <f256main+0x16f6>
    4ee2: a2 84        	ldx	#$84
    4ee4: 86 13        	stx	$13                     ; 0x2013 <f256main+0x16f7>
    4ee6: 20 45 59     	jsr	$5945 <printf>
    4ee9: 18           	clc
    4eea: a5 10        	lda	$10                     ; 0x2010 <f256main+0x16f4>
    4eec: 69 02        	adc	#$2
    4eee: 85 10        	sta	$10                     ; 0x2010 <f256main+0x16f4>
    4ef0: a5 11        	lda	$11                     ; 0x2011 <f256main+0x16f5>
    4ef2: 69 00        	adc	#$0
    4ef4: 85 11        	sta	$11                     ; 0x2011 <f256main+0x16f5>
    4ef6: 60           	rts

00004ef7 <updateTempoText>:
    4ef7: 85 92        	sta	$92                     ; 0x2092 <f256main+0x1776>
    4ef9: a2 40        	ldx	#$40
    4efb: 86 30        	stx	$30                     ; 0x2030 <f256main+0x1714>
    4efd: a2 2d        	ldx	#$2d
    4eff: 86 33        	stx	$33                     ; 0x2033 <f256main+0x1717>
    4f01: 8e 14 d0     	stx	$d014                   ; 0xd014 <__heap_start+0x3d0e>
    4f04: 9c 15 d0     	stz	$d015                   ; 0xd015 <__heap_start+0x3d0f>
    4f07: a2 1f        	ldx	#$1f
    4f09: 86 34        	stx	$34                     ; 0x2034 <f256main+0x1718>
    4f0b: 8e 16 d0     	stx	$d016                   ; 0xd016 <__heap_start+0x3d10>
    4f0e: 9c 17 d0     	stz	$d017                   ; 0xd017 <__heap_start+0x3d11>
    4f11: a2 b4        	ldx	#$b4
    4f13: 86 12        	stx	$12                     ; 0x2012 <f256main+0x16f6>
    4f15: a2 8b        	ldx	#$8b
    4f17: 86 13        	stx	$13                     ; 0x2013 <f256main+0x16f7>
    4f19: 20 63 30     	jsr	$3063 <textPrint>
    4f1c: 64 12        	stz	$12                     ; 0x2012 <f256main+0x16f6>
    4f1e: 64 13        	stz	$13                     ; 0x2013 <f256main+0x16f7>
    4f20: a2 00        	ldx	#$0
    4f22: a5 92        	lda	$92                     ; 0x2092 <f256main+0x1776>
    4f24: 20 7b 40     	jsr	$407b <textPrintUInt>
    4f27: a2 d8        	ldx	#$d8
    4f29: 86 12        	stx	$12                     ; 0x2012 <f256main+0x16f6>
    4f2b: a2 88        	ldx	#$88
    4f2d: 86 13        	stx	$13                     ; 0x2013 <f256main+0x16f7>
    4f2f: 20 63 30     	jsr	$3063 <textPrint>
    4f32: a2 2d        	ldx	#$2d
    4f34: 86 33        	stx	$33                     ; 0x2033 <f256main+0x1717>
    4f36: 8e 14 d0     	stx	$d014                   ; 0xd014 <__heap_start+0x3d0e>
    4f39: 9c 15 d0     	stz	$d015                   ; 0xd015 <__heap_start+0x3d0f>
    4f3c: a2 20        	ldx	#$20
    4f3e: 86 34        	stx	$34                     ; 0x2034 <f256main+0x1718>
    4f40: 8e 16 d0     	stx	$d016                   ; 0xd016 <__heap_start+0x3d10>
    4f43: 9c 17 d0     	stz	$d017                   ; 0xd017 <__heap_start+0x3d11>
    4f46: a2 59        	ldx	#$59
    4f48: 86 12        	stx	$12                     ; 0x2012 <f256main+0x16f6>
    4f4a: a2 83        	ldx	#$83
    4f4c: 86 13        	stx	$13                     ; 0x2013 <f256main+0x16f7>
    4f4e: 4c 63 30     	jmp	$3063 <textPrint>

00004f51 <showChipChoiceText>:
    4f51: a0 06        	ldy	#$6
    4f53: b1 12        	lda	($12),y                 ; 0x2012 <f256main+0x16f6>
    4f55: c9 04        	cmp	#$4
    4f57: 90 03        	bcc	$4f5c <showChipChoiceText+0xb>
    4f59: 4c 48 50     	jmp	$5048 <showChipChoiceText+0xf7>
    4f5c: 0a           	asl
    4f5d: aa           	tax
    4f5e: 7c 33 7e     	jmp	($7e33,x)               ; 0x7e33 <__set_v+0x21>
    4f61: 20 49 50     	jsr	$5049 <showMIDIChoiceText>
    4f64: a0 40        	ldy	#$40
    4f66: a2 73        	ldx	#$73
    4f68: 86 12        	stx	$12                     ; 0x2012 <f256main+0x16f6>
    4f6a: a2 82        	ldx	#$82
    4f6c: 86 13        	stx	$13                     ; 0x2013 <f256main+0x16f7>
    4f6e: a2 2d        	ldx	#$2d
    4f70: 4c 31 50     	jmp	$5031 <showChipChoiceText+0xe0>
    4f73: 20 49 50     	jsr	$5049 <showMIDIChoiceText>
    4f76: a2 2c        	ldx	#$2c
    4f78: 86 33        	stx	$33                     ; 0x2033 <f256main+0x1717>
    4f7a: 8e 14 d0     	stx	$d014                   ; 0xd014 <__heap_start+0x3d0e>
    4f7d: 9c 15 d0     	stz	$d015                   ; 0xd015 <__heap_start+0x3d0f>
    4f80: a2 39        	ldx	#$39
    4f82: 86 34        	stx	$34                     ; 0x2034 <f256main+0x1718>
    4f84: 8e 16 d0     	stx	$d016                   ; 0xd016 <__heap_start+0x3d10>
    4f87: 9c 17 d0     	stz	$d017                   ; 0xd017 <__heap_start+0x3d11>
    4f8a: a2 40        	ldx	#$40
    4f8c: 86 30        	stx	$30                     ; 0x2030 <f256main+0x1714>
    4f8e: a2 24        	ldx	#$24
    4f90: 86 12        	stx	$12                     ; 0x2012 <f256main+0x16f6>
    4f92: a2 8a        	ldx	#$8a
    4f94: 86 13        	stx	$13                     ; 0x2013 <f256main+0x16f7>
    4f96: 20 63 30     	jsr	$3063 <textPrint>
    4f99: a2 32        	ldx	#$32
    4f9b: 86 33        	stx	$33                     ; 0x2033 <f256main+0x1717>
    4f9d: 8e 14 d0     	stx	$d014                   ; 0xd014 <__heap_start+0x3d0e>
    4fa0: 9c 15 d0     	stz	$d015                   ; 0xd015 <__heap_start+0x3d0f>
    4fa3: a2 39        	ldx	#$39
    4fa5: 86 34        	stx	$34                     ; 0x2034 <f256main+0x1718>
    4fa7: 8e 16 d0     	stx	$d016                   ; 0xd016 <__heap_start+0x3d10>
    4faa: 9c 17 d0     	stz	$d017                   ; 0xd017 <__heap_start+0x3d11>
    4fad: a2 90        	ldx	#$90
    4faf: 86 30        	stx	$30                     ; 0x2030 <f256main+0x1714>
    4fb1: a2 0e        	ldx	#$e
    4fb3: 86 12        	stx	$12                     ; 0x2012 <f256main+0x16f6>
    4fb5: a2 8b        	ldx	#$8b
    4fb7: 86 13        	stx	$13                     ; 0x2013 <f256main+0x16f7>
    4fb9: 20 63 30     	jsr	$3063 <textPrint>
    4fbc: a0 40        	ldy	#$40
    4fbe: a2 e5        	ldx	#$e5
    4fc0: 86 12        	stx	$12                     ; 0x2012 <f256main+0x16f6>
    4fc2: a2 81        	ldx	#$81
    4fc4: 86 13        	stx	$13                     ; 0x2013 <f256main+0x16f7>
    4fc6: a2 38        	ldx	#$38
    4fc8: 4c 31 50     	jmp	$5031 <showChipChoiceText+0xe0>
    4fcb: 20 49 50     	jsr	$5049 <showMIDIChoiceText>
    4fce: a2 2c        	ldx	#$2c
    4fd0: 86 33        	stx	$33                     ; 0x2033 <f256main+0x1717>
    4fd2: 8e 14 d0     	stx	$d014                   ; 0xd014 <__heap_start+0x3d0e>
    4fd5: 9c 15 d0     	stz	$d015                   ; 0xd015 <__heap_start+0x3d0f>
    4fd8: a2 39        	ldx	#$39
    4fda: 86 34        	stx	$34                     ; 0x2034 <f256main+0x1718>
    4fdc: 8e 16 d0     	stx	$d016                   ; 0xd016 <__heap_start+0x3d10>
    4fdf: 9c 17 d0     	stz	$d017                   ; 0xd017 <__heap_start+0x3d11>
    4fe2: a2 40        	ldx	#$40
    4fe4: 86 30        	stx	$30                     ; 0x2030 <f256main+0x1714>
    4fe6: a2 ba        	ldx	#$ba
    4fe8: 86 12        	stx	$12                     ; 0x2012 <f256main+0x16f6>
    4fea: a2 89        	ldx	#$89
    4fec: 86 13        	stx	$13                     ; 0x2013 <f256main+0x16f7>
    4fee: 20 63 30     	jsr	$3063 <textPrint>
    4ff1: a2 52        	ldx	#$52
    4ff3: 86 12        	stx	$12                     ; 0x2012 <f256main+0x16f6>
    4ff5: a2 88        	ldx	#$88
    4ff7: 86 13        	stx	$13                     ; 0x2013 <f256main+0x16f7>
    4ff9: a2 38        	ldx	#$38
    4ffb: a0 90        	ldy	#$90
    4ffd: 80 32        	bra	$5031 <showChipChoiceText+0xe0>
    4fff: 20 49 50     	jsr	$5049 <showMIDIChoiceText>
    5002: a2 2c        	ldx	#$2c
    5004: 86 33        	stx	$33                     ; 0x2033 <f256main+0x1717>
    5006: 8e 14 d0     	stx	$d014                   ; 0xd014 <__heap_start+0x3d0e>
    5009: 9c 15 d0     	stz	$d015                   ; 0xd015 <__heap_start+0x3d0f>
    500c: a2 39        	ldx	#$39
    500e: 86 34        	stx	$34                     ; 0x2034 <f256main+0x1718>
    5010: 8e 16 d0     	stx	$d016                   ; 0xd016 <__heap_start+0x3d10>
    5013: 9c 17 d0     	stz	$d017                   ; 0xd017 <__heap_start+0x3d11>
    5016: a2 90        	ldx	#$90
    5018: 86 30        	stx	$30                     ; 0x2030 <f256main+0x1714>
    501a: a2 7a        	ldx	#$7a
    501c: 86 12        	stx	$12                     ; 0x2012 <f256main+0x16f6>
    501e: a2 83        	ldx	#$83
    5020: 86 13        	stx	$13                     ; 0x2013 <f256main+0x16f7>
    5022: 20 63 30     	jsr	$3063 <textPrint>
    5025: a0 40        	ldy	#$40
    5027: a2 ca        	ldx	#$ca
    5029: 86 12        	stx	$12                     ; 0x2012 <f256main+0x16f6>
    502b: a2 80        	ldx	#$80
    502d: 86 13        	stx	$13                     ; 0x2013 <f256main+0x16f7>
    502f: a2 32        	ldx	#$32
    5031: 86 33        	stx	$33                     ; 0x2033 <f256main+0x1717>
    5033: 8e 14 d0     	stx	$d014                   ; 0xd014 <__heap_start+0x3d0e>
    5036: 9c 15 d0     	stz	$d015                   ; 0xd015 <__heap_start+0x3d0f>
    5039: a2 39        	ldx	#$39
    503b: 86 34        	stx	$34                     ; 0x2034 <f256main+0x1718>
    503d: 8e 16 d0     	stx	$d016                   ; 0xd016 <__heap_start+0x3d10>
    5040: 9c 17 d0     	stz	$d017                   ; 0xd017 <__heap_start+0x3d11>
    5043: 84 30        	sty	$30                     ; 0x2030 <f256main+0x1714>
    5045: 20 63 30     	jsr	$3063 <textPrint>
    5048: 60           	rts

00005049 <showMIDIChoiceText>:
    5049: a6 12        	ldx	$12                     ; 0x2012 <f256main+0x16f6>
    504b: 86 92        	stx	$92                     ; 0x2092 <f256main+0x1776>
    504d: a6 13        	ldx	$13                     ; 0x2013 <f256main+0x16f7>
    504f: 86 93        	stx	$93                     ; 0x2093 <f256main+0x1777>
    5051: a0 06        	ldy	#$6
    5053: b1 12        	lda	($12),y                 ; 0x2012 <f256main+0x16f6>
    5055: f0 06        	beq	$505d <showMIDIChoiceText+0x14>
    5057: a2 40        	ldx	#$40
    5059: 86 94        	stx	$94                     ; 0x2094 <f256main+0x1778>
    505b: 80 12        	bra	$506f <showMIDIChoiceText+0x26>
    505d: b2 92        	lda	($92)                   ; 0x2092 <f256main+0x1776>
    505f: f0 08        	beq	$5069 <showMIDIChoiceText+0x20>
    5061: a2 90        	ldx	#$90
    5063: 86 94        	stx	$94                     ; 0x2094 <f256main+0x1778>
    5065: a2 40        	ldx	#$40
    5067: 80 06        	bra	$506f <showMIDIChoiceText+0x26>
    5069: a2 40        	ldx	#$40
    506b: 86 94        	stx	$94                     ; 0x2094 <f256main+0x1778>
    506d: a2 90        	ldx	#$90
    506f: 86 30        	stx	$30                     ; 0x2030 <f256main+0x1714>
    5071: a2 1d        	ldx	#$1d
    5073: 86 33        	stx	$33                     ; 0x2033 <f256main+0x1717>
    5075: 8e 14 d0     	stx	$d014                   ; 0xd014 <__heap_start+0x3d0e>
    5078: 9c 15 d0     	stz	$d015                   ; 0xd015 <__heap_start+0x3d0f>
    507b: a2 39        	ldx	#$39
    507d: 86 34        	stx	$34                     ; 0x2034 <f256main+0x1718>
    507f: 8e 16 d0     	stx	$d016                   ; 0xd016 <__heap_start+0x3d10>
    5082: 9c 17 d0     	stz	$d017                   ; 0xd017 <__heap_start+0x3d11>
    5085: b2 92        	lda	($92)                   ; 0x2092 <f256main+0x1776>
    5087: f0 08        	beq	$5091 <showMIDIChoiceText+0x48>
    5089: a2 2f        	ldx	#$2f
    508b: 86 12        	stx	$12                     ; 0x2012 <f256main+0x16f6>
    508d: a2 85        	ldx	#$85
    508f: 80 06        	bra	$5097 <showMIDIChoiceText+0x4e>
    5091: a2 dc        	ldx	#$dc
    5093: 86 12        	stx	$12                     ; 0x2012 <f256main+0x16f6>
    5095: a2 87        	ldx	#$87
    5097: 86 13        	stx	$13                     ; 0x2013 <f256main+0x16f7>
    5099: 20 63 30     	jsr	$3063 <textPrint>
    509c: a6 94        	ldx	$94                     ; 0x2094 <f256main+0x1778>
    509e: 86 30        	stx	$30                     ; 0x2030 <f256main+0x1714>
    50a0: a2 1d        	ldx	#$1d
    50a2: 86 33        	stx	$33                     ; 0x2033 <f256main+0x1717>
    50a4: 8e 14 d0     	stx	$d014                   ; 0xd014 <__heap_start+0x3d0e>
    50a7: 9c 15 d0     	stz	$d015                   ; 0xd015 <__heap_start+0x3d0f>
    50aa: a2 3a        	ldx	#$3a
    50ac: 86 34        	stx	$34                     ; 0x2034 <f256main+0x1718>
    50ae: 8e 16 d0     	stx	$d016                   ; 0xd016 <__heap_start+0x3d10>
    50b1: 9c 17 d0     	stz	$d017                   ; 0xd017 <__heap_start+0x3d11>
    50b4: b2 92        	lda	($92)                   ; 0x2092 <f256main+0x1776>
    50b6: f0 08        	beq	$50c0 <showMIDIChoiceText+0x77>
    50b8: a2 1b        	ldx	#$1b
    50ba: 86 12        	stx	$12                     ; 0x2012 <f256main+0x16f6>
    50bc: a2 84        	ldx	#$84
    50be: 80 06        	bra	$50c6 <showMIDIChoiceText+0x7d>
    50c0: a2 06        	ldx	#$6
    50c2: 86 12        	stx	$12                     ; 0x2012 <f256main+0x16f6>
    50c4: a2 87        	ldx	#$87
    50c6: 86 13        	stx	$13                     ; 0x2013 <f256main+0x16f7>
    50c8: 4c 63 30     	jmp	$3063 <textPrint>

000050cb <textTitle>:
    50cb: 18           	clc
    50cc: a5 10        	lda	$10                     ; 0x2010 <f256main+0x16f4>
    50ce: 69 f8        	adc	#$f8
    50d0: 85 10        	sta	$10                     ; 0x2010 <f256main+0x16f4>
    50d2: a5 11        	lda	$11                     ; 0x2011 <f256main+0x16f5>
    50d4: 69 ff        	adc	#$ff
    50d6: 85 11        	sta	$11                     ; 0x2011 <f256main+0x16f5>
    50d8: a6 12        	ldx	$12                     ; 0x2012 <f256main+0x16f6>
    50da: 86 8d        	stx	$8d                     ; 0x208d <f256main+0x1771>
    50dc: a6 13        	ldx	$13                     ; 0x2013 <f256main+0x16f7>
    50de: 86 8e        	stx	$8e                     ; 0x208e <f256main+0x1772>
    50e0: a2 10        	ldx	#$10
    50e2: 86 30        	stx	$30                     ; 0x2030 <f256main+0x1714>
    50e4: a2 15        	ldx	#$15
    50e6: 86 33        	stx	$33                     ; 0x2033 <f256main+0x1717>
    50e8: 8e 14 d0     	stx	$d014                   ; 0xd014 <__heap_start+0x3d0e>
    50eb: 9c 15 d0     	stz	$d015                   ; 0xd015 <__heap_start+0x3d0f>
    50ee: 64 34        	stz	$34                     ; 0x2034 <f256main+0x1718>
    50f0: 9c 16 d0     	stz	$d016                   ; 0xd016 <__heap_start+0x3d10>
    50f3: 9c 17 d0     	stz	$d017                   ; 0xd017 <__heap_start+0x3d11>
    50f6: a2 1d        	ldx	#$1d
    50f8: a9 f8        	lda	#$f8
    50fa: a0 ff        	ldy	#$ff
    50fc: 85 8f        	sta	$8f                     ; 0x208f <f256main+0x1773>
    50fe: 84 90        	sty	$90                     ; 0x2090 <f256main+0x1774>
    5100: 86 35        	stx	$35                     ; 0x2035 <f256main+0x1719>
    5102: 86 91        	stx	$91                     ; 0x2091 <f256main+0x1775>
    5104: a2 35        	ldx	#$35
    5106: 86 12        	stx	$12                     ; 0x2012 <f256main+0x16f6>
    5108: a2 00        	ldx	#$0
    510a: 86 13        	stx	$13                     ; 0x2013 <f256main+0x16f7>
    510c: 20 63 30     	jsr	$3063 <textPrint>
    510f: a6 91        	ldx	$91                     ; 0x2091 <f256main+0x1775>
    5111: ca           	dex
    5112: e6 8f        	inc	$8f                     ; 0x208f <f256main+0x1773>
    5114: d0 ea        	bne	$5100 <textTitle+0x35>
    5116: e6 90        	inc	$90                     ; 0x2090 <f256main+0x1774>
    5118: d0 e6        	bne	$5100 <textTitle+0x35>
    511a: a2 1e        	ldx	#$1e
    511c: 86 33        	stx	$33                     ; 0x2033 <f256main+0x1717>
    511e: 8e 14 d0     	stx	$d014                   ; 0xd014 <__heap_start+0x3d0e>
    5121: 9c 15 d0     	stz	$d015                   ; 0xd015 <__heap_start+0x3d0f>
    5124: 64 34        	stz	$34                     ; 0x2034 <f256main+0x1718>
    5126: 9c 16 d0     	stz	$d016                   ; 0xd016 <__heap_start+0x3d10>
    5129: 9c 17 d0     	stz	$d017                   ; 0xd017 <__heap_start+0x3d11>
    512c: a2 f0        	ldx	#$f0
    512e: 86 30        	stx	$30                     ; 0x2030 <f256main+0x1714>
    5130: a2 ca        	ldx	#$ca
    5132: 86 12        	stx	$12                     ; 0x2012 <f256main+0x16f6>
    5134: a2 88        	ldx	#$88
    5136: 86 13        	stx	$13                     ; 0x2013 <f256main+0x16f7>
    5138: 20 45 59     	jsr	$5945 <printf>
    513b: a2 10        	ldx	#$10
    513d: 86 30        	stx	$30                     ; 0x2030 <f256main+0x1714>
    513f: a2 2c        	ldx	#$2c
    5141: 86 33        	stx	$33                     ; 0x2033 <f256main+0x1717>
    5143: 8e 14 d0     	stx	$d014                   ; 0xd014 <__heap_start+0x3d0e>
    5146: 9c 15 d0     	stz	$d015                   ; 0xd015 <__heap_start+0x3d0f>
    5149: 64 34        	stz	$34                     ; 0x2034 <f256main+0x1718>
    514b: 9c 16 d0     	stz	$d016                   ; 0xd016 <__heap_start+0x3d10>
    514e: 9c 17 d0     	stz	$d017                   ; 0xd017 <__heap_start+0x3d11>
    5151: a0 16        	ldy	#$16
    5153: 84 35        	sty	$35                     ; 0x2035 <f256main+0x1719>
    5155: a2 35        	ldx	#$35
    5157: 86 12        	stx	$12                     ; 0x2012 <f256main+0x16f6>
    5159: a2 00        	ldx	#$0
    515b: 86 13        	stx	$13                     ; 0x2013 <f256main+0x16f7>
    515d: 84 8f        	sty	$8f                     ; 0x208f <f256main+0x1773>
    515f: 20 63 30     	jsr	$3063 <textPrint>
    5162: a4 8f        	ldy	$8f                     ; 0x208f <f256main+0x1773>
    5164: c8           	iny
    5165: c0 1e        	cpy	#$1e
    5167: d0 ea        	bne	$5153 <textTitle+0x88>
    5169: a2 21        	ldx	#$21
    516b: 86 33        	stx	$33                     ; 0x2033 <f256main+0x1717>
    516d: 8e 14 d0     	stx	$d014                   ; 0xd014 <__heap_start+0x3d0e>
    5170: 9c 15 d0     	stz	$d015                   ; 0xd015 <__heap_start+0x3d0f>
    5173: a2 01        	ldx	#$1
    5175: 86 34        	stx	$34                     ; 0x2034 <f256main+0x1718>
    5177: 8e 16 d0     	stx	$d016                   ; 0xd016 <__heap_start+0x3d10>
    517a: 9c 17 d0     	stz	$d017                   ; 0xd017 <__heap_start+0x3d11>
    517d: a2 f0        	ldx	#$f0
    517f: 86 30        	stx	$30                     ; 0x2030 <f256main+0x1714>
    5181: a2 0d        	ldx	#$d
    5183: 86 12        	stx	$12                     ; 0x2012 <f256main+0x16f6>
    5185: a2 89        	ldx	#$89
    5187: 86 13        	stx	$13                     ; 0x2013 <f256main+0x16f7>
    5189: 20 63 30     	jsr	$3063 <textPrint>
    518c: 9c 00 de     	stz	$de00                   ; 0xde00 <__heap_start+0x4afa>
    518f: 9c 01 de     	stz	$de01                   ; 0xde01 <__heap_start+0x4afb>
    5192: a2 04        	ldx	#$4
    5194: 8e 02 de     	stx	$de02                   ; 0xde02 <__heap_start+0x4afc>
    5197: 9c 03 de     	stz	$de03                   ; 0xde03 <__heap_start+0x4afd>
    519a: ae 10 de     	ldx	$de10                   ; 0xde10 <__heap_start+0x4b0a>
    519d: 86 12        	stx	$12                     ; 0x2012 <f256main+0x16f6>
    519f: ae 11 de     	ldx	$de11                   ; 0xde11 <__heap_start+0x4b0b>
    51a2: 86 13        	stx	$13                     ; 0x2013 <f256main+0x16f7>
    51a4: ae 12 de     	ldx	$de12                   ; 0xde12 <__heap_start+0x4b0c>
    51a7: ae 13 de     	ldx	$de13                   ; 0xde13 <__heap_start+0x4b0d>
    51aa: 18           	clc
    51ab: a9 00        	lda	#$0
    51ad: 65 12        	adc	$12                     ; 0x2012 <f256main+0x16f6>
    51af: 85 12        	sta	$12                     ; 0x2012 <f256main+0x16f6>
    51b1: a9 d8        	lda	#$d8
    51b3: 65 13        	adc	$13                     ; 0x2013 <f256main+0x16f7>
    51b5: 85 13        	sta	$13                     ; 0x2013 <f256main+0x16f7>
    51b7: a9 ff        	lda	#$ff
    51b9: 92 12        	sta	($12)                   ; 0x2012 <f256main+0x16f6>
    51bb: a0 01        	ldy	#$1
    51bd: 91 12        	sta	($12),y                 ; 0x2012 <f256main+0x16f6>
    51bf: c8           	iny
    51c0: 91 12        	sta	($12),y                 ; 0x2012 <f256main+0x16f6>
    51c2: c8           	iny
    51c3: 91 12        	sta	($12),y                 ; 0x2012 <f256main+0x16f6>
    51c5: a2 70        	ldx	#$70
    51c7: 86 30        	stx	$30                     ; 0x2030 <f256main+0x1714>
    51c9: 64 33        	stz	$33                     ; 0x2033 <f256main+0x1717>
    51cb: 9c 14 d0     	stz	$d014                   ; 0xd014 <__heap_start+0x3d0e>
    51ce: 9c 15 d0     	stz	$d015                   ; 0xd015 <__heap_start+0x3d0f>
    51d1: a2 02        	ldx	#$2
    51d3: 86 34        	stx	$34                     ; 0x2034 <f256main+0x1718>
    51d5: 8e 16 d0     	stx	$d016                   ; 0xd016 <__heap_start+0x3d10>
    51d8: 9c 17 d0     	stz	$d017                   ; 0xd017 <__heap_start+0x3d11>
    51db: a2 99        	ldx	#$99
    51dd: 86 12        	stx	$12                     ; 0x2012 <f256main+0x16f6>
    51df: a2 83        	ldx	#$83
    51e1: 86 13        	stx	$13                     ; 0x2013 <f256main+0x16f7>
    51e3: 20 63 30     	jsr	$3063 <textPrint>
    51e6: a6 8d        	ldx	$8d                     ; 0x208d <f256main+0x1771>
    51e8: 86 12        	stx	$12                     ; 0x2012 <f256main+0x16f6>
    51ea: a6 8e        	ldx	$8e                     ; 0x208e <f256main+0x1772>
    51ec: 86 13        	stx	$13                     ; 0x2013 <f256main+0x16f7>
    51ee: 20 76 4d     	jsr	$4d76 <channelTextMenu>
    51f1: a2 40        	ldx	#$40
    51f3: 86 30        	stx	$30                     ; 0x2030 <f256main+0x1714>
    51f5: a0 09        	ldy	#$9
    51f7: b1 8d        	lda	($8d),y                 ; 0x208d <f256main+0x1771>
    51f9: 20 f7 4e     	jsr	$4ef7 <updateTempoText>
    51fc: a2 2d        	ldx	#$2d
    51fe: 86 33        	stx	$33                     ; 0x2033 <f256main+0x1717>
    5200: 8e 14 d0     	stx	$d014                   ; 0xd014 <__heap_start+0x3d0e>
    5203: 9c 15 d0     	stz	$d015                   ; 0xd015 <__heap_start+0x3d0f>
    5206: a2 1a        	ldx	#$1a
    5208: 86 34        	stx	$34                     ; 0x2034 <f256main+0x1718>
    520a: 8e 16 d0     	stx	$d016                   ; 0xd016 <__heap_start+0x3d10>
    520d: 9c 17 d0     	stz	$d017                   ; 0xd017 <__heap_start+0x3d11>
    5210: a2 a4        	ldx	#$a4
    5212: 86 12        	stx	$12                     ; 0x2012 <f256main+0x16f6>
    5214: a2 7f        	ldx	#$7f
    5216: 86 13        	stx	$13                     ; 0x2013 <f256main+0x16f7>
    5218: 20 63 30     	jsr	$3063 <textPrint>
    521b: a2 2d        	ldx	#$2d
    521d: 86 33        	stx	$33                     ; 0x2033 <f256main+0x1717>
    521f: 8e 14 d0     	stx	$d014                   ; 0xd014 <__heap_start+0x3d0e>
    5222: 9c 15 d0     	stz	$d015                   ; 0xd015 <__heap_start+0x3d0f>
    5225: a2 1b        	ldx	#$1b
    5227: 86 34        	stx	$34                     ; 0x2034 <f256main+0x1718>
    5229: 8e 16 d0     	stx	$d016                   ; 0xd016 <__heap_start+0x3d10>
    522c: 9c 17 d0     	stz	$d017                   ; 0xd017 <__heap_start+0x3d11>
    522f: a2 ab        	ldx	#$ab
    5231: 86 12        	stx	$12                     ; 0x2012 <f256main+0x16f6>
    5233: a2 80        	ldx	#$80
    5235: 86 13        	stx	$13                     ; 0x2013 <f256main+0x16f7>
    5237: 20 63 30     	jsr	$3063 <textPrint>
    523a: a6 8d        	ldx	$8d                     ; 0x208d <f256main+0x1771>
    523c: 86 12        	stx	$12                     ; 0x2012 <f256main+0x16f6>
    523e: a6 8e        	ldx	$8e                     ; 0x208e <f256main+0x1772>
    5240: 86 13        	stx	$13                     ; 0x2013 <f256main+0x16f7>
    5242: 20 60 4e     	jsr	$4e60 <refreshBeatTextChoice>
    5245: a2 40        	ldx	#$40
    5247: 86 30        	stx	$30                     ; 0x2030 <f256main+0x1714>
    5249: 64 33        	stz	$33                     ; 0x2033 <f256main+0x1717>
    524b: 9c 14 d0     	stz	$d014                   ; 0xd014 <__heap_start+0x3d0e>
    524e: 9c 15 d0     	stz	$d015                   ; 0xd015 <__heap_start+0x3d0f>
    5251: a2 23        	ldx	#$23
    5253: 86 34        	stx	$34                     ; 0x2034 <f256main+0x1718>
    5255: 8e 16 d0     	stx	$d016                   ; 0xd016 <__heap_start+0x3d10>
    5258: 9c 17 d0     	stz	$d017                   ; 0xd017 <__heap_start+0x3d11>
    525b: a9 f8        	lda	#$f8
    525d: 92 10        	sta	($10)                   ; 0x2010 <f256main+0x16f4>
    525f: a0 01        	ldy	#$1
    5261: a9 00        	lda	#$0
    5263: 91 10        	sta	($10),y                 ; 0x2010 <f256main+0x16f4>
    5265: c8           	iny
    5266: a9 fb        	lda	#$fb
    5268: 91 10        	sta	($10),y                 ; 0x2010 <f256main+0x16f4>
    526a: c8           	iny
    526b: a9 00        	lda	#$0
    526d: 91 10        	sta	($10),y                 ; 0x2010 <f256main+0x16f4>
    526f: a2 70        	ldx	#$70
    5271: 86 12        	stx	$12                     ; 0x2012 <f256main+0x16f6>
    5273: a2 85        	ldx	#$85
    5275: 86 13        	stx	$13                     ; 0x2013 <f256main+0x16f7>
    5277: 20 45 59     	jsr	$5945 <printf>
    527a: 64 33        	stz	$33                     ; 0x2033 <f256main+0x1717>
    527c: 9c 14 d0     	stz	$d014                   ; 0xd014 <__heap_start+0x3d0e>
    527f: 9c 15 d0     	stz	$d015                   ; 0xd015 <__heap_start+0x3d0f>
    5282: a2 24        	ldx	#$24
    5284: 86 34        	stx	$34                     ; 0x2034 <f256main+0x1718>
    5286: 8e 16 d0     	stx	$d016                   ; 0xd016 <__heap_start+0x3d10>
    5289: 9c 17 d0     	stz	$d017                   ; 0xd017 <__heap_start+0x3d11>
    528c: a9 f8        	lda	#$f8
    528e: 92 10        	sta	($10)                   ; 0x2010 <f256main+0x16f4>
    5290: a0 01        	ldy	#$1
    5292: a9 00        	lda	#$0
    5294: 91 10        	sta	($10),y                 ; 0x2010 <f256main+0x16f4>
    5296: c8           	iny
    5297: a9 fb        	lda	#$fb
    5299: 91 10        	sta	($10),y                 ; 0x2010 <f256main+0x16f4>
    529b: c8           	iny
    529c: a9 00        	lda	#$0
    529e: 91 10        	sta	($10),y                 ; 0x2010 <f256main+0x16f4>
    52a0: c8           	iny
    52a1: a9 f8        	lda	#$f8
    52a3: 91 10        	sta	($10),y                 ; 0x2010 <f256main+0x16f4>
    52a5: c8           	iny
    52a6: a9 00        	lda	#$0
    52a8: 91 10        	sta	($10),y                 ; 0x2010 <f256main+0x16f4>
    52aa: c8           	iny
    52ab: a9 fb        	lda	#$fb
    52ad: 91 10        	sta	($10),y                 ; 0x2010 <f256main+0x16f4>
    52af: c8           	iny
    52b0: a9 00        	lda	#$0
    52b2: 91 10        	sta	($10),y                 ; 0x2010 <f256main+0x16f4>
    52b4: a2 95        	ldx	#$95
    52b6: 86 12        	stx	$12                     ; 0x2012 <f256main+0x16f6>
    52b8: a2 85        	ldx	#$85
    52ba: 86 13        	stx	$13                     ; 0x2013 <f256main+0x16f7>
    52bc: 20 45 59     	jsr	$5945 <printf>
    52bf: 64 33        	stz	$33                     ; 0x2033 <f256main+0x1717>
    52c1: 9c 14 d0     	stz	$d014                   ; 0xd014 <__heap_start+0x3d0e>
    52c4: 9c 15 d0     	stz	$d015                   ; 0xd015 <__heap_start+0x3d0f>
    52c7: a2 28        	ldx	#$28
    52c9: 86 34        	stx	$34                     ; 0x2034 <f256main+0x1718>
    52cb: 8e 16 d0     	stx	$d016                   ; 0xd016 <__heap_start+0x3d10>
    52ce: 9c 17 d0     	stz	$d017                   ; 0xd017 <__heap_start+0x3d11>
    52d1: a2 ed        	ldx	#$ed
    52d3: 86 12        	stx	$12                     ; 0x2012 <f256main+0x16f6>
    52d5: a2 89        	ldx	#$89
    52d7: 86 13        	stx	$13                     ; 0x2013 <f256main+0x16f7>
    52d9: 20 63 30     	jsr	$3063 <textPrint>
    52dc: 64 33        	stz	$33                     ; 0x2033 <f256main+0x1717>
    52de: 9c 14 d0     	stz	$d014                   ; 0xd014 <__heap_start+0x3d0e>
    52e1: 9c 15 d0     	stz	$d015                   ; 0xd015 <__heap_start+0x3d0f>
    52e4: a2 29        	ldx	#$29
    52e6: 86 34        	stx	$34                     ; 0x2034 <f256main+0x1718>
    52e8: 8e 16 d0     	stx	$d016                   ; 0xd016 <__heap_start+0x3d10>
    52eb: 9c 17 d0     	stz	$d017                   ; 0xd017 <__heap_start+0x3d11>
    52ee: a9 f9        	lda	#$f9
    52f0: 92 10        	sta	($10)                   ; 0x2010 <f256main+0x16f4>
    52f2: a0 01        	ldy	#$1
    52f4: a9 00        	lda	#$0
    52f6: 91 10        	sta	($10),y                 ; 0x2010 <f256main+0x16f4>
    52f8: c8           	iny
    52f9: a9 fa        	lda	#$fa
    52fb: 91 10        	sta	($10),y                 ; 0x2010 <f256main+0x16f4>
    52fd: c8           	iny
    52fe: a9 00        	lda	#$0
    5300: 91 10        	sta	($10),y                 ; 0x2010 <f256main+0x16f4>
    5302: a2 33        	ldx	#$33
    5304: 86 12        	stx	$12                     ; 0x2012 <f256main+0x16f6>
    5306: a2 88        	ldx	#$88
    5308: 86 13        	stx	$13                     ; 0x2013 <f256main+0x16f7>
    530a: 20 45 59     	jsr	$5945 <printf>
    530d: 64 33        	stz	$33                     ; 0x2033 <f256main+0x1717>
    530f: 9c 14 d0     	stz	$d014                   ; 0xd014 <__heap_start+0x3d0e>
    5312: 9c 15 d0     	stz	$d015                   ; 0xd015 <__heap_start+0x3d0f>
    5315: a2 2a        	ldx	#$2a
    5317: 86 34        	stx	$34                     ; 0x2034 <f256main+0x1718>
    5319: 8e 16 d0     	stx	$d016                   ; 0xd016 <__heap_start+0x3d10>
    531c: 9c 17 d0     	stz	$d017                   ; 0xd017 <__heap_start+0x3d11>
    531f: a0 02        	ldy	#$2
    5321: a9 fa        	lda	#$fa
    5323: 91 10        	sta	($10),y                 ; 0x2010 <f256main+0x16f4>
    5325: 3a           	dec
    5326: 92 10        	sta	($10)                   ; 0x2010 <f256main+0x16f4>
    5328: a0 04        	ldy	#$4
    532a: 91 10        	sta	($10),y                 ; 0x2010 <f256main+0x16f4>
    532c: a9 00        	lda	#$0
    532e: a0 01        	ldy	#$1
    5330: 91 10        	sta	($10),y                 ; 0x2010 <f256main+0x16f4>
    5332: a0 03        	ldy	#$3
    5334: 91 10        	sta	($10),y                 ; 0x2010 <f256main+0x16f4>
    5336: a0 05        	ldy	#$5
    5338: 91 10        	sta	($10),y                 ; 0x2010 <f256main+0x16f4>
    533a: c8           	iny
    533b: a9 fa        	lda	#$fa
    533d: 91 10        	sta	($10),y                 ; 0x2010 <f256main+0x16f4>
    533f: c8           	iny
    5340: a9 00        	lda	#$0
    5342: 91 10        	sta	($10),y                 ; 0x2010 <f256main+0x16f4>
    5344: a2 e1        	ldx	#$e1
    5346: 86 12        	stx	$12                     ; 0x2012 <f256main+0x16f6>
    5348: a2 85        	ldx	#$85
    534a: 86 13        	stx	$13                     ; 0x2013 <f256main+0x16f7>
    534c: 20 45 59     	jsr	$5945 <printf>
    534f: a2 40        	ldx	#$40
    5351: 86 30        	stx	$30                     ; 0x2030 <f256main+0x1714>
    5353: a2 05        	ldx	#$5
    5355: 86 33        	stx	$33                     ; 0x2033 <f256main+0x1717>
    5357: 8e 14 d0     	stx	$d014                   ; 0xd014 <__heap_start+0x3d0e>
    535a: 9c 15 d0     	stz	$d015                   ; 0xd015 <__heap_start+0x3d0f>
    535d: a2 39        	ldx	#$39
    535f: 86 34        	stx	$34                     ; 0x2034 <f256main+0x1718>
    5361: 8e 16 d0     	stx	$d016                   ; 0xd016 <__heap_start+0x3d10>
    5364: 9c 17 d0     	stz	$d017                   ; 0xd017 <__heap_start+0x3d11>
    5367: a2 ed        	ldx	#$ed
    5369: 86 12        	stx	$12                     ; 0x2012 <f256main+0x16f6>
    536b: a2 86        	ldx	#$86
    536d: 86 13        	stx	$13                     ; 0x2013 <f256main+0x16f7>
    536f: 20 63 30     	jsr	$3063 <textPrint>
    5372: a2 40        	ldx	#$40
    5374: 86 30        	stx	$30                     ; 0x2030 <f256main+0x1714>
    5376: a2 05        	ldx	#$5
    5378: 86 33        	stx	$33                     ; 0x2033 <f256main+0x1717>
    537a: 8e 14 d0     	stx	$d014                   ; 0xd014 <__heap_start+0x3d0e>
    537d: 9c 15 d0     	stz	$d015                   ; 0xd015 <__heap_start+0x3d0f>
    5380: a2 3a        	ldx	#$3a
    5382: 86 34        	stx	$34                     ; 0x2034 <f256main+0x1718>
    5384: 8e 16 d0     	stx	$d016                   ; 0xd016 <__heap_start+0x3d10>
    5387: 9c 17 d0     	stz	$d017                   ; 0xd017 <__heap_start+0x3d11>
    538a: a2 b8        	ldx	#$b8
    538c: 86 12        	stx	$12                     ; 0x2012 <f256main+0x16f6>
    538e: a2 88        	ldx	#$88
    5390: 86 13        	stx	$13                     ; 0x2013 <f256main+0x16f7>
    5392: 20 63 30     	jsr	$3063 <textPrint>
    5395: a6 8d        	ldx	$8d                     ; 0x208d <f256main+0x1771>
    5397: 86 12        	stx	$12                     ; 0x2012 <f256main+0x16f6>
    5399: a6 8e        	ldx	$8e                     ; 0x208e <f256main+0x1772>
    539b: 86 13        	stx	$13                     ; 0x2013 <f256main+0x16f7>
    539d: 20 51 4f     	jsr	$4f51 <showChipChoiceText>
    53a0: a2 3c        	ldx	#$3c
    53a2: 86 33        	stx	$33                     ; 0x2033 <f256main+0x1717>
    53a4: 8e 14 d0     	stx	$d014                   ; 0xd014 <__heap_start+0x3d0e>
    53a7: 9c 15 d0     	stz	$d015                   ; 0xd015 <__heap_start+0x3d0f>
    53aa: a2 03        	ldx	#$3
    53ac: 86 34        	stx	$34                     ; 0x2034 <f256main+0x1718>
    53ae: 8e 16 d0     	stx	$d016                   ; 0xd016 <__heap_start+0x3d10>
    53b1: 9c 17 d0     	stz	$d017                   ; 0xd017 <__heap_start+0x3d11>
    53b4: a2 e4        	ldx	#$e4
    53b6: 86 12        	stx	$12                     ; 0x2012 <f256main+0x16f6>
    53b8: a2 89        	ldx	#$89
    53ba: 86 13        	stx	$13                     ; 0x2013 <f256main+0x16f7>
    53bc: 20 63 30     	jsr	$3063 <textPrint>
    53bf: a9 b3        	lda	#$b3
    53c1: 92 10        	sta	($10)                   ; 0x2010 <f256main+0x16f4>
    53c3: a0 01        	ldy	#$1
    53c5: a9 00        	lda	#$0
    53c7: 91 10        	sta	($10),y                 ; 0x2010 <f256main+0x16f4>
    53c9: a2 d8        	ldx	#$d8
    53cb: 86 12        	stx	$12                     ; 0x2012 <f256main+0x16f6>
    53cd: a2 87        	ldx	#$87
    53cf: 86 13        	stx	$13                     ; 0x2013 <f256main+0x16f7>
    53d1: 20 45 59     	jsr	$5945 <printf>
    53d4: a2 3c        	ldx	#$3c
    53d6: 86 33        	stx	$33                     ; 0x2033 <f256main+0x1717>
    53d8: 8e 14 d0     	stx	$d014                   ; 0xd014 <__heap_start+0x3d0e>
    53db: 9c 15 d0     	stz	$d015                   ; 0xd015 <__heap_start+0x3d0f>
    53de: a2 04        	ldx	#$4
    53e0: 86 34        	stx	$34                     ; 0x2034 <f256main+0x1718>
    53e2: 8e 16 d0     	stx	$d016                   ; 0xd016 <__heap_start+0x3d10>
    53e5: 9c 17 d0     	stz	$d017                   ; 0xd017 <__heap_start+0x3d11>
    53e8: a2 7d        	ldx	#$7d
    53ea: 86 12        	stx	$12                     ; 0x2012 <f256main+0x16f6>
    53ec: a2 8a        	ldx	#$8a
    53ee: 86 13        	stx	$13                     ; 0x2013 <f256main+0x16f7>
    53f0: 20 63 30     	jsr	$3063 <textPrint>
    53f3: a9 b3        	lda	#$b3
    53f5: 92 10        	sta	($10)                   ; 0x2010 <f256main+0x16f4>
    53f7: a0 01        	ldy	#$1
    53f9: a9 00        	lda	#$0
    53fb: 91 10        	sta	($10),y                 ; 0x2010 <f256main+0x16f4>
    53fd: a2 d8        	ldx	#$d8
    53ff: 86 12        	stx	$12                     ; 0x2012 <f256main+0x16f6>
    5401: a2 87        	ldx	#$87
    5403: 86 13        	stx	$13                     ; 0x2013 <f256main+0x16f7>
    5405: 20 45 59     	jsr	$5945 <printf>
    5408: a2 3c        	ldx	#$3c
    540a: 86 33        	stx	$33                     ; 0x2033 <f256main+0x1717>
    540c: 8e 14 d0     	stx	$d014                   ; 0xd014 <__heap_start+0x3d0e>
    540f: 9c 15 d0     	stz	$d015                   ; 0xd015 <__heap_start+0x3d0f>
    5412: a2 05        	ldx	#$5
    5414: 86 34        	stx	$34                     ; 0x2034 <f256main+0x1718>
    5416: 8e 16 d0     	stx	$d016                   ; 0xd016 <__heap_start+0x3d10>
    5419: 9c 17 d0     	stz	$d017                   ; 0xd017 <__heap_start+0x3d11>
    541c: a2 d3        	ldx	#$d3
    541e: 86 12        	stx	$12                     ; 0x2012 <f256main+0x16f6>
    5420: a2 84        	ldx	#$84
    5422: 86 13        	stx	$13                     ; 0x2013 <f256main+0x16f7>
    5424: 20 63 30     	jsr	$3063 <textPrint>
    5427: a9 b3        	lda	#$b3
    5429: 92 10        	sta	($10)                   ; 0x2010 <f256main+0x16f4>
    542b: a0 01        	ldy	#$1
    542d: a9 00        	lda	#$0
    542f: 91 10        	sta	($10),y                 ; 0x2010 <f256main+0x16f4>
    5431: a2 d8        	ldx	#$d8
    5433: 86 12        	stx	$12                     ; 0x2012 <f256main+0x16f6>
    5435: a2 87        	ldx	#$87
    5437: 86 13        	stx	$13                     ; 0x2013 <f256main+0x16f7>
    5439: 20 45 59     	jsr	$5945 <printf>
    543c: a2 3c        	ldx	#$3c
    543e: 86 33        	stx	$33                     ; 0x2033 <f256main+0x1717>
    5440: 8e 14 d0     	stx	$d014                   ; 0xd014 <__heap_start+0x3d0e>
    5443: 9c 15 d0     	stz	$d015                   ; 0xd015 <__heap_start+0x3d0f>
    5446: a2 06        	ldx	#$6
    5448: 86 34        	stx	$34                     ; 0x2034 <f256main+0x1718>
    544a: 8e 16 d0     	stx	$d016                   ; 0xd016 <__heap_start+0x3d10>
    544d: 9c 17 d0     	stz	$d017                   ; 0xd017 <__heap_start+0x3d11>
    5450: a2 6c        	ldx	#$6c
    5452: 86 12        	stx	$12                     ; 0x2012 <f256main+0x16f6>
    5454: a2 81        	ldx	#$81
    5456: 86 13        	stx	$13                     ; 0x2013 <f256main+0x16f7>
    5458: 20 63 30     	jsr	$3063 <textPrint>
    545b: a9 b3        	lda	#$b3
    545d: 92 10        	sta	($10)                   ; 0x2010 <f256main+0x16f4>
    545f: a0 01        	ldy	#$1
    5461: a9 00        	lda	#$0
    5463: 91 10        	sta	($10),y                 ; 0x2010 <f256main+0x16f4>
    5465: a2 d8        	ldx	#$d8
    5467: 86 12        	stx	$12                     ; 0x2012 <f256main+0x16f6>
    5469: a2 87        	ldx	#$87
    546b: 86 13        	stx	$13                     ; 0x2013 <f256main+0x16f7>
    546d: 20 45 59     	jsr	$5945 <printf>
    5470: a2 3c        	ldx	#$3c
    5472: 86 33        	stx	$33                     ; 0x2033 <f256main+0x1717>
    5474: 8e 14 d0     	stx	$d014                   ; 0xd014 <__heap_start+0x3d0e>
    5477: 9c 15 d0     	stz	$d015                   ; 0xd015 <__heap_start+0x3d0f>
    547a: a2 07        	ldx	#$7
    547c: 86 34        	stx	$34                     ; 0x2034 <f256main+0x1718>
    547e: 8e 16 d0     	stx	$d016                   ; 0xd016 <__heap_start+0x3d10>
    5481: 9c 17 d0     	stz	$d017                   ; 0xd017 <__heap_start+0x3d11>
    5484: a2 dc        	ldx	#$dc
    5486: 86 12        	stx	$12                     ; 0x2012 <f256main+0x16f6>
    5488: a2 84        	ldx	#$84
    548a: 86 13        	stx	$13                     ; 0x2013 <f256main+0x16f7>
    548c: 20 63 30     	jsr	$3063 <textPrint>
    548f: a9 b3        	lda	#$b3
    5491: 92 10        	sta	($10)                   ; 0x2010 <f256main+0x16f4>
    5493: a0 01        	ldy	#$1
    5495: a9 00        	lda	#$0
    5497: 91 10        	sta	($10),y                 ; 0x2010 <f256main+0x16f4>
    5499: a2 d8        	ldx	#$d8
    549b: 86 12        	stx	$12                     ; 0x2012 <f256main+0x16f6>
    549d: a2 87        	ldx	#$87
    549f: 86 13        	stx	$13                     ; 0x2013 <f256main+0x16f7>
    54a1: 20 45 59     	jsr	$5945 <printf>
    54a4: 18           	clc
    54a5: a5 10        	lda	$10                     ; 0x2010 <f256main+0x16f4>
    54a7: 69 08        	adc	#$8
    54a9: 85 10        	sta	$10                     ; 0x2010 <f256main+0x16f4>
    54ab: a5 11        	lda	$11                     ; 0x2011 <f256main+0x16f5>
    54ad: 69 00        	adc	#$0
    54af: 85 11        	sta	$11                     ; 0x2011 <f256main+0x16f5>
    54b1: 60           	rts

000054b2 <highLightInstChoice>:
    54b2: 48           	pha
    54b3: 18           	clc
    54b4: a5 10        	lda	$10                     ; 0x2010 <f256main+0x16f4>
    54b6: 69 fc        	adc	#$fc
    54b8: 85 10        	sta	$10                     ; 0x2010 <f256main+0x16f4>
    54ba: a5 11        	lda	$11                     ; 0x2011 <f256main+0x16f5>
    54bc: 69 ff        	adc	#$ff
    54be: 85 11        	sta	$11                     ; 0x2011 <f256main+0x16f5>
    54c0: 68           	pla
    54c1: a6 12        	ldx	$12                     ; 0x2012 <f256main+0x16f6>
    54c3: 86 8c        	stx	$8c                     ; 0x208c <f256main+0x1770>
    54c5: a6 13        	ldx	$13                     ; 0x2013 <f256main+0x16f7>
    54c7: 86 8d        	stx	$8d                     ; 0x208d <f256main+0x1771>
    54c9: aa           	tax
    54ca: f0 04        	beq	$54d0 <highLightInstChoice+0x1e>
    54cc: a2 90        	ldx	#$90
    54ce: 80 02        	bra	$54d2 <highLightInstChoice+0x20>
    54d0: a2 50        	ldx	#$50
    54d2: 86 30        	stx	$30                     ; 0x2030 <f256main+0x1714>
    54d4: a0 06        	ldy	#$6
    54d6: b1 8c        	lda	($8c),y                 ; 0x208c <f256main+0x1770>
    54d8: f0 03        	beq	$54dd <highLightInstChoice+0x2b>
    54da: 4c 9b 55     	jmp	$559b <highLightInstChoice+0xe9>
    54dd: a0 01        	ldy	#$1
    54df: e6 12        	inc	$12                     ; 0x2012 <f256main+0x16f6>
    54e1: d0 02        	bne	$54e5 <highLightInstChoice+0x33>
    54e3: e6 13        	inc	$13                     ; 0x2013 <f256main+0x16f7>
    54e5: a6 12        	ldx	$12                     ; 0x2012 <f256main+0x16f6>
    54e7: 86 14        	stx	$14                     ; 0x2014 <f256main+0x16f8>
    54e9: a6 13        	ldx	$13                     ; 0x2013 <f256main+0x16f7>
    54eb: 86 15        	stx	$15                     ; 0x2015 <f256main+0x16f9>
    54ed: a6 14        	ldx	$14                     ; 0x2014 <f256main+0x16f8>
    54ef: 86 8f        	stx	$8f                     ; 0x208f <f256main+0x1773>
    54f1: a6 15        	ldx	$15                     ; 0x2015 <f256main+0x16f9>
    54f3: 86 90        	stx	$90                     ; 0x2090 <f256main+0x1774>
    54f5: b1 8c        	lda	($8c),y                 ; 0x208c <f256main+0x1770>
    54f7: aa           	tax
    54f8: b1 12        	lda	($12),y                 ; 0x2012 <f256main+0x16f6>
    54fa: 86 12        	stx	$12                     ; 0x2012 <f256main+0x16f6>
    54fc: 85 13        	sta	$13                     ; 0x2013 <f256main+0x16f7>
    54fe: a0 05        	ldy	#$5
    5500: b1 8c        	lda	($8c),y                 ; 0x208c <f256main+0x1770>
    5502: a8           	tay
    5503: b1 12        	lda	($12),y                 ; 0x2012 <f256main+0x16f6>
    5505: a2 8e        	ldx	#$8e
    5507: a0 00        	ldy	#$0
    5509: 86 12        	stx	$12                     ; 0x2012 <f256main+0x16f6>
    550b: 84 13        	sty	$13                     ; 0x2013 <f256main+0x16f7>
    550d: a2 03        	ldx	#$3
    550f: 20 68 6d     	jsr	$6d68 <__udivmodqi4>
    5512: 85 91        	sta	$91                     ; 0x2091 <f256main+0x1775>
    5514: a5 8e        	lda	$8e                     ; 0x208e <f256main+0x1772>
    5516: a2 19        	ldx	#$19
    5518: 20 50 69     	jsr	$6950 <__mulqi3>
    551b: 18           	clc
    551c: 69 02        	adc	#$2
    551e: a6 91        	ldx	$91                     ; 0x2091 <f256main+0x1775>
    5520: e8           	inx
    5521: 85 33        	sta	$33                     ; 0x2033 <f256main+0x1717>
    5523: 8d 14 d0     	sta	$d014                   ; 0xd014 <__heap_start+0x3d0e>
    5526: 9c 15 d0     	stz	$d015                   ; 0xd015 <__heap_start+0x3d0f>
    5529: 86 34        	stx	$34                     ; 0x2034 <f256main+0x1718>
    552b: 8e 16 d0     	stx	$d016                   ; 0xd016 <__heap_start+0x3d10>
    552e: 9c 17 d0     	stz	$d017                   ; 0xd017 <__heap_start+0x3d11>
    5531: a0 01        	ldy	#$1
    5533: b1 8c        	lda	($8c),y                 ; 0x208c <f256main+0x1770>
    5535: 85 14        	sta	$14                     ; 0x2014 <f256main+0x16f8>
    5537: a6 8f        	ldx	$8f                     ; 0x208f <f256main+0x1773>
    5539: 86 12        	stx	$12                     ; 0x2012 <f256main+0x16f6>
    553b: a6 90        	ldx	$90                     ; 0x2090 <f256main+0x1774>
    553d: 86 13        	stx	$13                     ; 0x2013 <f256main+0x16f7>
    553f: b1 12        	lda	($12),y                 ; 0x2012 <f256main+0x16f6>
    5541: a6 14        	ldx	$14                     ; 0x2014 <f256main+0x16f8>
    5543: 86 12        	stx	$12                     ; 0x2012 <f256main+0x16f6>
    5545: 85 13        	sta	$13                     ; 0x2013 <f256main+0x16f7>
    5547: a0 05        	ldy	#$5
    5549: b1 8c        	lda	($8c),y                 ; 0x208c <f256main+0x1770>
    554b: a8           	tay
    554c: b1 12        	lda	($12),y                 ; 0x2012 <f256main+0x16f6>
    554e: aa           	tax
    554f: 0a           	asl
    5550: 85 12        	sta	$12                     ; 0x2012 <f256main+0x16f6>
    5552: a9 00        	lda	#$0
    5554: 2a           	rol
    5555: 85 13        	sta	$13                     ; 0x2013 <f256main+0x16f7>
    5557: a9 bb        	lda	#$bb
    5559: 18           	clc
    555a: 65 12        	adc	$12                     ; 0x2012 <f256main+0x16f6>
    555c: 85 12        	sta	$12                     ; 0x2012 <f256main+0x16f6>
    555e: a9 91        	lda	#$91
    5560: 65 13        	adc	$13                     ; 0x2013 <f256main+0x16f7>
    5562: 85 13        	sta	$13                     ; 0x2013 <f256main+0x16f7>
    5564: b2 12        	lda	($12)                   ; 0x2012 <f256main+0x16f6>
    5566: 85 15        	sta	$15                     ; 0x2015 <f256main+0x16f9>
    5568: a0 01        	ldy	#$1
    556a: b1 12        	lda	($12),y                 ; 0x2012 <f256main+0x16f6>
    556c: 85 14        	sta	$14                     ; 0x2014 <f256main+0x16f8>
    556e: a5 10        	lda	$10                     ; 0x2010 <f256main+0x16f4>
    5570: 18           	clc
    5571: 69 02        	adc	#$2
    5573: 85 12        	sta	$12                     ; 0x2012 <f256main+0x16f6>
    5575: a5 11        	lda	$11                     ; 0x2011 <f256main+0x16f5>
    5577: 69 00        	adc	#$0
    5579: 85 13        	sta	$13                     ; 0x2013 <f256main+0x16f7>
    557b: c8           	iny
    557c: a5 15        	lda	$15                     ; 0x2015 <f256main+0x16f9>
    557e: 91 10        	sta	($10),y                 ; 0x2010 <f256main+0x16f4>
    5580: 8a           	txa
    5581: 92 10        	sta	($10)                   ; 0x2010 <f256main+0x16f4>
    5583: a9 00        	lda	#$0
    5585: 88           	dey
    5586: 91 10        	sta	($10),y                 ; 0x2010 <f256main+0x16f4>
    5588: a5 14        	lda	$14                     ; 0x2014 <f256main+0x16f8>
    558a: 91 12        	sta	($12),y                 ; 0x2012 <f256main+0x16f6>
    558c: a2 7d        	ldx	#$7d
    558e: 86 12        	stx	$12                     ; 0x2012 <f256main+0x16f6>
    5590: a2 80        	ldx	#$80
    5592: 86 13        	stx	$13                     ; 0x2013 <f256main+0x16f7>
    5594: 20 45 59     	jsr	$5945 <printf>
    5597: a0 06        	ldy	#$6
    5599: b1 8c        	lda	($8c),y                 ; 0x208c <f256main+0x1770>
    559b: c9 01        	cmp	#$1
    559d: f0 03        	beq	$55a2 <highLightInstChoice+0xf0>
    559f: 4c 0a 56     	jmp	$560a <highLightInstChoice+0x158>
    55a2: a0 03        	ldy	#$3
    55a4: 18           	clc
    55a5: a9 02        	lda	#$2
    55a7: 71 8c        	adc	($8c),y                 ; 0x208c <f256main+0x1770>
    55a9: a2 02        	ldx	#$2
    55ab: 86 33        	stx	$33                     ; 0x2033 <f256main+0x1717>
    55ad: 8e 14 d0     	stx	$d014                   ; 0xd014 <__heap_start+0x3d0e>
    55b0: 9c 15 d0     	stz	$d015                   ; 0xd015 <__heap_start+0x3d0f>
    55b3: 85 34        	sta	$34                     ; 0x2034 <f256main+0x1718>
    55b5: 8d 16 d0     	sta	$d016                   ; 0xd016 <__heap_start+0x3d10>
    55b8: 9c 17 d0     	stz	$d017                   ; 0xd017 <__heap_start+0x3d11>
    55bb: b1 8c        	lda	($8c),y                 ; 0x208c <f256main+0x1770>
    55bd: aa           	tax
    55be: 0a           	asl
    55bf: 85 12        	sta	$12                     ; 0x2012 <f256main+0x16f6>
    55c1: a9 00        	lda	#$0
    55c3: 2a           	rol
    55c4: 85 13        	sta	$13                     ; 0x2013 <f256main+0x16f7>
    55c6: a9 c3        	lda	#$c3
    55c8: 18           	clc
    55c9: 65 12        	adc	$12                     ; 0x2012 <f256main+0x16f6>
    55cb: 85 12        	sta	$12                     ; 0x2012 <f256main+0x16f6>
    55cd: a9 92        	lda	#$92
    55cf: 65 13        	adc	$13                     ; 0x2013 <f256main+0x16f7>
    55d1: a0 01        	ldy	#$1
    55d3: 85 13        	sta	$13                     ; 0x2013 <f256main+0x16f7>
    55d5: b2 12        	lda	($12)                   ; 0x2012 <f256main+0x16f6>
    55d7: 85 15        	sta	$15                     ; 0x2015 <f256main+0x16f9>
    55d9: b1 12        	lda	($12),y                 ; 0x2012 <f256main+0x16f6>
    55db: 85 14        	sta	$14                     ; 0x2014 <f256main+0x16f8>
    55dd: a5 10        	lda	$10                     ; 0x2010 <f256main+0x16f4>
    55df: 18           	clc
    55e0: 69 02        	adc	#$2
    55e2: 85 12        	sta	$12                     ; 0x2012 <f256main+0x16f6>
    55e4: a5 11        	lda	$11                     ; 0x2011 <f256main+0x16f5>
    55e6: 69 00        	adc	#$0
    55e8: 85 13        	sta	$13                     ; 0x2013 <f256main+0x16f7>
    55ea: c8           	iny
    55eb: a5 15        	lda	$15                     ; 0x2015 <f256main+0x16f9>
    55ed: 91 10        	sta	($10),y                 ; 0x2010 <f256main+0x16f4>
    55ef: 8a           	txa
    55f0: 92 10        	sta	($10)                   ; 0x2010 <f256main+0x16f4>
    55f2: a9 00        	lda	#$0
    55f4: 88           	dey
    55f5: 91 10        	sta	($10),y                 ; 0x2010 <f256main+0x16f4>
    55f7: a5 14        	lda	$14                     ; 0x2014 <f256main+0x16f8>
    55f9: 91 12        	sta	($12),y                 ; 0x2012 <f256main+0x16f6>
    55fb: a2 7d        	ldx	#$7d
    55fd: 86 12        	stx	$12                     ; 0x2012 <f256main+0x16f6>
    55ff: a2 80        	ldx	#$80
    5601: 86 13        	stx	$13                     ; 0x2013 <f256main+0x16f7>
    5603: 20 45 59     	jsr	$5945 <printf>
    5606: a0 06        	ldy	#$6
    5608: b1 8c        	lda	($8c),y                 ; 0x208c <f256main+0x1770>
    560a: c9 03        	cmp	#$3
    560c: f0 03        	beq	$5611 <highLightInstChoice+0x15f>
    560e: 4c 75 56     	jmp	$5675 <highLightInstChoice+0x1c3>
    5611: a0 04        	ldy	#$4
    5613: 18           	clc
    5614: a9 02        	lda	#$2
    5616: 71 8c        	adc	($8c),y                 ; 0x208c <f256main+0x1770>
    5618: a2 02        	ldx	#$2
    561a: 86 33        	stx	$33                     ; 0x2033 <f256main+0x1717>
    561c: 8e 14 d0     	stx	$d014                   ; 0xd014 <__heap_start+0x3d0e>
    561f: 9c 15 d0     	stz	$d015                   ; 0xd015 <__heap_start+0x3d0f>
    5622: 85 34        	sta	$34                     ; 0x2034 <f256main+0x1718>
    5624: 8d 16 d0     	sta	$d016                   ; 0xd016 <__heap_start+0x3d10>
    5627: 9c 17 d0     	stz	$d017                   ; 0xd017 <__heap_start+0x3d11>
    562a: b1 8c        	lda	($8c),y                 ; 0x208c <f256main+0x1770>
    562c: aa           	tax
    562d: 0a           	asl
    562e: 85 12        	sta	$12                     ; 0x2012 <f256main+0x16f6>
    5630: a9 00        	lda	#$0
    5632: 2a           	rol
    5633: 85 13        	sta	$13                     ; 0x2013 <f256main+0x16f7>
    5635: a9 cd        	lda	#$cd
    5637: 18           	clc
    5638: 65 12        	adc	$12                     ; 0x2012 <f256main+0x16f6>
    563a: 85 12        	sta	$12                     ; 0x2012 <f256main+0x16f6>
    563c: a9 92        	lda	#$92
    563e: 65 13        	adc	$13                     ; 0x2013 <f256main+0x16f7>
    5640: a0 01        	ldy	#$1
    5642: 85 13        	sta	$13                     ; 0x2013 <f256main+0x16f7>
    5644: b2 12        	lda	($12)                   ; 0x2012 <f256main+0x16f6>
    5646: 85 15        	sta	$15                     ; 0x2015 <f256main+0x16f9>
    5648: b1 12        	lda	($12),y                 ; 0x2012 <f256main+0x16f6>
    564a: 85 14        	sta	$14                     ; 0x2014 <f256main+0x16f8>
    564c: a5 10        	lda	$10                     ; 0x2010 <f256main+0x16f4>
    564e: 18           	clc
    564f: 69 02        	adc	#$2
    5651: 85 12        	sta	$12                     ; 0x2012 <f256main+0x16f6>
    5653: a5 11        	lda	$11                     ; 0x2011 <f256main+0x16f5>
    5655: 69 00        	adc	#$0
    5657: 85 13        	sta	$13                     ; 0x2013 <f256main+0x16f7>
    5659: c8           	iny
    565a: a5 15        	lda	$15                     ; 0x2015 <f256main+0x16f9>
    565c: 91 10        	sta	($10),y                 ; 0x2010 <f256main+0x16f4>
    565e: 8a           	txa
    565f: 92 10        	sta	($10)                   ; 0x2010 <f256main+0x16f4>
    5661: a9 00        	lda	#$0
    5663: 88           	dey
    5664: 91 10        	sta	($10),y                 ; 0x2010 <f256main+0x16f4>
    5666: a5 14        	lda	$14                     ; 0x2014 <f256main+0x16f8>
    5668: 91 12        	sta	($12),y                 ; 0x2012 <f256main+0x16f6>
    566a: a2 7d        	ldx	#$7d
    566c: 86 12        	stx	$12                     ; 0x2012 <f256main+0x16f6>
    566e: a2 80        	ldx	#$80
    5670: 86 13        	stx	$13                     ; 0x2013 <f256main+0x16f7>
    5672: 20 45 59     	jsr	$5945 <printf>
    5675: 18           	clc
    5676: a5 10        	lda	$10                     ; 0x2010 <f256main+0x16f4>
    5678: 69 04        	adc	#$4
    567a: 85 10        	sta	$10                     ; 0x2010 <f256main+0x16f4>
    567c: a5 11        	lda	$11                     ; 0x2011 <f256main+0x16f5>
    567e: 69 00        	adc	#$0
    5680: 85 11        	sta	$11                     ; 0x2011 <f256main+0x16f5>
    5682: 60           	rts

00005683 <modalMoveUp>:
    5683: 85 8b        	sta	$8b                     ; 0x208b <f256main+0x176f>
    5685: a6 12        	ldx	$12                     ; 0x2012 <f256main+0x16f6>
    5687: 86 89        	stx	$89                     ; 0x2089 <f256main+0x176d>
    5689: a6 13        	ldx	$13                     ; 0x2013 <f256main+0x16f7>
    568b: 86 8a        	stx	$8a                     ; 0x208a <f256main+0x176e>
    568d: a9 00        	lda	#$0
    568f: 20 b2 54     	jsr	$54b2 <highLightInstChoice>
    5692: a0 06        	ldy	#$6
    5694: b1 89        	lda	($89),y                 ; 0x2089 <f256main+0x176d>
    5696: d0 36        	bne	$56ce <modalMoveUp+0x4b>
    5698: a2 e5        	ldx	#$e5
    569a: a5 8b        	lda	$8b                     ; 0x208b <f256main+0x176f>
    569c: 20 50 69     	jsr	$6950 <__mulqi3>
    569f: aa           	tax
    56a0: a4 89        	ldy	$89                     ; 0x2089 <f256main+0x176d>
    56a2: 84 12        	sty	$12                     ; 0x2012 <f256main+0x16f6>
    56a4: a4 8a        	ldy	$8a                     ; 0x208a <f256main+0x176e>
    56a6: 84 13        	sty	$13                     ; 0x2013 <f256main+0x16f7>
    56a8: e6 12        	inc	$12                     ; 0x2012 <f256main+0x16f6>
    56aa: d0 02        	bne	$56ae <modalMoveUp+0x2b>
    56ac: e6 13        	inc	$13                     ; 0x2013 <f256main+0x16f7>
    56ae: a0 01        	ldy	#$1
    56b0: b1 89        	lda	($89),y                 ; 0x2089 <f256main+0x176d>
    56b2: 85 14        	sta	$14                     ; 0x2014 <f256main+0x16f8>
    56b4: b1 12        	lda	($12),y                 ; 0x2012 <f256main+0x16f6>
    56b6: a4 14        	ldy	$14                     ; 0x2014 <f256main+0x16f8>
    56b8: 84 12        	sty	$12                     ; 0x2012 <f256main+0x16f6>
    56ba: 85 13        	sta	$13                     ; 0x2013 <f256main+0x16f7>
    56bc: a0 05        	ldy	#$5
    56be: b1 89        	lda	($89),y                 ; 0x2089 <f256main+0x176d>
    56c0: a8           	tay
    56c1: 18           	clc
    56c2: 8a           	txa
    56c3: 71 12        	adc	($12),y                 ; 0x2012 <f256main+0x16f6>
    56c5: 18           	clc
    56c6: 69 fd        	adc	#$fd
    56c8: 91 12        	sta	($12),y                 ; 0x2012 <f256main+0x16f6>
    56ca: a0 06        	ldy	#$6
    56cc: b1 89        	lda	($89),y                 ; 0x2089 <f256main+0x176d>
    56ce: c9 01        	cmp	#$1
    56d0: f0 08        	beq	$56da <modalMoveUp+0x57>
    56d2: c9 03        	cmp	#$3
    56d4: d0 0b        	bne	$56e1 <modalMoveUp+0x5e>
    56d6: a0 04        	ldy	#$4
    56d8: 80 02        	bra	$56dc <modalMoveUp+0x59>
    56da: a0 03        	ldy	#$3
    56dc: b1 89        	lda	($89),y                 ; 0x2089 <f256main+0x176d>
    56de: 3a           	dec
    56df: 91 89        	sta	($89),y                 ; 0x2089 <f256main+0x176d>
    56e1: a9 01        	lda	#$1
    56e3: a6 89        	ldx	$89                     ; 0x2089 <f256main+0x176d>
    56e5: 86 12        	stx	$12                     ; 0x2012 <f256main+0x16f6>
    56e7: a6 8a        	ldx	$8a                     ; 0x208a <f256main+0x176e>
    56e9: 86 13        	stx	$13                     ; 0x2013 <f256main+0x16f7>
    56eb: 4c b2 54     	jmp	$54b2 <highLightInstChoice>

000056ee <modalMoveDown>:
    56ee: 85 8b        	sta	$8b                     ; 0x208b <f256main+0x176f>
    56f0: a6 12        	ldx	$12                     ; 0x2012 <f256main+0x16f6>
    56f2: 86 89        	stx	$89                     ; 0x2089 <f256main+0x176d>
    56f4: a6 13        	ldx	$13                     ; 0x2013 <f256main+0x16f7>
    56f6: 86 8a        	stx	$8a                     ; 0x208a <f256main+0x176e>
    56f8: a9 00        	lda	#$0
    56fa: 20 b2 54     	jsr	$54b2 <highLightInstChoice>
    56fd: a0 06        	ldy	#$6
    56ff: b1 89        	lda	($89),y                 ; 0x2089 <f256main+0x176d>
    5701: d0 36        	bne	$5739 <modalMoveDown+0x4b>
    5703: a2 1b        	ldx	#$1b
    5705: a5 8b        	lda	$8b                     ; 0x208b <f256main+0x176f>
    5707: 20 50 69     	jsr	$6950 <__mulqi3>
    570a: aa           	tax
    570b: a4 89        	ldy	$89                     ; 0x2089 <f256main+0x176d>
    570d: 84 12        	sty	$12                     ; 0x2012 <f256main+0x16f6>
    570f: a4 8a        	ldy	$8a                     ; 0x208a <f256main+0x176e>
    5711: 84 13        	sty	$13                     ; 0x2013 <f256main+0x16f7>
    5713: e6 12        	inc	$12                     ; 0x2012 <f256main+0x16f6>
    5715: d0 02        	bne	$5719 <modalMoveDown+0x2b>
    5717: e6 13        	inc	$13                     ; 0x2013 <f256main+0x16f7>
    5719: a0 01        	ldy	#$1
    571b: b1 89        	lda	($89),y                 ; 0x2089 <f256main+0x176d>
    571d: 85 14        	sta	$14                     ; 0x2014 <f256main+0x16f8>
    571f: b1 12        	lda	($12),y                 ; 0x2012 <f256main+0x16f6>
    5721: a4 14        	ldy	$14                     ; 0x2014 <f256main+0x16f8>
    5723: 84 12        	sty	$12                     ; 0x2012 <f256main+0x16f6>
    5725: 85 13        	sta	$13                     ; 0x2013 <f256main+0x16f7>
    5727: a0 05        	ldy	#$5
    5729: b1 89        	lda	($89),y                 ; 0x2089 <f256main+0x176d>
    572b: a8           	tay
    572c: 18           	clc
    572d: 8a           	txa
    572e: 71 12        	adc	($12),y                 ; 0x2012 <f256main+0x16f6>
    5730: 18           	clc
    5731: 69 03        	adc	#$3
    5733: 91 12        	sta	($12),y                 ; 0x2012 <f256main+0x16f6>
    5735: a0 06        	ldy	#$6
    5737: b1 89        	lda	($89),y                 ; 0x2089 <f256main+0x176d>
    5739: c9 01        	cmp	#$1
    573b: f0 08        	beq	$5745 <modalMoveDown+0x57>
    573d: c9 03        	cmp	#$3
    573f: d0 0b        	bne	$574c <modalMoveDown+0x5e>
    5741: a0 04        	ldy	#$4
    5743: 80 02        	bra	$5747 <modalMoveDown+0x59>
    5745: a0 03        	ldy	#$3
    5747: b1 89        	lda	($89),y                 ; 0x2089 <f256main+0x176d>
    5749: 1a           	inc
    574a: 91 89        	sta	($89),y                 ; 0x2089 <f256main+0x176d>
    574c: a9 01        	lda	#$1
    574e: a6 89        	ldx	$89                     ; 0x2089 <f256main+0x176d>
    5750: 86 12        	stx	$12                     ; 0x2012 <f256main+0x16f6>
    5752: a6 8a        	ldx	$8a                     ; 0x208a <f256main+0x176e>
    5754: 86 13        	stx	$13                     ; 0x2013 <f256main+0x16f7>
    5756: 4c b2 54     	jmp	$54b2 <highLightInstChoice>

00005759 <exit>:
    5759: 20 1b 03     	jsr	$31b <_fini>
    575c: 80 fe        	bra	$575c <exit+0x3>

0000575e <_ZN12_GLOBAL__N_13putEcP6Status>:
    575e: 85 18        	sta	$18                     ; 0x2018 <f256main+0x16fc>
    5760: a6 13        	ldx	$13                     ; 0x2013 <f256main+0x16f7>
    5762: 18           	clc
    5763: a5 12        	lda	$12                     ; 0x2012 <f256main+0x16f6>
    5765: 69 05        	adc	#$5
    5767: a8           	tay
    5768: a5 13        	lda	$13                     ; 0x2013 <f256main+0x16f7>
    576a: 86 15        	stx	$15                     ; 0x2015 <f256main+0x16f9>
    576c: 69 00        	adc	#$0
    576e: 18           	clc
    576f: 84 16        	sty	$16                     ; 0x2016 <f256main+0x16fa>
    5771: a0 05        	ldy	#$5
    5773: 85 17        	sta	$17                     ; 0x2017 <f256main+0x16fb>
    5775: b1 12        	lda	($12),y                 ; 0x2012 <f256main+0x16f6>
    5777: aa           	tax
    5778: a5 12        	lda	$12                     ; 0x2012 <f256main+0x16f6>
    577a: 69 03        	adc	#$3
    577c: 85 14        	sta	$14                     ; 0x2014 <f256main+0x16f8>
    577e: a5 15        	lda	$15                     ; 0x2015 <f256main+0x16f9>
    5780: 69 00        	adc	#$0
    5782: 85 15        	sta	$15                     ; 0x2015 <f256main+0x16f9>
    5784: a0 01        	ldy	#$1
    5786: b1 16        	lda	($16),y                 ; 0x2016 <f256main+0x16fa>
    5788: d1 14        	cmp	($14),y                 ; 0x2014 <f256main+0x16f8>
    578a: d0 11        	bne	$579d <_ZN12_GLOBAL__N_13putEcP6Status+0x3f>
    578c: a0 03        	ldy	#$3
    578e: 85 17        	sta	$17                     ; 0x2017 <f256main+0x16fb>
    5790: b1 12        	lda	($12),y                 ; 0x2012 <f256main+0x16f6>
    5792: 85 14        	sta	$14                     ; 0x2014 <f256main+0x16f8>
    5794: 86 16        	stx	$16                     ; 0x2016 <f256main+0x16fa>
    5796: e4 14        	cpx	$14                     ; 0x2014 <f256main+0x16f8>
    5798: 90 0e        	bcc	$57a8 <_ZN12_GLOBAL__N_13putEcP6Status+0x4a>
    579a: 4c 11 58     	jmp	$5811 <_ZN12_GLOBAL__N_13putEcP6Status+0xb3>
    579d: 86 16        	stx	$16                     ; 0x2016 <f256main+0x16fa>
    579f: d1 14        	cmp	($14),y                 ; 0x2014 <f256main+0x16f8>
    57a1: 85 17        	sta	$17                     ; 0x2017 <f256main+0x16fb>
    57a3: 90 03        	bcc	$57a8 <_ZN12_GLOBAL__N_13putEcP6Status+0x4a>
    57a5: 4c 11 58     	jmp	$5811 <_ZN12_GLOBAL__N_13putEcP6Status+0xb3>
    57a8: a5 12        	lda	$12                     ; 0x2012 <f256main+0x16f6>
    57aa: 18           	clc
    57ab: 69 0f        	adc	#$f
    57ad: 85 14        	sta	$14                     ; 0x2014 <f256main+0x16f8>
    57af: a5 13        	lda	$13                     ; 0x2013 <f256main+0x16f7>
    57b1: 69 00        	adc	#$0
    57b3: 85 15        	sta	$15                     ; 0x2015 <f256main+0x16f9>
    57b5: a0 01        	ldy	#$1
    57b7: b1 14        	lda	($14),y                 ; 0x2014 <f256main+0x16f8>
    57b9: a2 00        	ldx	#$0
    57bb: 86 14        	stx	$14                     ; 0x2014 <f256main+0x16f8>
    57bd: a2 00        	ldx	#$0
    57bf: 86 15        	stx	$15                     ; 0x2015 <f256main+0x16f9>
    57c1: c5 15        	cmp	$15                     ; 0x2015 <f256main+0x16f9>
    57c3: d0 2d        	bne	$57f2 <_ZN12_GLOBAL__N_13putEcP6Status+0x94>
    57c5: a0 0f        	ldy	#$f
    57c7: b1 12        	lda	($12),y                 ; 0x2012 <f256main+0x16f6>
    57c9: c5 14        	cmp	$14                     ; 0x2014 <f256main+0x16f8>
    57cb: d0 25        	bne	$57f2 <_ZN12_GLOBAL__N_13putEcP6Status+0x94>
    57cd: a5 12        	lda	$12                     ; 0x2012 <f256main+0x16f6>
    57cf: 18           	clc
    57d0: 69 09        	adc	#$9
    57d2: 85 14        	sta	$14                     ; 0x2014 <f256main+0x16f8>
    57d4: a5 13        	lda	$13                     ; 0x2013 <f256main+0x16f7>
    57d6: 69 00        	adc	#$0
    57d8: a0 09        	ldy	#$9
    57da: 85 15        	sta	$15                     ; 0x2015 <f256main+0x16f9>
    57dc: 18           	clc
    57dd: a5 16        	lda	$16                     ; 0x2016 <f256main+0x16fa>
    57df: 71 12        	adc	($12),y                 ; 0x2012 <f256main+0x16f6>
    57e1: aa           	tax
    57e2: a0 01        	ldy	#$1
    57e4: a5 17        	lda	$17                     ; 0x2017 <f256main+0x16fb>
    57e6: 71 14        	adc	($14),y                 ; 0x2014 <f256main+0x16f8>
    57e8: 86 14        	stx	$14                     ; 0x2014 <f256main+0x16f8>
    57ea: 85 15        	sta	$15                     ; 0x2015 <f256main+0x16f9>
    57ec: a5 18        	lda	$18                     ; 0x2018 <f256main+0x16fc>
    57ee: 92 14        	sta	($14)                   ; 0x2014 <f256main+0x16f8>
    57f0: 80 1f        	bra	$5811 <_ZN12_GLOBAL__N_13putEcP6Status+0xb3>
    57f2: a6 12        	ldx	$12                     ; 0x2012 <f256main+0x16f6>
    57f4: 86 eb        	stx	$eb                     ; 0x20eb <f256main+0x17cf>
    57f6: a6 13        	ldx	$13                     ; 0x2013 <f256main+0x16f7>
    57f8: 86 ec        	stx	$ec                     ; 0x20ec <f256main+0x17d0>
    57fa: a5 18        	lda	$18                     ; 0x2018 <f256main+0x16fc>
    57fc: 85 35        	sta	$35                     ; 0x2035 <f256main+0x1719>
    57fe: a2 35        	ldx	#$35
    5800: 86 12        	stx	$12                     ; 0x2012 <f256main+0x16f6>
    5802: a2 00        	ldx	#$0
    5804: 86 13        	stx	$13                     ; 0x2013 <f256main+0x16f7>
    5806: 20 63 30     	jsr	$3063 <textPrint>
    5809: a6 eb        	ldx	$eb                     ; 0x20eb <f256main+0x17cf>
    580b: 86 12        	stx	$12                     ; 0x2012 <f256main+0x16f6>
    580d: a6 ec        	ldx	$ec                     ; 0x20ec <f256main+0x17d0>
    580f: 86 13        	stx	$13                     ; 0x2013 <f256main+0x16f7>
    5811: a0 05        	ldy	#$5
    5813: a5 12        	lda	$12                     ; 0x2012 <f256main+0x16f6>
    5815: 18           	clc
    5816: 69 05        	adc	#$5
    5818: 85 14        	sta	$14                     ; 0x2014 <f256main+0x16f8>
    581a: a5 13        	lda	$13                     ; 0x2013 <f256main+0x16f7>
    581c: 69 00        	adc	#$0
    581e: 85 15        	sta	$15                     ; 0x2015 <f256main+0x16f9>
    5820: b1 12        	lda	($12),y                 ; 0x2012 <f256main+0x16f6>
    5822: aa           	tax
    5823: a0 01        	ldy	#$1
    5825: b1 14        	lda	($14),y                 ; 0x2014 <f256main+0x16f8>
    5827: e8           	inx
    5828: d0 01        	bne	$582b <_ZN12_GLOBAL__N_13putEcP6Status+0xcd>
    582a: 1a           	inc
    582b: 85 16        	sta	$16                     ; 0x2016 <f256main+0x16fa>
    582d: 8a           	txa
    582e: a0 05        	ldy	#$5
    5830: 91 12        	sta	($12),y                 ; 0x2012 <f256main+0x16f6>
    5832: a0 01        	ldy	#$1
    5834: a5 16        	lda	$16                     ; 0x2016 <f256main+0x16fa>
    5836: 91 14        	sta	($14),y                 ; 0x2014 <f256main+0x16f8>
    5838: 60           	rts

00005839 <_ZN12_GLOBAL__N_112print_stringEPKcP6Status>:
    5839: a6 12        	ldx	$12                     ; 0x2012 <f256main+0x16f6>
    583b: 86 e3        	stx	$e3                     ; 0x20e3 <f256main+0x17c7>
    583d: a6 13        	ldx	$13                     ; 0x2013 <f256main+0x16f7>
    583f: 86 e4        	stx	$e4                     ; 0x20e4 <f256main+0x17c8>
    5841: a6 14        	ldx	$14                     ; 0x2014 <f256main+0x16f8>
    5843: 86 e5        	stx	$e5                     ; 0x20e5 <f256main+0x17c9>
    5845: a6 15        	ldx	$15                     ; 0x2015 <f256main+0x16f9>
    5847: 86 e6        	stx	$e6                     ; 0x20e6 <f256main+0x17ca>
    5849: a5 e5        	lda	$e5                     ; 0x20e5 <f256main+0x17c9>
    584b: 18           	clc
    584c: 69 0d        	adc	#$d
    584e: 85 12        	sta	$12                     ; 0x2012 <f256main+0x16f6>
    5850: a5 e6        	lda	$e6                     ; 0x20e6 <f256main+0x17ca>
    5852: 69 00        	adc	#$0
    5854: 85 13        	sta	$13                     ; 0x2013 <f256main+0x16f7>
    5856: a0 01        	ldy	#$1
    5858: b1 12        	lda	($12),y                 ; 0x2012 <f256main+0x16f6>
    585a: 30 16        	bmi	$5872 <_ZN12_GLOBAL__N_112print_stringEPKcP6Status+0x39>
    585c: a0 0d        	ldy	#$d
    585e: 85 12        	sta	$12                     ; 0x2012 <f256main+0x16f6>
    5860: b1 e5        	lda	($e5),y                 ; 0x20e5 <f256main+0x17c9>
    5862: a6 12        	ldx	$12                     ; 0x2012 <f256main+0x16f6>
    5864: 86 ea        	stx	$ea                     ; 0x20ea <f256main+0x17ce>
    5866: d0 0f        	bne	$5877 <_ZN12_GLOBAL__N_112print_stringEPKcP6Status+0x3e>
    5868: aa           	tax
    5869: d0 0c        	bne	$5877 <_ZN12_GLOBAL__N_112print_stringEPKcP6Status+0x3e>
    586b: 64 e7        	stz	$e7                     ; 0x20e7 <f256main+0x17cb>
    586d: a2 00        	ldx	#$0
    586f: 4c 40 59     	jmp	$5940 <_ZN12_GLOBAL__N_112print_stringEPKcP6Status+0x107>
    5872: a9 ff        	lda	#$ff
    5874: aa           	tax
    5875: 86 ea        	stx	$ea                     ; 0x20ea <f256main+0x17ce>
    5877: 85 e7        	sta	$e7                     ; 0x20e7 <f256main+0x17cb>
    5879: 64 12        	stz	$12                     ; 0x2012 <f256main+0x16f6>
    587b: a4 e3        	ldy	$e3                     ; 0x20e3 <f256main+0x17c7>
    587d: a6 e4        	ldx	$e4                     ; 0x20e4 <f256main+0x17c8>
    587f: 86 16        	stx	$16                     ; 0x2016 <f256main+0x16fa>
    5881: 64 13        	stz	$13                     ; 0x2013 <f256main+0x16f7>
    5883: 98           	tya
    5884: 18           	clc
    5885: 65 12        	adc	$12                     ; 0x2012 <f256main+0x16f6>
    5887: 85 14        	sta	$14                     ; 0x2014 <f256main+0x16f8>
    5889: a5 e4        	lda	$e4                     ; 0x20e4 <f256main+0x17c8>
    588b: 65 13        	adc	$13                     ; 0x2013 <f256main+0x16f7>
    588d: 85 15        	sta	$15                     ; 0x2015 <f256main+0x16f9>
    588f: b2 14        	lda	($14)                   ; 0x2014 <f256main+0x16f8>
    5891: d0 03        	bne	$5896 <_ZN12_GLOBAL__N_112print_stringEPKcP6Status+0x5d>
    5893: 4c 3a 59     	jmp	$593a <_ZN12_GLOBAL__N_112print_stringEPKcP6Status+0x101>
    5896: e6 12        	inc	$12                     ; 0x2012 <f256main+0x16f6>
    5898: d0 02        	bne	$589c <_ZN12_GLOBAL__N_112print_stringEPKcP6Status+0x63>
    589a: e6 13        	inc	$13                     ; 0x2013 <f256main+0x16f7>
    589c: a6 ea        	ldx	$ea                     ; 0x20ea <f256main+0x17ce>
    589e: e4 13        	cpx	$13                     ; 0x2013 <f256main+0x16f7>
    58a0: d0 e1        	bne	$5883 <_ZN12_GLOBAL__N_112print_stringEPKcP6Status+0x4a>
    58a2: a6 e7        	ldx	$e7                     ; 0x20e7 <f256main+0x17cb>
    58a4: e4 12        	cpx	$12                     ; 0x2012 <f256main+0x16f6>
    58a6: d0 db        	bne	$5883 <_ZN12_GLOBAL__N_112print_stringEPKcP6Status+0x4a>
    58a8: a0 01        	ldy	#$1
    58aa: b1 e5        	lda	($e5),y                 ; 0x20e5 <f256main+0x17c9>
    58ac: 29 01        	and	#$1
    58ae: f0 03        	beq	$58b3 <_ZN12_GLOBAL__N_112print_stringEPKcP6Status+0x7a>
    58b0: 4c 0b 59     	jmp	$590b <_ZN12_GLOBAL__N_112print_stringEPKcP6Status+0xd2>
    58b3: a5 e5        	lda	$e5                     ; 0x20e5 <f256main+0x17c9>
    58b5: 18           	clc
    58b6: 69 0b        	adc	#$b
    58b8: 85 14        	sta	$14                     ; 0x2014 <f256main+0x16f8>
    58ba: a5 e6        	lda	$e6                     ; 0x20e6 <f256main+0x17ca>
    58bc: 69 00        	adc	#$0
    58be: 85 15        	sta	$15                     ; 0x2015 <f256main+0x16f9>
    58c0: a0 0b        	ldy	#$b
    58c2: b1 e5        	lda	($e5),y                 ; 0x20e5 <f256main+0x17c9>
    58c4: 85 13        	sta	$13                     ; 0x2013 <f256main+0x16f7>
    58c6: a0 01        	ldy	#$1
    58c8: b1 14        	lda	($14),y                 ; 0x2014 <f256main+0x16f8>
    58ca: 85 12        	sta	$12                     ; 0x2012 <f256main+0x16f6>
    58cc: a6 ea        	ldx	$ea                     ; 0x20ea <f256main+0x17ce>
    58ce: e4 12        	cpx	$12                     ; 0x2012 <f256main+0x16f6>
    58d0: d0 08        	bne	$58da <_ZN12_GLOBAL__N_112print_stringEPKcP6Status+0xa1>
    58d2: a6 e7        	ldx	$e7                     ; 0x20e7 <f256main+0x17cb>
    58d4: e4 13        	cpx	$13                     ; 0x2013 <f256main+0x16f7>
    58d6: 90 06        	bcc	$58de <_ZN12_GLOBAL__N_112print_stringEPKcP6Status+0xa5>
    58d8: 80 31        	bra	$590b <_ZN12_GLOBAL__N_112print_stringEPKcP6Status+0xd2>
    58da: e4 12        	cpx	$12                     ; 0x2012 <f256main+0x16f6>
    58dc: b0 2d        	bcs	$590b <_ZN12_GLOBAL__N_112print_stringEPKcP6Status+0xd2>
    58de: 38           	sec
    58df: a5 e7        	lda	$e7                     ; 0x20e7 <f256main+0x17cb>
    58e1: e5 13        	sbc	$13                     ; 0x2013 <f256main+0x16f7>
    58e3: a8           	tay
    58e4: a5 ea        	lda	$ea                     ; 0x20ea <f256main+0x17ce>
    58e6: e5 12        	sbc	$12                     ; 0x2012 <f256main+0x16f6>
    58e8: 85 e9        	sta	$e9                     ; 0x20e9 <f256main+0x17cd>
    58ea: a6 e5        	ldx	$e5                     ; 0x20e5 <f256main+0x17c9>
    58ec: 86 12        	stx	$12                     ; 0x2012 <f256main+0x16f6>
    58ee: a6 e6        	ldx	$e6                     ; 0x20e6 <f256main+0x17ca>
    58f0: 86 13        	stx	$13                     ; 0x2013 <f256main+0x16f7>
    58f2: 84 e8        	sty	$e8                     ; 0x20e8 <f256main+0x17cc>
    58f4: a9 20        	lda	#$20
    58f6: 20 5e 57     	jsr	$575e <_ZN12_GLOBAL__N_13putEcP6Status>
    58f9: a6 e9        	ldx	$e9                     ; 0x20e9 <f256main+0x17cd>
    58fb: e6 e8        	inc	$e8                     ; 0x20e8 <f256main+0x17cc>
    58fd: d0 01        	bne	$5900 <_ZN12_GLOBAL__N_112print_stringEPKcP6Status+0xc7>
    58ff: e8           	inx
    5900: 86 e9        	stx	$e9                     ; 0x20e9 <f256main+0x17cd>
    5902: a4 e8        	ldy	$e8                     ; 0x20e8 <f256main+0x17cc>
    5904: 8a           	txa
    5905: d0 e3        	bne	$58ea <_ZN12_GLOBAL__N_112print_stringEPKcP6Status+0xb1>
    5907: a5 e8        	lda	$e8                     ; 0x20e8 <f256main+0x17cc>
    5909: d0 df        	bne	$58ea <_ZN12_GLOBAL__N_112print_stringEPKcP6Status+0xb1>
    590b: a4 ea        	ldy	$ea                     ; 0x20ea <f256main+0x17ce>
    590d: d0 04        	bne	$5913 <_ZN12_GLOBAL__N_112print_stringEPKcP6Status+0xda>
    590f: a5 e7        	lda	$e7                     ; 0x20e7 <f256main+0x17cb>
    5911: f0 26        	beq	$5939 <_ZN12_GLOBAL__N_112print_stringEPKcP6Status+0x100>
    5913: a2 ff        	ldx	#$ff
    5915: c6 e7        	dec	$e7                     ; 0x20e7 <f256main+0x17cb>
    5917: e4 e7        	cpx	$e7                     ; 0x20e7 <f256main+0x17cb>
    5919: d0 01        	bne	$591c <_ZN12_GLOBAL__N_112print_stringEPKcP6Status+0xe3>
    591b: 88           	dey
    591c: 84 e8        	sty	$e8                     ; 0x20e8 <f256main+0x17cc>
    591e: b2 e3        	lda	($e3)                   ; 0x20e3 <f256main+0x17c7>
    5920: e6 e3        	inc	$e3                     ; 0x20e3 <f256main+0x17c7>
    5922: d0 02        	bne	$5926 <_ZN12_GLOBAL__N_112print_stringEPKcP6Status+0xed>
    5924: e6 e4        	inc	$e4                     ; 0x20e4 <f256main+0x17c8>
    5926: a6 e5        	ldx	$e5                     ; 0x20e5 <f256main+0x17c9>
    5928: 86 12        	stx	$12                     ; 0x2012 <f256main+0x16f6>
    592a: a6 e6        	ldx	$e6                     ; 0x20e6 <f256main+0x17ca>
    592c: 86 13        	stx	$13                     ; 0x2013 <f256main+0x16f7>
    592e: 20 5e 57     	jsr	$575e <_ZN12_GLOBAL__N_13putEcP6Status>
    5931: a4 e8        	ldy	$e8                     ; 0x20e8 <f256main+0x17cc>
    5933: d0 de        	bne	$5913 <_ZN12_GLOBAL__N_112print_stringEPKcP6Status+0xda>
    5935: a5 e7        	lda	$e7                     ; 0x20e7 <f256main+0x17cb>
    5937: d0 da        	bne	$5913 <_ZN12_GLOBAL__N_112print_stringEPKcP6Status+0xda>
    5939: 60           	rts
    593a: a6 12        	ldx	$12                     ; 0x2012 <f256main+0x16f6>
    593c: 86 e7        	stx	$e7                     ; 0x20e7 <f256main+0x17cb>
    593e: a6 13        	ldx	$13                     ; 0x2013 <f256main+0x16f7>
    5940: 86 ea        	stx	$ea                     ; 0x20ea <f256main+0x17ce>
    5942: 4c a8 58     	jmp	$58a8 <_ZN12_GLOBAL__N_112print_stringEPKcP6Status+0x6f>

00005945 <printf>:
    5945: a6 12        	ldx	$12                     ; 0x2012 <f256main+0x16f6>
    5947: 86 98        	stx	$98                     ; 0x2098 <f256main+0x177c>
    5949: a6 13        	ldx	$13                     ; 0x2013 <f256main+0x16f7>
    594b: 86 99        	stx	$99                     ; 0x2099 <f256main+0x177d>
    594d: 18           	clc
    594e: a6 10        	ldx	$10                     ; 0x2010 <f256main+0x16f4>
    5950: a4 11        	ldy	$11                     ; 0x2011 <f256main+0x16f5>
    5952: 86 d9        	stx	$d9                     ; 0x20d9 <f256main+0x17bd>
    5954: 84 da        	sty	$da                     ; 0x20da <f256main+0x17be>
    5956: a6 d9        	ldx	$d9                     ; 0x20d9 <f256main+0x17bd>
    5958: a4 da        	ldy	$da                     ; 0x20da <f256main+0x17be>
    595a: 86 c4        	stx	$c4                     ; 0x20c4 <f256main+0x17a8>
    595c: 84 c5        	sty	$c5                     ; 0x20c5 <f256main+0x17a9>
    595e: a2 ff        	ldx	#$ff
    5960: 86 c9        	stx	$c9                     ; 0x20c9 <f256main+0x17ad>
    5962: 86 ca        	stx	$ca                     ; 0x20ca <f256main+0x17ae>
    5964: 64 cb        	stz	$cb                     ; 0x20cb <f256main+0x17af>
    5966: 64 cc        	stz	$cc                     ; 0x20cc <f256main+0x17b0>
    5968: e8           	inx
    5969: 86 9a        	stx	$9a                     ; 0x209a <f256main+0x177e>
    596b: a2 00        	ldx	#$0
    596d: 86 9b        	stx	$9b                     ; 0x209b <f256main+0x177f>
    596f: a6 9a        	ldx	$9a                     ; 0x209a <f256main+0x177e>
    5971: a4 9b        	ldy	$9b                     ; 0x209b <f256main+0x177f>
    5973: 86 cf        	stx	$cf                     ; 0x20cf <f256main+0x17b3>
    5975: 84 d0        	sty	$d0                     ; 0x20d0 <f256main+0x17b4>
    5977: a2 02        	ldx	#$2
    5979: 86 d5        	stx	$d5                     ; 0x20d5 <f256main+0x17b9>
    597b: 64 d6        	stz	$d6                     ; 0x20d6 <f256main+0x17ba>
    597d: a6 c4        	ldx	$c4                     ; 0x20c4 <f256main+0x17a8>
    597f: a4 c5        	ldy	$c5                     ; 0x20c5 <f256main+0x17a9>
    5981: 86 d7        	stx	$d7                     ; 0x20d7 <f256main+0x17bb>
    5983: 84 d8        	sty	$d8                     ; 0x20d8 <f256main+0x17bc>
    5985: a2 bb        	ldx	#$bb
    5987: a0 00        	ldy	#$0
    5989: 86 12        	stx	$12                     ; 0x2012 <f256main+0x16f6>
    598b: 84 13        	sty	$13                     ; 0x2013 <f256main+0x16f7>
    598d: a0 01        	ldy	#$1
    598f: a9 a2        	lda	#$a2
    5991: 18           	clc
    5992: 69 02        	adc	#$2
    5994: 85 e1        	sta	$e1                     ; 0x20e1 <f256main+0x17c5>
    5996: a9 00        	lda	#$0
    5998: 69 00        	adc	#$0
    599a: 85 e2        	sta	$e2                     ; 0x20e2 <f256main+0x17c6>
    599c: e6 12        	inc	$12                     ; 0x2012 <f256main+0x16f6>
    599e: d0 02        	bne	$59a2 <printf+0x5d>
    59a0: e6 13        	inc	$13                     ; 0x2013 <f256main+0x16f7>
    59a2: a6 12        	ldx	$12                     ; 0x2012 <f256main+0x16f6>
    59a4: 86 dd        	stx	$dd                     ; 0x20dd <f256main+0x17c1>
    59a6: a6 13        	ldx	$13                     ; 0x2013 <f256main+0x16f7>
    59a8: 86 de        	stx	$de                     ; 0x20de <f256main+0x17c2>
    59aa: a6 98        	ldx	$98                     ; 0x2098 <f256main+0x177c>
    59ac: 86 9c        	stx	$9c                     ; 0x209c <f256main+0x1780>
    59ae: a6 99        	ldx	$99                     ; 0x2099 <f256main+0x177d>
    59b0: 86 9d        	stx	$9d                     ; 0x209d <f256main+0x1781>
    59b2: b2 98        	lda	($98)                   ; 0x2098 <f256main+0x177c>
    59b4: c9 25        	cmp	#$25
    59b6: f0 2b        	beq	$59e3 <printf+0x9e>
    59b8: aa           	tax
    59b9: d0 03        	bne	$59be <printf+0x79>
    59bb: 4c 70 65     	jmp	$6570 <printf+0xc2b>
    59be: 85 35        	sta	$35                     ; 0x2035 <f256main+0x1719>
    59c0: a2 35        	ldx	#$35
    59c2: 86 12        	stx	$12                     ; 0x2012 <f256main+0x16f6>
    59c4: a2 00        	ldx	#$0
    59c6: 86 13        	stx	$13                     ; 0x2013 <f256main+0x16f7>
    59c8: 20 63 30     	jsr	$3063 <textPrint>
    59cb: a0 01        	ldy	#$1
    59cd: e6 9c        	inc	$9c                     ; 0x209c <f256main+0x1780>
    59cf: d0 02        	bne	$59d3 <printf+0x8e>
    59d1: e6 9d        	inc	$9d                     ; 0x209d <f256main+0x1781>
    59d3: e6 cb        	inc	$cb                     ; 0x20cb <f256main+0x17af>
    59d5: d0 02        	bne	$59d9 <printf+0x94>
    59d7: e6 cc        	inc	$cc                     ; 0x20cc <f256main+0x17b0>
    59d9: a6 9c        	ldx	$9c                     ; 0x209c <f256main+0x1780>
    59db: 86 98        	stx	$98                     ; 0x2098 <f256main+0x177c>
    59dd: a6 9d        	ldx	$9d                     ; 0x209d <f256main+0x1781>
    59df: 86 99        	stx	$99                     ; 0x2099 <f256main+0x177d>
    59e1: 80 c7        	bra	$59aa <printf+0x65>
    59e3: a6 98        	ldx	$98                     ; 0x2098 <f256main+0x177c>
    59e5: 86 12        	stx	$12                     ; 0x2012 <f256main+0x16f6>
    59e7: a6 99        	ldx	$99                     ; 0x2099 <f256main+0x177d>
    59e9: 86 13        	stx	$13                     ; 0x2013 <f256main+0x16f7>
    59eb: e6 12        	inc	$12                     ; 0x2012 <f256main+0x16f6>
    59ed: d0 02        	bne	$59f1 <printf+0xac>
    59ef: e6 13        	inc	$13                     ; 0x2013 <f256main+0x16f7>
    59f1: b1 9c        	lda	($9c),y                 ; 0x209c <f256main+0x1780>
    59f3: c9 25        	cmp	#$25
    59f5: d0 16        	bne	$5a0d <printf+0xc8>
    59f7: a4 cb        	ldy	$cb                     ; 0x20cb <f256main+0x17af>
    59f9: a5 cc        	lda	$cc                     ; 0x20cc <f256main+0x17b0>
    59fb: c5 ca        	cmp	$ca                     ; 0x20ca <f256main+0x17ae>
    59fd: f0 03        	beq	$5a02 <printf+0xbd>
    59ff: 4c 14 5b     	jmp	$5b14 <printf+0x1cf>
    5a02: a6 c9        	ldx	$c9                     ; 0x20c9 <f256main+0x17ad>
    5a04: 86 12        	stx	$12                     ; 0x2012 <f256main+0x16f6>
    5a06: 84 13        	sty	$13                     ; 0x2013 <f256main+0x16f7>
    5a08: c4 12        	cpy	$12                     ; 0x2012 <f256main+0x16f6>
    5a0a: 4c 18 5b     	jmp	$5b18 <printf+0x1d3>
    5a0d: 64 c7        	stz	$c7                     ; 0x20c7 <f256main+0x17ab>
    5a0f: 64 c8        	stz	$c8                     ; 0x20c8 <f256main+0x17ac>
    5a11: 64 c6        	stz	$c6                     ; 0x20c6 <f256main+0x17aa>
    5a13: 64 d1        	stz	$d1                     ; 0x20d1 <f256main+0x17b5>
    5a15: 64 d2        	stz	$d2                     ; 0x20d2 <f256main+0x17b6>
    5a17: a2 ff        	ldx	#$ff
    5a19: 86 d3        	stx	$d3                     ; 0x20d3 <f256main+0x17b7>
    5a1b: 86 d4        	stx	$d4                     ; 0x20d4 <f256main+0x17b8>
    5a1d: 64 97        	stz	$97                     ; 0x2097 <f256main+0x177b>
    5a1f: 80 33        	bra	$5a54 <printf+0x10f>
    5a21: a2 02        	ldx	#$2
    5a23: 80 15        	bra	$5a3a <printf+0xf5>
    5a25: e0 20        	cpx	#$20
    5a27: f0 15        	beq	$5a3e <printf+0xf9>
    5a29: 86 15        	stx	$15                     ; 0x2015 <f256main+0x16f9>
    5a2b: e0 23        	cpx	#$23
    5a2d: f0 03        	beq	$5a32 <printf+0xed>
    5a2f: 4c b1 5a     	jmp	$5ab1 <printf+0x16c>
    5a32: a5 97        	lda	$97                     ; 0x2097 <f256main+0x177b>
    5a34: a2 04        	ldx	#$4
    5a36: 80 02        	bra	$5a3a <printf+0xf5>
    5a38: a2 10        	ldx	#$10
    5a3a: 86 14        	stx	$14                     ; 0x2014 <f256main+0x16f8>
    5a3c: 80 06        	bra	$5a44 <printf+0xff>
    5a3e: a2 08        	ldx	#$8
    5a40: 86 14        	stx	$14                     ; 0x2014 <f256main+0x16f8>
    5a42: a5 97        	lda	$97                     ; 0x2097 <f256main+0x177b>
    5a44: 05 14        	ora	$14                     ; 0x2014 <f256main+0x16f8>
    5a46: 85 97        	sta	$97                     ; 0x2097 <f256main+0x177b>
    5a48: 85 c7        	sta	$c7                     ; 0x20c7 <f256main+0x17ab>
    5a4a: a2 00        	ldx	#$0
    5a4c: 86 c8        	stx	$c8                     ; 0x20c8 <f256main+0x17ac>
    5a4e: e6 12        	inc	$12                     ; 0x2012 <f256main+0x16f6>
    5a50: d0 02        	bne	$5a54 <printf+0x10f>
    5a52: e6 13        	inc	$13                     ; 0x2013 <f256main+0x16f7>
    5a54: b2 12        	lda	($12)                   ; 0x2012 <f256main+0x16f6>
    5a56: aa           	tax
    5a57: 18           	clc
    5a58: 69 d6        	adc	#$d6
    5a5a: c9 07        	cmp	#$7
    5a5c: b0 c7        	bcs	$5a25 <printf+0xe0>
    5a5e: 86 15        	stx	$15                     ; 0x2015 <f256main+0x16f9>
    5a60: 0a           	asl
    5a61: aa           	tax
    5a62: a0 01        	ldy	#$1
    5a64: 84 14        	sty	$14                     ; 0x2014 <f256main+0x16f8>
    5a66: a5 97        	lda	$97                     ; 0x2097 <f256main+0x177b>
    5a68: 7c 3b 7e     	jmp	($7e3b,x)               ; 0x7e3b <__set_v+0x29>
    5a6b: a5 d7        	lda	$d7                     ; 0x20d7 <f256main+0x17bb>
    5a6d: a6 d8        	ldx	$d8                     ; 0x20d8 <f256main+0x17bc>
    5a6f: 85 16        	sta	$16                     ; 0x2016 <f256main+0x16fa>
    5a71: 86 17        	stx	$17                     ; 0x2017 <f256main+0x16fb>
    5a73: 18           	clc
    5a74: 69 02        	adc	#$2
    5a76: a8           	tay
    5a77: 8a           	txa
    5a78: 69 00        	adc	#$0
    5a7a: 84 d7        	sty	$d7                     ; 0x20d7 <f256main+0x17bb>
    5a7c: 85 d8        	sta	$d8                     ; 0x20d8 <f256main+0x17bc>
    5a7e: b2 16        	lda	($16)                   ; 0x2016 <f256main+0x16fa>
    5a80: 85 15        	sta	$15                     ; 0x2015 <f256main+0x16f9>
    5a82: a0 01        	ldy	#$1
    5a84: b1 16        	lda	($16),y                 ; 0x2016 <f256main+0x16fa>
    5a86: 85 14        	sta	$14                     ; 0x2014 <f256main+0x16f8>
    5a88: 10 15        	bpl	$5a9f <printf+0x15a>
    5a8a: a5 97        	lda	$97                     ; 0x2097 <f256main+0x177b>
    5a8c: 09 01        	ora	#$1
    5a8e: 85 97        	sta	$97                     ; 0x2097 <f256main+0x177b>
    5a90: 85 c7        	sta	$c7                     ; 0x20c7 <f256main+0x17ab>
    5a92: a2 00        	ldx	#$0
    5a94: 86 c8        	stx	$c8                     ; 0x20c8 <f256main+0x17ac>
    5a96: 8a           	txa
    5a97: 38           	sec
    5a98: e5 15        	sbc	$15                     ; 0x2015 <f256main+0x16f9>
    5a9a: 85 15        	sta	$15                     ; 0x2015 <f256main+0x16f9>
    5a9c: 8a           	txa
    5a9d: e5 14        	sbc	$14                     ; 0x2014 <f256main+0x16f8>
    5a9f: a6 15        	ldx	$15                     ; 0x2015 <f256main+0x16f9>
    5aa1: 86 d1        	stx	$d1                     ; 0x20d1 <f256main+0x17b5>
    5aa3: 85 d2        	sta	$d2                     ; 0x20d2 <f256main+0x17b6>
    5aa5: e6 12        	inc	$12                     ; 0x2012 <f256main+0x16f6>
    5aa7: f0 03        	beq	$5aac <printf+0x167>
    5aa9: 4c 70 5b     	jmp	$5b70 <printf+0x22b>
    5aac: e6 13        	inc	$13                     ; 0x2013 <f256main+0x16f7>
    5aae: 4c 70 5b     	jmp	$5b70 <printf+0x22b>
    5ab1: a5 15        	lda	$15                     ; 0x2015 <f256main+0x16f9>
    5ab3: 18           	clc
    5ab4: 69 d0        	adc	#$d0
    5ab6: c9 0a        	cmp	#$a
    5ab8: 90 03        	bcc	$5abd <printf+0x178>
    5aba: 4c 62 5b     	jmp	$5b62 <printf+0x21d>
    5abd: a6 15        	ldx	$15                     ; 0x2015 <f256main+0x16f9>
    5abf: 86 14        	stx	$14                     ; 0x2014 <f256main+0x16f8>
    5ac1: 64 16        	stz	$16                     ; 0x2016 <f256main+0x16fa>
    5ac3: 64 15        	stz	$15                     ; 0x2015 <f256main+0x16f9>
    5ac5: 64 17        	stz	$17                     ; 0x2017 <f256main+0x16fb>
    5ac7: a0 01        	ldy	#$1
    5ac9: 06 16        	asl	$16                     ; 0x2016 <f256main+0x16fa>
    5acb: 26 17        	rol	$17                     ; 0x2017 <f256main+0x16fb>
    5acd: a5 16        	lda	$16                     ; 0x2016 <f256main+0x16fa>
    5acf: 0a           	asl
    5ad0: aa           	tax
    5ad1: a5 17        	lda	$17                     ; 0x2017 <f256main+0x16fb>
    5ad3: 2a           	rol
    5ad4: 86 18        	stx	$18                     ; 0x2018 <f256main+0x16fc>
    5ad6: 06 18        	asl	$18                     ; 0x2018 <f256main+0x16fc>
    5ad8: 2a           	rol
    5ad9: aa           	tax
    5ada: a5 18        	lda	$18                     ; 0x2018 <f256main+0x16fc>
    5adc: 18           	clc
    5add: 65 16        	adc	$16                     ; 0x2016 <f256main+0x16fa>
    5adf: 85 16        	sta	$16                     ; 0x2016 <f256main+0x16fa>
    5ae1: 8a           	txa
    5ae2: 65 17        	adc	$17                     ; 0x2017 <f256main+0x16fb>
    5ae4: 85 17        	sta	$17                     ; 0x2017 <f256main+0x16fb>
    5ae6: a5 16        	lda	$16                     ; 0x2016 <f256main+0x16fa>
    5ae8: 18           	clc
    5ae9: 65 14        	adc	$14                     ; 0x2014 <f256main+0x16f8>
    5aeb: 85 14        	sta	$14                     ; 0x2014 <f256main+0x16f8>
    5aed: a5 17        	lda	$17                     ; 0x2017 <f256main+0x16fb>
    5aef: 65 15        	adc	$15                     ; 0x2015 <f256main+0x16f9>
    5af1: aa           	tax
    5af2: 18           	clc
    5af3: a5 14        	lda	$14                     ; 0x2014 <f256main+0x16f8>
    5af5: 69 d0        	adc	#$d0
    5af7: 85 16        	sta	$16                     ; 0x2016 <f256main+0x16fa>
    5af9: 8a           	txa
    5afa: 69 ff        	adc	#$ff
    5afc: 85 17        	sta	$17                     ; 0x2017 <f256main+0x16fb>
    5afe: b1 12        	lda	($12),y                 ; 0x2012 <f256main+0x16f6>
    5b00: 85 14        	sta	$14                     ; 0x2014 <f256main+0x16f8>
    5b02: 18           	clc
    5b03: 69 d0        	adc	#$d0
    5b05: e6 12        	inc	$12                     ; 0x2012 <f256main+0x16f6>
    5b07: d0 02        	bne	$5b0b <printf+0x1c6>
    5b09: e6 13        	inc	$13                     ; 0x2013 <f256main+0x16f7>
    5b0b: c9 0a        	cmp	#$a
    5b0d: 64 15        	stz	$15                     ; 0x2015 <f256main+0x16f9>
    5b0f: 90 b8        	bcc	$5ac9 <printf+0x184>
    5b11: 4c 68 5b     	jmp	$5b68 <printf+0x223>
    5b14: 84 13        	sty	$13                     ; 0x2013 <f256main+0x16f7>
    5b16: c5 ca        	cmp	$ca                     ; 0x20ca <f256main+0x17ae>
    5b18: a0 01        	ldy	#$1
    5b1a: b0 30        	bcs	$5b4c <printf+0x207>
    5b1c: a6 d6        	ldx	$d6                     ; 0x20d6 <f256main+0x17ba>
    5b1e: e4 9b        	cpx	$9b                     ; 0x209b <f256main+0x177f>
    5b20: d0 19        	bne	$5b3b <printf+0x1f6>
    5b22: a6 d5        	ldx	$d5                     ; 0x20d5 <f256main+0x17b9>
    5b24: e4 9a        	cpx	$9a                     ; 0x209a <f256main+0x177e>
    5b26: d0 13        	bne	$5b3b <printf+0x1f6>
    5b28: 18           	clc
    5b29: aa           	tax
    5b2a: a5 13        	lda	$13                     ; 0x2013 <f256main+0x16f7>
    5b2c: 65 cf        	adc	$cf                     ; 0x20cf <f256main+0x17b3>
    5b2e: 85 12        	sta	$12                     ; 0x2012 <f256main+0x16f6>
    5b30: 8a           	txa
    5b31: 65 d0        	adc	$d0                     ; 0x20d0 <f256main+0x17b4>
    5b33: 85 13        	sta	$13                     ; 0x2013 <f256main+0x16f7>
    5b35: a9 25        	lda	#$25
    5b37: 92 12        	sta	($12)                   ; 0x2012 <f256main+0x16f6>
    5b39: 80 11        	bra	$5b4c <printf+0x207>
    5b3b: a2 25        	ldx	#$25
    5b3d: 86 35        	stx	$35                     ; 0x2035 <f256main+0x1719>
    5b3f: a2 35        	ldx	#$35
    5b41: 86 12        	stx	$12                     ; 0x2012 <f256main+0x16f6>
    5b43: a2 00        	ldx	#$0
    5b45: 86 13        	stx	$13                     ; 0x2013 <f256main+0x16f7>
    5b47: 20 63 30     	jsr	$3063 <textPrint>
    5b4a: a0 01        	ldy	#$1
    5b4c: e6 cb        	inc	$cb                     ; 0x20cb <f256main+0x17af>
    5b4e: d0 02        	bne	$5b52 <printf+0x20d>
    5b50: e6 cc        	inc	$cc                     ; 0x20cc <f256main+0x17b0>
    5b52: a5 9c        	lda	$9c                     ; 0x209c <f256main+0x1780>
    5b54: 18           	clc
    5b55: 69 02        	adc	#$2
    5b57: 85 98        	sta	$98                     ; 0x2098 <f256main+0x177c>
    5b59: a5 9d        	lda	$9d                     ; 0x209d <f256main+0x1781>
    5b5b: 69 00        	adc	#$0
    5b5d: 85 99        	sta	$99                     ; 0x2099 <f256main+0x177d>
    5b5f: 4c aa 59     	jmp	$59aa <printf+0x65>
    5b62: 64 16        	stz	$16                     ; 0x2016 <f256main+0x16fa>
    5b64: 64 17        	stz	$17                     ; 0x2017 <f256main+0x16fb>
    5b66: a0 01        	ldy	#$1
    5b68: a6 16        	ldx	$16                     ; 0x2016 <f256main+0x16fa>
    5b6a: 86 d1        	stx	$d1                     ; 0x20d1 <f256main+0x17b5>
    5b6c: a5 17        	lda	$17                     ; 0x2017 <f256main+0x16fb>
    5b6e: 85 d2        	sta	$d2                     ; 0x20d2 <f256main+0x17b6>
    5b70: 86 a0        	stx	$a0                     ; 0x20a0 <f256main+0x1784>
    5b72: 85 9e        	sta	$9e                     ; 0x209e <f256main+0x1782>
    5b74: b2 12        	lda	($12)                   ; 0x2012 <f256main+0x16f6>
    5b76: a2 ff        	ldx	#$ff
    5b78: c9 2e        	cmp	#$2e
    5b7a: d0 39        	bne	$5bb5 <printf+0x270>
    5b7c: b1 12        	lda	($12),y                 ; 0x2012 <f256main+0x16f6>
    5b7e: c9 2a        	cmp	#$2a
    5b80: d0 38        	bne	$5bba <printf+0x275>
    5b82: a5 d7        	lda	$d7                     ; 0x20d7 <f256main+0x17bb>
    5b84: a6 d8        	ldx	$d8                     ; 0x20d8 <f256main+0x17bc>
    5b86: 85 14        	sta	$14                     ; 0x2014 <f256main+0x16f8>
    5b88: 86 15        	stx	$15                     ; 0x2015 <f256main+0x16f9>
    5b8a: 18           	clc
    5b8b: 69 02        	adc	#$2
    5b8d: 85 16        	sta	$16                     ; 0x2016 <f256main+0x16fa>
    5b8f: 8a           	txa
    5b90: 69 00        	adc	#$0
    5b92: a6 16        	ldx	$16                     ; 0x2016 <f256main+0x16fa>
    5b94: 86 d7        	stx	$d7                     ; 0x20d7 <f256main+0x17bb>
    5b96: 85 d8        	sta	$d8                     ; 0x20d8 <f256main+0x17bc>
    5b98: a5 12        	lda	$12                     ; 0x2012 <f256main+0x16f6>
    5b9a: 18           	clc
    5b9b: 69 02        	adc	#$2
    5b9d: 85 12        	sta	$12                     ; 0x2012 <f256main+0x16f6>
    5b9f: a5 13        	lda	$13                     ; 0x2013 <f256main+0x16f7>
    5ba1: 69 00        	adc	#$0
    5ba3: 85 13        	sta	$13                     ; 0x2013 <f256main+0x16f7>
    5ba5: b2 14        	lda	($14)                   ; 0x2014 <f256main+0x16f8>
    5ba7: aa           	tax
    5ba8: b1 14        	lda	($14),y                 ; 0x2014 <f256main+0x16f8>
    5baa: 86 18        	stx	$18                     ; 0x2018 <f256main+0x16fc>
    5bac: 86 d3        	stx	$d3                     ; 0x20d3 <f256main+0x17b7>
    5bae: 85 19        	sta	$19                     ; 0x2019 <f256main+0x16fd>
    5bb0: 85 d4        	sta	$d4                     ; 0x20d4 <f256main+0x17b8>
    5bb2: 4c 65 5c     	jmp	$5c65 <printf+0x320>
    5bb5: 86 18        	stx	$18                     ; 0x2018 <f256main+0x16fc>
    5bb7: 4c 75 5c     	jmp	$5c75 <printf+0x330>
    5bba: 85 17        	sta	$17                     ; 0x2017 <f256main+0x16fb>
    5bbc: 18           	clc
    5bbd: 69 d0        	adc	#$d0
    5bbf: c9 0a        	cmp	#$a
    5bc1: 90 03        	bcc	$5bc6 <printf+0x281>
    5bc3: 4c 57 5c     	jmp	$5c57 <printf+0x312>
    5bc6: 64 16        	stz	$16                     ; 0x2016 <f256main+0x16fa>
    5bc8: a2 01        	ldx	#$1
    5bca: 64 18        	stz	$18                     ; 0x2018 <f256main+0x16fc>
    5bcc: 64 19        	stz	$19                     ; 0x2019 <f256main+0x16fd>
    5bce: a0 01        	ldy	#$1
    5bd0: 64 1a        	stz	$1a                     ; 0x201a <f256main+0x16fe>
    5bd2: 5a           	phy
    5bd3: a4 1a        	ldy	$1a                     ; 0x201a <f256main+0x16fe>
    5bd5: 84 14        	sty	$14                     ; 0x2014 <f256main+0x16f8>
    5bd7: 86 15        	stx	$15                     ; 0x2015 <f256main+0x16f9>
    5bd9: 06 18        	asl	$18                     ; 0x2018 <f256main+0x16fc>
    5bdb: 26 19        	rol	$19                     ; 0x2019 <f256main+0x16fd>
    5bdd: a5 18        	lda	$18                     ; 0x2018 <f256main+0x16fc>
    5bdf: 0a           	asl
    5be0: 85 1d        	sta	$1d                     ; 0x201d <f256main+0x1701>
    5be2: a5 19        	lda	$19                     ; 0x2019 <f256main+0x16fd>
    5be4: 2a           	rol
    5be5: 06 1d        	asl	$1d                     ; 0x201d <f256main+0x1701>
    5be7: 2a           	rol
    5be8: 85 1e        	sta	$1e                     ; 0x201e <f256main+0x1702>
    5bea: a5 1d        	lda	$1d                     ; 0x201d <f256main+0x1701>
    5bec: 18           	clc
    5bed: 65 18        	adc	$18                     ; 0x2018 <f256main+0x16fc>
    5bef: 85 18        	sta	$18                     ; 0x2018 <f256main+0x16fc>
    5bf1: a5 1e        	lda	$1e                     ; 0x201e <f256main+0x1702>
    5bf3: 65 19        	adc	$19                     ; 0x2019 <f256main+0x16fd>
    5bf5: 85 19        	sta	$19                     ; 0x2019 <f256main+0x16fd>
    5bf7: a5 18        	lda	$18                     ; 0x2018 <f256main+0x16fc>
    5bf9: 18           	clc
    5bfa: 65 17        	adc	$17                     ; 0x2017 <f256main+0x16fb>
    5bfc: 85 17        	sta	$17                     ; 0x2017 <f256main+0x16fb>
    5bfe: a5 19        	lda	$19                     ; 0x2019 <f256main+0x16fd>
    5c00: 65 16        	adc	$16                     ; 0x2016 <f256main+0x16fa>
    5c02: 85 16        	sta	$16                     ; 0x2016 <f256main+0x16fa>
    5c04: 18           	clc
    5c05: a5 17        	lda	$17                     ; 0x2017 <f256main+0x16fb>
    5c07: 69 d0        	adc	#$d0
    5c09: 85 18        	sta	$18                     ; 0x2018 <f256main+0x16fc>
    5c0b: a5 16        	lda	$16                     ; 0x2016 <f256main+0x16fa>
    5c0d: 69 ff        	adc	#$ff
    5c0f: 85 19        	sta	$19                     ; 0x2019 <f256main+0x16fd>
    5c11: e8           	inx
    5c12: d0 02        	bne	$5c16 <printf+0x2d1>
    5c14: e6 1a        	inc	$1a                     ; 0x201a <f256main+0x16fe>
    5c16: a5 12        	lda	$12                     ; 0x2012 <f256main+0x16f6>
    5c18: 18           	clc
    5c19: 65 15        	adc	$15                     ; 0x2015 <f256main+0x16f9>
    5c1b: 85 1d        	sta	$1d                     ; 0x201d <f256main+0x1701>
    5c1d: a5 13        	lda	$13                     ; 0x2013 <f256main+0x16f7>
    5c1f: 65 14        	adc	$14                     ; 0x2014 <f256main+0x16f8>
    5c21: a4 1d        	ldy	$1d                     ; 0x201d <f256main+0x1701>
    5c23: 84 16        	sty	$16                     ; 0x2016 <f256main+0x16fa>
    5c25: 7a           	ply
    5c26: 85 17        	sta	$17                     ; 0x2017 <f256main+0x16fb>
    5c28: b1 16        	lda	($16),y                 ; 0x2016 <f256main+0x16fa>
    5c2a: 85 17        	sta	$17                     ; 0x2017 <f256main+0x16fb>
    5c2c: 18           	clc
    5c2d: 69 d0        	adc	#$d0
    5c2f: c9 0a        	cmp	#$a
    5c31: 64 16        	stz	$16                     ; 0x2016 <f256main+0x16fa>
    5c33: b0 03        	bcs	$5c38 <printf+0x2f3>
    5c35: 4c d2 5b     	jmp	$5bd2 <printf+0x28d>
    5c38: a5 12        	lda	$12                     ; 0x2012 <f256main+0x16f6>
    5c3a: 18           	clc
    5c3b: 65 15        	adc	$15                     ; 0x2015 <f256main+0x16f9>
    5c3d: 85 12        	sta	$12                     ; 0x2012 <f256main+0x16f6>
    5c3f: a5 13        	lda	$13                     ; 0x2013 <f256main+0x16f7>
    5c41: 65 14        	adc	$14                     ; 0x2014 <f256main+0x16f8>
    5c43: 85 13        	sta	$13                     ; 0x2013 <f256main+0x16f7>
    5c45: e6 12        	inc	$12                     ; 0x2012 <f256main+0x16f6>
    5c47: d0 02        	bne	$5c4b <printf+0x306>
    5c49: e6 13        	inc	$13                     ; 0x2013 <f256main+0x16f7>
    5c4b: a6 18        	ldx	$18                     ; 0x2018 <f256main+0x16fc>
    5c4d: 86 d3        	stx	$d3                     ; 0x20d3 <f256main+0x17b7>
    5c4f: a6 19        	ldx	$19                     ; 0x2019 <f256main+0x16fd>
    5c51: 86 d4        	stx	$d4                     ; 0x20d4 <f256main+0x17b8>
    5c53: a0 01        	ldy	#$1
    5c55: 80 0e        	bra	$5c65 <printf+0x320>
    5c57: e6 12        	inc	$12                     ; 0x2012 <f256main+0x16f6>
    5c59: d0 02        	bne	$5c5d <printf+0x318>
    5c5b: e6 13        	inc	$13                     ; 0x2013 <f256main+0x16f7>
    5c5d: 64 18        	stz	$18                     ; 0x2018 <f256main+0x16fc>
    5c5f: 64 d3        	stz	$d3                     ; 0x20d3 <f256main+0x17b7>
    5c61: 64 d4        	stz	$d4                     ; 0x20d4 <f256main+0x17b8>
    5c63: 64 19        	stz	$19                     ; 0x2019 <f256main+0x16fd>
    5c65: a5 97        	lda	$97                     ; 0x2097 <f256main+0x177b>
    5c67: 29 ef        	and	#$ef
    5c69: 85 97        	sta	$97                     ; 0x2097 <f256main+0x177b>
    5c6b: 85 c7        	sta	$c7                     ; 0x20c7 <f256main+0x17ab>
    5c6d: a2 00        	ldx	#$0
    5c6f: 86 c8        	stx	$c8                     ; 0x20c8 <f256main+0x17ac>
    5c71: b2 12        	lda	($12)                   ; 0x2012 <f256main+0x16f6>
    5c73: a6 19        	ldx	$19                     ; 0x2019 <f256main+0x16fd>
    5c75: 86 15        	stx	$15                     ; 0x2015 <f256main+0x16f9>
    5c77: a6 12        	ldx	$12                     ; 0x2012 <f256main+0x16f6>
    5c79: 86 98        	stx	$98                     ; 0x2098 <f256main+0x177c>
    5c7b: a6 13        	ldx	$13                     ; 0x2013 <f256main+0x16f7>
    5c7d: 86 99        	stx	$99                     ; 0x2099 <f256main+0x177d>
    5c7f: e6 98        	inc	$98                     ; 0x2098 <f256main+0x177c>
    5c81: d0 02        	bne	$5c85 <printf+0x340>
    5c83: e6 99        	inc	$99                     ; 0x2099 <f256main+0x177d>
    5c85: 85 14        	sta	$14                     ; 0x2014 <f256main+0x16f8>
    5c87: 38           	sec
    5c88: e9 6c        	sbc	#$6c
    5c8a: 50 02        	bvc	$5c8e <printf+0x349>
    5c8c: 49 80        	eor	#$80
    5c8e: aa           	tax
    5c8f: 10 1d        	bpl	$5cae <printf+0x369>
    5c91: a5 14        	lda	$14                     ; 0x2014 <f256main+0x16f8>
    5c93: c9 4c        	cmp	#$4c
    5c95: f0 27        	beq	$5cbe <printf+0x379>
    5c97: c9 68        	cmp	#$68
    5c99: d0 03        	bne	$5c9e <printf+0x359>
    5c9b: 4c 25 5d     	jmp	$5d25 <printf+0x3e0>
    5c9e: a2 08        	ldx	#$8
    5ca0: c9 6a        	cmp	#$6a
    5ca2: d0 2e        	bne	$5cd2 <printf+0x38d>
    5ca4: a5 98        	lda	$98                     ; 0x2098 <f256main+0x177c>
    5ca6: 85 12        	sta	$12                     ; 0x2012 <f256main+0x16f6>
    5ca8: a5 99        	lda	$99                     ; 0x2099 <f256main+0x177d>
    5caa: 85 13        	sta	$13                     ; 0x2013 <f256main+0x16f7>
    5cac: 80 43        	bra	$5cf1 <printf+0x3ac>
    5cae: a6 14        	ldx	$14                     ; 0x2014 <f256main+0x16f8>
    5cb0: e0 6c        	cpx	#$6c
    5cb2: f0 23        	beq	$5cd7 <printf+0x392>
    5cb4: e0 74        	cpx	#$74
    5cb6: f0 12        	beq	$5cca <printf+0x385>
    5cb8: e0 7a        	cpx	#$7a
    5cba: f0 0e        	beq	$5cca <printf+0x385>
    5cbc: 80 14        	bra	$5cd2 <printf+0x38d>
    5cbe: a5 97        	lda	$97                     ; 0x2097 <f256main+0x177b>
    5cc0: 09 40        	ora	#$40
    5cc2: 85 97        	sta	$97                     ; 0x2097 <f256main+0x177b>
    5cc4: 85 c7        	sta	$c7                     ; 0x20c7 <f256main+0x17ab>
    5cc6: a2 00        	ldx	#$0
    5cc8: 86 c8        	stx	$c8                     ; 0x20c8 <f256main+0x17ac>
    5cca: a6 98        	ldx	$98                     ; 0x2098 <f256main+0x177c>
    5ccc: 86 12        	stx	$12                     ; 0x2012 <f256main+0x16f6>
    5cce: a6 99        	ldx	$99                     ; 0x2099 <f256main+0x177d>
    5cd0: 86 13        	stx	$13                     ; 0x2013 <f256main+0x16f7>
    5cd2: a2 02        	ldx	#$2
    5cd4: 8a           	txa
    5cd5: 80 1c        	bra	$5cf3 <printf+0x3ae>
    5cd7: b1 12        	lda	($12),y                 ; 0x2012 <f256main+0x16f6>
    5cd9: a2 04        	ldx	#$4
    5cdb: c9 6c        	cmp	#$6c
    5cdd: f0 03        	beq	$5ce2 <printf+0x39d>
    5cdf: 4c 34 60     	jmp	$6034 <printf+0x6ef>
    5ce2: a5 12        	lda	$12                     ; 0x2012 <f256main+0x16f6>
    5ce4: 18           	clc
    5ce5: 69 02        	adc	#$2
    5ce7: 85 12        	sta	$12                     ; 0x2012 <f256main+0x16f6>
    5ce9: a5 13        	lda	$13                     ; 0x2013 <f256main+0x16f7>
    5ceb: 69 00        	adc	#$0
    5ced: 85 13        	sta	$13                     ; 0x2013 <f256main+0x16f7>
    5cef: a2 08        	ldx	#$8
    5cf1: a9 08        	lda	#$8
    5cf3: 85 dc        	sta	$dc                     ; 0x20dc <f256main+0x17c0>
    5cf5: b2 12        	lda	($12)                   ; 0x2012 <f256main+0x16f6>
    5cf7: 5a           	phy
    5cf8: a4 12        	ldy	$12                     ; 0x2012 <f256main+0x16f6>
    5cfa: 84 98        	sty	$98                     ; 0x2098 <f256main+0x177c>
    5cfc: a4 13        	ldy	$13                     ; 0x2013 <f256main+0x16f7>
    5cfe: 84 99        	sty	$99                     ; 0x2099 <f256main+0x177d>
    5d00: 7a           	ply
    5d01: 86 9a        	stx	$9a                     ; 0x209a <f256main+0x177e>
    5d03: aa           	tax
    5d04: 18           	clc
    5d05: 69 9d        	adc	#$9d
    5d07: c9 16        	cmp	#$16
    5d09: b0 39        	bcs	$5d44 <printf+0x3ff>
    5d0b: 0a           	asl
    5d0c: aa           	tax
    5d0d: 7c 49 7e     	jmp	($7e49,x)               ; 0x7e49 <__set_v+0x37>
    5d10: a6 15        	ldx	$15                     ; 0x2015 <f256main+0x16f9>
    5d12: 86 df        	stx	$df                     ; 0x20df <f256main+0x17c3>
    5d14: a6 18        	ldx	$18                     ; 0x2018 <f256main+0x16fc>
    5d16: 86 e0        	stx	$e0                     ; 0x20e0 <f256main+0x17c4>
    5d18: a0 0a        	ldy	#$a
    5d1a: a2 0a        	ldx	#$a
    5d1c: 86 db        	stx	$db                     ; 0x20db <f256main+0x17bf>
    5d1e: 84 c6        	sty	$c6                     ; 0x20c6 <f256main+0x17aa>
    5d20: 64 a1        	stz	$a1                     ; 0x20a1 <f256main+0x1785>
    5d22: 4c 44 5e     	jmp	$5e44 <printf+0x4ff>
    5d25: b1 12        	lda	($12),y                 ; 0x2012 <f256main+0x16f6>
    5d27: a2 02        	ldx	#$2
    5d29: c9 68        	cmp	#$68
    5d2b: f0 03        	beq	$5d30 <printf+0x3eb>
    5d2d: 4c 3a 60     	jmp	$603a <printf+0x6f5>
    5d30: a5 12        	lda	$12                     ; 0x2012 <f256main+0x16f6>
    5d32: 18           	clc
    5d33: 69 02        	adc	#$2
    5d35: 85 12        	sta	$12                     ; 0x2012 <f256main+0x16f6>
    5d37: a5 13        	lda	$13                     ; 0x2013 <f256main+0x16f7>
    5d39: 69 00        	adc	#$0
    5d3b: 85 13        	sta	$13                     ; 0x2013 <f256main+0x16f7>
    5d3d: a2 01        	ldx	#$1
    5d3f: 86 dc        	stx	$dc                     ; 0x20dc <f256main+0x17c0>
    5d41: e8           	inx
    5d42: 80 b1        	bra	$5cf5 <printf+0x3b0>
    5d44: e0 58        	cpx	#$58
    5d46: f0 03        	beq	$5d4b <printf+0x406>
    5d48: 4c 2c 65     	jmp	$652c <printf+0xbe7>
    5d4b: a6 15        	ldx	$15                     ; 0x2015 <f256main+0x16f9>
    5d4d: 86 df        	stx	$df                     ; 0x20df <f256main+0x17c3>
    5d4f: a6 18        	ldx	$18                     ; 0x2018 <f256main+0x16fc>
    5d51: 86 e0        	stx	$e0                     ; 0x20e0 <f256main+0x17c4>
    5d53: a2 10        	ldx	#$10
    5d55: 86 c6        	stx	$c6                     ; 0x20c6 <f256main+0x17aa>
    5d57: a9 00        	lda	#$0
    5d59: 09 01        	ora	#$1
    5d5b: a6 97        	ldx	$97                     ; 0x2097 <f256main+0x177b>
    5d5d: 80 29        	bra	$5d88 <printf+0x443>
    5d5f: a6 15        	ldx	$15                     ; 0x2015 <f256main+0x16f9>
    5d61: 86 df        	stx	$df                     ; 0x20df <f256main+0x17c3>
    5d63: a6 18        	ldx	$18                     ; 0x2018 <f256main+0x16fc>
    5d65: 86 e0        	stx	$e0                     ; 0x20e0 <f256main+0x17c4>
    5d67: a2 10        	ldx	#$10
    5d69: 86 c6        	stx	$c6                     ; 0x20c6 <f256main+0x17aa>
    5d6b: a5 97        	lda	$97                     ; 0x2097 <f256main+0x177b>
    5d6d: 09 84        	ora	#$84
    5d6f: 80 10        	bra	$5d81 <printf+0x43c>
    5d71: a6 15        	ldx	$15                     ; 0x2015 <f256main+0x16f9>
    5d73: 86 df        	stx	$df                     ; 0x20df <f256main+0x17c3>
    5d75: a6 18        	ldx	$18                     ; 0x2018 <f256main+0x16fc>
    5d77: 86 e0        	stx	$e0                     ; 0x20e0 <f256main+0x17c4>
    5d79: a2 10        	ldx	#$10
    5d7b: 86 c6        	stx	$c6                     ; 0x20c6 <f256main+0x17aa>
    5d7d: a5 97        	lda	$97                     ; 0x2097 <f256main+0x177b>
    5d7f: 09 80        	ora	#$80
    5d81: aa           	tax
    5d82: a9 00        	lda	#$0
    5d84: 09 01        	ora	#$1
    5d86: 86 97        	stx	$97                     ; 0x2097 <f256main+0x177b>
    5d88: 86 c7        	stx	$c7                     ; 0x20c7 <f256main+0x17ab>
    5d8a: 85 a1        	sta	$a1                     ; 0x20a1 <f256main+0x1785>
    5d8c: 85 c8        	sta	$c8                     ; 0x20c8 <f256main+0x17ac>
    5d8e: a2 10        	ldx	#$10
    5d90: 86 db        	stx	$db                     ; 0x20db <f256main+0x17bf>
    5d92: 4c 44 5e     	jmp	$5e44 <printf+0x4ff>
    5d95: a5 d7        	lda	$d7                     ; 0x20d7 <f256main+0x17bb>
    5d97: a6 d8        	ldx	$d8                     ; 0x20d8 <f256main+0x17bc>
    5d99: 85 12        	sta	$12                     ; 0x2012 <f256main+0x16f6>
    5d9b: 86 13        	stx	$13                     ; 0x2013 <f256main+0x16f7>
    5d9d: 18           	clc
    5d9e: 69 02        	adc	#$2
    5da0: 85 14        	sta	$14                     ; 0x2014 <f256main+0x16f8>
    5da2: 8a           	txa
    5da3: 69 00        	adc	#$0
    5da5: a6 14        	ldx	$14                     ; 0x2014 <f256main+0x16f8>
    5da7: 86 d7        	stx	$d7                     ; 0x20d7 <f256main+0x17bb>
    5da9: 85 d8        	sta	$d8                     ; 0x20d8 <f256main+0x17bc>
    5dab: b2 12        	lda	($12)                   ; 0x2012 <f256main+0x16f6>
    5dad: aa           	tax
    5dae: b1 12        	lda	($12),y                 ; 0x2012 <f256main+0x16f6>
    5db0: 86 12        	stx	$12                     ; 0x2012 <f256main+0x16f6>
    5db2: 85 13        	sta	$13                     ; 0x2013 <f256main+0x16f7>
    5db4: a5 cb        	lda	$cb                     ; 0x20cb <f256main+0x17af>
    5db6: a6 cc        	ldx	$cc                     ; 0x20cc <f256main+0x17b0>
    5db8: 92 12        	sta	($12)                   ; 0x2012 <f256main+0x16f6>
    5dba: 8a           	txa
    5dbb: 91 12        	sta	($12),y                 ; 0x2012 <f256main+0x16f6>
    5dbd: 4c 1d 5e     	jmp	$5e1d <printf+0x4d8>
    5dc0: a5 d7        	lda	$d7                     ; 0x20d7 <f256main+0x17bb>
    5dc2: a6 d8        	ldx	$d8                     ; 0x20d8 <f256main+0x17bc>
    5dc4: 85 12        	sta	$12                     ; 0x2012 <f256main+0x16f6>
    5dc6: 86 13        	stx	$13                     ; 0x2013 <f256main+0x16f7>
    5dc8: 18           	clc
    5dc9: 69 02        	adc	#$2
    5dcb: 85 14        	sta	$14                     ; 0x2014 <f256main+0x16f8>
    5dcd: 8a           	txa
    5dce: 69 00        	adc	#$0
    5dd0: a6 14        	ldx	$14                     ; 0x2014 <f256main+0x16f8>
    5dd2: 86 d7        	stx	$d7                     ; 0x20d7 <f256main+0x17bb>
    5dd4: 85 d8        	sta	$d8                     ; 0x20d8 <f256main+0x17bc>
    5dd6: b2 12        	lda	($12)                   ; 0x2012 <f256main+0x16f6>
    5dd8: aa           	tax
    5dd9: b1 12        	lda	($12),y                 ; 0x2012 <f256main+0x16f6>
    5ddb: 86 12        	stx	$12                     ; 0x2012 <f256main+0x16f6>
    5ddd: 85 13        	sta	$13                     ; 0x2013 <f256main+0x16f7>
    5ddf: 80 2f        	bra	$5e10 <printf+0x4cb>
    5de1: a6 15        	ldx	$15                     ; 0x2015 <f256main+0x16f9>
    5de3: 86 df        	stx	$df                     ; 0x20df <f256main+0x17c3>
    5de5: a6 18        	ldx	$18                     ; 0x2018 <f256main+0x16fc>
    5de7: 86 e0        	stx	$e0                     ; 0x20e0 <f256main+0x17c4>
    5de9: a0 08        	ldy	#$8
    5deb: a2 08        	ldx	#$8
    5ded: 80 45        	bra	$5e34 <printf+0x4ef>
    5def: a5 d7        	lda	$d7                     ; 0x20d7 <f256main+0x17bb>
    5df1: a6 d8        	ldx	$d8                     ; 0x20d8 <f256main+0x17bc>
    5df3: 85 12        	sta	$12                     ; 0x2012 <f256main+0x16f6>
    5df5: 86 13        	stx	$13                     ; 0x2013 <f256main+0x16f7>
    5df7: 18           	clc
    5df8: 69 02        	adc	#$2
    5dfa: a8           	tay
    5dfb: 8a           	txa
    5dfc: 69 00        	adc	#$0
    5dfe: 84 d7        	sty	$d7                     ; 0x20d7 <f256main+0x17bb>
    5e00: 85 d8        	sta	$d8                     ; 0x20d8 <f256main+0x17bc>
    5e02: b2 12        	lda	($12)                   ; 0x2012 <f256main+0x16f6>
    5e04: 85 b9        	sta	$b9                     ; 0x20b9 <f256main+0x179d>
    5e06: 64 ba        	stz	$ba                     ; 0x20ba <f256main+0x179e>
    5e08: a2 b9        	ldx	#$b9
    5e0a: 86 12        	stx	$12                     ; 0x2012 <f256main+0x16f6>
    5e0c: a2 00        	ldx	#$0
    5e0e: 86 13        	stx	$13                     ; 0x2013 <f256main+0x16f7>
    5e10: a2 c6        	ldx	#$c6
    5e12: 86 14        	stx	$14                     ; 0x2014 <f256main+0x16f8>
    5e14: a2 00        	ldx	#$0
    5e16: 86 15        	stx	$15                     ; 0x2015 <f256main+0x16f9>
    5e18: 20 39 58     	jsr	$5839 <_ZN12_GLOBAL__N_112print_stringEPKcP6Status>
    5e1b: a0 01        	ldy	#$1
    5e1d: a2 00        	ldx	#$0
    5e1f: 86 9a        	stx	$9a                     ; 0x209a <f256main+0x177e>
    5e21: a2 00        	ldx	#$0
    5e23: 86 9b        	stx	$9b                     ; 0x209b <f256main+0x177f>
    5e25: 4c 14 65     	jmp	$6514 <printf+0xbcf>
    5e28: a6 15        	ldx	$15                     ; 0x2015 <f256main+0x16f9>
    5e2a: 86 df        	stx	$df                     ; 0x20df <f256main+0x17c3>
    5e2c: a6 18        	ldx	$18                     ; 0x2018 <f256main+0x16fc>
    5e2e: 86 e0        	stx	$e0                     ; 0x20e0 <f256main+0x17c4>
    5e30: a0 0a        	ldy	#$a
    5e32: a2 0a        	ldx	#$a
    5e34: 86 db        	stx	$db                     ; 0x20db <f256main+0x17bf>
    5e36: 84 c6        	sty	$c6                     ; 0x20c6 <f256main+0x17aa>
    5e38: a9 00        	lda	#$0
    5e3a: 09 01        	ora	#$1
    5e3c: a6 97        	ldx	$97                     ; 0x2097 <f256main+0x177b>
    5e3e: 86 c7        	stx	$c7                     ; 0x20c7 <f256main+0x17ab>
    5e40: 85 a1        	sta	$a1                     ; 0x20a1 <f256main+0x1785>
    5e42: 85 c8        	sta	$c8                     ; 0x20c8 <f256main+0x17ac>
    5e44: a5 dc        	lda	$dc                     ; 0x20dc <f256main+0x17c0>
    5e46: 85 bb        	sta	$bb                     ; 0x20bb <f256main+0x179f>
    5e48: a4 d7        	ldy	$d7                     ; 0x20d7 <f256main+0x17bb>
    5e4a: a6 d8        	ldx	$d8                     ; 0x20d8 <f256main+0x17bc>
    5e4c: 86 9f        	stx	$9f                     ; 0x209f <f256main+0x1783>
    5e4e: 84 14        	sty	$14                     ; 0x2014 <f256main+0x16f8>
    5e50: 84 96        	sty	$96                     ; 0x2096 <f256main+0x177a>
    5e52: 86 15        	stx	$15                     ; 0x2015 <f256main+0x16f9>
    5e54: a6 dd        	ldx	$dd                     ; 0x20dd <f256main+0x17c1>
    5e56: 86 12        	stx	$12                     ; 0x2012 <f256main+0x16f6>
    5e58: a6 de        	ldx	$de                     ; 0x20de <f256main+0x17c2>
    5e5a: 86 13        	stx	$13                     ; 0x2013 <f256main+0x16f7>
    5e5c: a2 00        	ldx	#$0
    5e5e: 85 9b        	sta	$9b                     ; 0x209b <f256main+0x177f>
    5e60: 20 d6 68     	jsr	$68d6 <memcpy>
    5e63: 18           	clc
    5e64: a5 96        	lda	$96                     ; 0x2096 <f256main+0x177a>
    5e66: 65 9a        	adc	$9a                     ; 0x209a <f256main+0x177e>
    5e68: aa           	tax
    5e69: a5 9f        	lda	$9f                     ; 0x209f <f256main+0x1783>
    5e6b: 69 00        	adc	#$0
    5e6d: 86 d7        	stx	$d7                     ; 0x20d7 <f256main+0x17bb>
    5e6f: 85 d8        	sta	$d8                     ; 0x20d8 <f256main+0x17bc>
    5e71: a5 a1        	lda	$a1                     ; 0x20a1 <f256main+0x1785>
    5e73: 29 01        	and	#$1
    5e75: b8           	clv
    5e76: f0 03        	beq	$5e7b <printf+0x536>
    5e78: 4c cf 5e     	jmp	$5ecf <printf+0x58a>
    5e7b: a6 9b        	ldx	$9b                     ; 0x209b <f256main+0x177f>
    5e7d: b5 bb        	lda	$bb,x                   ; 0x20bb <f256main+0x179f>
    5e7f: aa           	tax
    5e80: a0 01        	ldy	#$1
    5e82: a5 9e        	lda	$9e                     ; 0x209e <f256main+0x1782>
    5e84: 85 1a        	sta	$1a                     ; 0x201a <f256main+0x16fe>
    5e86: a5 e0        	lda	$e0                     ; 0x20e0 <f256main+0x17c4>
    5e88: 85 9e        	sta	$9e                     ; 0x209e <f256main+0x1782>
    5e8a: a9 00        	lda	#$0
    5e8c: 85 9a        	sta	$9a                     ; 0x209a <f256main+0x177e>
    5e8e: a9 00        	lda	#$0
    5e90: 85 9b        	sta	$9b                     ; 0x209b <f256main+0x177f>
    5e92: a5 df        	lda	$df                     ; 0x20df <f256main+0x17c3>
    5e94: 85 9f        	sta	$9f                     ; 0x209f <f256main+0x1783>
    5e96: 8a           	txa
    5e97: 10 4c        	bpl	$5ee5 <printf+0x5a0>
    5e99: a2 00        	ldx	#$0
    5e9b: 64 12        	stz	$12                     ; 0x2012 <f256main+0x16f6>
    5e9d: a9 00        	lda	#$0
    5e9f: 38           	sec
    5ea0: f5 bc        	sbc	$bc,x                   ; 0x20bc <f256main+0x17a0>
    5ea2: a0 00        	ldy	#$0
    5ea4: b0 02        	bcs	$5ea8 <printf+0x563>
    5ea6: a0 01        	ldy	#$1
    5ea8: 38           	sec
    5ea9: e5 12        	sbc	$12                     ; 0x2012 <f256main+0x16f6>
    5eab: 85 13        	sta	$13                     ; 0x2013 <f256main+0x16f7>
    5ead: 64 12        	stz	$12                     ; 0x2012 <f256main+0x16f6>
    5eaf: b0 04        	bcs	$5eb5 <printf+0x570>
    5eb1: a9 01        	lda	#$1
    5eb3: 85 12        	sta	$12                     ; 0x2012 <f256main+0x16f6>
    5eb5: 98           	tya
    5eb6: 05 12        	ora	$12                     ; 0x2012 <f256main+0x16f6>
    5eb8: 85 12        	sta	$12                     ; 0x2012 <f256main+0x16f6>
    5eba: a5 13        	lda	$13                     ; 0x2013 <f256main+0x16f7>
    5ebc: 9d bc 00     	sta	$bc,x                   ; 0xbc <__zp_bss_size+0x66>
    5ebf: e8           	inx
    5ec0: 86 13        	stx	$13                     ; 0x2013 <f256main+0x16f7>
    5ec2: a4 dc        	ldy	$dc                     ; 0x20dc <f256main+0x17c0>
    5ec4: c4 13        	cpy	$13                     ; 0x2013 <f256main+0x16f7>
    5ec6: d0 d5        	bne	$5e9d <printf+0x558>
    5ec8: 2c 12 7e     	bit	$7e12                   ; 0x7e12 <__set_v>
    5ecb: a0 01        	ldy	#$1
    5ecd: 80 16        	bra	$5ee5 <printf+0x5a0>
    5ecf: a0 01        	ldy	#$1
    5ed1: a6 9e        	ldx	$9e                     ; 0x209e <f256main+0x1782>
    5ed3: 86 1a        	stx	$1a                     ; 0x201a <f256main+0x16fe>
    5ed5: a6 e0        	ldx	$e0                     ; 0x20e0 <f256main+0x17c4>
    5ed7: 86 9e        	stx	$9e                     ; 0x209e <f256main+0x1782>
    5ed9: a2 00        	ldx	#$0
    5edb: 86 9a        	stx	$9a                     ; 0x209a <f256main+0x177e>
    5edd: a2 00        	ldx	#$0
    5edf: 86 9b        	stx	$9b                     ; 0x209b <f256main+0x177f>
    5ee1: a6 df        	ldx	$df                     ; 0x20df <f256main+0x17c3>
    5ee3: 86 9f        	stx	$9f                     ; 0x209f <f256main+0x1783>
    5ee5: a2 01        	ldx	#$1
    5ee7: 70 02        	bvs	$5eeb <printf+0x5a6>
    5ee9: a2 00        	ldx	#$0
    5eeb: 86 16        	stx	$16                     ; 0x2016 <f256main+0x16fa>
    5eed: a5 dc        	lda	$dc                     ; 0x20dc <f256main+0x17c0>
    5eef: 0a           	asl
    5ef0: 0a           	asl
    5ef1: 0a           	asl
    5ef2: 85 12        	sta	$12                     ; 0x2012 <f256main+0x16f6>
    5ef4: a2 00        	ldx	#$0
    5ef6: 8a           	txa
    5ef7: e0 00        	cpx	#$0
    5ef9: d0 03        	bne	$5efe <printf+0x5b9>
    5efb: 4c 83 5f     	jmp	$5f83 <printf+0x63e>
    5efe: 85 17        	sta	$17                     ; 0x2017 <f256main+0x16fb>
    5f00: 86 96        	stx	$96                     ; 0x2096 <f256main+0x177a>
    5f02: ca           	dex
    5f03: 86 15        	stx	$15                     ; 0x2015 <f256main+0x16f9>
    5f05: a2 00        	ldx	#$0
    5f07: 64 13        	stz	$13                     ; 0x2013 <f256main+0x16f7>
    5f09: 80 0d        	bra	$5f18 <printf+0x5d3>
    5f0b: a4 13        	ldy	$13                     ; 0x2013 <f256main+0x16f7>
    5f0d: 99 a4 00     	sta	$a4,y                   ; 0xa4 <__zp_bss_size+0x4e>
    5f10: a4 15        	ldy	$15                     ; 0x2015 <f256main+0x16f9>
    5f12: c4 13        	cpy	$13                     ; 0x2013 <f256main+0x16f7>
    5f14: f0 38        	beq	$5f4e <printf+0x609>
    5f16: e6 13        	inc	$13                     ; 0x2013 <f256main+0x16f7>
    5f18: a4 13        	ldy	$13                     ; 0x2013 <f256main+0x16f7>
    5f1a: b9 a4 00     	lda	$a4,y                   ; 0xa4 <__zp_bss_size+0x4e>
    5f1d: 0a           	asl
    5f1e: e0 00        	cpx	#$0
    5f20: f0 02        	beq	$5f24 <printf+0x5df>
    5f22: 09 01        	ora	#$1
    5f24: a4 db        	ldy	$db                     ; 0x20db <f256main+0x17bf>
    5f26: 84 14        	sty	$14                     ; 0x2014 <f256main+0x16f8>
    5f28: c5 14        	cmp	$14                     ; 0x2014 <f256main+0x16f8>
    5f2a: a2 01        	ldx	#$1
    5f2c: b0 02        	bcs	$5f30 <printf+0x5eb>
    5f2e: a2 00        	ldx	#$0
    5f30: 90 d9        	bcc	$5f0b <printf+0x5c6>
    5f32: 84 14        	sty	$14                     ; 0x2014 <f256main+0x16f8>
    5f34: 38           	sec
    5f35: e5 14        	sbc	$14                     ; 0x2014 <f256main+0x16f8>
    5f37: a4 13        	ldy	$13                     ; 0x2013 <f256main+0x16f7>
    5f39: 99 a4 00     	sta	$a4,y                   ; 0xa4 <__zp_bss_size+0x4e>
    5f3c: a4 15        	ldy	$15                     ; 0x2015 <f256main+0x16f9>
    5f3e: c4 13        	cpy	$13                     ; 0x2013 <f256main+0x16f7>
    5f40: d0 d4        	bne	$5f16 <printf+0x5d1>
    5f42: a4 96        	ldy	$96                     ; 0x2096 <f256main+0x177a>
    5f44: a6 96        	ldx	$96                     ; 0x2096 <f256main+0x177a>
    5f46: e8           	inx
    5f47: a9 01        	lda	#$1
    5f49: 99 a4 00     	sta	$a4,y                   ; 0xa4 <__zp_bss_size+0x4e>
    5f4c: 86 96        	stx	$96                     ; 0x2096 <f256main+0x177a>
    5f4e: a6 dc        	ldx	$dc                     ; 0x20dc <f256main+0x17c0>
    5f50: b5 bb        	lda	$bb,x                   ; 0x20bb <f256main+0x179f>
    5f52: aa           	tax
    5f53: a0 01        	ldy	#$1
    5f55: 8a           	txa
    5f56: 10 47        	bpl	$5f9f <printf+0x65a>
    5f58: a5 96        	lda	$96                     ; 0x2096 <f256main+0x177a>
    5f5a: f0 34        	beq	$5f90 <printf+0x64b>
    5f5c: a2 00        	ldx	#$0
    5f5e: a4 db        	ldy	$db                     ; 0x20db <f256main+0x17bf>
    5f60: 84 14        	sty	$14                     ; 0x2014 <f256main+0x16f8>
    5f62: b5 a4        	lda	$a4,x                   ; 0x20a4 <f256main+0x1788>
    5f64: 1a           	inc
    5f65: f6 a4        	inc	$a4,x                   ; 0x20a4 <f256main+0x1788>
    5f67: c5 14        	cmp	$14                     ; 0x2014 <f256main+0x16f8>
    5f69: b0 03        	bcs	$5f6e <printf+0x629>
    5f6b: 4c ca 5f     	jmp	$5fca <printf+0x685>
    5f6e: a4 14        	ldy	$14                     ; 0x2014 <f256main+0x16f8>
    5f70: 84 13        	sty	$13                     ; 0x2013 <f256main+0x16f7>
    5f72: 38           	sec
    5f73: e5 13        	sbc	$13                     ; 0x2013 <f256main+0x16f7>
    5f75: 9d a4 00     	sta	$a4,x                   ; 0xa4 <__zp_bss_size+0x4e>
    5f78: e8           	inx
    5f79: 86 13        	stx	$13                     ; 0x2013 <f256main+0x16f7>
    5f7b: a4 96        	ldy	$96                     ; 0x2096 <f256main+0x177a>
    5f7d: c4 13        	cpy	$13                     ; 0x2013 <f256main+0x16f7>
    5f7f: d0 e1        	bne	$5f62 <printf+0x61d>
    5f81: 80 0f        	bra	$5f92 <printf+0x64d>
    5f83: 85 17        	sta	$17                     ; 0x2017 <f256main+0x16fb>
    5f85: a6 dc        	ldx	$dc                     ; 0x20dc <f256main+0x17c0>
    5f87: b5 bb        	lda	$bb,x                   ; 0x20bb <f256main+0x179f>
    5f89: aa           	tax
    5f8a: 64 96        	stz	$96                     ; 0x2096 <f256main+0x177a>
    5f8c: 30 04        	bmi	$5f92 <printf+0x64d>
    5f8e: 80 0f        	bra	$5f9f <printf+0x65a>
    5f90: 64 96        	stz	$96                     ; 0x2096 <f256main+0x177a>
    5f92: a4 96        	ldy	$96                     ; 0x2096 <f256main+0x177a>
    5f94: a6 96        	ldx	$96                     ; 0x2096 <f256main+0x177a>
    5f96: e8           	inx
    5f97: a9 01        	lda	#$1
    5f99: 99 a4 00     	sta	$a4,y                   ; 0xa4 <__zp_bss_size+0x4e>
    5f9c: a8           	tay
    5f9d: 86 96        	stx	$96                     ; 0x2096 <f256main+0x177a>
    5f9f: a2 01        	ldx	#$1
    5fa1: 64 13        	stz	$13                     ; 0x2013 <f256main+0x16f7>
    5fa3: a5 dc        	lda	$dc                     ; 0x20dc <f256main+0x17c0>
    5fa5: 85 14        	sta	$14                     ; 0x2014 <f256main+0x16f8>
    5fa7: b5 bb        	lda	$bb,x                   ; 0x20bb <f256main+0x179f>
    5fa9: 0a           	asl
    5faa: 64 15        	stz	$15                     ; 0x2015 <f256main+0x16f9>
    5fac: 26 15        	rol	$15                     ; 0x2015 <f256main+0x16f9>
    5fae: 05 13        	ora	$13                     ; 0x2013 <f256main+0x16f7>
    5fb0: 9d bb 00     	sta	$bb,x                   ; 0xbb <__zp_bss_size+0x65>
    5fb3: e8           	inx
    5fb4: c6 14        	dec	$14                     ; 0x2014 <f256main+0x16f8>
    5fb6: a5 15        	lda	$15                     ; 0x2015 <f256main+0x16f9>
    5fb8: 85 13        	sta	$13                     ; 0x2013 <f256main+0x16f7>
    5fba: a5 14        	lda	$14                     ; 0x2014 <f256main+0x16f8>
    5fbc: d0 e9        	bne	$5fa7 <printf+0x662>
    5fbe: a5 17        	lda	$17                     ; 0x2017 <f256main+0x16fb>
    5fc0: 1a           	inc
    5fc1: c5 12        	cmp	$12                     ; 0x2012 <f256main+0x16f6>
    5fc3: a6 96        	ldx	$96                     ; 0x2096 <f256main+0x177a>
    5fc5: b0 07        	bcs	$5fce <printf+0x689>
    5fc7: 4c f7 5e     	jmp	$5ef7 <printf+0x5b2>
    5fca: a0 01        	ldy	#$1
    5fcc: 80 d1        	bra	$5f9f <printf+0x65a>
    5fce: a5 97        	lda	$97                     ; 0x2097 <f256main+0x177b>
    5fd0: e6 9f        	inc	$9f                     ; 0x209f <f256main+0x1783>
    5fd2: c6 9f        	dec	$9f                     ; 0x209f <f256main+0x1783>
    5fd4: 10 08        	bpl	$5fde <printf+0x699>
    5fd6: a2 01        	ldx	#$1
    5fd8: 64 9f        	stz	$9f                     ; 0x209f <f256main+0x1783>
    5fda: 86 9e        	stx	$9e                     ; 0x209e <f256main+0x1782>
    5fdc: a6 96        	ldx	$96                     ; 0x2096 <f256main+0x177a>
    5fde: 29 04        	and	#$4
    5fe0: f0 2b        	beq	$600d <printf+0x6c8>
    5fe2: a5 db        	lda	$db                     ; 0x20db <f256main+0x17bf>
    5fe4: c9 10        	cmp	#$10
    5fe6: f0 14        	beq	$5ffc <printf+0x6b7>
    5fe8: c9 08        	cmp	#$8
    5fea: d0 21        	bne	$600d <printf+0x6c8>
    5fec: a2 00        	ldx	#$0
    5fee: e4 9f        	cpx	$9f                     ; 0x209f <f256main+0x1783>
    5ff0: f0 03        	beq	$5ff5 <printf+0x6b0>
    5ff2: 4c 39 65     	jmp	$6539 <printf+0xbf4>
    5ff5: a6 96        	ldx	$96                     ; 0x2096 <f256main+0x177a>
    5ff7: e4 9e        	cpx	$9e                     ; 0x209e <f256main+0x1782>
    5ff9: 4c 3b 65     	jmp	$653b <printf+0xbf6>
    5ffc: 8a           	txa
    5ffd: f0 0e        	beq	$600d <printf+0x6c8>
    5fff: a5 97        	lda	$97                     ; 0x2097 <f256main+0x177b>
    6001: 29 80        	and	#$80
    6003: d0 03        	bne	$6008 <printf+0x6c3>
    6005: 4c 54 65     	jmp	$6554 <printf+0xc0f>
    6008: a2 78        	ldx	#$78
    600a: 4c 56 65     	jmp	$6556 <printf+0xc11>
    600d: a6 97        	ldx	$97                     ; 0x2097 <f256main+0x177b>
    600f: a9 2d        	lda	#$2d
    6011: 85 df        	sta	$df                     ; 0x20df <f256main+0x17c3>
    6013: a5 16        	lda	$16                     ; 0x2016 <f256main+0x16fa>
    6015: d0 32        	bne	$6049 <printf+0x704>
    6017: 86 12        	stx	$12                     ; 0x2012 <f256main+0x16f6>
    6019: 8a           	txa
    601a: 29 02        	and	#$2
    601c: a2 2b        	ldx	#$2b
    601e: 86 df        	stx	$df                     ; 0x20df <f256main+0x17c3>
    6020: aa           	tax
    6021: d0 26        	bne	$6049 <printf+0x704>
    6023: a5 12        	lda	$12                     ; 0x2012 <f256main+0x16f6>
    6025: 29 08        	and	#$8
    6027: d0 1c        	bne	$6045 <printf+0x700>
    6029: a2 01        	ldx	#$1
    602b: 86 dc        	stx	$dc                     ; 0x20dc <f256main+0x17c0>
    602d: a9 00        	lda	#$0
    602f: aa           	tax
    6030: 86 db        	stx	$db                     ; 0x20db <f256main+0x17bf>
    6032: 80 1c        	bra	$6050 <printf+0x70b>
    6034: 85 12        	sta	$12                     ; 0x2012 <f256main+0x16f6>
    6036: a9 04        	lda	#$4
    6038: 80 04        	bra	$603e <printf+0x6f9>
    603a: 85 12        	sta	$12                     ; 0x2012 <f256main+0x16f6>
    603c: a9 02        	lda	#$2
    603e: 85 dc        	sta	$dc                     ; 0x20dc <f256main+0x17c0>
    6040: a5 12        	lda	$12                     ; 0x2012 <f256main+0x16f6>
    6042: 4c 01 5d     	jmp	$5d01 <printf+0x3bc>
    6045: a2 20        	ldx	#$20
    6047: 86 df        	stx	$df                     ; 0x20df <f256main+0x17c3>
    6049: a2 00        	ldx	#$0
    604b: 86 dc        	stx	$dc                     ; 0x20dc <f256main+0x17c0>
    604d: 86 db        	stx	$db                     ; 0x20db <f256main+0x17bf>
    604f: 98           	tya
    6050: a6 9f        	ldx	$9f                     ; 0x209f <f256main+0x1783>
    6052: d0 35        	bne	$6089 <printf+0x744>
    6054: a6 9e        	ldx	$9e                     ; 0x209e <f256main+0x1782>
    6056: a4 96        	ldy	$96                     ; 0x2096 <f256main+0x177a>
    6058: 84 12        	sty	$12                     ; 0x2012 <f256main+0x16f6>
    605a: e4 12        	cpx	$12                     ; 0x2012 <f256main+0x16f6>
    605c: a6 9e        	ldx	$9e                     ; 0x209e <f256main+0x1782>
    605e: 86 12        	stx	$12                     ; 0x2012 <f256main+0x16f6>
    6060: a6 9f        	ldx	$9f                     ; 0x209f <f256main+0x1783>
    6062: 86 13        	stx	$13                     ; 0x2013 <f256main+0x16f7>
    6064: b0 04        	bcs	$606a <printf+0x725>
    6066: 84 12        	sty	$12                     ; 0x2012 <f256main+0x16f6>
    6068: 64 13        	stz	$13                     ; 0x2013 <f256main+0x16f7>
    606a: 85 18        	sta	$18                     ; 0x2018 <f256main+0x16fc>
    606c: 18           	clc
    606d: 65 12        	adc	$12                     ; 0x2012 <f256main+0x16f6>
    606f: 85 16        	sta	$16                     ; 0x2016 <f256main+0x16fa>
    6071: 85 14        	sta	$14                     ; 0x2014 <f256main+0x16f8>
    6073: a5 13        	lda	$13                     ; 0x2013 <f256main+0x16f7>
    6075: 69 00        	adc	#$0
    6077: 85 15        	sta	$15                     ; 0x2015 <f256main+0x16f9>
    6079: c5 1a        	cmp	$1a                     ; 0x201a <f256main+0x16fe>
    607b: d0 1e        	bne	$609b <printf+0x756>
    607d: a6 1a        	ldx	$1a                     ; 0x201a <f256main+0x16fe>
    607f: 86 17        	stx	$17                     ; 0x2017 <f256main+0x16fb>
    6081: a6 a0        	ldx	$a0                     ; 0x20a0 <f256main+0x1784>
    6083: a5 16        	lda	$16                     ; 0x2016 <f256main+0x16fa>
    6085: c5 a0        	cmp	$a0                     ; 0x20a0 <f256main+0x1784>
    6087: 80 1c        	bra	$60a5 <printf+0x760>
    6089: a6 9f        	ldx	$9f                     ; 0x209f <f256main+0x1783>
    608b: e0 00        	cpx	#$0
    608d: a6 9e        	ldx	$9e                     ; 0x209e <f256main+0x1782>
    608f: 86 12        	stx	$12                     ; 0x2012 <f256main+0x16f6>
    6091: a6 9f        	ldx	$9f                     ; 0x209f <f256main+0x1783>
    6093: 86 13        	stx	$13                     ; 0x2013 <f256main+0x16f7>
    6095: a4 96        	ldy	$96                     ; 0x2096 <f256main+0x177a>
    6097: 90 cd        	bcc	$6066 <printf+0x721>
    6099: 80 cf        	bra	$606a <printf+0x725>
    609b: a6 a0        	ldx	$a0                     ; 0x20a0 <f256main+0x1784>
    609d: 5a           	phy
    609e: a4 1a        	ldy	$1a                     ; 0x201a <f256main+0x16fe>
    60a0: 84 17        	sty	$17                     ; 0x2017 <f256main+0x16fb>
    60a2: 7a           	ply
    60a3: c5 1a        	cmp	$1a                     ; 0x201a <f256main+0x16fe>
    60a5: 64 a1        	stz	$a1                     ; 0x20a1 <f256main+0x1785>
    60a7: 64 a0        	stz	$a0                     ; 0x20a0 <f256main+0x1784>
    60a9: 90 03        	bcc	$60ae <printf+0x769>
    60ab: 4c 4f 61     	jmp	$614f <printf+0x80a>
    60ae: a5 97        	lda	$97                     ; 0x2097 <f256main+0x177b>
    60b0: 29 11        	and	#$11
    60b2: 86 16        	stx	$16                     ; 0x2016 <f256main+0x16fa>
    60b4: f0 0f        	beq	$60c5 <printf+0x780>
    60b6: 8a           	txa
    60b7: 38           	sec
    60b8: e5 14        	sbc	$14                     ; 0x2014 <f256main+0x16f8>
    60ba: 85 a1        	sta	$a1                     ; 0x20a1 <f256main+0x1785>
    60bc: a5 1a        	lda	$1a                     ; 0x201a <f256main+0x16fe>
    60be: e5 15        	sbc	$15                     ; 0x2015 <f256main+0x16f9>
    60c0: 85 a0        	sta	$a0                     ; 0x20a0 <f256main+0x1784>
    60c2: 4c 4f 61     	jmp	$614f <printf+0x80a>
    60c5: a6 cb        	ldx	$cb                     ; 0x20cb <f256main+0x17af>
    60c7: 86 14        	stx	$14                     ; 0x2014 <f256main+0x16f8>
    60c9: 38           	sec
    60ca: a5 18        	lda	$18                     ; 0x2018 <f256main+0x16fc>
    60cc: e5 16        	sbc	$16                     ; 0x2016 <f256main+0x16fa>
    60ce: aa           	tax
    60cf: a9 00        	lda	#$0
    60d1: e5 17        	sbc	$17                     ; 0x2017 <f256main+0x16fb>
    60d3: a8           	tay
    60d4: 18           	clc
    60d5: 8a           	txa
    60d6: 65 12        	adc	$12                     ; 0x2012 <f256main+0x16f6>
    60d8: 85 97        	sta	$97                     ; 0x2097 <f256main+0x177b>
    60da: 98           	tya
    60db: 65 13        	adc	$13                     ; 0x2013 <f256main+0x16f7>
    60dd: a4 cc        	ldy	$cc                     ; 0x20cc <f256main+0x17b0>
    60df: 4c 33 61     	jmp	$6133 <printf+0x7ee>
    60e2: c4 ca        	cpy	$ca                     ; 0x20ca <f256main+0x17ae>
    60e4: b0 2f        	bcs	$6115 <printf+0x7d0>
    60e6: a6 d6        	ldx	$d6                     ; 0x20d6 <f256main+0x17ba>
    60e8: e4 9b        	cpx	$9b                     ; 0x209b <f256main+0x177f>
    60ea: d0 18        	bne	$6104 <printf+0x7bf>
    60ec: a6 d5        	ldx	$d5                     ; 0x20d5 <f256main+0x17b9>
    60ee: e4 9a        	cpx	$9a                     ; 0x209a <f256main+0x177e>
    60f0: d0 12        	bne	$6104 <printf+0x7bf>
    60f2: 18           	clc
    60f3: a5 14        	lda	$14                     ; 0x2014 <f256main+0x16f8>
    60f5: 65 cf        	adc	$cf                     ; 0x20cf <f256main+0x17b3>
    60f7: 85 12        	sta	$12                     ; 0x2012 <f256main+0x16f6>
    60f9: 98           	tya
    60fa: 65 d0        	adc	$d0                     ; 0x20d0 <f256main+0x17b4>
    60fc: 85 13        	sta	$13                     ; 0x2013 <f256main+0x16f7>
    60fe: a9 20        	lda	#$20
    6100: 92 12        	sta	($12)                   ; 0x2012 <f256main+0x16f6>
    6102: 80 0f        	bra	$6113 <printf+0x7ce>
    6104: a2 20        	ldx	#$20
    6106: 86 35        	stx	$35                     ; 0x2035 <f256main+0x1719>
    6108: a2 35        	ldx	#$35
    610a: 86 12        	stx	$12                     ; 0x2012 <f256main+0x16f6>
    610c: a2 00        	ldx	#$0
    610e: 86 13        	stx	$13                     ; 0x2013 <f256main+0x16f7>
    6110: 20 63 30     	jsr	$3063 <textPrint>
    6113: a5 a0        	lda	$a0                     ; 0x20a0 <f256main+0x1784>
    6115: a6 cb        	ldx	$cb                     ; 0x20cb <f256main+0x17af>
    6117: a4 cc        	ldy	$cc                     ; 0x20cc <f256main+0x17b0>
    6119: e8           	inx
    611a: d0 01        	bne	$611d <printf+0x7d8>
    611c: c8           	iny
    611d: 86 14        	stx	$14                     ; 0x2014 <f256main+0x16f8>
    611f: 86 cb        	stx	$cb                     ; 0x20cb <f256main+0x17af>
    6121: 84 cc        	sty	$cc                     ; 0x20cc <f256main+0x17b0>
    6123: a6 97        	ldx	$97                     ; 0x2097 <f256main+0x177b>
    6125: e8           	inx
    6126: d0 01        	bne	$6129 <printf+0x7e4>
    6128: 1a           	inc
    6129: 86 97        	stx	$97                     ; 0x2097 <f256main+0x177b>
    612b: c9 00        	cmp	#$0
    612d: d0 04        	bne	$6133 <printf+0x7ee>
    612f: e0 00        	cpx	#$0
    6131: f0 16        	beq	$6149 <printf+0x804>
    6133: 85 a0        	sta	$a0                     ; 0x20a0 <f256main+0x1784>
    6135: c4 ca        	cpy	$ca                     ; 0x20ca <f256main+0x17ae>
    6137: f0 03        	beq	$613c <printf+0x7f7>
    6139: 4c e2 60     	jmp	$60e2 <printf+0x79d>
    613c: a6 c9        	ldx	$c9                     ; 0x20c9 <f256main+0x17ad>
    613e: 86 12        	stx	$12                     ; 0x2012 <f256main+0x16f6>
    6140: a6 14        	ldx	$14                     ; 0x2014 <f256main+0x16f8>
    6142: e4 12        	cpx	$12                     ; 0x2012 <f256main+0x16f6>
    6144: b0 cf        	bcs	$6115 <printf+0x7d0>
    6146: 4c e6 60     	jmp	$60e6 <printf+0x7a1>
    6149: 64 a1        	stz	$a1                     ; 0x20a1 <f256main+0x1785>
    614b: 64 a0        	stz	$a0                     ; 0x20a0 <f256main+0x1784>
    614d: a4 96        	ldy	$96                     ; 0x2096 <f256main+0x177a>
    614f: a6 dc        	ldx	$dc                     ; 0x20dc <f256main+0x17c0>
    6151: f0 03        	beq	$6156 <printf+0x811>
    6153: 4c ad 61     	jmp	$61ad <printf+0x868>
    6156: a6 cb        	ldx	$cb                     ; 0x20cb <f256main+0x17af>
    6158: a5 cc        	lda	$cc                     ; 0x20cc <f256main+0x17b0>
    615a: c5 ca        	cmp	$ca                     ; 0x20ca <f256main+0x17ae>
    615c: d0 10        	bne	$616e <printf+0x829>
    615e: 86 13        	stx	$13                     ; 0x2013 <f256main+0x16f7>
    6160: a6 c9        	ldx	$c9                     ; 0x20c9 <f256main+0x17ad>
    6162: 86 12        	stx	$12                     ; 0x2012 <f256main+0x16f6>
    6164: a4 96        	ldy	$96                     ; 0x2096 <f256main+0x177a>
    6166: a6 13        	ldx	$13                     ; 0x2013 <f256main+0x16f7>
    6168: e4 12        	cpx	$12                     ; 0x2012 <f256main+0x16f6>
    616a: 90 08        	bcc	$6174 <printf+0x82f>
    616c: 80 39        	bra	$61a7 <printf+0x862>
    616e: 86 13        	stx	$13                     ; 0x2013 <f256main+0x16f7>
    6170: c5 ca        	cmp	$ca                     ; 0x20ca <f256main+0x17ae>
    6172: b0 33        	bcs	$61a7 <printf+0x862>
    6174: a6 d6        	ldx	$d6                     ; 0x20d6 <f256main+0x17ba>
    6176: e4 9b        	cpx	$9b                     ; 0x209b <f256main+0x177f>
    6178: d0 1c        	bne	$6196 <printf+0x851>
    617a: a6 d5        	ldx	$d5                     ; 0x20d5 <f256main+0x17b9>
    617c: e4 9a        	cpx	$9a                     ; 0x209a <f256main+0x177e>
    617e: d0 16        	bne	$6196 <printf+0x851>
    6180: 18           	clc
    6181: 85 12        	sta	$12                     ; 0x2012 <f256main+0x16f6>
    6183: a5 13        	lda	$13                     ; 0x2013 <f256main+0x16f7>
    6185: 65 cf        	adc	$cf                     ; 0x20cf <f256main+0x17b3>
    6187: aa           	tax
    6188: a5 12        	lda	$12                     ; 0x2012 <f256main+0x16f6>
    618a: 65 d0        	adc	$d0                     ; 0x20d0 <f256main+0x17b4>
    618c: 86 12        	stx	$12                     ; 0x2012 <f256main+0x16f6>
    618e: 85 13        	sta	$13                     ; 0x2013 <f256main+0x16f7>
    6190: a5 df        	lda	$df                     ; 0x20df <f256main+0x17c3>
    6192: 92 12        	sta	($12)                   ; 0x2012 <f256main+0x16f6>
    6194: 80 0f        	bra	$61a5 <printf+0x860>
    6196: a6 df        	ldx	$df                     ; 0x20df <f256main+0x17c3>
    6198: 86 35        	stx	$35                     ; 0x2035 <f256main+0x1719>
    619a: a2 35        	ldx	#$35
    619c: 86 12        	stx	$12                     ; 0x2012 <f256main+0x16f6>
    619e: a2 00        	ldx	#$0
    61a0: 86 13        	stx	$13                     ; 0x2013 <f256main+0x16f7>
    61a2: 20 63 30     	jsr	$3063 <textPrint>
    61a5: a4 96        	ldy	$96                     ; 0x2096 <f256main+0x177a>
    61a7: e6 cb        	inc	$cb                     ; 0x20cb <f256main+0x17af>
    61a9: d0 02        	bne	$61ad <printf+0x868>
    61ab: e6 cc        	inc	$cc                     ; 0x20cc <f256main+0x17b0>
    61ad: a6 db        	ldx	$db                     ; 0x20db <f256main+0x17bf>
    61af: d0 03        	bne	$61b4 <printf+0x86f>
    61b1: 4c 0b 62     	jmp	$620b <printf+0x8c6>
    61b4: a6 cb        	ldx	$cb                     ; 0x20cb <f256main+0x17af>
    61b6: a5 cc        	lda	$cc                     ; 0x20cc <f256main+0x17b0>
    61b8: c5 ca        	cmp	$ca                     ; 0x20ca <f256main+0x17ae>
    61ba: d0 10        	bne	$61cc <printf+0x887>
    61bc: 86 13        	stx	$13                     ; 0x2013 <f256main+0x16f7>
    61be: a6 c9        	ldx	$c9                     ; 0x20c9 <f256main+0x17ad>
    61c0: 86 12        	stx	$12                     ; 0x2012 <f256main+0x16f6>
    61c2: a4 96        	ldy	$96                     ; 0x2096 <f256main+0x177a>
    61c4: a6 13        	ldx	$13                     ; 0x2013 <f256main+0x16f7>
    61c6: e4 12        	cpx	$12                     ; 0x2012 <f256main+0x16f6>
    61c8: 90 08        	bcc	$61d2 <printf+0x88d>
    61ca: 80 39        	bra	$6205 <printf+0x8c0>
    61cc: 86 13        	stx	$13                     ; 0x2013 <f256main+0x16f7>
    61ce: c5 ca        	cmp	$ca                     ; 0x20ca <f256main+0x17ae>
    61d0: b0 33        	bcs	$6205 <printf+0x8c0>
    61d2: a6 d6        	ldx	$d6                     ; 0x20d6 <f256main+0x17ba>
    61d4: e4 9b        	cpx	$9b                     ; 0x209b <f256main+0x177f>
    61d6: d0 1c        	bne	$61f4 <printf+0x8af>
    61d8: a6 d5        	ldx	$d5                     ; 0x20d5 <f256main+0x17b9>
    61da: e4 9a        	cpx	$9a                     ; 0x209a <f256main+0x177e>
    61dc: d0 16        	bne	$61f4 <printf+0x8af>
    61de: 18           	clc
    61df: 85 12        	sta	$12                     ; 0x2012 <f256main+0x16f6>
    61e1: a5 13        	lda	$13                     ; 0x2013 <f256main+0x16f7>
    61e3: 65 cf        	adc	$cf                     ; 0x20cf <f256main+0x17b3>
    61e5: aa           	tax
    61e6: a5 12        	lda	$12                     ; 0x2012 <f256main+0x16f6>
    61e8: 65 d0        	adc	$d0                     ; 0x20d0 <f256main+0x17b4>
    61ea: 86 12        	stx	$12                     ; 0x2012 <f256main+0x16f6>
    61ec: 85 13        	sta	$13                     ; 0x2013 <f256main+0x16f7>
    61ee: a5 e0        	lda	$e0                     ; 0x20e0 <f256main+0x17c4>
    61f0: 92 12        	sta	($12)                   ; 0x2012 <f256main+0x16f6>
    61f2: 80 0f        	bra	$6203 <printf+0x8be>
    61f4: a6 e0        	ldx	$e0                     ; 0x20e0 <f256main+0x17c4>
    61f6: 86 35        	stx	$35                     ; 0x2035 <f256main+0x1719>
    61f8: a2 35        	ldx	#$35
    61fa: 86 12        	stx	$12                     ; 0x2012 <f256main+0x16f6>
    61fc: a2 00        	ldx	#$0
    61fe: 86 13        	stx	$13                     ; 0x2013 <f256main+0x16f7>
    6200: 20 63 30     	jsr	$3063 <textPrint>
    6203: a4 96        	ldy	$96                     ; 0x2096 <f256main+0x177a>
    6205: e6 cb        	inc	$cb                     ; 0x20cb <f256main+0x17af>
    6207: d0 02        	bne	$620b <printf+0x8c6>
    6209: e6 cc        	inc	$cc                     ; 0x20cc <f256main+0x17b0>
    620b: a9 10        	lda	#$10
    620d: 25 c7        	and	$c7                     ; 0x20c7 <f256main+0x17ab>
    620f: d0 03        	bne	$6214 <printf+0x8cf>
    6211: 4c a5 62     	jmp	$62a5 <printf+0x960>
    6214: a5 c7        	lda	$c7                     ; 0x20c7 <f256main+0x17ab>
    6216: 29 01        	and	#$1
    6218: f0 03        	beq	$621d <printf+0x8d8>
    621a: 4c a5 62     	jmp	$62a5 <printf+0x960>
    621d: a6 a1        	ldx	$a1                     ; 0x20a1 <f256main+0x1785>
    621f: a5 a0        	lda	$a0                     ; 0x20a0 <f256main+0x1784>
    6221: d0 06        	bne	$6229 <printf+0x8e4>
    6223: 8a           	txa
    6224: d0 03        	bne	$6229 <printf+0x8e4>
    6226: 4c 69 65     	jmp	$6569 <printf+0xc24>
    6229: a6 cb        	ldx	$cb                     ; 0x20cb <f256main+0x17af>
    622b: 86 13        	stx	$13                     ; 0x2013 <f256main+0x16f7>
    622d: a5 cc        	lda	$cc                     ; 0x20cc <f256main+0x17b0>
    622f: 4c 8b 62     	jmp	$628b <printf+0x946>
    6232: c5 ca        	cmp	$ca                     ; 0x20ca <f256main+0x17ae>
    6234: b0 2e        	bcs	$6264 <printf+0x91f>
    6236: a6 d6        	ldx	$d6                     ; 0x20d6 <f256main+0x17ba>
    6238: e4 9b        	cpx	$9b                     ; 0x209b <f256main+0x177f>
    623a: d0 19        	bne	$6255 <printf+0x910>
    623c: a6 d5        	ldx	$d5                     ; 0x20d5 <f256main+0x17b9>
    623e: e4 9a        	cpx	$9a                     ; 0x209a <f256main+0x177e>
    6240: d0 13        	bne	$6255 <printf+0x910>
    6242: 18           	clc
    6243: aa           	tax
    6244: a5 13        	lda	$13                     ; 0x2013 <f256main+0x16f7>
    6246: 65 cf        	adc	$cf                     ; 0x20cf <f256main+0x17b3>
    6248: 85 12        	sta	$12                     ; 0x2012 <f256main+0x16f6>
    624a: 8a           	txa
    624b: 65 d0        	adc	$d0                     ; 0x20d0 <f256main+0x17b4>
    624d: 85 13        	sta	$13                     ; 0x2013 <f256main+0x16f7>
    624f: a9 30        	lda	#$30
    6251: 92 12        	sta	($12)                   ; 0x2012 <f256main+0x16f6>
    6253: 80 0f        	bra	$6264 <printf+0x91f>
    6255: a2 30        	ldx	#$30
    6257: 86 35        	stx	$35                     ; 0x2035 <f256main+0x1719>
    6259: a2 35        	ldx	#$35
    625b: 86 12        	stx	$12                     ; 0x2012 <f256main+0x16f6>
    625d: a2 00        	ldx	#$0
    625f: 86 13        	stx	$13                     ; 0x2013 <f256main+0x16f7>
    6261: 20 63 30     	jsr	$3063 <textPrint>
    6264: a6 cb        	ldx	$cb                     ; 0x20cb <f256main+0x17af>
    6266: a5 cc        	lda	$cc                     ; 0x20cc <f256main+0x17b0>
    6268: e8           	inx
    6269: d0 01        	bne	$626c <printf+0x927>
    626b: 1a           	inc
    626c: 86 13        	stx	$13                     ; 0x2013 <f256main+0x16f7>
    626e: 86 cb        	stx	$cb                     ; 0x20cb <f256main+0x17af>
    6270: 85 cc        	sta	$cc                     ; 0x20cc <f256main+0x17b0>
    6272: a4 a1        	ldy	$a1                     ; 0x20a1 <f256main+0x1785>
    6274: a6 a0        	ldx	$a0                     ; 0x20a0 <f256main+0x1784>
    6276: 86 12        	stx	$12                     ; 0x2012 <f256main+0x16f6>
    6278: 88           	dey
    6279: c0 ff        	cpy	#$ff
    627b: d0 02        	bne	$627f <printf+0x93a>
    627d: c6 12        	dec	$12                     ; 0x2012 <f256main+0x16f6>
    627f: 84 a1        	sty	$a1                     ; 0x20a1 <f256main+0x1785>
    6281: a6 12        	ldx	$12                     ; 0x2012 <f256main+0x16f6>
    6283: 86 a0        	stx	$a0                     ; 0x20a0 <f256main+0x1784>
    6285: d0 04        	bne	$628b <printf+0x946>
    6287: c0 00        	cpy	#$0
    6289: f0 14        	beq	$629f <printf+0x95a>
    628b: c5 ca        	cmp	$ca                     ; 0x20ca <f256main+0x17ae>
    628d: f0 03        	beq	$6292 <printf+0x94d>
    628f: 4c 32 62     	jmp	$6232 <printf+0x8ed>
    6292: a6 c9        	ldx	$c9                     ; 0x20c9 <f256main+0x17ad>
    6294: 86 12        	stx	$12                     ; 0x2012 <f256main+0x16f6>
    6296: a6 13        	ldx	$13                     ; 0x2013 <f256main+0x16f7>
    6298: e4 12        	cpx	$12                     ; 0x2012 <f256main+0x16f6>
    629a: b0 c8        	bcs	$6264 <printf+0x91f>
    629c: 4c 36 62     	jmp	$6236 <printf+0x8f1>
    629f: 64 a1        	stz	$a1                     ; 0x20a1 <f256main+0x1785>
    62a1: 64 a0        	stz	$a0                     ; 0x20a0 <f256main+0x1784>
    62a3: a4 96        	ldy	$96                     ; 0x2096 <f256main+0x177a>
    62a5: a2 00        	ldx	#$0
    62a7: e4 9f        	cpx	$9f                     ; 0x209f <f256main+0x1783>
    62a9: d0 07        	bne	$62b2 <printf+0x96d>
    62ab: c4 9e        	cpy	$9e                     ; 0x209e <f256main+0x1782>
    62ad: 90 0a        	bcc	$62b9 <printf+0x974>
    62af: 4c 31 63     	jmp	$6331 <printf+0x9ec>
    62b2: e4 9f        	cpx	$9f                     ; 0x209f <f256main+0x1783>
    62b4: 90 03        	bcc	$62b9 <printf+0x974>
    62b6: 4c 31 63     	jmp	$6331 <printf+0x9ec>
    62b9: a6 cb        	ldx	$cb                     ; 0x20cb <f256main+0x17af>
    62bb: 86 13        	stx	$13                     ; 0x2013 <f256main+0x16f7>
    62bd: a5 cc        	lda	$cc                     ; 0x20cc <f256main+0x17b0>
    62bf: a2 ff        	ldx	#$ff
    62c1: c6 9e        	dec	$9e                     ; 0x209e <f256main+0x1782>
    62c3: e4 9e        	cpx	$9e                     ; 0x209e <f256main+0x1782>
    62c5: d0 02        	bne	$62c9 <printf+0x984>
    62c7: c6 9f        	dec	$9f                     ; 0x209f <f256main+0x1783>
    62c9: c5 ca        	cmp	$ca                     ; 0x20ca <f256main+0x17ae>
    62cb: d0 0c        	bne	$62d9 <printf+0x994>
    62cd: a6 c9        	ldx	$c9                     ; 0x20c9 <f256main+0x17ad>
    62cf: 86 12        	stx	$12                     ; 0x2012 <f256main+0x16f6>
    62d1: a6 13        	ldx	$13                     ; 0x2013 <f256main+0x16f7>
    62d3: e4 12        	cpx	$12                     ; 0x2012 <f256main+0x16f6>
    62d5: 90 06        	bcc	$62dd <printf+0x998>
    62d7: 80 32        	bra	$630b <printf+0x9c6>
    62d9: c5 ca        	cmp	$ca                     ; 0x20ca <f256main+0x17ae>
    62db: b0 2e        	bcs	$630b <printf+0x9c6>
    62dd: a6 d6        	ldx	$d6                     ; 0x20d6 <f256main+0x17ba>
    62df: e4 9b        	cpx	$9b                     ; 0x209b <f256main+0x177f>
    62e1: d0 19        	bne	$62fc <printf+0x9b7>
    62e3: a6 d5        	ldx	$d5                     ; 0x20d5 <f256main+0x17b9>
    62e5: e4 9a        	cpx	$9a                     ; 0x209a <f256main+0x177e>
    62e7: d0 13        	bne	$62fc <printf+0x9b7>
    62e9: 18           	clc
    62ea: aa           	tax
    62eb: a5 13        	lda	$13                     ; 0x2013 <f256main+0x16f7>
    62ed: 65 cf        	adc	$cf                     ; 0x20cf <f256main+0x17b3>
    62ef: 85 12        	sta	$12                     ; 0x2012 <f256main+0x16f6>
    62f1: 8a           	txa
    62f2: 65 d0        	adc	$d0                     ; 0x20d0 <f256main+0x17b4>
    62f4: 85 13        	sta	$13                     ; 0x2013 <f256main+0x16f7>
    62f6: a9 30        	lda	#$30
    62f8: 92 12        	sta	($12)                   ; 0x2012 <f256main+0x16f6>
    62fa: 80 0f        	bra	$630b <printf+0x9c6>
    62fc: a2 30        	ldx	#$30
    62fe: 86 35        	stx	$35                     ; 0x2035 <f256main+0x1719>
    6300: a2 35        	ldx	#$35
    6302: 86 12        	stx	$12                     ; 0x2012 <f256main+0x16f6>
    6304: a2 00        	ldx	#$0
    6306: 86 13        	stx	$13                     ; 0x2013 <f256main+0x16f7>
    6308: 20 63 30     	jsr	$3063 <textPrint>
    630b: a6 cb        	ldx	$cb                     ; 0x20cb <f256main+0x17af>
    630d: a5 cc        	lda	$cc                     ; 0x20cc <f256main+0x17b0>
    630f: e8           	inx
    6310: d0 01        	bne	$6313 <printf+0x9ce>
    6312: 1a           	inc
    6313: 86 13        	stx	$13                     ; 0x2013 <f256main+0x16f7>
    6315: 86 cb        	stx	$cb                     ; 0x20cb <f256main+0x17af>
    6317: 85 cc        	sta	$cc                     ; 0x20cc <f256main+0x17b0>
    6319: a2 00        	ldx	#$0
    631b: e4 9f        	cpx	$9f                     ; 0x209f <f256main+0x1783>
    631d: d0 09        	bne	$6328 <printf+0x9e3>
    631f: a4 96        	ldy	$96                     ; 0x2096 <f256main+0x177a>
    6321: c4 9e        	cpy	$9e                     ; 0x209e <f256main+0x1782>
    6323: b0 0c        	bcs	$6331 <printf+0x9ec>
    6325: 4c bf 62     	jmp	$62bf <printf+0x97a>
    6328: e4 9f        	cpx	$9f                     ; 0x209f <f256main+0x1783>
    632a: a4 96        	ldy	$96                     ; 0x2096 <f256main+0x177a>
    632c: b0 03        	bcs	$6331 <printf+0x9ec>
    632e: 4c bf 62     	jmp	$62bf <printf+0x97a>
    6331: 98           	tya
    6332: d0 03        	bne	$6337 <printf+0x9f2>
    6334: 4c 3a 64     	jmp	$643a <printf+0xaf5>
    6337: 88           	dey
    6338: d0 03        	bne	$633d <printf+0x9f8>
    633a: 4c cf 63     	jmp	$63cf <printf+0xa8a>
    633d: 84 9e        	sty	$9e                     ; 0x209e <f256main+0x1782>
    633f: a6 e1        	ldx	$e1                     ; 0x20e1 <f256main+0x17c5>
    6341: 8a           	txa
    6342: 18           	clc
    6343: 65 9e        	adc	$9e                     ; 0x209e <f256main+0x1782>
    6345: 85 96        	sta	$96                     ; 0x2096 <f256main+0x177a>
    6347: a5 e2        	lda	$e2                     ; 0x20e2 <f256main+0x17c6>
    6349: 69 00        	adc	#$0
    634b: 85 97        	sta	$97                     ; 0x2097 <f256main+0x177b>
    634d: 4c c1 63     	jmp	$63c1 <printf+0xa7c>
    6350: a8           	tay
    6351: a9 80        	lda	#$80
    6353: 25 c7        	and	$c7                     ; 0x20c7 <f256main+0x17ab>
    6355: f0 04        	beq	$635b <printf+0xa16>
    6357: a2 61        	ldx	#$61
    6359: 80 02        	bra	$635d <printf+0xa18>
    635b: a2 41        	ldx	#$41
    635d: 86 12        	stx	$12                     ; 0x2012 <f256main+0x16f6>
    635f: 18           	clc
    6360: 98           	tya
    6361: 65 12        	adc	$12                     ; 0x2012 <f256main+0x16f6>
    6363: 18           	clc
    6364: 69 f6        	adc	#$f6
    6366: a4 cb        	ldy	$cb                     ; 0x20cb <f256main+0x17af>
    6368: a6 cc        	ldx	$cc                     ; 0x20cc <f256main+0x17b0>
    636a: e4 ca        	cpx	$ca                     ; 0x20ca <f256main+0x17ae>
    636c: d0 0c        	bne	$637a <printf+0xa35>
    636e: 86 14        	stx	$14                     ; 0x2014 <f256main+0x16f8>
    6370: a6 c9        	ldx	$c9                     ; 0x20c9 <f256main+0x17ad>
    6372: 86 12        	stx	$12                     ; 0x2012 <f256main+0x16f6>
    6374: c4 12        	cpy	$12                     ; 0x2012 <f256main+0x16f6>
    6376: 90 08        	bcc	$6380 <printf+0xa3b>
    6378: 80 31        	bra	$63ab <printf+0xa66>
    637a: 86 14        	stx	$14                     ; 0x2014 <f256main+0x16f8>
    637c: e4 ca        	cpx	$ca                     ; 0x20ca <f256main+0x17ae>
    637e: b0 2b        	bcs	$63ab <printf+0xa66>
    6380: a6 d6        	ldx	$d6                     ; 0x20d6 <f256main+0x17ba>
    6382: e4 9b        	cpx	$9b                     ; 0x209b <f256main+0x177f>
    6384: d0 18        	bne	$639e <printf+0xa59>
    6386: a6 d5        	ldx	$d5                     ; 0x20d5 <f256main+0x17b9>
    6388: e4 9a        	cpx	$9a                     ; 0x209a <f256main+0x177e>
    638a: d0 12        	bne	$639e <printf+0xa59>
    638c: 18           	clc
    638d: aa           	tax
    638e: 98           	tya
    638f: 65 cf        	adc	$cf                     ; 0x20cf <f256main+0x17b3>
    6391: 85 12        	sta	$12                     ; 0x2012 <f256main+0x16f6>
    6393: a5 14        	lda	$14                     ; 0x2014 <f256main+0x16f8>
    6395: 65 d0        	adc	$d0                     ; 0x20d0 <f256main+0x17b4>
    6397: 85 13        	sta	$13                     ; 0x2013 <f256main+0x16f7>
    6399: 8a           	txa
    639a: 92 12        	sta	($12)                   ; 0x2012 <f256main+0x16f6>
    639c: 80 0d        	bra	$63ab <printf+0xa66>
    639e: 85 35        	sta	$35                     ; 0x2035 <f256main+0x1719>
    63a0: a2 35        	ldx	#$35
    63a2: 86 12        	stx	$12                     ; 0x2012 <f256main+0x16f6>
    63a4: a2 00        	ldx	#$0
    63a6: 86 13        	stx	$13                     ; 0x2013 <f256main+0x16f7>
    63a8: 20 63 30     	jsr	$3063 <textPrint>
    63ab: e6 cb        	inc	$cb                     ; 0x20cb <f256main+0x17af>
    63ad: d0 02        	bne	$63b1 <printf+0xa6c>
    63af: e6 cc        	inc	$cc                     ; 0x20cc <f256main+0x17b0>
    63b1: c6 9e        	dec	$9e                     ; 0x209e <f256main+0x1782>
    63b3: a2 ff        	ldx	#$ff
    63b5: c6 96        	dec	$96                     ; 0x2096 <f256main+0x177a>
    63b7: e4 96        	cpx	$96                     ; 0x2096 <f256main+0x177a>
    63b9: d0 02        	bne	$63bd <printf+0xa78>
    63bb: c6 97        	dec	$97                     ; 0x2097 <f256main+0x177b>
    63bd: a5 9e        	lda	$9e                     ; 0x209e <f256main+0x1782>
    63bf: f0 0e        	beq	$63cf <printf+0xa8a>
    63c1: b2 96        	lda	($96)                   ; 0x2096 <f256main+0x177a>
    63c3: c9 0a        	cmp	#$a
    63c5: 90 03        	bcc	$63ca <printf+0xa85>
    63c7: 4c 50 63     	jmp	$6350 <printf+0xa0b>
    63ca: 09 30        	ora	#$30
    63cc: 4c 66 63     	jmp	$6366 <printf+0xa21>
    63cf: a5 a4        	lda	$a4                     ; 0x20a4 <f256main+0x1788>
    63d1: c9 0a        	cmp	#$a
    63d3: b0 04        	bcs	$63d9 <printf+0xa94>
    63d5: 09 30        	ora	#$30
    63d7: 80 16        	bra	$63ef <printf+0xaaa>
    63d9: a8           	tay
    63da: a9 80        	lda	#$80
    63dc: 25 c7        	and	$c7                     ; 0x20c7 <f256main+0x17ab>
    63de: f0 04        	beq	$63e4 <printf+0xa9f>
    63e0: a2 61        	ldx	#$61
    63e2: 80 02        	bra	$63e6 <printf+0xaa1>
    63e4: a2 41        	ldx	#$41
    63e6: 86 12        	stx	$12                     ; 0x2012 <f256main+0x16f6>
    63e8: 18           	clc
    63e9: 98           	tya
    63ea: 65 12        	adc	$12                     ; 0x2012 <f256main+0x16f6>
    63ec: 18           	clc
    63ed: 69 f6        	adc	#$f6
    63ef: a4 cb        	ldy	$cb                     ; 0x20cb <f256main+0x17af>
    63f1: a6 cc        	ldx	$cc                     ; 0x20cc <f256main+0x17b0>
    63f3: e4 ca        	cpx	$ca                     ; 0x20ca <f256main+0x17ae>
    63f5: d0 0c        	bne	$6403 <printf+0xabe>
    63f7: 86 14        	stx	$14                     ; 0x2014 <f256main+0x16f8>
    63f9: a6 c9        	ldx	$c9                     ; 0x20c9 <f256main+0x17ad>
    63fb: 86 12        	stx	$12                     ; 0x2012 <f256main+0x16f6>
    63fd: c4 12        	cpy	$12                     ; 0x2012 <f256main+0x16f6>
    63ff: 90 08        	bcc	$6409 <printf+0xac4>
    6401: 80 31        	bra	$6434 <printf+0xaef>
    6403: 86 14        	stx	$14                     ; 0x2014 <f256main+0x16f8>
    6405: e4 ca        	cpx	$ca                     ; 0x20ca <f256main+0x17ae>
    6407: b0 2b        	bcs	$6434 <printf+0xaef>
    6409: a6 d6        	ldx	$d6                     ; 0x20d6 <f256main+0x17ba>
    640b: e4 9b        	cpx	$9b                     ; 0x209b <f256main+0x177f>
    640d: d0 18        	bne	$6427 <printf+0xae2>
    640f: a6 d5        	ldx	$d5                     ; 0x20d5 <f256main+0x17b9>
    6411: e4 9a        	cpx	$9a                     ; 0x209a <f256main+0x177e>
    6413: d0 12        	bne	$6427 <printf+0xae2>
    6415: 18           	clc
    6416: aa           	tax
    6417: 98           	tya
    6418: 65 cf        	adc	$cf                     ; 0x20cf <f256main+0x17b3>
    641a: 85 12        	sta	$12                     ; 0x2012 <f256main+0x16f6>
    641c: a5 14        	lda	$14                     ; 0x2014 <f256main+0x16f8>
    641e: 65 d0        	adc	$d0                     ; 0x20d0 <f256main+0x17b4>
    6420: 85 13        	sta	$13                     ; 0x2013 <f256main+0x16f7>
    6422: 8a           	txa
    6423: 92 12        	sta	($12)                   ; 0x2012 <f256main+0x16f6>
    6425: 80 0d        	bra	$6434 <printf+0xaef>
    6427: 85 35        	sta	$35                     ; 0x2035 <f256main+0x1719>
    6429: a2 35        	ldx	#$35
    642b: 86 12        	stx	$12                     ; 0x2012 <f256main+0x16f6>
    642d: a2 00        	ldx	#$0
    642f: 86 13        	stx	$13                     ; 0x2013 <f256main+0x16f7>
    6431: 20 63 30     	jsr	$3063 <textPrint>
    6434: e6 cb        	inc	$cb                     ; 0x20cb <f256main+0x17af>
    6436: d0 02        	bne	$643a <printf+0xaf5>
    6438: e6 cc        	inc	$cc                     ; 0x20cc <f256main+0x17b0>
    643a: a5 c7        	lda	$c7                     ; 0x20c7 <f256main+0x17ab>
    643c: 29 01        	and	#$1
    643e: d0 1e        	bne	$645e <printf+0xb19>
    6440: a6 cb        	ldx	$cb                     ; 0x20cb <f256main+0x17af>
    6442: 86 14        	stx	$14                     ; 0x2014 <f256main+0x16f8>
    6444: a5 cc        	lda	$cc                     ; 0x20cc <f256main+0x17b0>
    6446: a4 c9        	ldy	$c9                     ; 0x20c9 <f256main+0x17ad>
    6448: a6 ca        	ldx	$ca                     ; 0x20ca <f256main+0x17ae>
    644a: 86 12        	stx	$12                     ; 0x2012 <f256main+0x16f6>
    644c: 86 13        	stx	$13                     ; 0x2013 <f256main+0x16f7>
    644e: c5 12        	cmp	$12                     ; 0x2012 <f256main+0x16f6>
    6450: f0 03        	beq	$6455 <printf+0xb10>
    6452: 4c eb 64     	jmp	$64eb <printf+0xba6>
    6455: 84 12        	sty	$12                     ; 0x2012 <f256main+0x16f6>
    6457: a6 14        	ldx	$14                     ; 0x2014 <f256main+0x16f8>
    6459: e4 12        	cpx	$12                     ; 0x2012 <f256main+0x16f6>
    645b: 4c ef 64     	jmp	$64ef <printf+0xbaa>
    645e: a6 cb        	ldx	$cb                     ; 0x20cb <f256main+0x17af>
    6460: 86 14        	stx	$14                     ; 0x2014 <f256main+0x16f8>
    6462: a5 cc        	lda	$cc                     ; 0x20cc <f256main+0x17b0>
    6464: a6 a1        	ldx	$a1                     ; 0x20a1 <f256main+0x1785>
    6466: a4 a0        	ldy	$a0                     ; 0x20a0 <f256main+0x1784>
    6468: f0 03        	beq	$646d <printf+0xb28>
    646a: 4c d7 64     	jmp	$64d7 <printf+0xb92>
    646d: e0 00        	cpx	#$0
    646f: f0 d5        	beq	$6446 <printf+0xb01>
    6471: 4c d7 64     	jmp	$64d7 <printf+0xb92>
    6474: c5 ca        	cmp	$ca                     ; 0x20ca <f256main+0x17ae>
    6476: b0 2e        	bcs	$64a6 <printf+0xb61>
    6478: a6 d6        	ldx	$d6                     ; 0x20d6 <f256main+0x17ba>
    647a: e4 9b        	cpx	$9b                     ; 0x209b <f256main+0x177f>
    647c: d0 19        	bne	$6497 <printf+0xb52>
    647e: a6 d5        	ldx	$d5                     ; 0x20d5 <f256main+0x17b9>
    6480: e4 9a        	cpx	$9a                     ; 0x209a <f256main+0x177e>
    6482: d0 13        	bne	$6497 <printf+0xb52>
    6484: 18           	clc
    6485: aa           	tax
    6486: a5 14        	lda	$14                     ; 0x2014 <f256main+0x16f8>
    6488: 65 cf        	adc	$cf                     ; 0x20cf <f256main+0x17b3>
    648a: 85 12        	sta	$12                     ; 0x2012 <f256main+0x16f6>
    648c: 8a           	txa
    648d: 65 d0        	adc	$d0                     ; 0x20d0 <f256main+0x17b4>
    648f: 85 13        	sta	$13                     ; 0x2013 <f256main+0x16f7>
    6491: a9 20        	lda	#$20
    6493: 92 12        	sta	($12)                   ; 0x2012 <f256main+0x16f6>
    6495: 80 0f        	bra	$64a6 <printf+0xb61>
    6497: a2 20        	ldx	#$20
    6499: 86 35        	stx	$35                     ; 0x2035 <f256main+0x1719>
    649b: a2 35        	ldx	#$35
    649d: 86 12        	stx	$12                     ; 0x2012 <f256main+0x16f6>
    649f: a2 00        	ldx	#$0
    64a1: 86 13        	stx	$13                     ; 0x2013 <f256main+0x16f7>
    64a3: 20 63 30     	jsr	$3063 <textPrint>
    64a6: a6 cb        	ldx	$cb                     ; 0x20cb <f256main+0x17af>
    64a8: a5 cc        	lda	$cc                     ; 0x20cc <f256main+0x17b0>
    64aa: e8           	inx
    64ab: d0 01        	bne	$64ae <printf+0xb69>
    64ad: 1a           	inc
    64ae: 86 14        	stx	$14                     ; 0x2014 <f256main+0x16f8>
    64b0: 86 cb        	stx	$cb                     ; 0x20cb <f256main+0x17af>
    64b2: 85 cc        	sta	$cc                     ; 0x20cc <f256main+0x17b0>
    64b4: a6 a1        	ldx	$a1                     ; 0x20a1 <f256main+0x1785>
    64b6: 86 12        	stx	$12                     ; 0x2012 <f256main+0x16f6>
    64b8: a6 a0        	ldx	$a0                     ; 0x20a0 <f256main+0x1784>
    64ba: 86 13        	stx	$13                     ; 0x2013 <f256main+0x16f7>
    64bc: a2 ff        	ldx	#$ff
    64be: c6 12        	dec	$12                     ; 0x2012 <f256main+0x16f6>
    64c0: e4 12        	cpx	$12                     ; 0x2012 <f256main+0x16f6>
    64c2: d0 02        	bne	$64c6 <printf+0xb81>
    64c4: c6 13        	dec	$13                     ; 0x2013 <f256main+0x16f7>
    64c6: a6 12        	ldx	$12                     ; 0x2012 <f256main+0x16f6>
    64c8: 86 a1        	stx	$a1                     ; 0x20a1 <f256main+0x1785>
    64ca: a6 13        	ldx	$13                     ; 0x2013 <f256main+0x16f7>
    64cc: 86 a0        	stx	$a0                     ; 0x20a0 <f256main+0x1784>
    64ce: d0 07        	bne	$64d7 <printf+0xb92>
    64d0: a6 12        	ldx	$12                     ; 0x2012 <f256main+0x16f6>
    64d2: d0 03        	bne	$64d7 <printf+0xb92>
    64d4: 4c 46 64     	jmp	$6446 <printf+0xb01>
    64d7: c5 ca        	cmp	$ca                     ; 0x20ca <f256main+0x17ae>
    64d9: f0 03        	beq	$64de <printf+0xb99>
    64db: 4c 74 64     	jmp	$6474 <printf+0xb2f>
    64de: a6 c9        	ldx	$c9                     ; 0x20c9 <f256main+0x17ad>
    64e0: 86 12        	stx	$12                     ; 0x2012 <f256main+0x16f6>
    64e2: a6 14        	ldx	$14                     ; 0x2014 <f256main+0x16f8>
    64e4: e4 12        	cpx	$12                     ; 0x2012 <f256main+0x16f6>
    64e6: b0 be        	bcs	$64a6 <printf+0xb61>
    64e8: 4c 78 64     	jmp	$6478 <printf+0xb33>
    64eb: 86 12        	stx	$12                     ; 0x2012 <f256main+0x16f6>
    64ed: c5 12        	cmp	$12                     ; 0x2012 <f256main+0x16f6>
    64ef: 98           	tya
    64f0: a0 01        	ldy	#$1
    64f2: 90 20        	bcc	$6514 <printf+0xbcf>
    64f4: a6 13        	ldx	$13                     ; 0x2013 <f256main+0x16f7>
    64f6: d0 03        	bne	$64fb <printf+0xbb6>
    64f8: aa           	tax
    64f9: f0 19        	beq	$6514 <printf+0xbcf>
    64fb: 18           	clc
    64fc: 65 cf        	adc	$cf                     ; 0x20cf <f256main+0x17b3>
    64fe: 85 12        	sta	$12                     ; 0x2012 <f256main+0x16f6>
    6500: a5 13        	lda	$13                     ; 0x2013 <f256main+0x16f7>
    6502: 65 d0        	adc	$d0                     ; 0x20d0 <f256main+0x17b4>
    6504: 85 13        	sta	$13                     ; 0x2013 <f256main+0x16f7>
    6506: a2 ff        	ldx	#$ff
    6508: c6 12        	dec	$12                     ; 0x2012 <f256main+0x16f6>
    650a: e4 12        	cpx	$12                     ; 0x2012 <f256main+0x16f6>
    650c: d0 02        	bne	$6510 <printf+0xbcb>
    650e: c6 13        	dec	$13                     ; 0x2013 <f256main+0x16f7>
    6510: a9 00        	lda	#$0
    6512: 92 12        	sta	($12)                   ; 0x2012 <f256main+0x16f6>
    6514: e6 98        	inc	$98                     ; 0x2098 <f256main+0x177c>
    6516: d0 02        	bne	$651a <printf+0xbd5>
    6518: e6 99        	inc	$99                     ; 0x2099 <f256main+0x177d>
    651a: a6 99        	ldx	$99                     ; 0x2099 <f256main+0x177d>
    651c: e4 9d        	cpx	$9d                     ; 0x209d <f256main+0x1781>
    651e: f0 03        	beq	$6523 <printf+0xbde>
    6520: 4c aa 59     	jmp	$59aa <printf+0x65>
    6523: a6 98        	ldx	$98                     ; 0x2098 <f256main+0x177c>
    6525: e4 9c        	cpx	$9c                     ; 0x209c <f256main+0x1780>
    6527: f0 03        	beq	$652c <printf+0xbe7>
    6529: 4c aa 59     	jmp	$59aa <printf+0x65>
    652c: b2 9c        	lda	($9c)                   ; 0x209c <f256main+0x1780>
    652e: a2 00        	ldx	#$0
    6530: 86 9a        	stx	$9a                     ; 0x209a <f256main+0x177e>
    6532: a2 00        	ldx	#$0
    6534: 86 9b        	stx	$9b                     ; 0x209b <f256main+0x177f>
    6536: 4c be 59     	jmp	$59be <printf+0x79>
    6539: e4 9f        	cpx	$9f                     ; 0x209f <f256main+0x1783>
    653b: a6 97        	ldx	$97                     ; 0x2097 <f256main+0x177b>
    653d: b0 03        	bcs	$6542 <printf+0xbfd>
    653f: 4c 0f 60     	jmp	$600f <printf+0x6ca>
    6542: a5 96        	lda	$96                     ; 0x2096 <f256main+0x177a>
    6544: 85 9e        	sta	$9e                     ; 0x209e <f256main+0x1782>
    6546: 64 9f        	stz	$9f                     ; 0x209f <f256main+0x1783>
    6548: e6 9e        	inc	$9e                     ; 0x209e <f256main+0x1782>
    654a: f0 03        	beq	$654f <printf+0xc0a>
    654c: 4c 0f 60     	jmp	$600f <printf+0x6ca>
    654f: e6 9f        	inc	$9f                     ; 0x209f <f256main+0x1783>
    6551: 4c 0f 60     	jmp	$600f <printf+0x6ca>
    6554: a2 58        	ldx	#$58
    6556: 86 e0        	stx	$e0                     ; 0x20e0 <f256main+0x17c4>
    6558: a2 01        	ldx	#$1
    655a: 86 db        	stx	$db                     ; 0x20db <f256main+0x17bf>
    655c: a2 30        	ldx	#$30
    655e: 86 df        	stx	$df                     ; 0x20df <f256main+0x17c3>
    6560: a9 02        	lda	#$2
    6562: a2 00        	ldx	#$0
    6564: 86 dc        	stx	$dc                     ; 0x20dc <f256main+0x17c0>
    6566: 4c 50 60     	jmp	$6050 <printf+0x70b>
    6569: 64 a1        	stz	$a1                     ; 0x20a1 <f256main+0x1785>
    656b: 64 a0        	stz	$a0                     ; 0x20a0 <f256main+0x1784>
    656d: 4c a5 62     	jmp	$62a5 <printf+0x960>
    6570: 60           	rts

00006571 <malloc>:
    6571: a8           	tay
    6572: 8a           	txa
    6573: a2 00        	ldx	#$0
    6575: 86 12        	stx	$12                     ; 0x2012 <f256main+0x16f6>
    6577: a2 00        	ldx	#$0
    6579: 86 13        	stx	$13                     ; 0x2013 <f256main+0x16f7>
    657b: aa           	tax
    657c: d0 07        	bne	$6585 <malloc+0x14>
    657e: c0 00        	cpy	#$0
    6580: d0 03        	bne	$6585 <malloc+0x14>
    6582: 4c 75 66     	jmp	$6675 <malloc+0x104>
    6585: 84 16        	sty	$16                     ; 0x2016 <f256main+0x16fa>
    6587: aa           	tax
    6588: d0 0e        	bne	$6598 <malloc+0x27>
    658a: a6 16        	ldx	$16                     ; 0x2016 <f256main+0x16fa>
    658c: e0 07        	cpx	#$7
    658e: b0 0c        	bcs	$659c <malloc+0x2b>
    6590: a2 08        	ldx	#$8
    6592: 86 90        	stx	$90                     ; 0x2090 <f256main+0x1774>
    6594: a9 00        	lda	#$0
    6596: 80 2f        	bra	$65c7 <malloc+0x56>
    6598: c9 00        	cmp	#$0
    659a: 90 f4        	bcc	$6590 <malloc+0x1f>
    659c: a8           	tay
    659d: a5 16        	lda	$16                     ; 0x2016 <f256main+0x16fa>
    659f: 29 01        	and	#$1
    65a1: a2 02        	ldx	#$2
    65a3: 64 14        	stz	$14                     ; 0x2014 <f256main+0x16f8>
    65a5: c9 00        	cmp	#$0
    65a7: f0 02        	beq	$65ab <malloc+0x3a>
    65a9: a2 03        	ldx	#$3
    65ab: 86 15        	stx	$15                     ; 0x2015 <f256main+0x16f9>
    65ad: 18           	clc
    65ae: a5 16        	lda	$16                     ; 0x2016 <f256main+0x16fa>
    65b0: 65 15        	adc	$15                     ; 0x2015 <f256main+0x16f9>
    65b2: aa           	tax
    65b3: 98           	tya
    65b4: 65 14        	adc	$14                     ; 0x2014 <f256main+0x16f8>
    65b6: 90 03        	bcc	$65bb <malloc+0x4a>
    65b8: 4c 75 66     	jmp	$6675 <malloc+0x104>
    65bb: 86 90        	stx	$90                     ; 0x2090 <f256main+0x1774>
    65bd: a8           	tay
    65be: d0 07        	bne	$65c7 <malloc+0x56>
    65c0: e0 00        	cpx	#$0
    65c2: d0 03        	bne	$65c7 <malloc+0x56>
    65c4: 4c 75 66     	jmp	$6675 <malloc+0x104>
    65c7: 85 8f        	sta	$8f                     ; 0x208f <f256main+0x1773>
    65c9: a5 88        	lda	$88                     ; 0x2088 <f256main+0x176c>
    65cb: 29 01        	and	#$1
    65cd: d0 2c        	bne	$65fb <malloc+0x8a>
    65cf: a9 00        	lda	#$0
    65d1: a2 10        	ldx	#$10
    65d3: a0 06        	ldy	#$6
    65d5: 84 12        	sty	$12                     ; 0x2012 <f256main+0x16f6>
    65d7: a0 93        	ldy	#$93
    65d9: 84 13        	sty	$13                     ; 0x2013 <f256main+0x16f7>
    65db: 20 1c 03     	jsr	$31c <_ZN12_GLOBAL__N_19FreeChunk6insertEPvj>
    65de: a2 00        	ldx	#$0
    65e0: 86 12        	stx	$12                     ; 0x2012 <f256main+0x16f6>
    65e2: a2 00        	ldx	#$0
    65e4: 86 13        	stx	$13                     ; 0x2013 <f256main+0x16f7>
    65e6: ae 07 93     	ldx	$9307                   ; 0x9307 <__heap_start+0x1>
    65e9: a9 fe        	lda	#$fe
    65eb: 2d 06 93     	and	$9306                   ; 0x9306 <__heap_start>
    65ee: 8d 06 93     	sta	$9306                   ; 0x9306 <__heap_start>
    65f1: 8e 07 93     	stx	$9307                   ; 0x9307 <__heap_start+0x1>
    65f4: a2 01        	ldx	#$1
    65f6: 8e 00 93     	stx	$9300                   ; 0x9300 <_ZN12_GLOBAL__N_19last_freeE>
    65f9: 86 88        	stx	$88                     ; 0x2088 <f256main+0x176c>
    65fb: ae 03 93     	ldx	$9303                   ; 0x9303 <_ZN12_GLOBAL__N_19free_listE>
    65fe: 86 16        	stx	$16                     ; 0x2016 <f256main+0x16fa>
    6600: ac 04 93     	ldy	$9304                   ; 0x9304 <_ZN12_GLOBAL__N_19free_listE+0x1>
    6603: 84 17        	sty	$17                     ; 0x2017 <f256main+0x16fb>
    6605: a9 00        	lda	#$0
    6607: 85 14        	sta	$14                     ; 0x2014 <f256main+0x16f8>
    6609: a9 00        	lda	#$0
    660b: 85 15        	sta	$15                     ; 0x2015 <f256main+0x16f9>
    660d: c4 15        	cpy	$15                     ; 0x2015 <f256main+0x16f9>
    660f: d0 07        	bne	$6618 <malloc+0xa7>
    6611: e4 14        	cpx	$14                     ; 0x2014 <f256main+0x16f8>
    6613: d0 03        	bne	$6618 <malloc+0xa7>
    6615: 4c 75 66     	jmp	$6675 <malloc+0x104>
    6618: a2 00        	ldx	#$0
    661a: a0 10        	ldy	#$10
    661c: 86 14        	stx	$14                     ; 0x2014 <f256main+0x16f8>
    661e: 84 15        	sty	$15                     ; 0x2015 <f256main+0x16f9>
    6620: 18           	clc
    6621: a9 06        	lda	#$6
    6623: 65 14        	adc	$14                     ; 0x2014 <f256main+0x16f8>
    6625: 85 18        	sta	$18                     ; 0x2018 <f256main+0x16fc>
    6627: a9 93        	lda	#$93
    6629: 65 15        	adc	$15                     ; 0x2015 <f256main+0x16f9>
    662b: 85 93        	sta	$93                     ; 0x2093 <f256main+0x1777>
    662d: a0 01        	ldy	#$1
    662f: a6 8f        	ldx	$8f                     ; 0x208f <f256main+0x1773>
    6631: 86 19        	stx	$19                     ; 0x2019 <f256main+0x16fd>
    6633: a6 16        	ldx	$16                     ; 0x2016 <f256main+0x16fa>
    6635: 86 14        	stx	$14                     ; 0x2014 <f256main+0x16f8>
    6637: a6 17        	ldx	$17                     ; 0x2017 <f256main+0x16fb>
    6639: 86 15        	stx	$15                     ; 0x2015 <f256main+0x16f9>
    663b: b1 14        	lda	($14),y                 ; 0x2014 <f256main+0x16f8>
    663d: c5 19        	cmp	$19                     ; 0x2019 <f256main+0x16fd>
    663f: d0 0e        	bne	$664f <malloc+0xde>
    6641: b2 14        	lda	($14)                   ; 0x2014 <f256main+0x16f8>
    6643: 29 fe        	and	#$fe
    6645: a6 90        	ldx	$90                     ; 0x2090 <f256main+0x1774>
    6647: 86 1a        	stx	$1a                     ; 0x201a <f256main+0x16fe>
    6649: c5 1a        	cmp	$1a                     ; 0x201a <f256main+0x16fe>
    664b: b0 29        	bcs	$6676 <malloc+0x105>
    664d: 80 04        	bra	$6653 <malloc+0xe2>
    664f: c5 19        	cmp	$19                     ; 0x2019 <f256main+0x16fd>
    6651: b0 23        	bcs	$6676 <malloc+0x105>
    6653: a5 14        	lda	$14                     ; 0x2014 <f256main+0x16f8>
    6655: 18           	clc
    6656: 69 02        	adc	#$2
    6658: 85 1a        	sta	$1a                     ; 0x201a <f256main+0x16fe>
    665a: a5 15        	lda	$15                     ; 0x2015 <f256main+0x16f9>
    665c: 69 00        	adc	#$0
    665e: 85 1b        	sta	$1b                     ; 0x201b <f256main+0x16ff>
    6660: a0 02        	ldy	#$2
    6662: b1 14        	lda	($14),y                 ; 0x2014 <f256main+0x16f8>
    6664: 85 14        	sta	$14                     ; 0x2014 <f256main+0x16f8>
    6666: 88           	dey
    6667: b1 1a        	lda	($1a),y                 ; 0x201a <f256main+0x16fe>
    6669: 85 15        	sta	$15                     ; 0x2015 <f256main+0x16f9>
    666b: c5 17        	cmp	$17                     ; 0x2017 <f256main+0x16fb>
    666d: d0 cc        	bne	$663b <malloc+0xca>
    666f: a5 14        	lda	$14                     ; 0x2014 <f256main+0x16f8>
    6671: c5 16        	cmp	$16                     ; 0x2016 <f256main+0x16fa>
    6673: d0 c6        	bne	$663b <malloc+0xca>
    6675: 60           	rts
    6676: a6 18        	ldx	$18                     ; 0x2018 <f256main+0x16fc>
    6678: 86 94        	stx	$94                     ; 0x2094 <f256main+0x1778>
    667a: a6 14        	ldx	$14                     ; 0x2014 <f256main+0x16f8>
    667c: 86 12        	stx	$12                     ; 0x2012 <f256main+0x16f6>
    667e: a6 15        	ldx	$15                     ; 0x2015 <f256main+0x16f9>
    6680: 86 13        	stx	$13                     ; 0x2013 <f256main+0x16f7>
    6682: a6 14        	ldx	$14                     ; 0x2014 <f256main+0x16f8>
    6684: 86 91        	stx	$91                     ; 0x2091 <f256main+0x1775>
    6686: a6 15        	ldx	$15                     ; 0x2015 <f256main+0x16f9>
    6688: 86 92        	stx	$92                     ; 0x2092 <f256main+0x1776>
    668a: 20 5a 04     	jsr	$45a <_ZN12_GLOBAL__N_19FreeChunk6removeEv>
    668d: a6 91        	ldx	$91                     ; 0x2091 <f256main+0x1775>
    668f: 86 12        	stx	$12                     ; 0x2012 <f256main+0x16f6>
    6691: a6 92        	ldx	$92                     ; 0x2092 <f256main+0x1776>
    6693: 86 13        	stx	$13                     ; 0x2013 <f256main+0x16f7>
    6695: a0 01        	ldy	#$1
    6697: b1 12        	lda	($12),y                 ; 0x2012 <f256main+0x16f6>
    6699: 85 15        	sta	$15                     ; 0x2015 <f256main+0x16f9>
    669b: a9 fe        	lda	#$fe
    669d: 32 12        	and	($12)                   ; 0x2012 <f256main+0x16f6>
    669f: 38           	sec
    66a0: a6 90        	ldx	$90                     ; 0x2090 <f256main+0x1774>
    66a2: 86 14        	stx	$14                     ; 0x2014 <f256main+0x16f8>
    66a4: 85 17        	sta	$17                     ; 0x2017 <f256main+0x16fb>
    66a6: e5 14        	sbc	$14                     ; 0x2014 <f256main+0x16f8>
    66a8: a8           	tay
    66a9: a6 8f        	ldx	$8f                     ; 0x208f <f256main+0x1773>
    66ab: 86 14        	stx	$14                     ; 0x2014 <f256main+0x16f8>
    66ad: a5 15        	lda	$15                     ; 0x2015 <f256main+0x16f9>
    66af: 85 16        	sta	$16                     ; 0x2016 <f256main+0x16fa>
    66b1: e5 14        	sbc	$14                     ; 0x2014 <f256main+0x16f8>
    66b3: d0 06        	bne	$66bb <malloc+0x14a>
    66b5: 85 18        	sta	$18                     ; 0x2018 <f256main+0x16fc>
    66b7: c0 08        	cpy	#$8
    66b9: 80 04        	bra	$66bf <malloc+0x14e>
    66bb: 85 18        	sta	$18                     ; 0x2018 <f256main+0x16fc>
    66bd: c9 00        	cmp	#$0
    66bf: a6 94        	ldx	$94                     ; 0x2094 <f256main+0x1778>
    66c1: 86 14        	stx	$14                     ; 0x2014 <f256main+0x16f8>
    66c3: a6 93        	ldx	$93                     ; 0x2093 <f256main+0x1777>
    66c5: 86 15        	stx	$15                     ; 0x2015 <f256main+0x16f9>
    66c7: a5 17        	lda	$17                     ; 0x2017 <f256main+0x16fb>
    66c9: 90 42        	bcc	$670d <malloc+0x19c>
    66cb: 18           	clc
    66cc: a5 90        	lda	$90                     ; 0x2090 <f256main+0x1774>
    66ce: 85 90        	sta	$90                     ; 0x2090 <f256main+0x1774>
    66d0: 65 12        	adc	$12                     ; 0x2012 <f256main+0x16f6>
    66d2: 85 12        	sta	$12                     ; 0x2012 <f256main+0x16f6>
    66d4: a6 8f        	ldx	$8f                     ; 0x208f <f256main+0x1773>
    66d6: 86 8f        	stx	$8f                     ; 0x208f <f256main+0x1773>
    66d8: a5 8f        	lda	$8f                     ; 0x208f <f256main+0x1773>
    66da: 65 13        	adc	$13                     ; 0x2013 <f256main+0x16f7>
    66dc: 85 13        	sta	$13                     ; 0x2013 <f256main+0x16f7>
    66de: a6 18        	ldx	$18                     ; 0x2018 <f256main+0x16fc>
    66e0: 98           	tya
    66e1: 20 1c 03     	jsr	$31c <_ZN12_GLOBAL__N_19FreeChunk6insertEPvj>
    66e4: a6 91        	ldx	$91                     ; 0x2091 <f256main+0x1775>
    66e6: 86 12        	stx	$12                     ; 0x2012 <f256main+0x16f6>
    66e8: a6 92        	ldx	$92                     ; 0x2092 <f256main+0x1776>
    66ea: 86 13        	stx	$13                     ; 0x2013 <f256main+0x16f7>
    66ec: a5 90        	lda	$90                     ; 0x2090 <f256main+0x1774>
    66ee: 29 fe        	and	#$fe
    66f0: 85 14        	sta	$14                     ; 0x2014 <f256main+0x16f8>
    66f2: a0 01        	ldy	#$1
    66f4: 98           	tya
    66f5: 32 12        	and	($12)                   ; 0x2012 <f256main+0x16f6>
    66f7: 05 14        	ora	$14                     ; 0x2014 <f256main+0x16f8>
    66f9: 92 12        	sta	($12)                   ; 0x2012 <f256main+0x16f6>
    66fb: a5 8f        	lda	$8f                     ; 0x208f <f256main+0x1773>
    66fd: 91 12        	sta	($12),y                 ; 0x2012 <f256main+0x16f6>
    66ff: a5 14        	lda	$14                     ; 0x2014 <f256main+0x16f8>
    6701: a6 8f        	ldx	$8f                     ; 0x208f <f256main+0x1773>
    6703: 86 16        	stx	$16                     ; 0x2016 <f256main+0x16fa>
    6705: a6 94        	ldx	$94                     ; 0x2094 <f256main+0x1778>
    6707: 86 14        	stx	$14                     ; 0x2014 <f256main+0x16f8>
    6709: a6 93        	ldx	$93                     ; 0x2093 <f256main+0x1777>
    670b: 86 15        	stx	$15                     ; 0x2015 <f256main+0x16f9>
    670d: 18           	clc
    670e: 65 12        	adc	$12                     ; 0x2012 <f256main+0x16f6>
    6710: a8           	tay
    6711: a5 16        	lda	$16                     ; 0x2016 <f256main+0x16fa>
    6713: 65 13        	adc	$13                     ; 0x2013 <f256main+0x16f7>
    6715: c5 15        	cmp	$15                     ; 0x2015 <f256main+0x16f9>
    6717: d0 09        	bne	$6722 <malloc+0x1b1>
    6719: c4 14        	cpy	$14                     ; 0x2014 <f256main+0x16f8>
    671b: d0 05        	bne	$6722 <malloc+0x1b1>
    671d: 9c 00 93     	stz	$9300                   ; 0x9300 <_ZN12_GLOBAL__N_19last_freeE>
    6720: 80 14        	bra	$6736 <malloc+0x1c5>
    6722: 84 14        	sty	$14                     ; 0x2014 <f256main+0x16f8>
    6724: 85 15        	sta	$15                     ; 0x2015 <f256main+0x16f9>
    6726: a0 01        	ldy	#$1
    6728: b1 14        	lda	($14),y                 ; 0x2014 <f256main+0x16f8>
    672a: 85 16        	sta	$16                     ; 0x2016 <f256main+0x16fa>
    672c: a9 fe        	lda	#$fe
    672e: 32 14        	and	($14)                   ; 0x2014 <f256main+0x16f8>
    6730: 92 14        	sta	($14)                   ; 0x2014 <f256main+0x16f8>
    6732: a5 16        	lda	$16                     ; 0x2016 <f256main+0x16fa>
    6734: 91 14        	sta	($14),y                 ; 0x2014 <f256main+0x16f8>
    6736: a5 12        	lda	$12                     ; 0x2012 <f256main+0x16f6>
    6738: 18           	clc
    6739: 69 02        	adc	#$2
    673b: 85 12        	sta	$12                     ; 0x2012 <f256main+0x16f6>
    673d: a5 13        	lda	$13                     ; 0x2013 <f256main+0x16f7>
    673f: 69 00        	adc	#$0
    6741: 85 13        	sta	$13                     ; 0x2013 <f256main+0x16f7>
    6743: 60           	rts

00006744 <free>:
    6744: a6 12        	ldx	$12                     ; 0x2012 <f256main+0x16f6>
    6746: 86 14        	stx	$14                     ; 0x2014 <f256main+0x16f8>
    6748: a6 13        	ldx	$13                     ; 0x2013 <f256main+0x16f7>
    674a: 86 15        	stx	$15                     ; 0x2015 <f256main+0x16f9>
    674c: a2 00        	ldx	#$0
    674e: 86 12        	stx	$12                     ; 0x2012 <f256main+0x16f6>
    6750: a2 00        	ldx	#$0
    6752: 86 13        	stx	$13                     ; 0x2013 <f256main+0x16f7>
    6754: a6 15        	ldx	$15                     ; 0x2015 <f256main+0x16f9>
    6756: e4 13        	cpx	$13                     ; 0x2013 <f256main+0x16f7>
    6758: d0 09        	bne	$6763 <free+0x1f>
    675a: a6 14        	ldx	$14                     ; 0x2014 <f256main+0x16f8>
    675c: e4 12        	cpx	$12                     ; 0x2012 <f256main+0x16f6>
    675e: d0 03        	bne	$6763 <free+0x1f>
    6760: 4c c7 68     	jmp	$68c7 <free+0x183>
    6763: a2 00        	ldx	#$0
    6765: a0 10        	ldy	#$10
    6767: a9 06        	lda	#$6
    6769: 86 12        	stx	$12                     ; 0x2012 <f256main+0x16f6>
    676b: 84 13        	sty	$13                     ; 0x2013 <f256main+0x16f7>
    676d: 18           	clc
    676e: 65 12        	adc	$12                     ; 0x2012 <f256main+0x16f6>
    6770: 85 18        	sta	$18                     ; 0x2018 <f256main+0x16fc>
    6772: a9 93        	lda	#$93
    6774: 65 13        	adc	$13                     ; 0x2013 <f256main+0x16f7>
    6776: 85 19        	sta	$19                     ; 0x2019 <f256main+0x16fd>
    6778: a5 14        	lda	$14                     ; 0x2014 <f256main+0x16f8>
    677a: 18           	clc
    677b: 69 fe        	adc	#$fe
    677d: 85 12        	sta	$12                     ; 0x2012 <f256main+0x16f6>
    677f: a5 15        	lda	$15                     ; 0x2015 <f256main+0x16f9>
    6781: 69 ff        	adc	#$ff
    6783: a6 12        	ldx	$12                     ; 0x2012 <f256main+0x16f6>
    6785: 86 89        	stx	$89                     ; 0x2089 <f256main+0x176d>
    6787: aa           	tax
    6788: 85 8a        	sta	$8a                     ; 0x208a <f256main+0x176e>
    678a: b2 89        	lda	($89)                   ; 0x2089 <f256main+0x176d>
    678c: 85 1a        	sta	$1a                     ; 0x201a <f256main+0x16fe>
    678e: a0 01        	ldy	#$1
    6790: b1 89        	lda	($89),y                 ; 0x2089 <f256main+0x176d>
    6792: 85 16        	sta	$16                     ; 0x2016 <f256main+0x16fa>
    6794: a9 fe        	lda	#$fe
    6796: 32 89        	and	($89)                   ; 0x2089 <f256main+0x176d>
    6798: 85 17        	sta	$17                     ; 0x2017 <f256main+0x16fb>
    679a: a4 12        	ldy	$12                     ; 0x2012 <f256main+0x16f6>
    679c: 84 1b        	sty	$1b                     ; 0x201b <f256main+0x16ff>
    679e: a5 12        	lda	$12                     ; 0x2012 <f256main+0x16f6>
    67a0: 18           	clc
    67a1: 65 17        	adc	$17                     ; 0x2017 <f256main+0x16fb>
    67a3: 85 12        	sta	$12                     ; 0x2012 <f256main+0x16f6>
    67a5: 8a           	txa
    67a6: 86 1c        	stx	$1c                     ; 0x201c <f256main+0x1700>
    67a8: 65 16        	adc	$16                     ; 0x2016 <f256main+0x16fa>
    67aa: c5 19        	cmp	$19                     ; 0x2019 <f256main+0x16fd>
    67ac: d0 10        	bne	$67be <free+0x7a>
    67ae: a6 12        	ldx	$12                     ; 0x2012 <f256main+0x16f6>
    67b0: e4 18        	cpx	$18                     ; 0x2018 <f256main+0x16fc>
    67b2: d0 0a        	bne	$67be <free+0x7a>
    67b4: a2 00        	ldx	#$0
    67b6: 86 12        	stx	$12                     ; 0x2012 <f256main+0x16f6>
    67b8: a2 00        	ldx	#$0
    67ba: 86 13        	stx	$13                     ; 0x2013 <f256main+0x16f7>
    67bc: 80 02        	bra	$67c0 <free+0x7c>
    67be: 85 13        	sta	$13                     ; 0x2013 <f256main+0x16f7>
    67c0: a5 1a        	lda	$1a                     ; 0x201a <f256main+0x16fe>
    67c2: 29 01        	and	#$1
    67c4: d0 03        	bne	$67c9 <free+0x85>
    67c6: 4c 44 68     	jmp	$6844 <free+0x100>
    67c9: a5 14        	lda	$14                     ; 0x2014 <f256main+0x16f8>
    67cb: 18           	clc
    67cc: 69 fc        	adc	#$fc
    67ce: 85 14        	sta	$14                     ; 0x2014 <f256main+0x16f8>
    67d0: a5 15        	lda	$15                     ; 0x2015 <f256main+0x16f9>
    67d2: 69 ff        	adc	#$ff
    67d4: 85 15        	sta	$15                     ; 0x2015 <f256main+0x16f9>
    67d6: a0 01        	ldy	#$1
    67d8: 38           	sec
    67d9: a9 00        	lda	#$0
    67db: f2 14        	sbc	($14)                   ; 0x2014 <f256main+0x16f8>
    67dd: 85 1a        	sta	$1a                     ; 0x201a <f256main+0x16fe>
    67df: a9 00        	lda	#$0
    67e1: f1 14        	sbc	($14),y                 ; 0x2014 <f256main+0x16f8>
    67e3: 85 14        	sta	$14                     ; 0x2014 <f256main+0x16f8>
    67e5: a5 1b        	lda	$1b                     ; 0x201b <f256main+0x16ff>
    67e7: 18           	clc
    67e8: 65 1a        	adc	$1a                     ; 0x201a <f256main+0x16fe>
    67ea: 85 89        	sta	$89                     ; 0x2089 <f256main+0x176d>
    67ec: a5 1c        	lda	$1c                     ; 0x201c <f256main+0x1700>
    67ee: 65 14        	adc	$14                     ; 0x2014 <f256main+0x16f8>
    67f0: 85 8a        	sta	$8a                     ; 0x208a <f256main+0x176e>
    67f2: b1 89        	lda	($89),y                 ; 0x2089 <f256main+0x176d>
    67f4: 85 91        	sta	$91                     ; 0x2091 <f256main+0x1775>
    67f6: a9 fe        	lda	#$fe
    67f8: 32 89        	and	($89)                   ; 0x2089 <f256main+0x176d>
    67fa: 85 92        	sta	$92                     ; 0x2092 <f256main+0x1776>
    67fc: a6 12        	ldx	$12                     ; 0x2012 <f256main+0x16f6>
    67fe: 86 8b        	stx	$8b                     ; 0x208b <f256main+0x176f>
    6800: a6 13        	ldx	$13                     ; 0x2013 <f256main+0x16f7>
    6802: 86 8c        	stx	$8c                     ; 0x208c <f256main+0x1770>
    6804: a6 89        	ldx	$89                     ; 0x2089 <f256main+0x176d>
    6806: 86 12        	stx	$12                     ; 0x2012 <f256main+0x16f6>
    6808: a6 8a        	ldx	$8a                     ; 0x208a <f256main+0x176e>
    680a: 86 13        	stx	$13                     ; 0x2013 <f256main+0x16f7>
    680c: a6 16        	ldx	$16                     ; 0x2016 <f256main+0x16fa>
    680e: 86 8d        	stx	$8d                     ; 0x208d <f256main+0x1771>
    6810: a6 17        	ldx	$17                     ; 0x2017 <f256main+0x16fb>
    6812: 86 8e        	stx	$8e                     ; 0x208e <f256main+0x1772>
    6814: a6 18        	ldx	$18                     ; 0x2018 <f256main+0x16fc>
    6816: 86 8f        	stx	$8f                     ; 0x208f <f256main+0x1773>
    6818: a6 19        	ldx	$19                     ; 0x2019 <f256main+0x16fd>
    681a: 86 90        	stx	$90                     ; 0x2090 <f256main+0x1774>
    681c: 20 5a 04     	jsr	$45a <_ZN12_GLOBAL__N_19FreeChunk6removeEv>
    681f: a6 90        	ldx	$90                     ; 0x2090 <f256main+0x1774>
    6821: 86 19        	stx	$19                     ; 0x2019 <f256main+0x16fd>
    6823: a6 8f        	ldx	$8f                     ; 0x208f <f256main+0x1773>
    6825: 86 18        	stx	$18                     ; 0x2018 <f256main+0x16fc>
    6827: a6 8b        	ldx	$8b                     ; 0x208b <f256main+0x176f>
    6829: 86 12        	stx	$12                     ; 0x2012 <f256main+0x16f6>
    682b: a6 8c        	ldx	$8c                     ; 0x208c <f256main+0x1770>
    682d: 86 13        	stx	$13                     ; 0x2013 <f256main+0x16f7>
    682f: 18           	clc
    6830: a5 92        	lda	$92                     ; 0x2092 <f256main+0x1776>
    6832: a6 8e        	ldx	$8e                     ; 0x208e <f256main+0x1772>
    6834: 86 14        	stx	$14                     ; 0x2014 <f256main+0x16f8>
    6836: 65 14        	adc	$14                     ; 0x2014 <f256main+0x16f8>
    6838: 85 17        	sta	$17                     ; 0x2017 <f256main+0x16fb>
    683a: a5 91        	lda	$91                     ; 0x2091 <f256main+0x1775>
    683c: a6 8d        	ldx	$8d                     ; 0x208d <f256main+0x1771>
    683e: 86 14        	stx	$14                     ; 0x2014 <f256main+0x16f8>
    6840: 65 14        	adc	$14                     ; 0x2014 <f256main+0x16f8>
    6842: 85 16        	sta	$16                     ; 0x2016 <f256main+0x16fa>
    6844: a2 00        	ldx	#$0
    6846: 86 14        	stx	$14                     ; 0x2014 <f256main+0x16f8>
    6848: a2 00        	ldx	#$0
    684a: 86 15        	stx	$15                     ; 0x2015 <f256main+0x16f9>
    684c: a6 13        	ldx	$13                     ; 0x2013 <f256main+0x16f7>
    684e: e4 15        	cpx	$15                     ; 0x2015 <f256main+0x16f9>
    6850: d0 0e        	bne	$6860 <free+0x11c>
    6852: a6 12        	ldx	$12                     ; 0x2012 <f256main+0x16f6>
    6854: e4 14        	cpx	$14                     ; 0x2014 <f256main+0x16f8>
    6856: d0 08        	bne	$6860 <free+0x11c>
    6858: a2 01        	ldx	#$1
    685a: 8e 00 93     	stx	$9300                   ; 0x9300 <_ZN12_GLOBAL__N_19last_freeE>
    685d: 4c b8 68     	jmp	$68b8 <free+0x174>
    6860: a0 01        	ldy	#$1
    6862: b1 12        	lda	($12),y                 ; 0x2012 <f256main+0x16f6>
    6864: a8           	tay
    6865: a9 fe        	lda	#$fe
    6867: 32 12        	and	($12)                   ; 0x2012 <f256main+0x16f6>
    6869: 18           	clc
    686a: 85 8f        	sta	$8f                     ; 0x208f <f256main+0x1773>
    686c: 65 12        	adc	$12                     ; 0x2012 <f256main+0x16f6>
    686e: 85 14        	sta	$14                     ; 0x2014 <f256main+0x16f8>
    6870: 98           	tya
    6871: 85 8b        	sta	$8b                     ; 0x208b <f256main+0x176f>
    6873: 65 13        	adc	$13                     ; 0x2013 <f256main+0x16f7>
    6875: c5 19        	cmp	$19                     ; 0x2019 <f256main+0x16fd>
    6877: d0 0f        	bne	$6888 <free+0x144>
    6879: a6 14        	ldx	$14                     ; 0x2014 <f256main+0x16f8>
    687b: e4 18        	cpx	$18                     ; 0x2018 <f256main+0x16fc>
    687d: d0 09        	bne	$6888 <free+0x144>
    687f: a9 01        	lda	#$1
    6881: 64 14        	stz	$14                     ; 0x2014 <f256main+0x16f8>
    6883: 2d 00 93     	and	$9300                   ; 0x9300 <_ZN12_GLOBAL__N_19last_freeE>
    6886: 80 08        	bra	$6890 <free+0x14c>
    6888: 85 15        	sta	$15                     ; 0x2015 <f256main+0x16f9>
    688a: a9 01        	lda	#$1
    688c: 32 14        	and	($14)                   ; 0x2014 <f256main+0x16f8>
    688e: 64 14        	stz	$14                     ; 0x2014 <f256main+0x16f8>
    6890: a6 14        	ldx	$14                     ; 0x2014 <f256main+0x16f8>
    6892: d0 03        	bne	$6897 <free+0x153>
    6894: aa           	tax
    6895: f0 31        	beq	$68c8 <free+0x184>
    6897: a6 16        	ldx	$16                     ; 0x2016 <f256main+0x16fa>
    6899: 86 8d        	stx	$8d                     ; 0x208d <f256main+0x1771>
    689b: a6 17        	ldx	$17                     ; 0x2017 <f256main+0x16fb>
    689d: 86 8e        	stx	$8e                     ; 0x208e <f256main+0x1772>
    689f: 20 5a 04     	jsr	$45a <_ZN12_GLOBAL__N_19FreeChunk6removeEv>
    68a2: 18           	clc
    68a3: a6 8f        	ldx	$8f                     ; 0x208f <f256main+0x1773>
    68a5: 8a           	txa
    68a6: a6 8e        	ldx	$8e                     ; 0x208e <f256main+0x1772>
    68a8: 86 12        	stx	$12                     ; 0x2012 <f256main+0x16f6>
    68aa: 65 12        	adc	$12                     ; 0x2012 <f256main+0x16f6>
    68ac: 85 17        	sta	$17                     ; 0x2017 <f256main+0x16fb>
    68ae: a5 8b        	lda	$8b                     ; 0x208b <f256main+0x176f>
    68b0: a6 8d        	ldx	$8d                     ; 0x208d <f256main+0x1771>
    68b2: 86 12        	stx	$12                     ; 0x2012 <f256main+0x16f6>
    68b4: 65 12        	adc	$12                     ; 0x2012 <f256main+0x16f6>
    68b6: 85 16        	sta	$16                     ; 0x2016 <f256main+0x16fa>
    68b8: a6 89        	ldx	$89                     ; 0x2089 <f256main+0x176d>
    68ba: 86 12        	stx	$12                     ; 0x2012 <f256main+0x16f6>
    68bc: a6 8a        	ldx	$8a                     ; 0x208a <f256main+0x176e>
    68be: 86 13        	stx	$13                     ; 0x2013 <f256main+0x16f7>
    68c0: a6 16        	ldx	$16                     ; 0x2016 <f256main+0x16fa>
    68c2: a5 17        	lda	$17                     ; 0x2017 <f256main+0x16fb>
    68c4: 20 1c 03     	jsr	$31c <_ZN12_GLOBAL__N_19FreeChunk6insertEPvj>
    68c7: 60           	rts
    68c8: b2 12        	lda	($12)                   ; 0x2012 <f256main+0x16f6>
    68ca: 09 01        	ora	#$1
    68cc: 92 12        	sta	($12)                   ; 0x2012 <f256main+0x16f6>
    68ce: a0 01        	ldy	#$1
    68d0: a5 8b        	lda	$8b                     ; 0x208b <f256main+0x176f>
    68d2: 91 12        	sta	($12),y                 ; 0x2012 <f256main+0x16f6>
    68d4: 80 e2        	bra	$68b8 <free+0x174>

000068d6 <memcpy>:
    68d6: a8           	tay
    68d7: 8a           	txa
    68d8: d0 03        	bne	$68dd <memcpy+0x7>
    68da: 98           	tya
    68db: f0 24        	beq	$6901 <memcpy+0x2b>
    68dd: a5 12        	lda	$12                     ; 0x2012 <f256main+0x16f6>
    68df: 85 16        	sta	$16                     ; 0x2016 <f256main+0x16fa>
    68e1: a5 13        	lda	$13                     ; 0x2013 <f256main+0x16f7>
    68e3: 85 17        	sta	$17                     ; 0x2017 <f256main+0x16fb>
    68e5: b2 14        	lda	($14)                   ; 0x2014 <f256main+0x16f8>
    68e7: 92 16        	sta	($16)                   ; 0x2016 <f256main+0x16fa>
    68e9: e6 16        	inc	$16                     ; 0x2016 <f256main+0x16fa>
    68eb: d0 02        	bne	$68ef <memcpy+0x19>
    68ed: e6 17        	inc	$17                     ; 0x2017 <f256main+0x16fb>
    68ef: e6 14        	inc	$14                     ; 0x2014 <f256main+0x16f8>
    68f1: d0 02        	bne	$68f5 <memcpy+0x1f>
    68f3: e6 15        	inc	$15                     ; 0x2015 <f256main+0x16f9>
    68f5: 88           	dey
    68f6: c0 ff        	cpy	#$ff
    68f8: d0 01        	bne	$68fb <memcpy+0x25>
    68fa: ca           	dex
    68fb: 8a           	txa
    68fc: d0 e7        	bne	$68e5 <memcpy+0xf>
    68fe: 98           	tya
    68ff: d0 e4        	bne	$68e5 <memcpy+0xf>
    6901: 60           	rts

00006902 <__memset>:
    6902: a4 14        	ldy	$14                     ; 0x2014 <f256main+0x16f8>
    6904: d0 04        	bne	$690a <__memset+0x8>
    6906: e0 00        	cpx	#$0
    6908: f0 17        	beq	$6921 <__memset+0x1f>
    690a: 92 12        	sta	($12)                   ; 0x2012 <f256main+0x16f6>
    690c: e6 12        	inc	$12                     ; 0x2012 <f256main+0x16f6>
    690e: d0 02        	bne	$6912 <__memset+0x10>
    6910: e6 13        	inc	$13                     ; 0x2013 <f256main+0x16f7>
    6912: ca           	dex
    6913: e0 ff        	cpx	#$ff
    6915: d0 02        	bne	$6919 <__memset+0x17>
    6917: c6 14        	dec	$14                     ; 0x2014 <f256main+0x16f8>
    6919: a4 14        	ldy	$14                     ; 0x2014 <f256main+0x16f8>
    691b: d0 ed        	bne	$690a <__memset+0x8>
    691d: e0 00        	cpx	#$0
    691f: d0 e9        	bne	$690a <__memset+0x8>
    6921: 60           	rts

00006922 <__ashlsi3>:
    6922: 86 15        	stx	$15                     ; 0x2015 <f256main+0x16f9>
    6924: a6 14        	ldx	$14                     ; 0x2014 <f256main+0x16f8>
    6926: f0 0e        	beq	$6936 <__ashlsi3+0x14>
    6928: a6 14        	ldx	$14                     ; 0x2014 <f256main+0x16f8>
    692a: ca           	dex
    692b: 0a           	asl
    692c: 26 15        	rol	$15                     ; 0x2015 <f256main+0x16f9>
    692e: 26 12        	rol	$12                     ; 0x2012 <f256main+0x16f6>
    6930: 26 13        	rol	$13                     ; 0x2013 <f256main+0x16f7>
    6932: e0 00        	cpx	#$0
    6934: d0 f4        	bne	$692a <__ashlsi3+0x8>
    6936: a6 15        	ldx	$15                     ; 0x2015 <f256main+0x16f9>
    6938: 60           	rts

00006939 <__lshrsi3>:
    6939: 86 15        	stx	$15                     ; 0x2015 <f256main+0x16f9>
    693b: a6 14        	ldx	$14                     ; 0x2014 <f256main+0x16f8>
    693d: f0 0e        	beq	$694d <__lshrsi3+0x14>
    693f: a6 14        	ldx	$14                     ; 0x2014 <f256main+0x16f8>
    6941: ca           	dex
    6942: 46 13        	lsr	$13                     ; 0x2013 <f256main+0x16f7>
    6944: 66 12        	ror	$12                     ; 0x2012 <f256main+0x16f6>
    6946: 66 15        	ror	$15                     ; 0x2015 <f256main+0x16f9>
    6948: 6a           	ror
    6949: e0 00        	cpx	#$0
    694b: d0 f4        	bne	$6941 <__lshrsi3+0x8>
    694d: a6 15        	ldx	$15                     ; 0x2015 <f256main+0x16f9>
    694f: 60           	rts

00006950 <__mulqi3>:
    6950: e0 00        	cpx	#$0
    6952: f0 14        	beq	$6968 <__mulqi3+0x18>
    6954: 85 12        	sta	$12                     ; 0x2012 <f256main+0x16f6>
    6956: 86 13        	stx	$13                     ; 0x2013 <f256main+0x16f7>
    6958: a9 00        	lda	#$0
    695a: 46 13        	lsr	$13                     ; 0x2013 <f256main+0x16f7>
    695c: 90 03        	bcc	$6961 <__mulqi3+0x11>
    695e: 18           	clc
    695f: 65 12        	adc	$12                     ; 0x2012 <f256main+0x16f6>
    6961: 06 12        	asl	$12                     ; 0x2012 <f256main+0x16f6>
    6963: a6 13        	ldx	$13                     ; 0x2013 <f256main+0x16f7>
    6965: d0 f3        	bne	$695a <__mulqi3+0xa>
    6967: 60           	rts
    6968: a9 00        	lda	#$0
    696a: 60           	rts

0000696b <__mulhi3>:
    696b: a4 13        	ldy	$13                     ; 0x2013 <f256main+0x16f7>
    696d: d0 04        	bne	$6973 <__mulhi3+0x8>
    696f: a4 12        	ldy	$12                     ; 0x2012 <f256main+0x16f6>
    6971: f0 25        	beq	$6998 <__mulhi3+0x2d>
    6973: 85 14        	sta	$14                     ; 0x2014 <f256main+0x16f8>
    6975: 86 15        	stx	$15                     ; 0x2015 <f256main+0x16f9>
    6977: a0 00        	ldy	#$0
    6979: 98           	tya
    697a: 46 13        	lsr	$13                     ; 0x2013 <f256main+0x16f7>
    697c: 66 12        	ror	$12                     ; 0x2012 <f256main+0x16f6>
    697e: 90 09        	bcc	$6989 <__mulhi3+0x1e>
    6980: aa           	tax
    6981: 98           	tya
    6982: 18           	clc
    6983: 65 14        	adc	$14                     ; 0x2014 <f256main+0x16f8>
    6985: a8           	tay
    6986: 8a           	txa
    6987: 65 15        	adc	$15                     ; 0x2015 <f256main+0x16f9>
    6989: 06 14        	asl	$14                     ; 0x2014 <f256main+0x16f8>
    698b: 26 15        	rol	$15                     ; 0x2015 <f256main+0x16f9>
    698d: a6 13        	ldx	$13                     ; 0x2013 <f256main+0x16f7>
    698f: d0 e9        	bne	$697a <__mulhi3+0xf>
    6991: a6 12        	ldx	$12                     ; 0x2012 <f256main+0x16f6>
    6993: d0 e5        	bne	$697a <__mulhi3+0xf>
    6995: aa           	tax
    6996: 98           	tya
    6997: 60           	rts
    6998: a0 00        	ldy	#$0
    699a: 98           	tya
    699b: 80 f8        	bra	$6995 <__mulhi3+0x2a>

0000699d <__mulsi3>:
    699d: a4 17        	ldy	$17                     ; 0x2017 <f256main+0x16fb>
    699f: d0 0f        	bne	$69b0 <__mulsi3+0x13>
    69a1: a4 16        	ldy	$16                     ; 0x2016 <f256main+0x16fa>
    69a3: d0 0b        	bne	$69b0 <__mulsi3+0x13>
    69a5: a4 15        	ldy	$15                     ; 0x2015 <f256main+0x16f9>
    69a7: d0 07        	bne	$69b0 <__mulsi3+0x13>
    69a9: a4 14        	ldy	$14                     ; 0x2014 <f256main+0x16f8>
    69ab: d0 03        	bne	$69b0 <__mulsi3+0x13>
    69ad: 4c 04 6a     	jmp	$6a04 <__mulsi3+0x67>
    69b0: 85 18        	sta	$18                     ; 0x2018 <f256main+0x16fc>
    69b2: 86 19        	stx	$19                     ; 0x2019 <f256main+0x16fd>
    69b4: a0 00        	ldy	#$0
    69b6: a2 00        	ldx	#$0
    69b8: 64 1a        	stz	$1a                     ; 0x201a <f256main+0x16fe>
    69ba: 98           	tya
    69bb: 46 17        	lsr	$17                     ; 0x2017 <f256main+0x16fb>
    69bd: 66 16        	ror	$16                     ; 0x2016 <f256main+0x16fa>
    69bf: 66 15        	ror	$15                     ; 0x2015 <f256main+0x16f9>
    69c1: 66 14        	ror	$14                     ; 0x2014 <f256main+0x16f8>
    69c3: 90 15        	bcc	$69da <__mulsi3+0x3d>
    69c5: 85 1b        	sta	$1b                     ; 0x201b <f256main+0x16ff>
    69c7: 98           	tya
    69c8: 18           	clc
    69c9: 65 18        	adc	$18                     ; 0x2018 <f256main+0x16fc>
    69cb: a8           	tay
    69cc: 8a           	txa
    69cd: 65 19        	adc	$19                     ; 0x2019 <f256main+0x16fd>
    69cf: aa           	tax
    69d0: a5 1a        	lda	$1a                     ; 0x201a <f256main+0x16fe>
    69d2: 65 12        	adc	$12                     ; 0x2012 <f256main+0x16f6>
    69d4: 85 1a        	sta	$1a                     ; 0x201a <f256main+0x16fe>
    69d6: a5 1b        	lda	$1b                     ; 0x201b <f256main+0x16ff>
    69d8: 65 13        	adc	$13                     ; 0x2013 <f256main+0x16f7>
    69da: 06 18        	asl	$18                     ; 0x2018 <f256main+0x16fc>
    69dc: 26 19        	rol	$19                     ; 0x2019 <f256main+0x16fd>
    69de: 26 12        	rol	$12                     ; 0x2012 <f256main+0x16f6>
    69e0: 26 13        	rol	$13                     ; 0x2013 <f256main+0x16f7>
    69e2: e6 17        	inc	$17                     ; 0x2017 <f256main+0x16fb>
    69e4: c6 17        	dec	$17                     ; 0x2017 <f256main+0x16fb>
    69e6: d0 d3        	bne	$69bb <__mulsi3+0x1e>
    69e8: e6 16        	inc	$16                     ; 0x2016 <f256main+0x16fa>
    69ea: c6 16        	dec	$16                     ; 0x2016 <f256main+0x16fa>
    69ec: d0 cd        	bne	$69bb <__mulsi3+0x1e>
    69ee: e6 15        	inc	$15                     ; 0x2015 <f256main+0x16f9>
    69f0: c6 15        	dec	$15                     ; 0x2015 <f256main+0x16f9>
    69f2: d0 c7        	bne	$69bb <__mulsi3+0x1e>
    69f4: e6 14        	inc	$14                     ; 0x2014 <f256main+0x16f8>
    69f6: c6 14        	dec	$14                     ; 0x2014 <f256main+0x16f8>
    69f8: d0 c1        	bne	$69bb <__mulsi3+0x1e>
    69fa: 5a           	phy
    69fb: a4 1a        	ldy	$1a                     ; 0x201a <f256main+0x16fe>
    69fd: 84 12        	sty	$12                     ; 0x2012 <f256main+0x16f6>
    69ff: 7a           	ply
    6a00: 85 13        	sta	$13                     ; 0x2013 <f256main+0x16f7>
    6a02: 98           	tya
    6a03: 60           	rts
    6a04: a0 00        	ldy	#$0
    6a06: a2 00        	ldx	#$0
    6a08: 64 1a        	stz	$1a                     ; 0x201a <f256main+0x16fe>
    6a0a: 98           	tya
    6a0b: 80 ed        	bra	$69fa <__mulsi3+0x5d>

00006a0d <__muldi3>:
    6a0d: a4 1f        	ldy	$1f                     ; 0x201f <f256main+0x1703>
    6a0f: d0 1f        	bne	$6a30 <__muldi3+0x23>
    6a11: a4 1e        	ldy	$1e                     ; 0x201e <f256main+0x1702>
    6a13: d0 1b        	bne	$6a30 <__muldi3+0x23>
    6a15: a4 1d        	ldy	$1d                     ; 0x201d <f256main+0x1701>
    6a17: d0 17        	bne	$6a30 <__muldi3+0x23>
    6a19: a4 1c        	ldy	$1c                     ; 0x201c <f256main+0x1700>
    6a1b: d0 13        	bne	$6a30 <__muldi3+0x23>
    6a1d: a4 1b        	ldy	$1b                     ; 0x201b <f256main+0x16ff>
    6a1f: d0 0f        	bne	$6a30 <__muldi3+0x23>
    6a21: a4 1a        	ldy	$1a                     ; 0x201a <f256main+0x16fe>
    6a23: d0 0b        	bne	$6a30 <__muldi3+0x23>
    6a25: a4 19        	ldy	$19                     ; 0x2019 <f256main+0x16fd>
    6a27: d0 07        	bne	$6a30 <__muldi3+0x23>
    6a29: a4 18        	ldy	$18                     ; 0x2018 <f256main+0x16fc>
    6a2b: d0 03        	bne	$6a30 <__muldi3+0x23>
    6a2d: 4c f4 6a     	jmp	$6af4 <__muldi3+0xe7>
    6a30: 85 22        	sta	$22                     ; 0x2022 <f256main+0x1706>
    6a32: 86 23        	stx	$23                     ; 0x2023 <f256main+0x1707>
    6a34: a0 00        	ldy	#$0
    6a36: a2 00        	ldx	#$0
    6a38: 64 a9        	stz	$a9                     ; 0x20a9 <f256main+0x178d>
    6a3a: 64 aa        	stz	$aa                     ; 0x20aa <f256main+0x178e>
    6a3c: 64 ab        	stz	$ab                     ; 0x20ab <f256main+0x178f>
    6a3e: 64 ac        	stz	$ac                     ; 0x20ac <f256main+0x1790>
    6a40: 64 ad        	stz	$ad                     ; 0x20ad <f256main+0x1791>
    6a42: 98           	tya
    6a43: 46 1f        	lsr	$1f                     ; 0x201f <f256main+0x1703>
    6a45: 66 1e        	ror	$1e                     ; 0x201e <f256main+0x1702>
    6a47: 66 1d        	ror	$1d                     ; 0x201d <f256main+0x1701>
    6a49: 66 1c        	ror	$1c                     ; 0x201c <f256main+0x1700>
    6a4b: 66 1b        	ror	$1b                     ; 0x201b <f256main+0x16ff>
    6a4d: 66 1a        	ror	$1a                     ; 0x201a <f256main+0x16fe>
    6a4f: 66 19        	ror	$19                     ; 0x2019 <f256main+0x16fd>
    6a51: 66 18        	ror	$18                     ; 0x2018 <f256main+0x16fc>
    6a53: 90 2d        	bcc	$6a82 <__muldi3+0x75>
    6a55: 85 ae        	sta	$ae                     ; 0x20ae <f256main+0x1792>
    6a57: 98           	tya
    6a58: 18           	clc
    6a59: 65 22        	adc	$22                     ; 0x2022 <f256main+0x1706>
    6a5b: a8           	tay
    6a5c: 8a           	txa
    6a5d: 65 23        	adc	$23                     ; 0x2023 <f256main+0x1707>
    6a5f: aa           	tax
    6a60: a5 a9        	lda	$a9                     ; 0x20a9 <f256main+0x178d>
    6a62: 65 12        	adc	$12                     ; 0x2012 <f256main+0x16f6>
    6a64: 85 a9        	sta	$a9                     ; 0x20a9 <f256main+0x178d>
    6a66: a5 aa        	lda	$aa                     ; 0x20aa <f256main+0x178e>
    6a68: 65 13        	adc	$13                     ; 0x2013 <f256main+0x16f7>
    6a6a: 85 aa        	sta	$aa                     ; 0x20aa <f256main+0x178e>
    6a6c: a5 ab        	lda	$ab                     ; 0x20ab <f256main+0x178f>
    6a6e: 65 14        	adc	$14                     ; 0x2014 <f256main+0x16f8>
    6a70: 85 ab        	sta	$ab                     ; 0x20ab <f256main+0x178f>
    6a72: a5 ac        	lda	$ac                     ; 0x20ac <f256main+0x1790>
    6a74: 65 15        	adc	$15                     ; 0x2015 <f256main+0x16f9>
    6a76: 85 ac        	sta	$ac                     ; 0x20ac <f256main+0x1790>
    6a78: a5 ad        	lda	$ad                     ; 0x20ad <f256main+0x1791>
    6a7a: 65 16        	adc	$16                     ; 0x2016 <f256main+0x16fa>
    6a7c: 85 ad        	sta	$ad                     ; 0x20ad <f256main+0x1791>
    6a7e: a5 ae        	lda	$ae                     ; 0x20ae <f256main+0x1792>
    6a80: 65 17        	adc	$17                     ; 0x2017 <f256main+0x16fb>
    6a82: 06 22        	asl	$22                     ; 0x2022 <f256main+0x1706>
    6a84: 26 23        	rol	$23                     ; 0x2023 <f256main+0x1707>
    6a86: 26 12        	rol	$12                     ; 0x2012 <f256main+0x16f6>
    6a88: 26 13        	rol	$13                     ; 0x2013 <f256main+0x16f7>
    6a8a: 26 14        	rol	$14                     ; 0x2014 <f256main+0x16f8>
    6a8c: 26 15        	rol	$15                     ; 0x2015 <f256main+0x16f9>
    6a8e: 26 16        	rol	$16                     ; 0x2016 <f256main+0x16fa>
    6a90: 26 17        	rol	$17                     ; 0x2017 <f256main+0x16fb>
    6a92: e6 1f        	inc	$1f                     ; 0x201f <f256main+0x1703>
    6a94: c6 1f        	dec	$1f                     ; 0x201f <f256main+0x1703>
    6a96: f0 03        	beq	$6a9b <__muldi3+0x8e>
    6a98: 4c 43 6a     	jmp	$6a43 <__muldi3+0x36>
    6a9b: e6 1e        	inc	$1e                     ; 0x201e <f256main+0x1702>
    6a9d: c6 1e        	dec	$1e                     ; 0x201e <f256main+0x1702>
    6a9f: f0 03        	beq	$6aa4 <__muldi3+0x97>
    6aa1: 4c 43 6a     	jmp	$6a43 <__muldi3+0x36>
    6aa4: e6 1d        	inc	$1d                     ; 0x201d <f256main+0x1701>
    6aa6: c6 1d        	dec	$1d                     ; 0x201d <f256main+0x1701>
    6aa8: f0 03        	beq	$6aad <__muldi3+0xa0>
    6aaa: 4c 43 6a     	jmp	$6a43 <__muldi3+0x36>
    6aad: e6 1c        	inc	$1c                     ; 0x201c <f256main+0x1700>
    6aaf: c6 1c        	dec	$1c                     ; 0x201c <f256main+0x1700>
    6ab1: f0 03        	beq	$6ab6 <__muldi3+0xa9>
    6ab3: 4c 43 6a     	jmp	$6a43 <__muldi3+0x36>
    6ab6: e6 1b        	inc	$1b                     ; 0x201b <f256main+0x16ff>
    6ab8: c6 1b        	dec	$1b                     ; 0x201b <f256main+0x16ff>
    6aba: f0 03        	beq	$6abf <__muldi3+0xb2>
    6abc: 4c 43 6a     	jmp	$6a43 <__muldi3+0x36>
    6abf: e6 1a        	inc	$1a                     ; 0x201a <f256main+0x16fe>
    6ac1: c6 1a        	dec	$1a                     ; 0x201a <f256main+0x16fe>
    6ac3: f0 03        	beq	$6ac8 <__muldi3+0xbb>
    6ac5: 4c 43 6a     	jmp	$6a43 <__muldi3+0x36>
    6ac8: e6 19        	inc	$19                     ; 0x2019 <f256main+0x16fd>
    6aca: c6 19        	dec	$19                     ; 0x2019 <f256main+0x16fd>
    6acc: f0 03        	beq	$6ad1 <__muldi3+0xc4>
    6ace: 4c 43 6a     	jmp	$6a43 <__muldi3+0x36>
    6ad1: e6 18        	inc	$18                     ; 0x2018 <f256main+0x16fc>
    6ad3: c6 18        	dec	$18                     ; 0x2018 <f256main+0x16fc>
    6ad5: f0 03        	beq	$6ada <__muldi3+0xcd>
    6ad7: 4c 43 6a     	jmp	$6a43 <__muldi3+0x36>
    6ada: 5a           	phy
    6adb: a4 a9        	ldy	$a9                     ; 0x20a9 <f256main+0x178d>
    6add: 84 12        	sty	$12                     ; 0x2012 <f256main+0x16f6>
    6adf: a4 aa        	ldy	$aa                     ; 0x20aa <f256main+0x178e>
    6ae1: 84 13        	sty	$13                     ; 0x2013 <f256main+0x16f7>
    6ae3: a4 ab        	ldy	$ab                     ; 0x20ab <f256main+0x178f>
    6ae5: 84 14        	sty	$14                     ; 0x2014 <f256main+0x16f8>
    6ae7: a4 ac        	ldy	$ac                     ; 0x20ac <f256main+0x1790>
    6ae9: 84 15        	sty	$15                     ; 0x2015 <f256main+0x16f9>
    6aeb: a4 ad        	ldy	$ad                     ; 0x20ad <f256main+0x1791>
    6aed: 84 16        	sty	$16                     ; 0x2016 <f256main+0x16fa>
    6aef: 7a           	ply
    6af0: 85 17        	sta	$17                     ; 0x2017 <f256main+0x16fb>
    6af2: 98           	tya
    6af3: 60           	rts
    6af4: a0 00        	ldy	#$0
    6af6: a2 00        	ldx	#$0
    6af8: 64 a9        	stz	$a9                     ; 0x20a9 <f256main+0x178d>
    6afa: 64 aa        	stz	$aa                     ; 0x20aa <f256main+0x178e>
    6afc: 64 ab        	stz	$ab                     ; 0x20ab <f256main+0x178f>
    6afe: 64 ac        	stz	$ac                     ; 0x20ac <f256main+0x1790>
    6b00: 64 ad        	stz	$ad                     ; 0x20ad <f256main+0x1791>
    6b02: 98           	tya
    6b03: 80 d5        	bra	$6ada <__muldi3+0xcd>

00006b05 <__udivqi3>:
    6b05: a8           	tay
    6b06: a9 00        	lda	#$0
    6b08: e0 00        	cpx	#$0
    6b0a: d0 03        	bne	$6b0f <__udivqi3+0xa>
    6b0c: 4c 60 6b     	jmp	$6b60 <__udivqi3+0x5b>
    6b0f: 86 13        	stx	$13                     ; 0x2013 <f256main+0x16f7>
    6b11: c4 13        	cpy	$13                     ; 0x2013 <f256main+0x16f7>
    6b13: 90 4b        	bcc	$6b60 <__udivqi3+0x5b>
    6b15: a9 01        	lda	#$1
    6b17: a6 13        	ldx	$13                     ; 0x2013 <f256main+0x16f7>
    6b19: 30 45        	bmi	$6b60 <__udivqi3+0x5b>
    6b1b: 84 14        	sty	$14                     ; 0x2014 <f256main+0x16f8>
    6b1d: a2 00        	ldx	#$0
    6b1f: a4 13        	ldy	$13                     ; 0x2013 <f256main+0x16f7>
    6b21: 84 12        	sty	$12                     ; 0x2012 <f256main+0x16f6>
    6b23: 06 12        	asl	$12                     ; 0x2012 <f256main+0x16f6>
    6b25: a4 14        	ldy	$14                     ; 0x2014 <f256main+0x16f8>
    6b27: c4 12        	cpy	$12                     ; 0x2012 <f256main+0x16f6>
    6b29: 90 09        	bcc	$6b34 <__udivqi3+0x2f>
    6b2b: e8           	inx
    6b2c: a4 12        	ldy	$12                     ; 0x2012 <f256main+0x16f6>
    6b2e: 84 13        	sty	$13                     ; 0x2013 <f256main+0x16f7>
    6b30: 10 f1        	bpl	$6b23 <__udivqi3+0x1e>
    6b32: 80 04        	bra	$6b38 <__udivqi3+0x33>
    6b34: a4 13        	ldy	$13                     ; 0x2013 <f256main+0x16f7>
    6b36: 84 12        	sty	$12                     ; 0x2012 <f256main+0x16f6>
    6b38: e0 00        	cpx	#$0
    6b3a: f0 24        	beq	$6b60 <__udivqi3+0x5b>
    6b3c: 38           	sec
    6b3d: a5 14        	lda	$14                     ; 0x2014 <f256main+0x16f8>
    6b3f: e5 12        	sbc	$12                     ; 0x2012 <f256main+0x16f6>
    6b41: 85 13        	sta	$13                     ; 0x2013 <f256main+0x16f7>
    6b43: a9 01        	lda	#$1
    6b45: 46 12        	lsr	$12                     ; 0x2012 <f256main+0x16f6>
    6b47: 0a           	asl
    6b48: a8           	tay
    6b49: a5 13        	lda	$13                     ; 0x2013 <f256main+0x16f7>
    6b4b: c5 12        	cmp	$12                     ; 0x2012 <f256main+0x16f6>
    6b4d: 90 0b        	bcc	$6b5a <__udivqi3+0x55>
    6b4f: 98           	tya
    6b50: 09 01        	ora	#$1
    6b52: a8           	tay
    6b53: 38           	sec
    6b54: a5 13        	lda	$13                     ; 0x2013 <f256main+0x16f7>
    6b56: e5 12        	sbc	$12                     ; 0x2012 <f256main+0x16f6>
    6b58: 85 13        	sta	$13                     ; 0x2013 <f256main+0x16f7>
    6b5a: ca           	dex
    6b5b: 98           	tya
    6b5c: e0 00        	cpx	#$0
    6b5e: d0 e5        	bne	$6b45 <__udivqi3+0x40>
    6b60: 60           	rts

00006b61 <__udivhi3>:
    6b61: 64 14        	stz	$14                     ; 0x2014 <f256main+0x16f8>
    6b63: a4 13        	ldy	$13                     ; 0x2013 <f256main+0x16f7>
    6b65: d0 04        	bne	$6b6b <__udivhi3+0xa>
    6b67: a4 12        	ldy	$12                     ; 0x2012 <f256main+0x16f6>
    6b69: f0 0e        	beq	$6b79 <__udivhi3+0x18>
    6b6b: 85 17        	sta	$17                     ; 0x2017 <f256main+0x16fb>
    6b6d: 8a           	txa
    6b6e: e4 13        	cpx	$13                     ; 0x2013 <f256main+0x16f7>
    6b70: d0 0e        	bne	$6b80 <__udivhi3+0x1f>
    6b72: a5 17        	lda	$17                     ; 0x2017 <f256main+0x16fb>
    6b74: c5 12        	cmp	$12                     ; 0x2012 <f256main+0x16f6>
    6b76: 8a           	txa
    6b77: b0 0b        	bcs	$6b84 <__udivhi3+0x23>
    6b79: a2 00        	ldx	#$0
    6b7b: 86 8b        	stx	$8b                     ; 0x208b <f256main+0x176f>
    6b7d: 4c 1c 6c     	jmp	$6c1c <__udivhi3+0xbb>
    6b80: c5 13        	cmp	$13                     ; 0x2013 <f256main+0x16f7>
    6b82: 90 f5        	bcc	$6b79 <__udivhi3+0x18>
    6b84: a2 01        	ldx	#$1
    6b86: 86 8b        	stx	$8b                     ; 0x208b <f256main+0x176f>
    6b88: a6 13        	ldx	$13                     ; 0x2013 <f256main+0x16f7>
    6b8a: 10 03        	bpl	$6b8f <__udivhi3+0x2e>
    6b8c: 4c 1c 6c     	jmp	$6c1c <__udivhi3+0xbb>
    6b8f: a2 00        	ldx	#$0
    6b91: a4 12        	ldy	$12                     ; 0x2012 <f256main+0x16f6>
    6b93: 84 15        	sty	$15                     ; 0x2015 <f256main+0x16f9>
    6b95: a4 13        	ldy	$13                     ; 0x2013 <f256main+0x16f7>
    6b97: 84 16        	sty	$16                     ; 0x2016 <f256main+0x16fa>
    6b99: 06 15        	asl	$15                     ; 0x2015 <f256main+0x16f9>
    6b9b: 26 16        	rol	$16                     ; 0x2016 <f256main+0x16fa>
    6b9d: c5 16        	cmp	$16                     ; 0x2016 <f256main+0x16fa>
    6b9f: d0 08        	bne	$6ba9 <__udivhi3+0x48>
    6ba1: a4 17        	ldy	$17                     ; 0x2017 <f256main+0x16fb>
    6ba3: c4 15        	cpy	$15                     ; 0x2015 <f256main+0x16f9>
    6ba5: 90 13        	bcc	$6bba <__udivhi3+0x59>
    6ba7: 80 04        	bra	$6bad <__udivhi3+0x4c>
    6ba9: c5 16        	cmp	$16                     ; 0x2016 <f256main+0x16fa>
    6bab: 90 0d        	bcc	$6bba <__udivhi3+0x59>
    6bad: e8           	inx
    6bae: a4 15        	ldy	$15                     ; 0x2015 <f256main+0x16f9>
    6bb0: 84 12        	sty	$12                     ; 0x2012 <f256main+0x16f6>
    6bb2: a4 16        	ldy	$16                     ; 0x2016 <f256main+0x16fa>
    6bb4: 84 13        	sty	$13                     ; 0x2013 <f256main+0x16f7>
    6bb6: 10 e1        	bpl	$6b99 <__udivhi3+0x38>
    6bb8: 80 08        	bra	$6bc2 <__udivhi3+0x61>
    6bba: a4 12        	ldy	$12                     ; 0x2012 <f256main+0x16f6>
    6bbc: 84 15        	sty	$15                     ; 0x2015 <f256main+0x16f9>
    6bbe: a4 13        	ldy	$13                     ; 0x2013 <f256main+0x16f7>
    6bc0: 84 16        	sty	$16                     ; 0x2016 <f256main+0x16fa>
    6bc2: e0 00        	cpx	#$0
    6bc4: d0 03        	bne	$6bc9 <__udivhi3+0x68>
    6bc6: 4c 1c 6c     	jmp	$6c1c <__udivhi3+0xbb>
    6bc9: 38           	sec
    6bca: a8           	tay
    6bcb: a5 17        	lda	$17                     ; 0x2017 <f256main+0x16fb>
    6bcd: e5 15        	sbc	$15                     ; 0x2015 <f256main+0x16f9>
    6bcf: 85 12        	sta	$12                     ; 0x2012 <f256main+0x16f6>
    6bd1: 98           	tya
    6bd2: e5 16        	sbc	$16                     ; 0x2016 <f256main+0x16fa>
    6bd4: a0 01        	ldy	#$1
    6bd6: 84 8b        	sty	$8b                     ; 0x208b <f256main+0x176f>
    6bd8: 64 14        	stz	$14                     ; 0x2014 <f256main+0x16f8>
    6bda: 46 16        	lsr	$16                     ; 0x2016 <f256main+0x16fa>
    6bdc: 66 15        	ror	$15                     ; 0x2015 <f256main+0x16f9>
    6bde: a4 8b        	ldy	$8b                     ; 0x208b <f256main+0x176f>
    6be0: 84 13        	sty	$13                     ; 0x2013 <f256main+0x16f7>
    6be2: 06 13        	asl	$13                     ; 0x2013 <f256main+0x16f7>
    6be4: a0 01        	ldy	#$1
    6be6: b0 02        	bcs	$6bea <__udivhi3+0x89>
    6be8: a0 00        	ldy	#$0
    6bea: 84 17        	sty	$17                     ; 0x2017 <f256main+0x16fb>
    6bec: a4 13        	ldy	$13                     ; 0x2013 <f256main+0x16f7>
    6bee: 84 8b        	sty	$8b                     ; 0x208b <f256main+0x176f>
    6bf0: c5 16        	cmp	$16                     ; 0x2016 <f256main+0x16fa>
    6bf2: d0 22        	bne	$6c16 <__udivhi3+0xb5>
    6bf4: a4 12        	ldy	$12                     ; 0x2012 <f256main+0x16f6>
    6bf6: c4 15        	cpy	$15                     ; 0x2015 <f256main+0x16f9>
    6bf8: 90 11        	bcc	$6c0b <__udivhi3+0xaa>
    6bfa: a8           	tay
    6bfb: a5 8b        	lda	$8b                     ; 0x208b <f256main+0x176f>
    6bfd: 09 01        	ora	#$1
    6bff: 85 8b        	sta	$8b                     ; 0x208b <f256main+0x176f>
    6c01: 38           	sec
    6c02: a5 12        	lda	$12                     ; 0x2012 <f256main+0x16f6>
    6c04: e5 15        	sbc	$15                     ; 0x2015 <f256main+0x16f9>
    6c06: 85 12        	sta	$12                     ; 0x2012 <f256main+0x16f6>
    6c08: 98           	tya
    6c09: e5 16        	sbc	$16                     ; 0x2016 <f256main+0x16fa>
    6c0b: a4 17        	ldy	$17                     ; 0x2017 <f256main+0x16fb>
    6c0d: c0 01        	cpy	#$1
    6c0f: 26 14        	rol	$14                     ; 0x2014 <f256main+0x16f8>
    6c11: ca           	dex
    6c12: d0 c6        	bne	$6bda <__udivhi3+0x79>
    6c14: 80 06        	bra	$6c1c <__udivhi3+0xbb>
    6c16: c5 16        	cmp	$16                     ; 0x2016 <f256main+0x16fa>
    6c18: b0 e0        	bcs	$6bfa <__udivhi3+0x99>
    6c1a: 80 ef        	bra	$6c0b <__udivhi3+0xaa>
    6c1c: a6 14        	ldx	$14                     ; 0x2014 <f256main+0x16f8>
    6c1e: a5 8b        	lda	$8b                     ; 0x208b <f256main+0x176f>
    6c20: 60           	rts

00006c21 <__umodsi3>:
    6c21: 85 1c        	sta	$1c                     ; 0x201c <f256main+0x1700>
    6c23: 86 1a        	stx	$1a                     ; 0x201a <f256main+0x16fe>
    6c25: a5 13        	lda	$13                     ; 0x2013 <f256main+0x16f7>
    6c27: a6 17        	ldx	$17                     ; 0x2017 <f256main+0x16fb>
    6c29: d0 0f        	bne	$6c3a <__umodsi3+0x19>
    6c2b: a6 16        	ldx	$16                     ; 0x2016 <f256main+0x16fa>
    6c2d: d0 0b        	bne	$6c3a <__umodsi3+0x19>
    6c2f: a6 15        	ldx	$15                     ; 0x2015 <f256main+0x16f9>
    6c31: d0 07        	bne	$6c3a <__umodsi3+0x19>
    6c33: a6 14        	ldx	$14                     ; 0x2014 <f256main+0x16f8>
    6c35: d0 03        	bne	$6c3a <__umodsi3+0x19>
    6c37: 4c 61 6d     	jmp	$6d61 <__umodsi3+0x140>
    6c3a: c5 17        	cmp	$17                     ; 0x2017 <f256main+0x16fb>
    6c3c: d0 15        	bne	$6c53 <__umodsi3+0x32>
    6c3e: a6 12        	ldx	$12                     ; 0x2012 <f256main+0x16f6>
    6c40: e4 16        	cpx	$16                     ; 0x2016 <f256main+0x16fa>
    6c42: d0 16        	bne	$6c5a <__umodsi3+0x39>
    6c44: a6 1a        	ldx	$1a                     ; 0x201a <f256main+0x16fe>
    6c46: e4 15        	cpx	$15                     ; 0x2015 <f256main+0x16f9>
    6c48: d0 17        	bne	$6c61 <__umodsi3+0x40>
    6c4a: a6 1c        	ldx	$1c                     ; 0x201c <f256main+0x1700>
    6c4c: e4 14        	cpx	$14                     ; 0x2014 <f256main+0x16f8>
    6c4e: b0 1a        	bcs	$6c6a <__umodsi3+0x49>
    6c50: 4c 61 6d     	jmp	$6d61 <__umodsi3+0x140>
    6c53: c5 17        	cmp	$17                     ; 0x2017 <f256main+0x16fb>
    6c55: b0 13        	bcs	$6c6a <__umodsi3+0x49>
    6c57: 4c 61 6d     	jmp	$6d61 <__umodsi3+0x140>
    6c5a: e4 16        	cpx	$16                     ; 0x2016 <f256main+0x16fa>
    6c5c: b0 0c        	bcs	$6c6a <__umodsi3+0x49>
    6c5e: 4c 61 6d     	jmp	$6d61 <__umodsi3+0x140>
    6c61: a6 1a        	ldx	$1a                     ; 0x201a <f256main+0x16fe>
    6c63: e4 15        	cpx	$15                     ; 0x2015 <f256main+0x16f9>
    6c65: b0 03        	bcs	$6c6a <__umodsi3+0x49>
    6c67: 4c 61 6d     	jmp	$6d61 <__umodsi3+0x140>
    6c6a: a6 17        	ldx	$17                     ; 0x2017 <f256main+0x16fb>
    6c6c: 10 03        	bpl	$6c71 <__umodsi3+0x50>
    6c6e: 4c 4a 6d     	jmp	$6d4a <__umodsi3+0x129>
    6c71: a2 00        	ldx	#$0
    6c73: a4 14        	ldy	$14                     ; 0x2014 <f256main+0x16f8>
    6c75: 84 1b        	sty	$1b                     ; 0x201b <f256main+0x16ff>
    6c77: a4 15        	ldy	$15                     ; 0x2015 <f256main+0x16f9>
    6c79: 84 13        	sty	$13                     ; 0x2013 <f256main+0x16f7>
    6c7b: a4 16        	ldy	$16                     ; 0x2016 <f256main+0x16fa>
    6c7d: 84 18        	sty	$18                     ; 0x2018 <f256main+0x16fc>
    6c7f: a4 17        	ldy	$17                     ; 0x2017 <f256main+0x16fb>
    6c81: 84 19        	sty	$19                     ; 0x2019 <f256main+0x16fd>
    6c83: 06 1b        	asl	$1b                     ; 0x201b <f256main+0x16ff>
    6c85: 26 13        	rol	$13                     ; 0x2013 <f256main+0x16f7>
    6c87: 26 18        	rol	$18                     ; 0x2018 <f256main+0x16fc>
    6c89: 26 19        	rol	$19                     ; 0x2019 <f256main+0x16fd>
    6c8b: c5 19        	cmp	$19                     ; 0x2019 <f256main+0x16fd>
    6c8d: d0 16        	bne	$6ca5 <__umodsi3+0x84>
    6c8f: a4 12        	ldy	$12                     ; 0x2012 <f256main+0x16f6>
    6c91: c4 18        	cpy	$18                     ; 0x2018 <f256main+0x16fc>
    6c93: d0 16        	bne	$6cab <__umodsi3+0x8a>
    6c95: a4 1a        	ldy	$1a                     ; 0x201a <f256main+0x16fe>
    6c97: c4 13        	cpy	$13                     ; 0x2013 <f256main+0x16f7>
    6c99: d0 16        	bne	$6cb1 <__umodsi3+0x90>
    6c9b: a8           	tay
    6c9c: a5 1c        	lda	$1c                     ; 0x201c <f256main+0x1700>
    6c9e: c5 1b        	cmp	$1b                     ; 0x201b <f256main+0x16ff>
    6ca0: 98           	tya
    6ca1: 90 29        	bcc	$6ccc <__umodsi3+0xab>
    6ca3: 80 12        	bra	$6cb7 <__umodsi3+0x96>
    6ca5: c5 19        	cmp	$19                     ; 0x2019 <f256main+0x16fd>
    6ca7: 90 23        	bcc	$6ccc <__umodsi3+0xab>
    6ca9: 80 0c        	bra	$6cb7 <__umodsi3+0x96>
    6cab: c4 18        	cpy	$18                     ; 0x2018 <f256main+0x16fc>
    6cad: 90 1d        	bcc	$6ccc <__umodsi3+0xab>
    6caf: 80 06        	bra	$6cb7 <__umodsi3+0x96>
    6cb1: a4 1a        	ldy	$1a                     ; 0x201a <f256main+0x16fe>
    6cb3: c4 13        	cpy	$13                     ; 0x2013 <f256main+0x16f7>
    6cb5: 90 15        	bcc	$6ccc <__umodsi3+0xab>
    6cb7: e8           	inx
    6cb8: a4 1b        	ldy	$1b                     ; 0x201b <f256main+0x16ff>
    6cba: 84 14        	sty	$14                     ; 0x2014 <f256main+0x16f8>
    6cbc: a4 13        	ldy	$13                     ; 0x2013 <f256main+0x16f7>
    6cbe: 84 15        	sty	$15                     ; 0x2015 <f256main+0x16f9>
    6cc0: a4 18        	ldy	$18                     ; 0x2018 <f256main+0x16fc>
    6cc2: 84 16        	sty	$16                     ; 0x2016 <f256main+0x16fa>
    6cc4: a4 19        	ldy	$19                     ; 0x2019 <f256main+0x16fd>
    6cc6: 84 17        	sty	$17                     ; 0x2017 <f256main+0x16fb>
    6cc8: 10 b9        	bpl	$6c83 <__umodsi3+0x62>
    6cca: 80 10        	bra	$6cdc <__umodsi3+0xbb>
    6ccc: a4 14        	ldy	$14                     ; 0x2014 <f256main+0x16f8>
    6cce: 84 1b        	sty	$1b                     ; 0x201b <f256main+0x16ff>
    6cd0: a4 15        	ldy	$15                     ; 0x2015 <f256main+0x16f9>
    6cd2: 84 13        	sty	$13                     ; 0x2013 <f256main+0x16f7>
    6cd4: a4 16        	ldy	$16                     ; 0x2016 <f256main+0x16fa>
    6cd6: 84 18        	sty	$18                     ; 0x2018 <f256main+0x16fc>
    6cd8: a4 17        	ldy	$17                     ; 0x2017 <f256main+0x16fb>
    6cda: 84 19        	sty	$19                     ; 0x2019 <f256main+0x16fd>
    6cdc: 38           	sec
    6cdd: a8           	tay
    6cde: a5 1c        	lda	$1c                     ; 0x201c <f256main+0x1700>
    6ce0: e5 1b        	sbc	$1b                     ; 0x201b <f256main+0x16ff>
    6ce2: 85 1c        	sta	$1c                     ; 0x201c <f256main+0x1700>
    6ce4: a5 1a        	lda	$1a                     ; 0x201a <f256main+0x16fe>
    6ce6: e5 13        	sbc	$13                     ; 0x2013 <f256main+0x16f7>
    6ce8: 85 1a        	sta	$1a                     ; 0x201a <f256main+0x16fe>
    6cea: a5 12        	lda	$12                     ; 0x2012 <f256main+0x16f6>
    6cec: e5 18        	sbc	$18                     ; 0x2018 <f256main+0x16fc>
    6cee: 85 12        	sta	$12                     ; 0x2012 <f256main+0x16f6>
    6cf0: 98           	tya
    6cf1: e5 19        	sbc	$19                     ; 0x2019 <f256main+0x16fd>
    6cf3: e0 00        	cpx	#$0
    6cf5: d0 11        	bne	$6d08 <__umodsi3+0xe7>
    6cf7: 4c 61 6d     	jmp	$6d61 <__umodsi3+0x140>
    6cfa: c4 18        	cpy	$18                     ; 0x2018 <f256main+0x16fc>
    6cfc: b0 30        	bcs	$6d2e <__umodsi3+0x10d>
    6cfe: 80 45        	bra	$6d45 <__umodsi3+0x124>
    6d00: a4 1a        	ldy	$1a                     ; 0x201a <f256main+0x16fe>
    6d02: c4 13        	cpy	$13                     ; 0x2013 <f256main+0x16f7>
    6d04: b0 28        	bcs	$6d2e <__umodsi3+0x10d>
    6d06: 80 3d        	bra	$6d45 <__umodsi3+0x124>
    6d08: 46 19        	lsr	$19                     ; 0x2019 <f256main+0x16fd>
    6d0a: 66 18        	ror	$18                     ; 0x2018 <f256main+0x16fc>
    6d0c: 66 13        	ror	$13                     ; 0x2013 <f256main+0x16f7>
    6d0e: 66 1b        	ror	$1b                     ; 0x201b <f256main+0x16ff>
    6d10: c5 19        	cmp	$19                     ; 0x2019 <f256main+0x16fd>
    6d12: d0 16        	bne	$6d2a <__umodsi3+0x109>
    6d14: a4 12        	ldy	$12                     ; 0x2012 <f256main+0x16f6>
    6d16: c4 18        	cpy	$18                     ; 0x2018 <f256main+0x16fc>
    6d18: d0 e0        	bne	$6cfa <__umodsi3+0xd9>
    6d1a: a4 1a        	ldy	$1a                     ; 0x201a <f256main+0x16fe>
    6d1c: c4 13        	cpy	$13                     ; 0x2013 <f256main+0x16f7>
    6d1e: d0 e0        	bne	$6d00 <__umodsi3+0xdf>
    6d20: a8           	tay
    6d21: a5 1c        	lda	$1c                     ; 0x201c <f256main+0x1700>
    6d23: c5 1b        	cmp	$1b                     ; 0x201b <f256main+0x16ff>
    6d25: 98           	tya
    6d26: b0 06        	bcs	$6d2e <__umodsi3+0x10d>
    6d28: 80 1b        	bra	$6d45 <__umodsi3+0x124>
    6d2a: c5 19        	cmp	$19                     ; 0x2019 <f256main+0x16fd>
    6d2c: 90 17        	bcc	$6d45 <__umodsi3+0x124>
    6d2e: a8           	tay
    6d2f: 38           	sec
    6d30: a5 1c        	lda	$1c                     ; 0x201c <f256main+0x1700>
    6d32: e5 1b        	sbc	$1b                     ; 0x201b <f256main+0x16ff>
    6d34: 85 1c        	sta	$1c                     ; 0x201c <f256main+0x1700>
    6d36: a5 1a        	lda	$1a                     ; 0x201a <f256main+0x16fe>
    6d38: e5 13        	sbc	$13                     ; 0x2013 <f256main+0x16f7>
    6d3a: 85 1a        	sta	$1a                     ; 0x201a <f256main+0x16fe>
    6d3c: a5 12        	lda	$12                     ; 0x2012 <f256main+0x16f6>
    6d3e: e5 18        	sbc	$18                     ; 0x2018 <f256main+0x16fc>
    6d40: 85 12        	sta	$12                     ; 0x2012 <f256main+0x16f6>
    6d42: 98           	tya
    6d43: e5 19        	sbc	$19                     ; 0x2019 <f256main+0x16fd>
    6d45: ca           	dex
    6d46: d0 c0        	bne	$6d08 <__umodsi3+0xe7>
    6d48: 80 17        	bra	$6d61 <__umodsi3+0x140>
    6d4a: 38           	sec
    6d4b: a8           	tay
    6d4c: a5 1c        	lda	$1c                     ; 0x201c <f256main+0x1700>
    6d4e: e5 14        	sbc	$14                     ; 0x2014 <f256main+0x16f8>
    6d50: 85 1c        	sta	$1c                     ; 0x201c <f256main+0x1700>
    6d52: a5 1a        	lda	$1a                     ; 0x201a <f256main+0x16fe>
    6d54: e5 15        	sbc	$15                     ; 0x2015 <f256main+0x16f9>
    6d56: 85 1a        	sta	$1a                     ; 0x201a <f256main+0x16fe>
    6d58: a5 12        	lda	$12                     ; 0x2012 <f256main+0x16f6>
    6d5a: e5 16        	sbc	$16                     ; 0x2016 <f256main+0x16fa>
    6d5c: 85 12        	sta	$12                     ; 0x2012 <f256main+0x16f6>
    6d5e: 98           	tya
    6d5f: e5 17        	sbc	$17                     ; 0x2017 <f256main+0x16fb>
    6d61: 85 13        	sta	$13                     ; 0x2013 <f256main+0x16f7>
    6d63: a6 1a        	ldx	$1a                     ; 0x201a <f256main+0x16fe>
    6d65: a5 1c        	lda	$1c                     ; 0x201c <f256main+0x1700>
    6d67: 60           	rts

00006d68 <__udivmodqi4>:
    6d68: a8           	tay
    6d69: a9 00        	lda	#$0
    6d6b: e0 00        	cpx	#$0
    6d6d: f0 25        	beq	$6d94 <__udivmodqi4+0x2c>
    6d6f: 86 15        	stx	$15                     ; 0x2015 <f256main+0x16f9>
    6d71: 84 16        	sty	$16                     ; 0x2016 <f256main+0x16fa>
    6d73: c4 15        	cpy	$15                     ; 0x2015 <f256main+0x16f9>
    6d75: b0 03        	bcs	$6d7a <__udivmodqi4+0x12>
    6d77: 4c cf 6d     	jmp	$6dcf <__udivmodqi4+0x67>
    6d7a: a5 15        	lda	$15                     ; 0x2015 <f256main+0x16f9>
    6d7c: 30 1a        	bmi	$6d98 <__udivmodqi4+0x30>
    6d7e: a2 00        	ldx	#$0
    6d80: a5 15        	lda	$15                     ; 0x2015 <f256main+0x16f9>
    6d82: 85 14        	sta	$14                     ; 0x2014 <f256main+0x16f8>
    6d84: 98           	tya
    6d85: 06 14        	asl	$14                     ; 0x2014 <f256main+0x16f8>
    6d87: c5 14        	cmp	$14                     ; 0x2014 <f256main+0x16f8>
    6d89: 90 15        	bcc	$6da0 <__udivmodqi4+0x38>
    6d8b: e8           	inx
    6d8c: a4 14        	ldy	$14                     ; 0x2014 <f256main+0x16f8>
    6d8e: 84 15        	sty	$15                     ; 0x2015 <f256main+0x16f9>
    6d90: 10 f3        	bpl	$6d85 <__udivmodqi4+0x1d>
    6d92: 80 10        	bra	$6da4 <__udivmodqi4+0x3c>
    6d94: 84 16        	sty	$16                     ; 0x2016 <f256main+0x16fa>
    6d96: 80 37        	bra	$6dcf <__udivmodqi4+0x67>
    6d98: 38           	sec
    6d99: 98           	tya
    6d9a: e5 15        	sbc	$15                     ; 0x2015 <f256main+0x16f9>
    6d9c: 85 16        	sta	$16                     ; 0x2016 <f256main+0x16fa>
    6d9e: 80 2d        	bra	$6dcd <__udivmodqi4+0x65>
    6da0: a4 15        	ldy	$15                     ; 0x2015 <f256main+0x16f9>
    6da2: 84 14        	sty	$14                     ; 0x2014 <f256main+0x16f8>
    6da4: 38           	sec
    6da5: e5 14        	sbc	$14                     ; 0x2014 <f256main+0x16f8>
    6da7: 85 16        	sta	$16                     ; 0x2016 <f256main+0x16fa>
    6da9: 8a           	txa
    6daa: f0 21        	beq	$6dcd <__udivmodqi4+0x65>
    6dac: a9 01        	lda	#$1
    6dae: 46 14        	lsr	$14                     ; 0x2014 <f256main+0x16f8>
    6db0: 0a           	asl
    6db1: a8           	tay
    6db2: a5 16        	lda	$16                     ; 0x2016 <f256main+0x16fa>
    6db4: c5 14        	cmp	$14                     ; 0x2014 <f256main+0x16f8>
    6db6: 90 0d        	bcc	$6dc5 <__udivmodqi4+0x5d>
    6db8: 85 15        	sta	$15                     ; 0x2015 <f256main+0x16f9>
    6dba: 98           	tya
    6dbb: 09 01        	ora	#$1
    6dbd: a8           	tay
    6dbe: 38           	sec
    6dbf: a5 15        	lda	$15                     ; 0x2015 <f256main+0x16f9>
    6dc1: e5 14        	sbc	$14                     ; 0x2014 <f256main+0x16f8>
    6dc3: 85 16        	sta	$16                     ; 0x2016 <f256main+0x16fa>
    6dc5: ca           	dex
    6dc6: 98           	tya
    6dc7: e0 00        	cpx	#$0
    6dc9: d0 e3        	bne	$6dae <__udivmodqi4+0x46>
    6dcb: 80 02        	bra	$6dcf <__udivmodqi4+0x67>
    6dcd: a9 01        	lda	#$1
    6dcf: aa           	tax
    6dd0: a5 16        	lda	$16                     ; 0x2016 <f256main+0x16fa>
    6dd2: 92 12        	sta	($12)                   ; 0x2012 <f256main+0x16f6>
    6dd4: 8a           	txa
    6dd5: 60           	rts

00006dd6 <__udivmodhi4>:
    6dd6: 86 1a        	stx	$1a                     ; 0x201a <f256main+0x16fe>
    6dd8: 64 16        	stz	$16                     ; 0x2016 <f256main+0x16fa>
    6dda: a4 13        	ldy	$13                     ; 0x2013 <f256main+0x16f7>
    6ddc: d0 04        	bne	$6de2 <__udivmodhi4+0xc>
    6dde: a4 12        	ldy	$12                     ; 0x2012 <f256main+0x16f6>
    6de0: f0 08        	beq	$6dea <__udivmodhi4+0x14>
    6de2: e4 13        	cpx	$13                     ; 0x2013 <f256main+0x16f7>
    6de4: d0 0d        	bne	$6df3 <__udivmodhi4+0x1d>
    6de6: c5 12        	cmp	$12                     ; 0x2012 <f256main+0x16f6>
    6de8: b0 0d        	bcs	$6df7 <__udivmodhi4+0x21>
    6dea: a6 1a        	ldx	$1a                     ; 0x201a <f256main+0x16fe>
    6dec: 86 12        	stx	$12                     ; 0x2012 <f256main+0x16f6>
    6dee: a2 00        	ldx	#$0
    6df0: 4c 9b 6e     	jmp	$6e9b <__udivmodhi4+0xc5>
    6df3: e4 13        	cpx	$13                     ; 0x2013 <f256main+0x16f7>
    6df5: 90 f3        	bcc	$6dea <__udivmodhi4+0x14>
    6df7: a6 13        	ldx	$13                     ; 0x2013 <f256main+0x16f7>
    6df9: 10 03        	bpl	$6dfe <__udivmodhi4+0x28>
    6dfb: 4c 8e 6e     	jmp	$6e8e <__udivmodhi4+0xb8>
    6dfe: a2 00        	ldx	#$0
    6e00: a4 12        	ldy	$12                     ; 0x2012 <f256main+0x16f6>
    6e02: 84 17        	sty	$17                     ; 0x2017 <f256main+0x16fb>
    6e04: a4 13        	ldy	$13                     ; 0x2013 <f256main+0x16f7>
    6e06: 84 18        	sty	$18                     ; 0x2018 <f256main+0x16fc>
    6e08: 06 17        	asl	$17                     ; 0x2017 <f256main+0x16fb>
    6e0a: 26 18        	rol	$18                     ; 0x2018 <f256main+0x16fc>
    6e0c: a4 1a        	ldy	$1a                     ; 0x201a <f256main+0x16fe>
    6e0e: c4 18        	cpy	$18                     ; 0x2018 <f256main+0x16fc>
    6e10: d0 06        	bne	$6e18 <__udivmodhi4+0x42>
    6e12: c5 17        	cmp	$17                     ; 0x2017 <f256main+0x16fb>
    6e14: b0 08        	bcs	$6e1e <__udivmodhi4+0x48>
    6e16: 80 13        	bra	$6e2b <__udivmodhi4+0x55>
    6e18: a4 1a        	ldy	$1a                     ; 0x201a <f256main+0x16fe>
    6e1a: c4 18        	cpy	$18                     ; 0x2018 <f256main+0x16fc>
    6e1c: 90 0d        	bcc	$6e2b <__udivmodhi4+0x55>
    6e1e: e8           	inx
    6e1f: a4 17        	ldy	$17                     ; 0x2017 <f256main+0x16fb>
    6e21: 84 12        	sty	$12                     ; 0x2012 <f256main+0x16f6>
    6e23: a4 18        	ldy	$18                     ; 0x2018 <f256main+0x16fc>
    6e25: 84 13        	sty	$13                     ; 0x2013 <f256main+0x16f7>
    6e27: 10 df        	bpl	$6e08 <__udivmodhi4+0x32>
    6e29: 80 08        	bra	$6e33 <__udivmodhi4+0x5d>
    6e2b: a4 12        	ldy	$12                     ; 0x2012 <f256main+0x16f6>
    6e2d: 84 17        	sty	$17                     ; 0x2017 <f256main+0x16fb>
    6e2f: a4 13        	ldy	$13                     ; 0x2013 <f256main+0x16f7>
    6e31: 84 18        	sty	$18                     ; 0x2018 <f256main+0x16fc>
    6e33: 38           	sec
    6e34: e5 17        	sbc	$17                     ; 0x2017 <f256main+0x16fb>
    6e36: a8           	tay
    6e37: a5 1a        	lda	$1a                     ; 0x201a <f256main+0x16fe>
    6e39: e5 18        	sbc	$18                     ; 0x2018 <f256main+0x16fc>
    6e3b: 85 12        	sta	$12                     ; 0x2012 <f256main+0x16f6>
    6e3d: 8a           	txa
    6e3e: d0 03        	bne	$6e43 <__udivmodhi4+0x6d>
    6e40: 4c aa 6e     	jmp	$6eaa <__udivmodhi4+0xd4>
    6e43: a9 01        	lda	#$1
    6e45: 85 90        	sta	$90                     ; 0x2090 <f256main+0x1774>
    6e47: 64 16        	stz	$16                     ; 0x2016 <f256main+0x16fa>
    6e49: 98           	tya
    6e4a: 46 18        	lsr	$18                     ; 0x2018 <f256main+0x16fc>
    6e4c: 66 17        	ror	$17                     ; 0x2017 <f256main+0x16fb>
    6e4e: a4 90        	ldy	$90                     ; 0x2090 <f256main+0x1774>
    6e50: 84 13        	sty	$13                     ; 0x2013 <f256main+0x16f7>
    6e52: 06 13        	asl	$13                     ; 0x2013 <f256main+0x16f7>
    6e54: a0 01        	ldy	#$1
    6e56: b0 02        	bcs	$6e5a <__udivmodhi4+0x84>
    6e58: a0 00        	ldy	#$0
    6e5a: 84 19        	sty	$19                     ; 0x2019 <f256main+0x16fd>
    6e5c: a4 13        	ldy	$13                     ; 0x2013 <f256main+0x16f7>
    6e5e: 84 90        	sty	$90                     ; 0x2090 <f256main+0x1774>
    6e60: a4 12        	ldy	$12                     ; 0x2012 <f256main+0x16f6>
    6e62: c4 18        	cpy	$18                     ; 0x2018 <f256main+0x16fc>
    6e64: d0 22        	bne	$6e88 <__udivmodhi4+0xb2>
    6e66: c5 17        	cmp	$17                     ; 0x2017 <f256main+0x16fb>
    6e68: 90 13        	bcc	$6e7d <__udivmodhi4+0xa7>
    6e6a: a8           	tay
    6e6b: a5 90        	lda	$90                     ; 0x2090 <f256main+0x1774>
    6e6d: 09 01        	ora	#$1
    6e6f: 85 90        	sta	$90                     ; 0x2090 <f256main+0x1774>
    6e71: 38           	sec
    6e72: 98           	tya
    6e73: e5 17        	sbc	$17                     ; 0x2017 <f256main+0x16fb>
    6e75: a8           	tay
    6e76: a5 12        	lda	$12                     ; 0x2012 <f256main+0x16f6>
    6e78: e5 18        	sbc	$18                     ; 0x2018 <f256main+0x16fc>
    6e7a: 85 12        	sta	$12                     ; 0x2012 <f256main+0x16f6>
    6e7c: 98           	tya
    6e7d: a4 19        	ldy	$19                     ; 0x2019 <f256main+0x16fd>
    6e7f: c0 01        	cpy	#$1
    6e81: 26 16        	rol	$16                     ; 0x2016 <f256main+0x16fa>
    6e83: ca           	dex
    6e84: d0 c4        	bne	$6e4a <__udivmodhi4+0x74>
    6e86: 80 15        	bra	$6e9d <__udivmodhi4+0xc7>
    6e88: c4 18        	cpy	$18                     ; 0x2018 <f256main+0x16fc>
    6e8a: b0 de        	bcs	$6e6a <__udivmodhi4+0x94>
    6e8c: 80 ef        	bra	$6e7d <__udivmodhi4+0xa7>
    6e8e: 38           	sec
    6e8f: e5 12        	sbc	$12                     ; 0x2012 <f256main+0x16f6>
    6e91: aa           	tax
    6e92: a5 1a        	lda	$1a                     ; 0x201a <f256main+0x16fe>
    6e94: e5 13        	sbc	$13                     ; 0x2013 <f256main+0x16f7>
    6e96: 85 12        	sta	$12                     ; 0x2012 <f256main+0x16f6>
    6e98: 8a           	txa
    6e99: a2 01        	ldx	#$1
    6e9b: 86 90        	stx	$90                     ; 0x2090 <f256main+0x1774>
    6e9d: 92 14        	sta	($14)                   ; 0x2014 <f256main+0x16f8>
    6e9f: a0 01        	ldy	#$1
    6ea1: a5 12        	lda	$12                     ; 0x2012 <f256main+0x16f6>
    6ea3: 91 14        	sta	($14),y                 ; 0x2014 <f256main+0x16f8>
    6ea5: a6 16        	ldx	$16                     ; 0x2016 <f256main+0x16fa>
    6ea7: a5 90        	lda	$90                     ; 0x2090 <f256main+0x1774>
    6ea9: 60           	rts
    6eaa: a2 01        	ldx	#$1
    6eac: 86 90        	stx	$90                     ; 0x2090 <f256main+0x1774>
    6eae: 98           	tya
    6eaf: 80 ec        	bra	$6e9d <__udivmodhi4+0xc7>

00006eb1 <__divsf3>:
    6eb1: 85 96        	sta	$96                     ; 0x2096 <f256main+0x177a>
    6eb3: 86 93        	stx	$93                     ; 0x2093 <f256main+0x1777>
    6eb5: a6 12        	ldx	$12                     ; 0x2012 <f256main+0x16f6>
    6eb7: 86 19        	stx	$19                     ; 0x2019 <f256main+0x16fd>
    6eb9: a6 14        	ldx	$14                     ; 0x2014 <f256main+0x16f8>
    6ebb: 86 90        	stx	$90                     ; 0x2090 <f256main+0x1774>
    6ebd: a6 15        	ldx	$15                     ; 0x2015 <f256main+0x16f9>
    6ebf: a5 12        	lda	$12                     ; 0x2012 <f256main+0x16f6>
    6ec1: 0a           	asl
    6ec2: a4 13        	ldy	$13                     ; 0x2013 <f256main+0x16f7>
    6ec4: 84 14        	sty	$14                     ; 0x2014 <f256main+0x16f8>
    6ec6: 26 14        	rol	$14                     ; 0x2014 <f256main+0x16f8>
    6ec8: a5 16        	lda	$16                     ; 0x2016 <f256main+0x16fa>
    6eca: a4 17        	ldy	$17                     ; 0x2017 <f256main+0x16fb>
    6ecc: 84 12        	sty	$12                     ; 0x2012 <f256main+0x16f6>
    6ece: 0a           	asl
    6ecf: 26 12        	rol	$12                     ; 0x2012 <f256main+0x16f6>
    6ed1: 18           	clc
    6ed2: a4 14        	ldy	$14                     ; 0x2014 <f256main+0x16f8>
    6ed4: 84 97        	sty	$97                     ; 0x2097 <f256main+0x177b>
    6ed6: a5 14        	lda	$14                     ; 0x2014 <f256main+0x16f8>
    6ed8: 69 01        	adc	#$1
    6eda: a8           	tay
    6edb: a9 00        	lda	#$0
    6edd: 69 ff        	adc	#$ff
    6edf: 85 1a        	sta	$1a                     ; 0x201a <f256main+0x16fe>
    6ee1: a5 13        	lda	$13                     ; 0x2013 <f256main+0x16f7>
    6ee3: 85 14        	sta	$14                     ; 0x2014 <f256main+0x16f8>
    6ee5: a5 17        	lda	$17                     ; 0x2017 <f256main+0x16fb>
    6ee7: 45 13        	eor	$13                     ; 0x2013 <f256main+0x16f7>
    6ee9: 29 80        	and	#$80
    6eeb: 85 98        	sta	$98                     ; 0x2098 <f256main+0x177c>
    6eed: a5 19        	lda	$19                     ; 0x2019 <f256main+0x16fd>
    6eef: 29 7f        	and	#$7f
    6ef1: 85 99        	sta	$99                     ; 0x2099 <f256main+0x177d>
    6ef3: a5 16        	lda	$16                     ; 0x2016 <f256main+0x16fa>
    6ef5: 85 8d        	sta	$8d                     ; 0x208d <f256main+0x1771>
    6ef7: a5 16        	lda	$16                     ; 0x2016 <f256main+0x16fa>
    6ef9: 29 7f        	and	#$7f
    6efb: 85 8b        	sta	$8b                     ; 0x208b <f256main+0x176f>
    6efd: a5 1a        	lda	$1a                     ; 0x201a <f256main+0x16fe>
    6eff: c9 ff        	cmp	#$ff
    6f01: d0 04        	bne	$6f07 <__divsf3+0x56>
    6f03: c0 02        	cpy	#$2
    6f05: 80 02        	bra	$6f09 <__divsf3+0x58>
    6f07: c9 ff        	cmp	#$ff
    6f09: a4 13        	ldy	$13                     ; 0x2013 <f256main+0x16f7>
    6f0b: a5 19        	lda	$19                     ; 0x2019 <f256main+0x16fd>
    6f0d: 90 2d        	bcc	$6f3c <__divsf3+0x8b>
    6f0f: 18           	clc
    6f10: a5 12        	lda	$12                     ; 0x2012 <f256main+0x16f6>
    6f12: 69 01        	adc	#$1
    6f14: a8           	tay
    6f15: a9 00        	lda	#$0
    6f17: 69 ff        	adc	#$ff
    6f19: c9 ff        	cmp	#$ff
    6f1b: d0 17        	bne	$6f34 <__divsf3+0x83>
    6f1d: c0 02        	cpy	#$2
    6f1f: 90 17        	bcc	$6f38 <__divsf3+0x87>
    6f21: a4 8b        	ldy	$8b                     ; 0x208b <f256main+0x176f>
    6f23: 84 16        	sty	$16                     ; 0x2016 <f256main+0x16fa>
    6f25: 86 9a        	stx	$9a                     ; 0x209a <f256main+0x177e>
    6f27: a2 00        	ldx	#$0
    6f29: 86 9c        	stx	$9c                     ; 0x209c <f256main+0x1780>
    6f2b: a0 00        	ldy	#$0
    6f2d: 64 14        	stz	$14                     ; 0x2014 <f256main+0x16f8>
    6f2f: 64 15        	stz	$15                     ; 0x2015 <f256main+0x16f9>
    6f31: 4c b6 74     	jmp	$74b6 <__divsf3+0x605>
    6f34: c9 ff        	cmp	#$ff
    6f36: b0 e9        	bcs	$6f21 <__divsf3+0x70>
    6f38: a4 13        	ldy	$13                     ; 0x2013 <f256main+0x16f7>
    6f3a: a5 19        	lda	$19                     ; 0x2019 <f256main+0x16fd>
    6f3c: 85 16        	sta	$16                     ; 0x2016 <f256main+0x16fa>
    6f3e: 98           	tya
    6f3f: 29 7f        	and	#$7f
    6f41: c9 7f        	cmp	#$7f
    6f43: d0 14        	bne	$6f59 <__divsf3+0xa8>
    6f45: 85 13        	sta	$13                     ; 0x2013 <f256main+0x16f7>
    6f47: a5 16        	lda	$16                     ; 0x2016 <f256main+0x16fa>
    6f49: c9 80        	cmp	#$80
    6f4b: d0 43        	bne	$6f90 <__divsf3+0xdf>
    6f4d: a4 93        	ldy	$93                     ; 0x2093 <f256main+0x1777>
    6f4f: d0 4f        	bne	$6fa0 <__divsf3+0xef>
    6f51: a4 96        	ldy	$96                     ; 0x2096 <f256main+0x177a>
    6f53: c0 01        	cpy	#$1
    6f55: 90 0a        	bcc	$6f61 <__divsf3+0xb0>
    6f57: 80 3b        	bra	$6f94 <__divsf3+0xe3>
    6f59: 85 13        	sta	$13                     ; 0x2013 <f256main+0x16f7>
    6f5b: c9 7f        	cmp	#$7f
    6f5d: a5 16        	lda	$16                     ; 0x2016 <f256main+0x16fa>
    6f5f: b0 33        	bcs	$6f94 <__divsf3+0xe3>
    6f61: a5 17        	lda	$17                     ; 0x2017 <f256main+0x16fb>
    6f63: 29 7f        	and	#$7f
    6f65: 85 8e        	sta	$8e                     ; 0x208e <f256main+0x1772>
    6f67: c9 7f        	cmp	#$7f
    6f69: d0 31        	bne	$6f9c <__divsf3+0xeb>
    6f6b: a4 8d        	ldy	$8d                     ; 0x208d <f256main+0x1771>
    6f6d: c0 80        	cpy	#$80
    6f6f: d0 37        	bne	$6fa8 <__divsf3+0xf7>
    6f71: a5 19        	lda	$19                     ; 0x2019 <f256main+0x16fd>
    6f73: e0 00        	cpx	#$0
    6f75: f0 03        	beq	$6f7a <__divsf3+0xc9>
    6f77: 4c 5a 70     	jmp	$705a <__divsf3+0x1a9>
    6f7a: a4 90        	ldy	$90                     ; 0x2090 <f256main+0x1774>
    6f7c: c0 01        	cpy	#$1
    6f7e: 90 2e        	bcc	$6fae <__divsf3+0xfd>
    6f80: a5 8d        	lda	$8d                     ; 0x208d <f256main+0x1771>
    6f82: 09 40        	ora	#$40
    6f84: a4 90        	ldy	$90                     ; 0x2090 <f256main+0x1774>
    6f86: 84 96        	sty	$96                     ; 0x2096 <f256main+0x177a>
    6f88: 86 93        	stx	$93                     ; 0x2093 <f256main+0x1777>
    6f8a: a8           	tay
    6f8b: a5 17        	lda	$17                     ; 0x2017 <f256main+0x16fb>
    6f8d: 4c 0c 7a     	jmp	$7a0c <__divsf3+0xb5b>
    6f90: c9 80        	cmp	#$80
    6f92: 90 cd        	bcc	$6f61 <__divsf3+0xb0>
    6f94: 09 40        	ora	#$40
    6f96: a8           	tay
    6f97: a5 14        	lda	$14                     ; 0x2014 <f256main+0x16f8>
    6f99: 4c 0c 7a     	jmp	$7a0c <__divsf3+0xb5b>
    6f9c: c9 7f        	cmp	#$7f
    6f9e: 80 0a        	bra	$6faa <__divsf3+0xf9>
    6fa0: a4 93        	ldy	$93                     ; 0x2093 <f256main+0x1777>
    6fa2: c0 00        	cpy	#$0
    6fa4: 90 bb        	bcc	$6f61 <__divsf3+0xb0>
    6fa6: 80 ec        	bra	$6f94 <__divsf3+0xe3>
    6fa8: c0 80        	cpy	#$80
    6faa: a5 19        	lda	$19                     ; 0x2019 <f256main+0x16fd>
    6fac: b0 d2        	bcs	$6f80 <__divsf3+0xcf>
    6fae: a4 13        	ldy	$13                     ; 0x2013 <f256main+0x16f7>
    6fb0: 84 14        	sty	$14                     ; 0x2014 <f256main+0x16f8>
    6fb2: c0 7f        	cpy	#$7f
    6fb4: d0 36        	bne	$6fec <__divsf3+0x13b>
    6fb6: c9 80        	cmp	#$80
    6fb8: d0 32        	bne	$6fec <__divsf3+0x13b>
    6fba: a4 93        	ldy	$93                     ; 0x2093 <f256main+0x1777>
    6fbc: d0 2e        	bne	$6fec <__divsf3+0x13b>
    6fbe: a4 96        	ldy	$96                     ; 0x2096 <f256main+0x177a>
    6fc0: d0 2a        	bne	$6fec <__divsf3+0x13b>
    6fc2: a5 8e        	lda	$8e                     ; 0x208e <f256main+0x1772>
    6fc4: c9 7f        	cmp	#$7f
    6fc6: f0 03        	beq	$6fcb <__divsf3+0x11a>
    6fc8: 4c 7e 78     	jmp	$787e <__divsf3+0x9cd>
    6fcb: a4 8d        	ldy	$8d                     ; 0x208d <f256main+0x1771>
    6fcd: c0 80        	cpy	#$80
    6fcf: f0 03        	beq	$6fd4 <__divsf3+0x123>
    6fd1: 4c 7e 78     	jmp	$787e <__divsf3+0x9cd>
    6fd4: 8a           	txa
    6fd5: f0 03        	beq	$6fda <__divsf3+0x129>
    6fd7: 4c 7e 78     	jmp	$787e <__divsf3+0x9cd>
    6fda: a5 90        	lda	$90                     ; 0x2090 <f256main+0x1774>
    6fdc: f0 03        	beq	$6fe1 <__divsf3+0x130>
    6fde: 4c 7e 78     	jmp	$787e <__divsf3+0x9cd>
    6fe1: a0 c0        	ldy	#$c0
    6fe3: a9 7f        	lda	#$7f
    6fe5: 64 96        	stz	$96                     ; 0x2096 <f256main+0x177a>
    6fe7: 64 93        	stz	$93                     ; 0x2093 <f256main+0x1777>
    6fe9: 4c 0c 7a     	jmp	$7a0c <__divsf3+0xb5b>
    6fec: a4 8e        	ldy	$8e                     ; 0x208e <f256main+0x1772>
    6fee: c0 7f        	cpy	#$7f
    6ff0: d0 11        	bne	$7003 <__divsf3+0x152>
    6ff2: a4 8d        	ldy	$8d                     ; 0x208d <f256main+0x1771>
    6ff4: c0 80        	cpy	#$80
    6ff6: d0 0b        	bne	$7003 <__divsf3+0x152>
    6ff8: e0 00        	cpx	#$0
    6ffa: d0 07        	bne	$7003 <__divsf3+0x152>
    6ffc: a4 90        	ldy	$90                     ; 0x2090 <f256main+0x1774>
    6ffe: d0 03        	bne	$7003 <__divsf3+0x152>
    7000: 4c ea 78     	jmp	$78ea <__divsf3+0xa39>
    7003: a4 96        	ldy	$96                     ; 0x2096 <f256main+0x177a>
    7005: 48           	pha
    7006: a5 93        	lda	$93                     ; 0x2093 <f256main+0x1777>
    7008: 85 13        	sta	$13                     ; 0x2013 <f256main+0x16f7>
    700a: a5 14        	lda	$14                     ; 0x2014 <f256main+0x16f8>
    700c: 85 16        	sta	$16                     ; 0x2016 <f256main+0x16fa>
    700e: 68           	pla
    700f: e6 16        	inc	$16                     ; 0x2016 <f256main+0x16fa>
    7011: c6 16        	dec	$16                     ; 0x2016 <f256main+0x16fa>
    7013: d0 0e        	bne	$7023 <__divsf3+0x172>
    7015: c9 00        	cmp	#$0
    7017: d0 0a        	bne	$7023 <__divsf3+0x172>
    7019: a5 13        	lda	$13                     ; 0x2013 <f256main+0x16f7>
    701b: d0 06        	bne	$7023 <__divsf3+0x172>
    701d: 98           	tya
    701e: d0 03        	bne	$7023 <__divsf3+0x172>
    7020: 4c 25 7a     	jmp	$7a25 <__divsf3+0xb74>
    7023: a4 90        	ldy	$90                     ; 0x2090 <f256main+0x1774>
    7025: a5 8d        	lda	$8d                     ; 0x208d <f256main+0x1771>
    7027: 85 13        	sta	$13                     ; 0x2013 <f256main+0x16f7>
    7029: a5 8e        	lda	$8e                     ; 0x208e <f256main+0x1772>
    702b: d0 0d        	bne	$703a <__divsf3+0x189>
    702d: a5 13        	lda	$13                     ; 0x2013 <f256main+0x16f7>
    702f: d0 09        	bne	$703a <__divsf3+0x189>
    7031: 8a           	txa
    7032: d0 06        	bne	$703a <__divsf3+0x189>
    7034: 98           	tya
    7035: d0 03        	bne	$703a <__divsf3+0x189>
    7037: 4c 7e 78     	jmp	$787e <__divsf3+0x9cd>
    703a: a5 14        	lda	$14                     ; 0x2014 <f256main+0x16f8>
    703c: d0 14        	bne	$7052 <__divsf3+0x1a1>
    703e: a4 19        	ldy	$19                     ; 0x2019 <f256main+0x16fd>
    7040: c0 80        	cpy	#$80
    7042: d0 20        	bne	$7064 <__divsf3+0x1b3>
    7044: a4 8b        	ldy	$8b                     ; 0x208b <f256main+0x176f>
    7046: 84 16        	sty	$16                     ; 0x2016 <f256main+0x16fa>
    7048: a5 8d        	lda	$8d                     ; 0x208d <f256main+0x1771>
    704a: a4 93        	ldy	$93                     ; 0x2093 <f256main+0x1777>
    704c: d0 22        	bne	$7070 <__divsf3+0x1bf>
    704e: a4 96        	ldy	$96                     ; 0x2096 <f256main+0x177a>
    7050: 80 20        	bra	$7072 <__divsf3+0x1c1>
    7052: a4 14        	ldy	$14                     ; 0x2014 <f256main+0x16f8>
    7054: c0 00        	cpy	#$0
    7056: b0 10        	bcs	$7068 <__divsf3+0x1b7>
    7058: 80 25        	bra	$707f <__divsf3+0x1ce>
    705a: e0 00        	cpx	#$0
    705c: 90 03        	bcc	$7061 <__divsf3+0x1b0>
    705e: 4c 80 6f     	jmp	$6f80 <__divsf3+0xcf>
    7061: 4c ae 6f     	jmp	$6fae <__divsf3+0xfd>
    7064: c0 80        	cpy	#$80
    7066: 90 17        	bcc	$707f <__divsf3+0x1ce>
    7068: a4 8b        	ldy	$8b                     ; 0x208b <f256main+0x176f>
    706a: 84 16        	sty	$16                     ; 0x2016 <f256main+0x16fa>
    706c: a5 8d        	lda	$8d                     ; 0x208d <f256main+0x1771>
    706e: 80 06        	bra	$7076 <__divsf3+0x1c5>
    7070: a4 93        	ldy	$93                     ; 0x2093 <f256main+0x1777>
    7072: c0 00        	cpy	#$0
    7074: 90 09        	bcc	$707f <__divsf3+0x1ce>
    7076: 64 13        	stz	$13                     ; 0x2013 <f256main+0x16f7>
    7078: 64 14        	stz	$14                     ; 0x2014 <f256main+0x16f8>
    707a: 64 15        	stz	$15                     ; 0x2015 <f256main+0x16f9>
    707c: 4c 84 72     	jmp	$7284 <__divsf3+0x3d3>
    707f: 86 9a        	stx	$9a                     ; 0x209a <f256main+0x177e>
    7081: a4 90        	ldy	$90                     ; 0x2090 <f256main+0x1774>
    7083: 84 9b        	sty	$9b                     ; 0x209b <f256main+0x177f>
    7085: a6 12        	ldx	$12                     ; 0x2012 <f256main+0x16f6>
    7087: 86 9d        	stx	$9d                     ; 0x209d <f256main+0x1781>
    7089: a4 99        	ldy	$99                     ; 0x2099 <f256main+0x177d>
    708b: 98           	tya
    708c: 4a           	lsr
    708d: 85 12        	sta	$12                     ; 0x2012 <f256main+0x16f6>
    708f: a6 93        	ldx	$93                     ; 0x2093 <f256main+0x1777>
    7091: a5 93        	lda	$93                     ; 0x2093 <f256main+0x1777>
    7093: 6a           	ror
    7094: 85 13        	sta	$13                     ; 0x2013 <f256main+0x16f7>
    7096: a5 96        	lda	$96                     ; 0x2096 <f256main+0x177a>
    7098: 6a           	ror
    7099: 85 14        	sta	$14                     ; 0x2014 <f256main+0x16f8>
    709b: a5 96        	lda	$96                     ; 0x2096 <f256main+0x177a>
    709d: 05 14        	ora	$14                     ; 0x2014 <f256main+0x16f8>
    709f: 85 16        	sta	$16                     ; 0x2016 <f256main+0x16fa>
    70a1: a5 93        	lda	$93                     ; 0x2093 <f256main+0x1777>
    70a3: 05 13        	ora	$13                     ; 0x2013 <f256main+0x16f7>
    70a5: 85 15        	sta	$15                     ; 0x2015 <f256main+0x16f9>
    70a7: 98           	tya
    70a8: 05 12        	ora	$12                     ; 0x2012 <f256main+0x16f6>
    70aa: 85 17        	sta	$17                     ; 0x2017 <f256main+0x16fb>
    70ac: 4a           	lsr
    70ad: 5a           	phy
    70ae: a4 15        	ldy	$15                     ; 0x2015 <f256main+0x16f9>
    70b0: 84 12        	sty	$12                     ; 0x2012 <f256main+0x16f6>
    70b2: 66 12        	ror	$12                     ; 0x2012 <f256main+0x16f6>
    70b4: a4 16        	ldy	$16                     ; 0x2016 <f256main+0x16fa>
    70b6: 84 13        	sty	$13                     ; 0x2013 <f256main+0x16f7>
    70b8: 66 13        	ror	$13                     ; 0x2013 <f256main+0x16f7>
    70ba: 4a           	lsr
    70bb: 85 14        	sta	$14                     ; 0x2014 <f256main+0x16f8>
    70bd: 66 12        	ror	$12                     ; 0x2012 <f256main+0x16f6>
    70bf: 66 13        	ror	$13                     ; 0x2013 <f256main+0x16f7>
    70c1: a5 16        	lda	$16                     ; 0x2016 <f256main+0x16fa>
    70c3: 05 13        	ora	$13                     ; 0x2013 <f256main+0x16f7>
    70c5: 85 16        	sta	$16                     ; 0x2016 <f256main+0x16fa>
    70c7: a5 15        	lda	$15                     ; 0x2015 <f256main+0x16f9>
    70c9: 05 12        	ora	$12                     ; 0x2012 <f256main+0x16f6>
    70cb: 85 15        	sta	$15                     ; 0x2015 <f256main+0x16f9>
    70cd: a5 17        	lda	$17                     ; 0x2017 <f256main+0x16fb>
    70cf: 05 14        	ora	$14                     ; 0x2014 <f256main+0x16f8>
    70d1: 85 17        	sta	$17                     ; 0x2017 <f256main+0x16fb>
    70d3: 4a           	lsr
    70d4: a4 15        	ldy	$15                     ; 0x2015 <f256main+0x16f9>
    70d6: 84 12        	sty	$12                     ; 0x2012 <f256main+0x16f6>
    70d8: 66 12        	ror	$12                     ; 0x2012 <f256main+0x16f6>
    70da: a4 16        	ldy	$16                     ; 0x2016 <f256main+0x16fa>
    70dc: 84 13        	sty	$13                     ; 0x2013 <f256main+0x16f7>
    70de: 66 13        	ror	$13                     ; 0x2013 <f256main+0x16f7>
    70e0: 4a           	lsr
    70e1: 66 12        	ror	$12                     ; 0x2012 <f256main+0x16f6>
    70e3: 66 13        	ror	$13                     ; 0x2013 <f256main+0x16f7>
    70e5: 4a           	lsr
    70e6: 66 12        	ror	$12                     ; 0x2012 <f256main+0x16f6>
    70e8: 66 13        	ror	$13                     ; 0x2013 <f256main+0x16f7>
    70ea: 4a           	lsr
    70eb: 85 14        	sta	$14                     ; 0x2014 <f256main+0x16f8>
    70ed: 66 12        	ror	$12                     ; 0x2012 <f256main+0x16f6>
    70ef: 66 13        	ror	$13                     ; 0x2013 <f256main+0x16f7>
    70f1: a5 16        	lda	$16                     ; 0x2016 <f256main+0x16fa>
    70f3: 05 13        	ora	$13                     ; 0x2013 <f256main+0x16f7>
    70f5: 85 16        	sta	$16                     ; 0x2016 <f256main+0x16fa>
    70f7: a5 15        	lda	$15                     ; 0x2015 <f256main+0x16f9>
    70f9: 05 12        	ora	$12                     ; 0x2012 <f256main+0x16f6>
    70fb: 85 13        	sta	$13                     ; 0x2013 <f256main+0x16f7>
    70fd: a5 17        	lda	$17                     ; 0x2017 <f256main+0x16fb>
    70ff: 05 14        	ora	$14                     ; 0x2014 <f256main+0x16f8>
    7101: 85 17        	sta	$17                     ; 0x2017 <f256main+0x16fb>
    7103: a5 16        	lda	$16                     ; 0x2016 <f256main+0x16fa>
    7105: 05 13        	ora	$13                     ; 0x2013 <f256main+0x16f7>
    7107: 85 14        	sta	$14                     ; 0x2014 <f256main+0x16f8>
    7109: a5 13        	lda	$13                     ; 0x2013 <f256main+0x16f7>
    710b: 05 17        	ora	$17                     ; 0x2017 <f256main+0x16fb>
    710d: 85 15        	sta	$15                     ; 0x2015 <f256main+0x16f9>
    710f: a5 14        	lda	$14                     ; 0x2014 <f256main+0x16f8>
    7111: 05 17        	ora	$17                     ; 0x2017 <f256main+0x16fb>
    7113: 85 16        	sta	$16                     ; 0x2016 <f256main+0x16fa>
    7115: a5 17        	lda	$17                     ; 0x2017 <f256main+0x16fb>
    7117: 85 14        	sta	$14                     ; 0x2014 <f256main+0x16f8>
    7119: 46 14        	lsr	$14                     ; 0x2014 <f256main+0x16f8>
    711b: a5 16        	lda	$16                     ; 0x2016 <f256main+0x16fa>
    711d: 4a           	lsr
    711e: 29 55        	and	#$55
    7120: 85 12        	sta	$12                     ; 0x2012 <f256main+0x16f6>
    7122: a5 15        	lda	$15                     ; 0x2015 <f256main+0x16f9>
    7124: 4a           	lsr
    7125: 29 55        	and	#$55
    7127: 85 13        	sta	$13                     ; 0x2013 <f256main+0x16f7>
    7129: a5 14        	lda	$14                     ; 0x2014 <f256main+0x16f8>
    712b: 29 55        	and	#$55
    712d: 85 14        	sta	$14                     ; 0x2014 <f256main+0x16f8>
    712f: 38           	sec
    7130: a5 16        	lda	$16                     ; 0x2016 <f256main+0x16fa>
    7132: e5 12        	sbc	$12                     ; 0x2012 <f256main+0x16f6>
    7134: 85 12        	sta	$12                     ; 0x2012 <f256main+0x16f6>
    7136: a5 15        	lda	$15                     ; 0x2015 <f256main+0x16f9>
    7138: e5 13        	sbc	$13                     ; 0x2013 <f256main+0x16f7>
    713a: 85 13        	sta	$13                     ; 0x2013 <f256main+0x16f7>
    713c: a5 17        	lda	$17                     ; 0x2017 <f256main+0x16fb>
    713e: e5 14        	sbc	$14                     ; 0x2014 <f256main+0x16f8>
    7140: 85 14        	sta	$14                     ; 0x2014 <f256main+0x16f8>
    7142: a9 00        	lda	#$0
    7144: e9 00        	sbc	#$0
    7146: 85 15        	sta	$15                     ; 0x2015 <f256main+0x16f9>
    7148: a5 12        	lda	$12                     ; 0x2012 <f256main+0x16f6>
    714a: 85 16        	sta	$16                     ; 0x2016 <f256main+0x16fa>
    714c: 29 33        	and	#$33
    714e: 85 12        	sta	$12                     ; 0x2012 <f256main+0x16f6>
    7150: a5 13        	lda	$13                     ; 0x2013 <f256main+0x16f7>
    7152: 85 17        	sta	$17                     ; 0x2017 <f256main+0x16fb>
    7154: 29 33        	and	#$33
    7156: 85 13        	sta	$13                     ; 0x2013 <f256main+0x16f7>
    7158: a5 14        	lda	$14                     ; 0x2014 <f256main+0x16f8>
    715a: 85 18        	sta	$18                     ; 0x2018 <f256main+0x16fc>
    715c: 29 33        	and	#$33
    715e: 85 14        	sta	$14                     ; 0x2014 <f256main+0x16f8>
    7160: a5 15        	lda	$15                     ; 0x2015 <f256main+0x16f9>
    7162: 4a           	lsr
    7163: 85 19        	sta	$19                     ; 0x2019 <f256main+0x16fd>
    7165: 46 18        	lsr	$18                     ; 0x2018 <f256main+0x16fc>
    7167: 46 17        	lsr	$17                     ; 0x2017 <f256main+0x16fb>
    7169: a5 16        	lda	$16                     ; 0x2016 <f256main+0x16fa>
    716b: 4a           	lsr
    716c: 46 19        	lsr	$19                     ; 0x2019 <f256main+0x16fd>
    716e: 46 18        	lsr	$18                     ; 0x2018 <f256main+0x16fc>
    7170: a4 17        	ldy	$17                     ; 0x2017 <f256main+0x16fb>
    7172: 84 16        	sty	$16                     ; 0x2016 <f256main+0x16fa>
    7174: 46 16        	lsr	$16                     ; 0x2016 <f256main+0x16fa>
    7176: 4a           	lsr
    7177: 29 33        	and	#$33
    7179: 85 1a        	sta	$1a                     ; 0x201a <f256main+0x16fe>
    717b: a5 16        	lda	$16                     ; 0x2016 <f256main+0x16fa>
    717d: 29 33        	and	#$33
    717f: 85 16        	sta	$16                     ; 0x2016 <f256main+0x16fa>
    7181: a5 18        	lda	$18                     ; 0x2018 <f256main+0x16fc>
    7183: 29 33        	and	#$33
    7185: 85 17        	sta	$17                     ; 0x2017 <f256main+0x16fb>
    7187: a5 19        	lda	$19                     ; 0x2019 <f256main+0x16fd>
    7189: 29 33        	and	#$33
    718b: 85 18        	sta	$18                     ; 0x2018 <f256main+0x16fc>
    718d: a5 15        	lda	$15                     ; 0x2015 <f256main+0x16f9>
    718f: 29 33        	and	#$33
    7191: 85 15        	sta	$15                     ; 0x2015 <f256main+0x16f9>
    7193: 18           	clc
    7194: a5 1a        	lda	$1a                     ; 0x201a <f256main+0x16fe>
    7196: 65 12        	adc	$12                     ; 0x2012 <f256main+0x16f6>
    7198: 85 12        	sta	$12                     ; 0x2012 <f256main+0x16f6>
    719a: a5 16        	lda	$16                     ; 0x2016 <f256main+0x16fa>
    719c: 65 13        	adc	$13                     ; 0x2013 <f256main+0x16f7>
    719e: 85 13        	sta	$13                     ; 0x2013 <f256main+0x16f7>
    71a0: a5 17        	lda	$17                     ; 0x2017 <f256main+0x16fb>
    71a2: 65 14        	adc	$14                     ; 0x2014 <f256main+0x16f8>
    71a4: 85 14        	sta	$14                     ; 0x2014 <f256main+0x16f8>
    71a6: a5 18        	lda	$18                     ; 0x2018 <f256main+0x16fc>
    71a8: 65 15        	adc	$15                     ; 0x2015 <f256main+0x16f9>
    71aa: 85 15        	sta	$15                     ; 0x2015 <f256main+0x16f9>
    71ac: 4a           	lsr
    71ad: 85 16        	sta	$16                     ; 0x2016 <f256main+0x16fa>
    71af: a5 14        	lda	$14                     ; 0x2014 <f256main+0x16f8>
    71b1: 6a           	ror
    71b2: a4 13        	ldy	$13                     ; 0x2013 <f256main+0x16f7>
    71b4: 84 17        	sty	$17                     ; 0x2017 <f256main+0x16fb>
    71b6: 66 17        	ror	$17                     ; 0x2017 <f256main+0x16fb>
    71b8: a4 12        	ldy	$12                     ; 0x2012 <f256main+0x16f6>
    71ba: 84 18        	sty	$18                     ; 0x2018 <f256main+0x16fc>
    71bc: 7a           	ply
    71bd: 66 18        	ror	$18                     ; 0x2018 <f256main+0x16fc>
    71bf: 46 16        	lsr	$16                     ; 0x2016 <f256main+0x16fa>
    71c1: 6a           	ror
    71c2: 66 17        	ror	$17                     ; 0x2017 <f256main+0x16fb>
    71c4: 66 18        	ror	$18                     ; 0x2018 <f256main+0x16fc>
    71c6: 46 16        	lsr	$16                     ; 0x2016 <f256main+0x16fa>
    71c8: 6a           	ror
    71c9: 66 17        	ror	$17                     ; 0x2017 <f256main+0x16fb>
    71cb: 66 18        	ror	$18                     ; 0x2018 <f256main+0x16fc>
    71cd: 46 16        	lsr	$16                     ; 0x2016 <f256main+0x16fa>
    71cf: 6a           	ror
    71d0: 85 19        	sta	$19                     ; 0x2019 <f256main+0x16fd>
    71d2: a5 17        	lda	$17                     ; 0x2017 <f256main+0x16fb>
    71d4: 85 1a        	sta	$1a                     ; 0x201a <f256main+0x16fe>
    71d6: 66 1a        	ror	$1a                     ; 0x201a <f256main+0x16fe>
    71d8: a5 18        	lda	$18                     ; 0x2018 <f256main+0x16fc>
    71da: 6a           	ror
    71db: 18           	clc
    71dc: 65 12        	adc	$12                     ; 0x2012 <f256main+0x16f6>
    71de: 85 12        	sta	$12                     ; 0x2012 <f256main+0x16f6>
    71e0: a5 1a        	lda	$1a                     ; 0x201a <f256main+0x16fe>
    71e2: 65 13        	adc	$13                     ; 0x2013 <f256main+0x16f7>
    71e4: 85 13        	sta	$13                     ; 0x2013 <f256main+0x16f7>
    71e6: a5 19        	lda	$19                     ; 0x2019 <f256main+0x16fd>
    71e8: 65 14        	adc	$14                     ; 0x2014 <f256main+0x16f8>
    71ea: 85 14        	sta	$14                     ; 0x2014 <f256main+0x16f8>
    71ec: a5 16        	lda	$16                     ; 0x2016 <f256main+0x16fa>
    71ee: 65 15        	adc	$15                     ; 0x2015 <f256main+0x16f9>
    71f0: 85 15        	sta	$15                     ; 0x2015 <f256main+0x16f9>
    71f2: a5 12        	lda	$12                     ; 0x2012 <f256main+0x16f6>
    71f4: 29 0f        	and	#$f
    71f6: 85 12        	sta	$12                     ; 0x2012 <f256main+0x16f6>
    71f8: 85 18        	sta	$18                     ; 0x2018 <f256main+0x16fc>
    71fa: a5 13        	lda	$13                     ; 0x2013 <f256main+0x16f7>
    71fc: 29 0f        	and	#$f
    71fe: 85 13        	sta	$13                     ; 0x2013 <f256main+0x16f7>
    7200: 85 17        	sta	$17                     ; 0x2017 <f256main+0x16fb>
    7202: a5 14        	lda	$14                     ; 0x2014 <f256main+0x16f8>
    7204: 29 0f        	and	#$f
    7206: 85 14        	sta	$14                     ; 0x2014 <f256main+0x16f8>
    7208: 85 19        	sta	$19                     ; 0x2019 <f256main+0x16fd>
    720a: a5 15        	lda	$15                     ; 0x2015 <f256main+0x16f9>
    720c: 29 0f        	and	#$f
    720e: 85 16        	sta	$16                     ; 0x2016 <f256main+0x16fa>
    7210: 18           	clc
    7211: a5 18        	lda	$18                     ; 0x2018 <f256main+0x16fc>
    7213: 69 00        	adc	#$0
    7215: 85 15        	sta	$15                     ; 0x2015 <f256main+0x16f9>
    7217: 85 1a        	sta	$1a                     ; 0x201a <f256main+0x16fe>
    7219: a5 17        	lda	$17                     ; 0x2017 <f256main+0x16fb>
    721b: 65 12        	adc	$12                     ; 0x2012 <f256main+0x16f6>
    721d: 85 12        	sta	$12                     ; 0x2012 <f256main+0x16f6>
    721f: 85 18        	sta	$18                     ; 0x2018 <f256main+0x16fc>
    7221: a5 19        	lda	$19                     ; 0x2019 <f256main+0x16fd>
    7223: 65 13        	adc	$13                     ; 0x2013 <f256main+0x16f7>
    7225: 85 17        	sta	$17                     ; 0x2017 <f256main+0x16fb>
    7227: a5 16        	lda	$16                     ; 0x2016 <f256main+0x16fa>
    7229: 65 14        	adc	$14                     ; 0x2014 <f256main+0x16f8>
    722b: 85 13        	sta	$13                     ; 0x2013 <f256main+0x16f7>
    722d: 18           	clc
    722e: a5 1a        	lda	$1a                     ; 0x201a <f256main+0x16fe>
    7230: 69 00        	adc	#$0
    7232: a5 18        	lda	$18                     ; 0x2018 <f256main+0x16fc>
    7234: 69 00        	adc	#$0
    7236: a5 17        	lda	$17                     ; 0x2017 <f256main+0x16fb>
    7238: 65 15        	adc	$15                     ; 0x2015 <f256main+0x16f9>
    723a: a5 13        	lda	$13                     ; 0x2013 <f256main+0x16f7>
    723c: 65 12        	adc	$12                     ; 0x2012 <f256main+0x16f6>
    723e: 85 12        	sta	$12                     ; 0x2012 <f256main+0x16f6>
    7240: a9 20        	lda	#$20
    7242: 38           	sec
    7243: e5 12        	sbc	$12                     ; 0x2012 <f256main+0x16f6>
    7245: 85 12        	sta	$12                     ; 0x2012 <f256main+0x16f6>
    7247: a9 00        	lda	#$0
    7249: e9 00        	sbc	#$0
    724b: 85 8f        	sta	$8f                     ; 0x208f <f256main+0x1773>
    724d: 64 13        	stz	$13                     ; 0x2013 <f256main+0x16f7>
    724f: a5 12        	lda	$12                     ; 0x2012 <f256main+0x16f6>
    7251: 85 90        	sta	$90                     ; 0x2090 <f256main+0x1774>
    7253: 18           	clc
    7254: 69 f8        	adc	#$f8
    7256: 85 14        	sta	$14                     ; 0x2014 <f256main+0x16f8>
    7258: 84 12        	sty	$12                     ; 0x2012 <f256main+0x16f6>
    725a: a5 96        	lda	$96                     ; 0x2096 <f256main+0x177a>
    725c: 20 22 69     	jsr	$6922 <__ashlsi3>
    725f: 85 96        	sta	$96                     ; 0x2096 <f256main+0x177a>
    7261: 86 93        	stx	$93                     ; 0x2093 <f256main+0x1777>
    7263: a6 12        	ldx	$12                     ; 0x2012 <f256main+0x16f6>
    7265: 86 99        	stx	$99                     ; 0x2099 <f256main+0x177d>
    7267: a9 09        	lda	#$9
    7269: 38           	sec
    726a: e5 90        	sbc	$90                     ; 0x2090 <f256main+0x1774>
    726c: 85 14        	sta	$14                     ; 0x2014 <f256main+0x16f8>
    726e: a9 00        	lda	#$0
    7270: e5 8f        	sbc	$8f                     ; 0x208f <f256main+0x1773>
    7272: 85 15        	sta	$15                     ; 0x2015 <f256main+0x16f9>
    7274: a6 9d        	ldx	$9d                     ; 0x209d <f256main+0x1781>
    7276: 86 12        	stx	$12                     ; 0x2012 <f256main+0x16f6>
    7278: a4 9b        	ldy	$9b                     ; 0x209b <f256main+0x177f>
    727a: 84 90        	sty	$90                     ; 0x2090 <f256main+0x1774>
    727c: a6 9a        	ldx	$9a                     ; 0x209a <f256main+0x177e>
    727e: a4 8b        	ldy	$8b                     ; 0x208b <f256main+0x176f>
    7280: 84 16        	sty	$16                     ; 0x2016 <f256main+0x16fa>
    7282: a5 8d        	lda	$8d                     ; 0x208d <f256main+0x1771>
    7284: a4 8e        	ldy	$8e                     ; 0x208e <f256main+0x1772>
    7286: d0 11        	bne	$7299 <__divsf3+0x3e8>
    7288: c9 80        	cmp	#$80
    728a: d0 1e        	bne	$72aa <__divsf3+0x3f9>
    728c: 8a           	txa
    728d: f0 03        	beq	$7292 <__divsf3+0x3e1>
    728f: 4c 15 7a     	jmp	$7a15 <__divsf3+0xb64>
    7292: 86 9a        	stx	$9a                     ; 0x209a <f256main+0x177e>
    7294: a6 90        	ldx	$90                     ; 0x2090 <f256main+0x1774>
    7296: 4c 1b 7a     	jmp	$7a1b <__divsf3+0xb6a>
    7299: a4 8e        	ldy	$8e                     ; 0x208e <f256main+0x1772>
    729b: 86 9a        	stx	$9a                     ; 0x209a <f256main+0x177e>
    729d: c0 00        	cpy	#$0
    729f: 90 0f        	bcc	$72b0 <__divsf3+0x3ff>
    72a1: a6 13        	ldx	$13                     ; 0x2013 <f256main+0x16f7>
    72a3: 86 9c        	stx	$9c                     ; 0x209c <f256main+0x1780>
    72a5: a0 00        	ldy	#$0
    72a7: 4c b6 74     	jmp	$74b6 <__divsf3+0x605>
    72aa: 86 9a        	stx	$9a                     ; 0x209a <f256main+0x177e>
    72ac: c9 80        	cmp	#$80
    72ae: b0 f1        	bcs	$72a1 <__divsf3+0x3f0>
    72b0: a6 15        	ldx	$15                     ; 0x2015 <f256main+0x16f9>
    72b2: 86 9b        	stx	$9b                     ; 0x209b <f256main+0x177f>
    72b4: a6 14        	ldx	$14                     ; 0x2014 <f256main+0x16f8>
    72b6: 86 9e        	stx	$9e                     ; 0x209e <f256main+0x1782>
    72b8: a6 12        	ldx	$12                     ; 0x2012 <f256main+0x16f6>
    72ba: 86 9d        	stx	$9d                     ; 0x209d <f256main+0x1781>
    72bc: a6 13        	ldx	$13                     ; 0x2013 <f256main+0x16f7>
    72be: 86 9c        	stx	$9c                     ; 0x209c <f256main+0x1780>
    72c0: a5 8b        	lda	$8b                     ; 0x208b <f256main+0x176f>
    72c2: 4a           	lsr
    72c3: 85 12        	sta	$12                     ; 0x2012 <f256main+0x16f6>
    72c5: a6 9a        	ldx	$9a                     ; 0x209a <f256main+0x177e>
    72c7: 8a           	txa
    72c8: 6a           	ror
    72c9: 85 13        	sta	$13                     ; 0x2013 <f256main+0x16f7>
    72cb: a5 90        	lda	$90                     ; 0x2090 <f256main+0x1774>
    72cd: 6a           	ror
    72ce: 85 14        	sta	$14                     ; 0x2014 <f256main+0x16f8>
    72d0: a5 90        	lda	$90                     ; 0x2090 <f256main+0x1774>
    72d2: 05 14        	ora	$14                     ; 0x2014 <f256main+0x16f8>
    72d4: 85 15        	sta	$15                     ; 0x2015 <f256main+0x16f9>
    72d6: 8a           	txa
    72d7: 05 13        	ora	$13                     ; 0x2013 <f256main+0x16f7>
    72d9: a8           	tay
    72da: a5 8b        	lda	$8b                     ; 0x208b <f256main+0x176f>
    72dc: 05 12        	ora	$12                     ; 0x2012 <f256main+0x16f6>
    72de: 85 17        	sta	$17                     ; 0x2017 <f256main+0x16fb>
    72e0: 4a           	lsr
    72e1: 84 12        	sty	$12                     ; 0x2012 <f256main+0x16f6>
    72e3: 66 12        	ror	$12                     ; 0x2012 <f256main+0x16f6>
    72e5: 48           	pha
    72e6: a5 15        	lda	$15                     ; 0x2015 <f256main+0x16f9>
    72e8: 85 13        	sta	$13                     ; 0x2013 <f256main+0x16f7>
    72ea: 68           	pla
    72eb: 66 13        	ror	$13                     ; 0x2013 <f256main+0x16f7>
    72ed: 4a           	lsr
    72ee: 85 14        	sta	$14                     ; 0x2014 <f256main+0x16f8>
    72f0: 66 12        	ror	$12                     ; 0x2012 <f256main+0x16f6>
    72f2: 66 13        	ror	$13                     ; 0x2013 <f256main+0x16f7>
    72f4: a5 15        	lda	$15                     ; 0x2015 <f256main+0x16f9>
    72f6: 05 13        	ora	$13                     ; 0x2013 <f256main+0x16f7>
    72f8: 85 15        	sta	$15                     ; 0x2015 <f256main+0x16f9>
    72fa: 98           	tya
    72fb: 05 12        	ora	$12                     ; 0x2012 <f256main+0x16f6>
    72fd: a8           	tay
    72fe: a5 17        	lda	$17                     ; 0x2017 <f256main+0x16fb>
    7300: 05 14        	ora	$14                     ; 0x2014 <f256main+0x16f8>
    7302: 85 17        	sta	$17                     ; 0x2017 <f256main+0x16fb>
    7304: 4a           	lsr
    7305: 84 12        	sty	$12                     ; 0x2012 <f256main+0x16f6>
    7307: 66 12        	ror	$12                     ; 0x2012 <f256main+0x16f6>
    7309: 48           	pha
    730a: a5 15        	lda	$15                     ; 0x2015 <f256main+0x16f9>
    730c: 85 13        	sta	$13                     ; 0x2013 <f256main+0x16f7>
    730e: 68           	pla
    730f: 66 13        	ror	$13                     ; 0x2013 <f256main+0x16f7>
    7311: 4a           	lsr
    7312: 66 12        	ror	$12                     ; 0x2012 <f256main+0x16f6>
    7314: 66 13        	ror	$13                     ; 0x2013 <f256main+0x16f7>
    7316: 4a           	lsr
    7317: 66 12        	ror	$12                     ; 0x2012 <f256main+0x16f6>
    7319: 66 13        	ror	$13                     ; 0x2013 <f256main+0x16f7>
    731b: 4a           	lsr
    731c: 85 14        	sta	$14                     ; 0x2014 <f256main+0x16f8>
    731e: 66 12        	ror	$12                     ; 0x2012 <f256main+0x16f6>
    7320: 66 13        	ror	$13                     ; 0x2013 <f256main+0x16f7>
    7322: a5 15        	lda	$15                     ; 0x2015 <f256main+0x16f9>
    7324: 05 13        	ora	$13                     ; 0x2013 <f256main+0x16f7>
    7326: 85 13        	sta	$13                     ; 0x2013 <f256main+0x16f7>
    7328: 98           	tya
    7329: 05 12        	ora	$12                     ; 0x2012 <f256main+0x16f6>
    732b: a8           	tay
    732c: a5 17        	lda	$17                     ; 0x2017 <f256main+0x16fb>
    732e: 05 14        	ora	$14                     ; 0x2014 <f256main+0x16f8>
    7330: 85 14        	sta	$14                     ; 0x2014 <f256main+0x16f8>
    7332: 84 12        	sty	$12                     ; 0x2012 <f256main+0x16f6>
    7334: a5 13        	lda	$13                     ; 0x2013 <f256main+0x16f7>
    7336: 05 12        	ora	$12                     ; 0x2012 <f256main+0x16f6>
    7338: 85 13        	sta	$13                     ; 0x2013 <f256main+0x16f7>
    733a: 98           	tya
    733b: 05 14        	ora	$14                     ; 0x2014 <f256main+0x16f8>
    733d: a8           	tay
    733e: a5 13        	lda	$13                     ; 0x2013 <f256main+0x16f7>
    7340: 05 14        	ora	$14                     ; 0x2014 <f256main+0x16f8>
    7342: 85 15        	sta	$15                     ; 0x2015 <f256main+0x16f9>
    7344: a5 14        	lda	$14                     ; 0x2014 <f256main+0x16f8>
    7346: 85 17        	sta	$17                     ; 0x2017 <f256main+0x16fb>
    7348: 46 14        	lsr	$14                     ; 0x2014 <f256main+0x16f8>
    734a: a5 15        	lda	$15                     ; 0x2015 <f256main+0x16f9>
    734c: 4a           	lsr
    734d: 29 55        	and	#$55
    734f: 85 12        	sta	$12                     ; 0x2012 <f256main+0x16f6>
    7351: 98           	tya
    7352: 4a           	lsr
    7353: 29 55        	and	#$55
    7355: 85 13        	sta	$13                     ; 0x2013 <f256main+0x16f7>
    7357: a5 14        	lda	$14                     ; 0x2014 <f256main+0x16f8>
    7359: 29 55        	and	#$55
    735b: 85 14        	sta	$14                     ; 0x2014 <f256main+0x16f8>
    735d: 38           	sec
    735e: a5 15        	lda	$15                     ; 0x2015 <f256main+0x16f9>
    7360: e5 12        	sbc	$12                     ; 0x2012 <f256main+0x16f6>
    7362: 85 12        	sta	$12                     ; 0x2012 <f256main+0x16f6>
    7364: 98           	tya
    7365: e5 13        	sbc	$13                     ; 0x2013 <f256main+0x16f7>
    7367: 85 13        	sta	$13                     ; 0x2013 <f256main+0x16f7>
    7369: a5 17        	lda	$17                     ; 0x2017 <f256main+0x16fb>
    736b: e5 14        	sbc	$14                     ; 0x2014 <f256main+0x16f8>
    736d: a8           	tay
    736e: a9 00        	lda	#$0
    7370: e9 00        	sbc	#$0
    7372: 85 15        	sta	$15                     ; 0x2015 <f256main+0x16f9>
    7374: a5 12        	lda	$12                     ; 0x2012 <f256main+0x16f6>
    7376: 85 17        	sta	$17                     ; 0x2017 <f256main+0x16fb>
    7378: 29 33        	and	#$33
    737a: 85 12        	sta	$12                     ; 0x2012 <f256main+0x16f6>
    737c: a5 13        	lda	$13                     ; 0x2013 <f256main+0x16f7>
    737e: 85 19        	sta	$19                     ; 0x2019 <f256main+0x16fd>
    7380: 29 33        	and	#$33
    7382: 85 13        	sta	$13                     ; 0x2013 <f256main+0x16f7>
    7384: 98           	tya
    7385: 29 33        	and	#$33
    7387: 85 14        	sta	$14                     ; 0x2014 <f256main+0x16f8>
    7389: a5 15        	lda	$15                     ; 0x2015 <f256main+0x16f9>
    738b: 4a           	lsr
    738c: 85 1b        	sta	$1b                     ; 0x201b <f256main+0x16ff>
    738e: 98           	tya
    738f: 4a           	lsr
    7390: 85 1a        	sta	$1a                     ; 0x201a <f256main+0x16fe>
    7392: 46 19        	lsr	$19                     ; 0x2019 <f256main+0x16fd>
    7394: a5 17        	lda	$17                     ; 0x2017 <f256main+0x16fb>
    7396: 4a           	lsr
    7397: 46 1b        	lsr	$1b                     ; 0x201b <f256main+0x16ff>
    7399: 46 1a        	lsr	$1a                     ; 0x201a <f256main+0x16fe>
    739b: a4 19        	ldy	$19                     ; 0x2019 <f256main+0x16fd>
    739d: 84 17        	sty	$17                     ; 0x2017 <f256main+0x16fb>
    739f: 46 17        	lsr	$17                     ; 0x2017 <f256main+0x16fb>
    73a1: 4a           	lsr
    73a2: 29 33        	and	#$33
    73a4: 85 1c        	sta	$1c                     ; 0x201c <f256main+0x1700>
    73a6: a5 17        	lda	$17                     ; 0x2017 <f256main+0x16fb>
    73a8: 29 33        	and	#$33
    73aa: a8           	tay
    73ab: a5 1a        	lda	$1a                     ; 0x201a <f256main+0x16fe>
    73ad: 29 33        	and	#$33
    73af: 85 17        	sta	$17                     ; 0x2017 <f256main+0x16fb>
    73b1: a5 1b        	lda	$1b                     ; 0x201b <f256main+0x16ff>
    73b3: 29 33        	and	#$33
    73b5: 85 19        	sta	$19                     ; 0x2019 <f256main+0x16fd>
    73b7: a5 15        	lda	$15                     ; 0x2015 <f256main+0x16f9>
    73b9: 29 33        	and	#$33
    73bb: 85 15        	sta	$15                     ; 0x2015 <f256main+0x16f9>
    73bd: 18           	clc
    73be: a5 1c        	lda	$1c                     ; 0x201c <f256main+0x1700>
    73c0: 65 12        	adc	$12                     ; 0x2012 <f256main+0x16f6>
    73c2: 85 12        	sta	$12                     ; 0x2012 <f256main+0x16f6>
    73c4: 98           	tya
    73c5: 65 13        	adc	$13                     ; 0x2013 <f256main+0x16f7>
    73c7: 85 13        	sta	$13                     ; 0x2013 <f256main+0x16f7>
    73c9: a5 17        	lda	$17                     ; 0x2017 <f256main+0x16fb>
    73cb: 65 14        	adc	$14                     ; 0x2014 <f256main+0x16f8>
    73cd: 85 14        	sta	$14                     ; 0x2014 <f256main+0x16f8>
    73cf: a5 19        	lda	$19                     ; 0x2019 <f256main+0x16fd>
    73d1: 65 15        	adc	$15                     ; 0x2015 <f256main+0x16f9>
    73d3: 85 15        	sta	$15                     ; 0x2015 <f256main+0x16f9>
    73d5: 4a           	lsr
    73d6: a8           	tay
    73d7: a5 14        	lda	$14                     ; 0x2014 <f256main+0x16f8>
    73d9: 6a           	ror
    73da: 5a           	phy
    73db: a4 13        	ldy	$13                     ; 0x2013 <f256main+0x16f7>
    73dd: 84 19        	sty	$19                     ; 0x2019 <f256main+0x16fd>
    73df: 66 19        	ror	$19                     ; 0x2019 <f256main+0x16fd>
    73e1: a4 12        	ldy	$12                     ; 0x2012 <f256main+0x16f6>
    73e3: 84 17        	sty	$17                     ; 0x2017 <f256main+0x16fb>
    73e5: 66 17        	ror	$17                     ; 0x2017 <f256main+0x16fb>
    73e7: a4 17        	ldy	$17                     ; 0x2017 <f256main+0x16fb>
    73e9: 84 1a        	sty	$1a                     ; 0x201a <f256main+0x16fe>
    73eb: 7a           	ply
    73ec: 84 17        	sty	$17                     ; 0x2017 <f256main+0x16fb>
    73ee: 46 17        	lsr	$17                     ; 0x2017 <f256main+0x16fb>
    73f0: 6a           	ror
    73f1: 66 19        	ror	$19                     ; 0x2019 <f256main+0x16fd>
    73f3: 66 1a        	ror	$1a                     ; 0x201a <f256main+0x16fe>
    73f5: 46 17        	lsr	$17                     ; 0x2017 <f256main+0x16fb>
    73f7: 6a           	ror
    73f8: 66 19        	ror	$19                     ; 0x2019 <f256main+0x16fd>
    73fa: 66 1a        	ror	$1a                     ; 0x201a <f256main+0x16fe>
    73fc: 46 17        	lsr	$17                     ; 0x2017 <f256main+0x16fb>
    73fe: 6a           	ror
    73ff: 85 1b        	sta	$1b                     ; 0x201b <f256main+0x16ff>
    7401: a4 19        	ldy	$19                     ; 0x2019 <f256main+0x16fd>
    7403: 84 1c        	sty	$1c                     ; 0x201c <f256main+0x1700>
    7405: 66 1c        	ror	$1c                     ; 0x201c <f256main+0x1700>
    7407: a5 1a        	lda	$1a                     ; 0x201a <f256main+0x16fe>
    7409: 6a           	ror
    740a: 18           	clc
    740b: 65 12        	adc	$12                     ; 0x2012 <f256main+0x16f6>
    740d: a8           	tay
    740e: a5 1c        	lda	$1c                     ; 0x201c <f256main+0x1700>
    7410: 65 13        	adc	$13                     ; 0x2013 <f256main+0x16f7>
    7412: 85 13        	sta	$13                     ; 0x2013 <f256main+0x16f7>
    7414: a5 1b        	lda	$1b                     ; 0x201b <f256main+0x16ff>
    7416: 65 14        	adc	$14                     ; 0x2014 <f256main+0x16f8>
    7418: 85 14        	sta	$14                     ; 0x2014 <f256main+0x16f8>
    741a: a5 17        	lda	$17                     ; 0x2017 <f256main+0x16fb>
    741c: 65 15        	adc	$15                     ; 0x2015 <f256main+0x16f9>
    741e: 85 15        	sta	$15                     ; 0x2015 <f256main+0x16f9>
    7420: 98           	tya
    7421: 29 0f        	and	#$f
    7423: 85 12        	sta	$12                     ; 0x2012 <f256main+0x16f6>
    7425: a8           	tay
    7426: a5 13        	lda	$13                     ; 0x2013 <f256main+0x16f7>
    7428: 29 0f        	and	#$f
    742a: 85 13        	sta	$13                     ; 0x2013 <f256main+0x16f7>
    742c: 85 1a        	sta	$1a                     ; 0x201a <f256main+0x16fe>
    742e: a5 14        	lda	$14                     ; 0x2014 <f256main+0x16f8>
    7430: 29 0f        	and	#$f
    7432: 85 14        	sta	$14                     ; 0x2014 <f256main+0x16f8>
    7434: 85 19        	sta	$19                     ; 0x2019 <f256main+0x16fd>
    7436: a5 15        	lda	$15                     ; 0x2015 <f256main+0x16f9>
    7438: 29 0f        	and	#$f
    743a: 85 17        	sta	$17                     ; 0x2017 <f256main+0x16fb>
    743c: 18           	clc
    743d: 98           	tya
    743e: 69 00        	adc	#$0
    7440: 85 15        	sta	$15                     ; 0x2015 <f256main+0x16f9>
    7442: 85 1b        	sta	$1b                     ; 0x201b <f256main+0x16ff>
    7444: a5 1a        	lda	$1a                     ; 0x201a <f256main+0x16fe>
    7446: 65 12        	adc	$12                     ; 0x2012 <f256main+0x16f6>
    7448: 85 12        	sta	$12                     ; 0x2012 <f256main+0x16f6>
    744a: a5 19        	lda	$19                     ; 0x2019 <f256main+0x16fd>
    744c: 65 13        	adc	$13                     ; 0x2013 <f256main+0x16f7>
    744e: 85 13        	sta	$13                     ; 0x2013 <f256main+0x16f7>
    7450: a5 17        	lda	$17                     ; 0x2017 <f256main+0x16fb>
    7452: 65 14        	adc	$14                     ; 0x2014 <f256main+0x16f8>
    7454: a8           	tay
    7455: 18           	clc
    7456: a5 1b        	lda	$1b                     ; 0x201b <f256main+0x16ff>
    7458: 69 00        	adc	#$0
    745a: a5 12        	lda	$12                     ; 0x2012 <f256main+0x16f6>
    745c: 69 00        	adc	#$0
    745e: a5 13        	lda	$13                     ; 0x2013 <f256main+0x16f7>
    7460: 65 15        	adc	$15                     ; 0x2015 <f256main+0x16f9>
    7462: 98           	tya
    7463: 65 12        	adc	$12                     ; 0x2012 <f256main+0x16f6>
    7465: 85 12        	sta	$12                     ; 0x2012 <f256main+0x16f6>
    7467: a9 20        	lda	#$20
    7469: 38           	sec
    746a: e5 12        	sbc	$12                     ; 0x2012 <f256main+0x16f6>
    746c: 85 8b        	sta	$8b                     ; 0x208b <f256main+0x176f>
    746e: a9 00        	lda	#$0
    7470: e9 00        	sbc	#$0
    7472: 85 8c        	sta	$8c                     ; 0x208c <f256main+0x1770>
    7474: a5 8b        	lda	$8b                     ; 0x208b <f256main+0x176f>
    7476: 18           	clc
    7477: 69 f8        	adc	#$f8
    7479: a4 16        	ldy	$16                     ; 0x2016 <f256main+0x16fa>
    747b: 84 12        	sty	$12                     ; 0x2012 <f256main+0x16f6>
    747d: 64 13        	stz	$13                     ; 0x2013 <f256main+0x16f7>
    747f: 85 14        	sta	$14                     ; 0x2014 <f256main+0x16f8>
    7481: a5 90        	lda	$90                     ; 0x2090 <f256main+0x1774>
    7483: 20 22 69     	jsr	$6922 <__ashlsi3>
    7486: 85 90        	sta	$90                     ; 0x2090 <f256main+0x1774>
    7488: 86 9a        	stx	$9a                     ; 0x209a <f256main+0x177e>
    748a: a6 12        	ldx	$12                     ; 0x2012 <f256main+0x16f6>
    748c: 86 16        	stx	$16                     ; 0x2016 <f256main+0x16fa>
    748e: a4 13        	ldy	$13                     ; 0x2013 <f256main+0x16f7>
    7490: a6 9e        	ldx	$9e                     ; 0x209e <f256main+0x1782>
    7492: 86 12        	stx	$12                     ; 0x2012 <f256main+0x16f6>
    7494: 18           	clc
    7495: a5 8b        	lda	$8b                     ; 0x208b <f256main+0x176f>
    7497: 65 12        	adc	$12                     ; 0x2012 <f256main+0x16f6>
    7499: 85 13        	sta	$13                     ; 0x2013 <f256main+0x16f7>
    749b: a6 9b        	ldx	$9b                     ; 0x209b <f256main+0x177f>
    749d: 86 12        	stx	$12                     ; 0x2012 <f256main+0x16f6>
    749f: a5 8c        	lda	$8c                     ; 0x208c <f256main+0x1770>
    74a1: 65 12        	adc	$12                     ; 0x2012 <f256main+0x16f6>
    74a3: 85 12        	sta	$12                     ; 0x2012 <f256main+0x16f6>
    74a5: 18           	clc
    74a6: a5 13        	lda	$13                     ; 0x2013 <f256main+0x16f7>
    74a8: 69 f7        	adc	#$f7
    74aa: 85 14        	sta	$14                     ; 0x2014 <f256main+0x16f8>
    74ac: a5 12        	lda	$12                     ; 0x2012 <f256main+0x16f6>
    74ae: 69 ff        	adc	#$ff
    74b0: 85 15        	sta	$15                     ; 0x2015 <f256main+0x16f9>
    74b2: a6 9d        	ldx	$9d                     ; 0x209d <f256main+0x1781>
    74b4: 86 12        	stx	$12                     ; 0x2012 <f256main+0x16f6>
    74b6: a5 16        	lda	$16                     ; 0x2016 <f256main+0x16fa>
    74b8: 09 80        	ora	#$80
    74ba: 38           	sec
    74bb: 85 8c        	sta	$8c                     ; 0x208c <f256main+0x1770>
    74bd: a5 97        	lda	$97                     ; 0x2097 <f256main+0x177b>
    74bf: e5 12        	sbc	$12                     ; 0x2012 <f256main+0x16f6>
    74c1: aa           	tax
    74c2: a9 00        	lda	#$0
    74c4: e9 00        	sbc	#$0
    74c6: 85 12        	sta	$12                     ; 0x2012 <f256main+0x16f6>
    74c8: 18           	clc
    74c9: 8a           	txa
    74ca: 65 14        	adc	$14                     ; 0x2014 <f256main+0x16f8>
    74cc: aa           	tax
    74cd: a5 12        	lda	$12                     ; 0x2012 <f256main+0x16f6>
    74cf: 65 15        	adc	$15                     ; 0x2015 <f256main+0x16f9>
    74d1: 85 12        	sta	$12                     ; 0x2012 <f256main+0x16f6>
    74d3: 18           	clc
    74d4: 8a           	txa
    74d5: 86 97        	stx	$97                     ; 0x2097 <f256main+0x177b>
    74d7: 69 7f        	adc	#$7f
    74d9: 85 a0        	sta	$a0                     ; 0x20a0 <f256main+0x1784>
    74db: a5 12        	lda	$12                     ; 0x2012 <f256main+0x16f6>
    74dd: a6 12        	ldx	$12                     ; 0x2012 <f256main+0x16f6>
    74df: 86 a4        	stx	$a4                     ; 0x20a4 <f256main+0x1788>
    74e1: 69 00        	adc	#$0
    74e3: 85 9f        	sta	$9f                     ; 0x209f <f256main+0x1783>
    74e5: a5 90        	lda	$90                     ; 0x2090 <f256main+0x1774>
    74e7: 85 9b        	sta	$9b                     ; 0x209b <f256main+0x177f>
    74e9: 06 90        	asl	$90                     ; 0x2090 <f256main+0x1774>
    74eb: a6 9a        	ldx	$9a                     ; 0x209a <f256main+0x177e>
    74ed: 86 8d        	stx	$8d                     ; 0x208d <f256main+0x1771>
    74ef: 26 8d        	rol	$8d                     ; 0x208d <f256main+0x1771>
    74f1: a6 8c        	ldx	$8c                     ; 0x208c <f256main+0x1770>
    74f3: 86 9e        	stx	$9e                     ; 0x209e <f256main+0x1782>
    74f5: 26 8c        	rol	$8c                     ; 0x208c <f256main+0x1770>
    74f7: 98           	tya
    74f8: 84 9d        	sty	$9d                     ; 0x209d <f256main+0x1781>
    74fa: 2a           	rol
    74fb: 85 a8        	sta	$a8                     ; 0x20a8 <f256main+0x178c>
    74fd: 4a           	lsr
    74fe: a6 8c        	ldx	$8c                     ; 0x208c <f256main+0x1770>
    7500: 86 a7        	stx	$a7                     ; 0x20a7 <f256main+0x178b>
    7502: 66 8c        	ror	$8c                     ; 0x208c <f256main+0x1770>
    7504: a6 8d        	ldx	$8d                     ; 0x208d <f256main+0x1771>
    7506: 86 a6        	stx	$a6                     ; 0x20a6 <f256main+0x178a>
    7508: 66 8d        	ror	$8d                     ; 0x208d <f256main+0x1771>
    750a: a6 90        	ldx	$90                     ; 0x2090 <f256main+0x1774>
    750c: 86 a5        	stx	$a5                     ; 0x20a5 <f256main+0x1789>
    750e: 66 90        	ror	$90                     ; 0x2090 <f256main+0x1774>
    7510: 64 91        	stz	$91                     ; 0x2091 <f256main+0x1775>
    7512: 66 91        	ror	$91                     ; 0x2091 <f256main+0x1775>
    7514: a9 33        	lda	#$33
    7516: 38           	sec
    7517: e5 91        	sbc	$91                     ; 0x2091 <f256main+0x1775>
    7519: 85 8b        	sta	$8b                     ; 0x208b <f256main+0x176f>
    751b: a9 f3        	lda	#$f3
    751d: e5 90        	sbc	$90                     ; 0x2090 <f256main+0x1774>
    751f: 85 92        	sta	$92                     ; 0x2092 <f256main+0x1776>
    7521: a9 04        	lda	#$4
    7523: e5 8d        	sbc	$8d                     ; 0x208d <f256main+0x1771>
    7525: 85 94        	sta	$94                     ; 0x2094 <f256main+0x1778>
    7527: a9 75        	lda	#$75
    7529: e5 8c        	sbc	$8c                     ; 0x208c <f256main+0x1770>
    752b: 85 95        	sta	$95                     ; 0x2095 <f256main+0x1779>
    752d: a6 99        	ldx	$99                     ; 0x2099 <f256main+0x177d>
    752f: 8a           	txa
    7530: 09 80        	ora	#$80
    7532: 85 8f        	sta	$8f                     ; 0x208f <f256main+0x1773>
    7534: 64 8e        	stz	$8e                     ; 0x208e <f256main+0x1772>
    7536: a6 94        	ldx	$94                     ; 0x2094 <f256main+0x1778>
    7538: 86 12        	stx	$12                     ; 0x2012 <f256main+0x16f6>
    753a: a6 95        	ldx	$95                     ; 0x2095 <f256main+0x1779>
    753c: 86 13        	stx	$13                     ; 0x2013 <f256main+0x16f7>
    753e: 64 14        	stz	$14                     ; 0x2014 <f256main+0x16f8>
    7540: 64 15        	stz	$15                     ; 0x2015 <f256main+0x16f9>
    7542: 64 16        	stz	$16                     ; 0x2016 <f256main+0x16fa>
    7544: 64 17        	stz	$17                     ; 0x2017 <f256main+0x16fb>
    7546: a6 91        	ldx	$91                     ; 0x2091 <f256main+0x1775>
    7548: 86 18        	stx	$18                     ; 0x2018 <f256main+0x16fc>
    754a: a6 90        	ldx	$90                     ; 0x2090 <f256main+0x1774>
    754c: 86 19        	stx	$19                     ; 0x2019 <f256main+0x16fd>
    754e: a6 8d        	ldx	$8d                     ; 0x208d <f256main+0x1771>
    7550: 86 1a        	stx	$1a                     ; 0x201a <f256main+0x16fe>
    7552: a6 8c        	ldx	$8c                     ; 0x208c <f256main+0x1770>
    7554: 86 1b        	stx	$1b                     ; 0x201b <f256main+0x16ff>
    7556: 64 1c        	stz	$1c                     ; 0x201c <f256main+0x1700>
    7558: 64 1d        	stz	$1d                     ; 0x201d <f256main+0x1701>
    755a: 64 1e        	stz	$1e                     ; 0x201e <f256main+0x1702>
    755c: 64 1f        	stz	$1f                     ; 0x201f <f256main+0x1703>
    755e: a6 92        	ldx	$92                     ; 0x2092 <f256main+0x1776>
    7560: a5 8b        	lda	$8b                     ; 0x208b <f256main+0x176f>
    7562: 20 0d 6a     	jsr	$6a0d <__muldi3>
    7565: a9 00        	lda	#$0
    7567: 38           	sec
    7568: e5 14        	sbc	$14                     ; 0x2014 <f256main+0x16f8>
    756a: a8           	tay
    756b: a9 00        	lda	#$0
    756d: e5 15        	sbc	$15                     ; 0x2015 <f256main+0x16f9>
    756f: aa           	tax
    7570: a9 00        	lda	#$0
    7572: e5 16        	sbc	$16                     ; 0x2016 <f256main+0x16fa>
    7574: 85 12        	sta	$12                     ; 0x2012 <f256main+0x16f6>
    7576: a9 00        	lda	#$0
    7578: e5 17        	sbc	$17                     ; 0x2017 <f256main+0x16fb>
    757a: 85 13        	sta	$13                     ; 0x2013 <f256main+0x16f7>
    757c: a5 8b        	lda	$8b                     ; 0x208b <f256main+0x176f>
    757e: 85 18        	sta	$18                     ; 0x2018 <f256main+0x16fc>
    7580: a5 92        	lda	$92                     ; 0x2092 <f256main+0x1776>
    7582: 85 19        	sta	$19                     ; 0x2019 <f256main+0x16fd>
    7584: a5 94        	lda	$94                     ; 0x2094 <f256main+0x1778>
    7586: 85 1a        	sta	$1a                     ; 0x201a <f256main+0x16fe>
    7588: a5 95        	lda	$95                     ; 0x2095 <f256main+0x1779>
    758a: 85 1b        	sta	$1b                     ; 0x201b <f256main+0x16ff>
    758c: 64 14        	stz	$14                     ; 0x2014 <f256main+0x16f8>
    758e: 64 15        	stz	$15                     ; 0x2015 <f256main+0x16f9>
    7590: 64 16        	stz	$16                     ; 0x2016 <f256main+0x16fa>
    7592: 64 17        	stz	$17                     ; 0x2017 <f256main+0x16fb>
    7594: 64 1c        	stz	$1c                     ; 0x201c <f256main+0x1700>
    7596: 64 1d        	stz	$1d                     ; 0x201d <f256main+0x1701>
    7598: 64 1e        	stz	$1e                     ; 0x201e <f256main+0x1702>
    759a: 64 1f        	stz	$1f                     ; 0x201f <f256main+0x1703>
    759c: 98           	tya
    759d: 20 0d 6a     	jsr	$6a0d <__muldi3>
    75a0: a6 14        	ldx	$14                     ; 0x2014 <f256main+0x16f8>
    75a2: 86 92        	stx	$92                     ; 0x2092 <f256main+0x1776>
    75a4: a6 15        	ldx	$15                     ; 0x2015 <f256main+0x16f9>
    75a6: 86 8b        	stx	$8b                     ; 0x208b <f256main+0x176f>
    75a8: a6 16        	ldx	$16                     ; 0x2016 <f256main+0x16fa>
    75aa: 86 94        	stx	$94                     ; 0x2094 <f256main+0x1778>
    75ac: a6 17        	ldx	$17                     ; 0x2017 <f256main+0x16fb>
    75ae: 86 95        	stx	$95                     ; 0x2095 <f256main+0x1779>
    75b0: 06 13        	asl	$13                     ; 0x2013 <f256main+0x16f7>
    75b2: 26 92        	rol	$92                     ; 0x2092 <f256main+0x1776>
    75b4: 26 8b        	rol	$8b                     ; 0x208b <f256main+0x176f>
    75b6: 26 94        	rol	$94                     ; 0x2094 <f256main+0x1778>
    75b8: 26 95        	rol	$95                     ; 0x2095 <f256main+0x1779>
    75ba: a6 94        	ldx	$94                     ; 0x2094 <f256main+0x1778>
    75bc: 86 12        	stx	$12                     ; 0x2012 <f256main+0x16f6>
    75be: a6 95        	ldx	$95                     ; 0x2095 <f256main+0x1779>
    75c0: 86 13        	stx	$13                     ; 0x2013 <f256main+0x16f7>
    75c2: 64 14        	stz	$14                     ; 0x2014 <f256main+0x16f8>
    75c4: 64 15        	stz	$15                     ; 0x2015 <f256main+0x16f9>
    75c6: 64 16        	stz	$16                     ; 0x2016 <f256main+0x16fa>
    75c8: 64 17        	stz	$17                     ; 0x2017 <f256main+0x16fb>
    75ca: a6 91        	ldx	$91                     ; 0x2091 <f256main+0x1775>
    75cc: 86 18        	stx	$18                     ; 0x2018 <f256main+0x16fc>
    75ce: a6 90        	ldx	$90                     ; 0x2090 <f256main+0x1774>
    75d0: 86 19        	stx	$19                     ; 0x2019 <f256main+0x16fd>
    75d2: a6 8d        	ldx	$8d                     ; 0x208d <f256main+0x1771>
    75d4: 86 1a        	stx	$1a                     ; 0x201a <f256main+0x16fe>
    75d6: a6 8c        	ldx	$8c                     ; 0x208c <f256main+0x1770>
    75d8: 86 1b        	stx	$1b                     ; 0x201b <f256main+0x16ff>
    75da: 64 1c        	stz	$1c                     ; 0x201c <f256main+0x1700>
    75dc: 64 1d        	stz	$1d                     ; 0x201d <f256main+0x1701>
    75de: 64 1e        	stz	$1e                     ; 0x201e <f256main+0x1702>
    75e0: 64 1f        	stz	$1f                     ; 0x201f <f256main+0x1703>
    75e2: a6 8b        	ldx	$8b                     ; 0x208b <f256main+0x176f>
    75e4: a5 92        	lda	$92                     ; 0x2092 <f256main+0x1776>
    75e6: 20 0d 6a     	jsr	$6a0d <__muldi3>
    75e9: a9 00        	lda	#$0
    75eb: 38           	sec
    75ec: e5 14        	sbc	$14                     ; 0x2014 <f256main+0x16f8>
    75ee: 85 18        	sta	$18                     ; 0x2018 <f256main+0x16fc>
    75f0: a9 00        	lda	#$0
    75f2: e5 15        	sbc	$15                     ; 0x2015 <f256main+0x16f9>
    75f4: 85 19        	sta	$19                     ; 0x2019 <f256main+0x16fd>
    75f6: a9 00        	lda	#$0
    75f8: e5 16        	sbc	$16                     ; 0x2016 <f256main+0x16fa>
    75fa: 85 1a        	sta	$1a                     ; 0x201a <f256main+0x16fe>
    75fc: a9 00        	lda	#$0
    75fe: e5 17        	sbc	$17                     ; 0x2017 <f256main+0x16fb>
    7600: a6 94        	ldx	$94                     ; 0x2094 <f256main+0x1778>
    7602: 86 12        	stx	$12                     ; 0x2012 <f256main+0x16f6>
    7604: a6 95        	ldx	$95                     ; 0x2095 <f256main+0x1779>
    7606: 86 13        	stx	$13                     ; 0x2013 <f256main+0x16f7>
    7608: 64 14        	stz	$14                     ; 0x2014 <f256main+0x16f8>
    760a: 64 15        	stz	$15                     ; 0x2015 <f256main+0x16f9>
    760c: 64 16        	stz	$16                     ; 0x2016 <f256main+0x16fa>
    760e: 64 17        	stz	$17                     ; 0x2017 <f256main+0x16fb>
    7610: 85 1b        	sta	$1b                     ; 0x201b <f256main+0x16ff>
    7612: 64 1c        	stz	$1c                     ; 0x201c <f256main+0x1700>
    7614: 64 1d        	stz	$1d                     ; 0x201d <f256main+0x1701>
    7616: 64 1e        	stz	$1e                     ; 0x201e <f256main+0x1702>
    7618: 64 1f        	stz	$1f                     ; 0x201f <f256main+0x1703>
    761a: a6 8b        	ldx	$8b                     ; 0x208b <f256main+0x176f>
    761c: a5 92        	lda	$92                     ; 0x2092 <f256main+0x1776>
    761e: 20 0d 6a     	jsr	$6a0d <__muldi3>
    7621: a6 14        	ldx	$14                     ; 0x2014 <f256main+0x16f8>
    7623: 86 92        	stx	$92                     ; 0x2092 <f256main+0x1776>
    7625: a6 15        	ldx	$15                     ; 0x2015 <f256main+0x16f9>
    7627: 86 8b        	stx	$8b                     ; 0x208b <f256main+0x176f>
    7629: a6 16        	ldx	$16                     ; 0x2016 <f256main+0x16fa>
    762b: 86 94        	stx	$94                     ; 0x2094 <f256main+0x1778>
    762d: a6 17        	ldx	$17                     ; 0x2017 <f256main+0x16fb>
    762f: 86 95        	stx	$95                     ; 0x2095 <f256main+0x1779>
    7631: 06 13        	asl	$13                     ; 0x2013 <f256main+0x16f7>
    7633: 26 92        	rol	$92                     ; 0x2092 <f256main+0x1776>
    7635: 26 8b        	rol	$8b                     ; 0x208b <f256main+0x176f>
    7637: 26 94        	rol	$94                     ; 0x2094 <f256main+0x1778>
    7639: 26 95        	rol	$95                     ; 0x2095 <f256main+0x1779>
    763b: a6 94        	ldx	$94                     ; 0x2094 <f256main+0x1778>
    763d: 86 12        	stx	$12                     ; 0x2012 <f256main+0x16f6>
    763f: a6 95        	ldx	$95                     ; 0x2095 <f256main+0x1779>
    7641: 86 13        	stx	$13                     ; 0x2013 <f256main+0x16f7>
    7643: 64 14        	stz	$14                     ; 0x2014 <f256main+0x16f8>
    7645: 64 15        	stz	$15                     ; 0x2015 <f256main+0x16f9>
    7647: 64 16        	stz	$16                     ; 0x2016 <f256main+0x16fa>
    7649: 64 17        	stz	$17                     ; 0x2017 <f256main+0x16fb>
    764b: a6 91        	ldx	$91                     ; 0x2091 <f256main+0x1775>
    764d: 86 18        	stx	$18                     ; 0x2018 <f256main+0x16fc>
    764f: a6 90        	ldx	$90                     ; 0x2090 <f256main+0x1774>
    7651: 86 19        	stx	$19                     ; 0x2019 <f256main+0x16fd>
    7653: a6 8d        	ldx	$8d                     ; 0x208d <f256main+0x1771>
    7655: 86 1a        	stx	$1a                     ; 0x201a <f256main+0x16fe>
    7657: a6 8c        	ldx	$8c                     ; 0x208c <f256main+0x1770>
    7659: 86 1b        	stx	$1b                     ; 0x201b <f256main+0x16ff>
    765b: 64 1c        	stz	$1c                     ; 0x201c <f256main+0x1700>
    765d: 64 1d        	stz	$1d                     ; 0x201d <f256main+0x1701>
    765f: 64 1e        	stz	$1e                     ; 0x201e <f256main+0x1702>
    7661: 64 1f        	stz	$1f                     ; 0x201f <f256main+0x1703>
    7663: a6 8b        	ldx	$8b                     ; 0x208b <f256main+0x176f>
    7665: a5 92        	lda	$92                     ; 0x2092 <f256main+0x1776>
    7667: 20 0d 6a     	jsr	$6a0d <__muldi3>
    766a: a9 00        	lda	#$0
    766c: 38           	sec
    766d: e5 14        	sbc	$14                     ; 0x2014 <f256main+0x16f8>
    766f: 85 18        	sta	$18                     ; 0x2018 <f256main+0x16fc>
    7671: a9 00        	lda	#$0
    7673: e5 15        	sbc	$15                     ; 0x2015 <f256main+0x16f9>
    7675: 85 19        	sta	$19                     ; 0x2019 <f256main+0x16fd>
    7677: a9 00        	lda	#$0
    7679: e5 16        	sbc	$16                     ; 0x2016 <f256main+0x16fa>
    767b: 85 1a        	sta	$1a                     ; 0x201a <f256main+0x16fe>
    767d: a9 00        	lda	#$0
    767f: e5 17        	sbc	$17                     ; 0x2017 <f256main+0x16fb>
    7681: a6 94        	ldx	$94                     ; 0x2094 <f256main+0x1778>
    7683: 86 12        	stx	$12                     ; 0x2012 <f256main+0x16f6>
    7685: a6 95        	ldx	$95                     ; 0x2095 <f256main+0x1779>
    7687: 86 13        	stx	$13                     ; 0x2013 <f256main+0x16f7>
    7689: 64 14        	stz	$14                     ; 0x2014 <f256main+0x16f8>
    768b: 64 15        	stz	$15                     ; 0x2015 <f256main+0x16f9>
    768d: 64 16        	stz	$16                     ; 0x2016 <f256main+0x16fa>
    768f: 64 17        	stz	$17                     ; 0x2017 <f256main+0x16fb>
    7691: 85 1b        	sta	$1b                     ; 0x201b <f256main+0x16ff>
    7693: 64 1c        	stz	$1c                     ; 0x201c <f256main+0x1700>
    7695: 64 1d        	stz	$1d                     ; 0x201d <f256main+0x1701>
    7697: 64 1e        	stz	$1e                     ; 0x201e <f256main+0x1702>
    7699: 64 1f        	stz	$1f                     ; 0x201f <f256main+0x1703>
    769b: a6 8b        	ldx	$8b                     ; 0x208b <f256main+0x176f>
    769d: a5 92        	lda	$92                     ; 0x2092 <f256main+0x1776>
    769f: 20 0d 6a     	jsr	$6a0d <__muldi3>
    76a2: a5 14        	lda	$14                     ; 0x2014 <f256main+0x16f8>
    76a4: 06 13        	asl	$13                     ; 0x2013 <f256main+0x16f7>
    76a6: 2a           	rol
    76a7: 26 15        	rol	$15                     ; 0x2015 <f256main+0x16f9>
    76a9: 26 16        	rol	$16                     ; 0x2016 <f256main+0x16fa>
    76ab: a6 17        	ldx	$17                     ; 0x2017 <f256main+0x16fb>
    76ad: 86 12        	stx	$12                     ; 0x2012 <f256main+0x16f6>
    76af: 26 12        	rol	$12                     ; 0x2012 <f256main+0x16f6>
    76b1: 18           	clc
    76b2: 69 f4        	adc	#$f4
    76b4: a8           	tay
    76b5: a5 15        	lda	$15                     ; 0x2015 <f256main+0x16f9>
    76b7: 69 ff        	adc	#$ff
    76b9: 85 22        	sta	$22                     ; 0x2022 <f256main+0x1706>
    76bb: a5 16        	lda	$16                     ; 0x2016 <f256main+0x16fa>
    76bd: 69 ff        	adc	#$ff
    76bf: 85 14        	sta	$14                     ; 0x2014 <f256main+0x16f8>
    76c1: a5 12        	lda	$12                     ; 0x2012 <f256main+0x16f6>
    76c3: 69 ff        	adc	#$ff
    76c5: a6 96        	ldx	$96                     ; 0x2096 <f256main+0x177a>
    76c7: 86 18        	stx	$18                     ; 0x2018 <f256main+0x16fc>
    76c9: 06 18        	asl	$18                     ; 0x2018 <f256main+0x16fc>
    76cb: a6 93        	ldx	$93                     ; 0x2093 <f256main+0x1777>
    76cd: 86 19        	stx	$19                     ; 0x2019 <f256main+0x16fd>
    76cf: 26 19        	rol	$19                     ; 0x2019 <f256main+0x16fd>
    76d1: a6 8f        	ldx	$8f                     ; 0x208f <f256main+0x1773>
    76d3: 86 8d        	stx	$8d                     ; 0x208d <f256main+0x1771>
    76d5: a6 8f        	ldx	$8f                     ; 0x208f <f256main+0x1773>
    76d7: 86 1a        	stx	$1a                     ; 0x201a <f256main+0x16fe>
    76d9: 26 1a        	rol	$1a                     ; 0x201a <f256main+0x16fe>
    76db: a6 9c        	ldx	$9c                     ; 0x209c <f256main+0x1780>
    76dd: 86 1b        	stx	$1b                     ; 0x201b <f256main+0x16ff>
    76df: 26 1b        	rol	$1b                     ; 0x201b <f256main+0x16ff>
    76e1: a6 14        	ldx	$14                     ; 0x2014 <f256main+0x16f8>
    76e3: 86 12        	stx	$12                     ; 0x2012 <f256main+0x16f6>
    76e5: 85 13        	sta	$13                     ; 0x2013 <f256main+0x16f7>
    76e7: 64 14        	stz	$14                     ; 0x2014 <f256main+0x16f8>
    76e9: 64 15        	stz	$15                     ; 0x2015 <f256main+0x16f9>
    76eb: 64 16        	stz	$16                     ; 0x2016 <f256main+0x16fa>
    76ed: 64 17        	stz	$17                     ; 0x2017 <f256main+0x16fb>
    76ef: a6 18        	ldx	$18                     ; 0x2018 <f256main+0x16fc>
    76f1: 86 99        	stx	$99                     ; 0x2099 <f256main+0x177d>
    76f3: a6 19        	ldx	$19                     ; 0x2019 <f256main+0x16fd>
    76f5: 86 a1        	stx	$a1                     ; 0x20a1 <f256main+0x1785>
    76f7: a6 1a        	ldx	$1a                     ; 0x201a <f256main+0x16fe>
    76f9: 86 a2        	stx	$a2                     ; 0x20a2 <f256main+0x1786>
    76fb: a6 1b        	ldx	$1b                     ; 0x201b <f256main+0x16ff>
    76fd: 86 a3        	stx	$a3                     ; 0x20a3 <f256main+0x1787>
    76ff: 64 1c        	stz	$1c                     ; 0x201c <f256main+0x1700>
    7701: 64 1d        	stz	$1d                     ; 0x201d <f256main+0x1701>
    7703: 64 1e        	stz	$1e                     ; 0x201e <f256main+0x1702>
    7705: 64 1f        	stz	$1f                     ; 0x201f <f256main+0x1703>
    7707: a6 22        	ldx	$22                     ; 0x2022 <f256main+0x1706>
    7709: 98           	tya
    770a: 20 0d 6a     	jsr	$6a0d <__muldi3>
    770d: a6 14        	ldx	$14                     ; 0x2014 <f256main+0x16f8>
    770f: 86 92        	stx	$92                     ; 0x2092 <f256main+0x1776>
    7711: a6 15        	ldx	$15                     ; 0x2015 <f256main+0x16f9>
    7713: 86 18        	stx	$18                     ; 0x2018 <f256main+0x16fc>
    7715: a6 16        	ldx	$16                     ; 0x2016 <f256main+0x16fa>
    7717: a4 17        	ldy	$17                     ; 0x2017 <f256main+0x16fb>
    7719: a5 93        	lda	$93                     ; 0x2093 <f256main+0x1777>
    771b: 4a           	lsr
    771c: a5 96        	lda	$96                     ; 0x2096 <f256main+0x177a>
    771e: 6a           	ror
    771f: 64 90        	stz	$90                     ; 0x2090 <f256main+0x1774>
    7721: 66 90        	ror	$90                     ; 0x2090 <f256main+0x1774>
    7723: 64 91        	stz	$91                     ; 0x2091 <f256main+0x1775>
    7725: 66 91        	ror	$91                     ; 0x2091 <f256main+0x1775>
    7727: 66 8e        	ror	$8e                     ; 0x208e <f256main+0x1772>
    7729: 86 12        	stx	$12                     ; 0x2012 <f256main+0x16f6>
    772b: 84 13        	sty	$13                     ; 0x2013 <f256main+0x16f7>
    772d: c0 01        	cpy	#$1
    772f: d0 18        	bne	$7749 <__divsf3+0x898>
    7731: e0 00        	cpx	#$0
    7733: d0 18        	bne	$774d <__divsf3+0x89c>
    7735: a6 9b        	ldx	$9b                     ; 0x209b <f256main+0x177f>
    7737: 86 14        	stx	$14                     ; 0x2014 <f256main+0x16f8>
    7739: a6 9e        	ldx	$9e                     ; 0x209e <f256main+0x1782>
    773b: 86 16        	stx	$16                     ; 0x2016 <f256main+0x16fa>
    773d: a6 18        	ldx	$18                     ; 0x2018 <f256main+0x16fc>
    773f: f0 03        	beq	$7744 <__divsf3+0x893>
    7741: 4c b7 77     	jmp	$77b7 <__divsf3+0x906>
    7744: a6 92        	ldx	$92                     ; 0x2092 <f256main+0x1776>
    7746: 4c b9 77     	jmp	$77b9 <__divsf3+0x908>
    7749: c0 01        	cpy	#$1
    774b: 80 02        	bra	$774f <__divsf3+0x89e>
    774d: e0 00        	cpx	#$0
    774f: a6 9b        	ldx	$9b                     ; 0x209b <f256main+0x177f>
    7751: 86 14        	stx	$14                     ; 0x2014 <f256main+0x16f8>
    7753: a6 9a        	ldx	$9a                     ; 0x209a <f256main+0x177e>
    7755: 86 15        	stx	$15                     ; 0x2015 <f256main+0x16f9>
    7757: a6 9e        	ldx	$9e                     ; 0x209e <f256main+0x1782>
    7759: 86 16        	stx	$16                     ; 0x2016 <f256main+0x16fa>
    775b: b0 03        	bcs	$7760 <__divsf3+0x8af>
    775d: 4c c4 77     	jmp	$77c4 <__divsf3+0x913>
    7760: 46 13        	lsr	$13                     ; 0x2013 <f256main+0x16f7>
    7762: 66 12        	ror	$12                     ; 0x2012 <f256main+0x16f6>
    7764: a6 18        	ldx	$18                     ; 0x2018 <f256main+0x16fc>
    7766: 86 8c        	stx	$8c                     ; 0x208c <f256main+0x1770>
    7768: 66 8c        	ror	$8c                     ; 0x208c <f256main+0x1770>
    776a: 66 92        	ror	$92                     ; 0x2092 <f256main+0x1776>
    776c: a6 12        	ldx	$12                     ; 0x2012 <f256main+0x16f6>
    776e: 86 8f        	stx	$8f                     ; 0x208f <f256main+0x1773>
    7770: a6 13        	ldx	$13                     ; 0x2013 <f256main+0x16f7>
    7772: 86 97        	stx	$97                     ; 0x2097 <f256main+0x177b>
    7774: a6 9d        	ldx	$9d                     ; 0x209d <f256main+0x1781>
    7776: 86 17        	stx	$17                     ; 0x2017 <f256main+0x16fb>
    7778: a6 8c        	ldx	$8c                     ; 0x208c <f256main+0x1770>
    777a: 85 94        	sta	$94                     ; 0x2094 <f256main+0x1778>
    777c: a5 92        	lda	$92                     ; 0x2092 <f256main+0x1776>
    777e: 20 9d 69     	jsr	$699d <__mulsi3>
    7781: 85 14        	sta	$14                     ; 0x2014 <f256main+0x16f8>
    7783: 86 15        	stx	$15                     ; 0x2015 <f256main+0x16f9>
    7785: 38           	sec
    7786: a5 8e        	lda	$8e                     ; 0x208e <f256main+0x1772>
    7788: e5 14        	sbc	$14                     ; 0x2014 <f256main+0x16f8>
    778a: 85 14        	sta	$14                     ; 0x2014 <f256main+0x16f8>
    778c: a5 91        	lda	$91                     ; 0x2091 <f256main+0x1775>
    778e: e5 15        	sbc	$15                     ; 0x2015 <f256main+0x16f9>
    7790: 85 1d        	sta	$1d                     ; 0x201d <f256main+0x1701>
    7792: a5 90        	lda	$90                     ; 0x2090 <f256main+0x1774>
    7794: e5 12        	sbc	$12                     ; 0x2012 <f256main+0x16f6>
    7796: 85 1c        	sta	$1c                     ; 0x201c <f256main+0x1700>
    7798: a5 94        	lda	$94                     ; 0x2094 <f256main+0x1778>
    779a: e5 13        	sbc	$13                     ; 0x2013 <f256main+0x16f7>
    779c: 85 1b        	sta	$1b                     ; 0x201b <f256main+0x16ff>
    779e: a6 92        	ldx	$92                     ; 0x2092 <f256main+0x1776>
    77a0: 86 15        	stx	$15                     ; 0x2015 <f256main+0x16f9>
    77a2: a6 8c        	ldx	$8c                     ; 0x208c <f256main+0x1770>
    77a4: 86 16        	stx	$16                     ; 0x2016 <f256main+0x16fa>
    77a6: a6 93        	ldx	$93                     ; 0x2093 <f256main+0x1777>
    77a8: 86 18        	stx	$18                     ; 0x2018 <f256main+0x16fc>
    77aa: a6 a0        	ldx	$a0                     ; 0x20a0 <f256main+0x1784>
    77ac: 86 12        	stx	$12                     ; 0x2012 <f256main+0x16f6>
    77ae: a6 9c        	ldx	$9c                     ; 0x209c <f256main+0x1780>
    77b0: 86 1a        	stx	$1a                     ; 0x201a <f256main+0x16fe>
    77b2: a5 9f        	lda	$9f                     ; 0x209f <f256main+0x1783>
    77b4: 4c 6d 78     	jmp	$786d <__divsf3+0x9bc>
    77b7: a6 15        	ldx	$15                     ; 0x2015 <f256main+0x16f9>
    77b9: e0 00        	cpx	#$0
    77bb: a6 9a        	ldx	$9a                     ; 0x209a <f256main+0x177e>
    77bd: 86 15        	stx	$15                     ; 0x2015 <f256main+0x16f9>
    77bf: 90 03        	bcc	$77c4 <__divsf3+0x913>
    77c1: 4c 60 77     	jmp	$7760 <__divsf3+0x8af>
    77c4: a6 9d        	ldx	$9d                     ; 0x209d <f256main+0x1781>
    77c6: 86 17        	stx	$17                     ; 0x2017 <f256main+0x16fb>
    77c8: a6 13        	ldx	$13                     ; 0x2013 <f256main+0x16f7>
    77ca: d0 11        	bne	$77dd <__divsf3+0x92c>
    77cc: a6 12        	ldx	$12                     ; 0x2012 <f256main+0x16f6>
    77ce: e0 80        	cpx	#$80
    77d0: d0 1f        	bne	$77f1 <__divsf3+0x940>
    77d2: a6 18        	ldx	$18                     ; 0x2018 <f256main+0x16fc>
    77d4: f0 03        	beq	$77d9 <__divsf3+0x928>
    77d6: 4c d9 79     	jmp	$79d9 <__divsf3+0xb28>
    77d9: a6 92        	ldx	$92                     ; 0x2092 <f256main+0x1776>
    77db: 80 02        	bra	$77df <__divsf3+0x92e>
    77dd: a6 13        	ldx	$13                     ; 0x2013 <f256main+0x16f7>
    77df: e0 00        	cpx	#$0
    77e1: 90 12        	bcc	$77f5 <__divsf3+0x944>
    77e3: a6 9f        	ldx	$9f                     ; 0x209f <f256main+0x1783>
    77e5: 86 8b        	stx	$8b                     ; 0x208b <f256main+0x176f>
    77e7: a6 a0        	ldx	$a0                     ; 0x20a0 <f256main+0x1784>
    77e9: 86 8c        	stx	$8c                     ; 0x208c <f256main+0x1770>
    77eb: a6 18        	ldx	$18                     ; 0x2018 <f256main+0x16fc>
    77ed: 86 8d        	stx	$8d                     ; 0x208d <f256main+0x1771>
    77ef: 80 1f        	bra	$7810 <__divsf3+0x95f>
    77f1: e0 80        	cpx	#$80
    77f3: b0 ee        	bcs	$77e3 <__divsf3+0x932>
    77f5: aa           	tax
    77f6: 06 92        	asl	$92                     ; 0x2092 <f256main+0x1776>
    77f8: a4 18        	ldy	$18                     ; 0x2018 <f256main+0x16fc>
    77fa: 84 8d        	sty	$8d                     ; 0x208d <f256main+0x1771>
    77fc: 26 8d        	rol	$8d                     ; 0x208d <f256main+0x1771>
    77fe: 26 12        	rol	$12                     ; 0x2012 <f256main+0x16f6>
    7800: 26 13        	rol	$13                     ; 0x2013 <f256main+0x16f7>
    7802: a5 97        	lda	$97                     ; 0x2097 <f256main+0x177b>
    7804: 18           	clc
    7805: 69 7e        	adc	#$7e
    7807: 85 8c        	sta	$8c                     ; 0x208c <f256main+0x1770>
    7809: a5 a4        	lda	$a4                     ; 0x20a4 <f256main+0x1788>
    780b: 69 00        	adc	#$0
    780d: 85 8b        	sta	$8b                     ; 0x208b <f256main+0x176f>
    780f: 8a           	txa
    7810: 06 8e        	asl	$8e                     ; 0x208e <f256main+0x1772>
    7812: 26 91        	rol	$91                     ; 0x2091 <f256main+0x1775>
    7814: 26 90        	rol	$90                     ; 0x2090 <f256main+0x1774>
    7816: 2a           	rol
    7817: a6 12        	ldx	$12                     ; 0x2012 <f256main+0x16f6>
    7819: 86 8f        	stx	$8f                     ; 0x208f <f256main+0x1773>
    781b: a6 13        	ldx	$13                     ; 0x2013 <f256main+0x16f7>
    781d: 86 97        	stx	$97                     ; 0x2097 <f256main+0x177b>
    781f: a6 8d        	ldx	$8d                     ; 0x208d <f256main+0x1771>
    7821: 85 93        	sta	$93                     ; 0x2093 <f256main+0x1777>
    7823: a5 92        	lda	$92                     ; 0x2092 <f256main+0x1776>
    7825: 20 9d 69     	jsr	$699d <__mulsi3>
    7828: 85 14        	sta	$14                     ; 0x2014 <f256main+0x16f8>
    782a: 86 15        	stx	$15                     ; 0x2015 <f256main+0x16f9>
    782c: 38           	sec
    782d: a5 8e        	lda	$8e                     ; 0x208e <f256main+0x1772>
    782f: e5 14        	sbc	$14                     ; 0x2014 <f256main+0x16f8>
    7831: 85 14        	sta	$14                     ; 0x2014 <f256main+0x16f8>
    7833: a5 91        	lda	$91                     ; 0x2091 <f256main+0x1775>
    7835: e5 15        	sbc	$15                     ; 0x2015 <f256main+0x16f9>
    7837: 85 1d        	sta	$1d                     ; 0x201d <f256main+0x1701>
    7839: a5 90        	lda	$90                     ; 0x2090 <f256main+0x1774>
    783b: e5 12        	sbc	$12                     ; 0x2012 <f256main+0x16f6>
    783d: 85 1c        	sta	$1c                     ; 0x201c <f256main+0x1700>
    783f: a5 93        	lda	$93                     ; 0x2093 <f256main+0x1777>
    7841: e5 13        	sbc	$13                     ; 0x2013 <f256main+0x16f7>
    7843: 85 1b        	sta	$1b                     ; 0x201b <f256main+0x16ff>
    7845: a6 92        	ldx	$92                     ; 0x2092 <f256main+0x1776>
    7847: 86 15        	stx	$15                     ; 0x2015 <f256main+0x16f9>
    7849: a6 8d        	ldx	$8d                     ; 0x208d <f256main+0x1771>
    784b: 86 16        	stx	$16                     ; 0x2016 <f256main+0x16fa>
    784d: a2 ff        	ldx	#$ff
    784f: c6 8c        	dec	$8c                     ; 0x208c <f256main+0x1770>
    7851: e4 8c        	cpx	$8c                     ; 0x208c <f256main+0x1770>
    7853: d0 02        	bne	$7857 <__divsf3+0x9a6>
    7855: c6 8b        	dec	$8b                     ; 0x208b <f256main+0x176f>
    7857: a6 8c        	ldx	$8c                     ; 0x208c <f256main+0x1770>
    7859: 86 12        	stx	$12                     ; 0x2012 <f256main+0x16f6>
    785b: a6 99        	ldx	$99                     ; 0x2099 <f256main+0x177d>
    785d: 86 96        	stx	$96                     ; 0x2096 <f256main+0x177a>
    785f: a6 a1        	ldx	$a1                     ; 0x20a1 <f256main+0x1785>
    7861: 86 18        	stx	$18                     ; 0x2018 <f256main+0x16fc>
    7863: a6 a2        	ldx	$a2                     ; 0x20a2 <f256main+0x1786>
    7865: 86 8d        	stx	$8d                     ; 0x208d <f256main+0x1771>
    7867: a6 a3        	ldx	$a3                     ; 0x20a3 <f256main+0x1787>
    7869: 86 1a        	stx	$1a                     ; 0x201a <f256main+0x16fe>
    786b: a5 8b        	lda	$8b                     ; 0x208b <f256main+0x176f>
    786d: a6 12        	ldx	$12                     ; 0x2012 <f256main+0x16f6>
    786f: e0 ff        	cpx	#$ff
    7871: 85 13        	sta	$13                     ; 0x2013 <f256main+0x16f7>
    7873: e9 00        	sbc	#$0
    7875: 50 02        	bvc	$7879 <__divsf3+0x9c8>
    7877: 49 80        	eor	#$80
    7879: a4 9b        	ldy	$9b                     ; 0x209b <f256main+0x177f>
    787b: aa           	tax
    787c: 30 0d        	bmi	$788b <__divsf3+0x9da>
    787e: a5 98        	lda	$98                     ; 0x2098 <f256main+0x177c>
    7880: 09 7f        	ora	#$7f
    7882: 64 96        	stz	$96                     ; 0x2096 <f256main+0x177a>
    7884: 64 93        	stz	$93                     ; 0x2093 <f256main+0x1777>
    7886: a0 80        	ldy	#$80
    7888: 4c 0c 7a     	jmp	$7a0c <__divsf3+0xb5b>
    788b: a6 12        	ldx	$12                     ; 0x2012 <f256main+0x16f6>
    788d: e0 01        	cpx	#$1
    788f: a5 13        	lda	$13                     ; 0x2013 <f256main+0x16f7>
    7891: e9 00        	sbc	#$0
    7893: 50 02        	bvc	$7897 <__divsf3+0x9e6>
    7895: 49 80        	eor	#$80
    7897: a6 9a        	ldx	$9a                     ; 0x209a <f256main+0x177e>
    7899: c9 00        	cmp	#$0
    789b: 30 3e        	bmi	$78db <__divsf3+0xa2a>
    789d: 86 18        	stx	$18                     ; 0x2018 <f256main+0x16fc>
    789f: a5 8f        	lda	$8f                     ; 0x208f <f256main+0x1773>
    78a1: 29 7f        	and	#$7f
    78a3: 85 17        	sta	$17                     ; 0x2017 <f256main+0x16fb>
    78a5: 46 13        	lsr	$13                     ; 0x2013 <f256main+0x16f7>
    78a7: 66 12        	ror	$12                     ; 0x2012 <f256main+0x16f6>
    78a9: a6 12        	ldx	$12                     ; 0x2012 <f256main+0x16f6>
    78ab: 86 8b        	stx	$8b                     ; 0x208b <f256main+0x176f>
    78ad: 64 19        	stz	$19                     ; 0x2019 <f256main+0x16fd>
    78af: 66 19        	ror	$19                     ; 0x2019 <f256main+0x16fd>
    78b1: 64 1a        	stz	$1a                     ; 0x201a <f256main+0x16fe>
    78b3: 66 1a        	ror	$1a                     ; 0x201a <f256main+0x16fe>
    78b5: a9 00        	lda	#$0
    78b7: 6a           	ror
    78b8: 06 14        	asl	$14                     ; 0x2014 <f256main+0x16f8>
    78ba: a6 1d        	ldx	$1d                     ; 0x201d <f256main+0x1701>
    78bc: 86 12        	stx	$12                     ; 0x2012 <f256main+0x16f6>
    78be: 26 12        	rol	$12                     ; 0x2012 <f256main+0x16f6>
    78c0: a6 1c        	ldx	$1c                     ; 0x201c <f256main+0x1700>
    78c2: 86 13        	stx	$13                     ; 0x2013 <f256main+0x16f7>
    78c4: 26 13        	rol	$13                     ; 0x2013 <f256main+0x16f7>
    78c6: 26 1b        	rol	$1b                     ; 0x201b <f256main+0x16ff>
    78c8: 05 15        	ora	$15                     ; 0x2015 <f256main+0x16f9>
    78ca: 85 8e        	sta	$8e                     ; 0x208e <f256main+0x1772>
    78cc: a5 1a        	lda	$1a                     ; 0x201a <f256main+0x16fe>
    78ce: 05 16        	ora	$16                     ; 0x2016 <f256main+0x16fa>
    78d0: 85 8c        	sta	$8c                     ; 0x208c <f256main+0x1770>
    78d2: a5 19        	lda	$19                     ; 0x2019 <f256main+0x16fd>
    78d4: 05 17        	ora	$17                     ; 0x2017 <f256main+0x16fb>
    78d6: 85 97        	sta	$97                     ; 0x2097 <f256main+0x177b>
    78d8: 4c a0 79     	jmp	$79a0 <__divsf3+0xaef>
    78db: a6 12        	ldx	$12                     ; 0x2012 <f256main+0x16f6>
    78dd: e0 e9        	cpx	#$e9
    78df: a5 13        	lda	$13                     ; 0x2013 <f256main+0x16f7>
    78e1: e9 ff        	sbc	#$ff
    78e3: 50 02        	bvc	$78e7 <__divsf3+0xa36>
    78e5: 49 80        	eor	#$80
    78e7: aa           	tax
    78e8: 10 0b        	bpl	$78f5 <__divsf3+0xa44>
    78ea: 64 96        	stz	$96                     ; 0x2096 <f256main+0x177a>
    78ec: 64 93        	stz	$93                     ; 0x2093 <f256main+0x1777>
    78ee: a0 00        	ldy	#$0
    78f0: a5 98        	lda	$98                     ; 0x2098 <f256main+0x177c>
    78f2: 4c 0c 7a     	jmp	$7a0c <__divsf3+0xb5b>
    78f5: 18           	clc
    78f6: a5 12        	lda	$12                     ; 0x2012 <f256main+0x16f6>
    78f8: 69 17        	adc	#$17
    78fa: 85 8e        	sta	$8e                     ; 0x208e <f256main+0x1772>
    78fc: a9 01        	lda	#$1
    78fe: 38           	sec
    78ff: e5 12        	sbc	$12                     ; 0x2012 <f256main+0x16f6>
    7901: a6 8f        	ldx	$8f                     ; 0x208f <f256main+0x1773>
    7903: 86 12        	stx	$12                     ; 0x2012 <f256main+0x16f6>
    7905: a6 97        	ldx	$97                     ; 0x2097 <f256main+0x177b>
    7907: 86 13        	stx	$13                     ; 0x2013 <f256main+0x16f7>
    7909: 85 14        	sta	$14                     ; 0x2014 <f256main+0x16f8>
    790b: a6 16        	ldx	$16                     ; 0x2016 <f256main+0x16fa>
    790d: a4 18        	ldy	$18                     ; 0x2018 <f256main+0x16fc>
    790f: 84 90        	sty	$90                     ; 0x2090 <f256main+0x1774>
    7911: a4 8d        	ldy	$8d                     ; 0x208d <f256main+0x1771>
    7913: 84 92        	sty	$92                     ; 0x2092 <f256main+0x1776>
    7915: a4 1a        	ldy	$1a                     ; 0x201a <f256main+0x16fe>
    7917: 84 91        	sty	$91                     ; 0x2091 <f256main+0x1775>
    7919: a5 15        	lda	$15                     ; 0x2015 <f256main+0x16f9>
    791b: 20 39 69     	jsr	$6939 <__lshrsi3>
    791e: 85 8c        	sta	$8c                     ; 0x208c <f256main+0x1770>
    7920: 86 8b        	stx	$8b                     ; 0x208b <f256main+0x176f>
    7922: a6 12        	ldx	$12                     ; 0x2012 <f256main+0x16f6>
    7924: 86 93        	stx	$93                     ; 0x2093 <f256main+0x1777>
    7926: a6 13        	ldx	$13                     ; 0x2013 <f256main+0x16f7>
    7928: 86 8d        	stx	$8d                     ; 0x208d <f256main+0x1771>
    792a: a6 92        	ldx	$92                     ; 0x2092 <f256main+0x1776>
    792c: 86 12        	stx	$12                     ; 0x2012 <f256main+0x16f6>
    792e: a6 91        	ldx	$91                     ; 0x2091 <f256main+0x1775>
    7930: 86 13        	stx	$13                     ; 0x2013 <f256main+0x16f7>
    7932: a6 8e        	ldx	$8e                     ; 0x208e <f256main+0x1772>
    7934: 86 14        	stx	$14                     ; 0x2014 <f256main+0x16f8>
    7936: a6 90        	ldx	$90                     ; 0x2090 <f256main+0x1774>
    7938: a5 96        	lda	$96                     ; 0x2096 <f256main+0x177a>
    793a: 20 22 69     	jsr	$6922 <__ashlsi3>
    793d: 85 91        	sta	$91                     ; 0x2091 <f256main+0x1775>
    793f: 86 90        	stx	$90                     ; 0x2090 <f256main+0x1774>
    7941: a6 12        	ldx	$12                     ; 0x2012 <f256main+0x16f6>
    7943: 86 8f        	stx	$8f                     ; 0x208f <f256main+0x1773>
    7945: a6 13        	ldx	$13                     ; 0x2013 <f256main+0x16f7>
    7947: 86 92        	stx	$92                     ; 0x2092 <f256main+0x1776>
    7949: a6 a7        	ldx	$a7                     ; 0x20a7 <f256main+0x178b>
    794b: 86 12        	stx	$12                     ; 0x2012 <f256main+0x16f6>
    794d: a6 a8        	ldx	$a8                     ; 0x20a8 <f256main+0x178c>
    794f: 86 13        	stx	$13                     ; 0x2013 <f256main+0x16f7>
    7951: a6 8c        	ldx	$8c                     ; 0x208c <f256main+0x1770>
    7953: 86 8e        	stx	$8e                     ; 0x208e <f256main+0x1772>
    7955: a6 8c        	ldx	$8c                     ; 0x208c <f256main+0x1770>
    7957: 86 14        	stx	$14                     ; 0x2014 <f256main+0x16f8>
    7959: a6 8b        	ldx	$8b                     ; 0x208b <f256main+0x176f>
    795b: 86 8c        	stx	$8c                     ; 0x208c <f256main+0x1770>
    795d: a6 8b        	ldx	$8b                     ; 0x208b <f256main+0x176f>
    795f: 86 15        	stx	$15                     ; 0x2015 <f256main+0x16f9>
    7961: a6 93        	ldx	$93                     ; 0x2093 <f256main+0x1777>
    7963: 86 97        	stx	$97                     ; 0x2097 <f256main+0x177b>
    7965: a6 93        	ldx	$93                     ; 0x2093 <f256main+0x1777>
    7967: 86 16        	stx	$16                     ; 0x2016 <f256main+0x16fa>
    7969: a6 8d        	ldx	$8d                     ; 0x208d <f256main+0x1771>
    796b: 86 8b        	stx	$8b                     ; 0x208b <f256main+0x176f>
    796d: a6 8d        	ldx	$8d                     ; 0x208d <f256main+0x1771>
    796f: 86 17        	stx	$17                     ; 0x2017 <f256main+0x16fb>
    7971: a6 a6        	ldx	$a6                     ; 0x20a6 <f256main+0x178a>
    7973: a5 a5        	lda	$a5                     ; 0x20a5 <f256main+0x1789>
    7975: 20 9d 69     	jsr	$699d <__mulsi3>
    7978: a4 9b        	ldy	$9b                     ; 0x209b <f256main+0x177f>
    797a: 85 14        	sta	$14                     ; 0x2014 <f256main+0x16f8>
    797c: 86 15        	stx	$15                     ; 0x2015 <f256main+0x16f9>
    797e: 38           	sec
    797f: a5 91        	lda	$91                     ; 0x2091 <f256main+0x1775>
    7981: e5 14        	sbc	$14                     ; 0x2014 <f256main+0x16f8>
    7983: 85 14        	sta	$14                     ; 0x2014 <f256main+0x16f8>
    7985: a5 90        	lda	$90                     ; 0x2090 <f256main+0x1774>
    7987: e5 15        	sbc	$15                     ; 0x2015 <f256main+0x16f9>
    7989: aa           	tax
    798a: a5 8f        	lda	$8f                     ; 0x208f <f256main+0x1773>
    798c: e5 12        	sbc	$12                     ; 0x2012 <f256main+0x16f6>
    798e: 85 15        	sta	$15                     ; 0x2015 <f256main+0x16f9>
    7990: a5 92        	lda	$92                     ; 0x2092 <f256main+0x1776>
    7992: e5 13        	sbc	$13                     ; 0x2013 <f256main+0x16f7>
    7994: 85 1b        	sta	$1b                     ; 0x201b <f256main+0x16ff>
    7996: 86 12        	stx	$12                     ; 0x2012 <f256main+0x16f6>
    7998: a6 15        	ldx	$15                     ; 0x2015 <f256main+0x16f9>
    799a: 86 13        	stx	$13                     ; 0x2013 <f256main+0x16f7>
    799c: a6 9a        	ldx	$9a                     ; 0x209a <f256main+0x177e>
    799e: 86 18        	stx	$18                     ; 0x2018 <f256main+0x16fc>
    79a0: a5 8e        	lda	$8e                     ; 0x208e <f256main+0x1772>
    79a2: 85 15        	sta	$15                     ; 0x2015 <f256main+0x16f9>
    79a4: 29 01        	and	#$1
    79a6: 18           	clc
    79a7: 65 14        	adc	$14                     ; 0x2014 <f256main+0x16f8>
    79a9: 85 16        	sta	$16                     ; 0x2016 <f256main+0x16fa>
    79ab: 64 14        	stz	$14                     ; 0x2014 <f256main+0x16f8>
    79ad: a9 00        	lda	#$0
    79af: 65 12        	adc	$12                     ; 0x2012 <f256main+0x16f6>
    79b1: 85 17        	sta	$17                     ; 0x2017 <f256main+0x16fb>
    79b3: a9 00        	lda	#$0
    79b5: 65 13        	adc	$13                     ; 0x2013 <f256main+0x16f7>
    79b7: 85 13        	sta	$13                     ; 0x2013 <f256main+0x16f7>
    79b9: a5 1b        	lda	$1b                     ; 0x201b <f256main+0x16ff>
    79bb: 65 14        	adc	$14                     ; 0x2014 <f256main+0x16f8>
    79bd: 85 12        	sta	$12                     ; 0x2012 <f256main+0x16f6>
    79bf: a6 9d        	ldx	$9d                     ; 0x209d <f256main+0x1781>
    79c1: e4 12        	cpx	$12                     ; 0x2012 <f256main+0x16f6>
    79c3: d0 1d        	bne	$79e2 <__divsf3+0xb31>
    79c5: a6 9e        	ldx	$9e                     ; 0x209e <f256main+0x1782>
    79c7: e4 13        	cpx	$13                     ; 0x2013 <f256main+0x16f7>
    79c9: d0 0a        	bne	$79d5 <__divsf3+0xb24>
    79cb: a6 18        	ldx	$18                     ; 0x2018 <f256main+0x16fc>
    79cd: e4 17        	cpx	$17                     ; 0x2017 <f256main+0x16fb>
    79cf: d0 0d        	bne	$79de <__divsf3+0xb2d>
    79d1: c4 16        	cpy	$16                     ; 0x2016 <f256main+0x16fa>
    79d3: 80 0f        	bra	$79e4 <__divsf3+0xb33>
    79d5: a4 13        	ldy	$13                     ; 0x2013 <f256main+0x16f7>
    79d7: 80 07        	bra	$79e0 <__divsf3+0xb2f>
    79d9: a6 18        	ldx	$18                     ; 0x2018 <f256main+0x16fc>
    79db: 4c df 77     	jmp	$77df <__divsf3+0x92e>
    79de: a4 17        	ldy	$17                     ; 0x2017 <f256main+0x16fb>
    79e0: 84 12        	sty	$12                     ; 0x2012 <f256main+0x16f6>
    79e2: e4 12        	cpx	$12                     ; 0x2012 <f256main+0x16f6>
    79e4: 64 12        	stz	$12                     ; 0x2012 <f256main+0x16f6>
    79e6: a5 97        	lda	$97                     ; 0x2097 <f256main+0x177b>
    79e8: 85 13        	sta	$13                     ; 0x2013 <f256main+0x16f7>
    79ea: b0 04        	bcs	$79f0 <__divsf3+0xb3f>
    79ec: a2 01        	ldx	#$1
    79ee: 86 12        	stx	$12                     ; 0x2012 <f256main+0x16f6>
    79f0: a5 15        	lda	$15                     ; 0x2015 <f256main+0x16f9>
    79f2: 18           	clc
    79f3: 65 12        	adc	$12                     ; 0x2012 <f256main+0x16f6>
    79f5: 85 96        	sta	$96                     ; 0x2096 <f256main+0x177a>
    79f7: a5 8c        	lda	$8c                     ; 0x208c <f256main+0x1770>
    79f9: 69 00        	adc	#$0
    79fb: 85 93        	sta	$93                     ; 0x2093 <f256main+0x1777>
    79fd: a5 13        	lda	$13                     ; 0x2013 <f256main+0x16f7>
    79ff: 69 00        	adc	#$0
    7a01: a8           	tay
    7a02: a5 8b        	lda	$8b                     ; 0x208b <f256main+0x176f>
    7a04: 69 00        	adc	#$0
    7a06: a6 98        	ldx	$98                     ; 0x2098 <f256main+0x177c>
    7a08: 86 12        	stx	$12                     ; 0x2012 <f256main+0x16f6>
    7a0a: 05 12        	ora	$12                     ; 0x2012 <f256main+0x16f6>
    7a0c: 84 12        	sty	$12                     ; 0x2012 <f256main+0x16f6>
    7a0e: 85 13        	sta	$13                     ; 0x2013 <f256main+0x16f7>
    7a10: a6 93        	ldx	$93                     ; 0x2093 <f256main+0x1777>
    7a12: a5 96        	lda	$96                     ; 0x2096 <f256main+0x177a>
    7a14: 60           	rts
    7a15: 86 9a        	stx	$9a                     ; 0x209a <f256main+0x177e>
    7a17: a4 8b        	ldy	$8b                     ; 0x208b <f256main+0x176f>
    7a19: 84 16        	sty	$16                     ; 0x2016 <f256main+0x16fa>
    7a1b: e0 00        	cpx	#$0
    7a1d: 90 03        	bcc	$7a22 <__divsf3+0xb71>
    7a1f: 4c a1 72     	jmp	$72a1 <__divsf3+0x3f0>
    7a22: 4c b0 72     	jmp	$72b0 <__divsf3+0x3ff>
    7a25: a5 8e        	lda	$8e                     ; 0x208e <f256main+0x1772>
    7a27: f0 03        	beq	$7a2c <__divsf3+0xb7b>
    7a29: 4c ea 78     	jmp	$78ea <__divsf3+0xa39>
    7a2c: a5 8d        	lda	$8d                     ; 0x208d <f256main+0x1771>
    7a2e: f0 03        	beq	$7a33 <__divsf3+0xb82>
    7a30: 4c ea 78     	jmp	$78ea <__divsf3+0xa39>
    7a33: 8a           	txa
    7a34: f0 03        	beq	$7a39 <__divsf3+0xb88>
    7a36: 4c ea 78     	jmp	$78ea <__divsf3+0xa39>
    7a39: a5 90        	lda	$90                     ; 0x2090 <f256main+0x1774>
    7a3b: d0 03        	bne	$7a40 <__divsf3+0xb8f>
    7a3d: 4c e1 6f     	jmp	$6fe1 <__divsf3+0x130>
    7a40: 4c ea 78     	jmp	$78ea <__divsf3+0xa39>

00007a43 <__fixunssfsi>:
    7a43: 86 15        	stx	$15                     ; 0x2015 <f256main+0x16f9>
    7a45: a2 00        	ldx	#$0
    7a47: 86 8b        	stx	$8b                     ; 0x208b <f256main+0x176f>
    7a49: a4 13        	ldy	$13                     ; 0x2013 <f256main+0x16f7>
    7a4b: 30 26        	bmi	$7a73 <__fixunssfsi+0x30>
    7a4d: 85 16        	sta	$16                     ; 0x2016 <f256main+0x16fa>
    7a4f: a5 12        	lda	$12                     ; 0x2012 <f256main+0x16f6>
    7a51: 0a           	asl
    7a52: 26 13        	rol	$13                     ; 0x2013 <f256main+0x16f7>
    7a54: a6 13        	ldx	$13                     ; 0x2013 <f256main+0x16f7>
    7a56: e0 7f        	cpx	#$7f
    7a58: a2 00        	ldx	#$0
    7a5a: 8a           	txa
    7a5b: a8           	tay
    7a5c: b0 03        	bcs	$7a61 <__fixunssfsi+0x1e>
    7a5e: 4c b8 7a     	jmp	$7ab8 <__fixunssfsi+0x75>
    7a61: 18           	clc
    7a62: a5 13        	lda	$13                     ; 0x2013 <f256main+0x16f7>
    7a64: 69 61        	adc	#$61
    7a66: aa           	tax
    7a67: a9 00        	lda	#$0
    7a69: 69 ff        	adc	#$ff
    7a6b: c9 ff        	cmp	#$ff
    7a6d: d0 09        	bne	$7a78 <__fixunssfsi+0x35>
    7a6f: e0 e0        	cpx	#$e0
    7a71: 80 07        	bra	$7a7a <__fixunssfsi+0x37>
    7a73: a9 00        	lda	#$0
    7a75: a8           	tay
    7a76: 80 40        	bra	$7ab8 <__fixunssfsi+0x75>
    7a78: c9 ff        	cmp	#$ff
    7a7a: a2 ff        	ldx	#$ff
    7a7c: 86 8b        	stx	$8b                     ; 0x208b <f256main+0x176f>
    7a7e: 8a           	txa
    7a7f: a8           	tay
    7a80: 90 36        	bcc	$7ab8 <__fixunssfsi+0x75>
    7a82: a5 12        	lda	$12                     ; 0x2012 <f256main+0x16f6>
    7a84: 29 7f        	and	#$7f
    7a86: 09 80        	ora	#$80
    7a88: 85 12        	sta	$12                     ; 0x2012 <f256main+0x16f6>
    7a8a: a6 13        	ldx	$13                     ; 0x2013 <f256main+0x16f7>
    7a8c: e0 96        	cpx	#$96
    7a8e: b0 12        	bcs	$7aa2 <__fixunssfsi+0x5f>
    7a90: 38           	sec
    7a91: a9 96        	lda	#$96
    7a93: e5 13        	sbc	$13                     ; 0x2013 <f256main+0x16f7>
    7a95: 64 13        	stz	$13                     ; 0x2013 <f256main+0x16f7>
    7a97: 85 14        	sta	$14                     ; 0x2014 <f256main+0x16f8>
    7a99: a6 15        	ldx	$15                     ; 0x2015 <f256main+0x16f9>
    7a9b: a5 16        	lda	$16                     ; 0x2016 <f256main+0x16fa>
    7a9d: 20 39 69     	jsr	$6939 <__lshrsi3>
    7aa0: 80 10        	bra	$7ab2 <__fixunssfsi+0x6f>
    7aa2: 18           	clc
    7aa3: a5 13        	lda	$13                     ; 0x2013 <f256main+0x16f7>
    7aa5: 69 6a        	adc	#$6a
    7aa7: 64 13        	stz	$13                     ; 0x2013 <f256main+0x16f7>
    7aa9: 85 14        	sta	$14                     ; 0x2014 <f256main+0x16f8>
    7aab: a6 15        	ldx	$15                     ; 0x2015 <f256main+0x16f9>
    7aad: a5 16        	lda	$16                     ; 0x2016 <f256main+0x16fa>
    7aaf: 20 22 69     	jsr	$6922 <__ashlsi3>
    7ab2: 85 8b        	sta	$8b                     ; 0x208b <f256main+0x176f>
    7ab4: a5 12        	lda	$12                     ; 0x2012 <f256main+0x16f6>
    7ab6: a4 13        	ldy	$13                     ; 0x2013 <f256main+0x16f7>
    7ab8: 85 12        	sta	$12                     ; 0x2012 <f256main+0x16f6>
    7aba: 84 13        	sty	$13                     ; 0x2013 <f256main+0x16f7>
    7abc: a5 8b        	lda	$8b                     ; 0x208b <f256main+0x176f>
    7abe: 60           	rts

00007abf <__floatunsisf>:
    7abf: 85 15        	sta	$15                     ; 0x2015 <f256main+0x16f9>
    7ac1: 86 16        	stx	$16                     ; 0x2016 <f256main+0x16fa>
    7ac3: a5 13        	lda	$13                     ; 0x2013 <f256main+0x16f7>
    7ac5: d0 0f        	bne	$7ad6 <__floatunsisf+0x17>
    7ac7: a5 12        	lda	$12                     ; 0x2012 <f256main+0x16f6>
    7ac9: d0 0b        	bne	$7ad6 <__floatunsisf+0x17>
    7acb: a5 16        	lda	$16                     ; 0x2016 <f256main+0x16fa>
    7acd: d0 07        	bne	$7ad6 <__floatunsisf+0x17>
    7acf: a5 15        	lda	$15                     ; 0x2015 <f256main+0x16f9>
    7ad1: d0 03        	bne	$7ad6 <__floatunsisf+0x17>
    7ad3: 4c 08 7e     	jmp	$7e08 <__floatunsisf+0x349>
    7ad6: a5 13        	lda	$13                     ; 0x2013 <f256main+0x16f7>
    7ad8: 4a           	lsr
    7ad9: 85 18        	sta	$18                     ; 0x2018 <f256main+0x16fc>
    7adb: a5 12        	lda	$12                     ; 0x2012 <f256main+0x16f6>
    7add: 6a           	ror
    7ade: 85 17        	sta	$17                     ; 0x2017 <f256main+0x16fb>
    7ae0: 86 19        	stx	$19                     ; 0x2019 <f256main+0x16fd>
    7ae2: 66 19        	ror	$19                     ; 0x2019 <f256main+0x16fd>
    7ae4: a5 15        	lda	$15                     ; 0x2015 <f256main+0x16f9>
    7ae6: 6a           	ror
    7ae7: 05 15        	ora	$15                     ; 0x2015 <f256main+0x16f9>
    7ae9: a8           	tay
    7aea: a5 19        	lda	$19                     ; 0x2019 <f256main+0x16fd>
    7aec: 05 16        	ora	$16                     ; 0x2016 <f256main+0x16fa>
    7aee: aa           	tax
    7aef: a5 17        	lda	$17                     ; 0x2017 <f256main+0x16fb>
    7af1: 05 12        	ora	$12                     ; 0x2012 <f256main+0x16f6>
    7af3: 85 1a        	sta	$1a                     ; 0x201a <f256main+0x16fe>
    7af5: a5 18        	lda	$18                     ; 0x2018 <f256main+0x16fc>
    7af7: 05 13        	ora	$13                     ; 0x2013 <f256main+0x16f7>
    7af9: 85 1b        	sta	$1b                     ; 0x201b <f256main+0x16ff>
    7afb: 4a           	lsr
    7afc: 5a           	phy
    7afd: a4 1a        	ldy	$1a                     ; 0x201a <f256main+0x16fe>
    7aff: 84 14        	sty	$14                     ; 0x2014 <f256main+0x16f8>
    7b01: 7a           	ply
    7b02: 66 14        	ror	$14                     ; 0x2014 <f256main+0x16f8>
    7b04: 86 17        	stx	$17                     ; 0x2017 <f256main+0x16fb>
    7b06: 66 17        	ror	$17                     ; 0x2017 <f256main+0x16fb>
    7b08: 84 18        	sty	$18                     ; 0x2018 <f256main+0x16fc>
    7b0a: 66 18        	ror	$18                     ; 0x2018 <f256main+0x16fc>
    7b0c: 4a           	lsr
    7b0d: 85 19        	sta	$19                     ; 0x2019 <f256main+0x16fd>
    7b0f: 66 14        	ror	$14                     ; 0x2014 <f256main+0x16f8>
    7b11: 66 17        	ror	$17                     ; 0x2017 <f256main+0x16fb>
    7b13: 66 18        	ror	$18                     ; 0x2018 <f256main+0x16fc>
    7b15: 98           	tya
    7b16: 05 18        	ora	$18                     ; 0x2018 <f256main+0x16fc>
    7b18: a8           	tay
    7b19: 8a           	txa
    7b1a: 05 17        	ora	$17                     ; 0x2017 <f256main+0x16fb>
    7b1c: aa           	tax
    7b1d: a5 1a        	lda	$1a                     ; 0x201a <f256main+0x16fe>
    7b1f: 05 14        	ora	$14                     ; 0x2014 <f256main+0x16f8>
    7b21: 85 1a        	sta	$1a                     ; 0x201a <f256main+0x16fe>
    7b23: a5 1b        	lda	$1b                     ; 0x201b <f256main+0x16ff>
    7b25: 05 19        	ora	$19                     ; 0x2019 <f256main+0x16fd>
    7b27: 85 1b        	sta	$1b                     ; 0x201b <f256main+0x16ff>
    7b29: 4a           	lsr
    7b2a: 5a           	phy
    7b2b: a4 1a        	ldy	$1a                     ; 0x201a <f256main+0x16fe>
    7b2d: 84 14        	sty	$14                     ; 0x2014 <f256main+0x16f8>
    7b2f: 7a           	ply
    7b30: 66 14        	ror	$14                     ; 0x2014 <f256main+0x16f8>
    7b32: 86 17        	stx	$17                     ; 0x2017 <f256main+0x16fb>
    7b34: 66 17        	ror	$17                     ; 0x2017 <f256main+0x16fb>
    7b36: 84 18        	sty	$18                     ; 0x2018 <f256main+0x16fc>
    7b38: 66 18        	ror	$18                     ; 0x2018 <f256main+0x16fc>
    7b3a: 4a           	lsr
    7b3b: 66 14        	ror	$14                     ; 0x2014 <f256main+0x16f8>
    7b3d: 66 17        	ror	$17                     ; 0x2017 <f256main+0x16fb>
    7b3f: 66 18        	ror	$18                     ; 0x2018 <f256main+0x16fc>
    7b41: 4a           	lsr
    7b42: 66 14        	ror	$14                     ; 0x2014 <f256main+0x16f8>
    7b44: 66 17        	ror	$17                     ; 0x2017 <f256main+0x16fb>
    7b46: 66 18        	ror	$18                     ; 0x2018 <f256main+0x16fc>
    7b48: 4a           	lsr
    7b49: 85 19        	sta	$19                     ; 0x2019 <f256main+0x16fd>
    7b4b: 66 14        	ror	$14                     ; 0x2014 <f256main+0x16f8>
    7b4d: 66 17        	ror	$17                     ; 0x2017 <f256main+0x16fb>
    7b4f: 66 18        	ror	$18                     ; 0x2018 <f256main+0x16fc>
    7b51: 98           	tya
    7b52: 05 18        	ora	$18                     ; 0x2018 <f256main+0x16fc>
    7b54: 85 18        	sta	$18                     ; 0x2018 <f256main+0x16fc>
    7b56: 8a           	txa
    7b57: 05 17        	ora	$17                     ; 0x2017 <f256main+0x16fb>
    7b59: aa           	tax
    7b5a: a5 1a        	lda	$1a                     ; 0x201a <f256main+0x16fe>
    7b5c: 05 14        	ora	$14                     ; 0x2014 <f256main+0x16f8>
    7b5e: a8           	tay
    7b5f: a5 1b        	lda	$1b                     ; 0x201b <f256main+0x16ff>
    7b61: 05 19        	ora	$19                     ; 0x2019 <f256main+0x16fd>
    7b63: 85 17        	sta	$17                     ; 0x2017 <f256main+0x16fb>
    7b65: 86 14        	stx	$14                     ; 0x2014 <f256main+0x16f8>
    7b67: a5 18        	lda	$18                     ; 0x2018 <f256main+0x16fc>
    7b69: 05 14        	ora	$14                     ; 0x2014 <f256main+0x16f8>
    7b6b: 85 19        	sta	$19                     ; 0x2019 <f256main+0x16fd>
    7b6d: 84 14        	sty	$14                     ; 0x2014 <f256main+0x16f8>
    7b6f: 8a           	txa
    7b70: 05 14        	ora	$14                     ; 0x2014 <f256main+0x16f8>
    7b72: 85 18        	sta	$18                     ; 0x2018 <f256main+0x16fc>
    7b74: a6 17        	ldx	$17                     ; 0x2017 <f256main+0x16fb>
    7b76: 86 14        	stx	$14                     ; 0x2014 <f256main+0x16f8>
    7b78: 86 1a        	stx	$1a                     ; 0x201a <f256main+0x16fe>
    7b7a: 98           	tya
    7b7b: 05 14        	ora	$14                     ; 0x2014 <f256main+0x16f8>
    7b7d: 85 17        	sta	$17                     ; 0x2017 <f256main+0x16fb>
    7b7f: 85 1b        	sta	$1b                     ; 0x201b <f256main+0x16ff>
    7b81: a5 19        	lda	$19                     ; 0x2019 <f256main+0x16fd>
    7b83: 05 17        	ora	$17                     ; 0x2017 <f256main+0x16fb>
    7b85: a8           	tay
    7b86: a5 18        	lda	$18                     ; 0x2018 <f256main+0x16fc>
    7b88: 05 14        	ora	$14                     ; 0x2014 <f256main+0x16f8>
    7b8a: aa           	tax
    7b8b: 98           	tya
    7b8c: 4a           	lsr
    7b8d: 29 55        	and	#$55
    7b8f: 85 14        	sta	$14                     ; 0x2014 <f256main+0x16f8>
    7b91: 8a           	txa
    7b92: 4a           	lsr
    7b93: 29 55        	and	#$55
    7b95: 85 17        	sta	$17                     ; 0x2017 <f256main+0x16fb>
    7b97: a5 1b        	lda	$1b                     ; 0x201b <f256main+0x16ff>
    7b99: 4a           	lsr
    7b9a: 29 55        	and	#$55
    7b9c: 85 18        	sta	$18                     ; 0x2018 <f256main+0x16fc>
    7b9e: a5 1a        	lda	$1a                     ; 0x201a <f256main+0x16fe>
    7ba0: 4a           	lsr
    7ba1: 29 55        	and	#$55
    7ba3: 85 19        	sta	$19                     ; 0x2019 <f256main+0x16fd>
    7ba5: 38           	sec
    7ba6: 98           	tya
    7ba7: e5 14        	sbc	$14                     ; 0x2014 <f256main+0x16f8>
    7ba9: 85 14        	sta	$14                     ; 0x2014 <f256main+0x16f8>
    7bab: 8a           	txa
    7bac: e5 17        	sbc	$17                     ; 0x2017 <f256main+0x16fb>
    7bae: aa           	tax
    7baf: a5 1b        	lda	$1b                     ; 0x201b <f256main+0x16ff>
    7bb1: e5 18        	sbc	$18                     ; 0x2018 <f256main+0x16fc>
    7bb3: 85 18        	sta	$18                     ; 0x2018 <f256main+0x16fc>
    7bb5: a5 1a        	lda	$1a                     ; 0x201a <f256main+0x16fe>
    7bb7: e5 19        	sbc	$19                     ; 0x2019 <f256main+0x16fd>
    7bb9: a8           	tay
    7bba: a5 14        	lda	$14                     ; 0x2014 <f256main+0x16f8>
    7bbc: 85 19        	sta	$19                     ; 0x2019 <f256main+0x16fd>
    7bbe: 29 33        	and	#$33
    7bc0: 85 14        	sta	$14                     ; 0x2014 <f256main+0x16f8>
    7bc2: 8a           	txa
    7bc3: 29 33        	and	#$33
    7bc5: 85 17        	sta	$17                     ; 0x2017 <f256main+0x16fb>
    7bc7: a5 18        	lda	$18                     ; 0x2018 <f256main+0x16fc>
    7bc9: 85 1a        	sta	$1a                     ; 0x201a <f256main+0x16fe>
    7bcb: 29 33        	and	#$33
    7bcd: 85 18        	sta	$18                     ; 0x2018 <f256main+0x16fc>
    7bcf: 98           	tya
    7bd0: 4a           	lsr
    7bd1: 85 1c        	sta	$1c                     ; 0x201c <f256main+0x1700>
    7bd3: a5 1a        	lda	$1a                     ; 0x201a <f256main+0x16fe>
    7bd5: 4a           	lsr
    7bd6: 85 1b        	sta	$1b                     ; 0x201b <f256main+0x16ff>
    7bd8: 8a           	txa
    7bd9: 4a           	lsr
    7bda: 85 1a        	sta	$1a                     ; 0x201a <f256main+0x16fe>
    7bdc: a5 19        	lda	$19                     ; 0x2019 <f256main+0x16fd>
    7bde: 4a           	lsr
    7bdf: 46 1c        	lsr	$1c                     ; 0x201c <f256main+0x1700>
    7be1: 46 1b        	lsr	$1b                     ; 0x201b <f256main+0x16ff>
    7be3: a6 1a        	ldx	$1a                     ; 0x201a <f256main+0x16fe>
    7be5: 86 19        	stx	$19                     ; 0x2019 <f256main+0x16fd>
    7be7: 46 19        	lsr	$19                     ; 0x2019 <f256main+0x16fd>
    7be9: 4a           	lsr
    7bea: 29 33        	and	#$33
    7bec: 85 1d        	sta	$1d                     ; 0x201d <f256main+0x1701>
    7bee: a5 19        	lda	$19                     ; 0x2019 <f256main+0x16fd>
    7bf0: 29 33        	and	#$33
    7bf2: aa           	tax
    7bf3: a5 1b        	lda	$1b                     ; 0x201b <f256main+0x16ff>
    7bf5: 29 33        	and	#$33
    7bf7: 85 1a        	sta	$1a                     ; 0x201a <f256main+0x16fe>
    7bf9: a5 1c        	lda	$1c                     ; 0x201c <f256main+0x1700>
    7bfb: 29 33        	and	#$33
    7bfd: 85 1b        	sta	$1b                     ; 0x201b <f256main+0x16ff>
    7bff: 98           	tya
    7c00: 29 33        	and	#$33
    7c02: 85 19        	sta	$19                     ; 0x2019 <f256main+0x16fd>
    7c04: 18           	clc
    7c05: a5 1d        	lda	$1d                     ; 0x201d <f256main+0x1701>
    7c07: 65 14        	adc	$14                     ; 0x2014 <f256main+0x16f8>
    7c09: 85 14        	sta	$14                     ; 0x2014 <f256main+0x16f8>
    7c0b: 8a           	txa
    7c0c: 65 17        	adc	$17                     ; 0x2017 <f256main+0x16fb>
    7c0e: 85 17        	sta	$17                     ; 0x2017 <f256main+0x16fb>
    7c10: a5 1a        	lda	$1a                     ; 0x201a <f256main+0x16fe>
    7c12: 65 18        	adc	$18                     ; 0x2018 <f256main+0x16fc>
    7c14: 85 18        	sta	$18                     ; 0x2018 <f256main+0x16fc>
    7c16: a5 1b        	lda	$1b                     ; 0x201b <f256main+0x16ff>
    7c18: 65 19        	adc	$19                     ; 0x2019 <f256main+0x16fd>
    7c1a: 85 19        	sta	$19                     ; 0x2019 <f256main+0x16fd>
    7c1c: 4a           	lsr
    7c1d: aa           	tax
    7c1e: a5 18        	lda	$18                     ; 0x2018 <f256main+0x16fc>
    7c20: 6a           	ror
    7c21: a4 17        	ldy	$17                     ; 0x2017 <f256main+0x16fb>
    7c23: 84 1b        	sty	$1b                     ; 0x201b <f256main+0x16ff>
    7c25: 66 1b        	ror	$1b                     ; 0x201b <f256main+0x16ff>
    7c27: a4 14        	ldy	$14                     ; 0x2014 <f256main+0x16f8>
    7c29: 84 1c        	sty	$1c                     ; 0x201c <f256main+0x1700>
    7c2b: 66 1c        	ror	$1c                     ; 0x201c <f256main+0x1700>
    7c2d: 86 1a        	stx	$1a                     ; 0x201a <f256main+0x16fe>
    7c2f: 46 1a        	lsr	$1a                     ; 0x201a <f256main+0x16fe>
    7c31: 6a           	ror
    7c32: 66 1b        	ror	$1b                     ; 0x201b <f256main+0x16ff>
    7c34: 66 1c        	ror	$1c                     ; 0x201c <f256main+0x1700>
    7c36: 46 1a        	lsr	$1a                     ; 0x201a <f256main+0x16fe>
    7c38: 6a           	ror
    7c39: 66 1b        	ror	$1b                     ; 0x201b <f256main+0x16ff>
    7c3b: 66 1c        	ror	$1c                     ; 0x201c <f256main+0x1700>
    7c3d: 46 1a        	lsr	$1a                     ; 0x201a <f256main+0x16fe>
    7c3f: 6a           	ror
    7c40: 85 1d        	sta	$1d                     ; 0x201d <f256main+0x1701>
    7c42: a6 1b        	ldx	$1b                     ; 0x201b <f256main+0x16ff>
    7c44: 86 1e        	stx	$1e                     ; 0x201e <f256main+0x1702>
    7c46: 66 1e        	ror	$1e                     ; 0x201e <f256main+0x1702>
    7c48: a5 1c        	lda	$1c                     ; 0x201c <f256main+0x1700>
    7c4a: 6a           	ror
    7c4b: 18           	clc
    7c4c: 65 14        	adc	$14                     ; 0x2014 <f256main+0x16f8>
    7c4e: a8           	tay
    7c4f: a5 1e        	lda	$1e                     ; 0x201e <f256main+0x1702>
    7c51: 65 17        	adc	$17                     ; 0x2017 <f256main+0x16fb>
    7c53: aa           	tax
    7c54: a5 1d        	lda	$1d                     ; 0x201d <f256main+0x1701>
    7c56: 65 18        	adc	$18                     ; 0x2018 <f256main+0x16fc>
    7c58: 85 18        	sta	$18                     ; 0x2018 <f256main+0x16fc>
    7c5a: a5 1a        	lda	$1a                     ; 0x201a <f256main+0x16fe>
    7c5c: 65 19        	adc	$19                     ; 0x2019 <f256main+0x16fd>
    7c5e: 85 19        	sta	$19                     ; 0x2019 <f256main+0x16fd>
    7c60: 98           	tya
    7c61: 29 0f        	and	#$f
    7c63: 85 14        	sta	$14                     ; 0x2014 <f256main+0x16f8>
    7c65: 85 1a        	sta	$1a                     ; 0x201a <f256main+0x16fe>
    7c67: 8a           	txa
    7c68: 29 0f        	and	#$f
    7c6a: 85 17        	sta	$17                     ; 0x2017 <f256main+0x16fb>
    7c6c: a8           	tay
    7c6d: a5 18        	lda	$18                     ; 0x2018 <f256main+0x16fc>
    7c6f: 29 0f        	and	#$f
    7c71: 85 18        	sta	$18                     ; 0x2018 <f256main+0x16fc>
    7c73: aa           	tax
    7c74: a5 19        	lda	$19                     ; 0x2019 <f256main+0x16fd>
    7c76: 29 0f        	and	#$f
    7c78: 85 19        	sta	$19                     ; 0x2019 <f256main+0x16fd>
    7c7a: 18           	clc
    7c7b: a5 1a        	lda	$1a                     ; 0x201a <f256main+0x16fe>
    7c7d: 69 00        	adc	#$0
    7c7f: 85 1b        	sta	$1b                     ; 0x201b <f256main+0x16ff>
    7c81: 98           	tya
    7c82: 65 14        	adc	$14                     ; 0x2014 <f256main+0x16f8>
    7c84: a8           	tay
    7c85: 8a           	txa
    7c86: 65 17        	adc	$17                     ; 0x2017 <f256main+0x16fb>
    7c88: 85 1a        	sta	$1a                     ; 0x201a <f256main+0x16fe>
    7c8a: a5 19        	lda	$19                     ; 0x2019 <f256main+0x16fd>
    7c8c: 65 18        	adc	$18                     ; 0x2018 <f256main+0x16fc>
    7c8e: aa           	tax
    7c8f: a5 1b        	lda	$1b                     ; 0x201b <f256main+0x16ff>
    7c91: 85 14        	sta	$14                     ; 0x2014 <f256main+0x16f8>
    7c93: 18           	clc
    7c94: 69 00        	adc	#$0
    7c96: 98           	tya
    7c97: 84 17        	sty	$17                     ; 0x2017 <f256main+0x16fb>
    7c99: 69 00        	adc	#$0
    7c9b: a5 1a        	lda	$1a                     ; 0x201a <f256main+0x16fe>
    7c9d: 65 14        	adc	$14                     ; 0x2014 <f256main+0x16f8>
    7c9f: 8a           	txa
    7ca0: 65 17        	adc	$17                     ; 0x2017 <f256main+0x16fb>
    7ca2: 85 14        	sta	$14                     ; 0x2014 <f256main+0x16f8>
    7ca4: a9 20        	lda	#$20
    7ca6: 38           	sec
    7ca7: e5 14        	sbc	$14                     ; 0x2014 <f256main+0x16f8>
    7ca9: 85 14        	sta	$14                     ; 0x2014 <f256main+0x16f8>
    7cab: 85 19        	sta	$19                     ; 0x2019 <f256main+0x16fd>
    7cad: a9 00        	lda	#$0
    7caf: e9 00        	sbc	#$0
    7cb1: 85 18        	sta	$18                     ; 0x2018 <f256main+0x16fc>
    7cb3: 85 8b        	sta	$8b                     ; 0x208b <f256main+0x176f>
    7cb5: a6 19        	ldx	$19                     ; 0x2019 <f256main+0x16fd>
    7cb7: 86 8d        	stx	$8d                     ; 0x208d <f256main+0x1771>
    7cb9: a5 19        	lda	$19                     ; 0x2019 <f256main+0x16fd>
    7cbb: 49 1f        	eor	#$1f
    7cbd: 85 17        	sta	$17                     ; 0x2017 <f256main+0x16fb>
    7cbf: a6 8b        	ldx	$8b                     ; 0x208b <f256main+0x176f>
    7cc1: f0 03        	beq	$7cc6 <__floatunsisf+0x207>
    7cc3: 4c 3b 7d     	jmp	$7d3b <__floatunsisf+0x27c>
    7cc6: c9 18        	cmp	#$18
    7cc8: b0 03        	bcs	$7ccd <__floatunsisf+0x20e>
    7cca: 4c 44 7d     	jmp	$7d44 <__floatunsisf+0x285>
    7ccd: 38           	sec
    7cce: a9 08        	lda	#$8
    7cd0: a6 14        	ldx	$14                     ; 0x2014 <f256main+0x16f8>
    7cd2: 86 8c        	stx	$8c                     ; 0x208c <f256main+0x1770>
    7cd4: e5 14        	sbc	$14                     ; 0x2014 <f256main+0x16f8>
    7cd6: a6 12        	ldx	$12                     ; 0x2012 <f256main+0x16f6>
    7cd8: 86 92        	stx	$92                     ; 0x2092 <f256main+0x1776>
    7cda: a6 13        	ldx	$13                     ; 0x2013 <f256main+0x16f7>
    7cdc: 86 94        	stx	$94                     ; 0x2094 <f256main+0x1778>
    7cde: 85 14        	sta	$14                     ; 0x2014 <f256main+0x16f8>
    7ce0: a6 16        	ldx	$16                     ; 0x2016 <f256main+0x16fa>
    7ce2: a5 15        	lda	$15                     ; 0x2015 <f256main+0x16f9>
    7ce4: a4 15        	ldy	$15                     ; 0x2015 <f256main+0x16f9>
    7ce6: 84 93        	sty	$93                     ; 0x2093 <f256main+0x1777>
    7ce8: a4 16        	ldy	$16                     ; 0x2016 <f256main+0x16fa>
    7cea: 84 95        	sty	$95                     ; 0x2095 <f256main+0x1779>
    7cec: 20 39 69     	jsr	$6939 <__lshrsi3>
    7cef: 85 8f        	sta	$8f                     ; 0x208f <f256main+0x1773>
    7cf1: 86 8e        	stx	$8e                     ; 0x208e <f256main+0x1772>
    7cf3: a5 12        	lda	$12                     ; 0x2012 <f256main+0x16f6>
    7cf5: a6 13        	ldx	$13                     ; 0x2013 <f256main+0x16f7>
    7cf7: 86 91        	stx	$91                     ; 0x2091 <f256main+0x1775>
    7cf9: 49 80        	eor	#$80
    7cfb: 85 90        	sta	$90                     ; 0x2090 <f256main+0x1774>
    7cfd: a5 8d        	lda	$8d                     ; 0x208d <f256main+0x1771>
    7cff: 18           	clc
    7d00: 69 18        	adc	#$18
    7d02: a6 92        	ldx	$92                     ; 0x2092 <f256main+0x1776>
    7d04: 86 12        	stx	$12                     ; 0x2012 <f256main+0x16f6>
    7d06: a6 94        	ldx	$94                     ; 0x2094 <f256main+0x1778>
    7d08: 86 13        	stx	$13                     ; 0x2013 <f256main+0x16f7>
    7d0a: 85 14        	sta	$14                     ; 0x2014 <f256main+0x16f8>
    7d0c: a6 95        	ldx	$95                     ; 0x2095 <f256main+0x1779>
    7d0e: a5 93        	lda	$93                     ; 0x2093 <f256main+0x1777>
    7d10: 20 22 69     	jsr	$6922 <__ashlsi3>
    7d13: 85 15        	sta	$15                     ; 0x2015 <f256main+0x16f9>
    7d15: 86 16        	stx	$16                     ; 0x2016 <f256main+0x16fa>
    7d17: a6 12        	ldx	$12                     ; 0x2012 <f256main+0x16f6>
    7d19: a4 13        	ldy	$13                     ; 0x2013 <f256main+0x16f7>
    7d1b: c0 80        	cpy	#$80
    7d1d: d0 4e        	bne	$7d6d <__floatunsisf+0x2ae>
    7d1f: a5 8b        	lda	$8b                     ; 0x208b <f256main+0x176f>
    7d21: 85 12        	sta	$12                     ; 0x2012 <f256main+0x16f6>
    7d23: 8a           	txa
    7d24: d0 4f        	bne	$7d75 <__floatunsisf+0x2b6>
    7d26: a5 8c        	lda	$8c                     ; 0x208c <f256main+0x1770>
    7d28: 85 13        	sta	$13                     ; 0x2013 <f256main+0x16f7>
    7d2a: a5 8f        	lda	$8f                     ; 0x208f <f256main+0x1773>
    7d2c: 85 14        	sta	$14                     ; 0x2014 <f256main+0x16f8>
    7d2e: a5 16        	lda	$16                     ; 0x2016 <f256main+0x16fa>
    7d30: f0 03        	beq	$7d35 <__floatunsisf+0x276>
    7d32: 4c 01 7e     	jmp	$7e01 <__floatunsisf+0x342>
    7d35: a5 15        	lda	$15                     ; 0x2015 <f256main+0x16f9>
    7d37: c9 01        	cmp	#$1
    7d39: 80 44        	bra	$7d7f <__floatunsisf+0x2c0>
    7d3b: a6 18        	ldx	$18                     ; 0x2018 <f256main+0x16fc>
    7d3d: e0 00        	cpx	#$0
    7d3f: 90 03        	bcc	$7d44 <__floatunsisf+0x285>
    7d41: 4c cd 7c     	jmp	$7ccd <__floatunsisf+0x20e>
    7d44: a6 14        	ldx	$14                     ; 0x2014 <f256main+0x16f8>
    7d46: 86 8c        	stx	$8c                     ; 0x208c <f256main+0x1770>
    7d48: 38           	sec
    7d49: a9 17        	lda	#$17
    7d4b: e5 17        	sbc	$17                     ; 0x2017 <f256main+0x16fb>
    7d4d: 85 14        	sta	$14                     ; 0x2014 <f256main+0x16f8>
    7d4f: a6 16        	ldx	$16                     ; 0x2016 <f256main+0x16fa>
    7d51: a5 15        	lda	$15                     ; 0x2015 <f256main+0x16f9>
    7d53: 20 22 69     	jsr	$6922 <__ashlsi3>
    7d56: 85 14        	sta	$14                     ; 0x2014 <f256main+0x16f8>
    7d58: 86 17        	stx	$17                     ; 0x2017 <f256main+0x16fb>
    7d5a: a5 12        	lda	$12                     ; 0x2012 <f256main+0x16f6>
    7d5c: a6 13        	ldx	$13                     ; 0x2013 <f256main+0x16f7>
    7d5e: 86 15        	stx	$15                     ; 0x2015 <f256main+0x16f9>
    7d60: 49 80        	eor	#$80
    7d62: a6 8b        	ldx	$8b                     ; 0x208b <f256main+0x176f>
    7d64: 86 12        	stx	$12                     ; 0x2012 <f256main+0x16f6>
    7d66: a6 8c        	ldx	$8c                     ; 0x208c <f256main+0x1770>
    7d68: 86 13        	stx	$13                     ; 0x2013 <f256main+0x16f7>
    7d6a: 4c d0 7d     	jmp	$7dd0 <__floatunsisf+0x311>
    7d6d: c0 80        	cpy	#$80
    7d6f: a5 8b        	lda	$8b                     ; 0x208b <f256main+0x176f>
    7d71: 85 12        	sta	$12                     ; 0x2012 <f256main+0x16f6>
    7d73: 80 02        	bra	$7d77 <__floatunsisf+0x2b8>
    7d75: e0 00        	cpx	#$0
    7d77: a5 8c        	lda	$8c                     ; 0x208c <f256main+0x1770>
    7d79: 85 13        	sta	$13                     ; 0x2013 <f256main+0x16f7>
    7d7b: a5 8f        	lda	$8f                     ; 0x208f <f256main+0x1773>
    7d7d: 85 14        	sta	$14                     ; 0x2014 <f256main+0x16f8>
    7d7f: a5 8e        	lda	$8e                     ; 0x208e <f256main+0x1772>
    7d81: 85 17        	sta	$17                     ; 0x2017 <f256main+0x16fb>
    7d83: b0 30        	bcs	$7db5 <__floatunsisf+0x2f6>
    7d85: c0 80        	cpy	#$80
    7d87: d0 41        	bne	$7dca <__floatunsisf+0x30b>
    7d89: 8a           	txa
    7d8a: d0 3e        	bne	$7dca <__floatunsisf+0x30b>
    7d8c: a5 16        	lda	$16                     ; 0x2016 <f256main+0x16fa>
    7d8e: d0 3a        	bne	$7dca <__floatunsisf+0x30b>
    7d90: a5 15        	lda	$15                     ; 0x2015 <f256main+0x16f9>
    7d92: d0 36        	bne	$7dca <__floatunsisf+0x30b>
    7d94: a5 14        	lda	$14                     ; 0x2014 <f256main+0x16f8>
    7d96: 29 01        	and	#$1
    7d98: 18           	clc
    7d99: 65 14        	adc	$14                     ; 0x2014 <f256main+0x16f8>
    7d9b: a8           	tay
    7d9c: a6 8e        	ldx	$8e                     ; 0x208e <f256main+0x1772>
    7d9e: 8a           	txa
    7d9f: 69 00        	adc	#$0
    7da1: 85 17        	sta	$17                     ; 0x2017 <f256main+0x16fb>
    7da3: a5 90        	lda	$90                     ; 0x2090 <f256main+0x1774>
    7da5: 69 00        	adc	#$0
    7da7: 85 16        	sta	$16                     ; 0x2016 <f256main+0x16fa>
    7da9: a5 91        	lda	$91                     ; 0x2091 <f256main+0x1775>
    7dab: 69 00        	adc	#$0
    7dad: 85 15        	sta	$15                     ; 0x2015 <f256main+0x16f9>
    7daf: a5 16        	lda	$16                     ; 0x2016 <f256main+0x16fa>
    7db1: 84 14        	sty	$14                     ; 0x2014 <f256main+0x16f8>
    7db3: 80 1b        	bra	$7dd0 <__floatunsisf+0x311>
    7db5: a5 90        	lda	$90                     ; 0x2090 <f256main+0x1774>
    7db7: a6 91        	ldx	$91                     ; 0x2091 <f256main+0x1775>
    7db9: 86 15        	stx	$15                     ; 0x2015 <f256main+0x16f9>
    7dbb: e6 14        	inc	$14                     ; 0x2014 <f256main+0x16f8>
    7dbd: d0 09        	bne	$7dc8 <__floatunsisf+0x309>
    7dbf: e6 17        	inc	$17                     ; 0x2017 <f256main+0x16fb>
    7dc1: d0 05        	bne	$7dc8 <__floatunsisf+0x309>
    7dc3: 1a           	inc
    7dc4: d0 02        	bne	$7dc8 <__floatunsisf+0x309>
    7dc6: e6 15        	inc	$15                     ; 0x2015 <f256main+0x16f9>
    7dc8: 80 06        	bra	$7dd0 <__floatunsisf+0x311>
    7dca: a5 90        	lda	$90                     ; 0x2090 <f256main+0x1774>
    7dcc: a6 91        	ldx	$91                     ; 0x2091 <f256main+0x1775>
    7dce: 86 15        	stx	$15                     ; 0x2015 <f256main+0x16f9>
    7dd0: 85 16        	sta	$16                     ; 0x2016 <f256main+0x16fa>
    7dd2: 38           	sec
    7dd3: a9 9e        	lda	#$9e
    7dd5: e5 13        	sbc	$13                     ; 0x2013 <f256main+0x16f7>
    7dd7: 85 13        	sta	$13                     ; 0x2013 <f256main+0x16f7>
    7dd9: a9 00        	lda	#$0
    7ddb: e5 12        	sbc	$12                     ; 0x2012 <f256main+0x16f6>
    7ddd: 4a           	lsr
    7dde: 66 13        	ror	$13                     ; 0x2013 <f256main+0x16f7>
    7de0: 64 18        	stz	$18                     ; 0x2018 <f256main+0x16fc>
    7de2: 66 18        	ror	$18                     ; 0x2018 <f256main+0x16fc>
    7de4: a9 00        	lda	#$0
    7de6: 6a           	ror
    7de7: aa           	tax
    7de8: a9 00        	lda	#$0
    7dea: 6a           	ror
    7deb: 18           	clc
    7dec: 65 14        	adc	$14                     ; 0x2014 <f256main+0x16f8>
    7dee: a8           	tay
    7def: 8a           	txa
    7df0: 65 17        	adc	$17                     ; 0x2017 <f256main+0x16fb>
    7df2: aa           	tax
    7df3: a5 18        	lda	$18                     ; 0x2018 <f256main+0x16fc>
    7df5: 65 16        	adc	$16                     ; 0x2016 <f256main+0x16fa>
    7df7: 85 12        	sta	$12                     ; 0x2012 <f256main+0x16f6>
    7df9: a5 13        	lda	$13                     ; 0x2013 <f256main+0x16f7>
    7dfb: 65 15        	adc	$15                     ; 0x2015 <f256main+0x16f9>
    7dfd: 85 13        	sta	$13                     ; 0x2013 <f256main+0x16f7>
    7dff: 98           	tya
    7e00: 60           	rts
    7e01: a5 16        	lda	$16                     ; 0x2016 <f256main+0x16fa>
    7e03: c9 00        	cmp	#$0
    7e05: 4c 7f 7d     	jmp	$7d7f <__floatunsisf+0x2c0>
    7e08: a0 00        	ldy	#$0
    7e0a: a2 00        	ldx	#$0
    7e0c: 64 12        	stz	$12                     ; 0x2012 <f256main+0x16f6>
    7e0e: 64 13        	stz	$13                     ; 0x2013 <f256main+0x16f7>
    7e10: 80 ed        	bra	$7dff <__floatunsisf+0x340>
