
midiTest.elf:	file format elf32-mos

SYMBOL TABLE:
00000000 l    df *ABS*	00000000 zero-bss.c
00000000 l    df *ABS*	00000000 zero-zp-bss.c
00000000 l    df *ABS*	00000000 copy-zp-data.c
00000000 l    df *ABS*	00000000 ld-temp.o
0000056e l     F .text	000003a0 f256Init
00000083 l     O .zp.bss	00000007 kernelEventData
00000030 l     O .zp.data	00000001 _ccolor
000079cd l     O .rodata	00000030 textColors
00000033 l     O .zp.bss	00000001 _col
00000034 l     O .zp.bss	00000001 _row
00008cb3 l     O .bss	00000004 _BITMAP_BASE.0
00008cb7 l     O .bss	00000001 kernelError
00000914 l     F .text	000025b3 f256main
00006253 l     F .text	000001d3 malloc
00000081 l     O .zp.bss	00000002 gPtr
00003a01 l     F .text	00000066 resetGlobals
0000004d l     O .zp.bss	00000002 theBeats
00005627 l     F .text	00000c2c printf
000089ae l     O .rodata	0000000c beat60_notes
000089ba l     O .rodata	0000000c beat60_delays
000044ad l     F .text	00000246 setupMem4Track
000089c6 l     O .rodata	00000008 beat61_notes
000089ce l     O .rodata	00000008 beat61_delays
000089d6 l     O .rodata	0000000c beat62_notes
000089e2 l     O .rodata	0000000c beat62_delays
000089ee l     O .rodata	0000000c beat63_notes
000089fa l     O .rodata	0000000c beat63_delays
00008a06 l     O .rodata	0000000c beat64_notes
00008a12 l     O .rodata	0000000c beat64_delays
00008a1e l     O .rodata	00000020 beat65_notes
00008a3e l     O .rodata	00000020 beat65_delays
0000377e l     F .text	00000140 escReset
000038be l     F .text	00000088 prepTempoLUT
0000004f l     O .zp.bss	00000001 refTimer.1
000041b4 l     F .text	00000067 sid_setInstrumentAllChannels
000040e4 l     F .text	00000048 opl3_setInstrumentAllChannels
00008976 l     O .rodata	00000038 rtmplugin
00000031 l     O .zp.data	00000002 note
00000050 l     O .zp.bss	00000002 oldCursorNote
00000037 l     O .zp.bss	00000001 instSelectMode
00002ec7 l     F .text	000001b8 textPrint
00003a67 l     F .text	000005a9 dispatchNote
00003946 l     F .text	000000bb textPrintUInt
000079fd l     O .rodata	00000058 noteColors
00000039 l     O .zp.bss	00000001 altHit
00000052 l     O .zp.bss	00000001 chipAct.0
0000003b l     O .zp.bss	00000012 mainTempoLUT
0000003a l     O .zp.bss	00000001 shiftHit
00000053 l     O .zp.bss	00000001 chipAct.1
00000057 l     O .zp.bss	00000006 polySIDBuffer
00000054 l     O .zp.bss	00000001 chipAct.2
00000063 l     O .zp.bss	00000006 polyPSGBuffer
00000055 l     O .zp.bss	00000001 chipAct.3
0000006f l     O .zp.bss	00000009 polyOPL3Buffer
00000056 l     O .zp.bss	00000001 chipAct.4
00004c78 l     F .text	000000f8 showChipChoiceText
0000421b l     F .text	00000292 getBeatTrackNoteInfo
00000038 l     O .zp.bss	00000001 needsToWaitExpiration
00004df8 l     F .text	000003e3 textTitle
0000307f l     F .text	000006ff launchBeat
00007a55 l     O .rodata	0000007b KeyCodesToMIDINotes
00000035 l     O .zp.bss	00000002 __putchar.s
00004c1e l     F .text	0000005a updateTempoText
000051db l     F .text	000001ae highLightInstChoice
00008b7d l     O .rodata	00000100 midi_instruments
00008c7d l     O .rodata	0000000a sid_instruments_names
00008c87 l     O .rodata	0000002c opl3_instrument_names
00004d70 l     F .text	00000088 showMIDIChoiceText
00004a4e l     F .text	00000169 channelTextMenu
000046f3 l     F .text	0000035b refreshInstrumentText
00005389 l     F .text	00000059 modalMoveUp
000053e2 l     F .text	00000059 modalMoveDown
00004bb7 l     F .text	00000067 refreshBeatTextChoice
00000069 l     O .zp.bss	00000006 reservedPSG
00000078 l     O .zp.bss	00000009 reservedOPL3
0000005d l     O .zp.bss	00000006 reservedSID
00006655 l     F .text	0000005c __udivqi3
00008a5e l     O .rodata	0000002d sid_instrument_defs
0000412c l     F .text	00000088 sid_setInstrument
000064bb l     F .text	00000032 __mulhi3
00008a8b l     O .rodata	000000f2 opl3_instrument_defs
00004010 l     F .text	000000d4 opl3_setInstrument
00000456 l     F .text	000000db _ZN12_GLOBAL__N_19FreeChunk6removeEv
00008cb8 l     O .bss	00000001 _ZN12_GLOBAL__N_19last_freeE
0000031c l     F .text	00000139 _ZN12_GLOBAL__N_19FreeChunk6insertEPvj
0000760f l     F .text	00000353 __floatunsisf
00006a01 l     F .text	00000b92 __divsf3
00007593 l     F .text	0000007c __fixunssfsi
000066b1 l     F .text	000000c0 __udivhi3
00006771 l     F .text	00000147 __umodsi3
00006926 l     F .text	000000db __udivmodhi4
0000887e l     O .rodata	00000018 opl3_fnums
00008872 l     O .rodata	00000006 sidChoiceToVoice
00008916 l     O .rodata	00000060 sidLow
00007f3f l     O .rodata	00000060 sidHigh
00008878 l     O .rodata	00000006 polyPSGChanBits
00008896 l     O .rodata	00000040 psgLow
000088d6 l     O .rodata	00000040 psgHigh
000068b8 l     F .text	0000006e __udivmodqi4
000064a0 l     F .text	0000001b __mulqi3
00005440 l     F .text	000000db _ZN12_GLOBAL__N_13putEcP6Status
0000551b l     F .text	0000010c _ZN12_GLOBAL__N_112print_stringEPKcP6Status
0000008a l     O .zp.bss	00000001 _ZN12_GLOBAL__N_111initializedE
00008cb9 l     O .bss	00000002 _ZN12_GLOBAL__N_19free_listE
0000008b l     O .zp.bss	00000002 _ZN12_GLOBAL__N_19free_sizeE
00006472 l     F .text	00000017 __ashlsi3
00006489 l     F .text	00000017 __lshrsi3
000064ed l     F .text	00000070 __mulsi3
0000655d l     F .text	000000f8 __muldi3
0000090e g     F .text	00000006 main
0004ac00 g       .pia1	00000000 pia1_end
000303fc g       .palpiano	00000000 palpiano_end
00038000 g       .pia1	00000000 pia1_start
00030000 g       .palpiano	00000000 palpiano_start
00000318 g       .text	00000000 __after_main
00000304 g       .text	00000000 __do_init_stack
00000312 g       .text	00000000 __do_copy_zp_data
00000557 g     F .text	00000017 __copy_zp_data
0000030c g       .text	00000000 __do_zero_bss
00000531 g     F .text	00000013 __zero_bss
0000030f g       .text	00000000 __do_zero_zp_bss
00000544 g     F .text	00000013 __zero_zp_bss
0000543b g     F .text	00000005 exit
0000031b g       .text	00000000 _fini
00007962 g       .rodata	00000000 __set_v
00006452  w    F .text	00000020 __memset
00001000  w      *ABS*	00000000 __heap_default_limit
00008cbc g       .noinit	00000000 __heap_start
00006426  w    F .text	0000002c memcpy
00000010 g       *ABS*	00000000 __rc0
00000012 g       *ABS*	00000000 __rc2
00000014 g       *ABS*	00000000 __rc4
00000016 g       *ABS*	00000000 __rc6
00000018 g       *ABS*	00000000 __rc8
0000001a g       *ABS*	00000000 __rc10
0000001c g       *ABS*	00000000 __rc12
0000001e g       *ABS*	00000000 __rc14
00000020 g       *ABS*	00000000 __rc16
00000022 g       *ABS*	00000000 __rc18
00000024 g       *ABS*	00000000 __rc20
00000026 g       *ABS*	00000000 __rc22
00000028 g       *ABS*	00000000 __rc24
0000002a g       *ABS*	00000000 __rc26
0000002c g       *ABS*	00000000 __rc28
0000002e g       *ABS*	00000000 __rc30
0000002f g       *ABS*	00000000 __rc31
00000300 g       *ABS*	00000000 __f256_start
0000c000 g       *ABS*	00000000 __stack
0000c000 g       *ABS*	00000000 __SLOT_ADDR
0800c000 g       *ABS*	00000000 __block8_lma
00002000 g       *ABS*	00000000 __BLOCK_SIZE
0900c000 g       *ABS*	00000000 __block9_lma
0a00c000 g       *ABS*	00000000 __block10_lma
0b00c000 g       *ABS*	00000000 __block11_lma
0c00c000 g       *ABS*	00000000 __block12_lma
0d00c000 g       *ABS*	00000000 __block13_lma
0e00c000 g       *ABS*	00000000 __block14_lma
0f00c000 g       *ABS*	00000000 __block15_lma
1000c000 g       *ABS*	00000000 __block16_lma
1100c000 g       *ABS*	00000000 __block17_lma
1200c000 g       *ABS*	00000000 __block18_lma
1300c000 g       *ABS*	00000000 __block19_lma
1400c000 g       *ABS*	00000000 __block20_lma
1500c000 g       *ABS*	00000000 __block21_lma
1600c000 g       *ABS*	00000000 __block22_lma
1700c000 g       *ABS*	00000000 __block23_lma
00030000 g       *ABS*	00000000 __palpiano_lma
000003fc g       *ABS*	00000000 __palpiano_size
00038000 g       *ABS*	00000000 __pia1_lma
00012c00 g       *ABS*	00000000 __pia1_size
00008cb3 g       .bss	00000000 __bss_start
000303fc g       .palpiano	00000000 end_palpiano
0004ac00 g       .pia1	00000000 end_pia1
00000304 g       .text	00000000 _start
0000002d g       *ABS*	00000000 __rc29
0000002b g       *ABS*	00000000 __rc27
00000029 g       *ABS*	00000000 __rc25
00000027 g       *ABS*	00000000 __rc23
00000025 g       *ABS*	00000000 __rc21
00000023 g       *ABS*	00000000 __rc19
00000021 g       *ABS*	00000000 __rc17
0000001f g       *ABS*	00000000 __rc15
0000001d g       *ABS*	00000000 __rc13
0000001b g       *ABS*	00000000 __rc11
00000019 g       *ABS*	00000000 __rc9
00000017 g       *ABS*	00000000 __rc7
00000015 g       *ABS*	00000000 __rc5
00000013 g       *ABS*	00000000 __rc3
00000011 g       *ABS*	00000000 __rc1
00000030 g       .zp.data	00000000 __zp_data_start
00000300 g       *ABS*	00000000 __zp_data_load_start
00000003 g       *ABS*	00000000 __zp_data_size
00000033 g       .zp.bss	00000000 __zp_bss_start
0000005a g       *ABS*	00000000 __zp_bss_size
00000304 g       .text	00000000 _init
00007962 g       .text	00000000 __init_array_start
00007962 g       .text	00000000 __init_array_end
00007962 g       .text	00000000 __fini_array_start
00007962 g       .text	00000000 __fini_array_end
00008cb3 g       .data	00000000 __data_start
00008cb3 g       .data	00000000 __data_end
00008cb3 g       *ABS*	00000000 __data_load_start
00000000 g       *ABS*	00000000 __data_size
00008cbb g       .bss	00000000 __bss_end
00000008 g       *ABS*	00000000 __bss_size
00008cbb g       .noinit	00000000 end_block8
00008cbb g       .noinit	00000000 end_block9
00008cbb g       .noinit	00000000 end_block10
00008cbb g       .noinit	00000000 end_block11
00008cbb g       .noinit	00000000 end_block12
00008cbb g       .noinit	00000000 end_block13
00008cbb g       .noinit	00000000 end_block14
00008cbb g       .noinit	00000000 end_block15
00008cbb g       .noinit	00000000 end_block16
00008cbb g       .noinit	00000000 end_block17
00008cbb g       .noinit	00000000 end_block18
00008cbb g       .noinit	00000000 end_block19
00008cbb g       .noinit	00000000 end_block20
00008cbb g       .noinit	00000000 end_block21
00008cbb g       .noinit	00000000 end_block22
00008cbb g       .noinit	00000000 end_block23

Disassembly of section .text:

00000304 <_start>:
     304: a9 00        	lda	#$0
     306: 85 10        	sta	$10                     ; 0x2010 <f256main+0x16fc>
     308: a9 c0        	lda	#$c0
     30a: 85 11        	sta	$11                     ; 0x2011 <f256main+0x16fd>

0000030c <__do_zero_bss>:
     30c: 20 31 05     	jsr	$531 <__zero_bss>

0000030f <__do_zero_zp_bss>:
     30f: 20 44 05     	jsr	$544 <__zero_zp_bss>

00000312 <__do_copy_zp_data>:
     312: 20 57 05     	jsr	$557 <__copy_zp_data>
     315: 20 0e 09     	jsr	$90e <main>

00000318 <__after_main>:
     318: 4c 3b 54     	jmp	$543b <exit>

0000031b <_fini>:
     31b: 60           	rts

0000031c <_ZN12_GLOBAL__N_19FreeChunk6insertEPvj>:
     31c: 85 16        	sta	$16                     ; 0x2016 <f256main+0x1702>
     31e: 29 fe        	and	#$fe
     320: 85 14        	sta	$14                     ; 0x2014 <f256main+0x1700>
     322: a0 01        	ldy	#$1
     324: 98           	tya
     325: 32 12        	and	($12)                   ; 0x2012 <f256main+0x16fe>
     327: 05 14        	ora	$14                     ; 0x2014 <f256main+0x1700>
     329: 92 12        	sta	($12)                   ; 0x2012 <f256main+0x16fe>
     32b: a5 12        	lda	$12                     ; 0x2012 <f256main+0x16fe>
     32d: 18           	clc
     32e: 65 14        	adc	$14                     ; 0x2014 <f256main+0x1700>
     330: 85 15        	sta	$15                     ; 0x2015 <f256main+0x1701>
     332: 8a           	txa
     333: 65 13        	adc	$13                     ; 0x2013 <f256main+0x16ff>
     335: 85 14        	sta	$14                     ; 0x2014 <f256main+0x1700>
     337: 18           	clc
     338: a5 15        	lda	$15                     ; 0x2015 <f256main+0x1701>
     33a: 69 fe        	adc	#$fe
     33c: 85 17        	sta	$17                     ; 0x2017 <f256main+0x1703>
     33e: a5 14        	lda	$14                     ; 0x2014 <f256main+0x1700>
     340: 69 ff        	adc	#$ff
     342: 85 15        	sta	$15                     ; 0x2015 <f256main+0x1701>
     344: a5 17        	lda	$17                     ; 0x2017 <f256main+0x1703>
     346: 85 14        	sta	$14                     ; 0x2014 <f256main+0x1700>
     348: 8a           	txa
     349: 91 12        	sta	($12),y                 ; 0x2012 <f256main+0x16fe>
     34b: a5 16        	lda	$16                     ; 0x2016 <f256main+0x1702>
     34d: 92 14        	sta	($14)                   ; 0x2014 <f256main+0x1700>
     34f: 8a           	txa
     350: 91 14        	sta	($14),y                 ; 0x2014 <f256main+0x1700>
     352: b1 12        	lda	($12),y                 ; 0x2012 <f256main+0x16fe>
     354: 85 14        	sta	$14                     ; 0x2014 <f256main+0x1700>
     356: a9 fe        	lda	#$fe
     358: 32 12        	and	($12)                   ; 0x2012 <f256main+0x16fe>
     35a: 18           	clc
     35b: 65 8b        	adc	$8b                     ; 0x208b <f256main+0x1777>
     35d: aa           	tax
     35e: a5 14        	lda	$14                     ; 0x2014 <f256main+0x1700>
     360: 65 8c        	adc	$8c                     ; 0x208c <f256main+0x1778>
     362: a8           	tay
     363: 18           	clc
     364: 8a           	txa
     365: 69 fe        	adc	#$fe
     367: aa           	tax
     368: 98           	tya
     369: 69 ff        	adc	#$ff
     36b: 86 8b        	stx	$8b                     ; 0x208b <f256main+0x1777>
     36d: 85 8c        	sta	$8c                     ; 0x208c <f256main+0x1778>
     36f: ae b9 8c     	ldx	$8cb9                   ; 0x8cb9 <_ZN12_GLOBAL__N_19free_listE>
     372: 86 16        	stx	$16                     ; 0x2016 <f256main+0x1702>
     374: ac ba 8c     	ldy	$8cba                   ; 0x8cba <_ZN12_GLOBAL__N_19free_listE+0x1>
     377: a2 00        	ldx	#$0
     379: 86 14        	stx	$14                     ; 0x2014 <f256main+0x1700>
     37b: a2 00        	ldx	#$0
     37d: 86 15        	stx	$15                     ; 0x2015 <f256main+0x1701>
     37f: c4 15        	cpy	$15                     ; 0x2015 <f256main+0x1701>
     381: d0 3e        	bne	$3c1 <_ZN12_GLOBAL__N_19FreeChunk6insertEPvj+0xa5>
     383: a6 16        	ldx	$16                     ; 0x2016 <f256main+0x1702>
     385: e4 14        	cpx	$14                     ; 0x2014 <f256main+0x1700>
     387: d0 38        	bne	$3c1 <_ZN12_GLOBAL__N_19FreeChunk6insertEPvj+0xa5>
     389: a0 04        	ldy	#$4
     38b: a5 12        	lda	$12                     ; 0x2012 <f256main+0x16fe>
     38d: 18           	clc
     38e: 69 04        	adc	#$4
     390: 85 14        	sta	$14                     ; 0x2014 <f256main+0x1700>
     392: a5 13        	lda	$13                     ; 0x2013 <f256main+0x16ff>
     394: 69 00        	adc	#$0
     396: 18           	clc
     397: 85 15        	sta	$15                     ; 0x2015 <f256main+0x1701>
     399: a5 12        	lda	$12                     ; 0x2012 <f256main+0x16fe>
     39b: 91 12        	sta	($12),y                 ; 0x2012 <f256main+0x16fe>
     39d: a0 02        	ldy	#$2
     39f: 85 17        	sta	$17                     ; 0x2017 <f256main+0x1703>
     3a1: 69 02        	adc	#$2
     3a3: 85 16        	sta	$16                     ; 0x2016 <f256main+0x1702>
     3a5: a5 17        	lda	$17                     ; 0x2017 <f256main+0x1703>
     3a7: 91 12        	sta	($12),y                 ; 0x2012 <f256main+0x16fe>
     3a9: a5 13        	lda	$13                     ; 0x2013 <f256main+0x16ff>
     3ab: 69 00        	adc	#$0
     3ad: 85 17        	sta	$17                     ; 0x2017 <f256main+0x1703>
     3af: 88           	dey
     3b0: a5 13        	lda	$13                     ; 0x2013 <f256main+0x16ff>
     3b2: 91 14        	sta	($14),y                 ; 0x2014 <f256main+0x1700>
     3b4: 91 16        	sta	($16),y                 ; 0x2016 <f256main+0x1702>
     3b6: a6 12        	ldx	$12                     ; 0x2012 <f256main+0x16fe>
     3b8: 8e b9 8c     	stx	$8cb9                   ; 0x8cb9 <_ZN12_GLOBAL__N_19free_listE>
     3bb: a6 13        	ldx	$13                     ; 0x2013 <f256main+0x16ff>
     3bd: 8e ba 8c     	stx	$8cba                   ; 0x8cba <_ZN12_GLOBAL__N_19free_listE+0x1>
     3c0: 60           	rts
     3c1: a6 12        	ldx	$12                     ; 0x2012 <f256main+0x16fe>
     3c3: a5 12        	lda	$12                     ; 0x2012 <f256main+0x16fe>
     3c5: 18           	clc
     3c6: 69 02        	adc	#$2
     3c8: 85 14        	sta	$14                     ; 0x2014 <f256main+0x1700>
     3ca: 84 18        	sty	$18                     ; 0x2018 <f256main+0x1704>
     3cc: a5 13        	lda	$13                     ; 0x2013 <f256main+0x16ff>
     3ce: 69 00        	adc	#$0
     3d0: 85 15        	sta	$15                     ; 0x2015 <f256main+0x1701>
     3d2: a5 16        	lda	$16                     ; 0x2016 <f256main+0x1702>
     3d4: 84 17        	sty	$17                     ; 0x2017 <f256main+0x1703>
     3d6: a0 02        	ldy	#$2
     3d8: 91 12        	sta	($12),y                 ; 0x2012 <f256main+0x16fe>
     3da: 85 19        	sta	$19                     ; 0x2019 <f256main+0x1705>
     3dc: 88           	dey
     3dd: a5 18        	lda	$18                     ; 0x2018 <f256main+0x1704>
     3df: 91 14        	sta	($14),y                 ; 0x2014 <f256main+0x1700>
     3e1: 18           	clc
     3e2: a5 19        	lda	$19                     ; 0x2019 <f256main+0x1705>
     3e4: 69 04        	adc	#$4
     3e6: a8           	tay
     3e7: a5 18        	lda	$18                     ; 0x2018 <f256main+0x1704>
     3e9: 69 00        	adc	#$0
     3eb: 85 19        	sta	$19                     ; 0x2019 <f256main+0x1705>
     3ed: 84 18        	sty	$18                     ; 0x2018 <f256main+0x1704>
     3ef: 8a           	txa
     3f0: 18           	clc
     3f1: 69 04        	adc	#$4
     3f3: 85 1a        	sta	$1a                     ; 0x201a <f256main+0x1706>
     3f5: a5 13        	lda	$13                     ; 0x2013 <f256main+0x16ff>
     3f7: 69 00        	adc	#$0
     3f9: 85 1b        	sta	$1b                     ; 0x201b <f256main+0x1707>
     3fb: a0 04        	ldy	#$4
     3fd: b1 16        	lda	($16),y                 ; 0x2016 <f256main+0x1702>
     3ff: 85 16        	sta	$16                     ; 0x2016 <f256main+0x1702>
     401: 85 1d        	sta	$1d                     ; 0x201d <f256main+0x1709>
     403: a0 01        	ldy	#$1
     405: b1 18        	lda	($18),y                 ; 0x2018 <f256main+0x1704>
     407: 85 17        	sta	$17                     ; 0x2017 <f256main+0x1703>
     409: 85 19        	sta	$19                     ; 0x2019 <f256main+0x1705>
     40b: a0 04        	ldy	#$4
     40d: a5 1d        	lda	$1d                     ; 0x201d <f256main+0x1709>
     40f: 91 12        	sta	($12),y                 ; 0x2012 <f256main+0x16fe>
     411: a5 19        	lda	$19                     ; 0x2019 <f256main+0x1705>
     413: a0 01        	ldy	#$1
     415: 91 1a        	sta	($1a),y                 ; 0x201a <f256main+0x1706>
     417: 18           	clc
     418: a5 1d        	lda	$1d                     ; 0x201d <f256main+0x1709>
     41a: 69 02        	adc	#$2
     41c: 85 18        	sta	$18                     ; 0x2018 <f256main+0x1704>
     41e: a5 19        	lda	$19                     ; 0x2019 <f256main+0x1705>
     420: 69 00        	adc	#$0
     422: 85 19        	sta	$19                     ; 0x2019 <f256main+0x1705>
     424: 8a           	txa
     425: c8           	iny
     426: 91 16        	sta	($16),y                 ; 0x2016 <f256main+0x1702>
     428: a5 13        	lda	$13                     ; 0x2013 <f256main+0x16ff>
     42a: 88           	dey
     42b: 91 18        	sta	($18),y                 ; 0x2018 <f256main+0x1704>
     42d: c8           	iny
     42e: b1 12        	lda	($12),y                 ; 0x2012 <f256main+0x16fe>
     430: 85 16        	sta	$16                     ; 0x2016 <f256main+0x1702>
     432: 85 18        	sta	$18                     ; 0x2018 <f256main+0x1704>
     434: 88           	dey
     435: b1 14        	lda	($14),y                 ; 0x2014 <f256main+0x1700>
     437: 85 17        	sta	$17                     ; 0x2017 <f256main+0x1703>
     439: 85 14        	sta	$14                     ; 0x2014 <f256main+0x1700>
     43b: 8a           	txa
     43c: a0 04        	ldy	#$4
     43e: 91 16        	sta	($16),y                 ; 0x2016 <f256main+0x1702>
     440: 18           	clc
     441: a5 18        	lda	$18                     ; 0x2018 <f256main+0x1704>
     443: 69 04        	adc	#$4
     445: a8           	tay
     446: a5 14        	lda	$14                     ; 0x2014 <f256main+0x1700>
     448: 69 00        	adc	#$0
     44a: 84 14        	sty	$14                     ; 0x2014 <f256main+0x1700>
     44c: 85 15        	sta	$15                     ; 0x2015 <f256main+0x1701>
     44e: a5 13        	lda	$13                     ; 0x2013 <f256main+0x16ff>
     450: a0 01        	ldy	#$1
     452: 91 14        	sta	($14),y                 ; 0x2014 <f256main+0x1700>
     454: 60           	rts
     455: 00           	brk

00000456 <_ZN12_GLOBAL__N_19FreeChunk6removeEv>:
     456: a0 01        	ldy	#$1
     458: a9 fe        	lda	#$fe
     45a: 32 12        	and	($12)                   ; 0x2012 <f256main+0x16fe>
     45c: 85 14        	sta	$14                     ; 0x2014 <f256main+0x1700>
     45e: a5 8b        	lda	$8b                     ; 0x208b <f256main+0x1777>
     460: a6 8c        	ldx	$8c                     ; 0x208c <f256main+0x1778>
     462: 86 15        	stx	$15                     ; 0x2015 <f256main+0x1701>
     464: 38           	sec
     465: e5 14        	sbc	$14                     ; 0x2014 <f256main+0x1700>
     467: aa           	tax
     468: a5 15        	lda	$15                     ; 0x2015 <f256main+0x1701>
     46a: f1 12        	sbc	($12),y                 ; 0x2012 <f256main+0x16fe>
     46c: 85 14        	sta	$14                     ; 0x2014 <f256main+0x1700>
     46e: 18           	clc
     46f: 8a           	txa
     470: 69 02        	adc	#$2
     472: 85 15        	sta	$15                     ; 0x2015 <f256main+0x1701>
     474: a5 14        	lda	$14                     ; 0x2014 <f256main+0x1700>
     476: 69 00        	adc	#$0
     478: a6 15        	ldx	$15                     ; 0x2015 <f256main+0x1701>
     47a: 86 8b        	stx	$8b                     ; 0x208b <f256main+0x1777>
     47c: 85 8c        	sta	$8c                     ; 0x208c <f256main+0x1778>
     47e: a5 12        	lda	$12                     ; 0x2012 <f256main+0x16fe>
     480: 18           	clc
     481: 69 02        	adc	#$2
     483: 85 14        	sta	$14                     ; 0x2014 <f256main+0x1700>
     485: a5 13        	lda	$13                     ; 0x2013 <f256main+0x16ff>
     487: 69 00        	adc	#$0
     489: c8           	iny
     48a: 85 15        	sta	$15                     ; 0x2015 <f256main+0x1701>
     48c: b1 12        	lda	($12),y                 ; 0x2012 <f256main+0x16fe>
     48e: aa           	tax
     48f: 88           	dey
     490: b1 14        	lda	($14),y                 ; 0x2014 <f256main+0x1700>
     492: 85 19        	sta	$19                     ; 0x2019 <f256main+0x1705>
     494: c5 13        	cmp	$13                     ; 0x2013 <f256main+0x16ff>
     496: d0 0f        	bne	$4a7 <_ZN12_GLOBAL__N_19FreeChunk6removeEv+0x51>
     498: e4 12        	cpx	$12                     ; 0x2012 <f256main+0x16fe>
     49a: d0 0b        	bne	$4a7 <_ZN12_GLOBAL__N_19FreeChunk6removeEv+0x51>
     49c: a2 00        	ldx	#$0
     49e: 86 14        	stx	$14                     ; 0x2014 <f256main+0x1700>
     4a0: a2 00        	ldx	#$0
     4a2: 86 15        	stx	$15                     ; 0x2015 <f256main+0x1701>
     4a4: 4c 26 05     	jmp	$526 <_ZN12_GLOBAL__N_19FreeChunk6removeEv+0xd0>
     4a7: 86 18        	stx	$18                     ; 0x2018 <f256main+0x1704>
     4a9: a6 12        	ldx	$12                     ; 0x2012 <f256main+0x16fe>
     4ab: a5 12        	lda	$12                     ; 0x2012 <f256main+0x16fe>
     4ad: 86 1b        	stx	$1b                     ; 0x201b <f256main+0x1707>
     4af: 18           	clc
     4b0: 69 04        	adc	#$4
     4b2: 85 14        	sta	$14                     ; 0x2014 <f256main+0x1700>
     4b4: a5 13        	lda	$13                     ; 0x2013 <f256main+0x16ff>
     4b6: 69 00        	adc	#$0
     4b8: a0 04        	ldy	#$4
     4ba: 85 15        	sta	$15                     ; 0x2015 <f256main+0x1701>
     4bc: b1 12        	lda	($12),y                 ; 0x2012 <f256main+0x16fe>
     4be: 85 1c        	sta	$1c                     ; 0x201c <f256main+0x1708>
     4c0: 18           	clc
     4c1: 69 02        	adc	#$2
     4c3: 85 16        	sta	$16                     ; 0x2016 <f256main+0x1702>
     4c5: a0 01        	ldy	#$1
     4c7: b1 14        	lda	($14),y                 ; 0x2014 <f256main+0x1700>
     4c9: aa           	tax
     4ca: 69 00        	adc	#$0
     4cc: a4 16        	ldy	$16                     ; 0x2016 <f256main+0x1702>
     4ce: 84 14        	sty	$14                     ; 0x2014 <f256main+0x1700>
     4d0: 85 15        	sta	$15                     ; 0x2015 <f256main+0x1701>
     4d2: a4 1c        	ldy	$1c                     ; 0x201c <f256main+0x1708>
     4d4: 84 16        	sty	$16                     ; 0x2016 <f256main+0x1702>
     4d6: 86 17        	stx	$17                     ; 0x2017 <f256main+0x1703>
     4d8: a0 02        	ldy	#$2
     4da: a5 18        	lda	$18                     ; 0x2018 <f256main+0x1704>
     4dc: 91 16        	sta	($16),y                 ; 0x2016 <f256main+0x1702>
     4de: a5 19        	lda	$19                     ; 0x2019 <f256main+0x1705>
     4e0: 88           	dey
     4e1: 91 14        	sta	($14),y                 ; 0x2014 <f256main+0x1700>
     4e3: 18           	clc
     4e4: a5 1b        	lda	$1b                     ; 0x201b <f256main+0x1707>
     4e6: 69 02        	adc	#$2
     4e8: 85 14        	sta	$14                     ; 0x2014 <f256main+0x1700>
     4ea: a5 13        	lda	$13                     ; 0x2013 <f256main+0x16ff>
     4ec: 69 00        	adc	#$0
     4ee: 85 15        	sta	$15                     ; 0x2015 <f256main+0x1701>
     4f0: c8           	iny
     4f1: b1 12        	lda	($12),y                 ; 0x2012 <f256main+0x16fe>
     4f3: 85 16        	sta	$16                     ; 0x2016 <f256main+0x1702>
     4f5: 88           	dey
     4f6: b1 14        	lda	($14),y                 ; 0x2014 <f256main+0x1700>
     4f8: a4 16        	ldy	$16                     ; 0x2016 <f256main+0x1702>
     4fa: 84 14        	sty	$14                     ; 0x2014 <f256main+0x1700>
     4fc: 85 15        	sta	$15                     ; 0x2015 <f256main+0x1701>
     4fe: 85 17        	sta	$17                     ; 0x2017 <f256main+0x1703>
     500: a0 04        	ldy	#$4
     502: a5 1c        	lda	$1c                     ; 0x201c <f256main+0x1708>
     504: 91 14        	sta	($14),y                 ; 0x2014 <f256main+0x1700>
     506: 18           	clc
     507: a5 16        	lda	$16                     ; 0x2016 <f256main+0x1702>
     509: 69 04        	adc	#$4
     50b: 85 16        	sta	$16                     ; 0x2016 <f256main+0x1702>
     50d: a5 17        	lda	$17                     ; 0x2017 <f256main+0x1703>
     50f: 69 00        	adc	#$0
     511: 85 17        	sta	$17                     ; 0x2017 <f256main+0x1703>
     513: 8a           	txa
     514: a0 01        	ldy	#$1
     516: 91 16        	sta	($16),y                 ; 0x2016 <f256main+0x1702>
     518: ae ba 8c     	ldx	$8cba                   ; 0x8cba <_ZN12_GLOBAL__N_19free_listE+0x1>
     51b: e4 13        	cpx	$13                     ; 0x2013 <f256main+0x16ff>
     51d: d0 11        	bne	$530 <_ZN12_GLOBAL__N_19FreeChunk6removeEv+0xda>
     51f: ae b9 8c     	ldx	$8cb9                   ; 0x8cb9 <_ZN12_GLOBAL__N_19free_listE>
     522: e4 12        	cpx	$12                     ; 0x2012 <f256main+0x16fe>
     524: d0 0a        	bne	$530 <_ZN12_GLOBAL__N_19FreeChunk6removeEv+0xda>
     526: a6 14        	ldx	$14                     ; 0x2014 <f256main+0x1700>
     528: a4 15        	ldy	$15                     ; 0x2015 <f256main+0x1701>
     52a: 8e b9 8c     	stx	$8cb9                   ; 0x8cb9 <_ZN12_GLOBAL__N_19free_listE>
     52d: 8c ba 8c     	sty	$8cba                   ; 0x8cba <_ZN12_GLOBAL__N_19free_listE+0x1>
     530: 60           	rts

00000531 <__zero_bss>:
     531: a2 08        	ldx	#$8
     533: a0 00        	ldy	#$0
     535: a9 b3        	lda	#$b3
     537: 85 12        	sta	$12                     ; 0x2012 <f256main+0x16fe>
     539: a9 8c        	lda	#$8c
     53b: 85 13        	sta	$13                     ; 0x2013 <f256main+0x16ff>
     53d: a9 00        	lda	#$0
     53f: 84 14        	sty	$14                     ; 0x2014 <f256main+0x1700>
     541: 4c 52 64     	jmp	$6452 <__memset>

00000544 <__zero_zp_bss>:
     544: a2 5a        	ldx	#$5a
     546: a0 00        	ldy	#$0
     548: a9 33        	lda	#$33
     54a: 85 12        	sta	$12                     ; 0x2012 <f256main+0x16fe>
     54c: a9 00        	lda	#$0
     54e: 85 13        	sta	$13                     ; 0x2013 <f256main+0x16ff>
     550: a9 00        	lda	#$0
     552: 84 14        	sty	$14                     ; 0x2014 <f256main+0x1700>
     554: 4c 52 64     	jmp	$6452 <__memset>

00000557 <__copy_zp_data>:
     557: a9 03        	lda	#$3
     559: a2 00        	ldx	#$0
     55b: a0 30        	ldy	#$30
     55d: 84 12        	sty	$12                     ; 0x2012 <f256main+0x16fe>
     55f: a0 00        	ldy	#$0
     561: 84 13        	sty	$13                     ; 0x2013 <f256main+0x16ff>
     563: a0 00        	ldy	#$0
     565: 84 14        	sty	$14                     ; 0x2014 <f256main+0x1700>
     567: a0 03        	ldy	#$3
     569: 84 15        	sty	$15                     ; 0x2015 <f256main+0x1701>
     56b: 4c 26 64     	jmp	$6426 <memcpy>

0000056e <f256Init>:
     56e: 64 14        	stz	$14                     ; 0x2014 <f256main+0x1700>
     570: a2 00        	ldx	#$0
     572: 86 12        	stx	$12                     ; 0x2012 <f256main+0x16fe>
     574: a2 c0        	ldx	#$c0
     576: 86 13        	stx	$13                     ; 0x2013 <f256main+0x16ff>
     578: 64 01        	stz	$1                      ; 0x2001 <f256main+0x16ed>
     57a: a2 3f        	ldx	#$3f
     57c: 8e 00 d0     	stx	$d000                   ; 0xd000 <__heap_start+0x4344>
     57f: a2 b3        	ldx	#$b3
     581: 86 00        	stx	$0                      ; 0x2000 <f256main+0x16ec>
     583: 64 08        	stz	$8                      ; 0x2008 <f256main+0x16f4>
     585: a2 01        	ldx	#$1
     587: 86 09        	stx	$9                      ; 0x2009 <f256main+0x16f5>
     589: e8           	inx
     58a: 86 0a        	stx	$a                      ; 0x200a <f256main+0x16f6>
     58c: e8           	inx
     58d: 86 0b        	stx	$b                      ; 0x200b <f256main+0x16f7>
     58f: e8           	inx
     590: 86 0c        	stx	$c                      ; 0x200c <f256main+0x16f8>
     592: e8           	inx
     593: 86 0d        	stx	$d                      ; 0x200d <f256main+0x16f9>
     595: a2 83        	ldx	#$83
     597: a0 00        	ldy	#$0
     599: 86 f0        	stx	$f0                     ; 0x20f0 <f256main+0x17dc>
     59b: 84 f1        	sty	$f1                     ; 0x20f1 <f256main+0x17dd>
     59d: a2 00        	ldx	#$0
     59f: 86 18        	stx	$18                     ; 0x2018 <f256main+0x1704>
     5a1: ca           	dex
     5a2: 86 19        	stx	$19                     ; 0x2019 <f256main+0x1705>
     5a4: 8a           	txa
     5a5: 0a           	asl
     5a6: 0a           	asl
     5a7: 18           	clc
     5a8: 69 d4        	adc	#$d4
     5aa: 85 1a        	sta	$1a                     ; 0x201a <f256main+0x1706>
     5ac: a0 00        	ldy	#$0
     5ae: 64 17        	stz	$17                     ; 0x2017 <f256main+0x1703>
     5b0: 64 16        	stz	$16                     ; 0x2016 <f256main+0x1702>
     5b2: a6 19        	ldx	$19                     ; 0x2019 <f256main+0x1705>
     5b4: e0 03        	cpx	#$3
     5b6: a6 01        	ldx	$1                      ; 0x2001 <f256main+0x16ed>
     5b8: 86 1c        	stx	$1c                     ; 0x201c <f256main+0x1708>
     5ba: a2 d0        	ldx	#$d0
     5bc: 84 1b        	sty	$1b                     ; 0x201b <f256main+0x1707>
     5be: b0 02        	bcs	$5c2 <f256Init+0x54>
     5c0: a6 1a        	ldx	$1a                     ; 0x201a <f256main+0x1706>
     5c2: 86 15        	stx	$15                     ; 0x2015 <f256main+0x1701>
     5c4: a5 17        	lda	$17                     ; 0x2017 <f256main+0x1703>
     5c6: 18           	clc
     5c7: 65 14        	adc	$14                     ; 0x2014 <f256main+0x1700>
     5c9: a8           	tay
     5ca: a6 17        	ldx	$17                     ; 0x2017 <f256main+0x1703>
     5cc: a5 16        	lda	$16                     ; 0x2016 <f256main+0x1702>
     5ce: 85 1d        	sta	$1d                     ; 0x201d <f256main+0x1709>
     5d0: a5 16        	lda	$16                     ; 0x2016 <f256main+0x1702>
     5d2: 65 15        	adc	$15                     ; 0x2015 <f256main+0x1701>
     5d4: 84 16        	sty	$16                     ; 0x2016 <f256main+0x1702>
     5d6: a0 01        	ldy	#$1
     5d8: 84 01        	sty	$1                      ; 0x2001 <f256main+0x16ed>
     5da: 85 17        	sta	$17                     ; 0x2017 <f256main+0x1703>
     5dc: a5 1b        	lda	$1b                     ; 0x201b <f256main+0x1707>
     5de: 92 16        	sta	($16)                   ; 0x2016 <f256main+0x1702>
     5e0: 91 16        	sta	($16),y                 ; 0x2016 <f256main+0x1702>
     5e2: c8           	iny
     5e3: 91 16        	sta	($16),y                 ; 0x2016 <f256main+0x1702>
     5e5: 85 15        	sta	$15                     ; 0x2015 <f256main+0x1701>
     5e7: c8           	iny
     5e8: a9 ff        	lda	#$ff
     5ea: 91 16        	sta	($16),y                 ; 0x2016 <f256main+0x1702>
     5ec: 8a           	txa
     5ed: a6 1c        	ldx	$1c                     ; 0x201c <f256main+0x1708>
     5ef: 86 01        	stx	$1                      ; 0x2001 <f256main+0x16ed>
     5f1: 18           	clc
     5f2: 69 04        	adc	#$4
     5f4: 85 17        	sta	$17                     ; 0x2017 <f256main+0x1703>
     5f6: a5 1d        	lda	$1d                     ; 0x201d <f256main+0x1709>
     5f8: 69 00        	adc	#$0
     5fa: e6 15        	inc	$15                     ; 0x2015 <f256main+0x1701>
     5fc: a4 15        	ldy	$15                     ; 0x2015 <f256main+0x1701>
     5fe: 85 16        	sta	$16                     ; 0x2016 <f256main+0x1702>
     600: c9 04        	cmp	#$4
     602: f0 03        	beq	$607 <f256Init+0x99>
     604: 4c b2 05     	jmp	$5b2 <f256Init+0x44>
     607: a5 17        	lda	$17                     ; 0x2017 <f256main+0x1703>
     609: f0 03        	beq	$60e <f256Init+0xa0>
     60b: 4c b2 05     	jmp	$5b2 <f256Init+0x44>
     60e: a6 18        	ldx	$18                     ; 0x2018 <f256main+0x1704>
     610: e8           	inx
     611: e0 04        	cpx	#$4
     613: f0 03        	beq	$618 <f256Init+0xaa>
     615: 4c 9f 05     	jmp	$59f <f256Init+0x31>
     618: ad 02 d0     	lda	$d002                   ; 0xd002 <__heap_start+0x4346>
     61b: a2 f0        	ldx	#$f0
     61d: 29 f0        	and	#$f0
     61f: 8d 02 d0     	sta	$d002                   ; 0xd002 <__heap_start+0x4346>
     622: ad 02 d0     	lda	$d002                   ; 0xd002 <__heap_start+0x4346>
     625: 29 0f        	and	#$f
     627: 09 10        	ora	#$10
     629: 8d 02 d0     	sta	$d002                   ; 0xd002 <__heap_start+0x4346>
     62c: a0 02        	ldy	#$2
     62e: 8c 03 d0     	sty	$d003                   ; 0xd003 <__heap_start+0x4347>
     631: 86 30        	stx	$30                     ; 0x2030 <f256main+0x171c>
     633: ad 01 d0     	lda	$d001                   ; 0xd001 <__heap_start+0x4345>
     636: 29 f9        	and	#$f9
     638: 09 04        	ora	#$4
     63a: 8d 01 d0     	sta	$d001                   ; 0xd001 <__heap_start+0x4345>
     63d: 64 14        	stz	$14                     ; 0x2014 <f256main+0x1700>
     63f: 9c 10 d0     	stz	$d010                   ; 0xd010 <__heap_start+0x4354>
     642: a2 00        	ldx	#$0
     644: 64 15        	stz	$15                     ; 0x2015 <f256main+0x1701>
     646: 86 18        	stx	$18                     ; 0x2018 <f256main+0x1704>
     648: a4 18        	ldy	$18                     ; 0x2018 <f256main+0x1704>
     64a: be cd 79     	ldx	$79cd,y                 ; 0x79cd <textColors>
     64d: 86 19        	stx	$19                     ; 0x2019 <f256main+0x1705>
     64f: be ce 79     	ldx	$79ce,y                 ; 0x79ce <textColors+0x1>
     652: 86 1a        	stx	$1a                     ; 0x201a <f256main+0x1706>
     654: be cf 79     	ldx	$79cf,y                 ; 0x79cf <textColors+0x2>
     657: 86 1b        	stx	$1b                     ; 0x201b <f256main+0x1707>
     659: a6 15        	ldx	$15                     ; 0x2015 <f256main+0x1701>
     65b: 8e 00 de     	stx	$de00                   ; 0xde00 <__heap_start+0x5144>
     65e: 86 17        	stx	$17                     ; 0x2017 <f256main+0x1703>
     660: 9c 01 de     	stz	$de01                   ; 0xde01 <__heap_start+0x5145>
     663: a2 04        	ldx	#$4
     665: 8e 02 de     	stx	$de02                   ; 0xde02 <__heap_start+0x5146>
     668: 9c 03 de     	stz	$de03                   ; 0xde03 <__heap_start+0x5147>
     66b: ad 10 de     	lda	$de10                   ; 0xde10 <__heap_start+0x5154>
     66e: ac 11 de     	ldy	$de11                   ; 0xde11 <__heap_start+0x5155>
     671: 84 15        	sty	$15                     ; 0x2015 <f256main+0x1701>
     673: ac 12 de     	ldy	$de12                   ; 0xde12 <__heap_start+0x5156>
     676: ac 13 de     	ldy	$de13                   ; 0xde13 <__heap_start+0x5157>
     679: 18           	clc
     67a: 65 14        	adc	$14                     ; 0x2014 <f256main+0x1700>
     67c: 85 16        	sta	$16                     ; 0x2016 <f256main+0x1702>
     67e: a6 17        	ldx	$17                     ; 0x2017 <f256main+0x1703>
     680: a9 d8        	lda	#$d8
     682: 65 15        	adc	$15                     ; 0x2015 <f256main+0x1701>
     684: 85 17        	sta	$17                     ; 0x2017 <f256main+0x1703>
     686: a5 1b        	lda	$1b                     ; 0x201b <f256main+0x1707>
     688: 92 16        	sta	($16)                   ; 0x2016 <f256main+0x1702>
     68a: a0 01        	ldy	#$1
     68c: a5 1a        	lda	$1a                     ; 0x201a <f256main+0x1706>
     68e: 91 16        	sta	($16),y                 ; 0x2016 <f256main+0x1702>
     690: c8           	iny
     691: a5 19        	lda	$19                     ; 0x2019 <f256main+0x1705>
     693: 91 16        	sta	($16),y                 ; 0x2016 <f256main+0x1702>
     695: c8           	iny
     696: a9 ff        	lda	#$ff
     698: 91 16        	sta	($16),y                 ; 0x2016 <f256main+0x1702>
     69a: 8e 00 de     	stx	$de00                   ; 0xde00 <__heap_start+0x5144>
     69d: 9c 01 de     	stz	$de01                   ; 0xde01 <__heap_start+0x5145>
     6a0: c8           	iny
     6a1: 8c 02 de     	sty	$de02                   ; 0xde02 <__heap_start+0x5146>
     6a4: 9c 03 de     	stz	$de03                   ; 0xde03 <__heap_start+0x5147>
     6a7: ad 10 de     	lda	$de10                   ; 0xde10 <__heap_start+0x5154>
     6aa: 85 15        	sta	$15                     ; 0x2015 <f256main+0x1701>
     6ac: ad 11 de     	lda	$de11                   ; 0xde11 <__heap_start+0x5155>
     6af: 85 16        	sta	$16                     ; 0x2016 <f256main+0x1702>
     6b1: a9 40        	lda	#$40
     6b3: 18           	clc
     6b4: 65 15        	adc	$15                     ; 0x2015 <f256main+0x1701>
     6b6: a8           	tay
     6b7: a9 d8        	lda	#$d8
     6b9: 65 16        	adc	$16                     ; 0x2016 <f256main+0x1702>
     6bb: 85 17        	sta	$17                     ; 0x2017 <f256main+0x1703>
     6bd: 84 16        	sty	$16                     ; 0x2016 <f256main+0x1702>
     6bf: ad 12 de     	lda	$de12                   ; 0xde12 <__heap_start+0x5156>
     6c2: ad 13 de     	lda	$de13                   ; 0xde13 <__heap_start+0x5157>
     6c5: a5 1b        	lda	$1b                     ; 0x201b <f256main+0x1707>
     6c7: 92 16        	sta	($16)                   ; 0x2016 <f256main+0x1702>
     6c9: a5 1a        	lda	$1a                     ; 0x201a <f256main+0x1706>
     6cb: a0 01        	ldy	#$1
     6cd: 91 16        	sta	($16),y                 ; 0x2016 <f256main+0x1702>
     6cf: a5 19        	lda	$19                     ; 0x2019 <f256main+0x1705>
     6d1: c8           	iny
     6d2: 91 16        	sta	($16),y                 ; 0x2016 <f256main+0x1702>
     6d4: c8           	iny
     6d5: a9 ff        	lda	#$ff
     6d7: 91 16        	sta	($16),y                 ; 0x2016 <f256main+0x1702>
     6d9: e8           	inx
     6da: 86 15        	stx	$15                     ; 0x2015 <f256main+0x1701>
     6dc: 18           	clc
     6dd: a5 18        	lda	$18                     ; 0x2018 <f256main+0x1704>
     6df: 69 03        	adc	#$3
     6e1: aa           	tax
     6e2: c9 30        	cmp	#$30
     6e4: f0 03        	beq	$6e9 <f256Init+0x17b>
     6e6: 4c 46 06     	jmp	$646 <f256Init+0xd8>
     6e9: a6 01        	ldx	$1                      ; 0x2001 <f256main+0x16ed>
     6eb: 86 18        	stx	$18                     ; 0x2018 <f256main+0x1704>
     6ed: a2 50        	ldx	#$50
     6ef: 8e 00 de     	stx	$de00                   ; 0xde00 <__heap_start+0x5144>
     6f2: 9c 01 de     	stz	$de01                   ; 0xde01 <__heap_start+0x5145>
     6f5: a2 1e        	ldx	#$1e
     6f7: 8e 02 de     	stx	$de02                   ; 0xde02 <__heap_start+0x5146>
     6fa: 9c 03 de     	stz	$de03                   ; 0xde03 <__heap_start+0x5147>
     6fd: ae 10 de     	ldx	$de10                   ; 0xde10 <__heap_start+0x5154>
     700: ac 11 de     	ldy	$de11                   ; 0xde11 <__heap_start+0x5155>
     703: ad 12 de     	lda	$de12                   ; 0xde12 <__heap_start+0x5156>
     706: ad 13 de     	lda	$de13                   ; 0xde13 <__heap_start+0x5157>
     709: a9 02        	lda	#$2
     70b: 85 01        	sta	$1                      ; 0x2001 <f256main+0x16ed>
     70d: e0 01        	cpx	#$1
     70f: 98           	tya
     710: e9 00        	sbc	#$0
     712: 50 02        	bvc	$716 <f256Init+0x1a8>
     714: 49 80        	eor	#$80
     716: c9 00        	cmp	#$0
     718: 30 4c        	bmi	$766 <f256Init+0x1f8>
     71a: a9 20        	lda	#$20
     71c: 86 19        	stx	$19                     ; 0x2019 <f256main+0x1705>
     71e: 86 14        	stx	$14                     ; 0x2014 <f256main+0x1700>
     720: 84 15        	sty	$15                     ; 0x2015 <f256main+0x1701>
     722: a2 00        	ldx	#$0
     724: 86 16        	stx	$16                     ; 0x2016 <f256main+0x1702>
     726: a2 c0        	ldx	#$c0
     728: 86 17        	stx	$17                     ; 0x2017 <f256main+0x1703>
     72a: 92 16        	sta	($16)                   ; 0x2016 <f256main+0x1702>
     72c: e6 16        	inc	$16                     ; 0x2016 <f256main+0x1702>
     72e: d0 02        	bne	$732 <f256Init+0x1c4>
     730: e6 17        	inc	$17                     ; 0x2017 <f256main+0x1703>
     732: a2 ff        	ldx	#$ff
     734: c6 14        	dec	$14                     ; 0x2014 <f256main+0x1700>
     736: e4 14        	cpx	$14                     ; 0x2014 <f256main+0x1700>
     738: d0 02        	bne	$73c <f256Init+0x1ce>
     73a: c6 15        	dec	$15                     ; 0x2015 <f256main+0x1701>
     73c: a6 15        	ldx	$15                     ; 0x2015 <f256main+0x1701>
     73e: d0 ea        	bne	$72a <f256Init+0x1bc>
     740: a6 14        	ldx	$14                     ; 0x2014 <f256main+0x1700>
     742: d0 e6        	bne	$72a <f256Init+0x1bc>
     744: a2 03        	ldx	#$3
     746: 86 01        	stx	$1                      ; 0x2001 <f256main+0x16ed>
     748: a6 30        	ldx	$30                     ; 0x2030 <f256main+0x171c>
     74a: 86 14        	stx	$14                     ; 0x2014 <f256main+0x1700>
     74c: a6 19        	ldx	$19                     ; 0x2019 <f256main+0x1705>
     74e: a5 14        	lda	$14                     ; 0x2014 <f256main+0x1700>
     750: 92 12        	sta	($12)                   ; 0x2012 <f256main+0x16fe>
     752: e6 12        	inc	$12                     ; 0x2012 <f256main+0x16fe>
     754: d0 02        	bne	$758 <f256Init+0x1ea>
     756: e6 13        	inc	$13                     ; 0x2013 <f256main+0x16ff>
     758: ca           	dex
     759: e0 ff        	cpx	#$ff
     75b: d0 01        	bne	$75e <f256Init+0x1f0>
     75d: 88           	dey
     75e: 98           	tya
     75f: d0 ed        	bne	$74e <f256Init+0x1e0>
     761: 8a           	txa
     762: d0 ea        	bne	$74e <f256Init+0x1e0>
     764: 80 04        	bra	$76a <f256Init+0x1fc>
     766: a2 03        	ldx	#$3
     768: 86 01        	stx	$1                      ; 0x2001 <f256main+0x16ed>
     76a: a6 18        	ldx	$18                     ; 0x2018 <f256main+0x1704>
     76c: 86 01        	stx	$1                      ; 0x2001 <f256main+0x16ed>
     76e: 64 33        	stz	$33                     ; 0x2033 <f256main+0x171f>
     770: 9c 14 d0     	stz	$d014                   ; 0xd014 <__heap_start+0x4358>
     773: 9c 15 d0     	stz	$d015                   ; 0xd015 <__heap_start+0x4359>
     776: 64 34        	stz	$34                     ; 0x2034 <f256main+0x1720>
     778: 9c 16 d0     	stz	$d016                   ; 0xd016 <__heap_start+0x435a>
     77b: 9c 17 d0     	stz	$d017                   ; 0xd017 <__heap_start+0x435b>
     77e: a2 40        	ldx	#$40
     780: 8e 00 de     	stx	$de00                   ; 0xde00 <__heap_start+0x5144>
     783: a2 01        	ldx	#$1
     785: 8e 01 de     	stx	$de01                   ; 0xde01 <__heap_start+0x5145>
     788: a2 f0        	ldx	#$f0
     78a: 8e 02 de     	stx	$de02                   ; 0xde02 <__heap_start+0x5146>
     78d: 9c 03 de     	stz	$de03                   ; 0xde03 <__heap_start+0x5147>
     790: ae 10 de     	ldx	$de10                   ; 0xde10 <__heap_start+0x5154>
     793: 86 17        	stx	$17                     ; 0x2017 <f256main+0x1703>
     795: ae 11 de     	ldx	$de11                   ; 0xde11 <__heap_start+0x5155>
     798: 86 12        	stx	$12                     ; 0x2012 <f256main+0x16fe>
     79a: ae 12 de     	ldx	$de12                   ; 0xde12 <__heap_start+0x5156>
     79d: 86 13        	stx	$13                     ; 0x2013 <f256main+0x16ff>
     79f: ae 13 de     	ldx	$de13                   ; 0xde13 <__heap_start+0x5157>
     7a2: 86 14        	stx	$14                     ; 0x2014 <f256main+0x1700>
     7a4: a4 12        	ldy	$12                     ; 0x2012 <f256main+0x16fe>
     7a6: 84 15        	sty	$15                     ; 0x2015 <f256main+0x1701>
     7a8: 06 15        	asl	$15                     ; 0x2015 <f256main+0x1701>
     7aa: a5 13        	lda	$13                     ; 0x2013 <f256main+0x16ff>
     7ac: 2a           	rol
     7ad: 86 16        	stx	$16                     ; 0x2016 <f256main+0x1702>
     7af: 26 16        	rol	$16                     ; 0x2016 <f256main+0x1702>
     7b1: 06 15        	asl	$15                     ; 0x2015 <f256main+0x1701>
     7b3: 2a           	rol
     7b4: 26 16        	rol	$16                     ; 0x2016 <f256main+0x1702>
     7b6: 06 15        	asl	$15                     ; 0x2015 <f256main+0x1701>
     7b8: 2a           	rol
     7b9: 26 16        	rol	$16                     ; 0x2016 <f256main+0x1702>
     7bb: 85 15        	sta	$15                     ; 0x2015 <f256main+0x1701>
     7bd: 8d 00 de     	sta	$de00                   ; 0xde00 <__heap_start+0x5144>
     7c0: a5 16        	lda	$16                     ; 0x2016 <f256main+0x1702>
     7c2: 8d 01 de     	sta	$de01                   ; 0xde01 <__heap_start+0x5145>
     7c5: 9c 02 de     	stz	$de02                   ; 0xde02 <__heap_start+0x5146>
     7c8: a2 20        	ldx	#$20
     7ca: 8e 03 de     	stx	$de03                   ; 0xde03 <__heap_start+0x5147>
     7cd: ae 10 de     	ldx	$de10                   ; 0xde10 <__heap_start+0x5154>
     7d0: 86 16        	stx	$16                     ; 0x2016 <f256main+0x1702>
     7d2: ae 11 de     	ldx	$de11                   ; 0xde11 <__heap_start+0x5155>
     7d5: 86 18        	stx	$18                     ; 0x2018 <f256main+0x1704>
     7d7: ac 12 de     	ldy	$de12                   ; 0xde12 <__heap_start+0x5156>
     7da: ae 13 de     	ldx	$de13                   ; 0xde13 <__heap_start+0x5157>
     7dd: e4 14        	cpx	$14                     ; 0x2014 <f256main+0x1700>
     7df: d0 14        	bne	$7f5 <f256Init+0x287>
     7e1: c4 13        	cpy	$13                     ; 0x2013 <f256main+0x16ff>
     7e3: d0 10        	bne	$7f5 <f256Init+0x287>
     7e5: a6 18        	ldx	$18                     ; 0x2018 <f256main+0x1704>
     7e7: e4 12        	cpx	$12                     ; 0x2012 <f256main+0x16fe>
     7e9: d0 0a        	bne	$7f5 <f256Init+0x287>
     7eb: a6 16        	ldx	$16                     ; 0x2016 <f256main+0x1702>
     7ed: e4 17        	cpx	$17                     ; 0x2017 <f256main+0x1703>
     7ef: d0 04        	bne	$7f5 <f256Init+0x287>
     7f1: a6 15        	ldx	$15                     ; 0x2015 <f256main+0x1701>
     7f3: 80 06        	bra	$7fb <f256Init+0x28d>
     7f5: a6 15        	ldx	$15                     ; 0x2015 <f256main+0x1701>
     7f7: e8           	inx
     7f8: d0 01        	bne	$7fb <f256Init+0x28d>
     7fa: 1a           	inc
     7fb: 8e 00 de     	stx	$de00                   ; 0xde00 <__heap_start+0x5144>
     7fe: 8d 01 de     	sta	$de01                   ; 0xde01 <__heap_start+0x5145>
     801: 9c 02 de     	stz	$de02                   ; 0xde02 <__heap_start+0x5146>
     804: a2 20        	ldx	#$20
     806: 8e 03 de     	stx	$de03                   ; 0xde03 <__heap_start+0x5147>
     809: ae 10 de     	ldx	$de10                   ; 0xde10 <__heap_start+0x5154>
     80c: 86 12        	stx	$12                     ; 0x2012 <f256main+0x16fe>
     80e: ae 11 de     	ldx	$de11                   ; 0xde11 <__heap_start+0x5155>
     811: 86 13        	stx	$13                     ; 0x2013 <f256main+0x16ff>
     813: ae 12 de     	ldx	$de12                   ; 0xde12 <__heap_start+0x5156>
     816: 86 14        	stx	$14                     ; 0x2014 <f256main+0x1700>
     818: ae 13 de     	ldx	$de13                   ; 0xde13 <__heap_start+0x5157>
     81b: 86 15        	stx	$15                     ; 0x2015 <f256main+0x1701>
     81d: a9 00        	lda	#$0
     81f: 38           	sec
     820: e5 12        	sbc	$12                     ; 0x2012 <f256main+0x16fe>
     822: 85 17        	sta	$17                     ; 0x2017 <f256main+0x1703>
     824: a9 00        	lda	#$0
     826: e5 13        	sbc	$13                     ; 0x2013 <f256main+0x16ff>
     828: aa           	tax
     829: a9 08        	lda	#$8
     82b: e5 14        	sbc	$14                     ; 0x2014 <f256main+0x1700>
     82d: 85 16        	sta	$16                     ; 0x2016 <f256main+0x1702>
     82f: a9 00        	lda	#$0
     831: e5 15        	sbc	$15                     ; 0x2015 <f256main+0x1701>
     833: 8e b4 8c     	stx	$8cb4                   ; 0x8cb4 <__bss_start+0x1>
     836: a4 16        	ldy	$16                     ; 0x2016 <f256main+0x1702>
     838: 8c b5 8c     	sty	$8cb5                   ; 0x8cb5 <__bss_start+0x2>
     83b: 8d b6 8c     	sta	$8cb6                   ; 0x8cb6 <__bss_start+0x3>
     83e: 38           	sec
     83f: a5 17        	lda	$17                     ; 0x2017 <f256main+0x1703>
     841: e5 12        	sbc	$12                     ; 0x2012 <f256main+0x16fe>
     843: a8           	tay
     844: 8a           	txa
     845: e5 13        	sbc	$13                     ; 0x2013 <f256main+0x16ff>
     847: 85 18        	sta	$18                     ; 0x2018 <f256main+0x1704>
     849: a5 16        	lda	$16                     ; 0x2016 <f256main+0x1702>
     84b: e5 14        	sbc	$14                     ; 0x2014 <f256main+0x1700>
     84d: 85 15        	sta	$15                     ; 0x2015 <f256main+0x1701>
     84f: 98           	tya
     850: 84 16        	sty	$16                     ; 0x2016 <f256main+0x1702>
     852: 38           	sec
     853: e5 12        	sbc	$12                     ; 0x2012 <f256main+0x16fe>
     855: 85 12        	sta	$12                     ; 0x2012 <f256main+0x16fe>
     857: a5 18        	lda	$18                     ; 0x2018 <f256main+0x1704>
     859: e5 13        	sbc	$13                     ; 0x2013 <f256main+0x16ff>
     85b: 85 13        	sta	$13                     ; 0x2013 <f256main+0x16ff>
     85d: a4 15        	ldy	$15                     ; 0x2015 <f256main+0x1701>
     85f: a5 15        	lda	$15                     ; 0x2015 <f256main+0x1701>
     861: e5 14        	sbc	$14                     ; 0x2014 <f256main+0x1700>
     863: a6 17        	ldx	$17                     ; 0x2017 <f256main+0x1703>
     865: 8e b3 8c     	stx	$8cb3                   ; 0x8cb3 <__bss_start>
     868: 8e 01 d1     	stx	$d101                   ; 0xd101 <__heap_start+0x4445>
     86b: ae b4 8c     	ldx	$8cb4                   ; 0x8cb4 <__bss_start+0x1>
     86e: 8e 02 d1     	stx	$d102                   ; 0xd102 <__heap_start+0x4446>
     871: ae b5 8c     	ldx	$8cb5                   ; 0x8cb5 <__bss_start+0x2>
     874: 8e 03 d1     	stx	$d103                   ; 0xd103 <__heap_start+0x4447>
     877: a6 16        	ldx	$16                     ; 0x2016 <f256main+0x1702>
     879: 8e 09 d1     	stx	$d109                   ; 0xd109 <__heap_start+0x444d>
     87c: a6 18        	ldx	$18                     ; 0x2018 <f256main+0x1704>
     87e: 8e 0a d1     	stx	$d10a                   ; 0xd10a <__heap_start+0x444e>
     881: 8c 0b d1     	sty	$d10b                   ; 0xd10b <__heap_start+0x444f>
     884: a6 12        	ldx	$12                     ; 0x2012 <f256main+0x16fe>
     886: 8e 11 d1     	stx	$d111                   ; 0xd111 <__heap_start+0x4455>
     889: a6 13        	ldx	$13                     ; 0x2013 <f256main+0x16ff>
     88b: 8e 12 d1     	stx	$d112                   ; 0xd112 <__heap_start+0x4456>
     88e: 8d 13 d1     	sta	$d113                   ; 0xd113 <__heap_start+0x4457>
     891: 9c 00 d1     	stz	$d100                   ; 0xd100 <__heap_start+0x4444>
     894: 9c 08 d1     	stz	$d108                   ; 0xd108 <__heap_start+0x444c>
     897: 9c 10 d1     	stz	$d110                   ; 0xd110 <__heap_start+0x4454>
     89a: a2 10        	ldx	#$10
     89c: 8e 00 d2     	stx	$d200                   ; 0xd200 <__heap_start+0x4544>
     89f: 8e 0c d2     	stx	$d20c                   ; 0xd20c <__heap_start+0x4550>
     8a2: 8e 18 d2     	stx	$d218                   ; 0xd218 <__heap_start+0x455c>
     8a5: a0 d9        	ldy	#$d9
     8a7: a2 40        	ldx	#$40
     8a9: 64 12        	stz	$12                     ; 0x2012 <f256main+0x16fe>
     8ab: 84 13        	sty	$13                     ; 0x2013 <f256main+0x16ff>
     8ad: a9 00        	lda	#$0
     8af: 92 12        	sta	($12)                   ; 0x2012 <f256main+0x16fe>
     8b1: ca           	dex
     8b2: 18           	clc
     8b3: a5 12        	lda	$12                     ; 0x2012 <f256main+0x16fe>
     8b5: 69 08        	adc	#$8
     8b7: 85 12        	sta	$12                     ; 0x2012 <f256main+0x16fe>
     8b9: 98           	tya
     8ba: 69 00        	adc	#$0
     8bc: a8           	tay
     8bd: 8a           	txa
     8be: d0 eb        	bne	$8ab <f256Init+0x33d>
     8c0: a2 8d        	ldx	#$8d
     8c2: a0 00        	ldy	#$0
     8c4: 86 fb        	stx	$fb                     ; 0x20fb <f256main+0x17e7>
     8c6: 84 fc        	sty	$fc                     ; 0x20fc <f256main+0x17e8>
     8c8: a2 08        	ldx	#$8
     8ca: 86 fd        	stx	$fd                     ; 0x20fd <f256main+0x17e9>
     8cc: a2 95        	ldx	#$95
     8ce: a0 00        	ldy	#$0
     8d0: 86 12        	stx	$12                     ; 0x2012 <f256main+0x16fe>
     8d2: 84 13        	sty	$13                     ; 0x2013 <f256main+0x16ff>
     8d4: a2 b7        	ldx	#$b7
     8d6: 86 14        	stx	$14                     ; 0x2014 <f256main+0x1700>
     8d8: a2 8c        	ldx	#$8c
     8da: 86 15        	stx	$15                     ; 0x2015 <f256main+0x1701>
     8dc: 20 dc ff     	jsr	$ffdc <__heap_start+0x7320>
     8df: 92 12        	sta	($12)                   ; 0x2012 <f256main+0x16fe>
     8e1: a9 00        	lda	#$0
     8e3: 6a           	ror
     8e4: 85 14        	sta	$14                     ; 0x2014 <f256main+0x1700>
     8e6: a6 93        	ldx	$93                     ; 0x2093 <f256main+0x177f>
     8e8: a4 94        	ldy	$94                     ; 0x2094 <f256main+0x1780>
     8ea: 8e 00 de     	stx	$de00                   ; 0xde00 <__heap_start+0x5144>
     8ed: 9c 01 de     	stz	$de01                   ; 0xde01 <__heap_start+0x5145>
     8f0: 8c 02 de     	sty	$de02                   ; 0xde02 <__heap_start+0x5146>
     8f3: 9c 03 de     	stz	$de03                   ; 0xde03 <__heap_start+0x5147>
     8f6: ae 10 de     	ldx	$de10                   ; 0xde10 <__heap_start+0x5154>
     8f9: ac 11 de     	ldy	$de11                   ; 0xde11 <__heap_start+0x5155>
     8fc: ad 12 de     	lda	$de12                   ; 0xde12 <__heap_start+0x5156>
     8ff: ad 13 de     	lda	$de13                   ; 0xde13 <__heap_start+0x5157>
     902: 8e a4 d6     	stx	$d6a4                   ; 0xd6a4 <__heap_start+0x49e8>
     905: 8c a5 d6     	sty	$d6a5                   ; 0xd6a5 <__heap_start+0x49e9>
     908: a2 03        	ldx	#$3
     90a: 8e a6 d6     	stx	$d6a6                   ; 0xd6a6 <__heap_start+0x49ea>
     90d: 60           	rts

0000090e <main>:
     90e: 20 6e 05     	jsr	$56e <f256Init>
     911: 20 14 09     	jsr	$914 <f256main>

00000914 <f256main>:
     914: 18           	clc
     915: a5 10        	lda	$10                     ; 0x2010 <f256main+0x16fc>
     917: 69 de        	adc	#$de
     919: 85 10        	sta	$10                     ; 0x2010 <f256main+0x16fc>
     91b: a5 11        	lda	$11                     ; 0x2011 <f256main+0x16fd>
     91d: 69 ff        	adc	#$ff
     91f: 85 11        	sta	$11                     ; 0x2011 <f256main+0x16fd>
     921: a9 00        	lda	#$0
     923: 64 01        	stz	$1                      ; 0x2001 <f256main+0x16ed>
     925: 18           	clc
     926: 48           	pha
     927: a5 10        	lda	$10                     ; 0x2010 <f256main+0x16fc>
     929: 69 15        	adc	#$15
     92b: 85 14        	sta	$14                     ; 0x2014 <f256main+0x1700>
     92d: a5 11        	lda	$11                     ; 0x2011 <f256main+0x16fd>
     92f: 69 00        	adc	#$0
     931: 85 15        	sta	$15                     ; 0x2015 <f256main+0x1701>
     933: a5 14        	lda	$14                     ; 0x2014 <f256main+0x1700>
     935: a0 06        	ldy	#$6
     937: 91 10        	sta	($10),y                 ; 0x2010 <f256main+0x16fc>
     939: a5 15        	lda	$15                     ; 0x2015 <f256main+0x1701>
     93b: c8           	iny
     93c: 91 10        	sta	($10),y                 ; 0x2010 <f256main+0x16fc>
     93e: 68           	pla
     93f: 92 14        	sta	($14)                   ; 0x2014 <f256main+0x1700>
     941: 18           	clc
     942: 48           	pha
     943: a5 10        	lda	$10                     ; 0x2010 <f256main+0x16fc>
     945: 69 14        	adc	#$14
     947: 85 14        	sta	$14                     ; 0x2014 <f256main+0x1700>
     949: a5 11        	lda	$11                     ; 0x2011 <f256main+0x16fd>
     94b: 69 00        	adc	#$0
     94d: 85 15        	sta	$15                     ; 0x2015 <f256main+0x1701>
     94f: a5 14        	lda	$14                     ; 0x2014 <f256main+0x1700>
     951: a0 0a        	ldy	#$a
     953: 91 10        	sta	($10),y                 ; 0x2010 <f256main+0x16fc>
     955: a5 15        	lda	$15                     ; 0x2015 <f256main+0x1701>
     957: c8           	iny
     958: 91 10        	sta	($10),y                 ; 0x2010 <f256main+0x16fc>
     95a: 68           	pla
     95b: 92 14        	sta	($14)                   ; 0x2014 <f256main+0x1700>
     95d: aa           	tax
     95e: a9 04        	lda	#$4
     960: 20 53 62     	jsr	$6253 <malloc>
     963: a0 00        	ldy	#$0
     965: 5a           	phy
     966: a5 12        	lda	$12                     ; 0x2012 <f256main+0x16fe>
     968: a0 08        	ldy	#$8
     96a: 91 10        	sta	($10),y                 ; 0x2010 <f256main+0x16fc>
     96c: a5 13        	lda	$13                     ; 0x2013 <f256main+0x16ff>
     96e: c8           	iny
     96f: 91 10        	sta	($10),y                 ; 0x2010 <f256main+0x16fc>
     971: 7a           	ply
     972: 64 01        	stz	$1                      ; 0x2001 <f256main+0x16ed>
     974: a2 0f        	ldx	#$f
     976: 8e 00 d0     	stx	$d000                   ; 0xd000 <__heap_start+0x4344>
     979: 9c 01 d0     	stz	$d001                   ; 0xd001 <__heap_start+0x4345>
     97c: e8           	inx
     97d: 8e 02 d0     	stx	$d002                   ; 0xd002 <__heap_start+0x4346>
     980: a2 02        	ldx	#$2
     982: 8e 03 d0     	stx	$d003                   ; 0xd003 <__heap_start+0x4347>
     985: 9c 0d d0     	stz	$d00d                   ; 0xd00d <__heap_start+0x4351>
     988: 9c 0e d0     	stz	$d00e                   ; 0xd00e <__heap_start+0x4352>
     98b: 9c 0f d0     	stz	$d00f                   ; 0xd00f <__heap_start+0x4353>
     98e: ca           	dex
     98f: 86 01        	stx	$1                      ; 0x2001 <f256main+0x16ed>
     991: a2 d0        	ldx	#$d0
     993: 18           	clc
     994: 84 16        	sty	$16                     ; 0x2016 <f256main+0x1702>
     996: 98           	tya
     997: 69 00        	adc	#$0
     999: 85 14        	sta	$14                     ; 0x2014 <f256main+0x1700>
     99b: 8a           	txa
     99c: 69 10        	adc	#$10
     99e: 85 15        	sta	$15                     ; 0x2015 <f256main+0x1701>
     9a0: 84 12        	sty	$12                     ; 0x2012 <f256main+0x16fe>
     9a2: 86 13        	stx	$13                     ; 0x2013 <f256main+0x16ff>
     9a4: a4 0f        	ldy	$f                      ; 0x200f <f256main+0x16fb>
     9a6: 78           	sei
     9a7: a9 18        	lda	#$18
     9a9: 85 0f        	sta	$f                      ; 0x200f <f256main+0x16fb>
     9ab: b2 14        	lda	($14)                   ; 0x2014 <f256main+0x1700>
     9ad: 84 0f        	sty	$f                      ; 0x200f <f256main+0x16fb>
     9af: 58           	cli
     9b0: 92 12        	sta	($12)                   ; 0x2012 <f256main+0x16fe>
     9b2: a4 16        	ldy	$16                     ; 0x2016 <f256main+0x1702>
     9b4: c8           	iny
     9b5: d0 01        	bne	$9b8 <f256main+0xa4>
     9b7: e8           	inx
     9b8: e0 d3        	cpx	#$d3
     9ba: d0 d7        	bne	$993 <f256main+0x7f>
     9bc: c0 ff        	cpy	#$ff
     9be: d0 d3        	bne	$993 <f256main+0x7f>
     9c0: 64 01        	stz	$1                      ; 0x2001 <f256main+0x16ed>
     9c2: a2 ff        	ldx	#$ff
     9c4: 8e 40 d8     	stx	$d840                   ; 0xd840 <__heap_start+0x4b84>
     9c7: 8e 41 d8     	stx	$d841                   ; 0xd841 <__heap_start+0x4b85>
     9ca: 8e 42 d8     	stx	$d842                   ; 0xd842 <__heap_start+0x4b86>
     9cd: 9c 43 d8     	stz	$d843                   ; 0xd843 <__heap_start+0x4b87>
     9d0: 9c b3 8c     	stz	$8cb3                   ; 0x8cb3 <__bss_start>
     9d3: a2 80        	ldx	#$80
     9d5: 8e b4 8c     	stx	$8cb4                   ; 0x8cb4 <__bss_start+0x1>
     9d8: a0 03        	ldy	#$3
     9da: 8c b5 8c     	sty	$8cb5                   ; 0x8cb5 <__bss_start+0x2>
     9dd: 9c b6 8c     	stz	$8cb6                   ; 0x8cb6 <__bss_start+0x3>
     9e0: 9c 01 d1     	stz	$d101                   ; 0xd101 <__heap_start+0x4445>
     9e3: 8e 02 d1     	stx	$d102                   ; 0xd102 <__heap_start+0x4446>
     9e6: 8c 03 d1     	sty	$d103                   ; 0xd103 <__heap_start+0x4447>
     9e9: a2 01        	ldx	#$1
     9eb: 8e 00 d1     	stx	$d100                   ; 0xd100 <__heap_start+0x4444>
     9ee: ad 00 d1     	lda	$d100                   ; 0xd100 <__heap_start+0x4444>
     9f1: 29 f9        	and	#$f9
     9f3: 8d 00 d1     	sta	$d100                   ; 0xd100 <__heap_start+0x4444>
     9f6: 9c 08 d1     	stz	$d108                   ; 0xd108 <__heap_start+0x444c>
     9f9: 9c 10 d1     	stz	$d110                   ; 0xd110 <__heap_start+0x4454>
     9fc: a9 17        	lda	#$17
     9fe: ca           	dex
     9ff: 20 53 62     	jsr	$6253 <malloc>
     a02: a6 12        	ldx	$12                     ; 0x2012 <f256main+0x16fe>
     a04: a4 13        	ldy	$13                     ; 0x2013 <f256main+0x16ff>
     a06: 86 81        	stx	$81                     ; 0x2081 <f256main+0x176d>
     a08: 84 82        	sty	$82                     ; 0x2082 <f256main+0x176e>
     a0a: 20 01 3a     	jsr	$3a01 <resetGlobals>
     a0d: a9 0f        	lda	#$f
     a0f: a2 00        	ldx	#$0
     a11: 20 53 62     	jsr	$6253 <malloc>
     a14: a6 12        	ldx	$12                     ; 0x2012 <f256main+0x16fe>
     a16: 86 2c        	stx	$2c                     ; 0x202c <f256main+0x1718>
     a18: a6 13        	ldx	$13                     ; 0x2013 <f256main+0x16ff>
     a1a: 86 2d        	stx	$2d                     ; 0x202d <f256main+0x1719>
     a1c: 18           	clc
     a1d: a5 10        	lda	$10                     ; 0x2010 <f256main+0x16fc>
     a1f: 69 16        	adc	#$16
     a21: 85 2a        	sta	$2a                     ; 0x202a <f256main+0x1716>
     a23: a5 11        	lda	$11                     ; 0x2011 <f256main+0x16fd>
     a25: 69 00        	adc	#$0
     a27: 85 2b        	sta	$2b                     ; 0x202b <f256main+0x1717>
     a29: a0 04        	ldy	#$4
     a2b: a9 06        	lda	#$6
     a2d: 91 12        	sta	($12),y                 ; 0x2012 <f256main+0x16fe>
     a2f: a5 2c        	lda	$2c                     ; 0x202c <f256main+0x1718>
     a31: 18           	clc
     a32: 69 05        	adc	#$5
     a34: 85 12        	sta	$12                     ; 0x2012 <f256main+0x16fe>
     a36: a5 2d        	lda	$2d                     ; 0x202d <f256main+0x1719>
     a38: 69 00        	adc	#$0
     a3a: 85 13        	sta	$13                     ; 0x2013 <f256main+0x16ff>
     a3c: c8           	iny
     a3d: a9 00        	lda	#$0
     a3f: 91 2c        	sta	($2c),y                 ; 0x202c <f256main+0x1718>
     a41: a0 02        	ldy	#$2
     a43: 98           	tya
     a44: 91 2a        	sta	($2a),y                 ; 0x202a <f256main+0x1716>
     a46: a9 00        	lda	#$0
     a48: 91 2c        	sta	($2c),y                 ; 0x202c <f256main+0x1718>
     a4a: 98           	tya
     a4b: 91 12        	sta	($12),y                 ; 0x2012 <f256main+0x16fe>
     a4d: a9 78        	lda	#$78
     a4f: c8           	iny
     a50: 91 2c        	sta	($2c),y                 ; 0x202c <f256main+0x1718>
     a52: a9 00        	lda	#$0
     a54: 91 2a        	sta	($2a),y                 ; 0x202a <f256main+0x1716>
     a56: 91 12        	sta	($12),y                 ; 0x2012 <f256main+0x16fe>
     a58: a6 2c        	ldx	$2c                     ; 0x202c <f256main+0x1718>
     a5a: 86 4d        	stx	$4d                     ; 0x204d <f256main+0x1739>
     a5c: a6 2d        	ldx	$2d                     ; 0x202d <f256main+0x1719>
     a5e: 86 4e        	stx	$4e                     ; 0x204e <f256main+0x173a>
     a60: 92 2a        	sta	($2a)                   ; 0x202a <f256main+0x1716>
     a62: a0 01        	ldy	#$1
     a64: 91 2a        	sta	($2a),y                 ; 0x202a <f256main+0x1716>
     a66: 92 2c        	sta	($2c)                   ; 0x202c <f256main+0x1718>
     a68: 91 2c        	sta	($2c),y                 ; 0x202c <f256main+0x1718>
     a6a: 91 12        	sta	($12),y                 ; 0x2012 <f256main+0x16fe>
     a6c: a9 06        	lda	#$6
     a6e: a2 00        	ldx	#$0
     a70: 20 53 62     	jsr	$6253 <malloc>
     a73: a0 09        	ldy	#$9
     a75: a5 2c        	lda	$2c                     ; 0x202c <f256main+0x1718>
     a77: 18           	clc
     a78: 69 09        	adc	#$9
     a7a: 85 14        	sta	$14                     ; 0x2014 <f256main+0x1700>
     a7c: a5 2d        	lda	$2d                     ; 0x202d <f256main+0x1719>
     a7e: 69 00        	adc	#$0
     a80: 85 15        	sta	$15                     ; 0x2015 <f256main+0x1701>
     a82: a5 12        	lda	$12                     ; 0x2012 <f256main+0x16fe>
     a84: 91 2c        	sta	($2c),y                 ; 0x202c <f256main+0x1718>
     a86: a0 01        	ldy	#$1
     a88: a5 13        	lda	$13                     ; 0x2013 <f256main+0x16ff>
     a8a: 91 14        	sta	($14),y                 ; 0x2014 <f256main+0x1700>
     a8c: a2 00        	ldx	#$0
     a8e: 86 14        	stx	$14                     ; 0x2014 <f256main+0x1700>
     a90: a2 00        	ldx	#$0
     a92: 86 15        	stx	$15                     ; 0x2015 <f256main+0x1701>
     a94: a6 13        	ldx	$13                     ; 0x2013 <f256main+0x16ff>
     a96: e4 15        	cpx	$15                     ; 0x2015 <f256main+0x1701>
     a98: d0 09        	bne	$aa3 <f256main+0x18f>
     a9a: a6 12        	ldx	$12                     ; 0x2012 <f256main+0x16fe>
     a9c: e4 14        	cpx	$14                     ; 0x2014 <f256main+0x1700>
     a9e: d0 03        	bne	$aa3 <f256main+0x18f>
     aa0: 4c 0b 0b     	jmp	$b0b <f256main+0x1f7>
     aa3: a9 06        	lda	#$6
     aa5: a2 00        	ldx	#$0
     aa7: 20 53 62     	jsr	$6253 <malloc>
     aaa: a0 0b        	ldy	#$b
     aac: a5 2c        	lda	$2c                     ; 0x202c <f256main+0x1718>
     aae: 18           	clc
     aaf: 69 0b        	adc	#$b
     ab1: 85 14        	sta	$14                     ; 0x2014 <f256main+0x1700>
     ab3: a5 2d        	lda	$2d                     ; 0x202d <f256main+0x1719>
     ab5: 69 00        	adc	#$0
     ab7: 85 15        	sta	$15                     ; 0x2015 <f256main+0x1701>
     ab9: a5 12        	lda	$12                     ; 0x2012 <f256main+0x16fe>
     abb: 91 2c        	sta	($2c),y                 ; 0x202c <f256main+0x1718>
     abd: a0 01        	ldy	#$1
     abf: a5 13        	lda	$13                     ; 0x2013 <f256main+0x16ff>
     ac1: 91 14        	sta	($14),y                 ; 0x2014 <f256main+0x1700>
     ac3: a2 00        	ldx	#$0
     ac5: 86 14        	stx	$14                     ; 0x2014 <f256main+0x1700>
     ac7: a2 00        	ldx	#$0
     ac9: 86 15        	stx	$15                     ; 0x2015 <f256main+0x1701>
     acb: a6 13        	ldx	$13                     ; 0x2013 <f256main+0x16ff>
     acd: e4 15        	cpx	$15                     ; 0x2015 <f256main+0x1701>
     acf: d0 06        	bne	$ad7 <f256main+0x1c3>
     ad1: a6 12        	ldx	$12                     ; 0x2012 <f256main+0x16fe>
     ad3: e4 14        	cpx	$14                     ; 0x2014 <f256main+0x1700>
     ad5: f0 34        	beq	$b0b <f256main+0x1f7>
     ad7: a9 12        	lda	#$12
     ad9: a2 00        	ldx	#$0
     adb: 20 53 62     	jsr	$6253 <malloc>
     ade: a0 0d        	ldy	#$d
     ae0: a5 2c        	lda	$2c                     ; 0x202c <f256main+0x1718>
     ae2: 18           	clc
     ae3: 69 0d        	adc	#$d
     ae5: 85 14        	sta	$14                     ; 0x2014 <f256main+0x1700>
     ae7: a5 2d        	lda	$2d                     ; 0x202d <f256main+0x1719>
     ae9: 69 00        	adc	#$0
     aeb: 85 15        	sta	$15                     ; 0x2015 <f256main+0x1701>
     aed: a5 12        	lda	$12                     ; 0x2012 <f256main+0x16fe>
     aef: 91 2c        	sta	($2c),y                 ; 0x202c <f256main+0x1718>
     af1: a0 01        	ldy	#$1
     af3: a5 13        	lda	$13                     ; 0x2013 <f256main+0x16ff>
     af5: 91 14        	sta	($14),y                 ; 0x2014 <f256main+0x1700>
     af7: a2 00        	ldx	#$0
     af9: 86 14        	stx	$14                     ; 0x2014 <f256main+0x1700>
     afb: a2 00        	ldx	#$0
     afd: 86 15        	stx	$15                     ; 0x2015 <f256main+0x1701>
     aff: a6 13        	ldx	$13                     ; 0x2013 <f256main+0x16ff>
     b01: e4 15        	cpx	$15                     ; 0x2015 <f256main+0x1701>
     b03: d0 14        	bne	$b19 <f256main+0x205>
     b05: a6 12        	ldx	$12                     ; 0x2012 <f256main+0x16fe>
     b07: e4 14        	cpx	$14                     ; 0x2014 <f256main+0x1700>
     b09: d0 0e        	bne	$b19 <f256main+0x205>
     b0b: a2 dc        	ldx	#$dc
     b0d: 86 12        	stx	$12                     ; 0x2012 <f256main+0x16fe>
     b0f: a2 81        	ldx	#$81
     b11: 86 13        	stx	$13                     ; 0x2013 <f256main+0x16ff>
     b13: 20 27 56     	jsr	$5627 <printf>
     b16: 4c a8 0b     	jmp	$ba8 <f256main+0x294>
     b19: a2 02        	ldx	#$2
     b1b: 64 17        	stz	$17                     ; 0x2017 <f256main+0x1703>
     b1d: 64 18        	stz	$18                     ; 0x2018 <f256main+0x1704>
     b1f: a5 2c        	lda	$2c                     ; 0x202c <f256main+0x1718>
     b21: 18           	clc
     b22: 69 09        	adc	#$9
     b24: 85 12        	sta	$12                     ; 0x2012 <f256main+0x16fe>
     b26: a5 2d        	lda	$2d                     ; 0x202d <f256main+0x1719>
     b28: 69 00        	adc	#$0
     b2a: 85 13        	sta	$13                     ; 0x2013 <f256main+0x16ff>
     b2c: a0 09        	ldy	#$9
     b2e: b1 2c        	lda	($2c),y                 ; 0x202c <f256main+0x1718>
     b30: 85 19        	sta	$19                     ; 0x2019 <f256main+0x1705>
     b32: a0 01        	ldy	#$1
     b34: b1 12        	lda	($12),y                 ; 0x2012 <f256main+0x16fe>
     b36: a4 19        	ldy	$19                     ; 0x2019 <f256main+0x1705>
     b38: 84 12        	sty	$12                     ; 0x2012 <f256main+0x16fe>
     b3a: 85 13        	sta	$13                     ; 0x2013 <f256main+0x16ff>
     b3c: a9 00        	lda	#$0
     b3e: a4 18        	ldy	$18                     ; 0x2018 <f256main+0x1704>
     b40: 91 12        	sta	($12),y                 ; 0x2012 <f256main+0x16fe>
     b42: a5 2c        	lda	$2c                     ; 0x202c <f256main+0x1718>
     b44: 18           	clc
     b45: 69 0b        	adc	#$b
     b47: 85 12        	sta	$12                     ; 0x2012 <f256main+0x16fe>
     b49: a5 2d        	lda	$2d                     ; 0x202d <f256main+0x1719>
     b4b: 69 00        	adc	#$0
     b4d: 85 13        	sta	$13                     ; 0x2013 <f256main+0x16ff>
     b4f: a0 0b        	ldy	#$b
     b51: b1 2c        	lda	($2c),y                 ; 0x202c <f256main+0x1718>
     b53: 85 1a        	sta	$1a                     ; 0x201a <f256main+0x1706>
     b55: a0 01        	ldy	#$1
     b57: b1 12        	lda	($12),y                 ; 0x2012 <f256main+0x16fe>
     b59: a4 1a        	ldy	$1a                     ; 0x201a <f256main+0x1706>
     b5b: 84 12        	sty	$12                     ; 0x2012 <f256main+0x16fe>
     b5d: 85 13        	sta	$13                     ; 0x2013 <f256main+0x16ff>
     b5f: a4 18        	ldy	$18                     ; 0x2018 <f256main+0x1704>
     b61: a9 00        	lda	#$0
     b63: 91 12        	sta	($12),y                 ; 0x2012 <f256main+0x16fe>
     b65: a5 2c        	lda	$2c                     ; 0x202c <f256main+0x1718>
     b67: 18           	clc
     b68: 69 0d        	adc	#$d
     b6a: 85 12        	sta	$12                     ; 0x2012 <f256main+0x16fe>
     b6c: a5 2d        	lda	$2d                     ; 0x202d <f256main+0x1719>
     b6e: 69 00        	adc	#$0
     b70: 85 13        	sta	$13                     ; 0x2013 <f256main+0x16ff>
     b72: a0 0d        	ldy	#$d
     b74: b1 2c        	lda	($2c),y                 ; 0x202c <f256main+0x1718>
     b76: 85 14        	sta	$14                     ; 0x2014 <f256main+0x1700>
     b78: a0 01        	ldy	#$1
     b7a: b1 12        	lda	($12),y                 ; 0x2012 <f256main+0x16fe>
     b7c: a4 14        	ldy	$14                     ; 0x2014 <f256main+0x1700>
     b7e: 84 12        	sty	$12                     ; 0x2012 <f256main+0x16fe>
     b80: 85 13        	sta	$13                     ; 0x2013 <f256main+0x16ff>
     b82: a4 17        	ldy	$17                     ; 0x2017 <f256main+0x1703>
     b84: a9 00        	lda	#$0
     b86: 91 12        	sta	($12),y                 ; 0x2012 <f256main+0x16fe>
     b88: 18           	clc
     b89: a5 18        	lda	$18                     ; 0x2018 <f256main+0x1704>
     b8b: 69 06        	adc	#$6
     b8d: da           	phx
     b8e: 7a           	ply
     b8f: 91 12        	sta	($12),y                 ; 0x2012 <f256main+0x16fe>
     b91: e6 18        	inc	$18                     ; 0x2018 <f256main+0x1704>
     b93: 18           	clc
     b94: 8a           	txa
     b95: 69 03        	adc	#$3
     b97: a8           	tay
     b98: 18           	clc
     b99: a5 17        	lda	$17                     ; 0x2017 <f256main+0x1703>
     b9b: 69 03        	adc	#$3
     b9d: 85 17        	sta	$17                     ; 0x2017 <f256main+0x1703>
     b9f: 5a           	phy
     ba0: fa           	plx
     ba1: c0 14        	cpy	#$14
     ba3: f0 03        	beq	$ba8 <f256main+0x294>
     ba5: 4c 1f 0b     	jmp	$b1f <f256main+0x20b>
     ba8: a9 03        	lda	#$3
     baa: a6 2a        	ldx	$2a                     ; 0x202a <f256main+0x1716>
     bac: 86 14        	stx	$14                     ; 0x2014 <f256main+0x1700>
     bae: a6 2b        	ldx	$2b                     ; 0x202b <f256main+0x1717>
     bb0: 86 15        	stx	$15                     ; 0x2015 <f256main+0x1701>
     bb2: a2 ae        	ldx	#$ae
     bb4: 86 16        	stx	$16                     ; 0x2016 <f256main+0x1702>
     bb6: a2 89        	ldx	#$89
     bb8: 86 17        	stx	$17                     ; 0x2017 <f256main+0x1703>
     bba: a2 ba        	ldx	#$ba
     bbc: 86 18        	stx	$18                     ; 0x2018 <f256main+0x1704>
     bbe: a2 89        	ldx	#$89
     bc0: 86 19        	stx	$19                     ; 0x2019 <f256main+0x1705>
     bc2: a2 0c        	ldx	#$c
     bc4: 86 12        	stx	$12                     ; 0x2012 <f256main+0x16fe>
     bc6: 86 13        	stx	$13                     ; 0x2013 <f256main+0x16ff>
     bc8: a2 01        	ldx	#$1
     bca: 20 ad 44     	jsr	$44ad <setupMem4Track>
     bcd: a6 2a        	ldx	$2a                     ; 0x202a <f256main+0x1716>
     bcf: 86 14        	stx	$14                     ; 0x2014 <f256main+0x1700>
     bd1: a6 2b        	ldx	$2b                     ; 0x202b <f256main+0x1717>
     bd3: 86 15        	stx	$15                     ; 0x2015 <f256main+0x1701>
     bd5: a2 c6        	ldx	#$c6
     bd7: 86 16        	stx	$16                     ; 0x2016 <f256main+0x1702>
     bd9: a2 89        	ldx	#$89
     bdb: 86 17        	stx	$17                     ; 0x2017 <f256main+0x1703>
     bdd: a2 ce        	ldx	#$ce
     bdf: 86 18        	stx	$18                     ; 0x2018 <f256main+0x1704>
     be1: a2 89        	ldx	#$89
     be3: 86 19        	stx	$19                     ; 0x2019 <f256main+0x1705>
     be5: a2 08        	ldx	#$8
     be7: a0 01        	ldy	#$1
     be9: 84 12        	sty	$12                     ; 0x2012 <f256main+0x16fe>
     beb: 86 13        	stx	$13                     ; 0x2013 <f256main+0x16ff>
     bed: e8           	inx
     bee: a9 00        	lda	#$0
     bf0: 20 ad 44     	jsr	$44ad <setupMem4Track>
     bf3: a0 0a        	ldy	#$a
     bf5: a6 2a        	ldx	$2a                     ; 0x202a <f256main+0x1716>
     bf7: 86 14        	stx	$14                     ; 0x2014 <f256main+0x1700>
     bf9: a6 2b        	ldx	$2b                     ; 0x202b <f256main+0x1717>
     bfb: 86 15        	stx	$15                     ; 0x2015 <f256main+0x1701>
     bfd: a2 d6        	ldx	#$d6
     bff: 86 16        	stx	$16                     ; 0x2016 <f256main+0x1702>
     c01: a2 89        	ldx	#$89
     c03: 86 17        	stx	$17                     ; 0x2017 <f256main+0x1703>
     c05: a2 e2        	ldx	#$e2
     c07: 86 18        	stx	$18                     ; 0x2018 <f256main+0x1704>
     c09: a2 89        	ldx	#$89
     c0b: 86 19        	stx	$19                     ; 0x2019 <f256main+0x1705>
     c0d: 84 12        	sty	$12                     ; 0x2012 <f256main+0x16fe>
     c0f: a2 0c        	ldx	#$c
     c11: 86 13        	stx	$13                     ; 0x2013 <f256main+0x16ff>
     c13: a2 02        	ldx	#$2
     c15: a9 00        	lda	#$0
     c17: 20 ad 44     	jsr	$44ad <setupMem4Track>
     c1a: a6 2a        	ldx	$2a                     ; 0x202a <f256main+0x1716>
     c1c: 86 14        	stx	$14                     ; 0x2014 <f256main+0x1700>
     c1e: a6 2b        	ldx	$2b                     ; 0x202b <f256main+0x1717>
     c20: 86 15        	stx	$15                     ; 0x2015 <f256main+0x1701>
     c22: a2 ee        	ldx	#$ee
     c24: 86 16        	stx	$16                     ; 0x2016 <f256main+0x1702>
     c26: a2 89        	ldx	#$89
     c28: 86 17        	stx	$17                     ; 0x2017 <f256main+0x1703>
     c2a: a2 fa        	ldx	#$fa
     c2c: 86 18        	stx	$18                     ; 0x2018 <f256main+0x1704>
     c2e: a2 89        	ldx	#$89
     c30: 86 19        	stx	$19                     ; 0x2019 <f256main+0x1705>
     c32: a2 0a        	ldx	#$a
     c34: 86 12        	stx	$12                     ; 0x2012 <f256main+0x16fe>
     c36: a2 0c        	ldx	#$c
     c38: 86 13        	stx	$13                     ; 0x2013 <f256main+0x16ff>
     c3a: a2 02        	ldx	#$2
     c3c: a9 00        	lda	#$0
     c3e: 20 ad 44     	jsr	$44ad <setupMem4Track>
     c41: a6 2a        	ldx	$2a                     ; 0x202a <f256main+0x1716>
     c43: 86 14        	stx	$14                     ; 0x2014 <f256main+0x1700>
     c45: a6 2b        	ldx	$2b                     ; 0x202b <f256main+0x1717>
     c47: 86 15        	stx	$15                     ; 0x2015 <f256main+0x1701>
     c49: a2 06        	ldx	#$6
     c4b: 86 16        	stx	$16                     ; 0x2016 <f256main+0x1702>
     c4d: a2 8a        	ldx	#$8a
     c4f: 86 17        	stx	$17                     ; 0x2017 <f256main+0x1703>
     c51: a2 12        	ldx	#$12
     c53: 86 18        	stx	$18                     ; 0x2018 <f256main+0x1704>
     c55: a2 8a        	ldx	#$8a
     c57: 86 19        	stx	$19                     ; 0x2019 <f256main+0x1705>
     c59: a2 0a        	ldx	#$a
     c5b: 86 12        	stx	$12                     ; 0x2012 <f256main+0x16fe>
     c5d: a2 0c        	ldx	#$c
     c5f: 86 13        	stx	$13                     ; 0x2013 <f256main+0x16ff>
     c61: a2 02        	ldx	#$2
     c63: a9 00        	lda	#$0
     c65: 20 ad 44     	jsr	$44ad <setupMem4Track>
     c68: a6 2a        	ldx	$2a                     ; 0x202a <f256main+0x1716>
     c6a: 86 14        	stx	$14                     ; 0x2014 <f256main+0x1700>
     c6c: a6 2b        	ldx	$2b                     ; 0x202b <f256main+0x1717>
     c6e: 86 15        	stx	$15                     ; 0x2015 <f256main+0x1701>
     c70: a2 1e        	ldx	#$1e
     c72: 86 16        	stx	$16                     ; 0x2016 <f256main+0x1702>
     c74: a2 8a        	ldx	#$8a
     c76: 86 17        	stx	$17                     ; 0x2017 <f256main+0x1703>
     c78: a2 3e        	ldx	#$3e
     c7a: 86 18        	stx	$18                     ; 0x2018 <f256main+0x1704>
     c7c: a2 8a        	ldx	#$8a
     c7e: 86 19        	stx	$19                     ; 0x2019 <f256main+0x1705>
     c80: a2 20        	ldx	#$20
     c82: 64 12        	stz	$12                     ; 0x2012 <f256main+0x16fe>
     c84: 86 13        	stx	$13                     ; 0x2013 <f256main+0x16ff>
     c86: a2 01        	ldx	#$1
     c88: a9 02        	lda	#$2
     c8a: 20 ad 44     	jsr	$44ad <setupMem4Track>
     c8d: 20 7e 37     	jsr	$377e <escReset>
     c90: 20 be 38     	jsr	$38be <prepTempoLUT>
     c93: a2 80        	ldx	#$80
     c95: 86 f3        	stx	$f3                     ; 0x20f3 <f256main+0x17df>
     c97: 18           	clc
     c98: a5 10        	lda	$10                     ; 0x2010 <f256main+0x16fc>
     c9a: 69 1a        	adc	#$1a
     c9c: 85 12        	sta	$12                     ; 0x2012 <f256main+0x16fe>
     c9e: a5 11        	lda	$11                     ; 0x2011 <f256main+0x16fd>
     ca0: 69 00        	adc	#$0
     ca2: 85 13        	sta	$13                     ; 0x2013 <f256main+0x16ff>
     ca4: a2 b7        	ldx	#$b7
     ca6: 86 14        	stx	$14                     ; 0x2014 <f256main+0x1700>
     ca8: a2 8c        	ldx	#$8c
     caa: 86 15        	stx	$15                     ; 0x2015 <f256main+0x1701>
     cac: 20 f0 ff     	jsr	$fff0 <__heap_start+0x7334>
     caf: 92 12        	sta	($12)                   ; 0x2012 <f256main+0x16fe>
     cb1: a9 00        	lda	#$0
     cb3: 6a           	ror
     cb4: 85 14        	sta	$14                     ; 0x2014 <f256main+0x1700>
     cb6: a9 09        	lda	#$9
     cb8: 18           	clc
     cb9: 72 12        	adc	($12)                   ; 0x2012 <f256main+0x16fe>
     cbb: 85 4f        	sta	$4f                     ; 0x204f <f256main+0x173b>
     cbd: 64 f3        	stz	$f3                     ; 0x20f3 <f256main+0x17df>
     cbf: a6 4f        	ldx	$4f                     ; 0x204f <f256main+0x173b>
     cc1: 86 f4        	stx	$f4                     ; 0x20f4 <f256main+0x17e0>
     cc3: 64 f5        	stz	$f5                     ; 0x20f5 <f256main+0x17e1>
     cc5: 18           	clc
     cc6: a5 10        	lda	$10                     ; 0x2010 <f256main+0x16fc>
     cc8: 69 1b        	adc	#$1b
     cca: 85 12        	sta	$12                     ; 0x2012 <f256main+0x16fe>
     ccc: a5 11        	lda	$11                     ; 0x2011 <f256main+0x16fd>
     cce: 69 00        	adc	#$0
     cd0: 85 13        	sta	$13                     ; 0x2013 <f256main+0x16ff>
     cd2: a2 90        	ldx	#$90
     cd4: 20 f0 ff     	jsr	$fff0 <__heap_start+0x7334>
     cd7: 92 12        	sta	($12)                   ; 0x2012 <f256main+0x16fe>
     cd9: a9 00        	lda	#$0
     cdb: 6a           	ror
     cdc: 85 14        	sta	$14                     ; 0x2014 <f256main+0x1700>
     cde: 86 30        	stx	$30                     ; 0x2030 <f256main+0x171c>
     ce0: ad a0 dd     	lda	$dda0                   ; 0xdda0 <__heap_start+0x50e4>
     ce3: 29 02        	and	#$2
     ce5: d0 1e        	bne	$d05 <f256main+0x3f1>
     ce7: ae a2 dd     	ldx	$dda2                   ; 0xdda2 <__heap_start+0x50e6>
     cea: ad a3 dd     	lda	$dda3                   ; 0xdda3 <__heap_start+0x50e7>
     ced: 29 0f        	and	#$f
     cef: d0 04        	bne	$cf5 <f256main+0x3e1>
     cf1: e0 00        	cpx	#$0
     cf3: f0 10        	beq	$d05 <f256main+0x3f1>
     cf5: ac a1 dd     	ldy	$dda1                   ; 0xdda1 <__heap_start+0x50e5>
     cf8: ca           	dex
     cf9: e0 ff        	cpx	#$ff
     cfb: d0 01        	bne	$cfe <f256main+0x3ea>
     cfd: 3a           	dec
     cfe: a8           	tay
     cff: d0 f4        	bne	$cf5 <f256main+0x3e1>
     d01: e0 00        	cpx	#$0
     d03: d0 f0        	bne	$cf5 <f256main+0x3e1>
     d05: a2 d4        	ldx	#$d4
     d07: a0 00        	ldy	#$0
     d09: 98           	tya
     d0a: 18           	clc
     d0b: 69 00        	adc	#$0
     d0d: 85 14        	sta	$14                     ; 0x2014 <f256main+0x1700>
     d0f: 8a           	txa
     d10: 69 01        	adc	#$1
     d12: 85 15        	sta	$15                     ; 0x2015 <f256main+0x1701>
     d14: 84 12        	sty	$12                     ; 0x2012 <f256main+0x16fe>
     d16: 86 13        	stx	$13                     ; 0x2013 <f256main+0x16ff>
     d18: a9 00        	lda	#$0
     d1a: 92 12        	sta	($12)                   ; 0x2012 <f256main+0x16fe>
     d1c: 5a           	phy
     d1d: a4 14        	ldy	$14                     ; 0x2014 <f256main+0x1700>
     d1f: 84 12        	sty	$12                     ; 0x2012 <f256main+0x16fe>
     d21: a4 15        	ldy	$15                     ; 0x2015 <f256main+0x1701>
     d23: 84 13        	sty	$13                     ; 0x2013 <f256main+0x16ff>
     d25: 7a           	ply
     d26: 92 12        	sta	($12)                   ; 0x2012 <f256main+0x16fe>
     d28: c8           	iny
     d29: d0 01        	bne	$d2c <f256main+0x418>
     d2b: e8           	inx
     d2c: c0 19        	cpy	#$19
     d2e: d0 d9        	bne	$d09 <f256main+0x3f5>
     d30: 20 b4 41     	jsr	$41b4 <sid_setInstrumentAllChannels>
     d33: ad a1 d6     	lda	$d6a1                   ; 0xd6a1 <__heap_start+0x49e5>
     d36: 29 f7        	and	#$f7
     d38: 8d a1 d6     	sta	$d6a1                   ; 0xd6a1 <__heap_start+0x49e5>
     d3b: ad a1 d6     	lda	$d6a1                   ; 0xd6a1 <__heap_start+0x49e5>
     d3e: 29 fb        	and	#$fb
     d40: 8d a1 d6     	sta	$d6a1                   ; 0xd6a1 <__heap_start+0x49e5>
     d43: a2 01        	ldx	#$1
     d45: 8e 80 d5     	stx	$d580                   ; 0xd580 <__heap_start+0x48c4>
     d48: a0 20        	ldy	#$20
     d4a: 8c 81 d5     	sty	$d581                   ; 0xd581 <__heap_start+0x48c5>
     d4d: a0 02        	ldy	#$2
     d4f: 8c 80 d5     	sty	$d580                   ; 0xd580 <__heap_start+0x48c4>
     d52: 9c 81 d5     	stz	$d581                   ; 0xd581 <__heap_start+0x48c5>
     d55: c8           	iny
     d56: 8c 80 d5     	sty	$d580                   ; 0xd580 <__heap_start+0x48c4>
     d59: 9c 81 d5     	stz	$d581                   ; 0xd581 <__heap_start+0x48c5>
     d5c: c8           	iny
     d5d: 8c 82 d5     	sty	$d582                   ; 0xd582 <__heap_start+0x48c6>
     d60: 9c 81 d5     	stz	$d581                   ; 0xd581 <__heap_start+0x48c5>
     d63: c8           	iny
     d64: 8c 82 d5     	sty	$d582                   ; 0xd582 <__heap_start+0x48c6>
     d67: 8e 81 d5     	stx	$d581                   ; 0xd581 <__heap_start+0x48c5>
     d6a: a2 08        	ldx	#$8
     d6c: 8e 80 d5     	stx	$d580                   ; 0xd580 <__heap_start+0x48c4>
     d6f: 9c 81 d5     	stz	$d581                   ; 0xd581 <__heap_start+0x48c5>
     d72: a2 c0        	ldx	#$c0
     d74: a0 30        	ldy	#$30
     d76: 8e 80 d5     	stx	$d580                   ; 0xd580 <__heap_start+0x48c4>
     d79: 8c 81 d5     	sty	$d581                   ; 0xd581 <__heap_start+0x48c5>
     d7c: e8           	inx
     d7d: e0 c9        	cpx	#$c9
     d7f: d0 f5        	bne	$d76 <f256main+0x462>
     d81: a2 b0        	ldx	#$b0
     d83: 8e 80 d5     	stx	$d580                   ; 0xd580 <__heap_start+0x48c4>
     d86: 9c 81 d5     	stz	$d581                   ; 0xd581 <__heap_start+0x48c5>
     d89: e8           	inx
     d8a: e0 b9        	cpx	#$b9
     d8c: d0 f5        	bne	$d83 <f256main+0x46f>
     d8e: a9 00        	lda	#$0
     d90: 20 e4 40     	jsr	$40e4 <opl3_setInstrumentAllChannels>
     d93: ad a7 d6     	lda	$d6a7                   ; 0xd6a7 <__heap_start+0x49eb>
     d96: 29 3f        	and	#$3f
     d98: c9 22        	cmp	#$22
     d9a: f0 07        	beq	$da3 <f256main+0x48f>
     d9c: c9 11        	cmp	#$11
     d9e: f0 03        	beq	$da3 <f256main+0x48f>
     da0: 4c a7 0e     	jmp	$ea7 <f256main+0x593>
     da3: a2 03        	ldx	#$3
     da5: 8e 01 d7     	stx	$d701                   ; 0xd701 <__heap_start+0x4a45>
     da8: 9c 02 d7     	stz	$d702                   ; 0xd702 <__heap_start+0x4a46>
     dab: 9c 02 d7     	stz	$d702                   ; 0xd702 <__heap_start+0x4a46>
     dae: a2 40        	ldx	#$40
     db0: 8e 03 d7     	stx	$d703                   ; 0xd703 <__heap_start+0x4a47>
     db3: a2 01        	ldx	#$1
     db5: 8e 00 d7     	stx	$d700                   ; 0xd700 <__heap_start+0x4a44>
     db8: 9c 00 d7     	stz	$d700                   ; 0xd700 <__heap_start+0x4a44>
     dbb: ae 00 d7     	ldx	$d700                   ; 0xd700 <__heap_start+0x4a44>
     dbe: 30 fb        	bmi	$dbb <f256main+0x4a7>
     dc0: a9 00        	lda	#$0
     dc2: aa           	tax
     dc3: a8           	tay
     dc4: 0a           	asl
     dc5: 85 12        	sta	$12                     ; 0x2012 <f256main+0x16fe>
     dc7: 86 15        	stx	$15                     ; 0x2015 <f256main+0x1701>
     dc9: 8a           	txa
     dca: 2a           	rol
     dcb: 85 13        	sta	$13                     ; 0x2013 <f256main+0x16ff>
     dcd: a9 76        	lda	#$76
     dcf: 18           	clc
     dd0: 65 12        	adc	$12                     ; 0x2012 <f256main+0x16fe>
     dd2: 85 14        	sta	$14                     ; 0x2014 <f256main+0x1700>
     dd4: a9 89        	lda	#$89
     dd6: 65 13        	adc	$13                     ; 0x2013 <f256main+0x16ff>
     dd8: a6 14        	ldx	$14                     ; 0x2014 <f256main+0x1700>
     dda: 86 12        	stx	$12                     ; 0x2012 <f256main+0x16fe>
     ddc: 85 13        	sta	$13                     ; 0x2013 <f256main+0x16ff>
     dde: 85 17        	sta	$17                     ; 0x2017 <f256main+0x1703>
     de0: 18           	clc
     de1: 98           	tya
     de2: 69 02        	adc	#$2
     de4: aa           	tax
     de5: a5 15        	lda	$15                     ; 0x2015 <f256main+0x1701>
     de7: 69 00        	adc	#$0
     de9: 85 16        	sta	$16                     ; 0x2016 <f256main+0x1702>
     deb: 18           	clc
     dec: a5 14        	lda	$14                     ; 0x2014 <f256main+0x1700>
     dee: 69 02        	adc	#$2
     df0: 85 14        	sta	$14                     ; 0x2014 <f256main+0x1700>
     df2: a5 17        	lda	$17                     ; 0x2017 <f256main+0x1703>
     df4: 69 00        	adc	#$0
     df6: 85 15        	sta	$15                     ; 0x2015 <f256main+0x1701>
     df8: a0 02        	ldy	#$2
     dfa: b1 12        	lda	($12),y                 ; 0x2012 <f256main+0x16fe>
     dfc: 85 19        	sta	$19                     ; 0x2019 <f256main+0x1705>
     dfe: 88           	dey
     dff: b1 14        	lda	($14),y                 ; 0x2014 <f256main+0x1700>
     e01: d0 09        	bne	$e0c <f256main+0x4f8>
     e03: e6 19        	inc	$19                     ; 0x2019 <f256main+0x1705>
     e05: c6 19        	dec	$19                     ; 0x2019 <f256main+0x1705>
     e07: d0 03        	bne	$e0c <f256main+0x4f8>
     e09: 4c a2 0e     	jmp	$ea2 <f256main+0x58e>
     e0c: 5a           	phy
     e0d: a4 19        	ldy	$19                     ; 0x2019 <f256main+0x1705>
     e0f: 84 17        	sty	$17                     ; 0x2017 <f256main+0x1703>
     e11: 7a           	ply
     e12: 85 18        	sta	$18                     ; 0x2018 <f256main+0x1704>
     e14: b2 12        	lda	($12)                   ; 0x2012 <f256main+0x16fe>
     e16: 85 19        	sta	$19                     ; 0x2019 <f256main+0x1705>
     e18: b1 12        	lda	($12),y                 ; 0x2012 <f256main+0x16fe>
     e1a: 85 1a        	sta	$1a                     ; 0x201a <f256main+0x1706>
     e1c: 8a           	txa
     e1d: a6 16        	ldx	$16                     ; 0x2016 <f256main+0x1702>
     e1f: 85 14        	sta	$14                     ; 0x2014 <f256main+0x1700>
     e21: 0a           	asl
     e22: 85 12        	sta	$12                     ; 0x2012 <f256main+0x16fe>
     e24: 86 15        	stx	$15                     ; 0x2015 <f256main+0x1701>
     e26: 8a           	txa
     e27: 2a           	rol
     e28: 85 13        	sta	$13                     ; 0x2013 <f256main+0x16ff>
     e2a: a9 76        	lda	#$76
     e2c: 18           	clc
     e2d: 65 12        	adc	$12                     ; 0x2012 <f256main+0x16fe>
     e2f: 85 12        	sta	$12                     ; 0x2012 <f256main+0x16fe>
     e31: a9 89        	lda	#$89
     e33: 65 13        	adc	$13                     ; 0x2013 <f256main+0x16ff>
     e35: 85 13        	sta	$13                     ; 0x2013 <f256main+0x16ff>
     e37: b2 12        	lda	($12)                   ; 0x2012 <f256main+0x16fe>
     e39: 85 16        	sta	$16                     ; 0x2016 <f256main+0x1702>
     e3b: b1 12        	lda	($12),y                 ; 0x2012 <f256main+0x16fe>
     e3d: a6 19        	ldx	$19                     ; 0x2019 <f256main+0x1705>
     e3f: 8e 01 d7     	stx	$d701                   ; 0xd701 <__heap_start+0x4a45>
     e42: a6 1a        	ldx	$1a                     ; 0x201a <f256main+0x1706>
     e44: 8e 02 d7     	stx	$d702                   ; 0xd702 <__heap_start+0x4a46>
     e47: a6 16        	ldx	$16                     ; 0x2016 <f256main+0x1702>
     e49: 8e 02 d7     	stx	$d702                   ; 0xd702 <__heap_start+0x4a46>
     e4c: 8d 03 d7     	sta	$d703                   ; 0xd703 <__heap_start+0x4a47>
     e4f: 8c 00 d7     	sty	$d700                   ; 0xd700 <__heap_start+0x4a44>
     e52: 9c 00 d7     	stz	$d700                   ; 0xd700 <__heap_start+0x4a44>
     e55: ae 00 d7     	ldx	$d700                   ; 0xd700 <__heap_start+0x4a44>
     e58: 30 fb        	bmi	$e55 <f256main+0x541>
     e5a: 5a           	phy
     e5b: a6 17        	ldx	$17                     ; 0x2017 <f256main+0x1703>
     e5d: 86 12        	stx	$12                     ; 0x2012 <f256main+0x16fe>
     e5f: a6 18        	ldx	$18                     ; 0x2018 <f256main+0x1704>
     e61: 86 13        	stx	$13                     ; 0x2013 <f256main+0x16ff>
     e63: a2 ff        	ldx	#$ff
     e65: c6 12        	dec	$12                     ; 0x2012 <f256main+0x16fe>
     e67: e4 12        	cpx	$12                     ; 0x2012 <f256main+0x16fe>
     e69: d0 02        	bne	$e6d <f256main+0x559>
     e6b: c6 13        	dec	$13                     ; 0x2013 <f256main+0x16ff>
     e6d: a5 14        	lda	$14                     ; 0x2014 <f256main+0x1700>
     e6f: a6 15        	ldx	$15                     ; 0x2015 <f256main+0x1701>
     e71: 1a           	inc
     e72: d0 01        	bne	$e75 <f256main+0x561>
     e74: e8           	inx
     e75: a4 12        	ldy	$12                     ; 0x2012 <f256main+0x16fe>
     e77: 84 17        	sty	$17                     ; 0x2017 <f256main+0x1703>
     e79: a4 13        	ldy	$13                     ; 0x2013 <f256main+0x16ff>
     e7b: 84 18        	sty	$18                     ; 0x2018 <f256main+0x1704>
     e7d: 7a           	ply
     e7e: e6 13        	inc	$13                     ; 0x2013 <f256main+0x16ff>
     e80: c6 13        	dec	$13                     ; 0x2013 <f256main+0x16ff>
     e82: f0 03        	beq	$e87 <f256main+0x573>
     e84: 4c 1f 0e     	jmp	$e1f <f256main+0x50b>
     e87: e6 12        	inc	$12                     ; 0x2012 <f256main+0x16fe>
     e89: c6 12        	dec	$12                     ; 0x2012 <f256main+0x16fe>
     e8b: f0 03        	beq	$e90 <f256main+0x57c>
     e8d: 4c 1f 0e     	jmp	$e1f <f256main+0x50b>
     e90: e0 00        	cpx	#$0
     e92: d0 07        	bne	$e9b <f256main+0x587>
     e94: c9 1c        	cmp	#$1c
     e96: b0 0f        	bcs	$ea7 <f256main+0x593>
     e98: 4c c3 0d     	jmp	$dc3 <f256main+0x4af>
     e9b: e0 00        	cpx	#$0
     e9d: b0 08        	bcs	$ea7 <f256main+0x593>
     e9f: 4c c3 0d     	jmp	$dc3 <f256main+0x4af>
     ea2: 8a           	txa
     ea3: a6 16        	ldx	$16                     ; 0x2016 <f256main+0x1702>
     ea5: 80 e9        	bra	$e90 <f256main+0x57c>
     ea7: a2 27        	ldx	#$27
     ea9: 86 31        	stx	$31                     ; 0x2031 <f256main+0x171d>
     eab: 64 32        	stz	$32                     ; 0x2032 <f256main+0x171e>
     ead: 86 50        	stx	$50                     ; 0x2050 <f256main+0x173c>
     eaf: 64 51        	stz	$51                     ; 0x2051 <f256main+0x173d>
     eb1: a6 01        	ldx	$1                      ; 0x2001 <f256main+0x16ed>
     eb3: a0 01        	ldy	#$1
     eb5: 84 01        	sty	$1                      ; 0x2001 <f256main+0x16ed>
     eb7: 9c 20 d2     	stz	$d220                   ; 0xd220 <__heap_start+0x4564>
     eba: 9c 21 d2     	stz	$d221                   ; 0xd221 <__heap_start+0x4565>
     ebd: a0 ff        	ldy	#$ff
     ebf: 8c 22 d2     	sty	$d222                   ; 0xd222 <__heap_start+0x4566>
     ec2: 8c 23 d2     	sty	$d223                   ; 0xd223 <__heap_start+0x4567>
     ec5: 86 01        	stx	$1                      ; 0x2001 <f256main+0x16ed>
     ec7: a2 b7        	ldx	#$b7
     ec9: 86 28        	stx	$28                     ; 0x2028 <f256main+0x1714>
     ecb: a2 8c        	ldx	#$8c
     ecd: 86 29        	stx	$29                     ; 0x2029 <f256main+0x1715>
     ecf: 64 25        	stz	$25                     ; 0x2025 <f256main+0x1711>
     ed1: 64 12        	stz	$12                     ; 0x2012 <f256main+0x16fe>
     ed3: a9 00        	lda	#$0
     ed5: a0 12        	ldy	#$12
     ed7: 91 10        	sta	($10),y                 ; 0x2010 <f256main+0x16fc>
     ed9: 64 26        	stz	$26                     ; 0x2026 <f256main+0x1712>
     edb: 88           	dey
     edc: 91 10        	sta	($10),y                 ; 0x2010 <f256main+0x16fc>
     ede: a2 90        	ldx	#$90
     ee0: 8a           	txa
     ee1: 88           	dey
     ee2: 91 10        	sta	($10),y                 ; 0x2010 <f256main+0x16fc>
     ee4: ad a0 dd     	lda	$dda0                   ; 0xdda0 <__heap_start+0x50e4>
     ee7: 29 02        	and	#$2
     ee9: f0 03        	beq	$eee <f256main+0x5da>
     eeb: 4c 08 11     	jmp	$1108 <f256main+0x7f4>
     eee: ae a2 dd     	ldx	$dda2                   ; 0xdda2 <__heap_start+0x50e6>
     ef1: 86 24        	stx	$24                     ; 0x2024 <f256main+0x1710>
     ef3: ad a3 dd     	lda	$dda3                   ; 0xdda3 <__heap_start+0x50e7>
     ef6: a6 37        	ldx	$37                     ; 0x2037 <f256main+0x1723>
     ef8: a0 04        	ldy	#$4
     efa: e0 00        	cpx	#$0
     efc: d0 35        	bne	$f33 <f256main+0x61f>
     efe: a2 05        	ldx	#$5
     f00: 86 33        	stx	$33                     ; 0x2033 <f256main+0x171f>
     f02: 8e 14 d0     	stx	$d014                   ; 0xd014 <__heap_start+0x4358>
     f05: 9c 15 d0     	stz	$d015                   ; 0xd015 <__heap_start+0x4359>
     f08: 84 34        	sty	$34                     ; 0x2034 <f256main+0x1720>
     f0a: 8c 16 d0     	sty	$d016                   ; 0xd016 <__heap_start+0x435a>
     f0d: 9c 17 d0     	stz	$d017                   ; 0xd017 <__heap_start+0x435b>
     f10: a2 45        	ldx	#$45
     f12: 86 12        	stx	$12                     ; 0x2012 <f256main+0x16fe>
     f14: a2 83        	ldx	#$83
     f16: 86 13        	stx	$13                     ; 0x2013 <f256main+0x16ff>
     f18: 85 2b        	sta	$2b                     ; 0x202b <f256main+0x1717>
     f1a: 20 c7 2e     	jsr	$2ec7 <textPrint>
     f1d: a5 2b        	lda	$2b                     ; 0x202b <f256main+0x1717>
     f1f: a2 04        	ldx	#$4
     f21: a0 05        	ldy	#$5
     f23: 84 33        	sty	$33                     ; 0x2033 <f256main+0x171f>
     f25: 8c 14 d0     	sty	$d014                   ; 0xd014 <__heap_start+0x4358>
     f28: 9c 15 d0     	stz	$d015                   ; 0xd015 <__heap_start+0x4359>
     f2b: 86 34        	stx	$34                     ; 0x2034 <f256main+0x1720>
     f2d: 8e 16 d0     	stx	$d016                   ; 0xd016 <__heap_start+0x435a>
     f30: 9c 17 d0     	stz	$d017                   ; 0xd017 <__heap_start+0x435b>
     f33: 29 0f        	and	#$f
     f35: a6 24        	ldx	$24                     ; 0x2024 <f256main+0x1710>
     f37: 86 2b        	stx	$2b                     ; 0x202b <f256main+0x1717>
     f39: aa           	tax
     f3a: d0 07        	bne	$f43 <f256main+0x62f>
     f3c: a6 2b        	ldx	$2b                     ; 0x202b <f256main+0x1717>
     f3e: d0 03        	bne	$f43 <f256main+0x62f>
     f40: 4c 08 11     	jmp	$1108 <f256main+0x7f4>
     f43: a4 25        	ldy	$25                     ; 0x2025 <f256main+0x1711>
     f45: ae a1 dd     	ldx	$dda1                   ; 0xdda1 <__heap_start+0x50e5>
     f48: e0 fe        	cpx	#$fe
     f4a: d0 03        	bne	$f4f <f256main+0x63b>
     f4c: 4c c5 10     	jmp	$10c5 <f256main+0x7b1>
     f4f: 86 16        	stx	$16                     ; 0x2016 <f256main+0x1702>
     f51: a6 26        	ldx	$26                     ; 0x2026 <f256main+0x1712>
     f53: e0 ff        	cpx	#$ff
     f55: d0 02        	bne	$f59 <f256main+0x645>
     f57: a2 00        	ldx	#$0
     f59: e8           	inx
     f5a: c0 00        	cpy	#$0
     f5c: f0 3e        	beq	$f9c <f256main+0x688>
     f5e: 85 25        	sta	$25                     ; 0x2025 <f256main+0x1711>
     f60: 86 26        	stx	$26                     ; 0x2026 <f256main+0x1712>
     f62: a6 81        	ldx	$81                     ; 0x2081 <f256main+0x176d>
     f64: a4 82        	ldy	$82                     ; 0x2082 <f256main+0x176e>
     f66: 86 12        	stx	$12                     ; 0x2012 <f256main+0x16fe>
     f68: 84 13        	sty	$13                     ; 0x2013 <f256main+0x16ff>
     f6a: a2 40        	ldx	#$40
     f6c: a5 16        	lda	$16                     ; 0x2016 <f256main+0x1702>
     f6e: c9 40        	cmp	#$40
     f70: 90 01        	bcc	$f73 <f256main+0x65f>
     f72: aa           	tax
     f73: a0 03        	ldy	#$3
     f75: b1 12        	lda	($12),y                 ; 0x2012 <f256main+0x16fe>
     f77: 85 18        	sta	$18                     ; 0x2018 <f256main+0x1704>
     f79: 88           	dey
     f7a: b1 12        	lda	($12),y                 ; 0x2012 <f256main+0x16fe>
     f7c: 85 14        	sta	$14                     ; 0x2014 <f256main+0x1700>
     f7e: a0 06        	ldy	#$6
     f80: b1 12        	lda	($12),y                 ; 0x2012 <f256main+0x16fe>
     f82: 86 13        	stx	$13                     ; 0x2013 <f256main+0x16ff>
     f84: a6 2a        	ldx	$2a                     ; 0x202a <f256main+0x1716>
     f86: 86 12        	stx	$12                     ; 0x2012 <f256main+0x16fe>
     f88: 85 15        	sta	$15                     ; 0x2015 <f256main+0x1701>
     f8a: 64 16        	stz	$16                     ; 0x2016 <f256main+0x1702>
     f8c: 64 17        	stz	$17                     ; 0x2017 <f256main+0x1703>
     f8e: a6 18        	ldx	$18                     ; 0x2018 <f256main+0x1704>
     f90: a0 12        	ldy	#$12
     f92: b1 10        	lda	($10),y                 ; 0x2010 <f256main+0x16fc>
     f94: 20 67 3a     	jsr	$3a67 <dispatchNote>
     f97: a0 00        	ldy	#$0
     f99: 4c c3 10     	jmp	$10c3 <f256main+0x7af>
     f9c: 85 25        	sta	$25                     ; 0x2025 <f256main+0x1711>
     f9e: a0 11        	ldy	#$11
     fa0: b1 10        	lda	($10),y                 ; 0x2010 <f256main+0x16fc>
     fa2: d0 03        	bne	$fa7 <f256main+0x693>
     fa4: 4c 1b 10     	jmp	$101b <f256main+0x707>
     fa7: 86 26        	stx	$26                     ; 0x2026 <f256main+0x1712>
     fa9: a5 16        	lda	$16                     ; 0x2016 <f256main+0x1702>
     fab: 18           	clc
     fac: 69 ec        	adc	#$ec
     fae: a0 01        	ldy	#$1
     fb0: 48           	pha
     fb1: 5a           	phy
     fb2: a0 12        	ldy	#$12
     fb4: b1 10        	lda	($10),y                 ; 0x2010 <f256main+0x16fc>
     fb6: 7a           	ply
     fb7: aa           	tax
     fb8: 68           	pla
     fb9: e0 00        	cpx	#$0
     fbb: d0 03        	bne	$fc0 <f256main+0x6ac>
     fbd: 4c 44 10     	jmp	$1044 <f256main+0x730>
     fc0: a6 16        	ldx	$16                     ; 0x2016 <f256main+0x1702>
     fc2: 86 2a        	stx	$2a                     ; 0x202a <f256main+0x1716>
     fc4: 0a           	asl
     fc5: 64 12        	stz	$12                     ; 0x2012 <f256main+0x16fe>
     fc7: 26 12        	rol	$12                     ; 0x2012 <f256main+0x16fe>
     fc9: 0a           	asl
     fca: 85 13        	sta	$13                     ; 0x2013 <f256main+0x16ff>
     fcc: 26 12        	rol	$12                     ; 0x2012 <f256main+0x16fe>
     fce: a9 00        	lda	#$0
     fd0: 18           	clc
     fd1: 65 13        	adc	$13                     ; 0x2013 <f256main+0x16ff>
     fd3: aa           	tax
     fd4: a9 d0        	lda	#$d0
     fd6: 65 12        	adc	$12                     ; 0x2012 <f256main+0x16fe>
     fd8: 86 12        	stx	$12                     ; 0x2012 <f256main+0x16fe>
     fda: 85 13        	sta	$13                     ; 0x2013 <f256main+0x16ff>
     fdc: a6 01        	ldx	$1                      ; 0x2001 <f256main+0x16ed>
     fde: 84 01        	sty	$1                      ; 0x2001 <f256main+0x16ed>
     fe0: a9 ff        	lda	#$ff
     fe2: 92 12        	sta	($12)                   ; 0x2012 <f256main+0x16fe>
     fe4: 1a           	inc
     fe5: 91 12        	sta	($12),y                 ; 0x2012 <f256main+0x16fe>
     fe7: a0 02        	ldy	#$2
     fe9: 3a           	dec
     fea: 91 12        	sta	($12),y                 ; 0x2012 <f256main+0x16fe>
     fec: c8           	iny
     fed: 91 12        	sta	($12),y                 ; 0x2012 <f256main+0x16fe>
     fef: 86 01        	stx	$1                      ; 0x2001 <f256main+0x16ed>
     ff1: 64 33        	stz	$33                     ; 0x2033 <f256main+0x171f>
     ff3: 9c 14 d0     	stz	$d014                   ; 0xd014 <__heap_start+0x4358>
     ff6: 9c 15 d0     	stz	$d015                   ; 0xd015 <__heap_start+0x4359>
     ff9: a2 39        	ldx	#$39
     ffb: 86 34        	stx	$34                     ; 0x2034 <f256main+0x1720>
     ffd: 8e 16 d0     	stx	$d016                   ; 0xd016 <__heap_start+0x435a>
    1000: 9c 17 d0     	stz	$d017                   ; 0xd017 <__heap_start+0x435b>
    1003: 64 12        	stz	$12                     ; 0x2012 <f256main+0x16fe>
    1005: 64 13        	stz	$13                     ; 0x2013 <f256main+0x16ff>
    1007: a2 00        	ldx	#$0
    1009: a5 16        	lda	$16                     ; 0x2016 <f256main+0x1702>
    100b: 20 46 39     	jsr	$3946 <textPrintUInt>
    100e: a0 01        	ldy	#$1
    1010: a2 01        	ldx	#$1
    1012: 5a           	phy
    1013: 8a           	txa
    1014: a0 12        	ldy	#$12
    1016: 91 10        	sta	($10),y                 ; 0x2010 <f256main+0x16fc>
    1018: 4c a6 10     	jmp	$10a6 <f256main+0x792>
    101b: 86 26        	stx	$26                     ; 0x2026 <f256main+0x1712>
    101d: a5 16        	lda	$16                     ; 0x2016 <f256main+0x1702>
    101f: 29 f0        	and	#$f0
    1021: c9 90        	cmp	#$90
    1023: d0 03        	bne	$1028 <f256main+0x714>
    1025: 4c ae 10     	jmp	$10ae <f256main+0x79a>
    1028: c9 80        	cmp	#$80
    102a: f0 03        	beq	$102f <f256main+0x71b>
    102c: 4c db 10     	jmp	$10db <f256main+0x7c7>
    102f: a2 01        	ldx	#$1
    1031: 8a           	txa
    1032: a0 11        	ldy	#$11
    1034: 91 10        	sta	($10),y                 ; 0x2010 <f256main+0x16fc>
    1036: 64 12        	stz	$12                     ; 0x2012 <f256main+0x16fe>
    1038: a9 00        	lda	#$0
    103a: c8           	iny
    103b: 91 10        	sta	($10),y                 ; 0x2010 <f256main+0x16fc>
    103d: a8           	tay
    103e: a5 16        	lda	$16                     ; 0x2016 <f256main+0x1702>
    1040: 5a           	phy
    1041: 4c be 10     	jmp	$10be <f256main+0x7aa>
    1044: aa           	tax
    1045: bc fc 79     	ldy	$79fc,x                 ; 0x79fc <textColors+0x2f>
    1048: a2 01        	ldx	#$1
    104a: c0 00        	cpy	#$0
    104c: f0 02        	beq	$1050 <f256main+0x73c>
    104e: a2 00        	ldx	#$0
    1050: 64 12        	stz	$12                     ; 0x2012 <f256main+0x16fe>
    1052: a0 01        	ldy	#$1
    1054: 64 13        	stz	$13                     ; 0x2013 <f256main+0x16ff>
    1056: e0 00        	cpx	#$0
    1058: d0 02        	bne	$105c <f256main+0x748>
    105a: 84 13        	sty	$13                     ; 0x2013 <f256main+0x16ff>
    105c: 46 13        	lsr	$13                     ; 0x2013 <f256main+0x16ff>
    105e: 64 13        	stz	$13                     ; 0x2013 <f256main+0x16ff>
    1060: 66 13        	ror	$13                     ; 0x2013 <f256main+0x16ff>
    1062: 10 04        	bpl	$1068 <f256main+0x754>
    1064: a2 ff        	ldx	#$ff
    1066: 80 02        	bra	$106a <f256main+0x756>
    1068: a2 00        	ldx	#$0
    106a: 06 13        	asl	$13                     ; 0x2013 <f256main+0x16ff>
    106c: 86 17        	stx	$17                     ; 0x2017 <f256main+0x1703>
    106e: 26 17        	rol	$17                     ; 0x2017 <f256main+0x1703>
    1070: 0a           	asl
    1071: 26 12        	rol	$12                     ; 0x2012 <f256main+0x16fe>
    1073: 0a           	asl
    1074: 26 12        	rol	$12                     ; 0x2012 <f256main+0x16fe>
    1076: 64 13        	stz	$13                     ; 0x2013 <f256main+0x16ff>
    1078: 18           	clc
    1079: 65 13        	adc	$13                     ; 0x2013 <f256main+0x16ff>
    107b: 85 14        	sta	$14                     ; 0x2014 <f256main+0x1700>
    107d: a9 d0        	lda	#$d0
    107f: 65 12        	adc	$12                     ; 0x2012 <f256main+0x16fe>
    1081: 85 15        	sta	$15                     ; 0x2015 <f256main+0x1701>
    1083: a6 01        	ldx	$1                      ; 0x2001 <f256main+0x16ed>
    1085: a9 01        	lda	#$1
    1087: 85 01        	sta	$1                      ; 0x2001 <f256main+0x16ed>
    1089: a5 17        	lda	$17                     ; 0x2017 <f256main+0x1703>
    108b: 91 14        	sta	($14),y                 ; 0x2014 <f256main+0x1700>
    108d: 92 14        	sta	($14)                   ; 0x2014 <f256main+0x1700>
    108f: a0 02        	ldy	#$2
    1091: 91 14        	sta	($14),y                 ; 0x2014 <f256main+0x1700>
    1093: a9 ff        	lda	#$ff
    1095: c8           	iny
    1096: 91 14        	sta	($14),y                 ; 0x2014 <f256main+0x1700>
    1098: 86 01        	stx	$1                      ; 0x2001 <f256main+0x16ed>
    109a: a0 01        	ldy	#$1
    109c: 5a           	phy
    109d: 1a           	inc
    109e: a0 12        	ldy	#$12
    10a0: 91 10        	sta	($10),y                 ; 0x2010 <f256main+0x16fc>
    10a2: a6 16        	ldx	$16                     ; 0x2016 <f256main+0x1702>
    10a4: 86 2a        	stx	$2a                     ; 0x202a <f256main+0x1716>
    10a6: 64 12        	stz	$12                     ; 0x2012 <f256main+0x16fe>
    10a8: a9 00        	lda	#$0
    10aa: a0 11        	ldy	#$11
    10ac: 80 12        	bra	$10c0 <f256main+0x7ac>
    10ae: a2 01        	ldx	#$1
    10b0: 8a           	txa
    10b1: a0 11        	ldy	#$11
    10b3: 91 10        	sta	($10),y                 ; 0x2010 <f256main+0x16fc>
    10b5: a0 00        	ldy	#$0
    10b7: 5a           	phy
    10b8: a0 12        	ldy	#$12
    10ba: 91 10        	sta	($10),y                 ; 0x2010 <f256main+0x16fc>
    10bc: a5 16        	lda	$16                     ; 0x2016 <f256main+0x1702>
    10be: a0 10        	ldy	#$10
    10c0: 91 10        	sta	($10),y                 ; 0x2010 <f256main+0x16fc>
    10c2: 7a           	ply
    10c3: a5 25        	lda	$25                     ; 0x2025 <f256main+0x1711>
    10c5: a2 ff        	ldx	#$ff
    10c7: c6 2b        	dec	$2b                     ; 0x202b <f256main+0x1717>
    10c9: e4 2b        	cpx	$2b                     ; 0x202b <f256main+0x1717>
    10cb: d0 01        	bne	$10ce <f256main+0x7ba>
    10cd: 3a           	dec
    10ce: aa           	tax
    10cf: f0 03        	beq	$10d4 <f256main+0x7c0>
    10d1: 4c 45 0f     	jmp	$f45 <f256main+0x631>
    10d4: a6 2b        	ldx	$2b                     ; 0x202b <f256main+0x1717>
    10d6: f0 32        	beq	$110a <f256main+0x7f6>
    10d8: 4c 45 0f     	jmp	$f45 <f256main+0x631>
    10db: a5 16        	lda	$16                     ; 0x2016 <f256main+0x1702>
    10dd: 30 17        	bmi	$10f6 <f256main+0x7e2>
    10df: a0 10        	ldy	#$10
    10e1: b1 10        	lda	($10),y                 ; 0x2010 <f256main+0x16fc>
    10e3: 29 f0        	and	#$f0
    10e5: c9 80        	cmp	#$80
    10e7: f0 04        	beq	$10ed <f256main+0x7d9>
    10e9: c9 90        	cmp	#$90
    10eb: d0 0d        	bne	$10fa <f256main+0x7e6>
    10ed: a0 01        	ldy	#$1
    10ef: a2 01        	ldx	#$1
    10f1: 5a           	phy
    10f2: 8a           	txa
    10f3: 4c 9e 10     	jmp	$109e <f256main+0x78a>
    10f6: a0 00        	ldy	#$0
    10f8: 80 06        	bra	$1100 <f256main+0x7ec>
    10fa: a0 01        	ldy	#$1
    10fc: a6 16        	ldx	$16                     ; 0x2016 <f256main+0x1702>
    10fe: 86 2a        	stx	$2a                     ; 0x202a <f256main+0x1716>
    1100: 64 12        	stz	$12                     ; 0x2012 <f256main+0x16fe>
    1102: a9 00        	lda	#$0
    1104: 5a           	phy
    1105: 4c aa 10     	jmp	$10aa <f256main+0x796>
    1108: a4 25        	ldy	$25                     ; 0x2025 <f256main+0x1711>
    110a: 64 83        	stz	$83                     ; 0x2083 <f256main+0x176f>
    110c: 18           	clc
    110d: a5 10        	lda	$10                     ; 0x2010 <f256main+0x16fc>
    110f: 69 13        	adc	#$13
    1111: 85 12        	sta	$12                     ; 0x2012 <f256main+0x16fe>
    1113: a5 11        	lda	$11                     ; 0x2011 <f256main+0x16fd>
    1115: 69 00        	adc	#$0
    1117: 85 13        	sta	$13                     ; 0x2013 <f256main+0x16ff>
    1119: 20 00 ff     	jsr	$ff00 <__heap_start+0x7244>
    111c: 92 12        	sta	($12)                   ; 0x2012 <f256main+0x16fe>
    111e: a9 00        	lda	#$0
    1120: 6a           	ror
    1121: 85 28        	sta	$28                     ; 0x2028 <f256main+0x1714>
    1123: a6 83        	ldx	$83                     ; 0x2083 <f256main+0x176f>
    1125: e0 08        	cpx	#$8
    1127: f0 4e        	beq	$1177 <f256main+0x863>
    1129: 84 25        	sty	$25                     ; 0x2025 <f256main+0x1711>
    112b: e0 0a        	cpx	#$a
    112d: f0 2c        	beq	$115b <f256main+0x847>
    112f: e0 52        	cpx	#$52
    1131: f0 03        	beq	$1136 <f256main+0x822>
    1133: 4c e4 0e     	jmp	$ee4 <f256main+0x5d0>
    1136: a6 87        	ldx	$87                     ; 0x2087 <f256main+0x1773>
    1138: d0 03        	bne	$113d <f256main+0x829>
    113a: 4c f3 11     	jmp	$11f3 <f256main+0x8df>
    113d: 86 2d        	stx	$2d                     ; 0x202d <f256main+0x1719>
    113f: 8a           	txa
    1140: 18           	clc
    1141: 69 fa        	adc	#$fa
    1143: aa           	tax
    1144: 85 2b        	sta	$2b                     ; 0x202b <f256main+0x1717>
    1146: a9 00        	lda	#$0
    1148: 69 ff        	adc	#$ff
    114a: 85 2c        	sta	$2c                     ; 0x202c <f256main+0x1718>
    114c: f0 03        	beq	$1151 <f256main+0x83d>
    114e: 4c 5b 12     	jmp	$125b <f256main+0x947>
    1151: e0 fa        	cpx	#$fa
    1153: 90 03        	bcc	$1158 <f256main+0x844>
    1155: 4c e4 0e     	jmp	$ee4 <f256main+0x5d0>
    1158: 4c 62 12     	jmp	$1262 <f256main+0x94e>
    115b: a6 87        	ldx	$87                     ; 0x2087 <f256main+0x1773>
    115d: e0 01        	cpx	#$1
    115f: d0 03        	bne	$1164 <f256main+0x850>
    1161: 4c 14 15     	jmp	$1514 <f256main+0xc00>
    1164: e0 20        	cpx	#$20
    1166: d0 03        	bne	$116b <f256main+0x857>
    1168: 4c e1 14     	jmp	$14e1 <f256main+0xbcd>
    116b: e0 05        	cpx	#$5
    116d: f0 03        	beq	$1172 <f256main+0x85e>
    116f: 4c e4 0e     	jmp	$ee4 <f256main+0x5d0>
    1172: 64 39        	stz	$39                     ; 0x2039 <f256main+0x1725>
    1174: 4c e4 0e     	jmp	$ee4 <f256main+0x5d0>
    1177: a6 87        	ldx	$87                     ; 0x2087 <f256main+0x1773>
    1179: 8a           	txa
    117a: 38           	sec
    117b: e9 01        	sbc	#$1
    117d: 50 02        	bvc	$1181 <f256main+0x86d>
    117f: 49 80        	eor	#$80
    1181: c9 00        	cmp	#$0
    1183: 10 37        	bpl	$11bc <f256main+0x8a8>
    1185: 8a           	txa
    1186: 38           	sec
    1187: e9 94        	sbc	#$94
    1189: 50 02        	bvc	$118d <f256main+0x879>
    118b: 49 80        	eor	#$80
    118d: c9 00        	cmp	#$0
    118f: 30 03        	bmi	$1194 <f256main+0x880>
    1191: 4c 7d 14     	jmp	$147d <f256main+0xb69>
    1194: 84 25        	sty	$25                     ; 0x2025 <f256main+0x1711>
    1196: 8a           	txa
    1197: 18           	clc
    1198: 69 7f        	adc	#$7f
    119a: c9 07        	cmp	#$7
    119c: 90 03        	bcc	$11a1 <f256main+0x88d>
    119e: 4c 0a 18     	jmp	$180a <f256main+0xef6>
    11a1: 86 14        	stx	$14                     ; 0x2014 <f256main+0x1700>
    11a3: 0a           	asl
    11a4: aa           	tax
    11a5: 7c 63 79     	jmp	($7963,x)               ; 0x7963 <__set_v+0x1>
    11a8: a4 37        	ldy	$37                     ; 0x2037 <f256main+0x1723>
    11aa: a2 01        	ldx	#$1
    11ac: 98           	tya
    11ad: f0 02        	beq	$11b1 <f256main+0x89d>
    11af: a2 00        	ldx	#$0
    11b1: 8a           	txa
    11b2: d0 03        	bne	$11b7 <f256main+0x8a3>
    11b4: 4c e7 1d     	jmp	$1de7 <f256main+0x14d3>
    11b7: a0 01        	ldy	#$1
    11b9: 4c e9 1d     	jmp	$1de9 <f256main+0x14d5>
    11bc: 8a           	txa
    11bd: 38           	sec
    11be: e9 5d        	sbc	#$5d
    11c0: 50 02        	bvc	$11c4 <f256main+0x8b0>
    11c2: 49 80        	eor	#$80
    11c4: c9 00        	cmp	#$0
    11c6: 30 03        	bmi	$11cb <f256main+0x8b7>
    11c8: 4c 19 15     	jmp	$1519 <f256main+0xc05>
    11cb: 8a           	txa
    11cc: 38           	sec
    11cd: e9 20        	sbc	#$20
    11cf: 50 02        	bvc	$11d3 <f256main+0x8bf>
    11d1: 49 80        	eor	#$80
    11d3: c9 00        	cmp	#$0
    11d5: 30 03        	bmi	$11da <f256main+0x8c6>
    11d7: 4c 2c 16     	jmp	$162c <f256main+0xd18>
    11da: 84 25        	sty	$25                     ; 0x2025 <f256main+0x1711>
    11dc: e0 01        	cpx	#$1
    11de: d0 03        	bne	$11e3 <f256main+0x8cf>
    11e0: 4c a5 19     	jmp	$19a5 <f256main+0x1091>
    11e3: 86 14        	stx	$14                     ; 0x2014 <f256main+0x1700>
    11e5: e0 05        	cpx	#$5
    11e7: f0 03        	beq	$11ec <f256main+0x8d8>
    11e9: 4c 9f 18     	jmp	$189f <f256main+0xf8b>
    11ec: a2 01        	ldx	#$1
    11ee: 86 39        	stx	$39                     ; 0x2039 <f256main+0x1725>
    11f0: 4c e4 0e     	jmp	$ee4 <f256main+0x5d0>
    11f3: a2 80        	ldx	#$80
    11f5: 86 f3        	stx	$f3                     ; 0x20f3 <f256main+0x17df>
    11f7: 18           	clc
    11f8: a5 10        	lda	$10                     ; 0x2010 <f256main+0x16fc>
    11fa: 69 1c        	adc	#$1c
    11fc: 85 12        	sta	$12                     ; 0x2012 <f256main+0x16fe>
    11fe: a5 11        	lda	$11                     ; 0x2011 <f256main+0x16fd>
    1200: 69 00        	adc	#$0
    1202: 85 13        	sta	$13                     ; 0x2013 <f256main+0x16ff>
    1204: 20 f0 ff     	jsr	$fff0 <__heap_start+0x7334>
    1207: 92 12        	sta	($12)                   ; 0x2012 <f256main+0x16fe>
    1209: a9 00        	lda	#$0
    120b: 6a           	ror
    120c: 85 28        	sta	$28                     ; 0x2028 <f256main+0x1714>
    120e: 18           	clc
    120f: a9 09        	lda	#$9
    1211: 72 12        	adc	($12)                   ; 0x2012 <f256main+0x16fe>
    1213: 85 4f        	sta	$4f                     ; 0x204f <f256main+0x173b>
    1215: 64 f3        	stz	$f3                     ; 0x20f3 <f256main+0x17df>
    1217: a6 4f        	ldx	$4f                     ; 0x204f <f256main+0x173b>
    1219: 86 f4        	stx	$f4                     ; 0x20f4 <f256main+0x17e0>
    121b: 64 f5        	stz	$f5                     ; 0x20f5 <f256main+0x17e1>
    121d: 18           	clc
    121e: a5 10        	lda	$10                     ; 0x2010 <f256main+0x16fc>
    1220: 69 1d        	adc	#$1d
    1222: 85 12        	sta	$12                     ; 0x2012 <f256main+0x16fe>
    1224: a5 11        	lda	$11                     ; 0x2011 <f256main+0x16fd>
    1226: 69 00        	adc	#$0
    1228: 85 13        	sta	$13                     ; 0x2013 <f256main+0x16ff>
    122a: 20 f0 ff     	jsr	$fff0 <__heap_start+0x7334>
    122d: 92 12        	sta	($12)                   ; 0x2012 <f256main+0x16fe>
    122f: a9 00        	lda	#$0
    1231: 6a           	ror
    1232: 85 28        	sta	$28                     ; 0x2028 <f256main+0x1714>
    1234: a6 37        	ldx	$37                     ; 0x2037 <f256main+0x1723>
    1236: f0 03        	beq	$123b <f256main+0x927>
    1238: 4c e4 0e     	jmp	$ee4 <f256main+0x5d0>
    123b: a2 45        	ldx	#$45
    123d: 86 33        	stx	$33                     ; 0x2033 <f256main+0x171f>
    123f: 8e 14 d0     	stx	$d014                   ; 0xd014 <__heap_start+0x4358>
    1242: 9c 15 d0     	stz	$d015                   ; 0xd015 <__heap_start+0x4359>
    1245: a2 03        	ldx	#$3
    1247: 86 34        	stx	$34                     ; 0x2034 <f256main+0x1720>
    1249: 8e 16 d0     	stx	$d016                   ; 0xd016 <__heap_start+0x435a>
    124c: 9c 17 d0     	stz	$d017                   ; 0xd017 <__heap_start+0x435b>
    124f: a6 52        	ldx	$52                     ; 0x2052 <f256main+0x173e>
    1251: d0 03        	bne	$1256 <f256main+0x942>
    1253: 4c bd 18     	jmp	$18bd <f256main+0xfa9>
    1256: a0 90        	ldy	#$90
    1258: 4c bf 18     	jmp	$18bf <f256main+0xfab>
    125b: c9 00        	cmp	#$0
    125d: 90 03        	bcc	$1262 <f256main+0x94e>
    125f: 4c e4 0e     	jmp	$ee4 <f256main+0x5d0>
    1262: a4 4d        	ldy	$4d                     ; 0x204d <f256main+0x1739>
    1264: a6 4e        	ldx	$4e                     ; 0x204e <f256main+0x173a>
    1266: 84 12        	sty	$12                     ; 0x2012 <f256main+0x16fe>
    1268: 84 1b        	sty	$1b                     ; 0x201b <f256main+0x1707>
    126a: 86 13        	stx	$13                     ; 0x2013 <f256main+0x16ff>
    126c: 86 19        	stx	$19                     ; 0x2019 <f256main+0x1705>
    126e: a6 81        	ldx	$81                     ; 0x2081 <f256main+0x176d>
    1270: a4 82        	ldy	$82                     ; 0x2082 <f256main+0x176e>
    1272: 86 16        	stx	$16                     ; 0x2016 <f256main+0x1702>
    1274: 84 17        	sty	$17                     ; 0x2017 <f256main+0x1703>
    1276: a0 08        	ldy	#$8
    1278: b1 16        	lda	($16),y                 ; 0x2016 <f256main+0x1702>
    127a: 85 1a        	sta	$1a                     ; 0x201a <f256main+0x1706>
    127c: 64 14        	stz	$14                     ; 0x2014 <f256main+0x1700>
    127e: 0a           	asl
    127f: 64 18        	stz	$18                     ; 0x2018 <f256main+0x1704>
    1281: 26 18        	rol	$18                     ; 0x2018 <f256main+0x1704>
    1283: 0a           	asl
    1284: 26 18        	rol	$18                     ; 0x2018 <f256main+0x1704>
    1286: 0a           	asl
    1287: 26 18        	rol	$18                     ; 0x2018 <f256main+0x1704>
    1289: 0a           	asl
    128a: 26 18        	rol	$18                     ; 0x2018 <f256main+0x1704>
    128c: 38           	sec
    128d: e5 1a        	sbc	$1a                     ; 0x201a <f256main+0x1706>
    128f: 85 15        	sta	$15                     ; 0x2015 <f256main+0x1701>
    1291: a5 18        	lda	$18                     ; 0x2018 <f256main+0x1704>
    1293: e9 00        	sbc	#$0
    1295: 85 18        	sta	$18                     ; 0x2018 <f256main+0x1704>
    1297: a5 1b        	lda	$1b                     ; 0x201b <f256main+0x1707>
    1299: 18           	clc
    129a: 65 15        	adc	$15                     ; 0x2015 <f256main+0x1701>
    129c: a8           	tay
    129d: a5 19        	lda	$19                     ; 0x2019 <f256main+0x1705>
    129f: 85 1e        	sta	$1e                     ; 0x201e <f256main+0x170a>
    12a1: 65 18        	adc	$18                     ; 0x2018 <f256main+0x1704>
    12a3: 5a           	phy
    12a4: fa           	plx
    12a5: 84 18        	sty	$18                     ; 0x2018 <f256main+0x1704>
    12a7: a8           	tay
    12a8: 85 19        	sta	$19                     ; 0x2019 <f256main+0x1705>
    12aa: b2 18        	lda	($18)                   ; 0x2018 <f256main+0x1704>
    12ac: d0 03        	bne	$12b1 <f256main+0x99d>
    12ae: 4c e4 0e     	jmp	$ee4 <f256main+0x5d0>
    12b1: 18           	clc
    12b2: 8a           	txa
    12b3: 69 0b        	adc	#$b
    12b5: 85 1c        	sta	$1c                     ; 0x201c <f256main+0x1708>
    12b7: 98           	tya
    12b8: 69 00        	adc	#$0
    12ba: 85 1d        	sta	$1d                     ; 0x201d <f256main+0x1709>
    12bc: a0 01        	ldy	#$1
    12be: b1 1c        	lda	($1c),y                 ; 0x201c <f256main+0x1708>
    12c0: 85 15        	sta	$15                     ; 0x2015 <f256main+0x1701>
    12c2: a5 2d        	lda	$2d                     ; 0x202d <f256main+0x1719>
    12c4: 18           	clc
    12c5: a0 0b        	ldy	#$b
    12c7: 71 18        	adc	($18),y                 ; 0x2018 <f256main+0x1704>
    12c9: aa           	tax
    12ca: a5 15        	lda	$15                     ; 0x2015 <f256main+0x1701>
    12cc: 69 00        	adc	#$0
    12ce: 85 15        	sta	$15                     ; 0x2015 <f256main+0x1701>
    12d0: 18           	clc
    12d1: 8a           	txa
    12d2: 69 fa        	adc	#$fa
    12d4: 85 18        	sta	$18                     ; 0x2018 <f256main+0x1704>
    12d6: a5 15        	lda	$15                     ; 0x2015 <f256main+0x1701>
    12d8: 69 ff        	adc	#$ff
    12da: 85 19        	sta	$19                     ; 0x2019 <f256main+0x1705>
    12dc: b2 18        	lda	($18)                   ; 0x2018 <f256main+0x1704>
    12de: c9 02        	cmp	#$2
    12e0: d0 0a        	bne	$12ec <f256main+0x9d8>
    12e2: a9 00        	lda	#$0
    12e4: 92 18        	sta	($18)                   ; 0x2018 <f256main+0x1704>
    12e6: a0 08        	ldy	#$8
    12e8: b1 16        	lda	($16),y                 ; 0x2016 <f256main+0x1702>
    12ea: 85 1a        	sta	$1a                     ; 0x201a <f256main+0x1706>
    12ec: a5 1a        	lda	$1a                     ; 0x201a <f256main+0x1706>
    12ee: 0a           	asl
    12ef: 64 16        	stz	$16                     ; 0x2016 <f256main+0x1702>
    12f1: 26 16        	rol	$16                     ; 0x2016 <f256main+0x1702>
    12f3: 0a           	asl
    12f4: 26 16        	rol	$16                     ; 0x2016 <f256main+0x1702>
    12f6: 0a           	asl
    12f7: 26 16        	rol	$16                     ; 0x2016 <f256main+0x1702>
    12f9: 0a           	asl
    12fa: 26 16        	rol	$16                     ; 0x2016 <f256main+0x1702>
    12fc: 38           	sec
    12fd: e5 1a        	sbc	$1a                     ; 0x201a <f256main+0x1706>
    12ff: 85 15        	sta	$15                     ; 0x2015 <f256main+0x1701>
    1301: a5 16        	lda	$16                     ; 0x2016 <f256main+0x1702>
    1303: e5 14        	sbc	$14                     ; 0x2014 <f256main+0x1700>
    1305: 85 14        	sta	$14                     ; 0x2014 <f256main+0x1700>
    1307: 18           	clc
    1308: a5 1b        	lda	$1b                     ; 0x201b <f256main+0x1707>
    130a: 65 15        	adc	$15                     ; 0x2015 <f256main+0x1701>
    130c: a8           	tay
    130d: a5 1e        	lda	$1e                     ; 0x201e <f256main+0x170a>
    130f: 65 14        	adc	$14                     ; 0x2014 <f256main+0x1700>
    1311: aa           	tax
    1312: 98           	tya
    1313: 84 14        	sty	$14                     ; 0x2014 <f256main+0x1700>
    1315: 86 15        	stx	$15                     ; 0x2015 <f256main+0x1701>
    1317: 18           	clc
    1318: 69 0b        	adc	#$b
    131a: 85 16        	sta	$16                     ; 0x2016 <f256main+0x1702>
    131c: 8a           	txa
    131d: 69 00        	adc	#$0
    131f: 85 17        	sta	$17                     ; 0x2017 <f256main+0x1703>
    1321: a0 01        	ldy	#$1
    1323: b1 16        	lda	($16),y                 ; 0x2016 <f256main+0x1702>
    1325: 85 17        	sta	$17                     ; 0x2017 <f256main+0x1703>
    1327: a5 2d        	lda	$2d                     ; 0x202d <f256main+0x1719>
    1329: 85 16        	sta	$16                     ; 0x2016 <f256main+0x1702>
    132b: 18           	clc
    132c: a0 0b        	ldy	#$b
    132e: 71 14        	adc	($14),y                 ; 0x2014 <f256main+0x1700>
    1330: aa           	tax
    1331: a5 17        	lda	$17                     ; 0x2017 <f256main+0x1703>
    1333: 69 00        	adc	#$0
    1335: 85 14        	sta	$14                     ; 0x2014 <f256main+0x1700>
    1337: 18           	clc
    1338: 8a           	txa
    1339: 69 fa        	adc	#$fa
    133b: aa           	tax
    133c: a5 14        	lda	$14                     ; 0x2014 <f256main+0x1700>
    133e: 69 ff        	adc	#$ff
    1340: 85 15        	sta	$15                     ; 0x2015 <f256main+0x1701>
    1342: 86 14        	stx	$14                     ; 0x2014 <f256main+0x1700>
    1344: a5 2b        	lda	$2b                     ; 0x202b <f256main+0x1717>
    1346: 0a           	asl
    1347: 85 17        	sta	$17                     ; 0x2017 <f256main+0x1703>
    1349: a5 2c        	lda	$2c                     ; 0x202c <f256main+0x1718>
    134b: 2a           	rol
    134c: 85 18        	sta	$18                     ; 0x2018 <f256main+0x1704>
    134e: b2 14        	lda	($14)                   ; 0x2014 <f256main+0x1700>
    1350: c9 01        	cmp	#$1
    1352: f0 03        	beq	$1357 <f256main+0xa43>
    1354: 4c d5 16     	jmp	$16d5 <f256main+0xdc1>
    1357: a2 80        	ldx	#$80
    1359: 86 f3        	stx	$f3                     ; 0x20f3 <f256main+0x17df>
    135b: 18           	clc
    135c: a5 10        	lda	$10                     ; 0x2010 <f256main+0x16fc>
    135e: 69 1e        	adc	#$1e
    1360: 85 12        	sta	$12                     ; 0x2012 <f256main+0x16fe>
    1362: a5 11        	lda	$11                     ; 0x2011 <f256main+0x16fd>
    1364: 69 00        	adc	#$0
    1366: 85 13        	sta	$13                     ; 0x2013 <f256main+0x16ff>
    1368: 20 f0 ff     	jsr	$fff0 <__heap_start+0x7334>
    136b: 92 12        	sta	($12)                   ; 0x2012 <f256main+0x16fe>
    136d: a9 00        	lda	#$0
    136f: 6a           	ror
    1370: 85 28        	sta	$28                     ; 0x2028 <f256main+0x1714>
    1372: b2 12        	lda	($12)                   ; 0x2012 <f256main+0x16fe>
    1374: 85 12        	sta	$12                     ; 0x2012 <f256main+0x16fe>
    1376: a0 0a        	ldy	#$a
    1378: b1 10        	lda	($10),y                 ; 0x2010 <f256main+0x16fc>
    137a: 85 14        	sta	$14                     ; 0x2014 <f256main+0x1700>
    137c: c8           	iny
    137d: b1 10        	lda	($10),y                 ; 0x2010 <f256main+0x16fc>
    137f: 85 15        	sta	$15                     ; 0x2015 <f256main+0x1701>
    1381: b2 14        	lda	($14)                   ; 0x2014 <f256main+0x1700>
    1383: aa           	tax
    1384: 18           	clc
    1385: a5 12        	lda	$12                     ; 0x2012 <f256main+0x16fe>
    1387: 75 3b        	adc	$3b,x                   ; 0x203b <f256main+0x1727>
    1389: 85 19        	sta	$19                     ; 0x2019 <f256main+0x1705>
    138b: a6 81        	ldx	$81                     ; 0x2081 <f256main+0x176d>
    138d: a4 82        	ldy	$82                     ; 0x2082 <f256main+0x176e>
    138f: 86 12        	stx	$12                     ; 0x2012 <f256main+0x16fe>
    1391: 84 13        	sty	$13                     ; 0x2013 <f256main+0x16ff>
    1393: a0 08        	ldy	#$8
    1395: b1 12        	lda	($12),y                 ; 0x2012 <f256main+0x16fe>
    1397: 85 12        	sta	$12                     ; 0x2012 <f256main+0x16fe>
    1399: 0a           	asl
    139a: aa           	tax
    139b: a9 00        	lda	#$0
    139d: 2a           	rol
    139e: 86 13        	stx	$13                     ; 0x2013 <f256main+0x16ff>
    13a0: 06 13        	asl	$13                     ; 0x2013 <f256main+0x16ff>
    13a2: 2a           	rol
    13a3: 06 13        	asl	$13                     ; 0x2013 <f256main+0x16ff>
    13a5: 2a           	rol
    13a6: 06 13        	asl	$13                     ; 0x2013 <f256main+0x16ff>
    13a8: 2a           	rol
    13a9: aa           	tax
    13aa: 38           	sec
    13ab: a5 13        	lda	$13                     ; 0x2013 <f256main+0x16ff>
    13ad: e5 12        	sbc	$12                     ; 0x2012 <f256main+0x16fe>
    13af: 85 12        	sta	$12                     ; 0x2012 <f256main+0x16fe>
    13b1: 8a           	txa
    13b2: e9 00        	sbc	#$0
    13b4: a8           	tay
    13b5: 18           	clc
    13b6: a5 12        	lda	$12                     ; 0x2012 <f256main+0x16fe>
    13b8: 65 4d        	adc	$4d                     ; 0x204d <f256main+0x1739>
    13ba: aa           	tax
    13bb: 98           	tya
    13bc: 65 4e        	adc	$4e                     ; 0x204e <f256main+0x173a>
    13be: 86 12        	stx	$12                     ; 0x2012 <f256main+0x16fe>
    13c0: 85 13        	sta	$13                     ; 0x2013 <f256main+0x16ff>
    13c2: a8           	tay
    13c3: 18           	clc
    13c4: 8a           	txa
    13c5: 69 0d        	adc	#$d
    13c7: 85 14        	sta	$14                     ; 0x2014 <f256main+0x1700>
    13c9: 98           	tya
    13ca: 69 00        	adc	#$0
    13cc: 85 15        	sta	$15                     ; 0x2015 <f256main+0x1701>
    13ce: 18           	clc
    13cf: a5 17        	lda	$17                     ; 0x2017 <f256main+0x1703>
    13d1: 65 2b        	adc	$2b                     ; 0x202b <f256main+0x1717>
    13d3: aa           	tax
    13d4: a5 18        	lda	$18                     ; 0x2018 <f256main+0x1704>
    13d6: 65 2c        	adc	$2c                     ; 0x202c <f256main+0x1718>
    13d8: 85 17        	sta	$17                     ; 0x2017 <f256main+0x1703>
    13da: 18           	clc
    13db: a0 0d        	ldy	#$d
    13dd: 8a           	txa
    13de: 71 12        	adc	($12),y                 ; 0x2012 <f256main+0x16fe>
    13e0: 85 12        	sta	$12                     ; 0x2012 <f256main+0x16fe>
    13e2: a0 01        	ldy	#$1
    13e4: a5 17        	lda	$17                     ; 0x2017 <f256main+0x1703>
    13e6: 71 14        	adc	($14),y                 ; 0x2014 <f256main+0x1700>
    13e8: 85 13        	sta	$13                     ; 0x2013 <f256main+0x16ff>
    13ea: a5 19        	lda	$19                     ; 0x2019 <f256main+0x1705>
    13ec: 91 12        	sta	($12),y                 ; 0x2012 <f256main+0x16fe>
    13ee: b2 12        	lda	($12)                   ; 0x2012 <f256main+0x16fe>
    13f0: 85 f3        	sta	$f3                     ; 0x20f3 <f256main+0x17df>
    13f2: b1 12        	lda	($12),y                 ; 0x2012 <f256main+0x16fe>
    13f4: 85 f4        	sta	$f4                     ; 0x20f4 <f256main+0x17e0>
    13f6: c8           	iny
    13f7: b1 12        	lda	($12),y                 ; 0x2012 <f256main+0x16fe>
    13f9: 85 f5        	sta	$f5                     ; 0x20f5 <f256main+0x17e1>
    13fb: 18           	clc
    13fc: a5 10        	lda	$10                     ; 0x2010 <f256main+0x16fc>
    13fe: 69 1f        	adc	#$1f
    1400: 85 12        	sta	$12                     ; 0x2012 <f256main+0x16fe>
    1402: a5 11        	lda	$11                     ; 0x2011 <f256main+0x16fd>
    1404: 69 00        	adc	#$0
    1406: 85 13        	sta	$13                     ; 0x2013 <f256main+0x16ff>
    1408: 20 f0 ff     	jsr	$fff0 <__heap_start+0x7334>
    140b: 92 12        	sta	($12)                   ; 0x2012 <f256main+0x16fe>
    140d: a9 00        	lda	#$0
    140f: 6a           	ror
    1410: 85 28        	sta	$28                     ; 0x2028 <f256main+0x1714>
    1412: a6 81        	ldx	$81                     ; 0x2081 <f256main+0x176d>
    1414: a4 82        	ldy	$82                     ; 0x2082 <f256main+0x176e>
    1416: 86 12        	stx	$12                     ; 0x2012 <f256main+0x16fe>
    1418: 84 13        	sty	$13                     ; 0x2013 <f256main+0x16ff>
    141a: a0 08        	ldy	#$8
    141c: b1 12        	lda	($12),y                 ; 0x2012 <f256main+0x16fe>
    141e: 85 12        	sta	$12                     ; 0x2012 <f256main+0x16fe>
    1420: 0a           	asl
    1421: aa           	tax
    1422: a9 00        	lda	#$0
    1424: 2a           	rol
    1425: 86 13        	stx	$13                     ; 0x2013 <f256main+0x16ff>
    1427: 06 13        	asl	$13                     ; 0x2013 <f256main+0x16ff>
    1429: 2a           	rol
    142a: 06 13        	asl	$13                     ; 0x2013 <f256main+0x16ff>
    142c: 2a           	rol
    142d: 06 13        	asl	$13                     ; 0x2013 <f256main+0x16ff>
    142f: 2a           	rol
    1430: aa           	tax
    1431: 38           	sec
    1432: a5 13        	lda	$13                     ; 0x2013 <f256main+0x16ff>
    1434: e5 12        	sbc	$12                     ; 0x2012 <f256main+0x16fe>
    1436: 85 12        	sta	$12                     ; 0x2012 <f256main+0x16fe>
    1438: 8a           	txa
    1439: e9 00        	sbc	#$0
    143b: a8           	tay
    143c: 18           	clc
    143d: a5 12        	lda	$12                     ; 0x2012 <f256main+0x16fe>
    143f: 65 4d        	adc	$4d                     ; 0x204d <f256main+0x1739>
    1441: aa           	tax
    1442: 98           	tya
    1443: 65 4e        	adc	$4e                     ; 0x204e <f256main+0x173a>
    1445: 86 12        	stx	$12                     ; 0x2012 <f256main+0x16fe>
    1447: 85 13        	sta	$13                     ; 0x2013 <f256main+0x16ff>
    1449: a8           	tay
    144a: 18           	clc
    144b: 8a           	txa
    144c: 69 0b        	adc	#$b
    144e: 85 14        	sta	$14                     ; 0x2014 <f256main+0x1700>
    1450: 98           	tya
    1451: 69 00        	adc	#$0
    1453: 85 15        	sta	$15                     ; 0x2015 <f256main+0x1701>
    1455: a0 01        	ldy	#$1
    1457: b1 14        	lda	($14),y                 ; 0x2014 <f256main+0x1700>
    1459: 85 14        	sta	$14                     ; 0x2014 <f256main+0x1700>
    145b: 18           	clc
    145c: a5 16        	lda	$16                     ; 0x2016 <f256main+0x1702>
    145e: a0 0b        	ldy	#$b
    1460: 71 12        	adc	($12),y                 ; 0x2012 <f256main+0x16fe>
    1462: aa           	tax
    1463: a5 14        	lda	$14                     ; 0x2014 <f256main+0x1700>
    1465: 69 00        	adc	#$0
    1467: 85 12        	sta	$12                     ; 0x2012 <f256main+0x16fe>
    1469: 18           	clc
    146a: 8a           	txa
    146b: 69 fa        	adc	#$fa
    146d: aa           	tax
    146e: a5 12        	lda	$12                     ; 0x2012 <f256main+0x16fe>
    1470: 69 ff        	adc	#$ff
    1472: 85 13        	sta	$13                     ; 0x2013 <f256main+0x16ff>
    1474: 86 12        	stx	$12                     ; 0x2012 <f256main+0x16fe>
    1476: a9 02        	lda	#$2
    1478: 92 12        	sta	($12)                   ; 0x2012 <f256main+0x16fe>
    147a: 4c e4 0e     	jmp	$ee4 <f256main+0x5d0>
    147d: 8a           	txa
    147e: 18           	clc
    147f: 69 4a        	adc	#$4a
    1481: c9 04        	cmp	#$4
    1483: 90 03        	bcc	$1488 <f256main+0xb74>
    1485: 4c ca 17     	jmp	$17ca <f256main+0xeb6>
    1488: 0a           	asl
    1489: aa           	tax
    148a: 7c 71 79     	jmp	($7971,x)               ; 0x7971 <__set_v+0xf>
    148d: 84 25        	sty	$25                     ; 0x2025 <f256main+0x1711>
    148f: a6 37        	ldx	$37                     ; 0x2037 <f256main+0x1723>
    1491: a4 81        	ldy	$81                     ; 0x2081 <f256main+0x176d>
    1493: a5 82        	lda	$82                     ; 0x2082 <f256main+0x176e>
    1495: 84 12        	sty	$12                     ; 0x2012 <f256main+0x16fe>
    1497: 85 13        	sta	$13                     ; 0x2013 <f256main+0x16ff>
    1499: a0 06        	ldy	#$6
    149b: b1 12        	lda	($12),y                 ; 0x2012 <f256main+0x16fe>
    149d: e0 00        	cpx	#$0
    149f: d0 03        	bne	$14a4 <f256main+0xb90>
    14a1: 4c 26 25     	jmp	$2526 <f256main+0x1c12>
    14a4: aa           	tax
    14a5: f0 03        	beq	$14aa <f256main+0xb96>
    14a7: 4c af 27     	jmp	$27af <f256main+0x1e9b>
    14aa: a5 3a        	lda	$3a                     ; 0x203a <f256main+0x1726>
    14ac: 29 01        	and	#$1
    14ae: a2 1d        	ldx	#$1d
    14b0: a0 00        	ldy	#$0
    14b2: c9 00        	cmp	#$0
    14b4: d0 02        	bne	$14b8 <f256main+0xba4>
    14b6: a2 02        	ldx	#$2
    14b8: a9 01        	lda	#$1
    14ba: 25 3a        	and	$3a                     ; 0x203a <f256main+0x1726>
    14bc: 85 16        	sta	$16                     ; 0x2016 <f256main+0x1702>
    14be: 98           	tya
    14bf: f0 03        	beq	$14c4 <f256main+0xbb0>
    14c1: 4c fd 26     	jmp	$26fd <f256main+0x1de9>
    14c4: b2 12        	lda	($12)                   ; 0x2012 <f256main+0x16fe>
    14c6: 85 14        	sta	$14                     ; 0x2014 <f256main+0x1700>
    14c8: a0 01        	ldy	#$1
    14ca: b1 12        	lda	($12),y                 ; 0x2012 <f256main+0x16fe>
    14cc: 85 15        	sta	$15                     ; 0x2015 <f256main+0x1701>
    14ce: a0 03        	ldy	#$3
    14d0: b1 12        	lda	($12),y                 ; 0x2012 <f256main+0x16fe>
    14d2: a8           	tay
    14d3: b1 14        	lda	($14),y                 ; 0x2014 <f256main+0x1700>
    14d5: 85 14        	sta	$14                     ; 0x2014 <f256main+0x1700>
    14d7: e4 14        	cpx	$14                     ; 0x2014 <f256main+0x1700>
    14d9: 90 03        	bcc	$14de <f256main+0xbca>
    14db: 4c e4 0e     	jmp	$ee4 <f256main+0x5d0>
    14de: 4c 04 27     	jmp	$2704 <f256main+0x1df0>
    14e1: a6 81        	ldx	$81                     ; 0x2081 <f256main+0x176d>
    14e3: a4 82        	ldy	$82                     ; 0x2082 <f256main+0x176e>
    14e5: 86 12        	stx	$12                     ; 0x2012 <f256main+0x16fe>
    14e7: 84 13        	sty	$13                     ; 0x2013 <f256main+0x16ff>
    14e9: a0 03        	ldy	#$3
    14eb: b1 12        	lda	($12),y                 ; 0x2012 <f256main+0x16fe>
    14ed: 85 18        	sta	$18                     ; 0x2018 <f256main+0x1704>
    14ef: 18           	clc
    14f0: a9 15        	lda	#$15
    14f2: 65 31        	adc	$31                     ; 0x2031 <f256main+0x171d>
    14f4: aa           	tax
    14f5: 88           	dey
    14f6: b1 12        	lda	($12),y                 ; 0x2012 <f256main+0x16fe>
    14f8: 85 14        	sta	$14                     ; 0x2014 <f256main+0x1700>
    14fa: a0 06        	ldy	#$6
    14fc: b1 12        	lda	($12),y                 ; 0x2012 <f256main+0x16fe>
    14fe: 86 12        	stx	$12                     ; 0x2012 <f256main+0x16fe>
    1500: a2 3f        	ldx	#$3f
    1502: 86 13        	stx	$13                     ; 0x2013 <f256main+0x16ff>
    1504: 85 15        	sta	$15                     ; 0x2015 <f256main+0x1701>
    1506: 64 16        	stz	$16                     ; 0x2016 <f256main+0x1702>
    1508: 64 17        	stz	$17                     ; 0x2017 <f256main+0x1703>
    150a: a6 18        	ldx	$18                     ; 0x2018 <f256main+0x1704>
    150c: a9 00        	lda	#$0
    150e: 20 67 3a     	jsr	$3a67 <dispatchNote>
    1511: 4c e4 0e     	jmp	$ee4 <f256main+0x5d0>
    1514: 64 3a        	stz	$3a                     ; 0x203a <f256main+0x1726>
    1516: 4c e4 0e     	jmp	$ee4 <f256main+0x5d0>
    1519: 8a           	txa
    151a: 38           	sec
    151b: e9 6d        	sbc	#$6d
    151d: 50 02        	bvc	$1521 <f256main+0xc0d>
    151f: 49 80        	eor	#$80
    1521: c9 00        	cmp	#$0
    1523: 30 03        	bmi	$1528 <f256main+0xc14>
    1525: 4c 9b 16     	jmp	$169b <f256main+0xd87>
    1528: 84 25        	sty	$25                     ; 0x2025 <f256main+0x1711>
    152a: e0 5d        	cpx	#$5d
    152c: d0 03        	bne	$1531 <f256main+0xc1d>
    152e: 4c ac 19     	jmp	$19ac <f256main+0x1098>
    1531: 86 14        	stx	$14                     ; 0x2014 <f256main+0x1700>
    1533: e0 63        	cpx	#$63
    1535: f0 03        	beq	$153a <f256main+0xc26>
    1537: 4c 9f 18     	jmp	$189f <f256main+0xf8b>
    153a: a6 37        	ldx	$37                     ; 0x2037 <f256main+0x1723>
    153c: f0 03        	beq	$1541 <f256main+0xc2d>
    153e: 4c e4 0e     	jmp	$ee4 <f256main+0x5d0>
    1541: a6 81        	ldx	$81                     ; 0x2081 <f256main+0x176d>
    1543: a4 82        	ldy	$82                     ; 0x2082 <f256main+0x176e>
    1545: 86 12        	stx	$12                     ; 0x2012 <f256main+0x16fe>
    1547: 84 13        	sty	$13                     ; 0x2013 <f256main+0x16ff>
    1549: a0 06        	ldy	#$6
    154b: b1 12        	lda	($12),y                 ; 0x2012 <f256main+0x16fe>
    154d: aa           	tax
    154e: 1a           	inc
    154f: 91 12        	sta	($12),y                 ; 0x2012 <f256main+0x16fe>
    1551: e0 00        	cpx	#$0
    1553: d0 15        	bne	$156a <f256main+0xc56>
    1555: a9 00        	lda	#$0
    1557: 20 b4 41     	jsr	$41b4 <sid_setInstrumentAllChannels>
    155a: 64 52        	stz	$52                     ; 0x2052 <f256main+0x173e>
    155c: 64 53        	stz	$53                     ; 0x2053 <f256main+0x173f>
    155e: a6 81        	ldx	$81                     ; 0x2081 <f256main+0x176d>
    1560: a4 82        	ldy	$82                     ; 0x2082 <f256main+0x176e>
    1562: 86 12        	stx	$12                     ; 0x2012 <f256main+0x16fe>
    1564: 84 13        	sty	$13                     ; 0x2013 <f256main+0x16ff>
    1566: a0 06        	ldy	#$6
    1568: b1 12        	lda	($12),y                 ; 0x2012 <f256main+0x16fe>
    156a: c9 02        	cmp	#$2
    156c: d0 48        	bne	$15b6 <f256main+0xca2>
    156e: a2 d4        	ldx	#$d4
    1570: a0 00        	ldy	#$0
    1572: 98           	tya
    1573: 18           	clc
    1574: 69 00        	adc	#$0
    1576: 85 14        	sta	$14                     ; 0x2014 <f256main+0x1700>
    1578: 8a           	txa
    1579: 69 01        	adc	#$1
    157b: 85 15        	sta	$15                     ; 0x2015 <f256main+0x1701>
    157d: 84 12        	sty	$12                     ; 0x2012 <f256main+0x16fe>
    157f: 86 13        	stx	$13                     ; 0x2013 <f256main+0x16ff>
    1581: a9 00        	lda	#$0
    1583: 92 12        	sta	($12)                   ; 0x2012 <f256main+0x16fe>
    1585: 5a           	phy
    1586: a4 14        	ldy	$14                     ; 0x2014 <f256main+0x1700>
    1588: 84 12        	sty	$12                     ; 0x2012 <f256main+0x16fe>
    158a: a4 15        	ldy	$15                     ; 0x2015 <f256main+0x1701>
    158c: 84 13        	sty	$13                     ; 0x2013 <f256main+0x16ff>
    158e: 7a           	ply
    158f: 92 12        	sta	($12)                   ; 0x2012 <f256main+0x16fe>
    1591: c8           	iny
    1592: d0 01        	bne	$1595 <f256main+0xc81>
    1594: e8           	inx
    1595: c0 19        	cpy	#$19
    1597: d0 d9        	bne	$1572 <f256main+0xc5e>
    1599: a2 57        	ldx	#$57
    159b: 86 12        	stx	$12                     ; 0x2012 <f256main+0x16fe>
    159d: a2 00        	ldx	#$0
    159f: 86 13        	stx	$13                     ; 0x2013 <f256main+0x16ff>
    15a1: 64 14        	stz	$14                     ; 0x2014 <f256main+0x1700>
    15a3: a2 06        	ldx	#$6
    15a5: 20 52 64     	jsr	$6452 <__memset>
    15a8: 64 54        	stz	$54                     ; 0x2054 <f256main+0x1740>
    15aa: a6 81        	ldx	$81                     ; 0x2081 <f256main+0x176d>
    15ac: a4 82        	ldy	$82                     ; 0x2082 <f256main+0x176e>
    15ae: 86 12        	stx	$12                     ; 0x2012 <f256main+0x16fe>
    15b0: 84 13        	sty	$13                     ; 0x2013 <f256main+0x16ff>
    15b2: a0 06        	ldy	#$6
    15b4: b1 12        	lda	($12),y                 ; 0x2012 <f256main+0x16fe>
    15b6: c9 03        	cmp	#$3
    15b8: d0 3a        	bne	$15f4 <f256main+0xce0>
    15ba: a2 63        	ldx	#$63
    15bc: 86 12        	stx	$12                     ; 0x2012 <f256main+0x16fe>
    15be: a2 00        	ldx	#$0
    15c0: 86 13        	stx	$13                     ; 0x2013 <f256main+0x16ff>
    15c2: 64 14        	stz	$14                     ; 0x2014 <f256main+0x1700>
    15c4: a2 06        	ldx	#$6
    15c6: a9 00        	lda	#$0
    15c8: 20 52 64     	jsr	$6452 <__memset>
    15cb: a2 ff        	ldx	#$ff
    15cd: a0 10        	ldy	#$10
    15cf: 98           	tya
    15d0: 09 9f        	ora	#$9f
    15d2: 8d 00 d6     	sta	$d600                   ; 0xd600 <__heap_start+0x4944>
    15d5: 8d 10 d6     	sta	$d610                   ; 0xd610 <__heap_start+0x4954>
    15d8: 8a           	txa
    15d9: 18           	clc
    15da: 69 02        	adc	#$2
    15dc: aa           	tax
    15dd: 18           	clc
    15de: 98           	tya
    15df: 69 20        	adc	#$20
    15e1: a8           	tay
    15e2: e0 06        	cpx	#$6
    15e4: 90 e9        	bcc	$15cf <f256main+0xcbb>
    15e6: 64 55        	stz	$55                     ; 0x2055 <f256main+0x1741>
    15e8: a6 81        	ldx	$81                     ; 0x2081 <f256main+0x176d>
    15ea: a4 82        	ldy	$82                     ; 0x2082 <f256main+0x176e>
    15ec: 86 12        	stx	$12                     ; 0x2012 <f256main+0x16fe>
    15ee: 84 13        	sty	$13                     ; 0x2013 <f256main+0x16ff>
    15f0: a0 06        	ldy	#$6
    15f2: b1 12        	lda	($12),y                 ; 0x2012 <f256main+0x16fe>
    15f4: c9 04        	cmp	#$4
    15f6: 90 2e        	bcc	$1626 <f256main+0xd12>
    15f8: a2 b0        	ldx	#$b0
    15fa: 8e 80 d5     	stx	$d580                   ; 0xd580 <__heap_start+0x48c4>
    15fd: 9c 81 d5     	stz	$d581                   ; 0xd581 <__heap_start+0x48c5>
    1600: e8           	inx
    1601: e0 b9        	cpx	#$b9
    1603: d0 f5        	bne	$15fa <f256main+0xce6>
    1605: a2 6f        	ldx	#$6f
    1607: 86 12        	stx	$12                     ; 0x2012 <f256main+0x16fe>
    1609: a2 00        	ldx	#$0
    160b: 86 13        	stx	$13                     ; 0x2013 <f256main+0x16ff>
    160d: 64 14        	stz	$14                     ; 0x2014 <f256main+0x1700>
    160f: a9 00        	lda	#$0
    1611: a2 09        	ldx	#$9
    1613: 20 52 64     	jsr	$6452 <__memset>
    1616: a6 81        	ldx	$81                     ; 0x2081 <f256main+0x176d>
    1618: a4 82        	ldy	$82                     ; 0x2082 <f256main+0x176e>
    161a: 86 12        	stx	$12                     ; 0x2012 <f256main+0x16fe>
    161c: 84 13        	sty	$13                     ; 0x2013 <f256main+0x16ff>
    161e: a0 06        	ldy	#$6
    1620: a9 00        	lda	#$0
    1622: 91 12        	sta	($12),y                 ; 0x2012 <f256main+0x16fe>
    1624: 64 56        	stz	$56                     ; 0x2056 <f256main+0x1742>
    1626: 20 78 4c     	jsr	$4c78 <showChipChoiceText>
    1629: 4c e4 0e     	jmp	$ee4 <f256main+0x5d0>
    162c: 84 25        	sty	$25                     ; 0x2025 <f256main+0x1711>
    162e: e0 20        	cpx	#$20
    1630: d0 03        	bne	$1635 <f256main+0xd21>
    1632: 4c 4b 1a     	jmp	$1a4b <f256main+0x1137>
    1635: 86 14        	stx	$14                     ; 0x2014 <f256main+0x1700>
    1637: e0 5b        	cpx	#$5b
    1639: f0 03        	beq	$163e <f256main+0xd2a>
    163b: 4c 9f 18     	jmp	$189f <f256main+0xf8b>
    163e: a6 4d        	ldx	$4d                     ; 0x204d <f256main+0x1739>
    1640: 86 15        	stx	$15                     ; 0x2015 <f256main+0x1701>
    1642: a6 4e        	ldx	$4e                     ; 0x204e <f256main+0x173a>
    1644: 86 14        	stx	$14                     ; 0x2014 <f256main+0x1700>
    1646: a6 81        	ldx	$81                     ; 0x2081 <f256main+0x176d>
    1648: a4 82        	ldy	$82                     ; 0x2082 <f256main+0x176e>
    164a: 86 2c        	stx	$2c                     ; 0x202c <f256main+0x1718>
    164c: 84 2d        	sty	$2d                     ; 0x202d <f256main+0x1719>
    164e: a0 08        	ldy	#$8
    1650: b1 2c        	lda	($2c),y                 ; 0x202c <f256main+0x1718>
    1652: 85 12        	sta	$12                     ; 0x2012 <f256main+0x16fe>
    1654: 0a           	asl
    1655: 64 13        	stz	$13                     ; 0x2013 <f256main+0x16ff>
    1657: 26 13        	rol	$13                     ; 0x2013 <f256main+0x16ff>
    1659: 0a           	asl
    165a: 26 13        	rol	$13                     ; 0x2013 <f256main+0x16ff>
    165c: 0a           	asl
    165d: 26 13        	rol	$13                     ; 0x2013 <f256main+0x16ff>
    165f: 0a           	asl
    1660: 26 13        	rol	$13                     ; 0x2013 <f256main+0x16ff>
    1662: 38           	sec
    1663: e5 12        	sbc	$12                     ; 0x2012 <f256main+0x16fe>
    1665: aa           	tax
    1666: 85 12        	sta	$12                     ; 0x2012 <f256main+0x16fe>
    1668: a5 13        	lda	$13                     ; 0x2013 <f256main+0x16ff>
    166a: e9 00        	sbc	#$0
    166c: 85 16        	sta	$16                     ; 0x2016 <f256main+0x1702>
    166e: 85 13        	sta	$13                     ; 0x2013 <f256main+0x16ff>
    1670: a4 15        	ldy	$15                     ; 0x2015 <f256main+0x1701>
    1672: 84 2e        	sty	$2e                     ; 0x202e <f256main+0x171a>
    1674: a5 15        	lda	$15                     ; 0x2015 <f256main+0x1701>
    1676: 18           	clc
    1677: 65 12        	adc	$12                     ; 0x2012 <f256main+0x16fe>
    1679: 85 12        	sta	$12                     ; 0x2012 <f256main+0x16fe>
    167b: a5 14        	lda	$14                     ; 0x2014 <f256main+0x1700>
    167d: 85 2b        	sta	$2b                     ; 0x202b <f256main+0x1717>
    167f: 65 13        	adc	$13                     ; 0x2013 <f256main+0x16ff>
    1681: 85 13        	sta	$13                     ; 0x2013 <f256main+0x16ff>
    1683: b2 12        	lda	($12)                   ; 0x2012 <f256main+0x16fe>
    1685: d0 03        	bne	$168a <f256main+0xd76>
    1687: 4c b6 24     	jmp	$24b6 <f256main+0x1ba2>
    168a: a5 3a        	lda	$3a                     ; 0x203a <f256main+0x1726>
    168c: 29 01        	and	#$1
    168e: a2 f6        	ldx	#$f6
    1690: a8           	tay
    1691: f0 03        	beq	$1696 <f256main+0xd82>
    1693: 4c 03 1a     	jmp	$1a03 <f256main+0x10ef>
    1696: a2 ff        	ldx	#$ff
    1698: 4c 03 1a     	jmp	$1a03 <f256main+0x10ef>
    169b: 84 25        	sty	$25                     ; 0x2025 <f256main+0x1711>
    169d: e0 6d        	cpx	#$6d
    169f: d0 03        	bne	$16a4 <f256main+0xd90>
    16a1: 4c 76 1a     	jmp	$1a76 <f256main+0x1162>
    16a4: 86 14        	stx	$14                     ; 0x2014 <f256main+0x1700>
    16a6: e0 78        	cpx	#$78
    16a8: f0 03        	beq	$16ad <f256main+0xd99>
    16aa: 4c 9f 18     	jmp	$189f <f256main+0xf8b>
    16ad: a6 37        	ldx	$37                     ; 0x2037 <f256main+0x1723>
    16af: f0 03        	beq	$16b4 <f256main+0xda0>
    16b1: 4c e4 0e     	jmp	$ee4 <f256main+0x5d0>
    16b4: a6 81        	ldx	$81                     ; 0x2081 <f256main+0x176d>
    16b6: a4 82        	ldy	$82                     ; 0x2082 <f256main+0x176e>
    16b8: 86 12        	stx	$12                     ; 0x2012 <f256main+0x16fe>
    16ba: 84 13        	sty	$13                     ; 0x2013 <f256main+0x16ff>
    16bc: a0 07        	ldy	#$7
    16be: b1 12        	lda	($12),y                 ; 0x2012 <f256main+0x16fe>
    16c0: a2 01        	ldx	#$1
    16c2: c9 00        	cmp	#$0
    16c4: f0 02        	beq	$16c8 <f256main+0xdb4>
    16c6: a2 00        	ldx	#$0
    16c8: 8a           	txa
    16c9: d0 03        	bne	$16ce <f256main+0xdba>
    16cb: 4c 5c 25     	jmp	$255c <f256main+0x1c48>
    16ce: 86 2b        	stx	$2b                     ; 0x202b <f256main+0x1717>
    16d0: a9 01        	lda	#$1
    16d2: 4c 60 25     	jmp	$2560 <f256main+0x1c4c>
    16d5: a5 18        	lda	$18                     ; 0x2018 <f256main+0x1704>
    16d7: a0 0d        	ldy	#$d
    16d9: 91 10        	sta	($10),y                 ; 0x2010 <f256main+0x16fc>
    16db: a5 17        	lda	$17                     ; 0x2017 <f256main+0x1703>
    16dd: c8           	iny
    16de: 91 10        	sta	($10),y                 ; 0x2010 <f256main+0x16fc>
    16e0: a0 06        	ldy	#$6
    16e2: b1 10        	lda	($10),y                 ; 0x2010 <f256main+0x16fc>
    16e4: 85 28        	sta	$28                     ; 0x2028 <f256main+0x1714>
    16e6: c8           	iny
    16e7: b1 10        	lda	($10),y                 ; 0x2010 <f256main+0x16fc>
    16e9: 85 29        	sta	$29                     ; 0x2029 <f256main+0x1715>
    16eb: a6 28        	ldx	$28                     ; 0x2028 <f256main+0x1714>
    16ed: 86 14        	stx	$14                     ; 0x2014 <f256main+0x1700>
    16ef: 85 15        	sta	$15                     ; 0x2015 <f256main+0x1701>
    16f1: a0 0a        	ldy	#$a
    16f3: b1 10        	lda	($10),y                 ; 0x2010 <f256main+0x16fc>
    16f5: 85 16        	sta	$16                     ; 0x2016 <f256main+0x1702>
    16f7: c8           	iny
    16f8: b1 10        	lda	($10),y                 ; 0x2010 <f256main+0x16fc>
    16fa: 85 17        	sta	$17                     ; 0x2017 <f256main+0x1703>
    16fc: a0 08        	ldy	#$8
    16fe: b1 10        	lda	($10),y                 ; 0x2010 <f256main+0x16fc>
    1700: 85 2e        	sta	$2e                     ; 0x202e <f256main+0x171a>
    1702: c8           	iny
    1703: b1 10        	lda	($10),y                 ; 0x2010 <f256main+0x16fc>
    1705: 85 2f        	sta	$2f                     ; 0x202f <f256main+0x171b>
    1707: a6 2e        	ldx	$2e                     ; 0x202e <f256main+0x171a>
    1709: 86 18        	stx	$18                     ; 0x2018 <f256main+0x1704>
    170b: 85 19        	sta	$19                     ; 0x2019 <f256main+0x1705>
    170d: a6 2b        	ldx	$2b                     ; 0x202b <f256main+0x1717>
    170f: a5 1a        	lda	$1a                     ; 0x201a <f256main+0x1706>
    1711: 20 1b 42     	jsr	$421b <getBeatTrackNoteInfo>
    1714: a0 01        	ldy	#$1
    1716: b1 2e        	lda	($2e),y                 ; 0x202e <f256main+0x171a>
    1718: 85 18        	sta	$18                     ; 0x2018 <f256main+0x1704>
    171a: a9 7f        	lda	#$7f
    171c: 32 28        	and	($28)                   ; 0x2028 <f256main+0x1714>
    171e: 85 12        	sta	$12                     ; 0x2012 <f256main+0x16fe>
    1720: a6 81        	ldx	$81                     ; 0x2081 <f256main+0x176d>
    1722: a4 82        	ldy	$82                     ; 0x2082 <f256main+0x176e>
    1724: 86 14        	stx	$14                     ; 0x2014 <f256main+0x1700>
    1726: 84 15        	sty	$15                     ; 0x2015 <f256main+0x1701>
    1728: a0 02        	ldy	#$2
    172a: b1 14        	lda	($14),y                 ; 0x2014 <f256main+0x1700>
    172c: 85 14        	sta	$14                     ; 0x2014 <f256main+0x1700>
    172e: b2 2e        	lda	($2e)                   ; 0x202e <f256main+0x171a>
    1730: 85 15        	sta	$15                     ; 0x2015 <f256main+0x1701>
    1732: b1 2e        	lda	($2e),y                 ; 0x202e <f256main+0x171a>
    1734: a2 7f        	ldx	#$7f
    1736: 86 13        	stx	$13                     ; 0x2013 <f256main+0x16ff>
    1738: a2 01        	ldx	#$1
    173a: 86 16        	stx	$16                     ; 0x2016 <f256main+0x1702>
    173c: 85 17        	sta	$17                     ; 0x2017 <f256main+0x1703>
    173e: a6 18        	ldx	$18                     ; 0x2018 <f256main+0x1704>
    1740: a9 00        	lda	#$0
    1742: 20 67 3a     	jsr	$3a67 <dispatchNote>
    1745: a6 4d        	ldx	$4d                     ; 0x204d <f256main+0x1739>
    1747: 86 19        	stx	$19                     ; 0x2019 <f256main+0x1705>
    1749: a6 4e        	ldx	$4e                     ; 0x204e <f256main+0x173a>
    174b: 86 16        	stx	$16                     ; 0x2016 <f256main+0x1702>
    174d: a6 81        	ldx	$81                     ; 0x2081 <f256main+0x176d>
    174f: a4 82        	ldy	$82                     ; 0x2082 <f256main+0x176e>
    1751: 86 14        	stx	$14                     ; 0x2014 <f256main+0x1700>
    1753: 84 15        	sty	$15                     ; 0x2015 <f256main+0x1701>
    1755: a0 08        	ldy	#$8
    1757: b1 14        	lda	($14),y                 ; 0x2014 <f256main+0x1700>
    1759: 85 12        	sta	$12                     ; 0x2012 <f256main+0x16fe>
    175b: 0a           	asl
    175c: 64 13        	stz	$13                     ; 0x2013 <f256main+0x16ff>
    175e: 26 13        	rol	$13                     ; 0x2013 <f256main+0x16ff>
    1760: 0a           	asl
    1761: 26 13        	rol	$13                     ; 0x2013 <f256main+0x16ff>
    1763: 0a           	asl
    1764: 26 13        	rol	$13                     ; 0x2013 <f256main+0x16ff>
    1766: 0a           	asl
    1767: 26 13        	rol	$13                     ; 0x2013 <f256main+0x16ff>
    1769: 38           	sec
    176a: e5 12        	sbc	$12                     ; 0x2012 <f256main+0x16fe>
    176c: 85 17        	sta	$17                     ; 0x2017 <f256main+0x1703>
    176e: 85 12        	sta	$12                     ; 0x2012 <f256main+0x16fe>
    1770: a5 13        	lda	$13                     ; 0x2013 <f256main+0x16ff>
    1772: e9 00        	sbc	#$0
    1774: 85 18        	sta	$18                     ; 0x2018 <f256main+0x1704>
    1776: 85 13        	sta	$13                     ; 0x2013 <f256main+0x16ff>
    1778: a5 19        	lda	$19                     ; 0x2019 <f256main+0x1705>
    177a: a6 19        	ldx	$19                     ; 0x2019 <f256main+0x1705>
    177c: 18           	clc
    177d: 65 12        	adc	$12                     ; 0x2012 <f256main+0x16fe>
    177f: 85 12        	sta	$12                     ; 0x2012 <f256main+0x16fe>
    1781: a5 16        	lda	$16                     ; 0x2016 <f256main+0x1702>
    1783: 65 13        	adc	$13                     ; 0x2013 <f256main+0x16ff>
    1785: 85 13        	sta	$13                     ; 0x2013 <f256main+0x16ff>
    1787: a0 02        	ldy	#$2
    1789: b1 12        	lda	($12),y                 ; 0x2012 <f256main+0x16fe>
    178b: 3a           	dec
    178c: 85 19        	sta	$19                     ; 0x2019 <f256main+0x1705>
    178e: 91 12        	sta	($12),y                 ; 0x2012 <f256main+0x16fe>
    1790: a5 38        	lda	$38                     ; 0x2038 <f256main+0x1724>
    1792: 29 01        	and	#$1
    1794: d0 03        	bne	$1799 <f256main+0xe85>
    1796: 4c bc 1c     	jmp	$1cbc <f256main+0x13a8>
    1799: a0 01        	ldy	#$1
    179b: a9 b7        	lda	#$b7
    179d: 85 28        	sta	$28                     ; 0x2028 <f256main+0x1714>
    179f: a9 8c        	lda	#$8c
    17a1: 85 29        	sta	$29                     ; 0x2029 <f256main+0x1715>
    17a3: a5 19        	lda	$19                     ; 0x2019 <f256main+0x1705>
    17a5: f0 03        	beq	$17aa <f256main+0xe96>
    17a7: 4c e4 0e     	jmp	$ee4 <f256main+0x5d0>
    17aa: 18           	clc
    17ab: 8a           	txa
    17ac: 65 17        	adc	$17                     ; 0x2017 <f256main+0x1703>
    17ae: 85 12        	sta	$12                     ; 0x2012 <f256main+0x16fe>
    17b0: a5 16        	lda	$16                     ; 0x2016 <f256main+0x1702>
    17b2: 65 18        	adc	$18                     ; 0x2018 <f256main+0x1704>
    17b4: 64 38        	stz	$38                     ; 0x2038 <f256main+0x1724>
    17b6: 85 13        	sta	$13                     ; 0x2013 <f256main+0x16ff>
    17b8: a9 00        	lda	#$0
    17ba: 92 12        	sta	($12)                   ; 0x2012 <f256main+0x16fe>
    17bc: b1 12        	lda	($12),y                 ; 0x2012 <f256main+0x16fe>
    17be: d0 03        	bne	$17c3 <f256main+0xeaf>
    17c0: 4c e4 0e     	jmp	$ee4 <f256main+0x5d0>
    17c3: a9 00        	lda	#$0
    17c5: 91 12        	sta	($12),y                 ; 0x2012 <f256main+0x16fe>
    17c7: 4c 99 18     	jmp	$1899 <f256main+0xf85>
    17ca: 84 25        	sty	$25                     ; 0x2025 <f256main+0x1711>
    17cc: 86 14        	stx	$14                     ; 0x2014 <f256main+0x1700>
    17ce: e0 94        	cpx	#$94
    17d0: f0 03        	beq	$17d5 <f256main+0xec1>
    17d2: 4c 9f 18     	jmp	$189f <f256main+0xf8b>
    17d5: a6 37        	ldx	$37                     ; 0x2037 <f256main+0x1723>
    17d7: d0 03        	bne	$17dc <f256main+0xec8>
    17d9: 4c e4 0e     	jmp	$ee4 <f256main+0x5d0>
    17dc: a2 02        	ldx	#$2
    17de: 86 01        	stx	$1                      ; 0x2001 <f256main+0x16ed>
    17e0: a2 c0        	ldx	#$c0
    17e2: a0 00        	ldy	#$0
    17e4: a9 20        	lda	#$20
    17e6: 84 12        	sty	$12                     ; 0x2012 <f256main+0x16fe>
    17e8: 86 13        	stx	$13                     ; 0x2013 <f256main+0x16ff>
    17ea: 92 12        	sta	($12)                   ; 0x2012 <f256main+0x16fe>
    17ec: c8           	iny
    17ed: d0 01        	bne	$17f0 <f256main+0xedc>
    17ef: e8           	inx
    17f0: e0 d2        	cpx	#$d2
    17f2: d0 f2        	bne	$17e6 <f256main+0xed2>
    17f4: c0 c0        	cpy	#$c0
    17f6: d0 ee        	bne	$17e6 <f256main+0xed2>
    17f8: 64 01        	stz	$1                      ; 0x2001 <f256main+0x16ed>
    17fa: a6 81        	ldx	$81                     ; 0x2081 <f256main+0x176d>
    17fc: a4 82        	ldy	$82                     ; 0x2082 <f256main+0x176e>
    17fe: 86 12        	stx	$12                     ; 0x2012 <f256main+0x16fe>
    1800: 84 13        	sty	$13                     ; 0x2013 <f256main+0x16ff>
    1802: 20 f8 4d     	jsr	$4df8 <textTitle>
    1805: 64 37        	stz	$37                     ; 0x2037 <f256main+0x1723>
    1807: 4c e4 0e     	jmp	$ee4 <f256main+0x5d0>
    180a: 86 14        	stx	$14                     ; 0x2014 <f256main+0x1700>
    180c: e0 92        	cpx	#$92
    180e: f0 03        	beq	$1813 <f256main+0xeff>
    1810: 4c 9f 18     	jmp	$189f <f256main+0xf8b>
    1813: 20 7e 37     	jsr	$377e <escReset>
    1816: 4c e4 0e     	jmp	$ee4 <f256main+0x5d0>
    1819: a6 37        	ldx	$37                     ; 0x2037 <f256main+0x1723>
    181b: f0 03        	beq	$1820 <f256main+0xf0c>
    181d: 4c e4 0e     	jmp	$ee4 <f256main+0x5d0>
    1820: a6 81        	ldx	$81                     ; 0x2081 <f256main+0x176d>
    1822: a4 82        	ldy	$82                     ; 0x2082 <f256main+0x176e>
    1824: 86 12        	stx	$12                     ; 0x2012 <f256main+0x16fe>
    1826: 84 13        	sty	$13                     ; 0x2013 <f256main+0x16ff>
    1828: a9 00        	lda	#$0
    182a: a0 07        	ldy	#$7
    182c: 91 12        	sta	($12),y                 ; 0x2012 <f256main+0x16fe>
    182e: a0 03        	ldy	#$3
    1830: b1 12        	lda	($12),y                 ; 0x2012 <f256main+0x16fe>
    1832: aa           	tax
    1833: 1a           	inc
    1834: 91 12        	sta	($12),y                 ; 0x2012 <f256main+0x16fe>
    1836: e0 01        	cpx	#$1
    1838: d0 03        	bne	$183d <f256main+0xf29>
    183a: 4c ab 26     	jmp	$26ab <f256main+0x1d97>
    183d: e0 09        	cpx	#$9
    183f: f0 03        	beq	$1844 <f256main+0xf30>
    1841: 4c af 26     	jmp	$26af <f256main+0x1d9b>
    1844: a9 00        	lda	#$0
    1846: 4c ad 26     	jmp	$26ad <f256main+0x1d99>
    1849: a6 37        	ldx	$37                     ; 0x2037 <f256main+0x1723>
    184b: f0 03        	beq	$1850 <f256main+0xf3c>
    184d: 4c e4 0e     	jmp	$ee4 <f256main+0x5d0>
    1850: a6 81        	ldx	$81                     ; 0x2081 <f256main+0x176d>
    1852: a4 82        	ldy	$82                     ; 0x2082 <f256main+0x176e>
    1854: 86 12        	stx	$12                     ; 0x2012 <f256main+0x16fe>
    1856: 84 13        	sty	$13                     ; 0x2013 <f256main+0x16ff>
    1858: a0 08        	ldy	#$8
    185a: b1 12        	lda	($12),y                 ; 0x2012 <f256main+0x16fe>
    185c: 85 14        	sta	$14                     ; 0x2014 <f256main+0x1700>
    185e: 0a           	asl
    185f: aa           	tax
    1860: a9 00        	lda	#$0
    1862: 2a           	rol
    1863: 86 15        	stx	$15                     ; 0x2015 <f256main+0x1701>
    1865: 06 15        	asl	$15                     ; 0x2015 <f256main+0x1701>
    1867: 2a           	rol
    1868: 06 15        	asl	$15                     ; 0x2015 <f256main+0x1701>
    186a: 2a           	rol
    186b: 06 15        	asl	$15                     ; 0x2015 <f256main+0x1701>
    186d: 2a           	rol
    186e: aa           	tax
    186f: 38           	sec
    1870: a5 15        	lda	$15                     ; 0x2015 <f256main+0x1701>
    1872: e5 14        	sbc	$14                     ; 0x2014 <f256main+0x1700>
    1874: 85 15        	sta	$15                     ; 0x2015 <f256main+0x1701>
    1876: 8a           	txa
    1877: e9 00        	sbc	#$0
    1879: aa           	tax
    187a: 18           	clc
    187b: a5 15        	lda	$15                     ; 0x2015 <f256main+0x1701>
    187d: 65 4d        	adc	$4d                     ; 0x204d <f256main+0x1739>
    187f: 85 16        	sta	$16                     ; 0x2016 <f256main+0x1702>
    1881: 8a           	txa
    1882: 65 4e        	adc	$4e                     ; 0x204e <f256main+0x173a>
    1884: 85 17        	sta	$17                     ; 0x2017 <f256main+0x1703>
    1886: b2 16        	lda	($16)                   ; 0x2016 <f256main+0x1702>
    1888: d0 03        	bne	$188d <f256main+0xf79>
    188a: 4c 95 26     	jmp	$2695 <f256main+0x1d81>
    188d: a2 01        	ldx	#$1
    188f: 4c ea 24     	jmp	$24ea <f256main+0x1bd6>
    1892: a6 37        	ldx	$37                     ; 0x2037 <f256main+0x1723>
    1894: f0 03        	beq	$1899 <f256main+0xf85>
    1896: 4c e4 0e     	jmp	$ee4 <f256main+0x5d0>
    1899: 20 7f 30     	jsr	$307f <launchBeat>
    189c: 4c e4 0e     	jmp	$ee4 <f256main+0x5d0>
    189f: a6 81        	ldx	$81                     ; 0x2081 <f256main+0x176d>
    18a1: a5 82        	lda	$82                     ; 0x2082 <f256main+0x176e>
    18a3: 86 12        	stx	$12                     ; 0x2012 <f256main+0x16fe>
    18a5: 85 13        	sta	$13                     ; 0x2013 <f256main+0x16ff>
    18a7: a0 06        	ldy	#$6
    18a9: b1 12        	lda	($12),y                 ; 0x2012 <f256main+0x16fe>
    18ab: c9 03        	cmp	#$3
    18ad: f0 03        	beq	$18b2 <f256main+0xf9e>
    18af: 4c 1e 1e     	jmp	$1e1e <f256main+0x150a>
    18b2: a6 14        	ldx	$14                     ; 0x2014 <f256main+0x1700>
    18b4: bd 55 7a     	lda	$7a55,x                 ; 0x7a55 <KeyCodesToMIDINotes>
    18b7: aa           	tax
    18b8: 86 12        	stx	$12                     ; 0x2012 <f256main+0x16fe>
    18ba: 4c 65 1a     	jmp	$1a65 <f256main+0x1151>
    18bd: a0 40        	ldy	#$40
    18bf: 84 30        	sty	$30                     ; 0x2030 <f256main+0x171c>
    18c1: a0 b3        	ldy	#$b3
    18c3: 8a           	txa
    18c4: f0 02        	beq	$18c8 <f256main+0xfb4>
    18c6: a0 b4        	ldy	#$b4
    18c8: 84 35        	sty	$35                     ; 0x2035 <f256main+0x1721>
    18ca: a2 35        	ldx	#$35
    18cc: 86 12        	stx	$12                     ; 0x2012 <f256main+0x16fe>
    18ce: a2 00        	ldx	#$0
    18d0: 86 13        	stx	$13                     ; 0x2013 <f256main+0x16ff>
    18d2: 20 c7 2e     	jsr	$2ec7 <textPrint>
    18d5: a2 45        	ldx	#$45
    18d7: 86 33        	stx	$33                     ; 0x2033 <f256main+0x171f>
    18d9: 8e 14 d0     	stx	$d014                   ; 0xd014 <__heap_start+0x4358>
    18dc: 9c 15 d0     	stz	$d015                   ; 0xd015 <__heap_start+0x4359>
    18df: a2 04        	ldx	#$4
    18e1: 86 34        	stx	$34                     ; 0x2034 <f256main+0x1720>
    18e3: 8e 16 d0     	stx	$d016                   ; 0xd016 <__heap_start+0x435a>
    18e6: 9c 17 d0     	stz	$d017                   ; 0xd017 <__heap_start+0x435b>
    18e9: a4 53        	ldy	$53                     ; 0x2053 <f256main+0x173f>
    18eb: a2 40        	ldx	#$40
    18ed: a9 b3        	lda	#$b3
    18ef: c0 00        	cpy	#$0
    18f1: f0 04        	beq	$18f7 <f256main+0xfe3>
    18f3: a9 b4        	lda	#$b4
    18f5: a2 90        	ldx	#$90
    18f7: 86 30        	stx	$30                     ; 0x2030 <f256main+0x171c>
    18f9: 85 35        	sta	$35                     ; 0x2035 <f256main+0x1721>
    18fb: a2 35        	ldx	#$35
    18fd: 86 12        	stx	$12                     ; 0x2012 <f256main+0x16fe>
    18ff: a2 00        	ldx	#$0
    1901: 86 13        	stx	$13                     ; 0x2013 <f256main+0x16ff>
    1903: 20 c7 2e     	jsr	$2ec7 <textPrint>
    1906: a2 45        	ldx	#$45
    1908: 86 33        	stx	$33                     ; 0x2033 <f256main+0x171f>
    190a: 8e 14 d0     	stx	$d014                   ; 0xd014 <__heap_start+0x4358>
    190d: 9c 15 d0     	stz	$d015                   ; 0xd015 <__heap_start+0x4359>
    1910: a2 05        	ldx	#$5
    1912: 86 34        	stx	$34                     ; 0x2034 <f256main+0x1720>
    1914: 8e 16 d0     	stx	$d016                   ; 0xd016 <__heap_start+0x435a>
    1917: 9c 17 d0     	stz	$d017                   ; 0xd017 <__heap_start+0x435b>
    191a: a6 54        	ldx	$54                     ; 0x2054 <f256main+0x1740>
    191c: a0 40        	ldy	#$40
    191e: 8a           	txa
    191f: f0 02        	beq	$1923 <f256main+0x100f>
    1921: a0 90        	ldy	#$90
    1923: 84 30        	sty	$30                     ; 0x2030 <f256main+0x171c>
    1925: 8a           	txa
    1926: f0 04        	beq	$192c <f256main+0x1018>
    1928: a2 b4        	ldx	#$b4
    192a: 80 02        	bra	$192e <f256main+0x101a>
    192c: a2 b3        	ldx	#$b3
    192e: 86 35        	stx	$35                     ; 0x2035 <f256main+0x1721>
    1930: a2 35        	ldx	#$35
    1932: 86 12        	stx	$12                     ; 0x2012 <f256main+0x16fe>
    1934: a2 00        	ldx	#$0
    1936: 86 13        	stx	$13                     ; 0x2013 <f256main+0x16ff>
    1938: 20 c7 2e     	jsr	$2ec7 <textPrint>
    193b: a2 45        	ldx	#$45
    193d: 86 33        	stx	$33                     ; 0x2033 <f256main+0x171f>
    193f: 8e 14 d0     	stx	$d014                   ; 0xd014 <__heap_start+0x4358>
    1942: 9c 15 d0     	stz	$d015                   ; 0xd015 <__heap_start+0x4359>
    1945: a2 06        	ldx	#$6
    1947: 86 34        	stx	$34                     ; 0x2034 <f256main+0x1720>
    1949: 8e 16 d0     	stx	$d016                   ; 0xd016 <__heap_start+0x435a>
    194c: 9c 17 d0     	stz	$d017                   ; 0xd017 <__heap_start+0x435b>
    194f: a6 55        	ldx	$55                     ; 0x2055 <f256main+0x1741>
    1951: f0 06        	beq	$1959 <f256main+0x1045>
    1953: a2 b4        	ldx	#$b4
    1955: a0 90        	ldy	#$90
    1957: 80 04        	bra	$195d <f256main+0x1049>
    1959: a2 b3        	ldx	#$b3
    195b: a0 40        	ldy	#$40
    195d: 84 30        	sty	$30                     ; 0x2030 <f256main+0x171c>
    195f: 86 35        	stx	$35                     ; 0x2035 <f256main+0x1721>
    1961: a2 35        	ldx	#$35
    1963: 86 12        	stx	$12                     ; 0x2012 <f256main+0x16fe>
    1965: a2 00        	ldx	#$0
    1967: 86 13        	stx	$13                     ; 0x2013 <f256main+0x16ff>
    1969: 20 c7 2e     	jsr	$2ec7 <textPrint>
    196c: a2 45        	ldx	#$45
    196e: 86 33        	stx	$33                     ; 0x2033 <f256main+0x171f>
    1970: 8e 14 d0     	stx	$d014                   ; 0xd014 <__heap_start+0x4358>
    1973: 9c 15 d0     	stz	$d015                   ; 0xd015 <__heap_start+0x4359>
    1976: a2 07        	ldx	#$7
    1978: 86 34        	stx	$34                     ; 0x2034 <f256main+0x1720>
    197a: 8e 16 d0     	stx	$d016                   ; 0xd016 <__heap_start+0x435a>
    197d: 9c 17 d0     	stz	$d017                   ; 0xd017 <__heap_start+0x435b>
    1980: a6 56        	ldx	$56                     ; 0x2056 <f256main+0x1742>
    1982: f0 04        	beq	$1988 <f256main+0x1074>
    1984: a0 90        	ldy	#$90
    1986: 80 02        	bra	$198a <f256main+0x1076>
    1988: a0 40        	ldy	#$40
    198a: 84 30        	sty	$30                     ; 0x2030 <f256main+0x171c>
    198c: 8a           	txa
    198d: f0 04        	beq	$1993 <f256main+0x107f>
    198f: a2 b4        	ldx	#$b4
    1991: 80 02        	bra	$1995 <f256main+0x1081>
    1993: a2 b3        	ldx	#$b3
    1995: 86 35        	stx	$35                     ; 0x2035 <f256main+0x1721>
    1997: a2 35        	ldx	#$35
    1999: 86 12        	stx	$12                     ; 0x2012 <f256main+0x16fe>
    199b: a2 00        	ldx	#$0
    199d: 86 13        	stx	$13                     ; 0x2013 <f256main+0x16ff>
    199f: 20 c7 2e     	jsr	$2ec7 <textPrint>
    19a2: 4c e4 0e     	jmp	$ee4 <f256main+0x5d0>
    19a5: a2 01        	ldx	#$1
    19a7: 86 3a        	stx	$3a                     ; 0x203a <f256main+0x1726>
    19a9: 4c e4 0e     	jmp	$ee4 <f256main+0x5d0>
    19ac: a6 4d        	ldx	$4d                     ; 0x204d <f256main+0x1739>
    19ae: 86 15        	stx	$15                     ; 0x2015 <f256main+0x1701>
    19b0: a6 4e        	ldx	$4e                     ; 0x204e <f256main+0x173a>
    19b2: 86 14        	stx	$14                     ; 0x2014 <f256main+0x1700>
    19b4: a6 81        	ldx	$81                     ; 0x2081 <f256main+0x176d>
    19b6: a4 82        	ldy	$82                     ; 0x2082 <f256main+0x176e>
    19b8: 86 2c        	stx	$2c                     ; 0x202c <f256main+0x1718>
    19ba: 84 2d        	sty	$2d                     ; 0x202d <f256main+0x1719>
    19bc: a0 08        	ldy	#$8
    19be: b1 2c        	lda	($2c),y                 ; 0x202c <f256main+0x1718>
    19c0: 85 12        	sta	$12                     ; 0x2012 <f256main+0x16fe>
    19c2: 0a           	asl
    19c3: 64 13        	stz	$13                     ; 0x2013 <f256main+0x16ff>
    19c5: 26 13        	rol	$13                     ; 0x2013 <f256main+0x16ff>
    19c7: 0a           	asl
    19c8: 26 13        	rol	$13                     ; 0x2013 <f256main+0x16ff>
    19ca: 0a           	asl
    19cb: 26 13        	rol	$13                     ; 0x2013 <f256main+0x16ff>
    19cd: 0a           	asl
    19ce: 26 13        	rol	$13                     ; 0x2013 <f256main+0x16ff>
    19d0: 38           	sec
    19d1: e5 12        	sbc	$12                     ; 0x2012 <f256main+0x16fe>
    19d3: aa           	tax
    19d4: 85 12        	sta	$12                     ; 0x2012 <f256main+0x16fe>
    19d6: a5 13        	lda	$13                     ; 0x2013 <f256main+0x16ff>
    19d8: e9 00        	sbc	#$0
    19da: 85 16        	sta	$16                     ; 0x2016 <f256main+0x1702>
    19dc: 85 13        	sta	$13                     ; 0x2013 <f256main+0x16ff>
    19de: a4 15        	ldy	$15                     ; 0x2015 <f256main+0x1701>
    19e0: 84 2e        	sty	$2e                     ; 0x202e <f256main+0x171a>
    19e2: a5 15        	lda	$15                     ; 0x2015 <f256main+0x1701>
    19e4: 18           	clc
    19e5: 65 12        	adc	$12                     ; 0x2012 <f256main+0x16fe>
    19e7: 85 12        	sta	$12                     ; 0x2012 <f256main+0x16fe>
    19e9: a5 14        	lda	$14                     ; 0x2014 <f256main+0x1700>
    19eb: 85 2b        	sta	$2b                     ; 0x202b <f256main+0x1717>
    19ed: 65 13        	adc	$13                     ; 0x2013 <f256main+0x16ff>
    19ef: 85 13        	sta	$13                     ; 0x2013 <f256main+0x16ff>
    19f1: b2 12        	lda	($12)                   ; 0x2012 <f256main+0x16fe>
    19f3: d0 03        	bne	$19f8 <f256main+0x10e4>
    19f5: 4c 69 24     	jmp	$2469 <f256main+0x1b55>
    19f8: a5 3a        	lda	$3a                     ; 0x203a <f256main+0x1726>
    19fa: 29 01        	and	#$1
    19fc: a2 0a        	ldx	#$a
    19fe: a8           	tay
    19ff: d0 02        	bne	$1a03 <f256main+0x10ef>
    1a01: a2 01        	ldx	#$1
    1a03: 18           	clc
    1a04: a0 09        	ldy	#$9
    1a06: 8a           	txa
    1a07: 71 2c        	adc	($2c),y                 ; 0x202c <f256main+0x1718>
    1a09: 91 2c        	sta	($2c),y                 ; 0x202c <f256main+0x1718>
    1a0b: 20 be 38     	jsr	$38be <prepTempoLUT>
    1a0e: a0 09        	ldy	#$9
    1a10: b1 2c        	lda	($2c),y                 ; 0x202c <f256main+0x1718>
    1a12: 20 1e 4c     	jsr	$4c1e <updateTempoText>
    1a15: a0 08        	ldy	#$8
    1a17: b1 2c        	lda	($2c),y                 ; 0x202c <f256main+0x1718>
    1a19: 85 12        	sta	$12                     ; 0x2012 <f256main+0x16fe>
    1a1b: 0a           	asl
    1a1c: 64 13        	stz	$13                     ; 0x2013 <f256main+0x16ff>
    1a1e: 26 13        	rol	$13                     ; 0x2013 <f256main+0x16ff>
    1a20: 0a           	asl
    1a21: 26 13        	rol	$13                     ; 0x2013 <f256main+0x16ff>
    1a23: 0a           	asl
    1a24: 26 13        	rol	$13                     ; 0x2013 <f256main+0x16ff>
    1a26: 0a           	asl
    1a27: 26 13        	rol	$13                     ; 0x2013 <f256main+0x16ff>
    1a29: 38           	sec
    1a2a: e5 12        	sbc	$12                     ; 0x2012 <f256main+0x16fe>
    1a2c: 85 12        	sta	$12                     ; 0x2012 <f256main+0x16fe>
    1a2e: a5 13        	lda	$13                     ; 0x2013 <f256main+0x16ff>
    1a30: e9 00        	sbc	#$0
    1a32: 85 13        	sta	$13                     ; 0x2013 <f256main+0x16ff>
    1a34: 18           	clc
    1a35: a5 2e        	lda	$2e                     ; 0x202e <f256main+0x171a>
    1a37: 65 12        	adc	$12                     ; 0x2012 <f256main+0x16fe>
    1a39: 85 12        	sta	$12                     ; 0x2012 <f256main+0x16fe>
    1a3b: a5 2b        	lda	$2b                     ; 0x202b <f256main+0x1717>
    1a3d: 65 13        	adc	$13                     ; 0x2013 <f256main+0x16ff>
    1a3f: 85 13        	sta	$13                     ; 0x2013 <f256main+0x16ff>
    1a41: a0 01        	ldy	#$1
    1a43: 84 38        	sty	$38                     ; 0x2038 <f256main+0x1724>
    1a45: 98           	tya
    1a46: 91 12        	sta	($12),y                 ; 0x2012 <f256main+0x16fe>
    1a48: 4c e4 0e     	jmp	$ee4 <f256main+0x5d0>
    1a4b: a6 81        	ldx	$81                     ; 0x2081 <f256main+0x176d>
    1a4d: a4 82        	ldy	$82                     ; 0x2082 <f256main+0x176e>
    1a4f: 86 12        	stx	$12                     ; 0x2012 <f256main+0x16fe>
    1a51: 84 13        	sty	$13                     ; 0x2013 <f256main+0x16ff>
    1a53: a0 06        	ldy	#$6
    1a55: b1 12        	lda	($12),y                 ; 0x2012 <f256main+0x16fe>
    1a57: c9 03        	cmp	#$3
    1a59: f0 03        	beq	$1a5e <f256main+0x114a>
    1a5b: 4c 2f 1e     	jmp	$1e2f <f256main+0x151b>
    1a5e: 18           	clc
    1a5f: a9 15        	lda	#$15
    1a61: 65 31        	adc	$31                     ; 0x2031 <f256main+0x171d>
    1a63: 85 12        	sta	$12                     ; 0x2012 <f256main+0x16fe>
    1a65: 64 13        	stz	$13                     ; 0x2013 <f256main+0x16ff>
    1a67: 64 14        	stz	$14                     ; 0x2014 <f256main+0x1700>
    1a69: a2 03        	ldx	#$3
    1a6b: 86 15        	stx	$15                     ; 0x2015 <f256main+0x1701>
    1a6d: 64 16        	stz	$16                     ; 0x2016 <f256main+0x1702>
    1a6f: 64 17        	stz	$17                     ; 0x2017 <f256main+0x1703>
    1a71: a2 00        	ldx	#$0
    1a73: 4c 51 1e     	jmp	$1e51 <f256main+0x153d>
    1a76: a2 b0        	ldx	#$b0
    1a78: 8e b1 dd     	stx	$ddb1                   ; 0xddb1 <__heap_start+0x50f5>
    1a7b: a0 7b        	ldy	#$7b
    1a7d: 8c b1 dd     	sty	$ddb1                   ; 0xddb1 <__heap_start+0x50f5>
    1a80: 9c b1 dd     	stz	$ddb1                   ; 0xddb1 <__heap_start+0x50f5>
    1a83: 8e a1 dd     	stx	$dda1                   ; 0xdda1 <__heap_start+0x50e5>
    1a86: 8c a1 dd     	sty	$dda1                   ; 0xdda1 <__heap_start+0x50e5>
    1a89: 9c a1 dd     	stz	$dda1                   ; 0xdda1 <__heap_start+0x50e5>
    1a8c: e8           	inx
    1a8d: 8e b1 dd     	stx	$ddb1                   ; 0xddb1 <__heap_start+0x50f5>
    1a90: 8c b1 dd     	sty	$ddb1                   ; 0xddb1 <__heap_start+0x50f5>
    1a93: 9c b1 dd     	stz	$ddb1                   ; 0xddb1 <__heap_start+0x50f5>
    1a96: 8e a1 dd     	stx	$dda1                   ; 0xdda1 <__heap_start+0x50e5>
    1a99: 8c a1 dd     	sty	$dda1                   ; 0xdda1 <__heap_start+0x50e5>
    1a9c: 9c a1 dd     	stz	$dda1                   ; 0xdda1 <__heap_start+0x50e5>
    1a9f: a2 b9        	ldx	#$b9
    1aa1: 8e b1 dd     	stx	$ddb1                   ; 0xddb1 <__heap_start+0x50f5>
    1aa4: 8c b1 dd     	sty	$ddb1                   ; 0xddb1 <__heap_start+0x50f5>
    1aa7: 9c b1 dd     	stz	$ddb1                   ; 0xddb1 <__heap_start+0x50f5>
    1aaa: 8e a1 dd     	stx	$dda1                   ; 0xdda1 <__heap_start+0x50e5>
    1aad: 8c a1 dd     	sty	$dda1                   ; 0xdda1 <__heap_start+0x50e5>
    1ab0: 9c a1 dd     	stz	$dda1                   ; 0xdda1 <__heap_start+0x50e5>
    1ab3: a6 81        	ldx	$81                     ; 0x2081 <f256main+0x176d>
    1ab5: 86 12        	stx	$12                     ; 0x2012 <f256main+0x16fe>
    1ab7: a6 82        	ldx	$82                     ; 0x2082 <f256main+0x176e>
    1ab9: 86 13        	stx	$13                     ; 0x2013 <f256main+0x16ff>
    1abb: a9 ff        	lda	#$ff
    1abd: a0 02        	ldy	#$2
    1abf: 51 12        	eor	($12),y                 ; 0x2012 <f256main+0x16fe>
    1ac1: 91 12        	sta	($12),y                 ; 0x2012 <f256main+0x16fe>
    1ac3: a2 b0        	ldx	#$b0
    1ac5: 8e b1 dd     	stx	$ddb1                   ; 0xddb1 <__heap_start+0x50f5>
    1ac8: a0 7b        	ldy	#$7b
    1aca: 8c b1 dd     	sty	$ddb1                   ; 0xddb1 <__heap_start+0x50f5>
    1acd: 9c b1 dd     	stz	$ddb1                   ; 0xddb1 <__heap_start+0x50f5>
    1ad0: 8e a1 dd     	stx	$dda1                   ; 0xdda1 <__heap_start+0x50e5>
    1ad3: 8c a1 dd     	sty	$dda1                   ; 0xdda1 <__heap_start+0x50e5>
    1ad6: 9c a1 dd     	stz	$dda1                   ; 0xdda1 <__heap_start+0x50e5>
    1ad9: e8           	inx
    1ada: 8e b1 dd     	stx	$ddb1                   ; 0xddb1 <__heap_start+0x50f5>
    1add: 8c b1 dd     	sty	$ddb1                   ; 0xddb1 <__heap_start+0x50f5>
    1ae0: 9c b1 dd     	stz	$ddb1                   ; 0xddb1 <__heap_start+0x50f5>
    1ae3: 8e a1 dd     	stx	$dda1                   ; 0xdda1 <__heap_start+0x50e5>
    1ae6: 8c a1 dd     	sty	$dda1                   ; 0xdda1 <__heap_start+0x50e5>
    1ae9: 9c a1 dd     	stz	$dda1                   ; 0xdda1 <__heap_start+0x50e5>
    1aec: a2 b9        	ldx	#$b9
    1aee: 8e b1 dd     	stx	$ddb1                   ; 0xddb1 <__heap_start+0x50f5>
    1af1: 8c b1 dd     	sty	$ddb1                   ; 0xddb1 <__heap_start+0x50f5>
    1af4: 9c b1 dd     	stz	$ddb1                   ; 0xddb1 <__heap_start+0x50f5>
    1af7: 8e a1 dd     	stx	$dda1                   ; 0xdda1 <__heap_start+0x50e5>
    1afa: 8c a1 dd     	sty	$dda1                   ; 0xdda1 <__heap_start+0x50e5>
    1afd: a0 02        	ldy	#$2
    1aff: 9c a1 dd     	stz	$dda1                   ; 0xdda1 <__heap_start+0x50e5>
    1b02: a6 81        	ldx	$81                     ; 0x2081 <f256main+0x176d>
    1b04: 86 12        	stx	$12                     ; 0x2012 <f256main+0x16fe>
    1b06: a6 82        	ldx	$82                     ; 0x2082 <f256main+0x176e>
    1b08: 86 13        	stx	$13                     ; 0x2013 <f256main+0x16ff>
    1b0a: b1 12        	lda	($12),y                 ; 0x2012 <f256main+0x16fe>
    1b0c: d0 03        	bne	$1b11 <f256main+0x11fd>
    1b0e: 4c a4 24     	jmp	$24a4 <f256main+0x1b90>
    1b11: a2 52        	ldx	#$52
    1b13: 86 14        	stx	$14                     ; 0x2014 <f256main+0x1700>
    1b15: a2 00        	ldx	#$0
    1b17: 4c aa 24     	jmp	$24aa <f256main+0x1b96>
    1b1a: a6 37        	ldx	$37                     ; 0x2037 <f256main+0x1723>
    1b1c: d0 03        	bne	$1b21 <f256main+0x120d>
    1b1e: 4c ef 24     	jmp	$24ef <f256main+0x1bdb>
    1b21: 84 25        	sty	$25                     ; 0x2025 <f256main+0x1711>
    1b23: a6 81        	ldx	$81                     ; 0x2081 <f256main+0x176d>
    1b25: a4 82        	ldy	$82                     ; 0x2082 <f256main+0x176e>
    1b27: 86 2c        	stx	$2c                     ; 0x202c <f256main+0x1718>
    1b29: 84 2d        	sty	$2d                     ; 0x202d <f256main+0x1719>
    1b2b: b2 2c        	lda	($2c)                   ; 0x202c <f256main+0x1718>
    1b2d: 85 12        	sta	$12                     ; 0x2012 <f256main+0x16fe>
    1b2f: a0 01        	ldy	#$1
    1b31: b1 2c        	lda	($2c),y                 ; 0x202c <f256main+0x1718>
    1b33: 85 13        	sta	$13                     ; 0x2013 <f256main+0x16ff>
    1b35: a0 03        	ldy	#$3
    1b37: b1 2c        	lda	($2c),y                 ; 0x202c <f256main+0x1718>
    1b39: a8           	tay
    1b3a: b1 12        	lda	($12),y                 ; 0x2012 <f256main+0x16fe>
    1b3c: d0 03        	bne	$1b41 <f256main+0x122d>
    1b3e: 4c 57 25     	jmp	$2557 <f256main+0x1c43>
    1b41: a6 2c        	ldx	$2c                     ; 0x202c <f256main+0x1718>
    1b43: 86 12        	stx	$12                     ; 0x2012 <f256main+0x16fe>
    1b45: a6 2d        	ldx	$2d                     ; 0x202d <f256main+0x1719>
    1b47: 86 13        	stx	$13                     ; 0x2013 <f256main+0x16ff>
    1b49: a9 00        	lda	#$0
    1b4b: 20 db 51     	jsr	$51db <highLightInstChoice>
    1b4e: a0 06        	ldy	#$6
    1b50: b1 2c        	lda	($2c),y                 ; 0x202c <f256main+0x1718>
    1b52: f0 03        	beq	$1b57 <f256main+0x1243>
    1b54: 4c b8 1b     	jmp	$1bb8 <f256main+0x12a4>
    1b57: b2 2c        	lda	($2c)                   ; 0x202c <f256main+0x1718>
    1b59: 85 12        	sta	$12                     ; 0x2012 <f256main+0x16fe>
    1b5b: a0 01        	ldy	#$1
    1b5d: b1 2c        	lda	($2c),y                 ; 0x202c <f256main+0x1718>
    1b5f: 85 13        	sta	$13                     ; 0x2013 <f256main+0x16ff>
    1b61: a0 03        	ldy	#$3
    1b63: b1 2c        	lda	($2c),y                 ; 0x202c <f256main+0x1718>
    1b65: a8           	tay
    1b66: b1 12        	lda	($12),y                 ; 0x2012 <f256main+0x16fe>
    1b68: 3a           	dec
    1b69: 80 4b        	bra	$1bb6 <f256main+0x12a2>
    1b6b: a6 37        	ldx	$37                     ; 0x2037 <f256main+0x1723>
    1b6d: d0 03        	bne	$1b72 <f256main+0x125e>
    1b6f: 4c 01 25     	jmp	$2501 <f256main+0x1bed>
    1b72: 84 25        	sty	$25                     ; 0x2025 <f256main+0x1711>
    1b74: a6 81        	ldx	$81                     ; 0x2081 <f256main+0x176d>
    1b76: a4 82        	ldy	$82                     ; 0x2082 <f256main+0x176e>
    1b78: 86 2c        	stx	$2c                     ; 0x202c <f256main+0x1718>
    1b7a: 84 2d        	sty	$2d                     ; 0x202d <f256main+0x1719>
    1b7c: b2 2c        	lda	($2c)                   ; 0x202c <f256main+0x1718>
    1b7e: 85 12        	sta	$12                     ; 0x2012 <f256main+0x16fe>
    1b80: a0 01        	ldy	#$1
    1b82: b1 2c        	lda	($2c),y                 ; 0x202c <f256main+0x1718>
    1b84: 85 13        	sta	$13                     ; 0x2013 <f256main+0x16ff>
    1b86: a0 03        	ldy	#$3
    1b88: b1 2c        	lda	($2c),y                 ; 0x202c <f256main+0x1718>
    1b8a: a8           	tay
    1b8b: b1 12        	lda	($12),y                 ; 0x2012 <f256main+0x16fe>
    1b8d: c9 7f        	cmp	#$7f
    1b8f: b0 4d        	bcs	$1bde <f256main+0x12ca>
    1b91: a6 2c        	ldx	$2c                     ; 0x202c <f256main+0x1718>
    1b93: 86 12        	stx	$12                     ; 0x2012 <f256main+0x16fe>
    1b95: a6 2d        	ldx	$2d                     ; 0x202d <f256main+0x1719>
    1b97: 86 13        	stx	$13                     ; 0x2013 <f256main+0x16ff>
    1b99: a9 00        	lda	#$0
    1b9b: 20 db 51     	jsr	$51db <highLightInstChoice>
    1b9e: a0 06        	ldy	#$6
    1ba0: b1 2c        	lda	($2c),y                 ; 0x202c <f256main+0x1718>
    1ba2: d0 14        	bne	$1bb8 <f256main+0x12a4>
    1ba4: b2 2c        	lda	($2c)                   ; 0x202c <f256main+0x1718>
    1ba6: 85 12        	sta	$12                     ; 0x2012 <f256main+0x16fe>
    1ba8: a0 01        	ldy	#$1
    1baa: b1 2c        	lda	($2c),y                 ; 0x202c <f256main+0x1718>
    1bac: 85 13        	sta	$13                     ; 0x2013 <f256main+0x16ff>
    1bae: a0 03        	ldy	#$3
    1bb0: b1 2c        	lda	($2c),y                 ; 0x202c <f256main+0x1718>
    1bb2: a8           	tay
    1bb3: b1 12        	lda	($12),y                 ; 0x2012 <f256main+0x16fe>
    1bb5: 1a           	inc
    1bb6: 91 12        	sta	($12),y                 ; 0x2012 <f256main+0x16fe>
    1bb8: a6 2c        	ldx	$2c                     ; 0x202c <f256main+0x1718>
    1bba: 86 12        	stx	$12                     ; 0x2012 <f256main+0x16fe>
    1bbc: a6 2d        	ldx	$2d                     ; 0x202d <f256main+0x1719>
    1bbe: 86 13        	stx	$13                     ; 0x2013 <f256main+0x16ff>
    1bc0: a9 01        	lda	#$1
    1bc2: 20 db 51     	jsr	$51db <highLightInstChoice>
    1bc5: a6 81        	ldx	$81                     ; 0x2081 <f256main+0x176d>
    1bc7: a4 82        	ldy	$82                     ; 0x2082 <f256main+0x176e>
    1bc9: 86 2c        	stx	$2c                     ; 0x202c <f256main+0x1718>
    1bcb: 84 2d        	sty	$2d                     ; 0x202d <f256main+0x1719>
    1bcd: b2 2c        	lda	($2c)                   ; 0x202c <f256main+0x1718>
    1bcf: 85 12        	sta	$12                     ; 0x2012 <f256main+0x16fe>
    1bd1: a0 01        	ldy	#$1
    1bd3: b1 2c        	lda	($2c),y                 ; 0x202c <f256main+0x1718>
    1bd5: 85 13        	sta	$13                     ; 0x2013 <f256main+0x16ff>
    1bd7: a0 03        	ldy	#$3
    1bd9: b1 2c        	lda	($2c),y                 ; 0x202c <f256main+0x1718>
    1bdb: a8           	tay
    1bdc: b1 12        	lda	($12),y                 ; 0x2012 <f256main+0x16fe>
    1bde: 85 14        	sta	$14                     ; 0x2014 <f256main+0x1700>
    1be0: 84 12        	sty	$12                     ; 0x2012 <f256main+0x16fe>
    1be2: a0 02        	ldy	#$2
    1be4: b1 2c        	lda	($2c),y                 ; 0x202c <f256main+0x1718>
    1be6: aa           	tax
    1be7: a5 12        	lda	$12                     ; 0x2012 <f256main+0x16fe>
    1be9: 09 c0        	ora	#$c0
    1beb: a0 a1        	ldy	#$a1
    1bed: 84 12        	sty	$12                     ; 0x2012 <f256main+0x16fe>
    1bef: a0 dd        	ldy	#$dd
    1bf1: 84 13        	sty	$13                     ; 0x2013 <f256main+0x16ff>
    1bf3: a0 b1        	ldy	#$b1
    1bf5: 84 16        	sty	$16                     ; 0x2016 <f256main+0x1702>
    1bf7: a0 dd        	ldy	#$dd
    1bf9: 84 17        	sty	$17                     ; 0x2017 <f256main+0x1703>
    1bfb: 48           	pha
    1bfc: a5 16        	lda	$16                     ; 0x2016 <f256main+0x1702>
    1bfe: a0 0e        	ldy	#$e
    1c00: 91 10        	sta	($10),y                 ; 0x2010 <f256main+0x16fc>
    1c02: a5 17        	lda	$17                     ; 0x2017 <f256main+0x1703>
    1c04: c8           	iny
    1c05: 91 10        	sta	($10),y                 ; 0x2010 <f256main+0x16fc>
    1c07: 68           	pla
    1c08: e0 00        	cpx	#$0
    1c0a: f0 0d        	beq	$1c19 <f256main+0x1305>
    1c0c: 48           	pha
    1c0d: a0 0e        	ldy	#$e
    1c0f: b1 10        	lda	($10),y                 ; 0x2010 <f256main+0x16fc>
    1c11: 85 12        	sta	$12                     ; 0x2012 <f256main+0x16fe>
    1c13: c8           	iny
    1c14: b1 10        	lda	($10),y                 ; 0x2010 <f256main+0x16fc>
    1c16: 85 13        	sta	$13                     ; 0x2013 <f256main+0x16ff>
    1c18: 68           	pla
    1c19: 92 12        	sta	($12)                   ; 0x2012 <f256main+0x16fe>
    1c1b: a5 14        	lda	$14                     ; 0x2014 <f256main+0x1700>
    1c1d: 92 12        	sta	($12)                   ; 0x2012 <f256main+0x16fe>
    1c1f: a6 81        	ldx	$81                     ; 0x2081 <f256main+0x176d>
    1c21: a4 82        	ldy	$82                     ; 0x2082 <f256main+0x176e>
    1c23: 86 12        	stx	$12                     ; 0x2012 <f256main+0x16fe>
    1c25: 84 13        	sty	$13                     ; 0x2013 <f256main+0x16ff>
    1c27: b2 12        	lda	($12)                   ; 0x2012 <f256main+0x16fe>
    1c29: 85 14        	sta	$14                     ; 0x2014 <f256main+0x1700>
    1c2b: a0 01        	ldy	#$1
    1c2d: b1 12        	lda	($12),y                 ; 0x2012 <f256main+0x16fe>
    1c2f: 85 15        	sta	$15                     ; 0x2015 <f256main+0x1701>
    1c31: a0 03        	ldy	#$3
    1c33: b1 12        	lda	($12),y                 ; 0x2012 <f256main+0x16fe>
    1c35: aa           	tax
    1c36: a8           	tay
    1c37: b1 14        	lda	($14),y                 ; 0x2014 <f256main+0x1700>
    1c39: 85 16        	sta	$16                     ; 0x2016 <f256main+0x1702>
    1c3b: a0 02        	ldy	#$2
    1c3d: b1 12        	lda	($12),y                 ; 0x2012 <f256main+0x16fe>
    1c3f: 48           	pha
    1c40: a0 0e        	ldy	#$e
    1c42: b1 10        	lda	($10),y                 ; 0x2010 <f256main+0x16fc>
    1c44: 85 12        	sta	$12                     ; 0x2012 <f256main+0x16fe>
    1c46: c8           	iny
    1c47: b1 10        	lda	($10),y                 ; 0x2010 <f256main+0x16fc>
    1c49: 85 13        	sta	$13                     ; 0x2013 <f256main+0x16ff>
    1c4b: 68           	pla
    1c4c: f0 08        	beq	$1c56 <f256main+0x1342>
    1c4e: a0 a1        	ldy	#$a1
    1c50: 84 12        	sty	$12                     ; 0x2012 <f256main+0x16fe>
    1c52: a0 dd        	ldy	#$dd
    1c54: 84 13        	sty	$13                     ; 0x2013 <f256main+0x16ff>
    1c56: 8a           	txa
    1c57: 09 c0        	ora	#$c0
    1c59: 92 12        	sta	($12)                   ; 0x2012 <f256main+0x16fe>
    1c5b: a5 16        	lda	$16                     ; 0x2016 <f256main+0x1702>
    1c5d: 92 12        	sta	($12)                   ; 0x2012 <f256main+0x16fe>
    1c5f: 4c e4 0e     	jmp	$ee4 <f256main+0x5d0>
    1c62: 84 25        	sty	$25                     ; 0x2025 <f256main+0x1711>
    1c64: a6 37        	ldx	$37                     ; 0x2037 <f256main+0x1723>
    1c66: a4 81        	ldy	$81                     ; 0x2081 <f256main+0x176d>
    1c68: a5 82        	lda	$82                     ; 0x2082 <f256main+0x176e>
    1c6a: 84 12        	sty	$12                     ; 0x2012 <f256main+0x16fe>
    1c6c: 85 13        	sta	$13                     ; 0x2013 <f256main+0x16ff>
    1c6e: a0 06        	ldy	#$6
    1c70: b1 12        	lda	($12),y                 ; 0x2012 <f256main+0x16fe>
    1c72: e0 00        	cpx	#$0
    1c74: d0 03        	bne	$1c79 <f256main+0x1365>
    1c76: 4c 40 25     	jmp	$2540 <f256main+0x1c2c>
    1c79: aa           	tax
    1c7a: f0 03        	beq	$1c7f <f256main+0x136b>
    1c7c: 4c aa 28     	jmp	$28aa <f256main+0x1f96>
    1c7f: a5 3a        	lda	$3a                     ; 0x203a <f256main+0x1726>
    1c81: 29 01        	and	#$1
    1c83: a2 62        	ldx	#$62
    1c85: 64 15        	stz	$15                     ; 0x2015 <f256main+0x1701>
    1c87: a8           	tay
    1c88: d0 02        	bne	$1c8c <f256main+0x1378>
    1c8a: a2 7d        	ldx	#$7d
    1c8c: 86 14        	stx	$14                     ; 0x2014 <f256main+0x1700>
    1c8e: a9 01        	lda	#$1
    1c90: 25 3a        	and	$3a                     ; 0x203a <f256main+0x1726>
    1c92: 85 16        	sta	$16                     ; 0x2016 <f256main+0x1702>
    1c94: a2 00        	ldx	#$0
    1c96: e4 15        	cpx	$15                     ; 0x2015 <f256main+0x1701>
    1c98: f0 03        	beq	$1c9d <f256main+0x1389>
    1c9a: 4c f8 27     	jmp	$27f8 <f256main+0x1ee4>
    1c9d: a0 01        	ldy	#$1
    1c9f: b1 12        	lda	($12),y                 ; 0x2012 <f256main+0x16fe>
    1ca1: 85 17        	sta	$17                     ; 0x2017 <f256main+0x1703>
    1ca3: a6 16        	ldx	$16                     ; 0x2016 <f256main+0x1702>
    1ca5: b2 12        	lda	($12)                   ; 0x2012 <f256main+0x16fe>
    1ca7: 85 16        	sta	$16                     ; 0x2016 <f256main+0x1702>
    1ca9: a0 03        	ldy	#$3
    1cab: b1 12        	lda	($12),y                 ; 0x2012 <f256main+0x16fe>
    1cad: a8           	tay
    1cae: b1 16        	lda	($16),y                 ; 0x2016 <f256main+0x1702>
    1cb0: c5 14        	cmp	$14                     ; 0x2014 <f256main+0x1700>
    1cb2: 86 16        	stx	$16                     ; 0x2016 <f256main+0x1702>
    1cb4: 90 03        	bcc	$1cb9 <f256main+0x13a5>
    1cb6: 4c e4 0e     	jmp	$ee4 <f256main+0x5d0>
    1cb9: 4c ff 27     	jmp	$27ff <f256main+0x1eeb>
    1cbc: 8a           	txa
    1cbd: 86 12        	stx	$12                     ; 0x2012 <f256main+0x16fe>
    1cbf: a6 16        	ldx	$16                     ; 0x2016 <f256main+0x1702>
    1cc1: 86 13        	stx	$13                     ; 0x2013 <f256main+0x16ff>
    1cc3: 18           	clc
    1cc4: 65 17        	adc	$17                     ; 0x2017 <f256main+0x1703>
    1cc6: a8           	tay
    1cc7: 8a           	txa
    1cc8: 65 18        	adc	$18                     ; 0x2018 <f256main+0x1704>
    1cca: aa           	tax
    1ccb: 98           	tya
    1ccc: 84 16        	sty	$16                     ; 0x2016 <f256main+0x1702>
    1cce: 86 17        	stx	$17                     ; 0x2017 <f256main+0x1703>
    1cd0: 18           	clc
    1cd1: 69 09        	adc	#$9
    1cd3: 85 18        	sta	$18                     ; 0x2018 <f256main+0x1704>
    1cd5: 8a           	txa
    1cd6: 69 00        	adc	#$0
    1cd8: 85 19        	sta	$19                     ; 0x2019 <f256main+0x1705>
    1cda: a0 01        	ldy	#$1
    1cdc: b1 18        	lda	($18),y                 ; 0x2018 <f256main+0x1704>
    1cde: 85 1a        	sta	$1a                     ; 0x201a <f256main+0x1706>
    1ce0: a5 2d        	lda	$2d                     ; 0x202d <f256main+0x1719>
    1ce2: 18           	clc
    1ce3: a0 09        	ldy	#$9
    1ce5: 71 16        	adc	($16),y                 ; 0x2016 <f256main+0x1702>
    1ce7: aa           	tax
    1ce8: a5 1a        	lda	$1a                     ; 0x201a <f256main+0x1706>
    1cea: 69 00        	adc	#$0
    1cec: 85 16        	sta	$16                     ; 0x2016 <f256main+0x1702>
    1cee: 18           	clc
    1cef: 8a           	txa
    1cf0: 69 fa        	adc	#$fa
    1cf2: aa           	tax
    1cf3: a5 16        	lda	$16                     ; 0x2016 <f256main+0x1702>
    1cf5: 69 ff        	adc	#$ff
    1cf7: 86 16        	stx	$16                     ; 0x2016 <f256main+0x1702>
    1cf9: 85 17        	sta	$17                     ; 0x2017 <f256main+0x1703>
    1cfb: b2 16        	lda	($16)                   ; 0x2016 <f256main+0x1702>
    1cfd: 1a           	inc
    1cfe: 92 16        	sta	($16)                   ; 0x2016 <f256main+0x1702>
    1d00: 88           	dey
    1d01: b1 14        	lda	($14),y                 ; 0x2014 <f256main+0x1700>
    1d03: a6 28        	ldx	$28                     ; 0x2028 <f256main+0x1714>
    1d05: 86 14        	stx	$14                     ; 0x2014 <f256main+0x1700>
    1d07: a6 29        	ldx	$29                     ; 0x2029 <f256main+0x1715>
    1d09: 86 15        	stx	$15                     ; 0x2015 <f256main+0x1701>
    1d0b: 48           	pha
    1d0c: a0 0a        	ldy	#$a
    1d0e: b1 10        	lda	($10),y                 ; 0x2010 <f256main+0x16fc>
    1d10: 85 16        	sta	$16                     ; 0x2016 <f256main+0x1702>
    1d12: c8           	iny
    1d13: b1 10        	lda	($10),y                 ; 0x2010 <f256main+0x16fc>
    1d15: 85 17        	sta	$17                     ; 0x2017 <f256main+0x1703>
    1d17: a0 08        	ldy	#$8
    1d19: b1 10        	lda	($10),y                 ; 0x2010 <f256main+0x16fc>
    1d1b: 85 18        	sta	$18                     ; 0x2018 <f256main+0x1704>
    1d1d: c8           	iny
    1d1e: b1 10        	lda	($10),y                 ; 0x2010 <f256main+0x16fc>
    1d20: 85 19        	sta	$19                     ; 0x2019 <f256main+0x1705>
    1d22: 68           	pla
    1d23: a6 2b        	ldx	$2b                     ; 0x202b <f256main+0x1717>
    1d25: 20 1b 42     	jsr	$421b <getBeatTrackNoteInfo>
    1d28: a6 4d        	ldx	$4d                     ; 0x204d <f256main+0x1739>
    1d2a: 86 1a        	stx	$1a                     ; 0x201a <f256main+0x1706>
    1d2c: a6 4e        	ldx	$4e                     ; 0x204e <f256main+0x173a>
    1d2e: 86 1b        	stx	$1b                     ; 0x201b <f256main+0x1707>
    1d30: a5 81        	lda	$81                     ; 0x2081 <f256main+0x176d>
    1d32: a6 82        	ldx	$82                     ; 0x2082 <f256main+0x176e>
    1d34: 85 14        	sta	$14                     ; 0x2014 <f256main+0x1700>
    1d36: 86 15        	stx	$15                     ; 0x2015 <f256main+0x1701>
    1d38: a0 08        	ldy	#$8
    1d3a: b1 14        	lda	($14),y                 ; 0x2014 <f256main+0x1700>
    1d3c: 85 12        	sta	$12                     ; 0x2012 <f256main+0x16fe>
    1d3e: 0a           	asl
    1d3f: aa           	tax
    1d40: a9 00        	lda	#$0
    1d42: 2a           	rol
    1d43: 86 13        	stx	$13                     ; 0x2013 <f256main+0x16ff>
    1d45: 06 13        	asl	$13                     ; 0x2013 <f256main+0x16ff>
    1d47: 2a           	rol
    1d48: 06 13        	asl	$13                     ; 0x2013 <f256main+0x16ff>
    1d4a: 2a           	rol
    1d4b: 06 13        	asl	$13                     ; 0x2013 <f256main+0x16ff>
    1d4d: 2a           	rol
    1d4e: aa           	tax
    1d4f: 38           	sec
    1d50: a5 13        	lda	$13                     ; 0x2013 <f256main+0x16ff>
    1d52: e5 12        	sbc	$12                     ; 0x2012 <f256main+0x16fe>
    1d54: 85 12        	sta	$12                     ; 0x2012 <f256main+0x16fe>
    1d56: 8a           	txa
    1d57: e9 00        	sbc	#$0
    1d59: a8           	tay
    1d5a: 18           	clc
    1d5b: a5 12        	lda	$12                     ; 0x2012 <f256main+0x16fe>
    1d5d: 65 4d        	adc	$4d                     ; 0x204d <f256main+0x1739>
    1d5f: aa           	tax
    1d60: 98           	tya
    1d61: 65 4e        	adc	$4e                     ; 0x204e <f256main+0x173a>
    1d63: 86 12        	stx	$12                     ; 0x2012 <f256main+0x16fe>
    1d65: 85 13        	sta	$13                     ; 0x2013 <f256main+0x16ff>
    1d67: a8           	tay
    1d68: 18           	clc
    1d69: 8a           	txa
    1d6a: 69 09        	adc	#$9
    1d6c: 85 16        	sta	$16                     ; 0x2016 <f256main+0x1702>
    1d6e: 98           	tya
    1d6f: 69 00        	adc	#$0
    1d71: 85 17        	sta	$17                     ; 0x2017 <f256main+0x1703>
    1d73: a0 01        	ldy	#$1
    1d75: b1 16        	lda	($16),y                 ; 0x2016 <f256main+0x1702>
    1d77: 85 16        	sta	$16                     ; 0x2016 <f256main+0x1702>
    1d79: a5 2d        	lda	$2d                     ; 0x202d <f256main+0x1719>
    1d7b: 18           	clc
    1d7c: a0 09        	ldy	#$9
    1d7e: 71 12        	adc	($12),y                 ; 0x2012 <f256main+0x16fe>
    1d80: aa           	tax
    1d81: a5 16        	lda	$16                     ; 0x2016 <f256main+0x1702>
    1d83: 69 00        	adc	#$0
    1d85: 85 12        	sta	$12                     ; 0x2012 <f256main+0x16fe>
    1d87: 18           	clc
    1d88: 8a           	txa
    1d89: 69 fa        	adc	#$fa
    1d8b: 85 16        	sta	$16                     ; 0x2016 <f256main+0x1702>
    1d8d: a5 12        	lda	$12                     ; 0x2012 <f256main+0x16fe>
    1d8f: 69 ff        	adc	#$ff
    1d91: 85 17        	sta	$17                     ; 0x2017 <f256main+0x1703>
    1d93: b2 16        	lda	($16)                   ; 0x2016 <f256main+0x1702>
    1d95: 48           	pha
    1d96: 88           	dey
    1d97: b1 10        	lda	($10),y                 ; 0x2010 <f256main+0x16fc>
    1d99: 85 18        	sta	$18                     ; 0x2018 <f256main+0x1704>
    1d9b: c8           	iny
    1d9c: b1 10        	lda	($10),y                 ; 0x2010 <f256main+0x16fc>
    1d9e: 85 19        	sta	$19                     ; 0x2019 <f256main+0x1705>
    1da0: 68           	pla
    1da1: a0 03        	ldy	#$3
    1da3: d1 18        	cmp	($18),y                 ; 0x2018 <f256main+0x1704>
    1da5: f0 03        	beq	$1daa <f256main+0x1496>
    1da7: 4c 59 1e     	jmp	$1e59 <f256main+0x1545>
    1daa: a6 1a        	ldx	$1a                     ; 0x201a <f256main+0x1706>
    1dac: 86 12        	stx	$12                     ; 0x2012 <f256main+0x16fe>
    1dae: a6 1b        	ldx	$1b                     ; 0x201b <f256main+0x1707>
    1db0: 86 13        	stx	$13                     ; 0x2013 <f256main+0x16ff>
    1db2: a9 00        	lda	#$0
    1db4: 92 16        	sta	($16)                   ; 0x2016 <f256main+0x1702>
    1db6: a0 08        	ldy	#$8
    1db8: b1 14        	lda	($14),y                 ; 0x2014 <f256main+0x1700>
    1dba: a6 28        	ldx	$28                     ; 0x2028 <f256main+0x1714>
    1dbc: 86 14        	stx	$14                     ; 0x2014 <f256main+0x1700>
    1dbe: a6 29        	ldx	$29                     ; 0x2029 <f256main+0x1715>
    1dc0: 86 15        	stx	$15                     ; 0x2015 <f256main+0x1701>
    1dc2: 48           	pha
    1dc3: a0 0a        	ldy	#$a
    1dc5: b1 10        	lda	($10),y                 ; 0x2010 <f256main+0x16fc>
    1dc7: 85 16        	sta	$16                     ; 0x2016 <f256main+0x1702>
    1dc9: c8           	iny
    1dca: b1 10        	lda	($10),y                 ; 0x2010 <f256main+0x16fc>
    1dcc: 85 17        	sta	$17                     ; 0x2017 <f256main+0x1703>
    1dce: 68           	pla
    1dcf: a6 16        	ldx	$16                     ; 0x2016 <f256main+0x1702>
    1dd1: 86 2e        	stx	$2e                     ; 0x202e <f256main+0x171a>
    1dd3: a6 17        	ldx	$17                     ; 0x2017 <f256main+0x1703>
    1dd5: 86 2f        	stx	$2f                     ; 0x202f <f256main+0x171b>
    1dd7: a6 2b        	ldx	$2b                     ; 0x202b <f256main+0x1717>
    1dd9: 20 1b 42     	jsr	$421b <getBeatTrackNoteInfo>
    1ddc: a6 81        	ldx	$81                     ; 0x2081 <f256main+0x176d>
    1dde: a4 82        	ldy	$82                     ; 0x2082 <f256main+0x176e>
    1de0: 86 14        	stx	$14                     ; 0x2014 <f256main+0x1700>
    1de2: 84 15        	sty	$15                     ; 0x2015 <f256main+0x1701>
    1de4: 4c 64 1e     	jmp	$1e64 <f256main+0x1550>
    1de7: a0 00        	ldy	#$0
    1de9: a9 20        	lda	#$20
    1deb: 84 37        	sty	$37                     ; 0x2037 <f256main+0x1723>
    1ded: e0 00        	cpx	#$0
    1def: f0 03        	beq	$1df4 <f256main+0x14e0>
    1df1: 4c 40 20     	jmp	$2040 <f256main+0x172c>
    1df4: a2 02        	ldx	#$2
    1df6: 86 01        	stx	$1                      ; 0x2001 <f256main+0x16ed>
    1df8: a0 c0        	ldy	#$c0
    1dfa: a2 00        	ldx	#$0
    1dfc: 86 12        	stx	$12                     ; 0x2012 <f256main+0x16fe>
    1dfe: 84 13        	sty	$13                     ; 0x2013 <f256main+0x16ff>
    1e00: 92 12        	sta	($12)                   ; 0x2012 <f256main+0x16fe>
    1e02: e8           	inx
    1e03: d0 01        	bne	$1e06 <f256main+0x14f2>
    1e05: c8           	iny
    1e06: c0 d2        	cpy	#$d2
    1e08: d0 f2        	bne	$1dfc <f256main+0x14e8>
    1e0a: e0 c0        	cpx	#$c0
    1e0c: d0 ee        	bne	$1dfc <f256main+0x14e8>
    1e0e: 64 01        	stz	$1                      ; 0x2001 <f256main+0x16ed>
    1e10: a6 81        	ldx	$81                     ; 0x2081 <f256main+0x176d>
    1e12: a4 82        	ldy	$82                     ; 0x2082 <f256main+0x176e>
    1e14: 86 12        	stx	$12                     ; 0x2012 <f256main+0x16fe>
    1e16: 84 13        	sty	$13                     ; 0x2013 <f256main+0x16ff>
    1e18: 20 f8 4d     	jsr	$4df8 <textTitle>
    1e1b: 4c e4 0e     	jmp	$ee4 <f256main+0x5d0>
    1e1e: a0 03        	ldy	#$3
    1e20: 85 15        	sta	$15                     ; 0x2015 <f256main+0x1701>
    1e22: a9 90        	lda	#$90
    1e24: 11 12        	ora	($12),y                 ; 0x2012 <f256main+0x16fe>
    1e26: 85 18        	sta	$18                     ; 0x2018 <f256main+0x1704>
    1e28: a6 14        	ldx	$14                     ; 0x2014 <f256main+0x1700>
    1e2a: bd 55 7a     	lda	$7a55,x                 ; 0x7a55 <KeyCodesToMIDINotes>
    1e2d: 80 0f        	bra	$1e3e <f256main+0x152a>
    1e2f: 85 15        	sta	$15                     ; 0x2015 <f256main+0x1701>
    1e31: a0 03        	ldy	#$3
    1e33: a9 90        	lda	#$90
    1e35: 11 12        	ora	($12),y                 ; 0x2012 <f256main+0x16fe>
    1e37: 85 18        	sta	$18                     ; 0x2018 <f256main+0x1704>
    1e39: 18           	clc
    1e3a: a9 15        	lda	#$15
    1e3c: 65 31        	adc	$31                     ; 0x2031 <f256main+0x171d>
    1e3e: aa           	tax
    1e3f: a0 02        	ldy	#$2
    1e41: b1 12        	lda	($12),y                 ; 0x2012 <f256main+0x16fe>
    1e43: 86 12        	stx	$12                     ; 0x2012 <f256main+0x16fe>
    1e45: 85 14        	sta	$14                     ; 0x2014 <f256main+0x1700>
    1e47: a2 7f        	ldx	#$7f
    1e49: 86 13        	stx	$13                     ; 0x2013 <f256main+0x16ff>
    1e4b: 64 16        	stz	$16                     ; 0x2016 <f256main+0x1702>
    1e4d: 64 17        	stz	$17                     ; 0x2017 <f256main+0x1703>
    1e4f: a6 18        	ldx	$18                     ; 0x2018 <f256main+0x1704>
    1e51: a9 01        	lda	#$1
    1e53: 20 67 3a     	jsr	$3a67 <dispatchNote>
    1e56: 4c e4 0e     	jmp	$ee4 <f256main+0x5d0>
    1e59: a0 0a        	ldy	#$a
    1e5b: b1 10        	lda	($10),y                 ; 0x2010 <f256main+0x16fc>
    1e5d: 85 2e        	sta	$2e                     ; 0x202e <f256main+0x171a>
    1e5f: c8           	iny
    1e60: b1 10        	lda	($10),y                 ; 0x2010 <f256main+0x16fc>
    1e62: 85 2f        	sta	$2f                     ; 0x202f <f256main+0x171b>
    1e64: b2 28        	lda	($28)                   ; 0x2028 <f256main+0x1714>
    1e66: a0 01        	ldy	#$1
    1e68: aa           	tax
    1e69: 30 03        	bmi	$1e6e <f256main+0x155a>
    1e6b: 4c df 1e     	jmp	$1edf <f256main+0x15cb>
    1e6e: a0 08        	ldy	#$8
    1e70: b1 14        	lda	($14),y                 ; 0x2014 <f256main+0x1700>
    1e72: 85 12        	sta	$12                     ; 0x2012 <f256main+0x16fe>
    1e74: 0a           	asl
    1e75: a8           	tay
    1e76: a9 00        	lda	#$0
    1e78: 2a           	rol
    1e79: 84 13        	sty	$13                     ; 0x2013 <f256main+0x16ff>
    1e7b: 06 13        	asl	$13                     ; 0x2013 <f256main+0x16ff>
    1e7d: 2a           	rol
    1e7e: 06 13        	asl	$13                     ; 0x2013 <f256main+0x16ff>
    1e80: 2a           	rol
    1e81: 06 13        	asl	$13                     ; 0x2013 <f256main+0x16ff>
    1e83: 2a           	rol
    1e84: a8           	tay
    1e85: 38           	sec
    1e86: a5 13        	lda	$13                     ; 0x2013 <f256main+0x16ff>
    1e88: e5 12        	sbc	$12                     ; 0x2012 <f256main+0x16fe>
    1e8a: 85 12        	sta	$12                     ; 0x2012 <f256main+0x16fe>
    1e8c: 98           	tya
    1e8d: e9 00        	sbc	#$0
    1e8f: 85 13        	sta	$13                     ; 0x2013 <f256main+0x16ff>
    1e91: 18           	clc
    1e92: a5 12        	lda	$12                     ; 0x2012 <f256main+0x16fe>
    1e94: 65 4d        	adc	$4d                     ; 0x204d <f256main+0x1739>
    1e96: a8           	tay
    1e97: a5 13        	lda	$13                     ; 0x2013 <f256main+0x16ff>
    1e99: 65 4e        	adc	$4e                     ; 0x204e <f256main+0x173a>
    1e9b: 84 12        	sty	$12                     ; 0x2012 <f256main+0x16fe>
    1e9d: 85 13        	sta	$13                     ; 0x2013 <f256main+0x16ff>
    1e9f: 85 17        	sta	$17                     ; 0x2017 <f256main+0x1703>
    1ea1: 18           	clc
    1ea2: 98           	tya
    1ea3: 69 0b        	adc	#$b
    1ea5: 85 16        	sta	$16                     ; 0x2016 <f256main+0x1702>
    1ea7: a5 17        	lda	$17                     ; 0x2017 <f256main+0x1703>
    1ea9: 69 00        	adc	#$0
    1eab: 85 17        	sta	$17                     ; 0x2017 <f256main+0x1703>
    1ead: a0 01        	ldy	#$1
    1eaf: b1 16        	lda	($16),y                 ; 0x2016 <f256main+0x1702>
    1eb1: 85 16        	sta	$16                     ; 0x2016 <f256main+0x1702>
    1eb3: 18           	clc
    1eb4: a0 0b        	ldy	#$b
    1eb6: a5 2d        	lda	$2d                     ; 0x202d <f256main+0x1719>
    1eb8: 71 12        	adc	($12),y                 ; 0x2012 <f256main+0x16fe>
    1eba: 85 13        	sta	$13                     ; 0x2013 <f256main+0x16ff>
    1ebc: a0 01        	ldy	#$1
    1ebe: a5 16        	lda	$16                     ; 0x2016 <f256main+0x1702>
    1ec0: 69 00        	adc	#$0
    1ec2: 85 12        	sta	$12                     ; 0x2012 <f256main+0x16fe>
    1ec4: 18           	clc
    1ec5: a5 13        	lda	$13                     ; 0x2013 <f256main+0x16ff>
    1ec7: 69 fa        	adc	#$fa
    1ec9: 85 16        	sta	$16                     ; 0x2016 <f256main+0x1702>
    1ecb: a5 12        	lda	$12                     ; 0x2012 <f256main+0x16fe>
    1ecd: 69 ff        	adc	#$ff
    1ecf: 5a           	phy
    1ed0: a4 16        	ldy	$16                     ; 0x2016 <f256main+0x1702>
    1ed2: 84 12        	sty	$12                     ; 0x2012 <f256main+0x16fe>
    1ed4: 7a           	ply
    1ed5: 85 13        	sta	$13                     ; 0x2013 <f256main+0x16ff>
    1ed7: b2 12        	lda	($12)                   ; 0x2012 <f256main+0x16fe>
    1ed9: d0 04        	bne	$1edf <f256main+0x15cb>
    1edb: a9 01        	lda	#$1
    1edd: 92 12        	sta	($12)                   ; 0x2012 <f256main+0x16fe>
    1edf: 5a           	phy
    1ee0: a0 08        	ldy	#$8
    1ee2: b1 10        	lda	($10),y                 ; 0x2010 <f256main+0x16fc>
    1ee4: 85 16        	sta	$16                     ; 0x2016 <f256main+0x1702>
    1ee6: c8           	iny
    1ee7: b1 10        	lda	($10),y                 ; 0x2010 <f256main+0x16fc>
    1ee9: 7a           	ply
    1eea: 85 17        	sta	$17                     ; 0x2017 <f256main+0x1703>
    1eec: b1 16        	lda	($16),y                 ; 0x2016 <f256main+0x1702>
    1eee: 85 19        	sta	$19                     ; 0x2019 <f256main+0x1705>
    1ef0: 8a           	txa
    1ef1: 29 7f        	and	#$7f
    1ef3: 85 18        	sta	$18                     ; 0x2018 <f256main+0x1704>
    1ef5: b2 16        	lda	($16)                   ; 0x2016 <f256main+0x1702>
    1ef7: a2 4c        	ldx	#$4c
    1ef9: 48           	pha
    1efa: a5 2e        	lda	$2e                     ; 0x202e <f256main+0x171a>
    1efc: a0 0a        	ldy	#$a
    1efe: 91 10        	sta	($10),y                 ; 0x2010 <f256main+0x16fc>
    1f00: a5 2f        	lda	$2f                     ; 0x202f <f256main+0x171b>
    1f02: c8           	iny
    1f03: 91 10        	sta	($10),y                 ; 0x2010 <f256main+0x16fc>
    1f05: 68           	pla
    1f06: a0 b7        	ldy	#$b7
    1f08: 84 28        	sty	$28                     ; 0x2028 <f256main+0x1714>
    1f0a: a0 8c        	ldy	#$8c
    1f0c: 84 29        	sty	$29                     ; 0x2029 <f256main+0x1715>
    1f0e: 85 16        	sta	$16                     ; 0x2016 <f256main+0x1702>
    1f10: c9 02        	cmp	#$2
    1f12: f0 02        	beq	$1f16 <f256main+0x1602>
    1f14: a2 7f        	ldx	#$7f
    1f16: a0 02        	ldy	#$2
    1f18: b1 14        	lda	($14),y                 ; 0x2014 <f256main+0x1700>
    1f1a: 85 1a        	sta	$1a                     ; 0x201a <f256main+0x1706>
    1f1c: 5a           	phy
    1f1d: a0 08        	ldy	#$8
    1f1f: b1 10        	lda	($10),y                 ; 0x2010 <f256main+0x16fc>
    1f21: 85 12        	sta	$12                     ; 0x2012 <f256main+0x16fe>
    1f23: c8           	iny
    1f24: b1 10        	lda	($10),y                 ; 0x2010 <f256main+0x16fc>
    1f26: 7a           	ply
    1f27: 85 13        	sta	$13                     ; 0x2013 <f256main+0x16ff>
    1f29: b1 12        	lda	($12),y                 ; 0x2012 <f256main+0x16fe>
    1f2b: 85 17        	sta	$17                     ; 0x2017 <f256main+0x1703>
    1f2d: a4 18        	ldy	$18                     ; 0x2018 <f256main+0x1704>
    1f2f: 84 12        	sty	$12                     ; 0x2012 <f256main+0x16fe>
    1f31: 86 13        	stx	$13                     ; 0x2013 <f256main+0x16ff>
    1f33: a6 1a        	ldx	$1a                     ; 0x201a <f256main+0x1706>
    1f35: 86 14        	stx	$14                     ; 0x2014 <f256main+0x1700>
    1f37: a6 16        	ldx	$16                     ; 0x2016 <f256main+0x1702>
    1f39: 86 15        	stx	$15                     ; 0x2015 <f256main+0x1701>
    1f3b: a9 01        	lda	#$1
    1f3d: 85 16        	sta	$16                     ; 0x2016 <f256main+0x1702>
    1f3f: a6 19        	ldx	$19                     ; 0x2019 <f256main+0x1705>
    1f41: 20 67 3a     	jsr	$3a67 <dispatchNote>
    1f44: a6 81        	ldx	$81                     ; 0x2081 <f256main+0x176d>
    1f46: a4 82        	ldy	$82                     ; 0x2082 <f256main+0x176e>
    1f48: 86 12        	stx	$12                     ; 0x2012 <f256main+0x16fe>
    1f4a: 84 13        	sty	$13                     ; 0x2013 <f256main+0x16ff>
    1f4c: a0 08        	ldy	#$8
    1f4e: b1 12        	lda	($12),y                 ; 0x2012 <f256main+0x16fe>
    1f50: 85 12        	sta	$12                     ; 0x2012 <f256main+0x16fe>
    1f52: 0a           	asl
    1f53: aa           	tax
    1f54: a9 00        	lda	#$0
    1f56: 2a           	rol
    1f57: 86 13        	stx	$13                     ; 0x2013 <f256main+0x16ff>
    1f59: 06 13        	asl	$13                     ; 0x2013 <f256main+0x16ff>
    1f5b: 2a           	rol
    1f5c: 06 13        	asl	$13                     ; 0x2013 <f256main+0x16ff>
    1f5e: 2a           	rol
    1f5f: 06 13        	asl	$13                     ; 0x2013 <f256main+0x16ff>
    1f61: 2a           	rol
    1f62: aa           	tax
    1f63: 38           	sec
    1f64: a5 13        	lda	$13                     ; 0x2013 <f256main+0x16ff>
    1f66: e5 12        	sbc	$12                     ; 0x2012 <f256main+0x16fe>
    1f68: 85 12        	sta	$12                     ; 0x2012 <f256main+0x16fe>
    1f6a: 8a           	txa
    1f6b: e9 00        	sbc	#$0
    1f6d: aa           	tax
    1f6e: 18           	clc
    1f6f: a5 12        	lda	$12                     ; 0x2012 <f256main+0x16fe>
    1f71: 65 4d        	adc	$4d                     ; 0x204d <f256main+0x1739>
    1f73: 85 12        	sta	$12                     ; 0x2012 <f256main+0x16fe>
    1f75: 8a           	txa
    1f76: 65 4e        	adc	$4e                     ; 0x204e <f256main+0x173a>
    1f78: 85 13        	sta	$13                     ; 0x2013 <f256main+0x16ff>
    1f7a: a0 02        	ldy	#$2
    1f7c: b1 12        	lda	($12),y                 ; 0x2012 <f256main+0x16fe>
    1f7e: 1a           	inc
    1f7f: 91 12        	sta	($12),y                 ; 0x2012 <f256main+0x16fe>
    1f81: a2 80        	ldx	#$80
    1f83: 86 f3        	stx	$f3                     ; 0x20f3 <f256main+0x17df>
    1f85: 18           	clc
    1f86: a5 10        	lda	$10                     ; 0x2010 <f256main+0x16fc>
    1f88: 69 20        	adc	#$20
    1f8a: 85 12        	sta	$12                     ; 0x2012 <f256main+0x16fe>
    1f8c: a5 11        	lda	$11                     ; 0x2011 <f256main+0x16fd>
    1f8e: 69 00        	adc	#$0
    1f90: 85 13        	sta	$13                     ; 0x2013 <f256main+0x16ff>
    1f92: 20 f0 ff     	jsr	$fff0 <__heap_start+0x7334>
    1f95: 92 12        	sta	($12)                   ; 0x2012 <f256main+0x16fe>
    1f97: a9 00        	lda	#$0
    1f99: 6a           	ror
    1f9a: 85 28        	sta	$28                     ; 0x2028 <f256main+0x1714>
    1f9c: b2 12        	lda	($12)                   ; 0x2012 <f256main+0x16fe>
    1f9e: 85 12        	sta	$12                     ; 0x2012 <f256main+0x16fe>
    1fa0: a0 0a        	ldy	#$a
    1fa2: b1 10        	lda	($10),y                 ; 0x2010 <f256main+0x16fc>
    1fa4: 85 14        	sta	$14                     ; 0x2014 <f256main+0x1700>
    1fa6: c8           	iny
    1fa7: b1 10        	lda	($10),y                 ; 0x2010 <f256main+0x16fc>
    1fa9: 85 15        	sta	$15                     ; 0x2015 <f256main+0x1701>
    1fab: b2 14        	lda	($14)                   ; 0x2014 <f256main+0x1700>
    1fad: aa           	tax
    1fae: 18           	clc
    1faf: a5 12        	lda	$12                     ; 0x2012 <f256main+0x16fe>
    1fb1: 75 3b        	adc	$3b,x                   ; 0x203b <f256main+0x1727>
    1fb3: 85 18        	sta	$18                     ; 0x2018 <f256main+0x1704>
    1fb5: a6 81        	ldx	$81                     ; 0x2081 <f256main+0x176d>
    1fb7: a4 82        	ldy	$82                     ; 0x2082 <f256main+0x176e>
    1fb9: 86 12        	stx	$12                     ; 0x2012 <f256main+0x16fe>
    1fbb: 84 13        	sty	$13                     ; 0x2013 <f256main+0x16ff>
    1fbd: a0 08        	ldy	#$8
    1fbf: b1 12        	lda	($12),y                 ; 0x2012 <f256main+0x16fe>
    1fc1: 85 12        	sta	$12                     ; 0x2012 <f256main+0x16fe>
    1fc3: 0a           	asl
    1fc4: aa           	tax
    1fc5: a9 00        	lda	#$0
    1fc7: 2a           	rol
    1fc8: 86 13        	stx	$13                     ; 0x2013 <f256main+0x16ff>
    1fca: 06 13        	asl	$13                     ; 0x2013 <f256main+0x16ff>
    1fcc: 2a           	rol
    1fcd: 06 13        	asl	$13                     ; 0x2013 <f256main+0x16ff>
    1fcf: 2a           	rol
    1fd0: 06 13        	asl	$13                     ; 0x2013 <f256main+0x16ff>
    1fd2: 2a           	rol
    1fd3: aa           	tax
    1fd4: 38           	sec
    1fd5: a5 13        	lda	$13                     ; 0x2013 <f256main+0x16ff>
    1fd7: e5 12        	sbc	$12                     ; 0x2012 <f256main+0x16fe>
    1fd9: 85 12        	sta	$12                     ; 0x2012 <f256main+0x16fe>
    1fdb: 8a           	txa
    1fdc: e9 00        	sbc	#$0
    1fde: a8           	tay
    1fdf: 18           	clc
    1fe0: a5 12        	lda	$12                     ; 0x2012 <f256main+0x16fe>
    1fe2: 65 4d        	adc	$4d                     ; 0x204d <f256main+0x1739>
    1fe4: aa           	tax
    1fe5: 98           	tya
    1fe6: 65 4e        	adc	$4e                     ; 0x204e <f256main+0x173a>
    1fe8: 86 12        	stx	$12                     ; 0x2012 <f256main+0x16fe>
    1fea: 85 13        	sta	$13                     ; 0x2013 <f256main+0x16ff>
    1fec: a8           	tay
    1fed: 18           	clc
    1fee: 8a           	txa
    1fef: 69 0d        	adc	#$d
    1ff1: 85 14        	sta	$14                     ; 0x2014 <f256main+0x1700>
    1ff3: 98           	tya
    1ff4: 69 00        	adc	#$0
    1ff6: 85 15        	sta	$15                     ; 0x2015 <f256main+0x1701>
    1ff8: 18           	clc
    1ff9: a0 0e        	ldy	#$e
    1ffb: b1 10        	lda	($10),y                 ; 0x2010 <f256main+0x16fc>
    1ffd: 65 2b        	adc	$2b                     ; 0x202b <f256main+0x1717>
    1fff: aa           	tax
    2000: 88           	dey
    2001: b1 10        	lda	($10),y                 ; 0x2010 <f256main+0x16fc>
    2003: 65 2c        	adc	$2c                     ; 0x202c <f256main+0x1718>
    2005: 85 16        	sta	$16                     ; 0x2016 <f256main+0x1702>
    2007: 18           	clc
    2008: 8a           	txa
    2009: 71 12        	adc	($12),y                 ; 0x2012 <f256main+0x16fe>
    200b: 85 12        	sta	$12                     ; 0x2012 <f256main+0x16fe>
    200d: a0 01        	ldy	#$1
    200f: a5 16        	lda	$16                     ; 0x2016 <f256main+0x1702>
    2011: 71 14        	adc	($14),y                 ; 0x2014 <f256main+0x1700>
    2013: 85 13        	sta	$13                     ; 0x2013 <f256main+0x16ff>
    2015: a5 18        	lda	$18                     ; 0x2018 <f256main+0x1704>
    2017: 91 12        	sta	($12),y                 ; 0x2012 <f256main+0x16fe>
    2019: b2 12        	lda	($12)                   ; 0x2012 <f256main+0x16fe>
    201b: 85 f3        	sta	$f3                     ; 0x20f3 <f256main+0x17df>
    201d: b1 12        	lda	($12),y                 ; 0x2012 <f256main+0x16fe>
    201f: 85 f4        	sta	$f4                     ; 0x20f4 <f256main+0x17e0>
    2021: c8           	iny
    2022: b1 12        	lda	($12),y                 ; 0x2012 <f256main+0x16fe>
    2024: 85 f5        	sta	$f5                     ; 0x20f5 <f256main+0x17e1>
    2026: 18           	clc
    2027: a5 10        	lda	$10                     ; 0x2010 <f256main+0x16fc>
    2029: 69 21        	adc	#$21
    202b: 85 12        	sta	$12                     ; 0x2012 <f256main+0x16fe>
    202d: a5 11        	lda	$11                     ; 0x2011 <f256main+0x16fd>
    202f: 69 00        	adc	#$0
    2031: 85 13        	sta	$13                     ; 0x2013 <f256main+0x16ff>
    2033: 20 f0 ff     	jsr	$fff0 <__heap_start+0x7334>
    2036: 92 12        	sta	($12)                   ; 0x2012 <f256main+0x16fe>
    2038: a9 00        	lda	#$0
    203a: 6a           	ror
    203b: 85 28        	sta	$28                     ; 0x2028 <f256main+0x1714>
    203d: 4c e4 0e     	jmp	$ee4 <f256main+0x5d0>
    2040: a6 81        	ldx	$81                     ; 0x2081 <f256main+0x176d>
    2042: a4 82        	ldy	$82                     ; 0x2082 <f256main+0x176e>
    2044: 86 2c        	stx	$2c                     ; 0x202c <f256main+0x1718>
    2046: 84 2d        	sty	$2d                     ; 0x202d <f256main+0x1719>
    2048: a0 06        	ldy	#$6
    204a: b1 2c        	lda	($2c),y                 ; 0x202c <f256main+0x1718>
    204c: a0 02        	ldy	#$2
    204e: aa           	tax
    204f: f0 03        	beq	$2054 <f256main+0x1740>
    2051: 4c bd 20     	jmp	$20bd <f256main+0x17a9>
    2054: b1 2c        	lda	($2c),y                 ; 0x202c <f256main+0x1718>
    2056: a2 a1        	ldx	#$a1
    2058: 86 12        	stx	$12                     ; 0x2012 <f256main+0x16fe>
    205a: a2 dd        	ldx	#$dd
    205c: 86 13        	stx	$13                     ; 0x2013 <f256main+0x16ff>
    205e: aa           	tax
    205f: f0 08        	beq	$2069 <f256main+0x1755>
    2061: a2 b1        	ldx	#$b1
    2063: 86 12        	stx	$12                     ; 0x2012 <f256main+0x16fe>
    2065: a2 dd        	ldx	#$dd
    2067: 86 13        	stx	$13                     ; 0x2013 <f256main+0x16ff>
    2069: a9 b0        	lda	#$b0
    206b: 92 12        	sta	($12)                   ; 0x2012 <f256main+0x16fe>
    206d: a9 7b        	lda	#$7b
    206f: 92 12        	sta	($12)                   ; 0x2012 <f256main+0x16fe>
    2071: a9 00        	lda	#$0
    2073: 92 12        	sta	($12)                   ; 0x2012 <f256main+0x16fe>
    2075: b1 2c        	lda	($2c),y                 ; 0x202c <f256main+0x1718>
    2077: a2 a1        	ldx	#$a1
    2079: 86 12        	stx	$12                     ; 0x2012 <f256main+0x16fe>
    207b: a2 dd        	ldx	#$dd
    207d: 86 13        	stx	$13                     ; 0x2013 <f256main+0x16ff>
    207f: aa           	tax
    2080: f0 08        	beq	$208a <f256main+0x1776>
    2082: a2 b1        	ldx	#$b1
    2084: 86 12        	stx	$12                     ; 0x2012 <f256main+0x16fe>
    2086: a2 dd        	ldx	#$dd
    2088: 86 13        	stx	$13                     ; 0x2013 <f256main+0x16ff>
    208a: a9 b1        	lda	#$b1
    208c: 92 12        	sta	($12)                   ; 0x2012 <f256main+0x16fe>
    208e: a9 7b        	lda	#$7b
    2090: 92 12        	sta	($12)                   ; 0x2012 <f256main+0x16fe>
    2092: a9 00        	lda	#$0
    2094: 92 12        	sta	($12)                   ; 0x2012 <f256main+0x16fe>
    2096: b1 2c        	lda	($2c),y                 ; 0x202c <f256main+0x1718>
    2098: a2 a1        	ldx	#$a1
    209a: 86 12        	stx	$12                     ; 0x2012 <f256main+0x16fe>
    209c: a2 dd        	ldx	#$dd
    209e: 86 13        	stx	$13                     ; 0x2013 <f256main+0x16ff>
    20a0: aa           	tax
    20a1: f0 08        	beq	$20ab <f256main+0x1797>
    20a3: a2 b1        	ldx	#$b1
    20a5: 86 12        	stx	$12                     ; 0x2012 <f256main+0x16fe>
    20a7: a2 dd        	ldx	#$dd
    20a9: 86 13        	stx	$13                     ; 0x2013 <f256main+0x16ff>
    20ab: a9 b9        	lda	#$b9
    20ad: 92 12        	sta	($12)                   ; 0x2012 <f256main+0x16fe>
    20af: a9 7b        	lda	#$7b
    20b1: 92 12        	sta	($12)                   ; 0x2012 <f256main+0x16fe>
    20b3: a9 00        	lda	#$0
    20b5: 92 12        	sta	($12)                   ; 0x2012 <f256main+0x16fe>
    20b7: a0 06        	ldy	#$6
    20b9: b1 2c        	lda	($2c),y                 ; 0x202c <f256main+0x1718>
    20bb: a0 02        	ldy	#$2
    20bd: c9 01        	cmp	#$1
    20bf: d0 36        	bne	$20f7 <f256main+0x17e3>
    20c1: ad 04 d4     	lda	$d404                   ; 0xd404 <__heap_start+0x4748>
    20c4: 29 fe        	and	#$fe
    20c6: 8d 04 d4     	sta	$d404                   ; 0xd404 <__heap_start+0x4748>
    20c9: ad 0b d4     	lda	$d40b                   ; 0xd40b <__heap_start+0x474f>
    20cc: 29 fe        	and	#$fe
    20ce: 8d 0b d4     	sta	$d40b                   ; 0xd40b <__heap_start+0x474f>
    20d1: ad 12 d4     	lda	$d412                   ; 0xd412 <__heap_start+0x4756>
    20d4: 29 fe        	and	#$fe
    20d6: 8d 12 d4     	sta	$d412                   ; 0xd412 <__heap_start+0x4756>
    20d9: ad 04 d5     	lda	$d504                   ; 0xd504 <__heap_start+0x4848>
    20dc: 29 fe        	and	#$fe
    20de: 8d 04 d5     	sta	$d504                   ; 0xd504 <__heap_start+0x4848>
    20e1: ad 0b d5     	lda	$d50b                   ; 0xd50b <__heap_start+0x484f>
    20e4: 29 fe        	and	#$fe
    20e6: 8d 0b d5     	sta	$d50b                   ; 0xd50b <__heap_start+0x484f>
    20e9: ad 12 d5     	lda	$d512                   ; 0xd512 <__heap_start+0x4856>
    20ec: 29 fe        	and	#$fe
    20ee: 8d 12 d5     	sta	$d512                   ; 0xd512 <__heap_start+0x4856>
    20f1: a0 06        	ldy	#$6
    20f3: b1 2c        	lda	($2c),y                 ; 0x202c <f256main+0x1718>
    20f5: a0 02        	ldy	#$2
    20f7: c9 03        	cmp	#$3
    20f9: d0 0d        	bne	$2108 <f256main+0x17f4>
    20fb: a2 b0        	ldx	#$b0
    20fd: 8e 80 d5     	stx	$d580                   ; 0xd580 <__heap_start+0x48c4>
    2100: 9c 81 d5     	stz	$d581                   ; 0xd581 <__heap_start+0x48c5>
    2103: e8           	inx
    2104: e0 b9        	cpx	#$b9
    2106: d0 f5        	bne	$20fd <f256main+0x17e9>
    2108: 84 01        	sty	$1                      ; 0x2001 <f256main+0x16ed>
    210a: a2 c0        	ldx	#$c0
    210c: a0 00        	ldy	#$0
    210e: a9 20        	lda	#$20
    2110: 84 12        	sty	$12                     ; 0x2012 <f256main+0x16fe>
    2112: 86 13        	stx	$13                     ; 0x2013 <f256main+0x16ff>
    2114: 92 12        	sta	($12)                   ; 0x2012 <f256main+0x16fe>
    2116: c8           	iny
    2117: d0 01        	bne	$211a <f256main+0x1806>
    2119: e8           	inx
    211a: e0 d2        	cpx	#$d2
    211c: d0 f2        	bne	$2110 <f256main+0x17fc>
    211e: c0 c0        	cpy	#$c0
    2120: d0 ee        	bne	$2110 <f256main+0x17fc>
    2122: 64 01        	stz	$1                      ; 0x2001 <f256main+0x16ed>
    2124: a2 90        	ldx	#$90
    2126: 86 30        	stx	$30                     ; 0x2030 <f256main+0x171c>
    2128: a0 06        	ldy	#$6
    212a: b1 2c        	lda	($2c),y                 ; 0x202c <f256main+0x1718>
    212c: a2 02        	ldx	#$2
    212e: 48           	pha
    212f: a5 2c        	lda	$2c                     ; 0x202c <f256main+0x1718>
    2131: a0 04        	ldy	#$4
    2133: 91 10        	sta	($10),y                 ; 0x2010 <f256main+0x16fc>
    2135: a5 2d        	lda	$2d                     ; 0x202d <f256main+0x1719>
    2137: c8           	iny
    2138: 91 10        	sta	($10),y                 ; 0x2010 <f256main+0x16fc>
    213a: 68           	pla
    213b: f0 03        	beq	$2140 <f256main+0x182c>
    213d: 4c ee 22     	jmp	$22ee <f256main+0x19da>
    2140: 64 2b        	stz	$2b                     ; 0x202b <f256main+0x1717>
    2142: 64 33        	stz	$33                     ; 0x2033 <f256main+0x171f>
    2144: 9c 14 d0     	stz	$d014                   ; 0xd014 <__heap_start+0x4358>
    2147: 9c 15 d0     	stz	$d015                   ; 0xd015 <__heap_start+0x4359>
    214a: 64 34        	stz	$34                     ; 0x2034 <f256main+0x1720>
    214c: 9c 16 d0     	stz	$d016                   ; 0xd016 <__heap_start+0x435a>
    214f: 9c 17 d0     	stz	$d017                   ; 0xd017 <__heap_start+0x435b>
    2152: a2 5b        	ldx	#$5b
    2154: 86 12        	stx	$12                     ; 0x2012 <f256main+0x16fe>
    2156: a2 7e        	ldx	#$7e
    2158: 86 13        	stx	$13                     ; 0x2013 <f256main+0x16ff>
    215a: 20 c7 2e     	jsr	$2ec7 <textPrint>
    215d: a0 03        	ldy	#$3
    215f: b1 2c        	lda	($2c),y                 ; 0x202c <f256main+0x1718>
    2161: 92 10        	sta	($10)                   ; 0x2010 <f256main+0x16fc>
    2163: a9 00        	lda	#$0
    2165: a0 01        	ldy	#$1
    2167: 91 10        	sta	($10),y                 ; 0x2010 <f256main+0x16fc>
    2169: a2 41        	ldx	#$41
    216b: 86 12        	stx	$12                     ; 0x2012 <f256main+0x16fe>
    216d: a2 83        	ldx	#$83
    216f: 86 13        	stx	$13                     ; 0x2013 <f256main+0x16ff>
    2171: 20 27 56     	jsr	$5627 <printf>
    2174: a2 07        	ldx	#$7
    2176: 86 12        	stx	$12                     ; 0x2012 <f256main+0x16fe>
    2178: a2 7c        	ldx	#$7c
    217a: 86 13        	stx	$13                     ; 0x2013 <f256main+0x16ff>
    217c: 20 c7 2e     	jsr	$2ec7 <textPrint>
    217f: a2 50        	ldx	#$50
    2181: 86 30        	stx	$30                     ; 0x2030 <f256main+0x171c>
    2183: a2 82        	ldx	#$82
    2185: 8a           	txa
    2186: a0 0d        	ldy	#$d
    2188: 91 10        	sta	($10),y                 ; 0x2010 <f256main+0x16fc>
    218a: a2 01        	ldx	#$1
    218c: 8a           	txa
    218d: 88           	dey
    218e: 91 10        	sta	($10),y                 ; 0x2010 <f256main+0x16fc>
    2190: a2 29        	ldx	#$29
    2192: 86 12        	stx	$12                     ; 0x2012 <f256main+0x16fe>
    2194: a2 7b        	ldx	#$7b
    2196: 86 13        	stx	$13                     ; 0x2013 <f256main+0x16ff>
    2198: a5 12        	lda	$12                     ; 0x2012 <f256main+0x16fe>
    219a: a0 0e        	ldy	#$e
    219c: 91 10        	sta	($10),y                 ; 0x2010 <f256main+0x16fc>
    219e: a5 13        	lda	$13                     ; 0x2013 <f256main+0x16ff>
    21a0: c8           	iny
    21a1: 4c 17 22     	jmp	$2217 <f256main+0x1903>
    21a4: b1 10        	lda	($10),y                 ; 0x2010 <f256main+0x16fc>
    21a6: 85 2c        	sta	$2c                     ; 0x202c <f256main+0x1718>
    21a8: 49 80        	eor	#$80
    21aa: a2 34        	ldx	#$34
    21ac: 86 33        	stx	$33                     ; 0x2033 <f256main+0x171f>
    21ae: 8e 14 d0     	stx	$d014                   ; 0xd014 <__heap_start+0x4358>
    21b1: 9c 15 d0     	stz	$d015                   ; 0xd015 <__heap_start+0x4359>
    21b4: 48           	pha
    21b5: a0 0c        	ldy	#$c
    21b7: b1 10        	lda	($10),y                 ; 0x2010 <f256main+0x16fc>
    21b9: aa           	tax
    21ba: 68           	pla
    21bb: 86 34        	stx	$34                     ; 0x2034 <f256main+0x1720>
    21bd: 8e 16 d0     	stx	$d016                   ; 0xd016 <__heap_start+0x435a>
    21c0: 86 2d        	stx	$2d                     ; 0x202d <f256main+0x1719>
    21c2: 9c 17 d0     	stz	$d017                   ; 0xd017 <__heap_start+0x435b>
    21c5: a6 2b        	ldx	$2b                     ; 0x202b <f256main+0x1717>
    21c7: bc 81 8b     	ldy	$8b81,x                 ; 0x8b81 <midi_instruments+0x4>
    21ca: 84 14        	sty	$14                     ; 0x2014 <f256main+0x1700>
    21cc: 48           	pha
    21cd: bd 82 8b     	lda	$8b82,x                 ; 0x8b82 <midi_instruments+0x5>
    21d0: aa           	tax
    21d1: 68           	pla
    21d2: 86 15        	stx	$15                     ; 0x2015 <f256main+0x1701>
    21d4: a6 10        	ldx	$10                     ; 0x2010 <f256main+0x16fc>
    21d6: 92 10        	sta	($10)                   ; 0x2010 <f256main+0x16fc>
    21d8: a9 00        	lda	#$0
    21da: a0 01        	ldy	#$1
    21dc: 91 10        	sta	($10),y                 ; 0x2010 <f256main+0x16fc>
    21de: 18           	clc
    21df: 8a           	txa
    21e0: 69 02        	adc	#$2
    21e2: 85 12        	sta	$12                     ; 0x2012 <f256main+0x16fe>
    21e4: a5 11        	lda	$11                     ; 0x2011 <f256main+0x16fd>
    21e6: 69 00        	adc	#$0
    21e8: 85 13        	sta	$13                     ; 0x2013 <f256main+0x16ff>
    21ea: c8           	iny
    21eb: a5 14        	lda	$14                     ; 0x2014 <f256main+0x1700>
    21ed: 91 10        	sta	($10),y                 ; 0x2010 <f256main+0x16fc>
    21ef: a5 15        	lda	$15                     ; 0x2015 <f256main+0x1701>
    21f1: 88           	dey
    21f2: 91 12        	sta	($12),y                 ; 0x2012 <f256main+0x16fe>
    21f4: a0 0e        	ldy	#$e
    21f6: b1 10        	lda	($10),y                 ; 0x2010 <f256main+0x16fc>
    21f8: 85 12        	sta	$12                     ; 0x2012 <f256main+0x16fe>
    21fa: c8           	iny
    21fb: b1 10        	lda	($10),y                 ; 0x2010 <f256main+0x16fc>
    21fd: 85 13        	sta	$13                     ; 0x2013 <f256main+0x16ff>
    21ff: 20 27 56     	jsr	$5627 <printf>
    2202: e6 2d        	inc	$2d                     ; 0x202d <f256main+0x1719>
    2204: a5 2d        	lda	$2d                     ; 0x202d <f256main+0x1719>
    2206: a0 0c        	ldy	#$c
    2208: 91 10        	sta	($10),y                 ; 0x2010 <f256main+0x16fc>
    220a: 18           	clc
    220b: a5 2b        	lda	$2b                     ; 0x202b <f256main+0x1717>
    220d: 69 06        	adc	#$6
    220f: 85 2b        	sta	$2b                     ; 0x202b <f256main+0x1717>
    2211: 18           	clc
    2212: a5 2c        	lda	$2c                     ; 0x202c <f256main+0x1718>
    2214: 69 03        	adc	#$3
    2216: c8           	iny
    2217: 91 10        	sta	($10),y                 ; 0x2010 <f256main+0x16fc>
    2219: 18           	clc
    221a: a0 0d        	ldy	#$d
    221c: b1 10        	lda	($10),y                 ; 0x2010 <f256main+0x16fc>
    221e: 85 2e        	sta	$2e                     ; 0x202e <f256main+0x171a>
    2220: 69 7e        	adc	#$7e
    2222: a2 02        	ldx	#$2
    2224: 86 33        	stx	$33                     ; 0x2033 <f256main+0x171f>
    2226: 8e 14 d0     	stx	$d014                   ; 0xd014 <__heap_start+0x4358>
    2229: 9c 15 d0     	stz	$d015                   ; 0xd015 <__heap_start+0x4359>
    222c: 48           	pha
    222d: 88           	dey
    222e: b1 10        	lda	($10),y                 ; 0x2010 <f256main+0x16fc>
    2230: aa           	tax
    2231: 68           	pla
    2232: 86 34        	stx	$34                     ; 0x2034 <f256main+0x1720>
    2234: 8e 16 d0     	stx	$d016                   ; 0xd016 <__heap_start+0x435a>
    2237: 86 24        	stx	$24                     ; 0x2024 <f256main+0x1710>
    2239: 9c 17 d0     	stz	$d017                   ; 0xd017 <__heap_start+0x435b>
    223c: a6 2b        	ldx	$2b                     ; 0x202b <f256main+0x1717>
    223e: bc 7d 8b     	ldy	$8b7d,x                 ; 0x8b7d <midi_instruments>
    2241: 84 14        	sty	$14                     ; 0x2014 <f256main+0x1700>
    2243: bc 7e 8b     	ldy	$8b7e,x                 ; 0x8b7e <midi_instruments+0x1>
    2246: 84 15        	sty	$15                     ; 0x2015 <f256main+0x1701>
    2248: 86 2f        	stx	$2f                     ; 0x202f <f256main+0x171b>
    224a: a6 10        	ldx	$10                     ; 0x2010 <f256main+0x16fc>
    224c: 92 10        	sta	($10)                   ; 0x2010 <f256main+0x16fc>
    224e: a0 01        	ldy	#$1
    2250: a9 00        	lda	#$0
    2252: 91 10        	sta	($10),y                 ; 0x2010 <f256main+0x16fc>
    2254: 18           	clc
    2255: 8a           	txa
    2256: 69 02        	adc	#$2
    2258: aa           	tax
    2259: a5 11        	lda	$11                     ; 0x2011 <f256main+0x16fd>
    225b: 69 00        	adc	#$0
    225d: 86 12        	stx	$12                     ; 0x2012 <f256main+0x16fe>
    225f: 85 13        	sta	$13                     ; 0x2013 <f256main+0x16ff>
    2261: c8           	iny
    2262: a5 14        	lda	$14                     ; 0x2014 <f256main+0x1700>
    2264: 91 10        	sta	($10),y                 ; 0x2010 <f256main+0x16fc>
    2266: a5 15        	lda	$15                     ; 0x2015 <f256main+0x1701>
    2268: 88           	dey
    2269: 91 12        	sta	($12),y                 ; 0x2012 <f256main+0x16fe>
    226b: a0 0e        	ldy	#$e
    226d: b1 10        	lda	($10),y                 ; 0x2010 <f256main+0x16fc>
    226f: 85 2c        	sta	$2c                     ; 0x202c <f256main+0x1718>
    2271: c8           	iny
    2272: b1 10        	lda	($10),y                 ; 0x2010 <f256main+0x16fc>
    2274: 85 2d        	sta	$2d                     ; 0x202d <f256main+0x1719>
    2276: a6 2c        	ldx	$2c                     ; 0x202c <f256main+0x1718>
    2278: 86 12        	stx	$12                     ; 0x2012 <f256main+0x16fe>
    227a: 85 13        	sta	$13                     ; 0x2013 <f256main+0x16ff>
    227c: 20 27 56     	jsr	$5627 <printf>
    227f: a2 1b        	ldx	#$1b
    2281: 86 33        	stx	$33                     ; 0x2033 <f256main+0x171f>
    2283: 8e 14 d0     	stx	$d014                   ; 0xd014 <__heap_start+0x4358>
    2286: 9c 15 d0     	stz	$d015                   ; 0xd015 <__heap_start+0x4359>
    2289: a6 24        	ldx	$24                     ; 0x2024 <f256main+0x1710>
    228b: 86 34        	stx	$34                     ; 0x2034 <f256main+0x1720>
    228d: 8e 16 d0     	stx	$d016                   ; 0xd016 <__heap_start+0x435a>
    2290: 9c 17 d0     	stz	$d017                   ; 0xd017 <__heap_start+0x435b>
    2293: 18           	clc
    2294: a5 2e        	lda	$2e                     ; 0x202e <f256main+0x171a>
    2296: 69 7f        	adc	#$7f
    2298: a6 2f        	ldx	$2f                     ; 0x202f <f256main+0x171b>
    229a: bc 7f 8b     	ldy	$8b7f,x                 ; 0x8b7f <midi_instruments+0x2>
    229d: 84 14        	sty	$14                     ; 0x2014 <f256main+0x1700>
    229f: 48           	pha
    22a0: bd 80 8b     	lda	$8b80,x                 ; 0x8b80 <midi_instruments+0x3>
    22a3: aa           	tax
    22a4: 68           	pla
    22a5: 86 15        	stx	$15                     ; 0x2015 <f256main+0x1701>
    22a7: a6 10        	ldx	$10                     ; 0x2010 <f256main+0x16fc>
    22a9: 92 10        	sta	($10)                   ; 0x2010 <f256main+0x16fc>
    22ab: a0 01        	ldy	#$1
    22ad: a9 00        	lda	#$0
    22af: 91 10        	sta	($10),y                 ; 0x2010 <f256main+0x16fc>
    22b1: 18           	clc
    22b2: 8a           	txa
    22b3: 69 02        	adc	#$2
    22b5: 85 12        	sta	$12                     ; 0x2012 <f256main+0x16fe>
    22b7: a5 11        	lda	$11                     ; 0x2011 <f256main+0x16fd>
    22b9: 69 00        	adc	#$0
    22bb: 85 13        	sta	$13                     ; 0x2013 <f256main+0x16ff>
    22bd: c8           	iny
    22be: a5 14        	lda	$14                     ; 0x2014 <f256main+0x1700>
    22c0: 91 10        	sta	($10),y                 ; 0x2010 <f256main+0x16fc>
    22c2: a5 15        	lda	$15                     ; 0x2015 <f256main+0x1701>
    22c4: 88           	dey
    22c5: 91 12        	sta	($12),y                 ; 0x2012 <f256main+0x16fe>
    22c7: a6 2c        	ldx	$2c                     ; 0x202c <f256main+0x1718>
    22c9: 86 12        	stx	$12                     ; 0x2012 <f256main+0x16fe>
    22cb: a6 2d        	ldx	$2d                     ; 0x202d <f256main+0x1719>
    22cd: 86 13        	stx	$13                     ; 0x2013 <f256main+0x16ff>
    22cf: 20 27 56     	jsr	$5627 <printf>
    22d2: a0 0d        	ldy	#$d
    22d4: b1 10        	lda	($10),y                 ; 0x2010 <f256main+0x16fc>
    22d6: f0 03        	beq	$22db <f256main+0x19c7>
    22d8: 4c a4 21     	jmp	$21a4 <f256main+0x1890>
    22db: a0 06        	ldy	#$6
    22dd: 5a           	phy
    22de: a0 04        	ldy	#$4
    22e0: b1 10        	lda	($10),y                 ; 0x2010 <f256main+0x16fc>
    22e2: 85 12        	sta	$12                     ; 0x2012 <f256main+0x16fe>
    22e4: c8           	iny
    22e5: b1 10        	lda	($10),y                 ; 0x2010 <f256main+0x16fc>
    22e7: 7a           	ply
    22e8: 85 13        	sta	$13                     ; 0x2013 <f256main+0x16ff>
    22ea: b1 12        	lda	($12),y                 ; 0x2012 <f256main+0x16fe>
    22ec: a2 2c        	ldx	#$2c
    22ee: 86 2e        	stx	$2e                     ; 0x202e <f256main+0x171a>
    22f0: c9 01        	cmp	#$1
    22f2: f0 03        	beq	$22f7 <f256main+0x19e3>
    22f4: 4c a7 23     	jmp	$23a7 <f256main+0x1a93>
    22f7: 64 2c        	stz	$2c                     ; 0x202c <f256main+0x1718>
    22f9: 64 33        	stz	$33                     ; 0x2033 <f256main+0x171f>
    22fb: 9c 14 d0     	stz	$d014                   ; 0xd014 <__heap_start+0x4358>
    22fe: 9c 15 d0     	stz	$d015                   ; 0xd015 <__heap_start+0x4359>
    2301: 64 34        	stz	$34                     ; 0x2034 <f256main+0x1720>
    2303: 9c 16 d0     	stz	$d016                   ; 0xd016 <__heap_start+0x435a>
    2306: 9c 17 d0     	stz	$d017                   ; 0xd017 <__heap_start+0x435b>
    2309: a2 ce        	ldx	#$ce
    230b: 86 12        	stx	$12                     ; 0x2012 <f256main+0x16fe>
    230d: a2 85        	ldx	#$85
    230f: 86 13        	stx	$13                     ; 0x2013 <f256main+0x16ff>
    2311: 20 c7 2e     	jsr	$2ec7 <textPrint>
    2314: a2 50        	ldx	#$50
    2316: 86 30        	stx	$30                     ; 0x2030 <f256main+0x171c>
    2318: a2 00        	ldx	#$0
    231a: a0 29        	ldy	#$29
    231c: 84 12        	sty	$12                     ; 0x2012 <f256main+0x16fe>
    231e: a0 7b        	ldy	#$7b
    2320: 84 13        	sty	$13                     ; 0x2013 <f256main+0x16ff>
    2322: a5 12        	lda	$12                     ; 0x2012 <f256main+0x16fe>
    2324: a0 0e        	ldy	#$e
    2326: 91 10        	sta	($10),y                 ; 0x2010 <f256main+0x16fc>
    2328: a5 13        	lda	$13                     ; 0x2013 <f256main+0x16ff>
    232a: c8           	iny
    232b: 91 10        	sta	($10),y                 ; 0x2010 <f256main+0x16fc>
    232d: 86 12        	stx	$12                     ; 0x2012 <f256main+0x16fe>
    232f: 86 2d        	stx	$2d                     ; 0x202d <f256main+0x1719>
    2331: a5 2e        	lda	$2e                     ; 0x202e <f256main+0x171a>
    2333: 18           	clc
    2334: 65 12        	adc	$12                     ; 0x2012 <f256main+0x16fe>
    2336: a2 02        	ldx	#$2
    2338: 86 33        	stx	$33                     ; 0x2033 <f256main+0x171f>
    233a: 8e 14 d0     	stx	$d014                   ; 0xd014 <__heap_start+0x4358>
    233d: 9c 15 d0     	stz	$d015                   ; 0xd015 <__heap_start+0x4359>
    2340: 85 34        	sta	$34                     ; 0x2034 <f256main+0x1720>
    2342: 8d 16 d0     	sta	$d016                   ; 0xd016 <__heap_start+0x435a>
    2345: 9c 17 d0     	stz	$d017                   ; 0xd017 <__heap_start+0x435b>
    2348: a6 2c        	ldx	$2c                     ; 0x202c <f256main+0x1718>
    234a: bc 7d 8c     	ldy	$8c7d,x                 ; 0x8c7d <sid_instruments_names>
    234d: 84 14        	sty	$14                     ; 0x2014 <f256main+0x1700>
    234f: bd 7e 8c     	lda	$8c7e,x                 ; 0x8c7e <sid_instruments_names+0x1>
    2352: aa           	tax
    2353: 86 15        	stx	$15                     ; 0x2015 <f256main+0x1701>
    2355: a5 10        	lda	$10                     ; 0x2010 <f256main+0x16fc>
    2357: a6 11        	ldx	$11                     ; 0x2011 <f256main+0x16fd>
    2359: 18           	clc
    235a: 69 02        	adc	#$2
    235c: 85 12        	sta	$12                     ; 0x2012 <f256main+0x16fe>
    235e: 8a           	txa
    235f: 69 00        	adc	#$0
    2361: 85 13        	sta	$13                     ; 0x2013 <f256main+0x16ff>
    2363: a5 2d        	lda	$2d                     ; 0x202d <f256main+0x1719>
    2365: 92 10        	sta	($10)                   ; 0x2010 <f256main+0x16fc>
    2367: a9 00        	lda	#$0
    2369: a0 01        	ldy	#$1
    236b: 91 10        	sta	($10),y                 ; 0x2010 <f256main+0x16fc>
    236d: c8           	iny
    236e: a5 14        	lda	$14                     ; 0x2014 <f256main+0x1700>
    2370: 91 10        	sta	($10),y                 ; 0x2010 <f256main+0x16fc>
    2372: a5 15        	lda	$15                     ; 0x2015 <f256main+0x1701>
    2374: 88           	dey
    2375: 91 12        	sta	($12),y                 ; 0x2012 <f256main+0x16fe>
    2377: a0 0e        	ldy	#$e
    2379: b1 10        	lda	($10),y                 ; 0x2010 <f256main+0x16fc>
    237b: 85 12        	sta	$12                     ; 0x2012 <f256main+0x16fe>
    237d: c8           	iny
    237e: b1 10        	lda	($10),y                 ; 0x2010 <f256main+0x16fc>
    2380: 85 13        	sta	$13                     ; 0x2013 <f256main+0x16ff>
    2382: 20 27 56     	jsr	$5627 <printf>
    2385: a6 2d        	ldx	$2d                     ; 0x202d <f256main+0x1719>
    2387: e8           	inx
    2388: 18           	clc
    2389: a5 2c        	lda	$2c                     ; 0x202c <f256main+0x1718>
    238b: 69 02        	adc	#$2
    238d: 85 2c        	sta	$2c                     ; 0x202c <f256main+0x1718>
    238f: c9 0a        	cmp	#$a
    2391: f0 03        	beq	$2396 <f256main+0x1a82>
    2393: 4c 2d 23     	jmp	$232d <f256main+0x1a19>
    2396: a0 06        	ldy	#$6
    2398: 5a           	phy
    2399: a0 04        	ldy	#$4
    239b: b1 10        	lda	($10),y                 ; 0x2010 <f256main+0x16fc>
    239d: 85 12        	sta	$12                     ; 0x2012 <f256main+0x16fe>
    239f: c8           	iny
    23a0: b1 10        	lda	($10),y                 ; 0x2010 <f256main+0x16fc>
    23a2: 7a           	ply
    23a3: 85 13        	sta	$13                     ; 0x2013 <f256main+0x16ff>
    23a5: b1 12        	lda	($12),y                 ; 0x2012 <f256main+0x16fe>
    23a7: a0 01        	ldy	#$1
    23a9: a2 29        	ldx	#$29
    23ab: 86 12        	stx	$12                     ; 0x2012 <f256main+0x16fe>
    23ad: a2 7b        	ldx	#$7b
    23af: 86 13        	stx	$13                     ; 0x2013 <f256main+0x16ff>
    23b1: 48           	pha
    23b2: 5a           	phy
    23b3: a5 12        	lda	$12                     ; 0x2012 <f256main+0x16fe>
    23b5: a0 0e        	ldy	#$e
    23b7: 91 10        	sta	($10),y                 ; 0x2010 <f256main+0x16fc>
    23b9: a5 13        	lda	$13                     ; 0x2013 <f256main+0x16ff>
    23bb: c8           	iny
    23bc: 91 10        	sta	($10),y                 ; 0x2010 <f256main+0x16fc>
    23be: 7a           	ply
    23bf: 68           	pla
    23c0: c9 03        	cmp	#$3
    23c2: f0 03        	beq	$23c7 <f256main+0x1ab3>
    23c4: 4c 55 24     	jmp	$2455 <f256main+0x1b41>
    23c7: 64 2c        	stz	$2c                     ; 0x202c <f256main+0x1718>
    23c9: 64 33        	stz	$33                     ; 0x2033 <f256main+0x171f>
    23cb: 9c 14 d0     	stz	$d014                   ; 0xd014 <__heap_start+0x4358>
    23ce: 9c 15 d0     	stz	$d015                   ; 0xd015 <__heap_start+0x4359>
    23d1: 64 34        	stz	$34                     ; 0x2034 <f256main+0x1720>
    23d3: 9c 16 d0     	stz	$d016                   ; 0xd016 <__heap_start+0x435a>
    23d6: 9c 17 d0     	stz	$d017                   ; 0xd017 <__heap_start+0x435b>
    23d9: a2 29        	ldx	#$29
    23db: 86 12        	stx	$12                     ; 0x2012 <f256main+0x16fe>
    23dd: a2 7c        	ldx	#$7c
    23df: 86 13        	stx	$13                     ; 0x2013 <f256main+0x16ff>
    23e1: 20 c7 2e     	jsr	$2ec7 <textPrint>
    23e4: a2 50        	ldx	#$50
    23e6: 86 30        	stx	$30                     ; 0x2030 <f256main+0x171c>
    23e8: a2 00        	ldx	#$0
    23ea: 86 12        	stx	$12                     ; 0x2012 <f256main+0x16fe>
    23ec: 86 2d        	stx	$2d                     ; 0x202d <f256main+0x1719>
    23ee: a5 2e        	lda	$2e                     ; 0x202e <f256main+0x171a>
    23f0: 18           	clc
    23f1: 65 12        	adc	$12                     ; 0x2012 <f256main+0x16fe>
    23f3: a2 02        	ldx	#$2
    23f5: 86 33        	stx	$33                     ; 0x2033 <f256main+0x171f>
    23f7: 8e 14 d0     	stx	$d014                   ; 0xd014 <__heap_start+0x4358>
    23fa: 9c 15 d0     	stz	$d015                   ; 0xd015 <__heap_start+0x4359>
    23fd: 85 34        	sta	$34                     ; 0x2034 <f256main+0x1720>
    23ff: 8d 16 d0     	sta	$d016                   ; 0xd016 <__heap_start+0x435a>
    2402: 9c 17 d0     	stz	$d017                   ; 0xd017 <__heap_start+0x435b>
    2405: a6 2c        	ldx	$2c                     ; 0x202c <f256main+0x1718>
    2407: bc 87 8c     	ldy	$8c87,x                 ; 0x8c87 <opl3_instrument_names>
    240a: 84 14        	sty	$14                     ; 0x2014 <f256main+0x1700>
    240c: bd 88 8c     	lda	$8c88,x                 ; 0x8c88 <opl3_instrument_names+0x1>
    240f: aa           	tax
    2410: 86 15        	stx	$15                     ; 0x2015 <f256main+0x1701>
    2412: a5 10        	lda	$10                     ; 0x2010 <f256main+0x16fc>
    2414: a6 11        	ldx	$11                     ; 0x2011 <f256main+0x16fd>
    2416: 18           	clc
    2417: 69 02        	adc	#$2
    2419: 85 12        	sta	$12                     ; 0x2012 <f256main+0x16fe>
    241b: 8a           	txa
    241c: 69 00        	adc	#$0
    241e: 85 13        	sta	$13                     ; 0x2013 <f256main+0x16ff>
    2420: a5 2d        	lda	$2d                     ; 0x202d <f256main+0x1719>
    2422: 92 10        	sta	($10)                   ; 0x2010 <f256main+0x16fc>
    2424: a9 00        	lda	#$0
    2426: a0 01        	ldy	#$1
    2428: 91 10        	sta	($10),y                 ; 0x2010 <f256main+0x16fc>
    242a: c8           	iny
    242b: a5 14        	lda	$14                     ; 0x2014 <f256main+0x1700>
    242d: 91 10        	sta	($10),y                 ; 0x2010 <f256main+0x16fc>
    242f: a5 15        	lda	$15                     ; 0x2015 <f256main+0x1701>
    2431: 88           	dey
    2432: 91 12        	sta	($12),y                 ; 0x2012 <f256main+0x16fe>
    2434: a0 0e        	ldy	#$e
    2436: b1 10        	lda	($10),y                 ; 0x2010 <f256main+0x16fc>
    2438: 85 12        	sta	$12                     ; 0x2012 <f256main+0x16fe>
    243a: c8           	iny
    243b: b1 10        	lda	($10),y                 ; 0x2010 <f256main+0x16fc>
    243d: 85 13        	sta	$13                     ; 0x2013 <f256main+0x16ff>
    243f: 20 27 56     	jsr	$5627 <printf>
    2442: a6 2d        	ldx	$2d                     ; 0x202d <f256main+0x1719>
    2444: a0 01        	ldy	#$1
    2446: e8           	inx
    2447: 18           	clc
    2448: a5 2c        	lda	$2c                     ; 0x202c <f256main+0x1718>
    244a: 69 02        	adc	#$2
    244c: 85 2c        	sta	$2c                     ; 0x202c <f256main+0x1718>
    244e: c9 2c        	cmp	#$2c
    2450: f0 03        	beq	$2455 <f256main+0x1b41>
    2452: 4c ea 23     	jmp	$23ea <f256main+0x1ad6>
    2455: 5a           	phy
    2456: a0 04        	ldy	#$4
    2458: b1 10        	lda	($10),y                 ; 0x2010 <f256main+0x16fc>
    245a: 85 12        	sta	$12                     ; 0x2012 <f256main+0x16fe>
    245c: c8           	iny
    245d: b1 10        	lda	($10),y                 ; 0x2010 <f256main+0x16fc>
    245f: 7a           	ply
    2460: 85 13        	sta	$13                     ; 0x2013 <f256main+0x16ff>
    2462: 98           	tya
    2463: 20 db 51     	jsr	$51db <highLightInstChoice>
    2466: 4c e4 0e     	jmp	$ee4 <f256main+0x5d0>
    2469: 86 12        	stx	$12                     ; 0x2012 <f256main+0x16fe>
    246b: a5 38        	lda	$38                     ; 0x2038 <f256main+0x1724>
    246d: 29 01        	and	#$1
    246f: a2 01        	ldx	#$1
    2471: c9 00        	cmp	#$0
    2473: f0 03        	beq	$2478 <f256main+0x1b64>
    2475: 4c e4 0e     	jmp	$ee4 <f256main+0x5d0>
    2478: 18           	clc
    2479: 98           	tya
    247a: 65 12        	adc	$12                     ; 0x2012 <f256main+0x16fe>
    247c: 85 12        	sta	$12                     ; 0x2012 <f256main+0x16fe>
    247e: a5 2b        	lda	$2b                     ; 0x202b <f256main+0x1717>
    2480: 65 16        	adc	$16                     ; 0x2016 <f256main+0x1702>
    2482: 85 13        	sta	$13                     ; 0x2013 <f256main+0x16ff>
    2484: b2 12        	lda	($12)                   ; 0x2012 <f256main+0x16fe>
    2486: f0 03        	beq	$248b <f256main+0x1b77>
    2488: 4c ea 24     	jmp	$24ea <f256main+0x1bd6>
    248b: a6 37        	ldx	$37                     ; 0x2037 <f256main+0x1723>
    248d: f0 03        	beq	$2492 <f256main+0x1b7e>
    248f: 4c e4 0e     	jmp	$ee4 <f256main+0x5d0>
    2492: a5 3a        	lda	$3a                     ; 0x203a <f256main+0x1726>
    2494: 29 01        	and	#$1
    2496: d0 03        	bne	$249b <f256main+0x1b87>
    2498: 4c 80 2d     	jmp	$2d80 <f256main+0x246c>
    249b: a2 09        	ldx	#$9
    249d: 64 13        	stz	$13                     ; 0x2013 <f256main+0x16ff>
    249f: 86 12        	stx	$12                     ; 0x2012 <f256main+0x16fe>
    24a1: 4c 84 2d     	jmp	$2d84 <f256main+0x2470>
    24a4: a2 53        	ldx	#$53
    24a6: 86 14        	stx	$14                     ; 0x2014 <f256main+0x1700>
    24a8: a2 00        	ldx	#$0
    24aa: 86 15        	stx	$15                     ; 0x2015 <f256main+0x1701>
    24ac: a9 00        	lda	#$0
    24ae: 92 14        	sta	($14)                   ; 0x2014 <f256main+0x1700>
    24b0: 20 70 4d     	jsr	$4d70 <showMIDIChoiceText>
    24b3: 4c e4 0e     	jmp	$ee4 <f256main+0x5d0>
    24b6: 86 12        	stx	$12                     ; 0x2012 <f256main+0x16fe>
    24b8: a5 38        	lda	$38                     ; 0x2038 <f256main+0x1724>
    24ba: 29 01        	and	#$1
    24bc: a2 01        	ldx	#$1
    24be: c9 00        	cmp	#$0
    24c0: f0 03        	beq	$24c5 <f256main+0x1bb1>
    24c2: 4c e4 0e     	jmp	$ee4 <f256main+0x5d0>
    24c5: 18           	clc
    24c6: 98           	tya
    24c7: 65 12        	adc	$12                     ; 0x2012 <f256main+0x16fe>
    24c9: 85 12        	sta	$12                     ; 0x2012 <f256main+0x16fe>
    24cb: a5 2b        	lda	$2b                     ; 0x202b <f256main+0x1717>
    24cd: 65 16        	adc	$16                     ; 0x2016 <f256main+0x1702>
    24cf: 85 13        	sta	$13                     ; 0x2013 <f256main+0x16ff>
    24d1: b2 12        	lda	($12)                   ; 0x2012 <f256main+0x16fe>
    24d3: f0 15        	beq	$24ea <f256main+0x1bd6>
    24d5: a6 37        	ldx	$37                     ; 0x2037 <f256main+0x1723>
    24d7: f0 03        	beq	$24dc <f256main+0x1bc8>
    24d9: 4c e4 0e     	jmp	$ee4 <f256main+0x5d0>
    24dc: a5 3a        	lda	$3a                     ; 0x203a <f256main+0x1726>
    24de: 29 01        	and	#$1
    24e0: d0 03        	bne	$24e5 <f256main+0x1bd1>
    24e2: 4c 24 2c     	jmp	$2c24 <f256main+0x2310>
    24e5: a2 09        	ldx	#$9
    24e7: 4c 26 2c     	jmp	$2c26 <f256main+0x2312>
    24ea: 86 38        	stx	$38                     ; 0x2038 <f256main+0x1724>
    24ec: 4c e4 0e     	jmp	$ee4 <f256main+0x5d0>
    24ef: 84 25        	sty	$25                     ; 0x2025 <f256main+0x1711>
    24f1: a5 3a        	lda	$3a                     ; 0x203a <f256main+0x1726>
    24f3: 29 01        	and	#$1
    24f5: d0 03        	bne	$24fa <f256main+0x1be6>
    24f7: 4c e2 25     	jmp	$25e2 <f256main+0x1cce>
    24fa: a2 0b        	ldx	#$b
    24fc: 48           	pha
    24fd: 8a           	txa
    24fe: 4c e7 25     	jmp	$25e7 <f256main+0x1cd3>
    2501: 84 25        	sty	$25                     ; 0x2025 <f256main+0x1711>
    2503: a5 3a        	lda	$3a                     ; 0x203a <f256main+0x1726>
    2505: 29 01        	and	#$1
    2507: a2 4c        	ldx	#$4c
    2509: 64 12        	stz	$12                     ; 0x2012 <f256main+0x16fe>
    250b: a8           	tay
    250c: d0 02        	bne	$2510 <f256main+0x1bfc>
    250e: a2 57        	ldx	#$57
    2510: 86 13        	stx	$13                     ; 0x2013 <f256main+0x16ff>
    2512: a6 31        	ldx	$31                     ; 0x2031 <f256main+0x171d>
    2514: a4 32        	ldy	$32                     ; 0x2032 <f256main+0x171e>
    2516: c4 12        	cpy	$12                     ; 0x2012 <f256main+0x16fe>
    2518: f0 03        	beq	$251d <f256main+0x1c09>
    251a: 4c 4e 26     	jmp	$264e <f256main+0x1d3a>
    251d: 84 15        	sty	$15                     ; 0x2015 <f256main+0x1701>
    251f: 86 14        	stx	$14                     ; 0x2014 <f256main+0x1700>
    2521: e4 13        	cpx	$13                     ; 0x2013 <f256main+0x16ff>
    2523: 4c 54 26     	jmp	$2654 <f256main+0x1d40>
    2526: a0 01        	ldy	#$1
    2528: aa           	tax
    2529: f0 03        	beq	$252e <f256main+0x1c1a>
    252b: 4c 46 2b     	jmp	$2b46 <f256main+0x2232>
    252e: a5 3a        	lda	$3a                     ; 0x203a <f256main+0x1726>
    2530: 29 01        	and	#$1
    2532: d0 03        	bne	$2537 <f256main+0x1c23>
    2534: 4c ed 29     	jmp	$29ed <f256main+0x20d9>
    2537: a2 09        	ldx	#$9
    2539: 64 17        	stz	$17                     ; 0x2017 <f256main+0x1703>
    253b: 86 16        	stx	$16                     ; 0x2016 <f256main+0x1702>
    253d: 4c f1 29     	jmp	$29f1 <f256main+0x20dd>
    2540: a0 01        	ldy	#$1
    2542: aa           	tax
    2543: f0 03        	beq	$2548 <f256main+0x1c34>
    2545: 4c 07 2c     	jmp	$2c07 <f256main+0x22f3>
    2548: a5 3a        	lda	$3a                     ; 0x203a <f256main+0x1726>
    254a: 29 01        	and	#$1
    254c: d0 03        	bne	$2551 <f256main+0x1c3d>
    254e: 4c 45 2a     	jmp	$2a45 <f256main+0x2131>
    2551: a2 09        	ldx	#$9
    2553: 8a           	txa
    2554: 4c 49 2a     	jmp	$2a49 <f256main+0x2135>
    2557: 64 14        	stz	$14                     ; 0x2014 <f256main+0x1700>
    2559: 4c e0 1b     	jmp	$1be0 <f256main+0x12cc>
    255c: 86 2b        	stx	$2b                     ; 0x202b <f256main+0x1717>
    255e: a9 00        	lda	#$0
    2560: 91 12        	sta	($12),y                 ; 0x2012 <f256main+0x16fe>
    2562: a9 00        	lda	#$0
    2564: a0 03        	ldy	#$3
    2566: 91 12        	sta	($12),y                 ; 0x2012 <f256main+0x16fe>
    2568: a2 90        	ldx	#$90
    256a: 86 30        	stx	$30                     ; 0x2030 <f256main+0x171c>
    256c: 64 33        	stz	$33                     ; 0x2033 <f256main+0x171f>
    256e: 9c 14 d0     	stz	$d014                   ; 0xd014 <__heap_start+0x4358>
    2571: 9c 15 d0     	stz	$d015                   ; 0xd015 <__heap_start+0x4359>
    2574: a2 1e        	ldx	#$1e
    2576: 86 34        	stx	$34                     ; 0x2034 <f256main+0x1720>
    2578: 8e 16 d0     	stx	$d016                   ; 0xd016 <__heap_start+0x435a>
    257b: 9c 17 d0     	stz	$d017                   ; 0xd017 <__heap_start+0x435b>
    257e: a2 fa        	ldx	#$fa
    2580: 86 35        	stx	$35                     ; 0x2035 <f256main+0x1721>
    2582: a2 35        	ldx	#$35
    2584: 86 12        	stx	$12                     ; 0x2012 <f256main+0x16fe>
    2586: a2 00        	ldx	#$0
    2588: 86 13        	stx	$13                     ; 0x2013 <f256main+0x16ff>
    258a: 20 c7 2e     	jsr	$2ec7 <textPrint>
    258d: 64 33        	stz	$33                     ; 0x2033 <f256main+0x171f>
    258f: 9c 14 d0     	stz	$d014                   ; 0xd014 <__heap_start+0x4358>
    2592: 9c 15 d0     	stz	$d015                   ; 0xd015 <__heap_start+0x4359>
    2595: a2 1f        	ldx	#$1f
    2597: 86 34        	stx	$34                     ; 0x2034 <f256main+0x1720>
    2599: 8e 16 d0     	stx	$d016                   ; 0xd016 <__heap_start+0x435a>
    259c: 9c 17 d0     	stz	$d017                   ; 0xd017 <__heap_start+0x435b>
    259f: a2 e6        	ldx	#$e6
    25a1: 86 12        	stx	$12                     ; 0x2012 <f256main+0x16fe>
    25a3: a2 7b        	ldx	#$7b
    25a5: 86 13        	stx	$13                     ; 0x2013 <f256main+0x16ff>
    25a7: a5 2b        	lda	$2b                     ; 0x202b <f256main+0x1717>
    25a9: f0 0c        	beq	$25b7 <f256main+0x1ca3>
    25ab: a2 fa        	ldx	#$fa
    25ad: 86 35        	stx	$35                     ; 0x2035 <f256main+0x1721>
    25af: a2 35        	ldx	#$35
    25b1: 86 12        	stx	$12                     ; 0x2012 <f256main+0x16fe>
    25b3: a2 00        	ldx	#$0
    25b5: 86 13        	stx	$13                     ; 0x2013 <f256main+0x16ff>
    25b7: 20 c7 2e     	jsr	$2ec7 <textPrint>
    25ba: 64 33        	stz	$33                     ; 0x2033 <f256main+0x171f>
    25bc: 9c 14 d0     	stz	$d014                   ; 0xd014 <__heap_start+0x4358>
    25bf: 9c 15 d0     	stz	$d015                   ; 0xd015 <__heap_start+0x4359>
    25c2: a2 20        	ldx	#$20
    25c4: 86 34        	stx	$34                     ; 0x2034 <f256main+0x1720>
    25c6: 8e 16 d0     	stx	$d016                   ; 0xd016 <__heap_start+0x435a>
    25c9: 9c 17 d0     	stz	$d017                   ; 0xd017 <__heap_start+0x435b>
    25cc: a2 e6        	ldx	#$e6
    25ce: 86 12        	stx	$12                     ; 0x2012 <f256main+0x16fe>
    25d0: a2 7b        	ldx	#$7b
    25d2: 86 13        	stx	$13                     ; 0x2013 <f256main+0x16ff>
    25d4: 20 c7 2e     	jsr	$2ec7 <textPrint>
    25d7: a6 81        	ldx	$81                     ; 0x2081 <f256main+0x176d>
    25d9: a4 82        	ldy	$82                     ; 0x2082 <f256main+0x176e>
    25db: 86 12        	stx	$12                     ; 0x2012 <f256main+0x16fe>
    25dd: 84 13        	sty	$13                     ; 0x2013 <f256main+0x16ff>
    25df: 4c af 26     	jmp	$26af <f256main+0x1d9b>
    25e2: 64 12        	stz	$12                     ; 0x2012 <f256main+0x16fe>
    25e4: 48           	pha
    25e5: a9 00        	lda	#$0
    25e7: a0 0e        	ldy	#$e
    25e9: 91 10        	sta	($10),y                 ; 0x2010 <f256main+0x16fc>
    25eb: 68           	pla
    25ec: 64 13        	stz	$13                     ; 0x2013 <f256main+0x16ff>
    25ee: a4 31        	ldy	$31                     ; 0x2031 <f256main+0x171d>
    25f0: a6 32        	ldx	$32                     ; 0x2032 <f256main+0x171e>
    25f2: 86 12        	stx	$12                     ; 0x2012 <f256main+0x16fe>
    25f4: a2 00        	ldx	#$0
    25f6: e4 12        	cpx	$12                     ; 0x2012 <f256main+0x16fe>
    25f8: d0 12        	bne	$260c <f256main+0x1cf8>
    25fa: 84 16        	sty	$16                     ; 0x2016 <f256main+0x1702>
    25fc: 84 13        	sty	$13                     ; 0x2013 <f256main+0x16ff>
    25fe: 48           	pha
    25ff: a0 0e        	ldy	#$e
    2601: b1 10        	lda	($10),y                 ; 0x2010 <f256main+0x16fc>
    2603: aa           	tax
    2604: 68           	pla
    2605: e4 13        	cpx	$13                     ; 0x2013 <f256main+0x16ff>
    2607: 90 0c        	bcc	$2615 <f256main+0x1d01>
    2609: 4c 31 29     	jmp	$2931 <f256main+0x201d>
    260c: 84 16        	sty	$16                     ; 0x2016 <f256main+0x1702>
    260e: e4 12        	cpx	$12                     ; 0x2012 <f256main+0x16fe>
    2610: 90 03        	bcc	$2615 <f256main+0x1d01>
    2612: 4c 31 29     	jmp	$2931 <f256main+0x201d>
    2615: 85 13        	sta	$13                     ; 0x2013 <f256main+0x16ff>
    2617: a6 81        	ldx	$81                     ; 0x2081 <f256main+0x176d>
    2619: a4 82        	ldy	$82                     ; 0x2082 <f256main+0x176e>
    261b: 86 14        	stx	$14                     ; 0x2014 <f256main+0x1700>
    261d: 84 15        	sty	$15                     ; 0x2015 <f256main+0x1701>
    261f: a0 06        	ldy	#$6
    2621: b1 14        	lda	($14),y                 ; 0x2014 <f256main+0x1700>
    2623: d0 03        	bne	$2628 <f256main+0x1d14>
    2625: 4c 06 29     	jmp	$2906 <f256main+0x1ff2>
    2628: 85 15        	sta	$15                     ; 0x2015 <f256main+0x1701>
    262a: 18           	clc
    262b: a5 16        	lda	$16                     ; 0x2016 <f256main+0x1702>
    262d: 69 15        	adc	#$15
    262f: 85 12        	sta	$12                     ; 0x2012 <f256main+0x16fe>
    2631: 64 13        	stz	$13                     ; 0x2013 <f256main+0x16ff>
    2633: 64 14        	stz	$14                     ; 0x2014 <f256main+0x1700>
    2635: 64 16        	stz	$16                     ; 0x2016 <f256main+0x1702>
    2637: 64 17        	stz	$17                     ; 0x2017 <f256main+0x1703>
    2639: a2 00        	ldx	#$0
    263b: 8a           	txa
    263c: 20 67 3a     	jsr	$3a67 <dispatchNote>
    263f: a6 31        	ldx	$31                     ; 0x2031 <f256main+0x171d>
    2641: 86 16        	stx	$16                     ; 0x2016 <f256main+0x1702>
    2643: a6 32        	ldx	$32                     ; 0x2032 <f256main+0x171e>
    2645: 86 14        	stx	$14                     ; 0x2014 <f256main+0x1700>
    2647: a5 3a        	lda	$3a                     ; 0x203a <f256main+0x1726>
    2649: 29 01        	and	#$1
    264b: 4c 0c 29     	jmp	$290c <f256main+0x1ff8>
    264e: 86 14        	stx	$14                     ; 0x2014 <f256main+0x1700>
    2650: 84 15        	sty	$15                     ; 0x2015 <f256main+0x1701>
    2652: c4 12        	cpy	$12                     ; 0x2012 <f256main+0x16fe>
    2654: a0 01        	ldy	#$1
    2656: 90 03        	bcc	$265b <f256main+0x1d47>
    2658: 4c 70 29     	jmp	$2970 <f256main+0x205c>
    265b: 85 16        	sta	$16                     ; 0x2016 <f256main+0x1702>
    265d: a6 81        	ldx	$81                     ; 0x2081 <f256main+0x176d>
    265f: a4 82        	ldy	$82                     ; 0x2082 <f256main+0x176e>
    2661: 86 12        	stx	$12                     ; 0x2012 <f256main+0x16fe>
    2663: 84 13        	sty	$13                     ; 0x2013 <f256main+0x16ff>
    2665: a0 06        	ldy	#$6
    2667: b1 12        	lda	($12),y                 ; 0x2012 <f256main+0x16fe>
    2669: d0 03        	bne	$266e <f256main+0x1d5a>
    266b: 4c 4b 29     	jmp	$294b <f256main+0x2037>
    266e: aa           	tax
    266f: 18           	clc
    2670: a5 14        	lda	$14                     ; 0x2014 <f256main+0x1700>
    2672: 69 15        	adc	#$15
    2674: 85 12        	sta	$12                     ; 0x2012 <f256main+0x16fe>
    2676: 64 13        	stz	$13                     ; 0x2013 <f256main+0x16ff>
    2678: 64 14        	stz	$14                     ; 0x2014 <f256main+0x1700>
    267a: 86 15        	stx	$15                     ; 0x2015 <f256main+0x1701>
    267c: 64 16        	stz	$16                     ; 0x2016 <f256main+0x1702>
    267e: 64 17        	stz	$17                     ; 0x2017 <f256main+0x1703>
    2680: a2 00        	ldx	#$0
    2682: 8a           	txa
    2683: 20 67 3a     	jsr	$3a67 <dispatchNote>
    2686: a6 31        	ldx	$31                     ; 0x2031 <f256main+0x171d>
    2688: 86 14        	stx	$14                     ; 0x2014 <f256main+0x1700>
    268a: a6 32        	ldx	$32                     ; 0x2032 <f256main+0x171e>
    268c: 86 15        	stx	$15                     ; 0x2015 <f256main+0x1701>
    268e: a5 3a        	lda	$3a                     ; 0x203a <f256main+0x1726>
    2690: 29 01        	and	#$1
    2692: 4c 4d 29     	jmp	$294d <f256main+0x2039>
    2695: a5 38        	lda	$38                     ; 0x2038 <f256main+0x1724>
    2697: 29 01        	and	#$1
    2699: f0 03        	beq	$269e <f256main+0x1d8a>
    269b: 4c e4 0e     	jmp	$ee4 <f256main+0x5d0>
    269e: a5 14        	lda	$14                     ; 0x2014 <f256main+0x1700>
    26a0: d0 03        	bne	$26a5 <f256main+0x1d91>
    26a2: 4c 1a 2c     	jmp	$2c1a <f256main+0x2306>
    26a5: a5 14        	lda	$14                     ; 0x2014 <f256main+0x1700>
    26a7: 1a           	inc
    26a8: 4c 1c 2c     	jmp	$2c1c <f256main+0x2308>
    26ab: a9 09        	lda	#$9
    26ad: 91 12        	sta	($12),y                 ; 0x2012 <f256main+0x16fe>
    26af: 20 4e 4a     	jsr	$4a4e <channelTextMenu>
    26b2: a6 81        	ldx	$81                     ; 0x2081 <f256main+0x176d>
    26b4: a4 82        	ldy	$82                     ; 0x2082 <f256main+0x176e>
    26b6: 86 12        	stx	$12                     ; 0x2012 <f256main+0x16fe>
    26b8: 84 13        	sty	$13                     ; 0x2013 <f256main+0x16ff>
    26ba: 20 f3 46     	jsr	$46f3 <refreshInstrumentText>
    26bd: a2 b0        	ldx	#$b0
    26bf: 8e b1 dd     	stx	$ddb1                   ; 0xddb1 <__heap_start+0x50f5>
    26c2: a0 7b        	ldy	#$7b
    26c4: 8c b1 dd     	sty	$ddb1                   ; 0xddb1 <__heap_start+0x50f5>
    26c7: 9c b1 dd     	stz	$ddb1                   ; 0xddb1 <__heap_start+0x50f5>
    26ca: 8e a1 dd     	stx	$dda1                   ; 0xdda1 <__heap_start+0x50e5>
    26cd: 8c a1 dd     	sty	$dda1                   ; 0xdda1 <__heap_start+0x50e5>
    26d0: 9c a1 dd     	stz	$dda1                   ; 0xdda1 <__heap_start+0x50e5>
    26d3: e8           	inx
    26d4: 8e b1 dd     	stx	$ddb1                   ; 0xddb1 <__heap_start+0x50f5>
    26d7: 8c b1 dd     	sty	$ddb1                   ; 0xddb1 <__heap_start+0x50f5>
    26da: 9c b1 dd     	stz	$ddb1                   ; 0xddb1 <__heap_start+0x50f5>
    26dd: 8e a1 dd     	stx	$dda1                   ; 0xdda1 <__heap_start+0x50e5>
    26e0: 8c a1 dd     	sty	$dda1                   ; 0xdda1 <__heap_start+0x50e5>
    26e3: 9c a1 dd     	stz	$dda1                   ; 0xdda1 <__heap_start+0x50e5>
    26e6: a2 b9        	ldx	#$b9
    26e8: 8e b1 dd     	stx	$ddb1                   ; 0xddb1 <__heap_start+0x50f5>
    26eb: 8c b1 dd     	sty	$ddb1                   ; 0xddb1 <__heap_start+0x50f5>
    26ee: 9c b1 dd     	stz	$ddb1                   ; 0xddb1 <__heap_start+0x50f5>
    26f1: 8e a1 dd     	stx	$dda1                   ; 0xdda1 <__heap_start+0x50e5>
    26f4: 8c a1 dd     	sty	$dda1                   ; 0xdda1 <__heap_start+0x50e5>
    26f7: 9c a1 dd     	stz	$dda1                   ; 0xdda1 <__heap_start+0x50e5>
    26fa: 4c e4 0e     	jmp	$ee4 <f256main+0x5d0>
    26fd: c0 00        	cpy	#$0
    26ff: 90 03        	bcc	$2704 <f256main+0x1df0>
    2701: 4c e4 0e     	jmp	$ee4 <f256main+0x5d0>
    2704: a5 16        	lda	$16                     ; 0x2016 <f256main+0x1702>
    2706: 20 89 53     	jsr	$5389 <modalMoveUp>
    2709: a6 81        	ldx	$81                     ; 0x2081 <f256main+0x176d>
    270b: a4 82        	ldy	$82                     ; 0x2082 <f256main+0x176e>
    270d: 86 12        	stx	$12                     ; 0x2012 <f256main+0x16fe>
    270f: 84 13        	sty	$13                     ; 0x2013 <f256main+0x16ff>
    2711: b2 12        	lda	($12)                   ; 0x2012 <f256main+0x16fe>
    2713: 85 14        	sta	$14                     ; 0x2014 <f256main+0x1700>
    2715: a0 01        	ldy	#$1
    2717: b1 12        	lda	($12),y                 ; 0x2012 <f256main+0x16fe>
    2719: 85 15        	sta	$15                     ; 0x2015 <f256main+0x1701>
    271b: a0 03        	ldy	#$3
    271d: b1 12        	lda	($12),y                 ; 0x2012 <f256main+0x16fe>
    271f: a8           	tay
    2720: aa           	tax
    2721: b1 14        	lda	($14),y                 ; 0x2014 <f256main+0x1700>
    2723: 85 18        	sta	$18                     ; 0x2018 <f256main+0x1704>
    2725: 86 14        	stx	$14                     ; 0x2014 <f256main+0x1700>
    2727: a0 02        	ldy	#$2
    2729: b1 12        	lda	($12),y                 ; 0x2012 <f256main+0x16fe>
    272b: aa           	tax
    272c: a5 14        	lda	$14                     ; 0x2014 <f256main+0x1700>
    272e: 09 c0        	ora	#$c0
    2730: 85 19        	sta	$19                     ; 0x2019 <f256main+0x1705>
    2732: a0 a1        	ldy	#$a1
    2734: 84 12        	sty	$12                     ; 0x2012 <f256main+0x16fe>
    2736: a0 dd        	ldy	#$dd
    2738: 84 13        	sty	$13                     ; 0x2013 <f256main+0x16ff>
    273a: a0 b1        	ldy	#$b1
    273c: 84 14        	sty	$14                     ; 0x2014 <f256main+0x1700>
    273e: a0 dd        	ldy	#$dd
    2740: 84 15        	sty	$15                     ; 0x2015 <f256main+0x1701>
    2742: a5 14        	lda	$14                     ; 0x2014 <f256main+0x1700>
    2744: a0 0e        	ldy	#$e
    2746: 91 10        	sta	($10),y                 ; 0x2010 <f256main+0x16fc>
    2748: a5 15        	lda	$15                     ; 0x2015 <f256main+0x1701>
    274a: c8           	iny
    274b: 91 10        	sta	($10),y                 ; 0x2010 <f256main+0x16fc>
    274d: 8a           	txa
    274e: f0 0b        	beq	$275b <f256main+0x1e47>
    2750: a0 0e        	ldy	#$e
    2752: b1 10        	lda	($10),y                 ; 0x2010 <f256main+0x16fc>
    2754: 85 12        	sta	$12                     ; 0x2012 <f256main+0x16fe>
    2756: c8           	iny
    2757: b1 10        	lda	($10),y                 ; 0x2010 <f256main+0x16fc>
    2759: 85 13        	sta	$13                     ; 0x2013 <f256main+0x16ff>
    275b: a5 19        	lda	$19                     ; 0x2019 <f256main+0x1705>
    275d: 92 12        	sta	($12)                   ; 0x2012 <f256main+0x16fe>
    275f: a5 18        	lda	$18                     ; 0x2018 <f256main+0x1704>
    2761: 92 12        	sta	($12)                   ; 0x2012 <f256main+0x16fe>
    2763: a6 81        	ldx	$81                     ; 0x2081 <f256main+0x176d>
    2765: a4 82        	ldy	$82                     ; 0x2082 <f256main+0x176e>
    2767: 86 12        	stx	$12                     ; 0x2012 <f256main+0x16fe>
    2769: 84 13        	sty	$13                     ; 0x2013 <f256main+0x16ff>
    276b: b2 12        	lda	($12)                   ; 0x2012 <f256main+0x16fe>
    276d: 85 14        	sta	$14                     ; 0x2014 <f256main+0x1700>
    276f: a0 01        	ldy	#$1
    2771: b1 12        	lda	($12),y                 ; 0x2012 <f256main+0x16fe>
    2773: 85 15        	sta	$15                     ; 0x2015 <f256main+0x1701>
    2775: a0 03        	ldy	#$3
    2777: b1 12        	lda	($12),y                 ; 0x2012 <f256main+0x16fe>
    2779: aa           	tax
    277a: a8           	tay
    277b: b1 14        	lda	($14),y                 ; 0x2014 <f256main+0x1700>
    277d: 85 16        	sta	$16                     ; 0x2016 <f256main+0x1702>
    277f: a0 02        	ldy	#$2
    2781: b1 12        	lda	($12),y                 ; 0x2012 <f256main+0x16fe>
    2783: 48           	pha
    2784: a0 0e        	ldy	#$e
    2786: b1 10        	lda	($10),y                 ; 0x2010 <f256main+0x16fc>
    2788: 85 12        	sta	$12                     ; 0x2012 <f256main+0x16fe>
    278a: c8           	iny
    278b: b1 10        	lda	($10),y                 ; 0x2010 <f256main+0x16fc>
    278d: 85 13        	sta	$13                     ; 0x2013 <f256main+0x16ff>
    278f: 68           	pla
    2790: f0 08        	beq	$279a <f256main+0x1e86>
    2792: a0 a1        	ldy	#$a1
    2794: 84 12        	sty	$12                     ; 0x2012 <f256main+0x16fe>
    2796: a0 dd        	ldy	#$dd
    2798: 84 13        	sty	$13                     ; 0x2013 <f256main+0x16ff>
    279a: 8a           	txa
    279b: 09 c0        	ora	#$c0
    279d: 92 12        	sta	($12)                   ; 0x2012 <f256main+0x16fe>
    279f: a5 16        	lda	$16                     ; 0x2016 <f256main+0x1702>
    27a1: 92 12        	sta	($12)                   ; 0x2012 <f256main+0x16fe>
    27a3: a6 81        	ldx	$81                     ; 0x2081 <f256main+0x176d>
    27a5: a4 82        	ldy	$82                     ; 0x2082 <f256main+0x176e>
    27a7: 86 12        	stx	$12                     ; 0x2012 <f256main+0x16fe>
    27a9: 84 13        	sty	$13                     ; 0x2013 <f256main+0x16ff>
    27ab: a0 06        	ldy	#$6
    27ad: b1 12        	lda	($12),y                 ; 0x2012 <f256main+0x16fe>
    27af: c9 01        	cmp	#$1
    27b1: d0 2b        	bne	$27de <f256main+0x1eca>
    27b3: a0 04        	ldy	#$4
    27b5: b1 12        	lda	($12),y                 ; 0x2012 <f256main+0x16fe>
    27b7: d0 03        	bne	$27bc <f256main+0x1ea8>
    27b9: 4c e4 0e     	jmp	$ee4 <f256main+0x5d0>
    27bc: a9 01        	lda	#$1
    27be: 25 3a        	and	$3a                     ; 0x203a <f256main+0x1726>
    27c0: 20 89 53     	jsr	$5389 <modalMoveUp>
    27c3: a6 81        	ldx	$81                     ; 0x2081 <f256main+0x176d>
    27c5: a4 82        	ldy	$82                     ; 0x2082 <f256main+0x176e>
    27c7: 86 12        	stx	$12                     ; 0x2012 <f256main+0x16fe>
    27c9: 84 13        	sty	$13                     ; 0x2013 <f256main+0x16ff>
    27cb: a0 04        	ldy	#$4
    27cd: b1 12        	lda	($12),y                 ; 0x2012 <f256main+0x16fe>
    27cf: 20 b4 41     	jsr	$41b4 <sid_setInstrumentAllChannels>
    27d2: a6 81        	ldx	$81                     ; 0x2081 <f256main+0x176d>
    27d4: a4 82        	ldy	$82                     ; 0x2082 <f256main+0x176e>
    27d6: 86 12        	stx	$12                     ; 0x2012 <f256main+0x16fe>
    27d8: 84 13        	sty	$13                     ; 0x2013 <f256main+0x16ff>
    27da: a0 06        	ldy	#$6
    27dc: b1 12        	lda	($12),y                 ; 0x2012 <f256main+0x16fe>
    27de: c9 03        	cmp	#$3
    27e0: f0 03        	beq	$27e5 <f256main+0x1ed1>
    27e2: 4c e4 0e     	jmp	$ee4 <f256main+0x5d0>
    27e5: a0 05        	ldy	#$5
    27e7: b1 12        	lda	($12),y                 ; 0x2012 <f256main+0x16fe>
    27e9: d0 03        	bne	$27ee <f256main+0x1eda>
    27eb: 4c e4 0e     	jmp	$ee4 <f256main+0x5d0>
    27ee: a9 01        	lda	#$1
    27f0: 25 3a        	and	$3a                     ; 0x203a <f256main+0x1726>
    27f2: 20 89 53     	jsr	$5389 <modalMoveUp>
    27f5: 4c f4 28     	jmp	$28f4 <f256main+0x1fe0>
    27f8: e4 15        	cpx	$15                     ; 0x2015 <f256main+0x1701>
    27fa: 90 03        	bcc	$27ff <f256main+0x1eeb>
    27fc: 4c e4 0e     	jmp	$ee4 <f256main+0x5d0>
    27ff: a5 16        	lda	$16                     ; 0x2016 <f256main+0x1702>
    2801: 20 e2 53     	jsr	$53e2 <modalMoveDown>
    2804: a6 81        	ldx	$81                     ; 0x2081 <f256main+0x176d>
    2806: a4 82        	ldy	$82                     ; 0x2082 <f256main+0x176e>
    2808: 86 12        	stx	$12                     ; 0x2012 <f256main+0x16fe>
    280a: 84 13        	sty	$13                     ; 0x2013 <f256main+0x16ff>
    280c: b2 12        	lda	($12)                   ; 0x2012 <f256main+0x16fe>
    280e: 85 14        	sta	$14                     ; 0x2014 <f256main+0x1700>
    2810: a0 01        	ldy	#$1
    2812: b1 12        	lda	($12),y                 ; 0x2012 <f256main+0x16fe>
    2814: 85 15        	sta	$15                     ; 0x2015 <f256main+0x1701>
    2816: a0 03        	ldy	#$3
    2818: b1 12        	lda	($12),y                 ; 0x2012 <f256main+0x16fe>
    281a: a8           	tay
    281b: aa           	tax
    281c: b1 14        	lda	($14),y                 ; 0x2014 <f256main+0x1700>
    281e: 85 18        	sta	$18                     ; 0x2018 <f256main+0x1704>
    2820: 86 14        	stx	$14                     ; 0x2014 <f256main+0x1700>
    2822: a0 02        	ldy	#$2
    2824: b1 12        	lda	($12),y                 ; 0x2012 <f256main+0x16fe>
    2826: aa           	tax
    2827: a5 14        	lda	$14                     ; 0x2014 <f256main+0x1700>
    2829: 09 c0        	ora	#$c0
    282b: 85 19        	sta	$19                     ; 0x2019 <f256main+0x1705>
    282d: a0 a1        	ldy	#$a1
    282f: 84 12        	sty	$12                     ; 0x2012 <f256main+0x16fe>
    2831: a0 dd        	ldy	#$dd
    2833: 84 13        	sty	$13                     ; 0x2013 <f256main+0x16ff>
    2835: a0 b1        	ldy	#$b1
    2837: 84 14        	sty	$14                     ; 0x2014 <f256main+0x1700>
    2839: a0 dd        	ldy	#$dd
    283b: 84 15        	sty	$15                     ; 0x2015 <f256main+0x1701>
    283d: a5 14        	lda	$14                     ; 0x2014 <f256main+0x1700>
    283f: a0 0e        	ldy	#$e
    2841: 91 10        	sta	($10),y                 ; 0x2010 <f256main+0x16fc>
    2843: a5 15        	lda	$15                     ; 0x2015 <f256main+0x1701>
    2845: c8           	iny
    2846: 91 10        	sta	($10),y                 ; 0x2010 <f256main+0x16fc>
    2848: 8a           	txa
    2849: f0 0b        	beq	$2856 <f256main+0x1f42>
    284b: a0 0e        	ldy	#$e
    284d: b1 10        	lda	($10),y                 ; 0x2010 <f256main+0x16fc>
    284f: 85 12        	sta	$12                     ; 0x2012 <f256main+0x16fe>
    2851: c8           	iny
    2852: b1 10        	lda	($10),y                 ; 0x2010 <f256main+0x16fc>
    2854: 85 13        	sta	$13                     ; 0x2013 <f256main+0x16ff>
    2856: a5 19        	lda	$19                     ; 0x2019 <f256main+0x1705>
    2858: 92 12        	sta	($12)                   ; 0x2012 <f256main+0x16fe>
    285a: a5 18        	lda	$18                     ; 0x2018 <f256main+0x1704>
    285c: 92 12        	sta	($12)                   ; 0x2012 <f256main+0x16fe>
    285e: a6 81        	ldx	$81                     ; 0x2081 <f256main+0x176d>
    2860: a4 82        	ldy	$82                     ; 0x2082 <f256main+0x176e>
    2862: 86 12        	stx	$12                     ; 0x2012 <f256main+0x16fe>
    2864: 84 13        	sty	$13                     ; 0x2013 <f256main+0x16ff>
    2866: b2 12        	lda	($12)                   ; 0x2012 <f256main+0x16fe>
    2868: 85 14        	sta	$14                     ; 0x2014 <f256main+0x1700>
    286a: a0 01        	ldy	#$1
    286c: b1 12        	lda	($12),y                 ; 0x2012 <f256main+0x16fe>
    286e: 85 15        	sta	$15                     ; 0x2015 <f256main+0x1701>
    2870: a0 03        	ldy	#$3
    2872: b1 12        	lda	($12),y                 ; 0x2012 <f256main+0x16fe>
    2874: aa           	tax
    2875: a8           	tay
    2876: b1 14        	lda	($14),y                 ; 0x2014 <f256main+0x1700>
    2878: 85 16        	sta	$16                     ; 0x2016 <f256main+0x1702>
    287a: a0 02        	ldy	#$2
    287c: b1 12        	lda	($12),y                 ; 0x2012 <f256main+0x16fe>
    287e: 48           	pha
    287f: a0 0e        	ldy	#$e
    2881: b1 10        	lda	($10),y                 ; 0x2010 <f256main+0x16fc>
    2883: 85 12        	sta	$12                     ; 0x2012 <f256main+0x16fe>
    2885: c8           	iny
    2886: b1 10        	lda	($10),y                 ; 0x2010 <f256main+0x16fc>
    2888: 85 13        	sta	$13                     ; 0x2013 <f256main+0x16ff>
    288a: 68           	pla
    288b: f0 08        	beq	$2895 <f256main+0x1f81>
    288d: a0 a1        	ldy	#$a1
    288f: 84 12        	sty	$12                     ; 0x2012 <f256main+0x16fe>
    2891: a0 dd        	ldy	#$dd
    2893: 84 13        	sty	$13                     ; 0x2013 <f256main+0x16ff>
    2895: 8a           	txa
    2896: 09 c0        	ora	#$c0
    2898: 92 12        	sta	($12)                   ; 0x2012 <f256main+0x16fe>
    289a: a5 16        	lda	$16                     ; 0x2016 <f256main+0x1702>
    289c: 92 12        	sta	($12)                   ; 0x2012 <f256main+0x16fe>
    289e: a6 81        	ldx	$81                     ; 0x2081 <f256main+0x176d>
    28a0: a4 82        	ldy	$82                     ; 0x2082 <f256main+0x176e>
    28a2: 86 12        	stx	$12                     ; 0x2012 <f256main+0x16fe>
    28a4: 84 13        	sty	$13                     ; 0x2013 <f256main+0x16ff>
    28a6: a0 06        	ldy	#$6
    28a8: b1 12        	lda	($12),y                 ; 0x2012 <f256main+0x16fe>
    28aa: a0 04        	ldy	#$4
    28ac: c9 01        	cmp	#$1
    28ae: d0 2b        	bne	$28db <f256main+0x1fc7>
    28b0: b1 12        	lda	($12),y                 ; 0x2012 <f256main+0x16fe>
    28b2: c9 04        	cmp	#$4
    28b4: 90 03        	bcc	$28b9 <f256main+0x1fa5>
    28b6: 4c e4 0e     	jmp	$ee4 <f256main+0x5d0>
    28b9: a9 01        	lda	#$1
    28bb: 25 3a        	and	$3a                     ; 0x203a <f256main+0x1726>
    28bd: 20 e2 53     	jsr	$53e2 <modalMoveDown>
    28c0: a6 81        	ldx	$81                     ; 0x2081 <f256main+0x176d>
    28c2: a4 82        	ldy	$82                     ; 0x2082 <f256main+0x176e>
    28c4: 86 12        	stx	$12                     ; 0x2012 <f256main+0x16fe>
    28c6: 84 13        	sty	$13                     ; 0x2013 <f256main+0x16ff>
    28c8: a0 04        	ldy	#$4
    28ca: b1 12        	lda	($12),y                 ; 0x2012 <f256main+0x16fe>
    28cc: 20 b4 41     	jsr	$41b4 <sid_setInstrumentAllChannels>
    28cf: a6 81        	ldx	$81                     ; 0x2081 <f256main+0x176d>
    28d1: a4 82        	ldy	$82                     ; 0x2082 <f256main+0x176e>
    28d3: 86 12        	stx	$12                     ; 0x2012 <f256main+0x16fe>
    28d5: 84 13        	sty	$13                     ; 0x2013 <f256main+0x16ff>
    28d7: a0 06        	ldy	#$6
    28d9: b1 12        	lda	($12),y                 ; 0x2012 <f256main+0x16fe>
    28db: c9 03        	cmp	#$3
    28dd: f0 03        	beq	$28e2 <f256main+0x1fce>
    28df: 4c e4 0e     	jmp	$ee4 <f256main+0x5d0>
    28e2: a0 05        	ldy	#$5
    28e4: b1 12        	lda	($12),y                 ; 0x2012 <f256main+0x16fe>
    28e6: c9 15        	cmp	#$15
    28e8: 90 03        	bcc	$28ed <f256main+0x1fd9>
    28ea: 4c e4 0e     	jmp	$ee4 <f256main+0x5d0>
    28ed: a9 01        	lda	#$1
    28ef: 25 3a        	and	$3a                     ; 0x203a <f256main+0x1726>
    28f1: 20 e2 53     	jsr	$53e2 <modalMoveDown>
    28f4: a6 81        	ldx	$81                     ; 0x2081 <f256main+0x176d>
    28f6: a4 82        	ldy	$82                     ; 0x2082 <f256main+0x176e>
    28f8: 86 12        	stx	$12                     ; 0x2012 <f256main+0x16fe>
    28fa: 84 13        	sty	$13                     ; 0x2013 <f256main+0x16ff>
    28fc: a0 05        	ldy	#$5
    28fe: b1 12        	lda	($12),y                 ; 0x2012 <f256main+0x16fe>
    2900: 20 e4 40     	jsr	$40e4 <opl3_setInstrumentAllChannels>
    2903: 4c e4 0e     	jmp	$ee4 <f256main+0x5d0>
    2906: a6 12        	ldx	$12                     ; 0x2012 <f256main+0x16fe>
    2908: 86 14        	stx	$14                     ; 0x2014 <f256main+0x1700>
    290a: a5 13        	lda	$13                     ; 0x2013 <f256main+0x16ff>
    290c: aa           	tax
    290d: f0 0a        	beq	$2919 <f256main+0x2005>
    290f: a2 f5        	ldx	#$f5
    2911: a0 ff        	ldy	#$ff
    2913: 86 12        	stx	$12                     ; 0x2012 <f256main+0x16fe>
    2915: 84 13        	sty	$13                     ; 0x2013 <f256main+0x16ff>
    2917: 80 04        	bra	$291d <f256main+0x2009>
    2919: 64 12        	stz	$12                     ; 0x2012 <f256main+0x16fe>
    291b: 64 13        	stz	$13                     ; 0x2013 <f256main+0x16ff>
    291d: 18           	clc
    291e: a5 16        	lda	$16                     ; 0x2016 <f256main+0x1702>
    2920: 65 12        	adc	$12                     ; 0x2012 <f256main+0x16fe>
    2922: a8           	tay
    2923: a5 14        	lda	$14                     ; 0x2014 <f256main+0x1700>
    2925: 65 13        	adc	$13                     ; 0x2013 <f256main+0x16ff>
    2927: 88           	dey
    2928: c0 ff        	cpy	#$ff
    292a: d0 01        	bne	$292d <f256main+0x2019>
    292c: 3a           	dec
    292d: 84 31        	sty	$31                     ; 0x2031 <f256main+0x171d>
    292f: 85 32        	sta	$32                     ; 0x2032 <f256main+0x171e>
    2931: a5 39        	lda	$39                     ; 0x2039 <f256main+0x1725>
    2933: 29 01        	and	#$1
    2935: f0 04        	beq	$293b <f256main+0x2027>
    2937: 64 31        	stz	$31                     ; 0x2031 <f256main+0x171d>
    2939: 64 32        	stz	$32                     ; 0x2032 <f256main+0x171e>
    293b: 18           	clc
    293c: a9 61        	lda	#$61
    293e: 65 50        	adc	$50                     ; 0x2050 <f256main+0x173c>
    2940: a6 01        	ldx	$1                      ; 0x2001 <f256main+0x16ed>
    2942: a0 01        	ldy	#$1
    2944: 84 01        	sty	$1                      ; 0x2001 <f256main+0x16ed>
    2946: 0a           	asl
    2947: 64 12        	stz	$12                     ; 0x2012 <f256main+0x16fe>
    2949: 80 3b        	bra	$2986 <f256main+0x2072>
    294b: a5 16        	lda	$16                     ; 0x2016 <f256main+0x1702>
    294d: a0 01        	ldy	#$1
    294f: aa           	tax
    2950: f0 08        	beq	$295a <f256main+0x2046>
    2952: a2 0b        	ldx	#$b
    2954: 64 12        	stz	$12                     ; 0x2012 <f256main+0x16fe>
    2956: 86 13        	stx	$13                     ; 0x2013 <f256main+0x16ff>
    2958: 80 04        	bra	$295e <f256main+0x204a>
    295a: 64 13        	stz	$13                     ; 0x2013 <f256main+0x16ff>
    295c: 64 12        	stz	$12                     ; 0x2012 <f256main+0x16fe>
    295e: 18           	clc
    295f: a5 14        	lda	$14                     ; 0x2014 <f256main+0x1700>
    2961: 65 13        	adc	$13                     ; 0x2013 <f256main+0x16ff>
    2963: aa           	tax
    2964: a5 15        	lda	$15                     ; 0x2015 <f256main+0x1701>
    2966: 65 12        	adc	$12                     ; 0x2012 <f256main+0x16fe>
    2968: e8           	inx
    2969: d0 01        	bne	$296c <f256main+0x2058>
    296b: 1a           	inc
    296c: 86 31        	stx	$31                     ; 0x2031 <f256main+0x171d>
    296e: 85 32        	sta	$32                     ; 0x2032 <f256main+0x171e>
    2970: a5 39        	lda	$39                     ; 0x2039 <f256main+0x1725>
    2972: 29 01        	and	#$1
    2974: f0 06        	beq	$297c <f256main+0x2068>
    2976: a2 57        	ldx	#$57
    2978: 86 31        	stx	$31                     ; 0x2031 <f256main+0x171d>
    297a: 64 32        	stz	$32                     ; 0x2032 <f256main+0x171e>
    297c: 18           	clc
    297d: a9 61        	lda	#$61
    297f: 65 50        	adc	$50                     ; 0x2050 <f256main+0x173c>
    2981: a6 01        	ldx	$1                      ; 0x2001 <f256main+0x16ed>
    2983: 84 01        	sty	$1                      ; 0x2001 <f256main+0x16ed>
    2985: 0a           	asl
    2986: 26 12        	rol	$12                     ; 0x2012 <f256main+0x16fe>
    2988: 0a           	asl
    2989: 85 13        	sta	$13                     ; 0x2013 <f256main+0x16ff>
    298b: 26 12        	rol	$12                     ; 0x2012 <f256main+0x16fe>
    298d: a9 00        	lda	#$0
    298f: 18           	clc
    2990: 65 13        	adc	$13                     ; 0x2013 <f256main+0x16ff>
    2992: 85 13        	sta	$13                     ; 0x2013 <f256main+0x16ff>
    2994: a9 d0        	lda	#$d0
    2996: 65 12        	adc	$12                     ; 0x2012 <f256main+0x16fe>
    2998: 5a           	phy
    2999: a4 13        	ldy	$13                     ; 0x2013 <f256main+0x16ff>
    299b: 84 12        	sty	$12                     ; 0x2012 <f256main+0x16fe>
    299d: 7a           	ply
    299e: 85 13        	sta	$13                     ; 0x2013 <f256main+0x16ff>
    29a0: a9 00        	lda	#$0
    29a2: 92 12        	sta	($12)                   ; 0x2012 <f256main+0x16fe>
    29a4: 91 12        	sta	($12),y                 ; 0x2012 <f256main+0x16fe>
    29a6: a0 02        	ldy	#$2
    29a8: 91 12        	sta	($12),y                 ; 0x2012 <f256main+0x16fe>
    29aa: 3a           	dec
    29ab: c8           	iny
    29ac: 91 12        	sta	($12),y                 ; 0x2012 <f256main+0x16fe>
    29ae: 86 01        	stx	$1                      ; 0x2001 <f256main+0x16ed>
    29b0: 18           	clc
    29b1: a9 61        	lda	#$61
    29b3: 65 31        	adc	$31                     ; 0x2031 <f256main+0x171d>
    29b5: 0a           	asl
    29b6: 64 12        	stz	$12                     ; 0x2012 <f256main+0x16fe>
    29b8: 26 12        	rol	$12                     ; 0x2012 <f256main+0x16fe>
    29ba: 0a           	asl
    29bb: 85 13        	sta	$13                     ; 0x2013 <f256main+0x16ff>
    29bd: 26 12        	rol	$12                     ; 0x2012 <f256main+0x16fe>
    29bf: a9 00        	lda	#$0
    29c1: 18           	clc
    29c2: 65 13        	adc	$13                     ; 0x2013 <f256main+0x16ff>
    29c4: aa           	tax
    29c5: a9 d0        	lda	#$d0
    29c7: 65 12        	adc	$12                     ; 0x2012 <f256main+0x16fe>
    29c9: 86 12        	stx	$12                     ; 0x2012 <f256main+0x16fe>
    29cb: 85 13        	sta	$13                     ; 0x2013 <f256main+0x16ff>
    29cd: a6 01        	ldx	$1                      ; 0x2001 <f256main+0x16ed>
    29cf: a0 01        	ldy	#$1
    29d1: 84 01        	sty	$1                      ; 0x2001 <f256main+0x16ed>
    29d3: a9 00        	lda	#$0
    29d5: 92 12        	sta	($12)                   ; 0x2012 <f256main+0x16fe>
    29d7: 91 12        	sta	($12),y                 ; 0x2012 <f256main+0x16fe>
    29d9: 3a           	dec
    29da: c8           	iny
    29db: 91 12        	sta	($12),y                 ; 0x2012 <f256main+0x16fe>
    29dd: c8           	iny
    29de: 91 12        	sta	($12),y                 ; 0x2012 <f256main+0x16fe>
    29e0: 86 01        	stx	$1                      ; 0x2001 <f256main+0x16ed>
    29e2: a6 31        	ldx	$31                     ; 0x2031 <f256main+0x171d>
    29e4: 86 50        	stx	$50                     ; 0x2050 <f256main+0x173c>
    29e6: a6 32        	ldx	$32                     ; 0x2032 <f256main+0x171e>
    29e8: 86 51        	stx	$51                     ; 0x2051 <f256main+0x173d>
    29ea: 4c e4 0e     	jmp	$ee4 <f256main+0x5d0>
    29ed: 64 16        	stz	$16                     ; 0x2016 <f256main+0x1702>
    29ef: 64 17        	stz	$17                     ; 0x2017 <f256main+0x1703>
    29f1: b2 12        	lda	($12)                   ; 0x2012 <f256main+0x16fe>
    29f3: 85 14        	sta	$14                     ; 0x2014 <f256main+0x1700>
    29f5: b1 12        	lda	($12),y                 ; 0x2012 <f256main+0x16fe>
    29f7: 85 15        	sta	$15                     ; 0x2015 <f256main+0x1701>
    29f9: a0 03        	ldy	#$3
    29fb: b1 12        	lda	($12),y                 ; 0x2012 <f256main+0x16fe>
    29fd: a8           	tay
    29fe: b1 14        	lda	($14),y                 ; 0x2014 <f256main+0x1700>
    2a00: a2 00        	ldx	#$0
    2a02: e4 17        	cpx	$17                     ; 0x2017 <f256main+0x1703>
    2a04: d0 08        	bne	$2a0e <f256main+0x20fa>
    2a06: aa           	tax
    2a07: a5 16        	lda	$16                     ; 0x2016 <f256main+0x1702>
    2a09: 49 7f        	eor	#$7f
    2a0b: 85 17        	sta	$17                     ; 0x2017 <f256main+0x1703>
    2a0d: 8a           	txa
    2a0e: e4 17        	cpx	$17                     ; 0x2017 <f256main+0x1703>
    2a10: b0 15        	bcs	$2a27 <f256main+0x2113>
    2a12: 18           	clc
    2a13: 65 16        	adc	$16                     ; 0x2016 <f256main+0x1702>
    2a15: 1a           	inc
    2a16: 91 14        	sta	($14),y                 ; 0x2014 <f256main+0x1700>
    2a18: b2 12        	lda	($12)                   ; 0x2012 <f256main+0x16fe>
    2a1a: 85 14        	sta	$14                     ; 0x2014 <f256main+0x1700>
    2a1c: a0 01        	ldy	#$1
    2a1e: b1 12        	lda	($12),y                 ; 0x2012 <f256main+0x16fe>
    2a20: 85 15        	sta	$15                     ; 0x2015 <f256main+0x1701>
    2a22: a0 03        	ldy	#$3
    2a24: b1 12        	lda	($12),y                 ; 0x2012 <f256main+0x16fe>
    2a26: a8           	tay
    2a27: a5 39        	lda	$39                     ; 0x2039 <f256main+0x1725>
    2a29: 29 01        	and	#$1
    2a2b: d0 03        	bne	$2a30 <f256main+0x211c>
    2a2d: 4c b4 2a     	jmp	$2ab4 <f256main+0x21a0>
    2a30: a9 7f        	lda	#$7f
    2a32: 91 14        	sta	($14),y                 ; 0x2014 <f256main+0x1700>
    2a34: b2 12        	lda	($12)                   ; 0x2012 <f256main+0x16fe>
    2a36: 85 14        	sta	$14                     ; 0x2014 <f256main+0x1700>
    2a38: a0 01        	ldy	#$1
    2a3a: b1 12        	lda	($12),y                 ; 0x2012 <f256main+0x16fe>
    2a3c: 85 15        	sta	$15                     ; 0x2015 <f256main+0x1701>
    2a3e: a0 03        	ldy	#$3
    2a40: b1 12        	lda	($12),y                 ; 0x2012 <f256main+0x16fe>
    2a42: 4c b5 2a     	jmp	$2ab5 <f256main+0x21a1>
    2a45: 64 14        	stz	$14                     ; 0x2014 <f256main+0x1700>
    2a47: a9 00        	lda	#$0
    2a49: 5a           	phy
    2a4a: a0 0e        	ldy	#$e
    2a4c: 91 10        	sta	($10),y                 ; 0x2010 <f256main+0x16fc>
    2a4e: 7a           	ply
    2a4f: a2 00        	ldx	#$0
    2a51: b2 12        	lda	($12)                   ; 0x2012 <f256main+0x16fe>
    2a53: 85 14        	sta	$14                     ; 0x2014 <f256main+0x1700>
    2a55: b1 12        	lda	($12),y                 ; 0x2012 <f256main+0x16fe>
    2a57: 85 15        	sta	$15                     ; 0x2015 <f256main+0x1701>
    2a59: a0 03        	ldy	#$3
    2a5b: b1 12        	lda	($12),y                 ; 0x2012 <f256main+0x16fe>
    2a5d: a8           	tay
    2a5e: b1 14        	lda	($14),y                 ; 0x2014 <f256main+0x1700>
    2a60: e0 00        	cpx	#$0
    2a62: f0 03        	beq	$2a67 <f256main+0x2153>
    2a64: 4c 6b 2b     	jmp	$2b6b <f256main+0x2257>
    2a67: 85 16        	sta	$16                     ; 0x2016 <f256main+0x1702>
    2a69: 48           	pha
    2a6a: 5a           	phy
    2a6b: a0 0e        	ldy	#$e
    2a6d: b1 10        	lda	($10),y                 ; 0x2010 <f256main+0x16fc>
    2a6f: 7a           	ply
    2a70: aa           	tax
    2a71: 68           	pla
    2a72: e4 16        	cpx	$16                     ; 0x2016 <f256main+0x1702>
    2a74: b0 20        	bcs	$2a96 <f256main+0x2182>
    2a76: aa           	tax
    2a77: 5a           	phy
    2a78: a0 0e        	ldy	#$e
    2a7a: b1 10        	lda	($10),y                 ; 0x2010 <f256main+0x16fc>
    2a7c: 7a           	ply
    2a7d: 49 ff        	eor	#$ff
    2a7f: 85 16        	sta	$16                     ; 0x2016 <f256main+0x1702>
    2a81: 18           	clc
    2a82: 8a           	txa
    2a83: 65 16        	adc	$16                     ; 0x2016 <f256main+0x1702>
    2a85: 91 14        	sta	($14),y                 ; 0x2014 <f256main+0x1700>
    2a87: b2 12        	lda	($12)                   ; 0x2012 <f256main+0x16fe>
    2a89: 85 14        	sta	$14                     ; 0x2014 <f256main+0x1700>
    2a8b: a0 01        	ldy	#$1
    2a8d: b1 12        	lda	($12),y                 ; 0x2012 <f256main+0x16fe>
    2a8f: 85 15        	sta	$15                     ; 0x2015 <f256main+0x1701>
    2a91: a0 03        	ldy	#$3
    2a93: b1 12        	lda	($12),y                 ; 0x2012 <f256main+0x16fe>
    2a95: a8           	tay
    2a96: a5 39        	lda	$39                     ; 0x2039 <f256main+0x1725>
    2a98: 29 01        	and	#$1
    2a9a: d0 03        	bne	$2a9f <f256main+0x218b>
    2a9c: 4c 75 2b     	jmp	$2b75 <f256main+0x2261>
    2a9f: a9 00        	lda	#$0
    2aa1: 91 14        	sta	($14),y                 ; 0x2014 <f256main+0x1700>
    2aa3: b2 12        	lda	($12)                   ; 0x2012 <f256main+0x16fe>
    2aa5: 85 14        	sta	$14                     ; 0x2014 <f256main+0x1700>
    2aa7: a0 01        	ldy	#$1
    2aa9: b1 12        	lda	($12),y                 ; 0x2012 <f256main+0x16fe>
    2aab: 85 15        	sta	$15                     ; 0x2015 <f256main+0x1701>
    2aad: a0 03        	ldy	#$3
    2aaf: b1 12        	lda	($12),y                 ; 0x2012 <f256main+0x16fe>
    2ab1: 4c 76 2b     	jmp	$2b76 <f256main+0x2262>
    2ab4: 98           	tya
    2ab5: a8           	tay
    2ab6: aa           	tax
    2ab7: b1 14        	lda	($14),y                 ; 0x2014 <f256main+0x1700>
    2ab9: 85 18        	sta	$18                     ; 0x2018 <f256main+0x1704>
    2abb: 86 14        	stx	$14                     ; 0x2014 <f256main+0x1700>
    2abd: a0 02        	ldy	#$2
    2abf: b1 12        	lda	($12),y                 ; 0x2012 <f256main+0x16fe>
    2ac1: aa           	tax
    2ac2: a5 14        	lda	$14                     ; 0x2014 <f256main+0x1700>
    2ac4: 09 c0        	ora	#$c0
    2ac6: a0 a1        	ldy	#$a1
    2ac8: 84 12        	sty	$12                     ; 0x2012 <f256main+0x16fe>
    2aca: a0 dd        	ldy	#$dd
    2acc: 84 13        	sty	$13                     ; 0x2013 <f256main+0x16ff>
    2ace: a0 b1        	ldy	#$b1
    2ad0: 84 14        	sty	$14                     ; 0x2014 <f256main+0x1700>
    2ad2: a0 dd        	ldy	#$dd
    2ad4: 84 15        	sty	$15                     ; 0x2015 <f256main+0x1701>
    2ad6: 48           	pha
    2ad7: a5 14        	lda	$14                     ; 0x2014 <f256main+0x1700>
    2ad9: a0 0e        	ldy	#$e
    2adb: 91 10        	sta	($10),y                 ; 0x2010 <f256main+0x16fc>
    2add: a5 15        	lda	$15                     ; 0x2015 <f256main+0x1701>
    2adf: c8           	iny
    2ae0: 91 10        	sta	($10),y                 ; 0x2010 <f256main+0x16fc>
    2ae2: 68           	pla
    2ae3: e0 00        	cpx	#$0
    2ae5: f0 0d        	beq	$2af4 <f256main+0x21e0>
    2ae7: 48           	pha
    2ae8: a0 0e        	ldy	#$e
    2aea: b1 10        	lda	($10),y                 ; 0x2010 <f256main+0x16fc>
    2aec: 85 12        	sta	$12                     ; 0x2012 <f256main+0x16fe>
    2aee: c8           	iny
    2aef: b1 10        	lda	($10),y                 ; 0x2010 <f256main+0x16fc>
    2af1: 85 13        	sta	$13                     ; 0x2013 <f256main+0x16ff>
    2af3: 68           	pla
    2af4: 92 12        	sta	($12)                   ; 0x2012 <f256main+0x16fe>
    2af6: a5 18        	lda	$18                     ; 0x2018 <f256main+0x1704>
    2af8: 92 12        	sta	($12)                   ; 0x2012 <f256main+0x16fe>
    2afa: a6 81        	ldx	$81                     ; 0x2081 <f256main+0x176d>
    2afc: a4 82        	ldy	$82                     ; 0x2082 <f256main+0x176e>
    2afe: 86 12        	stx	$12                     ; 0x2012 <f256main+0x16fe>
    2b00: 84 13        	sty	$13                     ; 0x2013 <f256main+0x16ff>
    2b02: b2 12        	lda	($12)                   ; 0x2012 <f256main+0x16fe>
    2b04: 85 14        	sta	$14                     ; 0x2014 <f256main+0x1700>
    2b06: a0 01        	ldy	#$1
    2b08: b1 12        	lda	($12),y                 ; 0x2012 <f256main+0x16fe>
    2b0a: 85 15        	sta	$15                     ; 0x2015 <f256main+0x1701>
    2b0c: a0 03        	ldy	#$3
    2b0e: b1 12        	lda	($12),y                 ; 0x2012 <f256main+0x16fe>
    2b10: aa           	tax
    2b11: a8           	tay
    2b12: b1 14        	lda	($14),y                 ; 0x2014 <f256main+0x1700>
    2b14: 85 16        	sta	$16                     ; 0x2016 <f256main+0x1702>
    2b16: a0 02        	ldy	#$2
    2b18: b1 12        	lda	($12),y                 ; 0x2012 <f256main+0x16fe>
    2b1a: 48           	pha
    2b1b: a0 0e        	ldy	#$e
    2b1d: b1 10        	lda	($10),y                 ; 0x2010 <f256main+0x16fc>
    2b1f: 85 12        	sta	$12                     ; 0x2012 <f256main+0x16fe>
    2b21: c8           	iny
    2b22: b1 10        	lda	($10),y                 ; 0x2010 <f256main+0x16fc>
    2b24: 85 13        	sta	$13                     ; 0x2013 <f256main+0x16ff>
    2b26: 68           	pla
    2b27: f0 08        	beq	$2b31 <f256main+0x221d>
    2b29: a0 a1        	ldy	#$a1
    2b2b: 84 12        	sty	$12                     ; 0x2012 <f256main+0x16fe>
    2b2d: a0 dd        	ldy	#$dd
    2b2f: 84 13        	sty	$13                     ; 0x2013 <f256main+0x16ff>
    2b31: 8a           	txa
    2b32: 09 c0        	ora	#$c0
    2b34: 92 12        	sta	($12)                   ; 0x2012 <f256main+0x16fe>
    2b36: a5 16        	lda	$16                     ; 0x2016 <f256main+0x1702>
    2b38: 92 12        	sta	($12)                   ; 0x2012 <f256main+0x16fe>
    2b3a: a6 81        	ldx	$81                     ; 0x2081 <f256main+0x176d>
    2b3c: a4 82        	ldy	$82                     ; 0x2082 <f256main+0x176e>
    2b3e: 86 12        	stx	$12                     ; 0x2012 <f256main+0x16fe>
    2b40: 84 13        	sty	$13                     ; 0x2013 <f256main+0x16ff>
    2b42: a0 06        	ldy	#$6
    2b44: b1 12        	lda	($12),y                 ; 0x2012 <f256main+0x16fe>
    2b46: c9 03        	cmp	#$3
    2b48: f0 12        	beq	$2b5c <f256main+0x2248>
    2b4a: c9 01        	cmp	#$1
    2b4c: f0 03        	beq	$2b51 <f256main+0x223d>
    2b4e: 4c 14 2c     	jmp	$2c14 <f256main+0x2300>
    2b51: a0 04        	ldy	#$4
    2b53: b1 12        	lda	($12),y                 ; 0x2012 <f256main+0x16fe>
    2b55: c9 05        	cmp	#$5
    2b57: 90 0e        	bcc	$2b67 <f256main+0x2253>
    2b59: 4c 14 2c     	jmp	$2c14 <f256main+0x2300>
    2b5c: a0 05        	ldy	#$5
    2b5e: b1 12        	lda	($12),y                 ; 0x2012 <f256main+0x16fe>
    2b60: c9 16        	cmp	#$16
    2b62: 90 03        	bcc	$2b67 <f256main+0x2253>
    2b64: 4c 14 2c     	jmp	$2c14 <f256main+0x2300>
    2b67: 1a           	inc
    2b68: 4c 12 2c     	jmp	$2c12 <f256main+0x22fe>
    2b6b: e0 00        	cpx	#$0
    2b6d: b0 03        	bcs	$2b72 <f256main+0x225e>
    2b6f: 4c 76 2a     	jmp	$2a76 <f256main+0x2162>
    2b72: 4c 96 2a     	jmp	$2a96 <f256main+0x2182>
    2b75: 98           	tya
    2b76: a8           	tay
    2b77: aa           	tax
    2b78: b1 14        	lda	($14),y                 ; 0x2014 <f256main+0x1700>
    2b7a: 85 18        	sta	$18                     ; 0x2018 <f256main+0x1704>
    2b7c: 86 14        	stx	$14                     ; 0x2014 <f256main+0x1700>
    2b7e: a0 02        	ldy	#$2
    2b80: b1 12        	lda	($12),y                 ; 0x2012 <f256main+0x16fe>
    2b82: aa           	tax
    2b83: a5 14        	lda	$14                     ; 0x2014 <f256main+0x1700>
    2b85: 09 c0        	ora	#$c0
    2b87: a0 a1        	ldy	#$a1
    2b89: 84 12        	sty	$12                     ; 0x2012 <f256main+0x16fe>
    2b8b: a0 dd        	ldy	#$dd
    2b8d: 84 13        	sty	$13                     ; 0x2013 <f256main+0x16ff>
    2b8f: a0 b1        	ldy	#$b1
    2b91: 84 14        	sty	$14                     ; 0x2014 <f256main+0x1700>
    2b93: a0 dd        	ldy	#$dd
    2b95: 84 15        	sty	$15                     ; 0x2015 <f256main+0x1701>
    2b97: 48           	pha
    2b98: a5 14        	lda	$14                     ; 0x2014 <f256main+0x1700>
    2b9a: a0 0e        	ldy	#$e
    2b9c: 91 10        	sta	($10),y                 ; 0x2010 <f256main+0x16fc>
    2b9e: a5 15        	lda	$15                     ; 0x2015 <f256main+0x1701>
    2ba0: c8           	iny
    2ba1: 91 10        	sta	($10),y                 ; 0x2010 <f256main+0x16fc>
    2ba3: 68           	pla
    2ba4: e0 00        	cpx	#$0
    2ba6: f0 0d        	beq	$2bb5 <f256main+0x22a1>
    2ba8: 48           	pha
    2ba9: a0 0e        	ldy	#$e
    2bab: b1 10        	lda	($10),y                 ; 0x2010 <f256main+0x16fc>
    2bad: 85 12        	sta	$12                     ; 0x2012 <f256main+0x16fe>
    2baf: c8           	iny
    2bb0: b1 10        	lda	($10),y                 ; 0x2010 <f256main+0x16fc>
    2bb2: 85 13        	sta	$13                     ; 0x2013 <f256main+0x16ff>
    2bb4: 68           	pla
    2bb5: 92 12        	sta	($12)                   ; 0x2012 <f256main+0x16fe>
    2bb7: a5 18        	lda	$18                     ; 0x2018 <f256main+0x1704>
    2bb9: 92 12        	sta	($12)                   ; 0x2012 <f256main+0x16fe>
    2bbb: a6 81        	ldx	$81                     ; 0x2081 <f256main+0x176d>
    2bbd: a4 82        	ldy	$82                     ; 0x2082 <f256main+0x176e>
    2bbf: 86 12        	stx	$12                     ; 0x2012 <f256main+0x16fe>
    2bc1: 84 13        	sty	$13                     ; 0x2013 <f256main+0x16ff>
    2bc3: b2 12        	lda	($12)                   ; 0x2012 <f256main+0x16fe>
    2bc5: 85 14        	sta	$14                     ; 0x2014 <f256main+0x1700>
    2bc7: a0 01        	ldy	#$1
    2bc9: b1 12        	lda	($12),y                 ; 0x2012 <f256main+0x16fe>
    2bcb: 85 15        	sta	$15                     ; 0x2015 <f256main+0x1701>
    2bcd: a0 03        	ldy	#$3
    2bcf: b1 12        	lda	($12),y                 ; 0x2012 <f256main+0x16fe>
    2bd1: aa           	tax
    2bd2: a8           	tay
    2bd3: b1 14        	lda	($14),y                 ; 0x2014 <f256main+0x1700>
    2bd5: 85 16        	sta	$16                     ; 0x2016 <f256main+0x1702>
    2bd7: a0 02        	ldy	#$2
    2bd9: b1 12        	lda	($12),y                 ; 0x2012 <f256main+0x16fe>
    2bdb: 48           	pha
    2bdc: a0 0e        	ldy	#$e
    2bde: b1 10        	lda	($10),y                 ; 0x2010 <f256main+0x16fc>
    2be0: 85 12        	sta	$12                     ; 0x2012 <f256main+0x16fe>
    2be2: c8           	iny
    2be3: b1 10        	lda	($10),y                 ; 0x2010 <f256main+0x16fc>
    2be5: 85 13        	sta	$13                     ; 0x2013 <f256main+0x16ff>
    2be7: 68           	pla
    2be8: f0 08        	beq	$2bf2 <f256main+0x22de>
    2bea: a0 a1        	ldy	#$a1
    2bec: 84 12        	sty	$12                     ; 0x2012 <f256main+0x16fe>
    2bee: a0 dd        	ldy	#$dd
    2bf0: 84 13        	sty	$13                     ; 0x2013 <f256main+0x16ff>
    2bf2: 8a           	txa
    2bf3: 09 c0        	ora	#$c0
    2bf5: 92 12        	sta	($12)                   ; 0x2012 <f256main+0x16fe>
    2bf7: a5 16        	lda	$16                     ; 0x2016 <f256main+0x1702>
    2bf9: 92 12        	sta	($12)                   ; 0x2012 <f256main+0x16fe>
    2bfb: a6 81        	ldx	$81                     ; 0x2081 <f256main+0x176d>
    2bfd: a4 82        	ldy	$82                     ; 0x2082 <f256main+0x176e>
    2bff: 86 12        	stx	$12                     ; 0x2012 <f256main+0x16fe>
    2c01: 84 13        	sty	$13                     ; 0x2013 <f256main+0x16ff>
    2c03: a0 06        	ldy	#$6
    2c05: b1 12        	lda	($12),y                 ; 0x2012 <f256main+0x16fe>
    2c07: a0 04        	ldy	#$4
    2c09: c9 01        	cmp	#$1
    2c0b: d0 07        	bne	$2c14 <f256main+0x2300>
    2c0d: b1 12        	lda	($12),y                 ; 0x2012 <f256main+0x16fe>
    2c0f: f0 03        	beq	$2c14 <f256main+0x2300>
    2c11: 3a           	dec
    2c12: 91 12        	sta	($12),y                 ; 0x2012 <f256main+0x16fe>
    2c14: 20 f3 46     	jsr	$46f3 <refreshInstrumentText>
    2c17: 4c e4 0e     	jmp	$ee4 <f256main+0x5d0>
    2c1a: a9 00        	lda	#$0
    2c1c: 91 12        	sta	($12),y                 ; 0x2012 <f256main+0x16fe>
    2c1e: 20 b7 4b     	jsr	$4bb7 <refreshBeatTextChoice>
    2c21: 4c e4 0e     	jmp	$ee4 <f256main+0x5d0>
    2c24: a2 00        	ldx	#$0
    2c26: 64 12        	stz	$12                     ; 0x2012 <f256main+0x16fe>
    2c28: a0 09        	ldy	#$9
    2c2a: b1 2c        	lda	($2c),y                 ; 0x202c <f256main+0x1718>
    2c2c: 85 14        	sta	$14                     ; 0x2014 <f256main+0x1700>
    2c2e: 86 13        	stx	$13                     ; 0x2013 <f256main+0x16ff>
    2c30: 8a           	txa
    2c31: 18           	clc
    2c32: 69 1e        	adc	#$1e
    2c34: a8           	tay
    2c35: a9 00        	lda	#$0
    2c37: 69 00        	adc	#$0
    2c39: d0 0b        	bne	$2c46 <f256main+0x2332>
    2c3b: a6 14        	ldx	$14                     ; 0x2014 <f256main+0x1700>
    2c3d: 86 12        	stx	$12                     ; 0x2012 <f256main+0x16fe>
    2c3f: c4 12        	cpy	$12                     ; 0x2012 <f256main+0x16fe>
    2c41: 90 0a        	bcc	$2c4d <f256main+0x2339>
    2c43: 4c e4 0e     	jmp	$ee4 <f256main+0x5d0>
    2c46: c9 00        	cmp	#$0
    2c48: 90 03        	bcc	$2c4d <f256main+0x2339>
    2c4a: 4c e4 0e     	jmp	$ee4 <f256main+0x5d0>
    2c4d: a5 13        	lda	$13                     ; 0x2013 <f256main+0x16ff>
    2c4f: 49 ff        	eor	#$ff
    2c51: 85 12        	sta	$12                     ; 0x2012 <f256main+0x16fe>
    2c53: 18           	clc
    2c54: a5 14        	lda	$14                     ; 0x2014 <f256main+0x1700>
    2c56: 65 12        	adc	$12                     ; 0x2012 <f256main+0x16fe>
    2c58: a0 09        	ldy	#$9
    2c5a: 91 2c        	sta	($2c),y                 ; 0x202c <f256main+0x1718>
    2c5c: 20 be 38     	jsr	$38be <prepTempoLUT>
    2c5f: a0 09        	ldy	#$9
    2c61: b1 2c        	lda	($2c),y                 ; 0x202c <f256main+0x1718>
    2c63: 20 1e 4c     	jsr	$4c1e <updateTempoText>
    2c66: a2 b0        	ldx	#$b0
    2c68: 8e b1 dd     	stx	$ddb1                   ; 0xddb1 <__heap_start+0x50f5>
    2c6b: a0 7b        	ldy	#$7b
    2c6d: 8c b1 dd     	sty	$ddb1                   ; 0xddb1 <__heap_start+0x50f5>
    2c70: 9c b1 dd     	stz	$ddb1                   ; 0xddb1 <__heap_start+0x50f5>
    2c73: 8e a1 dd     	stx	$dda1                   ; 0xdda1 <__heap_start+0x50e5>
    2c76: 8c a1 dd     	sty	$dda1                   ; 0xdda1 <__heap_start+0x50e5>
    2c79: 9c a1 dd     	stz	$dda1                   ; 0xdda1 <__heap_start+0x50e5>
    2c7c: e8           	inx
    2c7d: 8e b1 dd     	stx	$ddb1                   ; 0xddb1 <__heap_start+0x50f5>
    2c80: 8c b1 dd     	sty	$ddb1                   ; 0xddb1 <__heap_start+0x50f5>
    2c83: 9c b1 dd     	stz	$ddb1                   ; 0xddb1 <__heap_start+0x50f5>
    2c86: 8e a1 dd     	stx	$dda1                   ; 0xdda1 <__heap_start+0x50e5>
    2c89: 8c a1 dd     	sty	$dda1                   ; 0xdda1 <__heap_start+0x50e5>
    2c8c: 9c a1 dd     	stz	$dda1                   ; 0xdda1 <__heap_start+0x50e5>
    2c8f: a2 b9        	ldx	#$b9
    2c91: 8e b1 dd     	stx	$ddb1                   ; 0xddb1 <__heap_start+0x50f5>
    2c94: 8c b1 dd     	sty	$ddb1                   ; 0xddb1 <__heap_start+0x50f5>
    2c97: 9c b1 dd     	stz	$ddb1                   ; 0xddb1 <__heap_start+0x50f5>
    2c9a: 8e a1 dd     	stx	$dda1                   ; 0xdda1 <__heap_start+0x50e5>
    2c9d: 8c a1 dd     	sty	$dda1                   ; 0xdda1 <__heap_start+0x50e5>
    2ca0: 9c a1 dd     	stz	$dda1                   ; 0xdda1 <__heap_start+0x50e5>
    2ca3: a6 4d        	ldx	$4d                     ; 0x204d <f256main+0x1739>
    2ca5: 86 19        	stx	$19                     ; 0x2019 <f256main+0x1705>
    2ca7: a6 4e        	ldx	$4e                     ; 0x204e <f256main+0x173a>
    2ca9: 86 18        	stx	$18                     ; 0x2018 <f256main+0x1704>
    2cab: a6 81        	ldx	$81                     ; 0x2081 <f256main+0x176d>
    2cad: a4 82        	ldy	$82                     ; 0x2082 <f256main+0x176e>
    2caf: 86 12        	stx	$12                     ; 0x2012 <f256main+0x16fe>
    2cb1: 84 13        	sty	$13                     ; 0x2013 <f256main+0x16ff>
    2cb3: a0 08        	ldy	#$8
    2cb5: b1 12        	lda	($12),y                 ; 0x2012 <f256main+0x16fe>
    2cb7: 85 14        	sta	$14                     ; 0x2014 <f256main+0x1700>
    2cb9: 64 15        	stz	$15                     ; 0x2015 <f256main+0x1701>
    2cbb: 0a           	asl
    2cbc: 64 17        	stz	$17                     ; 0x2017 <f256main+0x1703>
    2cbe: 26 17        	rol	$17                     ; 0x2017 <f256main+0x1703>
    2cc0: 0a           	asl
    2cc1: 26 17        	rol	$17                     ; 0x2017 <f256main+0x1703>
    2cc3: 0a           	asl
    2cc4: 26 17        	rol	$17                     ; 0x2017 <f256main+0x1703>
    2cc6: 0a           	asl
    2cc7: 26 17        	rol	$17                     ; 0x2017 <f256main+0x1703>
    2cc9: 38           	sec
    2cca: e5 14        	sbc	$14                     ; 0x2014 <f256main+0x1700>
    2ccc: 85 16        	sta	$16                     ; 0x2016 <f256main+0x1702>
    2cce: a5 17        	lda	$17                     ; 0x2017 <f256main+0x1703>
    2cd0: e9 00        	sbc	#$0
    2cd2: 85 17        	sta	$17                     ; 0x2017 <f256main+0x1703>
    2cd4: a5 19        	lda	$19                     ; 0x2019 <f256main+0x1705>
    2cd6: 18           	clc
    2cd7: 65 16        	adc	$16                     ; 0x2016 <f256main+0x1702>
    2cd9: 85 16        	sta	$16                     ; 0x2016 <f256main+0x1702>
    2cdb: a5 18        	lda	$18                     ; 0x2018 <f256main+0x1704>
    2cdd: 65 17        	adc	$17                     ; 0x2017 <f256main+0x1703>
    2cdf: 85 17        	sta	$17                     ; 0x2017 <f256main+0x1703>
    2ce1: a0 04        	ldy	#$4
    2ce3: b1 16        	lda	($16),y                 ; 0x2016 <f256main+0x1702>
    2ce5: d0 03        	bne	$2cea <f256main+0x23d6>
    2ce7: 4c e4 0e     	jmp	$ee4 <f256main+0x5d0>
    2cea: a6 19        	ldx	$19                     ; 0x2019 <f256main+0x1705>
    2cec: a0 00        	ldy	#$0
    2cee: a5 14        	lda	$14                     ; 0x2014 <f256main+0x1700>
    2cf0: 0a           	asl
    2cf1: 64 16        	stz	$16                     ; 0x2016 <f256main+0x1702>
    2cf3: 26 16        	rol	$16                     ; 0x2016 <f256main+0x1702>
    2cf5: 0a           	asl
    2cf6: 26 16        	rol	$16                     ; 0x2016 <f256main+0x1702>
    2cf8: 0a           	asl
    2cf9: 26 16        	rol	$16                     ; 0x2016 <f256main+0x1702>
    2cfb: 0a           	asl
    2cfc: 26 16        	rol	$16                     ; 0x2016 <f256main+0x1702>
    2cfe: 38           	sec
    2cff: e5 14        	sbc	$14                     ; 0x2014 <f256main+0x1700>
    2d01: 85 14        	sta	$14                     ; 0x2014 <f256main+0x1700>
    2d03: a5 16        	lda	$16                     ; 0x2016 <f256main+0x1702>
    2d05: e5 15        	sbc	$15                     ; 0x2015 <f256main+0x1701>
    2d07: 85 15        	sta	$15                     ; 0x2015 <f256main+0x1701>
    2d09: 8a           	txa
    2d0a: 18           	clc
    2d0b: 65 14        	adc	$14                     ; 0x2014 <f256main+0x1700>
    2d0d: 85 16        	sta	$16                     ; 0x2016 <f256main+0x1702>
    2d0f: a5 18        	lda	$18                     ; 0x2018 <f256main+0x1704>
    2d11: 65 15        	adc	$15                     ; 0x2015 <f256main+0x1701>
    2d13: 5a           	phy
    2d14: a4 16        	ldy	$16                     ; 0x2016 <f256main+0x1702>
    2d16: 84 14        	sty	$14                     ; 0x2014 <f256main+0x1700>
    2d18: 7a           	ply
    2d19: 85 15        	sta	$15                     ; 0x2015 <f256main+0x1701>
    2d1b: 85 17        	sta	$17                     ; 0x2017 <f256main+0x1703>
    2d1d: 18           	clc
    2d1e: a5 16        	lda	$16                     ; 0x2016 <f256main+0x1702>
    2d20: 69 09        	adc	#$9
    2d22: 85 16        	sta	$16                     ; 0x2016 <f256main+0x1702>
    2d24: a5 17        	lda	$17                     ; 0x2017 <f256main+0x1703>
    2d26: 69 00        	adc	#$0
    2d28: 85 17        	sta	$17                     ; 0x2017 <f256main+0x1703>
    2d2a: 84 19        	sty	$19                     ; 0x2019 <f256main+0x1705>
    2d2c: a0 09        	ldy	#$9
    2d2e: b1 14        	lda	($14),y                 ; 0x2014 <f256main+0x1700>
    2d30: 85 14        	sta	$14                     ; 0x2014 <f256main+0x1700>
    2d32: a0 01        	ldy	#$1
    2d34: b1 16        	lda	($16),y                 ; 0x2016 <f256main+0x1702>
    2d36: 85 15        	sta	$15                     ; 0x2015 <f256main+0x1701>
    2d38: a9 00        	lda	#$0
    2d3a: a4 19        	ldy	$19                     ; 0x2019 <f256main+0x1705>
    2d3c: 91 14        	sta	($14),y                 ; 0x2014 <f256main+0x1700>
    2d3e: a0 08        	ldy	#$8
    2d40: b1 12        	lda	($12),y                 ; 0x2012 <f256main+0x16fe>
    2d42: 85 14        	sta	$14                     ; 0x2014 <f256main+0x1700>
    2d44: 0a           	asl
    2d45: 64 16        	stz	$16                     ; 0x2016 <f256main+0x1702>
    2d47: 26 16        	rol	$16                     ; 0x2016 <f256main+0x1702>
    2d49: 0a           	asl
    2d4a: 26 16        	rol	$16                     ; 0x2016 <f256main+0x1702>
    2d4c: 0a           	asl
    2d4d: 26 16        	rol	$16                     ; 0x2016 <f256main+0x1702>
    2d4f: 0a           	asl
    2d50: 26 16        	rol	$16                     ; 0x2016 <f256main+0x1702>
    2d52: 38           	sec
    2d53: e5 14        	sbc	$14                     ; 0x2014 <f256main+0x1700>
    2d55: 85 15        	sta	$15                     ; 0x2015 <f256main+0x1701>
    2d57: a5 16        	lda	$16                     ; 0x2016 <f256main+0x1702>
    2d59: e9 00        	sbc	#$0
    2d5b: 85 16        	sta	$16                     ; 0x2016 <f256main+0x1702>
    2d5d: 8a           	txa
    2d5e: 18           	clc
    2d5f: 65 15        	adc	$15                     ; 0x2015 <f256main+0x1701>
    2d61: 85 15        	sta	$15                     ; 0x2015 <f256main+0x1701>
    2d63: a5 18        	lda	$18                     ; 0x2018 <f256main+0x1704>
    2d65: 65 16        	adc	$16                     ; 0x2016 <f256main+0x1702>
    2d67: 85 17        	sta	$17                     ; 0x2017 <f256main+0x1703>
    2d69: a4 15        	ldy	$15                     ; 0x2015 <f256main+0x1701>
    2d6b: 84 16        	sty	$16                     ; 0x2016 <f256main+0x1702>
    2d6d: a4 19        	ldy	$19                     ; 0x2019 <f256main+0x1705>
    2d6f: c8           	iny
    2d70: 98           	tya
    2d71: a0 04        	ldy	#$4
    2d73: d1 16        	cmp	($16),y                 ; 0x2016 <f256main+0x1702>
    2d75: 64 15        	stz	$15                     ; 0x2015 <f256main+0x1701>
    2d77: a8           	tay
    2d78: b0 03        	bcs	$2d7d <f256main+0x2469>
    2d7a: 4c ee 2c     	jmp	$2cee <f256main+0x23da>
    2d7d: 4c e4 0e     	jmp	$ee4 <f256main+0x5d0>
    2d80: 64 12        	stz	$12                     ; 0x2012 <f256main+0x16fe>
    2d82: 64 13        	stz	$13                     ; 0x2013 <f256main+0x16ff>
    2d84: a0 09        	ldy	#$9
    2d86: b1 2c        	lda	($2c),y                 ; 0x202c <f256main+0x1718>
    2d88: a2 00        	ldx	#$0
    2d8a: e4 13        	cpx	$13                     ; 0x2013 <f256main+0x16ff>
    2d8c: d0 08        	bne	$2d96 <f256main+0x2482>
    2d8e: aa           	tax
    2d8f: a5 12        	lda	$12                     ; 0x2012 <f256main+0x16fe>
    2d91: 49 ff        	eor	#$ff
    2d93: 85 13        	sta	$13                     ; 0x2013 <f256main+0x16ff>
    2d95: 8a           	txa
    2d96: e4 13        	cpx	$13                     ; 0x2013 <f256main+0x16ff>
    2d98: 90 03        	bcc	$2d9d <f256main+0x2489>
    2d9a: 4c e4 0e     	jmp	$ee4 <f256main+0x5d0>
    2d9d: 18           	clc
    2d9e: 65 12        	adc	$12                     ; 0x2012 <f256main+0x16fe>
    2da0: 1a           	inc
    2da1: 91 2c        	sta	($2c),y                 ; 0x202c <f256main+0x1718>
    2da3: 20 be 38     	jsr	$38be <prepTempoLUT>
    2da6: a0 09        	ldy	#$9
    2da8: b1 2c        	lda	($2c),y                 ; 0x202c <f256main+0x1718>
    2daa: 20 1e 4c     	jsr	$4c1e <updateTempoText>
    2dad: a2 b0        	ldx	#$b0
    2daf: 8e b1 dd     	stx	$ddb1                   ; 0xddb1 <__heap_start+0x50f5>
    2db2: a0 7b        	ldy	#$7b
    2db4: 8c b1 dd     	sty	$ddb1                   ; 0xddb1 <__heap_start+0x50f5>
    2db7: 9c b1 dd     	stz	$ddb1                   ; 0xddb1 <__heap_start+0x50f5>
    2dba: 8e a1 dd     	stx	$dda1                   ; 0xdda1 <__heap_start+0x50e5>
    2dbd: 8c a1 dd     	sty	$dda1                   ; 0xdda1 <__heap_start+0x50e5>
    2dc0: 9c a1 dd     	stz	$dda1                   ; 0xdda1 <__heap_start+0x50e5>
    2dc3: e8           	inx
    2dc4: 8e b1 dd     	stx	$ddb1                   ; 0xddb1 <__heap_start+0x50f5>
    2dc7: 8c b1 dd     	sty	$ddb1                   ; 0xddb1 <__heap_start+0x50f5>
    2dca: 9c b1 dd     	stz	$ddb1                   ; 0xddb1 <__heap_start+0x50f5>
    2dcd: 8e a1 dd     	stx	$dda1                   ; 0xdda1 <__heap_start+0x50e5>
    2dd0: 8c a1 dd     	sty	$dda1                   ; 0xdda1 <__heap_start+0x50e5>
    2dd3: 9c a1 dd     	stz	$dda1                   ; 0xdda1 <__heap_start+0x50e5>
    2dd6: a2 b9        	ldx	#$b9
    2dd8: 8e b1 dd     	stx	$ddb1                   ; 0xddb1 <__heap_start+0x50f5>
    2ddb: 8c b1 dd     	sty	$ddb1                   ; 0xddb1 <__heap_start+0x50f5>
    2dde: 9c b1 dd     	stz	$ddb1                   ; 0xddb1 <__heap_start+0x50f5>
    2de1: 8e a1 dd     	stx	$dda1                   ; 0xdda1 <__heap_start+0x50e5>
    2de4: 8c a1 dd     	sty	$dda1                   ; 0xdda1 <__heap_start+0x50e5>
    2de7: 9c a1 dd     	stz	$dda1                   ; 0xdda1 <__heap_start+0x50e5>
    2dea: a6 4d        	ldx	$4d                     ; 0x204d <f256main+0x1739>
    2dec: 86 19        	stx	$19                     ; 0x2019 <f256main+0x1705>
    2dee: a6 4e        	ldx	$4e                     ; 0x204e <f256main+0x173a>
    2df0: 86 18        	stx	$18                     ; 0x2018 <f256main+0x1704>
    2df2: a6 81        	ldx	$81                     ; 0x2081 <f256main+0x176d>
    2df4: a4 82        	ldy	$82                     ; 0x2082 <f256main+0x176e>
    2df6: 86 12        	stx	$12                     ; 0x2012 <f256main+0x16fe>
    2df8: 84 13        	sty	$13                     ; 0x2013 <f256main+0x16ff>
    2dfa: a0 08        	ldy	#$8
    2dfc: b1 12        	lda	($12),y                 ; 0x2012 <f256main+0x16fe>
    2dfe: 85 14        	sta	$14                     ; 0x2014 <f256main+0x1700>
    2e00: 64 15        	stz	$15                     ; 0x2015 <f256main+0x1701>
    2e02: 0a           	asl
    2e03: 64 17        	stz	$17                     ; 0x2017 <f256main+0x1703>
    2e05: 26 17        	rol	$17                     ; 0x2017 <f256main+0x1703>
    2e07: 0a           	asl
    2e08: 26 17        	rol	$17                     ; 0x2017 <f256main+0x1703>
    2e0a: 0a           	asl
    2e0b: 26 17        	rol	$17                     ; 0x2017 <f256main+0x1703>
    2e0d: 0a           	asl
    2e0e: 26 17        	rol	$17                     ; 0x2017 <f256main+0x1703>
    2e10: 38           	sec
    2e11: e5 14        	sbc	$14                     ; 0x2014 <f256main+0x1700>
    2e13: 85 16        	sta	$16                     ; 0x2016 <f256main+0x1702>
    2e15: a5 17        	lda	$17                     ; 0x2017 <f256main+0x1703>
    2e17: e9 00        	sbc	#$0
    2e19: 85 17        	sta	$17                     ; 0x2017 <f256main+0x1703>
    2e1b: a5 19        	lda	$19                     ; 0x2019 <f256main+0x1705>
    2e1d: 18           	clc
    2e1e: 65 16        	adc	$16                     ; 0x2016 <f256main+0x1702>
    2e20: 85 16        	sta	$16                     ; 0x2016 <f256main+0x1702>
    2e22: a5 18        	lda	$18                     ; 0x2018 <f256main+0x1704>
    2e24: 65 17        	adc	$17                     ; 0x2017 <f256main+0x1703>
    2e26: 85 17        	sta	$17                     ; 0x2017 <f256main+0x1703>
    2e28: a0 04        	ldy	#$4
    2e2a: b1 16        	lda	($16),y                 ; 0x2016 <f256main+0x1702>
    2e2c: d0 03        	bne	$2e31 <f256main+0x251d>
    2e2e: 4c e4 0e     	jmp	$ee4 <f256main+0x5d0>
    2e31: a6 19        	ldx	$19                     ; 0x2019 <f256main+0x1705>
    2e33: a0 00        	ldy	#$0
    2e35: a5 14        	lda	$14                     ; 0x2014 <f256main+0x1700>
    2e37: 0a           	asl
    2e38: 64 16        	stz	$16                     ; 0x2016 <f256main+0x1702>
    2e3a: 26 16        	rol	$16                     ; 0x2016 <f256main+0x1702>
    2e3c: 0a           	asl
    2e3d: 26 16        	rol	$16                     ; 0x2016 <f256main+0x1702>
    2e3f: 0a           	asl
    2e40: 26 16        	rol	$16                     ; 0x2016 <f256main+0x1702>
    2e42: 0a           	asl
    2e43: 26 16        	rol	$16                     ; 0x2016 <f256main+0x1702>
    2e45: 38           	sec
    2e46: e5 14        	sbc	$14                     ; 0x2014 <f256main+0x1700>
    2e48: 85 14        	sta	$14                     ; 0x2014 <f256main+0x1700>
    2e4a: a5 16        	lda	$16                     ; 0x2016 <f256main+0x1702>
    2e4c: e5 15        	sbc	$15                     ; 0x2015 <f256main+0x1701>
    2e4e: 85 15        	sta	$15                     ; 0x2015 <f256main+0x1701>
    2e50: 8a           	txa
    2e51: 18           	clc
    2e52: 65 14        	adc	$14                     ; 0x2014 <f256main+0x1700>
    2e54: 85 16        	sta	$16                     ; 0x2016 <f256main+0x1702>
    2e56: a5 18        	lda	$18                     ; 0x2018 <f256main+0x1704>
    2e58: 65 15        	adc	$15                     ; 0x2015 <f256main+0x1701>
    2e5a: 5a           	phy
    2e5b: a4 16        	ldy	$16                     ; 0x2016 <f256main+0x1702>
    2e5d: 84 14        	sty	$14                     ; 0x2014 <f256main+0x1700>
    2e5f: 7a           	ply
    2e60: 85 15        	sta	$15                     ; 0x2015 <f256main+0x1701>
    2e62: 85 17        	sta	$17                     ; 0x2017 <f256main+0x1703>
    2e64: 18           	clc
    2e65: a5 16        	lda	$16                     ; 0x2016 <f256main+0x1702>
    2e67: 69 09        	adc	#$9
    2e69: 85 16        	sta	$16                     ; 0x2016 <f256main+0x1702>
    2e6b: a5 17        	lda	$17                     ; 0x2017 <f256main+0x1703>
    2e6d: 69 00        	adc	#$0
    2e6f: 85 17        	sta	$17                     ; 0x2017 <f256main+0x1703>
    2e71: 84 19        	sty	$19                     ; 0x2019 <f256main+0x1705>
    2e73: a0 09        	ldy	#$9
    2e75: b1 14        	lda	($14),y                 ; 0x2014 <f256main+0x1700>
    2e77: 85 14        	sta	$14                     ; 0x2014 <f256main+0x1700>
    2e79: a0 01        	ldy	#$1
    2e7b: b1 16        	lda	($16),y                 ; 0x2016 <f256main+0x1702>
    2e7d: 85 15        	sta	$15                     ; 0x2015 <f256main+0x1701>
    2e7f: a9 00        	lda	#$0
    2e81: a4 19        	ldy	$19                     ; 0x2019 <f256main+0x1705>
    2e83: 91 14        	sta	($14),y                 ; 0x2014 <f256main+0x1700>
    2e85: a0 08        	ldy	#$8
    2e87: b1 12        	lda	($12),y                 ; 0x2012 <f256main+0x16fe>
    2e89: 85 14        	sta	$14                     ; 0x2014 <f256main+0x1700>
    2e8b: 0a           	asl
    2e8c: 64 16        	stz	$16                     ; 0x2016 <f256main+0x1702>
    2e8e: 26 16        	rol	$16                     ; 0x2016 <f256main+0x1702>
    2e90: 0a           	asl
    2e91: 26 16        	rol	$16                     ; 0x2016 <f256main+0x1702>
    2e93: 0a           	asl
    2e94: 26 16        	rol	$16                     ; 0x2016 <f256main+0x1702>
    2e96: 0a           	asl
    2e97: 26 16        	rol	$16                     ; 0x2016 <f256main+0x1702>
    2e99: 38           	sec
    2e9a: e5 14        	sbc	$14                     ; 0x2014 <f256main+0x1700>
    2e9c: 85 15        	sta	$15                     ; 0x2015 <f256main+0x1701>
    2e9e: a5 16        	lda	$16                     ; 0x2016 <f256main+0x1702>
    2ea0: e9 00        	sbc	#$0
    2ea2: 85 16        	sta	$16                     ; 0x2016 <f256main+0x1702>
    2ea4: 8a           	txa
    2ea5: 18           	clc
    2ea6: 65 15        	adc	$15                     ; 0x2015 <f256main+0x1701>
    2ea8: 85 15        	sta	$15                     ; 0x2015 <f256main+0x1701>
    2eaa: a5 18        	lda	$18                     ; 0x2018 <f256main+0x1704>
    2eac: 65 16        	adc	$16                     ; 0x2016 <f256main+0x1702>
    2eae: 85 17        	sta	$17                     ; 0x2017 <f256main+0x1703>
    2eb0: a4 15        	ldy	$15                     ; 0x2015 <f256main+0x1701>
    2eb2: 84 16        	sty	$16                     ; 0x2016 <f256main+0x1702>
    2eb4: a4 19        	ldy	$19                     ; 0x2019 <f256main+0x1705>
    2eb6: c8           	iny
    2eb7: 98           	tya
    2eb8: a0 04        	ldy	#$4
    2eba: d1 16        	cmp	($16),y                 ; 0x2016 <f256main+0x1702>
    2ebc: 64 15        	stz	$15                     ; 0x2015 <f256main+0x1701>
    2ebe: a8           	tay
    2ebf: b0 03        	bcs	$2ec4 <f256main+0x25b0>
    2ec1: 4c 35 2e     	jmp	$2e35 <f256main+0x2521>
    2ec4: 4c e4 0e     	jmp	$ee4 <f256main+0x5d0>

00002ec7 <textPrint>:
    2ec7: a6 01        	ldx	$1                      ; 0x2001 <f256main+0x16ed>
    2ec9: 86 ed        	stx	$ed                     ; 0x20ed <f256main+0x17d9>
    2ecb: a6 34        	ldx	$34                     ; 0x2034 <f256main+0x1720>
    2ecd: a0 50        	ldy	#$50
    2ecf: 8c 00 de     	sty	$de00                   ; 0xde00 <__heap_start+0x5144>
    2ed2: 9c 01 de     	stz	$de01                   ; 0xde01 <__heap_start+0x5145>
    2ed5: 8e 02 de     	stx	$de02                   ; 0xde02 <__heap_start+0x5146>
    2ed8: 9c 03 de     	stz	$de03                   ; 0xde03 <__heap_start+0x5147>
    2edb: ae 10 de     	ldx	$de10                   ; 0xde10 <__heap_start+0x5154>
    2ede: ac 11 de     	ldy	$de11                   ; 0xde11 <__heap_start+0x5155>
    2ee1: 84 15        	sty	$15                     ; 0x2015 <f256main+0x1701>
    2ee3: ad 12 de     	lda	$de12                   ; 0xde12 <__heap_start+0x5156>
    2ee6: ac 13 de     	ldy	$de13                   ; 0xde13 <__heap_start+0x5157>
    2ee9: 84 1c        	sty	$1c                     ; 0x201c <f256main+0x1708>
    2eeb: 9c 08 de     	stz	$de08                   ; 0xde08 <__heap_start+0x514c>
    2eee: a0 c0        	ldy	#$c0
    2ef0: 8c 09 de     	sty	$de09                   ; 0xde09 <__heap_start+0x514d>
    2ef3: 9c 0a de     	stz	$de0a                   ; 0xde0a <__heap_start+0x514e>
    2ef6: 9c 0b de     	stz	$de0b                   ; 0xde0b <__heap_start+0x514f>
    2ef9: 8e 0c de     	stx	$de0c                   ; 0xde0c <__heap_start+0x5150>
    2efc: 64 14        	stz	$14                     ; 0x2014 <f256main+0x1700>
    2efe: a2 00        	ldx	#$0
    2f00: 86 16        	stx	$16                     ; 0x2016 <f256main+0x1702>
    2f02: a2 c0        	ldx	#$c0
    2f04: 86 17        	stx	$17                     ; 0x2017 <f256main+0x1703>
    2f06: a2 11        	ldx	#$11
    2f08: 86 18        	stx	$18                     ; 0x2018 <f256main+0x1704>
    2f0a: a2 c9        	ldx	#$c9
    2f0c: 86 19        	stx	$19                     ; 0x2019 <f256main+0x1705>
    2f0e: a2 10        	ldx	#$10
    2f10: 86 1a        	stx	$1a                     ; 0x201a <f256main+0x1706>
    2f12: a2 c9        	ldx	#$c9
    2f14: 86 1b        	stx	$1b                     ; 0x201b <f256main+0x1707>
    2f16: a6 15        	ldx	$15                     ; 0x2015 <f256main+0x1701>
    2f18: 8e 0d de     	stx	$de0d                   ; 0xde0d <__heap_start+0x5151>
    2f1b: 8d 0e de     	sta	$de0e                   ; 0xde0e <__heap_start+0x5152>
    2f1e: a6 1c        	ldx	$1c                     ; 0x201c <f256main+0x1708>
    2f20: 8e 0f de     	stx	$de0f                   ; 0xde0f <__heap_start+0x5153>
    2f23: ac 18 de     	ldy	$de18                   ; 0xde18 <__heap_start+0x515c>
    2f26: ad 19 de     	lda	$de19                   ; 0xde19 <__heap_start+0x515d>
    2f29: ae 1a de     	ldx	$de1a                   ; 0xde1a <__heap_start+0x515e>
    2f2c: ae 1b de     	ldx	$de1b                   ; 0xde1b <__heap_start+0x515f>
    2f2f: 84 1c        	sty	$1c                     ; 0x201c <f256main+0x1708>
    2f31: 85 1d        	sta	$1d                     ; 0x201d <f256main+0x1709>
    2f33: 64 15        	stz	$15                     ; 0x2015 <f256main+0x1701>
    2f35: 80 13        	bra	$2f4a <textPrint+0x83>
    2f37: a5 1c        	lda	$1c                     ; 0x201c <f256main+0x1708>
    2f39: 18           	clc
    2f3a: 69 50        	adc	#$50
    2f3c: 85 1c        	sta	$1c                     ; 0x201c <f256main+0x1708>
    2f3e: a5 1d        	lda	$1d                     ; 0x201d <f256main+0x1709>
    2f40: 69 00        	adc	#$0
    2f42: 85 1d        	sta	$1d                     ; 0x201d <f256main+0x1709>
    2f44: e6 14        	inc	$14                     ; 0x2014 <f256main+0x1700>
    2f46: d0 02        	bne	$2f4a <textPrint+0x83>
    2f48: e6 15        	inc	$15                     ; 0x2015 <f256main+0x1701>
    2f4a: a5 12        	lda	$12                     ; 0x2012 <f256main+0x16fe>
    2f4c: 18           	clc
    2f4d: 65 14        	adc	$14                     ; 0x2014 <f256main+0x1700>
    2f4f: 85 1e        	sta	$1e                     ; 0x201e <f256main+0x170a>
    2f51: a5 13        	lda	$13                     ; 0x2013 <f256main+0x16ff>
    2f53: 65 15        	adc	$15                     ; 0x2015 <f256main+0x1701>
    2f55: 85 1f        	sta	$1f                     ; 0x201f <f256main+0x170b>
    2f57: b2 1e        	lda	($1e)                   ; 0x201e <f256main+0x170a>
    2f59: c9 0a        	cmp	#$a
    2f5b: f0 26        	beq	$2f83 <textPrint+0xbc>
    2f5d: c9 0d        	cmp	#$d
    2f5f: f0 22        	beq	$2f83 <textPrint+0xbc>
    2f61: aa           	tax
    2f62: d0 03        	bne	$2f67 <textPrint+0xa0>
    2f64: 4c 68 30     	jmp	$3068 <textPrint+0x1a1>
    2f67: a2 03        	ldx	#$3
    2f69: 86 01        	stx	$1                      ; 0x2001 <f256main+0x16ed>
    2f6b: a5 30        	lda	$30                     ; 0x2030 <f256main+0x171c>
    2f6d: a4 33        	ldy	$33                     ; 0x2033 <f256main+0x171f>
    2f6f: 91 1c        	sta	($1c),y                 ; 0x201c <f256main+0x1708>
    2f71: ca           	dex
    2f72: 86 01        	stx	$1                      ; 0x2001 <f256main+0x16ed>
    2f74: b2 1e        	lda	($1e)                   ; 0x201e <f256main+0x170a>
    2f76: a4 33        	ldy	$33                     ; 0x2033 <f256main+0x171f>
    2f78: 91 1c        	sta	($1c),y                 ; 0x201c <f256main+0x1708>
    2f7a: a6 33        	ldx	$33                     ; 0x2033 <f256main+0x171f>
    2f7c: e8           	inx
    2f7d: e6 33        	inc	$33                     ; 0x2033 <f256main+0x171f>
    2f7f: e0 50        	cpx	#$50
    2f81: d0 c1        	bne	$2f44 <textPrint+0x7d>
    2f83: 64 33        	stz	$33                     ; 0x2033 <f256main+0x171f>
    2f85: a6 34        	ldx	$34                     ; 0x2034 <f256main+0x1720>
    2f87: e8           	inx
    2f88: e6 34        	inc	$34                     ; 0x2034 <f256main+0x1720>
    2f8a: e0 1e        	cpx	#$1e
    2f8c: f0 03        	beq	$2f91 <textPrint+0xca>
    2f8e: 4c 37 2f     	jmp	$2f37 <textPrint+0x70>
    2f91: a2 03        	ldx	#$3
    2f93: 86 01        	stx	$1                      ; 0x2001 <f256main+0x16ed>
    2f95: a2 01        	ldx	#$1
    2f97: 86 1c        	stx	$1c                     ; 0x201c <f256main+0x1708>
    2f99: a2 09        	ldx	#$9
    2f9b: a9 10        	lda	#$10
    2f9d: a0 00        	ldy	#$0
    2f9f: 84 1e        	sty	$1e                     ; 0x201e <f256main+0x170a>
    2fa1: a0 c0        	ldy	#$c0
    2fa3: 84 1f        	sty	$1f                     ; 0x201f <f256main+0x170b>
    2fa5: 85 1d        	sta	$1d                     ; 0x201d <f256main+0x1709>
    2fa7: a0 50        	ldy	#$50
    2fa9: b1 1e        	lda	($1e),y                 ; 0x201e <f256main+0x170a>
    2fab: 92 1e        	sta	($1e)                   ; 0x201e <f256main+0x170a>
    2fad: a9 ff        	lda	#$ff
    2faf: c6 1d        	dec	$1d                     ; 0x201d <f256main+0x1709>
    2fb1: c5 1d        	cmp	$1d                     ; 0x201d <f256main+0x1709>
    2fb3: d0 01        	bne	$2fb6 <textPrint+0xef>
    2fb5: ca           	dex
    2fb6: e6 1e        	inc	$1e                     ; 0x201e <f256main+0x170a>
    2fb8: d0 02        	bne	$2fbc <textPrint+0xf5>
    2fba: e6 1f        	inc	$1f                     ; 0x201f <f256main+0x170b>
    2fbc: 8a           	txa
    2fbd: d0 ea        	bne	$2fa9 <textPrint+0xe2>
    2fbf: a5 1d        	lda	$1d                     ; 0x201d <f256main+0x1709>
    2fc1: d0 e6        	bne	$2fa9 <textPrint+0xe2>
    2fc3: a2 02        	ldx	#$2
    2fc5: 86 01        	stx	$1                      ; 0x2001 <f256main+0x16ed>
    2fc7: a2 00        	ldx	#$0
    2fc9: a5 1c        	lda	$1c                     ; 0x201c <f256main+0x1708>
    2fcb: d0 ca        	bne	$2f97 <textPrint+0xd0>
    2fcd: a2 03        	ldx	#$3
    2fcf: 86 01        	stx	$1                      ; 0x2001 <f256main+0x16ed>
    2fd1: a5 30        	lda	$30                     ; 0x2030 <f256main+0x171c>
    2fd3: a2 50        	ldx	#$50
    2fd5: a0 11        	ldy	#$11
    2fd7: 84 1c        	sty	$1c                     ; 0x201c <f256main+0x1708>
    2fd9: a0 c9        	ldy	#$c9
    2fdb: 84 1d        	sty	$1d                     ; 0x201d <f256main+0x1709>
    2fdd: a0 10        	ldy	#$10
    2fdf: 84 1e        	sty	$1e                     ; 0x201e <f256main+0x170a>
    2fe1: a0 c9        	ldy	#$c9
    2fe3: 84 1f        	sty	$1f                     ; 0x201f <f256main+0x170b>
    2fe5: a4 1c        	ldy	$1c                     ; 0x201c <f256main+0x1708>
    2fe7: 84 22        	sty	$22                     ; 0x2022 <f256main+0x170e>
    2fe9: a4 1d        	ldy	$1d                     ; 0x201d <f256main+0x1709>
    2feb: 84 23        	sty	$23                     ; 0x2023 <f256main+0x170f>
    2fed: 92 1e        	sta	($1e)                   ; 0x201e <f256main+0x170a>
    2fef: e6 1c        	inc	$1c                     ; 0x201c <f256main+0x1708>
    2ff1: d0 02        	bne	$2ff5 <textPrint+0x12e>
    2ff3: e6 1d        	inc	$1d                     ; 0x201d <f256main+0x1709>
    2ff5: ca           	dex
    2ff6: a4 22        	ldy	$22                     ; 0x2022 <f256main+0x170e>
    2ff8: 84 1e        	sty	$1e                     ; 0x201e <f256main+0x170a>
    2ffa: a4 23        	ldy	$23                     ; 0x2023 <f256main+0x170f>
    2ffc: 84 1f        	sty	$1f                     ; 0x201f <f256main+0x170b>
    2ffe: e0 00        	cpx	#$0
    3000: d0 e3        	bne	$2fe5 <textPrint+0x11e>
    3002: a2 02        	ldx	#$2
    3004: 86 01        	stx	$1                      ; 0x2001 <f256main+0x16ed>
    3006: a2 50        	ldx	#$50
    3008: a0 11        	ldy	#$11
    300a: 84 1c        	sty	$1c                     ; 0x201c <f256main+0x1708>
    300c: a0 c9        	ldy	#$c9
    300e: 84 1d        	sty	$1d                     ; 0x201d <f256main+0x1709>
    3010: a0 10        	ldy	#$10
    3012: 84 1e        	sty	$1e                     ; 0x201e <f256main+0x170a>
    3014: a0 c9        	ldy	#$c9
    3016: 84 1f        	sty	$1f                     ; 0x201f <f256main+0x170b>
    3018: a9 20        	lda	#$20
    301a: a4 1c        	ldy	$1c                     ; 0x201c <f256main+0x1708>
    301c: 84 22        	sty	$22                     ; 0x2022 <f256main+0x170e>
    301e: a4 1d        	ldy	$1d                     ; 0x201d <f256main+0x1709>
    3020: 84 23        	sty	$23                     ; 0x2023 <f256main+0x170f>
    3022: 92 1e        	sta	($1e)                   ; 0x201e <f256main+0x170a>
    3024: e6 1c        	inc	$1c                     ; 0x201c <f256main+0x1708>
    3026: d0 02        	bne	$302a <textPrint+0x163>
    3028: e6 1d        	inc	$1d                     ; 0x201d <f256main+0x1709>
    302a: ca           	dex
    302b: a4 22        	ldy	$22                     ; 0x2022 <f256main+0x170e>
    302d: 84 1e        	sty	$1e                     ; 0x201e <f256main+0x170a>
    302f: a4 23        	ldy	$23                     ; 0x2023 <f256main+0x170f>
    3031: 84 1f        	sty	$1f                     ; 0x201f <f256main+0x170b>
    3033: e0 00        	cpx	#$0
    3035: d0 e3        	bne	$301a <textPrint+0x153>
    3037: c6 34        	dec	$34                     ; 0x2034 <f256main+0x1720>
    3039: 9c 08 de     	stz	$de08                   ; 0xde08 <__heap_start+0x514c>
    303c: a2 c0        	ldx	#$c0
    303e: 8e 09 de     	stx	$de09                   ; 0xde09 <__heap_start+0x514d>
    3041: 9c 0a de     	stz	$de0a                   ; 0xde0a <__heap_start+0x514e>
    3044: 9c 0b de     	stz	$de0b                   ; 0xde0b <__heap_start+0x514f>
    3047: a2 1d        	ldx	#$1d
    3049: 8e 0c de     	stx	$de0c                   ; 0xde0c <__heap_start+0x5150>
    304c: 9c 0d de     	stz	$de0d                   ; 0xde0d <__heap_start+0x5151>
    304f: 9c 0e de     	stz	$de0e                   ; 0xde0e <__heap_start+0x5152>
    3052: 9c 0f de     	stz	$de0f                   ; 0xde0f <__heap_start+0x5153>
    3055: ae 18 de     	ldx	$de18                   ; 0xde18 <__heap_start+0x515c>
    3058: ac 19 de     	ldy	$de19                   ; 0xde19 <__heap_start+0x515d>
    305b: ad 1a de     	lda	$de1a                   ; 0xde1a <__heap_start+0x515e>
    305e: ad 1b de     	lda	$de1b                   ; 0xde1b <__heap_start+0x515f>
    3061: 86 1c        	stx	$1c                     ; 0x201c <f256main+0x1708>
    3063: 84 1d        	sty	$1d                     ; 0x201d <f256main+0x1709>
    3065: 4c 44 2f     	jmp	$2f44 <textPrint+0x7d>
    3068: a6 ed        	ldx	$ed                     ; 0x20ed <f256main+0x17d9>
    306a: 86 01        	stx	$1                      ; 0x2001 <f256main+0x16ed>
    306c: a6 33        	ldx	$33                     ; 0x2033 <f256main+0x171f>
    306e: a4 34        	ldy	$34                     ; 0x2034 <f256main+0x1720>
    3070: 8e 14 d0     	stx	$d014                   ; 0xd014 <__heap_start+0x4358>
    3073: 9c 15 d0     	stz	$d015                   ; 0xd015 <__heap_start+0x4359>
    3076: 84 34        	sty	$34                     ; 0x2034 <f256main+0x1720>
    3078: 8c 16 d0     	sty	$d016                   ; 0xd016 <__heap_start+0x435a>
    307b: 9c 17 d0     	stz	$d017                   ; 0xd017 <__heap_start+0x435b>
    307e: 60           	rts

0000307f <launchBeat>:
    307f: 18           	clc
    3080: a5 10        	lda	$10                     ; 0x2010 <f256main+0x16fc>
    3082: 69 f4        	adc	#$f4
    3084: 85 10        	sta	$10                     ; 0x2010 <f256main+0x16fc>
    3086: a5 11        	lda	$11                     ; 0x2011 <f256main+0x16fd>
    3088: 69 ff        	adc	#$ff
    308a: 85 11        	sta	$11                     ; 0x2011 <f256main+0x16fd>
    308c: a6 24        	ldx	$24                     ; 0x2024 <f256main+0x1710>
    308e: da           	phx
    308f: a6 25        	ldx	$25                     ; 0x2025 <f256main+0x1711>
    3091: da           	phx
    3092: a6 26        	ldx	$26                     ; 0x2026 <f256main+0x1712>
    3094: da           	phx
    3095: a6 27        	ldx	$27                     ; 0x2027 <f256main+0x1713>
    3097: da           	phx
    3098: a5 28        	lda	$28                     ; 0x2028 <f256main+0x1714>
    309a: a0 06        	ldy	#$6
    309c: 91 10        	sta	($10),y                 ; 0x2010 <f256main+0x16fc>
    309e: a5 29        	lda	$29                     ; 0x2029 <f256main+0x1715>
    30a0: 88           	dey
    30a1: 91 10        	sta	($10),y                 ; 0x2010 <f256main+0x16fc>
    30a3: a5 2a        	lda	$2a                     ; 0x202a <f256main+0x1716>
    30a5: 88           	dey
    30a6: 91 10        	sta	($10),y                 ; 0x2010 <f256main+0x16fc>
    30a8: a5 2b        	lda	$2b                     ; 0x202b <f256main+0x1717>
    30aa: 88           	dey
    30ab: 91 10        	sta	($10),y                 ; 0x2010 <f256main+0x16fc>
    30ad: a5 2c        	lda	$2c                     ; 0x202c <f256main+0x1718>
    30af: 88           	dey
    30b0: 91 10        	sta	($10),y                 ; 0x2010 <f256main+0x16fc>
    30b2: a5 2d        	lda	$2d                     ; 0x202d <f256main+0x1719>
    30b4: 88           	dey
    30b5: 91 10        	sta	($10),y                 ; 0x2010 <f256main+0x16fc>
    30b7: a5 2e        	lda	$2e                     ; 0x202e <f256main+0x171a>
    30b9: 88           	dey
    30ba: 91 10        	sta	($10),y                 ; 0x2010 <f256main+0x16fc>
    30bc: 18           	clc
    30bd: a5 10        	lda	$10                     ; 0x2010 <f256main+0x16fc>
    30bf: 69 09        	adc	#$9
    30c1: 85 26        	sta	$26                     ; 0x2026 <f256main+0x1712>
    30c3: a5 11        	lda	$11                     ; 0x2011 <f256main+0x16fd>
    30c5: 69 00        	adc	#$0
    30c7: 85 27        	sta	$27                     ; 0x2027 <f256main+0x1713>
    30c9: 98           	tya
    30ca: 92 26        	sta	($26)                   ; 0x2026 <f256main+0x1712>
    30cc: 18           	clc
    30cd: 48           	pha
    30ce: a5 10        	lda	$10                     ; 0x2010 <f256main+0x16fc>
    30d0: 69 08        	adc	#$8
    30d2: 85 28        	sta	$28                     ; 0x2028 <f256main+0x1714>
    30d4: a5 11        	lda	$11                     ; 0x2011 <f256main+0x16fd>
    30d6: 69 00        	adc	#$0
    30d8: 85 29        	sta	$29                     ; 0x2029 <f256main+0x1715>
    30da: 68           	pla
    30db: 92 28        	sta	($28)                   ; 0x2028 <f256main+0x1714>
    30dd: 64 2a        	stz	$2a                     ; 0x202a <f256main+0x1716>
    30df: a9 04        	lda	#$4
    30e1: a2 00        	ldx	#$0
    30e3: 20 53 62     	jsr	$6253 <malloc>
    30e6: a6 12        	ldx	$12                     ; 0x2012 <f256main+0x16fe>
    30e8: 86 24        	stx	$24                     ; 0x2024 <f256main+0x1710>
    30ea: a6 13        	ldx	$13                     ; 0x2013 <f256main+0x16ff>
    30ec: 86 25        	stx	$25                     ; 0x2025 <f256main+0x1711>
    30ee: a6 4d        	ldx	$4d                     ; 0x204d <f256main+0x1739>
    30f0: 86 15        	stx	$15                     ; 0x2015 <f256main+0x1701>
    30f2: a6 4e        	ldx	$4e                     ; 0x204e <f256main+0x173a>
    30f4: 86 14        	stx	$14                     ; 0x2014 <f256main+0x1700>
    30f6: a6 81        	ldx	$81                     ; 0x2081 <f256main+0x176d>
    30f8: a4 82        	ldy	$82                     ; 0x2082 <f256main+0x176e>
    30fa: 86 2c        	stx	$2c                     ; 0x202c <f256main+0x1718>
    30fc: 84 2d        	sty	$2d                     ; 0x202d <f256main+0x1719>
    30fe: a0 08        	ldy	#$8
    3100: b1 2c        	lda	($2c),y                 ; 0x202c <f256main+0x1718>
    3102: 85 1a        	sta	$1a                     ; 0x201a <f256main+0x1706>
    3104: 0a           	asl
    3105: 26 2a        	rol	$2a                     ; 0x202a <f256main+0x1716>
    3107: 0a           	asl
    3108: 26 2a        	rol	$2a                     ; 0x202a <f256main+0x1716>
    310a: 0a           	asl
    310b: 26 2a        	rol	$2a                     ; 0x202a <f256main+0x1716>
    310d: 0a           	asl
    310e: 26 2a        	rol	$2a                     ; 0x202a <f256main+0x1716>
    3110: 38           	sec
    3111: 85 18        	sta	$18                     ; 0x2018 <f256main+0x1704>
    3113: e5 1a        	sbc	$1a                     ; 0x201a <f256main+0x1706>
    3115: 85 12        	sta	$12                     ; 0x2012 <f256main+0x16fe>
    3117: a4 2a        	ldy	$2a                     ; 0x202a <f256main+0x1716>
    3119: a5 2a        	lda	$2a                     ; 0x202a <f256main+0x1716>
    311b: e9 00        	sbc	#$0
    311d: 85 13        	sta	$13                     ; 0x2013 <f256main+0x16ff>
    311f: a5 15        	lda	$15                     ; 0x2015 <f256main+0x1701>
    3121: 18           	clc
    3122: 65 12        	adc	$12                     ; 0x2012 <f256main+0x16fe>
    3124: 85 17        	sta	$17                     ; 0x2017 <f256main+0x1703>
    3126: a6 14        	ldx	$14                     ; 0x2014 <f256main+0x1700>
    3128: a5 14        	lda	$14                     ; 0x2014 <f256main+0x1700>
    312a: 65 13        	adc	$13                     ; 0x2013 <f256main+0x16ff>
    312c: 5a           	phy
    312d: a4 17        	ldy	$17                     ; 0x2017 <f256main+0x1703>
    312f: 84 14        	sty	$14                     ; 0x2014 <f256main+0x1700>
    3131: a4 15        	ldy	$15                     ; 0x2015 <f256main+0x1701>
    3133: 84 17        	sty	$17                     ; 0x2017 <f256main+0x1703>
    3135: a4 15        	ldy	$15                     ; 0x2015 <f256main+0x1701>
    3137: 84 12        	sty	$12                     ; 0x2012 <f256main+0x16fe>
    3139: 7a           	ply
    313a: 86 16        	stx	$16                     ; 0x2016 <f256main+0x1702>
    313c: 86 13        	stx	$13                     ; 0x2013 <f256main+0x16ff>
    313e: 85 15        	sta	$15                     ; 0x2015 <f256main+0x1701>
    3140: b2 14        	lda	($14)                   ; 0x2014 <f256main+0x1700>
    3142: f0 06        	beq	$314a <launchBeat+0xcb>
    3144: a2 01        	ldx	#$1
    3146: 86 38        	stx	$38                     ; 0x2038 <f256main+0x1724>
    3148: 80 09        	bra	$3153 <launchBeat+0xd4>
    314a: a5 38        	lda	$38                     ; 0x2038 <f256main+0x1724>
    314c: 29 01        	and	#$1
    314e: d0 03        	bne	$3153 <launchBeat+0xd4>
    3150: 4c 3a 32     	jmp	$323a <launchBeat+0x1bb>
    3153: 38           	sec
    3154: a5 18        	lda	$18                     ; 0x2018 <f256main+0x1704>
    3156: e5 1a        	sbc	$1a                     ; 0x201a <f256main+0x1706>
    3158: 85 14        	sta	$14                     ; 0x2014 <f256main+0x1700>
    315a: 98           	tya
    315b: e9 00        	sbc	#$0
    315d: 18           	clc
    315e: 85 15        	sta	$15                     ; 0x2015 <f256main+0x1701>
    3160: a5 17        	lda	$17                     ; 0x2017 <f256main+0x1703>
    3162: 65 14        	adc	$14                     ; 0x2014 <f256main+0x1700>
    3164: 85 14        	sta	$14                     ; 0x2014 <f256main+0x1700>
    3166: a5 16        	lda	$16                     ; 0x2016 <f256main+0x1702>
    3168: 65 15        	adc	$15                     ; 0x2015 <f256main+0x1701>
    316a: 85 15        	sta	$15                     ; 0x2015 <f256main+0x1701>
    316c: a0 04        	ldy	#$4
    316e: b1 14        	lda	($14),y                 ; 0x2014 <f256main+0x1700>
    3170: d0 03        	bne	$3175 <launchBeat+0xf6>
    3172: 4c f2 35     	jmp	$35f2 <launchBeat+0x573>
    3175: a9 00        	lda	#$0
    3177: 4c e3 31     	jmp	$31e3 <launchBeat+0x164>
    317a: a2 00        	ldx	#$0
    317c: b4 69        	ldy	$69,x                   ; 0x2069 <f256main+0x1755>
    317e: c0 01        	cpy	#$1
    3180: d0 02        	bne	$3184 <launchBeat+0x105>
    3182: 74 69        	stz	$69,x                   ; 0x2069 <f256main+0x1755>
    3184: e8           	inx
    3185: e0 06        	cpx	#$6
    3187: d0 f3        	bne	$317c <launchBeat+0xfd>
    3189: c9 03        	cmp	#$3
    318b: d0 0f        	bne	$319c <launchBeat+0x11d>
    318d: a2 00        	ldx	#$0
    318f: b4 78        	ldy	$78,x                   ; 0x2078 <f256main+0x1764>
    3191: c0 01        	cpy	#$1
    3193: d0 02        	bne	$3197 <launchBeat+0x118>
    3195: 74 78        	stz	$78,x                   ; 0x2078 <f256main+0x1764>
    3197: e8           	inx
    3198: e0 09        	cpx	#$9
    319a: d0 f3        	bne	$318f <launchBeat+0x110>
    319c: a6 4d        	ldx	$4d                     ; 0x204d <f256main+0x1739>
    319e: a4 4e        	ldy	$4e                     ; 0x204e <f256main+0x173a>
    31a0: 86 12        	stx	$12                     ; 0x2012 <f256main+0x16fe>
    31a2: 84 13        	sty	$13                     ; 0x2013 <f256main+0x16ff>
    31a4: a6 81        	ldx	$81                     ; 0x2081 <f256main+0x176d>
    31a6: a4 82        	ldy	$82                     ; 0x2082 <f256main+0x176e>
    31a8: 86 14        	stx	$14                     ; 0x2014 <f256main+0x1700>
    31aa: 84 15        	sty	$15                     ; 0x2015 <f256main+0x1701>
    31ac: a0 08        	ldy	#$8
    31ae: b1 14        	lda	($14),y                 ; 0x2014 <f256main+0x1700>
    31b0: 85 1a        	sta	$1a                     ; 0x201a <f256main+0x1706>
    31b2: 0a           	asl
    31b3: 64 14        	stz	$14                     ; 0x2014 <f256main+0x1700>
    31b5: 26 14        	rol	$14                     ; 0x2014 <f256main+0x1700>
    31b7: 0a           	asl
    31b8: 26 14        	rol	$14                     ; 0x2014 <f256main+0x1700>
    31ba: 0a           	asl
    31bb: 26 14        	rol	$14                     ; 0x2014 <f256main+0x1700>
    31bd: 0a           	asl
    31be: 26 14        	rol	$14                     ; 0x2014 <f256main+0x1700>
    31c0: 38           	sec
    31c1: e5 1a        	sbc	$1a                     ; 0x201a <f256main+0x1706>
    31c3: aa           	tax
    31c4: a5 14        	lda	$14                     ; 0x2014 <f256main+0x1700>
    31c6: e9 00        	sbc	#$0
    31c8: 85 14        	sta	$14                     ; 0x2014 <f256main+0x1700>
    31ca: 18           	clc
    31cb: 8a           	txa
    31cc: 65 4d        	adc	$4d                     ; 0x204d <f256main+0x1739>
    31ce: aa           	tax
    31cf: a5 14        	lda	$14                     ; 0x2014 <f256main+0x1700>
    31d1: 65 4e        	adc	$4e                     ; 0x204e <f256main+0x173a>
    31d3: 85 15        	sta	$15                     ; 0x2015 <f256main+0x1701>
    31d5: 86 14        	stx	$14                     ; 0x2014 <f256main+0x1700>
    31d7: a5 2a        	lda	$2a                     ; 0x202a <f256main+0x1716>
    31d9: 1a           	inc
    31da: a0 04        	ldy	#$4
    31dc: d1 14        	cmp	($14),y                 ; 0x2014 <f256main+0x1700>
    31de: 90 03        	bcc	$31e3 <launchBeat+0x164>
    31e0: 4c f2 35     	jmp	$35f2 <launchBeat+0x573>
    31e3: a6 26        	ldx	$26                     ; 0x2026 <f256main+0x1712>
    31e5: 86 14        	stx	$14                     ; 0x2014 <f256main+0x1700>
    31e7: a6 27        	ldx	$27                     ; 0x2027 <f256main+0x1713>
    31e9: 86 15        	stx	$15                     ; 0x2015 <f256main+0x1701>
    31eb: a6 28        	ldx	$28                     ; 0x2028 <f256main+0x1714>
    31ed: 86 16        	stx	$16                     ; 0x2016 <f256main+0x1702>
    31ef: a6 29        	ldx	$29                     ; 0x2029 <f256main+0x1715>
    31f1: 86 17        	stx	$17                     ; 0x2017 <f256main+0x1703>
    31f3: a6 24        	ldx	$24                     ; 0x2024 <f256main+0x1710>
    31f5: 86 18        	stx	$18                     ; 0x2018 <f256main+0x1704>
    31f7: a6 25        	ldx	$25                     ; 0x2025 <f256main+0x1711>
    31f9: 86 19        	stx	$19                     ; 0x2019 <f256main+0x1705>
    31fb: 85 2a        	sta	$2a                     ; 0x202a <f256main+0x1716>
    31fd: aa           	tax
    31fe: a5 1a        	lda	$1a                     ; 0x201a <f256main+0x1706>
    3200: 20 1b 42     	jsr	$421b <getBeatTrackNoteInfo>
    3203: b2 24        	lda	($24)                   ; 0x2024 <f256main+0x1710>
    3205: c9 03        	cmp	#$3
    3207: d0 03        	bne	$320c <launchBeat+0x18d>
    3209: 4c 8d 31     	jmp	$318d <launchBeat+0x10e>
    320c: c9 02        	cmp	#$2
    320e: d0 03        	bne	$3213 <launchBeat+0x194>
    3210: 4c 7a 31     	jmp	$317a <launchBeat+0xfb>
    3213: c9 01        	cmp	#$1
    3215: f0 03        	beq	$321a <launchBeat+0x19b>
    3217: 4c 9c 31     	jmp	$319c <launchBeat+0x11d>
    321a: a2 00        	ldx	#$0
    321c: b4 5d        	ldy	$5d,x                   ; 0x205d <f256main+0x1749>
    321e: c0 01        	cpy	#$1
    3220: d0 02        	bne	$3224 <launchBeat+0x1a5>
    3222: 74 5d        	stz	$5d,x                   ; 0x205d <f256main+0x1749>
    3224: e8           	inx
    3225: e0 06        	cpx	#$6
    3227: d0 f3        	bne	$321c <launchBeat+0x19d>
    3229: c9 03        	cmp	#$3
    322b: d0 03        	bne	$3230 <launchBeat+0x1b1>
    322d: 4c 8d 31     	jmp	$318d <launchBeat+0x10e>
    3230: c9 02        	cmp	#$2
    3232: d0 03        	bne	$3237 <launchBeat+0x1b8>
    3234: 4c 7a 31     	jmp	$317a <launchBeat+0xfb>
    3237: 4c 9c 31     	jmp	$319c <launchBeat+0x11d>
    323a: a9 01        	lda	#$1
    323c: 92 14        	sta	($14)                   ; 0x2014 <f256main+0x1700>
    323e: 38           	sec
    323f: a5 18        	lda	$18                     ; 0x2018 <f256main+0x1704>
    3241: e5 1a        	sbc	$1a                     ; 0x201a <f256main+0x1706>
    3243: 85 14        	sta	$14                     ; 0x2014 <f256main+0x1700>
    3245: 98           	tya
    3246: e9 00        	sbc	#$0
    3248: 85 15        	sta	$15                     ; 0x2015 <f256main+0x1701>
    324a: a5 17        	lda	$17                     ; 0x2017 <f256main+0x1703>
    324c: a0 07        	ldy	#$7
    324e: 91 10        	sta	($10),y                 ; 0x2010 <f256main+0x16fc>
    3250: 18           	clc
    3251: 65 14        	adc	$14                     ; 0x2014 <f256main+0x1700>
    3253: 85 14        	sta	$14                     ; 0x2014 <f256main+0x1700>
    3255: 86 2e        	stx	$2e                     ; 0x202e <f256main+0x171a>
    3257: 8a           	txa
    3258: 65 15        	adc	$15                     ; 0x2015 <f256main+0x1701>
    325a: 85 15        	sta	$15                     ; 0x2015 <f256main+0x1701>
    325c: a0 03        	ldy	#$3
    325e: b1 14        	lda	($14),y                 ; 0x2014 <f256main+0x1700>
    3260: a0 09        	ldy	#$9
    3262: 91 2c        	sta	($2c),y                 ; 0x202c <f256main+0x1718>
    3264: a6 12        	ldx	$12                     ; 0x2012 <f256main+0x16fe>
    3266: 86 2a        	stx	$2a                     ; 0x202a <f256main+0x1716>
    3268: a6 13        	ldx	$13                     ; 0x2013 <f256main+0x16ff>
    326a: 86 2b        	stx	$2b                     ; 0x202b <f256main+0x1717>
    326c: 20 be 38     	jsr	$38be <prepTempoLUT>
    326f: a0 09        	ldy	#$9
    3271: b1 2c        	lda	($2c),y                 ; 0x202c <f256main+0x1718>
    3273: 20 1e 4c     	jsr	$4c1e <updateTempoText>
    3276: a0 08        	ldy	#$8
    3278: b1 2c        	lda	($2c),y                 ; 0x202c <f256main+0x1718>
    327a: 85 14        	sta	$14                     ; 0x2014 <f256main+0x1700>
    327c: 0a           	asl
    327d: 64 15        	stz	$15                     ; 0x2015 <f256main+0x1701>
    327f: 26 15        	rol	$15                     ; 0x2015 <f256main+0x1701>
    3281: 0a           	asl
    3282: 26 15        	rol	$15                     ; 0x2015 <f256main+0x1701>
    3284: 0a           	asl
    3285: 26 15        	rol	$15                     ; 0x2015 <f256main+0x1701>
    3287: 0a           	asl
    3288: 26 15        	rol	$15                     ; 0x2015 <f256main+0x1701>
    328a: 38           	sec
    328b: e5 14        	sbc	$14                     ; 0x2014 <f256main+0x1700>
    328d: 85 14        	sta	$14                     ; 0x2014 <f256main+0x1700>
    328f: a5 15        	lda	$15                     ; 0x2015 <f256main+0x1701>
    3291: e9 00        	sbc	#$0
    3293: 85 15        	sta	$15                     ; 0x2015 <f256main+0x1701>
    3295: 18           	clc
    3296: 88           	dey
    3297: b1 10        	lda	($10),y                 ; 0x2010 <f256main+0x16fc>
    3299: 65 14        	adc	$14                     ; 0x2014 <f256main+0x1700>
    329b: 85 14        	sta	$14                     ; 0x2014 <f256main+0x1700>
    329d: a5 2e        	lda	$2e                     ; 0x202e <f256main+0x171a>
    329f: 65 15        	adc	$15                     ; 0x2015 <f256main+0x1701>
    32a1: 64 16        	stz	$16                     ; 0x2016 <f256main+0x1702>
    32a3: 85 15        	sta	$15                     ; 0x2015 <f256main+0x1701>
    32a5: a0 04        	ldy	#$4
    32a7: b1 14        	lda	($14),y                 ; 0x2014 <f256main+0x1700>
    32a9: d0 03        	bne	$32ae <launchBeat+0x22f>
    32ab: 4c f2 35     	jmp	$35f2 <launchBeat+0x573>
    32ae: a6 2a        	ldx	$2a                     ; 0x202a <f256main+0x1716>
    32b0: 86 12        	stx	$12                     ; 0x2012 <f256main+0x16fe>
    32b2: a6 2b        	ldx	$2b                     ; 0x202b <f256main+0x1717>
    32b4: 86 13        	stx	$13                     ; 0x2013 <f256main+0x16ff>
    32b6: a0 02        	ldy	#$2
    32b8: 84 2a        	sty	$2a                     ; 0x202a <f256main+0x1716>
    32ba: 64 2b        	stz	$2b                     ; 0x202b <f256main+0x1717>
    32bc: a2 00        	ldx	#$0
    32be: 4c 6b 35     	jmp	$356b <launchBeat+0x4ec>
    32c1: a0 01        	ldy	#$1
    32c3: b1 24        	lda	($24),y                 ; 0x2024 <f256main+0x1710>
    32c5: 85 2c        	sta	$2c                     ; 0x202c <f256main+0x1718>
    32c7: a2 03        	ldx	#$3
    32c9: 20 55 66     	jsr	$6655 <__udivqi3>
    32cc: 85 14        	sta	$14                     ; 0x2014 <f256main+0x1700>
    32ce: 0a           	asl
    32cf: 18           	clc
    32d0: 65 14        	adc	$14                     ; 0x2014 <f256main+0x1700>
    32d2: 85 12        	sta	$12                     ; 0x2012 <f256main+0x16fe>
    32d4: 38           	sec
    32d5: a5 2c        	lda	$2c                     ; 0x202c <f256main+0x1718>
    32d7: e5 12        	sbc	$12                     ; 0x2012 <f256main+0x16fe>
    32d9: aa           	tax
    32da: a0 02        	ldy	#$2
    32dc: b1 24        	lda	($24),y                 ; 0x2024 <f256main+0x1710>
    32de: 85 12        	sta	$12                     ; 0x2012 <f256main+0x16fe>
    32e0: 0a           	asl
    32e1: 64 13        	stz	$13                     ; 0x2013 <f256main+0x16ff>
    32e3: 26 13        	rol	$13                     ; 0x2013 <f256main+0x16ff>
    32e5: 0a           	asl
    32e6: 26 13        	rol	$13                     ; 0x2013 <f256main+0x16ff>
    32e8: 0a           	asl
    32e9: 26 13        	rol	$13                     ; 0x2013 <f256main+0x16ff>
    32eb: 18           	clc
    32ec: 65 12        	adc	$12                     ; 0x2012 <f256main+0x16fe>
    32ee: 85 12        	sta	$12                     ; 0x2012 <f256main+0x16fe>
    32f0: a5 13        	lda	$13                     ; 0x2013 <f256main+0x16ff>
    32f2: 69 00        	adc	#$0
    32f4: 85 13        	sta	$13                     ; 0x2013 <f256main+0x16ff>
    32f6: a9 5e        	lda	#$5e
    32f8: 18           	clc
    32f9: 65 12        	adc	$12                     ; 0x2012 <f256main+0x16fe>
    32fb: 85 12        	sta	$12                     ; 0x2012 <f256main+0x16fe>
    32fd: a9 8a        	lda	#$8a
    32ff: 65 13        	adc	$13                     ; 0x2013 <f256main+0x16ff>
    3301: 85 13        	sta	$13                     ; 0x2013 <f256main+0x16ff>
    3303: a5 14        	lda	$14                     ; 0x2014 <f256main+0x1700>
    3305: 20 2c 41     	jsr	$412c <sid_setInstrument>
    3308: a0 02        	ldy	#$2
    330a: b1 24        	lda	($24),y                 ; 0x2024 <f256main+0x1710>
    330c: 88           	dey
    330d: 85 12        	sta	$12                     ; 0x2012 <f256main+0x16fe>
    330f: 0a           	asl
    3310: 64 13        	stz	$13                     ; 0x2013 <f256main+0x16ff>
    3312: 26 13        	rol	$13                     ; 0x2013 <f256main+0x16ff>
    3314: 0a           	asl
    3315: 26 13        	rol	$13                     ; 0x2013 <f256main+0x16ff>
    3317: 0a           	asl
    3318: 26 13        	rol	$13                     ; 0x2013 <f256main+0x16ff>
    331a: 18           	clc
    331b: 65 12        	adc	$12                     ; 0x2012 <f256main+0x16fe>
    331d: 85 12        	sta	$12                     ; 0x2012 <f256main+0x16fe>
    331f: a5 13        	lda	$13                     ; 0x2013 <f256main+0x16ff>
    3321: 69 00        	adc	#$0
    3323: 85 13        	sta	$13                     ; 0x2013 <f256main+0x16ff>
    3325: a9 5e        	lda	#$5e
    3327: 18           	clc
    3328: 65 12        	adc	$12                     ; 0x2012 <f256main+0x16fe>
    332a: 85 12        	sta	$12                     ; 0x2012 <f256main+0x16fe>
    332c: a9 8a        	lda	#$8a
    332e: 65 13        	adc	$13                     ; 0x2013 <f256main+0x16ff>
    3330: 85 13        	sta	$13                     ; 0x2013 <f256main+0x16ff>
    3332: 9c 14 d4     	stz	$d414                   ; 0xd414 <__heap_start+0x4758>
    3335: 9c 15 d4     	stz	$d415                   ; 0xd415 <__heap_start+0x4759>
    3338: 9c 17 d4     	stz	$d417                   ; 0xd417 <__heap_start+0x475b>
    333b: b2 12        	lda	($12)                   ; 0x2012 <f256main+0x16fe>
    333d: 8d 18 d4     	sta	$d418                   ; 0xd418 <__heap_start+0x475c>
    3340: 9c 14 d5     	stz	$d514                   ; 0xd514 <__heap_start+0x4858>
    3343: 9c 15 d5     	stz	$d515                   ; 0xd515 <__heap_start+0x4859>
    3346: 9c 17 d5     	stz	$d517                   ; 0xd517 <__heap_start+0x485b>
    3349: 8d 18 d5     	sta	$d518                   ; 0xd518 <__heap_start+0x485c>
    334c: 4c c7 33     	jmp	$33c7 <launchBeat+0x348>
    334f: a0 02        	ldy	#$2
    3351: b1 24        	lda	($24),y                 ; 0x2024 <f256main+0x1710>
    3353: a2 0b        	ldx	#$b
    3355: 86 12        	stx	$12                     ; 0x2012 <f256main+0x16fe>
    3357: 64 13        	stz	$13                     ; 0x2013 <f256main+0x16ff>
    3359: a2 00        	ldx	#$0
    335b: 20 bb 64     	jsr	$64bb <__mulhi3>
    335e: 85 12        	sta	$12                     ; 0x2012 <f256main+0x16fe>
    3360: 86 13        	stx	$13                     ; 0x2013 <f256main+0x16ff>
    3362: a9 8b        	lda	#$8b
    3364: 18           	clc
    3365: 65 12        	adc	$12                     ; 0x2012 <f256main+0x16fe>
    3367: 85 12        	sta	$12                     ; 0x2012 <f256main+0x16fe>
    3369: a9 8a        	lda	#$8a
    336b: 65 13        	adc	$13                     ; 0x2013 <f256main+0x16ff>
    336d: 85 13        	sta	$13                     ; 0x2013 <f256main+0x16ff>
    336f: a0 01        	ldy	#$1
    3371: b1 24        	lda	($24),y                 ; 0x2024 <f256main+0x1710>
    3373: 20 10 40     	jsr	$4010 <opl3_setInstrument>
    3376: a0 01        	ldy	#$1
    3378: b1 24        	lda	($24),y                 ; 0x2024 <f256main+0x1710>
    337a: 85 2c        	sta	$2c                     ; 0x202c <f256main+0x1718>
    337c: c8           	iny
    337d: b1 24        	lda	($24),y                 ; 0x2024 <f256main+0x1710>
    337f: a2 0b        	ldx	#$b
    3381: 86 12        	stx	$12                     ; 0x2012 <f256main+0x16fe>
    3383: 64 13        	stz	$13                     ; 0x2013 <f256main+0x16ff>
    3385: a2 00        	ldx	#$0
    3387: 20 bb 64     	jsr	$64bb <__mulhi3>
    338a: 85 13        	sta	$13                     ; 0x2013 <f256main+0x16ff>
    338c: 86 12        	stx	$12                     ; 0x2012 <f256main+0x16fe>
    338e: a6 2c        	ldx	$2c                     ; 0x202c <f256main+0x1718>
    3390: e0 40        	cpx	#$40
    3392: a0 80        	ldy	#$80
    3394: 84 14        	sty	$14                     ; 0x2014 <f256main+0x1700>
    3396: a0 d5        	ldy	#$d5
    3398: 84 15        	sty	$15                     ; 0x2015 <f256main+0x1701>
    339a: 90 08        	bcc	$33a4 <launchBeat+0x325>
    339c: a0 82        	ldy	#$82
    339e: 84 14        	sty	$14                     ; 0x2014 <f256main+0x1700>
    33a0: a0 d5        	ldy	#$d5
    33a2: 84 15        	sty	$15                     ; 0x2015 <f256main+0x1701>
    33a4: 18           	clc
    33a5: 8a           	txa
    33a6: 69 c0        	adc	#$c0
    33a8: aa           	tax
    33a9: a9 8b        	lda	#$8b
    33ab: 18           	clc
    33ac: 65 13        	adc	$13                     ; 0x2013 <f256main+0x16ff>
    33ae: a8           	tay
    33af: a9 8a        	lda	#$8a
    33b1: 65 12        	adc	$12                     ; 0x2012 <f256main+0x16fe>
    33b3: 84 12        	sty	$12                     ; 0x2012 <f256main+0x16fe>
    33b5: 85 13        	sta	$13                     ; 0x2013 <f256main+0x16ff>
    33b7: a0 0a        	ldy	#$a
    33b9: b1 12        	lda	($12),y                 ; 0x2012 <f256main+0x16fe>
    33bb: 85 12        	sta	$12                     ; 0x2012 <f256main+0x16fe>
    33bd: 8a           	txa
    33be: 92 14        	sta	($14)                   ; 0x2014 <f256main+0x1700>
    33c0: a6 12        	ldx	$12                     ; 0x2012 <f256main+0x16fe>
    33c2: 8e 81 d5     	stx	$d581                   ; 0xd581 <__heap_start+0x48c5>
    33c5: a0 01        	ldy	#$1
    33c7: b1 24        	lda	($24),y                 ; 0x2024 <f256main+0x1710>
    33c9: 85 18        	sta	$18                     ; 0x2018 <f256main+0x1704>
    33cb: b2 26        	lda	($26)                   ; 0x2026 <f256main+0x1712>
    33cd: 85 12        	sta	$12                     ; 0x2012 <f256main+0x16fe>
    33cf: b2 24        	lda	($24)                   ; 0x2024 <f256main+0x1710>
    33d1: a2 4c        	ldx	#$4c
    33d3: 85 15        	sta	$15                     ; 0x2015 <f256main+0x1701>
    33d5: c9 02        	cmp	#$2
    33d7: f0 02        	beq	$33db <launchBeat+0x35c>
    33d9: a2 7f        	ldx	#$7f
    33db: a4 81        	ldy	$81                     ; 0x2081 <f256main+0x176d>
    33dd: 86 13        	stx	$13                     ; 0x2013 <f256main+0x16ff>
    33df: a6 82        	ldx	$82                     ; 0x2082 <f256main+0x176e>
    33e1: 84 16        	sty	$16                     ; 0x2016 <f256main+0x1702>
    33e3: 86 17        	stx	$17                     ; 0x2017 <f256main+0x1703>
    33e5: a0 02        	ldy	#$2
    33e7: b1 16        	lda	($16),y                 ; 0x2016 <f256main+0x1702>
    33e9: 85 14        	sta	$14                     ; 0x2014 <f256main+0x1700>
    33eb: b1 24        	lda	($24),y                 ; 0x2024 <f256main+0x1710>
    33ed: 85 17        	sta	$17                     ; 0x2017 <f256main+0x1703>
    33ef: a9 01        	lda	#$1
    33f1: 85 16        	sta	$16                     ; 0x2016 <f256main+0x1702>
    33f3: a6 18        	ldx	$18                     ; 0x2018 <f256main+0x1704>
    33f5: 20 67 3a     	jsr	$3a67 <dispatchNote>
    33f8: b2 24        	lda	($24)                   ; 0x2024 <f256main+0x1710>
    33fa: c9 01        	cmp	#$1
    33fc: d0 09        	bne	$3407 <launchBeat+0x388>
    33fe: a0 01        	ldy	#$1
    3400: b1 24        	lda	($24),y                 ; 0x2024 <f256main+0x1710>
    3402: aa           	tax
    3403: 98           	tya
    3404: 9d 5d 00     	sta	$5d,x                   ; 0x5d <reservedSID>
    3407: a6 81        	ldx	$81                     ; 0x2081 <f256main+0x176d>
    3409: a4 82        	ldy	$82                     ; 0x2082 <f256main+0x176e>
    340b: 86 12        	stx	$12                     ; 0x2012 <f256main+0x16fe>
    340d: 84 13        	sty	$13                     ; 0x2013 <f256main+0x16ff>
    340f: a0 08        	ldy	#$8
    3411: b1 12        	lda	($12),y                 ; 0x2012 <f256main+0x16fe>
    3413: 85 12        	sta	$12                     ; 0x2012 <f256main+0x16fe>
    3415: 0a           	asl
    3416: aa           	tax
    3417: a9 00        	lda	#$0
    3419: 2a           	rol
    341a: 86 13        	stx	$13                     ; 0x2013 <f256main+0x16ff>
    341c: 06 13        	asl	$13                     ; 0x2013 <f256main+0x16ff>
    341e: 2a           	rol
    341f: 06 13        	asl	$13                     ; 0x2013 <f256main+0x16ff>
    3421: 2a           	rol
    3422: 06 13        	asl	$13                     ; 0x2013 <f256main+0x16ff>
    3424: 2a           	rol
    3425: aa           	tax
    3426: 38           	sec
    3427: a5 13        	lda	$13                     ; 0x2013 <f256main+0x16ff>
    3429: e5 12        	sbc	$12                     ; 0x2012 <f256main+0x16fe>
    342b: 85 12        	sta	$12                     ; 0x2012 <f256main+0x16fe>
    342d: 8a           	txa
    342e: e9 00        	sbc	#$0
    3430: aa           	tax
    3431: 18           	clc
    3432: a5 12        	lda	$12                     ; 0x2012 <f256main+0x16fe>
    3434: 65 4d        	adc	$4d                     ; 0x204d <f256main+0x1739>
    3436: 85 12        	sta	$12                     ; 0x2012 <f256main+0x16fe>
    3438: 8a           	txa
    3439: 65 4e        	adc	$4e                     ; 0x204e <f256main+0x173a>
    343b: 85 13        	sta	$13                     ; 0x2013 <f256main+0x16ff>
    343d: a0 02        	ldy	#$2
    343f: b1 12        	lda	($12),y                 ; 0x2012 <f256main+0x16fe>
    3441: 1a           	inc
    3442: 91 12        	sta	($12),y                 ; 0x2012 <f256main+0x16fe>
    3444: a2 80        	ldx	#$80
    3446: 86 f3        	stx	$f3                     ; 0x20f3 <f256main+0x17df>
    3448: 18           	clc
    3449: a5 10        	lda	$10                     ; 0x2010 <f256main+0x16fc>
    344b: 69 0a        	adc	#$a
    344d: 85 12        	sta	$12                     ; 0x2012 <f256main+0x16fe>
    344f: a5 11        	lda	$11                     ; 0x2011 <f256main+0x16fd>
    3451: 69 00        	adc	#$0
    3453: 85 13        	sta	$13                     ; 0x2013 <f256main+0x16ff>
    3455: a2 b7        	ldx	#$b7
    3457: 86 18        	stx	$18                     ; 0x2018 <f256main+0x1704>
    3459: a2 8c        	ldx	#$8c
    345b: 86 19        	stx	$19                     ; 0x2019 <f256main+0x1705>
    345d: 20 f0 ff     	jsr	$fff0 <__heap_start+0x7334>
    3460: 92 12        	sta	($12)                   ; 0x2012 <f256main+0x16fe>
    3462: a9 00        	lda	#$0
    3464: 6a           	ror
    3465: 85 18        	sta	$18                     ; 0x2018 <f256main+0x1704>
    3467: b2 12        	lda	($12)                   ; 0x2012 <f256main+0x16fe>
    3469: 85 12        	sta	$12                     ; 0x2012 <f256main+0x16fe>
    346b: b2 28        	lda	($28)                   ; 0x2028 <f256main+0x1714>
    346d: aa           	tax
    346e: 18           	clc
    346f: a5 12        	lda	$12                     ; 0x2012 <f256main+0x16fe>
    3471: 75 3b        	adc	$3b,x                   ; 0x203b <f256main+0x1727>
    3473: 85 16        	sta	$16                     ; 0x2016 <f256main+0x1702>
    3475: a6 81        	ldx	$81                     ; 0x2081 <f256main+0x176d>
    3477: a4 82        	ldy	$82                     ; 0x2082 <f256main+0x176e>
    3479: 86 12        	stx	$12                     ; 0x2012 <f256main+0x16fe>
    347b: 84 13        	sty	$13                     ; 0x2013 <f256main+0x16ff>
    347d: a0 08        	ldy	#$8
    347f: b1 12        	lda	($12),y                 ; 0x2012 <f256main+0x16fe>
    3481: 85 12        	sta	$12                     ; 0x2012 <f256main+0x16fe>
    3483: 0a           	asl
    3484: aa           	tax
    3485: a9 00        	lda	#$0
    3487: 2a           	rol
    3488: 86 13        	stx	$13                     ; 0x2013 <f256main+0x16ff>
    348a: 06 13        	asl	$13                     ; 0x2013 <f256main+0x16ff>
    348c: 2a           	rol
    348d: 06 13        	asl	$13                     ; 0x2013 <f256main+0x16ff>
    348f: 2a           	rol
    3490: 06 13        	asl	$13                     ; 0x2013 <f256main+0x16ff>
    3492: 2a           	rol
    3493: aa           	tax
    3494: 38           	sec
    3495: a5 13        	lda	$13                     ; 0x2013 <f256main+0x16ff>
    3497: e5 12        	sbc	$12                     ; 0x2012 <f256main+0x16fe>
    3499: 85 12        	sta	$12                     ; 0x2012 <f256main+0x16fe>
    349b: 8a           	txa
    349c: e9 00        	sbc	#$0
    349e: a8           	tay
    349f: 18           	clc
    34a0: a5 12        	lda	$12                     ; 0x2012 <f256main+0x16fe>
    34a2: 65 4d        	adc	$4d                     ; 0x204d <f256main+0x1739>
    34a4: aa           	tax
    34a5: 98           	tya
    34a6: 65 4e        	adc	$4e                     ; 0x204e <f256main+0x173a>
    34a8: 86 12        	stx	$12                     ; 0x2012 <f256main+0x16fe>
    34aa: 85 13        	sta	$13                     ; 0x2013 <f256main+0x16ff>
    34ac: a8           	tay
    34ad: 18           	clc
    34ae: 8a           	txa
    34af: 69 0d        	adc	#$d
    34b1: 85 14        	sta	$14                     ; 0x2014 <f256main+0x1700>
    34b3: 98           	tya
    34b4: 69 00        	adc	#$0
    34b6: 85 15        	sta	$15                     ; 0x2015 <f256main+0x1701>
    34b8: a5 2a        	lda	$2a                     ; 0x202a <f256main+0x1716>
    34ba: 18           	clc
    34bb: a0 0d        	ldy	#$d
    34bd: 71 12        	adc	($12),y                 ; 0x2012 <f256main+0x16fe>
    34bf: 85 12        	sta	$12                     ; 0x2012 <f256main+0x16fe>
    34c1: a5 2b        	lda	$2b                     ; 0x202b <f256main+0x1717>
    34c3: a0 01        	ldy	#$1
    34c5: 71 14        	adc	($14),y                 ; 0x2014 <f256main+0x1700>
    34c7: a8           	tay
    34c8: a6 12        	ldx	$12                     ; 0x2012 <f256main+0x16fe>
    34ca: 86 17        	stx	$17                     ; 0x2017 <f256main+0x1703>
    34cc: 85 13        	sta	$13                     ; 0x2013 <f256main+0x16ff>
    34ce: a6 12        	ldx	$12                     ; 0x2012 <f256main+0x16fe>
    34d0: 86 14        	stx	$14                     ; 0x2014 <f256main+0x1700>
    34d2: 85 15        	sta	$15                     ; 0x2015 <f256main+0x1701>
    34d4: a2 ff        	ldx	#$ff
    34d6: c6 14        	dec	$14                     ; 0x2014 <f256main+0x1700>
    34d8: e4 14        	cpx	$14                     ; 0x2014 <f256main+0x1700>
    34da: d0 02        	bne	$34de <launchBeat+0x45f>
    34dc: c6 15        	dec	$15                     ; 0x2015 <f256main+0x1701>
    34de: a5 16        	lda	$16                     ; 0x2016 <f256main+0x1702>
    34e0: 92 14        	sta	($14)                   ; 0x2014 <f256main+0x1700>
    34e2: 18           	clc
    34e3: a5 17        	lda	$17                     ; 0x2017 <f256main+0x1703>
    34e5: 69 fe        	adc	#$fe
    34e7: 85 16        	sta	$16                     ; 0x2016 <f256main+0x1702>
    34e9: 98           	tya
    34ea: 69 ff        	adc	#$ff
    34ec: 85 17        	sta	$17                     ; 0x2017 <f256main+0x1703>
    34ee: b2 16        	lda	($16)                   ; 0x2016 <f256main+0x1702>
    34f0: 85 f3        	sta	$f3                     ; 0x20f3 <f256main+0x17df>
    34f2: b2 14        	lda	($14)                   ; 0x2014 <f256main+0x1700>
    34f4: 85 f4        	sta	$f4                     ; 0x20f4 <f256main+0x17e0>
    34f6: b2 12        	lda	($12)                   ; 0x2012 <f256main+0x16fe>
    34f8: 85 f5        	sta	$f5                     ; 0x20f5 <f256main+0x17e1>
    34fa: 18           	clc
    34fb: a5 10        	lda	$10                     ; 0x2010 <f256main+0x16fc>
    34fd: 69 0b        	adc	#$b
    34ff: 85 12        	sta	$12                     ; 0x2012 <f256main+0x16fe>
    3501: a5 11        	lda	$11                     ; 0x2011 <f256main+0x16fd>
    3503: 69 00        	adc	#$0
    3505: 85 13        	sta	$13                     ; 0x2013 <f256main+0x16ff>
    3507: 20 f0 ff     	jsr	$fff0 <__heap_start+0x7334>
    350a: 92 12        	sta	($12)                   ; 0x2012 <f256main+0x16fe>
    350c: a9 00        	lda	#$0
    350e: 6a           	ror
    350f: 85 18        	sta	$18                     ; 0x2018 <f256main+0x1704>
    3511: a6 4d        	ldx	$4d                     ; 0x204d <f256main+0x1739>
    3513: a4 4e        	ldy	$4e                     ; 0x204e <f256main+0x173a>
    3515: 86 12        	stx	$12                     ; 0x2012 <f256main+0x16fe>
    3517: 84 13        	sty	$13                     ; 0x2013 <f256main+0x16ff>
    3519: a6 81        	ldx	$81                     ; 0x2081 <f256main+0x176d>
    351b: a4 82        	ldy	$82                     ; 0x2082 <f256main+0x176e>
    351d: 86 2c        	stx	$2c                     ; 0x202c <f256main+0x1718>
    351f: 84 2d        	sty	$2d                     ; 0x202d <f256main+0x1719>
    3521: a0 08        	ldy	#$8
    3523: b1 2c        	lda	($2c),y                 ; 0x202c <f256main+0x1718>
    3525: 85 14        	sta	$14                     ; 0x2014 <f256main+0x1700>
    3527: 0a           	asl
    3528: aa           	tax
    3529: a9 00        	lda	#$0
    352b: 2a           	rol
    352c: 86 15        	stx	$15                     ; 0x2015 <f256main+0x1701>
    352e: 06 15        	asl	$15                     ; 0x2015 <f256main+0x1701>
    3530: 2a           	rol
    3531: 06 15        	asl	$15                     ; 0x2015 <f256main+0x1701>
    3533: 2a           	rol
    3534: 06 15        	asl	$15                     ; 0x2015 <f256main+0x1701>
    3536: 2a           	rol
    3537: aa           	tax
    3538: 38           	sec
    3539: a5 15        	lda	$15                     ; 0x2015 <f256main+0x1701>
    353b: e5 14        	sbc	$14                     ; 0x2014 <f256main+0x1700>
    353d: 85 14        	sta	$14                     ; 0x2014 <f256main+0x1700>
    353f: 8a           	txa
    3540: e9 00        	sbc	#$0
    3542: aa           	tax
    3543: 18           	clc
    3544: a5 14        	lda	$14                     ; 0x2014 <f256main+0x1700>
    3546: 65 4d        	adc	$4d                     ; 0x204d <f256main+0x1739>
    3548: 85 14        	sta	$14                     ; 0x2014 <f256main+0x1700>
    354a: 8a           	txa
    354b: 65 4e        	adc	$4e                     ; 0x204e <f256main+0x173a>
    354d: e6 2e        	inc	$2e                     ; 0x202e <f256main+0x171a>
    354f: 85 15        	sta	$15                     ; 0x2015 <f256main+0x1701>
    3551: 18           	clc
    3552: a5 2a        	lda	$2a                     ; 0x202a <f256main+0x1716>
    3554: 69 03        	adc	#$3
    3556: 85 2a        	sta	$2a                     ; 0x202a <f256main+0x1716>
    3558: a5 2b        	lda	$2b                     ; 0x202b <f256main+0x1717>
    355a: 69 00        	adc	#$0
    355c: 85 2b        	sta	$2b                     ; 0x202b <f256main+0x1717>
    355e: a0 04        	ldy	#$4
    3560: a5 2e        	lda	$2e                     ; 0x202e <f256main+0x171a>
    3562: d1 14        	cmp	($14),y                 ; 0x2014 <f256main+0x1700>
    3564: a6 2e        	ldx	$2e                     ; 0x202e <f256main+0x171a>
    3566: 90 03        	bcc	$356b <launchBeat+0x4ec>
    3568: 4c 09 36     	jmp	$3609 <launchBeat+0x58a>
    356b: a5 14        	lda	$14                     ; 0x2014 <f256main+0x1700>
    356d: 18           	clc
    356e: 69 09        	adc	#$9
    3570: 85 16        	sta	$16                     ; 0x2016 <f256main+0x1702>
    3572: a5 15        	lda	$15                     ; 0x2015 <f256main+0x1701>
    3574: 69 00        	adc	#$0
    3576: 85 17        	sta	$17                     ; 0x2017 <f256main+0x1703>
    3578: a0 09        	ldy	#$9
    357a: b1 14        	lda	($14),y                 ; 0x2014 <f256main+0x1700>
    357c: 85 14        	sta	$14                     ; 0x2014 <f256main+0x1700>
    357e: a0 01        	ldy	#$1
    3580: b1 16        	lda	($16),y                 ; 0x2016 <f256main+0x1702>
    3582: 85 15        	sta	$15                     ; 0x2015 <f256main+0x1701>
    3584: a9 00        	lda	#$0
    3586: da           	phx
    3587: 7a           	ply
    3588: 91 14        	sta	($14),y                 ; 0x2014 <f256main+0x1700>
    358a: a0 08        	ldy	#$8
    358c: b1 2c        	lda	($2c),y                 ; 0x202c <f256main+0x1718>
    358e: a4 26        	ldy	$26                     ; 0x2026 <f256main+0x1712>
    3590: 84 14        	sty	$14                     ; 0x2014 <f256main+0x1700>
    3592: a4 27        	ldy	$27                     ; 0x2027 <f256main+0x1713>
    3594: 84 15        	sty	$15                     ; 0x2015 <f256main+0x1701>
    3596: a4 28        	ldy	$28                     ; 0x2028 <f256main+0x1714>
    3598: 84 16        	sty	$16                     ; 0x2016 <f256main+0x1702>
    359a: a4 29        	ldy	$29                     ; 0x2029 <f256main+0x1715>
    359c: 84 17        	sty	$17                     ; 0x2017 <f256main+0x1703>
    359e: a4 24        	ldy	$24                     ; 0x2024 <f256main+0x1710>
    35a0: 84 18        	sty	$18                     ; 0x2018 <f256main+0x1704>
    35a2: a4 25        	ldy	$25                     ; 0x2025 <f256main+0x1711>
    35a4: 84 19        	sty	$19                     ; 0x2019 <f256main+0x1705>
    35a6: 86 2e        	stx	$2e                     ; 0x202e <f256main+0x171a>
    35a8: 20 1b 42     	jsr	$421b <getBeatTrackNoteInfo>
    35ab: b2 24        	lda	($24)                   ; 0x2024 <f256main+0x1710>
    35ad: c9 03        	cmp	#$3
    35af: d0 03        	bne	$35b4 <launchBeat+0x535>
    35b1: 4c 4f 33     	jmp	$334f <launchBeat+0x2d0>
    35b4: c9 01        	cmp	#$1
    35b6: d0 03        	bne	$35bb <launchBeat+0x53c>
    35b8: 4c c1 32     	jmp	$32c1 <launchBeat+0x242>
    35bb: a0 01        	ldy	#$1
    35bd: aa           	tax
    35be: f0 03        	beq	$35c3 <launchBeat+0x544>
    35c0: 4c c7 33     	jmp	$33c7 <launchBeat+0x348>
    35c3: b1 24        	lda	($24),y                 ; 0x2024 <f256main+0x1710>
    35c5: c9 09        	cmp	#$9
    35c7: d0 03        	bne	$35cc <launchBeat+0x54d>
    35c9: 4c c7 33     	jmp	$33c7 <launchBeat+0x348>
    35cc: a0 02        	ldy	#$2
    35ce: aa           	tax
    35cf: b1 24        	lda	($24),y                 ; 0x2024 <f256main+0x1710>
    35d1: 85 12        	sta	$12                     ; 0x2012 <f256main+0x16fe>
    35d3: 8a           	txa
    35d4: 09 c0        	ora	#$c0
    35d6: 8d b1 dd     	sta	$ddb1                   ; 0xddb1 <__heap_start+0x50f5>
    35d9: a6 12        	ldx	$12                     ; 0x2012 <f256main+0x16fe>
    35db: 8e b1 dd     	stx	$ddb1                   ; 0xddb1 <__heap_start+0x50f5>
    35de: b1 24        	lda	($24),y                 ; 0x2024 <f256main+0x1710>
    35e0: 85 12        	sta	$12                     ; 0x2012 <f256main+0x16fe>
    35e2: 88           	dey
    35e3: a9 c0        	lda	#$c0
    35e5: 11 24        	ora	($24),y                 ; 0x2024 <f256main+0x1710>
    35e7: 8d a1 dd     	sta	$dda1                   ; 0xdda1 <__heap_start+0x50e5>
    35ea: a6 12        	ldx	$12                     ; 0x2012 <f256main+0x16fe>
    35ec: 8e a1 dd     	stx	$dda1                   ; 0xdda1 <__heap_start+0x50e5>
    35ef: 4c c7 33     	jmp	$33c7 <launchBeat+0x348>
    35f2: a2 00        	ldx	#$0
    35f4: 86 12        	stx	$12                     ; 0x2012 <f256main+0x16fe>
    35f6: a2 00        	ldx	#$0
    35f8: 86 13        	stx	$13                     ; 0x2013 <f256main+0x16ff>
    35fa: a6 25        	ldx	$25                     ; 0x2025 <f256main+0x1711>
    35fc: e4 13        	cpx	$13                     ; 0x2013 <f256main+0x16ff>
    35fe: d0 09        	bne	$3609 <launchBeat+0x58a>
    3600: a6 24        	ldx	$24                     ; 0x2024 <f256main+0x1710>
    3602: e4 12        	cpx	$12                     ; 0x2012 <f256main+0x16fe>
    3604: d0 03        	bne	$3609 <launchBeat+0x58a>
    3606: 4c 33 37     	jmp	$3733 <launchBeat+0x6b4>
    3609: a2 00        	ldx	#$0
    360b: a0 10        	ldy	#$10
    360d: a9 bc        	lda	#$bc
    360f: 86 12        	stx	$12                     ; 0x2012 <f256main+0x16fe>
    3611: 84 13        	sty	$13                     ; 0x2013 <f256main+0x16ff>
    3613: 18           	clc
    3614: 65 12        	adc	$12                     ; 0x2012 <f256main+0x16fe>
    3616: 85 2c        	sta	$2c                     ; 0x202c <f256main+0x1718>
    3618: a9 8c        	lda	#$8c
    361a: 65 13        	adc	$13                     ; 0x2013 <f256main+0x16ff>
    361c: 85 2d        	sta	$2d                     ; 0x202d <f256main+0x1719>
    361e: a5 24        	lda	$24                     ; 0x2024 <f256main+0x1710>
    3620: 18           	clc
    3621: 69 fe        	adc	#$fe
    3623: 85 13        	sta	$13                     ; 0x2013 <f256main+0x16ff>
    3625: a5 25        	lda	$25                     ; 0x2025 <f256main+0x1711>
    3627: 69 ff        	adc	#$ff
    3629: a6 13        	ldx	$13                     ; 0x2013 <f256main+0x16ff>
    362b: 86 26        	stx	$26                     ; 0x2026 <f256main+0x1712>
    362d: aa           	tax
    362e: 85 27        	sta	$27                     ; 0x2027 <f256main+0x1713>
    3630: b2 26        	lda	($26)                   ; 0x2026 <f256main+0x1712>
    3632: 85 12        	sta	$12                     ; 0x2012 <f256main+0x16fe>
    3634: a0 01        	ldy	#$1
    3636: b1 26        	lda	($26),y                 ; 0x2026 <f256main+0x1712>
    3638: 85 2a        	sta	$2a                     ; 0x202a <f256main+0x1716>
    363a: a9 fe        	lda	#$fe
    363c: 32 26        	and	($26)                   ; 0x2026 <f256main+0x1712>
    363e: 85 2b        	sta	$2b                     ; 0x202b <f256main+0x1717>
    3640: a4 13        	ldy	$13                     ; 0x2013 <f256main+0x16ff>
    3642: 84 15        	sty	$15                     ; 0x2015 <f256main+0x1701>
    3644: a5 13        	lda	$13                     ; 0x2013 <f256main+0x16ff>
    3646: 18           	clc
    3647: 65 2b        	adc	$2b                     ; 0x202b <f256main+0x1717>
    3649: 85 28        	sta	$28                     ; 0x2028 <f256main+0x1714>
    364b: 8a           	txa
    364c: 86 16        	stx	$16                     ; 0x2016 <f256main+0x1702>
    364e: 65 2a        	adc	$2a                     ; 0x202a <f256main+0x1716>
    3650: c5 2d        	cmp	$2d                     ; 0x202d <f256main+0x1719>
    3652: d0 10        	bne	$3664 <launchBeat+0x5e5>
    3654: a6 28        	ldx	$28                     ; 0x2028 <f256main+0x1714>
    3656: e4 2c        	cpx	$2c                     ; 0x202c <f256main+0x1718>
    3658: d0 0a        	bne	$3664 <launchBeat+0x5e5>
    365a: a2 00        	ldx	#$0
    365c: 86 28        	stx	$28                     ; 0x2028 <f256main+0x1714>
    365e: a2 00        	ldx	#$0
    3660: 86 29        	stx	$29                     ; 0x2029 <f256main+0x1715>
    3662: 80 02        	bra	$3666 <launchBeat+0x5e7>
    3664: 85 29        	sta	$29                     ; 0x2029 <f256main+0x1715>
    3666: a5 12        	lda	$12                     ; 0x2012 <f256main+0x16fe>
    3668: 29 01        	and	#$1
    366a: f0 4b        	beq	$36b7 <launchBeat+0x638>
    366c: a5 24        	lda	$24                     ; 0x2024 <f256main+0x1710>
    366e: 18           	clc
    366f: 69 fc        	adc	#$fc
    3671: 85 12        	sta	$12                     ; 0x2012 <f256main+0x16fe>
    3673: a5 25        	lda	$25                     ; 0x2025 <f256main+0x1711>
    3675: 69 ff        	adc	#$ff
    3677: 85 13        	sta	$13                     ; 0x2013 <f256main+0x16ff>
    3679: a0 01        	ldy	#$1
    367b: 38           	sec
    367c: a9 00        	lda	#$0
    367e: f2 12        	sbc	($12)                   ; 0x2012 <f256main+0x16fe>
    3680: 85 14        	sta	$14                     ; 0x2014 <f256main+0x1700>
    3682: a9 00        	lda	#$0
    3684: f1 12        	sbc	($12),y                 ; 0x2012 <f256main+0x16fe>
    3686: 85 12        	sta	$12                     ; 0x2012 <f256main+0x16fe>
    3688: a5 15        	lda	$15                     ; 0x2015 <f256main+0x1701>
    368a: 18           	clc
    368b: 65 14        	adc	$14                     ; 0x2014 <f256main+0x1700>
    368d: 85 26        	sta	$26                     ; 0x2026 <f256main+0x1712>
    368f: a5 16        	lda	$16                     ; 0x2016 <f256main+0x1702>
    3691: 65 12        	adc	$12                     ; 0x2012 <f256main+0x16fe>
    3693: 85 27        	sta	$27                     ; 0x2027 <f256main+0x1713>
    3695: b1 26        	lda	($26),y                 ; 0x2026 <f256main+0x1712>
    3697: 85 24        	sta	$24                     ; 0x2024 <f256main+0x1710>
    3699: a9 fe        	lda	#$fe
    369b: 32 26        	and	($26)                   ; 0x2026 <f256main+0x1712>
    369d: 85 25        	sta	$25                     ; 0x2025 <f256main+0x1711>
    369f: a6 26        	ldx	$26                     ; 0x2026 <f256main+0x1712>
    36a1: 86 12        	stx	$12                     ; 0x2012 <f256main+0x16fe>
    36a3: a6 27        	ldx	$27                     ; 0x2027 <f256main+0x1713>
    36a5: 86 13        	stx	$13                     ; 0x2013 <f256main+0x16ff>
    36a7: 20 56 04     	jsr	$456 <_ZN12_GLOBAL__N_19FreeChunk6removeEv>
    36aa: 18           	clc
    36ab: a5 25        	lda	$25                     ; 0x2025 <f256main+0x1711>
    36ad: 65 2b        	adc	$2b                     ; 0x202b <f256main+0x1717>
    36af: 85 2b        	sta	$2b                     ; 0x202b <f256main+0x1717>
    36b1: a5 24        	lda	$24                     ; 0x2024 <f256main+0x1710>
    36b3: 65 2a        	adc	$2a                     ; 0x202a <f256main+0x1716>
    36b5: 85 2a        	sta	$2a                     ; 0x202a <f256main+0x1716>
    36b7: a2 00        	ldx	#$0
    36b9: 86 12        	stx	$12                     ; 0x2012 <f256main+0x16fe>
    36bb: a2 00        	ldx	#$0
    36bd: 86 13        	stx	$13                     ; 0x2013 <f256main+0x16ff>
    36bf: a6 29        	ldx	$29                     ; 0x2029 <f256main+0x1715>
    36c1: e4 13        	cpx	$13                     ; 0x2013 <f256main+0x16ff>
    36c3: d0 0d        	bne	$36d2 <launchBeat+0x653>
    36c5: a6 28        	ldx	$28                     ; 0x2028 <f256main+0x1714>
    36c7: e4 12        	cpx	$12                     ; 0x2012 <f256main+0x16fe>
    36c9: d0 07        	bne	$36d2 <launchBeat+0x653>
    36cb: a2 01        	ldx	#$1
    36cd: 8e b8 8c     	stx	$8cb8                   ; 0x8cb8 <_ZN12_GLOBAL__N_19last_freeE>
    36d0: 80 52        	bra	$3724 <launchBeat+0x6a5>
    36d2: a0 01        	ldy	#$1
    36d4: b1 28        	lda	($28),y                 ; 0x2028 <f256main+0x1714>
    36d6: aa           	tax
    36d7: a9 fe        	lda	#$fe
    36d9: 32 28        	and	($28)                   ; 0x2028 <f256main+0x1714>
    36db: 18           	clc
    36dc: 85 25        	sta	$25                     ; 0x2025 <f256main+0x1711>
    36de: 65 28        	adc	$28                     ; 0x2028 <f256main+0x1714>
    36e0: 85 12        	sta	$12                     ; 0x2012 <f256main+0x16fe>
    36e2: 8a           	txa
    36e3: 86 24        	stx	$24                     ; 0x2024 <f256main+0x1710>
    36e5: 65 29        	adc	$29                     ; 0x2029 <f256main+0x1715>
    36e7: c5 2d        	cmp	$2d                     ; 0x202d <f256main+0x1719>
    36e9: d0 0f        	bne	$36fa <launchBeat+0x67b>
    36eb: a6 12        	ldx	$12                     ; 0x2012 <f256main+0x16fe>
    36ed: e4 2c        	cpx	$2c                     ; 0x202c <f256main+0x1718>
    36ef: d0 09        	bne	$36fa <launchBeat+0x67b>
    36f1: a9 01        	lda	#$1
    36f3: 64 12        	stz	$12                     ; 0x2012 <f256main+0x16fe>
    36f5: 2d b8 8c     	and	$8cb8                   ; 0x8cb8 <_ZN12_GLOBAL__N_19last_freeE>
    36f8: 80 08        	bra	$3702 <launchBeat+0x683>
    36fa: 85 13        	sta	$13                     ; 0x2013 <f256main+0x16ff>
    36fc: a9 01        	lda	#$1
    36fe: 32 12        	and	($12)                   ; 0x2012 <f256main+0x16fe>
    3700: 64 12        	stz	$12                     ; 0x2012 <f256main+0x16fe>
    3702: a6 12        	ldx	$12                     ; 0x2012 <f256main+0x16fe>
    3704: d0 06        	bne	$370c <launchBeat+0x68d>
    3706: aa           	tax
    3707: d0 03        	bne	$370c <launchBeat+0x68d>
    3709: 4c 71 37     	jmp	$3771 <launchBeat+0x6f2>
    370c: a6 28        	ldx	$28                     ; 0x2028 <f256main+0x1714>
    370e: 86 12        	stx	$12                     ; 0x2012 <f256main+0x16fe>
    3710: a6 29        	ldx	$29                     ; 0x2029 <f256main+0x1715>
    3712: 86 13        	stx	$13                     ; 0x2013 <f256main+0x16ff>
    3714: 20 56 04     	jsr	$456 <_ZN12_GLOBAL__N_19FreeChunk6removeEv>
    3717: 18           	clc
    3718: a5 25        	lda	$25                     ; 0x2025 <f256main+0x1711>
    371a: 65 2b        	adc	$2b                     ; 0x202b <f256main+0x1717>
    371c: 85 2b        	sta	$2b                     ; 0x202b <f256main+0x1717>
    371e: a5 24        	lda	$24                     ; 0x2024 <f256main+0x1710>
    3720: 65 2a        	adc	$2a                     ; 0x202a <f256main+0x1716>
    3722: 85 2a        	sta	$2a                     ; 0x202a <f256main+0x1716>
    3724: a6 26        	ldx	$26                     ; 0x2026 <f256main+0x1712>
    3726: 86 12        	stx	$12                     ; 0x2012 <f256main+0x16fe>
    3728: a6 27        	ldx	$27                     ; 0x2027 <f256main+0x1713>
    372a: 86 13        	stx	$13                     ; 0x2013 <f256main+0x16ff>
    372c: a6 2a        	ldx	$2a                     ; 0x202a <f256main+0x1716>
    372e: a5 2b        	lda	$2b                     ; 0x202b <f256main+0x1717>
    3730: 20 1c 03     	jsr	$31c <_ZN12_GLOBAL__N_19FreeChunk6insertEPvj>
    3733: a0 00        	ldy	#$0
    3735: b1 10        	lda	($10),y                 ; 0x2010 <f256main+0x16fc>
    3737: 85 2e        	sta	$2e                     ; 0x202e <f256main+0x171a>
    3739: c8           	iny
    373a: b1 10        	lda	($10),y                 ; 0x2010 <f256main+0x16fc>
    373c: 85 2d        	sta	$2d                     ; 0x202d <f256main+0x1719>
    373e: c8           	iny
    373f: b1 10        	lda	($10),y                 ; 0x2010 <f256main+0x16fc>
    3741: 85 2c        	sta	$2c                     ; 0x202c <f256main+0x1718>
    3743: c8           	iny
    3744: b1 10        	lda	($10),y                 ; 0x2010 <f256main+0x16fc>
    3746: 85 2b        	sta	$2b                     ; 0x202b <f256main+0x1717>
    3748: c8           	iny
    3749: b1 10        	lda	($10),y                 ; 0x2010 <f256main+0x16fc>
    374b: 85 2a        	sta	$2a                     ; 0x202a <f256main+0x1716>
    374d: c8           	iny
    374e: b1 10        	lda	($10),y                 ; 0x2010 <f256main+0x16fc>
    3750: 85 29        	sta	$29                     ; 0x2029 <f256main+0x1715>
    3752: c8           	iny
    3753: b1 10        	lda	($10),y                 ; 0x2010 <f256main+0x16fc>
    3755: 85 28        	sta	$28                     ; 0x2028 <f256main+0x1714>
    3757: fa           	plx
    3758: 86 27        	stx	$27                     ; 0x2027 <f256main+0x1713>
    375a: fa           	plx
    375b: 86 26        	stx	$26                     ; 0x2026 <f256main+0x1712>
    375d: fa           	plx
    375e: 86 25        	stx	$25                     ; 0x2025 <f256main+0x1711>
    3760: fa           	plx
    3761: 86 24        	stx	$24                     ; 0x2024 <f256main+0x1710>
    3763: 18           	clc
    3764: a5 10        	lda	$10                     ; 0x2010 <f256main+0x16fc>
    3766: 69 0c        	adc	#$c
    3768: 85 10        	sta	$10                     ; 0x2010 <f256main+0x16fc>
    376a: a5 11        	lda	$11                     ; 0x2011 <f256main+0x16fd>
    376c: 69 00        	adc	#$0
    376e: 85 11        	sta	$11                     ; 0x2011 <f256main+0x16fd>
    3770: 60           	rts
    3771: b2 28        	lda	($28)                   ; 0x2028 <f256main+0x1714>
    3773: 09 01        	ora	#$1
    3775: 92 28        	sta	($28)                   ; 0x2028 <f256main+0x1714>
    3777: a5 24        	lda	$24                     ; 0x2024 <f256main+0x1710>
    3779: 91 28        	sta	($28),y                 ; 0x2028 <f256main+0x1714>
    377b: 4c 24 37     	jmp	$3724 <launchBeat+0x6a5>

0000377e <escReset>:
    377e: a2 b1        	ldx	#$b1
    3780: 86 14        	stx	$14                     ; 0x2014 <f256main+0x1700>
    3782: a2 dd        	ldx	#$dd
    3784: 86 15        	stx	$15                     ; 0x2015 <f256main+0x1701>
    3786: a2 a1        	ldx	#$a1
    3788: 86 12        	stx	$12                     ; 0x2012 <f256main+0x16fe>
    378a: a2 dd        	ldx	#$dd
    378c: 86 13        	stx	$13                     ; 0x2013 <f256main+0x16ff>
    378e: a6 81        	ldx	$81                     ; 0x2081 <f256main+0x176d>
    3790: a4 82        	ldy	$82                     ; 0x2082 <f256main+0x176e>
    3792: 86 16        	stx	$16                     ; 0x2016 <f256main+0x1702>
    3794: 84 17        	sty	$17                     ; 0x2017 <f256main+0x1703>
    3796: a0 02        	ldy	#$2
    3798: b1 16        	lda	($16),y                 ; 0x2016 <f256main+0x1702>
    379a: a2 a1        	ldx	#$a1
    379c: 86 16        	stx	$16                     ; 0x2016 <f256main+0x1702>
    379e: a2 dd        	ldx	#$dd
    37a0: 86 17        	stx	$17                     ; 0x2017 <f256main+0x1703>
    37a2: aa           	tax
    37a3: f0 08        	beq	$37ad <escReset+0x2f>
    37a5: a2 b1        	ldx	#$b1
    37a7: 86 16        	stx	$16                     ; 0x2016 <f256main+0x1702>
    37a9: a2 dd        	ldx	#$dd
    37ab: 86 17        	stx	$17                     ; 0x2017 <f256main+0x1703>
    37ad: a9 c0        	lda	#$c0
    37af: 92 16        	sta	($16)                   ; 0x2016 <f256main+0x1702>
    37b1: aa           	tax
    37b2: a9 00        	lda	#$0
    37b4: 92 16        	sta	($16)                   ; 0x2016 <f256main+0x1702>
    37b6: 8a           	txa
    37b7: 1a           	inc
    37b8: c9 d0        	cmp	#$d0
    37ba: d0 f3        	bne	$37af <escReset+0x31>
    37bc: a9 ff        	lda	#$ff
    37be: 92 16        	sta	($16)                   ; 0x2016 <f256main+0x1702>
    37c0: a6 81        	ldx	$81                     ; 0x2081 <f256main+0x176d>
    37c2: a4 82        	ldy	$82                     ; 0x2082 <f256main+0x176e>
    37c4: 86 16        	stx	$16                     ; 0x2016 <f256main+0x1702>
    37c6: 84 17        	sty	$17                     ; 0x2017 <f256main+0x1703>
    37c8: a0 02        	ldy	#$2
    37ca: b1 16        	lda	($16),y                 ; 0x2016 <f256main+0x1702>
    37cc: c9 ff        	cmp	#$ff
    37ce: f0 08        	beq	$37d8 <escReset+0x5a>
    37d0: a2 b1        	ldx	#$b1
    37d2: 86 12        	stx	$12                     ; 0x2012 <f256main+0x16fe>
    37d4: a2 dd        	ldx	#$dd
    37d6: 86 13        	stx	$13                     ; 0x2013 <f256main+0x16ff>
    37d8: a9 c0        	lda	#$c0
    37da: 92 12        	sta	($12)                   ; 0x2012 <f256main+0x16fe>
    37dc: aa           	tax
    37dd: a9 00        	lda	#$0
    37df: 92 12        	sta	($12)                   ; 0x2012 <f256main+0x16fe>
    37e1: 8a           	txa
    37e2: 1a           	inc
    37e3: c9 d0        	cmp	#$d0
    37e5: d0 f3        	bne	$37da <escReset+0x5c>
    37e7: a9 ff        	lda	#$ff
    37e9: 92 12        	sta	($12)                   ; 0x2012 <f256main+0x16fe>
    37eb: a6 81        	ldx	$81                     ; 0x2081 <f256main+0x176d>
    37ed: a4 82        	ldy	$82                     ; 0x2082 <f256main+0x176e>
    37ef: 86 12        	stx	$12                     ; 0x2012 <f256main+0x16fe>
    37f1: 84 13        	sty	$13                     ; 0x2013 <f256main+0x16ff>
    37f3: 20 01 3a     	jsr	$3a01 <resetGlobals>
    37f6: a2 02        	ldx	#$2
    37f8: 86 01        	stx	$1                      ; 0x2001 <f256main+0x16ed>
    37fa: a2 c0        	ldx	#$c0
    37fc: a0 00        	ldy	#$0
    37fe: a9 20        	lda	#$20
    3800: 84 12        	sty	$12                     ; 0x2012 <f256main+0x16fe>
    3802: 86 13        	stx	$13                     ; 0x2013 <f256main+0x16ff>
    3804: 92 12        	sta	($12)                   ; 0x2012 <f256main+0x16fe>
    3806: c8           	iny
    3807: d0 01        	bne	$380a <escReset+0x8c>
    3809: e8           	inx
    380a: e0 d2        	cpx	#$d2
    380c: d0 f2        	bne	$3800 <escReset+0x82>
    380e: c0 c0        	cpy	#$c0
    3810: d0 ee        	bne	$3800 <escReset+0x82>
    3812: 64 01        	stz	$1                      ; 0x2001 <f256main+0x16ed>
    3814: a6 81        	ldx	$81                     ; 0x2081 <f256main+0x176d>
    3816: a4 82        	ldy	$82                     ; 0x2082 <f256main+0x176e>
    3818: 86 12        	stx	$12                     ; 0x2012 <f256main+0x16fe>
    381a: 84 13        	sty	$13                     ; 0x2013 <f256main+0x16ff>
    381c: 20 f3 46     	jsr	$46f3 <refreshInstrumentText>
    381f: a6 81        	ldx	$81                     ; 0x2081 <f256main+0x176d>
    3821: a4 82        	ldy	$82                     ; 0x2082 <f256main+0x176e>
    3823: 86 12        	stx	$12                     ; 0x2012 <f256main+0x16fe>
    3825: 84 13        	sty	$13                     ; 0x2013 <f256main+0x16ff>
    3827: 20 f8 4d     	jsr	$4df8 <textTitle>
    382a: ad 04 d4     	lda	$d404                   ; 0xd404 <__heap_start+0x4748>
    382d: 29 fe        	and	#$fe
    382f: 8d 04 d4     	sta	$d404                   ; 0xd404 <__heap_start+0x4748>
    3832: ad 0b d4     	lda	$d40b                   ; 0xd40b <__heap_start+0x474f>
    3835: 29 fe        	and	#$fe
    3837: 8d 0b d4     	sta	$d40b                   ; 0xd40b <__heap_start+0x474f>
    383a: ad 12 d4     	lda	$d412                   ; 0xd412 <__heap_start+0x4756>
    383d: 29 fe        	and	#$fe
    383f: 8d 12 d4     	sta	$d412                   ; 0xd412 <__heap_start+0x4756>
    3842: ad 04 d5     	lda	$d504                   ; 0xd504 <__heap_start+0x4848>
    3845: 29 fe        	and	#$fe
    3847: 8d 04 d5     	sta	$d504                   ; 0xd504 <__heap_start+0x4848>
    384a: ad 0b d5     	lda	$d50b                   ; 0xd50b <__heap_start+0x484f>
    384d: 29 fe        	and	#$fe
    384f: 8d 0b d5     	sta	$d50b                   ; 0xd50b <__heap_start+0x484f>
    3852: ad 12 d5     	lda	$d512                   ; 0xd512 <__heap_start+0x4856>
    3855: 29 fe        	and	#$fe
    3857: 8d 12 d5     	sta	$d512                   ; 0xd512 <__heap_start+0x4856>
    385a: a2 10        	ldx	#$10
    385c: a0 ff        	ldy	#$ff
    385e: 8a           	txa
    385f: 09 9f        	ora	#$9f
    3861: 8d 00 d6     	sta	$d600                   ; 0xd600 <__heap_start+0x4944>
    3864: 8d 10 d6     	sta	$d610                   ; 0xd610 <__heap_start+0x4954>
    3867: 18           	clc
    3868: 98           	tya
    3869: 69 02        	adc	#$2
    386b: 85 12        	sta	$12                     ; 0x2012 <f256main+0x16fe>
    386d: 18           	clc
    386e: 8a           	txa
    386f: 69 20        	adc	#$20
    3871: aa           	tax
    3872: a4 12        	ldy	$12                     ; 0x2012 <f256main+0x16fe>
    3874: a5 12        	lda	$12                     ; 0x2012 <f256main+0x16fe>
    3876: c9 06        	cmp	#$6
    3878: 90 e4        	bcc	$385e <escReset+0xe0>
    387a: 64 37        	stz	$37                     ; 0x2037 <f256main+0x1723>
    387c: a2 c2        	ldx	#$c2
    387e: 8e b1 dd     	stx	$ddb1                   ; 0xddb1 <__heap_start+0x50f5>
    3881: a0 73        	ldy	#$73
    3883: 8c b1 dd     	sty	$ddb1                   ; 0xddb1 <__heap_start+0x50f5>
    3886: 8e a1 dd     	stx	$dda1                   ; 0xdda1 <__heap_start+0x50e5>
    3889: 8c a1 dd     	sty	$dda1                   ; 0xdda1 <__heap_start+0x50e5>
    388c: a6 81        	ldx	$81                     ; 0x2081 <f256main+0x176d>
    388e: a4 82        	ldy	$82                     ; 0x2082 <f256main+0x176e>
    3890: 86 12        	stx	$12                     ; 0x2012 <f256main+0x16fe>
    3892: 84 13        	sty	$13                     ; 0x2013 <f256main+0x16ff>
    3894: b2 12        	lda	($12)                   ; 0x2012 <f256main+0x16fe>
    3896: 85 14        	sta	$14                     ; 0x2014 <f256main+0x1700>
    3898: a0 01        	ldy	#$1
    389a: b1 12        	lda	($12),y                 ; 0x2012 <f256main+0x16fe>
    389c: 85 15        	sta	$15                     ; 0x2015 <f256main+0x1701>
    389e: a9 00        	lda	#$0
    38a0: 92 14        	sta	($14)                   ; 0x2014 <f256main+0x1700>
    38a2: b2 12        	lda	($12)                   ; 0x2012 <f256main+0x16fe>
    38a4: 85 14        	sta	$14                     ; 0x2014 <f256main+0x1700>
    38a6: b1 12        	lda	($12),y                 ; 0x2012 <f256main+0x16fe>
    38a8: 85 15        	sta	$15                     ; 0x2015 <f256main+0x1701>
    38aa: a9 00        	lda	#$0
    38ac: 91 14        	sta	($14),y                 ; 0x2014 <f256main+0x1700>
    38ae: b2 12        	lda	($12)                   ; 0x2012 <f256main+0x16fe>
    38b0: aa           	tax
    38b1: b1 12        	lda	($12),y                 ; 0x2012 <f256main+0x16fe>
    38b3: 86 12        	stx	$12                     ; 0x2012 <f256main+0x16fe>
    38b5: 85 13        	sta	$13                     ; 0x2013 <f256main+0x16ff>
    38b7: a0 09        	ldy	#$9
    38b9: a9 00        	lda	#$0
    38bb: 91 12        	sta	($12),y                 ; 0x2012 <f256main+0x16fe>
    38bd: 60           	rts

000038be <prepTempoLUT>:
    38be: a6 81        	ldx	$81                     ; 0x2081 <f256main+0x176d>
    38c0: a4 82        	ldy	$82                     ; 0x2082 <f256main+0x176e>
    38c2: 86 12        	stx	$12                     ; 0x2012 <f256main+0x16fe>
    38c4: 84 13        	sty	$13                     ; 0x2013 <f256main+0x16ff>
    38c6: a0 09        	ldy	#$9
    38c8: b1 12        	lda	($12),y                 ; 0x2012 <f256main+0x16fe>
    38ca: 64 12        	stz	$12                     ; 0x2012 <f256main+0x16fe>
    38cc: 64 13        	stz	$13                     ; 0x2013 <f256main+0x16ff>
    38ce: a2 00        	ldx	#$0
    38d0: 20 0f 76     	jsr	$760f <__floatunsisf>
    38d3: 85 14        	sta	$14                     ; 0x2014 <f256main+0x1700>
    38d5: 86 15        	stx	$15                     ; 0x2015 <f256main+0x1701>
    38d7: a6 12        	ldx	$12                     ; 0x2012 <f256main+0x16fe>
    38d9: a4 13        	ldy	$13                     ; 0x2013 <f256main+0x16ff>
    38db: a9 e1        	lda	#$e1
    38dd: 85 12        	sta	$12                     ; 0x2012 <f256main+0x16fe>
    38df: a9 43        	lda	#$43
    38e1: 85 13        	sta	$13                     ; 0x2013 <f256main+0x16ff>
    38e3: 86 16        	stx	$16                     ; 0x2016 <f256main+0x1702>
    38e5: 84 17        	sty	$17                     ; 0x2017 <f256main+0x1703>
    38e7: a2 00        	ldx	#$0
    38e9: 64 8d        	stz	$8d                     ; 0x208d <f256main+0x1779>
    38eb: 8a           	txa
    38ec: 20 01 6a     	jsr	$6a01 <__divsf3>
    38ef: 20 93 75     	jsr	$7593 <__fixunssfsi>
    38f2: 85 13        	sta	$13                     ; 0x2013 <f256main+0x16ff>
    38f4: 85 3b        	sta	$3b                     ; 0x203b <f256main+0x1727>
    38f6: a0 01        	ldy	#$1
    38f8: 84 12        	sty	$12                     ; 0x2012 <f256main+0x16fe>
    38fa: a5 13        	lda	$13                     ; 0x2013 <f256main+0x16ff>
    38fc: 0a           	asl
    38fd: c6 12        	dec	$12                     ; 0x2012 <f256main+0x16fe>
    38ff: d0 fb        	bne	$38fc <prepTempoLUT+0x3e>
    3901: a6 8d        	ldx	$8d                     ; 0x208d <f256main+0x1779>
    3903: 9d 3c 00     	sta	$3c,x                   ; 0x3c <mainTempoLUT+0x1>
    3906: c8           	iny
    3907: e8           	inx
    3908: 86 8d        	stx	$8d                     ; 0x208d <f256main+0x1779>
    390a: c0 06        	cpy	#$6
    390c: d0 ea        	bne	$38f8 <prepTempoLUT+0x3a>
    390e: 64 8d        	stz	$8d                     ; 0x208d <f256main+0x1779>
    3910: a2 00        	ldx	#$0
    3912: b5 3b        	lda	$3b,x                   ; 0x203b <f256main+0x1727>
    3914: 0a           	asl
    3915: 64 14        	stz	$14                     ; 0x2014 <f256main+0x1700>
    3917: 26 14        	rol	$14                     ; 0x2014 <f256main+0x1700>
    3919: 86 8e        	stx	$8e                     ; 0x208e <f256main+0x177a>
    391b: a2 03        	ldx	#$3
    391d: 86 12        	stx	$12                     ; 0x2012 <f256main+0x16fe>
    391f: 64 13        	stz	$13                     ; 0x2013 <f256main+0x16ff>
    3921: a6 14        	ldx	$14                     ; 0x2014 <f256main+0x1700>
    3923: 20 b1 66     	jsr	$66b1 <__udivhi3>
    3926: a6 8e        	ldx	$8e                     ; 0x208e <f256main+0x177a>
    3928: 9d 41 00     	sta	$41,x                   ; 0x41 <mainTempoLUT+0x6>
    392b: e8           	inx
    392c: e0 06        	cpx	#$6
    392e: d0 e2        	bne	$3912 <prepTempoLUT+0x54>
    3930: a5 3c        	lda	$3c                     ; 0x203c <f256main+0x1728>
    3932: 0a           	asl
    3933: 85 12        	sta	$12                     ; 0x2012 <f256main+0x16fe>
    3935: 0a           	asl
    3936: 0a           	asl
    3937: 0a           	asl
    3938: 18           	clc
    3939: 65 12        	adc	$12                     ; 0x2012 <f256main+0x16fe>
    393b: 85 4c        	sta	$4c                     ; 0x204c <f256main+0x1738>
    393d: a2 03        	ldx	#$3
    393f: 20 55 66     	jsr	$6655 <__udivqi3>
    3942: 0a           	asl
    3943: 85 46        	sta	$46                     ; 0x2046 <f256main+0x1732>
    3945: 60           	rts

00003946 <textPrintUInt>:
    3946: 48           	pha
    3947: 18           	clc
    3948: a5 10        	lda	$10                     ; 0x2010 <f256main+0x16fc>
    394a: 69 fe        	adc	#$fe
    394c: 85 10        	sta	$10                     ; 0x2010 <f256main+0x16fc>
    394e: a5 11        	lda	$11                     ; 0x2011 <f256main+0x16fd>
    3950: 69 ff        	adc	#$ff
    3952: 85 11        	sta	$11                     ; 0x2011 <f256main+0x16fd>
    3954: 68           	pla
    3955: a4 24        	ldy	$24                     ; 0x2024 <f256main+0x1710>
    3957: 5a           	phy
    3958: a4 25        	ldy	$25                     ; 0x2025 <f256main+0x1711>
    395a: 5a           	phy
    395b: a4 26        	ldy	$26                     ; 0x2026 <f256main+0x1712>
    395d: 5a           	phy
    395e: a4 27        	ldy	$27                     ; 0x2027 <f256main+0x1713>
    3960: 5a           	phy
    3961: 86 25        	stx	$25                     ; 0x2025 <f256main+0x1711>
    3963: a4 12        	ldy	$12                     ; 0x2012 <f256main+0x16fe>
    3965: a6 13        	ldx	$13                     ; 0x2013 <f256main+0x16ff>
    3967: d0 18        	bne	$3981 <textPrintUInt+0x3b>
    3969: 86 27        	stx	$27                     ; 0x2027 <f256main+0x1713>
    396b: c0 00        	cpy	#$0
    396d: f0 03        	beq	$3972 <textPrintUInt+0x2c>
    396f: 4c f1 39     	jmp	$39f1 <textPrintUInt+0xab>
    3972: a6 25        	ldx	$25                     ; 0x2025 <f256main+0x1711>
    3974: f0 03        	beq	$3979 <textPrintUInt+0x33>
    3976: 4c fa 39     	jmp	$39fa <textPrintUInt+0xb4>
    3979: 84 26        	sty	$26                     ; 0x2026 <f256main+0x1712>
    397b: c9 0a        	cmp	#$a
    397d: b0 0a        	bcs	$3989 <textPrintUInt+0x43>
    397f: 80 29        	bra	$39aa <textPrintUInt+0x64>
    3981: 84 26        	sty	$26                     ; 0x2026 <f256main+0x1712>
    3983: 86 27        	stx	$27                     ; 0x2027 <f256main+0x1713>
    3985: e0 00        	cpx	#$0
    3987: 90 21        	bcc	$39aa <textPrintUInt+0x64>
    3989: 8d 06 de     	sta	$de06                   ; 0xde06 <__heap_start+0x514a>
    398c: a4 25        	ldy	$25                     ; 0x2025 <f256main+0x1711>
    398e: 8c 07 de     	sty	$de07                   ; 0xde07 <__heap_start+0x514b>
    3991: a2 0a        	ldx	#$a
    3993: 8e 04 de     	stx	$de04                   ; 0xde04 <__heap_start+0x5148>
    3996: 9c 05 de     	stz	$de05                   ; 0xde05 <__heap_start+0x5149>
    3999: 85 24        	sta	$24                     ; 0x2024 <f256main+0x1710>
    399b: ad 14 de     	lda	$de14                   ; 0xde14 <__heap_start+0x5158>
    399e: ae 15 de     	ldx	$de15                   ; 0xde15 <__heap_start+0x5159>
    39a1: 64 12        	stz	$12                     ; 0x2012 <f256main+0x16fe>
    39a3: 64 13        	stz	$13                     ; 0x2013 <f256main+0x16ff>
    39a5: 20 46 39     	jsr	$3946 <textPrintUInt>
    39a8: a5 24        	lda	$24                     ; 0x2024 <f256main+0x1710>
    39aa: a2 0a        	ldx	#$a
    39ac: a4 26        	ldy	$26                     ; 0x2026 <f256main+0x1712>
    39ae: 84 12        	sty	$12                     ; 0x2012 <f256main+0x16fe>
    39b0: a4 27        	ldy	$27                     ; 0x2027 <f256main+0x1713>
    39b2: 84 13        	sty	$13                     ; 0x2013 <f256main+0x16ff>
    39b4: 86 14        	stx	$14                     ; 0x2014 <f256main+0x1700>
    39b6: 64 15        	stz	$15                     ; 0x2015 <f256main+0x1701>
    39b8: 64 16        	stz	$16                     ; 0x2016 <f256main+0x1702>
    39ba: 64 17        	stz	$17                     ; 0x2017 <f256main+0x1703>
    39bc: a6 25        	ldx	$25                     ; 0x2025 <f256main+0x1711>
    39be: 20 71 67     	jsr	$6771 <__umodsi3>
    39c1: 09 30        	ora	#$30
    39c3: 18           	clc
    39c4: a6 10        	ldx	$10                     ; 0x2010 <f256main+0x16fc>
    39c6: 86 12        	stx	$12                     ; 0x2012 <f256main+0x16fe>
    39c8: a6 11        	ldx	$11                     ; 0x2011 <f256main+0x16fd>
    39ca: 86 13        	stx	$13                     ; 0x2013 <f256main+0x16ff>
    39cc: 92 12        	sta	($12)                   ; 0x2012 <f256main+0x16fe>
    39ce: a0 01        	ldy	#$1
    39d0: a9 00        	lda	#$0
    39d2: 91 12        	sta	($12),y                 ; 0x2012 <f256main+0x16fe>
    39d4: 20 c7 2e     	jsr	$2ec7 <textPrint>
    39d7: fa           	plx
    39d8: 86 27        	stx	$27                     ; 0x2027 <f256main+0x1713>
    39da: fa           	plx
    39db: 86 26        	stx	$26                     ; 0x2026 <f256main+0x1712>
    39dd: fa           	plx
    39de: 86 25        	stx	$25                     ; 0x2025 <f256main+0x1711>
    39e0: fa           	plx
    39e1: 86 24        	stx	$24                     ; 0x2024 <f256main+0x1710>
    39e3: 18           	clc
    39e4: a5 10        	lda	$10                     ; 0x2010 <f256main+0x16fc>
    39e6: 69 02        	adc	#$2
    39e8: 85 10        	sta	$10                     ; 0x2010 <f256main+0x16fc>
    39ea: a5 11        	lda	$11                     ; 0x2011 <f256main+0x16fd>
    39ec: 69 00        	adc	#$0
    39ee: 85 11        	sta	$11                     ; 0x2011 <f256main+0x16fd>
    39f0: 60           	rts
    39f1: 84 26        	sty	$26                     ; 0x2026 <f256main+0x1712>
    39f3: c0 00        	cpy	#$0
    39f5: 90 b3        	bcc	$39aa <textPrintUInt+0x64>
    39f7: 4c 89 39     	jmp	$3989 <textPrintUInt+0x43>
    39fa: 84 26        	sty	$26                     ; 0x2026 <f256main+0x1712>
    39fc: a6 25        	ldx	$25                     ; 0x2025 <f256main+0x1711>
    39fe: 4c 85 39     	jmp	$3985 <textPrintUInt+0x3f>

00003a01 <resetGlobals>:
    3a01: a6 12        	ldx	$12                     ; 0x2012 <f256main+0x16fe>
    3a03: 86 8d        	stx	$8d                     ; 0x208d <f256main+0x1779>
    3a05: a6 13        	ldx	$13                     ; 0x2013 <f256main+0x16ff>
    3a07: 86 8e        	stx	$8e                     ; 0x208e <f256main+0x177a>
    3a09: a5 8d        	lda	$8d                     ; 0x208d <f256main+0x1779>
    3a0b: 18           	clc
    3a0c: 69 02        	adc	#$2
    3a0e: 85 12        	sta	$12                     ; 0x2012 <f256main+0x16fe>
    3a10: a5 8e        	lda	$8e                     ; 0x208e <f256main+0x177a>
    3a12: 69 00        	adc	#$0
    3a14: 85 13        	sta	$13                     ; 0x2013 <f256main+0x16ff>
    3a16: a2 07        	ldx	#$7
    3a18: 64 14        	stz	$14                     ; 0x2014 <f256main+0x1700>
    3a1a: a9 00        	lda	#$0
    3a1c: 20 52 64     	jsr	$6452 <__memset>
    3a1f: a0 09        	ldy	#$9
    3a21: a9 78        	lda	#$78
    3a23: 91 8d        	sta	($8d),y                 ; 0x208d <f256main+0x1779>
    3a25: a0 01        	ldy	#$1
    3a27: b1 8d        	lda	($8d),y                 ; 0x208d <f256main+0x1779>
    3a29: a2 00        	ldx	#$0
    3a2b: 86 12        	stx	$12                     ; 0x2012 <f256main+0x16fe>
    3a2d: a2 00        	ldx	#$0
    3a2f: 86 13        	stx	$13                     ; 0x2013 <f256main+0x16ff>
    3a31: c5 13        	cmp	$13                     ; 0x2013 <f256main+0x16ff>
    3a33: d0 17        	bne	$3a4c <resetGlobals+0x4b>
    3a35: b2 8d        	lda	($8d)                   ; 0x208d <f256main+0x1779>
    3a37: c5 12        	cmp	$12                     ; 0x2012 <f256main+0x16fe>
    3a39: d0 11        	bne	$3a4c <resetGlobals+0x4b>
    3a3b: a9 0a        	lda	#$a
    3a3d: a2 00        	ldx	#$0
    3a3f: 20 53 62     	jsr	$6253 <malloc>
    3a42: a5 12        	lda	$12                     ; 0x2012 <f256main+0x16fe>
    3a44: 92 8d        	sta	($8d)                   ; 0x208d <f256main+0x1779>
    3a46: a0 01        	ldy	#$1
    3a48: a5 13        	lda	$13                     ; 0x2013 <f256main+0x16ff>
    3a4a: 91 8d        	sta	($8d),y                 ; 0x208d <f256main+0x1779>
    3a4c: a0 00        	ldy	#$0
    3a4e: b2 8d        	lda	($8d)                   ; 0x208d <f256main+0x1779>
    3a50: aa           	tax
    3a51: 84 12        	sty	$12                     ; 0x2012 <f256main+0x16fe>
    3a53: a0 01        	ldy	#$1
    3a55: b1 8d        	lda	($8d),y                 ; 0x208d <f256main+0x1779>
    3a57: a4 12        	ldy	$12                     ; 0x2012 <f256main+0x16fe>
    3a59: 86 12        	stx	$12                     ; 0x2012 <f256main+0x16fe>
    3a5b: 85 13        	sta	$13                     ; 0x2013 <f256main+0x16ff>
    3a5d: a9 00        	lda	#$0
    3a5f: 91 12        	sta	($12),y                 ; 0x2012 <f256main+0x16fe>
    3a61: c8           	iny
    3a62: c0 0a        	cpy	#$a
    3a64: d0 e8        	bne	$3a4e <resetGlobals+0x4d>
    3a66: 60           	rts

00003a67 <dispatchNote>:
    3a67: 86 1b        	stx	$1b                     ; 0x201b <f256main+0x1707>
    3a69: a6 12        	ldx	$12                     ; 0x2012 <f256main+0x16fe>
    3a6b: 86 1a        	stx	$1a                     ; 0x201a <f256main+0x1706>
    3a6d: a4 15        	ldy	$15                     ; 0x2015 <f256main+0x1701>
    3a6f: aa           	tax
    3a70: f0 07        	beq	$3a79 <dispatchNote+0x12>
    3a72: a6 1a        	ldx	$1a                     ; 0x201a <f256main+0x1706>
    3a74: d0 03        	bne	$3a79 <dispatchNote+0x12>
    3a76: 4c 00 3d     	jmp	$3d00 <dispatchNote+0x299>
    3a79: c0 05        	cpy	#$5
    3a7b: 90 03        	bcc	$3a80 <dispatchNote+0x19>
    3a7d: 4c 00 3d     	jmp	$3d00 <dispatchNote+0x299>
    3a80: 84 12        	sty	$12                     ; 0x2012 <f256main+0x16fe>
    3a82: 06 12        	asl	$12                     ; 0x2012 <f256main+0x16fe>
    3a84: a6 12        	ldx	$12                     ; 0x2012 <f256main+0x16fe>
    3a86: 7c 79 79     	jmp	($7979,x)               ; 0x7979 <__set_v+0x17>
    3a89: a2 b1        	ldx	#$b1
    3a8b: 86 1c        	stx	$1c                     ; 0x201c <f256main+0x1708>
    3a8d: a2 dd        	ldx	#$dd
    3a8f: 86 1d        	stx	$1d                     ; 0x201d <f256main+0x1709>
    3a91: a2 a1        	ldx	#$a1
    3a93: 86 18        	stx	$18                     ; 0x2018 <f256main+0x1704>
    3a95: a2 dd        	ldx	#$dd
    3a97: 86 19        	stx	$19                     ; 0x2019 <f256main+0x1705>
    3a99: aa           	tax
    3a9a: d0 03        	bne	$3a9f <dispatchNote+0x38>
    3a9c: 4c 2e 3b     	jmp	$3b2e <dispatchNote+0xc7>
    3a9f: c0 04        	cpy	#$4
    3aa1: f0 03        	beq	$3aa6 <dispatchNote+0x3f>
    3aa3: 4c 52 3b     	jmp	$3b52 <dispatchNote+0xeb>
    3aa6: a5 1b        	lda	$1b                     ; 0x201b <f256main+0x1707>
    3aa8: 09 90        	ora	#$90
    3aaa: 8d b1 dd     	sta	$ddb1                   ; 0xddb1 <__heap_start+0x50f5>
    3aad: a6 1a        	ldx	$1a                     ; 0x201a <f256main+0x1706>
    3aaf: 8e b1 dd     	stx	$ddb1                   ; 0xddb1 <__heap_start+0x50f5>
    3ab2: a6 13        	ldx	$13                     ; 0x2013 <f256main+0x16ff>
    3ab4: 86 15        	stx	$15                     ; 0x2015 <f256main+0x1701>
    3ab6: 8e b1 dd     	stx	$ddb1                   ; 0xddb1 <__heap_start+0x50f5>
    3ab9: a6 81        	ldx	$81                     ; 0x2081 <f256main+0x176d>
    3abb: a4 82        	ldy	$82                     ; 0x2082 <f256main+0x176e>
    3abd: 86 16        	stx	$16                     ; 0x2016 <f256main+0x1702>
    3abf: 84 17        	sty	$17                     ; 0x2017 <f256main+0x1703>
    3ac1: a0 07        	ldy	#$7
    3ac3: b1 16        	lda	($16),y                 ; 0x2016 <f256main+0x1702>
    3ac5: a2 b1        	ldx	#$b1
    3ac7: 86 18        	stx	$18                     ; 0x2018 <f256main+0x1704>
    3ac9: a2 dd        	ldx	#$dd
    3acb: 86 19        	stx	$19                     ; 0x2019 <f256main+0x1705>
    3acd: aa           	tax
    3ace: f0 03        	beq	$3ad3 <dispatchNote+0x6c>
    3ad0: 4c eb 3c     	jmp	$3ceb <dispatchNote+0x284>
    3ad3: 4c f7 3c     	jmp	$3cf7 <dispatchNote+0x290>
    3ad6: aa           	tax
    3ad7: d0 03        	bne	$3adc <dispatchNote+0x75>
    3ad9: 4c 89 3b     	jmp	$3b89 <dispatchNote+0x122>
    3adc: a5 16        	lda	$16                     ; 0x2016 <f256main+0x1702>
    3ade: d0 03        	bne	$3ae3 <dispatchNote+0x7c>
    3ae0: 4c 6d 3c     	jmp	$3c6d <dispatchNote+0x206>
    3ae3: a5 1b        	lda	$1b                     ; 0x201b <f256main+0x1707>
    3ae5: a6 1b        	ldx	$1b                     ; 0x201b <f256main+0x1707>
    3ae7: c9 ff        	cmp	#$ff
    3ae9: f0 03        	beq	$3aee <dispatchNote+0x87>
    3aeb: 4c 81 3c     	jmp	$3c81 <dispatchNote+0x21a>
    3aee: 4c 70 3e     	jmp	$3e70 <dispatchNote+0x409>
    3af1: aa           	tax
    3af2: d0 03        	bne	$3af7 <dispatchNote+0x90>
    3af4: 4c 18 3c     	jmp	$3c18 <dispatchNote+0x1b1>
    3af7: a5 16        	lda	$16                     ; 0x2016 <f256main+0x1702>
    3af9: d0 03        	bne	$3afe <dispatchNote+0x97>
    3afb: 4c 90 3c     	jmp	$3c90 <dispatchNote+0x229>
    3afe: a6 1b        	ldx	$1b                     ; 0x201b <f256main+0x1707>
    3b00: a5 1a        	lda	$1a                     ; 0x201a <f256main+0x1706>
    3b02: 9d 57 00     	sta	$57,x                   ; 0x57 <polySIDBuffer>
    3b05: a5 1b        	lda	$1b                     ; 0x201b <f256main+0x1707>
    3b07: 30 03        	bmi	$3b0c <dispatchNote+0xa5>
    3b09: 4c 01 3d     	jmp	$3d01 <dispatchNote+0x29a>
    3b0c: a2 ff        	ldx	#$ff
    3b0e: 86 12        	stx	$12                     ; 0x2012 <f256main+0x16fe>
    3b10: 4c 03 3d     	jmp	$3d03 <dispatchNote+0x29c>
    3b13: aa           	tax
    3b14: d0 03        	bne	$3b19 <dispatchNote+0xb2>
    3b16: 4c 28 3c     	jmp	$3c28 <dispatchNote+0x1c1>
    3b19: a5 16        	lda	$16                     ; 0x2016 <f256main+0x1702>
    3b1b: d0 03        	bne	$3b20 <dispatchNote+0xb9>
    3b1d: 4c ac 3c     	jmp	$3cac <dispatchNote+0x245>
    3b20: a6 1b        	ldx	$1b                     ; 0x201b <f256main+0x1707>
    3b22: 86 12        	stx	$12                     ; 0x2012 <f256main+0x16fe>
    3b24: e0 ff        	cpx	#$ff
    3b26: f0 03        	beq	$3b2b <dispatchNote+0xc4>
    3b28: 4c c2 3c     	jmp	$3cc2 <dispatchNote+0x25b>
    3b2b: 4c e0 3e     	jmp	$3ee0 <dispatchNote+0x479>
    3b2e: c0 04        	cpy	#$4
    3b30: f0 03        	beq	$3b35 <dispatchNote+0xce>
    3b32: 4c 45 3c     	jmp	$3c45 <dispatchNote+0x1de>
    3b35: 84 12        	sty	$12                     ; 0x2012 <f256main+0x16fe>
    3b37: a5 1b        	lda	$1b                     ; 0x201b <f256main+0x1707>
    3b39: 09 80        	ora	#$80
    3b3b: 8d b1 dd     	sta	$ddb1                   ; 0xddb1 <__heap_start+0x50f5>
    3b3e: a6 1a        	ldx	$1a                     ; 0x201a <f256main+0x1706>
    3b40: 8e b1 dd     	stx	$ddb1                   ; 0xddb1 <__heap_start+0x50f5>
    3b43: a6 13        	ldx	$13                     ; 0x2013 <f256main+0x16ff>
    3b45: 8e b1 dd     	stx	$ddb1                   ; 0xddb1 <__heap_start+0x50f5>
    3b48: a5 14        	lda	$14                     ; 0x2014 <f256main+0x1700>
    3b4a: f0 03        	beq	$3b4f <dispatchNote+0xe8>
    3b4c: 4c 61 3c     	jmp	$3c61 <dispatchNote+0x1fa>
    3b4f: 4c 0b 3f     	jmp	$3f0b <dispatchNote+0x4a4>
    3b52: a5 1b        	lda	$1b                     ; 0x201b <f256main+0x1707>
    3b54: 09 90        	ora	#$90
    3b56: a6 1a        	ldx	$1a                     ; 0x201a <f256main+0x1706>
    3b58: a4 14        	ldy	$14                     ; 0x2014 <f256main+0x1700>
    3b5a: d0 03        	bne	$3b5f <dispatchNote+0xf8>
    3b5c: 4c d0 3c     	jmp	$3cd0 <dispatchNote+0x269>
    3b5f: 8d b1 dd     	sta	$ddb1                   ; 0xddb1 <__heap_start+0x50f5>
    3b62: 8e b1 dd     	stx	$ddb1                   ; 0xddb1 <__heap_start+0x50f5>
    3b65: a4 13        	ldy	$13                     ; 0x2013 <f256main+0x16ff>
    3b67: 84 15        	sty	$15                     ; 0x2015 <f256main+0x1701>
    3b69: 8c b1 dd     	sty	$ddb1                   ; 0xddb1 <__heap_start+0x50f5>
    3b6c: a5 81        	lda	$81                     ; 0x2081 <f256main+0x176d>
    3b6e: a4 82        	ldy	$82                     ; 0x2082 <f256main+0x176e>
    3b70: 85 16        	sta	$16                     ; 0x2016 <f256main+0x1702>
    3b72: 84 17        	sty	$17                     ; 0x2017 <f256main+0x1703>
    3b74: a0 07        	ldy	#$7
    3b76: b1 16        	lda	($16),y                 ; 0x2016 <f256main+0x1702>
    3b78: a2 b1        	ldx	#$b1
    3b7a: 86 18        	stx	$18                     ; 0x2018 <f256main+0x1704>
    3b7c: a2 dd        	ldx	#$dd
    3b7e: 86 19        	stx	$19                     ; 0x2019 <f256main+0x1705>
    3b80: aa           	tax
    3b81: f0 03        	beq	$3b86 <dispatchNote+0x11f>
    3b83: 4c eb 3c     	jmp	$3ceb <dispatchNote+0x284>
    3b86: 4c fb 3c     	jmp	$3cfb <dispatchNote+0x294>
    3b89: a2 00        	ldx	#$0
    3b8b: a5 1a        	lda	$1a                     ; 0x201a <f256main+0x1706>
    3b8d: 85 12        	sta	$12                     ; 0x2012 <f256main+0x16fe>
    3b8f: b4 6f        	ldy	$6f,x                   ; 0x206f <f256main+0x175b>
    3b91: c4 12        	cpy	$12                     ; 0x2012 <f256main+0x16fe>
    3b93: f0 07        	beq	$3b9c <dispatchNote+0x135>
    3b95: e8           	inx
    3b96: e0 09        	cpx	#$9
    3b98: d0 f5        	bne	$3b8f <dispatchNote+0x128>
    3b9a: a2 ff        	ldx	#$ff
    3b9c: 86 91        	stx	$91                     ; 0x2091 <f256main+0x177d>
    3b9e: 18           	clc
    3b9f: 69 05        	adc	#$5
    3ba1: 64 13        	stz	$13                     ; 0x2013 <f256main+0x16ff>
    3ba3: 85 16        	sta	$16                     ; 0x2016 <f256main+0x1702>
    3ba5: a9 00        	lda	#$0
    3ba7: 69 00        	adc	#$0
    3ba9: a2 8d        	ldx	#$8d
    3bab: a0 00        	ldy	#$0
    3bad: 86 14        	stx	$14                     ; 0x2014 <f256main+0x1700>
    3baf: 84 15        	sty	$15                     ; 0x2015 <f256main+0x1701>
    3bb1: a2 0c        	ldx	#$c
    3bb3: 86 12        	stx	$12                     ; 0x2012 <f256main+0x16fe>
    3bb5: aa           	tax
    3bb6: a5 16        	lda	$16                     ; 0x2016 <f256main+0x1702>
    3bb8: 20 26 69     	jsr	$6926 <__udivmodhi4>
    3bbb: aa           	tax
    3bbc: a4 8d        	ldy	$8d                     ; 0x208d <f256main+0x1779>
    3bbe: 84 12        	sty	$12                     ; 0x2012 <f256main+0x16fe>
    3bc0: a5 8e        	lda	$8e                     ; 0x208e <f256main+0x177a>
    3bc2: a0 01        	ldy	#$1
    3bc4: 06 12        	asl	$12                     ; 0x2012 <f256main+0x16fe>
    3bc6: 2a           	rol
    3bc7: 85 13        	sta	$13                     ; 0x2013 <f256main+0x16ff>
    3bc9: a9 7e        	lda	#$7e
    3bcb: 18           	clc
    3bcc: 65 12        	adc	$12                     ; 0x2012 <f256main+0x16fe>
    3bce: 85 12        	sta	$12                     ; 0x2012 <f256main+0x16fe>
    3bd0: a9 88        	lda	#$88
    3bd2: 65 13        	adc	$13                     ; 0x2013 <f256main+0x16ff>
    3bd4: 85 13        	sta	$13                     ; 0x2013 <f256main+0x16ff>
    3bd6: b2 12        	lda	($12)                   ; 0x2012 <f256main+0x16fe>
    3bd8: 85 14        	sta	$14                     ; 0x2014 <f256main+0x1700>
    3bda: b1 12        	lda	($12),y                 ; 0x2012 <f256main+0x16fe>
    3bdc: 85 13        	sta	$13                     ; 0x2013 <f256main+0x16ff>
    3bde: 18           	clc
    3bdf: 8a           	txa
    3be0: 69 3e        	adc	#$3e
    3be2: a8           	tay
    3be3: a6 91        	ldx	$91                     ; 0x2091 <f256main+0x177d>
    3be5: 86 12        	stx	$12                     ; 0x2012 <f256main+0x16fe>
    3be7: 8a           	txa
    3be8: 09 a0        	ora	#$a0
    3bea: 8d 80 d5     	sta	$d580                   ; 0xd580 <__heap_start+0x48c4>
    3bed: a5 14        	lda	$14                     ; 0x2014 <f256main+0x1700>
    3bef: 8d 81 d5     	sta	$d581                   ; 0xd581 <__heap_start+0x48c5>
    3bf2: 8a           	txa
    3bf3: 09 b0        	ora	#$b0
    3bf5: 85 14        	sta	$14                     ; 0x2014 <f256main+0x1700>
    3bf7: a5 13        	lda	$13                     ; 0x2013 <f256main+0x16ff>
    3bf9: 29 03        	and	#$3
    3bfb: 85 13        	sta	$13                     ; 0x2013 <f256main+0x16ff>
    3bfd: 98           	tya
    3bfe: 0a           	asl
    3bff: a6 14        	ldx	$14                     ; 0x2014 <f256main+0x1700>
    3c01: 8e 80 d5     	stx	$d580                   ; 0xd580 <__heap_start+0x48c4>
    3c04: 0a           	asl
    3c05: 05 13        	ora	$13                     ; 0x2013 <f256main+0x16ff>
    3c07: 8d 81 d5     	sta	$d581                   ; 0xd581 <__heap_start+0x48c5>
    3c0a: a5 12        	lda	$12                     ; 0x2012 <f256main+0x16fe>
    3c0c: 30 03        	bmi	$3c11 <dispatchNote+0x1aa>
    3c0e: 4c c3 3d     	jmp	$3dc3 <dispatchNote+0x35c>
    3c11: a2 ff        	ldx	#$ff
    3c13: 86 13        	stx	$13                     ; 0x2013 <f256main+0x16ff>
    3c15: 4c c5 3d     	jmp	$3dc5 <dispatchNote+0x35e>
    3c18: a5 16        	lda	$16                     ; 0x2016 <f256main+0x1702>
    3c1a: d0 03        	bne	$3c1f <dispatchNote+0x1b8>
    3c1c: 4c e3 3e     	jmp	$3ee3 <dispatchNote+0x47c>
    3c1f: a5 1b        	lda	$1b                     ; 0x201b <f256main+0x1707>
    3c21: a6 1b        	ldx	$1b                     ; 0x201b <f256main+0x1707>
    3c23: 74 57        	stz	$57,x                   ; 0x2057 <f256main+0x1743>
    3c25: 4c 66 3f     	jmp	$3f66 <dispatchNote+0x4ff>
    3c28: a0 d6        	ldy	#$d6
    3c2a: a2 00        	ldx	#$0
    3c2c: a5 1a        	lda	$1a                     ; 0x201a <f256main+0x1706>
    3c2e: 85 12        	sta	$12                     ; 0x2012 <f256main+0x16fe>
    3c30: b5 63        	lda	$63,x                   ; 0x2063 <f256main+0x174f>
    3c32: c5 12        	cmp	$12                     ; 0x2012 <f256main+0x16fe>
    3c34: d0 03        	bne	$3c39 <dispatchNote+0x1d2>
    3c36: 4c a3 3d     	jmp	$3da3 <dispatchNote+0x33c>
    3c39: e8           	inx
    3c3a: e0 06        	cpx	#$6
    3c3c: d0 f2        	bne	$3c30 <dispatchNote+0x1c9>
    3c3e: 64 12        	stz	$12                     ; 0x2012 <f256main+0x16fe>
    3c40: 64 62        	stz	$62                     ; 0x2062 <f256main+0x174e>
    3c42: 4c b2 3d     	jmp	$3db2 <dispatchNote+0x34b>
    3c45: 84 12        	sty	$12                     ; 0x2012 <f256main+0x16fe>
    3c47: a5 1b        	lda	$1b                     ; 0x201b <f256main+0x1707>
    3c49: 09 80        	ora	#$80
    3c4b: a6 1a        	ldx	$1a                     ; 0x201a <f256main+0x1706>
    3c4d: a4 13        	ldy	$13                     ; 0x2013 <f256main+0x16ff>
    3c4f: e6 14        	inc	$14                     ; 0x2014 <f256main+0x1700>
    3c51: c6 14        	dec	$14                     ; 0x2014 <f256main+0x1700>
    3c53: d0 03        	bne	$3c58 <dispatchNote+0x1f1>
    3c55: 4c 02 3f     	jmp	$3f02 <dispatchNote+0x49b>
    3c58: 8d b1 dd     	sta	$ddb1                   ; 0xddb1 <__heap_start+0x50f5>
    3c5b: 8e b1 dd     	stx	$ddb1                   ; 0xddb1 <__heap_start+0x50f5>
    3c5e: 8c b1 dd     	sty	$ddb1                   ; 0xddb1 <__heap_start+0x50f5>
    3c61: a5 53        	lda	$53                     ; 0x2053 <f256main+0x173f>
    3c63: b8           	clv
    3c64: a2 53        	ldx	#$53
    3c66: 86 16        	stx	$16                     ; 0x2016 <f256main+0x1702>
    3c68: a2 00        	ldx	#$0
    3c6a: 4c 16 3f     	jmp	$3f16 <dispatchNote+0x4af>
    3c6d: a2 00        	ldx	#$0
    3c6f: 80 08        	bra	$3c79 <dispatchNote+0x212>
    3c71: e8           	inx
    3c72: e0 09        	cpx	#$9
    3c74: d0 03        	bne	$3c79 <dispatchNote+0x212>
    3c76: 4c 70 3e     	jmp	$3e70 <dispatchNote+0x409>
    3c79: b4 78        	ldy	$78,x                   ; 0x2078 <f256main+0x1764>
    3c7b: d0 f4        	bne	$3c71 <dispatchNote+0x20a>
    3c7d: b4 6f        	ldy	$6f,x                   ; 0x206f <f256main+0x175b>
    3c7f: d0 f0        	bne	$3c71 <dispatchNote+0x20a>
    3c81: 64 12        	stz	$12                     ; 0x2012 <f256main+0x16fe>
    3c83: 8a           	txa
    3c84: 30 03        	bmi	$3c89 <dispatchNote+0x222>
    3c86: 4c e1 3d     	jmp	$3de1 <dispatchNote+0x37a>
    3c89: 86 91        	stx	$91                     ; 0x2091 <f256main+0x177d>
    3c8b: a2 ff        	ldx	#$ff
    3c8d: 4c e5 3d     	jmp	$3de5 <dispatchNote+0x37e>
    3c90: a2 00        	ldx	#$0
    3c92: 80 08        	bra	$3c9c <dispatchNote+0x235>
    3c94: e8           	inx
    3c95: e0 06        	cpx	#$6
    3c97: d0 03        	bne	$3c9c <dispatchNote+0x235>
    3c99: 4c a0 3d     	jmp	$3da0 <dispatchNote+0x339>
    3c9c: b4 5d        	ldy	$5d,x                   ; 0x205d <f256main+0x1749>
    3c9e: d0 f4        	bne	$3c94 <dispatchNote+0x22d>
    3ca0: b4 57        	ldy	$57,x                   ; 0x2057 <f256main+0x1743>
    3ca2: d0 f0        	bne	$3c94 <dispatchNote+0x22d>
    3ca4: 64 12        	stz	$12                     ; 0x2012 <f256main+0x16fe>
    3ca6: 86 13        	stx	$13                     ; 0x2013 <f256main+0x16ff>
    3ca8: 8a           	txa
    3ca9: 4c 0c 3d     	jmp	$3d0c <dispatchNote+0x2a5>
    3cac: a2 00        	ldx	#$0
    3cae: 80 08        	bra	$3cb8 <dispatchNote+0x251>
    3cb0: e8           	inx
    3cb1: e0 06        	cpx	#$6
    3cb3: d0 03        	bne	$3cb8 <dispatchNote+0x251>
    3cb5: 4c e0 3e     	jmp	$3ee0 <dispatchNote+0x479>
    3cb8: b4 69        	ldy	$69,x                   ; 0x2069 <f256main+0x1755>
    3cba: d0 f4        	bne	$3cb0 <dispatchNote+0x249>
    3cbc: b4 63        	ldy	$63,x                   ; 0x2063 <f256main+0x174f>
    3cbe: d0 f0        	bne	$3cb0 <dispatchNote+0x249>
    3cc0: 86 12        	stx	$12                     ; 0x2012 <f256main+0x16fe>
    3cc2: a5 12        	lda	$12                     ; 0x2012 <f256main+0x16fe>
    3cc4: 30 03        	bmi	$3cc9 <dispatchNote+0x262>
    3cc6: 4c 73 3e     	jmp	$3e73 <dispatchNote+0x40c>
    3cc9: a2 ff        	ldx	#$ff
    3ccb: 86 18        	stx	$18                     ; 0x2018 <f256main+0x1704>
    3ccd: 4c 75 3e     	jmp	$3e75 <dispatchNote+0x40e>
    3cd0: 8d a1 dd     	sta	$dda1                   ; 0xdda1 <__heap_start+0x50e5>
    3cd3: 8e a1 dd     	stx	$dda1                   ; 0xdda1 <__heap_start+0x50e5>
    3cd6: a4 13        	ldy	$13                     ; 0x2013 <f256main+0x16ff>
    3cd8: 84 15        	sty	$15                     ; 0x2015 <f256main+0x1701>
    3cda: 8c a1 dd     	sty	$dda1                   ; 0xdda1 <__heap_start+0x50e5>
    3cdd: a5 81        	lda	$81                     ; 0x2081 <f256main+0x176d>
    3cdf: a4 82        	ldy	$82                     ; 0x2082 <f256main+0x176e>
    3ce1: 85 12        	sta	$12                     ; 0x2012 <f256main+0x16fe>
    3ce3: 84 13        	sty	$13                     ; 0x2013 <f256main+0x16ff>
    3ce5: a0 07        	ldy	#$7
    3ce7: b1 12        	lda	($12),y                 ; 0x2012 <f256main+0x16fe>
    3ce9: f0 0c        	beq	$3cf7 <dispatchNote+0x290>
    3ceb: a9 91        	lda	#$91
    3ced: 92 18        	sta	($18)                   ; 0x2018 <f256main+0x1704>
    3cef: a5 1a        	lda	$1a                     ; 0x201a <f256main+0x1706>
    3cf1: 92 18        	sta	($18)                   ; 0x2018 <f256main+0x1704>
    3cf3: a5 15        	lda	$15                     ; 0x2015 <f256main+0x1701>
    3cf5: 92 18        	sta	($18)                   ; 0x2018 <f256main+0x1704>
    3cf7: a5 14        	lda	$14                     ; 0x2014 <f256main+0x1700>
    3cf9: f0 03        	beq	$3cfe <dispatchNote+0x297>
    3cfb: e6 53        	inc	$53                     ; 0x2053 <f256main+0x173f>
    3cfd: 60           	rts
    3cfe: e6 52        	inc	$52                     ; 0x2052 <f256main+0x173e>
    3d00: 60           	rts
    3d01: 64 12        	stz	$12                     ; 0x2012 <f256main+0x16fe>
    3d03: 85 13        	sta	$13                     ; 0x2013 <f256main+0x16ff>
    3d05: c9 ff        	cmp	#$ff
    3d07: d0 03        	bne	$3d0c <dispatchNote+0x2a5>
    3d09: 4c a0 3d     	jmp	$3da0 <dispatchNote+0x339>
    3d0c: 38           	sec
    3d0d: e9 03        	sbc	#$3
    3d0f: 50 02        	bvc	$3d13 <dispatchNote+0x2ac>
    3d11: 49 80        	eor	#$80
    3d13: a2 d5        	ldx	#$d5
    3d15: a8           	tay
    3d16: 10 02        	bpl	$3d1a <dispatchNote+0x2b3>
    3d18: a2 d4        	ldx	#$d4
    3d1a: a9 72        	lda	#$72
    3d1c: 18           	clc
    3d1d: 65 13        	adc	$13                     ; 0x2013 <f256main+0x16ff>
    3d1f: 85 14        	sta	$14                     ; 0x2014 <f256main+0x1700>
    3d21: a9 88        	lda	#$88
    3d23: 65 12        	adc	$12                     ; 0x2012 <f256main+0x16fe>
    3d25: 85 15        	sta	$15                     ; 0x2015 <f256main+0x1701>
    3d27: b2 14        	lda	($14)                   ; 0x2014 <f256main+0x1700>
    3d29: 86 19        	stx	$19                     ; 0x2019 <f256main+0x1705>
    3d2b: a6 1a        	ldx	$1a                     ; 0x201a <f256main+0x1706>
    3d2d: bc 0b 89     	ldy	$890b,x                 ; 0x890b <psgHigh+0x35>
    3d30: 85 14        	sta	$14                     ; 0x2014 <f256main+0x1700>
    3d32: 85 1c        	sta	$1c                     ; 0x201c <f256main+0x1708>
    3d34: a5 19        	lda	$19                     ; 0x2019 <f256main+0x1705>
    3d36: 85 15        	sta	$15                     ; 0x2015 <f256main+0x1701>
    3d38: 98           	tya
    3d39: 92 14        	sta	($14)                   ; 0x2014 <f256main+0x1700>
    3d3b: bc 34 7f     	ldy	$7f34,x                 ; 0x7f34 <KeyCodesToMIDINotes+0x4df>
    3d3e: a6 19        	ldx	$19                     ; 0x2019 <f256main+0x1705>
    3d40: a5 1c        	lda	$1c                     ; 0x201c <f256main+0x1708>
    3d42: 85 18        	sta	$18                     ; 0x2018 <f256main+0x1704>
    3d44: e6 18        	inc	$18                     ; 0x2018 <f256main+0x1704>
    3d46: d0 01        	bne	$3d49 <dispatchNote+0x2e2>
    3d48: e8           	inx
    3d49: 86 19        	stx	$19                     ; 0x2019 <f256main+0x1705>
    3d4b: 98           	tya
    3d4c: 92 18        	sta	($18)                   ; 0x2018 <f256main+0x1704>
    3d4e: a5 16        	lda	$16                     ; 0x2016 <f256main+0x1702>
    3d50: d0 0e        	bne	$3d60 <dispatchNote+0x2f9>
    3d52: a6 81        	ldx	$81                     ; 0x2081 <f256main+0x176d>
    3d54: a4 82        	ldy	$82                     ; 0x2082 <f256main+0x176e>
    3d56: 86 16        	stx	$16                     ; 0x2016 <f256main+0x1702>
    3d58: 84 17        	sty	$17                     ; 0x2017 <f256main+0x1703>
    3d5a: a0 04        	ldy	#$4
    3d5c: b1 16        	lda	($16),y                 ; 0x2016 <f256main+0x1702>
    3d5e: 85 17        	sta	$17                     ; 0x2017 <f256main+0x1703>
    3d60: 64 18        	stz	$18                     ; 0x2018 <f256main+0x1704>
    3d62: a5 17        	lda	$17                     ; 0x2017 <f256main+0x1703>
    3d64: 0a           	asl
    3d65: 26 18        	rol	$18                     ; 0x2018 <f256main+0x1704>
    3d67: 0a           	asl
    3d68: 26 18        	rol	$18                     ; 0x2018 <f256main+0x1704>
    3d6a: 0a           	asl
    3d6b: 26 18        	rol	$18                     ; 0x2018 <f256main+0x1704>
    3d6d: 18           	clc
    3d6e: 65 17        	adc	$17                     ; 0x2017 <f256main+0x1703>
    3d70: 85 16        	sta	$16                     ; 0x2016 <f256main+0x1702>
    3d72: a5 18        	lda	$18                     ; 0x2018 <f256main+0x1704>
    3d74: 69 00        	adc	#$0
    3d76: 85 17        	sta	$17                     ; 0x2017 <f256main+0x1703>
    3d78: a9 5e        	lda	#$5e
    3d7a: 18           	clc
    3d7b: 65 16        	adc	$16                     ; 0x2016 <f256main+0x1702>
    3d7d: 85 16        	sta	$16                     ; 0x2016 <f256main+0x1702>
    3d7f: a9 8a        	lda	#$8a
    3d81: 65 17        	adc	$17                     ; 0x2017 <f256main+0x1703>
    3d83: 85 17        	sta	$17                     ; 0x2017 <f256main+0x1703>
    3d85: a0 05        	ldy	#$5
    3d87: a9 01        	lda	#$1
    3d89: 11 16        	ora	($16),y                 ; 0x2016 <f256main+0x1702>
    3d8b: 88           	dey
    3d8c: 91 14        	sta	($14),y                 ; 0x2014 <f256main+0x1700>
    3d8e: a9 57        	lda	#$57
    3d90: 18           	clc
    3d91: 65 13        	adc	$13                     ; 0x2013 <f256main+0x16ff>
    3d93: aa           	tax
    3d94: a9 00        	lda	#$0
    3d96: 65 12        	adc	$12                     ; 0x2012 <f256main+0x16fe>
    3d98: 86 12        	stx	$12                     ; 0x2012 <f256main+0x16fe>
    3d9a: 85 13        	sta	$13                     ; 0x2013 <f256main+0x16ff>
    3d9c: a5 1a        	lda	$1a                     ; 0x201a <f256main+0x1706>
    3d9e: 92 12        	sta	($12)                   ; 0x2012 <f256main+0x16fe>
    3da0: e6 54        	inc	$54                     ; 0x2054 <f256main+0x1740>
    3da2: 60           	rts
    3da3: 64 12        	stz	$12                     ; 0x2012 <f256main+0x16fe>
    3da5: 74 63        	stz	$63,x                   ; 0x2063 <f256main+0x174f>
    3da7: bd 78 88     	lda	$8878,x                 ; 0x8878 <polyPSGChanBits>
    3daa: e0 03        	cpx	#$3
    3dac: 90 04        	bcc	$3db2 <dispatchNote+0x34b>
    3dae: a2 10        	ldx	#$10
    3db0: 86 12        	stx	$12                     ; 0x2012 <f256main+0x16fe>
    3db2: 84 13        	sty	$13                     ; 0x2013 <f256main+0x16ff>
    3db4: 09 9f        	ora	#$9f
    3db6: 92 12        	sta	($12)                   ; 0x2012 <f256main+0x16fe>
    3db8: a6 55        	ldx	$55                     ; 0x2055 <f256main+0x1741>
    3dba: d0 03        	bne	$3dbf <dispatchNote+0x358>
    3dbc: 4c 00 3d     	jmp	$3d00 <dispatchNote+0x299>
    3dbf: ca           	dex
    3dc0: 86 55        	stx	$55                     ; 0x2055 <f256main+0x1741>
    3dc2: 60           	rts
    3dc3: 64 13        	stz	$13                     ; 0x2013 <f256main+0x16ff>
    3dc5: a9 6f        	lda	#$6f
    3dc7: 18           	clc
    3dc8: 65 12        	adc	$12                     ; 0x2012 <f256main+0x16fe>
    3dca: 85 12        	sta	$12                     ; 0x2012 <f256main+0x16fe>
    3dcc: a9 00        	lda	#$0
    3dce: 65 13        	adc	$13                     ; 0x2013 <f256main+0x16ff>
    3dd0: 85 13        	sta	$13                     ; 0x2013 <f256main+0x16ff>
    3dd2: a9 00        	lda	#$0
    3dd4: 92 12        	sta	($12)                   ; 0x2012 <f256main+0x16fe>
    3dd6: a6 56        	ldx	$56                     ; 0x2056 <f256main+0x1742>
    3dd8: d0 03        	bne	$3ddd <dispatchNote+0x376>
    3dda: 4c 00 3d     	jmp	$3d00 <dispatchNote+0x299>
    3ddd: ca           	dex
    3dde: 86 56        	stx	$56                     ; 0x2056 <f256main+0x1742>
    3de0: 60           	rts
    3de1: 86 91        	stx	$91                     ; 0x2091 <f256main+0x177d>
    3de3: a2 00        	ldx	#$0
    3de5: 86 92        	stx	$92                     ; 0x2092 <f256main+0x177e>
    3de7: 18           	clc
    3de8: a6 1a        	ldx	$1a                     ; 0x201a <f256main+0x1706>
    3dea: 86 93        	stx	$93                     ; 0x2093 <f256main+0x177f>
    3dec: a5 1a        	lda	$1a                     ; 0x201a <f256main+0x1706>
    3dee: 69 05        	adc	#$5
    3df0: 85 16        	sta	$16                     ; 0x2016 <f256main+0x1702>
    3df2: 64 13        	stz	$13                     ; 0x2013 <f256main+0x16ff>
    3df4: a9 00        	lda	#$0
    3df6: 69 00        	adc	#$0
    3df8: a2 8f        	ldx	#$8f
    3dfa: a0 00        	ldy	#$0
    3dfc: 86 14        	stx	$14                     ; 0x2014 <f256main+0x1700>
    3dfe: 84 15        	sty	$15                     ; 0x2015 <f256main+0x1701>
    3e00: a2 0c        	ldx	#$c
    3e02: 86 12        	stx	$12                     ; 0x2012 <f256main+0x16fe>
    3e04: aa           	tax
    3e05: a5 16        	lda	$16                     ; 0x2016 <f256main+0x1702>
    3e07: 20 26 69     	jsr	$6926 <__udivmodhi4>
    3e0a: aa           	tax
    3e0b: a4 8f        	ldy	$8f                     ; 0x208f <f256main+0x177b>
    3e0d: 84 12        	sty	$12                     ; 0x2012 <f256main+0x16fe>
    3e0f: a5 90        	lda	$90                     ; 0x2090 <f256main+0x177c>
    3e11: 06 12        	asl	$12                     ; 0x2012 <f256main+0x16fe>
    3e13: 2a           	rol
    3e14: 85 13        	sta	$13                     ; 0x2013 <f256main+0x16ff>
    3e16: a9 7e        	lda	#$7e
    3e18: 18           	clc
    3e19: 65 12        	adc	$12                     ; 0x2012 <f256main+0x16fe>
    3e1b: 85 14        	sta	$14                     ; 0x2014 <f256main+0x1700>
    3e1d: a9 88        	lda	#$88
    3e1f: 65 13        	adc	$13                     ; 0x2013 <f256main+0x16ff>
    3e21: a0 01        	ldy	#$1
    3e23: 85 15        	sta	$15                     ; 0x2015 <f256main+0x1701>
    3e25: b1 14        	lda	($14),y                 ; 0x2014 <f256main+0x1700>
    3e27: 85 13        	sta	$13                     ; 0x2013 <f256main+0x16ff>
    3e29: 18           	clc
    3e2a: 8a           	txa
    3e2b: 69 3e        	adc	#$3e
    3e2d: 85 16        	sta	$16                     ; 0x2016 <f256main+0x1702>
    3e2f: a6 91        	ldx	$91                     ; 0x2091 <f256main+0x177d>
    3e31: 86 12        	stx	$12                     ; 0x2012 <f256main+0x16fe>
    3e33: 8a           	txa
    3e34: 09 a0        	ora	#$a0
    3e36: a8           	tay
    3e37: b2 14        	lda	($14)                   ; 0x2014 <f256main+0x1700>
    3e39: 8c 80 d5     	sty	$d580                   ; 0xd580 <__heap_start+0x48c4>
    3e3c: 8d 81 d5     	sta	$d581                   ; 0xd581 <__heap_start+0x48c5>
    3e3f: 8a           	txa
    3e40: 09 b0        	ora	#$b0
    3e42: 85 14        	sta	$14                     ; 0x2014 <f256main+0x1700>
    3e44: a5 13        	lda	$13                     ; 0x2013 <f256main+0x16ff>
    3e46: 29 03        	and	#$3
    3e48: 85 13        	sta	$13                     ; 0x2013 <f256main+0x16ff>
    3e4a: a5 16        	lda	$16                     ; 0x2016 <f256main+0x1702>
    3e4c: 0a           	asl
    3e4d: 0a           	asl
    3e4e: 05 13        	ora	$13                     ; 0x2013 <f256main+0x16ff>
    3e50: 09 20        	ora	#$20
    3e52: a6 14        	ldx	$14                     ; 0x2014 <f256main+0x1700>
    3e54: 8e 80 d5     	stx	$d580                   ; 0xd580 <__heap_start+0x48c4>
    3e57: 8d 81 d5     	sta	$d581                   ; 0xd581 <__heap_start+0x48c5>
    3e5a: a9 6f        	lda	#$6f
    3e5c: 18           	clc
    3e5d: 65 12        	adc	$12                     ; 0x2012 <f256main+0x16fe>
    3e5f: a8           	tay
    3e60: a6 92        	ldx	$92                     ; 0x2092 <f256main+0x177e>
    3e62: 86 12        	stx	$12                     ; 0x2012 <f256main+0x16fe>
    3e64: a9 00        	lda	#$0
    3e66: 65 12        	adc	$12                     ; 0x2012 <f256main+0x16fe>
    3e68: 84 12        	sty	$12                     ; 0x2012 <f256main+0x16fe>
    3e6a: 85 13        	sta	$13                     ; 0x2013 <f256main+0x16ff>
    3e6c: a5 93        	lda	$93                     ; 0x2093 <f256main+0x177f>
    3e6e: 92 12        	sta	($12)                   ; 0x2012 <f256main+0x16fe>
    3e70: e6 56        	inc	$56                     ; 0x2056 <f256main+0x1742>
    3e72: 60           	rts
    3e73: 64 18        	stz	$18                     ; 0x2018 <f256main+0x1704>
    3e75: a9 78        	lda	#$78
    3e77: 18           	clc
    3e78: 65 12        	adc	$12                     ; 0x2012 <f256main+0x16fe>
    3e7a: 85 14        	sta	$14                     ; 0x2014 <f256main+0x1700>
    3e7c: a9 88        	lda	#$88
    3e7e: 65 18        	adc	$18                     ; 0x2018 <f256main+0x1704>
    3e80: 85 15        	sta	$15                     ; 0x2015 <f256main+0x1701>
    3e82: b2 14        	lda	($14)                   ; 0x2014 <f256main+0x1700>
    3e84: a8           	tay
    3e85: 85 14        	sta	$14                     ; 0x2014 <f256main+0x1700>
    3e87: a5 12        	lda	$12                     ; 0x2012 <f256main+0x16fe>
    3e89: 38           	sec
    3e8a: e9 03        	sbc	#$3
    3e8c: 85 19        	sta	$19                     ; 0x2019 <f256main+0x1705>
    3e8e: 50 04        	bvc	$3e94 <dispatchNote+0x42d>
    3e90: 49 80        	eor	#$80
    3e92: 85 19        	sta	$19                     ; 0x2019 <f256main+0x1705>
    3e94: a2 10        	ldx	#$10
    3e96: 86 16        	stx	$16                     ; 0x2016 <f256main+0x1702>
    3e98: a2 d6        	ldx	#$d6
    3e9a: 86 17        	stx	$17                     ; 0x2017 <f256main+0x1703>
    3e9c: a6 1a        	ldx	$1a                     ; 0x201a <f256main+0x1706>
    3e9e: a5 13        	lda	$13                     ; 0x2013 <f256main+0x16ff>
    3ea0: 4a           	lsr
    3ea1: 4a           	lsr
    3ea2: 4a           	lsr
    3ea3: 49 0f        	eor	#$f
    3ea5: 85 15        	sta	$15                     ; 0x2015 <f256main+0x1701>
    3ea7: bd 69 88     	lda	$8869,x                 ; 0x8869 <sidHigh+0x92a>
    3eaa: 85 1b        	sta	$1b                     ; 0x201b <f256main+0x1707>
    3eac: bd a9 88     	lda	$88a9,x                 ; 0x88a9 <psgLow+0x13>
    3eaf: aa           	tax
    3eb0: 86 13        	stx	$13                     ; 0x2013 <f256main+0x16ff>
    3eb2: 98           	tya
    3eb3: 05 15        	ora	$15                     ; 0x2015 <f256main+0x1701>
    3eb5: 09 90        	ora	#$90
    3eb7: a6 19        	ldx	$19                     ; 0x2019 <f256main+0x1705>
    3eb9: 10 08        	bpl	$3ec3 <dispatchNote+0x45c>
    3ebb: a2 00        	ldx	#$0
    3ebd: 86 16        	stx	$16                     ; 0x2016 <f256main+0x1702>
    3ebf: a2 d6        	ldx	#$d6
    3ec1: 86 17        	stx	$17                     ; 0x2017 <f256main+0x1703>
    3ec3: 92 16        	sta	($16)                   ; 0x2016 <f256main+0x1702>
    3ec5: a5 1b        	lda	$1b                     ; 0x201b <f256main+0x1707>
    3ec7: 05 14        	ora	$14                     ; 0x2014 <f256main+0x1700>
    3ec9: 92 16        	sta	($16)                   ; 0x2016 <f256main+0x1702>
    3ecb: a5 13        	lda	$13                     ; 0x2013 <f256main+0x16ff>
    3ecd: 92 16        	sta	($16)                   ; 0x2016 <f256main+0x1702>
    3ecf: a9 63        	lda	#$63
    3ed1: 18           	clc
    3ed2: 65 12        	adc	$12                     ; 0x2012 <f256main+0x16fe>
    3ed4: 85 12        	sta	$12                     ; 0x2012 <f256main+0x16fe>
    3ed6: a9 00        	lda	#$0
    3ed8: 65 18        	adc	$18                     ; 0x2018 <f256main+0x1704>
    3eda: 85 13        	sta	$13                     ; 0x2013 <f256main+0x16ff>
    3edc: a5 1a        	lda	$1a                     ; 0x201a <f256main+0x1706>
    3ede: 92 12        	sta	($12)                   ; 0x2012 <f256main+0x16fe>
    3ee0: e6 55        	inc	$55                     ; 0x2055 <f256main+0x1741>
    3ee2: 60           	rts
    3ee3: a2 00        	ldx	#$0
    3ee5: a4 1a        	ldy	$1a                     ; 0x201a <f256main+0x1706>
    3ee7: 84 12        	sty	$12                     ; 0x2012 <f256main+0x16fe>
    3ee9: b4 57        	ldy	$57,x                   ; 0x2057 <f256main+0x1743>
    3eeb: c4 12        	cpy	$12                     ; 0x2012 <f256main+0x16fe>
    3eed: d0 03        	bne	$3ef2 <dispatchNote+0x48b>
    3eef: 4c 65 3f     	jmp	$3f65 <dispatchNote+0x4fe>
    3ef2: e8           	inx
    3ef3: e0 06        	cpx	#$6
    3ef5: d0 f2        	bne	$3ee9 <dispatchNote+0x482>
    3ef7: a2 d4        	ldx	#$d4
    3ef9: a0 ff        	ldy	#$ff
    3efb: 84 13        	sty	$13                     ; 0x2013 <f256main+0x16ff>
    3efd: 84 12        	sty	$12                     ; 0x2012 <f256main+0x16fe>
    3eff: 4c 81 3f     	jmp	$3f81 <dispatchNote+0x51a>
    3f02: 8d a1 dd     	sta	$dda1                   ; 0xdda1 <__heap_start+0x50e5>
    3f05: 8e a1 dd     	stx	$dda1                   ; 0xdda1 <__heap_start+0x50e5>
    3f08: 8c a1 dd     	sty	$dda1                   ; 0xdda1 <__heap_start+0x50e5>
    3f0b: a5 52        	lda	$52                     ; 0x2052 <f256main+0x173e>
    3f0d: 2c 62 79     	bit	$7962                   ; 0x7962 <__set_v>
    3f10: a2 52        	ldx	#$52
    3f12: 86 16        	stx	$16                     ; 0x2016 <f256main+0x1702>
    3f14: a2 00        	ldx	#$0
    3f16: 86 17        	stx	$17                     ; 0x2017 <f256main+0x1703>
    3f18: aa           	tax
    3f19: f0 03        	beq	$3f1e <dispatchNote+0x4b7>
    3f1b: 3a           	dec
    3f1c: 92 16        	sta	($16)                   ; 0x2016 <f256main+0x1702>
    3f1e: a6 81        	ldx	$81                     ; 0x2081 <f256main+0x176d>
    3f20: a5 82        	lda	$82                     ; 0x2082 <f256main+0x176e>
    3f22: 86 16        	stx	$16                     ; 0x2016 <f256main+0x1702>
    3f24: 85 17        	sta	$17                     ; 0x2017 <f256main+0x1703>
    3f26: a0 07        	ldy	#$7
    3f28: b1 16        	lda	($16),y                 ; 0x2016 <f256main+0x1702>
    3f2a: d0 03        	bne	$3f2f <dispatchNote+0x4c8>
    3f2c: 4c 00 3d     	jmp	$3d00 <dispatchNote+0x299>
    3f2f: a6 12        	ldx	$12                     ; 0x2012 <f256main+0x16fe>
    3f31: e0 04        	cpx	#$4
    3f33: f0 0c        	beq	$3f41 <dispatchNote+0x4da>
    3f35: a5 14        	lda	$14                     ; 0x2014 <f256main+0x1700>
    3f37: d0 08        	bne	$3f41 <dispatchNote+0x4da>
    3f39: a2 a1        	ldx	#$a1
    3f3b: 86 1c        	stx	$1c                     ; 0x201c <f256main+0x1708>
    3f3d: a2 dd        	ldx	#$dd
    3f3f: 86 1d        	stx	$1d                     ; 0x201d <f256main+0x1709>
    3f41: a9 81        	lda	#$81
    3f43: 92 1c        	sta	($1c)                   ; 0x201c <f256main+0x1708>
    3f45: a5 1a        	lda	$1a                     ; 0x201a <f256main+0x1706>
    3f47: 92 1c        	sta	($1c)                   ; 0x201c <f256main+0x1708>
    3f49: a5 13        	lda	$13                     ; 0x2013 <f256main+0x16ff>
    3f4b: 92 1c        	sta	($1c)                   ; 0x201c <f256main+0x1708>
    3f4d: 50 0b        	bvc	$3f5a <dispatchNote+0x4f3>
    3f4f: a6 52        	ldx	$52                     ; 0x2052 <f256main+0x173e>
    3f51: d0 03        	bne	$3f56 <dispatchNote+0x4ef>
    3f53: 4c 00 3d     	jmp	$3d00 <dispatchNote+0x299>
    3f56: ca           	dex
    3f57: 86 52        	stx	$52                     ; 0x2052 <f256main+0x173e>
    3f59: 60           	rts
    3f5a: a6 53        	ldx	$53                     ; 0x2053 <f256main+0x173f>
    3f5c: d0 03        	bne	$3f61 <dispatchNote+0x4fa>
    3f5e: 4c 00 3d     	jmp	$3d00 <dispatchNote+0x299>
    3f61: ca           	dex
    3f62: 86 53        	stx	$53                     ; 0x2053 <f256main+0x173f>
    3f64: 60           	rts
    3f65: 8a           	txa
    3f66: aa           	tax
    3f67: 10 06        	bpl	$3f6f <dispatchNote+0x508>
    3f69: a2 ff        	ldx	#$ff
    3f6b: 86 12        	stx	$12                     ; 0x2012 <f256main+0x16fe>
    3f6d: 80 02        	bra	$3f71 <dispatchNote+0x50a>
    3f6f: 64 12        	stz	$12                     ; 0x2012 <f256main+0x16fe>
    3f71: 85 13        	sta	$13                     ; 0x2013 <f256main+0x16ff>
    3f73: 38           	sec
    3f74: e9 03        	sbc	#$3
    3f76: 50 02        	bvc	$3f7a <dispatchNote+0x513>
    3f78: 49 80        	eor	#$80
    3f7a: a2 d4        	ldx	#$d4
    3f7c: a8           	tay
    3f7d: 30 02        	bmi	$3f81 <dispatchNote+0x51a>
    3f7f: a2 d5        	ldx	#$d5
    3f81: a9 72        	lda	#$72
    3f83: 18           	clc
    3f84: 65 13        	adc	$13                     ; 0x2013 <f256main+0x16ff>
    3f86: 85 14        	sta	$14                     ; 0x2014 <f256main+0x1700>
    3f88: a9 88        	lda	#$88
    3f8a: 65 12        	adc	$12                     ; 0x2012 <f256main+0x16fe>
    3f8c: 85 15        	sta	$15                     ; 0x2015 <f256main+0x1701>
    3f8e: a9 57        	lda	#$57
    3f90: 18           	clc
    3f91: 65 13        	adc	$13                     ; 0x2013 <f256main+0x16ff>
    3f93: a8           	tay
    3f94: a9 00        	lda	#$0
    3f96: 65 12        	adc	$12                     ; 0x2012 <f256main+0x16fe>
    3f98: 85 13        	sta	$13                     ; 0x2013 <f256main+0x16ff>
    3f9a: 84 12        	sty	$12                     ; 0x2012 <f256main+0x16fe>
    3f9c: b2 14        	lda	($14)                   ; 0x2014 <f256main+0x1700>
    3f9e: 85 14        	sta	$14                     ; 0x2014 <f256main+0x1700>
    3fa0: a9 00        	lda	#$0
    3fa2: 92 12        	sta	($12)                   ; 0x2012 <f256main+0x16fe>
    3fa4: a4 1a        	ldy	$1a                     ; 0x201a <f256main+0x1706>
    3fa6: b9 0b 89     	lda	$890b,y                 ; 0x890b <psgHigh+0x35>
    3fa9: 5a           	phy
    3faa: a4 14        	ldy	$14                     ; 0x2014 <f256main+0x1700>
    3fac: 84 12        	sty	$12                     ; 0x2012 <f256main+0x16fe>
    3fae: 7a           	ply
    3faf: 86 13        	stx	$13                     ; 0x2013 <f256main+0x16ff>
    3fb1: 92 12        	sta	($12)                   ; 0x2012 <f256main+0x16fe>
    3fb3: b9 34 7f     	lda	$7f34,y                 ; 0x7f34 <KeyCodesToMIDINotes+0x4df>
    3fb6: a8           	tay
    3fb7: e6 14        	inc	$14                     ; 0x2014 <f256main+0x1700>
    3fb9: d0 01        	bne	$3fbc <dispatchNote+0x555>
    3fbb: e8           	inx
    3fbc: 86 15        	stx	$15                     ; 0x2015 <f256main+0x1701>
    3fbe: 98           	tya
    3fbf: 92 14        	sta	($14)                   ; 0x2014 <f256main+0x1700>
    3fc1: a5 16        	lda	$16                     ; 0x2016 <f256main+0x1702>
    3fc3: d0 0e        	bne	$3fd3 <dispatchNote+0x56c>
    3fc5: a6 81        	ldx	$81                     ; 0x2081 <f256main+0x176d>
    3fc7: a4 82        	ldy	$82                     ; 0x2082 <f256main+0x176e>
    3fc9: 86 14        	stx	$14                     ; 0x2014 <f256main+0x1700>
    3fcb: 84 15        	sty	$15                     ; 0x2015 <f256main+0x1701>
    3fcd: a0 04        	ldy	#$4
    3fcf: b1 14        	lda	($14),y                 ; 0x2014 <f256main+0x1700>
    3fd1: 85 17        	sta	$17                     ; 0x2017 <f256main+0x1703>
    3fd3: a5 17        	lda	$17                     ; 0x2017 <f256main+0x1703>
    3fd5: 0a           	asl
    3fd6: aa           	tax
    3fd7: a9 00        	lda	#$0
    3fd9: 2a           	rol
    3fda: 86 14        	stx	$14                     ; 0x2014 <f256main+0x1700>
    3fdc: 06 14        	asl	$14                     ; 0x2014 <f256main+0x1700>
    3fde: 2a           	rol
    3fdf: 06 14        	asl	$14                     ; 0x2014 <f256main+0x1700>
    3fe1: 2a           	rol
    3fe2: aa           	tax
    3fe3: 18           	clc
    3fe4: a5 14        	lda	$14                     ; 0x2014 <f256main+0x1700>
    3fe6: 65 17        	adc	$17                     ; 0x2017 <f256main+0x1703>
    3fe8: 85 14        	sta	$14                     ; 0x2014 <f256main+0x1700>
    3fea: 8a           	txa
    3feb: 69 00        	adc	#$0
    3fed: 85 15        	sta	$15                     ; 0x2015 <f256main+0x1701>
    3fef: a9 5e        	lda	#$5e
    3ff1: 18           	clc
    3ff2: 65 14        	adc	$14                     ; 0x2014 <f256main+0x1700>
    3ff4: 85 14        	sta	$14                     ; 0x2014 <f256main+0x1700>
    3ff6: a9 8a        	lda	#$8a
    3ff8: 65 15        	adc	$15                     ; 0x2015 <f256main+0x1701>
    3ffa: 85 15        	sta	$15                     ; 0x2015 <f256main+0x1701>
    3ffc: a0 05        	ldy	#$5
    3ffe: a9 fe        	lda	#$fe
    4000: 31 14        	and	($14),y                 ; 0x2014 <f256main+0x1700>
    4002: 88           	dey
    4003: 91 12        	sta	($12),y                 ; 0x2012 <f256main+0x16fe>
    4005: a6 54        	ldx	$54                     ; 0x2054 <f256main+0x1740>
    4007: d0 03        	bne	$400c <dispatchNote+0x5a5>
    4009: 4c 00 3d     	jmp	$3d00 <dispatchNote+0x299>
    400c: ca           	dex
    400d: 86 54        	stx	$54                     ; 0x2054 <f256main+0x1740>
    400f: 60           	rts

00004010 <opl3_setInstrument>:
    4010: c9 03        	cmp	#$3
    4012: 90 0c        	bcc	$4020 <opl3_setInstrument+0x10>
    4014: c9 06        	cmp	#$6
    4016: 90 05        	bcc	$401d <opl3_setInstrument+0xd>
    4018: 18           	clc
    4019: 69 0a        	adc	#$a
    401b: 80 03        	bra	$4020 <opl3_setInstrument+0x10>
    401d: 18           	clc
    401e: 69 05        	adc	#$5
    4020: a2 80        	ldx	#$80
    4022: 86 14        	stx	$14                     ; 0x2014 <f256main+0x1700>
    4024: a2 d5        	ldx	#$d5
    4026: 86 15        	stx	$15                     ; 0x2015 <f256main+0x1701>
    4028: aa           	tax
    4029: 09 20        	ora	#$20
    402b: 85 17        	sta	$17                     ; 0x2017 <f256main+0x1703>
    402d: a0 01        	ldy	#$1
    402f: b1 12        	lda	($12),y                 ; 0x2012 <f256main+0x16fe>
    4031: a4 17        	ldy	$17                     ; 0x2017 <f256main+0x1703>
    4033: 8c 80 d5     	sty	$d580                   ; 0xd580 <__heap_start+0x48c4>
    4036: 8d 81 d5     	sta	$d581                   ; 0xd581 <__heap_start+0x48c5>
    4039: 18           	clc
    403a: 8a           	txa
    403b: 69 03        	adc	#$3
    403d: a8           	tay
    403e: b2 12        	lda	($12)                   ; 0x2012 <f256main+0x16fe>
    4040: 85 18        	sta	$18                     ; 0x2018 <f256main+0x1704>
    4042: 86 16        	stx	$16                     ; 0x2016 <f256main+0x1702>
    4044: e0 fd        	cpx	#$fd
    4046: 98           	tya
    4047: 84 17        	sty	$17                     ; 0x2017 <f256main+0x1703>
    4049: 09 20        	ora	#$20
    404b: 90 08        	bcc	$4055 <opl3_setInstrument+0x45>
    404d: a2 82        	ldx	#$82
    404f: 86 14        	stx	$14                     ; 0x2014 <f256main+0x1700>
    4051: a2 d5        	ldx	#$d5
    4053: 86 15        	stx	$15                     ; 0x2015 <f256main+0x1701>
    4055: 92 14        	sta	($14)                   ; 0x2014 <f256main+0x1700>
    4057: a6 18        	ldx	$18                     ; 0x2018 <f256main+0x1704>
    4059: 8e 81 d5     	stx	$d581                   ; 0xd581 <__heap_start+0x48c5>
    405c: a6 16        	ldx	$16                     ; 0x2016 <f256main+0x1702>
    405e: a5 16        	lda	$16                     ; 0x2016 <f256main+0x1702>
    4060: 09 40        	ora	#$40
    4062: 85 18        	sta	$18                     ; 0x2018 <f256main+0x1704>
    4064: a0 03        	ldy	#$3
    4066: b1 12        	lda	($12),y                 ; 0x2012 <f256main+0x16fe>
    4068: a4 18        	ldy	$18                     ; 0x2018 <f256main+0x1704>
    406a: 8c 80 d5     	sty	$d580                   ; 0xd580 <__heap_start+0x48c4>
    406d: 8d 81 d5     	sta	$d581                   ; 0xd581 <__heap_start+0x48c5>
    4070: a0 02        	ldy	#$2
    4072: b1 12        	lda	($12),y                 ; 0x2012 <f256main+0x16fe>
    4074: 85 16        	sta	$16                     ; 0x2016 <f256main+0x1702>
    4076: a5 17        	lda	$17                     ; 0x2017 <f256main+0x1703>
    4078: 09 40        	ora	#$40
    407a: 92 14        	sta	($14)                   ; 0x2014 <f256main+0x1700>
    407c: a4 16        	ldy	$16                     ; 0x2016 <f256main+0x1702>
    407e: 8c 81 d5     	sty	$d581                   ; 0xd581 <__heap_start+0x48c5>
    4081: 8a           	txa
    4082: 09 60        	ora	#$60
    4084: 85 18        	sta	$18                     ; 0x2018 <f256main+0x1704>
    4086: a0 05        	ldy	#$5
    4088: b1 12        	lda	($12),y                 ; 0x2012 <f256main+0x16fe>
    408a: a4 18        	ldy	$18                     ; 0x2018 <f256main+0x1704>
    408c: 8c 80 d5     	sty	$d580                   ; 0xd580 <__heap_start+0x48c4>
    408f: 8d 81 d5     	sta	$d581                   ; 0xd581 <__heap_start+0x48c5>
    4092: a0 04        	ldy	#$4
    4094: b1 12        	lda	($12),y                 ; 0x2012 <f256main+0x16fe>
    4096: 85 16        	sta	$16                     ; 0x2016 <f256main+0x1702>
    4098: a5 17        	lda	$17                     ; 0x2017 <f256main+0x1703>
    409a: 09 60        	ora	#$60
    409c: 92 14        	sta	($14)                   ; 0x2014 <f256main+0x1700>
    409e: a4 16        	ldy	$16                     ; 0x2016 <f256main+0x1702>
    40a0: 8c 81 d5     	sty	$d581                   ; 0xd581 <__heap_start+0x48c5>
    40a3: 8a           	txa
    40a4: 09 80        	ora	#$80
    40a6: 85 18        	sta	$18                     ; 0x2018 <f256main+0x1704>
    40a8: a0 07        	ldy	#$7
    40aa: b1 12        	lda	($12),y                 ; 0x2012 <f256main+0x16fe>
    40ac: a4 18        	ldy	$18                     ; 0x2018 <f256main+0x1704>
    40ae: 8c 80 d5     	sty	$d580                   ; 0xd580 <__heap_start+0x48c4>
    40b1: 8d 81 d5     	sta	$d581                   ; 0xd581 <__heap_start+0x48c5>
    40b4: a0 06        	ldy	#$6
    40b6: b1 12        	lda	($12),y                 ; 0x2012 <f256main+0x16fe>
    40b8: 85 16        	sta	$16                     ; 0x2016 <f256main+0x1702>
    40ba: a5 17        	lda	$17                     ; 0x2017 <f256main+0x1703>
    40bc: 09 80        	ora	#$80
    40be: 92 14        	sta	($14)                   ; 0x2014 <f256main+0x1700>
    40c0: a4 16        	ldy	$16                     ; 0x2016 <f256main+0x1702>
    40c2: 8c 81 d5     	sty	$d581                   ; 0xd581 <__heap_start+0x48c5>
    40c5: 8a           	txa
    40c6: 09 e0        	ora	#$e0
    40c8: aa           	tax
    40c9: a0 09        	ldy	#$9
    40cb: b1 12        	lda	($12),y                 ; 0x2012 <f256main+0x16fe>
    40cd: 8e 80 d5     	stx	$d580                   ; 0xd580 <__heap_start+0x48c4>
    40d0: 8d 81 d5     	sta	$d581                   ; 0xd581 <__heap_start+0x48c5>
    40d3: 88           	dey
    40d4: b1 12        	lda	($12),y                 ; 0x2012 <f256main+0x16fe>
    40d6: 85 12        	sta	$12                     ; 0x2012 <f256main+0x16fe>
    40d8: a5 17        	lda	$17                     ; 0x2017 <f256main+0x1703>
    40da: 09 e0        	ora	#$e0
    40dc: 92 14        	sta	($14)                   ; 0x2014 <f256main+0x1700>
    40de: a6 12        	ldx	$12                     ; 0x2012 <f256main+0x16fe>
    40e0: 8e 81 d5     	stx	$d581                   ; 0xd581 <__heap_start+0x48c5>
    40e3: 60           	rts

000040e4 <opl3_setInstrumentAllChannels>:
    40e4: a2 0b        	ldx	#$b
    40e6: 86 12        	stx	$12                     ; 0x2012 <f256main+0x16fe>
    40e8: 64 13        	stz	$13                     ; 0x2013 <f256main+0x16ff>
    40ea: 64 8f        	stz	$8f                     ; 0x208f <f256main+0x177b>
    40ec: a2 00        	ldx	#$0
    40ee: 20 bb 64     	jsr	$64bb <__mulhi3>
    40f1: 85 12        	sta	$12                     ; 0x2012 <f256main+0x16fe>
    40f3: 86 13        	stx	$13                     ; 0x2013 <f256main+0x16ff>
    40f5: a9 8b        	lda	#$8b
    40f7: 18           	clc
    40f8: 65 12        	adc	$12                     ; 0x2012 <f256main+0x16fe>
    40fa: 85 8d        	sta	$8d                     ; 0x208d <f256main+0x1779>
    40fc: a9 8a        	lda	#$8a
    40fe: 65 13        	adc	$13                     ; 0x2013 <f256main+0x16ff>
    4100: 85 8e        	sta	$8e                     ; 0x208e <f256main+0x177a>
    4102: a6 8d        	ldx	$8d                     ; 0x208d <f256main+0x1779>
    4104: 86 12        	stx	$12                     ; 0x2012 <f256main+0x16fe>
    4106: a6 8e        	ldx	$8e                     ; 0x208e <f256main+0x177a>
    4108: 86 13        	stx	$13                     ; 0x2013 <f256main+0x16ff>
    410a: a5 8f        	lda	$8f                     ; 0x208f <f256main+0x177b>
    410c: 20 10 40     	jsr	$4010 <opl3_setInstrument>
    410f: a0 0a        	ldy	#$a
    4111: b1 8d        	lda	($8d),y                 ; 0x208d <f256main+0x1779>
    4113: 85 12        	sta	$12                     ; 0x2012 <f256main+0x16fe>
    4115: 18           	clc
    4116: a6 8f        	ldx	$8f                     ; 0x208f <f256main+0x177b>
    4118: a5 8f        	lda	$8f                     ; 0x208f <f256main+0x177b>
    411a: 69 c0        	adc	#$c0
    411c: 8d 80 d5     	sta	$d580                   ; 0xd580 <__heap_start+0x48c4>
    411f: a4 12        	ldy	$12                     ; 0x2012 <f256main+0x16fe>
    4121: 8c 81 d5     	sty	$d581                   ; 0xd581 <__heap_start+0x48c5>
    4124: e8           	inx
    4125: 86 8f        	stx	$8f                     ; 0x208f <f256main+0x177b>
    4127: e0 09        	cpx	#$9
    4129: d0 d7        	bne	$4102 <opl3_setInstrumentAllChannels+0x1e>
    412b: 60           	rts

0000412c <sid_setInstrument>:
    412c: a8           	tay
    412d: a9 00        	lda	#$0
    412f: 85 90        	sta	$90                     ; 0x2090 <f256main+0x177c>
    4131: 98           	tya
    4132: f0 04        	beq	$4138 <sid_setInstrument+0xc>
    4134: a0 d5        	ldy	#$d5
    4136: 80 02        	bra	$413a <sid_setInstrument+0xe>
    4138: a0 d4        	ldy	#$d4
    413a: 84 91        	sty	$91                     ; 0x2091 <f256main+0x177d>
    413c: e0 02        	cpx	#$2
    413e: f0 08        	beq	$4148 <sid_setInstrument+0x1c>
    4140: e0 01        	cpx	#$1
    4142: d0 08        	bne	$414c <sid_setInstrument+0x20>
    4144: a2 07        	ldx	#$7
    4146: 80 02        	bra	$414a <sid_setInstrument+0x1e>
    4148: a2 0e        	ldx	#$e
    414a: 86 90        	stx	$90                     ; 0x2090 <f256main+0x177c>
    414c: a0 01        	ldy	#$1
    414e: b1 12        	lda	($12),y                 ; 0x2012 <f256main+0x16fe>
    4150: 85 17        	sta	$17                     ; 0x2017 <f256main+0x1703>
    4152: a6 90        	ldx	$90                     ; 0x2090 <f256main+0x177c>
    4154: 86 16        	stx	$16                     ; 0x2016 <f256main+0x1702>
    4156: 8a           	txa
    4157: 18           	clc
    4158: 69 02        	adc	#$2
    415a: 85 14        	sta	$14                     ; 0x2014 <f256main+0x1700>
    415c: a6 91        	ldx	$91                     ; 0x2091 <f256main+0x177d>
    415e: 8a           	txa
    415f: 69 00        	adc	#$0
    4161: 85 15        	sta	$15                     ; 0x2015 <f256main+0x1701>
    4163: a5 17        	lda	$17                     ; 0x2017 <f256main+0x1703>
    4165: 92 14        	sta	($14)                   ; 0x2014 <f256main+0x1700>
    4167: c8           	iny
    4168: b1 12        	lda	($12),y                 ; 0x2012 <f256main+0x16fe>
    416a: 85 17        	sta	$17                     ; 0x2017 <f256main+0x1703>
    416c: a5 16        	lda	$16                     ; 0x2016 <f256main+0x1702>
    416e: 18           	clc
    416f: 69 03        	adc	#$3
    4171: 85 14        	sta	$14                     ; 0x2014 <f256main+0x1700>
    4173: 8a           	txa
    4174: 69 00        	adc	#$0
    4176: 85 15        	sta	$15                     ; 0x2015 <f256main+0x1701>
    4178: a5 17        	lda	$17                     ; 0x2017 <f256main+0x1703>
    417a: 92 14        	sta	($14)                   ; 0x2014 <f256main+0x1700>
    417c: c8           	iny
    417d: b1 12        	lda	($12),y                 ; 0x2012 <f256main+0x16fe>
    417f: 85 17        	sta	$17                     ; 0x2017 <f256main+0x1703>
    4181: a5 16        	lda	$16                     ; 0x2016 <f256main+0x1702>
    4183: 18           	clc
    4184: 69 05        	adc	#$5
    4186: 85 14        	sta	$14                     ; 0x2014 <f256main+0x1700>
    4188: 8a           	txa
    4189: 69 00        	adc	#$0
    418b: 85 15        	sta	$15                     ; 0x2015 <f256main+0x1701>
    418d: a5 17        	lda	$17                     ; 0x2017 <f256main+0x1703>
    418f: 92 14        	sta	($14)                   ; 0x2014 <f256main+0x1700>
    4191: a5 16        	lda	$16                     ; 0x2016 <f256main+0x1702>
    4193: 18           	clc
    4194: 69 06        	adc	#$6
    4196: 85 14        	sta	$14                     ; 0x2014 <f256main+0x1700>
    4198: 8a           	txa
    4199: 69 00        	adc	#$0
    419b: 18           	clc
    419c: 85 15        	sta	$15                     ; 0x2015 <f256main+0x1701>
    419e: c8           	iny
    419f: b1 12        	lda	($12),y                 ; 0x2012 <f256main+0x16fe>
    41a1: 92 14        	sta	($14)                   ; 0x2014 <f256main+0x1700>
    41a3: a5 16        	lda	$16                     ; 0x2016 <f256main+0x1702>
    41a5: 69 04        	adc	#$4
    41a7: 85 14        	sta	$14                     ; 0x2014 <f256main+0x1700>
    41a9: 8a           	txa
    41aa: 69 00        	adc	#$0
    41ac: 85 15        	sta	$15                     ; 0x2015 <f256main+0x1701>
    41ae: c8           	iny
    41af: b1 12        	lda	($12),y                 ; 0x2012 <f256main+0x16fe>
    41b1: 92 14        	sta	($14)                   ; 0x2014 <f256main+0x1700>
    41b3: 60           	rts

000041b4 <sid_setInstrumentAllChannels>:
    41b4: 85 12        	sta	$12                     ; 0x2012 <f256main+0x16fe>
    41b6: 0a           	asl
    41b7: 64 13        	stz	$13                     ; 0x2013 <f256main+0x16ff>
    41b9: 26 13        	rol	$13                     ; 0x2013 <f256main+0x16ff>
    41bb: 0a           	asl
    41bc: 26 13        	rol	$13                     ; 0x2013 <f256main+0x16ff>
    41be: 0a           	asl
    41bf: 26 13        	rol	$13                     ; 0x2013 <f256main+0x16ff>
    41c1: 18           	clc
    41c2: 65 12        	adc	$12                     ; 0x2012 <f256main+0x16fe>
    41c4: 85 12        	sta	$12                     ; 0x2012 <f256main+0x16fe>
    41c6: a5 13        	lda	$13                     ; 0x2013 <f256main+0x16ff>
    41c8: 69 00        	adc	#$0
    41ca: 85 13        	sta	$13                     ; 0x2013 <f256main+0x16ff>
    41cc: a9 5e        	lda	#$5e
    41ce: 18           	clc
    41cf: 65 12        	adc	$12                     ; 0x2012 <f256main+0x16fe>
    41d1: 85 8d        	sta	$8d                     ; 0x208d <f256main+0x1779>
    41d3: a9 8a        	lda	#$8a
    41d5: 65 13        	adc	$13                     ; 0x2013 <f256main+0x16ff>
    41d7: 85 8e        	sta	$8e                     ; 0x208e <f256main+0x177a>
    41d9: a2 00        	ldx	#$0
    41db: a4 8d        	ldy	$8d                     ; 0x208d <f256main+0x1779>
    41dd: 84 12        	sty	$12                     ; 0x2012 <f256main+0x16fe>
    41df: a4 8e        	ldy	$8e                     ; 0x208e <f256main+0x177a>
    41e1: 84 13        	sty	$13                     ; 0x2013 <f256main+0x16ff>
    41e3: 86 8f        	stx	$8f                     ; 0x208f <f256main+0x177b>
    41e5: a9 00        	lda	#$0
    41e7: 20 2c 41     	jsr	$412c <sid_setInstrument>
    41ea: a6 8d        	ldx	$8d                     ; 0x208d <f256main+0x1779>
    41ec: 86 12        	stx	$12                     ; 0x2012 <f256main+0x16fe>
    41ee: a6 8e        	ldx	$8e                     ; 0x208e <f256main+0x177a>
    41f0: 86 13        	stx	$13                     ; 0x2013 <f256main+0x16ff>
    41f2: a6 8f        	ldx	$8f                     ; 0x208f <f256main+0x177b>
    41f4: a9 01        	lda	#$1
    41f6: 20 2c 41     	jsr	$412c <sid_setInstrument>
    41f9: a6 8f        	ldx	$8f                     ; 0x208f <f256main+0x177b>
    41fb: e8           	inx
    41fc: e0 03        	cpx	#$3
    41fe: d0 db        	bne	$41db <sid_setInstrumentAllChannels+0x27>
    4200: 9c 14 d4     	stz	$d414                   ; 0xd414 <__heap_start+0x4758>
    4203: 9c 15 d4     	stz	$d415                   ; 0xd415 <__heap_start+0x4759>
    4206: 9c 17 d4     	stz	$d417                   ; 0xd417 <__heap_start+0x475b>
    4209: b2 8d        	lda	($8d)                   ; 0x208d <f256main+0x1779>
    420b: 8d 18 d4     	sta	$d418                   ; 0xd418 <__heap_start+0x475c>
    420e: 9c 14 d5     	stz	$d514                   ; 0xd514 <__heap_start+0x4858>
    4211: 9c 15 d5     	stz	$d515                   ; 0xd515 <__heap_start+0x4859>
    4214: 9c 17 d5     	stz	$d517                   ; 0xd517 <__heap_start+0x485b>
    4217: 8d 18 d5     	sta	$d518                   ; 0xd518 <__heap_start+0x485c>
    421a: 60           	rts

0000421b <getBeatTrackNoteInfo>:
    421b: 48           	pha
    421c: 18           	clc
    421d: a5 10        	lda	$10                     ; 0x2010 <f256main+0x16fc>
    421f: 69 fb        	adc	#$fb
    4221: 85 10        	sta	$10                     ; 0x2010 <f256main+0x16fc>
    4223: a5 11        	lda	$11                     ; 0x2011 <f256main+0x16fd>
    4225: 69 ff        	adc	#$ff
    4227: 85 11        	sta	$11                     ; 0x2011 <f256main+0x16fd>
    4229: 68           	pla
    422a: a4 24        	ldy	$24                     ; 0x2024 <f256main+0x1710>
    422c: 5a           	phy
    422d: a4 25        	ldy	$25                     ; 0x2025 <f256main+0x1711>
    422f: 5a           	phy
    4230: a4 26        	ldy	$26                     ; 0x2026 <f256main+0x1712>
    4232: 5a           	phy
    4233: a4 27        	ldy	$27                     ; 0x2027 <f256main+0x1713>
    4235: 5a           	phy
    4236: 48           	pha
    4237: a5 28        	lda	$28                     ; 0x2028 <f256main+0x1714>
    4239: a0 04        	ldy	#$4
    423b: 91 10        	sta	($10),y                 ; 0x2010 <f256main+0x16fc>
    423d: a5 29        	lda	$29                     ; 0x2029 <f256main+0x1715>
    423f: 88           	dey
    4240: 91 10        	sta	($10),y                 ; 0x2010 <f256main+0x16fc>
    4242: a5 2a        	lda	$2a                     ; 0x202a <f256main+0x1716>
    4244: 88           	dey
    4245: 91 10        	sta	($10),y                 ; 0x2010 <f256main+0x16fc>
    4247: a5 2b        	lda	$2b                     ; 0x202b <f256main+0x1717>
    4249: 88           	dey
    424a: 91 10        	sta	($10),y                 ; 0x2010 <f256main+0x16fc>
    424c: a5 2c        	lda	$2c                     ; 0x202c <f256main+0x1718>
    424e: 88           	dey
    424f: 91 10        	sta	($10),y                 ; 0x2010 <f256main+0x16fc>
    4251: 68           	pla
    4252: 85 1b        	sta	$1b                     ; 0x201b <f256main+0x1707>
    4254: 86 24        	stx	$24                     ; 0x2024 <f256main+0x1710>
    4256: 0a           	asl
    4257: 64 1a        	stz	$1a                     ; 0x201a <f256main+0x1706>
    4259: a2 00        	ldx	#$0
    425b: 64 1c        	stz	$1c                     ; 0x201c <f256main+0x1708>
    425d: 26 1c        	rol	$1c                     ; 0x201c <f256main+0x1708>
    425f: 0a           	asl
    4260: 26 1c        	rol	$1c                     ; 0x201c <f256main+0x1708>
    4262: 0a           	asl
    4263: 26 1c        	rol	$1c                     ; 0x201c <f256main+0x1708>
    4265: 0a           	asl
    4266: 26 1c        	rol	$1c                     ; 0x201c <f256main+0x1708>
    4268: 38           	sec
    4269: e5 1b        	sbc	$1b                     ; 0x201b <f256main+0x1707>
    426b: aa           	tax
    426c: a5 1c        	lda	$1c                     ; 0x201c <f256main+0x1708>
    426e: e9 00        	sbc	#$0
    4270: 85 1b        	sta	$1b                     ; 0x201b <f256main+0x1707>
    4272: 18           	clc
    4273: 8a           	txa
    4274: 65 12        	adc	$12                     ; 0x2012 <f256main+0x16fe>
    4276: a8           	tay
    4277: a5 13        	lda	$13                     ; 0x2013 <f256main+0x16ff>
    4279: 65 1b        	adc	$1b                     ; 0x201b <f256main+0x1707>
    427b: 84 22        	sty	$22                     ; 0x2022 <f256main+0x170e>
    427d: 84 12        	sty	$12                     ; 0x2012 <f256main+0x16fe>
    427f: 85 23        	sta	$23                     ; 0x2023 <f256main+0x170f>
    4281: 85 13        	sta	$13                     ; 0x2013 <f256main+0x16ff>
    4283: a0 04        	ldy	#$4
    4285: b1 12        	lda	($12),y                 ; 0x2012 <f256main+0x16fe>
    4287: d0 03        	bne	$428c <getBeatTrackNoteInfo+0x71>
    4289: 4c 79 44     	jmp	$4479 <getBeatTrackNoteInfo+0x25e>
    428c: a0 05        	ldy	#$5
    428e: a5 22        	lda	$22                     ; 0x2022 <f256main+0x170e>
    4290: 18           	clc
    4291: 69 05        	adc	#$5
    4293: 85 1c        	sta	$1c                     ; 0x201c <f256main+0x1708>
    4295: a5 23        	lda	$23                     ; 0x2023 <f256main+0x170f>
    4297: 69 00        	adc	#$0
    4299: 85 1d        	sta	$1d                     ; 0x201d <f256main+0x1709>
    429b: b1 12        	lda	($12),y                 ; 0x2012 <f256main+0x16fe>
    429d: 85 25        	sta	$25                     ; 0x2025 <f256main+0x1711>
    429f: a0 01        	ldy	#$1
    42a1: b1 1c        	lda	($1c),y                 ; 0x201c <f256main+0x1708>
    42a3: 85 26        	sta	$26                     ; 0x2026 <f256main+0x1712>
    42a5: c8           	iny
    42a6: b1 1c        	lda	($1c),y                 ; 0x201c <f256main+0x1708>
    42a8: 85 27        	sta	$27                     ; 0x2027 <f256main+0x1713>
    42aa: c8           	iny
    42ab: b1 1c        	lda	($1c),y                 ; 0x201c <f256main+0x1708>
    42ad: 85 28        	sta	$28                     ; 0x2028 <f256main+0x1714>
    42af: 80 37        	bra	$42e8 <getBeatTrackNoteInfo+0xcd>
    42b1: 0a           	asl
    42b2: 64 1c        	stz	$1c                     ; 0x201c <f256main+0x1708>
    42b4: 26 1c        	rol	$1c                     ; 0x201c <f256main+0x1708>
    42b6: 18           	clc
    42b7: 69 04        	adc	#$4
    42b9: 85 1b        	sta	$1b                     ; 0x201b <f256main+0x1707>
    42bb: a5 1c        	lda	$1c                     ; 0x201c <f256main+0x1708>
    42bd: 69 00        	adc	#$0
    42bf: 85 1c        	sta	$1c                     ; 0x201c <f256main+0x1708>
    42c1: 18           	clc
    42c2: a5 2b        	lda	$2b                     ; 0x202b <f256main+0x1717>
    42c4: 65 1b        	adc	$1b                     ; 0x201b <f256main+0x1707>
    42c6: 85 25        	sta	$25                     ; 0x2025 <f256main+0x1711>
    42c8: a5 2a        	lda	$2a                     ; 0x202a <f256main+0x1716>
    42ca: 65 1c        	adc	$1c                     ; 0x201c <f256main+0x1708>
    42cc: 85 26        	sta	$26                     ; 0x2026 <f256main+0x1712>
    42ce: a5 29        	lda	$29                     ; 0x2029 <f256main+0x1715>
    42d0: 69 00        	adc	#$0
    42d2: 85 27        	sta	$27                     ; 0x2027 <f256main+0x1713>
    42d4: a5 28        	lda	$28                     ; 0x2028 <f256main+0x1714>
    42d6: 69 00        	adc	#$0
    42d8: 85 28        	sta	$28                     ; 0x2028 <f256main+0x1714>
    42da: a5 1a        	lda	$1a                     ; 0x201a <f256main+0x1706>
    42dc: 1a           	inc
    42dd: a0 04        	ldy	#$4
    42df: d1 12        	cmp	($12),y                 ; 0x2012 <f256main+0x16fe>
    42e1: 85 1a        	sta	$1a                     ; 0x201a <f256main+0x1706>
    42e3: 90 03        	bcc	$42e8 <getBeatTrackNoteInfo+0xcd>
    42e5: 4c 79 44     	jmp	$4479 <getBeatTrackNoteInfo+0x25e>
    42e8: 18           	clc
    42e9: a6 25        	ldx	$25                     ; 0x2025 <f256main+0x1711>
    42eb: a5 25        	lda	$25                     ; 0x2025 <f256main+0x1711>
    42ed: 69 03        	adc	#$3
    42ef: 85 1c        	sta	$1c                     ; 0x201c <f256main+0x1708>
    42f1: 86 2b        	stx	$2b                     ; 0x202b <f256main+0x1717>
    42f3: a5 26        	lda	$26                     ; 0x2026 <f256main+0x1712>
    42f5: 85 2a        	sta	$2a                     ; 0x202a <f256main+0x1716>
    42f7: 69 00        	adc	#$0
    42f9: a8           	tay
    42fa: a5 27        	lda	$27                     ; 0x2027 <f256main+0x1713>
    42fc: 85 29        	sta	$29                     ; 0x2029 <f256main+0x1715>
    42fe: 69 00        	adc	#$0
    4300: 84 1b        	sty	$1b                     ; 0x201b <f256main+0x1707>
    4302: 06 1b        	asl	$1b                     ; 0x201b <f256main+0x1707>
    4304: 2a           	rol
    4305: 06 1b        	asl	$1b                     ; 0x201b <f256main+0x1707>
    4307: 2a           	rol
    4308: 06 1b        	asl	$1b                     ; 0x201b <f256main+0x1707>
    430a: 2a           	rol
    430b: a6 0f        	ldx	$f                      ; 0x200f <f256main+0x16fb>
    430d: 78           	sei
    430e: 85 25        	sta	$25                     ; 0x2025 <f256main+0x1711>
    4310: 85 0f        	sta	$f                      ; 0x200f <f256main+0x16fb>
    4312: 98           	tya
    4313: 09 e0        	ora	#$e0
    4315: 85 1d        	sta	$1d                     ; 0x201d <f256main+0x1709>
    4317: b2 1c        	lda	($1c)                   ; 0x201c <f256main+0x1708>
    4319: 85 1b        	sta	$1b                     ; 0x201b <f256main+0x1707>
    431b: 86 0f        	stx	$f                      ; 0x200f <f256main+0x16fb>
    431d: 58           	cli
    431e: a6 24        	ldx	$24                     ; 0x2024 <f256main+0x1710>
    4320: e4 1a        	cpx	$1a                     ; 0x201a <f256main+0x1706>
    4322: f0 03        	beq	$4327 <getBeatTrackNoteInfo+0x10c>
    4324: 4c b1 42     	jmp	$42b1 <getBeatTrackNoteInfo+0x96>
    4327: 86 2c        	stx	$2c                     ; 0x202c <f256main+0x1718>
    4329: a6 0f        	ldx	$f                      ; 0x200f <f256main+0x16fb>
    432b: 78           	sei
    432c: a4 2a        	ldy	$2a                     ; 0x202a <f256main+0x1716>
    432e: 84 1e        	sty	$1e                     ; 0x201e <f256main+0x170a>
    4330: 06 1e        	asl	$1e                     ; 0x201e <f256main+0x170a>
    4332: a5 29        	lda	$29                     ; 0x2029 <f256main+0x1715>
    4334: 2a           	rol
    4335: 06 1e        	asl	$1e                     ; 0x201e <f256main+0x170a>
    4337: 2a           	rol
    4338: 06 1e        	asl	$1e                     ; 0x201e <f256main+0x170a>
    433a: 2a           	rol
    433b: 85 0f        	sta	$f                      ; 0x200f <f256main+0x16fb>
    433d: a5 2a        	lda	$2a                     ; 0x202a <f256main+0x1716>
    433f: 09 e0        	ora	#$e0
    4341: a4 2b        	ldy	$2b                     ; 0x202b <f256main+0x1717>
    4343: 84 1e        	sty	$1e                     ; 0x201e <f256main+0x170a>
    4345: 85 1f        	sta	$1f                     ; 0x201f <f256main+0x170b>
    4347: b2 1e        	lda	($1e)                   ; 0x201e <f256main+0x170a>
    4349: 86 0f        	stx	$f                      ; 0x200f <f256main+0x16fb>
    434b: 58           	cli
    434c: 92 18        	sta	($18)                   ; 0x2018 <f256main+0x1704>
    434e: a4 2a        	ldy	$2a                     ; 0x202a <f256main+0x1716>
    4350: a5 29        	lda	$29                     ; 0x2029 <f256main+0x1715>
    4352: a6 28        	ldx	$28                     ; 0x2028 <f256main+0x1714>
    4354: e6 1e        	inc	$1e                     ; 0x201e <f256main+0x170a>
    4356: d0 07        	bne	$435f <getBeatTrackNoteInfo+0x144>
    4358: c8           	iny
    4359: d0 04        	bne	$435f <getBeatTrackNoteInfo+0x144>
    435b: 1a           	inc
    435c: d0 01        	bne	$435f <getBeatTrackNoteInfo+0x144>
    435e: e8           	inx
    435f: a6 0f        	ldx	$f                      ; 0x200f <f256main+0x16fb>
    4361: 78           	sei
    4362: 84 1f        	sty	$1f                     ; 0x201f <f256main+0x170b>
    4364: 06 1f        	asl	$1f                     ; 0x201f <f256main+0x170b>
    4366: 2a           	rol
    4367: 06 1f        	asl	$1f                     ; 0x201f <f256main+0x170b>
    4369: 2a           	rol
    436a: 06 1f        	asl	$1f                     ; 0x201f <f256main+0x170b>
    436c: 2a           	rol
    436d: 85 0f        	sta	$f                      ; 0x200f <f256main+0x16fb>
    436f: 98           	tya
    4370: 09 e0        	ora	#$e0
    4372: 85 1f        	sta	$1f                     ; 0x201f <f256main+0x170b>
    4374: b2 1e        	lda	($1e)                   ; 0x201e <f256main+0x170a>
    4376: 86 0f        	stx	$f                      ; 0x200f <f256main+0x16fb>
    4378: 58           	cli
    4379: a0 01        	ldy	#$1
    437b: 91 18        	sta	($18),y                 ; 0x2018 <f256main+0x1704>
    437d: a5 2b        	lda	$2b                     ; 0x202b <f256main+0x1717>
    437f: 18           	clc
    4380: 69 02        	adc	#$2
    4382: a8           	tay
    4383: a5 2a        	lda	$2a                     ; 0x202a <f256main+0x1716>
    4385: 69 00        	adc	#$0
    4387: 85 1f        	sta	$1f                     ; 0x201f <f256main+0x170b>
    4389: a5 29        	lda	$29                     ; 0x2029 <f256main+0x1715>
    438b: 69 00        	adc	#$0
    438d: a6 0f        	ldx	$f                      ; 0x200f <f256main+0x16fb>
    438f: 78           	sei
    4390: 5a           	phy
    4391: a4 1f        	ldy	$1f                     ; 0x201f <f256main+0x170b>
    4393: 84 1e        	sty	$1e                     ; 0x201e <f256main+0x170a>
    4395: 7a           	ply
    4396: 06 1e        	asl	$1e                     ; 0x201e <f256main+0x170a>
    4398: 2a           	rol
    4399: 06 1e        	asl	$1e                     ; 0x201e <f256main+0x170a>
    439b: 2a           	rol
    439c: 06 1e        	asl	$1e                     ; 0x201e <f256main+0x170a>
    439e: 2a           	rol
    439f: 85 0f        	sta	$f                      ; 0x200f <f256main+0x16fb>
    43a1: a5 1f        	lda	$1f                     ; 0x201f <f256main+0x170b>
    43a3: 09 e0        	ora	#$e0
    43a5: 84 1e        	sty	$1e                     ; 0x201e <f256main+0x170a>
    43a7: 85 1f        	sta	$1f                     ; 0x201f <f256main+0x170b>
    43a9: b2 1e        	lda	($1e)                   ; 0x201e <f256main+0x170a>
    43ab: 86 0f        	stx	$f                      ; 0x200f <f256main+0x16fb>
    43ad: 58           	cli
    43ae: a0 02        	ldy	#$2
    43b0: 91 18        	sta	($18),y                 ; 0x2018 <f256main+0x1704>
    43b2: a6 0f        	ldx	$f                      ; 0x200f <f256main+0x16fb>
    43b4: 78           	sei
    43b5: a4 25        	ldy	$25                     ; 0x2025 <f256main+0x1711>
    43b7: 84 0f        	sty	$f                      ; 0x200f <f256main+0x16fb>
    43b9: b2 1c        	lda	($1c)                   ; 0x201c <f256main+0x1708>
    43bb: 86 0f        	stx	$f                      ; 0x200f <f256main+0x16fb>
    43bd: 58           	cli
    43be: a0 03        	ldy	#$3
    43c0: 91 18        	sta	($18),y                 ; 0x2018 <f256main+0x1704>
    43c2: a6 2b        	ldx	$2b                     ; 0x202b <f256main+0x1717>
    43c4: 86 25        	stx	$25                     ; 0x2025 <f256main+0x1711>
    43c6: a5 2b        	lda	$2b                     ; 0x202b <f256main+0x1717>
    43c8: 18           	clc
    43c9: 69 04        	adc	#$4
    43cb: 85 2b        	sta	$2b                     ; 0x202b <f256main+0x1717>
    43cd: a5 2a        	lda	$2a                     ; 0x202a <f256main+0x1716>
    43cf: 69 00        	adc	#$0
    43d1: 85 2a        	sta	$2a                     ; 0x202a <f256main+0x1716>
    43d3: a5 29        	lda	$29                     ; 0x2029 <f256main+0x1715>
    43d5: 69 00        	adc	#$0
    43d7: 85 29        	sta	$29                     ; 0x2029 <f256main+0x1715>
    43d9: a5 22        	lda	$22                     ; 0x2022 <f256main+0x170e>
    43db: 18           	clc
    43dc: 69 09        	adc	#$9
    43de: 85 1c        	sta	$1c                     ; 0x201c <f256main+0x1708>
    43e0: a5 23        	lda	$23                     ; 0x2023 <f256main+0x170f>
    43e2: 69 00        	adc	#$0
    43e4: 85 1d        	sta	$1d                     ; 0x201d <f256main+0x1709>
    43e6: a0 09        	ldy	#$9
    43e8: b1 12        	lda	($12),y                 ; 0x2012 <f256main+0x16fe>
    43ea: 85 1e        	sta	$1e                     ; 0x201e <f256main+0x170a>
    43ec: a0 01        	ldy	#$1
    43ee: b1 1c        	lda	($1c),y                 ; 0x201c <f256main+0x1708>
    43f0: 85 1f        	sta	$1f                     ; 0x201f <f256main+0x170b>
    43f2: 18           	clc
    43f3: a5 2b        	lda	$2b                     ; 0x202b <f256main+0x1717>
    43f5: a4 2c        	ldy	$2c                     ; 0x202c <f256main+0x1718>
    43f7: 71 1e        	adc	($1e),y                 ; 0x201e <f256main+0x170a>
    43f9: a8           	tay
    43fa: a5 2a        	lda	$2a                     ; 0x202a <f256main+0x1716>
    43fc: 69 00        	adc	#$0
    43fe: 85 1f        	sta	$1f                     ; 0x201f <f256main+0x170b>
    4400: a5 29        	lda	$29                     ; 0x2029 <f256main+0x1715>
    4402: 69 00        	adc	#$0
    4404: a6 1f        	ldx	$1f                     ; 0x201f <f256main+0x170b>
    4406: 86 1e        	stx	$1e                     ; 0x201e <f256main+0x170a>
    4408: 06 1e        	asl	$1e                     ; 0x201e <f256main+0x170a>
    440a: 2a           	rol
    440b: 06 1e        	asl	$1e                     ; 0x201e <f256main+0x170a>
    440d: 2a           	rol
    440e: 06 1e        	asl	$1e                     ; 0x201e <f256main+0x170a>
    4410: 2a           	rol
    4411: a6 0f        	ldx	$f                      ; 0x200f <f256main+0x16fb>
    4413: 78           	sei
    4414: 85 0f        	sta	$f                      ; 0x200f <f256main+0x16fb>
    4416: 84 1e        	sty	$1e                     ; 0x201e <f256main+0x170a>
    4418: a5 1f        	lda	$1f                     ; 0x201f <f256main+0x170b>
    441a: 09 e0        	ora	#$e0
    441c: 85 1f        	sta	$1f                     ; 0x201f <f256main+0x170b>
    441e: b2 1e        	lda	($1e)                   ; 0x201e <f256main+0x170a>
    4420: 86 0f        	stx	$f                      ; 0x200f <f256main+0x16fb>
    4422: 58           	cli
    4423: 92 14        	sta	($14)                   ; 0x2014 <f256main+0x1700>
    4425: 18           	clc
    4426: a5 2b        	lda	$2b                     ; 0x202b <f256main+0x1717>
    4428: 65 1b        	adc	$1b                     ; 0x201b <f256main+0x1707>
    442a: aa           	tax
    442b: a5 2a        	lda	$2a                     ; 0x202a <f256main+0x1716>
    442d: 69 00        	adc	#$0
    442f: 85 1b        	sta	$1b                     ; 0x201b <f256main+0x1707>
    4431: a5 29        	lda	$29                     ; 0x2029 <f256main+0x1715>
    4433: 69 00        	adc	#$0
    4435: 85 1e        	sta	$1e                     ; 0x201e <f256main+0x170a>
    4437: a0 09        	ldy	#$9
    4439: b1 12        	lda	($12),y                 ; 0x2012 <f256main+0x16fe>
    443b: 85 1f        	sta	$1f                     ; 0x201f <f256main+0x170b>
    443d: a0 01        	ldy	#$1
    443f: b1 1c        	lda	($1c),y                 ; 0x201c <f256main+0x1708>
    4441: a4 1f        	ldy	$1f                     ; 0x201f <f256main+0x170b>
    4443: 84 1c        	sty	$1c                     ; 0x201c <f256main+0x1708>
    4445: 85 1d        	sta	$1d                     ; 0x201d <f256main+0x1709>
    4447: 18           	clc
    4448: a4 2c        	ldy	$2c                     ; 0x202c <f256main+0x1718>
    444a: 8a           	txa
    444b: 71 1c        	adc	($1c),y                 ; 0x201c <f256main+0x1708>
    444d: 85 1c        	sta	$1c                     ; 0x201c <f256main+0x1708>
    444f: a5 1b        	lda	$1b                     ; 0x201b <f256main+0x1707>
    4451: 69 00        	adc	#$0
    4453: a8           	tay
    4454: a5 1e        	lda	$1e                     ; 0x201e <f256main+0x170a>
    4456: 69 00        	adc	#$0
    4458: 85 1b        	sta	$1b                     ; 0x201b <f256main+0x1707>
    445a: 98           	tya
    445b: 0a           	asl
    445c: 26 1b        	rol	$1b                     ; 0x201b <f256main+0x1707>
    445e: 0a           	asl
    445f: 26 1b        	rol	$1b                     ; 0x201b <f256main+0x1707>
    4461: 0a           	asl
    4462: a5 1b        	lda	$1b                     ; 0x201b <f256main+0x1707>
    4464: 2a           	rol
    4465: a6 0f        	ldx	$f                      ; 0x200f <f256main+0x16fb>
    4467: 78           	sei
    4468: 85 0f        	sta	$f                      ; 0x200f <f256main+0x16fb>
    446a: 98           	tya
    446b: 09 e0        	ora	#$e0
    446d: 85 1d        	sta	$1d                     ; 0x201d <f256main+0x1709>
    446f: b2 1c        	lda	($1c)                   ; 0x201c <f256main+0x1708>
    4471: 86 0f        	stx	$f                      ; 0x200f <f256main+0x16fb>
    4473: 58           	cli
    4474: 92 16        	sta	($16)                   ; 0x2016 <f256main+0x1702>
    4476: 4c da 42     	jmp	$42da <getBeatTrackNoteInfo+0xbf>
    4479: a0 00        	ldy	#$0
    447b: b1 10        	lda	($10),y                 ; 0x2010 <f256main+0x16fc>
    447d: 85 2c        	sta	$2c                     ; 0x202c <f256main+0x1718>
    447f: c8           	iny
    4480: b1 10        	lda	($10),y                 ; 0x2010 <f256main+0x16fc>
    4482: 85 2b        	sta	$2b                     ; 0x202b <f256main+0x1717>
    4484: c8           	iny
    4485: b1 10        	lda	($10),y                 ; 0x2010 <f256main+0x16fc>
    4487: 85 2a        	sta	$2a                     ; 0x202a <f256main+0x1716>
    4489: c8           	iny
    448a: b1 10        	lda	($10),y                 ; 0x2010 <f256main+0x16fc>
    448c: 85 29        	sta	$29                     ; 0x2029 <f256main+0x1715>
    448e: c8           	iny
    448f: b1 10        	lda	($10),y                 ; 0x2010 <f256main+0x16fc>
    4491: 85 28        	sta	$28                     ; 0x2028 <f256main+0x1714>
    4493: fa           	plx
    4494: 86 27        	stx	$27                     ; 0x2027 <f256main+0x1713>
    4496: fa           	plx
    4497: 86 26        	stx	$26                     ; 0x2026 <f256main+0x1712>
    4499: fa           	plx
    449a: 86 25        	stx	$25                     ; 0x2025 <f256main+0x1711>
    449c: fa           	plx
    449d: 86 24        	stx	$24                     ; 0x2024 <f256main+0x1710>
    449f: 18           	clc
    44a0: a5 10        	lda	$10                     ; 0x2010 <f256main+0x16fc>
    44a2: 69 05        	adc	#$5
    44a4: 85 10        	sta	$10                     ; 0x2010 <f256main+0x16fc>
    44a6: a5 11        	lda	$11                     ; 0x2011 <f256main+0x16fd>
    44a8: 69 00        	adc	#$0
    44aa: 85 11        	sta	$11                     ; 0x2011 <f256main+0x16fd>
    44ac: 60           	rts

000044ad <setupMem4Track>:
    44ad: 85 1d        	sta	$1d                     ; 0x201d <f256main+0x1709>
    44af: 86 1c        	stx	$1c                     ; 0x201c <f256main+0x1708>
    44b1: a0 01        	ldy	#$1
    44b3: b1 14        	lda	($14),y                 ; 0x2014 <f256main+0x1700>
    44b5: 85 1a        	sta	$1a                     ; 0x201a <f256main+0x1706>
    44b7: 85 1b        	sta	$1b                     ; 0x201b <f256main+0x1707>
    44b9: c8           	iny
    44ba: b1 14        	lda	($14),y                 ; 0x2014 <f256main+0x1700>
    44bc: 06 1a        	asl	$1a                     ; 0x201a <f256main+0x1706>
    44be: 2a           	rol
    44bf: 06 1a        	asl	$1a                     ; 0x201a <f256main+0x1706>
    44c1: 2a           	rol
    44c2: 06 1a        	asl	$1a                     ; 0x201a <f256main+0x1706>
    44c4: 2a           	rol
    44c5: a8           	tay
    44c6: b2 14        	lda	($14)                   ; 0x2014 <f256main+0x1700>
    44c8: a6 0f        	ldx	$f                      ; 0x200f <f256main+0x16fb>
    44ca: 78           	sei
    44cb: 84 0f        	sty	$f                      ; 0x200f <f256main+0x16fb>
    44cd: 85 1a        	sta	$1a                     ; 0x201a <f256main+0x1706>
    44cf: a5 1b        	lda	$1b                     ; 0x201b <f256main+0x1707>
    44d1: 09 e0        	ora	#$e0
    44d3: 85 1b        	sta	$1b                     ; 0x201b <f256main+0x1707>
    44d5: a5 1d        	lda	$1d                     ; 0x201d <f256main+0x1709>
    44d7: 92 1a        	sta	($1a)                   ; 0x201a <f256main+0x1706>
    44d9: 86 0f        	stx	$f                      ; 0x200f <f256main+0x16fb>
    44db: 58           	cli
    44dc: b2 14        	lda	($14)                   ; 0x2014 <f256main+0x1700>
    44de: 85 1a        	sta	$1a                     ; 0x201a <f256main+0x1706>
    44e0: a0 01        	ldy	#$1
    44e2: b1 14        	lda	($14),y                 ; 0x2014 <f256main+0x1700>
    44e4: 85 1d        	sta	$1d                     ; 0x201d <f256main+0x1709>
    44e6: c8           	iny
    44e7: b1 14        	lda	($14),y                 ; 0x2014 <f256main+0x1700>
    44e9: aa           	tax
    44ea: c8           	iny
    44eb: b1 14        	lda	($14),y                 ; 0x2014 <f256main+0x1700>
    44ed: e6 1a        	inc	$1a                     ; 0x201a <f256main+0x1706>
    44ef: d0 08        	bne	$44f9 <setupMem4Track+0x4c>
    44f1: e6 1d        	inc	$1d                     ; 0x201d <f256main+0x1709>
    44f3: d0 04        	bne	$44f9 <setupMem4Track+0x4c>
    44f5: e8           	inx
    44f6: d0 01        	bne	$44f9 <setupMem4Track+0x4c>
    44f8: 1a           	inc
    44f9: 91 14        	sta	($14),y                 ; 0x2014 <f256main+0x1700>
    44fb: 8a           	txa
    44fc: a0 02        	ldy	#$2
    44fe: 91 14        	sta	($14),y                 ; 0x2014 <f256main+0x1700>
    4500: a5 1d        	lda	$1d                     ; 0x201d <f256main+0x1709>
    4502: 0a           	asl
    4503: 86 1b        	stx	$1b                     ; 0x201b <f256main+0x1707>
    4505: 26 1b        	rol	$1b                     ; 0x201b <f256main+0x1707>
    4507: 0a           	asl
    4508: 26 1b        	rol	$1b                     ; 0x201b <f256main+0x1707>
    450a: 0a           	asl
    450b: 26 1b        	rol	$1b                     ; 0x201b <f256main+0x1707>
    450d: a5 1a        	lda	$1a                     ; 0x201a <f256main+0x1706>
    450f: 92 14        	sta	($14)                   ; 0x2014 <f256main+0x1700>
    4511: a5 1d        	lda	$1d                     ; 0x201d <f256main+0x1709>
    4513: 88           	dey
    4514: 91 14        	sta	($14),y                 ; 0x2014 <f256main+0x1700>
    4516: a6 0f        	ldx	$f                      ; 0x200f <f256main+0x16fb>
    4518: 78           	sei
    4519: a4 1b        	ldy	$1b                     ; 0x201b <f256main+0x1707>
    451b: 84 0f        	sty	$f                      ; 0x200f <f256main+0x16fb>
    451d: 09 e0        	ora	#$e0
    451f: 85 1b        	sta	$1b                     ; 0x201b <f256main+0x1707>
    4521: a5 1c        	lda	$1c                     ; 0x201c <f256main+0x1708>
    4523: 92 1a        	sta	($1a)                   ; 0x201a <f256main+0x1706>
    4525: 86 0f        	stx	$f                      ; 0x200f <f256main+0x16fb>
    4527: 58           	cli
    4528: b2 14        	lda	($14)                   ; 0x2014 <f256main+0x1700>
    452a: 85 1a        	sta	$1a                     ; 0x201a <f256main+0x1706>
    452c: a0 01        	ldy	#$1
    452e: b1 14        	lda	($14),y                 ; 0x2014 <f256main+0x1700>
    4530: 85 1c        	sta	$1c                     ; 0x201c <f256main+0x1708>
    4532: c8           	iny
    4533: b1 14        	lda	($14),y                 ; 0x2014 <f256main+0x1700>
    4535: aa           	tax
    4536: c8           	iny
    4537: b1 14        	lda	($14),y                 ; 0x2014 <f256main+0x1700>
    4539: e6 1a        	inc	$1a                     ; 0x201a <f256main+0x1706>
    453b: d0 08        	bne	$4545 <setupMem4Track+0x98>
    453d: e6 1c        	inc	$1c                     ; 0x201c <f256main+0x1708>
    453f: d0 04        	bne	$4545 <setupMem4Track+0x98>
    4541: e8           	inx
    4542: d0 01        	bne	$4545 <setupMem4Track+0x98>
    4544: 1a           	inc
    4545: 91 14        	sta	($14),y                 ; 0x2014 <f256main+0x1700>
    4547: 8a           	txa
    4548: a0 02        	ldy	#$2
    454a: 91 14        	sta	($14),y                 ; 0x2014 <f256main+0x1700>
    454c: a5 1c        	lda	$1c                     ; 0x201c <f256main+0x1708>
    454e: 0a           	asl
    454f: 86 1b        	stx	$1b                     ; 0x201b <f256main+0x1707>
    4551: 26 1b        	rol	$1b                     ; 0x201b <f256main+0x1707>
    4553: 0a           	asl
    4554: 26 1b        	rol	$1b                     ; 0x201b <f256main+0x1707>
    4556: 0a           	asl
    4557: 26 1b        	rol	$1b                     ; 0x201b <f256main+0x1707>
    4559: a5 1a        	lda	$1a                     ; 0x201a <f256main+0x1706>
    455b: 92 14        	sta	($14)                   ; 0x2014 <f256main+0x1700>
    455d: a5 1c        	lda	$1c                     ; 0x201c <f256main+0x1708>
    455f: 88           	dey
    4560: 91 14        	sta	($14),y                 ; 0x2014 <f256main+0x1700>
    4562: a6 0f        	ldx	$f                      ; 0x200f <f256main+0x16fb>
    4564: 78           	sei
    4565: a4 1b        	ldy	$1b                     ; 0x201b <f256main+0x1707>
    4567: 84 0f        	sty	$f                      ; 0x200f <f256main+0x16fb>
    4569: 09 e0        	ora	#$e0
    456b: 85 1b        	sta	$1b                     ; 0x201b <f256main+0x1707>
    456d: a5 12        	lda	$12                     ; 0x2012 <f256main+0x16fe>
    456f: 92 1a        	sta	($1a)                   ; 0x201a <f256main+0x1706>
    4571: 86 0f        	stx	$f                      ; 0x200f <f256main+0x16fb>
    4573: 58           	cli
    4574: b2 14        	lda	($14)                   ; 0x2014 <f256main+0x1700>
    4576: 85 1c        	sta	$1c                     ; 0x201c <f256main+0x1708>
    4578: a0 01        	ldy	#$1
    457a: b1 14        	lda	($14),y                 ; 0x2014 <f256main+0x1700>
    457c: 85 1a        	sta	$1a                     ; 0x201a <f256main+0x1706>
    457e: c8           	iny
    457f: b1 14        	lda	($14),y                 ; 0x2014 <f256main+0x1700>
    4581: aa           	tax
    4582: c8           	iny
    4583: b1 14        	lda	($14),y                 ; 0x2014 <f256main+0x1700>
    4585: e6 1c        	inc	$1c                     ; 0x201c <f256main+0x1708>
    4587: d0 08        	bne	$4591 <setupMem4Track+0xe4>
    4589: e6 1a        	inc	$1a                     ; 0x201a <f256main+0x1706>
    458b: d0 04        	bne	$4591 <setupMem4Track+0xe4>
    458d: e8           	inx
    458e: d0 01        	bne	$4591 <setupMem4Track+0xe4>
    4590: 1a           	inc
    4591: 91 14        	sta	($14),y                 ; 0x2014 <f256main+0x1700>
    4593: 8a           	txa
    4594: a0 02        	ldy	#$2
    4596: 91 14        	sta	($14),y                 ; 0x2014 <f256main+0x1700>
    4598: a5 1a        	lda	$1a                     ; 0x201a <f256main+0x1706>
    459a: 0a           	asl
    459b: 86 12        	stx	$12                     ; 0x2012 <f256main+0x16fe>
    459d: 26 12        	rol	$12                     ; 0x2012 <f256main+0x16fe>
    459f: 0a           	asl
    45a0: 26 12        	rol	$12                     ; 0x2012 <f256main+0x16fe>
    45a2: 0a           	asl
    45a3: 26 12        	rol	$12                     ; 0x2012 <f256main+0x16fe>
    45a5: a5 1c        	lda	$1c                     ; 0x201c <f256main+0x1708>
    45a7: 92 14        	sta	($14)                   ; 0x2014 <f256main+0x1700>
    45a9: 88           	dey
    45aa: a5 1a        	lda	$1a                     ; 0x201a <f256main+0x1706>
    45ac: 91 14        	sta	($14),y                 ; 0x2014 <f256main+0x1700>
    45ae: a6 0f        	ldx	$f                      ; 0x200f <f256main+0x16fb>
    45b0: 78           	sei
    45b1: a4 12        	ldy	$12                     ; 0x2012 <f256main+0x16fe>
    45b3: 84 0f        	sty	$f                      ; 0x200f <f256main+0x16fb>
    45b5: 09 e0        	ora	#$e0
    45b7: 85 1d        	sta	$1d                     ; 0x201d <f256main+0x1709>
    45b9: a5 13        	lda	$13                     ; 0x2013 <f256main+0x16ff>
    45bb: 85 1a        	sta	$1a                     ; 0x201a <f256main+0x1706>
    45bd: 92 1c        	sta	($1c)                   ; 0x201c <f256main+0x1708>
    45bf: 86 0f        	stx	$f                      ; 0x200f <f256main+0x16fb>
    45c1: 58           	cli
    45c2: b2 14        	lda	($14)                   ; 0x2014 <f256main+0x1700>
    45c4: 85 1b        	sta	$1b                     ; 0x201b <f256main+0x1707>
    45c6: a0 01        	ldy	#$1
    45c8: b1 14        	lda	($14),y                 ; 0x2014 <f256main+0x1700>
    45ca: 85 12        	sta	$12                     ; 0x2012 <f256main+0x16fe>
    45cc: c8           	iny
    45cd: b1 14        	lda	($14),y                 ; 0x2014 <f256main+0x1700>
    45cf: 85 13        	sta	$13                     ; 0x2013 <f256main+0x16ff>
    45d1: c8           	iny
    45d2: b1 14        	lda	($14),y                 ; 0x2014 <f256main+0x1700>
    45d4: aa           	tax
    45d5: a5 1b        	lda	$1b                     ; 0x201b <f256main+0x1707>
    45d7: 1a           	inc
    45d8: d0 09        	bne	$45e3 <setupMem4Track+0x136>
    45da: e6 12        	inc	$12                     ; 0x2012 <f256main+0x16fe>
    45dc: d0 05        	bne	$45e3 <setupMem4Track+0x136>
    45de: e6 13        	inc	$13                     ; 0x2013 <f256main+0x16ff>
    45e0: d0 01        	bne	$45e3 <setupMem4Track+0x136>
    45e2: e8           	inx
    45e3: 92 14        	sta	($14)                   ; 0x2014 <f256main+0x1700>
    45e5: a5 12        	lda	$12                     ; 0x2012 <f256main+0x16fe>
    45e7: a0 01        	ldy	#$1
    45e9: 91 14        	sta	($14),y                 ; 0x2014 <f256main+0x1700>
    45eb: c8           	iny
    45ec: a5 13        	lda	$13                     ; 0x2013 <f256main+0x16ff>
    45ee: 91 14        	sta	($14),y                 ; 0x2014 <f256main+0x1700>
    45f0: 8a           	txa
    45f1: c8           	iny
    45f2: 91 14        	sta	($14),y                 ; 0x2014 <f256main+0x1700>
    45f4: a0 00        	ldy	#$0
    45f6: 80 47        	bra	$463f <setupMem4Track+0x192>
    45f8: e6 1c        	inc	$1c                     ; 0x201c <f256main+0x1708>
    45fa: 92 14        	sta	($14)                   ; 0x2014 <f256main+0x1700>
    45fc: a0 01        	ldy	#$1
    45fe: a5 1d        	lda	$1d                     ; 0x201d <f256main+0x1709>
    4600: 91 14        	sta	($14),y                 ; 0x2014 <f256main+0x1700>
    4602: c8           	iny
    4603: a5 1e        	lda	$1e                     ; 0x201e <f256main+0x170a>
    4605: 91 14        	sta	($14),y                 ; 0x2014 <f256main+0x1700>
    4607: c8           	iny
    4608: a5 1c        	lda	$1c                     ; 0x201c <f256main+0x1708>
    460a: 91 14        	sta	($14),y                 ; 0x2014 <f256main+0x1700>
    460c: a4 12        	ldy	$12                     ; 0x2012 <f256main+0x16fe>
    460e: b1 16        	lda	($16),y                 ; 0x2016 <f256main+0x1702>
    4610: 85 1c        	sta	$1c                     ; 0x201c <f256main+0x1708>
    4612: a5 1b        	lda	$1b                     ; 0x201b <f256main+0x1707>
    4614: 85 12        	sta	$12                     ; 0x2012 <f256main+0x16fe>
    4616: 06 12        	asl	$12                     ; 0x2012 <f256main+0x16fe>
    4618: 8a           	txa
    4619: 2a           	rol
    461a: 06 12        	asl	$12                     ; 0x2012 <f256main+0x16fe>
    461c: 2a           	rol
    461d: 06 12        	asl	$12                     ; 0x2012 <f256main+0x16fe>
    461f: 2a           	rol
    4620: a6 0f        	ldx	$f                      ; 0x200f <f256main+0x16fb>
    4622: 78           	sei
    4623: 85 0f        	sta	$f                      ; 0x200f <f256main+0x16fb>
    4625: a5 13        	lda	$13                     ; 0x2013 <f256main+0x16ff>
    4627: 85 12        	sta	$12                     ; 0x2012 <f256main+0x16fe>
    4629: a5 1b        	lda	$1b                     ; 0x201b <f256main+0x1707>
    462b: 09 e0        	ora	#$e0
    462d: 85 13        	sta	$13                     ; 0x2013 <f256main+0x16ff>
    462f: a5 1c        	lda	$1c                     ; 0x201c <f256main+0x1708>
    4631: 92 12        	sta	($12)                   ; 0x2012 <f256main+0x16fe>
    4633: 86 0f        	stx	$f                      ; 0x200f <f256main+0x16fb>
    4635: 58           	cli
    4636: c8           	iny
    4637: 84 12        	sty	$12                     ; 0x2012 <f256main+0x16fe>
    4639: a6 1a        	ldx	$1a                     ; 0x201a <f256main+0x1706>
    463b: e4 12        	cpx	$12                     ; 0x2012 <f256main+0x16fe>
    463d: f0 34        	beq	$4673 <setupMem4Track+0x1c6>
    463f: b2 14        	lda	($14)                   ; 0x2014 <f256main+0x1700>
    4641: 85 13        	sta	$13                     ; 0x2013 <f256main+0x16ff>
    4643: 84 12        	sty	$12                     ; 0x2012 <f256main+0x16fe>
    4645: a0 01        	ldy	#$1
    4647: b1 14        	lda	($14),y                 ; 0x2014 <f256main+0x1700>
    4649: 85 1b        	sta	$1b                     ; 0x201b <f256main+0x1707>
    464b: c8           	iny
    464c: b1 14        	lda	($14),y                 ; 0x2014 <f256main+0x1700>
    464e: aa           	tax
    464f: c8           	iny
    4650: b1 14        	lda	($14),y                 ; 0x2014 <f256main+0x1700>
    4652: 85 1c        	sta	$1c                     ; 0x201c <f256main+0x1708>
    4654: a5 13        	lda	$13                     ; 0x2013 <f256main+0x16ff>
    4656: a4 1b        	ldy	$1b                     ; 0x201b <f256main+0x1707>
    4658: 84 1d        	sty	$1d                     ; 0x201d <f256main+0x1709>
    465a: 86 1e        	stx	$1e                     ; 0x201e <f256main+0x170a>
    465c: 1a           	inc
    465d: f0 03        	beq	$4662 <setupMem4Track+0x1b5>
    465f: 4c fa 45     	jmp	$45fa <setupMem4Track+0x14d>
    4662: e6 1d        	inc	$1d                     ; 0x201d <f256main+0x1709>
    4664: f0 03        	beq	$4669 <setupMem4Track+0x1bc>
    4666: 4c fa 45     	jmp	$45fa <setupMem4Track+0x14d>
    4669: e6 1e        	inc	$1e                     ; 0x201e <f256main+0x170a>
    466b: d0 03        	bne	$4670 <setupMem4Track+0x1c3>
    466d: 4c f8 45     	jmp	$45f8 <setupMem4Track+0x14b>
    4670: 4c fa 45     	jmp	$45fa <setupMem4Track+0x14d>
    4673: a0 00        	ldy	#$0
    4675: 80 47        	bra	$46be <setupMem4Track+0x211>
    4677: e6 1b        	inc	$1b                     ; 0x201b <f256main+0x1707>
    4679: 92 14        	sta	($14)                   ; 0x2014 <f256main+0x1700>
    467b: a0 01        	ldy	#$1
    467d: a5 1c        	lda	$1c                     ; 0x201c <f256main+0x1708>
    467f: 91 14        	sta	($14),y                 ; 0x2014 <f256main+0x1700>
    4681: c8           	iny
    4682: a5 17        	lda	$17                     ; 0x2017 <f256main+0x1703>
    4684: 91 14        	sta	($14),y                 ; 0x2014 <f256main+0x1700>
    4686: c8           	iny
    4687: a5 1b        	lda	$1b                     ; 0x201b <f256main+0x1707>
    4689: 91 14        	sta	($14),y                 ; 0x2014 <f256main+0x1700>
    468b: a4 12        	ldy	$12                     ; 0x2012 <f256main+0x16fe>
    468d: b1 18        	lda	($18),y                 ; 0x2018 <f256main+0x1704>
    468f: 85 17        	sta	$17                     ; 0x2017 <f256main+0x1703>
    4691: a5 16        	lda	$16                     ; 0x2016 <f256main+0x1702>
    4693: 85 12        	sta	$12                     ; 0x2012 <f256main+0x16fe>
    4695: 06 12        	asl	$12                     ; 0x2012 <f256main+0x16fe>
    4697: 8a           	txa
    4698: 2a           	rol
    4699: 06 12        	asl	$12                     ; 0x2012 <f256main+0x16fe>
    469b: 2a           	rol
    469c: 06 12        	asl	$12                     ; 0x2012 <f256main+0x16fe>
    469e: 2a           	rol
    469f: a6 0f        	ldx	$f                      ; 0x200f <f256main+0x16fb>
    46a1: 78           	sei
    46a2: 85 0f        	sta	$f                      ; 0x200f <f256main+0x16fb>
    46a4: a5 13        	lda	$13                     ; 0x2013 <f256main+0x16ff>
    46a6: 85 12        	sta	$12                     ; 0x2012 <f256main+0x16fe>
    46a8: a5 16        	lda	$16                     ; 0x2016 <f256main+0x1702>
    46aa: 09 e0        	ora	#$e0
    46ac: 85 13        	sta	$13                     ; 0x2013 <f256main+0x16ff>
    46ae: a5 17        	lda	$17                     ; 0x2017 <f256main+0x1703>
    46b0: 92 12        	sta	($12)                   ; 0x2012 <f256main+0x16fe>
    46b2: 86 0f        	stx	$f                      ; 0x200f <f256main+0x16fb>
    46b4: 58           	cli
    46b5: c8           	iny
    46b6: 84 12        	sty	$12                     ; 0x2012 <f256main+0x16fe>
    46b8: a6 1a        	ldx	$1a                     ; 0x201a <f256main+0x1706>
    46ba: e4 12        	cpx	$12                     ; 0x2012 <f256main+0x16fe>
    46bc: f0 34        	beq	$46f2 <setupMem4Track+0x245>
    46be: b2 14        	lda	($14)                   ; 0x2014 <f256main+0x1700>
    46c0: 85 13        	sta	$13                     ; 0x2013 <f256main+0x16ff>
    46c2: 84 12        	sty	$12                     ; 0x2012 <f256main+0x16fe>
    46c4: a0 01        	ldy	#$1
    46c6: b1 14        	lda	($14),y                 ; 0x2014 <f256main+0x1700>
    46c8: 85 16        	sta	$16                     ; 0x2016 <f256main+0x1702>
    46ca: c8           	iny
    46cb: b1 14        	lda	($14),y                 ; 0x2014 <f256main+0x1700>
    46cd: aa           	tax
    46ce: c8           	iny
    46cf: b1 14        	lda	($14),y                 ; 0x2014 <f256main+0x1700>
    46d1: 85 1b        	sta	$1b                     ; 0x201b <f256main+0x1707>
    46d3: 86 17        	stx	$17                     ; 0x2017 <f256main+0x1703>
    46d5: a5 13        	lda	$13                     ; 0x2013 <f256main+0x16ff>
    46d7: a4 16        	ldy	$16                     ; 0x2016 <f256main+0x1702>
    46d9: 84 1c        	sty	$1c                     ; 0x201c <f256main+0x1708>
    46db: 1a           	inc
    46dc: f0 03        	beq	$46e1 <setupMem4Track+0x234>
    46de: 4c 79 46     	jmp	$4679 <setupMem4Track+0x1cc>
    46e1: e6 1c        	inc	$1c                     ; 0x201c <f256main+0x1708>
    46e3: f0 03        	beq	$46e8 <setupMem4Track+0x23b>
    46e5: 4c 79 46     	jmp	$4679 <setupMem4Track+0x1cc>
    46e8: e6 17        	inc	$17                     ; 0x2017 <f256main+0x1703>
    46ea: d0 03        	bne	$46ef <setupMem4Track+0x242>
    46ec: 4c 77 46     	jmp	$4677 <setupMem4Track+0x1ca>
    46ef: 4c 79 46     	jmp	$4679 <setupMem4Track+0x1cc>
    46f2: 60           	rts

000046f3 <refreshInstrumentText>:
    46f3: 18           	clc
    46f4: a5 10        	lda	$10                     ; 0x2010 <f256main+0x16fc>
    46f6: 69 fc        	adc	#$fc
    46f8: 85 10        	sta	$10                     ; 0x2010 <f256main+0x16fc>
    46fa: a5 11        	lda	$11                     ; 0x2011 <f256main+0x16fd>
    46fc: 69 ff        	adc	#$ff
    46fe: 85 11        	sta	$11                     ; 0x2011 <f256main+0x16fd>
    4700: a6 12        	ldx	$12                     ; 0x2012 <f256main+0x16fe>
    4702: 86 94        	stx	$94                     ; 0x2094 <f256main+0x1780>
    4704: a6 13        	ldx	$13                     ; 0x2013 <f256main+0x16ff>
    4706: 86 95        	stx	$95                     ; 0x2095 <f256main+0x1781>
    4708: a2 05        	ldx	#$5
    470a: 86 33        	stx	$33                     ; 0x2033 <f256main+0x171f>
    470c: 8e 14 d0     	stx	$d014                   ; 0xd014 <__heap_start+0x4358>
    470f: 9c 15 d0     	stz	$d015                   ; 0xd015 <__heap_start+0x4359>
    4712: a2 1e        	ldx	#$1e
    4714: 86 34        	stx	$34                     ; 0x2034 <f256main+0x1720>
    4716: 8e 16 d0     	stx	$d016                   ; 0xd016 <__heap_start+0x435a>
    4719: 9c 17 d0     	stz	$d017                   ; 0xd017 <__heap_start+0x435b>
    471c: a2 62        	ldx	#$62
    471e: 86 12        	stx	$12                     ; 0x2012 <f256main+0x16fe>
    4720: a2 7b        	ldx	#$7b
    4722: 86 13        	stx	$13                     ; 0x2013 <f256main+0x16ff>
    4724: 20 c7 2e     	jsr	$2ec7 <textPrint>
    4727: a2 05        	ldx	#$5
    4729: 86 33        	stx	$33                     ; 0x2033 <f256main+0x171f>
    472b: 8e 14 d0     	stx	$d014                   ; 0xd014 <__heap_start+0x4358>
    472e: 9c 15 d0     	stz	$d015                   ; 0xd015 <__heap_start+0x4359>
    4731: a2 1f        	ldx	#$1f
    4733: 86 34        	stx	$34                     ; 0x2034 <f256main+0x1720>
    4735: 8e 16 d0     	stx	$d016                   ; 0xd016 <__heap_start+0x435a>
    4738: 9c 17 d0     	stz	$d017                   ; 0xd017 <__heap_start+0x435b>
    473b: a2 62        	ldx	#$62
    473d: 86 12        	stx	$12                     ; 0x2012 <f256main+0x16fe>
    473f: a2 7b        	ldx	#$7b
    4741: 86 13        	stx	$13                     ; 0x2013 <f256main+0x16ff>
    4743: 20 c7 2e     	jsr	$2ec7 <textPrint>
    4746: a2 05        	ldx	#$5
    4748: 86 33        	stx	$33                     ; 0x2033 <f256main+0x171f>
    474a: 8e 14 d0     	stx	$d014                   ; 0xd014 <__heap_start+0x4358>
    474d: 9c 15 d0     	stz	$d015                   ; 0xd015 <__heap_start+0x4359>
    4750: a2 1e        	ldx	#$1e
    4752: 86 34        	stx	$34                     ; 0x2034 <f256main+0x1720>
    4754: 8e 16 d0     	stx	$d016                   ; 0xd016 <__heap_start+0x435a>
    4757: 9c 17 d0     	stz	$d017                   ; 0xd017 <__heap_start+0x435b>
    475a: a0 03        	ldy	#$3
    475c: b1 94        	lda	($94),y                 ; 0x2094 <f256main+0x1780>
    475e: a2 90        	ldx	#$90
    4760: a8           	tay
    4761: f0 02        	beq	$4765 <refreshInstrumentText+0x72>
    4763: a2 40        	ldx	#$40
    4765: 86 30        	stx	$30                     ; 0x2030 <f256main+0x171c>
    4767: b2 94        	lda	($94)                   ; 0x2094 <f256main+0x1780>
    4769: 85 12        	sta	$12                     ; 0x2012 <f256main+0x16fe>
    476b: a0 01        	ldy	#$1
    476d: b1 94        	lda	($94),y                 ; 0x2094 <f256main+0x1780>
    476f: 85 13        	sta	$13                     ; 0x2013 <f256main+0x16ff>
    4771: b2 12        	lda	($12)                   ; 0x2012 <f256main+0x16fe>
    4773: aa           	tax
    4774: 0a           	asl
    4775: 85 12        	sta	$12                     ; 0x2012 <f256main+0x16fe>
    4777: a9 00        	lda	#$0
    4779: 2a           	rol
    477a: 85 13        	sta	$13                     ; 0x2013 <f256main+0x16ff>
    477c: a9 7d        	lda	#$7d
    477e: 18           	clc
    477f: 65 12        	adc	$12                     ; 0x2012 <f256main+0x16fe>
    4781: 85 12        	sta	$12                     ; 0x2012 <f256main+0x16fe>
    4783: a9 8b        	lda	#$8b
    4785: 65 13        	adc	$13                     ; 0x2013 <f256main+0x16ff>
    4787: 85 13        	sta	$13                     ; 0x2013 <f256main+0x16ff>
    4789: b2 12        	lda	($12)                   ; 0x2012 <f256main+0x16fe>
    478b: 85 14        	sta	$14                     ; 0x2014 <f256main+0x1700>
    478d: b1 12        	lda	($12),y                 ; 0x2012 <f256main+0x16fe>
    478f: 85 15        	sta	$15                     ; 0x2015 <f256main+0x1701>
    4791: 8a           	txa
    4792: 92 10        	sta	($10)                   ; 0x2010 <f256main+0x16fc>
    4794: a9 00        	lda	#$0
    4796: 91 10        	sta	($10),y                 ; 0x2010 <f256main+0x16fc>
    4798: 18           	clc
    4799: a5 10        	lda	$10                     ; 0x2010 <f256main+0x16fc>
    479b: 69 02        	adc	#$2
    479d: 85 12        	sta	$12                     ; 0x2012 <f256main+0x16fe>
    479f: a5 11        	lda	$11                     ; 0x2011 <f256main+0x16fd>
    47a1: 69 00        	adc	#$0
    47a3: 85 13        	sta	$13                     ; 0x2013 <f256main+0x16ff>
    47a5: c8           	iny
    47a6: a5 14        	lda	$14                     ; 0x2014 <f256main+0x1700>
    47a8: 91 10        	sta	($10),y                 ; 0x2010 <f256main+0x16fc>
    47aa: a5 15        	lda	$15                     ; 0x2015 <f256main+0x1701>
    47ac: 88           	dey
    47ad: 91 12        	sta	($12),y                 ; 0x2012 <f256main+0x16fe>
    47af: a2 bd        	ldx	#$bd
    47b1: 86 12        	stx	$12                     ; 0x2012 <f256main+0x16fe>
    47b3: a2 7c        	ldx	#$7c
    47b5: 86 13        	stx	$13                     ; 0x2013 <f256main+0x16ff>
    47b7: 20 27 56     	jsr	$5627 <printf>
    47ba: a2 05        	ldx	#$5
    47bc: 86 33        	stx	$33                     ; 0x2033 <f256main+0x171f>
    47be: 8e 14 d0     	stx	$d014                   ; 0xd014 <__heap_start+0x4358>
    47c1: 9c 15 d0     	stz	$d015                   ; 0xd015 <__heap_start+0x4359>
    47c4: a2 1f        	ldx	#$1f
    47c6: 86 34        	stx	$34                     ; 0x2034 <f256main+0x1720>
    47c8: 8e 16 d0     	stx	$d016                   ; 0xd016 <__heap_start+0x435a>
    47cb: 9c 17 d0     	stz	$d017                   ; 0xd017 <__heap_start+0x435b>
    47ce: a0 03        	ldy	#$3
    47d0: b1 94        	lda	($94),y                 ; 0x2094 <f256main+0x1780>
    47d2: a2 90        	ldx	#$90
    47d4: c9 01        	cmp	#$1
    47d6: f0 02        	beq	$47da <refreshInstrumentText+0xe7>
    47d8: a2 40        	ldx	#$40
    47da: 86 30        	stx	$30                     ; 0x2030 <f256main+0x171c>
    47dc: b2 94        	lda	($94)                   ; 0x2094 <f256main+0x1780>
    47de: 85 12        	sta	$12                     ; 0x2012 <f256main+0x16fe>
    47e0: a0 01        	ldy	#$1
    47e2: b1 94        	lda	($94),y                 ; 0x2094 <f256main+0x1780>
    47e4: 85 13        	sta	$13                     ; 0x2013 <f256main+0x16ff>
    47e6: b1 12        	lda	($12),y                 ; 0x2012 <f256main+0x16fe>
    47e8: aa           	tax
    47e9: 0a           	asl
    47ea: 85 12        	sta	$12                     ; 0x2012 <f256main+0x16fe>
    47ec: a9 00        	lda	#$0
    47ee: 2a           	rol
    47ef: 85 13        	sta	$13                     ; 0x2013 <f256main+0x16ff>
    47f1: a9 7d        	lda	#$7d
    47f3: 18           	clc
    47f4: 65 12        	adc	$12                     ; 0x2012 <f256main+0x16fe>
    47f6: 85 12        	sta	$12                     ; 0x2012 <f256main+0x16fe>
    47f8: a9 8b        	lda	#$8b
    47fa: 65 13        	adc	$13                     ; 0x2013 <f256main+0x16ff>
    47fc: 85 13        	sta	$13                     ; 0x2013 <f256main+0x16ff>
    47fe: b2 12        	lda	($12)                   ; 0x2012 <f256main+0x16fe>
    4800: 85 15        	sta	$15                     ; 0x2015 <f256main+0x1701>
    4802: b1 12        	lda	($12),y                 ; 0x2012 <f256main+0x16fe>
    4804: 85 14        	sta	$14                     ; 0x2014 <f256main+0x1700>
    4806: a5 10        	lda	$10                     ; 0x2010 <f256main+0x16fc>
    4808: a4 11        	ldy	$11                     ; 0x2011 <f256main+0x16fd>
    480a: 18           	clc
    480b: 69 02        	adc	#$2
    480d: 85 12        	sta	$12                     ; 0x2012 <f256main+0x16fe>
    480f: 98           	tya
    4810: 69 00        	adc	#$0
    4812: 85 13        	sta	$13                     ; 0x2013 <f256main+0x16ff>
    4814: a0 02        	ldy	#$2
    4816: a5 15        	lda	$15                     ; 0x2015 <f256main+0x1701>
    4818: 91 10        	sta	($10),y                 ; 0x2010 <f256main+0x16fc>
    481a: 8a           	txa
    481b: 92 10        	sta	($10)                   ; 0x2010 <f256main+0x16fc>
    481d: a9 00        	lda	#$0
    481f: 88           	dey
    4820: 91 10        	sta	($10),y                 ; 0x2010 <f256main+0x16fc>
    4822: a5 14        	lda	$14                     ; 0x2014 <f256main+0x1700>
    4824: 91 12        	sta	($12),y                 ; 0x2012 <f256main+0x16fe>
    4826: a2 bd        	ldx	#$bd
    4828: 86 12        	stx	$12                     ; 0x2012 <f256main+0x16fe>
    482a: a2 7c        	ldx	#$7c
    482c: 86 13        	stx	$13                     ; 0x2013 <f256main+0x16ff>
    482e: 20 27 56     	jsr	$5627 <printf>
    4831: a2 05        	ldx	#$5
    4833: 86 33        	stx	$33                     ; 0x2033 <f256main+0x171f>
    4835: 8e 14 d0     	stx	$d014                   ; 0xd014 <__heap_start+0x4358>
    4838: 9c 15 d0     	stz	$d015                   ; 0xd015 <__heap_start+0x4359>
    483b: a2 20        	ldx	#$20
    483d: 86 34        	stx	$34                     ; 0x2034 <f256main+0x1720>
    483f: 8e 16 d0     	stx	$d016                   ; 0xd016 <__heap_start+0x435a>
    4842: 9c 17 d0     	stz	$d017                   ; 0xd017 <__heap_start+0x435b>
    4845: a0 03        	ldy	#$3
    4847: b1 94        	lda	($94),y                 ; 0x2094 <f256main+0x1780>
    4849: a2 90        	ldx	#$90
    484b: c9 09        	cmp	#$9
    484d: f0 02        	beq	$4851 <refreshInstrumentText+0x15e>
    484f: a2 40        	ldx	#$40
    4851: 86 30        	stx	$30                     ; 0x2030 <f256main+0x171c>
    4853: a2 85        	ldx	#$85
    4855: 86 12        	stx	$12                     ; 0x2012 <f256main+0x16fe>
    4857: a2 83        	ldx	#$83
    4859: 86 13        	stx	$13                     ; 0x2013 <f256main+0x16ff>
    485b: 20 c7 2e     	jsr	$2ec7 <textPrint>
    485e: a0 07        	ldy	#$7
    4860: b1 94        	lda	($94),y                 ; 0x2094 <f256main+0x1780>
    4862: d0 03        	bne	$4867 <refreshInstrumentText+0x174>
    4864: 4c d2 48     	jmp	$48d2 <refreshInstrumentText+0x1df>
    4867: a2 05        	ldx	#$5
    4869: 86 33        	stx	$33                     ; 0x2033 <f256main+0x171f>
    486b: 8e 14 d0     	stx	$d014                   ; 0xd014 <__heap_start+0x4358>
    486e: 9c 15 d0     	stz	$d015                   ; 0xd015 <__heap_start+0x4359>
    4871: a2 1f        	ldx	#$1f
    4873: 86 34        	stx	$34                     ; 0x2034 <f256main+0x1720>
    4875: 8e 16 d0     	stx	$d016                   ; 0xd016 <__heap_start+0x435a>
    4878: 9c 17 d0     	stz	$d017                   ; 0xd017 <__heap_start+0x435b>
    487b: a2 90        	ldx	#$90
    487d: 86 30        	stx	$30                     ; 0x2030 <f256main+0x171c>
    487f: b2 94        	lda	($94)                   ; 0x2094 <f256main+0x1780>
    4881: 85 12        	sta	$12                     ; 0x2012 <f256main+0x16fe>
    4883: a0 01        	ldy	#$1
    4885: b1 94        	lda	($94),y                 ; 0x2094 <f256main+0x1780>
    4887: 85 13        	sta	$13                     ; 0x2013 <f256main+0x16ff>
    4889: b1 12        	lda	($12),y                 ; 0x2012 <f256main+0x16fe>
    488b: aa           	tax
    488c: 0a           	asl
    488d: 85 12        	sta	$12                     ; 0x2012 <f256main+0x16fe>
    488f: a9 00        	lda	#$0
    4891: 2a           	rol
    4892: 85 13        	sta	$13                     ; 0x2013 <f256main+0x16ff>
    4894: a9 7d        	lda	#$7d
    4896: 18           	clc
    4897: 65 12        	adc	$12                     ; 0x2012 <f256main+0x16fe>
    4899: 85 12        	sta	$12                     ; 0x2012 <f256main+0x16fe>
    489b: a9 8b        	lda	#$8b
    489d: 65 13        	adc	$13                     ; 0x2013 <f256main+0x16ff>
    489f: 85 13        	sta	$13                     ; 0x2013 <f256main+0x16ff>
    48a1: b2 12        	lda	($12)                   ; 0x2012 <f256main+0x16fe>
    48a3: 85 15        	sta	$15                     ; 0x2015 <f256main+0x1701>
    48a5: b1 12        	lda	($12),y                 ; 0x2012 <f256main+0x16fe>
    48a7: 85 14        	sta	$14                     ; 0x2014 <f256main+0x1700>
    48a9: a5 10        	lda	$10                     ; 0x2010 <f256main+0x16fc>
    48ab: 18           	clc
    48ac: 69 02        	adc	#$2
    48ae: 85 12        	sta	$12                     ; 0x2012 <f256main+0x16fe>
    48b0: a5 11        	lda	$11                     ; 0x2011 <f256main+0x16fd>
    48b2: 69 00        	adc	#$0
    48b4: 85 13        	sta	$13                     ; 0x2013 <f256main+0x16ff>
    48b6: c8           	iny
    48b7: a5 15        	lda	$15                     ; 0x2015 <f256main+0x1701>
    48b9: 91 10        	sta	($10),y                 ; 0x2010 <f256main+0x16fc>
    48bb: 8a           	txa
    48bc: 92 10        	sta	($10)                   ; 0x2010 <f256main+0x16fc>
    48be: a9 00        	lda	#$0
    48c0: 88           	dey
    48c1: 91 10        	sta	($10),y                 ; 0x2010 <f256main+0x16fc>
    48c3: a5 14        	lda	$14                     ; 0x2014 <f256main+0x1700>
    48c5: 91 12        	sta	($12),y                 ; 0x2012 <f256main+0x16fe>
    48c7: a2 bd        	ldx	#$bd
    48c9: 86 12        	stx	$12                     ; 0x2012 <f256main+0x16fe>
    48cb: a2 7c        	ldx	#$7c
    48cd: 86 13        	stx	$13                     ; 0x2013 <f256main+0x16ff>
    48cf: 20 27 56     	jsr	$5627 <printf>
    48d2: a2 90        	ldx	#$90
    48d4: 86 30        	stx	$30                     ; 0x2030 <f256main+0x171c>
    48d6: a0 03        	ldy	#$3
    48d8: b1 94        	lda	($94),y                 ; 0x2094 <f256main+0x1780>
    48da: c9 09        	cmp	#$9
    48dc: d0 03        	bne	$48e1 <refreshInstrumentText+0x1ee>
    48de: 4c 80 49     	jmp	$4980 <refreshInstrumentText+0x28d>
    48e1: c9 01        	cmp	#$1
    48e3: f0 41        	beq	$4926 <refreshInstrumentText+0x233>
    48e5: aa           	tax
    48e6: f0 03        	beq	$48eb <refreshInstrumentText+0x1f8>
    48e8: 4c db 49     	jmp	$49db <refreshInstrumentText+0x2e8>
    48eb: 64 33        	stz	$33                     ; 0x2033 <f256main+0x171f>
    48ed: 9c 14 d0     	stz	$d014                   ; 0xd014 <__heap_start+0x4358>
    48f0: 9c 15 d0     	stz	$d015                   ; 0xd015 <__heap_start+0x4359>
    48f3: a2 1e        	ldx	#$1e
    48f5: 86 34        	stx	$34                     ; 0x2034 <f256main+0x1720>
    48f7: 8e 16 d0     	stx	$d016                   ; 0xd016 <__heap_start+0x435a>
    48fa: 9c 17 d0     	stz	$d017                   ; 0xd017 <__heap_start+0x435b>
    48fd: a2 fa        	ldx	#$fa
    48ff: 86 35        	stx	$35                     ; 0x2035 <f256main+0x1721>
    4901: a2 35        	ldx	#$35
    4903: 86 12        	stx	$12                     ; 0x2012 <f256main+0x16fe>
    4905: a2 00        	ldx	#$0
    4907: 86 13        	stx	$13                     ; 0x2013 <f256main+0x16ff>
    4909: 20 c7 2e     	jsr	$2ec7 <textPrint>
    490c: 64 33        	stz	$33                     ; 0x2033 <f256main+0x171f>
    490e: 9c 14 d0     	stz	$d014                   ; 0xd014 <__heap_start+0x4358>
    4911: 9c 15 d0     	stz	$d015                   ; 0xd015 <__heap_start+0x4359>
    4914: a2 1f        	ldx	#$1f
    4916: 86 34        	stx	$34                     ; 0x2034 <f256main+0x1720>
    4918: 8e 16 d0     	stx	$d016                   ; 0xd016 <__heap_start+0x435a>
    491b: 9c 17 d0     	stz	$d017                   ; 0xd017 <__heap_start+0x435b>
    491e: a2 e6        	ldx	#$e6
    4920: 86 12        	stx	$12                     ; 0x2012 <f256main+0x16fe>
    4922: a2 7b        	ldx	#$7b
    4924: 80 39        	bra	$495f <refreshInstrumentText+0x26c>
    4926: 64 33        	stz	$33                     ; 0x2033 <f256main+0x171f>
    4928: 9c 14 d0     	stz	$d014                   ; 0xd014 <__heap_start+0x4358>
    492b: 9c 15 d0     	stz	$d015                   ; 0xd015 <__heap_start+0x4359>
    492e: a2 1e        	ldx	#$1e
    4930: 86 34        	stx	$34                     ; 0x2034 <f256main+0x1720>
    4932: 8e 16 d0     	stx	$d016                   ; 0xd016 <__heap_start+0x435a>
    4935: 9c 17 d0     	stz	$d017                   ; 0xd017 <__heap_start+0x435b>
    4938: a2 e6        	ldx	#$e6
    493a: 86 12        	stx	$12                     ; 0x2012 <f256main+0x16fe>
    493c: a2 7b        	ldx	#$7b
    493e: 86 13        	stx	$13                     ; 0x2013 <f256main+0x16ff>
    4940: 20 c7 2e     	jsr	$2ec7 <textPrint>
    4943: 64 33        	stz	$33                     ; 0x2033 <f256main+0x171f>
    4945: 9c 14 d0     	stz	$d014                   ; 0xd014 <__heap_start+0x4358>
    4948: 9c 15 d0     	stz	$d015                   ; 0xd015 <__heap_start+0x4359>
    494b: a2 1f        	ldx	#$1f
    494d: 86 34        	stx	$34                     ; 0x2034 <f256main+0x1720>
    494f: 8e 16 d0     	stx	$d016                   ; 0xd016 <__heap_start+0x435a>
    4952: 9c 17 d0     	stz	$d017                   ; 0xd017 <__heap_start+0x435b>
    4955: a2 fa        	ldx	#$fa
    4957: 86 35        	stx	$35                     ; 0x2035 <f256main+0x1721>
    4959: a2 35        	ldx	#$35
    495b: 86 12        	stx	$12                     ; 0x2012 <f256main+0x16fe>
    495d: a2 00        	ldx	#$0
    495f: 86 13        	stx	$13                     ; 0x2013 <f256main+0x16ff>
    4961: 20 c7 2e     	jsr	$2ec7 <textPrint>
    4964: a2 e6        	ldx	#$e6
    4966: 86 12        	stx	$12                     ; 0x2012 <f256main+0x16fe>
    4968: a2 7b        	ldx	#$7b
    496a: 86 13        	stx	$13                     ; 0x2013 <f256main+0x16ff>
    496c: 64 33        	stz	$33                     ; 0x2033 <f256main+0x171f>
    496e: 9c 14 d0     	stz	$d014                   ; 0xd014 <__heap_start+0x4358>
    4971: 9c 15 d0     	stz	$d015                   ; 0xd015 <__heap_start+0x4359>
    4974: a2 20        	ldx	#$20
    4976: 86 34        	stx	$34                     ; 0x2034 <f256main+0x1720>
    4978: 8e 16 d0     	stx	$d016                   ; 0xd016 <__heap_start+0x435a>
    497b: 9c 17 d0     	stz	$d017                   ; 0xd017 <__heap_start+0x435b>
    497e: 80 58        	bra	$49d8 <refreshInstrumentText+0x2e5>
    4980: 64 33        	stz	$33                     ; 0x2033 <f256main+0x171f>
    4982: 9c 14 d0     	stz	$d014                   ; 0xd014 <__heap_start+0x4358>
    4985: 9c 15 d0     	stz	$d015                   ; 0xd015 <__heap_start+0x4359>
    4988: a2 1e        	ldx	#$1e
    498a: 86 34        	stx	$34                     ; 0x2034 <f256main+0x1720>
    498c: 8e 16 d0     	stx	$d016                   ; 0xd016 <__heap_start+0x435a>
    498f: 9c 17 d0     	stz	$d017                   ; 0xd017 <__heap_start+0x435b>
    4992: a2 e6        	ldx	#$e6
    4994: 86 12        	stx	$12                     ; 0x2012 <f256main+0x16fe>
    4996: a2 7b        	ldx	#$7b
    4998: 86 13        	stx	$13                     ; 0x2013 <f256main+0x16ff>
    499a: 20 c7 2e     	jsr	$2ec7 <textPrint>
    499d: 64 33        	stz	$33                     ; 0x2033 <f256main+0x171f>
    499f: 9c 14 d0     	stz	$d014                   ; 0xd014 <__heap_start+0x4358>
    49a2: 9c 15 d0     	stz	$d015                   ; 0xd015 <__heap_start+0x4359>
    49a5: a2 1f        	ldx	#$1f
    49a7: 86 34        	stx	$34                     ; 0x2034 <f256main+0x1720>
    49a9: 8e 16 d0     	stx	$d016                   ; 0xd016 <__heap_start+0x435a>
    49ac: 9c 17 d0     	stz	$d017                   ; 0xd017 <__heap_start+0x435b>
    49af: a2 e6        	ldx	#$e6
    49b1: 86 12        	stx	$12                     ; 0x2012 <f256main+0x16fe>
    49b3: a2 7b        	ldx	#$7b
    49b5: 86 13        	stx	$13                     ; 0x2013 <f256main+0x16ff>
    49b7: 20 c7 2e     	jsr	$2ec7 <textPrint>
    49ba: 64 33        	stz	$33                     ; 0x2033 <f256main+0x171f>
    49bc: 9c 14 d0     	stz	$d014                   ; 0xd014 <__heap_start+0x4358>
    49bf: 9c 15 d0     	stz	$d015                   ; 0xd015 <__heap_start+0x4359>
    49c2: a2 20        	ldx	#$20
    49c4: 86 34        	stx	$34                     ; 0x2034 <f256main+0x1720>
    49c6: 8e 16 d0     	stx	$d016                   ; 0xd016 <__heap_start+0x435a>
    49c9: 9c 17 d0     	stz	$d017                   ; 0xd017 <__heap_start+0x435b>
    49cc: a2 fa        	ldx	#$fa
    49ce: 86 35        	stx	$35                     ; 0x2035 <f256main+0x1721>
    49d0: a2 35        	ldx	#$35
    49d2: 86 12        	stx	$12                     ; 0x2012 <f256main+0x16fe>
    49d4: a2 00        	ldx	#$0
    49d6: 86 13        	stx	$13                     ; 0x2013 <f256main+0x16ff>
    49d8: 20 c7 2e     	jsr	$2ec7 <textPrint>
    49db: a0 07        	ldy	#$7
    49dd: b1 94        	lda	($94),y                 ; 0x2094 <f256main+0x1780>
    49df: f0 5f        	beq	$4a40 <refreshInstrumentText+0x34d>
    49e1: 64 33        	stz	$33                     ; 0x2033 <f256main+0x171f>
    49e3: 9c 14 d0     	stz	$d014                   ; 0xd014 <__heap_start+0x4358>
    49e6: 9c 15 d0     	stz	$d015                   ; 0xd015 <__heap_start+0x4359>
    49e9: a2 1e        	ldx	#$1e
    49eb: 86 34        	stx	$34                     ; 0x2034 <f256main+0x1720>
    49ed: 8e 16 d0     	stx	$d016                   ; 0xd016 <__heap_start+0x435a>
    49f0: 9c 17 d0     	stz	$d017                   ; 0xd017 <__heap_start+0x435b>
    49f3: a2 fa        	ldx	#$fa
    49f5: 86 35        	stx	$35                     ; 0x2035 <f256main+0x1721>
    49f7: a2 35        	ldx	#$35
    49f9: 86 12        	stx	$12                     ; 0x2012 <f256main+0x16fe>
    49fb: a2 00        	ldx	#$0
    49fd: 86 13        	stx	$13                     ; 0x2013 <f256main+0x16ff>
    49ff: 20 c7 2e     	jsr	$2ec7 <textPrint>
    4a02: 64 33        	stz	$33                     ; 0x2033 <f256main+0x171f>
    4a04: 9c 14 d0     	stz	$d014                   ; 0xd014 <__heap_start+0x4358>
    4a07: 9c 15 d0     	stz	$d015                   ; 0xd015 <__heap_start+0x4359>
    4a0a: a2 1f        	ldx	#$1f
    4a0c: 86 34        	stx	$34                     ; 0x2034 <f256main+0x1720>
    4a0e: 8e 16 d0     	stx	$d016                   ; 0xd016 <__heap_start+0x435a>
    4a11: 9c 17 d0     	stz	$d017                   ; 0xd017 <__heap_start+0x435b>
    4a14: a2 fa        	ldx	#$fa
    4a16: 86 35        	stx	$35                     ; 0x2035 <f256main+0x1721>
    4a18: a2 35        	ldx	#$35
    4a1a: 86 12        	stx	$12                     ; 0x2012 <f256main+0x16fe>
    4a1c: a2 00        	ldx	#$0
    4a1e: 86 13        	stx	$13                     ; 0x2013 <f256main+0x16ff>
    4a20: 20 c7 2e     	jsr	$2ec7 <textPrint>
    4a23: 64 33        	stz	$33                     ; 0x2033 <f256main+0x171f>
    4a25: 9c 14 d0     	stz	$d014                   ; 0xd014 <__heap_start+0x4358>
    4a28: 9c 15 d0     	stz	$d015                   ; 0xd015 <__heap_start+0x4359>
    4a2b: a2 20        	ldx	#$20
    4a2d: 86 34        	stx	$34                     ; 0x2034 <f256main+0x1720>
    4a2f: 8e 16 d0     	stx	$d016                   ; 0xd016 <__heap_start+0x435a>
    4a32: 9c 17 d0     	stz	$d017                   ; 0xd017 <__heap_start+0x435b>
    4a35: a2 e6        	ldx	#$e6
    4a37: 86 12        	stx	$12                     ; 0x2012 <f256main+0x16fe>
    4a39: a2 7b        	ldx	#$7b
    4a3b: 86 13        	stx	$13                     ; 0x2013 <f256main+0x16ff>
    4a3d: 20 c7 2e     	jsr	$2ec7 <textPrint>
    4a40: 18           	clc
    4a41: a5 10        	lda	$10                     ; 0x2010 <f256main+0x16fc>
    4a43: 69 04        	adc	#$4
    4a45: 85 10        	sta	$10                     ; 0x2010 <f256main+0x16fc>
    4a47: a5 11        	lda	$11                     ; 0x2011 <f256main+0x16fd>
    4a49: 69 00        	adc	#$0
    4a4b: 85 11        	sta	$11                     ; 0x2011 <f256main+0x16fd>
    4a4d: 60           	rts

00004a4e <channelTextMenu>:
    4a4e: a6 12        	ldx	$12                     ; 0x2012 <f256main+0x16fe>
    4a50: 86 92        	stx	$92                     ; 0x2092 <f256main+0x177e>
    4a52: a6 13        	ldx	$13                     ; 0x2013 <f256main+0x16ff>
    4a54: 86 93        	stx	$93                     ; 0x2093 <f256main+0x177f>
    4a56: a2 02        	ldx	#$2
    4a58: 86 01        	stx	$1                      ; 0x2001 <f256main+0x16ed>
    4a5a: a2 00        	ldx	#$0
    4a5c: a0 c0        	ldy	#$c0
    4a5e: a9 20        	lda	#$20
    4a60: 86 12        	stx	$12                     ; 0x2012 <f256main+0x16fe>
    4a62: 84 13        	sty	$13                     ; 0x2013 <f256main+0x16ff>
    4a64: 92 12        	sta	($12)                   ; 0x2012 <f256main+0x16fe>
    4a66: e8           	inx
    4a67: d0 01        	bne	$4a6a <channelTextMenu+0x1c>
    4a69: c8           	iny
    4a6a: c0 d2        	cpy	#$d2
    4a6c: d0 f2        	bne	$4a60 <channelTextMenu+0x12>
    4a6e: e0 c0        	cpx	#$c0
    4a70: d0 ee        	bne	$4a60 <channelTextMenu+0x12>
    4a72: 64 01        	stz	$1                      ; 0x2001 <f256main+0x16ed>
    4a74: a2 90        	ldx	#$90
    4a76: 86 30        	stx	$30                     ; 0x2030 <f256main+0x171c>
    4a78: 64 33        	stz	$33                     ; 0x2033 <f256main+0x171f>
    4a7a: 9c 14 d0     	stz	$d014                   ; 0xd014 <__heap_start+0x4358>
    4a7d: 9c 15 d0     	stz	$d015                   ; 0xd015 <__heap_start+0x4359>
    4a80: a2 19        	ldx	#$19
    4a82: 86 34        	stx	$34                     ; 0x2034 <f256main+0x1720>
    4a84: 8e 16 d0     	stx	$d016                   ; 0xd016 <__heap_start+0x435a>
    4a87: 9c 17 d0     	stz	$d017                   ; 0xd017 <__heap_start+0x435b>
    4a8a: a0 06        	ldy	#$6
    4a8c: b1 92        	lda	($92),y                 ; 0x2092 <f256main+0x177e>
    4a8e: c9 04        	cmp	#$4
    4a90: 90 03        	bcc	$4a95 <channelTextMenu+0x47>
    4a92: 4c ac 4b     	jmp	$4bac <channelTextMenu+0x15e>
    4a95: 0a           	asl
    4a96: aa           	tax
    4a97: 7c 83 79     	jmp	($7983,x)               ; 0x7983 <__set_v+0x21>
    4a9a: a0 02        	ldy	#$2
    4a9c: b1 92        	lda	($92),y                 ; 0x2092 <f256main+0x177e>
    4a9e: f0 2a        	beq	$4aca <channelTextMenu+0x7c>
    4aa0: a2 f4        	ldx	#$f4
    4aa2: 86 12        	stx	$12                     ; 0x2012 <f256main+0x16fe>
    4aa4: a2 80        	ldx	#$80
    4aa6: 80 28        	bra	$4ad0 <channelTextMenu+0x82>
    4aa8: a2 5d        	ldx	#$5d
    4aaa: 86 12        	stx	$12                     ; 0x2012 <f256main+0x16fe>
    4aac: a2 7d        	ldx	#$7d
    4aae: 80 0e        	bra	$4abe <channelTextMenu+0x70>
    4ab0: a2 60        	ldx	#$60
    4ab2: 86 12        	stx	$12                     ; 0x2012 <f256main+0x16fe>
    4ab4: a2 81        	ldx	#$81
    4ab6: 80 06        	bra	$4abe <channelTextMenu+0x70>
    4ab8: a2 4d        	ldx	#$4d
    4aba: 86 12        	stx	$12                     ; 0x2012 <f256main+0x16fe>
    4abc: a2 87        	ldx	#$87
    4abe: 86 13        	stx	$13                     ; 0x2013 <f256main+0x16ff>
    4ac0: 20 c7 2e     	jsr	$2ec7 <textPrint>
    4ac3: a2 40        	ldx	#$40
    4ac5: 86 30        	stx	$30                     ; 0x2030 <f256main+0x171c>
    4ac7: 4c ac 4b     	jmp	$4bac <channelTextMenu+0x15e>
    4aca: a2 8e        	ldx	#$8e
    4acc: 86 12        	stx	$12                     ; 0x2012 <f256main+0x16fe>
    4ace: a2 85        	ldx	#$85
    4ad0: 86 13        	stx	$13                     ; 0x2013 <f256main+0x16ff>
    4ad2: 20 c7 2e     	jsr	$2ec7 <textPrint>
    4ad5: a2 40        	ldx	#$40
    4ad7: 86 30        	stx	$30                     ; 0x2030 <f256main+0x171c>
    4ad9: 64 33        	stz	$33                     ; 0x2033 <f256main+0x171f>
    4adb: 9c 14 d0     	stz	$d014                   ; 0xd014 <__heap_start+0x4358>
    4ade: 9c 15 d0     	stz	$d015                   ; 0xd015 <__heap_start+0x4359>
    4ae1: a2 1a        	ldx	#$1a
    4ae3: 86 34        	stx	$34                     ; 0x2034 <f256main+0x1720>
    4ae5: 8e 16 d0     	stx	$d016                   ; 0xd016 <__heap_start+0x435a>
    4ae8: 9c 17 d0     	stz	$d017                   ; 0xd017 <__heap_start+0x435b>
    4aeb: a2 86        	ldx	#$86
    4aed: 86 12        	stx	$12                     ; 0x2012 <f256main+0x16fe>
    4aef: a2 7b        	ldx	#$7b
    4af1: 86 13        	stx	$13                     ; 0x2013 <f256main+0x16ff>
    4af3: 20 c7 2e     	jsr	$2ec7 <textPrint>
    4af6: 64 33        	stz	$33                     ; 0x2033 <f256main+0x171f>
    4af8: 9c 14 d0     	stz	$d014                   ; 0xd014 <__heap_start+0x4358>
    4afb: 9c 15 d0     	stz	$d015                   ; 0xd015 <__heap_start+0x4359>
    4afe: a2 1b        	ldx	#$1b
    4b00: 86 34        	stx	$34                     ; 0x2034 <f256main+0x1720>
    4b02: 8e 16 d0     	stx	$d016                   ; 0xd016 <__heap_start+0x435a>
    4b05: 9c 17 d0     	stz	$d017                   ; 0xd017 <__heap_start+0x435b>
    4b08: a2 e3        	ldx	#$e3
    4b0a: 86 12        	stx	$12                     ; 0x2012 <f256main+0x16fe>
    4b0c: a2 7d        	ldx	#$7d
    4b0e: 86 13        	stx	$13                     ; 0x2013 <f256main+0x16ff>
    4b10: 20 c7 2e     	jsr	$2ec7 <textPrint>
    4b13: a2 01        	ldx	#$1
    4b15: 86 33        	stx	$33                     ; 0x2033 <f256main+0x171f>
    4b17: 8e 14 d0     	stx	$d014                   ; 0xd014 <__heap_start+0x4358>
    4b1a: 9c 15 d0     	stz	$d015                   ; 0xd015 <__heap_start+0x4359>
    4b1d: a2 1d        	ldx	#$1d
    4b1f: 86 34        	stx	$34                     ; 0x2034 <f256main+0x1720>
    4b21: 8e 16 d0     	stx	$d016                   ; 0xd016 <__heap_start+0x435a>
    4b24: 9c 17 d0     	stz	$d017                   ; 0xd017 <__heap_start+0x435b>
    4b27: a2 9f        	ldx	#$9f
    4b29: 86 12        	stx	$12                     ; 0x2012 <f256main+0x16fe>
    4b2b: a2 7f        	ldx	#$7f
    4b2d: 86 13        	stx	$13                     ; 0x2013 <f256main+0x16ff>
    4b2f: 20 c7 2e     	jsr	$2ec7 <textPrint>
    4b32: a2 02        	ldx	#$2
    4b34: 86 33        	stx	$33                     ; 0x2033 <f256main+0x171f>
    4b36: 8e 14 d0     	stx	$d014                   ; 0xd014 <__heap_start+0x4358>
    4b39: 9c 15 d0     	stz	$d015                   ; 0xd015 <__heap_start+0x4359>
    4b3c: a2 1e        	ldx	#$1e
    4b3e: 86 34        	stx	$34                     ; 0x2034 <f256main+0x1720>
    4b40: 8e 16 d0     	stx	$d016                   ; 0xd016 <__heap_start+0x435a>
    4b43: 9c 17 d0     	stz	$d017                   ; 0xd017 <__heap_start+0x435b>
    4b46: a2 e8        	ldx	#$e8
    4b48: 86 12        	stx	$12                     ; 0x2012 <f256main+0x16fe>
    4b4a: a2 7b        	ldx	#$7b
    4b4c: 86 13        	stx	$13                     ; 0x2013 <f256main+0x16ff>
    4b4e: 20 c7 2e     	jsr	$2ec7 <textPrint>
    4b51: a2 02        	ldx	#$2
    4b53: 86 33        	stx	$33                     ; 0x2033 <f256main+0x171f>
    4b55: 8e 14 d0     	stx	$d014                   ; 0xd014 <__heap_start+0x4358>
    4b58: 9c 15 d0     	stz	$d015                   ; 0xd015 <__heap_start+0x4359>
    4b5b: a2 1f        	ldx	#$1f
    4b5d: 86 34        	stx	$34                     ; 0x2034 <f256main+0x1720>
    4b5f: 8e 16 d0     	stx	$d016                   ; 0xd016 <__heap_start+0x435a>
    4b62: 9c 17 d0     	stz	$d017                   ; 0xd017 <__heap_start+0x435b>
    4b65: a2 0b        	ldx	#$b
    4b67: 86 12        	stx	$12                     ; 0x2012 <f256main+0x16fe>
    4b69: a2 87        	ldx	#$87
    4b6b: 86 13        	stx	$13                     ; 0x2013 <f256main+0x16ff>
    4b6d: 20 c7 2e     	jsr	$2ec7 <textPrint>
    4b70: a2 02        	ldx	#$2
    4b72: 86 33        	stx	$33                     ; 0x2033 <f256main+0x171f>
    4b74: 8e 14 d0     	stx	$d014                   ; 0xd014 <__heap_start+0x4358>
    4b77: 9c 15 d0     	stz	$d015                   ; 0xd015 <__heap_start+0x4359>
    4b7a: a2 20        	ldx	#$20
    4b7c: 86 34        	stx	$34                     ; 0x2034 <f256main+0x1720>
    4b7e: 8e 16 d0     	stx	$d016                   ; 0xd016 <__heap_start+0x435a>
    4b81: 9c 17 d0     	stz	$d017                   ; 0xd017 <__heap_start+0x435b>
    4b84: a2 cb        	ldx	#$cb
    4b86: 86 12        	stx	$12                     ; 0x2012 <f256main+0x16fe>
    4b88: a2 87        	ldx	#$87
    4b8a: 86 13        	stx	$13                     ; 0x2013 <f256main+0x16ff>
    4b8c: 20 c7 2e     	jsr	$2ec7 <textPrint>
    4b8f: 64 33        	stz	$33                     ; 0x2033 <f256main+0x171f>
    4b91: 9c 14 d0     	stz	$d014                   ; 0xd014 <__heap_start+0x4358>
    4b94: 9c 15 d0     	stz	$d015                   ; 0xd015 <__heap_start+0x4359>
    4b97: a2 21        	ldx	#$21
    4b99: 86 34        	stx	$34                     ; 0x2034 <f256main+0x1720>
    4b9b: 8e 16 d0     	stx	$d016                   ; 0xd016 <__heap_start+0x435a>
    4b9e: 9c 17 d0     	stz	$d017                   ; 0xd017 <__heap_start+0x435b>
    4ba1: a2 16        	ldx	#$16
    4ba3: 86 12        	stx	$12                     ; 0x2012 <f256main+0x16fe>
    4ba5: a2 83        	ldx	#$83
    4ba7: 86 13        	stx	$13                     ; 0x2013 <f256main+0x16ff>
    4ba9: 20 c7 2e     	jsr	$2ec7 <textPrint>
    4bac: a6 92        	ldx	$92                     ; 0x2092 <f256main+0x177e>
    4bae: 86 12        	stx	$12                     ; 0x2012 <f256main+0x16fe>
    4bb0: a6 93        	ldx	$93                     ; 0x2093 <f256main+0x177f>
    4bb2: 86 13        	stx	$13                     ; 0x2013 <f256main+0x16ff>
    4bb4: 4c f3 46     	jmp	$46f3 <refreshInstrumentText>

00004bb7 <refreshBeatTextChoice>:
    4bb7: 18           	clc
    4bb8: a5 10        	lda	$10                     ; 0x2010 <f256main+0x16fc>
    4bba: 69 fe        	adc	#$fe
    4bbc: 85 10        	sta	$10                     ; 0x2010 <f256main+0x16fc>
    4bbe: a5 11        	lda	$11                     ; 0x2011 <f256main+0x16fd>
    4bc0: 69 ff        	adc	#$ff
    4bc2: 85 11        	sta	$11                     ; 0x2011 <f256main+0x16fd>
    4bc4: a2 90        	ldx	#$90
    4bc6: 86 30        	stx	$30                     ; 0x2030 <f256main+0x171c>
    4bc8: a2 2e        	ldx	#$2e
    4bca: 86 33        	stx	$33                     ; 0x2033 <f256main+0x171f>
    4bcc: 8e 14 d0     	stx	$d014                   ; 0xd014 <__heap_start+0x4358>
    4bcf: 9c 15 d0     	stz	$d015                   ; 0xd015 <__heap_start+0x4359>
    4bd2: a2 1d        	ldx	#$1d
    4bd4: 86 34        	stx	$34                     ; 0x2034 <f256main+0x1720>
    4bd6: 8e 16 d0     	stx	$d016                   ; 0xd016 <__heap_start+0x435a>
    4bd9: 9c 17 d0     	stz	$d017                   ; 0xd017 <__heap_start+0x435b>
    4bdc: a2 36        	ldx	#$36
    4bde: 86 12        	stx	$12                     ; 0x2012 <f256main+0x16fe>
    4be0: a2 83        	ldx	#$83
    4be2: 86 13        	stx	$13                     ; 0x2013 <f256main+0x16ff>
    4be4: 20 c7 2e     	jsr	$2ec7 <textPrint>
    4be7: a2 2e        	ldx	#$2e
    4be9: 86 33        	stx	$33                     ; 0x2033 <f256main+0x171f>
    4beb: 8e 14 d0     	stx	$d014                   ; 0xd014 <__heap_start+0x4358>
    4bee: 9c 15 d0     	stz	$d015                   ; 0xd015 <__heap_start+0x4359>
    4bf1: a2 1d        	ldx	#$1d
    4bf3: 86 34        	stx	$34                     ; 0x2034 <f256main+0x1720>
    4bf5: 8e 16 d0     	stx	$d016                   ; 0xd016 <__heap_start+0x435a>
    4bf8: 9c 17 d0     	stz	$d017                   ; 0xd017 <__heap_start+0x435b>
    4bfb: a9 ca        	lda	#$ca
    4bfd: 92 10        	sta	($10)                   ; 0x2010 <f256main+0x16fc>
    4bff: a0 01        	ldy	#$1
    4c01: a9 81        	lda	#$81
    4c03: 91 10        	sta	($10),y                 ; 0x2010 <f256main+0x16fc>
    4c05: a2 98        	ldx	#$98
    4c07: 86 12        	stx	$12                     ; 0x2012 <f256main+0x16fe>
    4c09: a2 81        	ldx	#$81
    4c0b: 86 13        	stx	$13                     ; 0x2013 <f256main+0x16ff>
    4c0d: 20 27 56     	jsr	$5627 <printf>
    4c10: 18           	clc
    4c11: a5 10        	lda	$10                     ; 0x2010 <f256main+0x16fc>
    4c13: 69 02        	adc	#$2
    4c15: 85 10        	sta	$10                     ; 0x2010 <f256main+0x16fc>
    4c17: a5 11        	lda	$11                     ; 0x2011 <f256main+0x16fd>
    4c19: 69 00        	adc	#$0
    4c1b: 85 11        	sta	$11                     ; 0x2011 <f256main+0x16fd>
    4c1d: 60           	rts

00004c1e <updateTempoText>:
    4c1e: 85 92        	sta	$92                     ; 0x2092 <f256main+0x177e>
    4c20: a2 40        	ldx	#$40
    4c22: 86 30        	stx	$30                     ; 0x2030 <f256main+0x171c>
    4c24: a2 2d        	ldx	#$2d
    4c26: 86 33        	stx	$33                     ; 0x2033 <f256main+0x171f>
    4c28: 8e 14 d0     	stx	$d014                   ; 0xd014 <__heap_start+0x4358>
    4c2b: 9c 15 d0     	stz	$d015                   ; 0xd015 <__heap_start+0x4359>
    4c2e: a2 1f        	ldx	#$1f
    4c30: 86 34        	stx	$34                     ; 0x2034 <f256main+0x1720>
    4c32: 8e 16 d0     	stx	$d016                   ; 0xd016 <__heap_start+0x435a>
    4c35: 9c 17 d0     	stz	$d017                   ; 0xd017 <__heap_start+0x435b>
    4c38: a2 66        	ldx	#$66
    4c3a: 86 12        	stx	$12                     ; 0x2012 <f256main+0x16fe>
    4c3c: a2 88        	ldx	#$88
    4c3e: 86 13        	stx	$13                     ; 0x2013 <f256main+0x16ff>
    4c40: 20 c7 2e     	jsr	$2ec7 <textPrint>
    4c43: 64 12        	stz	$12                     ; 0x2012 <f256main+0x16fe>
    4c45: 64 13        	stz	$13                     ; 0x2013 <f256main+0x16ff>
    4c47: a2 00        	ldx	#$0
    4c49: a5 92        	lda	$92                     ; 0x2092 <f256main+0x177e>
    4c4b: 20 46 39     	jsr	$3946 <textPrintUInt>
    4c4e: a2 59        	ldx	#$59
    4c50: 86 12        	stx	$12                     ; 0x2012 <f256main+0x16fe>
    4c52: a2 85        	ldx	#$85
    4c54: 86 13        	stx	$13                     ; 0x2013 <f256main+0x16ff>
    4c56: 20 c7 2e     	jsr	$2ec7 <textPrint>
    4c59: a2 2d        	ldx	#$2d
    4c5b: 86 33        	stx	$33                     ; 0x2033 <f256main+0x171f>
    4c5d: 8e 14 d0     	stx	$d014                   ; 0xd014 <__heap_start+0x4358>
    4c60: 9c 15 d0     	stz	$d015                   ; 0xd015 <__heap_start+0x4359>
    4c63: a2 20        	ldx	#$20
    4c65: 86 34        	stx	$34                     ; 0x2034 <f256main+0x1720>
    4c67: 8e 16 d0     	stx	$d016                   ; 0xd016 <__heap_start+0x435a>
    4c6a: 9c 17 d0     	stz	$d017                   ; 0xd017 <__heap_start+0x435b>
    4c6d: a2 ae        	ldx	#$ae
    4c6f: 86 12        	stx	$12                     ; 0x2012 <f256main+0x16fe>
    4c71: a2 7f        	ldx	#$7f
    4c73: 86 13        	stx	$13                     ; 0x2013 <f256main+0x16ff>
    4c75: 4c c7 2e     	jmp	$2ec7 <textPrint>

00004c78 <showChipChoiceText>:
    4c78: a0 06        	ldy	#$6
    4c7a: b1 12        	lda	($12),y                 ; 0x2012 <f256main+0x16fe>
    4c7c: c9 04        	cmp	#$4
    4c7e: 90 03        	bcc	$4c83 <showChipChoiceText+0xb>
    4c80: 4c 6f 4d     	jmp	$4d6f <showChipChoiceText+0xf7>
    4c83: 0a           	asl
    4c84: aa           	tax
    4c85: 7c 8b 79     	jmp	($798b,x)               ; 0x798b <__set_v+0x29>
    4c88: 20 70 4d     	jsr	$4d70 <showMIDIChoiceText>
    4c8b: a0 40        	ldy	#$40
    4c8d: a2 e1        	ldx	#$e1
    4c8f: 86 12        	stx	$12                     ; 0x2012 <f256main+0x16fe>
    4c91: a2 7e        	ldx	#$7e
    4c93: 86 13        	stx	$13                     ; 0x2013 <f256main+0x16ff>
    4c95: a2 2d        	ldx	#$2d
    4c97: 4c 58 4d     	jmp	$4d58 <showChipChoiceText+0xe0>
    4c9a: 20 70 4d     	jsr	$4d70 <showMIDIChoiceText>
    4c9d: a2 2c        	ldx	#$2c
    4c9f: 86 33        	stx	$33                     ; 0x2033 <f256main+0x171f>
    4ca1: 8e 14 d0     	stx	$d014                   ; 0xd014 <__heap_start+0x4358>
    4ca4: 9c 15 d0     	stz	$d015                   ; 0xd015 <__heap_start+0x4359>
    4ca7: a2 39        	ldx	#$39
    4ca9: 86 34        	stx	$34                     ; 0x2034 <f256main+0x1720>
    4cab: 8e 16 d0     	stx	$d016                   ; 0xd016 <__heap_start+0x435a>
    4cae: 9c 17 d0     	stz	$d017                   ; 0xd017 <__heap_start+0x435b>
    4cb1: a2 40        	ldx	#$40
    4cb3: 86 30        	stx	$30                     ; 0x2030 <f256main+0x171c>
    4cb5: a2 cc        	ldx	#$cc
    4cb7: 86 12        	stx	$12                     ; 0x2012 <f256main+0x16fe>
    4cb9: a2 86        	ldx	#$86
    4cbb: 86 13        	stx	$13                     ; 0x2013 <f256main+0x16ff>
    4cbd: 20 c7 2e     	jsr	$2ec7 <textPrint>
    4cc0: a2 32        	ldx	#$32
    4cc2: 86 33        	stx	$33                     ; 0x2033 <f256main+0x171f>
    4cc4: 8e 14 d0     	stx	$d014                   ; 0xd014 <__heap_start+0x4358>
    4cc7: 9c 15 d0     	stz	$d015                   ; 0xd015 <__heap_start+0x4359>
    4cca: a2 39        	ldx	#$39
    4ccc: 86 34        	stx	$34                     ; 0x2034 <f256main+0x1720>
    4cce: 8e 16 d0     	stx	$d016                   ; 0xd016 <__heap_start+0x435a>
    4cd1: 9c 17 d0     	stz	$d017                   ; 0xd017 <__heap_start+0x435b>
    4cd4: a2 90        	ldx	#$90
    4cd6: 86 30        	stx	$30                     ; 0x2030 <f256main+0x171c>
    4cd8: a2 cf        	ldx	#$cf
    4cda: 86 12        	stx	$12                     ; 0x2012 <f256main+0x16fe>
    4cdc: a2 87        	ldx	#$87
    4cde: 86 13        	stx	$13                     ; 0x2013 <f256main+0x16ff>
    4ce0: 20 c7 2e     	jsr	$2ec7 <textPrint>
    4ce3: a0 40        	ldy	#$40
    4ce5: a2 53        	ldx	#$53
    4ce7: 86 12        	stx	$12                     ; 0x2012 <f256main+0x16fe>
    4ce9: a2 7e        	ldx	#$7e
    4ceb: 86 13        	stx	$13                     ; 0x2013 <f256main+0x16ff>
    4ced: a2 38        	ldx	#$38
    4cef: 4c 58 4d     	jmp	$4d58 <showChipChoiceText+0xe0>
    4cf2: 20 70 4d     	jsr	$4d70 <showMIDIChoiceText>
    4cf5: a2 2c        	ldx	#$2c
    4cf7: 86 33        	stx	$33                     ; 0x2033 <f256main+0x171f>
    4cf9: 8e 14 d0     	stx	$d014                   ; 0xd014 <__heap_start+0x4358>
    4cfc: 9c 15 d0     	stz	$d015                   ; 0xd015 <__heap_start+0x4359>
    4cff: a2 39        	ldx	#$39
    4d01: 86 34        	stx	$34                     ; 0x2034 <f256main+0x1720>
    4d03: 8e 16 d0     	stx	$d016                   ; 0xd016 <__heap_start+0x435a>
    4d06: 9c 17 d0     	stz	$d017                   ; 0xd017 <__heap_start+0x435b>
    4d09: a2 40        	ldx	#$40
    4d0b: 86 30        	stx	$30                     ; 0x2030 <f256main+0x171c>
    4d0d: a2 62        	ldx	#$62
    4d0f: 86 12        	stx	$12                     ; 0x2012 <f256main+0x16fe>
    4d11: a2 86        	ldx	#$86
    4d13: 86 13        	stx	$13                     ; 0x2013 <f256main+0x16ff>
    4d15: 20 c7 2e     	jsr	$2ec7 <textPrint>
    4d18: a2 e3        	ldx	#$e3
    4d1a: 86 12        	stx	$12                     ; 0x2012 <f256main+0x16fe>
    4d1c: a2 84        	ldx	#$84
    4d1e: 86 13        	stx	$13                     ; 0x2013 <f256main+0x16ff>
    4d20: a2 38        	ldx	#$38
    4d22: a0 90        	ldy	#$90
    4d24: 80 32        	bra	$4d58 <showChipChoiceText+0xe0>
    4d26: 20 70 4d     	jsr	$4d70 <showMIDIChoiceText>
    4d29: a2 2c        	ldx	#$2c
    4d2b: 86 33        	stx	$33                     ; 0x2033 <f256main+0x171f>
    4d2d: 8e 14 d0     	stx	$d014                   ; 0xd014 <__heap_start+0x4358>
    4d30: 9c 15 d0     	stz	$d015                   ; 0xd015 <__heap_start+0x4359>
    4d33: a2 39        	ldx	#$39
    4d35: 86 34        	stx	$34                     ; 0x2034 <f256main+0x1720>
    4d37: 8e 16 d0     	stx	$d016                   ; 0xd016 <__heap_start+0x435a>
    4d3a: 9c 17 d0     	stz	$d017                   ; 0xd017 <__heap_start+0x435b>
    4d3d: a2 90        	ldx	#$90
    4d3f: 86 30        	stx	$30                     ; 0x2030 <f256main+0x171c>
    4d41: a2 cf        	ldx	#$cf
    4d43: 86 12        	stx	$12                     ; 0x2012 <f256main+0x16fe>
    4d45: a2 7f        	ldx	#$7f
    4d47: 86 13        	stx	$13                     ; 0x2013 <f256main+0x16ff>
    4d49: 20 c7 2e     	jsr	$2ec7 <textPrint>
    4d4c: a0 40        	ldy	#$40
    4d4e: a2 12        	ldx	#$12
    4d50: 86 12        	stx	$12                     ; 0x2012 <f256main+0x16fe>
    4d52: a2 7d        	ldx	#$7d
    4d54: 86 13        	stx	$13                     ; 0x2013 <f256main+0x16ff>
    4d56: a2 32        	ldx	#$32
    4d58: 86 33        	stx	$33                     ; 0x2033 <f256main+0x171f>
    4d5a: 8e 14 d0     	stx	$d014                   ; 0xd014 <__heap_start+0x4358>
    4d5d: 9c 15 d0     	stz	$d015                   ; 0xd015 <__heap_start+0x4359>
    4d60: a2 39        	ldx	#$39
    4d62: 86 34        	stx	$34                     ; 0x2034 <f256main+0x1720>
    4d64: 8e 16 d0     	stx	$d016                   ; 0xd016 <__heap_start+0x435a>
    4d67: 9c 17 d0     	stz	$d017                   ; 0xd017 <__heap_start+0x435b>
    4d6a: 84 30        	sty	$30                     ; 0x2030 <f256main+0x171c>
    4d6c: 20 c7 2e     	jsr	$2ec7 <textPrint>
    4d6f: 60           	rts

00004d70 <showMIDIChoiceText>:
    4d70: a6 12        	ldx	$12                     ; 0x2012 <f256main+0x16fe>
    4d72: 86 92        	stx	$92                     ; 0x2092 <f256main+0x177e>
    4d74: a6 13        	ldx	$13                     ; 0x2013 <f256main+0x16ff>
    4d76: 86 93        	stx	$93                     ; 0x2093 <f256main+0x177f>
    4d78: a0 06        	ldy	#$6
    4d7a: b1 12        	lda	($12),y                 ; 0x2012 <f256main+0x16fe>
    4d7c: f0 06        	beq	$4d84 <showMIDIChoiceText+0x14>
    4d7e: a2 40        	ldx	#$40
    4d80: 86 94        	stx	$94                     ; 0x2094 <f256main+0x1780>
    4d82: 80 14        	bra	$4d98 <showMIDIChoiceText+0x28>
    4d84: a0 02        	ldy	#$2
    4d86: b1 92        	lda	($92),y                 ; 0x2092 <f256main+0x177e>
    4d88: f0 08        	beq	$4d92 <showMIDIChoiceText+0x22>
    4d8a: a2 90        	ldx	#$90
    4d8c: 86 94        	stx	$94                     ; 0x2094 <f256main+0x1780>
    4d8e: a2 40        	ldx	#$40
    4d90: 80 06        	bra	$4d98 <showMIDIChoiceText+0x28>
    4d92: a2 40        	ldx	#$40
    4d94: 86 94        	stx	$94                     ; 0x2094 <f256main+0x1780>
    4d96: a2 90        	ldx	#$90
    4d98: 86 30        	stx	$30                     ; 0x2030 <f256main+0x171c>
    4d9a: a2 1d        	ldx	#$1d
    4d9c: 86 33        	stx	$33                     ; 0x2033 <f256main+0x171f>
    4d9e: 8e 14 d0     	stx	$d014                   ; 0xd014 <__heap_start+0x4358>
    4da1: 9c 15 d0     	stz	$d015                   ; 0xd015 <__heap_start+0x4359>
    4da4: a2 39        	ldx	#$39
    4da6: 86 34        	stx	$34                     ; 0x2034 <f256main+0x1720>
    4da8: 8e 16 d0     	stx	$d016                   ; 0xd016 <__heap_start+0x435a>
    4dab: 9c 17 d0     	stz	$d017                   ; 0xd017 <__heap_start+0x435b>
    4dae: a0 02        	ldy	#$2
    4db0: b1 92        	lda	($92),y                 ; 0x2092 <f256main+0x177e>
    4db2: f0 08        	beq	$4dbc <showMIDIChoiceText+0x4c>
    4db4: a2 e2        	ldx	#$e2
    4db6: 86 12        	stx	$12                     ; 0x2012 <f256main+0x16fe>
    4db8: a2 81        	ldx	#$81
    4dba: 80 06        	bra	$4dc2 <showMIDIChoiceText+0x52>
    4dbc: a2 6d        	ldx	#$6d
    4dbe: 86 12        	stx	$12                     ; 0x2012 <f256main+0x16fe>
    4dc0: a2 84        	ldx	#$84
    4dc2: 86 13        	stx	$13                     ; 0x2013 <f256main+0x16ff>
    4dc4: 20 c7 2e     	jsr	$2ec7 <textPrint>
    4dc7: a6 94        	ldx	$94                     ; 0x2094 <f256main+0x1780>
    4dc9: 86 30        	stx	$30                     ; 0x2030 <f256main+0x171c>
    4dcb: a2 1d        	ldx	#$1d
    4dcd: 86 33        	stx	$33                     ; 0x2033 <f256main+0x171f>
    4dcf: 8e 14 d0     	stx	$d014                   ; 0xd014 <__heap_start+0x4358>
    4dd2: 9c 15 d0     	stz	$d015                   ; 0xd015 <__heap_start+0x4359>
    4dd5: a2 3a        	ldx	#$3a
    4dd7: 86 34        	stx	$34                     ; 0x2034 <f256main+0x1720>
    4dd9: 8e 16 d0     	stx	$d016                   ; 0xd016 <__heap_start+0x435a>
    4ddc: 9c 17 d0     	stz	$d017                   ; 0xd017 <__heap_start+0x435b>
    4ddf: a0 02        	ldy	#$2
    4de1: b1 92        	lda	($92),y                 ; 0x2092 <f256main+0x177e>
    4de3: f0 08        	beq	$4ded <showMIDIChoiceText+0x7d>
    4de5: a2 70        	ldx	#$70
    4de7: 86 12        	stx	$12                     ; 0x2012 <f256main+0x16fe>
    4de9: a2 80        	ldx	#$80
    4deb: 80 06        	bra	$4df3 <showMIDIChoiceText+0x83>
    4ded: a2 a9        	ldx	#$a9
    4def: 86 12        	stx	$12                     ; 0x2012 <f256main+0x16fe>
    4df1: a2 83        	ldx	#$83
    4df3: 86 13        	stx	$13                     ; 0x2013 <f256main+0x16ff>
    4df5: 4c c7 2e     	jmp	$2ec7 <textPrint>

00004df8 <textTitle>:
    4df8: 18           	clc
    4df9: a5 10        	lda	$10                     ; 0x2010 <f256main+0x16fc>
    4dfb: 69 f8        	adc	#$f8
    4dfd: 85 10        	sta	$10                     ; 0x2010 <f256main+0x16fc>
    4dff: a5 11        	lda	$11                     ; 0x2011 <f256main+0x16fd>
    4e01: 69 ff        	adc	#$ff
    4e03: 85 11        	sta	$11                     ; 0x2011 <f256main+0x16fd>
    4e05: a6 12        	ldx	$12                     ; 0x2012 <f256main+0x16fe>
    4e07: 86 8d        	stx	$8d                     ; 0x208d <f256main+0x1779>
    4e09: a6 13        	ldx	$13                     ; 0x2013 <f256main+0x16ff>
    4e0b: 86 8e        	stx	$8e                     ; 0x208e <f256main+0x177a>
    4e0d: a2 10        	ldx	#$10
    4e0f: 86 30        	stx	$30                     ; 0x2030 <f256main+0x171c>
    4e11: a2 15        	ldx	#$15
    4e13: 86 33        	stx	$33                     ; 0x2033 <f256main+0x171f>
    4e15: 8e 14 d0     	stx	$d014                   ; 0xd014 <__heap_start+0x4358>
    4e18: 9c 15 d0     	stz	$d015                   ; 0xd015 <__heap_start+0x4359>
    4e1b: 64 34        	stz	$34                     ; 0x2034 <f256main+0x1720>
    4e1d: 9c 16 d0     	stz	$d016                   ; 0xd016 <__heap_start+0x435a>
    4e20: 9c 17 d0     	stz	$d017                   ; 0xd017 <__heap_start+0x435b>
    4e23: a2 1d        	ldx	#$1d
    4e25: a9 f8        	lda	#$f8
    4e27: a0 ff        	ldy	#$ff
    4e29: 85 8f        	sta	$8f                     ; 0x208f <f256main+0x177b>
    4e2b: 84 90        	sty	$90                     ; 0x2090 <f256main+0x177c>
    4e2d: 86 35        	stx	$35                     ; 0x2035 <f256main+0x1721>
    4e2f: 86 91        	stx	$91                     ; 0x2091 <f256main+0x177d>
    4e31: a2 35        	ldx	#$35
    4e33: 86 12        	stx	$12                     ; 0x2012 <f256main+0x16fe>
    4e35: a2 00        	ldx	#$0
    4e37: 86 13        	stx	$13                     ; 0x2013 <f256main+0x16ff>
    4e39: 20 c7 2e     	jsr	$2ec7 <textPrint>
    4e3c: a6 91        	ldx	$91                     ; 0x2091 <f256main+0x177d>
    4e3e: ca           	dex
    4e3f: e6 8f        	inc	$8f                     ; 0x208f <f256main+0x177b>
    4e41: d0 ea        	bne	$4e2d <textTitle+0x35>
    4e43: e6 90        	inc	$90                     ; 0x2090 <f256main+0x177c>
    4e45: d0 e6        	bne	$4e2d <textTitle+0x35>
    4e47: a2 1e        	ldx	#$1e
    4e49: 86 33        	stx	$33                     ; 0x2033 <f256main+0x171f>
    4e4b: 8e 14 d0     	stx	$d014                   ; 0xd014 <__heap_start+0x4358>
    4e4e: 9c 15 d0     	stz	$d015                   ; 0xd015 <__heap_start+0x4359>
    4e51: 64 34        	stz	$34                     ; 0x2034 <f256main+0x1720>
    4e53: 9c 16 d0     	stz	$d016                   ; 0xd016 <__heap_start+0x435a>
    4e56: 9c 17 d0     	stz	$d017                   ; 0xd017 <__heap_start+0x435b>
    4e59: a2 f0        	ldx	#$f0
    4e5b: 86 30        	stx	$30                     ; 0x2030 <f256main+0x171c>
    4e5d: a2 4b        	ldx	#$4b
    4e5f: 86 12        	stx	$12                     ; 0x2012 <f256main+0x16fe>
    4e61: a2 85        	ldx	#$85
    4e63: 86 13        	stx	$13                     ; 0x2013 <f256main+0x16ff>
    4e65: 20 27 56     	jsr	$5627 <printf>
    4e68: a2 10        	ldx	#$10
    4e6a: 86 30        	stx	$30                     ; 0x2030 <f256main+0x171c>
    4e6c: a2 2c        	ldx	#$2c
    4e6e: 86 33        	stx	$33                     ; 0x2033 <f256main+0x171f>
    4e70: 8e 14 d0     	stx	$d014                   ; 0xd014 <__heap_start+0x4358>
    4e73: 9c 15 d0     	stz	$d015                   ; 0xd015 <__heap_start+0x4359>
    4e76: 64 34        	stz	$34                     ; 0x2034 <f256main+0x1720>
    4e78: 9c 16 d0     	stz	$d016                   ; 0xd016 <__heap_start+0x435a>
    4e7b: 9c 17 d0     	stz	$d017                   ; 0xd017 <__heap_start+0x435b>
    4e7e: a0 16        	ldy	#$16
    4e80: 84 35        	sty	$35                     ; 0x2035 <f256main+0x1721>
    4e82: a2 35        	ldx	#$35
    4e84: 86 12        	stx	$12                     ; 0x2012 <f256main+0x16fe>
    4e86: a2 00        	ldx	#$0
    4e88: 86 13        	stx	$13                     ; 0x2013 <f256main+0x16ff>
    4e8a: 84 8f        	sty	$8f                     ; 0x208f <f256main+0x177b>
    4e8c: 20 c7 2e     	jsr	$2ec7 <textPrint>
    4e8f: a4 8f        	ldy	$8f                     ; 0x208f <f256main+0x177b>
    4e91: c8           	iny
    4e92: c0 1e        	cpy	#$1e
    4e94: d0 ea        	bne	$4e80 <textTitle+0x88>
    4e96: a2 21        	ldx	#$21
    4e98: 86 33        	stx	$33                     ; 0x2033 <f256main+0x171f>
    4e9a: 8e 14 d0     	stx	$d014                   ; 0xd014 <__heap_start+0x4358>
    4e9d: 9c 15 d0     	stz	$d015                   ; 0xd015 <__heap_start+0x4359>
    4ea0: a2 01        	ldx	#$1
    4ea2: 86 34        	stx	$34                     ; 0x2034 <f256main+0x1720>
    4ea4: 8e 16 d0     	stx	$d016                   ; 0xd016 <__heap_start+0x435a>
    4ea7: 9c 17 d0     	stz	$d017                   ; 0xd017 <__heap_start+0x435b>
    4eaa: a2 f0        	ldx	#$f0
    4eac: 86 30        	stx	$30                     ; 0x2030 <f256main+0x171c>
    4eae: a2 c6        	ldx	#$c6
    4eb0: 86 12        	stx	$12                     ; 0x2012 <f256main+0x16fe>
    4eb2: a2 85        	ldx	#$85
    4eb4: 86 13        	stx	$13                     ; 0x2013 <f256main+0x16ff>
    4eb6: 20 c7 2e     	jsr	$2ec7 <textPrint>
    4eb9: 9c 00 de     	stz	$de00                   ; 0xde00 <__heap_start+0x5144>
    4ebc: 9c 01 de     	stz	$de01                   ; 0xde01 <__heap_start+0x5145>
    4ebf: a2 04        	ldx	#$4
    4ec1: 8e 02 de     	stx	$de02                   ; 0xde02 <__heap_start+0x5146>
    4ec4: 9c 03 de     	stz	$de03                   ; 0xde03 <__heap_start+0x5147>
    4ec7: ae 10 de     	ldx	$de10                   ; 0xde10 <__heap_start+0x5154>
    4eca: 86 12        	stx	$12                     ; 0x2012 <f256main+0x16fe>
    4ecc: ae 11 de     	ldx	$de11                   ; 0xde11 <__heap_start+0x5155>
    4ecf: 86 13        	stx	$13                     ; 0x2013 <f256main+0x16ff>
    4ed1: ae 12 de     	ldx	$de12                   ; 0xde12 <__heap_start+0x5156>
    4ed4: ae 13 de     	ldx	$de13                   ; 0xde13 <__heap_start+0x5157>
    4ed7: 18           	clc
    4ed8: a9 00        	lda	#$0
    4eda: 65 12        	adc	$12                     ; 0x2012 <f256main+0x16fe>
    4edc: 85 12        	sta	$12                     ; 0x2012 <f256main+0x16fe>
    4ede: a9 d8        	lda	#$d8
    4ee0: 65 13        	adc	$13                     ; 0x2013 <f256main+0x16ff>
    4ee2: 85 13        	sta	$13                     ; 0x2013 <f256main+0x16ff>
    4ee4: a9 ff        	lda	#$ff
    4ee6: 92 12        	sta	($12)                   ; 0x2012 <f256main+0x16fe>
    4ee8: a0 01        	ldy	#$1
    4eea: 91 12        	sta	($12),y                 ; 0x2012 <f256main+0x16fe>
    4eec: c8           	iny
    4eed: 91 12        	sta	($12),y                 ; 0x2012 <f256main+0x16fe>
    4eef: c8           	iny
    4ef0: 91 12        	sta	($12),y                 ; 0x2012 <f256main+0x16fe>
    4ef2: a2 70        	ldx	#$70
    4ef4: 86 30        	stx	$30                     ; 0x2030 <f256main+0x171c>
    4ef6: 64 33        	stz	$33                     ; 0x2033 <f256main+0x171f>
    4ef8: 9c 14 d0     	stz	$d014                   ; 0xd014 <__heap_start+0x4358>
    4efb: 9c 15 d0     	stz	$d015                   ; 0xd015 <__heap_start+0x4359>
    4efe: a2 02        	ldx	#$2
    4f00: 86 34        	stx	$34                     ; 0x2034 <f256main+0x1720>
    4f02: 8e 16 d0     	stx	$d016                   ; 0xd016 <__heap_start+0x435a>
    4f05: 9c 17 d0     	stz	$d017                   ; 0xd017 <__heap_start+0x435b>
    4f08: a2 ee        	ldx	#$ee
    4f0a: 86 12        	stx	$12                     ; 0x2012 <f256main+0x16fe>
    4f0c: a2 7f        	ldx	#$7f
    4f0e: 86 13        	stx	$13                     ; 0x2013 <f256main+0x16ff>
    4f10: 20 c7 2e     	jsr	$2ec7 <textPrint>
    4f13: a6 8d        	ldx	$8d                     ; 0x208d <f256main+0x1779>
    4f15: 86 12        	stx	$12                     ; 0x2012 <f256main+0x16fe>
    4f17: a6 8e        	ldx	$8e                     ; 0x208e <f256main+0x177a>
    4f19: 86 13        	stx	$13                     ; 0x2013 <f256main+0x16ff>
    4f1b: 20 4e 4a     	jsr	$4a4e <channelTextMenu>
    4f1e: a2 40        	ldx	#$40
    4f20: 86 30        	stx	$30                     ; 0x2030 <f256main+0x171c>
    4f22: a0 09        	ldy	#$9
    4f24: b1 8d        	lda	($8d),y                 ; 0x208d <f256main+0x1779>
    4f26: 20 1e 4c     	jsr	$4c1e <updateTempoText>
    4f29: a2 2d        	ldx	#$2d
    4f2b: 86 33        	stx	$33                     ; 0x2033 <f256main+0x171f>
    4f2d: 8e 14 d0     	stx	$d014                   ; 0xd014 <__heap_start+0x4358>
    4f30: 9c 15 d0     	stz	$d015                   ; 0xd015 <__heap_start+0x4359>
    4f33: a2 1a        	ldx	#$1a
    4f35: 86 34        	stx	$34                     ; 0x2034 <f256main+0x1720>
    4f37: 8e 16 d0     	stx	$d016                   ; 0xd016 <__heap_start+0x435a>
    4f3a: 9c 17 d0     	stz	$d017                   ; 0xd017 <__heap_start+0x435b>
    4f3d: a2 ec        	ldx	#$ec
    4f3f: 86 12        	stx	$12                     ; 0x2012 <f256main+0x16fe>
    4f41: a2 7b        	ldx	#$7b
    4f43: 86 13        	stx	$13                     ; 0x2013 <f256main+0x16ff>
    4f45: 20 c7 2e     	jsr	$2ec7 <textPrint>
    4f48: a2 2d        	ldx	#$2d
    4f4a: 86 33        	stx	$33                     ; 0x2033 <f256main+0x171f>
    4f4c: 8e 14 d0     	stx	$d014                   ; 0xd014 <__heap_start+0x4358>
    4f4f: 9c 15 d0     	stz	$d015                   ; 0xd015 <__heap_start+0x4359>
    4f52: a2 1b        	ldx	#$1b
    4f54: 86 34        	stx	$34                     ; 0x2034 <f256main+0x1720>
    4f56: 8e 16 d0     	stx	$d016                   ; 0xd016 <__heap_start+0x435a>
    4f59: 9c 17 d0     	stz	$d017                   ; 0xd017 <__heap_start+0x435b>
    4f5c: a2 f3        	ldx	#$f3
    4f5e: 86 12        	stx	$12                     ; 0x2012 <f256main+0x16fe>
    4f60: a2 7c        	ldx	#$7c
    4f62: 86 13        	stx	$13                     ; 0x2013 <f256main+0x16ff>
    4f64: 20 c7 2e     	jsr	$2ec7 <textPrint>
    4f67: 20 b7 4b     	jsr	$4bb7 <refreshBeatTextChoice>
    4f6a: a2 40        	ldx	#$40
    4f6c: 86 30        	stx	$30                     ; 0x2030 <f256main+0x171c>
    4f6e: 64 33        	stz	$33                     ; 0x2033 <f256main+0x171f>
    4f70: 9c 14 d0     	stz	$d014                   ; 0xd014 <__heap_start+0x4358>
    4f73: 9c 15 d0     	stz	$d015                   ; 0xd015 <__heap_start+0x4359>
    4f76: a2 23        	ldx	#$23
    4f78: 86 34        	stx	$34                     ; 0x2034 <f256main+0x1720>
    4f7a: 8e 16 d0     	stx	$d016                   ; 0xd016 <__heap_start+0x435a>
    4f7d: 9c 17 d0     	stz	$d017                   ; 0xd017 <__heap_start+0x435b>
    4f80: a9 f8        	lda	#$f8
    4f82: 92 10        	sta	($10)                   ; 0x2010 <f256main+0x16fc>
    4f84: a0 01        	ldy	#$1
    4f86: a9 00        	lda	#$0
    4f88: 91 10        	sta	($10),y                 ; 0x2010 <f256main+0x16fc>
    4f8a: c8           	iny
    4f8b: a9 fb        	lda	#$fb
    4f8d: 91 10        	sta	($10),y                 ; 0x2010 <f256main+0x16fc>
    4f8f: c8           	iny
    4f90: a9 00        	lda	#$0
    4f92: 91 10        	sta	($10),y                 ; 0x2010 <f256main+0x16fc>
    4f94: a2 23        	ldx	#$23
    4f96: 86 12        	stx	$12                     ; 0x2012 <f256main+0x16fe>
    4f98: a2 82        	ldx	#$82
    4f9a: 86 13        	stx	$13                     ; 0x2013 <f256main+0x16ff>
    4f9c: 20 27 56     	jsr	$5627 <printf>
    4f9f: 64 33        	stz	$33                     ; 0x2033 <f256main+0x171f>
    4fa1: 9c 14 d0     	stz	$d014                   ; 0xd014 <__heap_start+0x4358>
    4fa4: 9c 15 d0     	stz	$d015                   ; 0xd015 <__heap_start+0x4359>
    4fa7: a2 24        	ldx	#$24
    4fa9: 86 34        	stx	$34                     ; 0x2034 <f256main+0x1720>
    4fab: 8e 16 d0     	stx	$d016                   ; 0xd016 <__heap_start+0x435a>
    4fae: 9c 17 d0     	stz	$d017                   ; 0xd017 <__heap_start+0x435b>
    4fb1: a9 f8        	lda	#$f8
    4fb3: 92 10        	sta	($10)                   ; 0x2010 <f256main+0x16fc>
    4fb5: a0 01        	ldy	#$1
    4fb7: a9 00        	lda	#$0
    4fb9: 91 10        	sta	($10),y                 ; 0x2010 <f256main+0x16fc>
    4fbb: c8           	iny
    4fbc: a9 fb        	lda	#$fb
    4fbe: 91 10        	sta	($10),y                 ; 0x2010 <f256main+0x16fc>
    4fc0: c8           	iny
    4fc1: a9 00        	lda	#$0
    4fc3: 91 10        	sta	($10),y                 ; 0x2010 <f256main+0x16fc>
    4fc5: c8           	iny
    4fc6: a9 f8        	lda	#$f8
    4fc8: 91 10        	sta	($10),y                 ; 0x2010 <f256main+0x16fc>
    4fca: c8           	iny
    4fcb: a9 00        	lda	#$0
    4fcd: 91 10        	sta	($10),y                 ; 0x2010 <f256main+0x16fc>
    4fcf: c8           	iny
    4fd0: a9 fb        	lda	#$fb
    4fd2: 91 10        	sta	($10),y                 ; 0x2010 <f256main+0x16fc>
    4fd4: c8           	iny
    4fd5: a9 00        	lda	#$0
    4fd7: 91 10        	sta	($10),y                 ; 0x2010 <f256main+0x16fc>
    4fd9: a2 48        	ldx	#$48
    4fdb: 86 12        	stx	$12                     ; 0x2012 <f256main+0x16fe>
    4fdd: a2 82        	ldx	#$82
    4fdf: 86 13        	stx	$13                     ; 0x2013 <f256main+0x16ff>
    4fe1: 20 27 56     	jsr	$5627 <printf>
    4fe4: 64 33        	stz	$33                     ; 0x2033 <f256main+0x171f>
    4fe6: 9c 14 d0     	stz	$d014                   ; 0xd014 <__heap_start+0x4358>
    4fe9: 9c 15 d0     	stz	$d015                   ; 0xd015 <__heap_start+0x4359>
    4fec: a2 28        	ldx	#$28
    4fee: 86 34        	stx	$34                     ; 0x2034 <f256main+0x1720>
    4ff0: 8e 16 d0     	stx	$d016                   ; 0xd016 <__heap_start+0x435a>
    4ff3: 9c 17 d0     	stz	$d017                   ; 0xd017 <__heap_start+0x435b>
    4ff6: a2 95        	ldx	#$95
    4ff8: 86 12        	stx	$12                     ; 0x2012 <f256main+0x16fe>
    4ffa: a2 86        	ldx	#$86
    4ffc: 86 13        	stx	$13                     ; 0x2013 <f256main+0x16ff>
    4ffe: 20 c7 2e     	jsr	$2ec7 <textPrint>
    5001: 64 33        	stz	$33                     ; 0x2033 <f256main+0x171f>
    5003: 9c 14 d0     	stz	$d014                   ; 0xd014 <__heap_start+0x4358>
    5006: 9c 15 d0     	stz	$d015                   ; 0xd015 <__heap_start+0x4359>
    5009: a2 29        	ldx	#$29
    500b: 86 34        	stx	$34                     ; 0x2034 <f256main+0x1720>
    500d: 8e 16 d0     	stx	$d016                   ; 0xd016 <__heap_start+0x435a>
    5010: 9c 17 d0     	stz	$d017                   ; 0xd017 <__heap_start+0x435b>
    5013: a9 f9        	lda	#$f9
    5015: 92 10        	sta	($10)                   ; 0x2010 <f256main+0x16fc>
    5017: a0 01        	ldy	#$1
    5019: a9 00        	lda	#$0
    501b: 91 10        	sta	($10),y                 ; 0x2010 <f256main+0x16fc>
    501d: c8           	iny
    501e: a9 fa        	lda	#$fa
    5020: 91 10        	sta	($10),y                 ; 0x2010 <f256main+0x16fc>
    5022: c8           	iny
    5023: a9 00        	lda	#$0
    5025: 91 10        	sta	($10),y                 ; 0x2010 <f256main+0x16fc>
    5027: a2 c4        	ldx	#$c4
    5029: 86 12        	stx	$12                     ; 0x2012 <f256main+0x16fe>
    502b: a2 84        	ldx	#$84
    502d: 86 13        	stx	$13                     ; 0x2013 <f256main+0x16ff>
    502f: 20 27 56     	jsr	$5627 <printf>
    5032: 64 33        	stz	$33                     ; 0x2033 <f256main+0x171f>
    5034: 9c 14 d0     	stz	$d014                   ; 0xd014 <__heap_start+0x4358>
    5037: 9c 15 d0     	stz	$d015                   ; 0xd015 <__heap_start+0x4359>
    503a: a2 2a        	ldx	#$2a
    503c: 86 34        	stx	$34                     ; 0x2034 <f256main+0x1720>
    503e: 8e 16 d0     	stx	$d016                   ; 0xd016 <__heap_start+0x435a>
    5041: 9c 17 d0     	stz	$d017                   ; 0xd017 <__heap_start+0x435b>
    5044: a0 02        	ldy	#$2
    5046: a9 fa        	lda	#$fa
    5048: 91 10        	sta	($10),y                 ; 0x2010 <f256main+0x16fc>
    504a: 3a           	dec
    504b: 92 10        	sta	($10)                   ; 0x2010 <f256main+0x16fc>
    504d: a0 04        	ldy	#$4
    504f: 91 10        	sta	($10),y                 ; 0x2010 <f256main+0x16fc>
    5051: a9 00        	lda	#$0
    5053: a0 01        	ldy	#$1
    5055: 91 10        	sta	($10),y                 ; 0x2010 <f256main+0x16fc>
    5057: a0 03        	ldy	#$3
    5059: 91 10        	sta	($10),y                 ; 0x2010 <f256main+0x16fc>
    505b: a0 05        	ldy	#$5
    505d: 91 10        	sta	($10),y                 ; 0x2010 <f256main+0x16fc>
    505f: c8           	iny
    5060: a9 fa        	lda	#$fa
    5062: 91 10        	sta	($10),y                 ; 0x2010 <f256main+0x16fc>
    5064: c8           	iny
    5065: a9 00        	lda	#$0
    5067: 91 10        	sta	($10),y                 ; 0x2010 <f256main+0x16fc>
    5069: a2 94        	ldx	#$94
    506b: 86 12        	stx	$12                     ; 0x2012 <f256main+0x16fe>
    506d: a2 82        	ldx	#$82
    506f: 86 13        	stx	$13                     ; 0x2013 <f256main+0x16ff>
    5071: 20 27 56     	jsr	$5627 <printf>
    5074: a2 40        	ldx	#$40
    5076: 86 30        	stx	$30                     ; 0x2030 <f256main+0x171c>
    5078: a2 05        	ldx	#$5
    507a: 86 33        	stx	$33                     ; 0x2033 <f256main+0x171f>
    507c: 8e 14 d0     	stx	$d014                   ; 0xd014 <__heap_start+0x4358>
    507f: 9c 15 d0     	stz	$d015                   ; 0xd015 <__heap_start+0x4359>
    5082: a2 39        	ldx	#$39
    5084: 86 34        	stx	$34                     ; 0x2034 <f256main+0x1720>
    5086: 8e 16 d0     	stx	$d016                   ; 0xd016 <__heap_start+0x435a>
    5089: 9c 17 d0     	stz	$d017                   ; 0xd017 <__heap_start+0x435b>
    508c: a2 90        	ldx	#$90
    508e: 86 12        	stx	$12                     ; 0x2012 <f256main+0x16fe>
    5090: a2 83        	ldx	#$83
    5092: 86 13        	stx	$13                     ; 0x2013 <f256main+0x16ff>
    5094: 20 c7 2e     	jsr	$2ec7 <textPrint>
    5097: a2 40        	ldx	#$40
    5099: 86 30        	stx	$30                     ; 0x2030 <f256main+0x171c>
    509b: a2 05        	ldx	#$5
    509d: 86 33        	stx	$33                     ; 0x2033 <f256main+0x171f>
    509f: 8e 14 d0     	stx	$d014                   ; 0xd014 <__heap_start+0x4358>
    50a2: 9c 15 d0     	stz	$d015                   ; 0xd015 <__heap_start+0x4359>
    50a5: a2 3a        	ldx	#$3a
    50a7: 86 34        	stx	$34                     ; 0x2034 <f256main+0x1720>
    50a9: 8e 16 d0     	stx	$d016                   ; 0xd016 <__heap_start+0x435a>
    50ac: 9c 17 d0     	stz	$d017                   ; 0xd017 <__heap_start+0x435b>
    50af: a2 39        	ldx	#$39
    50b1: 86 12        	stx	$12                     ; 0x2012 <f256main+0x16fe>
    50b3: a2 85        	ldx	#$85
    50b5: 86 13        	stx	$13                     ; 0x2013 <f256main+0x16ff>
    50b7: 20 c7 2e     	jsr	$2ec7 <textPrint>
    50ba: a6 8d        	ldx	$8d                     ; 0x208d <f256main+0x1779>
    50bc: 86 12        	stx	$12                     ; 0x2012 <f256main+0x16fe>
    50be: a6 8e        	ldx	$8e                     ; 0x208e <f256main+0x177a>
    50c0: 86 13        	stx	$13                     ; 0x2013 <f256main+0x16ff>
    50c2: 20 78 4c     	jsr	$4c78 <showChipChoiceText>
    50c5: a2 40        	ldx	#$40
    50c7: 86 30        	stx	$30                     ; 0x2030 <f256main+0x171c>
    50c9: a2 3c        	ldx	#$3c
    50cb: 86 33        	stx	$33                     ; 0x2033 <f256main+0x171f>
    50cd: 8e 14 d0     	stx	$d014                   ; 0xd014 <__heap_start+0x4358>
    50d0: 9c 15 d0     	stz	$d015                   ; 0xd015 <__heap_start+0x4359>
    50d3: a2 03        	ldx	#$3
    50d5: 86 34        	stx	$34                     ; 0x2034 <f256main+0x1720>
    50d7: 8e 16 d0     	stx	$d016                   ; 0xd016 <__heap_start+0x435a>
    50da: 9c 17 d0     	stz	$d017                   ; 0xd017 <__heap_start+0x435b>
    50dd: a2 8c        	ldx	#$8c
    50df: 86 12        	stx	$12                     ; 0x2012 <f256main+0x16fe>
    50e1: a2 86        	ldx	#$86
    50e3: 86 13        	stx	$13                     ; 0x2013 <f256main+0x16ff>
    50e5: 20 c7 2e     	jsr	$2ec7 <textPrint>
    50e8: a9 b3        	lda	#$b3
    50ea: 92 10        	sta	($10)                   ; 0x2010 <f256main+0x16fc>
    50ec: a0 01        	ldy	#$1
    50ee: a9 00        	lda	#$0
    50f0: 91 10        	sta	($10),y                 ; 0x2010 <f256main+0x16fc>
    50f2: a2 69        	ldx	#$69
    50f4: 86 12        	stx	$12                     ; 0x2012 <f256main+0x16fe>
    50f6: a2 84        	ldx	#$84
    50f8: 86 13        	stx	$13                     ; 0x2013 <f256main+0x16ff>
    50fa: 20 27 56     	jsr	$5627 <printf>
    50fd: a2 3c        	ldx	#$3c
    50ff: 86 33        	stx	$33                     ; 0x2033 <f256main+0x171f>
    5101: 8e 14 d0     	stx	$d014                   ; 0xd014 <__heap_start+0x4358>
    5104: 9c 15 d0     	stz	$d015                   ; 0xd015 <__heap_start+0x4359>
    5107: a2 04        	ldx	#$4
    5109: 86 34        	stx	$34                     ; 0x2034 <f256main+0x1720>
    510b: 8e 16 d0     	stx	$d016                   ; 0xd016 <__heap_start+0x435a>
    510e: 9c 17 d0     	stz	$d017                   ; 0xd017 <__heap_start+0x435b>
    5111: a2 21        	ldx	#$21
    5113: 86 12        	stx	$12                     ; 0x2012 <f256main+0x16fe>
    5115: a2 87        	ldx	#$87
    5117: 86 13        	stx	$13                     ; 0x2013 <f256main+0x16ff>
    5119: 20 c7 2e     	jsr	$2ec7 <textPrint>
    511c: a9 b3        	lda	#$b3
    511e: 92 10        	sta	($10)                   ; 0x2010 <f256main+0x16fc>
    5120: a0 01        	ldy	#$1
    5122: a9 00        	lda	#$0
    5124: 91 10        	sta	($10),y                 ; 0x2010 <f256main+0x16fc>
    5126: a2 69        	ldx	#$69
    5128: 86 12        	stx	$12                     ; 0x2012 <f256main+0x16fe>
    512a: a2 84        	ldx	#$84
    512c: 86 13        	stx	$13                     ; 0x2013 <f256main+0x16ff>
    512e: 20 27 56     	jsr	$5627 <printf>
    5131: a2 3c        	ldx	#$3c
    5133: 86 33        	stx	$33                     ; 0x2033 <f256main+0x171f>
    5135: 8e 14 d0     	stx	$d014                   ; 0xd014 <__heap_start+0x4358>
    5138: 9c 15 d0     	stz	$d015                   ; 0xd015 <__heap_start+0x4359>
    513b: a2 05        	ldx	#$5
    513d: 86 34        	stx	$34                     ; 0x2034 <f256main+0x1720>
    513f: 8e 16 d0     	stx	$d016                   ; 0xd016 <__heap_start+0x435a>
    5142: 9c 17 d0     	stz	$d017                   ; 0xd017 <__heap_start+0x435b>
    5145: a2 4e        	ldx	#$4e
    5147: 86 12        	stx	$12                     ; 0x2012 <f256main+0x16fe>
    5149: a2 81        	ldx	#$81
    514b: 86 13        	stx	$13                     ; 0x2013 <f256main+0x16ff>
    514d: 20 c7 2e     	jsr	$2ec7 <textPrint>
    5150: a9 b3        	lda	#$b3
    5152: 92 10        	sta	($10)                   ; 0x2010 <f256main+0x16fc>
    5154: a0 01        	ldy	#$1
    5156: a9 00        	lda	#$0
    5158: 91 10        	sta	($10),y                 ; 0x2010 <f256main+0x16fc>
    515a: a2 69        	ldx	#$69
    515c: 86 12        	stx	$12                     ; 0x2012 <f256main+0x16fe>
    515e: a2 84        	ldx	#$84
    5160: 86 13        	stx	$13                     ; 0x2013 <f256main+0x16ff>
    5162: 20 27 56     	jsr	$5627 <printf>
    5165: a2 3c        	ldx	#$3c
    5167: 86 33        	stx	$33                     ; 0x2033 <f256main+0x171f>
    5169: 8e 14 d0     	stx	$d014                   ; 0xd014 <__heap_start+0x4358>
    516c: 9c 15 d0     	stz	$d015                   ; 0xd015 <__heap_start+0x4359>
    516f: a2 06        	ldx	#$6
    5171: 86 34        	stx	$34                     ; 0x2034 <f256main+0x1720>
    5173: 8e 16 d0     	stx	$d016                   ; 0xd016 <__heap_start+0x435a>
    5176: 9c 17 d0     	stz	$d017                   ; 0xd017 <__heap_start+0x435b>
    5179: a2 da        	ldx	#$da
    517b: 86 12        	stx	$12                     ; 0x2012 <f256main+0x16fe>
    517d: a2 7d        	ldx	#$7d
    517f: 86 13        	stx	$13                     ; 0x2013 <f256main+0x16ff>
    5181: 20 c7 2e     	jsr	$2ec7 <textPrint>
    5184: a9 b3        	lda	#$b3
    5186: 92 10        	sta	($10)                   ; 0x2010 <f256main+0x16fc>
    5188: a0 01        	ldy	#$1
    518a: a9 00        	lda	#$0
    518c: 91 10        	sta	($10),y                 ; 0x2010 <f256main+0x16fc>
    518e: a2 69        	ldx	#$69
    5190: 86 12        	stx	$12                     ; 0x2012 <f256main+0x16fe>
    5192: a2 84        	ldx	#$84
    5194: 86 13        	stx	$13                     ; 0x2013 <f256main+0x16ff>
    5196: 20 27 56     	jsr	$5627 <printf>
    5199: a2 3c        	ldx	#$3c
    519b: 86 33        	stx	$33                     ; 0x2033 <f256main+0x171f>
    519d: 8e 14 d0     	stx	$d014                   ; 0xd014 <__heap_start+0x4358>
    51a0: 9c 15 d0     	stz	$d015                   ; 0xd015 <__heap_start+0x4359>
    51a3: a2 07        	ldx	#$7
    51a5: 86 34        	stx	$34                     ; 0x2034 <f256main+0x1720>
    51a7: 8e 16 d0     	stx	$d016                   ; 0xd016 <__heap_start+0x435a>
    51aa: 9c 17 d0     	stz	$d017                   ; 0xd017 <__heap_start+0x435b>
    51ad: a2 57        	ldx	#$57
    51af: 86 12        	stx	$12                     ; 0x2012 <f256main+0x16fe>
    51b1: a2 81        	ldx	#$81
    51b3: 86 13        	stx	$13                     ; 0x2013 <f256main+0x16ff>
    51b5: 20 c7 2e     	jsr	$2ec7 <textPrint>
    51b8: a9 b3        	lda	#$b3
    51ba: 92 10        	sta	($10)                   ; 0x2010 <f256main+0x16fc>
    51bc: a0 01        	ldy	#$1
    51be: a9 00        	lda	#$0
    51c0: 91 10        	sta	($10),y                 ; 0x2010 <f256main+0x16fc>
    51c2: a2 69        	ldx	#$69
    51c4: 86 12        	stx	$12                     ; 0x2012 <f256main+0x16fe>
    51c6: a2 84        	ldx	#$84
    51c8: 86 13        	stx	$13                     ; 0x2013 <f256main+0x16ff>
    51ca: 20 27 56     	jsr	$5627 <printf>
    51cd: 18           	clc
    51ce: a5 10        	lda	$10                     ; 0x2010 <f256main+0x16fc>
    51d0: 69 08        	adc	#$8
    51d2: 85 10        	sta	$10                     ; 0x2010 <f256main+0x16fc>
    51d4: a5 11        	lda	$11                     ; 0x2011 <f256main+0x16fd>
    51d6: 69 00        	adc	#$0
    51d8: 85 11        	sta	$11                     ; 0x2011 <f256main+0x16fd>
    51da: 60           	rts

000051db <highLightInstChoice>:
    51db: 48           	pha
    51dc: 18           	clc
    51dd: a5 10        	lda	$10                     ; 0x2010 <f256main+0x16fc>
    51df: 69 fc        	adc	#$fc
    51e1: 85 10        	sta	$10                     ; 0x2010 <f256main+0x16fc>
    51e3: a5 11        	lda	$11                     ; 0x2011 <f256main+0x16fd>
    51e5: 69 ff        	adc	#$ff
    51e7: 85 11        	sta	$11                     ; 0x2011 <f256main+0x16fd>
    51e9: 68           	pla
    51ea: a6 12        	ldx	$12                     ; 0x2012 <f256main+0x16fe>
    51ec: 86 90        	stx	$90                     ; 0x2090 <f256main+0x177c>
    51ee: a6 13        	ldx	$13                     ; 0x2013 <f256main+0x16ff>
    51f0: 86 91        	stx	$91                     ; 0x2091 <f256main+0x177d>
    51f2: aa           	tax
    51f3: f0 04        	beq	$51f9 <highLightInstChoice+0x1e>
    51f5: a2 90        	ldx	#$90
    51f7: 80 02        	bra	$51fb <highLightInstChoice+0x20>
    51f9: a2 50        	ldx	#$50
    51fb: 86 30        	stx	$30                     ; 0x2030 <f256main+0x171c>
    51fd: a0 06        	ldy	#$6
    51ff: b1 90        	lda	($90),y                 ; 0x2090 <f256main+0x177c>
    5201: f0 03        	beq	$5206 <highLightInstChoice+0x2b>
    5203: 4c a1 52     	jmp	$52a1 <highLightInstChoice+0xc6>
    5206: b2 90        	lda	($90)                   ; 0x2090 <f256main+0x177c>
    5208: 85 12        	sta	$12                     ; 0x2012 <f256main+0x16fe>
    520a: a0 01        	ldy	#$1
    520c: b1 90        	lda	($90),y                 ; 0x2090 <f256main+0x177c>
    520e: 85 13        	sta	$13                     ; 0x2013 <f256main+0x16ff>
    5210: a0 03        	ldy	#$3
    5212: b1 90        	lda	($90),y                 ; 0x2090 <f256main+0x177c>
    5214: a8           	tay
    5215: b1 12        	lda	($12),y                 ; 0x2012 <f256main+0x16fe>
    5217: a2 92        	ldx	#$92
    5219: a0 00        	ldy	#$0
    521b: 86 12        	stx	$12                     ; 0x2012 <f256main+0x16fe>
    521d: 84 13        	sty	$13                     ; 0x2013 <f256main+0x16ff>
    521f: a2 03        	ldx	#$3
    5221: 20 b8 68     	jsr	$68b8 <__udivmodqi4>
    5224: 85 93        	sta	$93                     ; 0x2093 <f256main+0x177f>
    5226: a5 92        	lda	$92                     ; 0x2092 <f256main+0x177e>
    5228: a2 19        	ldx	#$19
    522a: 20 a0 64     	jsr	$64a0 <__mulqi3>
    522d: 18           	clc
    522e: 69 02        	adc	#$2
    5230: a6 93        	ldx	$93                     ; 0x2093 <f256main+0x177f>
    5232: e8           	inx
    5233: 85 33        	sta	$33                     ; 0x2033 <f256main+0x171f>
    5235: 8d 14 d0     	sta	$d014                   ; 0xd014 <__heap_start+0x4358>
    5238: 9c 15 d0     	stz	$d015                   ; 0xd015 <__heap_start+0x4359>
    523b: 86 34        	stx	$34                     ; 0x2034 <f256main+0x1720>
    523d: 8e 16 d0     	stx	$d016                   ; 0xd016 <__heap_start+0x435a>
    5240: 9c 17 d0     	stz	$d017                   ; 0xd017 <__heap_start+0x435b>
    5243: b2 90        	lda	($90)                   ; 0x2090 <f256main+0x177c>
    5245: 85 12        	sta	$12                     ; 0x2012 <f256main+0x16fe>
    5247: a0 01        	ldy	#$1
    5249: b1 90        	lda	($90),y                 ; 0x2090 <f256main+0x177c>
    524b: 85 13        	sta	$13                     ; 0x2013 <f256main+0x16ff>
    524d: a0 03        	ldy	#$3
    524f: b1 90        	lda	($90),y                 ; 0x2090 <f256main+0x177c>
    5251: a8           	tay
    5252: b1 12        	lda	($12),y                 ; 0x2012 <f256main+0x16fe>
    5254: aa           	tax
    5255: 0a           	asl
    5256: 85 12        	sta	$12                     ; 0x2012 <f256main+0x16fe>
    5258: a9 00        	lda	#$0
    525a: 2a           	rol
    525b: 85 13        	sta	$13                     ; 0x2013 <f256main+0x16ff>
    525d: a9 7d        	lda	#$7d
    525f: 18           	clc
    5260: 65 12        	adc	$12                     ; 0x2012 <f256main+0x16fe>
    5262: 85 12        	sta	$12                     ; 0x2012 <f256main+0x16fe>
    5264: a9 8b        	lda	#$8b
    5266: 65 13        	adc	$13                     ; 0x2013 <f256main+0x16ff>
    5268: 85 13        	sta	$13                     ; 0x2013 <f256main+0x16ff>
    526a: b2 12        	lda	($12)                   ; 0x2012 <f256main+0x16fe>
    526c: 85 15        	sta	$15                     ; 0x2015 <f256main+0x1701>
    526e: a0 01        	ldy	#$1
    5270: b1 12        	lda	($12),y                 ; 0x2012 <f256main+0x16fe>
    5272: 85 14        	sta	$14                     ; 0x2014 <f256main+0x1700>
    5274: a5 10        	lda	$10                     ; 0x2010 <f256main+0x16fc>
    5276: 18           	clc
    5277: 69 02        	adc	#$2
    5279: 85 12        	sta	$12                     ; 0x2012 <f256main+0x16fe>
    527b: a5 11        	lda	$11                     ; 0x2011 <f256main+0x16fd>
    527d: 69 00        	adc	#$0
    527f: 85 13        	sta	$13                     ; 0x2013 <f256main+0x16ff>
    5281: c8           	iny
    5282: a5 15        	lda	$15                     ; 0x2015 <f256main+0x1701>
    5284: 91 10        	sta	($10),y                 ; 0x2010 <f256main+0x16fc>
    5286: 8a           	txa
    5287: 92 10        	sta	($10)                   ; 0x2010 <f256main+0x16fc>
    5289: a9 00        	lda	#$0
    528b: 88           	dey
    528c: 91 10        	sta	($10),y                 ; 0x2010 <f256main+0x16fc>
    528e: a5 14        	lda	$14                     ; 0x2014 <f256main+0x1700>
    5290: 91 12        	sta	($12),y                 ; 0x2012 <f256main+0x16fe>
    5292: a2 c5        	ldx	#$c5
    5294: 86 12        	stx	$12                     ; 0x2012 <f256main+0x16fe>
    5296: a2 7c        	ldx	#$7c
    5298: 86 13        	stx	$13                     ; 0x2013 <f256main+0x16ff>
    529a: 20 27 56     	jsr	$5627 <printf>
    529d: a0 06        	ldy	#$6
    529f: b1 90        	lda	($90),y                 ; 0x2090 <f256main+0x177c>
    52a1: c9 01        	cmp	#$1
    52a3: f0 03        	beq	$52a8 <highLightInstChoice+0xcd>
    52a5: 4c 10 53     	jmp	$5310 <highLightInstChoice+0x135>
    52a8: a0 04        	ldy	#$4
    52aa: 18           	clc
    52ab: a9 02        	lda	#$2
    52ad: 71 90        	adc	($90),y                 ; 0x2090 <f256main+0x177c>
    52af: a2 02        	ldx	#$2
    52b1: 86 33        	stx	$33                     ; 0x2033 <f256main+0x171f>
    52b3: 8e 14 d0     	stx	$d014                   ; 0xd014 <__heap_start+0x4358>
    52b6: 9c 15 d0     	stz	$d015                   ; 0xd015 <__heap_start+0x4359>
    52b9: 85 34        	sta	$34                     ; 0x2034 <f256main+0x1720>
    52bb: 8d 16 d0     	sta	$d016                   ; 0xd016 <__heap_start+0x435a>
    52be: 9c 17 d0     	stz	$d017                   ; 0xd017 <__heap_start+0x435b>
    52c1: b1 90        	lda	($90),y                 ; 0x2090 <f256main+0x177c>
    52c3: aa           	tax
    52c4: 0a           	asl
    52c5: 85 12        	sta	$12                     ; 0x2012 <f256main+0x16fe>
    52c7: a9 00        	lda	#$0
    52c9: 2a           	rol
    52ca: 85 13        	sta	$13                     ; 0x2013 <f256main+0x16ff>
    52cc: a9 7d        	lda	#$7d
    52ce: 18           	clc
    52cf: 65 12        	adc	$12                     ; 0x2012 <f256main+0x16fe>
    52d1: 85 12        	sta	$12                     ; 0x2012 <f256main+0x16fe>
    52d3: a9 8c        	lda	#$8c
    52d5: 65 13        	adc	$13                     ; 0x2013 <f256main+0x16ff>
    52d7: a0 01        	ldy	#$1
    52d9: 85 13        	sta	$13                     ; 0x2013 <f256main+0x16ff>
    52db: b2 12        	lda	($12)                   ; 0x2012 <f256main+0x16fe>
    52dd: 85 15        	sta	$15                     ; 0x2015 <f256main+0x1701>
    52df: b1 12        	lda	($12),y                 ; 0x2012 <f256main+0x16fe>
    52e1: 85 14        	sta	$14                     ; 0x2014 <f256main+0x1700>
    52e3: a5 10        	lda	$10                     ; 0x2010 <f256main+0x16fc>
    52e5: 18           	clc
    52e6: 69 02        	adc	#$2
    52e8: 85 12        	sta	$12                     ; 0x2012 <f256main+0x16fe>
    52ea: a5 11        	lda	$11                     ; 0x2011 <f256main+0x16fd>
    52ec: 69 00        	adc	#$0
    52ee: 85 13        	sta	$13                     ; 0x2013 <f256main+0x16ff>
    52f0: c8           	iny
    52f1: a5 15        	lda	$15                     ; 0x2015 <f256main+0x1701>
    52f3: 91 10        	sta	($10),y                 ; 0x2010 <f256main+0x16fc>
    52f5: 8a           	txa
    52f6: 92 10        	sta	($10)                   ; 0x2010 <f256main+0x16fc>
    52f8: a9 00        	lda	#$0
    52fa: 88           	dey
    52fb: 91 10        	sta	($10),y                 ; 0x2010 <f256main+0x16fc>
    52fd: a5 14        	lda	$14                     ; 0x2014 <f256main+0x1700>
    52ff: 91 12        	sta	($12),y                 ; 0x2012 <f256main+0x16fe>
    5301: a2 c5        	ldx	#$c5
    5303: 86 12        	stx	$12                     ; 0x2012 <f256main+0x16fe>
    5305: a2 7c        	ldx	#$7c
    5307: 86 13        	stx	$13                     ; 0x2013 <f256main+0x16ff>
    5309: 20 27 56     	jsr	$5627 <printf>
    530c: a0 06        	ldy	#$6
    530e: b1 90        	lda	($90),y                 ; 0x2090 <f256main+0x177c>
    5310: c9 03        	cmp	#$3
    5312: f0 03        	beq	$5317 <highLightInstChoice+0x13c>
    5314: 4c 7b 53     	jmp	$537b <highLightInstChoice+0x1a0>
    5317: a0 05        	ldy	#$5
    5319: 18           	clc
    531a: a9 02        	lda	#$2
    531c: 71 90        	adc	($90),y                 ; 0x2090 <f256main+0x177c>
    531e: a2 02        	ldx	#$2
    5320: 86 33        	stx	$33                     ; 0x2033 <f256main+0x171f>
    5322: 8e 14 d0     	stx	$d014                   ; 0xd014 <__heap_start+0x4358>
    5325: 9c 15 d0     	stz	$d015                   ; 0xd015 <__heap_start+0x4359>
    5328: 85 34        	sta	$34                     ; 0x2034 <f256main+0x1720>
    532a: 8d 16 d0     	sta	$d016                   ; 0xd016 <__heap_start+0x435a>
    532d: 9c 17 d0     	stz	$d017                   ; 0xd017 <__heap_start+0x435b>
    5330: b1 90        	lda	($90),y                 ; 0x2090 <f256main+0x177c>
    5332: aa           	tax
    5333: 0a           	asl
    5334: 85 12        	sta	$12                     ; 0x2012 <f256main+0x16fe>
    5336: a9 00        	lda	#$0
    5338: 2a           	rol
    5339: 85 13        	sta	$13                     ; 0x2013 <f256main+0x16ff>
    533b: a9 87        	lda	#$87
    533d: 18           	clc
    533e: 65 12        	adc	$12                     ; 0x2012 <f256main+0x16fe>
    5340: 85 12        	sta	$12                     ; 0x2012 <f256main+0x16fe>
    5342: a9 8c        	lda	#$8c
    5344: 65 13        	adc	$13                     ; 0x2013 <f256main+0x16ff>
    5346: a0 01        	ldy	#$1
    5348: 85 13        	sta	$13                     ; 0x2013 <f256main+0x16ff>
    534a: b2 12        	lda	($12)                   ; 0x2012 <f256main+0x16fe>
    534c: 85 15        	sta	$15                     ; 0x2015 <f256main+0x1701>
    534e: b1 12        	lda	($12),y                 ; 0x2012 <f256main+0x16fe>
    5350: 85 14        	sta	$14                     ; 0x2014 <f256main+0x1700>
    5352: a5 10        	lda	$10                     ; 0x2010 <f256main+0x16fc>
    5354: 18           	clc
    5355: 69 02        	adc	#$2
    5357: 85 12        	sta	$12                     ; 0x2012 <f256main+0x16fe>
    5359: a5 11        	lda	$11                     ; 0x2011 <f256main+0x16fd>
    535b: 69 00        	adc	#$0
    535d: 85 13        	sta	$13                     ; 0x2013 <f256main+0x16ff>
    535f: c8           	iny
    5360: a5 15        	lda	$15                     ; 0x2015 <f256main+0x1701>
    5362: 91 10        	sta	($10),y                 ; 0x2010 <f256main+0x16fc>
    5364: 8a           	txa
    5365: 92 10        	sta	($10)                   ; 0x2010 <f256main+0x16fc>
    5367: a9 00        	lda	#$0
    5369: 88           	dey
    536a: 91 10        	sta	($10),y                 ; 0x2010 <f256main+0x16fc>
    536c: a5 14        	lda	$14                     ; 0x2014 <f256main+0x1700>
    536e: 91 12        	sta	($12),y                 ; 0x2012 <f256main+0x16fe>
    5370: a2 c5        	ldx	#$c5
    5372: 86 12        	stx	$12                     ; 0x2012 <f256main+0x16fe>
    5374: a2 7c        	ldx	#$7c
    5376: 86 13        	stx	$13                     ; 0x2013 <f256main+0x16ff>
    5378: 20 27 56     	jsr	$5627 <printf>
    537b: 18           	clc
    537c: a5 10        	lda	$10                     ; 0x2010 <f256main+0x16fc>
    537e: 69 04        	adc	#$4
    5380: 85 10        	sta	$10                     ; 0x2010 <f256main+0x16fc>
    5382: a5 11        	lda	$11                     ; 0x2011 <f256main+0x16fd>
    5384: 69 00        	adc	#$0
    5386: 85 11        	sta	$11                     ; 0x2011 <f256main+0x16fd>
    5388: 60           	rts

00005389 <modalMoveUp>:
    5389: 85 8f        	sta	$8f                     ; 0x208f <f256main+0x177b>
    538b: a6 12        	ldx	$12                     ; 0x2012 <f256main+0x16fe>
    538d: 86 8d        	stx	$8d                     ; 0x208d <f256main+0x1779>
    538f: a6 13        	ldx	$13                     ; 0x2013 <f256main+0x16ff>
    5391: 86 8e        	stx	$8e                     ; 0x208e <f256main+0x177a>
    5393: a9 00        	lda	#$0
    5395: 20 db 51     	jsr	$51db <highLightInstChoice>
    5398: a0 06        	ldy	#$6
    539a: b1 8d        	lda	($8d),y                 ; 0x208d <f256main+0x1779>
    539c: d0 24        	bne	$53c2 <modalMoveUp+0x39>
    539e: a2 e5        	ldx	#$e5
    53a0: a5 8f        	lda	$8f                     ; 0x208f <f256main+0x177b>
    53a2: 20 a0 64     	jsr	$64a0 <__mulqi3>
    53a5: aa           	tax
    53a6: b2 8d        	lda	($8d)                   ; 0x208d <f256main+0x1779>
    53a8: 85 12        	sta	$12                     ; 0x2012 <f256main+0x16fe>
    53aa: a0 01        	ldy	#$1
    53ac: b1 8d        	lda	($8d),y                 ; 0x208d <f256main+0x1779>
    53ae: 85 13        	sta	$13                     ; 0x2013 <f256main+0x16ff>
    53b0: a0 03        	ldy	#$3
    53b2: b1 8d        	lda	($8d),y                 ; 0x208d <f256main+0x1779>
    53b4: a8           	tay
    53b5: 18           	clc
    53b6: 8a           	txa
    53b7: 71 12        	adc	($12),y                 ; 0x2012 <f256main+0x16fe>
    53b9: 18           	clc
    53ba: 69 fd        	adc	#$fd
    53bc: 91 12        	sta	($12),y                 ; 0x2012 <f256main+0x16fe>
    53be: a0 06        	ldy	#$6
    53c0: b1 8d        	lda	($8d),y                 ; 0x208d <f256main+0x1779>
    53c2: c9 01        	cmp	#$1
    53c4: f0 08        	beq	$53ce <modalMoveUp+0x45>
    53c6: c9 03        	cmp	#$3
    53c8: d0 0b        	bne	$53d5 <modalMoveUp+0x4c>
    53ca: a0 05        	ldy	#$5
    53cc: 80 02        	bra	$53d0 <modalMoveUp+0x47>
    53ce: a0 04        	ldy	#$4
    53d0: b1 8d        	lda	($8d),y                 ; 0x208d <f256main+0x1779>
    53d2: 3a           	dec
    53d3: 91 8d        	sta	($8d),y                 ; 0x208d <f256main+0x1779>
    53d5: a9 01        	lda	#$1
    53d7: a6 8d        	ldx	$8d                     ; 0x208d <f256main+0x1779>
    53d9: 86 12        	stx	$12                     ; 0x2012 <f256main+0x16fe>
    53db: a6 8e        	ldx	$8e                     ; 0x208e <f256main+0x177a>
    53dd: 86 13        	stx	$13                     ; 0x2013 <f256main+0x16ff>
    53df: 4c db 51     	jmp	$51db <highLightInstChoice>

000053e2 <modalMoveDown>:
    53e2: 85 8f        	sta	$8f                     ; 0x208f <f256main+0x177b>
    53e4: a6 12        	ldx	$12                     ; 0x2012 <f256main+0x16fe>
    53e6: 86 8d        	stx	$8d                     ; 0x208d <f256main+0x1779>
    53e8: a6 13        	ldx	$13                     ; 0x2013 <f256main+0x16ff>
    53ea: 86 8e        	stx	$8e                     ; 0x208e <f256main+0x177a>
    53ec: a9 00        	lda	#$0
    53ee: 20 db 51     	jsr	$51db <highLightInstChoice>
    53f1: a0 06        	ldy	#$6
    53f3: b1 8d        	lda	($8d),y                 ; 0x208d <f256main+0x1779>
    53f5: d0 24        	bne	$541b <modalMoveDown+0x39>
    53f7: a2 1b        	ldx	#$1b
    53f9: a5 8f        	lda	$8f                     ; 0x208f <f256main+0x177b>
    53fb: 20 a0 64     	jsr	$64a0 <__mulqi3>
    53fe: aa           	tax
    53ff: b2 8d        	lda	($8d)                   ; 0x208d <f256main+0x1779>
    5401: 85 12        	sta	$12                     ; 0x2012 <f256main+0x16fe>
    5403: a0 01        	ldy	#$1
    5405: b1 8d        	lda	($8d),y                 ; 0x208d <f256main+0x1779>
    5407: 85 13        	sta	$13                     ; 0x2013 <f256main+0x16ff>
    5409: a0 03        	ldy	#$3
    540b: b1 8d        	lda	($8d),y                 ; 0x208d <f256main+0x1779>
    540d: a8           	tay
    540e: 18           	clc
    540f: 8a           	txa
    5410: 71 12        	adc	($12),y                 ; 0x2012 <f256main+0x16fe>
    5412: 18           	clc
    5413: 69 03        	adc	#$3
    5415: 91 12        	sta	($12),y                 ; 0x2012 <f256main+0x16fe>
    5417: a0 06        	ldy	#$6
    5419: b1 8d        	lda	($8d),y                 ; 0x208d <f256main+0x1779>
    541b: c9 01        	cmp	#$1
    541d: f0 08        	beq	$5427 <modalMoveDown+0x45>
    541f: c9 03        	cmp	#$3
    5421: d0 0b        	bne	$542e <modalMoveDown+0x4c>
    5423: a0 05        	ldy	#$5
    5425: 80 02        	bra	$5429 <modalMoveDown+0x47>
    5427: a0 04        	ldy	#$4
    5429: b1 8d        	lda	($8d),y                 ; 0x208d <f256main+0x1779>
    542b: 1a           	inc
    542c: 91 8d        	sta	($8d),y                 ; 0x208d <f256main+0x1779>
    542e: a9 01        	lda	#$1
    5430: a6 8d        	ldx	$8d                     ; 0x208d <f256main+0x1779>
    5432: 86 12        	stx	$12                     ; 0x2012 <f256main+0x16fe>
    5434: a6 8e        	ldx	$8e                     ; 0x208e <f256main+0x177a>
    5436: 86 13        	stx	$13                     ; 0x2013 <f256main+0x16ff>
    5438: 4c db 51     	jmp	$51db <highLightInstChoice>

0000543b <exit>:
    543b: 20 1b 03     	jsr	$31b <_fini>
    543e: 80 fe        	bra	$543e <exit+0x3>

00005440 <_ZN12_GLOBAL__N_13putEcP6Status>:
    5440: 85 18        	sta	$18                     ; 0x2018 <f256main+0x1704>
    5442: a6 13        	ldx	$13                     ; 0x2013 <f256main+0x16ff>
    5444: 18           	clc
    5445: a5 12        	lda	$12                     ; 0x2012 <f256main+0x16fe>
    5447: 69 05        	adc	#$5
    5449: a8           	tay
    544a: a5 13        	lda	$13                     ; 0x2013 <f256main+0x16ff>
    544c: 86 15        	stx	$15                     ; 0x2015 <f256main+0x1701>
    544e: 69 00        	adc	#$0
    5450: 18           	clc
    5451: 84 16        	sty	$16                     ; 0x2016 <f256main+0x1702>
    5453: a0 05        	ldy	#$5
    5455: 85 17        	sta	$17                     ; 0x2017 <f256main+0x1703>
    5457: b1 12        	lda	($12),y                 ; 0x2012 <f256main+0x16fe>
    5459: aa           	tax
    545a: a5 12        	lda	$12                     ; 0x2012 <f256main+0x16fe>
    545c: 69 03        	adc	#$3
    545e: 85 14        	sta	$14                     ; 0x2014 <f256main+0x1700>
    5460: a5 15        	lda	$15                     ; 0x2015 <f256main+0x1701>
    5462: 69 00        	adc	#$0
    5464: 85 15        	sta	$15                     ; 0x2015 <f256main+0x1701>
    5466: a0 01        	ldy	#$1
    5468: b1 16        	lda	($16),y                 ; 0x2016 <f256main+0x1702>
    546a: d1 14        	cmp	($14),y                 ; 0x2014 <f256main+0x1700>
    546c: d0 11        	bne	$547f <_ZN12_GLOBAL__N_13putEcP6Status+0x3f>
    546e: a0 03        	ldy	#$3
    5470: 85 17        	sta	$17                     ; 0x2017 <f256main+0x1703>
    5472: b1 12        	lda	($12),y                 ; 0x2012 <f256main+0x16fe>
    5474: 85 14        	sta	$14                     ; 0x2014 <f256main+0x1700>
    5476: 86 16        	stx	$16                     ; 0x2016 <f256main+0x1702>
    5478: e4 14        	cpx	$14                     ; 0x2014 <f256main+0x1700>
    547a: 90 0e        	bcc	$548a <_ZN12_GLOBAL__N_13putEcP6Status+0x4a>
    547c: 4c f3 54     	jmp	$54f3 <_ZN12_GLOBAL__N_13putEcP6Status+0xb3>
    547f: 86 16        	stx	$16                     ; 0x2016 <f256main+0x1702>
    5481: d1 14        	cmp	($14),y                 ; 0x2014 <f256main+0x1700>
    5483: 85 17        	sta	$17                     ; 0x2017 <f256main+0x1703>
    5485: 90 03        	bcc	$548a <_ZN12_GLOBAL__N_13putEcP6Status+0x4a>
    5487: 4c f3 54     	jmp	$54f3 <_ZN12_GLOBAL__N_13putEcP6Status+0xb3>
    548a: a5 12        	lda	$12                     ; 0x2012 <f256main+0x16fe>
    548c: 18           	clc
    548d: 69 0f        	adc	#$f
    548f: 85 14        	sta	$14                     ; 0x2014 <f256main+0x1700>
    5491: a5 13        	lda	$13                     ; 0x2013 <f256main+0x16ff>
    5493: 69 00        	adc	#$0
    5495: 85 15        	sta	$15                     ; 0x2015 <f256main+0x1701>
    5497: a0 01        	ldy	#$1
    5499: b1 14        	lda	($14),y                 ; 0x2014 <f256main+0x1700>
    549b: a2 00        	ldx	#$0
    549d: 86 14        	stx	$14                     ; 0x2014 <f256main+0x1700>
    549f: a2 00        	ldx	#$0
    54a1: 86 15        	stx	$15                     ; 0x2015 <f256main+0x1701>
    54a3: c5 15        	cmp	$15                     ; 0x2015 <f256main+0x1701>
    54a5: d0 2d        	bne	$54d4 <_ZN12_GLOBAL__N_13putEcP6Status+0x94>
    54a7: a0 0f        	ldy	#$f
    54a9: b1 12        	lda	($12),y                 ; 0x2012 <f256main+0x16fe>
    54ab: c5 14        	cmp	$14                     ; 0x2014 <f256main+0x1700>
    54ad: d0 25        	bne	$54d4 <_ZN12_GLOBAL__N_13putEcP6Status+0x94>
    54af: a5 12        	lda	$12                     ; 0x2012 <f256main+0x16fe>
    54b1: 18           	clc
    54b2: 69 09        	adc	#$9
    54b4: 85 14        	sta	$14                     ; 0x2014 <f256main+0x1700>
    54b6: a5 13        	lda	$13                     ; 0x2013 <f256main+0x16ff>
    54b8: 69 00        	adc	#$0
    54ba: a0 09        	ldy	#$9
    54bc: 85 15        	sta	$15                     ; 0x2015 <f256main+0x1701>
    54be: 18           	clc
    54bf: a5 16        	lda	$16                     ; 0x2016 <f256main+0x1702>
    54c1: 71 12        	adc	($12),y                 ; 0x2012 <f256main+0x16fe>
    54c3: aa           	tax
    54c4: a0 01        	ldy	#$1
    54c6: a5 17        	lda	$17                     ; 0x2017 <f256main+0x1703>
    54c8: 71 14        	adc	($14),y                 ; 0x2014 <f256main+0x1700>
    54ca: 86 14        	stx	$14                     ; 0x2014 <f256main+0x1700>
    54cc: 85 15        	sta	$15                     ; 0x2015 <f256main+0x1701>
    54ce: a5 18        	lda	$18                     ; 0x2018 <f256main+0x1704>
    54d0: 92 14        	sta	($14)                   ; 0x2014 <f256main+0x1700>
    54d2: 80 1f        	bra	$54f3 <_ZN12_GLOBAL__N_13putEcP6Status+0xb3>
    54d4: a6 12        	ldx	$12                     ; 0x2012 <f256main+0x16fe>
    54d6: 86 eb        	stx	$eb                     ; 0x20eb <f256main+0x17d7>
    54d8: a6 13        	ldx	$13                     ; 0x2013 <f256main+0x16ff>
    54da: 86 ec        	stx	$ec                     ; 0x20ec <f256main+0x17d8>
    54dc: a5 18        	lda	$18                     ; 0x2018 <f256main+0x1704>
    54de: 85 35        	sta	$35                     ; 0x2035 <f256main+0x1721>
    54e0: a2 35        	ldx	#$35
    54e2: 86 12        	stx	$12                     ; 0x2012 <f256main+0x16fe>
    54e4: a2 00        	ldx	#$0
    54e6: 86 13        	stx	$13                     ; 0x2013 <f256main+0x16ff>
    54e8: 20 c7 2e     	jsr	$2ec7 <textPrint>
    54eb: a6 eb        	ldx	$eb                     ; 0x20eb <f256main+0x17d7>
    54ed: 86 12        	stx	$12                     ; 0x2012 <f256main+0x16fe>
    54ef: a6 ec        	ldx	$ec                     ; 0x20ec <f256main+0x17d8>
    54f1: 86 13        	stx	$13                     ; 0x2013 <f256main+0x16ff>
    54f3: a0 05        	ldy	#$5
    54f5: a5 12        	lda	$12                     ; 0x2012 <f256main+0x16fe>
    54f7: 18           	clc
    54f8: 69 05        	adc	#$5
    54fa: 85 14        	sta	$14                     ; 0x2014 <f256main+0x1700>
    54fc: a5 13        	lda	$13                     ; 0x2013 <f256main+0x16ff>
    54fe: 69 00        	adc	#$0
    5500: 85 15        	sta	$15                     ; 0x2015 <f256main+0x1701>
    5502: b1 12        	lda	($12),y                 ; 0x2012 <f256main+0x16fe>
    5504: aa           	tax
    5505: a0 01        	ldy	#$1
    5507: b1 14        	lda	($14),y                 ; 0x2014 <f256main+0x1700>
    5509: e8           	inx
    550a: d0 01        	bne	$550d <_ZN12_GLOBAL__N_13putEcP6Status+0xcd>
    550c: 1a           	inc
    550d: 85 16        	sta	$16                     ; 0x2016 <f256main+0x1702>
    550f: 8a           	txa
    5510: a0 05        	ldy	#$5
    5512: 91 12        	sta	($12),y                 ; 0x2012 <f256main+0x16fe>
    5514: a0 01        	ldy	#$1
    5516: a5 16        	lda	$16                     ; 0x2016 <f256main+0x1702>
    5518: 91 14        	sta	($14),y                 ; 0x2014 <f256main+0x1700>
    551a: 60           	rts

0000551b <_ZN12_GLOBAL__N_112print_stringEPKcP6Status>:
    551b: a6 12        	ldx	$12                     ; 0x2012 <f256main+0x16fe>
    551d: 86 e3        	stx	$e3                     ; 0x20e3 <f256main+0x17cf>
    551f: a6 13        	ldx	$13                     ; 0x2013 <f256main+0x16ff>
    5521: 86 e4        	stx	$e4                     ; 0x20e4 <f256main+0x17d0>
    5523: a6 14        	ldx	$14                     ; 0x2014 <f256main+0x1700>
    5525: 86 e5        	stx	$e5                     ; 0x20e5 <f256main+0x17d1>
    5527: a6 15        	ldx	$15                     ; 0x2015 <f256main+0x1701>
    5529: 86 e6        	stx	$e6                     ; 0x20e6 <f256main+0x17d2>
    552b: a5 e5        	lda	$e5                     ; 0x20e5 <f256main+0x17d1>
    552d: 18           	clc
    552e: 69 0d        	adc	#$d
    5530: 85 12        	sta	$12                     ; 0x2012 <f256main+0x16fe>
    5532: a5 e6        	lda	$e6                     ; 0x20e6 <f256main+0x17d2>
    5534: 69 00        	adc	#$0
    5536: 85 13        	sta	$13                     ; 0x2013 <f256main+0x16ff>
    5538: a0 01        	ldy	#$1
    553a: b1 12        	lda	($12),y                 ; 0x2012 <f256main+0x16fe>
    553c: 30 16        	bmi	$5554 <_ZN12_GLOBAL__N_112print_stringEPKcP6Status+0x39>
    553e: a0 0d        	ldy	#$d
    5540: 85 12        	sta	$12                     ; 0x2012 <f256main+0x16fe>
    5542: b1 e5        	lda	($e5),y                 ; 0x20e5 <f256main+0x17d1>
    5544: a6 12        	ldx	$12                     ; 0x2012 <f256main+0x16fe>
    5546: 86 ea        	stx	$ea                     ; 0x20ea <f256main+0x17d6>
    5548: d0 0f        	bne	$5559 <_ZN12_GLOBAL__N_112print_stringEPKcP6Status+0x3e>
    554a: aa           	tax
    554b: d0 0c        	bne	$5559 <_ZN12_GLOBAL__N_112print_stringEPKcP6Status+0x3e>
    554d: 64 e7        	stz	$e7                     ; 0x20e7 <f256main+0x17d3>
    554f: a2 00        	ldx	#$0
    5551: 4c 22 56     	jmp	$5622 <_ZN12_GLOBAL__N_112print_stringEPKcP6Status+0x107>
    5554: a9 ff        	lda	#$ff
    5556: aa           	tax
    5557: 86 ea        	stx	$ea                     ; 0x20ea <f256main+0x17d6>
    5559: 85 e7        	sta	$e7                     ; 0x20e7 <f256main+0x17d3>
    555b: 64 12        	stz	$12                     ; 0x2012 <f256main+0x16fe>
    555d: a4 e3        	ldy	$e3                     ; 0x20e3 <f256main+0x17cf>
    555f: a6 e4        	ldx	$e4                     ; 0x20e4 <f256main+0x17d0>
    5561: 86 16        	stx	$16                     ; 0x2016 <f256main+0x1702>
    5563: 64 13        	stz	$13                     ; 0x2013 <f256main+0x16ff>
    5565: 98           	tya
    5566: 18           	clc
    5567: 65 12        	adc	$12                     ; 0x2012 <f256main+0x16fe>
    5569: 85 14        	sta	$14                     ; 0x2014 <f256main+0x1700>
    556b: a5 e4        	lda	$e4                     ; 0x20e4 <f256main+0x17d0>
    556d: 65 13        	adc	$13                     ; 0x2013 <f256main+0x16ff>
    556f: 85 15        	sta	$15                     ; 0x2015 <f256main+0x1701>
    5571: b2 14        	lda	($14)                   ; 0x2014 <f256main+0x1700>
    5573: d0 03        	bne	$5578 <_ZN12_GLOBAL__N_112print_stringEPKcP6Status+0x5d>
    5575: 4c 1c 56     	jmp	$561c <_ZN12_GLOBAL__N_112print_stringEPKcP6Status+0x101>
    5578: e6 12        	inc	$12                     ; 0x2012 <f256main+0x16fe>
    557a: d0 02        	bne	$557e <_ZN12_GLOBAL__N_112print_stringEPKcP6Status+0x63>
    557c: e6 13        	inc	$13                     ; 0x2013 <f256main+0x16ff>
    557e: a6 ea        	ldx	$ea                     ; 0x20ea <f256main+0x17d6>
    5580: e4 13        	cpx	$13                     ; 0x2013 <f256main+0x16ff>
    5582: d0 e1        	bne	$5565 <_ZN12_GLOBAL__N_112print_stringEPKcP6Status+0x4a>
    5584: a6 e7        	ldx	$e7                     ; 0x20e7 <f256main+0x17d3>
    5586: e4 12        	cpx	$12                     ; 0x2012 <f256main+0x16fe>
    5588: d0 db        	bne	$5565 <_ZN12_GLOBAL__N_112print_stringEPKcP6Status+0x4a>
    558a: a0 01        	ldy	#$1
    558c: b1 e5        	lda	($e5),y                 ; 0x20e5 <f256main+0x17d1>
    558e: 29 01        	and	#$1
    5590: f0 03        	beq	$5595 <_ZN12_GLOBAL__N_112print_stringEPKcP6Status+0x7a>
    5592: 4c ed 55     	jmp	$55ed <_ZN12_GLOBAL__N_112print_stringEPKcP6Status+0xd2>
    5595: a5 e5        	lda	$e5                     ; 0x20e5 <f256main+0x17d1>
    5597: 18           	clc
    5598: 69 0b        	adc	#$b
    559a: 85 14        	sta	$14                     ; 0x2014 <f256main+0x1700>
    559c: a5 e6        	lda	$e6                     ; 0x20e6 <f256main+0x17d2>
    559e: 69 00        	adc	#$0
    55a0: 85 15        	sta	$15                     ; 0x2015 <f256main+0x1701>
    55a2: a0 0b        	ldy	#$b
    55a4: b1 e5        	lda	($e5),y                 ; 0x20e5 <f256main+0x17d1>
    55a6: 85 13        	sta	$13                     ; 0x2013 <f256main+0x16ff>
    55a8: a0 01        	ldy	#$1
    55aa: b1 14        	lda	($14),y                 ; 0x2014 <f256main+0x1700>
    55ac: 85 12        	sta	$12                     ; 0x2012 <f256main+0x16fe>
    55ae: a6 ea        	ldx	$ea                     ; 0x20ea <f256main+0x17d6>
    55b0: e4 12        	cpx	$12                     ; 0x2012 <f256main+0x16fe>
    55b2: d0 08        	bne	$55bc <_ZN12_GLOBAL__N_112print_stringEPKcP6Status+0xa1>
    55b4: a6 e7        	ldx	$e7                     ; 0x20e7 <f256main+0x17d3>
    55b6: e4 13        	cpx	$13                     ; 0x2013 <f256main+0x16ff>
    55b8: 90 06        	bcc	$55c0 <_ZN12_GLOBAL__N_112print_stringEPKcP6Status+0xa5>
    55ba: 80 31        	bra	$55ed <_ZN12_GLOBAL__N_112print_stringEPKcP6Status+0xd2>
    55bc: e4 12        	cpx	$12                     ; 0x2012 <f256main+0x16fe>
    55be: b0 2d        	bcs	$55ed <_ZN12_GLOBAL__N_112print_stringEPKcP6Status+0xd2>
    55c0: 38           	sec
    55c1: a5 e7        	lda	$e7                     ; 0x20e7 <f256main+0x17d3>
    55c3: e5 13        	sbc	$13                     ; 0x2013 <f256main+0x16ff>
    55c5: a8           	tay
    55c6: a5 ea        	lda	$ea                     ; 0x20ea <f256main+0x17d6>
    55c8: e5 12        	sbc	$12                     ; 0x2012 <f256main+0x16fe>
    55ca: 85 e9        	sta	$e9                     ; 0x20e9 <f256main+0x17d5>
    55cc: a6 e5        	ldx	$e5                     ; 0x20e5 <f256main+0x17d1>
    55ce: 86 12        	stx	$12                     ; 0x2012 <f256main+0x16fe>
    55d0: a6 e6        	ldx	$e6                     ; 0x20e6 <f256main+0x17d2>
    55d2: 86 13        	stx	$13                     ; 0x2013 <f256main+0x16ff>
    55d4: 84 e8        	sty	$e8                     ; 0x20e8 <f256main+0x17d4>
    55d6: a9 20        	lda	#$20
    55d8: 20 40 54     	jsr	$5440 <_ZN12_GLOBAL__N_13putEcP6Status>
    55db: a6 e9        	ldx	$e9                     ; 0x20e9 <f256main+0x17d5>
    55dd: e6 e8        	inc	$e8                     ; 0x20e8 <f256main+0x17d4>
    55df: d0 01        	bne	$55e2 <_ZN12_GLOBAL__N_112print_stringEPKcP6Status+0xc7>
    55e1: e8           	inx
    55e2: 86 e9        	stx	$e9                     ; 0x20e9 <f256main+0x17d5>
    55e4: a4 e8        	ldy	$e8                     ; 0x20e8 <f256main+0x17d4>
    55e6: 8a           	txa
    55e7: d0 e3        	bne	$55cc <_ZN12_GLOBAL__N_112print_stringEPKcP6Status+0xb1>
    55e9: a5 e8        	lda	$e8                     ; 0x20e8 <f256main+0x17d4>
    55eb: d0 df        	bne	$55cc <_ZN12_GLOBAL__N_112print_stringEPKcP6Status+0xb1>
    55ed: a4 ea        	ldy	$ea                     ; 0x20ea <f256main+0x17d6>
    55ef: d0 04        	bne	$55f5 <_ZN12_GLOBAL__N_112print_stringEPKcP6Status+0xda>
    55f1: a5 e7        	lda	$e7                     ; 0x20e7 <f256main+0x17d3>
    55f3: f0 26        	beq	$561b <_ZN12_GLOBAL__N_112print_stringEPKcP6Status+0x100>
    55f5: a2 ff        	ldx	#$ff
    55f7: c6 e7        	dec	$e7                     ; 0x20e7 <f256main+0x17d3>
    55f9: e4 e7        	cpx	$e7                     ; 0x20e7 <f256main+0x17d3>
    55fb: d0 01        	bne	$55fe <_ZN12_GLOBAL__N_112print_stringEPKcP6Status+0xe3>
    55fd: 88           	dey
    55fe: 84 e8        	sty	$e8                     ; 0x20e8 <f256main+0x17d4>
    5600: b2 e3        	lda	($e3)                   ; 0x20e3 <f256main+0x17cf>
    5602: e6 e3        	inc	$e3                     ; 0x20e3 <f256main+0x17cf>
    5604: d0 02        	bne	$5608 <_ZN12_GLOBAL__N_112print_stringEPKcP6Status+0xed>
    5606: e6 e4        	inc	$e4                     ; 0x20e4 <f256main+0x17d0>
    5608: a6 e5        	ldx	$e5                     ; 0x20e5 <f256main+0x17d1>
    560a: 86 12        	stx	$12                     ; 0x2012 <f256main+0x16fe>
    560c: a6 e6        	ldx	$e6                     ; 0x20e6 <f256main+0x17d2>
    560e: 86 13        	stx	$13                     ; 0x2013 <f256main+0x16ff>
    5610: 20 40 54     	jsr	$5440 <_ZN12_GLOBAL__N_13putEcP6Status>
    5613: a4 e8        	ldy	$e8                     ; 0x20e8 <f256main+0x17d4>
    5615: d0 de        	bne	$55f5 <_ZN12_GLOBAL__N_112print_stringEPKcP6Status+0xda>
    5617: a5 e7        	lda	$e7                     ; 0x20e7 <f256main+0x17d3>
    5619: d0 da        	bne	$55f5 <_ZN12_GLOBAL__N_112print_stringEPKcP6Status+0xda>
    561b: 60           	rts
    561c: a6 12        	ldx	$12                     ; 0x2012 <f256main+0x16fe>
    561e: 86 e7        	stx	$e7                     ; 0x20e7 <f256main+0x17d3>
    5620: a6 13        	ldx	$13                     ; 0x2013 <f256main+0x16ff>
    5622: 86 ea        	stx	$ea                     ; 0x20ea <f256main+0x17d6>
    5624: 4c 8a 55     	jmp	$558a <_ZN12_GLOBAL__N_112print_stringEPKcP6Status+0x6f>

00005627 <printf>:
    5627: a6 12        	ldx	$12                     ; 0x2012 <f256main+0x16fe>
    5629: 86 98        	stx	$98                     ; 0x2098 <f256main+0x1784>
    562b: a6 13        	ldx	$13                     ; 0x2013 <f256main+0x16ff>
    562d: 86 99        	stx	$99                     ; 0x2099 <f256main+0x1785>
    562f: 18           	clc
    5630: a6 10        	ldx	$10                     ; 0x2010 <f256main+0x16fc>
    5632: a4 11        	ldy	$11                     ; 0x2011 <f256main+0x16fd>
    5634: 86 d9        	stx	$d9                     ; 0x20d9 <f256main+0x17c5>
    5636: 84 da        	sty	$da                     ; 0x20da <f256main+0x17c6>
    5638: a6 d9        	ldx	$d9                     ; 0x20d9 <f256main+0x17c5>
    563a: a4 da        	ldy	$da                     ; 0x20da <f256main+0x17c6>
    563c: 86 c4        	stx	$c4                     ; 0x20c4 <f256main+0x17b0>
    563e: 84 c5        	sty	$c5                     ; 0x20c5 <f256main+0x17b1>
    5640: a2 ff        	ldx	#$ff
    5642: 86 c9        	stx	$c9                     ; 0x20c9 <f256main+0x17b5>
    5644: 86 ca        	stx	$ca                     ; 0x20ca <f256main+0x17b6>
    5646: 64 cb        	stz	$cb                     ; 0x20cb <f256main+0x17b7>
    5648: 64 cc        	stz	$cc                     ; 0x20cc <f256main+0x17b8>
    564a: e8           	inx
    564b: 86 9a        	stx	$9a                     ; 0x209a <f256main+0x1786>
    564d: a2 00        	ldx	#$0
    564f: 86 9b        	stx	$9b                     ; 0x209b <f256main+0x1787>
    5651: a6 9a        	ldx	$9a                     ; 0x209a <f256main+0x1786>
    5653: a4 9b        	ldy	$9b                     ; 0x209b <f256main+0x1787>
    5655: 86 cf        	stx	$cf                     ; 0x20cf <f256main+0x17bb>
    5657: 84 d0        	sty	$d0                     ; 0x20d0 <f256main+0x17bc>
    5659: a2 02        	ldx	#$2
    565b: 86 d5        	stx	$d5                     ; 0x20d5 <f256main+0x17c1>
    565d: 64 d6        	stz	$d6                     ; 0x20d6 <f256main+0x17c2>
    565f: a6 c4        	ldx	$c4                     ; 0x20c4 <f256main+0x17b0>
    5661: a4 c5        	ldy	$c5                     ; 0x20c5 <f256main+0x17b1>
    5663: 86 d7        	stx	$d7                     ; 0x20d7 <f256main+0x17c3>
    5665: 84 d8        	sty	$d8                     ; 0x20d8 <f256main+0x17c4>
    5667: a2 bb        	ldx	#$bb
    5669: a0 00        	ldy	#$0
    566b: 86 12        	stx	$12                     ; 0x2012 <f256main+0x16fe>
    566d: 84 13        	sty	$13                     ; 0x2013 <f256main+0x16ff>
    566f: a0 01        	ldy	#$1
    5671: a9 a2        	lda	#$a2
    5673: 18           	clc
    5674: 69 02        	adc	#$2
    5676: 85 e1        	sta	$e1                     ; 0x20e1 <f256main+0x17cd>
    5678: a9 00        	lda	#$0
    567a: 69 00        	adc	#$0
    567c: 85 e2        	sta	$e2                     ; 0x20e2 <f256main+0x17ce>
    567e: e6 12        	inc	$12                     ; 0x2012 <f256main+0x16fe>
    5680: d0 02        	bne	$5684 <printf+0x5d>
    5682: e6 13        	inc	$13                     ; 0x2013 <f256main+0x16ff>
    5684: a6 12        	ldx	$12                     ; 0x2012 <f256main+0x16fe>
    5686: 86 dd        	stx	$dd                     ; 0x20dd <f256main+0x17c9>
    5688: a6 13        	ldx	$13                     ; 0x2013 <f256main+0x16ff>
    568a: 86 de        	stx	$de                     ; 0x20de <f256main+0x17ca>
    568c: a6 98        	ldx	$98                     ; 0x2098 <f256main+0x1784>
    568e: 86 9c        	stx	$9c                     ; 0x209c <f256main+0x1788>
    5690: a6 99        	ldx	$99                     ; 0x2099 <f256main+0x1785>
    5692: 86 9d        	stx	$9d                     ; 0x209d <f256main+0x1789>
    5694: b2 98        	lda	($98)                   ; 0x2098 <f256main+0x1784>
    5696: c9 25        	cmp	#$25
    5698: f0 2b        	beq	$56c5 <printf+0x9e>
    569a: aa           	tax
    569b: d0 03        	bne	$56a0 <printf+0x79>
    569d: 4c 52 62     	jmp	$6252 <printf+0xc2b>
    56a0: 85 35        	sta	$35                     ; 0x2035 <f256main+0x1721>
    56a2: a2 35        	ldx	#$35
    56a4: 86 12        	stx	$12                     ; 0x2012 <f256main+0x16fe>
    56a6: a2 00        	ldx	#$0
    56a8: 86 13        	stx	$13                     ; 0x2013 <f256main+0x16ff>
    56aa: 20 c7 2e     	jsr	$2ec7 <textPrint>
    56ad: a0 01        	ldy	#$1
    56af: e6 9c        	inc	$9c                     ; 0x209c <f256main+0x1788>
    56b1: d0 02        	bne	$56b5 <printf+0x8e>
    56b3: e6 9d        	inc	$9d                     ; 0x209d <f256main+0x1789>
    56b5: e6 cb        	inc	$cb                     ; 0x20cb <f256main+0x17b7>
    56b7: d0 02        	bne	$56bb <printf+0x94>
    56b9: e6 cc        	inc	$cc                     ; 0x20cc <f256main+0x17b8>
    56bb: a6 9c        	ldx	$9c                     ; 0x209c <f256main+0x1788>
    56bd: 86 98        	stx	$98                     ; 0x2098 <f256main+0x1784>
    56bf: a6 9d        	ldx	$9d                     ; 0x209d <f256main+0x1789>
    56c1: 86 99        	stx	$99                     ; 0x2099 <f256main+0x1785>
    56c3: 80 c7        	bra	$568c <printf+0x65>
    56c5: a6 98        	ldx	$98                     ; 0x2098 <f256main+0x1784>
    56c7: 86 12        	stx	$12                     ; 0x2012 <f256main+0x16fe>
    56c9: a6 99        	ldx	$99                     ; 0x2099 <f256main+0x1785>
    56cb: 86 13        	stx	$13                     ; 0x2013 <f256main+0x16ff>
    56cd: e6 12        	inc	$12                     ; 0x2012 <f256main+0x16fe>
    56cf: d0 02        	bne	$56d3 <printf+0xac>
    56d1: e6 13        	inc	$13                     ; 0x2013 <f256main+0x16ff>
    56d3: b1 9c        	lda	($9c),y                 ; 0x209c <f256main+0x1788>
    56d5: c9 25        	cmp	#$25
    56d7: d0 16        	bne	$56ef <printf+0xc8>
    56d9: a4 cb        	ldy	$cb                     ; 0x20cb <f256main+0x17b7>
    56db: a5 cc        	lda	$cc                     ; 0x20cc <f256main+0x17b8>
    56dd: c5 ca        	cmp	$ca                     ; 0x20ca <f256main+0x17b6>
    56df: f0 03        	beq	$56e4 <printf+0xbd>
    56e1: 4c f6 57     	jmp	$57f6 <printf+0x1cf>
    56e4: a6 c9        	ldx	$c9                     ; 0x20c9 <f256main+0x17b5>
    56e6: 86 12        	stx	$12                     ; 0x2012 <f256main+0x16fe>
    56e8: 84 13        	sty	$13                     ; 0x2013 <f256main+0x16ff>
    56ea: c4 12        	cpy	$12                     ; 0x2012 <f256main+0x16fe>
    56ec: 4c fa 57     	jmp	$57fa <printf+0x1d3>
    56ef: 64 c7        	stz	$c7                     ; 0x20c7 <f256main+0x17b3>
    56f1: 64 c8        	stz	$c8                     ; 0x20c8 <f256main+0x17b4>
    56f3: 64 c6        	stz	$c6                     ; 0x20c6 <f256main+0x17b2>
    56f5: 64 d1        	stz	$d1                     ; 0x20d1 <f256main+0x17bd>
    56f7: 64 d2        	stz	$d2                     ; 0x20d2 <f256main+0x17be>
    56f9: a2 ff        	ldx	#$ff
    56fb: 86 d3        	stx	$d3                     ; 0x20d3 <f256main+0x17bf>
    56fd: 86 d4        	stx	$d4                     ; 0x20d4 <f256main+0x17c0>
    56ff: 64 97        	stz	$97                     ; 0x2097 <f256main+0x1783>
    5701: 80 33        	bra	$5736 <printf+0x10f>
    5703: a2 02        	ldx	#$2
    5705: 80 15        	bra	$571c <printf+0xf5>
    5707: e0 20        	cpx	#$20
    5709: f0 15        	beq	$5720 <printf+0xf9>
    570b: 86 15        	stx	$15                     ; 0x2015 <f256main+0x1701>
    570d: e0 23        	cpx	#$23
    570f: f0 03        	beq	$5714 <printf+0xed>
    5711: 4c 93 57     	jmp	$5793 <printf+0x16c>
    5714: a5 97        	lda	$97                     ; 0x2097 <f256main+0x1783>
    5716: a2 04        	ldx	#$4
    5718: 80 02        	bra	$571c <printf+0xf5>
    571a: a2 10        	ldx	#$10
    571c: 86 14        	stx	$14                     ; 0x2014 <f256main+0x1700>
    571e: 80 06        	bra	$5726 <printf+0xff>
    5720: a2 08        	ldx	#$8
    5722: 86 14        	stx	$14                     ; 0x2014 <f256main+0x1700>
    5724: a5 97        	lda	$97                     ; 0x2097 <f256main+0x1783>
    5726: 05 14        	ora	$14                     ; 0x2014 <f256main+0x1700>
    5728: 85 97        	sta	$97                     ; 0x2097 <f256main+0x1783>
    572a: 85 c7        	sta	$c7                     ; 0x20c7 <f256main+0x17b3>
    572c: a2 00        	ldx	#$0
    572e: 86 c8        	stx	$c8                     ; 0x20c8 <f256main+0x17b4>
    5730: e6 12        	inc	$12                     ; 0x2012 <f256main+0x16fe>
    5732: d0 02        	bne	$5736 <printf+0x10f>
    5734: e6 13        	inc	$13                     ; 0x2013 <f256main+0x16ff>
    5736: b2 12        	lda	($12)                   ; 0x2012 <f256main+0x16fe>
    5738: aa           	tax
    5739: 18           	clc
    573a: 69 d6        	adc	#$d6
    573c: c9 07        	cmp	#$7
    573e: b0 c7        	bcs	$5707 <printf+0xe0>
    5740: 86 15        	stx	$15                     ; 0x2015 <f256main+0x1701>
    5742: 0a           	asl
    5743: aa           	tax
    5744: a0 01        	ldy	#$1
    5746: 84 14        	sty	$14                     ; 0x2014 <f256main+0x1700>
    5748: a5 97        	lda	$97                     ; 0x2097 <f256main+0x1783>
    574a: 7c 93 79     	jmp	($7993,x)               ; 0x7993 <__set_v+0x31>
    574d: a5 d7        	lda	$d7                     ; 0x20d7 <f256main+0x17c3>
    574f: a6 d8        	ldx	$d8                     ; 0x20d8 <f256main+0x17c4>
    5751: 85 16        	sta	$16                     ; 0x2016 <f256main+0x1702>
    5753: 86 17        	stx	$17                     ; 0x2017 <f256main+0x1703>
    5755: 18           	clc
    5756: 69 02        	adc	#$2
    5758: a8           	tay
    5759: 8a           	txa
    575a: 69 00        	adc	#$0
    575c: 84 d7        	sty	$d7                     ; 0x20d7 <f256main+0x17c3>
    575e: 85 d8        	sta	$d8                     ; 0x20d8 <f256main+0x17c4>
    5760: b2 16        	lda	($16)                   ; 0x2016 <f256main+0x1702>
    5762: 85 15        	sta	$15                     ; 0x2015 <f256main+0x1701>
    5764: a0 01        	ldy	#$1
    5766: b1 16        	lda	($16),y                 ; 0x2016 <f256main+0x1702>
    5768: 85 14        	sta	$14                     ; 0x2014 <f256main+0x1700>
    576a: 10 15        	bpl	$5781 <printf+0x15a>
    576c: a5 97        	lda	$97                     ; 0x2097 <f256main+0x1783>
    576e: 09 01        	ora	#$1
    5770: 85 97        	sta	$97                     ; 0x2097 <f256main+0x1783>
    5772: 85 c7        	sta	$c7                     ; 0x20c7 <f256main+0x17b3>
    5774: a2 00        	ldx	#$0
    5776: 86 c8        	stx	$c8                     ; 0x20c8 <f256main+0x17b4>
    5778: 8a           	txa
    5779: 38           	sec
    577a: e5 15        	sbc	$15                     ; 0x2015 <f256main+0x1701>
    577c: 85 15        	sta	$15                     ; 0x2015 <f256main+0x1701>
    577e: 8a           	txa
    577f: e5 14        	sbc	$14                     ; 0x2014 <f256main+0x1700>
    5781: a6 15        	ldx	$15                     ; 0x2015 <f256main+0x1701>
    5783: 86 d1        	stx	$d1                     ; 0x20d1 <f256main+0x17bd>
    5785: 85 d2        	sta	$d2                     ; 0x20d2 <f256main+0x17be>
    5787: e6 12        	inc	$12                     ; 0x2012 <f256main+0x16fe>
    5789: f0 03        	beq	$578e <printf+0x167>
    578b: 4c 52 58     	jmp	$5852 <printf+0x22b>
    578e: e6 13        	inc	$13                     ; 0x2013 <f256main+0x16ff>
    5790: 4c 52 58     	jmp	$5852 <printf+0x22b>
    5793: a5 15        	lda	$15                     ; 0x2015 <f256main+0x1701>
    5795: 18           	clc
    5796: 69 d0        	adc	#$d0
    5798: c9 0a        	cmp	#$a
    579a: 90 03        	bcc	$579f <printf+0x178>
    579c: 4c 44 58     	jmp	$5844 <printf+0x21d>
    579f: a6 15        	ldx	$15                     ; 0x2015 <f256main+0x1701>
    57a1: 86 14        	stx	$14                     ; 0x2014 <f256main+0x1700>
    57a3: 64 16        	stz	$16                     ; 0x2016 <f256main+0x1702>
    57a5: 64 15        	stz	$15                     ; 0x2015 <f256main+0x1701>
    57a7: 64 17        	stz	$17                     ; 0x2017 <f256main+0x1703>
    57a9: a0 01        	ldy	#$1
    57ab: 06 16        	asl	$16                     ; 0x2016 <f256main+0x1702>
    57ad: 26 17        	rol	$17                     ; 0x2017 <f256main+0x1703>
    57af: a5 16        	lda	$16                     ; 0x2016 <f256main+0x1702>
    57b1: 0a           	asl
    57b2: aa           	tax
    57b3: a5 17        	lda	$17                     ; 0x2017 <f256main+0x1703>
    57b5: 2a           	rol
    57b6: 86 18        	stx	$18                     ; 0x2018 <f256main+0x1704>
    57b8: 06 18        	asl	$18                     ; 0x2018 <f256main+0x1704>
    57ba: 2a           	rol
    57bb: aa           	tax
    57bc: a5 18        	lda	$18                     ; 0x2018 <f256main+0x1704>
    57be: 18           	clc
    57bf: 65 16        	adc	$16                     ; 0x2016 <f256main+0x1702>
    57c1: 85 16        	sta	$16                     ; 0x2016 <f256main+0x1702>
    57c3: 8a           	txa
    57c4: 65 17        	adc	$17                     ; 0x2017 <f256main+0x1703>
    57c6: 85 17        	sta	$17                     ; 0x2017 <f256main+0x1703>
    57c8: a5 16        	lda	$16                     ; 0x2016 <f256main+0x1702>
    57ca: 18           	clc
    57cb: 65 14        	adc	$14                     ; 0x2014 <f256main+0x1700>
    57cd: 85 14        	sta	$14                     ; 0x2014 <f256main+0x1700>
    57cf: a5 17        	lda	$17                     ; 0x2017 <f256main+0x1703>
    57d1: 65 15        	adc	$15                     ; 0x2015 <f256main+0x1701>
    57d3: aa           	tax
    57d4: 18           	clc
    57d5: a5 14        	lda	$14                     ; 0x2014 <f256main+0x1700>
    57d7: 69 d0        	adc	#$d0
    57d9: 85 16        	sta	$16                     ; 0x2016 <f256main+0x1702>
    57db: 8a           	txa
    57dc: 69 ff        	adc	#$ff
    57de: 85 17        	sta	$17                     ; 0x2017 <f256main+0x1703>
    57e0: b1 12        	lda	($12),y                 ; 0x2012 <f256main+0x16fe>
    57e2: 85 14        	sta	$14                     ; 0x2014 <f256main+0x1700>
    57e4: 18           	clc
    57e5: 69 d0        	adc	#$d0
    57e7: e6 12        	inc	$12                     ; 0x2012 <f256main+0x16fe>
    57e9: d0 02        	bne	$57ed <printf+0x1c6>
    57eb: e6 13        	inc	$13                     ; 0x2013 <f256main+0x16ff>
    57ed: c9 0a        	cmp	#$a
    57ef: 64 15        	stz	$15                     ; 0x2015 <f256main+0x1701>
    57f1: 90 b8        	bcc	$57ab <printf+0x184>
    57f3: 4c 4a 58     	jmp	$584a <printf+0x223>
    57f6: 84 13        	sty	$13                     ; 0x2013 <f256main+0x16ff>
    57f8: c5 ca        	cmp	$ca                     ; 0x20ca <f256main+0x17b6>
    57fa: a0 01        	ldy	#$1
    57fc: b0 30        	bcs	$582e <printf+0x207>
    57fe: a6 d6        	ldx	$d6                     ; 0x20d6 <f256main+0x17c2>
    5800: e4 9b        	cpx	$9b                     ; 0x209b <f256main+0x1787>
    5802: d0 19        	bne	$581d <printf+0x1f6>
    5804: a6 d5        	ldx	$d5                     ; 0x20d5 <f256main+0x17c1>
    5806: e4 9a        	cpx	$9a                     ; 0x209a <f256main+0x1786>
    5808: d0 13        	bne	$581d <printf+0x1f6>
    580a: 18           	clc
    580b: aa           	tax
    580c: a5 13        	lda	$13                     ; 0x2013 <f256main+0x16ff>
    580e: 65 cf        	adc	$cf                     ; 0x20cf <f256main+0x17bb>
    5810: 85 12        	sta	$12                     ; 0x2012 <f256main+0x16fe>
    5812: 8a           	txa
    5813: 65 d0        	adc	$d0                     ; 0x20d0 <f256main+0x17bc>
    5815: 85 13        	sta	$13                     ; 0x2013 <f256main+0x16ff>
    5817: a9 25        	lda	#$25
    5819: 92 12        	sta	($12)                   ; 0x2012 <f256main+0x16fe>
    581b: 80 11        	bra	$582e <printf+0x207>
    581d: a2 25        	ldx	#$25
    581f: 86 35        	stx	$35                     ; 0x2035 <f256main+0x1721>
    5821: a2 35        	ldx	#$35
    5823: 86 12        	stx	$12                     ; 0x2012 <f256main+0x16fe>
    5825: a2 00        	ldx	#$0
    5827: 86 13        	stx	$13                     ; 0x2013 <f256main+0x16ff>
    5829: 20 c7 2e     	jsr	$2ec7 <textPrint>
    582c: a0 01        	ldy	#$1
    582e: e6 cb        	inc	$cb                     ; 0x20cb <f256main+0x17b7>
    5830: d0 02        	bne	$5834 <printf+0x20d>
    5832: e6 cc        	inc	$cc                     ; 0x20cc <f256main+0x17b8>
    5834: a5 9c        	lda	$9c                     ; 0x209c <f256main+0x1788>
    5836: 18           	clc
    5837: 69 02        	adc	#$2
    5839: 85 98        	sta	$98                     ; 0x2098 <f256main+0x1784>
    583b: a5 9d        	lda	$9d                     ; 0x209d <f256main+0x1789>
    583d: 69 00        	adc	#$0
    583f: 85 99        	sta	$99                     ; 0x2099 <f256main+0x1785>
    5841: 4c 8c 56     	jmp	$568c <printf+0x65>
    5844: 64 16        	stz	$16                     ; 0x2016 <f256main+0x1702>
    5846: 64 17        	stz	$17                     ; 0x2017 <f256main+0x1703>
    5848: a0 01        	ldy	#$1
    584a: a6 16        	ldx	$16                     ; 0x2016 <f256main+0x1702>
    584c: 86 d1        	stx	$d1                     ; 0x20d1 <f256main+0x17bd>
    584e: a5 17        	lda	$17                     ; 0x2017 <f256main+0x1703>
    5850: 85 d2        	sta	$d2                     ; 0x20d2 <f256main+0x17be>
    5852: 86 a0        	stx	$a0                     ; 0x20a0 <f256main+0x178c>
    5854: 85 9e        	sta	$9e                     ; 0x209e <f256main+0x178a>
    5856: b2 12        	lda	($12)                   ; 0x2012 <f256main+0x16fe>
    5858: a2 ff        	ldx	#$ff
    585a: c9 2e        	cmp	#$2e
    585c: d0 39        	bne	$5897 <printf+0x270>
    585e: b1 12        	lda	($12),y                 ; 0x2012 <f256main+0x16fe>
    5860: c9 2a        	cmp	#$2a
    5862: d0 38        	bne	$589c <printf+0x275>
    5864: a5 d7        	lda	$d7                     ; 0x20d7 <f256main+0x17c3>
    5866: a6 d8        	ldx	$d8                     ; 0x20d8 <f256main+0x17c4>
    5868: 85 14        	sta	$14                     ; 0x2014 <f256main+0x1700>
    586a: 86 15        	stx	$15                     ; 0x2015 <f256main+0x1701>
    586c: 18           	clc
    586d: 69 02        	adc	#$2
    586f: 85 16        	sta	$16                     ; 0x2016 <f256main+0x1702>
    5871: 8a           	txa
    5872: 69 00        	adc	#$0
    5874: a6 16        	ldx	$16                     ; 0x2016 <f256main+0x1702>
    5876: 86 d7        	stx	$d7                     ; 0x20d7 <f256main+0x17c3>
    5878: 85 d8        	sta	$d8                     ; 0x20d8 <f256main+0x17c4>
    587a: a5 12        	lda	$12                     ; 0x2012 <f256main+0x16fe>
    587c: 18           	clc
    587d: 69 02        	adc	#$2
    587f: 85 12        	sta	$12                     ; 0x2012 <f256main+0x16fe>
    5881: a5 13        	lda	$13                     ; 0x2013 <f256main+0x16ff>
    5883: 69 00        	adc	#$0
    5885: 85 13        	sta	$13                     ; 0x2013 <f256main+0x16ff>
    5887: b2 14        	lda	($14)                   ; 0x2014 <f256main+0x1700>
    5889: aa           	tax
    588a: b1 14        	lda	($14),y                 ; 0x2014 <f256main+0x1700>
    588c: 86 18        	stx	$18                     ; 0x2018 <f256main+0x1704>
    588e: 86 d3        	stx	$d3                     ; 0x20d3 <f256main+0x17bf>
    5890: 85 19        	sta	$19                     ; 0x2019 <f256main+0x1705>
    5892: 85 d4        	sta	$d4                     ; 0x20d4 <f256main+0x17c0>
    5894: 4c 47 59     	jmp	$5947 <printf+0x320>
    5897: 86 18        	stx	$18                     ; 0x2018 <f256main+0x1704>
    5899: 4c 57 59     	jmp	$5957 <printf+0x330>
    589c: 85 17        	sta	$17                     ; 0x2017 <f256main+0x1703>
    589e: 18           	clc
    589f: 69 d0        	adc	#$d0
    58a1: c9 0a        	cmp	#$a
    58a3: 90 03        	bcc	$58a8 <printf+0x281>
    58a5: 4c 39 59     	jmp	$5939 <printf+0x312>
    58a8: 64 16        	stz	$16                     ; 0x2016 <f256main+0x1702>
    58aa: a2 01        	ldx	#$1
    58ac: 64 18        	stz	$18                     ; 0x2018 <f256main+0x1704>
    58ae: 64 19        	stz	$19                     ; 0x2019 <f256main+0x1705>
    58b0: a0 01        	ldy	#$1
    58b2: 64 1a        	stz	$1a                     ; 0x201a <f256main+0x1706>
    58b4: 5a           	phy
    58b5: a4 1a        	ldy	$1a                     ; 0x201a <f256main+0x1706>
    58b7: 84 14        	sty	$14                     ; 0x2014 <f256main+0x1700>
    58b9: 86 15        	stx	$15                     ; 0x2015 <f256main+0x1701>
    58bb: 06 18        	asl	$18                     ; 0x2018 <f256main+0x1704>
    58bd: 26 19        	rol	$19                     ; 0x2019 <f256main+0x1705>
    58bf: a5 18        	lda	$18                     ; 0x2018 <f256main+0x1704>
    58c1: 0a           	asl
    58c2: 85 1d        	sta	$1d                     ; 0x201d <f256main+0x1709>
    58c4: a5 19        	lda	$19                     ; 0x2019 <f256main+0x1705>
    58c6: 2a           	rol
    58c7: 06 1d        	asl	$1d                     ; 0x201d <f256main+0x1709>
    58c9: 2a           	rol
    58ca: 85 1e        	sta	$1e                     ; 0x201e <f256main+0x170a>
    58cc: a5 1d        	lda	$1d                     ; 0x201d <f256main+0x1709>
    58ce: 18           	clc
    58cf: 65 18        	adc	$18                     ; 0x2018 <f256main+0x1704>
    58d1: 85 18        	sta	$18                     ; 0x2018 <f256main+0x1704>
    58d3: a5 1e        	lda	$1e                     ; 0x201e <f256main+0x170a>
    58d5: 65 19        	adc	$19                     ; 0x2019 <f256main+0x1705>
    58d7: 85 19        	sta	$19                     ; 0x2019 <f256main+0x1705>
    58d9: a5 18        	lda	$18                     ; 0x2018 <f256main+0x1704>
    58db: 18           	clc
    58dc: 65 17        	adc	$17                     ; 0x2017 <f256main+0x1703>
    58de: 85 17        	sta	$17                     ; 0x2017 <f256main+0x1703>
    58e0: a5 19        	lda	$19                     ; 0x2019 <f256main+0x1705>
    58e2: 65 16        	adc	$16                     ; 0x2016 <f256main+0x1702>
    58e4: 85 16        	sta	$16                     ; 0x2016 <f256main+0x1702>
    58e6: 18           	clc
    58e7: a5 17        	lda	$17                     ; 0x2017 <f256main+0x1703>
    58e9: 69 d0        	adc	#$d0
    58eb: 85 18        	sta	$18                     ; 0x2018 <f256main+0x1704>
    58ed: a5 16        	lda	$16                     ; 0x2016 <f256main+0x1702>
    58ef: 69 ff        	adc	#$ff
    58f1: 85 19        	sta	$19                     ; 0x2019 <f256main+0x1705>
    58f3: e8           	inx
    58f4: d0 02        	bne	$58f8 <printf+0x2d1>
    58f6: e6 1a        	inc	$1a                     ; 0x201a <f256main+0x1706>
    58f8: a5 12        	lda	$12                     ; 0x2012 <f256main+0x16fe>
    58fa: 18           	clc
    58fb: 65 15        	adc	$15                     ; 0x2015 <f256main+0x1701>
    58fd: 85 1d        	sta	$1d                     ; 0x201d <f256main+0x1709>
    58ff: a5 13        	lda	$13                     ; 0x2013 <f256main+0x16ff>
    5901: 65 14        	adc	$14                     ; 0x2014 <f256main+0x1700>
    5903: a4 1d        	ldy	$1d                     ; 0x201d <f256main+0x1709>
    5905: 84 16        	sty	$16                     ; 0x2016 <f256main+0x1702>
    5907: 7a           	ply
    5908: 85 17        	sta	$17                     ; 0x2017 <f256main+0x1703>
    590a: b1 16        	lda	($16),y                 ; 0x2016 <f256main+0x1702>
    590c: 85 17        	sta	$17                     ; 0x2017 <f256main+0x1703>
    590e: 18           	clc
    590f: 69 d0        	adc	#$d0
    5911: c9 0a        	cmp	#$a
    5913: 64 16        	stz	$16                     ; 0x2016 <f256main+0x1702>
    5915: b0 03        	bcs	$591a <printf+0x2f3>
    5917: 4c b4 58     	jmp	$58b4 <printf+0x28d>
    591a: a5 12        	lda	$12                     ; 0x2012 <f256main+0x16fe>
    591c: 18           	clc
    591d: 65 15        	adc	$15                     ; 0x2015 <f256main+0x1701>
    591f: 85 12        	sta	$12                     ; 0x2012 <f256main+0x16fe>
    5921: a5 13        	lda	$13                     ; 0x2013 <f256main+0x16ff>
    5923: 65 14        	adc	$14                     ; 0x2014 <f256main+0x1700>
    5925: 85 13        	sta	$13                     ; 0x2013 <f256main+0x16ff>
    5927: e6 12        	inc	$12                     ; 0x2012 <f256main+0x16fe>
    5929: d0 02        	bne	$592d <printf+0x306>
    592b: e6 13        	inc	$13                     ; 0x2013 <f256main+0x16ff>
    592d: a6 18        	ldx	$18                     ; 0x2018 <f256main+0x1704>
    592f: 86 d3        	stx	$d3                     ; 0x20d3 <f256main+0x17bf>
    5931: a6 19        	ldx	$19                     ; 0x2019 <f256main+0x1705>
    5933: 86 d4        	stx	$d4                     ; 0x20d4 <f256main+0x17c0>
    5935: a0 01        	ldy	#$1
    5937: 80 0e        	bra	$5947 <printf+0x320>
    5939: e6 12        	inc	$12                     ; 0x2012 <f256main+0x16fe>
    593b: d0 02        	bne	$593f <printf+0x318>
    593d: e6 13        	inc	$13                     ; 0x2013 <f256main+0x16ff>
    593f: 64 18        	stz	$18                     ; 0x2018 <f256main+0x1704>
    5941: 64 d3        	stz	$d3                     ; 0x20d3 <f256main+0x17bf>
    5943: 64 d4        	stz	$d4                     ; 0x20d4 <f256main+0x17c0>
    5945: 64 19        	stz	$19                     ; 0x2019 <f256main+0x1705>
    5947: a5 97        	lda	$97                     ; 0x2097 <f256main+0x1783>
    5949: 29 ef        	and	#$ef
    594b: 85 97        	sta	$97                     ; 0x2097 <f256main+0x1783>
    594d: 85 c7        	sta	$c7                     ; 0x20c7 <f256main+0x17b3>
    594f: a2 00        	ldx	#$0
    5951: 86 c8        	stx	$c8                     ; 0x20c8 <f256main+0x17b4>
    5953: b2 12        	lda	($12)                   ; 0x2012 <f256main+0x16fe>
    5955: a6 19        	ldx	$19                     ; 0x2019 <f256main+0x1705>
    5957: 86 15        	stx	$15                     ; 0x2015 <f256main+0x1701>
    5959: a6 12        	ldx	$12                     ; 0x2012 <f256main+0x16fe>
    595b: 86 98        	stx	$98                     ; 0x2098 <f256main+0x1784>
    595d: a6 13        	ldx	$13                     ; 0x2013 <f256main+0x16ff>
    595f: 86 99        	stx	$99                     ; 0x2099 <f256main+0x1785>
    5961: e6 98        	inc	$98                     ; 0x2098 <f256main+0x1784>
    5963: d0 02        	bne	$5967 <printf+0x340>
    5965: e6 99        	inc	$99                     ; 0x2099 <f256main+0x1785>
    5967: 85 14        	sta	$14                     ; 0x2014 <f256main+0x1700>
    5969: 38           	sec
    596a: e9 6c        	sbc	#$6c
    596c: 50 02        	bvc	$5970 <printf+0x349>
    596e: 49 80        	eor	#$80
    5970: aa           	tax
    5971: 10 1d        	bpl	$5990 <printf+0x369>
    5973: a5 14        	lda	$14                     ; 0x2014 <f256main+0x1700>
    5975: c9 4c        	cmp	#$4c
    5977: f0 27        	beq	$59a0 <printf+0x379>
    5979: c9 68        	cmp	#$68
    597b: d0 03        	bne	$5980 <printf+0x359>
    597d: 4c 07 5a     	jmp	$5a07 <printf+0x3e0>
    5980: a2 08        	ldx	#$8
    5982: c9 6a        	cmp	#$6a
    5984: d0 2e        	bne	$59b4 <printf+0x38d>
    5986: a5 98        	lda	$98                     ; 0x2098 <f256main+0x1784>
    5988: 85 12        	sta	$12                     ; 0x2012 <f256main+0x16fe>
    598a: a5 99        	lda	$99                     ; 0x2099 <f256main+0x1785>
    598c: 85 13        	sta	$13                     ; 0x2013 <f256main+0x16ff>
    598e: 80 43        	bra	$59d3 <printf+0x3ac>
    5990: a6 14        	ldx	$14                     ; 0x2014 <f256main+0x1700>
    5992: e0 6c        	cpx	#$6c
    5994: f0 23        	beq	$59b9 <printf+0x392>
    5996: e0 74        	cpx	#$74
    5998: f0 12        	beq	$59ac <printf+0x385>
    599a: e0 7a        	cpx	#$7a
    599c: f0 0e        	beq	$59ac <printf+0x385>
    599e: 80 14        	bra	$59b4 <printf+0x38d>
    59a0: a5 97        	lda	$97                     ; 0x2097 <f256main+0x1783>
    59a2: 09 40        	ora	#$40
    59a4: 85 97        	sta	$97                     ; 0x2097 <f256main+0x1783>
    59a6: 85 c7        	sta	$c7                     ; 0x20c7 <f256main+0x17b3>
    59a8: a2 00        	ldx	#$0
    59aa: 86 c8        	stx	$c8                     ; 0x20c8 <f256main+0x17b4>
    59ac: a6 98        	ldx	$98                     ; 0x2098 <f256main+0x1784>
    59ae: 86 12        	stx	$12                     ; 0x2012 <f256main+0x16fe>
    59b0: a6 99        	ldx	$99                     ; 0x2099 <f256main+0x1785>
    59b2: 86 13        	stx	$13                     ; 0x2013 <f256main+0x16ff>
    59b4: a2 02        	ldx	#$2
    59b6: 8a           	txa
    59b7: 80 1c        	bra	$59d5 <printf+0x3ae>
    59b9: b1 12        	lda	($12),y                 ; 0x2012 <f256main+0x16fe>
    59bb: a2 04        	ldx	#$4
    59bd: c9 6c        	cmp	#$6c
    59bf: f0 03        	beq	$59c4 <printf+0x39d>
    59c1: 4c 16 5d     	jmp	$5d16 <printf+0x6ef>
    59c4: a5 12        	lda	$12                     ; 0x2012 <f256main+0x16fe>
    59c6: 18           	clc
    59c7: 69 02        	adc	#$2
    59c9: 85 12        	sta	$12                     ; 0x2012 <f256main+0x16fe>
    59cb: a5 13        	lda	$13                     ; 0x2013 <f256main+0x16ff>
    59cd: 69 00        	adc	#$0
    59cf: 85 13        	sta	$13                     ; 0x2013 <f256main+0x16ff>
    59d1: a2 08        	ldx	#$8
    59d3: a9 08        	lda	#$8
    59d5: 85 dc        	sta	$dc                     ; 0x20dc <f256main+0x17c8>
    59d7: b2 12        	lda	($12)                   ; 0x2012 <f256main+0x16fe>
    59d9: 5a           	phy
    59da: a4 12        	ldy	$12                     ; 0x2012 <f256main+0x16fe>
    59dc: 84 98        	sty	$98                     ; 0x2098 <f256main+0x1784>
    59de: a4 13        	ldy	$13                     ; 0x2013 <f256main+0x16ff>
    59e0: 84 99        	sty	$99                     ; 0x2099 <f256main+0x1785>
    59e2: 7a           	ply
    59e3: 86 9a        	stx	$9a                     ; 0x209a <f256main+0x1786>
    59e5: aa           	tax
    59e6: 18           	clc
    59e7: 69 9d        	adc	#$9d
    59e9: c9 16        	cmp	#$16
    59eb: b0 39        	bcs	$5a26 <printf+0x3ff>
    59ed: 0a           	asl
    59ee: aa           	tax
    59ef: 7c a1 79     	jmp	($79a1,x)               ; 0x79a1 <__set_v+0x3f>
    59f2: a6 15        	ldx	$15                     ; 0x2015 <f256main+0x1701>
    59f4: 86 df        	stx	$df                     ; 0x20df <f256main+0x17cb>
    59f6: a6 18        	ldx	$18                     ; 0x2018 <f256main+0x1704>
    59f8: 86 e0        	stx	$e0                     ; 0x20e0 <f256main+0x17cc>
    59fa: a0 0a        	ldy	#$a
    59fc: a2 0a        	ldx	#$a
    59fe: 86 db        	stx	$db                     ; 0x20db <f256main+0x17c7>
    5a00: 84 c6        	sty	$c6                     ; 0x20c6 <f256main+0x17b2>
    5a02: 64 a1        	stz	$a1                     ; 0x20a1 <f256main+0x178d>
    5a04: 4c 26 5b     	jmp	$5b26 <printf+0x4ff>
    5a07: b1 12        	lda	($12),y                 ; 0x2012 <f256main+0x16fe>
    5a09: a2 02        	ldx	#$2
    5a0b: c9 68        	cmp	#$68
    5a0d: f0 03        	beq	$5a12 <printf+0x3eb>
    5a0f: 4c 1c 5d     	jmp	$5d1c <printf+0x6f5>
    5a12: a5 12        	lda	$12                     ; 0x2012 <f256main+0x16fe>
    5a14: 18           	clc
    5a15: 69 02        	adc	#$2
    5a17: 85 12        	sta	$12                     ; 0x2012 <f256main+0x16fe>
    5a19: a5 13        	lda	$13                     ; 0x2013 <f256main+0x16ff>
    5a1b: 69 00        	adc	#$0
    5a1d: 85 13        	sta	$13                     ; 0x2013 <f256main+0x16ff>
    5a1f: a2 01        	ldx	#$1
    5a21: 86 dc        	stx	$dc                     ; 0x20dc <f256main+0x17c8>
    5a23: e8           	inx
    5a24: 80 b1        	bra	$59d7 <printf+0x3b0>
    5a26: e0 58        	cpx	#$58
    5a28: f0 03        	beq	$5a2d <printf+0x406>
    5a2a: 4c 0e 62     	jmp	$620e <printf+0xbe7>
    5a2d: a6 15        	ldx	$15                     ; 0x2015 <f256main+0x1701>
    5a2f: 86 df        	stx	$df                     ; 0x20df <f256main+0x17cb>
    5a31: a6 18        	ldx	$18                     ; 0x2018 <f256main+0x1704>
    5a33: 86 e0        	stx	$e0                     ; 0x20e0 <f256main+0x17cc>
    5a35: a2 10        	ldx	#$10
    5a37: 86 c6        	stx	$c6                     ; 0x20c6 <f256main+0x17b2>
    5a39: a9 00        	lda	#$0
    5a3b: 09 01        	ora	#$1
    5a3d: a6 97        	ldx	$97                     ; 0x2097 <f256main+0x1783>
    5a3f: 80 29        	bra	$5a6a <printf+0x443>
    5a41: a6 15        	ldx	$15                     ; 0x2015 <f256main+0x1701>
    5a43: 86 df        	stx	$df                     ; 0x20df <f256main+0x17cb>
    5a45: a6 18        	ldx	$18                     ; 0x2018 <f256main+0x1704>
    5a47: 86 e0        	stx	$e0                     ; 0x20e0 <f256main+0x17cc>
    5a49: a2 10        	ldx	#$10
    5a4b: 86 c6        	stx	$c6                     ; 0x20c6 <f256main+0x17b2>
    5a4d: a5 97        	lda	$97                     ; 0x2097 <f256main+0x1783>
    5a4f: 09 84        	ora	#$84
    5a51: 80 10        	bra	$5a63 <printf+0x43c>
    5a53: a6 15        	ldx	$15                     ; 0x2015 <f256main+0x1701>
    5a55: 86 df        	stx	$df                     ; 0x20df <f256main+0x17cb>
    5a57: a6 18        	ldx	$18                     ; 0x2018 <f256main+0x1704>
    5a59: 86 e0        	stx	$e0                     ; 0x20e0 <f256main+0x17cc>
    5a5b: a2 10        	ldx	#$10
    5a5d: 86 c6        	stx	$c6                     ; 0x20c6 <f256main+0x17b2>
    5a5f: a5 97        	lda	$97                     ; 0x2097 <f256main+0x1783>
    5a61: 09 80        	ora	#$80
    5a63: aa           	tax
    5a64: a9 00        	lda	#$0
    5a66: 09 01        	ora	#$1
    5a68: 86 97        	stx	$97                     ; 0x2097 <f256main+0x1783>
    5a6a: 86 c7        	stx	$c7                     ; 0x20c7 <f256main+0x17b3>
    5a6c: 85 a1        	sta	$a1                     ; 0x20a1 <f256main+0x178d>
    5a6e: 85 c8        	sta	$c8                     ; 0x20c8 <f256main+0x17b4>
    5a70: a2 10        	ldx	#$10
    5a72: 86 db        	stx	$db                     ; 0x20db <f256main+0x17c7>
    5a74: 4c 26 5b     	jmp	$5b26 <printf+0x4ff>
    5a77: a5 d7        	lda	$d7                     ; 0x20d7 <f256main+0x17c3>
    5a79: a6 d8        	ldx	$d8                     ; 0x20d8 <f256main+0x17c4>
    5a7b: 85 12        	sta	$12                     ; 0x2012 <f256main+0x16fe>
    5a7d: 86 13        	stx	$13                     ; 0x2013 <f256main+0x16ff>
    5a7f: 18           	clc
    5a80: 69 02        	adc	#$2
    5a82: 85 14        	sta	$14                     ; 0x2014 <f256main+0x1700>
    5a84: 8a           	txa
    5a85: 69 00        	adc	#$0
    5a87: a6 14        	ldx	$14                     ; 0x2014 <f256main+0x1700>
    5a89: 86 d7        	stx	$d7                     ; 0x20d7 <f256main+0x17c3>
    5a8b: 85 d8        	sta	$d8                     ; 0x20d8 <f256main+0x17c4>
    5a8d: b2 12        	lda	($12)                   ; 0x2012 <f256main+0x16fe>
    5a8f: aa           	tax
    5a90: b1 12        	lda	($12),y                 ; 0x2012 <f256main+0x16fe>
    5a92: 86 12        	stx	$12                     ; 0x2012 <f256main+0x16fe>
    5a94: 85 13        	sta	$13                     ; 0x2013 <f256main+0x16ff>
    5a96: a5 cb        	lda	$cb                     ; 0x20cb <f256main+0x17b7>
    5a98: a6 cc        	ldx	$cc                     ; 0x20cc <f256main+0x17b8>
    5a9a: 92 12        	sta	($12)                   ; 0x2012 <f256main+0x16fe>
    5a9c: 8a           	txa
    5a9d: 91 12        	sta	($12),y                 ; 0x2012 <f256main+0x16fe>
    5a9f: 4c ff 5a     	jmp	$5aff <printf+0x4d8>
    5aa2: a5 d7        	lda	$d7                     ; 0x20d7 <f256main+0x17c3>
    5aa4: a6 d8        	ldx	$d8                     ; 0x20d8 <f256main+0x17c4>
    5aa6: 85 12        	sta	$12                     ; 0x2012 <f256main+0x16fe>
    5aa8: 86 13        	stx	$13                     ; 0x2013 <f256main+0x16ff>
    5aaa: 18           	clc
    5aab: 69 02        	adc	#$2
    5aad: 85 14        	sta	$14                     ; 0x2014 <f256main+0x1700>
    5aaf: 8a           	txa
    5ab0: 69 00        	adc	#$0
    5ab2: a6 14        	ldx	$14                     ; 0x2014 <f256main+0x1700>
    5ab4: 86 d7        	stx	$d7                     ; 0x20d7 <f256main+0x17c3>
    5ab6: 85 d8        	sta	$d8                     ; 0x20d8 <f256main+0x17c4>
    5ab8: b2 12        	lda	($12)                   ; 0x2012 <f256main+0x16fe>
    5aba: aa           	tax
    5abb: b1 12        	lda	($12),y                 ; 0x2012 <f256main+0x16fe>
    5abd: 86 12        	stx	$12                     ; 0x2012 <f256main+0x16fe>
    5abf: 85 13        	sta	$13                     ; 0x2013 <f256main+0x16ff>
    5ac1: 80 2f        	bra	$5af2 <printf+0x4cb>
    5ac3: a6 15        	ldx	$15                     ; 0x2015 <f256main+0x1701>
    5ac5: 86 df        	stx	$df                     ; 0x20df <f256main+0x17cb>
    5ac7: a6 18        	ldx	$18                     ; 0x2018 <f256main+0x1704>
    5ac9: 86 e0        	stx	$e0                     ; 0x20e0 <f256main+0x17cc>
    5acb: a0 08        	ldy	#$8
    5acd: a2 08        	ldx	#$8
    5acf: 80 45        	bra	$5b16 <printf+0x4ef>
    5ad1: a5 d7        	lda	$d7                     ; 0x20d7 <f256main+0x17c3>
    5ad3: a6 d8        	ldx	$d8                     ; 0x20d8 <f256main+0x17c4>
    5ad5: 85 12        	sta	$12                     ; 0x2012 <f256main+0x16fe>
    5ad7: 86 13        	stx	$13                     ; 0x2013 <f256main+0x16ff>
    5ad9: 18           	clc
    5ada: 69 02        	adc	#$2
    5adc: a8           	tay
    5add: 8a           	txa
    5ade: 69 00        	adc	#$0
    5ae0: 84 d7        	sty	$d7                     ; 0x20d7 <f256main+0x17c3>
    5ae2: 85 d8        	sta	$d8                     ; 0x20d8 <f256main+0x17c4>
    5ae4: b2 12        	lda	($12)                   ; 0x2012 <f256main+0x16fe>
    5ae6: 85 b9        	sta	$b9                     ; 0x20b9 <f256main+0x17a5>
    5ae8: 64 ba        	stz	$ba                     ; 0x20ba <f256main+0x17a6>
    5aea: a2 b9        	ldx	#$b9
    5aec: 86 12        	stx	$12                     ; 0x2012 <f256main+0x16fe>
    5aee: a2 00        	ldx	#$0
    5af0: 86 13        	stx	$13                     ; 0x2013 <f256main+0x16ff>
    5af2: a2 c6        	ldx	#$c6
    5af4: 86 14        	stx	$14                     ; 0x2014 <f256main+0x1700>
    5af6: a2 00        	ldx	#$0
    5af8: 86 15        	stx	$15                     ; 0x2015 <f256main+0x1701>
    5afa: 20 1b 55     	jsr	$551b <_ZN12_GLOBAL__N_112print_stringEPKcP6Status>
    5afd: a0 01        	ldy	#$1
    5aff: a2 00        	ldx	#$0
    5b01: 86 9a        	stx	$9a                     ; 0x209a <f256main+0x1786>
    5b03: a2 00        	ldx	#$0
    5b05: 86 9b        	stx	$9b                     ; 0x209b <f256main+0x1787>
    5b07: 4c f6 61     	jmp	$61f6 <printf+0xbcf>
    5b0a: a6 15        	ldx	$15                     ; 0x2015 <f256main+0x1701>
    5b0c: 86 df        	stx	$df                     ; 0x20df <f256main+0x17cb>
    5b0e: a6 18        	ldx	$18                     ; 0x2018 <f256main+0x1704>
    5b10: 86 e0        	stx	$e0                     ; 0x20e0 <f256main+0x17cc>
    5b12: a0 0a        	ldy	#$a
    5b14: a2 0a        	ldx	#$a
    5b16: 86 db        	stx	$db                     ; 0x20db <f256main+0x17c7>
    5b18: 84 c6        	sty	$c6                     ; 0x20c6 <f256main+0x17b2>
    5b1a: a9 00        	lda	#$0
    5b1c: 09 01        	ora	#$1
    5b1e: a6 97        	ldx	$97                     ; 0x2097 <f256main+0x1783>
    5b20: 86 c7        	stx	$c7                     ; 0x20c7 <f256main+0x17b3>
    5b22: 85 a1        	sta	$a1                     ; 0x20a1 <f256main+0x178d>
    5b24: 85 c8        	sta	$c8                     ; 0x20c8 <f256main+0x17b4>
    5b26: a5 dc        	lda	$dc                     ; 0x20dc <f256main+0x17c8>
    5b28: 85 bb        	sta	$bb                     ; 0x20bb <f256main+0x17a7>
    5b2a: a4 d7        	ldy	$d7                     ; 0x20d7 <f256main+0x17c3>
    5b2c: a6 d8        	ldx	$d8                     ; 0x20d8 <f256main+0x17c4>
    5b2e: 86 9f        	stx	$9f                     ; 0x209f <f256main+0x178b>
    5b30: 84 14        	sty	$14                     ; 0x2014 <f256main+0x1700>
    5b32: 84 96        	sty	$96                     ; 0x2096 <f256main+0x1782>
    5b34: 86 15        	stx	$15                     ; 0x2015 <f256main+0x1701>
    5b36: a6 dd        	ldx	$dd                     ; 0x20dd <f256main+0x17c9>
    5b38: 86 12        	stx	$12                     ; 0x2012 <f256main+0x16fe>
    5b3a: a6 de        	ldx	$de                     ; 0x20de <f256main+0x17ca>
    5b3c: 86 13        	stx	$13                     ; 0x2013 <f256main+0x16ff>
    5b3e: a2 00        	ldx	#$0
    5b40: 85 9b        	sta	$9b                     ; 0x209b <f256main+0x1787>
    5b42: 20 26 64     	jsr	$6426 <memcpy>
    5b45: 18           	clc
    5b46: a5 96        	lda	$96                     ; 0x2096 <f256main+0x1782>
    5b48: 65 9a        	adc	$9a                     ; 0x209a <f256main+0x1786>
    5b4a: aa           	tax
    5b4b: a5 9f        	lda	$9f                     ; 0x209f <f256main+0x178b>
    5b4d: 69 00        	adc	#$0
    5b4f: 86 d7        	stx	$d7                     ; 0x20d7 <f256main+0x17c3>
    5b51: 85 d8        	sta	$d8                     ; 0x20d8 <f256main+0x17c4>
    5b53: a5 a1        	lda	$a1                     ; 0x20a1 <f256main+0x178d>
    5b55: 29 01        	and	#$1
    5b57: b8           	clv
    5b58: f0 03        	beq	$5b5d <printf+0x536>
    5b5a: 4c b1 5b     	jmp	$5bb1 <printf+0x58a>
    5b5d: a6 9b        	ldx	$9b                     ; 0x209b <f256main+0x1787>
    5b5f: b5 bb        	lda	$bb,x                   ; 0x20bb <f256main+0x17a7>
    5b61: aa           	tax
    5b62: a0 01        	ldy	#$1
    5b64: a5 9e        	lda	$9e                     ; 0x209e <f256main+0x178a>
    5b66: 85 1a        	sta	$1a                     ; 0x201a <f256main+0x1706>
    5b68: a5 e0        	lda	$e0                     ; 0x20e0 <f256main+0x17cc>
    5b6a: 85 9e        	sta	$9e                     ; 0x209e <f256main+0x178a>
    5b6c: a9 00        	lda	#$0
    5b6e: 85 9a        	sta	$9a                     ; 0x209a <f256main+0x1786>
    5b70: a9 00        	lda	#$0
    5b72: 85 9b        	sta	$9b                     ; 0x209b <f256main+0x1787>
    5b74: a5 df        	lda	$df                     ; 0x20df <f256main+0x17cb>
    5b76: 85 9f        	sta	$9f                     ; 0x209f <f256main+0x178b>
    5b78: 8a           	txa
    5b79: 10 4c        	bpl	$5bc7 <printf+0x5a0>
    5b7b: a2 00        	ldx	#$0
    5b7d: 64 12        	stz	$12                     ; 0x2012 <f256main+0x16fe>
    5b7f: a9 00        	lda	#$0
    5b81: 38           	sec
    5b82: f5 bc        	sbc	$bc,x                   ; 0x20bc <f256main+0x17a8>
    5b84: a0 00        	ldy	#$0
    5b86: b0 02        	bcs	$5b8a <printf+0x563>
    5b88: a0 01        	ldy	#$1
    5b8a: 38           	sec
    5b8b: e5 12        	sbc	$12                     ; 0x2012 <f256main+0x16fe>
    5b8d: 85 13        	sta	$13                     ; 0x2013 <f256main+0x16ff>
    5b8f: 64 12        	stz	$12                     ; 0x2012 <f256main+0x16fe>
    5b91: b0 04        	bcs	$5b97 <printf+0x570>
    5b93: a9 01        	lda	#$1
    5b95: 85 12        	sta	$12                     ; 0x2012 <f256main+0x16fe>
    5b97: 98           	tya
    5b98: 05 12        	ora	$12                     ; 0x2012 <f256main+0x16fe>
    5b9a: 85 12        	sta	$12                     ; 0x2012 <f256main+0x16fe>
    5b9c: a5 13        	lda	$13                     ; 0x2013 <f256main+0x16ff>
    5b9e: 9d bc 00     	sta	$bc,x                   ; 0xbc <__zp_bss_size+0x62>
    5ba1: e8           	inx
    5ba2: 86 13        	stx	$13                     ; 0x2013 <f256main+0x16ff>
    5ba4: a4 dc        	ldy	$dc                     ; 0x20dc <f256main+0x17c8>
    5ba6: c4 13        	cpy	$13                     ; 0x2013 <f256main+0x16ff>
    5ba8: d0 d5        	bne	$5b7f <printf+0x558>
    5baa: 2c 62 79     	bit	$7962                   ; 0x7962 <__set_v>
    5bad: a0 01        	ldy	#$1
    5baf: 80 16        	bra	$5bc7 <printf+0x5a0>
    5bb1: a0 01        	ldy	#$1
    5bb3: a6 9e        	ldx	$9e                     ; 0x209e <f256main+0x178a>
    5bb5: 86 1a        	stx	$1a                     ; 0x201a <f256main+0x1706>
    5bb7: a6 e0        	ldx	$e0                     ; 0x20e0 <f256main+0x17cc>
    5bb9: 86 9e        	stx	$9e                     ; 0x209e <f256main+0x178a>
    5bbb: a2 00        	ldx	#$0
    5bbd: 86 9a        	stx	$9a                     ; 0x209a <f256main+0x1786>
    5bbf: a2 00        	ldx	#$0
    5bc1: 86 9b        	stx	$9b                     ; 0x209b <f256main+0x1787>
    5bc3: a6 df        	ldx	$df                     ; 0x20df <f256main+0x17cb>
    5bc5: 86 9f        	stx	$9f                     ; 0x209f <f256main+0x178b>
    5bc7: a2 01        	ldx	#$1
    5bc9: 70 02        	bvs	$5bcd <printf+0x5a6>
    5bcb: a2 00        	ldx	#$0
    5bcd: 86 16        	stx	$16                     ; 0x2016 <f256main+0x1702>
    5bcf: a5 dc        	lda	$dc                     ; 0x20dc <f256main+0x17c8>
    5bd1: 0a           	asl
    5bd2: 0a           	asl
    5bd3: 0a           	asl
    5bd4: 85 12        	sta	$12                     ; 0x2012 <f256main+0x16fe>
    5bd6: a2 00        	ldx	#$0
    5bd8: 8a           	txa
    5bd9: e0 00        	cpx	#$0
    5bdb: d0 03        	bne	$5be0 <printf+0x5b9>
    5bdd: 4c 65 5c     	jmp	$5c65 <printf+0x63e>
    5be0: 85 17        	sta	$17                     ; 0x2017 <f256main+0x1703>
    5be2: 86 96        	stx	$96                     ; 0x2096 <f256main+0x1782>
    5be4: ca           	dex
    5be5: 86 15        	stx	$15                     ; 0x2015 <f256main+0x1701>
    5be7: a2 00        	ldx	#$0
    5be9: 64 13        	stz	$13                     ; 0x2013 <f256main+0x16ff>
    5beb: 80 0d        	bra	$5bfa <printf+0x5d3>
    5bed: a4 13        	ldy	$13                     ; 0x2013 <f256main+0x16ff>
    5bef: 99 a4 00     	sta	$a4,y                   ; 0xa4 <__zp_bss_size+0x4a>
    5bf2: a4 15        	ldy	$15                     ; 0x2015 <f256main+0x1701>
    5bf4: c4 13        	cpy	$13                     ; 0x2013 <f256main+0x16ff>
    5bf6: f0 38        	beq	$5c30 <printf+0x609>
    5bf8: e6 13        	inc	$13                     ; 0x2013 <f256main+0x16ff>
    5bfa: a4 13        	ldy	$13                     ; 0x2013 <f256main+0x16ff>
    5bfc: b9 a4 00     	lda	$a4,y                   ; 0xa4 <__zp_bss_size+0x4a>
    5bff: 0a           	asl
    5c00: e0 00        	cpx	#$0
    5c02: f0 02        	beq	$5c06 <printf+0x5df>
    5c04: 09 01        	ora	#$1
    5c06: a4 db        	ldy	$db                     ; 0x20db <f256main+0x17c7>
    5c08: 84 14        	sty	$14                     ; 0x2014 <f256main+0x1700>
    5c0a: c5 14        	cmp	$14                     ; 0x2014 <f256main+0x1700>
    5c0c: a2 01        	ldx	#$1
    5c0e: b0 02        	bcs	$5c12 <printf+0x5eb>
    5c10: a2 00        	ldx	#$0
    5c12: 90 d9        	bcc	$5bed <printf+0x5c6>
    5c14: 84 14        	sty	$14                     ; 0x2014 <f256main+0x1700>
    5c16: 38           	sec
    5c17: e5 14        	sbc	$14                     ; 0x2014 <f256main+0x1700>
    5c19: a4 13        	ldy	$13                     ; 0x2013 <f256main+0x16ff>
    5c1b: 99 a4 00     	sta	$a4,y                   ; 0xa4 <__zp_bss_size+0x4a>
    5c1e: a4 15        	ldy	$15                     ; 0x2015 <f256main+0x1701>
    5c20: c4 13        	cpy	$13                     ; 0x2013 <f256main+0x16ff>
    5c22: d0 d4        	bne	$5bf8 <printf+0x5d1>
    5c24: a4 96        	ldy	$96                     ; 0x2096 <f256main+0x1782>
    5c26: a6 96        	ldx	$96                     ; 0x2096 <f256main+0x1782>
    5c28: e8           	inx
    5c29: a9 01        	lda	#$1
    5c2b: 99 a4 00     	sta	$a4,y                   ; 0xa4 <__zp_bss_size+0x4a>
    5c2e: 86 96        	stx	$96                     ; 0x2096 <f256main+0x1782>
    5c30: a6 dc        	ldx	$dc                     ; 0x20dc <f256main+0x17c8>
    5c32: b5 bb        	lda	$bb,x                   ; 0x20bb <f256main+0x17a7>
    5c34: aa           	tax
    5c35: a0 01        	ldy	#$1
    5c37: 8a           	txa
    5c38: 10 47        	bpl	$5c81 <printf+0x65a>
    5c3a: a5 96        	lda	$96                     ; 0x2096 <f256main+0x1782>
    5c3c: f0 34        	beq	$5c72 <printf+0x64b>
    5c3e: a2 00        	ldx	#$0
    5c40: a4 db        	ldy	$db                     ; 0x20db <f256main+0x17c7>
    5c42: 84 14        	sty	$14                     ; 0x2014 <f256main+0x1700>
    5c44: b5 a4        	lda	$a4,x                   ; 0x20a4 <f256main+0x1790>
    5c46: 1a           	inc
    5c47: f6 a4        	inc	$a4,x                   ; 0x20a4 <f256main+0x1790>
    5c49: c5 14        	cmp	$14                     ; 0x2014 <f256main+0x1700>
    5c4b: b0 03        	bcs	$5c50 <printf+0x629>
    5c4d: 4c ac 5c     	jmp	$5cac <printf+0x685>
    5c50: a4 14        	ldy	$14                     ; 0x2014 <f256main+0x1700>
    5c52: 84 13        	sty	$13                     ; 0x2013 <f256main+0x16ff>
    5c54: 38           	sec
    5c55: e5 13        	sbc	$13                     ; 0x2013 <f256main+0x16ff>
    5c57: 9d a4 00     	sta	$a4,x                   ; 0xa4 <__zp_bss_size+0x4a>
    5c5a: e8           	inx
    5c5b: 86 13        	stx	$13                     ; 0x2013 <f256main+0x16ff>
    5c5d: a4 96        	ldy	$96                     ; 0x2096 <f256main+0x1782>
    5c5f: c4 13        	cpy	$13                     ; 0x2013 <f256main+0x16ff>
    5c61: d0 e1        	bne	$5c44 <printf+0x61d>
    5c63: 80 0f        	bra	$5c74 <printf+0x64d>
    5c65: 85 17        	sta	$17                     ; 0x2017 <f256main+0x1703>
    5c67: a6 dc        	ldx	$dc                     ; 0x20dc <f256main+0x17c8>
    5c69: b5 bb        	lda	$bb,x                   ; 0x20bb <f256main+0x17a7>
    5c6b: aa           	tax
    5c6c: 64 96        	stz	$96                     ; 0x2096 <f256main+0x1782>
    5c6e: 30 04        	bmi	$5c74 <printf+0x64d>
    5c70: 80 0f        	bra	$5c81 <printf+0x65a>
    5c72: 64 96        	stz	$96                     ; 0x2096 <f256main+0x1782>
    5c74: a4 96        	ldy	$96                     ; 0x2096 <f256main+0x1782>
    5c76: a6 96        	ldx	$96                     ; 0x2096 <f256main+0x1782>
    5c78: e8           	inx
    5c79: a9 01        	lda	#$1
    5c7b: 99 a4 00     	sta	$a4,y                   ; 0xa4 <__zp_bss_size+0x4a>
    5c7e: a8           	tay
    5c7f: 86 96        	stx	$96                     ; 0x2096 <f256main+0x1782>
    5c81: a2 01        	ldx	#$1
    5c83: 64 13        	stz	$13                     ; 0x2013 <f256main+0x16ff>
    5c85: a5 dc        	lda	$dc                     ; 0x20dc <f256main+0x17c8>
    5c87: 85 14        	sta	$14                     ; 0x2014 <f256main+0x1700>
    5c89: b5 bb        	lda	$bb,x                   ; 0x20bb <f256main+0x17a7>
    5c8b: 0a           	asl
    5c8c: 64 15        	stz	$15                     ; 0x2015 <f256main+0x1701>
    5c8e: 26 15        	rol	$15                     ; 0x2015 <f256main+0x1701>
    5c90: 05 13        	ora	$13                     ; 0x2013 <f256main+0x16ff>
    5c92: 9d bb 00     	sta	$bb,x                   ; 0xbb <__zp_bss_size+0x61>
    5c95: e8           	inx
    5c96: c6 14        	dec	$14                     ; 0x2014 <f256main+0x1700>
    5c98: a5 15        	lda	$15                     ; 0x2015 <f256main+0x1701>
    5c9a: 85 13        	sta	$13                     ; 0x2013 <f256main+0x16ff>
    5c9c: a5 14        	lda	$14                     ; 0x2014 <f256main+0x1700>
    5c9e: d0 e9        	bne	$5c89 <printf+0x662>
    5ca0: a5 17        	lda	$17                     ; 0x2017 <f256main+0x1703>
    5ca2: 1a           	inc
    5ca3: c5 12        	cmp	$12                     ; 0x2012 <f256main+0x16fe>
    5ca5: a6 96        	ldx	$96                     ; 0x2096 <f256main+0x1782>
    5ca7: b0 07        	bcs	$5cb0 <printf+0x689>
    5ca9: 4c d9 5b     	jmp	$5bd9 <printf+0x5b2>
    5cac: a0 01        	ldy	#$1
    5cae: 80 d1        	bra	$5c81 <printf+0x65a>
    5cb0: a5 97        	lda	$97                     ; 0x2097 <f256main+0x1783>
    5cb2: e6 9f        	inc	$9f                     ; 0x209f <f256main+0x178b>
    5cb4: c6 9f        	dec	$9f                     ; 0x209f <f256main+0x178b>
    5cb6: 10 08        	bpl	$5cc0 <printf+0x699>
    5cb8: a2 01        	ldx	#$1
    5cba: 64 9f        	stz	$9f                     ; 0x209f <f256main+0x178b>
    5cbc: 86 9e        	stx	$9e                     ; 0x209e <f256main+0x178a>
    5cbe: a6 96        	ldx	$96                     ; 0x2096 <f256main+0x1782>
    5cc0: 29 04        	and	#$4
    5cc2: f0 2b        	beq	$5cef <printf+0x6c8>
    5cc4: a5 db        	lda	$db                     ; 0x20db <f256main+0x17c7>
    5cc6: c9 10        	cmp	#$10
    5cc8: f0 14        	beq	$5cde <printf+0x6b7>
    5cca: c9 08        	cmp	#$8
    5ccc: d0 21        	bne	$5cef <printf+0x6c8>
    5cce: a2 00        	ldx	#$0
    5cd0: e4 9f        	cpx	$9f                     ; 0x209f <f256main+0x178b>
    5cd2: f0 03        	beq	$5cd7 <printf+0x6b0>
    5cd4: 4c 1b 62     	jmp	$621b <printf+0xbf4>
    5cd7: a6 96        	ldx	$96                     ; 0x2096 <f256main+0x1782>
    5cd9: e4 9e        	cpx	$9e                     ; 0x209e <f256main+0x178a>
    5cdb: 4c 1d 62     	jmp	$621d <printf+0xbf6>
    5cde: 8a           	txa
    5cdf: f0 0e        	beq	$5cef <printf+0x6c8>
    5ce1: a5 97        	lda	$97                     ; 0x2097 <f256main+0x1783>
    5ce3: 29 80        	and	#$80
    5ce5: d0 03        	bne	$5cea <printf+0x6c3>
    5ce7: 4c 36 62     	jmp	$6236 <printf+0xc0f>
    5cea: a2 78        	ldx	#$78
    5cec: 4c 38 62     	jmp	$6238 <printf+0xc11>
    5cef: a6 97        	ldx	$97                     ; 0x2097 <f256main+0x1783>
    5cf1: a9 2d        	lda	#$2d
    5cf3: 85 df        	sta	$df                     ; 0x20df <f256main+0x17cb>
    5cf5: a5 16        	lda	$16                     ; 0x2016 <f256main+0x1702>
    5cf7: d0 32        	bne	$5d2b <printf+0x704>
    5cf9: 86 12        	stx	$12                     ; 0x2012 <f256main+0x16fe>
    5cfb: 8a           	txa
    5cfc: 29 02        	and	#$2
    5cfe: a2 2b        	ldx	#$2b
    5d00: 86 df        	stx	$df                     ; 0x20df <f256main+0x17cb>
    5d02: aa           	tax
    5d03: d0 26        	bne	$5d2b <printf+0x704>
    5d05: a5 12        	lda	$12                     ; 0x2012 <f256main+0x16fe>
    5d07: 29 08        	and	#$8
    5d09: d0 1c        	bne	$5d27 <printf+0x700>
    5d0b: a2 01        	ldx	#$1
    5d0d: 86 dc        	stx	$dc                     ; 0x20dc <f256main+0x17c8>
    5d0f: a9 00        	lda	#$0
    5d11: aa           	tax
    5d12: 86 db        	stx	$db                     ; 0x20db <f256main+0x17c7>
    5d14: 80 1c        	bra	$5d32 <printf+0x70b>
    5d16: 85 12        	sta	$12                     ; 0x2012 <f256main+0x16fe>
    5d18: a9 04        	lda	#$4
    5d1a: 80 04        	bra	$5d20 <printf+0x6f9>
    5d1c: 85 12        	sta	$12                     ; 0x2012 <f256main+0x16fe>
    5d1e: a9 02        	lda	#$2
    5d20: 85 dc        	sta	$dc                     ; 0x20dc <f256main+0x17c8>
    5d22: a5 12        	lda	$12                     ; 0x2012 <f256main+0x16fe>
    5d24: 4c e3 59     	jmp	$59e3 <printf+0x3bc>
    5d27: a2 20        	ldx	#$20
    5d29: 86 df        	stx	$df                     ; 0x20df <f256main+0x17cb>
    5d2b: a2 00        	ldx	#$0
    5d2d: 86 dc        	stx	$dc                     ; 0x20dc <f256main+0x17c8>
    5d2f: 86 db        	stx	$db                     ; 0x20db <f256main+0x17c7>
    5d31: 98           	tya
    5d32: a6 9f        	ldx	$9f                     ; 0x209f <f256main+0x178b>
    5d34: d0 35        	bne	$5d6b <printf+0x744>
    5d36: a6 9e        	ldx	$9e                     ; 0x209e <f256main+0x178a>
    5d38: a4 96        	ldy	$96                     ; 0x2096 <f256main+0x1782>
    5d3a: 84 12        	sty	$12                     ; 0x2012 <f256main+0x16fe>
    5d3c: e4 12        	cpx	$12                     ; 0x2012 <f256main+0x16fe>
    5d3e: a6 9e        	ldx	$9e                     ; 0x209e <f256main+0x178a>
    5d40: 86 12        	stx	$12                     ; 0x2012 <f256main+0x16fe>
    5d42: a6 9f        	ldx	$9f                     ; 0x209f <f256main+0x178b>
    5d44: 86 13        	stx	$13                     ; 0x2013 <f256main+0x16ff>
    5d46: b0 04        	bcs	$5d4c <printf+0x725>
    5d48: 84 12        	sty	$12                     ; 0x2012 <f256main+0x16fe>
    5d4a: 64 13        	stz	$13                     ; 0x2013 <f256main+0x16ff>
    5d4c: 85 18        	sta	$18                     ; 0x2018 <f256main+0x1704>
    5d4e: 18           	clc
    5d4f: 65 12        	adc	$12                     ; 0x2012 <f256main+0x16fe>
    5d51: 85 16        	sta	$16                     ; 0x2016 <f256main+0x1702>
    5d53: 85 14        	sta	$14                     ; 0x2014 <f256main+0x1700>
    5d55: a5 13        	lda	$13                     ; 0x2013 <f256main+0x16ff>
    5d57: 69 00        	adc	#$0
    5d59: 85 15        	sta	$15                     ; 0x2015 <f256main+0x1701>
    5d5b: c5 1a        	cmp	$1a                     ; 0x201a <f256main+0x1706>
    5d5d: d0 1e        	bne	$5d7d <printf+0x756>
    5d5f: a6 1a        	ldx	$1a                     ; 0x201a <f256main+0x1706>
    5d61: 86 17        	stx	$17                     ; 0x2017 <f256main+0x1703>
    5d63: a6 a0        	ldx	$a0                     ; 0x20a0 <f256main+0x178c>
    5d65: a5 16        	lda	$16                     ; 0x2016 <f256main+0x1702>
    5d67: c5 a0        	cmp	$a0                     ; 0x20a0 <f256main+0x178c>
    5d69: 80 1c        	bra	$5d87 <printf+0x760>
    5d6b: a6 9f        	ldx	$9f                     ; 0x209f <f256main+0x178b>
    5d6d: e0 00        	cpx	#$0
    5d6f: a6 9e        	ldx	$9e                     ; 0x209e <f256main+0x178a>
    5d71: 86 12        	stx	$12                     ; 0x2012 <f256main+0x16fe>
    5d73: a6 9f        	ldx	$9f                     ; 0x209f <f256main+0x178b>
    5d75: 86 13        	stx	$13                     ; 0x2013 <f256main+0x16ff>
    5d77: a4 96        	ldy	$96                     ; 0x2096 <f256main+0x1782>
    5d79: 90 cd        	bcc	$5d48 <printf+0x721>
    5d7b: 80 cf        	bra	$5d4c <printf+0x725>
    5d7d: a6 a0        	ldx	$a0                     ; 0x20a0 <f256main+0x178c>
    5d7f: 5a           	phy
    5d80: a4 1a        	ldy	$1a                     ; 0x201a <f256main+0x1706>
    5d82: 84 17        	sty	$17                     ; 0x2017 <f256main+0x1703>
    5d84: 7a           	ply
    5d85: c5 1a        	cmp	$1a                     ; 0x201a <f256main+0x1706>
    5d87: 64 a1        	stz	$a1                     ; 0x20a1 <f256main+0x178d>
    5d89: 64 a0        	stz	$a0                     ; 0x20a0 <f256main+0x178c>
    5d8b: 90 03        	bcc	$5d90 <printf+0x769>
    5d8d: 4c 31 5e     	jmp	$5e31 <printf+0x80a>
    5d90: a5 97        	lda	$97                     ; 0x2097 <f256main+0x1783>
    5d92: 29 11        	and	#$11
    5d94: 86 16        	stx	$16                     ; 0x2016 <f256main+0x1702>
    5d96: f0 0f        	beq	$5da7 <printf+0x780>
    5d98: 8a           	txa
    5d99: 38           	sec
    5d9a: e5 14        	sbc	$14                     ; 0x2014 <f256main+0x1700>
    5d9c: 85 a1        	sta	$a1                     ; 0x20a1 <f256main+0x178d>
    5d9e: a5 1a        	lda	$1a                     ; 0x201a <f256main+0x1706>
    5da0: e5 15        	sbc	$15                     ; 0x2015 <f256main+0x1701>
    5da2: 85 a0        	sta	$a0                     ; 0x20a0 <f256main+0x178c>
    5da4: 4c 31 5e     	jmp	$5e31 <printf+0x80a>
    5da7: a6 cb        	ldx	$cb                     ; 0x20cb <f256main+0x17b7>
    5da9: 86 14        	stx	$14                     ; 0x2014 <f256main+0x1700>
    5dab: 38           	sec
    5dac: a5 18        	lda	$18                     ; 0x2018 <f256main+0x1704>
    5dae: e5 16        	sbc	$16                     ; 0x2016 <f256main+0x1702>
    5db0: aa           	tax
    5db1: a9 00        	lda	#$0
    5db3: e5 17        	sbc	$17                     ; 0x2017 <f256main+0x1703>
    5db5: a8           	tay
    5db6: 18           	clc
    5db7: 8a           	txa
    5db8: 65 12        	adc	$12                     ; 0x2012 <f256main+0x16fe>
    5dba: 85 97        	sta	$97                     ; 0x2097 <f256main+0x1783>
    5dbc: 98           	tya
    5dbd: 65 13        	adc	$13                     ; 0x2013 <f256main+0x16ff>
    5dbf: a4 cc        	ldy	$cc                     ; 0x20cc <f256main+0x17b8>
    5dc1: 4c 15 5e     	jmp	$5e15 <printf+0x7ee>
    5dc4: c4 ca        	cpy	$ca                     ; 0x20ca <f256main+0x17b6>
    5dc6: b0 2f        	bcs	$5df7 <printf+0x7d0>
    5dc8: a6 d6        	ldx	$d6                     ; 0x20d6 <f256main+0x17c2>
    5dca: e4 9b        	cpx	$9b                     ; 0x209b <f256main+0x1787>
    5dcc: d0 18        	bne	$5de6 <printf+0x7bf>
    5dce: a6 d5        	ldx	$d5                     ; 0x20d5 <f256main+0x17c1>
    5dd0: e4 9a        	cpx	$9a                     ; 0x209a <f256main+0x1786>
    5dd2: d0 12        	bne	$5de6 <printf+0x7bf>
    5dd4: 18           	clc
    5dd5: a5 14        	lda	$14                     ; 0x2014 <f256main+0x1700>
    5dd7: 65 cf        	adc	$cf                     ; 0x20cf <f256main+0x17bb>
    5dd9: 85 12        	sta	$12                     ; 0x2012 <f256main+0x16fe>
    5ddb: 98           	tya
    5ddc: 65 d0        	adc	$d0                     ; 0x20d0 <f256main+0x17bc>
    5dde: 85 13        	sta	$13                     ; 0x2013 <f256main+0x16ff>
    5de0: a9 20        	lda	#$20
    5de2: 92 12        	sta	($12)                   ; 0x2012 <f256main+0x16fe>
    5de4: 80 0f        	bra	$5df5 <printf+0x7ce>
    5de6: a2 20        	ldx	#$20
    5de8: 86 35        	stx	$35                     ; 0x2035 <f256main+0x1721>
    5dea: a2 35        	ldx	#$35
    5dec: 86 12        	stx	$12                     ; 0x2012 <f256main+0x16fe>
    5dee: a2 00        	ldx	#$0
    5df0: 86 13        	stx	$13                     ; 0x2013 <f256main+0x16ff>
    5df2: 20 c7 2e     	jsr	$2ec7 <textPrint>
    5df5: a5 a0        	lda	$a0                     ; 0x20a0 <f256main+0x178c>
    5df7: a6 cb        	ldx	$cb                     ; 0x20cb <f256main+0x17b7>
    5df9: a4 cc        	ldy	$cc                     ; 0x20cc <f256main+0x17b8>
    5dfb: e8           	inx
    5dfc: d0 01        	bne	$5dff <printf+0x7d8>
    5dfe: c8           	iny
    5dff: 86 14        	stx	$14                     ; 0x2014 <f256main+0x1700>
    5e01: 86 cb        	stx	$cb                     ; 0x20cb <f256main+0x17b7>
    5e03: 84 cc        	sty	$cc                     ; 0x20cc <f256main+0x17b8>
    5e05: a6 97        	ldx	$97                     ; 0x2097 <f256main+0x1783>
    5e07: e8           	inx
    5e08: d0 01        	bne	$5e0b <printf+0x7e4>
    5e0a: 1a           	inc
    5e0b: 86 97        	stx	$97                     ; 0x2097 <f256main+0x1783>
    5e0d: c9 00        	cmp	#$0
    5e0f: d0 04        	bne	$5e15 <printf+0x7ee>
    5e11: e0 00        	cpx	#$0
    5e13: f0 16        	beq	$5e2b <printf+0x804>
    5e15: 85 a0        	sta	$a0                     ; 0x20a0 <f256main+0x178c>
    5e17: c4 ca        	cpy	$ca                     ; 0x20ca <f256main+0x17b6>
    5e19: f0 03        	beq	$5e1e <printf+0x7f7>
    5e1b: 4c c4 5d     	jmp	$5dc4 <printf+0x79d>
    5e1e: a6 c9        	ldx	$c9                     ; 0x20c9 <f256main+0x17b5>
    5e20: 86 12        	stx	$12                     ; 0x2012 <f256main+0x16fe>
    5e22: a6 14        	ldx	$14                     ; 0x2014 <f256main+0x1700>
    5e24: e4 12        	cpx	$12                     ; 0x2012 <f256main+0x16fe>
    5e26: b0 cf        	bcs	$5df7 <printf+0x7d0>
    5e28: 4c c8 5d     	jmp	$5dc8 <printf+0x7a1>
    5e2b: 64 a1        	stz	$a1                     ; 0x20a1 <f256main+0x178d>
    5e2d: 64 a0        	stz	$a0                     ; 0x20a0 <f256main+0x178c>
    5e2f: a4 96        	ldy	$96                     ; 0x2096 <f256main+0x1782>
    5e31: a6 dc        	ldx	$dc                     ; 0x20dc <f256main+0x17c8>
    5e33: f0 03        	beq	$5e38 <printf+0x811>
    5e35: 4c 8f 5e     	jmp	$5e8f <printf+0x868>
    5e38: a6 cb        	ldx	$cb                     ; 0x20cb <f256main+0x17b7>
    5e3a: a5 cc        	lda	$cc                     ; 0x20cc <f256main+0x17b8>
    5e3c: c5 ca        	cmp	$ca                     ; 0x20ca <f256main+0x17b6>
    5e3e: d0 10        	bne	$5e50 <printf+0x829>
    5e40: 86 13        	stx	$13                     ; 0x2013 <f256main+0x16ff>
    5e42: a6 c9        	ldx	$c9                     ; 0x20c9 <f256main+0x17b5>
    5e44: 86 12        	stx	$12                     ; 0x2012 <f256main+0x16fe>
    5e46: a4 96        	ldy	$96                     ; 0x2096 <f256main+0x1782>
    5e48: a6 13        	ldx	$13                     ; 0x2013 <f256main+0x16ff>
    5e4a: e4 12        	cpx	$12                     ; 0x2012 <f256main+0x16fe>
    5e4c: 90 08        	bcc	$5e56 <printf+0x82f>
    5e4e: 80 39        	bra	$5e89 <printf+0x862>
    5e50: 86 13        	stx	$13                     ; 0x2013 <f256main+0x16ff>
    5e52: c5 ca        	cmp	$ca                     ; 0x20ca <f256main+0x17b6>
    5e54: b0 33        	bcs	$5e89 <printf+0x862>
    5e56: a6 d6        	ldx	$d6                     ; 0x20d6 <f256main+0x17c2>
    5e58: e4 9b        	cpx	$9b                     ; 0x209b <f256main+0x1787>
    5e5a: d0 1c        	bne	$5e78 <printf+0x851>
    5e5c: a6 d5        	ldx	$d5                     ; 0x20d5 <f256main+0x17c1>
    5e5e: e4 9a        	cpx	$9a                     ; 0x209a <f256main+0x1786>
    5e60: d0 16        	bne	$5e78 <printf+0x851>
    5e62: 18           	clc
    5e63: 85 12        	sta	$12                     ; 0x2012 <f256main+0x16fe>
    5e65: a5 13        	lda	$13                     ; 0x2013 <f256main+0x16ff>
    5e67: 65 cf        	adc	$cf                     ; 0x20cf <f256main+0x17bb>
    5e69: aa           	tax
    5e6a: a5 12        	lda	$12                     ; 0x2012 <f256main+0x16fe>
    5e6c: 65 d0        	adc	$d0                     ; 0x20d0 <f256main+0x17bc>
    5e6e: 86 12        	stx	$12                     ; 0x2012 <f256main+0x16fe>
    5e70: 85 13        	sta	$13                     ; 0x2013 <f256main+0x16ff>
    5e72: a5 df        	lda	$df                     ; 0x20df <f256main+0x17cb>
    5e74: 92 12        	sta	($12)                   ; 0x2012 <f256main+0x16fe>
    5e76: 80 0f        	bra	$5e87 <printf+0x860>
    5e78: a6 df        	ldx	$df                     ; 0x20df <f256main+0x17cb>
    5e7a: 86 35        	stx	$35                     ; 0x2035 <f256main+0x1721>
    5e7c: a2 35        	ldx	#$35
    5e7e: 86 12        	stx	$12                     ; 0x2012 <f256main+0x16fe>
    5e80: a2 00        	ldx	#$0
    5e82: 86 13        	stx	$13                     ; 0x2013 <f256main+0x16ff>
    5e84: 20 c7 2e     	jsr	$2ec7 <textPrint>
    5e87: a4 96        	ldy	$96                     ; 0x2096 <f256main+0x1782>
    5e89: e6 cb        	inc	$cb                     ; 0x20cb <f256main+0x17b7>
    5e8b: d0 02        	bne	$5e8f <printf+0x868>
    5e8d: e6 cc        	inc	$cc                     ; 0x20cc <f256main+0x17b8>
    5e8f: a6 db        	ldx	$db                     ; 0x20db <f256main+0x17c7>
    5e91: d0 03        	bne	$5e96 <printf+0x86f>
    5e93: 4c ed 5e     	jmp	$5eed <printf+0x8c6>
    5e96: a6 cb        	ldx	$cb                     ; 0x20cb <f256main+0x17b7>
    5e98: a5 cc        	lda	$cc                     ; 0x20cc <f256main+0x17b8>
    5e9a: c5 ca        	cmp	$ca                     ; 0x20ca <f256main+0x17b6>
    5e9c: d0 10        	bne	$5eae <printf+0x887>
    5e9e: 86 13        	stx	$13                     ; 0x2013 <f256main+0x16ff>
    5ea0: a6 c9        	ldx	$c9                     ; 0x20c9 <f256main+0x17b5>
    5ea2: 86 12        	stx	$12                     ; 0x2012 <f256main+0x16fe>
    5ea4: a4 96        	ldy	$96                     ; 0x2096 <f256main+0x1782>
    5ea6: a6 13        	ldx	$13                     ; 0x2013 <f256main+0x16ff>
    5ea8: e4 12        	cpx	$12                     ; 0x2012 <f256main+0x16fe>
    5eaa: 90 08        	bcc	$5eb4 <printf+0x88d>
    5eac: 80 39        	bra	$5ee7 <printf+0x8c0>
    5eae: 86 13        	stx	$13                     ; 0x2013 <f256main+0x16ff>
    5eb0: c5 ca        	cmp	$ca                     ; 0x20ca <f256main+0x17b6>
    5eb2: b0 33        	bcs	$5ee7 <printf+0x8c0>
    5eb4: a6 d6        	ldx	$d6                     ; 0x20d6 <f256main+0x17c2>
    5eb6: e4 9b        	cpx	$9b                     ; 0x209b <f256main+0x1787>
    5eb8: d0 1c        	bne	$5ed6 <printf+0x8af>
    5eba: a6 d5        	ldx	$d5                     ; 0x20d5 <f256main+0x17c1>
    5ebc: e4 9a        	cpx	$9a                     ; 0x209a <f256main+0x1786>
    5ebe: d0 16        	bne	$5ed6 <printf+0x8af>
    5ec0: 18           	clc
    5ec1: 85 12        	sta	$12                     ; 0x2012 <f256main+0x16fe>
    5ec3: a5 13        	lda	$13                     ; 0x2013 <f256main+0x16ff>
    5ec5: 65 cf        	adc	$cf                     ; 0x20cf <f256main+0x17bb>
    5ec7: aa           	tax
    5ec8: a5 12        	lda	$12                     ; 0x2012 <f256main+0x16fe>
    5eca: 65 d0        	adc	$d0                     ; 0x20d0 <f256main+0x17bc>
    5ecc: 86 12        	stx	$12                     ; 0x2012 <f256main+0x16fe>
    5ece: 85 13        	sta	$13                     ; 0x2013 <f256main+0x16ff>
    5ed0: a5 e0        	lda	$e0                     ; 0x20e0 <f256main+0x17cc>
    5ed2: 92 12        	sta	($12)                   ; 0x2012 <f256main+0x16fe>
    5ed4: 80 0f        	bra	$5ee5 <printf+0x8be>
    5ed6: a6 e0        	ldx	$e0                     ; 0x20e0 <f256main+0x17cc>
    5ed8: 86 35        	stx	$35                     ; 0x2035 <f256main+0x1721>
    5eda: a2 35        	ldx	#$35
    5edc: 86 12        	stx	$12                     ; 0x2012 <f256main+0x16fe>
    5ede: a2 00        	ldx	#$0
    5ee0: 86 13        	stx	$13                     ; 0x2013 <f256main+0x16ff>
    5ee2: 20 c7 2e     	jsr	$2ec7 <textPrint>
    5ee5: a4 96        	ldy	$96                     ; 0x2096 <f256main+0x1782>
    5ee7: e6 cb        	inc	$cb                     ; 0x20cb <f256main+0x17b7>
    5ee9: d0 02        	bne	$5eed <printf+0x8c6>
    5eeb: e6 cc        	inc	$cc                     ; 0x20cc <f256main+0x17b8>
    5eed: a9 10        	lda	#$10
    5eef: 25 c7        	and	$c7                     ; 0x20c7 <f256main+0x17b3>
    5ef1: d0 03        	bne	$5ef6 <printf+0x8cf>
    5ef3: 4c 87 5f     	jmp	$5f87 <printf+0x960>
    5ef6: a5 c7        	lda	$c7                     ; 0x20c7 <f256main+0x17b3>
    5ef8: 29 01        	and	#$1
    5efa: f0 03        	beq	$5eff <printf+0x8d8>
    5efc: 4c 87 5f     	jmp	$5f87 <printf+0x960>
    5eff: a6 a1        	ldx	$a1                     ; 0x20a1 <f256main+0x178d>
    5f01: a5 a0        	lda	$a0                     ; 0x20a0 <f256main+0x178c>
    5f03: d0 06        	bne	$5f0b <printf+0x8e4>
    5f05: 8a           	txa
    5f06: d0 03        	bne	$5f0b <printf+0x8e4>
    5f08: 4c 4b 62     	jmp	$624b <printf+0xc24>
    5f0b: a6 cb        	ldx	$cb                     ; 0x20cb <f256main+0x17b7>
    5f0d: 86 13        	stx	$13                     ; 0x2013 <f256main+0x16ff>
    5f0f: a5 cc        	lda	$cc                     ; 0x20cc <f256main+0x17b8>
    5f11: 4c 6d 5f     	jmp	$5f6d <printf+0x946>
    5f14: c5 ca        	cmp	$ca                     ; 0x20ca <f256main+0x17b6>
    5f16: b0 2e        	bcs	$5f46 <printf+0x91f>
    5f18: a6 d6        	ldx	$d6                     ; 0x20d6 <f256main+0x17c2>
    5f1a: e4 9b        	cpx	$9b                     ; 0x209b <f256main+0x1787>
    5f1c: d0 19        	bne	$5f37 <printf+0x910>
    5f1e: a6 d5        	ldx	$d5                     ; 0x20d5 <f256main+0x17c1>
    5f20: e4 9a        	cpx	$9a                     ; 0x209a <f256main+0x1786>
    5f22: d0 13        	bne	$5f37 <printf+0x910>
    5f24: 18           	clc
    5f25: aa           	tax
    5f26: a5 13        	lda	$13                     ; 0x2013 <f256main+0x16ff>
    5f28: 65 cf        	adc	$cf                     ; 0x20cf <f256main+0x17bb>
    5f2a: 85 12        	sta	$12                     ; 0x2012 <f256main+0x16fe>
    5f2c: 8a           	txa
    5f2d: 65 d0        	adc	$d0                     ; 0x20d0 <f256main+0x17bc>
    5f2f: 85 13        	sta	$13                     ; 0x2013 <f256main+0x16ff>
    5f31: a9 30        	lda	#$30
    5f33: 92 12        	sta	($12)                   ; 0x2012 <f256main+0x16fe>
    5f35: 80 0f        	bra	$5f46 <printf+0x91f>
    5f37: a2 30        	ldx	#$30
    5f39: 86 35        	stx	$35                     ; 0x2035 <f256main+0x1721>
    5f3b: a2 35        	ldx	#$35
    5f3d: 86 12        	stx	$12                     ; 0x2012 <f256main+0x16fe>
    5f3f: a2 00        	ldx	#$0
    5f41: 86 13        	stx	$13                     ; 0x2013 <f256main+0x16ff>
    5f43: 20 c7 2e     	jsr	$2ec7 <textPrint>
    5f46: a6 cb        	ldx	$cb                     ; 0x20cb <f256main+0x17b7>
    5f48: a5 cc        	lda	$cc                     ; 0x20cc <f256main+0x17b8>
    5f4a: e8           	inx
    5f4b: d0 01        	bne	$5f4e <printf+0x927>
    5f4d: 1a           	inc
    5f4e: 86 13        	stx	$13                     ; 0x2013 <f256main+0x16ff>
    5f50: 86 cb        	stx	$cb                     ; 0x20cb <f256main+0x17b7>
    5f52: 85 cc        	sta	$cc                     ; 0x20cc <f256main+0x17b8>
    5f54: a4 a1        	ldy	$a1                     ; 0x20a1 <f256main+0x178d>
    5f56: a6 a0        	ldx	$a0                     ; 0x20a0 <f256main+0x178c>
    5f58: 86 12        	stx	$12                     ; 0x2012 <f256main+0x16fe>
    5f5a: 88           	dey
    5f5b: c0 ff        	cpy	#$ff
    5f5d: d0 02        	bne	$5f61 <printf+0x93a>
    5f5f: c6 12        	dec	$12                     ; 0x2012 <f256main+0x16fe>
    5f61: 84 a1        	sty	$a1                     ; 0x20a1 <f256main+0x178d>
    5f63: a6 12        	ldx	$12                     ; 0x2012 <f256main+0x16fe>
    5f65: 86 a0        	stx	$a0                     ; 0x20a0 <f256main+0x178c>
    5f67: d0 04        	bne	$5f6d <printf+0x946>
    5f69: c0 00        	cpy	#$0
    5f6b: f0 14        	beq	$5f81 <printf+0x95a>
    5f6d: c5 ca        	cmp	$ca                     ; 0x20ca <f256main+0x17b6>
    5f6f: f0 03        	beq	$5f74 <printf+0x94d>
    5f71: 4c 14 5f     	jmp	$5f14 <printf+0x8ed>
    5f74: a6 c9        	ldx	$c9                     ; 0x20c9 <f256main+0x17b5>
    5f76: 86 12        	stx	$12                     ; 0x2012 <f256main+0x16fe>
    5f78: a6 13        	ldx	$13                     ; 0x2013 <f256main+0x16ff>
    5f7a: e4 12        	cpx	$12                     ; 0x2012 <f256main+0x16fe>
    5f7c: b0 c8        	bcs	$5f46 <printf+0x91f>
    5f7e: 4c 18 5f     	jmp	$5f18 <printf+0x8f1>
    5f81: 64 a1        	stz	$a1                     ; 0x20a1 <f256main+0x178d>
    5f83: 64 a0        	stz	$a0                     ; 0x20a0 <f256main+0x178c>
    5f85: a4 96        	ldy	$96                     ; 0x2096 <f256main+0x1782>
    5f87: a2 00        	ldx	#$0
    5f89: e4 9f        	cpx	$9f                     ; 0x209f <f256main+0x178b>
    5f8b: d0 07        	bne	$5f94 <printf+0x96d>
    5f8d: c4 9e        	cpy	$9e                     ; 0x209e <f256main+0x178a>
    5f8f: 90 0a        	bcc	$5f9b <printf+0x974>
    5f91: 4c 13 60     	jmp	$6013 <printf+0x9ec>
    5f94: e4 9f        	cpx	$9f                     ; 0x209f <f256main+0x178b>
    5f96: 90 03        	bcc	$5f9b <printf+0x974>
    5f98: 4c 13 60     	jmp	$6013 <printf+0x9ec>
    5f9b: a6 cb        	ldx	$cb                     ; 0x20cb <f256main+0x17b7>
    5f9d: 86 13        	stx	$13                     ; 0x2013 <f256main+0x16ff>
    5f9f: a5 cc        	lda	$cc                     ; 0x20cc <f256main+0x17b8>
    5fa1: a2 ff        	ldx	#$ff
    5fa3: c6 9e        	dec	$9e                     ; 0x209e <f256main+0x178a>
    5fa5: e4 9e        	cpx	$9e                     ; 0x209e <f256main+0x178a>
    5fa7: d0 02        	bne	$5fab <printf+0x984>
    5fa9: c6 9f        	dec	$9f                     ; 0x209f <f256main+0x178b>
    5fab: c5 ca        	cmp	$ca                     ; 0x20ca <f256main+0x17b6>
    5fad: d0 0c        	bne	$5fbb <printf+0x994>
    5faf: a6 c9        	ldx	$c9                     ; 0x20c9 <f256main+0x17b5>
    5fb1: 86 12        	stx	$12                     ; 0x2012 <f256main+0x16fe>
    5fb3: a6 13        	ldx	$13                     ; 0x2013 <f256main+0x16ff>
    5fb5: e4 12        	cpx	$12                     ; 0x2012 <f256main+0x16fe>
    5fb7: 90 06        	bcc	$5fbf <printf+0x998>
    5fb9: 80 32        	bra	$5fed <printf+0x9c6>
    5fbb: c5 ca        	cmp	$ca                     ; 0x20ca <f256main+0x17b6>
    5fbd: b0 2e        	bcs	$5fed <printf+0x9c6>
    5fbf: a6 d6        	ldx	$d6                     ; 0x20d6 <f256main+0x17c2>
    5fc1: e4 9b        	cpx	$9b                     ; 0x209b <f256main+0x1787>
    5fc3: d0 19        	bne	$5fde <printf+0x9b7>
    5fc5: a6 d5        	ldx	$d5                     ; 0x20d5 <f256main+0x17c1>
    5fc7: e4 9a        	cpx	$9a                     ; 0x209a <f256main+0x1786>
    5fc9: d0 13        	bne	$5fde <printf+0x9b7>
    5fcb: 18           	clc
    5fcc: aa           	tax
    5fcd: a5 13        	lda	$13                     ; 0x2013 <f256main+0x16ff>
    5fcf: 65 cf        	adc	$cf                     ; 0x20cf <f256main+0x17bb>
    5fd1: 85 12        	sta	$12                     ; 0x2012 <f256main+0x16fe>
    5fd3: 8a           	txa
    5fd4: 65 d0        	adc	$d0                     ; 0x20d0 <f256main+0x17bc>
    5fd6: 85 13        	sta	$13                     ; 0x2013 <f256main+0x16ff>
    5fd8: a9 30        	lda	#$30
    5fda: 92 12        	sta	($12)                   ; 0x2012 <f256main+0x16fe>
    5fdc: 80 0f        	bra	$5fed <printf+0x9c6>
    5fde: a2 30        	ldx	#$30
    5fe0: 86 35        	stx	$35                     ; 0x2035 <f256main+0x1721>
    5fe2: a2 35        	ldx	#$35
    5fe4: 86 12        	stx	$12                     ; 0x2012 <f256main+0x16fe>
    5fe6: a2 00        	ldx	#$0
    5fe8: 86 13        	stx	$13                     ; 0x2013 <f256main+0x16ff>
    5fea: 20 c7 2e     	jsr	$2ec7 <textPrint>
    5fed: a6 cb        	ldx	$cb                     ; 0x20cb <f256main+0x17b7>
    5fef: a5 cc        	lda	$cc                     ; 0x20cc <f256main+0x17b8>
    5ff1: e8           	inx
    5ff2: d0 01        	bne	$5ff5 <printf+0x9ce>
    5ff4: 1a           	inc
    5ff5: 86 13        	stx	$13                     ; 0x2013 <f256main+0x16ff>
    5ff7: 86 cb        	stx	$cb                     ; 0x20cb <f256main+0x17b7>
    5ff9: 85 cc        	sta	$cc                     ; 0x20cc <f256main+0x17b8>
    5ffb: a2 00        	ldx	#$0
    5ffd: e4 9f        	cpx	$9f                     ; 0x209f <f256main+0x178b>
    5fff: d0 09        	bne	$600a <printf+0x9e3>
    6001: a4 96        	ldy	$96                     ; 0x2096 <f256main+0x1782>
    6003: c4 9e        	cpy	$9e                     ; 0x209e <f256main+0x178a>
    6005: b0 0c        	bcs	$6013 <printf+0x9ec>
    6007: 4c a1 5f     	jmp	$5fa1 <printf+0x97a>
    600a: e4 9f        	cpx	$9f                     ; 0x209f <f256main+0x178b>
    600c: a4 96        	ldy	$96                     ; 0x2096 <f256main+0x1782>
    600e: b0 03        	bcs	$6013 <printf+0x9ec>
    6010: 4c a1 5f     	jmp	$5fa1 <printf+0x97a>
    6013: 98           	tya
    6014: d0 03        	bne	$6019 <printf+0x9f2>
    6016: 4c 1c 61     	jmp	$611c <printf+0xaf5>
    6019: 88           	dey
    601a: d0 03        	bne	$601f <printf+0x9f8>
    601c: 4c b1 60     	jmp	$60b1 <printf+0xa8a>
    601f: 84 9e        	sty	$9e                     ; 0x209e <f256main+0x178a>
    6021: a6 e1        	ldx	$e1                     ; 0x20e1 <f256main+0x17cd>
    6023: 8a           	txa
    6024: 18           	clc
    6025: 65 9e        	adc	$9e                     ; 0x209e <f256main+0x178a>
    6027: 85 96        	sta	$96                     ; 0x2096 <f256main+0x1782>
    6029: a5 e2        	lda	$e2                     ; 0x20e2 <f256main+0x17ce>
    602b: 69 00        	adc	#$0
    602d: 85 97        	sta	$97                     ; 0x2097 <f256main+0x1783>
    602f: 4c a3 60     	jmp	$60a3 <printf+0xa7c>
    6032: a8           	tay
    6033: a9 80        	lda	#$80
    6035: 25 c7        	and	$c7                     ; 0x20c7 <f256main+0x17b3>
    6037: f0 04        	beq	$603d <printf+0xa16>
    6039: a2 61        	ldx	#$61
    603b: 80 02        	bra	$603f <printf+0xa18>
    603d: a2 41        	ldx	#$41
    603f: 86 12        	stx	$12                     ; 0x2012 <f256main+0x16fe>
    6041: 18           	clc
    6042: 98           	tya
    6043: 65 12        	adc	$12                     ; 0x2012 <f256main+0x16fe>
    6045: 18           	clc
    6046: 69 f6        	adc	#$f6
    6048: a4 cb        	ldy	$cb                     ; 0x20cb <f256main+0x17b7>
    604a: a6 cc        	ldx	$cc                     ; 0x20cc <f256main+0x17b8>
    604c: e4 ca        	cpx	$ca                     ; 0x20ca <f256main+0x17b6>
    604e: d0 0c        	bne	$605c <printf+0xa35>
    6050: 86 14        	stx	$14                     ; 0x2014 <f256main+0x1700>
    6052: a6 c9        	ldx	$c9                     ; 0x20c9 <f256main+0x17b5>
    6054: 86 12        	stx	$12                     ; 0x2012 <f256main+0x16fe>
    6056: c4 12        	cpy	$12                     ; 0x2012 <f256main+0x16fe>
    6058: 90 08        	bcc	$6062 <printf+0xa3b>
    605a: 80 31        	bra	$608d <printf+0xa66>
    605c: 86 14        	stx	$14                     ; 0x2014 <f256main+0x1700>
    605e: e4 ca        	cpx	$ca                     ; 0x20ca <f256main+0x17b6>
    6060: b0 2b        	bcs	$608d <printf+0xa66>
    6062: a6 d6        	ldx	$d6                     ; 0x20d6 <f256main+0x17c2>
    6064: e4 9b        	cpx	$9b                     ; 0x209b <f256main+0x1787>
    6066: d0 18        	bne	$6080 <printf+0xa59>
    6068: a6 d5        	ldx	$d5                     ; 0x20d5 <f256main+0x17c1>
    606a: e4 9a        	cpx	$9a                     ; 0x209a <f256main+0x1786>
    606c: d0 12        	bne	$6080 <printf+0xa59>
    606e: 18           	clc
    606f: aa           	tax
    6070: 98           	tya
    6071: 65 cf        	adc	$cf                     ; 0x20cf <f256main+0x17bb>
    6073: 85 12        	sta	$12                     ; 0x2012 <f256main+0x16fe>
    6075: a5 14        	lda	$14                     ; 0x2014 <f256main+0x1700>
    6077: 65 d0        	adc	$d0                     ; 0x20d0 <f256main+0x17bc>
    6079: 85 13        	sta	$13                     ; 0x2013 <f256main+0x16ff>
    607b: 8a           	txa
    607c: 92 12        	sta	($12)                   ; 0x2012 <f256main+0x16fe>
    607e: 80 0d        	bra	$608d <printf+0xa66>
    6080: 85 35        	sta	$35                     ; 0x2035 <f256main+0x1721>
    6082: a2 35        	ldx	#$35
    6084: 86 12        	stx	$12                     ; 0x2012 <f256main+0x16fe>
    6086: a2 00        	ldx	#$0
    6088: 86 13        	stx	$13                     ; 0x2013 <f256main+0x16ff>
    608a: 20 c7 2e     	jsr	$2ec7 <textPrint>
    608d: e6 cb        	inc	$cb                     ; 0x20cb <f256main+0x17b7>
    608f: d0 02        	bne	$6093 <printf+0xa6c>
    6091: e6 cc        	inc	$cc                     ; 0x20cc <f256main+0x17b8>
    6093: c6 9e        	dec	$9e                     ; 0x209e <f256main+0x178a>
    6095: a2 ff        	ldx	#$ff
    6097: c6 96        	dec	$96                     ; 0x2096 <f256main+0x1782>
    6099: e4 96        	cpx	$96                     ; 0x2096 <f256main+0x1782>
    609b: d0 02        	bne	$609f <printf+0xa78>
    609d: c6 97        	dec	$97                     ; 0x2097 <f256main+0x1783>
    609f: a5 9e        	lda	$9e                     ; 0x209e <f256main+0x178a>
    60a1: f0 0e        	beq	$60b1 <printf+0xa8a>
    60a3: b2 96        	lda	($96)                   ; 0x2096 <f256main+0x1782>
    60a5: c9 0a        	cmp	#$a
    60a7: 90 03        	bcc	$60ac <printf+0xa85>
    60a9: 4c 32 60     	jmp	$6032 <printf+0xa0b>
    60ac: 09 30        	ora	#$30
    60ae: 4c 48 60     	jmp	$6048 <printf+0xa21>
    60b1: a5 a4        	lda	$a4                     ; 0x20a4 <f256main+0x1790>
    60b3: c9 0a        	cmp	#$a
    60b5: b0 04        	bcs	$60bb <printf+0xa94>
    60b7: 09 30        	ora	#$30
    60b9: 80 16        	bra	$60d1 <printf+0xaaa>
    60bb: a8           	tay
    60bc: a9 80        	lda	#$80
    60be: 25 c7        	and	$c7                     ; 0x20c7 <f256main+0x17b3>
    60c0: f0 04        	beq	$60c6 <printf+0xa9f>
    60c2: a2 61        	ldx	#$61
    60c4: 80 02        	bra	$60c8 <printf+0xaa1>
    60c6: a2 41        	ldx	#$41
    60c8: 86 12        	stx	$12                     ; 0x2012 <f256main+0x16fe>
    60ca: 18           	clc
    60cb: 98           	tya
    60cc: 65 12        	adc	$12                     ; 0x2012 <f256main+0x16fe>
    60ce: 18           	clc
    60cf: 69 f6        	adc	#$f6
    60d1: a4 cb        	ldy	$cb                     ; 0x20cb <f256main+0x17b7>
    60d3: a6 cc        	ldx	$cc                     ; 0x20cc <f256main+0x17b8>
    60d5: e4 ca        	cpx	$ca                     ; 0x20ca <f256main+0x17b6>
    60d7: d0 0c        	bne	$60e5 <printf+0xabe>
    60d9: 86 14        	stx	$14                     ; 0x2014 <f256main+0x1700>
    60db: a6 c9        	ldx	$c9                     ; 0x20c9 <f256main+0x17b5>
    60dd: 86 12        	stx	$12                     ; 0x2012 <f256main+0x16fe>
    60df: c4 12        	cpy	$12                     ; 0x2012 <f256main+0x16fe>
    60e1: 90 08        	bcc	$60eb <printf+0xac4>
    60e3: 80 31        	bra	$6116 <printf+0xaef>
    60e5: 86 14        	stx	$14                     ; 0x2014 <f256main+0x1700>
    60e7: e4 ca        	cpx	$ca                     ; 0x20ca <f256main+0x17b6>
    60e9: b0 2b        	bcs	$6116 <printf+0xaef>
    60eb: a6 d6        	ldx	$d6                     ; 0x20d6 <f256main+0x17c2>
    60ed: e4 9b        	cpx	$9b                     ; 0x209b <f256main+0x1787>
    60ef: d0 18        	bne	$6109 <printf+0xae2>
    60f1: a6 d5        	ldx	$d5                     ; 0x20d5 <f256main+0x17c1>
    60f3: e4 9a        	cpx	$9a                     ; 0x209a <f256main+0x1786>
    60f5: d0 12        	bne	$6109 <printf+0xae2>
    60f7: 18           	clc
    60f8: aa           	tax
    60f9: 98           	tya
    60fa: 65 cf        	adc	$cf                     ; 0x20cf <f256main+0x17bb>
    60fc: 85 12        	sta	$12                     ; 0x2012 <f256main+0x16fe>
    60fe: a5 14        	lda	$14                     ; 0x2014 <f256main+0x1700>
    6100: 65 d0        	adc	$d0                     ; 0x20d0 <f256main+0x17bc>
    6102: 85 13        	sta	$13                     ; 0x2013 <f256main+0x16ff>
    6104: 8a           	txa
    6105: 92 12        	sta	($12)                   ; 0x2012 <f256main+0x16fe>
    6107: 80 0d        	bra	$6116 <printf+0xaef>
    6109: 85 35        	sta	$35                     ; 0x2035 <f256main+0x1721>
    610b: a2 35        	ldx	#$35
    610d: 86 12        	stx	$12                     ; 0x2012 <f256main+0x16fe>
    610f: a2 00        	ldx	#$0
    6111: 86 13        	stx	$13                     ; 0x2013 <f256main+0x16ff>
    6113: 20 c7 2e     	jsr	$2ec7 <textPrint>
    6116: e6 cb        	inc	$cb                     ; 0x20cb <f256main+0x17b7>
    6118: d0 02        	bne	$611c <printf+0xaf5>
    611a: e6 cc        	inc	$cc                     ; 0x20cc <f256main+0x17b8>
    611c: a5 c7        	lda	$c7                     ; 0x20c7 <f256main+0x17b3>
    611e: 29 01        	and	#$1
    6120: d0 1e        	bne	$6140 <printf+0xb19>
    6122: a6 cb        	ldx	$cb                     ; 0x20cb <f256main+0x17b7>
    6124: 86 14        	stx	$14                     ; 0x2014 <f256main+0x1700>
    6126: a5 cc        	lda	$cc                     ; 0x20cc <f256main+0x17b8>
    6128: a4 c9        	ldy	$c9                     ; 0x20c9 <f256main+0x17b5>
    612a: a6 ca        	ldx	$ca                     ; 0x20ca <f256main+0x17b6>
    612c: 86 12        	stx	$12                     ; 0x2012 <f256main+0x16fe>
    612e: 86 13        	stx	$13                     ; 0x2013 <f256main+0x16ff>
    6130: c5 12        	cmp	$12                     ; 0x2012 <f256main+0x16fe>
    6132: f0 03        	beq	$6137 <printf+0xb10>
    6134: 4c cd 61     	jmp	$61cd <printf+0xba6>
    6137: 84 12        	sty	$12                     ; 0x2012 <f256main+0x16fe>
    6139: a6 14        	ldx	$14                     ; 0x2014 <f256main+0x1700>
    613b: e4 12        	cpx	$12                     ; 0x2012 <f256main+0x16fe>
    613d: 4c d1 61     	jmp	$61d1 <printf+0xbaa>
    6140: a6 cb        	ldx	$cb                     ; 0x20cb <f256main+0x17b7>
    6142: 86 14        	stx	$14                     ; 0x2014 <f256main+0x1700>
    6144: a5 cc        	lda	$cc                     ; 0x20cc <f256main+0x17b8>
    6146: a6 a1        	ldx	$a1                     ; 0x20a1 <f256main+0x178d>
    6148: a4 a0        	ldy	$a0                     ; 0x20a0 <f256main+0x178c>
    614a: f0 03        	beq	$614f <printf+0xb28>
    614c: 4c b9 61     	jmp	$61b9 <printf+0xb92>
    614f: e0 00        	cpx	#$0
    6151: f0 d5        	beq	$6128 <printf+0xb01>
    6153: 4c b9 61     	jmp	$61b9 <printf+0xb92>
    6156: c5 ca        	cmp	$ca                     ; 0x20ca <f256main+0x17b6>
    6158: b0 2e        	bcs	$6188 <printf+0xb61>
    615a: a6 d6        	ldx	$d6                     ; 0x20d6 <f256main+0x17c2>
    615c: e4 9b        	cpx	$9b                     ; 0x209b <f256main+0x1787>
    615e: d0 19        	bne	$6179 <printf+0xb52>
    6160: a6 d5        	ldx	$d5                     ; 0x20d5 <f256main+0x17c1>
    6162: e4 9a        	cpx	$9a                     ; 0x209a <f256main+0x1786>
    6164: d0 13        	bne	$6179 <printf+0xb52>
    6166: 18           	clc
    6167: aa           	tax
    6168: a5 14        	lda	$14                     ; 0x2014 <f256main+0x1700>
    616a: 65 cf        	adc	$cf                     ; 0x20cf <f256main+0x17bb>
    616c: 85 12        	sta	$12                     ; 0x2012 <f256main+0x16fe>
    616e: 8a           	txa
    616f: 65 d0        	adc	$d0                     ; 0x20d0 <f256main+0x17bc>
    6171: 85 13        	sta	$13                     ; 0x2013 <f256main+0x16ff>
    6173: a9 20        	lda	#$20
    6175: 92 12        	sta	($12)                   ; 0x2012 <f256main+0x16fe>
    6177: 80 0f        	bra	$6188 <printf+0xb61>
    6179: a2 20        	ldx	#$20
    617b: 86 35        	stx	$35                     ; 0x2035 <f256main+0x1721>
    617d: a2 35        	ldx	#$35
    617f: 86 12        	stx	$12                     ; 0x2012 <f256main+0x16fe>
    6181: a2 00        	ldx	#$0
    6183: 86 13        	stx	$13                     ; 0x2013 <f256main+0x16ff>
    6185: 20 c7 2e     	jsr	$2ec7 <textPrint>
    6188: a6 cb        	ldx	$cb                     ; 0x20cb <f256main+0x17b7>
    618a: a5 cc        	lda	$cc                     ; 0x20cc <f256main+0x17b8>
    618c: e8           	inx
    618d: d0 01        	bne	$6190 <printf+0xb69>
    618f: 1a           	inc
    6190: 86 14        	stx	$14                     ; 0x2014 <f256main+0x1700>
    6192: 86 cb        	stx	$cb                     ; 0x20cb <f256main+0x17b7>
    6194: 85 cc        	sta	$cc                     ; 0x20cc <f256main+0x17b8>
    6196: a6 a1        	ldx	$a1                     ; 0x20a1 <f256main+0x178d>
    6198: 86 12        	stx	$12                     ; 0x2012 <f256main+0x16fe>
    619a: a6 a0        	ldx	$a0                     ; 0x20a0 <f256main+0x178c>
    619c: 86 13        	stx	$13                     ; 0x2013 <f256main+0x16ff>
    619e: a2 ff        	ldx	#$ff
    61a0: c6 12        	dec	$12                     ; 0x2012 <f256main+0x16fe>
    61a2: e4 12        	cpx	$12                     ; 0x2012 <f256main+0x16fe>
    61a4: d0 02        	bne	$61a8 <printf+0xb81>
    61a6: c6 13        	dec	$13                     ; 0x2013 <f256main+0x16ff>
    61a8: a6 12        	ldx	$12                     ; 0x2012 <f256main+0x16fe>
    61aa: 86 a1        	stx	$a1                     ; 0x20a1 <f256main+0x178d>
    61ac: a6 13        	ldx	$13                     ; 0x2013 <f256main+0x16ff>
    61ae: 86 a0        	stx	$a0                     ; 0x20a0 <f256main+0x178c>
    61b0: d0 07        	bne	$61b9 <printf+0xb92>
    61b2: a6 12        	ldx	$12                     ; 0x2012 <f256main+0x16fe>
    61b4: d0 03        	bne	$61b9 <printf+0xb92>
    61b6: 4c 28 61     	jmp	$6128 <printf+0xb01>
    61b9: c5 ca        	cmp	$ca                     ; 0x20ca <f256main+0x17b6>
    61bb: f0 03        	beq	$61c0 <printf+0xb99>
    61bd: 4c 56 61     	jmp	$6156 <printf+0xb2f>
    61c0: a6 c9        	ldx	$c9                     ; 0x20c9 <f256main+0x17b5>
    61c2: 86 12        	stx	$12                     ; 0x2012 <f256main+0x16fe>
    61c4: a6 14        	ldx	$14                     ; 0x2014 <f256main+0x1700>
    61c6: e4 12        	cpx	$12                     ; 0x2012 <f256main+0x16fe>
    61c8: b0 be        	bcs	$6188 <printf+0xb61>
    61ca: 4c 5a 61     	jmp	$615a <printf+0xb33>
    61cd: 86 12        	stx	$12                     ; 0x2012 <f256main+0x16fe>
    61cf: c5 12        	cmp	$12                     ; 0x2012 <f256main+0x16fe>
    61d1: 98           	tya
    61d2: a0 01        	ldy	#$1
    61d4: 90 20        	bcc	$61f6 <printf+0xbcf>
    61d6: a6 13        	ldx	$13                     ; 0x2013 <f256main+0x16ff>
    61d8: d0 03        	bne	$61dd <printf+0xbb6>
    61da: aa           	tax
    61db: f0 19        	beq	$61f6 <printf+0xbcf>
    61dd: 18           	clc
    61de: 65 cf        	adc	$cf                     ; 0x20cf <f256main+0x17bb>
    61e0: 85 12        	sta	$12                     ; 0x2012 <f256main+0x16fe>
    61e2: a5 13        	lda	$13                     ; 0x2013 <f256main+0x16ff>
    61e4: 65 d0        	adc	$d0                     ; 0x20d0 <f256main+0x17bc>
    61e6: 85 13        	sta	$13                     ; 0x2013 <f256main+0x16ff>
    61e8: a2 ff        	ldx	#$ff
    61ea: c6 12        	dec	$12                     ; 0x2012 <f256main+0x16fe>
    61ec: e4 12        	cpx	$12                     ; 0x2012 <f256main+0x16fe>
    61ee: d0 02        	bne	$61f2 <printf+0xbcb>
    61f0: c6 13        	dec	$13                     ; 0x2013 <f256main+0x16ff>
    61f2: a9 00        	lda	#$0
    61f4: 92 12        	sta	($12)                   ; 0x2012 <f256main+0x16fe>
    61f6: e6 98        	inc	$98                     ; 0x2098 <f256main+0x1784>
    61f8: d0 02        	bne	$61fc <printf+0xbd5>
    61fa: e6 99        	inc	$99                     ; 0x2099 <f256main+0x1785>
    61fc: a6 99        	ldx	$99                     ; 0x2099 <f256main+0x1785>
    61fe: e4 9d        	cpx	$9d                     ; 0x209d <f256main+0x1789>
    6200: f0 03        	beq	$6205 <printf+0xbde>
    6202: 4c 8c 56     	jmp	$568c <printf+0x65>
    6205: a6 98        	ldx	$98                     ; 0x2098 <f256main+0x1784>
    6207: e4 9c        	cpx	$9c                     ; 0x209c <f256main+0x1788>
    6209: f0 03        	beq	$620e <printf+0xbe7>
    620b: 4c 8c 56     	jmp	$568c <printf+0x65>
    620e: b2 9c        	lda	($9c)                   ; 0x209c <f256main+0x1788>
    6210: a2 00        	ldx	#$0
    6212: 86 9a        	stx	$9a                     ; 0x209a <f256main+0x1786>
    6214: a2 00        	ldx	#$0
    6216: 86 9b        	stx	$9b                     ; 0x209b <f256main+0x1787>
    6218: 4c a0 56     	jmp	$56a0 <printf+0x79>
    621b: e4 9f        	cpx	$9f                     ; 0x209f <f256main+0x178b>
    621d: a6 97        	ldx	$97                     ; 0x2097 <f256main+0x1783>
    621f: b0 03        	bcs	$6224 <printf+0xbfd>
    6221: 4c f1 5c     	jmp	$5cf1 <printf+0x6ca>
    6224: a5 96        	lda	$96                     ; 0x2096 <f256main+0x1782>
    6226: 85 9e        	sta	$9e                     ; 0x209e <f256main+0x178a>
    6228: 64 9f        	stz	$9f                     ; 0x209f <f256main+0x178b>
    622a: e6 9e        	inc	$9e                     ; 0x209e <f256main+0x178a>
    622c: f0 03        	beq	$6231 <printf+0xc0a>
    622e: 4c f1 5c     	jmp	$5cf1 <printf+0x6ca>
    6231: e6 9f        	inc	$9f                     ; 0x209f <f256main+0x178b>
    6233: 4c f1 5c     	jmp	$5cf1 <printf+0x6ca>
    6236: a2 58        	ldx	#$58
    6238: 86 e0        	stx	$e0                     ; 0x20e0 <f256main+0x17cc>
    623a: a2 01        	ldx	#$1
    623c: 86 db        	stx	$db                     ; 0x20db <f256main+0x17c7>
    623e: a2 30        	ldx	#$30
    6240: 86 df        	stx	$df                     ; 0x20df <f256main+0x17cb>
    6242: a9 02        	lda	#$2
    6244: a2 00        	ldx	#$0
    6246: 86 dc        	stx	$dc                     ; 0x20dc <f256main+0x17c8>
    6248: 4c 32 5d     	jmp	$5d32 <printf+0x70b>
    624b: 64 a1        	stz	$a1                     ; 0x20a1 <f256main+0x178d>
    624d: 64 a0        	stz	$a0                     ; 0x20a0 <f256main+0x178c>
    624f: 4c 87 5f     	jmp	$5f87 <printf+0x960>
    6252: 60           	rts

00006253 <malloc>:
    6253: a8           	tay
    6254: 8a           	txa
    6255: a2 00        	ldx	#$0
    6257: 86 12        	stx	$12                     ; 0x2012 <f256main+0x16fe>
    6259: a2 00        	ldx	#$0
    625b: 86 13        	stx	$13                     ; 0x2013 <f256main+0x16ff>
    625d: aa           	tax
    625e: d0 07        	bne	$6267 <malloc+0x14>
    6260: c0 00        	cpy	#$0
    6262: d0 03        	bne	$6267 <malloc+0x14>
    6264: 4c 57 63     	jmp	$6357 <malloc+0x104>
    6267: 84 16        	sty	$16                     ; 0x2016 <f256main+0x1702>
    6269: aa           	tax
    626a: d0 0e        	bne	$627a <malloc+0x27>
    626c: a6 16        	ldx	$16                     ; 0x2016 <f256main+0x1702>
    626e: e0 07        	cpx	#$7
    6270: b0 0c        	bcs	$627e <malloc+0x2b>
    6272: a2 08        	ldx	#$8
    6274: 86 90        	stx	$90                     ; 0x2090 <f256main+0x177c>
    6276: a9 00        	lda	#$0
    6278: 80 2f        	bra	$62a9 <malloc+0x56>
    627a: c9 00        	cmp	#$0
    627c: 90 f4        	bcc	$6272 <malloc+0x1f>
    627e: a8           	tay
    627f: a5 16        	lda	$16                     ; 0x2016 <f256main+0x1702>
    6281: 29 01        	and	#$1
    6283: a2 02        	ldx	#$2
    6285: 64 14        	stz	$14                     ; 0x2014 <f256main+0x1700>
    6287: c9 00        	cmp	#$0
    6289: f0 02        	beq	$628d <malloc+0x3a>
    628b: a2 03        	ldx	#$3
    628d: 86 15        	stx	$15                     ; 0x2015 <f256main+0x1701>
    628f: 18           	clc
    6290: a5 16        	lda	$16                     ; 0x2016 <f256main+0x1702>
    6292: 65 15        	adc	$15                     ; 0x2015 <f256main+0x1701>
    6294: aa           	tax
    6295: 98           	tya
    6296: 65 14        	adc	$14                     ; 0x2014 <f256main+0x1700>
    6298: 90 03        	bcc	$629d <malloc+0x4a>
    629a: 4c 57 63     	jmp	$6357 <malloc+0x104>
    629d: 86 90        	stx	$90                     ; 0x2090 <f256main+0x177c>
    629f: a8           	tay
    62a0: d0 07        	bne	$62a9 <malloc+0x56>
    62a2: e0 00        	cpx	#$0
    62a4: d0 03        	bne	$62a9 <malloc+0x56>
    62a6: 4c 57 63     	jmp	$6357 <malloc+0x104>
    62a9: 85 8f        	sta	$8f                     ; 0x208f <f256main+0x177b>
    62ab: a5 8a        	lda	$8a                     ; 0x208a <f256main+0x1776>
    62ad: 29 01        	and	#$1
    62af: d0 2c        	bne	$62dd <malloc+0x8a>
    62b1: a9 00        	lda	#$0
    62b3: a2 10        	ldx	#$10
    62b5: a0 bc        	ldy	#$bc
    62b7: 84 12        	sty	$12                     ; 0x2012 <f256main+0x16fe>
    62b9: a0 8c        	ldy	#$8c
    62bb: 84 13        	sty	$13                     ; 0x2013 <f256main+0x16ff>
    62bd: 20 1c 03     	jsr	$31c <_ZN12_GLOBAL__N_19FreeChunk6insertEPvj>
    62c0: a2 00        	ldx	#$0
    62c2: 86 12        	stx	$12                     ; 0x2012 <f256main+0x16fe>
    62c4: a2 00        	ldx	#$0
    62c6: 86 13        	stx	$13                     ; 0x2013 <f256main+0x16ff>
    62c8: ae bd 8c     	ldx	$8cbd                   ; 0x8cbd <__heap_start+0x1>
    62cb: a9 fe        	lda	#$fe
    62cd: 2d bc 8c     	and	$8cbc                   ; 0x8cbc <__heap_start>
    62d0: 8d bc 8c     	sta	$8cbc                   ; 0x8cbc <__heap_start>
    62d3: 8e bd 8c     	stx	$8cbd                   ; 0x8cbd <__heap_start+0x1>
    62d6: a2 01        	ldx	#$1
    62d8: 8e b8 8c     	stx	$8cb8                   ; 0x8cb8 <_ZN12_GLOBAL__N_19last_freeE>
    62db: 86 8a        	stx	$8a                     ; 0x208a <f256main+0x1776>
    62dd: ae b9 8c     	ldx	$8cb9                   ; 0x8cb9 <_ZN12_GLOBAL__N_19free_listE>
    62e0: 86 16        	stx	$16                     ; 0x2016 <f256main+0x1702>
    62e2: ac ba 8c     	ldy	$8cba                   ; 0x8cba <_ZN12_GLOBAL__N_19free_listE+0x1>
    62e5: 84 17        	sty	$17                     ; 0x2017 <f256main+0x1703>
    62e7: a9 00        	lda	#$0
    62e9: 85 14        	sta	$14                     ; 0x2014 <f256main+0x1700>
    62eb: a9 00        	lda	#$0
    62ed: 85 15        	sta	$15                     ; 0x2015 <f256main+0x1701>
    62ef: c4 15        	cpy	$15                     ; 0x2015 <f256main+0x1701>
    62f1: d0 07        	bne	$62fa <malloc+0xa7>
    62f3: e4 14        	cpx	$14                     ; 0x2014 <f256main+0x1700>
    62f5: d0 03        	bne	$62fa <malloc+0xa7>
    62f7: 4c 57 63     	jmp	$6357 <malloc+0x104>
    62fa: a2 00        	ldx	#$0
    62fc: a0 10        	ldy	#$10
    62fe: 86 14        	stx	$14                     ; 0x2014 <f256main+0x1700>
    6300: 84 15        	sty	$15                     ; 0x2015 <f256main+0x1701>
    6302: 18           	clc
    6303: a9 bc        	lda	#$bc
    6305: 65 14        	adc	$14                     ; 0x2014 <f256main+0x1700>
    6307: 85 18        	sta	$18                     ; 0x2018 <f256main+0x1704>
    6309: a9 8c        	lda	#$8c
    630b: 65 15        	adc	$15                     ; 0x2015 <f256main+0x1701>
    630d: 85 93        	sta	$93                     ; 0x2093 <f256main+0x177f>
    630f: a0 01        	ldy	#$1
    6311: a6 8f        	ldx	$8f                     ; 0x208f <f256main+0x177b>
    6313: 86 19        	stx	$19                     ; 0x2019 <f256main+0x1705>
    6315: a6 16        	ldx	$16                     ; 0x2016 <f256main+0x1702>
    6317: 86 14        	stx	$14                     ; 0x2014 <f256main+0x1700>
    6319: a6 17        	ldx	$17                     ; 0x2017 <f256main+0x1703>
    631b: 86 15        	stx	$15                     ; 0x2015 <f256main+0x1701>
    631d: b1 14        	lda	($14),y                 ; 0x2014 <f256main+0x1700>
    631f: c5 19        	cmp	$19                     ; 0x2019 <f256main+0x1705>
    6321: d0 0e        	bne	$6331 <malloc+0xde>
    6323: b2 14        	lda	($14)                   ; 0x2014 <f256main+0x1700>
    6325: 29 fe        	and	#$fe
    6327: a6 90        	ldx	$90                     ; 0x2090 <f256main+0x177c>
    6329: 86 1a        	stx	$1a                     ; 0x201a <f256main+0x1706>
    632b: c5 1a        	cmp	$1a                     ; 0x201a <f256main+0x1706>
    632d: b0 29        	bcs	$6358 <malloc+0x105>
    632f: 80 04        	bra	$6335 <malloc+0xe2>
    6331: c5 19        	cmp	$19                     ; 0x2019 <f256main+0x1705>
    6333: b0 23        	bcs	$6358 <malloc+0x105>
    6335: a5 14        	lda	$14                     ; 0x2014 <f256main+0x1700>
    6337: 18           	clc
    6338: 69 02        	adc	#$2
    633a: 85 1a        	sta	$1a                     ; 0x201a <f256main+0x1706>
    633c: a5 15        	lda	$15                     ; 0x2015 <f256main+0x1701>
    633e: 69 00        	adc	#$0
    6340: 85 1b        	sta	$1b                     ; 0x201b <f256main+0x1707>
    6342: a0 02        	ldy	#$2
    6344: b1 14        	lda	($14),y                 ; 0x2014 <f256main+0x1700>
    6346: 85 14        	sta	$14                     ; 0x2014 <f256main+0x1700>
    6348: 88           	dey
    6349: b1 1a        	lda	($1a),y                 ; 0x201a <f256main+0x1706>
    634b: 85 15        	sta	$15                     ; 0x2015 <f256main+0x1701>
    634d: c5 17        	cmp	$17                     ; 0x2017 <f256main+0x1703>
    634f: d0 cc        	bne	$631d <malloc+0xca>
    6351: a5 14        	lda	$14                     ; 0x2014 <f256main+0x1700>
    6353: c5 16        	cmp	$16                     ; 0x2016 <f256main+0x1702>
    6355: d0 c6        	bne	$631d <malloc+0xca>
    6357: 60           	rts
    6358: a6 18        	ldx	$18                     ; 0x2018 <f256main+0x1704>
    635a: 86 94        	stx	$94                     ; 0x2094 <f256main+0x1780>
    635c: a6 14        	ldx	$14                     ; 0x2014 <f256main+0x1700>
    635e: 86 12        	stx	$12                     ; 0x2012 <f256main+0x16fe>
    6360: a6 15        	ldx	$15                     ; 0x2015 <f256main+0x1701>
    6362: 86 13        	stx	$13                     ; 0x2013 <f256main+0x16ff>
    6364: a6 14        	ldx	$14                     ; 0x2014 <f256main+0x1700>
    6366: 86 91        	stx	$91                     ; 0x2091 <f256main+0x177d>
    6368: a6 15        	ldx	$15                     ; 0x2015 <f256main+0x1701>
    636a: 86 92        	stx	$92                     ; 0x2092 <f256main+0x177e>
    636c: 20 56 04     	jsr	$456 <_ZN12_GLOBAL__N_19FreeChunk6removeEv>
    636f: a6 91        	ldx	$91                     ; 0x2091 <f256main+0x177d>
    6371: 86 12        	stx	$12                     ; 0x2012 <f256main+0x16fe>
    6373: a6 92        	ldx	$92                     ; 0x2092 <f256main+0x177e>
    6375: 86 13        	stx	$13                     ; 0x2013 <f256main+0x16ff>
    6377: a0 01        	ldy	#$1
    6379: b1 12        	lda	($12),y                 ; 0x2012 <f256main+0x16fe>
    637b: 85 15        	sta	$15                     ; 0x2015 <f256main+0x1701>
    637d: a9 fe        	lda	#$fe
    637f: 32 12        	and	($12)                   ; 0x2012 <f256main+0x16fe>
    6381: 38           	sec
    6382: a6 90        	ldx	$90                     ; 0x2090 <f256main+0x177c>
    6384: 86 14        	stx	$14                     ; 0x2014 <f256main+0x1700>
    6386: 85 17        	sta	$17                     ; 0x2017 <f256main+0x1703>
    6388: e5 14        	sbc	$14                     ; 0x2014 <f256main+0x1700>
    638a: a8           	tay
    638b: a6 8f        	ldx	$8f                     ; 0x208f <f256main+0x177b>
    638d: 86 14        	stx	$14                     ; 0x2014 <f256main+0x1700>
    638f: a5 15        	lda	$15                     ; 0x2015 <f256main+0x1701>
    6391: 85 16        	sta	$16                     ; 0x2016 <f256main+0x1702>
    6393: e5 14        	sbc	$14                     ; 0x2014 <f256main+0x1700>
    6395: d0 06        	bne	$639d <malloc+0x14a>
    6397: 85 18        	sta	$18                     ; 0x2018 <f256main+0x1704>
    6399: c0 08        	cpy	#$8
    639b: 80 04        	bra	$63a1 <malloc+0x14e>
    639d: 85 18        	sta	$18                     ; 0x2018 <f256main+0x1704>
    639f: c9 00        	cmp	#$0
    63a1: a6 94        	ldx	$94                     ; 0x2094 <f256main+0x1780>
    63a3: 86 14        	stx	$14                     ; 0x2014 <f256main+0x1700>
    63a5: a6 93        	ldx	$93                     ; 0x2093 <f256main+0x177f>
    63a7: 86 15        	stx	$15                     ; 0x2015 <f256main+0x1701>
    63a9: a5 17        	lda	$17                     ; 0x2017 <f256main+0x1703>
    63ab: 90 42        	bcc	$63ef <malloc+0x19c>
    63ad: 18           	clc
    63ae: a5 90        	lda	$90                     ; 0x2090 <f256main+0x177c>
    63b0: 85 90        	sta	$90                     ; 0x2090 <f256main+0x177c>
    63b2: 65 12        	adc	$12                     ; 0x2012 <f256main+0x16fe>
    63b4: 85 12        	sta	$12                     ; 0x2012 <f256main+0x16fe>
    63b6: a6 8f        	ldx	$8f                     ; 0x208f <f256main+0x177b>
    63b8: 86 8f        	stx	$8f                     ; 0x208f <f256main+0x177b>
    63ba: a5 8f        	lda	$8f                     ; 0x208f <f256main+0x177b>
    63bc: 65 13        	adc	$13                     ; 0x2013 <f256main+0x16ff>
    63be: 85 13        	sta	$13                     ; 0x2013 <f256main+0x16ff>
    63c0: a6 18        	ldx	$18                     ; 0x2018 <f256main+0x1704>
    63c2: 98           	tya
    63c3: 20 1c 03     	jsr	$31c <_ZN12_GLOBAL__N_19FreeChunk6insertEPvj>
    63c6: a6 91        	ldx	$91                     ; 0x2091 <f256main+0x177d>
    63c8: 86 12        	stx	$12                     ; 0x2012 <f256main+0x16fe>
    63ca: a6 92        	ldx	$92                     ; 0x2092 <f256main+0x177e>
    63cc: 86 13        	stx	$13                     ; 0x2013 <f256main+0x16ff>
    63ce: a5 90        	lda	$90                     ; 0x2090 <f256main+0x177c>
    63d0: 29 fe        	and	#$fe
    63d2: 85 14        	sta	$14                     ; 0x2014 <f256main+0x1700>
    63d4: a0 01        	ldy	#$1
    63d6: 98           	tya
    63d7: 32 12        	and	($12)                   ; 0x2012 <f256main+0x16fe>
    63d9: 05 14        	ora	$14                     ; 0x2014 <f256main+0x1700>
    63db: 92 12        	sta	($12)                   ; 0x2012 <f256main+0x16fe>
    63dd: a5 8f        	lda	$8f                     ; 0x208f <f256main+0x177b>
    63df: 91 12        	sta	($12),y                 ; 0x2012 <f256main+0x16fe>
    63e1: a5 14        	lda	$14                     ; 0x2014 <f256main+0x1700>
    63e3: a6 8f        	ldx	$8f                     ; 0x208f <f256main+0x177b>
    63e5: 86 16        	stx	$16                     ; 0x2016 <f256main+0x1702>
    63e7: a6 94        	ldx	$94                     ; 0x2094 <f256main+0x1780>
    63e9: 86 14        	stx	$14                     ; 0x2014 <f256main+0x1700>
    63eb: a6 93        	ldx	$93                     ; 0x2093 <f256main+0x177f>
    63ed: 86 15        	stx	$15                     ; 0x2015 <f256main+0x1701>
    63ef: 18           	clc
    63f0: 65 12        	adc	$12                     ; 0x2012 <f256main+0x16fe>
    63f2: a8           	tay
    63f3: a5 16        	lda	$16                     ; 0x2016 <f256main+0x1702>
    63f5: 65 13        	adc	$13                     ; 0x2013 <f256main+0x16ff>
    63f7: c5 15        	cmp	$15                     ; 0x2015 <f256main+0x1701>
    63f9: d0 09        	bne	$6404 <malloc+0x1b1>
    63fb: c4 14        	cpy	$14                     ; 0x2014 <f256main+0x1700>
    63fd: d0 05        	bne	$6404 <malloc+0x1b1>
    63ff: 9c b8 8c     	stz	$8cb8                   ; 0x8cb8 <_ZN12_GLOBAL__N_19last_freeE>
    6402: 80 14        	bra	$6418 <malloc+0x1c5>
    6404: 84 14        	sty	$14                     ; 0x2014 <f256main+0x1700>
    6406: 85 15        	sta	$15                     ; 0x2015 <f256main+0x1701>
    6408: a0 01        	ldy	#$1
    640a: b1 14        	lda	($14),y                 ; 0x2014 <f256main+0x1700>
    640c: 85 16        	sta	$16                     ; 0x2016 <f256main+0x1702>
    640e: a9 fe        	lda	#$fe
    6410: 32 14        	and	($14)                   ; 0x2014 <f256main+0x1700>
    6412: 92 14        	sta	($14)                   ; 0x2014 <f256main+0x1700>
    6414: a5 16        	lda	$16                     ; 0x2016 <f256main+0x1702>
    6416: 91 14        	sta	($14),y                 ; 0x2014 <f256main+0x1700>
    6418: a5 12        	lda	$12                     ; 0x2012 <f256main+0x16fe>
    641a: 18           	clc
    641b: 69 02        	adc	#$2
    641d: 85 12        	sta	$12                     ; 0x2012 <f256main+0x16fe>
    641f: a5 13        	lda	$13                     ; 0x2013 <f256main+0x16ff>
    6421: 69 00        	adc	#$0
    6423: 85 13        	sta	$13                     ; 0x2013 <f256main+0x16ff>
    6425: 60           	rts

00006426 <memcpy>:
    6426: a8           	tay
    6427: 8a           	txa
    6428: d0 03        	bne	$642d <memcpy+0x7>
    642a: 98           	tya
    642b: f0 24        	beq	$6451 <memcpy+0x2b>
    642d: a5 12        	lda	$12                     ; 0x2012 <f256main+0x16fe>
    642f: 85 16        	sta	$16                     ; 0x2016 <f256main+0x1702>
    6431: a5 13        	lda	$13                     ; 0x2013 <f256main+0x16ff>
    6433: 85 17        	sta	$17                     ; 0x2017 <f256main+0x1703>
    6435: b2 14        	lda	($14)                   ; 0x2014 <f256main+0x1700>
    6437: 92 16        	sta	($16)                   ; 0x2016 <f256main+0x1702>
    6439: e6 16        	inc	$16                     ; 0x2016 <f256main+0x1702>
    643b: d0 02        	bne	$643f <memcpy+0x19>
    643d: e6 17        	inc	$17                     ; 0x2017 <f256main+0x1703>
    643f: e6 14        	inc	$14                     ; 0x2014 <f256main+0x1700>
    6441: d0 02        	bne	$6445 <memcpy+0x1f>
    6443: e6 15        	inc	$15                     ; 0x2015 <f256main+0x1701>
    6445: 88           	dey
    6446: c0 ff        	cpy	#$ff
    6448: d0 01        	bne	$644b <memcpy+0x25>
    644a: ca           	dex
    644b: 8a           	txa
    644c: d0 e7        	bne	$6435 <memcpy+0xf>
    644e: 98           	tya
    644f: d0 e4        	bne	$6435 <memcpy+0xf>
    6451: 60           	rts

00006452 <__memset>:
    6452: a4 14        	ldy	$14                     ; 0x2014 <f256main+0x1700>
    6454: d0 04        	bne	$645a <__memset+0x8>
    6456: e0 00        	cpx	#$0
    6458: f0 17        	beq	$6471 <__memset+0x1f>
    645a: 92 12        	sta	($12)                   ; 0x2012 <f256main+0x16fe>
    645c: e6 12        	inc	$12                     ; 0x2012 <f256main+0x16fe>
    645e: d0 02        	bne	$6462 <__memset+0x10>
    6460: e6 13        	inc	$13                     ; 0x2013 <f256main+0x16ff>
    6462: ca           	dex
    6463: e0 ff        	cpx	#$ff
    6465: d0 02        	bne	$6469 <__memset+0x17>
    6467: c6 14        	dec	$14                     ; 0x2014 <f256main+0x1700>
    6469: a4 14        	ldy	$14                     ; 0x2014 <f256main+0x1700>
    646b: d0 ed        	bne	$645a <__memset+0x8>
    646d: e0 00        	cpx	#$0
    646f: d0 e9        	bne	$645a <__memset+0x8>
    6471: 60           	rts

00006472 <__ashlsi3>:
    6472: 86 15        	stx	$15                     ; 0x2015 <f256main+0x1701>
    6474: a6 14        	ldx	$14                     ; 0x2014 <f256main+0x1700>
    6476: f0 0e        	beq	$6486 <__ashlsi3+0x14>
    6478: a6 14        	ldx	$14                     ; 0x2014 <f256main+0x1700>
    647a: ca           	dex
    647b: 0a           	asl
    647c: 26 15        	rol	$15                     ; 0x2015 <f256main+0x1701>
    647e: 26 12        	rol	$12                     ; 0x2012 <f256main+0x16fe>
    6480: 26 13        	rol	$13                     ; 0x2013 <f256main+0x16ff>
    6482: e0 00        	cpx	#$0
    6484: d0 f4        	bne	$647a <__ashlsi3+0x8>
    6486: a6 15        	ldx	$15                     ; 0x2015 <f256main+0x1701>
    6488: 60           	rts

00006489 <__lshrsi3>:
    6489: 86 15        	stx	$15                     ; 0x2015 <f256main+0x1701>
    648b: a6 14        	ldx	$14                     ; 0x2014 <f256main+0x1700>
    648d: f0 0e        	beq	$649d <__lshrsi3+0x14>
    648f: a6 14        	ldx	$14                     ; 0x2014 <f256main+0x1700>
    6491: ca           	dex
    6492: 46 13        	lsr	$13                     ; 0x2013 <f256main+0x16ff>
    6494: 66 12        	ror	$12                     ; 0x2012 <f256main+0x16fe>
    6496: 66 15        	ror	$15                     ; 0x2015 <f256main+0x1701>
    6498: 6a           	ror
    6499: e0 00        	cpx	#$0
    649b: d0 f4        	bne	$6491 <__lshrsi3+0x8>
    649d: a6 15        	ldx	$15                     ; 0x2015 <f256main+0x1701>
    649f: 60           	rts

000064a0 <__mulqi3>:
    64a0: e0 00        	cpx	#$0
    64a2: f0 14        	beq	$64b8 <__mulqi3+0x18>
    64a4: 85 12        	sta	$12                     ; 0x2012 <f256main+0x16fe>
    64a6: 86 13        	stx	$13                     ; 0x2013 <f256main+0x16ff>
    64a8: a9 00        	lda	#$0
    64aa: 46 13        	lsr	$13                     ; 0x2013 <f256main+0x16ff>
    64ac: 90 03        	bcc	$64b1 <__mulqi3+0x11>
    64ae: 18           	clc
    64af: 65 12        	adc	$12                     ; 0x2012 <f256main+0x16fe>
    64b1: 06 12        	asl	$12                     ; 0x2012 <f256main+0x16fe>
    64b3: a6 13        	ldx	$13                     ; 0x2013 <f256main+0x16ff>
    64b5: d0 f3        	bne	$64aa <__mulqi3+0xa>
    64b7: 60           	rts
    64b8: a9 00        	lda	#$0
    64ba: 60           	rts

000064bb <__mulhi3>:
    64bb: a4 13        	ldy	$13                     ; 0x2013 <f256main+0x16ff>
    64bd: d0 04        	bne	$64c3 <__mulhi3+0x8>
    64bf: a4 12        	ldy	$12                     ; 0x2012 <f256main+0x16fe>
    64c1: f0 25        	beq	$64e8 <__mulhi3+0x2d>
    64c3: 85 14        	sta	$14                     ; 0x2014 <f256main+0x1700>
    64c5: 86 15        	stx	$15                     ; 0x2015 <f256main+0x1701>
    64c7: a0 00        	ldy	#$0
    64c9: 98           	tya
    64ca: 46 13        	lsr	$13                     ; 0x2013 <f256main+0x16ff>
    64cc: 66 12        	ror	$12                     ; 0x2012 <f256main+0x16fe>
    64ce: 90 09        	bcc	$64d9 <__mulhi3+0x1e>
    64d0: aa           	tax
    64d1: 98           	tya
    64d2: 18           	clc
    64d3: 65 14        	adc	$14                     ; 0x2014 <f256main+0x1700>
    64d5: a8           	tay
    64d6: 8a           	txa
    64d7: 65 15        	adc	$15                     ; 0x2015 <f256main+0x1701>
    64d9: 06 14        	asl	$14                     ; 0x2014 <f256main+0x1700>
    64db: 26 15        	rol	$15                     ; 0x2015 <f256main+0x1701>
    64dd: a6 13        	ldx	$13                     ; 0x2013 <f256main+0x16ff>
    64df: d0 e9        	bne	$64ca <__mulhi3+0xf>
    64e1: a6 12        	ldx	$12                     ; 0x2012 <f256main+0x16fe>
    64e3: d0 e5        	bne	$64ca <__mulhi3+0xf>
    64e5: aa           	tax
    64e6: 98           	tya
    64e7: 60           	rts
    64e8: a0 00        	ldy	#$0
    64ea: 98           	tya
    64eb: 80 f8        	bra	$64e5 <__mulhi3+0x2a>

000064ed <__mulsi3>:
    64ed: a4 17        	ldy	$17                     ; 0x2017 <f256main+0x1703>
    64ef: d0 0f        	bne	$6500 <__mulsi3+0x13>
    64f1: a4 16        	ldy	$16                     ; 0x2016 <f256main+0x1702>
    64f3: d0 0b        	bne	$6500 <__mulsi3+0x13>
    64f5: a4 15        	ldy	$15                     ; 0x2015 <f256main+0x1701>
    64f7: d0 07        	bne	$6500 <__mulsi3+0x13>
    64f9: a4 14        	ldy	$14                     ; 0x2014 <f256main+0x1700>
    64fb: d0 03        	bne	$6500 <__mulsi3+0x13>
    64fd: 4c 54 65     	jmp	$6554 <__mulsi3+0x67>
    6500: 85 18        	sta	$18                     ; 0x2018 <f256main+0x1704>
    6502: 86 19        	stx	$19                     ; 0x2019 <f256main+0x1705>
    6504: a0 00        	ldy	#$0
    6506: a2 00        	ldx	#$0
    6508: 64 1a        	stz	$1a                     ; 0x201a <f256main+0x1706>
    650a: 98           	tya
    650b: 46 17        	lsr	$17                     ; 0x2017 <f256main+0x1703>
    650d: 66 16        	ror	$16                     ; 0x2016 <f256main+0x1702>
    650f: 66 15        	ror	$15                     ; 0x2015 <f256main+0x1701>
    6511: 66 14        	ror	$14                     ; 0x2014 <f256main+0x1700>
    6513: 90 15        	bcc	$652a <__mulsi3+0x3d>
    6515: 85 1b        	sta	$1b                     ; 0x201b <f256main+0x1707>
    6517: 98           	tya
    6518: 18           	clc
    6519: 65 18        	adc	$18                     ; 0x2018 <f256main+0x1704>
    651b: a8           	tay
    651c: 8a           	txa
    651d: 65 19        	adc	$19                     ; 0x2019 <f256main+0x1705>
    651f: aa           	tax
    6520: a5 1a        	lda	$1a                     ; 0x201a <f256main+0x1706>
    6522: 65 12        	adc	$12                     ; 0x2012 <f256main+0x16fe>
    6524: 85 1a        	sta	$1a                     ; 0x201a <f256main+0x1706>
    6526: a5 1b        	lda	$1b                     ; 0x201b <f256main+0x1707>
    6528: 65 13        	adc	$13                     ; 0x2013 <f256main+0x16ff>
    652a: 06 18        	asl	$18                     ; 0x2018 <f256main+0x1704>
    652c: 26 19        	rol	$19                     ; 0x2019 <f256main+0x1705>
    652e: 26 12        	rol	$12                     ; 0x2012 <f256main+0x16fe>
    6530: 26 13        	rol	$13                     ; 0x2013 <f256main+0x16ff>
    6532: e6 17        	inc	$17                     ; 0x2017 <f256main+0x1703>
    6534: c6 17        	dec	$17                     ; 0x2017 <f256main+0x1703>
    6536: d0 d3        	bne	$650b <__mulsi3+0x1e>
    6538: e6 16        	inc	$16                     ; 0x2016 <f256main+0x1702>
    653a: c6 16        	dec	$16                     ; 0x2016 <f256main+0x1702>
    653c: d0 cd        	bne	$650b <__mulsi3+0x1e>
    653e: e6 15        	inc	$15                     ; 0x2015 <f256main+0x1701>
    6540: c6 15        	dec	$15                     ; 0x2015 <f256main+0x1701>
    6542: d0 c7        	bne	$650b <__mulsi3+0x1e>
    6544: e6 14        	inc	$14                     ; 0x2014 <f256main+0x1700>
    6546: c6 14        	dec	$14                     ; 0x2014 <f256main+0x1700>
    6548: d0 c1        	bne	$650b <__mulsi3+0x1e>
    654a: 5a           	phy
    654b: a4 1a        	ldy	$1a                     ; 0x201a <f256main+0x1706>
    654d: 84 12        	sty	$12                     ; 0x2012 <f256main+0x16fe>
    654f: 7a           	ply
    6550: 85 13        	sta	$13                     ; 0x2013 <f256main+0x16ff>
    6552: 98           	tya
    6553: 60           	rts
    6554: a0 00        	ldy	#$0
    6556: a2 00        	ldx	#$0
    6558: 64 1a        	stz	$1a                     ; 0x201a <f256main+0x1706>
    655a: 98           	tya
    655b: 80 ed        	bra	$654a <__mulsi3+0x5d>

0000655d <__muldi3>:
    655d: a4 1f        	ldy	$1f                     ; 0x201f <f256main+0x170b>
    655f: d0 1f        	bne	$6580 <__muldi3+0x23>
    6561: a4 1e        	ldy	$1e                     ; 0x201e <f256main+0x170a>
    6563: d0 1b        	bne	$6580 <__muldi3+0x23>
    6565: a4 1d        	ldy	$1d                     ; 0x201d <f256main+0x1709>
    6567: d0 17        	bne	$6580 <__muldi3+0x23>
    6569: a4 1c        	ldy	$1c                     ; 0x201c <f256main+0x1708>
    656b: d0 13        	bne	$6580 <__muldi3+0x23>
    656d: a4 1b        	ldy	$1b                     ; 0x201b <f256main+0x1707>
    656f: d0 0f        	bne	$6580 <__muldi3+0x23>
    6571: a4 1a        	ldy	$1a                     ; 0x201a <f256main+0x1706>
    6573: d0 0b        	bne	$6580 <__muldi3+0x23>
    6575: a4 19        	ldy	$19                     ; 0x2019 <f256main+0x1705>
    6577: d0 07        	bne	$6580 <__muldi3+0x23>
    6579: a4 18        	ldy	$18                     ; 0x2018 <f256main+0x1704>
    657b: d0 03        	bne	$6580 <__muldi3+0x23>
    657d: 4c 44 66     	jmp	$6644 <__muldi3+0xe7>
    6580: 85 22        	sta	$22                     ; 0x2022 <f256main+0x170e>
    6582: 86 23        	stx	$23                     ; 0x2023 <f256main+0x170f>
    6584: a0 00        	ldy	#$0
    6586: a2 00        	ldx	#$0
    6588: 64 ad        	stz	$ad                     ; 0x20ad <f256main+0x1799>
    658a: 64 ae        	stz	$ae                     ; 0x20ae <f256main+0x179a>
    658c: 64 af        	stz	$af                     ; 0x20af <f256main+0x179b>
    658e: 64 b0        	stz	$b0                     ; 0x20b0 <f256main+0x179c>
    6590: 64 b1        	stz	$b1                     ; 0x20b1 <f256main+0x179d>
    6592: 98           	tya
    6593: 46 1f        	lsr	$1f                     ; 0x201f <f256main+0x170b>
    6595: 66 1e        	ror	$1e                     ; 0x201e <f256main+0x170a>
    6597: 66 1d        	ror	$1d                     ; 0x201d <f256main+0x1709>
    6599: 66 1c        	ror	$1c                     ; 0x201c <f256main+0x1708>
    659b: 66 1b        	ror	$1b                     ; 0x201b <f256main+0x1707>
    659d: 66 1a        	ror	$1a                     ; 0x201a <f256main+0x1706>
    659f: 66 19        	ror	$19                     ; 0x2019 <f256main+0x1705>
    65a1: 66 18        	ror	$18                     ; 0x2018 <f256main+0x1704>
    65a3: 90 2d        	bcc	$65d2 <__muldi3+0x75>
    65a5: 85 b2        	sta	$b2                     ; 0x20b2 <f256main+0x179e>
    65a7: 98           	tya
    65a8: 18           	clc
    65a9: 65 22        	adc	$22                     ; 0x2022 <f256main+0x170e>
    65ab: a8           	tay
    65ac: 8a           	txa
    65ad: 65 23        	adc	$23                     ; 0x2023 <f256main+0x170f>
    65af: aa           	tax
    65b0: a5 ad        	lda	$ad                     ; 0x20ad <f256main+0x1799>
    65b2: 65 12        	adc	$12                     ; 0x2012 <f256main+0x16fe>
    65b4: 85 ad        	sta	$ad                     ; 0x20ad <f256main+0x1799>
    65b6: a5 ae        	lda	$ae                     ; 0x20ae <f256main+0x179a>
    65b8: 65 13        	adc	$13                     ; 0x2013 <f256main+0x16ff>
    65ba: 85 ae        	sta	$ae                     ; 0x20ae <f256main+0x179a>
    65bc: a5 af        	lda	$af                     ; 0x20af <f256main+0x179b>
    65be: 65 14        	adc	$14                     ; 0x2014 <f256main+0x1700>
    65c0: 85 af        	sta	$af                     ; 0x20af <f256main+0x179b>
    65c2: a5 b0        	lda	$b0                     ; 0x20b0 <f256main+0x179c>
    65c4: 65 15        	adc	$15                     ; 0x2015 <f256main+0x1701>
    65c6: 85 b0        	sta	$b0                     ; 0x20b0 <f256main+0x179c>
    65c8: a5 b1        	lda	$b1                     ; 0x20b1 <f256main+0x179d>
    65ca: 65 16        	adc	$16                     ; 0x2016 <f256main+0x1702>
    65cc: 85 b1        	sta	$b1                     ; 0x20b1 <f256main+0x179d>
    65ce: a5 b2        	lda	$b2                     ; 0x20b2 <f256main+0x179e>
    65d0: 65 17        	adc	$17                     ; 0x2017 <f256main+0x1703>
    65d2: 06 22        	asl	$22                     ; 0x2022 <f256main+0x170e>
    65d4: 26 23        	rol	$23                     ; 0x2023 <f256main+0x170f>
    65d6: 26 12        	rol	$12                     ; 0x2012 <f256main+0x16fe>
    65d8: 26 13        	rol	$13                     ; 0x2013 <f256main+0x16ff>
    65da: 26 14        	rol	$14                     ; 0x2014 <f256main+0x1700>
    65dc: 26 15        	rol	$15                     ; 0x2015 <f256main+0x1701>
    65de: 26 16        	rol	$16                     ; 0x2016 <f256main+0x1702>
    65e0: 26 17        	rol	$17                     ; 0x2017 <f256main+0x1703>
    65e2: e6 1f        	inc	$1f                     ; 0x201f <f256main+0x170b>
    65e4: c6 1f        	dec	$1f                     ; 0x201f <f256main+0x170b>
    65e6: f0 03        	beq	$65eb <__muldi3+0x8e>
    65e8: 4c 93 65     	jmp	$6593 <__muldi3+0x36>
    65eb: e6 1e        	inc	$1e                     ; 0x201e <f256main+0x170a>
    65ed: c6 1e        	dec	$1e                     ; 0x201e <f256main+0x170a>
    65ef: f0 03        	beq	$65f4 <__muldi3+0x97>
    65f1: 4c 93 65     	jmp	$6593 <__muldi3+0x36>
    65f4: e6 1d        	inc	$1d                     ; 0x201d <f256main+0x1709>
    65f6: c6 1d        	dec	$1d                     ; 0x201d <f256main+0x1709>
    65f8: f0 03        	beq	$65fd <__muldi3+0xa0>
    65fa: 4c 93 65     	jmp	$6593 <__muldi3+0x36>
    65fd: e6 1c        	inc	$1c                     ; 0x201c <f256main+0x1708>
    65ff: c6 1c        	dec	$1c                     ; 0x201c <f256main+0x1708>
    6601: f0 03        	beq	$6606 <__muldi3+0xa9>
    6603: 4c 93 65     	jmp	$6593 <__muldi3+0x36>
    6606: e6 1b        	inc	$1b                     ; 0x201b <f256main+0x1707>
    6608: c6 1b        	dec	$1b                     ; 0x201b <f256main+0x1707>
    660a: f0 03        	beq	$660f <__muldi3+0xb2>
    660c: 4c 93 65     	jmp	$6593 <__muldi3+0x36>
    660f: e6 1a        	inc	$1a                     ; 0x201a <f256main+0x1706>
    6611: c6 1a        	dec	$1a                     ; 0x201a <f256main+0x1706>
    6613: f0 03        	beq	$6618 <__muldi3+0xbb>
    6615: 4c 93 65     	jmp	$6593 <__muldi3+0x36>
    6618: e6 19        	inc	$19                     ; 0x2019 <f256main+0x1705>
    661a: c6 19        	dec	$19                     ; 0x2019 <f256main+0x1705>
    661c: f0 03        	beq	$6621 <__muldi3+0xc4>
    661e: 4c 93 65     	jmp	$6593 <__muldi3+0x36>
    6621: e6 18        	inc	$18                     ; 0x2018 <f256main+0x1704>
    6623: c6 18        	dec	$18                     ; 0x2018 <f256main+0x1704>
    6625: f0 03        	beq	$662a <__muldi3+0xcd>
    6627: 4c 93 65     	jmp	$6593 <__muldi3+0x36>
    662a: 5a           	phy
    662b: a4 ad        	ldy	$ad                     ; 0x20ad <f256main+0x1799>
    662d: 84 12        	sty	$12                     ; 0x2012 <f256main+0x16fe>
    662f: a4 ae        	ldy	$ae                     ; 0x20ae <f256main+0x179a>
    6631: 84 13        	sty	$13                     ; 0x2013 <f256main+0x16ff>
    6633: a4 af        	ldy	$af                     ; 0x20af <f256main+0x179b>
    6635: 84 14        	sty	$14                     ; 0x2014 <f256main+0x1700>
    6637: a4 b0        	ldy	$b0                     ; 0x20b0 <f256main+0x179c>
    6639: 84 15        	sty	$15                     ; 0x2015 <f256main+0x1701>
    663b: a4 b1        	ldy	$b1                     ; 0x20b1 <f256main+0x179d>
    663d: 84 16        	sty	$16                     ; 0x2016 <f256main+0x1702>
    663f: 7a           	ply
    6640: 85 17        	sta	$17                     ; 0x2017 <f256main+0x1703>
    6642: 98           	tya
    6643: 60           	rts
    6644: a0 00        	ldy	#$0
    6646: a2 00        	ldx	#$0
    6648: 64 ad        	stz	$ad                     ; 0x20ad <f256main+0x1799>
    664a: 64 ae        	stz	$ae                     ; 0x20ae <f256main+0x179a>
    664c: 64 af        	stz	$af                     ; 0x20af <f256main+0x179b>
    664e: 64 b0        	stz	$b0                     ; 0x20b0 <f256main+0x179c>
    6650: 64 b1        	stz	$b1                     ; 0x20b1 <f256main+0x179d>
    6652: 98           	tya
    6653: 80 d5        	bra	$662a <__muldi3+0xcd>

00006655 <__udivqi3>:
    6655: a8           	tay
    6656: a9 00        	lda	#$0
    6658: e0 00        	cpx	#$0
    665a: d0 03        	bne	$665f <__udivqi3+0xa>
    665c: 4c b0 66     	jmp	$66b0 <__udivqi3+0x5b>
    665f: 86 13        	stx	$13                     ; 0x2013 <f256main+0x16ff>
    6661: c4 13        	cpy	$13                     ; 0x2013 <f256main+0x16ff>
    6663: 90 4b        	bcc	$66b0 <__udivqi3+0x5b>
    6665: a9 01        	lda	#$1
    6667: a6 13        	ldx	$13                     ; 0x2013 <f256main+0x16ff>
    6669: 30 45        	bmi	$66b0 <__udivqi3+0x5b>
    666b: 84 14        	sty	$14                     ; 0x2014 <f256main+0x1700>
    666d: a2 00        	ldx	#$0
    666f: a4 13        	ldy	$13                     ; 0x2013 <f256main+0x16ff>
    6671: 84 12        	sty	$12                     ; 0x2012 <f256main+0x16fe>
    6673: 06 12        	asl	$12                     ; 0x2012 <f256main+0x16fe>
    6675: a4 14        	ldy	$14                     ; 0x2014 <f256main+0x1700>
    6677: c4 12        	cpy	$12                     ; 0x2012 <f256main+0x16fe>
    6679: 90 09        	bcc	$6684 <__udivqi3+0x2f>
    667b: e8           	inx
    667c: a4 12        	ldy	$12                     ; 0x2012 <f256main+0x16fe>
    667e: 84 13        	sty	$13                     ; 0x2013 <f256main+0x16ff>
    6680: 10 f1        	bpl	$6673 <__udivqi3+0x1e>
    6682: 80 04        	bra	$6688 <__udivqi3+0x33>
    6684: a4 13        	ldy	$13                     ; 0x2013 <f256main+0x16ff>
    6686: 84 12        	sty	$12                     ; 0x2012 <f256main+0x16fe>
    6688: e0 00        	cpx	#$0
    668a: f0 24        	beq	$66b0 <__udivqi3+0x5b>
    668c: 38           	sec
    668d: a5 14        	lda	$14                     ; 0x2014 <f256main+0x1700>
    668f: e5 12        	sbc	$12                     ; 0x2012 <f256main+0x16fe>
    6691: 85 13        	sta	$13                     ; 0x2013 <f256main+0x16ff>
    6693: a9 01        	lda	#$1
    6695: 46 12        	lsr	$12                     ; 0x2012 <f256main+0x16fe>
    6697: 0a           	asl
    6698: a8           	tay
    6699: a5 13        	lda	$13                     ; 0x2013 <f256main+0x16ff>
    669b: c5 12        	cmp	$12                     ; 0x2012 <f256main+0x16fe>
    669d: 90 0b        	bcc	$66aa <__udivqi3+0x55>
    669f: 98           	tya
    66a0: 09 01        	ora	#$1
    66a2: a8           	tay
    66a3: 38           	sec
    66a4: a5 13        	lda	$13                     ; 0x2013 <f256main+0x16ff>
    66a6: e5 12        	sbc	$12                     ; 0x2012 <f256main+0x16fe>
    66a8: 85 13        	sta	$13                     ; 0x2013 <f256main+0x16ff>
    66aa: ca           	dex
    66ab: 98           	tya
    66ac: e0 00        	cpx	#$0
    66ae: d0 e5        	bne	$6695 <__udivqi3+0x40>
    66b0: 60           	rts

000066b1 <__udivhi3>:
    66b1: 64 14        	stz	$14                     ; 0x2014 <f256main+0x1700>
    66b3: a4 13        	ldy	$13                     ; 0x2013 <f256main+0x16ff>
    66b5: d0 04        	bne	$66bb <__udivhi3+0xa>
    66b7: a4 12        	ldy	$12                     ; 0x2012 <f256main+0x16fe>
    66b9: f0 0e        	beq	$66c9 <__udivhi3+0x18>
    66bb: 85 17        	sta	$17                     ; 0x2017 <f256main+0x1703>
    66bd: 8a           	txa
    66be: e4 13        	cpx	$13                     ; 0x2013 <f256main+0x16ff>
    66c0: d0 0e        	bne	$66d0 <__udivhi3+0x1f>
    66c2: a5 17        	lda	$17                     ; 0x2017 <f256main+0x1703>
    66c4: c5 12        	cmp	$12                     ; 0x2012 <f256main+0x16fe>
    66c6: 8a           	txa
    66c7: b0 0b        	bcs	$66d4 <__udivhi3+0x23>
    66c9: a2 00        	ldx	#$0
    66cb: 86 8f        	stx	$8f                     ; 0x208f <f256main+0x177b>
    66cd: 4c 6c 67     	jmp	$676c <__udivhi3+0xbb>
    66d0: c5 13        	cmp	$13                     ; 0x2013 <f256main+0x16ff>
    66d2: 90 f5        	bcc	$66c9 <__udivhi3+0x18>
    66d4: a2 01        	ldx	#$1
    66d6: 86 8f        	stx	$8f                     ; 0x208f <f256main+0x177b>
    66d8: a6 13        	ldx	$13                     ; 0x2013 <f256main+0x16ff>
    66da: 10 03        	bpl	$66df <__udivhi3+0x2e>
    66dc: 4c 6c 67     	jmp	$676c <__udivhi3+0xbb>
    66df: a2 00        	ldx	#$0
    66e1: a4 12        	ldy	$12                     ; 0x2012 <f256main+0x16fe>
    66e3: 84 15        	sty	$15                     ; 0x2015 <f256main+0x1701>
    66e5: a4 13        	ldy	$13                     ; 0x2013 <f256main+0x16ff>
    66e7: 84 16        	sty	$16                     ; 0x2016 <f256main+0x1702>
    66e9: 06 15        	asl	$15                     ; 0x2015 <f256main+0x1701>
    66eb: 26 16        	rol	$16                     ; 0x2016 <f256main+0x1702>
    66ed: c5 16        	cmp	$16                     ; 0x2016 <f256main+0x1702>
    66ef: d0 08        	bne	$66f9 <__udivhi3+0x48>
    66f1: a4 17        	ldy	$17                     ; 0x2017 <f256main+0x1703>
    66f3: c4 15        	cpy	$15                     ; 0x2015 <f256main+0x1701>
    66f5: 90 13        	bcc	$670a <__udivhi3+0x59>
    66f7: 80 04        	bra	$66fd <__udivhi3+0x4c>
    66f9: c5 16        	cmp	$16                     ; 0x2016 <f256main+0x1702>
    66fb: 90 0d        	bcc	$670a <__udivhi3+0x59>
    66fd: e8           	inx
    66fe: a4 15        	ldy	$15                     ; 0x2015 <f256main+0x1701>
    6700: 84 12        	sty	$12                     ; 0x2012 <f256main+0x16fe>
    6702: a4 16        	ldy	$16                     ; 0x2016 <f256main+0x1702>
    6704: 84 13        	sty	$13                     ; 0x2013 <f256main+0x16ff>
    6706: 10 e1        	bpl	$66e9 <__udivhi3+0x38>
    6708: 80 08        	bra	$6712 <__udivhi3+0x61>
    670a: a4 12        	ldy	$12                     ; 0x2012 <f256main+0x16fe>
    670c: 84 15        	sty	$15                     ; 0x2015 <f256main+0x1701>
    670e: a4 13        	ldy	$13                     ; 0x2013 <f256main+0x16ff>
    6710: 84 16        	sty	$16                     ; 0x2016 <f256main+0x1702>
    6712: e0 00        	cpx	#$0
    6714: d0 03        	bne	$6719 <__udivhi3+0x68>
    6716: 4c 6c 67     	jmp	$676c <__udivhi3+0xbb>
    6719: 38           	sec
    671a: a8           	tay
    671b: a5 17        	lda	$17                     ; 0x2017 <f256main+0x1703>
    671d: e5 15        	sbc	$15                     ; 0x2015 <f256main+0x1701>
    671f: 85 12        	sta	$12                     ; 0x2012 <f256main+0x16fe>
    6721: 98           	tya
    6722: e5 16        	sbc	$16                     ; 0x2016 <f256main+0x1702>
    6724: a0 01        	ldy	#$1
    6726: 84 8f        	sty	$8f                     ; 0x208f <f256main+0x177b>
    6728: 64 14        	stz	$14                     ; 0x2014 <f256main+0x1700>
    672a: 46 16        	lsr	$16                     ; 0x2016 <f256main+0x1702>
    672c: 66 15        	ror	$15                     ; 0x2015 <f256main+0x1701>
    672e: a4 8f        	ldy	$8f                     ; 0x208f <f256main+0x177b>
    6730: 84 13        	sty	$13                     ; 0x2013 <f256main+0x16ff>
    6732: 06 13        	asl	$13                     ; 0x2013 <f256main+0x16ff>
    6734: a0 01        	ldy	#$1
    6736: b0 02        	bcs	$673a <__udivhi3+0x89>
    6738: a0 00        	ldy	#$0
    673a: 84 17        	sty	$17                     ; 0x2017 <f256main+0x1703>
    673c: a4 13        	ldy	$13                     ; 0x2013 <f256main+0x16ff>
    673e: 84 8f        	sty	$8f                     ; 0x208f <f256main+0x177b>
    6740: c5 16        	cmp	$16                     ; 0x2016 <f256main+0x1702>
    6742: d0 22        	bne	$6766 <__udivhi3+0xb5>
    6744: a4 12        	ldy	$12                     ; 0x2012 <f256main+0x16fe>
    6746: c4 15        	cpy	$15                     ; 0x2015 <f256main+0x1701>
    6748: 90 11        	bcc	$675b <__udivhi3+0xaa>
    674a: a8           	tay
    674b: a5 8f        	lda	$8f                     ; 0x208f <f256main+0x177b>
    674d: 09 01        	ora	#$1
    674f: 85 8f        	sta	$8f                     ; 0x208f <f256main+0x177b>
    6751: 38           	sec
    6752: a5 12        	lda	$12                     ; 0x2012 <f256main+0x16fe>
    6754: e5 15        	sbc	$15                     ; 0x2015 <f256main+0x1701>
    6756: 85 12        	sta	$12                     ; 0x2012 <f256main+0x16fe>
    6758: 98           	tya
    6759: e5 16        	sbc	$16                     ; 0x2016 <f256main+0x1702>
    675b: a4 17        	ldy	$17                     ; 0x2017 <f256main+0x1703>
    675d: c0 01        	cpy	#$1
    675f: 26 14        	rol	$14                     ; 0x2014 <f256main+0x1700>
    6761: ca           	dex
    6762: d0 c6        	bne	$672a <__udivhi3+0x79>
    6764: 80 06        	bra	$676c <__udivhi3+0xbb>
    6766: c5 16        	cmp	$16                     ; 0x2016 <f256main+0x1702>
    6768: b0 e0        	bcs	$674a <__udivhi3+0x99>
    676a: 80 ef        	bra	$675b <__udivhi3+0xaa>
    676c: a6 14        	ldx	$14                     ; 0x2014 <f256main+0x1700>
    676e: a5 8f        	lda	$8f                     ; 0x208f <f256main+0x177b>
    6770: 60           	rts

00006771 <__umodsi3>:
    6771: 85 1c        	sta	$1c                     ; 0x201c <f256main+0x1708>
    6773: 86 1a        	stx	$1a                     ; 0x201a <f256main+0x1706>
    6775: a5 13        	lda	$13                     ; 0x2013 <f256main+0x16ff>
    6777: a6 17        	ldx	$17                     ; 0x2017 <f256main+0x1703>
    6779: d0 0f        	bne	$678a <__umodsi3+0x19>
    677b: a6 16        	ldx	$16                     ; 0x2016 <f256main+0x1702>
    677d: d0 0b        	bne	$678a <__umodsi3+0x19>
    677f: a6 15        	ldx	$15                     ; 0x2015 <f256main+0x1701>
    6781: d0 07        	bne	$678a <__umodsi3+0x19>
    6783: a6 14        	ldx	$14                     ; 0x2014 <f256main+0x1700>
    6785: d0 03        	bne	$678a <__umodsi3+0x19>
    6787: 4c b1 68     	jmp	$68b1 <__umodsi3+0x140>
    678a: c5 17        	cmp	$17                     ; 0x2017 <f256main+0x1703>
    678c: d0 15        	bne	$67a3 <__umodsi3+0x32>
    678e: a6 12        	ldx	$12                     ; 0x2012 <f256main+0x16fe>
    6790: e4 16        	cpx	$16                     ; 0x2016 <f256main+0x1702>
    6792: d0 16        	bne	$67aa <__umodsi3+0x39>
    6794: a6 1a        	ldx	$1a                     ; 0x201a <f256main+0x1706>
    6796: e4 15        	cpx	$15                     ; 0x2015 <f256main+0x1701>
    6798: d0 17        	bne	$67b1 <__umodsi3+0x40>
    679a: a6 1c        	ldx	$1c                     ; 0x201c <f256main+0x1708>
    679c: e4 14        	cpx	$14                     ; 0x2014 <f256main+0x1700>
    679e: b0 1a        	bcs	$67ba <__umodsi3+0x49>
    67a0: 4c b1 68     	jmp	$68b1 <__umodsi3+0x140>
    67a3: c5 17        	cmp	$17                     ; 0x2017 <f256main+0x1703>
    67a5: b0 13        	bcs	$67ba <__umodsi3+0x49>
    67a7: 4c b1 68     	jmp	$68b1 <__umodsi3+0x140>
    67aa: e4 16        	cpx	$16                     ; 0x2016 <f256main+0x1702>
    67ac: b0 0c        	bcs	$67ba <__umodsi3+0x49>
    67ae: 4c b1 68     	jmp	$68b1 <__umodsi3+0x140>
    67b1: a6 1a        	ldx	$1a                     ; 0x201a <f256main+0x1706>
    67b3: e4 15        	cpx	$15                     ; 0x2015 <f256main+0x1701>
    67b5: b0 03        	bcs	$67ba <__umodsi3+0x49>
    67b7: 4c b1 68     	jmp	$68b1 <__umodsi3+0x140>
    67ba: a6 17        	ldx	$17                     ; 0x2017 <f256main+0x1703>
    67bc: 10 03        	bpl	$67c1 <__umodsi3+0x50>
    67be: 4c 9a 68     	jmp	$689a <__umodsi3+0x129>
    67c1: a2 00        	ldx	#$0
    67c3: a4 14        	ldy	$14                     ; 0x2014 <f256main+0x1700>
    67c5: 84 1b        	sty	$1b                     ; 0x201b <f256main+0x1707>
    67c7: a4 15        	ldy	$15                     ; 0x2015 <f256main+0x1701>
    67c9: 84 13        	sty	$13                     ; 0x2013 <f256main+0x16ff>
    67cb: a4 16        	ldy	$16                     ; 0x2016 <f256main+0x1702>
    67cd: 84 18        	sty	$18                     ; 0x2018 <f256main+0x1704>
    67cf: a4 17        	ldy	$17                     ; 0x2017 <f256main+0x1703>
    67d1: 84 19        	sty	$19                     ; 0x2019 <f256main+0x1705>
    67d3: 06 1b        	asl	$1b                     ; 0x201b <f256main+0x1707>
    67d5: 26 13        	rol	$13                     ; 0x2013 <f256main+0x16ff>
    67d7: 26 18        	rol	$18                     ; 0x2018 <f256main+0x1704>
    67d9: 26 19        	rol	$19                     ; 0x2019 <f256main+0x1705>
    67db: c5 19        	cmp	$19                     ; 0x2019 <f256main+0x1705>
    67dd: d0 16        	bne	$67f5 <__umodsi3+0x84>
    67df: a4 12        	ldy	$12                     ; 0x2012 <f256main+0x16fe>
    67e1: c4 18        	cpy	$18                     ; 0x2018 <f256main+0x1704>
    67e3: d0 16        	bne	$67fb <__umodsi3+0x8a>
    67e5: a4 1a        	ldy	$1a                     ; 0x201a <f256main+0x1706>
    67e7: c4 13        	cpy	$13                     ; 0x2013 <f256main+0x16ff>
    67e9: d0 16        	bne	$6801 <__umodsi3+0x90>
    67eb: a8           	tay
    67ec: a5 1c        	lda	$1c                     ; 0x201c <f256main+0x1708>
    67ee: c5 1b        	cmp	$1b                     ; 0x201b <f256main+0x1707>
    67f0: 98           	tya
    67f1: 90 29        	bcc	$681c <__umodsi3+0xab>
    67f3: 80 12        	bra	$6807 <__umodsi3+0x96>
    67f5: c5 19        	cmp	$19                     ; 0x2019 <f256main+0x1705>
    67f7: 90 23        	bcc	$681c <__umodsi3+0xab>
    67f9: 80 0c        	bra	$6807 <__umodsi3+0x96>
    67fb: c4 18        	cpy	$18                     ; 0x2018 <f256main+0x1704>
    67fd: 90 1d        	bcc	$681c <__umodsi3+0xab>
    67ff: 80 06        	bra	$6807 <__umodsi3+0x96>
    6801: a4 1a        	ldy	$1a                     ; 0x201a <f256main+0x1706>
    6803: c4 13        	cpy	$13                     ; 0x2013 <f256main+0x16ff>
    6805: 90 15        	bcc	$681c <__umodsi3+0xab>
    6807: e8           	inx
    6808: a4 1b        	ldy	$1b                     ; 0x201b <f256main+0x1707>
    680a: 84 14        	sty	$14                     ; 0x2014 <f256main+0x1700>
    680c: a4 13        	ldy	$13                     ; 0x2013 <f256main+0x16ff>
    680e: 84 15        	sty	$15                     ; 0x2015 <f256main+0x1701>
    6810: a4 18        	ldy	$18                     ; 0x2018 <f256main+0x1704>
    6812: 84 16        	sty	$16                     ; 0x2016 <f256main+0x1702>
    6814: a4 19        	ldy	$19                     ; 0x2019 <f256main+0x1705>
    6816: 84 17        	sty	$17                     ; 0x2017 <f256main+0x1703>
    6818: 10 b9        	bpl	$67d3 <__umodsi3+0x62>
    681a: 80 10        	bra	$682c <__umodsi3+0xbb>
    681c: a4 14        	ldy	$14                     ; 0x2014 <f256main+0x1700>
    681e: 84 1b        	sty	$1b                     ; 0x201b <f256main+0x1707>
    6820: a4 15        	ldy	$15                     ; 0x2015 <f256main+0x1701>
    6822: 84 13        	sty	$13                     ; 0x2013 <f256main+0x16ff>
    6824: a4 16        	ldy	$16                     ; 0x2016 <f256main+0x1702>
    6826: 84 18        	sty	$18                     ; 0x2018 <f256main+0x1704>
    6828: a4 17        	ldy	$17                     ; 0x2017 <f256main+0x1703>
    682a: 84 19        	sty	$19                     ; 0x2019 <f256main+0x1705>
    682c: 38           	sec
    682d: a8           	tay
    682e: a5 1c        	lda	$1c                     ; 0x201c <f256main+0x1708>
    6830: e5 1b        	sbc	$1b                     ; 0x201b <f256main+0x1707>
    6832: 85 1c        	sta	$1c                     ; 0x201c <f256main+0x1708>
    6834: a5 1a        	lda	$1a                     ; 0x201a <f256main+0x1706>
    6836: e5 13        	sbc	$13                     ; 0x2013 <f256main+0x16ff>
    6838: 85 1a        	sta	$1a                     ; 0x201a <f256main+0x1706>
    683a: a5 12        	lda	$12                     ; 0x2012 <f256main+0x16fe>
    683c: e5 18        	sbc	$18                     ; 0x2018 <f256main+0x1704>
    683e: 85 12        	sta	$12                     ; 0x2012 <f256main+0x16fe>
    6840: 98           	tya
    6841: e5 19        	sbc	$19                     ; 0x2019 <f256main+0x1705>
    6843: e0 00        	cpx	#$0
    6845: d0 11        	bne	$6858 <__umodsi3+0xe7>
    6847: 4c b1 68     	jmp	$68b1 <__umodsi3+0x140>
    684a: c4 18        	cpy	$18                     ; 0x2018 <f256main+0x1704>
    684c: b0 30        	bcs	$687e <__umodsi3+0x10d>
    684e: 80 45        	bra	$6895 <__umodsi3+0x124>
    6850: a4 1a        	ldy	$1a                     ; 0x201a <f256main+0x1706>
    6852: c4 13        	cpy	$13                     ; 0x2013 <f256main+0x16ff>
    6854: b0 28        	bcs	$687e <__umodsi3+0x10d>
    6856: 80 3d        	bra	$6895 <__umodsi3+0x124>
    6858: 46 19        	lsr	$19                     ; 0x2019 <f256main+0x1705>
    685a: 66 18        	ror	$18                     ; 0x2018 <f256main+0x1704>
    685c: 66 13        	ror	$13                     ; 0x2013 <f256main+0x16ff>
    685e: 66 1b        	ror	$1b                     ; 0x201b <f256main+0x1707>
    6860: c5 19        	cmp	$19                     ; 0x2019 <f256main+0x1705>
    6862: d0 16        	bne	$687a <__umodsi3+0x109>
    6864: a4 12        	ldy	$12                     ; 0x2012 <f256main+0x16fe>
    6866: c4 18        	cpy	$18                     ; 0x2018 <f256main+0x1704>
    6868: d0 e0        	bne	$684a <__umodsi3+0xd9>
    686a: a4 1a        	ldy	$1a                     ; 0x201a <f256main+0x1706>
    686c: c4 13        	cpy	$13                     ; 0x2013 <f256main+0x16ff>
    686e: d0 e0        	bne	$6850 <__umodsi3+0xdf>
    6870: a8           	tay
    6871: a5 1c        	lda	$1c                     ; 0x201c <f256main+0x1708>
    6873: c5 1b        	cmp	$1b                     ; 0x201b <f256main+0x1707>
    6875: 98           	tya
    6876: b0 06        	bcs	$687e <__umodsi3+0x10d>
    6878: 80 1b        	bra	$6895 <__umodsi3+0x124>
    687a: c5 19        	cmp	$19                     ; 0x2019 <f256main+0x1705>
    687c: 90 17        	bcc	$6895 <__umodsi3+0x124>
    687e: a8           	tay
    687f: 38           	sec
    6880: a5 1c        	lda	$1c                     ; 0x201c <f256main+0x1708>
    6882: e5 1b        	sbc	$1b                     ; 0x201b <f256main+0x1707>
    6884: 85 1c        	sta	$1c                     ; 0x201c <f256main+0x1708>
    6886: a5 1a        	lda	$1a                     ; 0x201a <f256main+0x1706>
    6888: e5 13        	sbc	$13                     ; 0x2013 <f256main+0x16ff>
    688a: 85 1a        	sta	$1a                     ; 0x201a <f256main+0x1706>
    688c: a5 12        	lda	$12                     ; 0x2012 <f256main+0x16fe>
    688e: e5 18        	sbc	$18                     ; 0x2018 <f256main+0x1704>
    6890: 85 12        	sta	$12                     ; 0x2012 <f256main+0x16fe>
    6892: 98           	tya
    6893: e5 19        	sbc	$19                     ; 0x2019 <f256main+0x1705>
    6895: ca           	dex
    6896: d0 c0        	bne	$6858 <__umodsi3+0xe7>
    6898: 80 17        	bra	$68b1 <__umodsi3+0x140>
    689a: 38           	sec
    689b: a8           	tay
    689c: a5 1c        	lda	$1c                     ; 0x201c <f256main+0x1708>
    689e: e5 14        	sbc	$14                     ; 0x2014 <f256main+0x1700>
    68a0: 85 1c        	sta	$1c                     ; 0x201c <f256main+0x1708>
    68a2: a5 1a        	lda	$1a                     ; 0x201a <f256main+0x1706>
    68a4: e5 15        	sbc	$15                     ; 0x2015 <f256main+0x1701>
    68a6: 85 1a        	sta	$1a                     ; 0x201a <f256main+0x1706>
    68a8: a5 12        	lda	$12                     ; 0x2012 <f256main+0x16fe>
    68aa: e5 16        	sbc	$16                     ; 0x2016 <f256main+0x1702>
    68ac: 85 12        	sta	$12                     ; 0x2012 <f256main+0x16fe>
    68ae: 98           	tya
    68af: e5 17        	sbc	$17                     ; 0x2017 <f256main+0x1703>
    68b1: 85 13        	sta	$13                     ; 0x2013 <f256main+0x16ff>
    68b3: a6 1a        	ldx	$1a                     ; 0x201a <f256main+0x1706>
    68b5: a5 1c        	lda	$1c                     ; 0x201c <f256main+0x1708>
    68b7: 60           	rts

000068b8 <__udivmodqi4>:
    68b8: a8           	tay
    68b9: a9 00        	lda	#$0
    68bb: e0 00        	cpx	#$0
    68bd: f0 25        	beq	$68e4 <__udivmodqi4+0x2c>
    68bf: 86 15        	stx	$15                     ; 0x2015 <f256main+0x1701>
    68c1: 84 16        	sty	$16                     ; 0x2016 <f256main+0x1702>
    68c3: c4 15        	cpy	$15                     ; 0x2015 <f256main+0x1701>
    68c5: b0 03        	bcs	$68ca <__udivmodqi4+0x12>
    68c7: 4c 1f 69     	jmp	$691f <__udivmodqi4+0x67>
    68ca: a5 15        	lda	$15                     ; 0x2015 <f256main+0x1701>
    68cc: 30 1a        	bmi	$68e8 <__udivmodqi4+0x30>
    68ce: a2 00        	ldx	#$0
    68d0: a5 15        	lda	$15                     ; 0x2015 <f256main+0x1701>
    68d2: 85 14        	sta	$14                     ; 0x2014 <f256main+0x1700>
    68d4: 98           	tya
    68d5: 06 14        	asl	$14                     ; 0x2014 <f256main+0x1700>
    68d7: c5 14        	cmp	$14                     ; 0x2014 <f256main+0x1700>
    68d9: 90 15        	bcc	$68f0 <__udivmodqi4+0x38>
    68db: e8           	inx
    68dc: a4 14        	ldy	$14                     ; 0x2014 <f256main+0x1700>
    68de: 84 15        	sty	$15                     ; 0x2015 <f256main+0x1701>
    68e0: 10 f3        	bpl	$68d5 <__udivmodqi4+0x1d>
    68e2: 80 10        	bra	$68f4 <__udivmodqi4+0x3c>
    68e4: 84 16        	sty	$16                     ; 0x2016 <f256main+0x1702>
    68e6: 80 37        	bra	$691f <__udivmodqi4+0x67>
    68e8: 38           	sec
    68e9: 98           	tya
    68ea: e5 15        	sbc	$15                     ; 0x2015 <f256main+0x1701>
    68ec: 85 16        	sta	$16                     ; 0x2016 <f256main+0x1702>
    68ee: 80 2d        	bra	$691d <__udivmodqi4+0x65>
    68f0: a4 15        	ldy	$15                     ; 0x2015 <f256main+0x1701>
    68f2: 84 14        	sty	$14                     ; 0x2014 <f256main+0x1700>
    68f4: 38           	sec
    68f5: e5 14        	sbc	$14                     ; 0x2014 <f256main+0x1700>
    68f7: 85 16        	sta	$16                     ; 0x2016 <f256main+0x1702>
    68f9: 8a           	txa
    68fa: f0 21        	beq	$691d <__udivmodqi4+0x65>
    68fc: a9 01        	lda	#$1
    68fe: 46 14        	lsr	$14                     ; 0x2014 <f256main+0x1700>
    6900: 0a           	asl
    6901: a8           	tay
    6902: a5 16        	lda	$16                     ; 0x2016 <f256main+0x1702>
    6904: c5 14        	cmp	$14                     ; 0x2014 <f256main+0x1700>
    6906: 90 0d        	bcc	$6915 <__udivmodqi4+0x5d>
    6908: 85 15        	sta	$15                     ; 0x2015 <f256main+0x1701>
    690a: 98           	tya
    690b: 09 01        	ora	#$1
    690d: a8           	tay
    690e: 38           	sec
    690f: a5 15        	lda	$15                     ; 0x2015 <f256main+0x1701>
    6911: e5 14        	sbc	$14                     ; 0x2014 <f256main+0x1700>
    6913: 85 16        	sta	$16                     ; 0x2016 <f256main+0x1702>
    6915: ca           	dex
    6916: 98           	tya
    6917: e0 00        	cpx	#$0
    6919: d0 e3        	bne	$68fe <__udivmodqi4+0x46>
    691b: 80 02        	bra	$691f <__udivmodqi4+0x67>
    691d: a9 01        	lda	#$1
    691f: aa           	tax
    6920: a5 16        	lda	$16                     ; 0x2016 <f256main+0x1702>
    6922: 92 12        	sta	($12)                   ; 0x2012 <f256main+0x16fe>
    6924: 8a           	txa
    6925: 60           	rts

00006926 <__udivmodhi4>:
    6926: 86 1a        	stx	$1a                     ; 0x201a <f256main+0x1706>
    6928: 64 16        	stz	$16                     ; 0x2016 <f256main+0x1702>
    692a: a4 13        	ldy	$13                     ; 0x2013 <f256main+0x16ff>
    692c: d0 04        	bne	$6932 <__udivmodhi4+0xc>
    692e: a4 12        	ldy	$12                     ; 0x2012 <f256main+0x16fe>
    6930: f0 08        	beq	$693a <__udivmodhi4+0x14>
    6932: e4 13        	cpx	$13                     ; 0x2013 <f256main+0x16ff>
    6934: d0 0d        	bne	$6943 <__udivmodhi4+0x1d>
    6936: c5 12        	cmp	$12                     ; 0x2012 <f256main+0x16fe>
    6938: b0 0d        	bcs	$6947 <__udivmodhi4+0x21>
    693a: a6 1a        	ldx	$1a                     ; 0x201a <f256main+0x1706>
    693c: 86 12        	stx	$12                     ; 0x2012 <f256main+0x16fe>
    693e: a2 00        	ldx	#$0
    6940: 4c eb 69     	jmp	$69eb <__udivmodhi4+0xc5>
    6943: e4 13        	cpx	$13                     ; 0x2013 <f256main+0x16ff>
    6945: 90 f3        	bcc	$693a <__udivmodhi4+0x14>
    6947: a6 13        	ldx	$13                     ; 0x2013 <f256main+0x16ff>
    6949: 10 03        	bpl	$694e <__udivmodhi4+0x28>
    694b: 4c de 69     	jmp	$69de <__udivmodhi4+0xb8>
    694e: a2 00        	ldx	#$0
    6950: a4 12        	ldy	$12                     ; 0x2012 <f256main+0x16fe>
    6952: 84 17        	sty	$17                     ; 0x2017 <f256main+0x1703>
    6954: a4 13        	ldy	$13                     ; 0x2013 <f256main+0x16ff>
    6956: 84 18        	sty	$18                     ; 0x2018 <f256main+0x1704>
    6958: 06 17        	asl	$17                     ; 0x2017 <f256main+0x1703>
    695a: 26 18        	rol	$18                     ; 0x2018 <f256main+0x1704>
    695c: a4 1a        	ldy	$1a                     ; 0x201a <f256main+0x1706>
    695e: c4 18        	cpy	$18                     ; 0x2018 <f256main+0x1704>
    6960: d0 06        	bne	$6968 <__udivmodhi4+0x42>
    6962: c5 17        	cmp	$17                     ; 0x2017 <f256main+0x1703>
    6964: b0 08        	bcs	$696e <__udivmodhi4+0x48>
    6966: 80 13        	bra	$697b <__udivmodhi4+0x55>
    6968: a4 1a        	ldy	$1a                     ; 0x201a <f256main+0x1706>
    696a: c4 18        	cpy	$18                     ; 0x2018 <f256main+0x1704>
    696c: 90 0d        	bcc	$697b <__udivmodhi4+0x55>
    696e: e8           	inx
    696f: a4 17        	ldy	$17                     ; 0x2017 <f256main+0x1703>
    6971: 84 12        	sty	$12                     ; 0x2012 <f256main+0x16fe>
    6973: a4 18        	ldy	$18                     ; 0x2018 <f256main+0x1704>
    6975: 84 13        	sty	$13                     ; 0x2013 <f256main+0x16ff>
    6977: 10 df        	bpl	$6958 <__udivmodhi4+0x32>
    6979: 80 08        	bra	$6983 <__udivmodhi4+0x5d>
    697b: a4 12        	ldy	$12                     ; 0x2012 <f256main+0x16fe>
    697d: 84 17        	sty	$17                     ; 0x2017 <f256main+0x1703>
    697f: a4 13        	ldy	$13                     ; 0x2013 <f256main+0x16ff>
    6981: 84 18        	sty	$18                     ; 0x2018 <f256main+0x1704>
    6983: 38           	sec
    6984: e5 17        	sbc	$17                     ; 0x2017 <f256main+0x1703>
    6986: a8           	tay
    6987: a5 1a        	lda	$1a                     ; 0x201a <f256main+0x1706>
    6989: e5 18        	sbc	$18                     ; 0x2018 <f256main+0x1704>
    698b: 85 12        	sta	$12                     ; 0x2012 <f256main+0x16fe>
    698d: 8a           	txa
    698e: d0 03        	bne	$6993 <__udivmodhi4+0x6d>
    6990: 4c fa 69     	jmp	$69fa <__udivmodhi4+0xd4>
    6993: a9 01        	lda	#$1
    6995: 85 94        	sta	$94                     ; 0x2094 <f256main+0x1780>
    6997: 64 16        	stz	$16                     ; 0x2016 <f256main+0x1702>
    6999: 98           	tya
    699a: 46 18        	lsr	$18                     ; 0x2018 <f256main+0x1704>
    699c: 66 17        	ror	$17                     ; 0x2017 <f256main+0x1703>
    699e: a4 94        	ldy	$94                     ; 0x2094 <f256main+0x1780>
    69a0: 84 13        	sty	$13                     ; 0x2013 <f256main+0x16ff>
    69a2: 06 13        	asl	$13                     ; 0x2013 <f256main+0x16ff>
    69a4: a0 01        	ldy	#$1
    69a6: b0 02        	bcs	$69aa <__udivmodhi4+0x84>
    69a8: a0 00        	ldy	#$0
    69aa: 84 19        	sty	$19                     ; 0x2019 <f256main+0x1705>
    69ac: a4 13        	ldy	$13                     ; 0x2013 <f256main+0x16ff>
    69ae: 84 94        	sty	$94                     ; 0x2094 <f256main+0x1780>
    69b0: a4 12        	ldy	$12                     ; 0x2012 <f256main+0x16fe>
    69b2: c4 18        	cpy	$18                     ; 0x2018 <f256main+0x1704>
    69b4: d0 22        	bne	$69d8 <__udivmodhi4+0xb2>
    69b6: c5 17        	cmp	$17                     ; 0x2017 <f256main+0x1703>
    69b8: 90 13        	bcc	$69cd <__udivmodhi4+0xa7>
    69ba: a8           	tay
    69bb: a5 94        	lda	$94                     ; 0x2094 <f256main+0x1780>
    69bd: 09 01        	ora	#$1
    69bf: 85 94        	sta	$94                     ; 0x2094 <f256main+0x1780>
    69c1: 38           	sec
    69c2: 98           	tya
    69c3: e5 17        	sbc	$17                     ; 0x2017 <f256main+0x1703>
    69c5: a8           	tay
    69c6: a5 12        	lda	$12                     ; 0x2012 <f256main+0x16fe>
    69c8: e5 18        	sbc	$18                     ; 0x2018 <f256main+0x1704>
    69ca: 85 12        	sta	$12                     ; 0x2012 <f256main+0x16fe>
    69cc: 98           	tya
    69cd: a4 19        	ldy	$19                     ; 0x2019 <f256main+0x1705>
    69cf: c0 01        	cpy	#$1
    69d1: 26 16        	rol	$16                     ; 0x2016 <f256main+0x1702>
    69d3: ca           	dex
    69d4: d0 c4        	bne	$699a <__udivmodhi4+0x74>
    69d6: 80 15        	bra	$69ed <__udivmodhi4+0xc7>
    69d8: c4 18        	cpy	$18                     ; 0x2018 <f256main+0x1704>
    69da: b0 de        	bcs	$69ba <__udivmodhi4+0x94>
    69dc: 80 ef        	bra	$69cd <__udivmodhi4+0xa7>
    69de: 38           	sec
    69df: e5 12        	sbc	$12                     ; 0x2012 <f256main+0x16fe>
    69e1: aa           	tax
    69e2: a5 1a        	lda	$1a                     ; 0x201a <f256main+0x1706>
    69e4: e5 13        	sbc	$13                     ; 0x2013 <f256main+0x16ff>
    69e6: 85 12        	sta	$12                     ; 0x2012 <f256main+0x16fe>
    69e8: 8a           	txa
    69e9: a2 01        	ldx	#$1
    69eb: 86 94        	stx	$94                     ; 0x2094 <f256main+0x1780>
    69ed: 92 14        	sta	($14)                   ; 0x2014 <f256main+0x1700>
    69ef: a0 01        	ldy	#$1
    69f1: a5 12        	lda	$12                     ; 0x2012 <f256main+0x16fe>
    69f3: 91 14        	sta	($14),y                 ; 0x2014 <f256main+0x1700>
    69f5: a6 16        	ldx	$16                     ; 0x2016 <f256main+0x1702>
    69f7: a5 94        	lda	$94                     ; 0x2094 <f256main+0x1780>
    69f9: 60           	rts
    69fa: a2 01        	ldx	#$1
    69fc: 86 94        	stx	$94                     ; 0x2094 <f256main+0x1780>
    69fe: 98           	tya
    69ff: 80 ec        	bra	$69ed <__udivmodhi4+0xc7>

00006a01 <__divsf3>:
    6a01: 85 9a        	sta	$9a                     ; 0x209a <f256main+0x1786>
    6a03: 86 97        	stx	$97                     ; 0x2097 <f256main+0x1783>
    6a05: a6 12        	ldx	$12                     ; 0x2012 <f256main+0x16fe>
    6a07: 86 19        	stx	$19                     ; 0x2019 <f256main+0x1705>
    6a09: a6 14        	ldx	$14                     ; 0x2014 <f256main+0x1700>
    6a0b: 86 94        	stx	$94                     ; 0x2094 <f256main+0x1780>
    6a0d: a6 15        	ldx	$15                     ; 0x2015 <f256main+0x1701>
    6a0f: a5 12        	lda	$12                     ; 0x2012 <f256main+0x16fe>
    6a11: 0a           	asl
    6a12: a4 13        	ldy	$13                     ; 0x2013 <f256main+0x16ff>
    6a14: 84 14        	sty	$14                     ; 0x2014 <f256main+0x1700>
    6a16: 26 14        	rol	$14                     ; 0x2014 <f256main+0x1700>
    6a18: a5 16        	lda	$16                     ; 0x2016 <f256main+0x1702>
    6a1a: a4 17        	ldy	$17                     ; 0x2017 <f256main+0x1703>
    6a1c: 84 12        	sty	$12                     ; 0x2012 <f256main+0x16fe>
    6a1e: 0a           	asl
    6a1f: 26 12        	rol	$12                     ; 0x2012 <f256main+0x16fe>
    6a21: 18           	clc
    6a22: a4 14        	ldy	$14                     ; 0x2014 <f256main+0x1700>
    6a24: 84 9b        	sty	$9b                     ; 0x209b <f256main+0x1787>
    6a26: a5 14        	lda	$14                     ; 0x2014 <f256main+0x1700>
    6a28: 69 01        	adc	#$1
    6a2a: a8           	tay
    6a2b: a9 00        	lda	#$0
    6a2d: 69 ff        	adc	#$ff
    6a2f: 85 1a        	sta	$1a                     ; 0x201a <f256main+0x1706>
    6a31: a5 13        	lda	$13                     ; 0x2013 <f256main+0x16ff>
    6a33: 85 14        	sta	$14                     ; 0x2014 <f256main+0x1700>
    6a35: a5 17        	lda	$17                     ; 0x2017 <f256main+0x1703>
    6a37: 45 13        	eor	$13                     ; 0x2013 <f256main+0x16ff>
    6a39: 29 80        	and	#$80
    6a3b: 85 9c        	sta	$9c                     ; 0x209c <f256main+0x1788>
    6a3d: a5 19        	lda	$19                     ; 0x2019 <f256main+0x1705>
    6a3f: 29 7f        	and	#$7f
    6a41: 85 9d        	sta	$9d                     ; 0x209d <f256main+0x1789>
    6a43: a5 16        	lda	$16                     ; 0x2016 <f256main+0x1702>
    6a45: 85 91        	sta	$91                     ; 0x2091 <f256main+0x177d>
    6a47: a5 16        	lda	$16                     ; 0x2016 <f256main+0x1702>
    6a49: 29 7f        	and	#$7f
    6a4b: 85 8f        	sta	$8f                     ; 0x208f <f256main+0x177b>
    6a4d: a5 1a        	lda	$1a                     ; 0x201a <f256main+0x1706>
    6a4f: c9 ff        	cmp	#$ff
    6a51: d0 04        	bne	$6a57 <__divsf3+0x56>
    6a53: c0 02        	cpy	#$2
    6a55: 80 02        	bra	$6a59 <__divsf3+0x58>
    6a57: c9 ff        	cmp	#$ff
    6a59: a4 13        	ldy	$13                     ; 0x2013 <f256main+0x16ff>
    6a5b: a5 19        	lda	$19                     ; 0x2019 <f256main+0x1705>
    6a5d: 90 2d        	bcc	$6a8c <__divsf3+0x8b>
    6a5f: 18           	clc
    6a60: a5 12        	lda	$12                     ; 0x2012 <f256main+0x16fe>
    6a62: 69 01        	adc	#$1
    6a64: a8           	tay
    6a65: a9 00        	lda	#$0
    6a67: 69 ff        	adc	#$ff
    6a69: c9 ff        	cmp	#$ff
    6a6b: d0 17        	bne	$6a84 <__divsf3+0x83>
    6a6d: c0 02        	cpy	#$2
    6a6f: 90 17        	bcc	$6a88 <__divsf3+0x87>
    6a71: a4 8f        	ldy	$8f                     ; 0x208f <f256main+0x177b>
    6a73: 84 16        	sty	$16                     ; 0x2016 <f256main+0x1702>
    6a75: 86 9e        	stx	$9e                     ; 0x209e <f256main+0x178a>
    6a77: a2 00        	ldx	#$0
    6a79: 86 a0        	stx	$a0                     ; 0x20a0 <f256main+0x178c>
    6a7b: a0 00        	ldy	#$0
    6a7d: 64 14        	stz	$14                     ; 0x2014 <f256main+0x1700>
    6a7f: 64 15        	stz	$15                     ; 0x2015 <f256main+0x1701>
    6a81: 4c 06 70     	jmp	$7006 <__divsf3+0x605>
    6a84: c9 ff        	cmp	#$ff
    6a86: b0 e9        	bcs	$6a71 <__divsf3+0x70>
    6a88: a4 13        	ldy	$13                     ; 0x2013 <f256main+0x16ff>
    6a8a: a5 19        	lda	$19                     ; 0x2019 <f256main+0x1705>
    6a8c: 85 16        	sta	$16                     ; 0x2016 <f256main+0x1702>
    6a8e: 98           	tya
    6a8f: 29 7f        	and	#$7f
    6a91: c9 7f        	cmp	#$7f
    6a93: d0 14        	bne	$6aa9 <__divsf3+0xa8>
    6a95: 85 13        	sta	$13                     ; 0x2013 <f256main+0x16ff>
    6a97: a5 16        	lda	$16                     ; 0x2016 <f256main+0x1702>
    6a99: c9 80        	cmp	#$80
    6a9b: d0 43        	bne	$6ae0 <__divsf3+0xdf>
    6a9d: a4 97        	ldy	$97                     ; 0x2097 <f256main+0x1783>
    6a9f: d0 4f        	bne	$6af0 <__divsf3+0xef>
    6aa1: a4 9a        	ldy	$9a                     ; 0x209a <f256main+0x1786>
    6aa3: c0 01        	cpy	#$1
    6aa5: 90 0a        	bcc	$6ab1 <__divsf3+0xb0>
    6aa7: 80 3b        	bra	$6ae4 <__divsf3+0xe3>
    6aa9: 85 13        	sta	$13                     ; 0x2013 <f256main+0x16ff>
    6aab: c9 7f        	cmp	#$7f
    6aad: a5 16        	lda	$16                     ; 0x2016 <f256main+0x1702>
    6aaf: b0 33        	bcs	$6ae4 <__divsf3+0xe3>
    6ab1: a5 17        	lda	$17                     ; 0x2017 <f256main+0x1703>
    6ab3: 29 7f        	and	#$7f
    6ab5: 85 92        	sta	$92                     ; 0x2092 <f256main+0x177e>
    6ab7: c9 7f        	cmp	#$7f
    6ab9: d0 31        	bne	$6aec <__divsf3+0xeb>
    6abb: a4 91        	ldy	$91                     ; 0x2091 <f256main+0x177d>
    6abd: c0 80        	cpy	#$80
    6abf: d0 37        	bne	$6af8 <__divsf3+0xf7>
    6ac1: a5 19        	lda	$19                     ; 0x2019 <f256main+0x1705>
    6ac3: e0 00        	cpx	#$0
    6ac5: f0 03        	beq	$6aca <__divsf3+0xc9>
    6ac7: 4c aa 6b     	jmp	$6baa <__divsf3+0x1a9>
    6aca: a4 94        	ldy	$94                     ; 0x2094 <f256main+0x1780>
    6acc: c0 01        	cpy	#$1
    6ace: 90 2e        	bcc	$6afe <__divsf3+0xfd>
    6ad0: a5 91        	lda	$91                     ; 0x2091 <f256main+0x177d>
    6ad2: 09 40        	ora	#$40
    6ad4: a4 94        	ldy	$94                     ; 0x2094 <f256main+0x1780>
    6ad6: 84 9a        	sty	$9a                     ; 0x209a <f256main+0x1786>
    6ad8: 86 97        	stx	$97                     ; 0x2097 <f256main+0x1783>
    6ada: a8           	tay
    6adb: a5 17        	lda	$17                     ; 0x2017 <f256main+0x1703>
    6add: 4c 5c 75     	jmp	$755c <__divsf3+0xb5b>
    6ae0: c9 80        	cmp	#$80
    6ae2: 90 cd        	bcc	$6ab1 <__divsf3+0xb0>
    6ae4: 09 40        	ora	#$40
    6ae6: a8           	tay
    6ae7: a5 14        	lda	$14                     ; 0x2014 <f256main+0x1700>
    6ae9: 4c 5c 75     	jmp	$755c <__divsf3+0xb5b>
    6aec: c9 7f        	cmp	#$7f
    6aee: 80 0a        	bra	$6afa <__divsf3+0xf9>
    6af0: a4 97        	ldy	$97                     ; 0x2097 <f256main+0x1783>
    6af2: c0 00        	cpy	#$0
    6af4: 90 bb        	bcc	$6ab1 <__divsf3+0xb0>
    6af6: 80 ec        	bra	$6ae4 <__divsf3+0xe3>
    6af8: c0 80        	cpy	#$80
    6afa: a5 19        	lda	$19                     ; 0x2019 <f256main+0x1705>
    6afc: b0 d2        	bcs	$6ad0 <__divsf3+0xcf>
    6afe: a4 13        	ldy	$13                     ; 0x2013 <f256main+0x16ff>
    6b00: 84 14        	sty	$14                     ; 0x2014 <f256main+0x1700>
    6b02: c0 7f        	cpy	#$7f
    6b04: d0 36        	bne	$6b3c <__divsf3+0x13b>
    6b06: c9 80        	cmp	#$80
    6b08: d0 32        	bne	$6b3c <__divsf3+0x13b>
    6b0a: a4 97        	ldy	$97                     ; 0x2097 <f256main+0x1783>
    6b0c: d0 2e        	bne	$6b3c <__divsf3+0x13b>
    6b0e: a4 9a        	ldy	$9a                     ; 0x209a <f256main+0x1786>
    6b10: d0 2a        	bne	$6b3c <__divsf3+0x13b>
    6b12: a5 92        	lda	$92                     ; 0x2092 <f256main+0x177e>
    6b14: c9 7f        	cmp	#$7f
    6b16: f0 03        	beq	$6b1b <__divsf3+0x11a>
    6b18: 4c ce 73     	jmp	$73ce <__divsf3+0x9cd>
    6b1b: a4 91        	ldy	$91                     ; 0x2091 <f256main+0x177d>
    6b1d: c0 80        	cpy	#$80
    6b1f: f0 03        	beq	$6b24 <__divsf3+0x123>
    6b21: 4c ce 73     	jmp	$73ce <__divsf3+0x9cd>
    6b24: 8a           	txa
    6b25: f0 03        	beq	$6b2a <__divsf3+0x129>
    6b27: 4c ce 73     	jmp	$73ce <__divsf3+0x9cd>
    6b2a: a5 94        	lda	$94                     ; 0x2094 <f256main+0x1780>
    6b2c: f0 03        	beq	$6b31 <__divsf3+0x130>
    6b2e: 4c ce 73     	jmp	$73ce <__divsf3+0x9cd>
    6b31: a0 c0        	ldy	#$c0
    6b33: a9 7f        	lda	#$7f
    6b35: 64 9a        	stz	$9a                     ; 0x209a <f256main+0x1786>
    6b37: 64 97        	stz	$97                     ; 0x2097 <f256main+0x1783>
    6b39: 4c 5c 75     	jmp	$755c <__divsf3+0xb5b>
    6b3c: a4 92        	ldy	$92                     ; 0x2092 <f256main+0x177e>
    6b3e: c0 7f        	cpy	#$7f
    6b40: d0 11        	bne	$6b53 <__divsf3+0x152>
    6b42: a4 91        	ldy	$91                     ; 0x2091 <f256main+0x177d>
    6b44: c0 80        	cpy	#$80
    6b46: d0 0b        	bne	$6b53 <__divsf3+0x152>
    6b48: e0 00        	cpx	#$0
    6b4a: d0 07        	bne	$6b53 <__divsf3+0x152>
    6b4c: a4 94        	ldy	$94                     ; 0x2094 <f256main+0x1780>
    6b4e: d0 03        	bne	$6b53 <__divsf3+0x152>
    6b50: 4c 3a 74     	jmp	$743a <__divsf3+0xa39>
    6b53: a4 9a        	ldy	$9a                     ; 0x209a <f256main+0x1786>
    6b55: 48           	pha
    6b56: a5 97        	lda	$97                     ; 0x2097 <f256main+0x1783>
    6b58: 85 13        	sta	$13                     ; 0x2013 <f256main+0x16ff>
    6b5a: a5 14        	lda	$14                     ; 0x2014 <f256main+0x1700>
    6b5c: 85 16        	sta	$16                     ; 0x2016 <f256main+0x1702>
    6b5e: 68           	pla
    6b5f: e6 16        	inc	$16                     ; 0x2016 <f256main+0x1702>
    6b61: c6 16        	dec	$16                     ; 0x2016 <f256main+0x1702>
    6b63: d0 0e        	bne	$6b73 <__divsf3+0x172>
    6b65: c9 00        	cmp	#$0
    6b67: d0 0a        	bne	$6b73 <__divsf3+0x172>
    6b69: a5 13        	lda	$13                     ; 0x2013 <f256main+0x16ff>
    6b6b: d0 06        	bne	$6b73 <__divsf3+0x172>
    6b6d: 98           	tya
    6b6e: d0 03        	bne	$6b73 <__divsf3+0x172>
    6b70: 4c 75 75     	jmp	$7575 <__divsf3+0xb74>
    6b73: a4 94        	ldy	$94                     ; 0x2094 <f256main+0x1780>
    6b75: a5 91        	lda	$91                     ; 0x2091 <f256main+0x177d>
    6b77: 85 13        	sta	$13                     ; 0x2013 <f256main+0x16ff>
    6b79: a5 92        	lda	$92                     ; 0x2092 <f256main+0x177e>
    6b7b: d0 0d        	bne	$6b8a <__divsf3+0x189>
    6b7d: a5 13        	lda	$13                     ; 0x2013 <f256main+0x16ff>
    6b7f: d0 09        	bne	$6b8a <__divsf3+0x189>
    6b81: 8a           	txa
    6b82: d0 06        	bne	$6b8a <__divsf3+0x189>
    6b84: 98           	tya
    6b85: d0 03        	bne	$6b8a <__divsf3+0x189>
    6b87: 4c ce 73     	jmp	$73ce <__divsf3+0x9cd>
    6b8a: a5 14        	lda	$14                     ; 0x2014 <f256main+0x1700>
    6b8c: d0 14        	bne	$6ba2 <__divsf3+0x1a1>
    6b8e: a4 19        	ldy	$19                     ; 0x2019 <f256main+0x1705>
    6b90: c0 80        	cpy	#$80
    6b92: d0 20        	bne	$6bb4 <__divsf3+0x1b3>
    6b94: a4 8f        	ldy	$8f                     ; 0x208f <f256main+0x177b>
    6b96: 84 16        	sty	$16                     ; 0x2016 <f256main+0x1702>
    6b98: a5 91        	lda	$91                     ; 0x2091 <f256main+0x177d>
    6b9a: a4 97        	ldy	$97                     ; 0x2097 <f256main+0x1783>
    6b9c: d0 22        	bne	$6bc0 <__divsf3+0x1bf>
    6b9e: a4 9a        	ldy	$9a                     ; 0x209a <f256main+0x1786>
    6ba0: 80 20        	bra	$6bc2 <__divsf3+0x1c1>
    6ba2: a4 14        	ldy	$14                     ; 0x2014 <f256main+0x1700>
    6ba4: c0 00        	cpy	#$0
    6ba6: b0 10        	bcs	$6bb8 <__divsf3+0x1b7>
    6ba8: 80 25        	bra	$6bcf <__divsf3+0x1ce>
    6baa: e0 00        	cpx	#$0
    6bac: 90 03        	bcc	$6bb1 <__divsf3+0x1b0>
    6bae: 4c d0 6a     	jmp	$6ad0 <__divsf3+0xcf>
    6bb1: 4c fe 6a     	jmp	$6afe <__divsf3+0xfd>
    6bb4: c0 80        	cpy	#$80
    6bb6: 90 17        	bcc	$6bcf <__divsf3+0x1ce>
    6bb8: a4 8f        	ldy	$8f                     ; 0x208f <f256main+0x177b>
    6bba: 84 16        	sty	$16                     ; 0x2016 <f256main+0x1702>
    6bbc: a5 91        	lda	$91                     ; 0x2091 <f256main+0x177d>
    6bbe: 80 06        	bra	$6bc6 <__divsf3+0x1c5>
    6bc0: a4 97        	ldy	$97                     ; 0x2097 <f256main+0x1783>
    6bc2: c0 00        	cpy	#$0
    6bc4: 90 09        	bcc	$6bcf <__divsf3+0x1ce>
    6bc6: 64 13        	stz	$13                     ; 0x2013 <f256main+0x16ff>
    6bc8: 64 14        	stz	$14                     ; 0x2014 <f256main+0x1700>
    6bca: 64 15        	stz	$15                     ; 0x2015 <f256main+0x1701>
    6bcc: 4c d4 6d     	jmp	$6dd4 <__divsf3+0x3d3>
    6bcf: 86 9e        	stx	$9e                     ; 0x209e <f256main+0x178a>
    6bd1: a4 94        	ldy	$94                     ; 0x2094 <f256main+0x1780>
    6bd3: 84 9f        	sty	$9f                     ; 0x209f <f256main+0x178b>
    6bd5: a6 12        	ldx	$12                     ; 0x2012 <f256main+0x16fe>
    6bd7: 86 a1        	stx	$a1                     ; 0x20a1 <f256main+0x178d>
    6bd9: a4 9d        	ldy	$9d                     ; 0x209d <f256main+0x1789>
    6bdb: 98           	tya
    6bdc: 4a           	lsr
    6bdd: 85 12        	sta	$12                     ; 0x2012 <f256main+0x16fe>
    6bdf: a6 97        	ldx	$97                     ; 0x2097 <f256main+0x1783>
    6be1: a5 97        	lda	$97                     ; 0x2097 <f256main+0x1783>
    6be3: 6a           	ror
    6be4: 85 13        	sta	$13                     ; 0x2013 <f256main+0x16ff>
    6be6: a5 9a        	lda	$9a                     ; 0x209a <f256main+0x1786>
    6be8: 6a           	ror
    6be9: 85 14        	sta	$14                     ; 0x2014 <f256main+0x1700>
    6beb: a5 9a        	lda	$9a                     ; 0x209a <f256main+0x1786>
    6bed: 05 14        	ora	$14                     ; 0x2014 <f256main+0x1700>
    6bef: 85 16        	sta	$16                     ; 0x2016 <f256main+0x1702>
    6bf1: a5 97        	lda	$97                     ; 0x2097 <f256main+0x1783>
    6bf3: 05 13        	ora	$13                     ; 0x2013 <f256main+0x16ff>
    6bf5: 85 15        	sta	$15                     ; 0x2015 <f256main+0x1701>
    6bf7: 98           	tya
    6bf8: 05 12        	ora	$12                     ; 0x2012 <f256main+0x16fe>
    6bfa: 85 17        	sta	$17                     ; 0x2017 <f256main+0x1703>
    6bfc: 4a           	lsr
    6bfd: 5a           	phy
    6bfe: a4 15        	ldy	$15                     ; 0x2015 <f256main+0x1701>
    6c00: 84 12        	sty	$12                     ; 0x2012 <f256main+0x16fe>
    6c02: 66 12        	ror	$12                     ; 0x2012 <f256main+0x16fe>
    6c04: a4 16        	ldy	$16                     ; 0x2016 <f256main+0x1702>
    6c06: 84 13        	sty	$13                     ; 0x2013 <f256main+0x16ff>
    6c08: 66 13        	ror	$13                     ; 0x2013 <f256main+0x16ff>
    6c0a: 4a           	lsr
    6c0b: 85 14        	sta	$14                     ; 0x2014 <f256main+0x1700>
    6c0d: 66 12        	ror	$12                     ; 0x2012 <f256main+0x16fe>
    6c0f: 66 13        	ror	$13                     ; 0x2013 <f256main+0x16ff>
    6c11: a5 16        	lda	$16                     ; 0x2016 <f256main+0x1702>
    6c13: 05 13        	ora	$13                     ; 0x2013 <f256main+0x16ff>
    6c15: 85 16        	sta	$16                     ; 0x2016 <f256main+0x1702>
    6c17: a5 15        	lda	$15                     ; 0x2015 <f256main+0x1701>
    6c19: 05 12        	ora	$12                     ; 0x2012 <f256main+0x16fe>
    6c1b: 85 15        	sta	$15                     ; 0x2015 <f256main+0x1701>
    6c1d: a5 17        	lda	$17                     ; 0x2017 <f256main+0x1703>
    6c1f: 05 14        	ora	$14                     ; 0x2014 <f256main+0x1700>
    6c21: 85 17        	sta	$17                     ; 0x2017 <f256main+0x1703>
    6c23: 4a           	lsr
    6c24: a4 15        	ldy	$15                     ; 0x2015 <f256main+0x1701>
    6c26: 84 12        	sty	$12                     ; 0x2012 <f256main+0x16fe>
    6c28: 66 12        	ror	$12                     ; 0x2012 <f256main+0x16fe>
    6c2a: a4 16        	ldy	$16                     ; 0x2016 <f256main+0x1702>
    6c2c: 84 13        	sty	$13                     ; 0x2013 <f256main+0x16ff>
    6c2e: 66 13        	ror	$13                     ; 0x2013 <f256main+0x16ff>
    6c30: 4a           	lsr
    6c31: 66 12        	ror	$12                     ; 0x2012 <f256main+0x16fe>
    6c33: 66 13        	ror	$13                     ; 0x2013 <f256main+0x16ff>
    6c35: 4a           	lsr
    6c36: 66 12        	ror	$12                     ; 0x2012 <f256main+0x16fe>
    6c38: 66 13        	ror	$13                     ; 0x2013 <f256main+0x16ff>
    6c3a: 4a           	lsr
    6c3b: 85 14        	sta	$14                     ; 0x2014 <f256main+0x1700>
    6c3d: 66 12        	ror	$12                     ; 0x2012 <f256main+0x16fe>
    6c3f: 66 13        	ror	$13                     ; 0x2013 <f256main+0x16ff>
    6c41: a5 16        	lda	$16                     ; 0x2016 <f256main+0x1702>
    6c43: 05 13        	ora	$13                     ; 0x2013 <f256main+0x16ff>
    6c45: 85 16        	sta	$16                     ; 0x2016 <f256main+0x1702>
    6c47: a5 15        	lda	$15                     ; 0x2015 <f256main+0x1701>
    6c49: 05 12        	ora	$12                     ; 0x2012 <f256main+0x16fe>
    6c4b: 85 13        	sta	$13                     ; 0x2013 <f256main+0x16ff>
    6c4d: a5 17        	lda	$17                     ; 0x2017 <f256main+0x1703>
    6c4f: 05 14        	ora	$14                     ; 0x2014 <f256main+0x1700>
    6c51: 85 17        	sta	$17                     ; 0x2017 <f256main+0x1703>
    6c53: a5 16        	lda	$16                     ; 0x2016 <f256main+0x1702>
    6c55: 05 13        	ora	$13                     ; 0x2013 <f256main+0x16ff>
    6c57: 85 14        	sta	$14                     ; 0x2014 <f256main+0x1700>
    6c59: a5 13        	lda	$13                     ; 0x2013 <f256main+0x16ff>
    6c5b: 05 17        	ora	$17                     ; 0x2017 <f256main+0x1703>
    6c5d: 85 15        	sta	$15                     ; 0x2015 <f256main+0x1701>
    6c5f: a5 14        	lda	$14                     ; 0x2014 <f256main+0x1700>
    6c61: 05 17        	ora	$17                     ; 0x2017 <f256main+0x1703>
    6c63: 85 16        	sta	$16                     ; 0x2016 <f256main+0x1702>
    6c65: a5 17        	lda	$17                     ; 0x2017 <f256main+0x1703>
    6c67: 85 14        	sta	$14                     ; 0x2014 <f256main+0x1700>
    6c69: 46 14        	lsr	$14                     ; 0x2014 <f256main+0x1700>
    6c6b: a5 16        	lda	$16                     ; 0x2016 <f256main+0x1702>
    6c6d: 4a           	lsr
    6c6e: 29 55        	and	#$55
    6c70: 85 12        	sta	$12                     ; 0x2012 <f256main+0x16fe>
    6c72: a5 15        	lda	$15                     ; 0x2015 <f256main+0x1701>
    6c74: 4a           	lsr
    6c75: 29 55        	and	#$55
    6c77: 85 13        	sta	$13                     ; 0x2013 <f256main+0x16ff>
    6c79: a5 14        	lda	$14                     ; 0x2014 <f256main+0x1700>
    6c7b: 29 55        	and	#$55
    6c7d: 85 14        	sta	$14                     ; 0x2014 <f256main+0x1700>
    6c7f: 38           	sec
    6c80: a5 16        	lda	$16                     ; 0x2016 <f256main+0x1702>
    6c82: e5 12        	sbc	$12                     ; 0x2012 <f256main+0x16fe>
    6c84: 85 12        	sta	$12                     ; 0x2012 <f256main+0x16fe>
    6c86: a5 15        	lda	$15                     ; 0x2015 <f256main+0x1701>
    6c88: e5 13        	sbc	$13                     ; 0x2013 <f256main+0x16ff>
    6c8a: 85 13        	sta	$13                     ; 0x2013 <f256main+0x16ff>
    6c8c: a5 17        	lda	$17                     ; 0x2017 <f256main+0x1703>
    6c8e: e5 14        	sbc	$14                     ; 0x2014 <f256main+0x1700>
    6c90: 85 14        	sta	$14                     ; 0x2014 <f256main+0x1700>
    6c92: a9 00        	lda	#$0
    6c94: e9 00        	sbc	#$0
    6c96: 85 15        	sta	$15                     ; 0x2015 <f256main+0x1701>
    6c98: a5 12        	lda	$12                     ; 0x2012 <f256main+0x16fe>
    6c9a: 85 16        	sta	$16                     ; 0x2016 <f256main+0x1702>
    6c9c: 29 33        	and	#$33
    6c9e: 85 12        	sta	$12                     ; 0x2012 <f256main+0x16fe>
    6ca0: a5 13        	lda	$13                     ; 0x2013 <f256main+0x16ff>
    6ca2: 85 17        	sta	$17                     ; 0x2017 <f256main+0x1703>
    6ca4: 29 33        	and	#$33
    6ca6: 85 13        	sta	$13                     ; 0x2013 <f256main+0x16ff>
    6ca8: a5 14        	lda	$14                     ; 0x2014 <f256main+0x1700>
    6caa: 85 18        	sta	$18                     ; 0x2018 <f256main+0x1704>
    6cac: 29 33        	and	#$33
    6cae: 85 14        	sta	$14                     ; 0x2014 <f256main+0x1700>
    6cb0: a5 15        	lda	$15                     ; 0x2015 <f256main+0x1701>
    6cb2: 4a           	lsr
    6cb3: 85 19        	sta	$19                     ; 0x2019 <f256main+0x1705>
    6cb5: 46 18        	lsr	$18                     ; 0x2018 <f256main+0x1704>
    6cb7: 46 17        	lsr	$17                     ; 0x2017 <f256main+0x1703>
    6cb9: a5 16        	lda	$16                     ; 0x2016 <f256main+0x1702>
    6cbb: 4a           	lsr
    6cbc: 46 19        	lsr	$19                     ; 0x2019 <f256main+0x1705>
    6cbe: 46 18        	lsr	$18                     ; 0x2018 <f256main+0x1704>
    6cc0: a4 17        	ldy	$17                     ; 0x2017 <f256main+0x1703>
    6cc2: 84 16        	sty	$16                     ; 0x2016 <f256main+0x1702>
    6cc4: 46 16        	lsr	$16                     ; 0x2016 <f256main+0x1702>
    6cc6: 4a           	lsr
    6cc7: 29 33        	and	#$33
    6cc9: 85 1a        	sta	$1a                     ; 0x201a <f256main+0x1706>
    6ccb: a5 16        	lda	$16                     ; 0x2016 <f256main+0x1702>
    6ccd: 29 33        	and	#$33
    6ccf: 85 16        	sta	$16                     ; 0x2016 <f256main+0x1702>
    6cd1: a5 18        	lda	$18                     ; 0x2018 <f256main+0x1704>
    6cd3: 29 33        	and	#$33
    6cd5: 85 17        	sta	$17                     ; 0x2017 <f256main+0x1703>
    6cd7: a5 19        	lda	$19                     ; 0x2019 <f256main+0x1705>
    6cd9: 29 33        	and	#$33
    6cdb: 85 18        	sta	$18                     ; 0x2018 <f256main+0x1704>
    6cdd: a5 15        	lda	$15                     ; 0x2015 <f256main+0x1701>
    6cdf: 29 33        	and	#$33
    6ce1: 85 15        	sta	$15                     ; 0x2015 <f256main+0x1701>
    6ce3: 18           	clc
    6ce4: a5 1a        	lda	$1a                     ; 0x201a <f256main+0x1706>
    6ce6: 65 12        	adc	$12                     ; 0x2012 <f256main+0x16fe>
    6ce8: 85 12        	sta	$12                     ; 0x2012 <f256main+0x16fe>
    6cea: a5 16        	lda	$16                     ; 0x2016 <f256main+0x1702>
    6cec: 65 13        	adc	$13                     ; 0x2013 <f256main+0x16ff>
    6cee: 85 13        	sta	$13                     ; 0x2013 <f256main+0x16ff>
    6cf0: a5 17        	lda	$17                     ; 0x2017 <f256main+0x1703>
    6cf2: 65 14        	adc	$14                     ; 0x2014 <f256main+0x1700>
    6cf4: 85 14        	sta	$14                     ; 0x2014 <f256main+0x1700>
    6cf6: a5 18        	lda	$18                     ; 0x2018 <f256main+0x1704>
    6cf8: 65 15        	adc	$15                     ; 0x2015 <f256main+0x1701>
    6cfa: 85 15        	sta	$15                     ; 0x2015 <f256main+0x1701>
    6cfc: 4a           	lsr
    6cfd: 85 16        	sta	$16                     ; 0x2016 <f256main+0x1702>
    6cff: a5 14        	lda	$14                     ; 0x2014 <f256main+0x1700>
    6d01: 6a           	ror
    6d02: a4 13        	ldy	$13                     ; 0x2013 <f256main+0x16ff>
    6d04: 84 17        	sty	$17                     ; 0x2017 <f256main+0x1703>
    6d06: 66 17        	ror	$17                     ; 0x2017 <f256main+0x1703>
    6d08: a4 12        	ldy	$12                     ; 0x2012 <f256main+0x16fe>
    6d0a: 84 18        	sty	$18                     ; 0x2018 <f256main+0x1704>
    6d0c: 7a           	ply
    6d0d: 66 18        	ror	$18                     ; 0x2018 <f256main+0x1704>
    6d0f: 46 16        	lsr	$16                     ; 0x2016 <f256main+0x1702>
    6d11: 6a           	ror
    6d12: 66 17        	ror	$17                     ; 0x2017 <f256main+0x1703>
    6d14: 66 18        	ror	$18                     ; 0x2018 <f256main+0x1704>
    6d16: 46 16        	lsr	$16                     ; 0x2016 <f256main+0x1702>
    6d18: 6a           	ror
    6d19: 66 17        	ror	$17                     ; 0x2017 <f256main+0x1703>
    6d1b: 66 18        	ror	$18                     ; 0x2018 <f256main+0x1704>
    6d1d: 46 16        	lsr	$16                     ; 0x2016 <f256main+0x1702>
    6d1f: 6a           	ror
    6d20: 85 19        	sta	$19                     ; 0x2019 <f256main+0x1705>
    6d22: a5 17        	lda	$17                     ; 0x2017 <f256main+0x1703>
    6d24: 85 1a        	sta	$1a                     ; 0x201a <f256main+0x1706>
    6d26: 66 1a        	ror	$1a                     ; 0x201a <f256main+0x1706>
    6d28: a5 18        	lda	$18                     ; 0x2018 <f256main+0x1704>
    6d2a: 6a           	ror
    6d2b: 18           	clc
    6d2c: 65 12        	adc	$12                     ; 0x2012 <f256main+0x16fe>
    6d2e: 85 12        	sta	$12                     ; 0x2012 <f256main+0x16fe>
    6d30: a5 1a        	lda	$1a                     ; 0x201a <f256main+0x1706>
    6d32: 65 13        	adc	$13                     ; 0x2013 <f256main+0x16ff>
    6d34: 85 13        	sta	$13                     ; 0x2013 <f256main+0x16ff>
    6d36: a5 19        	lda	$19                     ; 0x2019 <f256main+0x1705>
    6d38: 65 14        	adc	$14                     ; 0x2014 <f256main+0x1700>
    6d3a: 85 14        	sta	$14                     ; 0x2014 <f256main+0x1700>
    6d3c: a5 16        	lda	$16                     ; 0x2016 <f256main+0x1702>
    6d3e: 65 15        	adc	$15                     ; 0x2015 <f256main+0x1701>
    6d40: 85 15        	sta	$15                     ; 0x2015 <f256main+0x1701>
    6d42: a5 12        	lda	$12                     ; 0x2012 <f256main+0x16fe>
    6d44: 29 0f        	and	#$f
    6d46: 85 12        	sta	$12                     ; 0x2012 <f256main+0x16fe>
    6d48: 85 18        	sta	$18                     ; 0x2018 <f256main+0x1704>
    6d4a: a5 13        	lda	$13                     ; 0x2013 <f256main+0x16ff>
    6d4c: 29 0f        	and	#$f
    6d4e: 85 13        	sta	$13                     ; 0x2013 <f256main+0x16ff>
    6d50: 85 17        	sta	$17                     ; 0x2017 <f256main+0x1703>
    6d52: a5 14        	lda	$14                     ; 0x2014 <f256main+0x1700>
    6d54: 29 0f        	and	#$f
    6d56: 85 14        	sta	$14                     ; 0x2014 <f256main+0x1700>
    6d58: 85 19        	sta	$19                     ; 0x2019 <f256main+0x1705>
    6d5a: a5 15        	lda	$15                     ; 0x2015 <f256main+0x1701>
    6d5c: 29 0f        	and	#$f
    6d5e: 85 16        	sta	$16                     ; 0x2016 <f256main+0x1702>
    6d60: 18           	clc
    6d61: a5 18        	lda	$18                     ; 0x2018 <f256main+0x1704>
    6d63: 69 00        	adc	#$0
    6d65: 85 15        	sta	$15                     ; 0x2015 <f256main+0x1701>
    6d67: 85 1a        	sta	$1a                     ; 0x201a <f256main+0x1706>
    6d69: a5 17        	lda	$17                     ; 0x2017 <f256main+0x1703>
    6d6b: 65 12        	adc	$12                     ; 0x2012 <f256main+0x16fe>
    6d6d: 85 12        	sta	$12                     ; 0x2012 <f256main+0x16fe>
    6d6f: 85 18        	sta	$18                     ; 0x2018 <f256main+0x1704>
    6d71: a5 19        	lda	$19                     ; 0x2019 <f256main+0x1705>
    6d73: 65 13        	adc	$13                     ; 0x2013 <f256main+0x16ff>
    6d75: 85 17        	sta	$17                     ; 0x2017 <f256main+0x1703>
    6d77: a5 16        	lda	$16                     ; 0x2016 <f256main+0x1702>
    6d79: 65 14        	adc	$14                     ; 0x2014 <f256main+0x1700>
    6d7b: 85 13        	sta	$13                     ; 0x2013 <f256main+0x16ff>
    6d7d: 18           	clc
    6d7e: a5 1a        	lda	$1a                     ; 0x201a <f256main+0x1706>
    6d80: 69 00        	adc	#$0
    6d82: a5 18        	lda	$18                     ; 0x2018 <f256main+0x1704>
    6d84: 69 00        	adc	#$0
    6d86: a5 17        	lda	$17                     ; 0x2017 <f256main+0x1703>
    6d88: 65 15        	adc	$15                     ; 0x2015 <f256main+0x1701>
    6d8a: a5 13        	lda	$13                     ; 0x2013 <f256main+0x16ff>
    6d8c: 65 12        	adc	$12                     ; 0x2012 <f256main+0x16fe>
    6d8e: 85 12        	sta	$12                     ; 0x2012 <f256main+0x16fe>
    6d90: a9 20        	lda	#$20
    6d92: 38           	sec
    6d93: e5 12        	sbc	$12                     ; 0x2012 <f256main+0x16fe>
    6d95: 85 12        	sta	$12                     ; 0x2012 <f256main+0x16fe>
    6d97: a9 00        	lda	#$0
    6d99: e9 00        	sbc	#$0
    6d9b: 85 93        	sta	$93                     ; 0x2093 <f256main+0x177f>
    6d9d: 64 13        	stz	$13                     ; 0x2013 <f256main+0x16ff>
    6d9f: a5 12        	lda	$12                     ; 0x2012 <f256main+0x16fe>
    6da1: 85 94        	sta	$94                     ; 0x2094 <f256main+0x1780>
    6da3: 18           	clc
    6da4: 69 f8        	adc	#$f8
    6da6: 85 14        	sta	$14                     ; 0x2014 <f256main+0x1700>
    6da8: 84 12        	sty	$12                     ; 0x2012 <f256main+0x16fe>
    6daa: a5 9a        	lda	$9a                     ; 0x209a <f256main+0x1786>
    6dac: 20 72 64     	jsr	$6472 <__ashlsi3>
    6daf: 85 9a        	sta	$9a                     ; 0x209a <f256main+0x1786>
    6db1: 86 97        	stx	$97                     ; 0x2097 <f256main+0x1783>
    6db3: a6 12        	ldx	$12                     ; 0x2012 <f256main+0x16fe>
    6db5: 86 9d        	stx	$9d                     ; 0x209d <f256main+0x1789>
    6db7: a9 09        	lda	#$9
    6db9: 38           	sec
    6dba: e5 94        	sbc	$94                     ; 0x2094 <f256main+0x1780>
    6dbc: 85 14        	sta	$14                     ; 0x2014 <f256main+0x1700>
    6dbe: a9 00        	lda	#$0
    6dc0: e5 93        	sbc	$93                     ; 0x2093 <f256main+0x177f>
    6dc2: 85 15        	sta	$15                     ; 0x2015 <f256main+0x1701>
    6dc4: a6 a1        	ldx	$a1                     ; 0x20a1 <f256main+0x178d>
    6dc6: 86 12        	stx	$12                     ; 0x2012 <f256main+0x16fe>
    6dc8: a4 9f        	ldy	$9f                     ; 0x209f <f256main+0x178b>
    6dca: 84 94        	sty	$94                     ; 0x2094 <f256main+0x1780>
    6dcc: a6 9e        	ldx	$9e                     ; 0x209e <f256main+0x178a>
    6dce: a4 8f        	ldy	$8f                     ; 0x208f <f256main+0x177b>
    6dd0: 84 16        	sty	$16                     ; 0x2016 <f256main+0x1702>
    6dd2: a5 91        	lda	$91                     ; 0x2091 <f256main+0x177d>
    6dd4: a4 92        	ldy	$92                     ; 0x2092 <f256main+0x177e>
    6dd6: d0 11        	bne	$6de9 <__divsf3+0x3e8>
    6dd8: c9 80        	cmp	#$80
    6dda: d0 1e        	bne	$6dfa <__divsf3+0x3f9>
    6ddc: 8a           	txa
    6ddd: f0 03        	beq	$6de2 <__divsf3+0x3e1>
    6ddf: 4c 65 75     	jmp	$7565 <__divsf3+0xb64>
    6de2: 86 9e        	stx	$9e                     ; 0x209e <f256main+0x178a>
    6de4: a6 94        	ldx	$94                     ; 0x2094 <f256main+0x1780>
    6de6: 4c 6b 75     	jmp	$756b <__divsf3+0xb6a>
    6de9: a4 92        	ldy	$92                     ; 0x2092 <f256main+0x177e>
    6deb: 86 9e        	stx	$9e                     ; 0x209e <f256main+0x178a>
    6ded: c0 00        	cpy	#$0
    6def: 90 0f        	bcc	$6e00 <__divsf3+0x3ff>
    6df1: a6 13        	ldx	$13                     ; 0x2013 <f256main+0x16ff>
    6df3: 86 a0        	stx	$a0                     ; 0x20a0 <f256main+0x178c>
    6df5: a0 00        	ldy	#$0
    6df7: 4c 06 70     	jmp	$7006 <__divsf3+0x605>
    6dfa: 86 9e        	stx	$9e                     ; 0x209e <f256main+0x178a>
    6dfc: c9 80        	cmp	#$80
    6dfe: b0 f1        	bcs	$6df1 <__divsf3+0x3f0>
    6e00: a6 15        	ldx	$15                     ; 0x2015 <f256main+0x1701>
    6e02: 86 9f        	stx	$9f                     ; 0x209f <f256main+0x178b>
    6e04: a6 14        	ldx	$14                     ; 0x2014 <f256main+0x1700>
    6e06: 86 a2        	stx	$a2                     ; 0x20a2 <f256main+0x178e>
    6e08: a6 12        	ldx	$12                     ; 0x2012 <f256main+0x16fe>
    6e0a: 86 a1        	stx	$a1                     ; 0x20a1 <f256main+0x178d>
    6e0c: a6 13        	ldx	$13                     ; 0x2013 <f256main+0x16ff>
    6e0e: 86 a0        	stx	$a0                     ; 0x20a0 <f256main+0x178c>
    6e10: a5 8f        	lda	$8f                     ; 0x208f <f256main+0x177b>
    6e12: 4a           	lsr
    6e13: 85 12        	sta	$12                     ; 0x2012 <f256main+0x16fe>
    6e15: a6 9e        	ldx	$9e                     ; 0x209e <f256main+0x178a>
    6e17: 8a           	txa
    6e18: 6a           	ror
    6e19: 85 13        	sta	$13                     ; 0x2013 <f256main+0x16ff>
    6e1b: a5 94        	lda	$94                     ; 0x2094 <f256main+0x1780>
    6e1d: 6a           	ror
    6e1e: 85 14        	sta	$14                     ; 0x2014 <f256main+0x1700>
    6e20: a5 94        	lda	$94                     ; 0x2094 <f256main+0x1780>
    6e22: 05 14        	ora	$14                     ; 0x2014 <f256main+0x1700>
    6e24: 85 15        	sta	$15                     ; 0x2015 <f256main+0x1701>
    6e26: 8a           	txa
    6e27: 05 13        	ora	$13                     ; 0x2013 <f256main+0x16ff>
    6e29: a8           	tay
    6e2a: a5 8f        	lda	$8f                     ; 0x208f <f256main+0x177b>
    6e2c: 05 12        	ora	$12                     ; 0x2012 <f256main+0x16fe>
    6e2e: 85 17        	sta	$17                     ; 0x2017 <f256main+0x1703>
    6e30: 4a           	lsr
    6e31: 84 12        	sty	$12                     ; 0x2012 <f256main+0x16fe>
    6e33: 66 12        	ror	$12                     ; 0x2012 <f256main+0x16fe>
    6e35: 48           	pha
    6e36: a5 15        	lda	$15                     ; 0x2015 <f256main+0x1701>
    6e38: 85 13        	sta	$13                     ; 0x2013 <f256main+0x16ff>
    6e3a: 68           	pla
    6e3b: 66 13        	ror	$13                     ; 0x2013 <f256main+0x16ff>
    6e3d: 4a           	lsr
    6e3e: 85 14        	sta	$14                     ; 0x2014 <f256main+0x1700>
    6e40: 66 12        	ror	$12                     ; 0x2012 <f256main+0x16fe>
    6e42: 66 13        	ror	$13                     ; 0x2013 <f256main+0x16ff>
    6e44: a5 15        	lda	$15                     ; 0x2015 <f256main+0x1701>
    6e46: 05 13        	ora	$13                     ; 0x2013 <f256main+0x16ff>
    6e48: 85 15        	sta	$15                     ; 0x2015 <f256main+0x1701>
    6e4a: 98           	tya
    6e4b: 05 12        	ora	$12                     ; 0x2012 <f256main+0x16fe>
    6e4d: a8           	tay
    6e4e: a5 17        	lda	$17                     ; 0x2017 <f256main+0x1703>
    6e50: 05 14        	ora	$14                     ; 0x2014 <f256main+0x1700>
    6e52: 85 17        	sta	$17                     ; 0x2017 <f256main+0x1703>
    6e54: 4a           	lsr
    6e55: 84 12        	sty	$12                     ; 0x2012 <f256main+0x16fe>
    6e57: 66 12        	ror	$12                     ; 0x2012 <f256main+0x16fe>
    6e59: 48           	pha
    6e5a: a5 15        	lda	$15                     ; 0x2015 <f256main+0x1701>
    6e5c: 85 13        	sta	$13                     ; 0x2013 <f256main+0x16ff>
    6e5e: 68           	pla
    6e5f: 66 13        	ror	$13                     ; 0x2013 <f256main+0x16ff>
    6e61: 4a           	lsr
    6e62: 66 12        	ror	$12                     ; 0x2012 <f256main+0x16fe>
    6e64: 66 13        	ror	$13                     ; 0x2013 <f256main+0x16ff>
    6e66: 4a           	lsr
    6e67: 66 12        	ror	$12                     ; 0x2012 <f256main+0x16fe>
    6e69: 66 13        	ror	$13                     ; 0x2013 <f256main+0x16ff>
    6e6b: 4a           	lsr
    6e6c: 85 14        	sta	$14                     ; 0x2014 <f256main+0x1700>
    6e6e: 66 12        	ror	$12                     ; 0x2012 <f256main+0x16fe>
    6e70: 66 13        	ror	$13                     ; 0x2013 <f256main+0x16ff>
    6e72: a5 15        	lda	$15                     ; 0x2015 <f256main+0x1701>
    6e74: 05 13        	ora	$13                     ; 0x2013 <f256main+0x16ff>
    6e76: 85 13        	sta	$13                     ; 0x2013 <f256main+0x16ff>
    6e78: 98           	tya
    6e79: 05 12        	ora	$12                     ; 0x2012 <f256main+0x16fe>
    6e7b: a8           	tay
    6e7c: a5 17        	lda	$17                     ; 0x2017 <f256main+0x1703>
    6e7e: 05 14        	ora	$14                     ; 0x2014 <f256main+0x1700>
    6e80: 85 14        	sta	$14                     ; 0x2014 <f256main+0x1700>
    6e82: 84 12        	sty	$12                     ; 0x2012 <f256main+0x16fe>
    6e84: a5 13        	lda	$13                     ; 0x2013 <f256main+0x16ff>
    6e86: 05 12        	ora	$12                     ; 0x2012 <f256main+0x16fe>
    6e88: 85 13        	sta	$13                     ; 0x2013 <f256main+0x16ff>
    6e8a: 98           	tya
    6e8b: 05 14        	ora	$14                     ; 0x2014 <f256main+0x1700>
    6e8d: a8           	tay
    6e8e: a5 13        	lda	$13                     ; 0x2013 <f256main+0x16ff>
    6e90: 05 14        	ora	$14                     ; 0x2014 <f256main+0x1700>
    6e92: 85 15        	sta	$15                     ; 0x2015 <f256main+0x1701>
    6e94: a5 14        	lda	$14                     ; 0x2014 <f256main+0x1700>
    6e96: 85 17        	sta	$17                     ; 0x2017 <f256main+0x1703>
    6e98: 46 14        	lsr	$14                     ; 0x2014 <f256main+0x1700>
    6e9a: a5 15        	lda	$15                     ; 0x2015 <f256main+0x1701>
    6e9c: 4a           	lsr
    6e9d: 29 55        	and	#$55
    6e9f: 85 12        	sta	$12                     ; 0x2012 <f256main+0x16fe>
    6ea1: 98           	tya
    6ea2: 4a           	lsr
    6ea3: 29 55        	and	#$55
    6ea5: 85 13        	sta	$13                     ; 0x2013 <f256main+0x16ff>
    6ea7: a5 14        	lda	$14                     ; 0x2014 <f256main+0x1700>
    6ea9: 29 55        	and	#$55
    6eab: 85 14        	sta	$14                     ; 0x2014 <f256main+0x1700>
    6ead: 38           	sec
    6eae: a5 15        	lda	$15                     ; 0x2015 <f256main+0x1701>
    6eb0: e5 12        	sbc	$12                     ; 0x2012 <f256main+0x16fe>
    6eb2: 85 12        	sta	$12                     ; 0x2012 <f256main+0x16fe>
    6eb4: 98           	tya
    6eb5: e5 13        	sbc	$13                     ; 0x2013 <f256main+0x16ff>
    6eb7: 85 13        	sta	$13                     ; 0x2013 <f256main+0x16ff>
    6eb9: a5 17        	lda	$17                     ; 0x2017 <f256main+0x1703>
    6ebb: e5 14        	sbc	$14                     ; 0x2014 <f256main+0x1700>
    6ebd: a8           	tay
    6ebe: a9 00        	lda	#$0
    6ec0: e9 00        	sbc	#$0
    6ec2: 85 15        	sta	$15                     ; 0x2015 <f256main+0x1701>
    6ec4: a5 12        	lda	$12                     ; 0x2012 <f256main+0x16fe>
    6ec6: 85 17        	sta	$17                     ; 0x2017 <f256main+0x1703>
    6ec8: 29 33        	and	#$33
    6eca: 85 12        	sta	$12                     ; 0x2012 <f256main+0x16fe>
    6ecc: a5 13        	lda	$13                     ; 0x2013 <f256main+0x16ff>
    6ece: 85 19        	sta	$19                     ; 0x2019 <f256main+0x1705>
    6ed0: 29 33        	and	#$33
    6ed2: 85 13        	sta	$13                     ; 0x2013 <f256main+0x16ff>
    6ed4: 98           	tya
    6ed5: 29 33        	and	#$33
    6ed7: 85 14        	sta	$14                     ; 0x2014 <f256main+0x1700>
    6ed9: a5 15        	lda	$15                     ; 0x2015 <f256main+0x1701>
    6edb: 4a           	lsr
    6edc: 85 1b        	sta	$1b                     ; 0x201b <f256main+0x1707>
    6ede: 98           	tya
    6edf: 4a           	lsr
    6ee0: 85 1a        	sta	$1a                     ; 0x201a <f256main+0x1706>
    6ee2: 46 19        	lsr	$19                     ; 0x2019 <f256main+0x1705>
    6ee4: a5 17        	lda	$17                     ; 0x2017 <f256main+0x1703>
    6ee6: 4a           	lsr
    6ee7: 46 1b        	lsr	$1b                     ; 0x201b <f256main+0x1707>
    6ee9: 46 1a        	lsr	$1a                     ; 0x201a <f256main+0x1706>
    6eeb: a4 19        	ldy	$19                     ; 0x2019 <f256main+0x1705>
    6eed: 84 17        	sty	$17                     ; 0x2017 <f256main+0x1703>
    6eef: 46 17        	lsr	$17                     ; 0x2017 <f256main+0x1703>
    6ef1: 4a           	lsr
    6ef2: 29 33        	and	#$33
    6ef4: 85 1c        	sta	$1c                     ; 0x201c <f256main+0x1708>
    6ef6: a5 17        	lda	$17                     ; 0x2017 <f256main+0x1703>
    6ef8: 29 33        	and	#$33
    6efa: a8           	tay
    6efb: a5 1a        	lda	$1a                     ; 0x201a <f256main+0x1706>
    6efd: 29 33        	and	#$33
    6eff: 85 17        	sta	$17                     ; 0x2017 <f256main+0x1703>
    6f01: a5 1b        	lda	$1b                     ; 0x201b <f256main+0x1707>
    6f03: 29 33        	and	#$33
    6f05: 85 19        	sta	$19                     ; 0x2019 <f256main+0x1705>
    6f07: a5 15        	lda	$15                     ; 0x2015 <f256main+0x1701>
    6f09: 29 33        	and	#$33
    6f0b: 85 15        	sta	$15                     ; 0x2015 <f256main+0x1701>
    6f0d: 18           	clc
    6f0e: a5 1c        	lda	$1c                     ; 0x201c <f256main+0x1708>
    6f10: 65 12        	adc	$12                     ; 0x2012 <f256main+0x16fe>
    6f12: 85 12        	sta	$12                     ; 0x2012 <f256main+0x16fe>
    6f14: 98           	tya
    6f15: 65 13        	adc	$13                     ; 0x2013 <f256main+0x16ff>
    6f17: 85 13        	sta	$13                     ; 0x2013 <f256main+0x16ff>
    6f19: a5 17        	lda	$17                     ; 0x2017 <f256main+0x1703>
    6f1b: 65 14        	adc	$14                     ; 0x2014 <f256main+0x1700>
    6f1d: 85 14        	sta	$14                     ; 0x2014 <f256main+0x1700>
    6f1f: a5 19        	lda	$19                     ; 0x2019 <f256main+0x1705>
    6f21: 65 15        	adc	$15                     ; 0x2015 <f256main+0x1701>
    6f23: 85 15        	sta	$15                     ; 0x2015 <f256main+0x1701>
    6f25: 4a           	lsr
    6f26: a8           	tay
    6f27: a5 14        	lda	$14                     ; 0x2014 <f256main+0x1700>
    6f29: 6a           	ror
    6f2a: 5a           	phy
    6f2b: a4 13        	ldy	$13                     ; 0x2013 <f256main+0x16ff>
    6f2d: 84 19        	sty	$19                     ; 0x2019 <f256main+0x1705>
    6f2f: 66 19        	ror	$19                     ; 0x2019 <f256main+0x1705>
    6f31: a4 12        	ldy	$12                     ; 0x2012 <f256main+0x16fe>
    6f33: 84 17        	sty	$17                     ; 0x2017 <f256main+0x1703>
    6f35: 66 17        	ror	$17                     ; 0x2017 <f256main+0x1703>
    6f37: a4 17        	ldy	$17                     ; 0x2017 <f256main+0x1703>
    6f39: 84 1a        	sty	$1a                     ; 0x201a <f256main+0x1706>
    6f3b: 7a           	ply
    6f3c: 84 17        	sty	$17                     ; 0x2017 <f256main+0x1703>
    6f3e: 46 17        	lsr	$17                     ; 0x2017 <f256main+0x1703>
    6f40: 6a           	ror
    6f41: 66 19        	ror	$19                     ; 0x2019 <f256main+0x1705>
    6f43: 66 1a        	ror	$1a                     ; 0x201a <f256main+0x1706>
    6f45: 46 17        	lsr	$17                     ; 0x2017 <f256main+0x1703>
    6f47: 6a           	ror
    6f48: 66 19        	ror	$19                     ; 0x2019 <f256main+0x1705>
    6f4a: 66 1a        	ror	$1a                     ; 0x201a <f256main+0x1706>
    6f4c: 46 17        	lsr	$17                     ; 0x2017 <f256main+0x1703>
    6f4e: 6a           	ror
    6f4f: 85 1b        	sta	$1b                     ; 0x201b <f256main+0x1707>
    6f51: a4 19        	ldy	$19                     ; 0x2019 <f256main+0x1705>
    6f53: 84 1c        	sty	$1c                     ; 0x201c <f256main+0x1708>
    6f55: 66 1c        	ror	$1c                     ; 0x201c <f256main+0x1708>
    6f57: a5 1a        	lda	$1a                     ; 0x201a <f256main+0x1706>
    6f59: 6a           	ror
    6f5a: 18           	clc
    6f5b: 65 12        	adc	$12                     ; 0x2012 <f256main+0x16fe>
    6f5d: a8           	tay
    6f5e: a5 1c        	lda	$1c                     ; 0x201c <f256main+0x1708>
    6f60: 65 13        	adc	$13                     ; 0x2013 <f256main+0x16ff>
    6f62: 85 13        	sta	$13                     ; 0x2013 <f256main+0x16ff>
    6f64: a5 1b        	lda	$1b                     ; 0x201b <f256main+0x1707>
    6f66: 65 14        	adc	$14                     ; 0x2014 <f256main+0x1700>
    6f68: 85 14        	sta	$14                     ; 0x2014 <f256main+0x1700>
    6f6a: a5 17        	lda	$17                     ; 0x2017 <f256main+0x1703>
    6f6c: 65 15        	adc	$15                     ; 0x2015 <f256main+0x1701>
    6f6e: 85 15        	sta	$15                     ; 0x2015 <f256main+0x1701>
    6f70: 98           	tya
    6f71: 29 0f        	and	#$f
    6f73: 85 12        	sta	$12                     ; 0x2012 <f256main+0x16fe>
    6f75: a8           	tay
    6f76: a5 13        	lda	$13                     ; 0x2013 <f256main+0x16ff>
    6f78: 29 0f        	and	#$f
    6f7a: 85 13        	sta	$13                     ; 0x2013 <f256main+0x16ff>
    6f7c: 85 1a        	sta	$1a                     ; 0x201a <f256main+0x1706>
    6f7e: a5 14        	lda	$14                     ; 0x2014 <f256main+0x1700>
    6f80: 29 0f        	and	#$f
    6f82: 85 14        	sta	$14                     ; 0x2014 <f256main+0x1700>
    6f84: 85 19        	sta	$19                     ; 0x2019 <f256main+0x1705>
    6f86: a5 15        	lda	$15                     ; 0x2015 <f256main+0x1701>
    6f88: 29 0f        	and	#$f
    6f8a: 85 17        	sta	$17                     ; 0x2017 <f256main+0x1703>
    6f8c: 18           	clc
    6f8d: 98           	tya
    6f8e: 69 00        	adc	#$0
    6f90: 85 15        	sta	$15                     ; 0x2015 <f256main+0x1701>
    6f92: 85 1b        	sta	$1b                     ; 0x201b <f256main+0x1707>
    6f94: a5 1a        	lda	$1a                     ; 0x201a <f256main+0x1706>
    6f96: 65 12        	adc	$12                     ; 0x2012 <f256main+0x16fe>
    6f98: 85 12        	sta	$12                     ; 0x2012 <f256main+0x16fe>
    6f9a: a5 19        	lda	$19                     ; 0x2019 <f256main+0x1705>
    6f9c: 65 13        	adc	$13                     ; 0x2013 <f256main+0x16ff>
    6f9e: 85 13        	sta	$13                     ; 0x2013 <f256main+0x16ff>
    6fa0: a5 17        	lda	$17                     ; 0x2017 <f256main+0x1703>
    6fa2: 65 14        	adc	$14                     ; 0x2014 <f256main+0x1700>
    6fa4: a8           	tay
    6fa5: 18           	clc
    6fa6: a5 1b        	lda	$1b                     ; 0x201b <f256main+0x1707>
    6fa8: 69 00        	adc	#$0
    6faa: a5 12        	lda	$12                     ; 0x2012 <f256main+0x16fe>
    6fac: 69 00        	adc	#$0
    6fae: a5 13        	lda	$13                     ; 0x2013 <f256main+0x16ff>
    6fb0: 65 15        	adc	$15                     ; 0x2015 <f256main+0x1701>
    6fb2: 98           	tya
    6fb3: 65 12        	adc	$12                     ; 0x2012 <f256main+0x16fe>
    6fb5: 85 12        	sta	$12                     ; 0x2012 <f256main+0x16fe>
    6fb7: a9 20        	lda	#$20
    6fb9: 38           	sec
    6fba: e5 12        	sbc	$12                     ; 0x2012 <f256main+0x16fe>
    6fbc: 85 8f        	sta	$8f                     ; 0x208f <f256main+0x177b>
    6fbe: a9 00        	lda	#$0
    6fc0: e9 00        	sbc	#$0
    6fc2: 85 90        	sta	$90                     ; 0x2090 <f256main+0x177c>
    6fc4: a5 8f        	lda	$8f                     ; 0x208f <f256main+0x177b>
    6fc6: 18           	clc
    6fc7: 69 f8        	adc	#$f8
    6fc9: a4 16        	ldy	$16                     ; 0x2016 <f256main+0x1702>
    6fcb: 84 12        	sty	$12                     ; 0x2012 <f256main+0x16fe>
    6fcd: 64 13        	stz	$13                     ; 0x2013 <f256main+0x16ff>
    6fcf: 85 14        	sta	$14                     ; 0x2014 <f256main+0x1700>
    6fd1: a5 94        	lda	$94                     ; 0x2094 <f256main+0x1780>
    6fd3: 20 72 64     	jsr	$6472 <__ashlsi3>
    6fd6: 85 94        	sta	$94                     ; 0x2094 <f256main+0x1780>
    6fd8: 86 9e        	stx	$9e                     ; 0x209e <f256main+0x178a>
    6fda: a6 12        	ldx	$12                     ; 0x2012 <f256main+0x16fe>
    6fdc: 86 16        	stx	$16                     ; 0x2016 <f256main+0x1702>
    6fde: a4 13        	ldy	$13                     ; 0x2013 <f256main+0x16ff>
    6fe0: a6 a2        	ldx	$a2                     ; 0x20a2 <f256main+0x178e>
    6fe2: 86 12        	stx	$12                     ; 0x2012 <f256main+0x16fe>
    6fe4: 18           	clc
    6fe5: a5 8f        	lda	$8f                     ; 0x208f <f256main+0x177b>
    6fe7: 65 12        	adc	$12                     ; 0x2012 <f256main+0x16fe>
    6fe9: 85 13        	sta	$13                     ; 0x2013 <f256main+0x16ff>
    6feb: a6 9f        	ldx	$9f                     ; 0x209f <f256main+0x178b>
    6fed: 86 12        	stx	$12                     ; 0x2012 <f256main+0x16fe>
    6fef: a5 90        	lda	$90                     ; 0x2090 <f256main+0x177c>
    6ff1: 65 12        	adc	$12                     ; 0x2012 <f256main+0x16fe>
    6ff3: 85 12        	sta	$12                     ; 0x2012 <f256main+0x16fe>
    6ff5: 18           	clc
    6ff6: a5 13        	lda	$13                     ; 0x2013 <f256main+0x16ff>
    6ff8: 69 f7        	adc	#$f7
    6ffa: 85 14        	sta	$14                     ; 0x2014 <f256main+0x1700>
    6ffc: a5 12        	lda	$12                     ; 0x2012 <f256main+0x16fe>
    6ffe: 69 ff        	adc	#$ff
    7000: 85 15        	sta	$15                     ; 0x2015 <f256main+0x1701>
    7002: a6 a1        	ldx	$a1                     ; 0x20a1 <f256main+0x178d>
    7004: 86 12        	stx	$12                     ; 0x2012 <f256main+0x16fe>
    7006: a5 16        	lda	$16                     ; 0x2016 <f256main+0x1702>
    7008: 09 80        	ora	#$80
    700a: 38           	sec
    700b: 85 90        	sta	$90                     ; 0x2090 <f256main+0x177c>
    700d: a5 9b        	lda	$9b                     ; 0x209b <f256main+0x1787>
    700f: e5 12        	sbc	$12                     ; 0x2012 <f256main+0x16fe>
    7011: aa           	tax
    7012: a9 00        	lda	#$0
    7014: e9 00        	sbc	#$0
    7016: 85 12        	sta	$12                     ; 0x2012 <f256main+0x16fe>
    7018: 18           	clc
    7019: 8a           	txa
    701a: 65 14        	adc	$14                     ; 0x2014 <f256main+0x1700>
    701c: aa           	tax
    701d: a5 12        	lda	$12                     ; 0x2012 <f256main+0x16fe>
    701f: 65 15        	adc	$15                     ; 0x2015 <f256main+0x1701>
    7021: 85 12        	sta	$12                     ; 0x2012 <f256main+0x16fe>
    7023: 18           	clc
    7024: 8a           	txa
    7025: 86 9b        	stx	$9b                     ; 0x209b <f256main+0x1787>
    7027: 69 7f        	adc	#$7f
    7029: 85 a4        	sta	$a4                     ; 0x20a4 <f256main+0x1790>
    702b: a5 12        	lda	$12                     ; 0x2012 <f256main+0x16fe>
    702d: a6 12        	ldx	$12                     ; 0x2012 <f256main+0x16fe>
    702f: 86 a8        	stx	$a8                     ; 0x20a8 <f256main+0x1794>
    7031: 69 00        	adc	#$0
    7033: 85 a3        	sta	$a3                     ; 0x20a3 <f256main+0x178f>
    7035: a5 94        	lda	$94                     ; 0x2094 <f256main+0x1780>
    7037: 85 9f        	sta	$9f                     ; 0x209f <f256main+0x178b>
    7039: 06 94        	asl	$94                     ; 0x2094 <f256main+0x1780>
    703b: a6 9e        	ldx	$9e                     ; 0x209e <f256main+0x178a>
    703d: 86 91        	stx	$91                     ; 0x2091 <f256main+0x177d>
    703f: 26 91        	rol	$91                     ; 0x2091 <f256main+0x177d>
    7041: a6 90        	ldx	$90                     ; 0x2090 <f256main+0x177c>
    7043: 86 a2        	stx	$a2                     ; 0x20a2 <f256main+0x178e>
    7045: 26 90        	rol	$90                     ; 0x2090 <f256main+0x177c>
    7047: 98           	tya
    7048: 84 a1        	sty	$a1                     ; 0x20a1 <f256main+0x178d>
    704a: 2a           	rol
    704b: 85 ac        	sta	$ac                     ; 0x20ac <f256main+0x1798>
    704d: 4a           	lsr
    704e: a6 90        	ldx	$90                     ; 0x2090 <f256main+0x177c>
    7050: 86 ab        	stx	$ab                     ; 0x20ab <f256main+0x1797>
    7052: 66 90        	ror	$90                     ; 0x2090 <f256main+0x177c>
    7054: a6 91        	ldx	$91                     ; 0x2091 <f256main+0x177d>
    7056: 86 aa        	stx	$aa                     ; 0x20aa <f256main+0x1796>
    7058: 66 91        	ror	$91                     ; 0x2091 <f256main+0x177d>
    705a: a6 94        	ldx	$94                     ; 0x2094 <f256main+0x1780>
    705c: 86 a9        	stx	$a9                     ; 0x20a9 <f256main+0x1795>
    705e: 66 94        	ror	$94                     ; 0x2094 <f256main+0x1780>
    7060: 64 95        	stz	$95                     ; 0x2095 <f256main+0x1781>
    7062: 66 95        	ror	$95                     ; 0x2095 <f256main+0x1781>
    7064: a9 33        	lda	#$33
    7066: 38           	sec
    7067: e5 95        	sbc	$95                     ; 0x2095 <f256main+0x1781>
    7069: 85 8f        	sta	$8f                     ; 0x208f <f256main+0x177b>
    706b: a9 f3        	lda	#$f3
    706d: e5 94        	sbc	$94                     ; 0x2094 <f256main+0x1780>
    706f: 85 96        	sta	$96                     ; 0x2096 <f256main+0x1782>
    7071: a9 04        	lda	#$4
    7073: e5 91        	sbc	$91                     ; 0x2091 <f256main+0x177d>
    7075: 85 98        	sta	$98                     ; 0x2098 <f256main+0x1784>
    7077: a9 75        	lda	#$75
    7079: e5 90        	sbc	$90                     ; 0x2090 <f256main+0x177c>
    707b: 85 99        	sta	$99                     ; 0x2099 <f256main+0x1785>
    707d: a6 9d        	ldx	$9d                     ; 0x209d <f256main+0x1789>
    707f: 8a           	txa
    7080: 09 80        	ora	#$80
    7082: 85 93        	sta	$93                     ; 0x2093 <f256main+0x177f>
    7084: 64 92        	stz	$92                     ; 0x2092 <f256main+0x177e>
    7086: a6 98        	ldx	$98                     ; 0x2098 <f256main+0x1784>
    7088: 86 12        	stx	$12                     ; 0x2012 <f256main+0x16fe>
    708a: a6 99        	ldx	$99                     ; 0x2099 <f256main+0x1785>
    708c: 86 13        	stx	$13                     ; 0x2013 <f256main+0x16ff>
    708e: 64 14        	stz	$14                     ; 0x2014 <f256main+0x1700>
    7090: 64 15        	stz	$15                     ; 0x2015 <f256main+0x1701>
    7092: 64 16        	stz	$16                     ; 0x2016 <f256main+0x1702>
    7094: 64 17        	stz	$17                     ; 0x2017 <f256main+0x1703>
    7096: a6 95        	ldx	$95                     ; 0x2095 <f256main+0x1781>
    7098: 86 18        	stx	$18                     ; 0x2018 <f256main+0x1704>
    709a: a6 94        	ldx	$94                     ; 0x2094 <f256main+0x1780>
    709c: 86 19        	stx	$19                     ; 0x2019 <f256main+0x1705>
    709e: a6 91        	ldx	$91                     ; 0x2091 <f256main+0x177d>
    70a0: 86 1a        	stx	$1a                     ; 0x201a <f256main+0x1706>
    70a2: a6 90        	ldx	$90                     ; 0x2090 <f256main+0x177c>
    70a4: 86 1b        	stx	$1b                     ; 0x201b <f256main+0x1707>
    70a6: 64 1c        	stz	$1c                     ; 0x201c <f256main+0x1708>
    70a8: 64 1d        	stz	$1d                     ; 0x201d <f256main+0x1709>
    70aa: 64 1e        	stz	$1e                     ; 0x201e <f256main+0x170a>
    70ac: 64 1f        	stz	$1f                     ; 0x201f <f256main+0x170b>
    70ae: a6 96        	ldx	$96                     ; 0x2096 <f256main+0x1782>
    70b0: a5 8f        	lda	$8f                     ; 0x208f <f256main+0x177b>
    70b2: 20 5d 65     	jsr	$655d <__muldi3>
    70b5: a9 00        	lda	#$0
    70b7: 38           	sec
    70b8: e5 14        	sbc	$14                     ; 0x2014 <f256main+0x1700>
    70ba: a8           	tay
    70bb: a9 00        	lda	#$0
    70bd: e5 15        	sbc	$15                     ; 0x2015 <f256main+0x1701>
    70bf: aa           	tax
    70c0: a9 00        	lda	#$0
    70c2: e5 16        	sbc	$16                     ; 0x2016 <f256main+0x1702>
    70c4: 85 12        	sta	$12                     ; 0x2012 <f256main+0x16fe>
    70c6: a9 00        	lda	#$0
    70c8: e5 17        	sbc	$17                     ; 0x2017 <f256main+0x1703>
    70ca: 85 13        	sta	$13                     ; 0x2013 <f256main+0x16ff>
    70cc: a5 8f        	lda	$8f                     ; 0x208f <f256main+0x177b>
    70ce: 85 18        	sta	$18                     ; 0x2018 <f256main+0x1704>
    70d0: a5 96        	lda	$96                     ; 0x2096 <f256main+0x1782>
    70d2: 85 19        	sta	$19                     ; 0x2019 <f256main+0x1705>
    70d4: a5 98        	lda	$98                     ; 0x2098 <f256main+0x1784>
    70d6: 85 1a        	sta	$1a                     ; 0x201a <f256main+0x1706>
    70d8: a5 99        	lda	$99                     ; 0x2099 <f256main+0x1785>
    70da: 85 1b        	sta	$1b                     ; 0x201b <f256main+0x1707>
    70dc: 64 14        	stz	$14                     ; 0x2014 <f256main+0x1700>
    70de: 64 15        	stz	$15                     ; 0x2015 <f256main+0x1701>
    70e0: 64 16        	stz	$16                     ; 0x2016 <f256main+0x1702>
    70e2: 64 17        	stz	$17                     ; 0x2017 <f256main+0x1703>
    70e4: 64 1c        	stz	$1c                     ; 0x201c <f256main+0x1708>
    70e6: 64 1d        	stz	$1d                     ; 0x201d <f256main+0x1709>
    70e8: 64 1e        	stz	$1e                     ; 0x201e <f256main+0x170a>
    70ea: 64 1f        	stz	$1f                     ; 0x201f <f256main+0x170b>
    70ec: 98           	tya
    70ed: 20 5d 65     	jsr	$655d <__muldi3>
    70f0: a6 14        	ldx	$14                     ; 0x2014 <f256main+0x1700>
    70f2: 86 96        	stx	$96                     ; 0x2096 <f256main+0x1782>
    70f4: a6 15        	ldx	$15                     ; 0x2015 <f256main+0x1701>
    70f6: 86 8f        	stx	$8f                     ; 0x208f <f256main+0x177b>
    70f8: a6 16        	ldx	$16                     ; 0x2016 <f256main+0x1702>
    70fa: 86 98        	stx	$98                     ; 0x2098 <f256main+0x1784>
    70fc: a6 17        	ldx	$17                     ; 0x2017 <f256main+0x1703>
    70fe: 86 99        	stx	$99                     ; 0x2099 <f256main+0x1785>
    7100: 06 13        	asl	$13                     ; 0x2013 <f256main+0x16ff>
    7102: 26 96        	rol	$96                     ; 0x2096 <f256main+0x1782>
    7104: 26 8f        	rol	$8f                     ; 0x208f <f256main+0x177b>
    7106: 26 98        	rol	$98                     ; 0x2098 <f256main+0x1784>
    7108: 26 99        	rol	$99                     ; 0x2099 <f256main+0x1785>
    710a: a6 98        	ldx	$98                     ; 0x2098 <f256main+0x1784>
    710c: 86 12        	stx	$12                     ; 0x2012 <f256main+0x16fe>
    710e: a6 99        	ldx	$99                     ; 0x2099 <f256main+0x1785>
    7110: 86 13        	stx	$13                     ; 0x2013 <f256main+0x16ff>
    7112: 64 14        	stz	$14                     ; 0x2014 <f256main+0x1700>
    7114: 64 15        	stz	$15                     ; 0x2015 <f256main+0x1701>
    7116: 64 16        	stz	$16                     ; 0x2016 <f256main+0x1702>
    7118: 64 17        	stz	$17                     ; 0x2017 <f256main+0x1703>
    711a: a6 95        	ldx	$95                     ; 0x2095 <f256main+0x1781>
    711c: 86 18        	stx	$18                     ; 0x2018 <f256main+0x1704>
    711e: a6 94        	ldx	$94                     ; 0x2094 <f256main+0x1780>
    7120: 86 19        	stx	$19                     ; 0x2019 <f256main+0x1705>
    7122: a6 91        	ldx	$91                     ; 0x2091 <f256main+0x177d>
    7124: 86 1a        	stx	$1a                     ; 0x201a <f256main+0x1706>
    7126: a6 90        	ldx	$90                     ; 0x2090 <f256main+0x177c>
    7128: 86 1b        	stx	$1b                     ; 0x201b <f256main+0x1707>
    712a: 64 1c        	stz	$1c                     ; 0x201c <f256main+0x1708>
    712c: 64 1d        	stz	$1d                     ; 0x201d <f256main+0x1709>
    712e: 64 1e        	stz	$1e                     ; 0x201e <f256main+0x170a>
    7130: 64 1f        	stz	$1f                     ; 0x201f <f256main+0x170b>
    7132: a6 8f        	ldx	$8f                     ; 0x208f <f256main+0x177b>
    7134: a5 96        	lda	$96                     ; 0x2096 <f256main+0x1782>
    7136: 20 5d 65     	jsr	$655d <__muldi3>
    7139: a9 00        	lda	#$0
    713b: 38           	sec
    713c: e5 14        	sbc	$14                     ; 0x2014 <f256main+0x1700>
    713e: 85 18        	sta	$18                     ; 0x2018 <f256main+0x1704>
    7140: a9 00        	lda	#$0
    7142: e5 15        	sbc	$15                     ; 0x2015 <f256main+0x1701>
    7144: 85 19        	sta	$19                     ; 0x2019 <f256main+0x1705>
    7146: a9 00        	lda	#$0
    7148: e5 16        	sbc	$16                     ; 0x2016 <f256main+0x1702>
    714a: 85 1a        	sta	$1a                     ; 0x201a <f256main+0x1706>
    714c: a9 00        	lda	#$0
    714e: e5 17        	sbc	$17                     ; 0x2017 <f256main+0x1703>
    7150: a6 98        	ldx	$98                     ; 0x2098 <f256main+0x1784>
    7152: 86 12        	stx	$12                     ; 0x2012 <f256main+0x16fe>
    7154: a6 99        	ldx	$99                     ; 0x2099 <f256main+0x1785>
    7156: 86 13        	stx	$13                     ; 0x2013 <f256main+0x16ff>
    7158: 64 14        	stz	$14                     ; 0x2014 <f256main+0x1700>
    715a: 64 15        	stz	$15                     ; 0x2015 <f256main+0x1701>
    715c: 64 16        	stz	$16                     ; 0x2016 <f256main+0x1702>
    715e: 64 17        	stz	$17                     ; 0x2017 <f256main+0x1703>
    7160: 85 1b        	sta	$1b                     ; 0x201b <f256main+0x1707>
    7162: 64 1c        	stz	$1c                     ; 0x201c <f256main+0x1708>
    7164: 64 1d        	stz	$1d                     ; 0x201d <f256main+0x1709>
    7166: 64 1e        	stz	$1e                     ; 0x201e <f256main+0x170a>
    7168: 64 1f        	stz	$1f                     ; 0x201f <f256main+0x170b>
    716a: a6 8f        	ldx	$8f                     ; 0x208f <f256main+0x177b>
    716c: a5 96        	lda	$96                     ; 0x2096 <f256main+0x1782>
    716e: 20 5d 65     	jsr	$655d <__muldi3>
    7171: a6 14        	ldx	$14                     ; 0x2014 <f256main+0x1700>
    7173: 86 96        	stx	$96                     ; 0x2096 <f256main+0x1782>
    7175: a6 15        	ldx	$15                     ; 0x2015 <f256main+0x1701>
    7177: 86 8f        	stx	$8f                     ; 0x208f <f256main+0x177b>
    7179: a6 16        	ldx	$16                     ; 0x2016 <f256main+0x1702>
    717b: 86 98        	stx	$98                     ; 0x2098 <f256main+0x1784>
    717d: a6 17        	ldx	$17                     ; 0x2017 <f256main+0x1703>
    717f: 86 99        	stx	$99                     ; 0x2099 <f256main+0x1785>
    7181: 06 13        	asl	$13                     ; 0x2013 <f256main+0x16ff>
    7183: 26 96        	rol	$96                     ; 0x2096 <f256main+0x1782>
    7185: 26 8f        	rol	$8f                     ; 0x208f <f256main+0x177b>
    7187: 26 98        	rol	$98                     ; 0x2098 <f256main+0x1784>
    7189: 26 99        	rol	$99                     ; 0x2099 <f256main+0x1785>
    718b: a6 98        	ldx	$98                     ; 0x2098 <f256main+0x1784>
    718d: 86 12        	stx	$12                     ; 0x2012 <f256main+0x16fe>
    718f: a6 99        	ldx	$99                     ; 0x2099 <f256main+0x1785>
    7191: 86 13        	stx	$13                     ; 0x2013 <f256main+0x16ff>
    7193: 64 14        	stz	$14                     ; 0x2014 <f256main+0x1700>
    7195: 64 15        	stz	$15                     ; 0x2015 <f256main+0x1701>
    7197: 64 16        	stz	$16                     ; 0x2016 <f256main+0x1702>
    7199: 64 17        	stz	$17                     ; 0x2017 <f256main+0x1703>
    719b: a6 95        	ldx	$95                     ; 0x2095 <f256main+0x1781>
    719d: 86 18        	stx	$18                     ; 0x2018 <f256main+0x1704>
    719f: a6 94        	ldx	$94                     ; 0x2094 <f256main+0x1780>
    71a1: 86 19        	stx	$19                     ; 0x2019 <f256main+0x1705>
    71a3: a6 91        	ldx	$91                     ; 0x2091 <f256main+0x177d>
    71a5: 86 1a        	stx	$1a                     ; 0x201a <f256main+0x1706>
    71a7: a6 90        	ldx	$90                     ; 0x2090 <f256main+0x177c>
    71a9: 86 1b        	stx	$1b                     ; 0x201b <f256main+0x1707>
    71ab: 64 1c        	stz	$1c                     ; 0x201c <f256main+0x1708>
    71ad: 64 1d        	stz	$1d                     ; 0x201d <f256main+0x1709>
    71af: 64 1e        	stz	$1e                     ; 0x201e <f256main+0x170a>
    71b1: 64 1f        	stz	$1f                     ; 0x201f <f256main+0x170b>
    71b3: a6 8f        	ldx	$8f                     ; 0x208f <f256main+0x177b>
    71b5: a5 96        	lda	$96                     ; 0x2096 <f256main+0x1782>
    71b7: 20 5d 65     	jsr	$655d <__muldi3>
    71ba: a9 00        	lda	#$0
    71bc: 38           	sec
    71bd: e5 14        	sbc	$14                     ; 0x2014 <f256main+0x1700>
    71bf: 85 18        	sta	$18                     ; 0x2018 <f256main+0x1704>
    71c1: a9 00        	lda	#$0
    71c3: e5 15        	sbc	$15                     ; 0x2015 <f256main+0x1701>
    71c5: 85 19        	sta	$19                     ; 0x2019 <f256main+0x1705>
    71c7: a9 00        	lda	#$0
    71c9: e5 16        	sbc	$16                     ; 0x2016 <f256main+0x1702>
    71cb: 85 1a        	sta	$1a                     ; 0x201a <f256main+0x1706>
    71cd: a9 00        	lda	#$0
    71cf: e5 17        	sbc	$17                     ; 0x2017 <f256main+0x1703>
    71d1: a6 98        	ldx	$98                     ; 0x2098 <f256main+0x1784>
    71d3: 86 12        	stx	$12                     ; 0x2012 <f256main+0x16fe>
    71d5: a6 99        	ldx	$99                     ; 0x2099 <f256main+0x1785>
    71d7: 86 13        	stx	$13                     ; 0x2013 <f256main+0x16ff>
    71d9: 64 14        	stz	$14                     ; 0x2014 <f256main+0x1700>
    71db: 64 15        	stz	$15                     ; 0x2015 <f256main+0x1701>
    71dd: 64 16        	stz	$16                     ; 0x2016 <f256main+0x1702>
    71df: 64 17        	stz	$17                     ; 0x2017 <f256main+0x1703>
    71e1: 85 1b        	sta	$1b                     ; 0x201b <f256main+0x1707>
    71e3: 64 1c        	stz	$1c                     ; 0x201c <f256main+0x1708>
    71e5: 64 1d        	stz	$1d                     ; 0x201d <f256main+0x1709>
    71e7: 64 1e        	stz	$1e                     ; 0x201e <f256main+0x170a>
    71e9: 64 1f        	stz	$1f                     ; 0x201f <f256main+0x170b>
    71eb: a6 8f        	ldx	$8f                     ; 0x208f <f256main+0x177b>
    71ed: a5 96        	lda	$96                     ; 0x2096 <f256main+0x1782>
    71ef: 20 5d 65     	jsr	$655d <__muldi3>
    71f2: a5 14        	lda	$14                     ; 0x2014 <f256main+0x1700>
    71f4: 06 13        	asl	$13                     ; 0x2013 <f256main+0x16ff>
    71f6: 2a           	rol
    71f7: 26 15        	rol	$15                     ; 0x2015 <f256main+0x1701>
    71f9: 26 16        	rol	$16                     ; 0x2016 <f256main+0x1702>
    71fb: a6 17        	ldx	$17                     ; 0x2017 <f256main+0x1703>
    71fd: 86 12        	stx	$12                     ; 0x2012 <f256main+0x16fe>
    71ff: 26 12        	rol	$12                     ; 0x2012 <f256main+0x16fe>
    7201: 18           	clc
    7202: 69 f4        	adc	#$f4
    7204: a8           	tay
    7205: a5 15        	lda	$15                     ; 0x2015 <f256main+0x1701>
    7207: 69 ff        	adc	#$ff
    7209: 85 22        	sta	$22                     ; 0x2022 <f256main+0x170e>
    720b: a5 16        	lda	$16                     ; 0x2016 <f256main+0x1702>
    720d: 69 ff        	adc	#$ff
    720f: 85 14        	sta	$14                     ; 0x2014 <f256main+0x1700>
    7211: a5 12        	lda	$12                     ; 0x2012 <f256main+0x16fe>
    7213: 69 ff        	adc	#$ff
    7215: a6 9a        	ldx	$9a                     ; 0x209a <f256main+0x1786>
    7217: 86 18        	stx	$18                     ; 0x2018 <f256main+0x1704>
    7219: 06 18        	asl	$18                     ; 0x2018 <f256main+0x1704>
    721b: a6 97        	ldx	$97                     ; 0x2097 <f256main+0x1783>
    721d: 86 19        	stx	$19                     ; 0x2019 <f256main+0x1705>
    721f: 26 19        	rol	$19                     ; 0x2019 <f256main+0x1705>
    7221: a6 93        	ldx	$93                     ; 0x2093 <f256main+0x177f>
    7223: 86 91        	stx	$91                     ; 0x2091 <f256main+0x177d>
    7225: a6 93        	ldx	$93                     ; 0x2093 <f256main+0x177f>
    7227: 86 1a        	stx	$1a                     ; 0x201a <f256main+0x1706>
    7229: 26 1a        	rol	$1a                     ; 0x201a <f256main+0x1706>
    722b: a6 a0        	ldx	$a0                     ; 0x20a0 <f256main+0x178c>
    722d: 86 1b        	stx	$1b                     ; 0x201b <f256main+0x1707>
    722f: 26 1b        	rol	$1b                     ; 0x201b <f256main+0x1707>
    7231: a6 14        	ldx	$14                     ; 0x2014 <f256main+0x1700>
    7233: 86 12        	stx	$12                     ; 0x2012 <f256main+0x16fe>
    7235: 85 13        	sta	$13                     ; 0x2013 <f256main+0x16ff>
    7237: 64 14        	stz	$14                     ; 0x2014 <f256main+0x1700>
    7239: 64 15        	stz	$15                     ; 0x2015 <f256main+0x1701>
    723b: 64 16        	stz	$16                     ; 0x2016 <f256main+0x1702>
    723d: 64 17        	stz	$17                     ; 0x2017 <f256main+0x1703>
    723f: a6 18        	ldx	$18                     ; 0x2018 <f256main+0x1704>
    7241: 86 9d        	stx	$9d                     ; 0x209d <f256main+0x1789>
    7243: a6 19        	ldx	$19                     ; 0x2019 <f256main+0x1705>
    7245: 86 a5        	stx	$a5                     ; 0x20a5 <f256main+0x1791>
    7247: a6 1a        	ldx	$1a                     ; 0x201a <f256main+0x1706>
    7249: 86 a6        	stx	$a6                     ; 0x20a6 <f256main+0x1792>
    724b: a6 1b        	ldx	$1b                     ; 0x201b <f256main+0x1707>
    724d: 86 a7        	stx	$a7                     ; 0x20a7 <f256main+0x1793>
    724f: 64 1c        	stz	$1c                     ; 0x201c <f256main+0x1708>
    7251: 64 1d        	stz	$1d                     ; 0x201d <f256main+0x1709>
    7253: 64 1e        	stz	$1e                     ; 0x201e <f256main+0x170a>
    7255: 64 1f        	stz	$1f                     ; 0x201f <f256main+0x170b>
    7257: a6 22        	ldx	$22                     ; 0x2022 <f256main+0x170e>
    7259: 98           	tya
    725a: 20 5d 65     	jsr	$655d <__muldi3>
    725d: a6 14        	ldx	$14                     ; 0x2014 <f256main+0x1700>
    725f: 86 96        	stx	$96                     ; 0x2096 <f256main+0x1782>
    7261: a6 15        	ldx	$15                     ; 0x2015 <f256main+0x1701>
    7263: 86 18        	stx	$18                     ; 0x2018 <f256main+0x1704>
    7265: a6 16        	ldx	$16                     ; 0x2016 <f256main+0x1702>
    7267: a4 17        	ldy	$17                     ; 0x2017 <f256main+0x1703>
    7269: a5 97        	lda	$97                     ; 0x2097 <f256main+0x1783>
    726b: 4a           	lsr
    726c: a5 9a        	lda	$9a                     ; 0x209a <f256main+0x1786>
    726e: 6a           	ror
    726f: 64 94        	stz	$94                     ; 0x2094 <f256main+0x1780>
    7271: 66 94        	ror	$94                     ; 0x2094 <f256main+0x1780>
    7273: 64 95        	stz	$95                     ; 0x2095 <f256main+0x1781>
    7275: 66 95        	ror	$95                     ; 0x2095 <f256main+0x1781>
    7277: 66 92        	ror	$92                     ; 0x2092 <f256main+0x177e>
    7279: 86 12        	stx	$12                     ; 0x2012 <f256main+0x16fe>
    727b: 84 13        	sty	$13                     ; 0x2013 <f256main+0x16ff>
    727d: c0 01        	cpy	#$1
    727f: d0 18        	bne	$7299 <__divsf3+0x898>
    7281: e0 00        	cpx	#$0
    7283: d0 18        	bne	$729d <__divsf3+0x89c>
    7285: a6 9f        	ldx	$9f                     ; 0x209f <f256main+0x178b>
    7287: 86 14        	stx	$14                     ; 0x2014 <f256main+0x1700>
    7289: a6 a2        	ldx	$a2                     ; 0x20a2 <f256main+0x178e>
    728b: 86 16        	stx	$16                     ; 0x2016 <f256main+0x1702>
    728d: a6 18        	ldx	$18                     ; 0x2018 <f256main+0x1704>
    728f: f0 03        	beq	$7294 <__divsf3+0x893>
    7291: 4c 07 73     	jmp	$7307 <__divsf3+0x906>
    7294: a6 96        	ldx	$96                     ; 0x2096 <f256main+0x1782>
    7296: 4c 09 73     	jmp	$7309 <__divsf3+0x908>
    7299: c0 01        	cpy	#$1
    729b: 80 02        	bra	$729f <__divsf3+0x89e>
    729d: e0 00        	cpx	#$0
    729f: a6 9f        	ldx	$9f                     ; 0x209f <f256main+0x178b>
    72a1: 86 14        	stx	$14                     ; 0x2014 <f256main+0x1700>
    72a3: a6 9e        	ldx	$9e                     ; 0x209e <f256main+0x178a>
    72a5: 86 15        	stx	$15                     ; 0x2015 <f256main+0x1701>
    72a7: a6 a2        	ldx	$a2                     ; 0x20a2 <f256main+0x178e>
    72a9: 86 16        	stx	$16                     ; 0x2016 <f256main+0x1702>
    72ab: b0 03        	bcs	$72b0 <__divsf3+0x8af>
    72ad: 4c 14 73     	jmp	$7314 <__divsf3+0x913>
    72b0: 46 13        	lsr	$13                     ; 0x2013 <f256main+0x16ff>
    72b2: 66 12        	ror	$12                     ; 0x2012 <f256main+0x16fe>
    72b4: a6 18        	ldx	$18                     ; 0x2018 <f256main+0x1704>
    72b6: 86 90        	stx	$90                     ; 0x2090 <f256main+0x177c>
    72b8: 66 90        	ror	$90                     ; 0x2090 <f256main+0x177c>
    72ba: 66 96        	ror	$96                     ; 0x2096 <f256main+0x1782>
    72bc: a6 12        	ldx	$12                     ; 0x2012 <f256main+0x16fe>
    72be: 86 93        	stx	$93                     ; 0x2093 <f256main+0x177f>
    72c0: a6 13        	ldx	$13                     ; 0x2013 <f256main+0x16ff>
    72c2: 86 9b        	stx	$9b                     ; 0x209b <f256main+0x1787>
    72c4: a6 a1        	ldx	$a1                     ; 0x20a1 <f256main+0x178d>
    72c6: 86 17        	stx	$17                     ; 0x2017 <f256main+0x1703>
    72c8: a6 90        	ldx	$90                     ; 0x2090 <f256main+0x177c>
    72ca: 85 98        	sta	$98                     ; 0x2098 <f256main+0x1784>
    72cc: a5 96        	lda	$96                     ; 0x2096 <f256main+0x1782>
    72ce: 20 ed 64     	jsr	$64ed <__mulsi3>
    72d1: 85 14        	sta	$14                     ; 0x2014 <f256main+0x1700>
    72d3: 86 15        	stx	$15                     ; 0x2015 <f256main+0x1701>
    72d5: 38           	sec
    72d6: a5 92        	lda	$92                     ; 0x2092 <f256main+0x177e>
    72d8: e5 14        	sbc	$14                     ; 0x2014 <f256main+0x1700>
    72da: 85 14        	sta	$14                     ; 0x2014 <f256main+0x1700>
    72dc: a5 95        	lda	$95                     ; 0x2095 <f256main+0x1781>
    72de: e5 15        	sbc	$15                     ; 0x2015 <f256main+0x1701>
    72e0: 85 1d        	sta	$1d                     ; 0x201d <f256main+0x1709>
    72e2: a5 94        	lda	$94                     ; 0x2094 <f256main+0x1780>
    72e4: e5 12        	sbc	$12                     ; 0x2012 <f256main+0x16fe>
    72e6: 85 1c        	sta	$1c                     ; 0x201c <f256main+0x1708>
    72e8: a5 98        	lda	$98                     ; 0x2098 <f256main+0x1784>
    72ea: e5 13        	sbc	$13                     ; 0x2013 <f256main+0x16ff>
    72ec: 85 1b        	sta	$1b                     ; 0x201b <f256main+0x1707>
    72ee: a6 96        	ldx	$96                     ; 0x2096 <f256main+0x1782>
    72f0: 86 15        	stx	$15                     ; 0x2015 <f256main+0x1701>
    72f2: a6 90        	ldx	$90                     ; 0x2090 <f256main+0x177c>
    72f4: 86 16        	stx	$16                     ; 0x2016 <f256main+0x1702>
    72f6: a6 97        	ldx	$97                     ; 0x2097 <f256main+0x1783>
    72f8: 86 18        	stx	$18                     ; 0x2018 <f256main+0x1704>
    72fa: a6 a4        	ldx	$a4                     ; 0x20a4 <f256main+0x1790>
    72fc: 86 12        	stx	$12                     ; 0x2012 <f256main+0x16fe>
    72fe: a6 a0        	ldx	$a0                     ; 0x20a0 <f256main+0x178c>
    7300: 86 1a        	stx	$1a                     ; 0x201a <f256main+0x1706>
    7302: a5 a3        	lda	$a3                     ; 0x20a3 <f256main+0x178f>
    7304: 4c bd 73     	jmp	$73bd <__divsf3+0x9bc>
    7307: a6 15        	ldx	$15                     ; 0x2015 <f256main+0x1701>
    7309: e0 00        	cpx	#$0
    730b: a6 9e        	ldx	$9e                     ; 0x209e <f256main+0x178a>
    730d: 86 15        	stx	$15                     ; 0x2015 <f256main+0x1701>
    730f: 90 03        	bcc	$7314 <__divsf3+0x913>
    7311: 4c b0 72     	jmp	$72b0 <__divsf3+0x8af>
    7314: a6 a1        	ldx	$a1                     ; 0x20a1 <f256main+0x178d>
    7316: 86 17        	stx	$17                     ; 0x2017 <f256main+0x1703>
    7318: a6 13        	ldx	$13                     ; 0x2013 <f256main+0x16ff>
    731a: d0 11        	bne	$732d <__divsf3+0x92c>
    731c: a6 12        	ldx	$12                     ; 0x2012 <f256main+0x16fe>
    731e: e0 80        	cpx	#$80
    7320: d0 1f        	bne	$7341 <__divsf3+0x940>
    7322: a6 18        	ldx	$18                     ; 0x2018 <f256main+0x1704>
    7324: f0 03        	beq	$7329 <__divsf3+0x928>
    7326: 4c 29 75     	jmp	$7529 <__divsf3+0xb28>
    7329: a6 96        	ldx	$96                     ; 0x2096 <f256main+0x1782>
    732b: 80 02        	bra	$732f <__divsf3+0x92e>
    732d: a6 13        	ldx	$13                     ; 0x2013 <f256main+0x16ff>
    732f: e0 00        	cpx	#$0
    7331: 90 12        	bcc	$7345 <__divsf3+0x944>
    7333: a6 a3        	ldx	$a3                     ; 0x20a3 <f256main+0x178f>
    7335: 86 8f        	stx	$8f                     ; 0x208f <f256main+0x177b>
    7337: a6 a4        	ldx	$a4                     ; 0x20a4 <f256main+0x1790>
    7339: 86 90        	stx	$90                     ; 0x2090 <f256main+0x177c>
    733b: a6 18        	ldx	$18                     ; 0x2018 <f256main+0x1704>
    733d: 86 91        	stx	$91                     ; 0x2091 <f256main+0x177d>
    733f: 80 1f        	bra	$7360 <__divsf3+0x95f>
    7341: e0 80        	cpx	#$80
    7343: b0 ee        	bcs	$7333 <__divsf3+0x932>
    7345: aa           	tax
    7346: 06 96        	asl	$96                     ; 0x2096 <f256main+0x1782>
    7348: a4 18        	ldy	$18                     ; 0x2018 <f256main+0x1704>
    734a: 84 91        	sty	$91                     ; 0x2091 <f256main+0x177d>
    734c: 26 91        	rol	$91                     ; 0x2091 <f256main+0x177d>
    734e: 26 12        	rol	$12                     ; 0x2012 <f256main+0x16fe>
    7350: 26 13        	rol	$13                     ; 0x2013 <f256main+0x16ff>
    7352: a5 9b        	lda	$9b                     ; 0x209b <f256main+0x1787>
    7354: 18           	clc
    7355: 69 7e        	adc	#$7e
    7357: 85 90        	sta	$90                     ; 0x2090 <f256main+0x177c>
    7359: a5 a8        	lda	$a8                     ; 0x20a8 <f256main+0x1794>
    735b: 69 00        	adc	#$0
    735d: 85 8f        	sta	$8f                     ; 0x208f <f256main+0x177b>
    735f: 8a           	txa
    7360: 06 92        	asl	$92                     ; 0x2092 <f256main+0x177e>
    7362: 26 95        	rol	$95                     ; 0x2095 <f256main+0x1781>
    7364: 26 94        	rol	$94                     ; 0x2094 <f256main+0x1780>
    7366: 2a           	rol
    7367: a6 12        	ldx	$12                     ; 0x2012 <f256main+0x16fe>
    7369: 86 93        	stx	$93                     ; 0x2093 <f256main+0x177f>
    736b: a6 13        	ldx	$13                     ; 0x2013 <f256main+0x16ff>
    736d: 86 9b        	stx	$9b                     ; 0x209b <f256main+0x1787>
    736f: a6 91        	ldx	$91                     ; 0x2091 <f256main+0x177d>
    7371: 85 97        	sta	$97                     ; 0x2097 <f256main+0x1783>
    7373: a5 96        	lda	$96                     ; 0x2096 <f256main+0x1782>
    7375: 20 ed 64     	jsr	$64ed <__mulsi3>
    7378: 85 14        	sta	$14                     ; 0x2014 <f256main+0x1700>
    737a: 86 15        	stx	$15                     ; 0x2015 <f256main+0x1701>
    737c: 38           	sec
    737d: a5 92        	lda	$92                     ; 0x2092 <f256main+0x177e>
    737f: e5 14        	sbc	$14                     ; 0x2014 <f256main+0x1700>
    7381: 85 14        	sta	$14                     ; 0x2014 <f256main+0x1700>
    7383: a5 95        	lda	$95                     ; 0x2095 <f256main+0x1781>
    7385: e5 15        	sbc	$15                     ; 0x2015 <f256main+0x1701>
    7387: 85 1d        	sta	$1d                     ; 0x201d <f256main+0x1709>
    7389: a5 94        	lda	$94                     ; 0x2094 <f256main+0x1780>
    738b: e5 12        	sbc	$12                     ; 0x2012 <f256main+0x16fe>
    738d: 85 1c        	sta	$1c                     ; 0x201c <f256main+0x1708>
    738f: a5 97        	lda	$97                     ; 0x2097 <f256main+0x1783>
    7391: e5 13        	sbc	$13                     ; 0x2013 <f256main+0x16ff>
    7393: 85 1b        	sta	$1b                     ; 0x201b <f256main+0x1707>
    7395: a6 96        	ldx	$96                     ; 0x2096 <f256main+0x1782>
    7397: 86 15        	stx	$15                     ; 0x2015 <f256main+0x1701>
    7399: a6 91        	ldx	$91                     ; 0x2091 <f256main+0x177d>
    739b: 86 16        	stx	$16                     ; 0x2016 <f256main+0x1702>
    739d: a2 ff        	ldx	#$ff
    739f: c6 90        	dec	$90                     ; 0x2090 <f256main+0x177c>
    73a1: e4 90        	cpx	$90                     ; 0x2090 <f256main+0x177c>
    73a3: d0 02        	bne	$73a7 <__divsf3+0x9a6>
    73a5: c6 8f        	dec	$8f                     ; 0x208f <f256main+0x177b>
    73a7: a6 90        	ldx	$90                     ; 0x2090 <f256main+0x177c>
    73a9: 86 12        	stx	$12                     ; 0x2012 <f256main+0x16fe>
    73ab: a6 9d        	ldx	$9d                     ; 0x209d <f256main+0x1789>
    73ad: 86 9a        	stx	$9a                     ; 0x209a <f256main+0x1786>
    73af: a6 a5        	ldx	$a5                     ; 0x20a5 <f256main+0x1791>
    73b1: 86 18        	stx	$18                     ; 0x2018 <f256main+0x1704>
    73b3: a6 a6        	ldx	$a6                     ; 0x20a6 <f256main+0x1792>
    73b5: 86 91        	stx	$91                     ; 0x2091 <f256main+0x177d>
    73b7: a6 a7        	ldx	$a7                     ; 0x20a7 <f256main+0x1793>
    73b9: 86 1a        	stx	$1a                     ; 0x201a <f256main+0x1706>
    73bb: a5 8f        	lda	$8f                     ; 0x208f <f256main+0x177b>
    73bd: a6 12        	ldx	$12                     ; 0x2012 <f256main+0x16fe>
    73bf: e0 ff        	cpx	#$ff
    73c1: 85 13        	sta	$13                     ; 0x2013 <f256main+0x16ff>
    73c3: e9 00        	sbc	#$0
    73c5: 50 02        	bvc	$73c9 <__divsf3+0x9c8>
    73c7: 49 80        	eor	#$80
    73c9: a4 9f        	ldy	$9f                     ; 0x209f <f256main+0x178b>
    73cb: aa           	tax
    73cc: 30 0d        	bmi	$73db <__divsf3+0x9da>
    73ce: a5 9c        	lda	$9c                     ; 0x209c <f256main+0x1788>
    73d0: 09 7f        	ora	#$7f
    73d2: 64 9a        	stz	$9a                     ; 0x209a <f256main+0x1786>
    73d4: 64 97        	stz	$97                     ; 0x2097 <f256main+0x1783>
    73d6: a0 80        	ldy	#$80
    73d8: 4c 5c 75     	jmp	$755c <__divsf3+0xb5b>
    73db: a6 12        	ldx	$12                     ; 0x2012 <f256main+0x16fe>
    73dd: e0 01        	cpx	#$1
    73df: a5 13        	lda	$13                     ; 0x2013 <f256main+0x16ff>
    73e1: e9 00        	sbc	#$0
    73e3: 50 02        	bvc	$73e7 <__divsf3+0x9e6>
    73e5: 49 80        	eor	#$80
    73e7: a6 9e        	ldx	$9e                     ; 0x209e <f256main+0x178a>
    73e9: c9 00        	cmp	#$0
    73eb: 30 3e        	bmi	$742b <__divsf3+0xa2a>
    73ed: 86 18        	stx	$18                     ; 0x2018 <f256main+0x1704>
    73ef: a5 93        	lda	$93                     ; 0x2093 <f256main+0x177f>
    73f1: 29 7f        	and	#$7f
    73f3: 85 17        	sta	$17                     ; 0x2017 <f256main+0x1703>
    73f5: 46 13        	lsr	$13                     ; 0x2013 <f256main+0x16ff>
    73f7: 66 12        	ror	$12                     ; 0x2012 <f256main+0x16fe>
    73f9: a6 12        	ldx	$12                     ; 0x2012 <f256main+0x16fe>
    73fb: 86 8f        	stx	$8f                     ; 0x208f <f256main+0x177b>
    73fd: 64 19        	stz	$19                     ; 0x2019 <f256main+0x1705>
    73ff: 66 19        	ror	$19                     ; 0x2019 <f256main+0x1705>
    7401: 64 1a        	stz	$1a                     ; 0x201a <f256main+0x1706>
    7403: 66 1a        	ror	$1a                     ; 0x201a <f256main+0x1706>
    7405: a9 00        	lda	#$0
    7407: 6a           	ror
    7408: 06 14        	asl	$14                     ; 0x2014 <f256main+0x1700>
    740a: a6 1d        	ldx	$1d                     ; 0x201d <f256main+0x1709>
    740c: 86 12        	stx	$12                     ; 0x2012 <f256main+0x16fe>
    740e: 26 12        	rol	$12                     ; 0x2012 <f256main+0x16fe>
    7410: a6 1c        	ldx	$1c                     ; 0x201c <f256main+0x1708>
    7412: 86 13        	stx	$13                     ; 0x2013 <f256main+0x16ff>
    7414: 26 13        	rol	$13                     ; 0x2013 <f256main+0x16ff>
    7416: 26 1b        	rol	$1b                     ; 0x201b <f256main+0x1707>
    7418: 05 15        	ora	$15                     ; 0x2015 <f256main+0x1701>
    741a: 85 92        	sta	$92                     ; 0x2092 <f256main+0x177e>
    741c: a5 1a        	lda	$1a                     ; 0x201a <f256main+0x1706>
    741e: 05 16        	ora	$16                     ; 0x2016 <f256main+0x1702>
    7420: 85 90        	sta	$90                     ; 0x2090 <f256main+0x177c>
    7422: a5 19        	lda	$19                     ; 0x2019 <f256main+0x1705>
    7424: 05 17        	ora	$17                     ; 0x2017 <f256main+0x1703>
    7426: 85 9b        	sta	$9b                     ; 0x209b <f256main+0x1787>
    7428: 4c f0 74     	jmp	$74f0 <__divsf3+0xaef>
    742b: a6 12        	ldx	$12                     ; 0x2012 <f256main+0x16fe>
    742d: e0 e9        	cpx	#$e9
    742f: a5 13        	lda	$13                     ; 0x2013 <f256main+0x16ff>
    7431: e9 ff        	sbc	#$ff
    7433: 50 02        	bvc	$7437 <__divsf3+0xa36>
    7435: 49 80        	eor	#$80
    7437: aa           	tax
    7438: 10 0b        	bpl	$7445 <__divsf3+0xa44>
    743a: 64 9a        	stz	$9a                     ; 0x209a <f256main+0x1786>
    743c: 64 97        	stz	$97                     ; 0x2097 <f256main+0x1783>
    743e: a0 00        	ldy	#$0
    7440: a5 9c        	lda	$9c                     ; 0x209c <f256main+0x1788>
    7442: 4c 5c 75     	jmp	$755c <__divsf3+0xb5b>
    7445: 18           	clc
    7446: a5 12        	lda	$12                     ; 0x2012 <f256main+0x16fe>
    7448: 69 17        	adc	#$17
    744a: 85 92        	sta	$92                     ; 0x2092 <f256main+0x177e>
    744c: a9 01        	lda	#$1
    744e: 38           	sec
    744f: e5 12        	sbc	$12                     ; 0x2012 <f256main+0x16fe>
    7451: a6 93        	ldx	$93                     ; 0x2093 <f256main+0x177f>
    7453: 86 12        	stx	$12                     ; 0x2012 <f256main+0x16fe>
    7455: a6 9b        	ldx	$9b                     ; 0x209b <f256main+0x1787>
    7457: 86 13        	stx	$13                     ; 0x2013 <f256main+0x16ff>
    7459: 85 14        	sta	$14                     ; 0x2014 <f256main+0x1700>
    745b: a6 16        	ldx	$16                     ; 0x2016 <f256main+0x1702>
    745d: a4 18        	ldy	$18                     ; 0x2018 <f256main+0x1704>
    745f: 84 94        	sty	$94                     ; 0x2094 <f256main+0x1780>
    7461: a4 91        	ldy	$91                     ; 0x2091 <f256main+0x177d>
    7463: 84 96        	sty	$96                     ; 0x2096 <f256main+0x1782>
    7465: a4 1a        	ldy	$1a                     ; 0x201a <f256main+0x1706>
    7467: 84 95        	sty	$95                     ; 0x2095 <f256main+0x1781>
    7469: a5 15        	lda	$15                     ; 0x2015 <f256main+0x1701>
    746b: 20 89 64     	jsr	$6489 <__lshrsi3>
    746e: 85 90        	sta	$90                     ; 0x2090 <f256main+0x177c>
    7470: 86 8f        	stx	$8f                     ; 0x208f <f256main+0x177b>
    7472: a6 12        	ldx	$12                     ; 0x2012 <f256main+0x16fe>
    7474: 86 97        	stx	$97                     ; 0x2097 <f256main+0x1783>
    7476: a6 13        	ldx	$13                     ; 0x2013 <f256main+0x16ff>
    7478: 86 91        	stx	$91                     ; 0x2091 <f256main+0x177d>
    747a: a6 96        	ldx	$96                     ; 0x2096 <f256main+0x1782>
    747c: 86 12        	stx	$12                     ; 0x2012 <f256main+0x16fe>
    747e: a6 95        	ldx	$95                     ; 0x2095 <f256main+0x1781>
    7480: 86 13        	stx	$13                     ; 0x2013 <f256main+0x16ff>
    7482: a6 92        	ldx	$92                     ; 0x2092 <f256main+0x177e>
    7484: 86 14        	stx	$14                     ; 0x2014 <f256main+0x1700>
    7486: a6 94        	ldx	$94                     ; 0x2094 <f256main+0x1780>
    7488: a5 9a        	lda	$9a                     ; 0x209a <f256main+0x1786>
    748a: 20 72 64     	jsr	$6472 <__ashlsi3>
    748d: 85 95        	sta	$95                     ; 0x2095 <f256main+0x1781>
    748f: 86 94        	stx	$94                     ; 0x2094 <f256main+0x1780>
    7491: a6 12        	ldx	$12                     ; 0x2012 <f256main+0x16fe>
    7493: 86 93        	stx	$93                     ; 0x2093 <f256main+0x177f>
    7495: a6 13        	ldx	$13                     ; 0x2013 <f256main+0x16ff>
    7497: 86 96        	stx	$96                     ; 0x2096 <f256main+0x1782>
    7499: a6 ab        	ldx	$ab                     ; 0x20ab <f256main+0x1797>
    749b: 86 12        	stx	$12                     ; 0x2012 <f256main+0x16fe>
    749d: a6 ac        	ldx	$ac                     ; 0x20ac <f256main+0x1798>
    749f: 86 13        	stx	$13                     ; 0x2013 <f256main+0x16ff>
    74a1: a6 90        	ldx	$90                     ; 0x2090 <f256main+0x177c>
    74a3: 86 92        	stx	$92                     ; 0x2092 <f256main+0x177e>
    74a5: a6 90        	ldx	$90                     ; 0x2090 <f256main+0x177c>
    74a7: 86 14        	stx	$14                     ; 0x2014 <f256main+0x1700>
    74a9: a6 8f        	ldx	$8f                     ; 0x208f <f256main+0x177b>
    74ab: 86 90        	stx	$90                     ; 0x2090 <f256main+0x177c>
    74ad: a6 8f        	ldx	$8f                     ; 0x208f <f256main+0x177b>
    74af: 86 15        	stx	$15                     ; 0x2015 <f256main+0x1701>
    74b1: a6 97        	ldx	$97                     ; 0x2097 <f256main+0x1783>
    74b3: 86 9b        	stx	$9b                     ; 0x209b <f256main+0x1787>
    74b5: a6 97        	ldx	$97                     ; 0x2097 <f256main+0x1783>
    74b7: 86 16        	stx	$16                     ; 0x2016 <f256main+0x1702>
    74b9: a6 91        	ldx	$91                     ; 0x2091 <f256main+0x177d>
    74bb: 86 8f        	stx	$8f                     ; 0x208f <f256main+0x177b>
    74bd: a6 91        	ldx	$91                     ; 0x2091 <f256main+0x177d>
    74bf: 86 17        	stx	$17                     ; 0x2017 <f256main+0x1703>
    74c1: a6 aa        	ldx	$aa                     ; 0x20aa <f256main+0x1796>
    74c3: a5 a9        	lda	$a9                     ; 0x20a9 <f256main+0x1795>
    74c5: 20 ed 64     	jsr	$64ed <__mulsi3>
    74c8: a4 9f        	ldy	$9f                     ; 0x209f <f256main+0x178b>
    74ca: 85 14        	sta	$14                     ; 0x2014 <f256main+0x1700>
    74cc: 86 15        	stx	$15                     ; 0x2015 <f256main+0x1701>
    74ce: 38           	sec
    74cf: a5 95        	lda	$95                     ; 0x2095 <f256main+0x1781>
    74d1: e5 14        	sbc	$14                     ; 0x2014 <f256main+0x1700>
    74d3: 85 14        	sta	$14                     ; 0x2014 <f256main+0x1700>
    74d5: a5 94        	lda	$94                     ; 0x2094 <f256main+0x1780>
    74d7: e5 15        	sbc	$15                     ; 0x2015 <f256main+0x1701>
    74d9: aa           	tax
    74da: a5 93        	lda	$93                     ; 0x2093 <f256main+0x177f>
    74dc: e5 12        	sbc	$12                     ; 0x2012 <f256main+0x16fe>
    74de: 85 15        	sta	$15                     ; 0x2015 <f256main+0x1701>
    74e0: a5 96        	lda	$96                     ; 0x2096 <f256main+0x1782>
    74e2: e5 13        	sbc	$13                     ; 0x2013 <f256main+0x16ff>
    74e4: 85 1b        	sta	$1b                     ; 0x201b <f256main+0x1707>
    74e6: 86 12        	stx	$12                     ; 0x2012 <f256main+0x16fe>
    74e8: a6 15        	ldx	$15                     ; 0x2015 <f256main+0x1701>
    74ea: 86 13        	stx	$13                     ; 0x2013 <f256main+0x16ff>
    74ec: a6 9e        	ldx	$9e                     ; 0x209e <f256main+0x178a>
    74ee: 86 18        	stx	$18                     ; 0x2018 <f256main+0x1704>
    74f0: a5 92        	lda	$92                     ; 0x2092 <f256main+0x177e>
    74f2: 85 15        	sta	$15                     ; 0x2015 <f256main+0x1701>
    74f4: 29 01        	and	#$1
    74f6: 18           	clc
    74f7: 65 14        	adc	$14                     ; 0x2014 <f256main+0x1700>
    74f9: 85 16        	sta	$16                     ; 0x2016 <f256main+0x1702>
    74fb: 64 14        	stz	$14                     ; 0x2014 <f256main+0x1700>
    74fd: a9 00        	lda	#$0
    74ff: 65 12        	adc	$12                     ; 0x2012 <f256main+0x16fe>
    7501: 85 17        	sta	$17                     ; 0x2017 <f256main+0x1703>
    7503: a9 00        	lda	#$0
    7505: 65 13        	adc	$13                     ; 0x2013 <f256main+0x16ff>
    7507: 85 13        	sta	$13                     ; 0x2013 <f256main+0x16ff>
    7509: a5 1b        	lda	$1b                     ; 0x201b <f256main+0x1707>
    750b: 65 14        	adc	$14                     ; 0x2014 <f256main+0x1700>
    750d: 85 12        	sta	$12                     ; 0x2012 <f256main+0x16fe>
    750f: a6 a1        	ldx	$a1                     ; 0x20a1 <f256main+0x178d>
    7511: e4 12        	cpx	$12                     ; 0x2012 <f256main+0x16fe>
    7513: d0 1d        	bne	$7532 <__divsf3+0xb31>
    7515: a6 a2        	ldx	$a2                     ; 0x20a2 <f256main+0x178e>
    7517: e4 13        	cpx	$13                     ; 0x2013 <f256main+0x16ff>
    7519: d0 0a        	bne	$7525 <__divsf3+0xb24>
    751b: a6 18        	ldx	$18                     ; 0x2018 <f256main+0x1704>
    751d: e4 17        	cpx	$17                     ; 0x2017 <f256main+0x1703>
    751f: d0 0d        	bne	$752e <__divsf3+0xb2d>
    7521: c4 16        	cpy	$16                     ; 0x2016 <f256main+0x1702>
    7523: 80 0f        	bra	$7534 <__divsf3+0xb33>
    7525: a4 13        	ldy	$13                     ; 0x2013 <f256main+0x16ff>
    7527: 80 07        	bra	$7530 <__divsf3+0xb2f>
    7529: a6 18        	ldx	$18                     ; 0x2018 <f256main+0x1704>
    752b: 4c 2f 73     	jmp	$732f <__divsf3+0x92e>
    752e: a4 17        	ldy	$17                     ; 0x2017 <f256main+0x1703>
    7530: 84 12        	sty	$12                     ; 0x2012 <f256main+0x16fe>
    7532: e4 12        	cpx	$12                     ; 0x2012 <f256main+0x16fe>
    7534: 64 12        	stz	$12                     ; 0x2012 <f256main+0x16fe>
    7536: a5 9b        	lda	$9b                     ; 0x209b <f256main+0x1787>
    7538: 85 13        	sta	$13                     ; 0x2013 <f256main+0x16ff>
    753a: b0 04        	bcs	$7540 <__divsf3+0xb3f>
    753c: a2 01        	ldx	#$1
    753e: 86 12        	stx	$12                     ; 0x2012 <f256main+0x16fe>
    7540: a5 15        	lda	$15                     ; 0x2015 <f256main+0x1701>
    7542: 18           	clc
    7543: 65 12        	adc	$12                     ; 0x2012 <f256main+0x16fe>
    7545: 85 9a        	sta	$9a                     ; 0x209a <f256main+0x1786>
    7547: a5 90        	lda	$90                     ; 0x2090 <f256main+0x177c>
    7549: 69 00        	adc	#$0
    754b: 85 97        	sta	$97                     ; 0x2097 <f256main+0x1783>
    754d: a5 13        	lda	$13                     ; 0x2013 <f256main+0x16ff>
    754f: 69 00        	adc	#$0
    7551: a8           	tay
    7552: a5 8f        	lda	$8f                     ; 0x208f <f256main+0x177b>
    7554: 69 00        	adc	#$0
    7556: a6 9c        	ldx	$9c                     ; 0x209c <f256main+0x1788>
    7558: 86 12        	stx	$12                     ; 0x2012 <f256main+0x16fe>
    755a: 05 12        	ora	$12                     ; 0x2012 <f256main+0x16fe>
    755c: 84 12        	sty	$12                     ; 0x2012 <f256main+0x16fe>
    755e: 85 13        	sta	$13                     ; 0x2013 <f256main+0x16ff>
    7560: a6 97        	ldx	$97                     ; 0x2097 <f256main+0x1783>
    7562: a5 9a        	lda	$9a                     ; 0x209a <f256main+0x1786>
    7564: 60           	rts
    7565: 86 9e        	stx	$9e                     ; 0x209e <f256main+0x178a>
    7567: a4 8f        	ldy	$8f                     ; 0x208f <f256main+0x177b>
    7569: 84 16        	sty	$16                     ; 0x2016 <f256main+0x1702>
    756b: e0 00        	cpx	#$0
    756d: 90 03        	bcc	$7572 <__divsf3+0xb71>
    756f: 4c f1 6d     	jmp	$6df1 <__divsf3+0x3f0>
    7572: 4c 00 6e     	jmp	$6e00 <__divsf3+0x3ff>
    7575: a5 92        	lda	$92                     ; 0x2092 <f256main+0x177e>
    7577: f0 03        	beq	$757c <__divsf3+0xb7b>
    7579: 4c 3a 74     	jmp	$743a <__divsf3+0xa39>
    757c: a5 91        	lda	$91                     ; 0x2091 <f256main+0x177d>
    757e: f0 03        	beq	$7583 <__divsf3+0xb82>
    7580: 4c 3a 74     	jmp	$743a <__divsf3+0xa39>
    7583: 8a           	txa
    7584: f0 03        	beq	$7589 <__divsf3+0xb88>
    7586: 4c 3a 74     	jmp	$743a <__divsf3+0xa39>
    7589: a5 94        	lda	$94                     ; 0x2094 <f256main+0x1780>
    758b: d0 03        	bne	$7590 <__divsf3+0xb8f>
    758d: 4c 31 6b     	jmp	$6b31 <__divsf3+0x130>
    7590: 4c 3a 74     	jmp	$743a <__divsf3+0xa39>

00007593 <__fixunssfsi>:
    7593: 86 15        	stx	$15                     ; 0x2015 <f256main+0x1701>
    7595: a2 00        	ldx	#$0
    7597: 86 8f        	stx	$8f                     ; 0x208f <f256main+0x177b>
    7599: a4 13        	ldy	$13                     ; 0x2013 <f256main+0x16ff>
    759b: 30 26        	bmi	$75c3 <__fixunssfsi+0x30>
    759d: 85 16        	sta	$16                     ; 0x2016 <f256main+0x1702>
    759f: a5 12        	lda	$12                     ; 0x2012 <f256main+0x16fe>
    75a1: 0a           	asl
    75a2: 26 13        	rol	$13                     ; 0x2013 <f256main+0x16ff>
    75a4: a6 13        	ldx	$13                     ; 0x2013 <f256main+0x16ff>
    75a6: e0 7f        	cpx	#$7f
    75a8: a2 00        	ldx	#$0
    75aa: 8a           	txa
    75ab: a8           	tay
    75ac: b0 03        	bcs	$75b1 <__fixunssfsi+0x1e>
    75ae: 4c 08 76     	jmp	$7608 <__fixunssfsi+0x75>
    75b1: 18           	clc
    75b2: a5 13        	lda	$13                     ; 0x2013 <f256main+0x16ff>
    75b4: 69 61        	adc	#$61
    75b6: aa           	tax
    75b7: a9 00        	lda	#$0
    75b9: 69 ff        	adc	#$ff
    75bb: c9 ff        	cmp	#$ff
    75bd: d0 09        	bne	$75c8 <__fixunssfsi+0x35>
    75bf: e0 e0        	cpx	#$e0
    75c1: 80 07        	bra	$75ca <__fixunssfsi+0x37>
    75c3: a9 00        	lda	#$0
    75c5: a8           	tay
    75c6: 80 40        	bra	$7608 <__fixunssfsi+0x75>
    75c8: c9 ff        	cmp	#$ff
    75ca: a2 ff        	ldx	#$ff
    75cc: 86 8f        	stx	$8f                     ; 0x208f <f256main+0x177b>
    75ce: 8a           	txa
    75cf: a8           	tay
    75d0: 90 36        	bcc	$7608 <__fixunssfsi+0x75>
    75d2: a5 12        	lda	$12                     ; 0x2012 <f256main+0x16fe>
    75d4: 29 7f        	and	#$7f
    75d6: 09 80        	ora	#$80
    75d8: 85 12        	sta	$12                     ; 0x2012 <f256main+0x16fe>
    75da: a6 13        	ldx	$13                     ; 0x2013 <f256main+0x16ff>
    75dc: e0 96        	cpx	#$96
    75de: b0 12        	bcs	$75f2 <__fixunssfsi+0x5f>
    75e0: 38           	sec
    75e1: a9 96        	lda	#$96
    75e3: e5 13        	sbc	$13                     ; 0x2013 <f256main+0x16ff>
    75e5: 64 13        	stz	$13                     ; 0x2013 <f256main+0x16ff>
    75e7: 85 14        	sta	$14                     ; 0x2014 <f256main+0x1700>
    75e9: a6 15        	ldx	$15                     ; 0x2015 <f256main+0x1701>
    75eb: a5 16        	lda	$16                     ; 0x2016 <f256main+0x1702>
    75ed: 20 89 64     	jsr	$6489 <__lshrsi3>
    75f0: 80 10        	bra	$7602 <__fixunssfsi+0x6f>
    75f2: 18           	clc
    75f3: a5 13        	lda	$13                     ; 0x2013 <f256main+0x16ff>
    75f5: 69 6a        	adc	#$6a
    75f7: 64 13        	stz	$13                     ; 0x2013 <f256main+0x16ff>
    75f9: 85 14        	sta	$14                     ; 0x2014 <f256main+0x1700>
    75fb: a6 15        	ldx	$15                     ; 0x2015 <f256main+0x1701>
    75fd: a5 16        	lda	$16                     ; 0x2016 <f256main+0x1702>
    75ff: 20 72 64     	jsr	$6472 <__ashlsi3>
    7602: 85 8f        	sta	$8f                     ; 0x208f <f256main+0x177b>
    7604: a5 12        	lda	$12                     ; 0x2012 <f256main+0x16fe>
    7606: a4 13        	ldy	$13                     ; 0x2013 <f256main+0x16ff>
    7608: 85 12        	sta	$12                     ; 0x2012 <f256main+0x16fe>
    760a: 84 13        	sty	$13                     ; 0x2013 <f256main+0x16ff>
    760c: a5 8f        	lda	$8f                     ; 0x208f <f256main+0x177b>
    760e: 60           	rts

0000760f <__floatunsisf>:
    760f: 85 15        	sta	$15                     ; 0x2015 <f256main+0x1701>
    7611: 86 16        	stx	$16                     ; 0x2016 <f256main+0x1702>
    7613: a5 13        	lda	$13                     ; 0x2013 <f256main+0x16ff>
    7615: d0 0f        	bne	$7626 <__floatunsisf+0x17>
    7617: a5 12        	lda	$12                     ; 0x2012 <f256main+0x16fe>
    7619: d0 0b        	bne	$7626 <__floatunsisf+0x17>
    761b: a5 16        	lda	$16                     ; 0x2016 <f256main+0x1702>
    761d: d0 07        	bne	$7626 <__floatunsisf+0x17>
    761f: a5 15        	lda	$15                     ; 0x2015 <f256main+0x1701>
    7621: d0 03        	bne	$7626 <__floatunsisf+0x17>
    7623: 4c 58 79     	jmp	$7958 <__floatunsisf+0x349>
    7626: a5 13        	lda	$13                     ; 0x2013 <f256main+0x16ff>
    7628: 4a           	lsr
    7629: 85 18        	sta	$18                     ; 0x2018 <f256main+0x1704>
    762b: a5 12        	lda	$12                     ; 0x2012 <f256main+0x16fe>
    762d: 6a           	ror
    762e: 85 17        	sta	$17                     ; 0x2017 <f256main+0x1703>
    7630: 86 19        	stx	$19                     ; 0x2019 <f256main+0x1705>
    7632: 66 19        	ror	$19                     ; 0x2019 <f256main+0x1705>
    7634: a5 15        	lda	$15                     ; 0x2015 <f256main+0x1701>
    7636: 6a           	ror
    7637: 05 15        	ora	$15                     ; 0x2015 <f256main+0x1701>
    7639: a8           	tay
    763a: a5 19        	lda	$19                     ; 0x2019 <f256main+0x1705>
    763c: 05 16        	ora	$16                     ; 0x2016 <f256main+0x1702>
    763e: aa           	tax
    763f: a5 17        	lda	$17                     ; 0x2017 <f256main+0x1703>
    7641: 05 12        	ora	$12                     ; 0x2012 <f256main+0x16fe>
    7643: 85 1a        	sta	$1a                     ; 0x201a <f256main+0x1706>
    7645: a5 18        	lda	$18                     ; 0x2018 <f256main+0x1704>
    7647: 05 13        	ora	$13                     ; 0x2013 <f256main+0x16ff>
    7649: 85 1b        	sta	$1b                     ; 0x201b <f256main+0x1707>
    764b: 4a           	lsr
    764c: 5a           	phy
    764d: a4 1a        	ldy	$1a                     ; 0x201a <f256main+0x1706>
    764f: 84 14        	sty	$14                     ; 0x2014 <f256main+0x1700>
    7651: 7a           	ply
    7652: 66 14        	ror	$14                     ; 0x2014 <f256main+0x1700>
    7654: 86 17        	stx	$17                     ; 0x2017 <f256main+0x1703>
    7656: 66 17        	ror	$17                     ; 0x2017 <f256main+0x1703>
    7658: 84 18        	sty	$18                     ; 0x2018 <f256main+0x1704>
    765a: 66 18        	ror	$18                     ; 0x2018 <f256main+0x1704>
    765c: 4a           	lsr
    765d: 85 19        	sta	$19                     ; 0x2019 <f256main+0x1705>
    765f: 66 14        	ror	$14                     ; 0x2014 <f256main+0x1700>
    7661: 66 17        	ror	$17                     ; 0x2017 <f256main+0x1703>
    7663: 66 18        	ror	$18                     ; 0x2018 <f256main+0x1704>
    7665: 98           	tya
    7666: 05 18        	ora	$18                     ; 0x2018 <f256main+0x1704>
    7668: a8           	tay
    7669: 8a           	txa
    766a: 05 17        	ora	$17                     ; 0x2017 <f256main+0x1703>
    766c: aa           	tax
    766d: a5 1a        	lda	$1a                     ; 0x201a <f256main+0x1706>
    766f: 05 14        	ora	$14                     ; 0x2014 <f256main+0x1700>
    7671: 85 1a        	sta	$1a                     ; 0x201a <f256main+0x1706>
    7673: a5 1b        	lda	$1b                     ; 0x201b <f256main+0x1707>
    7675: 05 19        	ora	$19                     ; 0x2019 <f256main+0x1705>
    7677: 85 1b        	sta	$1b                     ; 0x201b <f256main+0x1707>
    7679: 4a           	lsr
    767a: 5a           	phy
    767b: a4 1a        	ldy	$1a                     ; 0x201a <f256main+0x1706>
    767d: 84 14        	sty	$14                     ; 0x2014 <f256main+0x1700>
    767f: 7a           	ply
    7680: 66 14        	ror	$14                     ; 0x2014 <f256main+0x1700>
    7682: 86 17        	stx	$17                     ; 0x2017 <f256main+0x1703>
    7684: 66 17        	ror	$17                     ; 0x2017 <f256main+0x1703>
    7686: 84 18        	sty	$18                     ; 0x2018 <f256main+0x1704>
    7688: 66 18        	ror	$18                     ; 0x2018 <f256main+0x1704>
    768a: 4a           	lsr
    768b: 66 14        	ror	$14                     ; 0x2014 <f256main+0x1700>
    768d: 66 17        	ror	$17                     ; 0x2017 <f256main+0x1703>
    768f: 66 18        	ror	$18                     ; 0x2018 <f256main+0x1704>
    7691: 4a           	lsr
    7692: 66 14        	ror	$14                     ; 0x2014 <f256main+0x1700>
    7694: 66 17        	ror	$17                     ; 0x2017 <f256main+0x1703>
    7696: 66 18        	ror	$18                     ; 0x2018 <f256main+0x1704>
    7698: 4a           	lsr
    7699: 85 19        	sta	$19                     ; 0x2019 <f256main+0x1705>
    769b: 66 14        	ror	$14                     ; 0x2014 <f256main+0x1700>
    769d: 66 17        	ror	$17                     ; 0x2017 <f256main+0x1703>
    769f: 66 18        	ror	$18                     ; 0x2018 <f256main+0x1704>
    76a1: 98           	tya
    76a2: 05 18        	ora	$18                     ; 0x2018 <f256main+0x1704>
    76a4: 85 18        	sta	$18                     ; 0x2018 <f256main+0x1704>
    76a6: 8a           	txa
    76a7: 05 17        	ora	$17                     ; 0x2017 <f256main+0x1703>
    76a9: aa           	tax
    76aa: a5 1a        	lda	$1a                     ; 0x201a <f256main+0x1706>
    76ac: 05 14        	ora	$14                     ; 0x2014 <f256main+0x1700>
    76ae: a8           	tay
    76af: a5 1b        	lda	$1b                     ; 0x201b <f256main+0x1707>
    76b1: 05 19        	ora	$19                     ; 0x2019 <f256main+0x1705>
    76b3: 85 17        	sta	$17                     ; 0x2017 <f256main+0x1703>
    76b5: 86 14        	stx	$14                     ; 0x2014 <f256main+0x1700>
    76b7: a5 18        	lda	$18                     ; 0x2018 <f256main+0x1704>
    76b9: 05 14        	ora	$14                     ; 0x2014 <f256main+0x1700>
    76bb: 85 19        	sta	$19                     ; 0x2019 <f256main+0x1705>
    76bd: 84 14        	sty	$14                     ; 0x2014 <f256main+0x1700>
    76bf: 8a           	txa
    76c0: 05 14        	ora	$14                     ; 0x2014 <f256main+0x1700>
    76c2: 85 18        	sta	$18                     ; 0x2018 <f256main+0x1704>
    76c4: a6 17        	ldx	$17                     ; 0x2017 <f256main+0x1703>
    76c6: 86 14        	stx	$14                     ; 0x2014 <f256main+0x1700>
    76c8: 86 1a        	stx	$1a                     ; 0x201a <f256main+0x1706>
    76ca: 98           	tya
    76cb: 05 14        	ora	$14                     ; 0x2014 <f256main+0x1700>
    76cd: 85 17        	sta	$17                     ; 0x2017 <f256main+0x1703>
    76cf: 85 1b        	sta	$1b                     ; 0x201b <f256main+0x1707>
    76d1: a5 19        	lda	$19                     ; 0x2019 <f256main+0x1705>
    76d3: 05 17        	ora	$17                     ; 0x2017 <f256main+0x1703>
    76d5: a8           	tay
    76d6: a5 18        	lda	$18                     ; 0x2018 <f256main+0x1704>
    76d8: 05 14        	ora	$14                     ; 0x2014 <f256main+0x1700>
    76da: aa           	tax
    76db: 98           	tya
    76dc: 4a           	lsr
    76dd: 29 55        	and	#$55
    76df: 85 14        	sta	$14                     ; 0x2014 <f256main+0x1700>
    76e1: 8a           	txa
    76e2: 4a           	lsr
    76e3: 29 55        	and	#$55
    76e5: 85 17        	sta	$17                     ; 0x2017 <f256main+0x1703>
    76e7: a5 1b        	lda	$1b                     ; 0x201b <f256main+0x1707>
    76e9: 4a           	lsr
    76ea: 29 55        	and	#$55
    76ec: 85 18        	sta	$18                     ; 0x2018 <f256main+0x1704>
    76ee: a5 1a        	lda	$1a                     ; 0x201a <f256main+0x1706>
    76f0: 4a           	lsr
    76f1: 29 55        	and	#$55
    76f3: 85 19        	sta	$19                     ; 0x2019 <f256main+0x1705>
    76f5: 38           	sec
    76f6: 98           	tya
    76f7: e5 14        	sbc	$14                     ; 0x2014 <f256main+0x1700>
    76f9: 85 14        	sta	$14                     ; 0x2014 <f256main+0x1700>
    76fb: 8a           	txa
    76fc: e5 17        	sbc	$17                     ; 0x2017 <f256main+0x1703>
    76fe: aa           	tax
    76ff: a5 1b        	lda	$1b                     ; 0x201b <f256main+0x1707>
    7701: e5 18        	sbc	$18                     ; 0x2018 <f256main+0x1704>
    7703: 85 18        	sta	$18                     ; 0x2018 <f256main+0x1704>
    7705: a5 1a        	lda	$1a                     ; 0x201a <f256main+0x1706>
    7707: e5 19        	sbc	$19                     ; 0x2019 <f256main+0x1705>
    7709: a8           	tay
    770a: a5 14        	lda	$14                     ; 0x2014 <f256main+0x1700>
    770c: 85 19        	sta	$19                     ; 0x2019 <f256main+0x1705>
    770e: 29 33        	and	#$33
    7710: 85 14        	sta	$14                     ; 0x2014 <f256main+0x1700>
    7712: 8a           	txa
    7713: 29 33        	and	#$33
    7715: 85 17        	sta	$17                     ; 0x2017 <f256main+0x1703>
    7717: a5 18        	lda	$18                     ; 0x2018 <f256main+0x1704>
    7719: 85 1a        	sta	$1a                     ; 0x201a <f256main+0x1706>
    771b: 29 33        	and	#$33
    771d: 85 18        	sta	$18                     ; 0x2018 <f256main+0x1704>
    771f: 98           	tya
    7720: 4a           	lsr
    7721: 85 1c        	sta	$1c                     ; 0x201c <f256main+0x1708>
    7723: a5 1a        	lda	$1a                     ; 0x201a <f256main+0x1706>
    7725: 4a           	lsr
    7726: 85 1b        	sta	$1b                     ; 0x201b <f256main+0x1707>
    7728: 8a           	txa
    7729: 4a           	lsr
    772a: 85 1a        	sta	$1a                     ; 0x201a <f256main+0x1706>
    772c: a5 19        	lda	$19                     ; 0x2019 <f256main+0x1705>
    772e: 4a           	lsr
    772f: 46 1c        	lsr	$1c                     ; 0x201c <f256main+0x1708>
    7731: 46 1b        	lsr	$1b                     ; 0x201b <f256main+0x1707>
    7733: a6 1a        	ldx	$1a                     ; 0x201a <f256main+0x1706>
    7735: 86 19        	stx	$19                     ; 0x2019 <f256main+0x1705>
    7737: 46 19        	lsr	$19                     ; 0x2019 <f256main+0x1705>
    7739: 4a           	lsr
    773a: 29 33        	and	#$33
    773c: 85 1d        	sta	$1d                     ; 0x201d <f256main+0x1709>
    773e: a5 19        	lda	$19                     ; 0x2019 <f256main+0x1705>
    7740: 29 33        	and	#$33
    7742: aa           	tax
    7743: a5 1b        	lda	$1b                     ; 0x201b <f256main+0x1707>
    7745: 29 33        	and	#$33
    7747: 85 1a        	sta	$1a                     ; 0x201a <f256main+0x1706>
    7749: a5 1c        	lda	$1c                     ; 0x201c <f256main+0x1708>
    774b: 29 33        	and	#$33
    774d: 85 1b        	sta	$1b                     ; 0x201b <f256main+0x1707>
    774f: 98           	tya
    7750: 29 33        	and	#$33
    7752: 85 19        	sta	$19                     ; 0x2019 <f256main+0x1705>
    7754: 18           	clc
    7755: a5 1d        	lda	$1d                     ; 0x201d <f256main+0x1709>
    7757: 65 14        	adc	$14                     ; 0x2014 <f256main+0x1700>
    7759: 85 14        	sta	$14                     ; 0x2014 <f256main+0x1700>
    775b: 8a           	txa
    775c: 65 17        	adc	$17                     ; 0x2017 <f256main+0x1703>
    775e: 85 17        	sta	$17                     ; 0x2017 <f256main+0x1703>
    7760: a5 1a        	lda	$1a                     ; 0x201a <f256main+0x1706>
    7762: 65 18        	adc	$18                     ; 0x2018 <f256main+0x1704>
    7764: 85 18        	sta	$18                     ; 0x2018 <f256main+0x1704>
    7766: a5 1b        	lda	$1b                     ; 0x201b <f256main+0x1707>
    7768: 65 19        	adc	$19                     ; 0x2019 <f256main+0x1705>
    776a: 85 19        	sta	$19                     ; 0x2019 <f256main+0x1705>
    776c: 4a           	lsr
    776d: aa           	tax
    776e: a5 18        	lda	$18                     ; 0x2018 <f256main+0x1704>
    7770: 6a           	ror
    7771: a4 17        	ldy	$17                     ; 0x2017 <f256main+0x1703>
    7773: 84 1b        	sty	$1b                     ; 0x201b <f256main+0x1707>
    7775: 66 1b        	ror	$1b                     ; 0x201b <f256main+0x1707>
    7777: a4 14        	ldy	$14                     ; 0x2014 <f256main+0x1700>
    7779: 84 1c        	sty	$1c                     ; 0x201c <f256main+0x1708>
    777b: 66 1c        	ror	$1c                     ; 0x201c <f256main+0x1708>
    777d: 86 1a        	stx	$1a                     ; 0x201a <f256main+0x1706>
    777f: 46 1a        	lsr	$1a                     ; 0x201a <f256main+0x1706>
    7781: 6a           	ror
    7782: 66 1b        	ror	$1b                     ; 0x201b <f256main+0x1707>
    7784: 66 1c        	ror	$1c                     ; 0x201c <f256main+0x1708>
    7786: 46 1a        	lsr	$1a                     ; 0x201a <f256main+0x1706>
    7788: 6a           	ror
    7789: 66 1b        	ror	$1b                     ; 0x201b <f256main+0x1707>
    778b: 66 1c        	ror	$1c                     ; 0x201c <f256main+0x1708>
    778d: 46 1a        	lsr	$1a                     ; 0x201a <f256main+0x1706>
    778f: 6a           	ror
    7790: 85 1d        	sta	$1d                     ; 0x201d <f256main+0x1709>
    7792: a6 1b        	ldx	$1b                     ; 0x201b <f256main+0x1707>
    7794: 86 1e        	stx	$1e                     ; 0x201e <f256main+0x170a>
    7796: 66 1e        	ror	$1e                     ; 0x201e <f256main+0x170a>
    7798: a5 1c        	lda	$1c                     ; 0x201c <f256main+0x1708>
    779a: 6a           	ror
    779b: 18           	clc
    779c: 65 14        	adc	$14                     ; 0x2014 <f256main+0x1700>
    779e: a8           	tay
    779f: a5 1e        	lda	$1e                     ; 0x201e <f256main+0x170a>
    77a1: 65 17        	adc	$17                     ; 0x2017 <f256main+0x1703>
    77a3: aa           	tax
    77a4: a5 1d        	lda	$1d                     ; 0x201d <f256main+0x1709>
    77a6: 65 18        	adc	$18                     ; 0x2018 <f256main+0x1704>
    77a8: 85 18        	sta	$18                     ; 0x2018 <f256main+0x1704>
    77aa: a5 1a        	lda	$1a                     ; 0x201a <f256main+0x1706>
    77ac: 65 19        	adc	$19                     ; 0x2019 <f256main+0x1705>
    77ae: 85 19        	sta	$19                     ; 0x2019 <f256main+0x1705>
    77b0: 98           	tya
    77b1: 29 0f        	and	#$f
    77b3: 85 14        	sta	$14                     ; 0x2014 <f256main+0x1700>
    77b5: 85 1a        	sta	$1a                     ; 0x201a <f256main+0x1706>
    77b7: 8a           	txa
    77b8: 29 0f        	and	#$f
    77ba: 85 17        	sta	$17                     ; 0x2017 <f256main+0x1703>
    77bc: a8           	tay
    77bd: a5 18        	lda	$18                     ; 0x2018 <f256main+0x1704>
    77bf: 29 0f        	and	#$f
    77c1: 85 18        	sta	$18                     ; 0x2018 <f256main+0x1704>
    77c3: aa           	tax
    77c4: a5 19        	lda	$19                     ; 0x2019 <f256main+0x1705>
    77c6: 29 0f        	and	#$f
    77c8: 85 19        	sta	$19                     ; 0x2019 <f256main+0x1705>
    77ca: 18           	clc
    77cb: a5 1a        	lda	$1a                     ; 0x201a <f256main+0x1706>
    77cd: 69 00        	adc	#$0
    77cf: 85 1b        	sta	$1b                     ; 0x201b <f256main+0x1707>
    77d1: 98           	tya
    77d2: 65 14        	adc	$14                     ; 0x2014 <f256main+0x1700>
    77d4: a8           	tay
    77d5: 8a           	txa
    77d6: 65 17        	adc	$17                     ; 0x2017 <f256main+0x1703>
    77d8: 85 1a        	sta	$1a                     ; 0x201a <f256main+0x1706>
    77da: a5 19        	lda	$19                     ; 0x2019 <f256main+0x1705>
    77dc: 65 18        	adc	$18                     ; 0x2018 <f256main+0x1704>
    77de: aa           	tax
    77df: a5 1b        	lda	$1b                     ; 0x201b <f256main+0x1707>
    77e1: 85 14        	sta	$14                     ; 0x2014 <f256main+0x1700>
    77e3: 18           	clc
    77e4: 69 00        	adc	#$0
    77e6: 98           	tya
    77e7: 84 17        	sty	$17                     ; 0x2017 <f256main+0x1703>
    77e9: 69 00        	adc	#$0
    77eb: a5 1a        	lda	$1a                     ; 0x201a <f256main+0x1706>
    77ed: 65 14        	adc	$14                     ; 0x2014 <f256main+0x1700>
    77ef: 8a           	txa
    77f0: 65 17        	adc	$17                     ; 0x2017 <f256main+0x1703>
    77f2: 85 14        	sta	$14                     ; 0x2014 <f256main+0x1700>
    77f4: a9 20        	lda	#$20
    77f6: 38           	sec
    77f7: e5 14        	sbc	$14                     ; 0x2014 <f256main+0x1700>
    77f9: 85 14        	sta	$14                     ; 0x2014 <f256main+0x1700>
    77fb: 85 19        	sta	$19                     ; 0x2019 <f256main+0x1705>
    77fd: a9 00        	lda	#$0
    77ff: e9 00        	sbc	#$0
    7801: 85 18        	sta	$18                     ; 0x2018 <f256main+0x1704>
    7803: 85 8f        	sta	$8f                     ; 0x208f <f256main+0x177b>
    7805: a6 19        	ldx	$19                     ; 0x2019 <f256main+0x1705>
    7807: 86 91        	stx	$91                     ; 0x2091 <f256main+0x177d>
    7809: a5 19        	lda	$19                     ; 0x2019 <f256main+0x1705>
    780b: 49 1f        	eor	#$1f
    780d: 85 17        	sta	$17                     ; 0x2017 <f256main+0x1703>
    780f: a6 8f        	ldx	$8f                     ; 0x208f <f256main+0x177b>
    7811: f0 03        	beq	$7816 <__floatunsisf+0x207>
    7813: 4c 8b 78     	jmp	$788b <__floatunsisf+0x27c>
    7816: c9 18        	cmp	#$18
    7818: b0 03        	bcs	$781d <__floatunsisf+0x20e>
    781a: 4c 94 78     	jmp	$7894 <__floatunsisf+0x285>
    781d: 38           	sec
    781e: a9 08        	lda	#$8
    7820: a6 14        	ldx	$14                     ; 0x2014 <f256main+0x1700>
    7822: 86 90        	stx	$90                     ; 0x2090 <f256main+0x177c>
    7824: e5 14        	sbc	$14                     ; 0x2014 <f256main+0x1700>
    7826: a6 12        	ldx	$12                     ; 0x2012 <f256main+0x16fe>
    7828: 86 96        	stx	$96                     ; 0x2096 <f256main+0x1782>
    782a: a6 13        	ldx	$13                     ; 0x2013 <f256main+0x16ff>
    782c: 86 98        	stx	$98                     ; 0x2098 <f256main+0x1784>
    782e: 85 14        	sta	$14                     ; 0x2014 <f256main+0x1700>
    7830: a6 16        	ldx	$16                     ; 0x2016 <f256main+0x1702>
    7832: a5 15        	lda	$15                     ; 0x2015 <f256main+0x1701>
    7834: a4 15        	ldy	$15                     ; 0x2015 <f256main+0x1701>
    7836: 84 97        	sty	$97                     ; 0x2097 <f256main+0x1783>
    7838: a4 16        	ldy	$16                     ; 0x2016 <f256main+0x1702>
    783a: 84 99        	sty	$99                     ; 0x2099 <f256main+0x1785>
    783c: 20 89 64     	jsr	$6489 <__lshrsi3>
    783f: 85 93        	sta	$93                     ; 0x2093 <f256main+0x177f>
    7841: 86 92        	stx	$92                     ; 0x2092 <f256main+0x177e>
    7843: a5 12        	lda	$12                     ; 0x2012 <f256main+0x16fe>
    7845: a6 13        	ldx	$13                     ; 0x2013 <f256main+0x16ff>
    7847: 86 95        	stx	$95                     ; 0x2095 <f256main+0x1781>
    7849: 49 80        	eor	#$80
    784b: 85 94        	sta	$94                     ; 0x2094 <f256main+0x1780>
    784d: a5 91        	lda	$91                     ; 0x2091 <f256main+0x177d>
    784f: 18           	clc
    7850: 69 18        	adc	#$18
    7852: a6 96        	ldx	$96                     ; 0x2096 <f256main+0x1782>
    7854: 86 12        	stx	$12                     ; 0x2012 <f256main+0x16fe>
    7856: a6 98        	ldx	$98                     ; 0x2098 <f256main+0x1784>
    7858: 86 13        	stx	$13                     ; 0x2013 <f256main+0x16ff>
    785a: 85 14        	sta	$14                     ; 0x2014 <f256main+0x1700>
    785c: a6 99        	ldx	$99                     ; 0x2099 <f256main+0x1785>
    785e: a5 97        	lda	$97                     ; 0x2097 <f256main+0x1783>
    7860: 20 72 64     	jsr	$6472 <__ashlsi3>
    7863: 85 15        	sta	$15                     ; 0x2015 <f256main+0x1701>
    7865: 86 16        	stx	$16                     ; 0x2016 <f256main+0x1702>
    7867: a6 12        	ldx	$12                     ; 0x2012 <f256main+0x16fe>
    7869: a4 13        	ldy	$13                     ; 0x2013 <f256main+0x16ff>
    786b: c0 80        	cpy	#$80
    786d: d0 4e        	bne	$78bd <__floatunsisf+0x2ae>
    786f: a5 8f        	lda	$8f                     ; 0x208f <f256main+0x177b>
    7871: 85 12        	sta	$12                     ; 0x2012 <f256main+0x16fe>
    7873: 8a           	txa
    7874: d0 4f        	bne	$78c5 <__floatunsisf+0x2b6>
    7876: a5 90        	lda	$90                     ; 0x2090 <f256main+0x177c>
    7878: 85 13        	sta	$13                     ; 0x2013 <f256main+0x16ff>
    787a: a5 93        	lda	$93                     ; 0x2093 <f256main+0x177f>
    787c: 85 14        	sta	$14                     ; 0x2014 <f256main+0x1700>
    787e: a5 16        	lda	$16                     ; 0x2016 <f256main+0x1702>
    7880: f0 03        	beq	$7885 <__floatunsisf+0x276>
    7882: 4c 51 79     	jmp	$7951 <__floatunsisf+0x342>
    7885: a5 15        	lda	$15                     ; 0x2015 <f256main+0x1701>
    7887: c9 01        	cmp	#$1
    7889: 80 44        	bra	$78cf <__floatunsisf+0x2c0>
    788b: a6 18        	ldx	$18                     ; 0x2018 <f256main+0x1704>
    788d: e0 00        	cpx	#$0
    788f: 90 03        	bcc	$7894 <__floatunsisf+0x285>
    7891: 4c 1d 78     	jmp	$781d <__floatunsisf+0x20e>
    7894: a6 14        	ldx	$14                     ; 0x2014 <f256main+0x1700>
    7896: 86 90        	stx	$90                     ; 0x2090 <f256main+0x177c>
    7898: 38           	sec
    7899: a9 17        	lda	#$17
    789b: e5 17        	sbc	$17                     ; 0x2017 <f256main+0x1703>
    789d: 85 14        	sta	$14                     ; 0x2014 <f256main+0x1700>
    789f: a6 16        	ldx	$16                     ; 0x2016 <f256main+0x1702>
    78a1: a5 15        	lda	$15                     ; 0x2015 <f256main+0x1701>
    78a3: 20 72 64     	jsr	$6472 <__ashlsi3>
    78a6: 85 14        	sta	$14                     ; 0x2014 <f256main+0x1700>
    78a8: 86 17        	stx	$17                     ; 0x2017 <f256main+0x1703>
    78aa: a5 12        	lda	$12                     ; 0x2012 <f256main+0x16fe>
    78ac: a6 13        	ldx	$13                     ; 0x2013 <f256main+0x16ff>
    78ae: 86 15        	stx	$15                     ; 0x2015 <f256main+0x1701>
    78b0: 49 80        	eor	#$80
    78b2: a6 8f        	ldx	$8f                     ; 0x208f <f256main+0x177b>
    78b4: 86 12        	stx	$12                     ; 0x2012 <f256main+0x16fe>
    78b6: a6 90        	ldx	$90                     ; 0x2090 <f256main+0x177c>
    78b8: 86 13        	stx	$13                     ; 0x2013 <f256main+0x16ff>
    78ba: 4c 20 79     	jmp	$7920 <__floatunsisf+0x311>
    78bd: c0 80        	cpy	#$80
    78bf: a5 8f        	lda	$8f                     ; 0x208f <f256main+0x177b>
    78c1: 85 12        	sta	$12                     ; 0x2012 <f256main+0x16fe>
    78c3: 80 02        	bra	$78c7 <__floatunsisf+0x2b8>
    78c5: e0 00        	cpx	#$0
    78c7: a5 90        	lda	$90                     ; 0x2090 <f256main+0x177c>
    78c9: 85 13        	sta	$13                     ; 0x2013 <f256main+0x16ff>
    78cb: a5 93        	lda	$93                     ; 0x2093 <f256main+0x177f>
    78cd: 85 14        	sta	$14                     ; 0x2014 <f256main+0x1700>
    78cf: a5 92        	lda	$92                     ; 0x2092 <f256main+0x177e>
    78d1: 85 17        	sta	$17                     ; 0x2017 <f256main+0x1703>
    78d3: b0 30        	bcs	$7905 <__floatunsisf+0x2f6>
    78d5: c0 80        	cpy	#$80
    78d7: d0 41        	bne	$791a <__floatunsisf+0x30b>
    78d9: 8a           	txa
    78da: d0 3e        	bne	$791a <__floatunsisf+0x30b>
    78dc: a5 16        	lda	$16                     ; 0x2016 <f256main+0x1702>
    78de: d0 3a        	bne	$791a <__floatunsisf+0x30b>
    78e0: a5 15        	lda	$15                     ; 0x2015 <f256main+0x1701>
    78e2: d0 36        	bne	$791a <__floatunsisf+0x30b>
    78e4: a5 14        	lda	$14                     ; 0x2014 <f256main+0x1700>
    78e6: 29 01        	and	#$1
    78e8: 18           	clc
    78e9: 65 14        	adc	$14                     ; 0x2014 <f256main+0x1700>
    78eb: a8           	tay
    78ec: a6 92        	ldx	$92                     ; 0x2092 <f256main+0x177e>
    78ee: 8a           	txa
    78ef: 69 00        	adc	#$0
    78f1: 85 17        	sta	$17                     ; 0x2017 <f256main+0x1703>
    78f3: a5 94        	lda	$94                     ; 0x2094 <f256main+0x1780>
    78f5: 69 00        	adc	#$0
    78f7: 85 16        	sta	$16                     ; 0x2016 <f256main+0x1702>
    78f9: a5 95        	lda	$95                     ; 0x2095 <f256main+0x1781>
    78fb: 69 00        	adc	#$0
    78fd: 85 15        	sta	$15                     ; 0x2015 <f256main+0x1701>
    78ff: a5 16        	lda	$16                     ; 0x2016 <f256main+0x1702>
    7901: 84 14        	sty	$14                     ; 0x2014 <f256main+0x1700>
    7903: 80 1b        	bra	$7920 <__floatunsisf+0x311>
    7905: a5 94        	lda	$94                     ; 0x2094 <f256main+0x1780>
    7907: a6 95        	ldx	$95                     ; 0x2095 <f256main+0x1781>
    7909: 86 15        	stx	$15                     ; 0x2015 <f256main+0x1701>
    790b: e6 14        	inc	$14                     ; 0x2014 <f256main+0x1700>
    790d: d0 09        	bne	$7918 <__floatunsisf+0x309>
    790f: e6 17        	inc	$17                     ; 0x2017 <f256main+0x1703>
    7911: d0 05        	bne	$7918 <__floatunsisf+0x309>
    7913: 1a           	inc
    7914: d0 02        	bne	$7918 <__floatunsisf+0x309>
    7916: e6 15        	inc	$15                     ; 0x2015 <f256main+0x1701>
    7918: 80 06        	bra	$7920 <__floatunsisf+0x311>
    791a: a5 94        	lda	$94                     ; 0x2094 <f256main+0x1780>
    791c: a6 95        	ldx	$95                     ; 0x2095 <f256main+0x1781>
    791e: 86 15        	stx	$15                     ; 0x2015 <f256main+0x1701>
    7920: 85 16        	sta	$16                     ; 0x2016 <f256main+0x1702>
    7922: 38           	sec
    7923: a9 9e        	lda	#$9e
    7925: e5 13        	sbc	$13                     ; 0x2013 <f256main+0x16ff>
    7927: 85 13        	sta	$13                     ; 0x2013 <f256main+0x16ff>
    7929: a9 00        	lda	#$0
    792b: e5 12        	sbc	$12                     ; 0x2012 <f256main+0x16fe>
    792d: 4a           	lsr
    792e: 66 13        	ror	$13                     ; 0x2013 <f256main+0x16ff>
    7930: 64 18        	stz	$18                     ; 0x2018 <f256main+0x1704>
    7932: 66 18        	ror	$18                     ; 0x2018 <f256main+0x1704>
    7934: a9 00        	lda	#$0
    7936: 6a           	ror
    7937: aa           	tax
    7938: a9 00        	lda	#$0
    793a: 6a           	ror
    793b: 18           	clc
    793c: 65 14        	adc	$14                     ; 0x2014 <f256main+0x1700>
    793e: a8           	tay
    793f: 8a           	txa
    7940: 65 17        	adc	$17                     ; 0x2017 <f256main+0x1703>
    7942: aa           	tax
    7943: a5 18        	lda	$18                     ; 0x2018 <f256main+0x1704>
    7945: 65 16        	adc	$16                     ; 0x2016 <f256main+0x1702>
    7947: 85 12        	sta	$12                     ; 0x2012 <f256main+0x16fe>
    7949: a5 13        	lda	$13                     ; 0x2013 <f256main+0x16ff>
    794b: 65 15        	adc	$15                     ; 0x2015 <f256main+0x1701>
    794d: 85 13        	sta	$13                     ; 0x2013 <f256main+0x16ff>
    794f: 98           	tya
    7950: 60           	rts
    7951: a5 16        	lda	$16                     ; 0x2016 <f256main+0x1702>
    7953: c9 00        	cmp	#$0
    7955: 4c cf 78     	jmp	$78cf <__floatunsisf+0x2c0>
    7958: a0 00        	ldy	#$0
    795a: a2 00        	ldx	#$0
    795c: 64 12        	stz	$12                     ; 0x2012 <f256main+0x16fe>
    795e: 64 13        	stz	$13                     ; 0x2013 <f256main+0x16ff>
    7960: 80 ed        	bra	$794f <__floatunsisf+0x340>
