
BachHero.elf:	file format elf32-mos

SYMBOL TABLE:
00000000 l    df *ABS*	00000000 zero-bss.c
00000000 l    df *ABS*	00000000 zero-zp-bss.c
00000000 l    df *ABS*	00000000 copy-zp-data.c
00000000 l    df *ABS*	00000000 ld-temp.o
00000357 l     F .text	0000034e f256Init
00000090 l     O .zp.bss	00000007 kernelEventData
00003018 l     O .rodata	00000030 textColors
000006a5 l     F .text	0000009a textClear
00000042 l     O .zp.bss	00000001 _MAX_X
00000040 l     O .zp.bss	00000001 _active
00000041 l     O .zp.bss	00000001 _color
00000034 l     O .zp.bss	0000000c _BITMAP_BASE
00003745 l     O .bss	00000003 _BITMAP_CLUT
00000043 l     O .zp.bss	00000001 _tileSize.0
00000044 l     O .zp.bss	00000001 _tileSize.1
00003748 l     O .bss	00000001 _tileSize.2
00000045 l     O .zp.bss	00000040 _spriteCtl
00003749 l     O .bss	00000001 kernelError
00000032 l     O .zp.bss	00000001 _col
00000033 l     O .zp.bss	00000001 _row
00000745 l     F .text	00001485 f256main
0000008a l     O .zp.bss	00000001 GUITimer.1
0000008b l     O .zp.bss	00000001 midiTimer.1
0000008c l     O .zp.bss	00000001 glassesTimer.1
00001bca l     F .text	00000438 bitmapLine
0000008d l     O .zp.bss	00000001 scrollTimer.1
000021e6 l     F .text	00000bd9 printf
00000087 l     O .zp.bss	00000001 score
00000089 l     O .zp.bss	00000001 midiPSG
0000008e l     O .zp.bss	00000002 songrefnote
00003048 l     O .rodata	00000080 MIDINotesToKeyCodes
00003143 l     O .rodata	0000007b KeyCodesToLoPSG
000031be l     O .rodata	0000007b KeyCodesToHiPSG
000032d9 l     O .rodata	00000052 songNotes
00003239 l     O .rodata	000000a0 NoteXPosition
00002dbf l     F .text	000001c2 putchar
00000088 l     O .zp.bss	00000001 reticX
00000030 l     O .zp.data	00000002 reticY
000030c8 l     O .rodata	0000007b KeyCodesToMIDINotes
0000332b l     O .rodata	00000200 SIN
00002007 l     F .text	000000d3 _ZN12_GLOBAL__N_13putEcP6Status
000020da l     F .text	0000010c _ZN12_GLOBAL__N_112print_stringEPKcP6Status
00000085 l     O .zp.bss	00000002 __putchar.s
0000073f g     F .text	00000006 main
00018000 g       .xab	00000000 xab_start
00048000 g       .tileset2	00000000 tileset2_start
00039640 g       .psgmap	00000000 psgmap_end
00040000 g       .tileset1	00000000 tileset1_start
00038400 g       .glasses2	00000000 glasses2_start
0004ff00 g       .tileset2	00000000 tileset2_end
00038f20 g       .psgmap	00000000 psgmap_start
00038400 g       .glasses1	00000000 glasses1_end
00010000 g       .xaa	00000000 xaa_start
00028000 g       .palbach	00000000 palbach_start
00028400 g       .palbach	00000000 palbach_end
00020000 g       .xac	00000000 xac_start
00018000 g       .xaa	00000000 xaa_end
00038800 g       .glasses2	00000000 glasses2_end
00028800 g       .ntespr	00000000 ntespr_start
00022c00 g       .xac	00000000 xac_end
00028400 g       .paltile	00000000 paltile_start
00020000 g       .xab	00000000 xab_end
00028800 g       .paltile	00000000 paltile_end
00038000 g       .glasses1	00000000 glasses1_start
00038800 g       .tilemap	00000000 tilemap_start
00048000 g       .tileset1	00000000 tileset1_end
00028840 g       .ntespr	00000000 ntespr_end
00038f20 g       .tilemap	00000000 tilemap_end
00000316 g       .text	00000000 __after_main
00000302 g       .text	00000000 __do_init_stack
00000310 g       .text	00000000 __do_copy_zp_data
00000340 g     F .text	00000017 __copy_zp_data
0000030a g       .text	00000000 __do_zero_bss
0000031a g     F .text	00000013 __zero_bss
0000030d g       .text	00000000 __do_zero_zp_bss
0000032d g     F .text	00000013 __zero_zp_bss
00002002 g     F .text	00000005 exit
00000319 g       .text	00000000 _fini
00002fcd g       .rodata	00000000 __set_v
00002fad  w    F .text	00000020 __memset
00001000  w      *ABS*	00000000 __heap_default_limit
0000374a g       .noinit	00000000 __heap_start
00002f81  w    F .text	0000002c memcpy
00000010 g       *ABS*	00000000 __rc0
00000012 g       *ABS*	00000000 __rc2
00000014 g       *ABS*	00000000 __rc4
00000016 g       *ABS*	00000000 __rc6
00000018 g       *ABS*	00000000 __rc8
0000001a g       *ABS*	00000000 __rc10
0000001c g       *ABS*	00000000 __rc12
0000001e g       *ABS*	00000000 __rc14
00000020 g       *ABS*	00000000 __rc16
00000022 g       *ABS*	00000000 __rc18
00000024 g       *ABS*	00000000 __rc20
00000026 g       *ABS*	00000000 __rc22
00000028 g       *ABS*	00000000 __rc24
0000002a g       *ABS*	00000000 __rc26
0000002c g       *ABS*	00000000 __rc28
0000002e g       *ABS*	00000000 __rc30
0000002f g       *ABS*	00000000 __rc31
00000300 g       *ABS*	00000000 __f256_start
0000c000 g       *ABS*	00000000 __stack
0000c000 g       *ABS*	00000000 __SLOT_ADDR
0800c000 g       *ABS*	00000000 __block8_lma
00002000 g       *ABS*	00000000 __BLOCK_SIZE
0900c000 g       *ABS*	00000000 __block9_lma
0a00c000 g       *ABS*	00000000 __block10_lma
0b00c000 g       *ABS*	00000000 __block11_lma
0c00c000 g       *ABS*	00000000 __block12_lma
0d00c000 g       *ABS*	00000000 __block13_lma
0e00c000 g       *ABS*	00000000 __block14_lma
0f00c000 g       *ABS*	00000000 __block15_lma
1000c000 g       *ABS*	00000000 __block16_lma
1100c000 g       *ABS*	00000000 __block17_lma
1200c000 g       *ABS*	00000000 __block18_lma
1300c000 g       *ABS*	00000000 __block19_lma
1400c000 g       *ABS*	00000000 __block20_lma
1500c000 g       *ABS*	00000000 __block21_lma
1600c000 g       *ABS*	00000000 __block22_lma
1700c000 g       *ABS*	00000000 __block23_lma
00010000 g       *ABS*	00000000 __xaa_lma
00008000 g       *ABS*	00000000 __xaa_size
00018000 g       *ABS*	00000000 __xab_lma
00008000 g       *ABS*	00000000 __xab_size
00020000 g       *ABS*	00000000 __xac_lma
00002c00 g       *ABS*	00000000 __xac_size
00028000 g       *ABS*	00000000 __palbach_lma
00000400 g       *ABS*	00000000 __palbach_size
00028400 g       *ABS*	00000000 __paltile_lma
00000400 g       *ABS*	00000000 __paltile_size
00028800 g       *ABS*	00000000 __ntespr_lma
00000040 g       *ABS*	00000000 __ntespr_size
00038000 g       *ABS*	00000000 __glasses1_lma
00000400 g       *ABS*	00000000 __glasses1_size
00038400 g       *ABS*	00000000 __glasses2_lma
00000400 g       *ABS*	00000000 __glasses2_size
00038800 g       *ABS*	00000000 __tilemap_lma
00000720 g       *ABS*	00000000 __tilemap_size
00038f20 g       *ABS*	00000000 __psgmap_lma
00000720 g       *ABS*	00000000 __psgmap_size
00040000 g       *ABS*	00000000 __tileset1_lma
00008000 g       *ABS*	00000000 __tileset1_size
00048000 g       *ABS*	00000000 __tileset2_lma
00007f00 g       *ABS*	00000000 __tileset2_size
00003745 g       .bss	00000000 __bss_start
00018000 g       .xaa	00000000 end_xaa
00020000 g       .xab	00000000 end_xab
00022c00 g       .xac	00000000 end_xac
00028400 g       .palbach	00000000 end_palbach
00028800 g       .paltile	00000000 end_paltile
00028840 g       .ntespr	00000000 end_ntespr
00038400 g       .glasses1	00000000 end_glasses1
00038800 g       .glasses2	00000000 end_glasses2
00038f20 g       .tilemap	00000000 end_tilemap
00039640 g       .psgmap	00000000 end_psgmap
00048000 g       .tileset1	00000000 end_tileset1
0004ff00 g       .tileset2	00000000 end_tileset2
00000302 g       .text	00000000 _start
0000002d g       *ABS*	00000000 __rc29
0000002b g       *ABS*	00000000 __rc27
00000029 g       *ABS*	00000000 __rc25
00000027 g       *ABS*	00000000 __rc23
00000025 g       *ABS*	00000000 __rc21
00000023 g       *ABS*	00000000 __rc19
00000021 g       *ABS*	00000000 __rc17
0000001f g       *ABS*	00000000 __rc15
0000001d g       *ABS*	00000000 __rc13
0000001b g       *ABS*	00000000 __rc11
00000019 g       *ABS*	00000000 __rc9
00000017 g       *ABS*	00000000 __rc7
00000015 g       *ABS*	00000000 __rc5
00000013 g       *ABS*	00000000 __rc3
00000011 g       *ABS*	00000000 __rc1
00000030 g       .zp.data	00000000 __zp_data_start
00000300 g       *ABS*	00000000 __zp_data_load_start
00000002 g       *ABS*	00000000 __zp_data_size
00000032 g       .zp.bss	00000000 __zp_bss_start
00000065 g       *ABS*	00000000 __zp_bss_size
00000302 g       .text	00000000 _init
00002fcd g       .text	00000000 __init_array_start
00002fcd g       .text	00000000 __init_array_end
00002fcd g       .text	00000000 __fini_array_start
00002fcd g       .text	00000000 __fini_array_end
00003745 g       .data	00000000 __data_start
00003745 g       .data	00000000 __data_end
00003745 g       *ABS*	00000000 __data_load_start
00000000 g       *ABS*	00000000 __data_size
0000374a g       .bss	00000000 __bss_end
00000005 g       *ABS*	00000000 __bss_size
0000374a g       .noinit	00000000 end_block8
0000374a g       .noinit	00000000 end_block9
0000374a g       .noinit	00000000 end_block10
0000374a g       .noinit	00000000 end_block11
0000374a g       .noinit	00000000 end_block12
0000374a g       .noinit	00000000 end_block13
0000374a g       .noinit	00000000 end_block14
0000374a g       .noinit	00000000 end_block15
0000374a g       .noinit	00000000 end_block16
0000374a g       .noinit	00000000 end_block17
0000374a g       .noinit	00000000 end_block18
0000374a g       .noinit	00000000 end_block19
0000374a g       .noinit	00000000 end_block20
0000374a g       .noinit	00000000 end_block21
0000374a g       .noinit	00000000 end_block22
0000374a g       .noinit	00000000 end_block23

Disassembly of section .text:

00000302 <_start>:
     302: a9 00        	lda	#$0
     304: 85 10        	sta	$10                     ; 0x2010 <_ZN12_GLOBAL__N_13putEcP6Status+0x9>
     306: a9 c0        	lda	#$c0
     308: 85 11        	sta	$11                     ; 0x2011 <_ZN12_GLOBAL__N_13putEcP6Status+0xa>

0000030a <__do_zero_bss>:
     30a: 20 1a 03     	jsr	$31a <__zero_bss>

0000030d <__do_zero_zp_bss>:
     30d: 20 2d 03     	jsr	$32d <__zero_zp_bss>

00000310 <__do_copy_zp_data>:
     310: 20 40 03     	jsr	$340 <__copy_zp_data>
     313: 20 3f 07     	jsr	$73f <main>

00000316 <__after_main>:
     316: 4c 02 20     	jmp	$2002 <exit>

00000319 <_fini>:
     319: 60           	rts

0000031a <__zero_bss>:
     31a: a2 05        	ldx	#$5
     31c: a0 00        	ldy	#$0
     31e: a9 45        	lda	#$45
     320: 85 12        	sta	$12                     ; 0x2012 <_ZN12_GLOBAL__N_13putEcP6Status+0xb>
     322: a9 37        	lda	#$37
     324: 85 13        	sta	$13                     ; 0x2013 <_ZN12_GLOBAL__N_13putEcP6Status+0xc>
     326: a9 00        	lda	#$0
     328: 84 14        	sty	$14                     ; 0x2014 <_ZN12_GLOBAL__N_13putEcP6Status+0xd>
     32a: 4c ad 2f     	jmp	$2fad <__memset>

0000032d <__zero_zp_bss>:
     32d: a2 65        	ldx	#$65
     32f: a0 00        	ldy	#$0
     331: a9 32        	lda	#$32
     333: 85 12        	sta	$12                     ; 0x2012 <_ZN12_GLOBAL__N_13putEcP6Status+0xb>
     335: a9 00        	lda	#$0
     337: 85 13        	sta	$13                     ; 0x2013 <_ZN12_GLOBAL__N_13putEcP6Status+0xc>
     339: a9 00        	lda	#$0
     33b: 84 14        	sty	$14                     ; 0x2014 <_ZN12_GLOBAL__N_13putEcP6Status+0xd>
     33d: 4c ad 2f     	jmp	$2fad <__memset>

00000340 <__copy_zp_data>:
     340: a9 02        	lda	#$2
     342: a2 00        	ldx	#$0
     344: a0 30        	ldy	#$30
     346: 84 12        	sty	$12                     ; 0x2012 <_ZN12_GLOBAL__N_13putEcP6Status+0xb>
     348: a0 00        	ldy	#$0
     34a: 84 13        	sty	$13                     ; 0x2013 <_ZN12_GLOBAL__N_13putEcP6Status+0xc>
     34c: a0 00        	ldy	#$0
     34e: 84 14        	sty	$14                     ; 0x2014 <_ZN12_GLOBAL__N_13putEcP6Status+0xd>
     350: a0 03        	ldy	#$3
     352: 84 15        	sty	$15                     ; 0x2015 <_ZN12_GLOBAL__N_13putEcP6Status+0xe>
     354: 4c 81 2f     	jmp	$2f81 <memcpy>

00000357 <f256Init>:
     357: 64 12        	stz	$12                     ; 0x2012 <_ZN12_GLOBAL__N_13putEcP6Status+0xb>
     359: 64 01        	stz	$1                      ; 0x2001 <bitmapLine+0x437>
     35b: a2 3f        	ldx	#$3f
     35d: 8e 00 d0     	stx	$d000                   ; 0xd000 <end_block9+0x98b6>
     360: a2 b3        	ldx	#$b3
     362: 86 00        	stx	$0                      ; 0x2000 <bitmapLine+0x436>
     364: 64 08        	stz	$8                      ; 0x2008 <_ZN12_GLOBAL__N_13putEcP6Status+0x1>
     366: a2 01        	ldx	#$1
     368: 86 09        	stx	$9                      ; 0x2009 <_ZN12_GLOBAL__N_13putEcP6Status+0x2>
     36a: e8           	inx
     36b: 86 0a        	stx	$a                      ; 0x200a <_ZN12_GLOBAL__N_13putEcP6Status+0x3>
     36d: e8           	inx
     36e: 86 0b        	stx	$b                      ; 0x200b <_ZN12_GLOBAL__N_13putEcP6Status+0x4>
     370: e8           	inx
     371: 86 0c        	stx	$c                      ; 0x200c <_ZN12_GLOBAL__N_13putEcP6Status+0x5>
     373: e8           	inx
     374: 86 0d        	stx	$d                      ; 0x200d <_ZN12_GLOBAL__N_13putEcP6Status+0x6>
     376: a2 90        	ldx	#$90
     378: a0 00        	ldy	#$0
     37a: 86 f0        	stx	$f0                     ; 0x20f0 <_ZN12_GLOBAL__N_112print_stringEPKcP6Status+0x16>
     37c: 84 f1        	sty	$f1                     ; 0x20f1 <_ZN12_GLOBAL__N_112print_stringEPKcP6Status+0x17>
     37e: a2 00        	ldx	#$0
     380: 86 16        	stx	$16                     ; 0x2016 <_ZN12_GLOBAL__N_13putEcP6Status+0xf>
     382: ca           	dex
     383: 86 17        	stx	$17                     ; 0x2017 <_ZN12_GLOBAL__N_13putEcP6Status+0x10>
     385: 8a           	txa
     386: 0a           	asl
     387: 0a           	asl
     388: 18           	clc
     389: 69 d4        	adc	#$d4
     38b: 85 18        	sta	$18                     ; 0x2018 <_ZN12_GLOBAL__N_13putEcP6Status+0x11>
     38d: a0 00        	ldy	#$0
     38f: 64 15        	stz	$15                     ; 0x2015 <_ZN12_GLOBAL__N_13putEcP6Status+0xe>
     391: 64 14        	stz	$14                     ; 0x2014 <_ZN12_GLOBAL__N_13putEcP6Status+0xd>
     393: a6 17        	ldx	$17                     ; 0x2017 <_ZN12_GLOBAL__N_13putEcP6Status+0x10>
     395: e0 03        	cpx	#$3
     397: a6 01        	ldx	$1                      ; 0x2001 <bitmapLine+0x437>
     399: 86 1a        	stx	$1a                     ; 0x201a <_ZN12_GLOBAL__N_13putEcP6Status+0x13>
     39b: a2 d0        	ldx	#$d0
     39d: 84 19        	sty	$19                     ; 0x2019 <_ZN12_GLOBAL__N_13putEcP6Status+0x12>
     39f: b0 02        	bcs	$3a3 <f256Init+0x4c>
     3a1: a6 18        	ldx	$18                     ; 0x2018 <_ZN12_GLOBAL__N_13putEcP6Status+0x11>
     3a3: 86 13        	stx	$13                     ; 0x2013 <_ZN12_GLOBAL__N_13putEcP6Status+0xc>
     3a5: a5 15        	lda	$15                     ; 0x2015 <_ZN12_GLOBAL__N_13putEcP6Status+0xe>
     3a7: 18           	clc
     3a8: 65 12        	adc	$12                     ; 0x2012 <_ZN12_GLOBAL__N_13putEcP6Status+0xb>
     3aa: a8           	tay
     3ab: a6 15        	ldx	$15                     ; 0x2015 <_ZN12_GLOBAL__N_13putEcP6Status+0xe>
     3ad: a5 14        	lda	$14                     ; 0x2014 <_ZN12_GLOBAL__N_13putEcP6Status+0xd>
     3af: 85 1b        	sta	$1b                     ; 0x201b <_ZN12_GLOBAL__N_13putEcP6Status+0x14>
     3b1: a5 14        	lda	$14                     ; 0x2014 <_ZN12_GLOBAL__N_13putEcP6Status+0xd>
     3b3: 65 13        	adc	$13                     ; 0x2013 <_ZN12_GLOBAL__N_13putEcP6Status+0xc>
     3b5: 84 14        	sty	$14                     ; 0x2014 <_ZN12_GLOBAL__N_13putEcP6Status+0xd>
     3b7: a0 01        	ldy	#$1
     3b9: 84 01        	sty	$1                      ; 0x2001 <bitmapLine+0x437>
     3bb: 85 15        	sta	$15                     ; 0x2015 <_ZN12_GLOBAL__N_13putEcP6Status+0xe>
     3bd: a5 19        	lda	$19                     ; 0x2019 <_ZN12_GLOBAL__N_13putEcP6Status+0x12>
     3bf: 92 14        	sta	($14)                   ; 0x2014 <_ZN12_GLOBAL__N_13putEcP6Status+0xd>
     3c1: 91 14        	sta	($14),y                 ; 0x2014 <_ZN12_GLOBAL__N_13putEcP6Status+0xd>
     3c3: c8           	iny
     3c4: 91 14        	sta	($14),y                 ; 0x2014 <_ZN12_GLOBAL__N_13putEcP6Status+0xd>
     3c6: 85 13        	sta	$13                     ; 0x2013 <_ZN12_GLOBAL__N_13putEcP6Status+0xc>
     3c8: c8           	iny
     3c9: a9 ff        	lda	#$ff
     3cb: 91 14        	sta	($14),y                 ; 0x2014 <_ZN12_GLOBAL__N_13putEcP6Status+0xd>
     3cd: 8a           	txa
     3ce: a6 1a        	ldx	$1a                     ; 0x201a <_ZN12_GLOBAL__N_13putEcP6Status+0x13>
     3d0: 86 01        	stx	$1                      ; 0x2001 <bitmapLine+0x437>
     3d2: 18           	clc
     3d3: 69 04        	adc	#$4
     3d5: 85 15        	sta	$15                     ; 0x2015 <_ZN12_GLOBAL__N_13putEcP6Status+0xe>
     3d7: a5 1b        	lda	$1b                     ; 0x201b <_ZN12_GLOBAL__N_13putEcP6Status+0x14>
     3d9: 69 00        	adc	#$0
     3db: e6 13        	inc	$13                     ; 0x2013 <_ZN12_GLOBAL__N_13putEcP6Status+0xc>
     3dd: a4 13        	ldy	$13                     ; 0x2013 <_ZN12_GLOBAL__N_13putEcP6Status+0xc>
     3df: 85 14        	sta	$14                     ; 0x2014 <_ZN12_GLOBAL__N_13putEcP6Status+0xd>
     3e1: c9 04        	cmp	#$4
     3e3: f0 03        	beq	$3e8 <f256Init+0x91>
     3e5: 4c 93 03     	jmp	$393 <f256Init+0x3c>
     3e8: a5 15        	lda	$15                     ; 0x2015 <_ZN12_GLOBAL__N_13putEcP6Status+0xe>
     3ea: f0 03        	beq	$3ef <f256Init+0x98>
     3ec: 4c 93 03     	jmp	$393 <f256Init+0x3c>
     3ef: a6 16        	ldx	$16                     ; 0x2016 <_ZN12_GLOBAL__N_13putEcP6Status+0xf>
     3f1: e8           	inx
     3f2: e0 04        	cpx	#$4
     3f4: f0 03        	beq	$3f9 <f256Init+0xa2>
     3f6: 4c 80 03     	jmp	$380 <f256Init+0x29>
     3f9: ad 02 d0     	lda	$d002                   ; 0xd002 <end_block9+0x98b8>
     3fc: 29 f0        	and	#$f0
     3fe: 8d 02 d0     	sta	$d002                   ; 0xd002 <end_block9+0x98b8>
     401: ad 02 d0     	lda	$d002                   ; 0xd002 <end_block9+0x98b8>
     404: 29 0f        	and	#$f
     406: 09 10        	ora	#$10
     408: 8d 02 d0     	sta	$d002                   ; 0xd002 <end_block9+0x98b8>
     40b: a2 02        	ldx	#$2
     40d: 8e 03 d0     	stx	$d003                   ; 0xd003 <end_block9+0x98b9>
     410: ad 01 d0     	lda	$d001                   ; 0xd001 <end_block9+0x98b7>
     413: 29 f9        	and	#$f9
     415: 09 04        	ora	#$4
     417: 8d 01 d0     	sta	$d001                   ; 0xd001 <end_block9+0x98b7>
     41a: 64 12        	stz	$12                     ; 0x2012 <_ZN12_GLOBAL__N_13putEcP6Status+0xb>
     41c: 9c 10 d0     	stz	$d010                   ; 0xd010 <end_block9+0x98c6>
     41f: a2 00        	ldx	#$0
     421: 64 13        	stz	$13                     ; 0x2013 <_ZN12_GLOBAL__N_13putEcP6Status+0xc>
     423: 86 16        	stx	$16                     ; 0x2016 <_ZN12_GLOBAL__N_13putEcP6Status+0xf>
     425: a4 16        	ldy	$16                     ; 0x2016 <_ZN12_GLOBAL__N_13putEcP6Status+0xf>
     427: be 18 30     	ldx	$3018,y                 ; 0x3018 <textColors>
     42a: 86 17        	stx	$17                     ; 0x2017 <_ZN12_GLOBAL__N_13putEcP6Status+0x10>
     42c: be 19 30     	ldx	$3019,y                 ; 0x3019 <textColors+0x1>
     42f: 86 18        	stx	$18                     ; 0x2018 <_ZN12_GLOBAL__N_13putEcP6Status+0x11>
     431: be 1a 30     	ldx	$301a,y                 ; 0x301a <textColors+0x2>
     434: 86 19        	stx	$19                     ; 0x2019 <_ZN12_GLOBAL__N_13putEcP6Status+0x12>
     436: a6 13        	ldx	$13                     ; 0x2013 <_ZN12_GLOBAL__N_13putEcP6Status+0xc>
     438: 8e 00 de     	stx	$de00                   ; 0xde00 <end_block9+0xa6b6>
     43b: 86 15        	stx	$15                     ; 0x2015 <_ZN12_GLOBAL__N_13putEcP6Status+0xe>
     43d: 9c 01 de     	stz	$de01                   ; 0xde01 <end_block9+0xa6b7>
     440: a2 04        	ldx	#$4
     442: 8e 02 de     	stx	$de02                   ; 0xde02 <end_block9+0xa6b8>
     445: 9c 03 de     	stz	$de03                   ; 0xde03 <end_block9+0xa6b9>
     448: ad 10 de     	lda	$de10                   ; 0xde10 <end_block9+0xa6c6>
     44b: ac 11 de     	ldy	$de11                   ; 0xde11 <end_block9+0xa6c7>
     44e: 84 13        	sty	$13                     ; 0x2013 <_ZN12_GLOBAL__N_13putEcP6Status+0xc>
     450: ac 12 de     	ldy	$de12                   ; 0xde12 <end_block9+0xa6c8>
     453: ac 13 de     	ldy	$de13                   ; 0xde13 <end_block9+0xa6c9>
     456: 18           	clc
     457: 65 12        	adc	$12                     ; 0x2012 <_ZN12_GLOBAL__N_13putEcP6Status+0xb>
     459: 85 14        	sta	$14                     ; 0x2014 <_ZN12_GLOBAL__N_13putEcP6Status+0xd>
     45b: a6 15        	ldx	$15                     ; 0x2015 <_ZN12_GLOBAL__N_13putEcP6Status+0xe>
     45d: a9 d8        	lda	#$d8
     45f: 65 13        	adc	$13                     ; 0x2013 <_ZN12_GLOBAL__N_13putEcP6Status+0xc>
     461: 85 15        	sta	$15                     ; 0x2015 <_ZN12_GLOBAL__N_13putEcP6Status+0xe>
     463: a5 19        	lda	$19                     ; 0x2019 <_ZN12_GLOBAL__N_13putEcP6Status+0x12>
     465: 92 14        	sta	($14)                   ; 0x2014 <_ZN12_GLOBAL__N_13putEcP6Status+0xd>
     467: a0 01        	ldy	#$1
     469: a5 18        	lda	$18                     ; 0x2018 <_ZN12_GLOBAL__N_13putEcP6Status+0x11>
     46b: 91 14        	sta	($14),y                 ; 0x2014 <_ZN12_GLOBAL__N_13putEcP6Status+0xd>
     46d: c8           	iny
     46e: a5 17        	lda	$17                     ; 0x2017 <_ZN12_GLOBAL__N_13putEcP6Status+0x10>
     470: 91 14        	sta	($14),y                 ; 0x2014 <_ZN12_GLOBAL__N_13putEcP6Status+0xd>
     472: c8           	iny
     473: a9 ff        	lda	#$ff
     475: 91 14        	sta	($14),y                 ; 0x2014 <_ZN12_GLOBAL__N_13putEcP6Status+0xd>
     477: 8e 00 de     	stx	$de00                   ; 0xde00 <end_block9+0xa6b6>
     47a: 9c 01 de     	stz	$de01                   ; 0xde01 <end_block9+0xa6b7>
     47d: c8           	iny
     47e: 8c 02 de     	sty	$de02                   ; 0xde02 <end_block9+0xa6b8>
     481: 9c 03 de     	stz	$de03                   ; 0xde03 <end_block9+0xa6b9>
     484: ad 10 de     	lda	$de10                   ; 0xde10 <end_block9+0xa6c6>
     487: 85 13        	sta	$13                     ; 0x2013 <_ZN12_GLOBAL__N_13putEcP6Status+0xc>
     489: ad 11 de     	lda	$de11                   ; 0xde11 <end_block9+0xa6c7>
     48c: 85 14        	sta	$14                     ; 0x2014 <_ZN12_GLOBAL__N_13putEcP6Status+0xd>
     48e: a9 40        	lda	#$40
     490: 18           	clc
     491: 65 13        	adc	$13                     ; 0x2013 <_ZN12_GLOBAL__N_13putEcP6Status+0xc>
     493: a8           	tay
     494: a9 d8        	lda	#$d8
     496: 65 14        	adc	$14                     ; 0x2014 <_ZN12_GLOBAL__N_13putEcP6Status+0xd>
     498: 85 15        	sta	$15                     ; 0x2015 <_ZN12_GLOBAL__N_13putEcP6Status+0xe>
     49a: 84 14        	sty	$14                     ; 0x2014 <_ZN12_GLOBAL__N_13putEcP6Status+0xd>
     49c: ad 12 de     	lda	$de12                   ; 0xde12 <end_block9+0xa6c8>
     49f: ad 13 de     	lda	$de13                   ; 0xde13 <end_block9+0xa6c9>
     4a2: a5 19        	lda	$19                     ; 0x2019 <_ZN12_GLOBAL__N_13putEcP6Status+0x12>
     4a4: 92 14        	sta	($14)                   ; 0x2014 <_ZN12_GLOBAL__N_13putEcP6Status+0xd>
     4a6: a5 18        	lda	$18                     ; 0x2018 <_ZN12_GLOBAL__N_13putEcP6Status+0x11>
     4a8: a0 01        	ldy	#$1
     4aa: 91 14        	sta	($14),y                 ; 0x2014 <_ZN12_GLOBAL__N_13putEcP6Status+0xd>
     4ac: a5 17        	lda	$17                     ; 0x2017 <_ZN12_GLOBAL__N_13putEcP6Status+0x10>
     4ae: c8           	iny
     4af: 91 14        	sta	($14),y                 ; 0x2014 <_ZN12_GLOBAL__N_13putEcP6Status+0xd>
     4b1: c8           	iny
     4b2: a9 ff        	lda	#$ff
     4b4: 91 14        	sta	($14),y                 ; 0x2014 <_ZN12_GLOBAL__N_13putEcP6Status+0xd>
     4b6: e8           	inx
     4b7: 86 13        	stx	$13                     ; 0x2013 <_ZN12_GLOBAL__N_13putEcP6Status+0xc>
     4b9: 18           	clc
     4ba: a5 16        	lda	$16                     ; 0x2016 <_ZN12_GLOBAL__N_13putEcP6Status+0xf>
     4bc: 69 03        	adc	#$3
     4be: aa           	tax
     4bf: c9 30        	cmp	#$30
     4c1: f0 03        	beq	$4c6 <f256Init+0x16f>
     4c3: 4c 23 04     	jmp	$423 <f256Init+0xcc>
     4c6: 20 a5 06     	jsr	$6a5 <textClear>
     4c9: a0 01        	ldy	#$1
     4cb: 84 42        	sty	$42                     ; 0x2042 <_ZN12_GLOBAL__N_13putEcP6Status+0x3b>
     4cd: a2 40        	ldx	#$40
     4cf: 8e 00 de     	stx	$de00                   ; 0xde00 <end_block9+0xa6b6>
     4d2: 8c 01 de     	sty	$de01                   ; 0xde01 <end_block9+0xa6b7>
     4d5: a2 f0        	ldx	#$f0
     4d7: 8e 02 de     	stx	$de02                   ; 0xde02 <end_block9+0xa6b8>
     4da: 9c 03 de     	stz	$de03                   ; 0xde03 <end_block9+0xa6b9>
     4dd: ae 10 de     	ldx	$de10                   ; 0xde10 <end_block9+0xa6c6>
     4e0: 86 17        	stx	$17                     ; 0x2017 <_ZN12_GLOBAL__N_13putEcP6Status+0x10>
     4e2: ae 11 de     	ldx	$de11                   ; 0xde11 <end_block9+0xa6c7>
     4e5: 86 12        	stx	$12                     ; 0x2012 <_ZN12_GLOBAL__N_13putEcP6Status+0xb>
     4e7: ae 12 de     	ldx	$de12                   ; 0xde12 <end_block9+0xa6c8>
     4ea: 86 13        	stx	$13                     ; 0x2013 <_ZN12_GLOBAL__N_13putEcP6Status+0xc>
     4ec: ae 13 de     	ldx	$de13                   ; 0xde13 <end_block9+0xa6c9>
     4ef: 86 14        	stx	$14                     ; 0x2014 <_ZN12_GLOBAL__N_13putEcP6Status+0xd>
     4f1: 64 40        	stz	$40                     ; 0x2040 <_ZN12_GLOBAL__N_13putEcP6Status+0x39>
     4f3: 84 41        	sty	$41                     ; 0x2041 <_ZN12_GLOBAL__N_13putEcP6Status+0x3a>
     4f5: a4 12        	ldy	$12                     ; 0x2012 <_ZN12_GLOBAL__N_13putEcP6Status+0xb>
     4f7: 84 15        	sty	$15                     ; 0x2015 <_ZN12_GLOBAL__N_13putEcP6Status+0xe>
     4f9: 06 15        	asl	$15                     ; 0x2015 <_ZN12_GLOBAL__N_13putEcP6Status+0xe>
     4fb: a5 13        	lda	$13                     ; 0x2013 <_ZN12_GLOBAL__N_13putEcP6Status+0xc>
     4fd: 2a           	rol
     4fe: 86 16        	stx	$16                     ; 0x2016 <_ZN12_GLOBAL__N_13putEcP6Status+0xf>
     500: 26 16        	rol	$16                     ; 0x2016 <_ZN12_GLOBAL__N_13putEcP6Status+0xf>
     502: 06 15        	asl	$15                     ; 0x2015 <_ZN12_GLOBAL__N_13putEcP6Status+0xe>
     504: 2a           	rol
     505: 26 16        	rol	$16                     ; 0x2016 <_ZN12_GLOBAL__N_13putEcP6Status+0xf>
     507: 06 15        	asl	$15                     ; 0x2015 <_ZN12_GLOBAL__N_13putEcP6Status+0xe>
     509: 2a           	rol
     50a: 26 16        	rol	$16                     ; 0x2016 <_ZN12_GLOBAL__N_13putEcP6Status+0xf>
     50c: 85 15        	sta	$15                     ; 0x2015 <_ZN12_GLOBAL__N_13putEcP6Status+0xe>
     50e: 8d 00 de     	sta	$de00                   ; 0xde00 <end_block9+0xa6b6>
     511: a5 16        	lda	$16                     ; 0x2016 <_ZN12_GLOBAL__N_13putEcP6Status+0xf>
     513: 8d 01 de     	sta	$de01                   ; 0xde01 <end_block9+0xa6b7>
     516: 9c 02 de     	stz	$de02                   ; 0xde02 <end_block9+0xa6b8>
     519: a2 20        	ldx	#$20
     51b: 8e 03 de     	stx	$de03                   ; 0xde03 <end_block9+0xa6b9>
     51e: ae 10 de     	ldx	$de10                   ; 0xde10 <end_block9+0xa6c6>
     521: 86 16        	stx	$16                     ; 0x2016 <_ZN12_GLOBAL__N_13putEcP6Status+0xf>
     523: ae 11 de     	ldx	$de11                   ; 0xde11 <end_block9+0xa6c7>
     526: 86 18        	stx	$18                     ; 0x2018 <_ZN12_GLOBAL__N_13putEcP6Status+0x11>
     528: ac 12 de     	ldy	$de12                   ; 0xde12 <end_block9+0xa6c8>
     52b: ae 13 de     	ldx	$de13                   ; 0xde13 <end_block9+0xa6c9>
     52e: e4 14        	cpx	$14                     ; 0x2014 <_ZN12_GLOBAL__N_13putEcP6Status+0xd>
     530: d0 14        	bne	$546 <f256Init+0x1ef>
     532: c4 13        	cpy	$13                     ; 0x2013 <_ZN12_GLOBAL__N_13putEcP6Status+0xc>
     534: d0 10        	bne	$546 <f256Init+0x1ef>
     536: a6 18        	ldx	$18                     ; 0x2018 <_ZN12_GLOBAL__N_13putEcP6Status+0x11>
     538: e4 12        	cpx	$12                     ; 0x2012 <_ZN12_GLOBAL__N_13putEcP6Status+0xb>
     53a: d0 0a        	bne	$546 <f256Init+0x1ef>
     53c: a6 16        	ldx	$16                     ; 0x2016 <_ZN12_GLOBAL__N_13putEcP6Status+0xf>
     53e: e4 17        	cpx	$17                     ; 0x2017 <_ZN12_GLOBAL__N_13putEcP6Status+0x10>
     540: d0 04        	bne	$546 <f256Init+0x1ef>
     542: a6 15        	ldx	$15                     ; 0x2015 <_ZN12_GLOBAL__N_13putEcP6Status+0xe>
     544: 80 06        	bra	$54c <f256Init+0x1f5>
     546: a6 15        	ldx	$15                     ; 0x2015 <_ZN12_GLOBAL__N_13putEcP6Status+0xe>
     548: e8           	inx
     549: d0 01        	bne	$54c <f256Init+0x1f5>
     54b: 1a           	inc
     54c: 8e 00 de     	stx	$de00                   ; 0xde00 <end_block9+0xa6b6>
     54f: 8d 01 de     	sta	$de01                   ; 0xde01 <end_block9+0xa6b7>
     552: 9c 02 de     	stz	$de02                   ; 0xde02 <end_block9+0xa6b8>
     555: a2 20        	ldx	#$20
     557: 8e 03 de     	stx	$de03                   ; 0xde03 <end_block9+0xa6b9>
     55a: ae 10 de     	ldx	$de10                   ; 0xde10 <end_block9+0xa6c6>
     55d: 86 12        	stx	$12                     ; 0x2012 <_ZN12_GLOBAL__N_13putEcP6Status+0xb>
     55f: ae 11 de     	ldx	$de11                   ; 0xde11 <end_block9+0xa6c7>
     562: 86 13        	stx	$13                     ; 0x2013 <_ZN12_GLOBAL__N_13putEcP6Status+0xc>
     564: ae 12 de     	ldx	$de12                   ; 0xde12 <end_block9+0xa6c8>
     567: 86 14        	stx	$14                     ; 0x2014 <_ZN12_GLOBAL__N_13putEcP6Status+0xd>
     569: ae 13 de     	ldx	$de13                   ; 0xde13 <end_block9+0xa6c9>
     56c: 86 15        	stx	$15                     ; 0x2015 <_ZN12_GLOBAL__N_13putEcP6Status+0xe>
     56e: 38           	sec
     56f: a9 00        	lda	#$0
     571: e5 12        	sbc	$12                     ; 0x2012 <_ZN12_GLOBAL__N_13putEcP6Status+0xb>
     573: 85 19        	sta	$19                     ; 0x2019 <_ZN12_GLOBAL__N_13putEcP6Status+0x12>
     575: a9 00        	lda	#$0
     577: e5 13        	sbc	$13                     ; 0x2013 <_ZN12_GLOBAL__N_13putEcP6Status+0xc>
     579: aa           	tax
     57a: a9 08        	lda	#$8
     57c: e5 14        	sbc	$14                     ; 0x2014 <_ZN12_GLOBAL__N_13putEcP6Status+0xd>
     57e: 85 16        	sta	$16                     ; 0x2016 <_ZN12_GLOBAL__N_13putEcP6Status+0xf>
     580: a9 00        	lda	#$0
     582: e5 15        	sbc	$15                     ; 0x2015 <_ZN12_GLOBAL__N_13putEcP6Status+0xe>
     584: 86 35        	stx	$35                     ; 0x2035 <_ZN12_GLOBAL__N_13putEcP6Status+0x2e>
     586: a4 16        	ldy	$16                     ; 0x2016 <_ZN12_GLOBAL__N_13putEcP6Status+0xf>
     588: 84 36        	sty	$36                     ; 0x2036 <_ZN12_GLOBAL__N_13putEcP6Status+0x2f>
     58a: 85 37        	sta	$37                     ; 0x2037 <_ZN12_GLOBAL__N_13putEcP6Status+0x30>
     58c: a8           	tay
     58d: a5 19        	lda	$19                     ; 0x2019 <_ZN12_GLOBAL__N_13putEcP6Status+0x12>
     58f: 38           	sec
     590: e5 12        	sbc	$12                     ; 0x2012 <_ZN12_GLOBAL__N_13putEcP6Status+0xb>
     592: 85 18        	sta	$18                     ; 0x2018 <_ZN12_GLOBAL__N_13putEcP6Status+0x11>
     594: 8a           	txa
     595: e5 13        	sbc	$13                     ; 0x2013 <_ZN12_GLOBAL__N_13putEcP6Status+0xc>
     597: 85 1a        	sta	$1a                     ; 0x201a <_ZN12_GLOBAL__N_13putEcP6Status+0x13>
     599: a5 16        	lda	$16                     ; 0x2016 <_ZN12_GLOBAL__N_13putEcP6Status+0xf>
     59b: e5 14        	sbc	$14                     ; 0x2014 <_ZN12_GLOBAL__N_13putEcP6Status+0xd>
     59d: 85 16        	sta	$16                     ; 0x2016 <_ZN12_GLOBAL__N_13putEcP6Status+0xf>
     59f: 98           	tya
     5a0: e5 15        	sbc	$15                     ; 0x2015 <_ZN12_GLOBAL__N_13putEcP6Status+0xe>
     5a2: 85 17        	sta	$17                     ; 0x2017 <_ZN12_GLOBAL__N_13putEcP6Status+0x10>
     5a4: 38           	sec
     5a5: a4 18        	ldy	$18                     ; 0x2018 <_ZN12_GLOBAL__N_13putEcP6Status+0x11>
     5a7: 84 38        	sty	$38                     ; 0x2038 <_ZN12_GLOBAL__N_13putEcP6Status+0x31>
     5a9: a6 1a        	ldx	$1a                     ; 0x201a <_ZN12_GLOBAL__N_13putEcP6Status+0x13>
     5ab: 86 39        	stx	$39                     ; 0x2039 <_ZN12_GLOBAL__N_13putEcP6Status+0x32>
     5ad: a4 16        	ldy	$16                     ; 0x2016 <_ZN12_GLOBAL__N_13putEcP6Status+0xf>
     5af: 84 3a        	sty	$3a                     ; 0x203a <_ZN12_GLOBAL__N_13putEcP6Status+0x33>
     5b1: 85 3b        	sta	$3b                     ; 0x203b <_ZN12_GLOBAL__N_13putEcP6Status+0x34>
     5b3: a5 18        	lda	$18                     ; 0x2018 <_ZN12_GLOBAL__N_13putEcP6Status+0x11>
     5b5: e5 12        	sbc	$12                     ; 0x2012 <_ZN12_GLOBAL__N_13putEcP6Status+0xb>
     5b7: 85 18        	sta	$18                     ; 0x2018 <_ZN12_GLOBAL__N_13putEcP6Status+0x11>
     5b9: a5 1a        	lda	$1a                     ; 0x201a <_ZN12_GLOBAL__N_13putEcP6Status+0x13>
     5bb: e5 13        	sbc	$13                     ; 0x2013 <_ZN12_GLOBAL__N_13putEcP6Status+0xc>
     5bd: a8           	tay
     5be: a5 16        	lda	$16                     ; 0x2016 <_ZN12_GLOBAL__N_13putEcP6Status+0xf>
     5c0: e5 14        	sbc	$14                     ; 0x2014 <_ZN12_GLOBAL__N_13putEcP6Status+0xd>
     5c2: 85 12        	sta	$12                     ; 0x2012 <_ZN12_GLOBAL__N_13putEcP6Status+0xb>
     5c4: a5 17        	lda	$17                     ; 0x2017 <_ZN12_GLOBAL__N_13putEcP6Status+0x10>
     5c6: e5 15        	sbc	$15                     ; 0x2015 <_ZN12_GLOBAL__N_13putEcP6Status+0xe>
     5c8: a6 18        	ldx	$18                     ; 0x2018 <_ZN12_GLOBAL__N_13putEcP6Status+0x11>
     5ca: 86 3c        	stx	$3c                     ; 0x203c <_ZN12_GLOBAL__N_13putEcP6Status+0x35>
     5cc: 84 3d        	sty	$3d                     ; 0x203d <_ZN12_GLOBAL__N_13putEcP6Status+0x36>
     5ce: a4 12        	ldy	$12                     ; 0x2012 <_ZN12_GLOBAL__N_13putEcP6Status+0xb>
     5d0: 84 3e        	sty	$3e                     ; 0x203e <_ZN12_GLOBAL__N_13putEcP6Status+0x37>
     5d2: a6 19        	ldx	$19                     ; 0x2019 <_ZN12_GLOBAL__N_13putEcP6Status+0x12>
     5d4: 86 34        	stx	$34                     ; 0x2034 <_ZN12_GLOBAL__N_13putEcP6Status+0x2d>
     5d6: 85 3f        	sta	$3f                     ; 0x203f <_ZN12_GLOBAL__N_13putEcP6Status+0x38>
     5d8: 9c 45 37     	stz	$3745                   ; 0x3745 <__bss_start>
     5db: 9c 46 37     	stz	$3746                   ; 0x3746 <__bss_start+0x1>
     5de: 9c 47 37     	stz	$3747                   ; 0x3747 <__bss_start+0x2>
     5e1: 8e 01 d1     	stx	$d101                   ; 0xd101 <end_block9+0x99b7>
     5e4: a6 35        	ldx	$35                     ; 0x2035 <_ZN12_GLOBAL__N_13putEcP6Status+0x2e>
     5e6: 8e 02 d1     	stx	$d102                   ; 0xd102 <end_block9+0x99b8>
     5e9: a6 36        	ldx	$36                     ; 0x2036 <_ZN12_GLOBAL__N_13putEcP6Status+0x2f>
     5eb: 8e 03 d1     	stx	$d103                   ; 0xd103 <end_block9+0x99b9>
     5ee: a6 38        	ldx	$38                     ; 0x2038 <_ZN12_GLOBAL__N_13putEcP6Status+0x31>
     5f0: 8e 09 d1     	stx	$d109                   ; 0xd109 <end_block9+0x99bf>
     5f3: a6 39        	ldx	$39                     ; 0x2039 <_ZN12_GLOBAL__N_13putEcP6Status+0x32>
     5f5: 8e 0a d1     	stx	$d10a                   ; 0xd10a <end_block9+0x99c0>
     5f8: a6 3a        	ldx	$3a                     ; 0x203a <_ZN12_GLOBAL__N_13putEcP6Status+0x33>
     5fa: 8e 0b d1     	stx	$d10b                   ; 0xd10b <end_block9+0x99c1>
     5fd: a6 3c        	ldx	$3c                     ; 0x203c <_ZN12_GLOBAL__N_13putEcP6Status+0x35>
     5ff: 8e 11 d1     	stx	$d111                   ; 0xd111 <end_block9+0x99c7>
     602: a6 3d        	ldx	$3d                     ; 0x203d <_ZN12_GLOBAL__N_13putEcP6Status+0x36>
     604: 8e 12 d1     	stx	$d112                   ; 0xd112 <end_block9+0x99c8>
     607: a6 3e        	ldx	$3e                     ; 0x203e <_ZN12_GLOBAL__N_13putEcP6Status+0x37>
     609: 8e 13 d1     	stx	$d113                   ; 0xd113 <end_block9+0x99c9>
     60c: 9c 00 d1     	stz	$d100                   ; 0xd100 <end_block9+0x99b6>
     60f: 9c 08 d1     	stz	$d108                   ; 0xd108 <end_block9+0x99be>
     612: 9c 10 d1     	stz	$d110                   ; 0xd110 <end_block9+0x99c6>
     615: a2 08        	ldx	#$8
     617: 86 43        	stx	$43                     ; 0x2043 <_ZN12_GLOBAL__N_13putEcP6Status+0x3c>
     619: 86 44        	stx	$44                     ; 0x2044 <_ZN12_GLOBAL__N_13putEcP6Status+0x3d>
     61b: a2 01        	ldx	#$1
     61d: 8e 48 37     	stx	$3748                   ; 0x3748 <_tileSize.2>
     620: a2 10        	ldx	#$10
     622: 8e 00 d2     	stx	$d200                   ; 0xd200 <end_block9+0x9ab6>
     625: a5 44        	lda	$44                     ; 0x2044 <_ZN12_GLOBAL__N_13putEcP6Status+0x3d>
     627: a0 10        	ldy	#$10
     629: c9 08        	cmp	#$8
     62b: f0 02        	beq	$62f <f256Init+0x2d8>
     62d: a0 00        	ldy	#$0
     62f: 8c 0c d2     	sty	$d20c                   ; 0xd20c <end_block9+0x9ac2>
     632: 8e 18 d2     	stx	$d218                   ; 0xd218 <end_block9+0x9ace>
     635: a0 d9        	ldy	#$d9
     637: a9 00        	lda	#$0
     639: aa           	tax
     63a: 85 12        	sta	$12                     ; 0x2012 <_ZN12_GLOBAL__N_13putEcP6Status+0xb>
     63c: 84 14        	sty	$14                     ; 0x2014 <_ZN12_GLOBAL__N_13putEcP6Status+0xd>
     63e: 84 13        	sty	$13                     ; 0x2013 <_ZN12_GLOBAL__N_13putEcP6Status+0xc>
     640: a8           	tay
     641: b5 45        	lda	$45,x                   ; 0x2045 <_ZN12_GLOBAL__N_13putEcP6Status+0x3e>
     643: 92 12        	sta	($12)                   ; 0x2012 <_ZN12_GLOBAL__N_13putEcP6Status+0xb>
     645: 98           	tya
     646: e8           	inx
     647: 18           	clc
     648: 69 08        	adc	#$8
     64a: 85 12        	sta	$12                     ; 0x2012 <_ZN12_GLOBAL__N_13putEcP6Status+0xb>
     64c: a5 14        	lda	$14                     ; 0x2014 <_ZN12_GLOBAL__N_13putEcP6Status+0xd>
     64e: 69 00        	adc	#$0
     650: a8           	tay
     651: a5 12        	lda	$12                     ; 0x2012 <_ZN12_GLOBAL__N_13putEcP6Status+0xb>
     653: e0 40        	cpx	#$40
     655: d0 e3        	bne	$63a <f256Init+0x2e3>
     657: a2 97        	ldx	#$97
     659: a0 00        	ldy	#$0
     65b: 86 fb        	stx	$fb                     ; 0x20fb <_ZN12_GLOBAL__N_112print_stringEPKcP6Status+0x21>
     65d: 84 fc        	sty	$fc                     ; 0x20fc <_ZN12_GLOBAL__N_112print_stringEPKcP6Status+0x22>
     65f: a2 08        	ldx	#$8
     661: 86 fd        	stx	$fd                     ; 0x20fd <_ZN12_GLOBAL__N_112print_stringEPKcP6Status+0x23>
     663: a2 9f        	ldx	#$9f
     665: a0 00        	ldy	#$0
     667: 86 12        	stx	$12                     ; 0x2012 <_ZN12_GLOBAL__N_13putEcP6Status+0xb>
     669: 84 13        	sty	$13                     ; 0x2013 <_ZN12_GLOBAL__N_13putEcP6Status+0xc>
     66b: a2 49        	ldx	#$49
     66d: 86 14        	stx	$14                     ; 0x2014 <_ZN12_GLOBAL__N_13putEcP6Status+0xd>
     66f: a2 37        	ldx	#$37
     671: 86 15        	stx	$15                     ; 0x2015 <_ZN12_GLOBAL__N_13putEcP6Status+0xe>
     673: 20 dc ff     	jsr	$ffdc <end_block9+0xc892>
     676: 92 12        	sta	($12)                   ; 0x2012 <_ZN12_GLOBAL__N_13putEcP6Status+0xb>
     678: a9 00        	lda	#$0
     67a: 6a           	ror
     67b: 85 14        	sta	$14                     ; 0x2014 <_ZN12_GLOBAL__N_13putEcP6Status+0xd>
     67d: a6 9d        	ldx	$9d                     ; 0x209d <_ZN12_GLOBAL__N_13putEcP6Status+0x96>
     67f: a4 9e        	ldy	$9e                     ; 0x209e <_ZN12_GLOBAL__N_13putEcP6Status+0x97>
     681: 8e 00 de     	stx	$de00                   ; 0xde00 <end_block9+0xa6b6>
     684: 9c 01 de     	stz	$de01                   ; 0xde01 <end_block9+0xa6b7>
     687: 8c 02 de     	sty	$de02                   ; 0xde02 <end_block9+0xa6b8>
     68a: 9c 03 de     	stz	$de03                   ; 0xde03 <end_block9+0xa6b9>
     68d: ae 10 de     	ldx	$de10                   ; 0xde10 <end_block9+0xa6c6>
     690: ac 11 de     	ldy	$de11                   ; 0xde11 <end_block9+0xa6c7>
     693: ad 12 de     	lda	$de12                   ; 0xde12 <end_block9+0xa6c8>
     696: ad 13 de     	lda	$de13                   ; 0xde13 <end_block9+0xa6c9>
     699: 8e a4 d6     	stx	$d6a4                   ; 0xd6a4 <end_block9+0x9f5a>
     69c: 8c a5 d6     	sty	$d6a5                   ; 0xd6a5 <end_block9+0x9f5b>
     69f: a2 03        	ldx	#$3
     6a1: 8e a6 d6     	stx	$d6a6                   ; 0xd6a6 <end_block9+0x9f5c>
     6a4: 60           	rts

000006a5 <textClear>:
     6a5: a6 01        	ldx	$1                      ; 0x2001 <bitmapLine+0x437>
     6a7: 86 18        	stx	$18                     ; 0x2018 <_ZN12_GLOBAL__N_13putEcP6Status+0x11>
     6a9: a2 50        	ldx	#$50
     6ab: 8e 00 de     	stx	$de00                   ; 0xde00 <end_block9+0xa6b6>
     6ae: 9c 01 de     	stz	$de01                   ; 0xde01 <end_block9+0xa6b7>
     6b1: a2 1e        	ldx	#$1e
     6b3: 8e 02 de     	stx	$de02                   ; 0xde02 <end_block9+0xa6b8>
     6b6: 9c 03 de     	stz	$de03                   ; 0xde03 <end_block9+0xa6b9>
     6b9: ae 10 de     	ldx	$de10                   ; 0xde10 <end_block9+0xa6c6>
     6bc: ac 11 de     	ldy	$de11                   ; 0xde11 <end_block9+0xa6c7>
     6bf: ad 12 de     	lda	$de12                   ; 0xde12 <end_block9+0xa6c8>
     6c2: ad 13 de     	lda	$de13                   ; 0xde13 <end_block9+0xa6c9>
     6c5: a9 02        	lda	#$2
     6c7: 85 01        	sta	$1                      ; 0x2001 <bitmapLine+0x437>
     6c9: e0 01        	cpx	#$1
     6cb: 98           	tya
     6cc: e9 00        	sbc	#$0
     6ce: 50 02        	bvc	$6d2 <textClear+0x2d>
     6d0: 49 80        	eor	#$80
     6d2: c9 00        	cmp	#$0
     6d4: 30 50        	bmi	$726 <textClear+0x81>
     6d6: a9 00        	lda	#$0
     6d8: 85 12        	sta	$12                     ; 0x2012 <_ZN12_GLOBAL__N_13putEcP6Status+0xb>
     6da: a9 c0        	lda	#$c0
     6dc: 85 13        	sta	$13                     ; 0x2013 <_ZN12_GLOBAL__N_13putEcP6Status+0xc>
     6de: a9 20        	lda	#$20
     6e0: 86 19        	stx	$19                     ; 0x2019 <_ZN12_GLOBAL__N_13putEcP6Status+0x12>
     6e2: 86 14        	stx	$14                     ; 0x2014 <_ZN12_GLOBAL__N_13putEcP6Status+0xd>
     6e4: 84 15        	sty	$15                     ; 0x2015 <_ZN12_GLOBAL__N_13putEcP6Status+0xe>
     6e6: a2 00        	ldx	#$0
     6e8: 86 16        	stx	$16                     ; 0x2016 <_ZN12_GLOBAL__N_13putEcP6Status+0xf>
     6ea: a2 c0        	ldx	#$c0
     6ec: 86 17        	stx	$17                     ; 0x2017 <_ZN12_GLOBAL__N_13putEcP6Status+0x10>
     6ee: 92 16        	sta	($16)                   ; 0x2016 <_ZN12_GLOBAL__N_13putEcP6Status+0xf>
     6f0: e6 16        	inc	$16                     ; 0x2016 <_ZN12_GLOBAL__N_13putEcP6Status+0xf>
     6f2: d0 02        	bne	$6f6 <textClear+0x51>
     6f4: e6 17        	inc	$17                     ; 0x2017 <_ZN12_GLOBAL__N_13putEcP6Status+0x10>
     6f6: a2 ff        	ldx	#$ff
     6f8: c6 14        	dec	$14                     ; 0x2014 <_ZN12_GLOBAL__N_13putEcP6Status+0xd>
     6fa: e4 14        	cpx	$14                     ; 0x2014 <_ZN12_GLOBAL__N_13putEcP6Status+0xd>
     6fc: d0 02        	bne	$700 <textClear+0x5b>
     6fe: c6 15        	dec	$15                     ; 0x2015 <_ZN12_GLOBAL__N_13putEcP6Status+0xe>
     700: a6 15        	ldx	$15                     ; 0x2015 <_ZN12_GLOBAL__N_13putEcP6Status+0xe>
     702: d0 ea        	bne	$6ee <textClear+0x49>
     704: a6 14        	ldx	$14                     ; 0x2014 <_ZN12_GLOBAL__N_13putEcP6Status+0xd>
     706: d0 e6        	bne	$6ee <textClear+0x49>
     708: a2 03        	ldx	#$3
     70a: 86 01        	stx	$1                      ; 0x2001 <bitmapLine+0x437>
     70c: a6 19        	ldx	$19                     ; 0x2019 <_ZN12_GLOBAL__N_13putEcP6Status+0x12>
     70e: a9 f0        	lda	#$f0
     710: 92 12        	sta	($12)                   ; 0x2012 <_ZN12_GLOBAL__N_13putEcP6Status+0xb>
     712: e6 12        	inc	$12                     ; 0x2012 <_ZN12_GLOBAL__N_13putEcP6Status+0xb>
     714: d0 02        	bne	$718 <textClear+0x73>
     716: e6 13        	inc	$13                     ; 0x2013 <_ZN12_GLOBAL__N_13putEcP6Status+0xc>
     718: ca           	dex
     719: e0 ff        	cpx	#$ff
     71b: d0 01        	bne	$71e <textClear+0x79>
     71d: 88           	dey
     71e: 98           	tya
     71f: d0 ed        	bne	$70e <textClear+0x69>
     721: 8a           	txa
     722: d0 ea        	bne	$70e <textClear+0x69>
     724: 80 04        	bra	$72a <textClear+0x85>
     726: a2 03        	ldx	#$3
     728: 86 01        	stx	$1                      ; 0x2001 <bitmapLine+0x437>
     72a: a6 18        	ldx	$18                     ; 0x2018 <_ZN12_GLOBAL__N_13putEcP6Status+0x11>
     72c: 86 01        	stx	$1                      ; 0x2001 <bitmapLine+0x437>
     72e: 64 32        	stz	$32                     ; 0x2032 <_ZN12_GLOBAL__N_13putEcP6Status+0x2b>
     730: 9c 14 d0     	stz	$d014                   ; 0xd014 <end_block9+0x98ca>
     733: 9c 15 d0     	stz	$d015                   ; 0xd015 <end_block9+0x98cb>
     736: 64 33        	stz	$33                     ; 0x2033 <_ZN12_GLOBAL__N_13putEcP6Status+0x2c>
     738: 9c 16 d0     	stz	$d016                   ; 0xd016 <end_block9+0x98cc>
     73b: 9c 17 d0     	stz	$d017                   ; 0xd017 <end_block9+0x98cd>
     73e: 60           	rts

0000073f <main>:
     73f: 20 57 03     	jsr	$357 <f256Init>
     742: 20 45 07     	jsr	$745 <f256main>

00000745 <f256main>:
     745: 18           	clc
     746: a5 10        	lda	$10                     ; 0x2010 <_ZN12_GLOBAL__N_13putEcP6Status+0x9>
     748: 69 f1        	adc	#$f1
     74a: 85 10        	sta	$10                     ; 0x2010 <_ZN12_GLOBAL__N_13putEcP6Status+0x9>
     74c: a5 11        	lda	$11                     ; 0x2011 <_ZN12_GLOBAL__N_13putEcP6Status+0xa>
     74e: 69 ff        	adc	#$ff
     750: 85 11        	sta	$11                     ; 0x2011 <_ZN12_GLOBAL__N_13putEcP6Status+0xa>
     752: 64 12        	stz	$12                     ; 0x2012 <_ZN12_GLOBAL__N_13putEcP6Status+0xb>
     754: a9 00        	lda	#$0
     756: a0 08        	ldy	#$8
     758: 91 10        	sta	($10),y                 ; 0x2010 <_ZN12_GLOBAL__N_13putEcP6Status+0x9>
     75a: aa           	tax
     75b: 86 24        	stx	$24                     ; 0x2024 <_ZN12_GLOBAL__N_13putEcP6Status+0x1d>
     75d: a2 d1        	ldx	#$d1
     75f: 86 25        	stx	$25                     ; 0x2025 <_ZN12_GLOBAL__N_13putEcP6Status+0x1e>
     761: a2 7b        	ldx	#$7b
     763: 8e a1 dd     	stx	$dda1                   ; 0xdda1 <end_block9+0xa657>
     766: 9c a1 dd     	stz	$dda1                   ; 0xdda1 <end_block9+0xa657>
     769: a2 ff        	ldx	#$ff
     76b: 8e a1 dd     	stx	$dda1                   ; 0xdda1 <end_block9+0xa657>
     76e: a2 c0        	ldx	#$c0
     770: 8e a1 dd     	stx	$dda1                   ; 0xdda1 <end_block9+0xa657>
     773: a2 13        	ldx	#$13
     775: 8e a1 dd     	stx	$dda1                   ; 0xdda1 <end_block9+0xa657>
     778: a0 c1        	ldy	#$c1
     77a: 8c a1 dd     	sty	$dda1                   ; 0xdda1 <end_block9+0xa657>
     77d: 8e a1 dd     	stx	$dda1                   ; 0xdda1 <end_block9+0xa657>
     780: a2 01        	ldx	#$1
     782: 86 8a        	stx	$8a                     ; 0x208a <_ZN12_GLOBAL__N_13putEcP6Status+0x83>
     784: a0 1e        	ldy	#$1e
     786: 84 8b        	sty	$8b                     ; 0x208b <_ZN12_GLOBAL__N_13putEcP6Status+0x84>
     788: a0 03        	ldy	#$3
     78a: 84 8c        	sty	$8c                     ; 0x208c <_ZN12_GLOBAL__N_13putEcP6Status+0x85>
     78c: 64 01        	stz	$1                      ; 0x2001 <bitmapLine+0x437>
     78e: a0 3f        	ldy	#$3f
     790: 8c 00 d0     	sty	$d000                   ; 0xd000 <end_block9+0x98b6>
     793: a0 14        	ldy	#$14
     795: 8c 01 d0     	sty	$d001                   ; 0xd001 <end_block9+0x98b7>
     798: 8e 02 d0     	stx	$d002                   ; 0xd002 <end_block9+0x98b8>
     79b: a0 04        	ldy	#$4
     79d: 8c 03 d0     	sty	$d003                   ; 0xd003 <end_block9+0x98b9>
     7a0: 86 01        	stx	$1                      ; 0x2001 <bitmapLine+0x437>
     7a2: a0 d0        	ldy	#$d0
     7a4: aa           	tax
     7a5: 86 12        	stx	$12                     ; 0x2012 <_ZN12_GLOBAL__N_13putEcP6Status+0xb>
     7a7: 84 13        	sty	$13                     ; 0x2013 <_ZN12_GLOBAL__N_13putEcP6Status+0xc>
     7a9: 86 19        	stx	$19                     ; 0x2019 <_ZN12_GLOBAL__N_13putEcP6Status+0x12>
     7ab: a5 0f        	lda	$f                      ; 0x200f <_ZN12_GLOBAL__N_13putEcP6Status+0x8>
     7ad: 85 18        	sta	$18                     ; 0x2018 <_ZN12_GLOBAL__N_13putEcP6Status+0x11>
     7af: 78           	sei
     7b0: a2 14        	ldx	#$14
     7b2: 86 0f        	stx	$f                      ; 0x200f <_ZN12_GLOBAL__N_13putEcP6Status+0x8>
     7b4: a5 19        	lda	$19                     ; 0x2019 <_ZN12_GLOBAL__N_13putEcP6Status+0x12>
     7b6: 18           	clc
     7b7: 69 00        	adc	#$0
     7b9: a2 01        	ldx	#$1
     7bb: b0 02        	bcs	$7bf <f256main+0x7a>
     7bd: a2 00        	ldx	#$0
     7bf: 86 17        	stx	$17                     ; 0x2017 <_ZN12_GLOBAL__N_13putEcP6Status+0x10>
     7c1: 85 16        	sta	$16                     ; 0x2016 <_ZN12_GLOBAL__N_13putEcP6Status+0xf>
     7c3: 98           	tya
     7c4: 69 10        	adc	#$10
     7c6: a6 16        	ldx	$16                     ; 0x2016 <_ZN12_GLOBAL__N_13putEcP6Status+0xf>
     7c8: 86 14        	stx	$14                     ; 0x2014 <_ZN12_GLOBAL__N_13putEcP6Status+0xd>
     7ca: 85 15        	sta	$15                     ; 0x2015 <_ZN12_GLOBAL__N_13putEcP6Status+0xe>
     7cc: b2 14        	lda	($14)                   ; 0x2014 <_ZN12_GLOBAL__N_13putEcP6Status+0xd>
     7ce: a6 18        	ldx	$18                     ; 0x2018 <_ZN12_GLOBAL__N_13putEcP6Status+0x11>
     7d0: 86 0f        	stx	$f                      ; 0x200f <_ZN12_GLOBAL__N_13putEcP6Status+0x8>
     7d2: 58           	cli
     7d3: 92 12        	sta	($12)                   ; 0x2012 <_ZN12_GLOBAL__N_13putEcP6Status+0xb>
     7d5: a6 0f        	ldx	$f                      ; 0x200f <_ZN12_GLOBAL__N_13putEcP6Status+0x8>
     7d7: 78           	sei
     7d8: a9 14        	lda	#$14
     7da: 85 0f        	sta	$f                      ; 0x200f <_ZN12_GLOBAL__N_13putEcP6Status+0x8>
     7dc: 98           	tya
     7dd: 5a           	phy
     7de: a4 17        	ldy	$17                     ; 0x2017 <_ZN12_GLOBAL__N_13putEcP6Status+0x10>
     7e0: c0 01        	cpy	#$1
     7e2: 69 14        	adc	#$14
     7e4: a4 16        	ldy	$16                     ; 0x2016 <_ZN12_GLOBAL__N_13putEcP6Status+0xf>
     7e6: 84 12        	sty	$12                     ; 0x2012 <_ZN12_GLOBAL__N_13putEcP6Status+0xb>
     7e8: 7a           	ply
     7e9: 85 13        	sta	$13                     ; 0x2013 <_ZN12_GLOBAL__N_13putEcP6Status+0xc>
     7eb: b2 12        	lda	($12)                   ; 0x2012 <_ZN12_GLOBAL__N_13putEcP6Status+0xb>
     7ed: 85 14        	sta	$14                     ; 0x2014 <_ZN12_GLOBAL__N_13putEcP6Status+0xd>
     7ef: 86 0f        	stx	$f                      ; 0x200f <_ZN12_GLOBAL__N_13putEcP6Status+0x8>
     7f1: 98           	tya
     7f2: a6 17        	ldx	$17                     ; 0x2017 <_ZN12_GLOBAL__N_13putEcP6Status+0x10>
     7f4: e0 01        	cpx	#$1
     7f6: 69 04        	adc	#$4
     7f8: 58           	cli
     7f9: 85 13        	sta	$13                     ; 0x2013 <_ZN12_GLOBAL__N_13putEcP6Status+0xc>
     7fb: a6 19        	ldx	$19                     ; 0x2019 <_ZN12_GLOBAL__N_13putEcP6Status+0x12>
     7fd: a5 14        	lda	$14                     ; 0x2014 <_ZN12_GLOBAL__N_13putEcP6Status+0xd>
     7ff: 92 12        	sta	($12)                   ; 0x2012 <_ZN12_GLOBAL__N_13putEcP6Status+0xb>
     801: e8           	inx
     802: d0 01        	bne	$805 <f256main+0xc0>
     804: c8           	iny
     805: c0 d3        	cpy	#$d3
     807: f0 03        	beq	$80c <f256main+0xc7>
     809: 4c a5 07     	jmp	$7a5 <f256main+0x60>
     80c: e0 ff        	cpx	#$ff
     80e: f0 03        	beq	$813 <f256main+0xce>
     810: 4c a5 07     	jmp	$7a5 <f256main+0x60>
     813: 64 01        	stz	$1                      ; 0x2001 <bitmapLine+0x437>
     815: 64 34        	stz	$34                     ; 0x2034 <_ZN12_GLOBAL__N_13putEcP6Status+0x2d>
     817: 64 35        	stz	$35                     ; 0x2035 <_ZN12_GLOBAL__N_13putEcP6Status+0x2e>
     819: a2 01        	ldx	#$1
     81b: 86 36        	stx	$36                     ; 0x2036 <_ZN12_GLOBAL__N_13putEcP6Status+0x2f>
     81d: 64 37        	stz	$37                     ; 0x2037 <_ZN12_GLOBAL__N_13putEcP6Status+0x30>
     81f: 9c 01 d1     	stz	$d101                   ; 0xd101 <end_block9+0x99b7>
     822: 9c 02 d1     	stz	$d102                   ; 0xd102 <end_block9+0x99b8>
     825: 8e 03 d1     	stx	$d103                   ; 0xd103 <end_block9+0x99b9>
     828: a2 b6        	ldx	#$b6
     82a: 86 12        	stx	$12                     ; 0x2012 <_ZN12_GLOBAL__N_13putEcP6Status+0xb>
     82c: 64 13        	stz	$13                     ; 0x2013 <_ZN12_GLOBAL__N_13putEcP6Status+0xc>
     82e: a0 64        	ldy	#$64
     830: 84 14        	sty	$14                     ; 0x2014 <_ZN12_GLOBAL__N_13putEcP6Status+0xd>
     832: 64 15        	stz	$15                     ; 0x2015 <_ZN12_GLOBAL__N_13putEcP6Status+0xe>
     834: 86 16        	stx	$16                     ; 0x2016 <_ZN12_GLOBAL__N_13putEcP6Status+0xf>
     836: 64 17        	stz	$17                     ; 0x2017 <_ZN12_GLOBAL__N_13putEcP6Status+0x10>
     838: 86 26        	stx	$26                     ; 0x2026 <_ZN12_GLOBAL__N_13putEcP6Status+0x1f>
     83a: a2 00        	ldx	#$0
     83c: a9 28        	lda	#$28
     83e: 20 ca 1b     	jsr	$1bca <bitmapLine>
     841: a6 26        	ldx	$26                     ; 0x2026 <_ZN12_GLOBAL__N_13putEcP6Status+0x1f>
     843: e8           	inx
     844: e0 c1        	cpx	#$c1
     846: d0 e2        	bne	$82a <f256main+0xe5>
     848: a2 06        	ldx	#$6
     84a: a0 22        	ldy	#$22
     84c: 86 12        	stx	$12                     ; 0x2012 <_ZN12_GLOBAL__N_13putEcP6Status+0xb>
     84e: 64 13        	stz	$13                     ; 0x2013 <_ZN12_GLOBAL__N_13putEcP6Status+0xc>
     850: a9 40        	lda	#$40
     852: 85 14        	sta	$14                     ; 0x2014 <_ZN12_GLOBAL__N_13putEcP6Status+0xd>
     854: a9 01        	lda	#$1
     856: 85 15        	sta	$15                     ; 0x2015 <_ZN12_GLOBAL__N_13putEcP6Status+0xe>
     858: 86 16        	stx	$16                     ; 0x2016 <_ZN12_GLOBAL__N_13putEcP6Status+0xf>
     85a: 64 17        	stz	$17                     ; 0x2017 <_ZN12_GLOBAL__N_13putEcP6Status+0x10>
     85c: 86 26        	stx	$26                     ; 0x2026 <_ZN12_GLOBAL__N_13putEcP6Status+0x1f>
     85e: a2 00        	ldx	#$0
     860: a9 f0        	lda	#$f0
     862: 84 27        	sty	$27                     ; 0x2027 <_ZN12_GLOBAL__N_13putEcP6Status+0x20>
     864: 20 ca 1b     	jsr	$1bca <bitmapLine>
     867: a4 27        	ldy	$27                     ; 0x2027 <_ZN12_GLOBAL__N_13putEcP6Status+0x20>
     869: a6 26        	ldx	$26                     ; 0x2026 <_ZN12_GLOBAL__N_13putEcP6Status+0x1f>
     86b: 88           	dey
     86c: e8           	inx
     86d: 98           	tya
     86e: d0 dc        	bne	$84c <f256main+0x107>
     870: a9 01        	lda	#$1
     872: 0d 45 37     	ora	$3745                   ; 0x3745 <__bss_start>
     875: 8d 00 d1     	sta	$d100                   ; 0xd100 <end_block9+0x99b6>
     878: 9c 08 d1     	stz	$d108                   ; 0xd108 <end_block9+0x99be>
     87b: 9c 10 d1     	stz	$d110                   ; 0xd110 <end_block9+0x99c6>
     87e: a5 40        	lda	$40                     ; 0x2040 <_ZN12_GLOBAL__N_13putEcP6Status+0x39>
     880: 29 01        	and	#$1
     882: a8           	tay
     883: a9 01        	lda	#$1
     885: 25 40        	and	$40                     ; 0x2040 <_ZN12_GLOBAL__N_13putEcP6Status+0x39>
     887: aa           	tax
     888: 9e 45 37     	stz	$3745,x                 ; 0x3745 <__bss_start>
     88b: 98           	tya
     88c: f0 08        	beq	$896 <f256main+0x151>
     88e: a2 08        	ldx	#$8
     890: 86 24        	stx	$24                     ; 0x2024 <_ZN12_GLOBAL__N_13putEcP6Status+0x1d>
     892: a2 d1        	ldx	#$d1
     894: 86 25        	stx	$25                     ; 0x2025 <_ZN12_GLOBAL__N_13putEcP6Status+0x1e>
     896: b2 24        	lda	($24)                   ; 0x2024 <_ZN12_GLOBAL__N_13putEcP6Status+0x1d>
     898: 29 f9        	and	#$f9
     89a: 92 24        	sta	($24)                   ; 0x2024 <_ZN12_GLOBAL__N_13putEcP6Status+0x1d>
     89c: a2 01        	ldx	#$1
     89e: 86 40        	stx	$40                     ; 0x2040 <_ZN12_GLOBAL__N_13putEcP6Status+0x39>
     8a0: 20 a5 06     	jsr	$6a5 <textClear>
     8a3: 64 12        	stz	$12                     ; 0x2012 <_ZN12_GLOBAL__N_13putEcP6Status+0xb>
     8a5: 9c 00 de     	stz	$de00                   ; 0xde00 <end_block9+0xa6b6>
     8a8: 9c 01 de     	stz	$de01                   ; 0xde01 <end_block9+0xa6b7>
     8ab: a2 04        	ldx	#$4
     8ad: 8e 02 de     	stx	$de02                   ; 0xde02 <end_block9+0xa6b8>
     8b0: 9c 03 de     	stz	$de03                   ; 0xde03 <end_block9+0xa6b9>
     8b3: ad 10 de     	lda	$de10                   ; 0xde10 <end_block9+0xa6c6>
     8b6: ae 11 de     	ldx	$de11                   ; 0xde11 <end_block9+0xa6c7>
     8b9: 86 13        	stx	$13                     ; 0x2013 <_ZN12_GLOBAL__N_13putEcP6Status+0xc>
     8bb: ae 12 de     	ldx	$de12                   ; 0xde12 <end_block9+0xa6c8>
     8be: ae 13 de     	ldx	$de13                   ; 0xde13 <end_block9+0xa6c9>
     8c1: 18           	clc
     8c2: 65 12        	adc	$12                     ; 0x2012 <_ZN12_GLOBAL__N_13putEcP6Status+0xb>
     8c4: 85 12        	sta	$12                     ; 0x2012 <_ZN12_GLOBAL__N_13putEcP6Status+0xb>
     8c6: a9 d8        	lda	#$d8
     8c8: 65 13        	adc	$13                     ; 0x2013 <_ZN12_GLOBAL__N_13putEcP6Status+0xc>
     8ca: 85 13        	sta	$13                     ; 0x2013 <_ZN12_GLOBAL__N_13putEcP6Status+0xc>
     8cc: a9 ff        	lda	#$ff
     8ce: 92 12        	sta	($12)                   ; 0x2012 <_ZN12_GLOBAL__N_13putEcP6Status+0xb>
     8d0: a0 01        	ldy	#$1
     8d2: 91 12        	sta	($12),y                 ; 0x2012 <_ZN12_GLOBAL__N_13putEcP6Status+0xb>
     8d4: c8           	iny
     8d5: 91 12        	sta	($12),y                 ; 0x2012 <_ZN12_GLOBAL__N_13putEcP6Status+0xb>
     8d7: c8           	iny
     8d8: 91 12        	sta	($12),y                 ; 0x2012 <_ZN12_GLOBAL__N_13putEcP6Status+0xb>
     8da: ad 01 d0     	lda	$d001                   ; 0xd001 <end_block9+0x98b7>
     8dd: 29 ef        	and	#$ef
     8df: 8d 01 d0     	sta	$d001                   ; 0xd001 <end_block9+0x98b7>
     8e2: a0 10        	ldy	#$10
     8e4: 84 43        	sty	$43                     ; 0x2043 <_ZN12_GLOBAL__N_13putEcP6Status+0x3c>
     8e6: 9c 01 d2     	stz	$d201                   ; 0xd201 <end_block9+0x9ab7>
     8e9: a2 88        	ldx	#$88
     8eb: 8e 02 d2     	stx	$d202                   ; 0xd202 <end_block9+0x9ab8>
     8ee: a2 03        	ldx	#$3
     8f0: 8e 03 d2     	stx	$d203                   ; 0xd203 <end_block9+0x9ab9>
     8f3: a2 17        	ldx	#$17
     8f5: 8e 04 d2     	stx	$d204                   ; 0xd204 <end_block9+0x9aba>
     8f8: 9c 05 d2     	stz	$d205                   ; 0xd205 <end_block9+0x9abb>
     8fb: a2 13        	ldx	#$13
     8fd: 8e 06 d2     	stx	$d206                   ; 0xd206 <end_block9+0x9abc>
     900: 9c 07 d2     	stz	$d207                   ; 0xd207 <end_block9+0x9abd>
     903: 9c 08 d2     	stz	$d208                   ; 0xd208 <end_block9+0x9abe>
     906: 9c 09 d2     	stz	$d209                   ; 0xd209 <end_block9+0x9abf>
     909: 9c 0a d2     	stz	$d20a                   ; 0xd20a <end_block9+0x9ac0>
     90c: 9c 0b d2     	stz	$d20b                   ; 0xd20b <end_block9+0x9ac1>
     90f: 84 44        	sty	$44                     ; 0x2044 <_ZN12_GLOBAL__N_13putEcP6Status+0x3d>
     911: a9 20        	lda	#$20
     913: 8d 0d d2     	sta	$d20d                   ; 0xd20d <end_block9+0x9ac3>
     916: a9 8f        	lda	#$8f
     918: 8d 0e d2     	sta	$d20e                   ; 0xd20e <end_block9+0x9ac4>
     91b: a9 03        	lda	#$3
     91d: 8d 0f d2     	sta	$d20f                   ; 0xd20f <end_block9+0x9ac5>
     920: a9 17        	lda	#$17
     922: 8d 10 d2     	sta	$d210                   ; 0xd210 <end_block9+0x9ac6>
     925: 9c 11 d2     	stz	$d211                   ; 0xd211 <end_block9+0x9ac7>
     928: 8e 12 d2     	stx	$d212                   ; 0xd212 <end_block9+0x9ac8>
     92b: 9c 13 d2     	stz	$d213                   ; 0xd213 <end_block9+0x9ac9>
     92e: 9c 14 d2     	stz	$d214                   ; 0xd214 <end_block9+0x9aca>
     931: 9c 15 d2     	stz	$d215                   ; 0xd215 <end_block9+0x9acb>
     934: 9c 16 d2     	stz	$d216                   ; 0xd216 <end_block9+0x9acc>
     937: 9c 17 d2     	stz	$d217                   ; 0xd217 <end_block9+0x9acd>
     93a: 9c 80 d2     	stz	$d280                   ; 0xd280 <end_block9+0x9b36>
     93d: 9c 81 d2     	stz	$d281                   ; 0xd281 <end_block9+0x9b37>
     940: a2 04        	ldx	#$4
     942: 8e 82 d2     	stx	$d282                   ; 0xd282 <end_block9+0x9b38>
     945: 9c 83 d2     	stz	$d283                   ; 0xd283 <end_block9+0x9b39>
     948: a5 43        	lda	$43                     ; 0x2043 <_ZN12_GLOBAL__N_13putEcP6Status+0x3c>
     94a: a2 11        	ldx	#$11
     94c: c9 08        	cmp	#$8
     94e: f0 02        	beq	$952 <f256main+0x20d>
     950: a2 01        	ldx	#$1
     952: 8e 00 d2     	stx	$d200                   ; 0xd200 <end_block9+0x9ab6>
     955: a6 44        	ldx	$44                     ; 0x2044 <_ZN12_GLOBAL__N_13putEcP6Status+0x3d>
     957: e0 08        	cpx	#$8
     959: f0 02        	beq	$95d <f256main+0x218>
     95b: a0 00        	ldy	#$0
     95d: 8c 0c d2     	sty	$d20c                   ; 0xd20c <end_block9+0x9ac2>
     960: ad 48 37     	lda	$3748                   ; 0x3748 <_tileSize.2>
     963: 29 01        	and	#$1
     965: a2 10        	ldx	#$10
     967: a8           	tay
     968: d0 02        	bne	$96c <f256main+0x227>
     96a: a2 00        	ldx	#$0
     96c: 8e 18 d2     	stx	$d218                   ; 0xd218 <end_block9+0x9ace>
     96f: a2 03        	ldx	#$3
     971: 86 8d        	stx	$8d                     ; 0x208d <_ZN12_GLOBAL__N_13putEcP6Status+0x86>
     973: 64 f3        	stz	$f3                     ; 0x20f3 <_ZN12_GLOBAL__N_112print_stringEPKcP6Status+0x19>
     975: a6 8a        	ldx	$8a                     ; 0x208a <_ZN12_GLOBAL__N_13putEcP6Status+0x83>
     977: 86 f4        	stx	$f4                     ; 0x20f4 <_ZN12_GLOBAL__N_112print_stringEPKcP6Status+0x1a>
     979: 64 f5        	stz	$f5                     ; 0x20f5 <_ZN12_GLOBAL__N_112print_stringEPKcP6Status+0x1b>
     97b: 18           	clc
     97c: a5 10        	lda	$10                     ; 0x2010 <_ZN12_GLOBAL__N_13putEcP6Status+0x9>
     97e: 69 0e        	adc	#$e
     980: 85 16        	sta	$16                     ; 0x2016 <_ZN12_GLOBAL__N_13putEcP6Status+0xf>
     982: a5 11        	lda	$11                     ; 0x2011 <_ZN12_GLOBAL__N_13putEcP6Status+0xa>
     984: 69 00        	adc	#$0
     986: 85 17        	sta	$17                     ; 0x2017 <_ZN12_GLOBAL__N_13putEcP6Status+0x10>
     988: a2 49        	ldx	#$49
     98a: 86 12        	stx	$12                     ; 0x2012 <_ZN12_GLOBAL__N_13putEcP6Status+0xb>
     98c: a2 37        	ldx	#$37
     98e: 86 13        	stx	$13                     ; 0x2013 <_ZN12_GLOBAL__N_13putEcP6Status+0xc>
     990: a0 d9        	ldy	#$d9
     992: 64 18        	stz	$18                     ; 0x2018 <_ZN12_GLOBAL__N_13putEcP6Status+0x11>
     994: a2 00        	ldx	#$0
     996: 5a           	phy
     997: a5 16        	lda	$16                     ; 0x2016 <_ZN12_GLOBAL__N_13putEcP6Status+0xf>
     999: a0 05        	ldy	#$5
     99b: 91 10        	sta	($10),y                 ; 0x2010 <_ZN12_GLOBAL__N_13putEcP6Status+0x9>
     99d: a5 17        	lda	$17                     ; 0x2017 <_ZN12_GLOBAL__N_13putEcP6Status+0x10>
     99f: c8           	iny
     9a0: 91 10        	sta	($10),y                 ; 0x2010 <_ZN12_GLOBAL__N_13putEcP6Status+0x9>
     9a2: 7a           	ply
     9a3: 20 f0 ff     	jsr	$fff0 <end_block9+0xc8a6>
     9a6: 92 16        	sta	($16)                   ; 0x2016 <_ZN12_GLOBAL__N_13putEcP6Status+0xf>
     9a8: a9 00        	lda	#$0
     9aa: 6a           	ror
     9ab: 85 12        	sta	$12                     ; 0x2012 <_ZN12_GLOBAL__N_13putEcP6Status+0xb>
     9ad: a5 18        	lda	$18                     ; 0x2018 <_ZN12_GLOBAL__N_13putEcP6Status+0x11>
     9af: 85 12        	sta	$12                     ; 0x2012 <_ZN12_GLOBAL__N_13putEcP6Status+0xb>
     9b1: 84 13        	sty	$13                     ; 0x2013 <_ZN12_GLOBAL__N_13putEcP6Status+0xc>
     9b3: a9 60        	lda	#$60
     9b5: 9d 45 00     	sta	$45,x                   ; 0x45 <_spriteCtl>
     9b8: 92 12        	sta	($12)                   ; 0x2012 <_ZN12_GLOBAL__N_13putEcP6Status+0xb>
     9ba: a5 18        	lda	$18                     ; 0x2018 <_ZN12_GLOBAL__N_13putEcP6Status+0x11>
     9bc: 09 01        	ora	#$1
     9be: 85 12        	sta	$12                     ; 0x2012 <_ZN12_GLOBAL__N_13putEcP6Status+0xb>
     9c0: a9 00        	lda	#$0
     9c2: 92 12        	sta	($12)                   ; 0x2012 <_ZN12_GLOBAL__N_13putEcP6Status+0xb>
     9c4: a5 18        	lda	$18                     ; 0x2018 <_ZN12_GLOBAL__N_13putEcP6Status+0x11>
     9c6: 09 02        	ora	#$2
     9c8: 85 12        	sta	$12                     ; 0x2012 <_ZN12_GLOBAL__N_13putEcP6Status+0xb>
     9ca: a9 88        	lda	#$88
     9cc: 92 12        	sta	($12)                   ; 0x2012 <_ZN12_GLOBAL__N_13putEcP6Status+0xb>
     9ce: a5 18        	lda	$18                     ; 0x2018 <_ZN12_GLOBAL__N_13putEcP6Status+0x11>
     9d0: 09 03        	ora	#$3
     9d2: 85 12        	sta	$12                     ; 0x2012 <_ZN12_GLOBAL__N_13putEcP6Status+0xb>
     9d4: a9 02        	lda	#$2
     9d6: 92 12        	sta	($12)                   ; 0x2012 <_ZN12_GLOBAL__N_13putEcP6Status+0xb>
     9d8: e8           	inx
     9d9: 18           	clc
     9da: a5 18        	lda	$18                     ; 0x2018 <_ZN12_GLOBAL__N_13putEcP6Status+0x11>
     9dc: 69 08        	adc	#$8
     9de: 85 18        	sta	$18                     ; 0x2018 <_ZN12_GLOBAL__N_13putEcP6Status+0x11>
     9e0: 98           	tya
     9e1: 69 00        	adc	#$0
     9e3: a8           	tay
     9e4: e0 09        	cpx	#$9
     9e6: d0 c5        	bne	$9ad <f256main+0x268>
     9e8: 64 4f        	stz	$4f                     ; 0x204f <_ZN12_GLOBAL__N_13putEcP6Status+0x48>
     9ea: 9c 50 d9     	stz	$d950                   ; 0xd950 <end_block9+0xa206>
     9ed: 9c 51 d9     	stz	$d951                   ; 0xd951 <end_block9+0xa207>
     9f0: a2 80        	ldx	#$80
     9f2: 8e 52 d9     	stx	$d952                   ; 0xd952 <end_block9+0xa208>
     9f5: a0 03        	ldy	#$3
     9f7: 8c 53 d9     	sty	$d953                   ; 0xd953 <end_block9+0xa209>
     9fa: 64 50        	stz	$50                     ; 0x2050 <_ZN12_GLOBAL__N_13putEcP6Status+0x49>
     9fc: 9c 58 d9     	stz	$d958                   ; 0xd958 <end_block9+0xa20e>
     9ff: 9c 59 d9     	stz	$d959                   ; 0xd959 <end_block9+0xa20f>
     a02: a2 84        	ldx	#$84
     a04: 8e 5a d9     	stx	$d95a                   ; 0xd95a <end_block9+0xa210>
     a07: 8c 5b d9     	sty	$d95b                   ; 0xd95b <end_block9+0xa211>
     a0a: a2 05        	ldx	#$5
     a0c: 86 32        	stx	$32                     ; 0x2032 <_ZN12_GLOBAL__N_13putEcP6Status+0x2b>
     a0e: 8e 14 d0     	stx	$d014                   ; 0xd014 <end_block9+0x98ca>
     a11: 9c 15 d0     	stz	$d015                   ; 0xd015 <end_block9+0x98cb>
     a14: 64 33        	stz	$33                     ; 0x2033 <_ZN12_GLOBAL__N_13putEcP6Status+0x2c>
     a16: 9c 16 d0     	stz	$d016                   ; 0xd016 <end_block9+0x98cc>
     a19: 9c 17 d0     	stz	$d017                   ; 0xd017 <end_block9+0x98cd>
     a1c: a2 56        	ldx	#$56
     a1e: 86 12        	stx	$12                     ; 0x2012 <_ZN12_GLOBAL__N_13putEcP6Status+0xb>
     a20: a2 36        	ldx	#$36
     a22: 86 13        	stx	$13                     ; 0x2013 <_ZN12_GLOBAL__N_13putEcP6Status+0xc>
     a24: 20 e6 21     	jsr	$21e6 <printf>
     a27: a2 05        	ldx	#$5
     a29: 86 32        	stx	$32                     ; 0x2032 <_ZN12_GLOBAL__N_13putEcP6Status+0x2b>
     a2b: 8e 14 d0     	stx	$d014                   ; 0xd014 <end_block9+0x98ca>
     a2e: 9c 15 d0     	stz	$d015                   ; 0xd015 <end_block9+0x98cb>
     a31: a2 01        	ldx	#$1
     a33: 86 33        	stx	$33                     ; 0x2033 <_ZN12_GLOBAL__N_13putEcP6Status+0x2c>
     a35: 8e 16 d0     	stx	$d016                   ; 0xd016 <end_block9+0x98cc>
     a38: 9c 17 d0     	stz	$d017                   ; 0xd017 <end_block9+0x98cd>
     a3b: a2 7c        	ldx	#$7c
     a3d: 86 12        	stx	$12                     ; 0x2012 <_ZN12_GLOBAL__N_13putEcP6Status+0xb>
     a3f: a2 36        	ldx	#$36
     a41: 86 13        	stx	$13                     ; 0x2013 <_ZN12_GLOBAL__N_13putEcP6Status+0xc>
     a43: 20 e6 21     	jsr	$21e6 <printf>
     a46: a2 3c        	ldx	#$3c
     a48: 86 32        	stx	$32                     ; 0x2032 <_ZN12_GLOBAL__N_13putEcP6Status+0x2b>
     a4a: 8e 14 d0     	stx	$d014                   ; 0xd014 <end_block9+0x98ca>
     a4d: 9c 15 d0     	stz	$d015                   ; 0xd015 <end_block9+0x98cb>
     a50: a2 01        	ldx	#$1
     a52: 86 33        	stx	$33                     ; 0x2033 <_ZN12_GLOBAL__N_13putEcP6Status+0x2c>
     a54: 8e 16 d0     	stx	$d016                   ; 0xd016 <end_block9+0x98cc>
     a57: 9c 17 d0     	stz	$d017                   ; 0xd017 <end_block9+0x98cd>
     a5a: a2 57        	ldx	#$57
     a5c: 86 12        	stx	$12                     ; 0x2012 <_ZN12_GLOBAL__N_13putEcP6Status+0xb>
     a5e: a2 35        	ldx	#$35
     a60: 86 13        	stx	$13                     ; 0x2013 <_ZN12_GLOBAL__N_13putEcP6Status+0xc>
     a62: 20 e6 21     	jsr	$21e6 <printf>
     a65: a2 21        	ldx	#$21
     a67: 86 32        	stx	$32                     ; 0x2032 <_ZN12_GLOBAL__N_13putEcP6Status+0x2b>
     a69: 8e 14 d0     	stx	$d014                   ; 0xd014 <end_block9+0x98ca>
     a6c: 9c 15 d0     	stz	$d015                   ; 0xd015 <end_block9+0x98cb>
     a6f: a2 10        	ldx	#$10
     a71: 86 33        	stx	$33                     ; 0x2033 <_ZN12_GLOBAL__N_13putEcP6Status+0x2c>
     a73: 8e 16 d0     	stx	$d016                   ; 0xd016 <end_block9+0x98cc>
     a76: 9c 17 d0     	stz	$d017                   ; 0xd017 <end_block9+0x98cd>
     a79: a2 2a        	ldx	#$2a
     a7b: 86 12        	stx	$12                     ; 0x2012 <_ZN12_GLOBAL__N_13putEcP6Status+0xb>
     a7d: a2 36        	ldx	#$36
     a7f: 86 13        	stx	$13                     ; 0x2013 <_ZN12_GLOBAL__N_13putEcP6Status+0xc>
     a81: 20 e6 21     	jsr	$21e6 <printf>
     a84: a2 22        	ldx	#$22
     a86: 86 32        	stx	$32                     ; 0x2032 <_ZN12_GLOBAL__N_13putEcP6Status+0x2b>
     a88: 8e 14 d0     	stx	$d014                   ; 0xd014 <end_block9+0x98ca>
     a8b: 9c 15 d0     	stz	$d015                   ; 0xd015 <end_block9+0x98cb>
     a8e: a2 17        	ldx	#$17
     a90: 86 33        	stx	$33                     ; 0x2033 <_ZN12_GLOBAL__N_13putEcP6Status+0x2c>
     a92: 8e 16 d0     	stx	$d016                   ; 0xd016 <end_block9+0x98cc>
     a95: 9c 17 d0     	stz	$d017                   ; 0xd017 <end_block9+0x98cd>
     a98: a2 f3        	ldx	#$f3
     a9a: 86 12        	stx	$12                     ; 0x2012 <_ZN12_GLOBAL__N_13putEcP6Status+0xb>
     a9c: a2 36        	ldx	#$36
     a9e: 86 13        	stx	$13                     ; 0x2013 <_ZN12_GLOBAL__N_13putEcP6Status+0xc>
     aa0: 20 e6 21     	jsr	$21e6 <printf>
     aa3: a2 0c        	ldx	#$c
     aa5: 86 32        	stx	$32                     ; 0x2032 <_ZN12_GLOBAL__N_13putEcP6Status+0x2b>
     aa7: 8e 14 d0     	stx	$d014                   ; 0xd014 <end_block9+0x98ca>
     aaa: 9c 15 d0     	stz	$d015                   ; 0xd015 <end_block9+0x98cb>
     aad: a2 17        	ldx	#$17
     aaf: 86 33        	stx	$33                     ; 0x2033 <_ZN12_GLOBAL__N_13putEcP6Status+0x2c>
     ab1: 8e 16 d0     	stx	$d016                   ; 0xd016 <end_block9+0x98cc>
     ab4: 9c 17 d0     	stz	$d017                   ; 0xd017 <end_block9+0x98cd>
     ab7: a2 a0        	ldx	#$a0
     ab9: 86 12        	stx	$12                     ; 0x2012 <_ZN12_GLOBAL__N_13putEcP6Status+0xb>
     abb: a2 35        	ldx	#$35
     abd: 86 13        	stx	$13                     ; 0x2013 <_ZN12_GLOBAL__N_13putEcP6Status+0xc>
     abf: 20 e6 21     	jsr	$21e6 <printf>
     ac2: a2 3c        	ldx	#$3c
     ac4: 86 32        	stx	$32                     ; 0x2032 <_ZN12_GLOBAL__N_13putEcP6Status+0x2b>
     ac6: 8e 14 d0     	stx	$d014                   ; 0xd014 <end_block9+0x98ca>
     ac9: 9c 15 d0     	stz	$d015                   ; 0xd015 <end_block9+0x98cb>
     acc: a2 02        	ldx	#$2
     ace: 86 33        	stx	$33                     ; 0x2033 <_ZN12_GLOBAL__N_13putEcP6Status+0x2c>
     ad0: 8e 16 d0     	stx	$d016                   ; 0xd016 <end_block9+0x98cc>
     ad3: 9c 17 d0     	stz	$d017                   ; 0xd017 <end_block9+0x98cd>
     ad6: a2 8f        	ldx	#$8f
     ad8: 86 12        	stx	$12                     ; 0x2012 <_ZN12_GLOBAL__N_13putEcP6Status+0xb>
     ada: a2 35        	ldx	#$35
     adc: 86 13        	stx	$13                     ; 0x2013 <_ZN12_GLOBAL__N_13putEcP6Status+0xc>
     ade: 20 e6 21     	jsr	$21e6 <printf>
     ae1: a2 3c        	ldx	#$3c
     ae3: 86 32        	stx	$32                     ; 0x2032 <_ZN12_GLOBAL__N_13putEcP6Status+0x2b>
     ae5: 8e 14 d0     	stx	$d014                   ; 0xd014 <end_block9+0x98ca>
     ae8: 9c 15 d0     	stz	$d015                   ; 0xd015 <end_block9+0x98cb>
     aeb: a2 03        	ldx	#$3
     aed: 86 33        	stx	$33                     ; 0x2033 <_ZN12_GLOBAL__N_13putEcP6Status+0x2c>
     aef: 8e 16 d0     	stx	$d016                   ; 0xd016 <end_block9+0x98cc>
     af2: 9c 17 d0     	stz	$d017                   ; 0xd017 <end_block9+0x98cd>
     af5: a2 36        	ldx	#$36
     af7: 86 12        	stx	$12                     ; 0x2012 <_ZN12_GLOBAL__N_13putEcP6Status+0xb>
     af9: a2 37        	ldx	#$37
     afb: 86 13        	stx	$13                     ; 0x2013 <_ZN12_GLOBAL__N_13putEcP6Status+0xc>
     afd: 20 e6 21     	jsr	$21e6 <printf>
     b00: a2 80        	ldx	#$80
     b02: 86 f3        	stx	$f3                     ; 0x20f3 <_ZN12_GLOBAL__N_112print_stringEPKcP6Status+0x19>
     b04: a2 49        	ldx	#$49
     b06: 86 12        	stx	$12                     ; 0x2012 <_ZN12_GLOBAL__N_13putEcP6Status+0xb>
     b08: a2 37        	ldx	#$37
     b0a: 86 13        	stx	$13                     ; 0x2013 <_ZN12_GLOBAL__N_13putEcP6Status+0xc>
     b0c: a0 05        	ldy	#$5
     b0e: b1 10        	lda	($10),y                 ; 0x2010 <_ZN12_GLOBAL__N_13putEcP6Status+0x9>
     b10: 85 16        	sta	$16                     ; 0x2016 <_ZN12_GLOBAL__N_13putEcP6Status+0xf>
     b12: c8           	iny
     b13: b1 10        	lda	($10),y                 ; 0x2010 <_ZN12_GLOBAL__N_13putEcP6Status+0x9>
     b15: 85 17        	sta	$17                     ; 0x2017 <_ZN12_GLOBAL__N_13putEcP6Status+0x10>
     b17: 20 f0 ff     	jsr	$fff0 <end_block9+0xc8a6>
     b1a: 92 16        	sta	($16)                   ; 0x2016 <_ZN12_GLOBAL__N_13putEcP6Status+0xf>
     b1c: a9 00        	lda	#$0
     b1e: 6a           	ror
     b1f: 85 12        	sta	$12                     ; 0x2012 <_ZN12_GLOBAL__N_13putEcP6Status+0xb>
     b21: a9 03        	lda	#$3
     b23: 18           	clc
     b24: 72 16        	adc	($16)                   ; 0x2016 <_ZN12_GLOBAL__N_13putEcP6Status+0xf>
     b26: 85 8d        	sta	$8d                     ; 0x208d <_ZN12_GLOBAL__N_13putEcP6Status+0x86>
     b28: 64 f3        	stz	$f3                     ; 0x20f3 <_ZN12_GLOBAL__N_112print_stringEPKcP6Status+0x19>
     b2a: a6 8d        	ldx	$8d                     ; 0x208d <_ZN12_GLOBAL__N_13putEcP6Status+0x86>
     b2c: 86 f4        	stx	$f4                     ; 0x20f4 <_ZN12_GLOBAL__N_112print_stringEPKcP6Status+0x1a>
     b2e: a2 03        	ldx	#$3
     b30: 86 f5        	stx	$f5                     ; 0x20f5 <_ZN12_GLOBAL__N_112print_stringEPKcP6Status+0x1b>
     b32: 20 f0 ff     	jsr	$fff0 <end_block9+0xc8a6>
     b35: 92 16        	sta	($16)                   ; 0x2016 <_ZN12_GLOBAL__N_13putEcP6Status+0xf>
     b37: a9 00        	lda	#$0
     b39: 6a           	ror
     b3a: 85 12        	sta	$12                     ; 0x2012 <_ZN12_GLOBAL__N_13putEcP6Status+0xb>
     b3c: 64 01        	stz	$1                      ; 0x2001 <bitmapLine+0x437>
     b3e: 64 12        	stz	$12                     ; 0x2012 <_ZN12_GLOBAL__N_13putEcP6Status+0xb>
     b40: a9 00        	lda	#$0
     b42: a0 04        	ldy	#$4
     b44: 91 10        	sta	($10),y                 ; 0x2010 <_ZN12_GLOBAL__N_13putEcP6Status+0x9>
     b46: 64 26        	stz	$26                     ; 0x2026 <_ZN12_GLOBAL__N_13putEcP6Status+0x1f>
     b48: a0 02        	ldy	#$2
     b4a: 91 10        	sta	($10),y                 ; 0x2010 <_ZN12_GLOBAL__N_13putEcP6Status+0x9>
     b4c: a0 09        	ldy	#$9
     b4e: 91 10        	sta	($10),y                 ; 0x2010 <_ZN12_GLOBAL__N_13putEcP6Status+0x9>
     b50: a8           	tay
     b51: a2 13        	ldx	#$13
     b53: 64 2e        	stz	$2e                     ; 0x202e <_ZN12_GLOBAL__N_13putEcP6Status+0x27>
     b55: 64 29        	stz	$29                     ; 0x2029 <_ZN12_GLOBAL__N_13putEcP6Status+0x22>
     b57: 5a           	phy
     b58: a0 0c        	ldy	#$c
     b5a: 91 10        	sta	($10),y                 ; 0x2010 <_ZN12_GLOBAL__N_13putEcP6Status+0x9>
     b5c: a9 80        	lda	#$80
     b5e: a0 03        	ldy	#$3
     b60: 4c 60 1b     	jmp	$1b60 <f256main+0x141b>
     b63: 5a           	phy
     b64: a0 09        	ldy	#$9
     b66: b1 10        	lda	($10),y                 ; 0x2010 <_ZN12_GLOBAL__N_13putEcP6Status+0x9>
     b68: c8           	iny
     b69: 91 10        	sta	($10),y                 ; 0x2010 <_ZN12_GLOBAL__N_13putEcP6Status+0x9>
     b6b: 7a           	ply
     b6c: 98           	tya
     b6d: a0 0b        	ldy	#$b
     b6f: 91 10        	sta	($10),y                 ; 0x2010 <_ZN12_GLOBAL__N_13putEcP6Status+0x9>
     b71: a0 08        	ldy	#$8
     b73: b1 10        	lda	($10),y                 ; 0x2010 <_ZN12_GLOBAL__N_13putEcP6Status+0x9>
     b75: 85 17        	sta	$17                     ; 0x2017 <_ZN12_GLOBAL__N_13putEcP6Status+0x10>
     b77: a5 29        	lda	$29                     ; 0x2029 <_ZN12_GLOBAL__N_13putEcP6Status+0x22>
     b79: a0 0d        	ldy	#$d
     b7b: 91 10        	sta	($10),y                 ; 0x2010 <_ZN12_GLOBAL__N_13putEcP6Status+0x9>
     b7d: a5 2e        	lda	$2e                     ; 0x202e <_ZN12_GLOBAL__N_13putEcP6Status+0x27>
     b7f: 85 2e        	sta	$2e                     ; 0x202e <_ZN12_GLOBAL__N_13putEcP6Status+0x27>
     b81: 64 90        	stz	$90                     ; 0x2090 <_ZN12_GLOBAL__N_13putEcP6Status+0x89>
     b83: a2 49        	ldx	#$49
     b85: 86 12        	stx	$12                     ; 0x2012 <_ZN12_GLOBAL__N_13putEcP6Status+0xb>
     b87: a2 37        	ldx	#$37
     b89: 86 13        	stx	$13                     ; 0x2013 <_ZN12_GLOBAL__N_13putEcP6Status+0xc>
     b8b: a0 05        	ldy	#$5
     b8d: b1 10        	lda	($10),y                 ; 0x2010 <_ZN12_GLOBAL__N_13putEcP6Status+0x9>
     b8f: 85 14        	sta	$14                     ; 0x2014 <_ZN12_GLOBAL__N_13putEcP6Status+0xd>
     b91: c8           	iny
     b92: b1 10        	lda	($10),y                 ; 0x2010 <_ZN12_GLOBAL__N_13putEcP6Status+0x9>
     b94: 85 15        	sta	$15                     ; 0x2015 <_ZN12_GLOBAL__N_13putEcP6Status+0xe>
     b96: 20 00 ff     	jsr	$ff00 <end_block9+0xc7b6>
     b99: 92 14        	sta	($14)                   ; 0x2014 <_ZN12_GLOBAL__N_13putEcP6Status+0xd>
     b9b: a9 00        	lda	#$0
     b9d: 6a           	ror
     b9e: 85 12        	sta	$12                     ; 0x2012 <_ZN12_GLOBAL__N_13putEcP6Status+0xb>
     ba0: a5 90        	lda	$90                     ; 0x2090 <_ZN12_GLOBAL__N_13putEcP6Status+0x89>
     ba2: c9 08        	cmp	#$8
     ba4: d0 03        	bne	$ba9 <f256main+0x464>
     ba6: 4c 95 0c     	jmp	$c95 <f256main+0x550>
     ba9: c9 0a        	cmp	#$a
     bab: d0 03        	bne	$bb0 <f256main+0x46b>
     bad: 4c 78 0c     	jmp	$c78 <f256main+0x533>
     bb0: 48           	pha
     bb1: a0 0d        	ldy	#$d
     bb3: b1 10        	lda	($10),y                 ; 0x2010 <_ZN12_GLOBAL__N_13putEcP6Status+0x9>
     bb5: 85 29        	sta	$29                     ; 0x2029 <_ZN12_GLOBAL__N_13putEcP6Status+0x22>
     bb7: a5 17        	lda	$17                     ; 0x2017 <_ZN12_GLOBAL__N_13putEcP6Status+0x10>
     bb9: a0 08        	ldy	#$8
     bbb: 91 10        	sta	($10),y                 ; 0x2010 <_ZN12_GLOBAL__N_13putEcP6Status+0x9>
     bbd: a0 0a        	ldy	#$a
     bbf: b1 10        	lda	($10),y                 ; 0x2010 <_ZN12_GLOBAL__N_13putEcP6Status+0x9>
     bc1: 85 13        	sta	$13                     ; 0x2013 <_ZN12_GLOBAL__N_13putEcP6Status+0xc>
     bc3: 88           	dey
     bc4: 91 10        	sta	($10),y                 ; 0x2010 <_ZN12_GLOBAL__N_13putEcP6Status+0x9>
     bc6: a0 0b        	ldy	#$b
     bc8: b1 10        	lda	($10),y                 ; 0x2010 <_ZN12_GLOBAL__N_13putEcP6Status+0x9>
     bca: 85 14        	sta	$14                     ; 0x2014 <_ZN12_GLOBAL__N_13putEcP6Status+0xd>
     bcc: a8           	tay
     bcd: 5a           	phy
     bce: a0 07        	ldy	#$7
     bd0: b1 10        	lda	($10),y                 ; 0x2010 <_ZN12_GLOBAL__N_13putEcP6Status+0x9>
     bd2: 7a           	ply
     bd3: 85 12        	sta	$12                     ; 0x2012 <_ZN12_GLOBAL__N_13putEcP6Status+0xb>
     bd5: 68           	pla
     bd6: a6 12        	ldx	$12                     ; 0x2012 <_ZN12_GLOBAL__N_13putEcP6Status+0xb>
     bd8: c9 52        	cmp	#$52
     bda: f0 03        	beq	$bdf <f256main+0x49a>
     bdc: 4c 63 1b     	jmp	$1b63 <f256main+0x141e>
     bdf: a5 94        	lda	$94                     ; 0x2094 <_ZN12_GLOBAL__N_13putEcP6Status+0x8d>
     be1: c9 04        	cmp	#$4
     be3: 48           	pha
     be4: a5 13        	lda	$13                     ; 0x2013 <_ZN12_GLOBAL__N_13putEcP6Status+0xc>
     be6: a0 09        	ldy	#$9
     be8: 91 10        	sta	($10),y                 ; 0x2010 <_ZN12_GLOBAL__N_13putEcP6Status+0x9>
     bea: 68           	pla
     beb: a4 14        	ldy	$14                     ; 0x2014 <_ZN12_GLOBAL__N_13putEcP6Status+0xd>
     bed: a6 12        	ldx	$12                     ; 0x2012 <_ZN12_GLOBAL__N_13putEcP6Status+0xb>
     bef: 90 03        	bcc	$bf4 <f256main+0x4af>
     bf1: 4c 63 1b     	jmp	$1b63 <f256main+0x141e>
     bf4: 48           	pha
     bf5: a0 03        	ldy	#$3
     bf7: b1 10        	lda	($10),y                 ; 0x2010 <_ZN12_GLOBAL__N_13putEcP6Status+0x9>
     bf9: 85 12        	sta	$12                     ; 0x2012 <_ZN12_GLOBAL__N_13putEcP6Status+0xb>
     bfb: 68           	pla
     bfc: 0a           	asl
     bfd: aa           	tax
     bfe: 7c d6 2f     	jmp	($2fd6,x)               ; 0x2fd6 <__set_v+0x9>
     c01: a2 3c        	ldx	#$3c
     c03: 86 32        	stx	$32                     ; 0x2032 <_ZN12_GLOBAL__N_13putEcP6Status+0x2b>
     c05: 8e 14 d0     	stx	$d014                   ; 0xd014 <end_block9+0x98ca>
     c08: 9c 15 d0     	stz	$d015                   ; 0xd015 <end_block9+0x98cb>
     c0b: a2 04        	ldx	#$4
     c0d: 86 33        	stx	$33                     ; 0x2033 <_ZN12_GLOBAL__N_13putEcP6Status+0x2c>
     c0f: 8e 16 d0     	stx	$d016                   ; 0xd016 <end_block9+0x98cc>
     c12: 9c 17 d0     	stz	$d017                   ; 0xd017 <end_block9+0x98cd>
     c15: a5 87        	lda	$87                     ; 0x2087 <_ZN12_GLOBAL__N_13putEcP6Status+0x80>
     c17: 92 10        	sta	($10)                   ; 0x2010 <_ZN12_GLOBAL__N_13putEcP6Status+0x9>
     c19: a9 00        	lda	#$0
     c1b: a0 01        	ldy	#$1
     c1d: 91 10        	sta	($10),y                 ; 0x2010 <_ZN12_GLOBAL__N_13putEcP6Status+0x9>
     c1f: a2 71        	ldx	#$71
     c21: 86 12        	stx	$12                     ; 0x2012 <_ZN12_GLOBAL__N_13putEcP6Status+0xb>
     c23: a2 36        	ldx	#$36
     c25: 86 13        	stx	$13                     ; 0x2013 <_ZN12_GLOBAL__N_13putEcP6Status+0xc>
     c27: 20 e6 21     	jsr	$21e6 <printf>
     c2a: a2 80        	ldx	#$80
     c2c: 86 f3        	stx	$f3                     ; 0x20f3 <_ZN12_GLOBAL__N_112print_stringEPKcP6Status+0x19>
     c2e: a2 49        	ldx	#$49
     c30: 86 12        	stx	$12                     ; 0x2012 <_ZN12_GLOBAL__N_13putEcP6Status+0xb>
     c32: a2 37        	ldx	#$37
     c34: 86 13        	stx	$13                     ; 0x2013 <_ZN12_GLOBAL__N_13putEcP6Status+0xc>
     c36: a0 05        	ldy	#$5
     c38: b1 10        	lda	($10),y                 ; 0x2010 <_ZN12_GLOBAL__N_13putEcP6Status+0x9>
     c3a: 85 18        	sta	$18                     ; 0x2018 <_ZN12_GLOBAL__N_13putEcP6Status+0x11>
     c3c: c8           	iny
     c3d: b1 10        	lda	($10),y                 ; 0x2010 <_ZN12_GLOBAL__N_13putEcP6Status+0x9>
     c3f: 85 19        	sta	$19                     ; 0x2019 <_ZN12_GLOBAL__N_13putEcP6Status+0x12>
     c41: 20 f0 ff     	jsr	$fff0 <end_block9+0xc8a6>
     c44: 92 18        	sta	($18)                   ; 0x2018 <_ZN12_GLOBAL__N_13putEcP6Status+0x11>
     c46: a9 00        	lda	#$0
     c48: 6a           	ror
     c49: 85 12        	sta	$12                     ; 0x2012 <_ZN12_GLOBAL__N_13putEcP6Status+0xb>
     c4b: b2 18        	lda	($18)                   ; 0x2018 <_ZN12_GLOBAL__N_13putEcP6Status+0x11>
     c4d: 1a           	inc
     c4e: 85 8a        	sta	$8a                     ; 0x208a <_ZN12_GLOBAL__N_13putEcP6Status+0x83>
     c50: 64 f3        	stz	$f3                     ; 0x20f3 <_ZN12_GLOBAL__N_112print_stringEPKcP6Status+0x19>
     c52: a6 8a        	ldx	$8a                     ; 0x208a <_ZN12_GLOBAL__N_13putEcP6Status+0x83>
     c54: 86 f4        	stx	$f4                     ; 0x20f4 <_ZN12_GLOBAL__N_112print_stringEPKcP6Status+0x1a>
     c56: 64 f5        	stz	$f5                     ; 0x20f5 <_ZN12_GLOBAL__N_112print_stringEPKcP6Status+0x1b>
     c58: a0 0a        	ldy	#$a
     c5a: b1 10        	lda	($10),y                 ; 0x2010 <_ZN12_GLOBAL__N_13putEcP6Status+0x9>
     c5c: 88           	dey
     c5d: 91 10        	sta	($10),y                 ; 0x2010 <_ZN12_GLOBAL__N_13putEcP6Status+0x9>
     c5f: a0 0b        	ldy	#$b
     c61: b1 10        	lda	($10),y                 ; 0x2010 <_ZN12_GLOBAL__N_13putEcP6Status+0x9>
     c63: a8           	tay
     c64: 5a           	phy
     c65: a0 07        	ldy	#$7
     c67: b1 10        	lda	($10),y                 ; 0x2010 <_ZN12_GLOBAL__N_13putEcP6Status+0x9>
     c69: 7a           	ply
     c6a: aa           	tax
     c6b: 20 f0 ff     	jsr	$fff0 <end_block9+0xc8a6>
     c6e: 92 18        	sta	($18)                   ; 0x2018 <_ZN12_GLOBAL__N_13putEcP6Status+0x11>
     c70: a9 00        	lda	#$0
     c72: 6a           	ror
     c73: 85 12        	sta	$12                     ; 0x2012 <_ZN12_GLOBAL__N_13putEcP6Status+0xb>
     c75: 4c 63 1b     	jmp	$1b63 <f256main+0x141e>
     c78: a5 89        	lda	$89                     ; 0x2089 <_ZN12_GLOBAL__N_13putEcP6Status+0x82>
     c7a: 29 01        	and	#$1
     c7c: d0 03        	bne	$c81 <f256main+0x53c>
     c7e: 4c 04 11     	jmp	$1104 <f256main+0x9bf>
     c81: a0 0d        	ldy	#$d
     c83: b1 10        	lda	($10),y                 ; 0x2010 <_ZN12_GLOBAL__N_13putEcP6Status+0x9>
     c85: 85 29        	sta	$29                     ; 0x2029 <_ZN12_GLOBAL__N_13putEcP6Status+0x22>
     c87: a5 17        	lda	$17                     ; 0x2017 <_ZN12_GLOBAL__N_13putEcP6Status+0x10>
     c89: a0 08        	ldy	#$8
     c8b: 91 10        	sta	($10),y                 ; 0x2010 <_ZN12_GLOBAL__N_13putEcP6Status+0x9>
     c8d: a2 9f        	ldx	#$9f
     c8f: 8e 08 d6     	stx	$d608                   ; 0xd608 <end_block9+0x9ebe>
     c92: 4c 28 11     	jmp	$1128 <f256main+0x9e3>
     c95: a6 94        	ldx	$94                     ; 0x2094 <_ZN12_GLOBAL__N_13putEcP6Status+0x8d>
     c97: 8a           	txa
     c98: 38           	sec
     c99: e9 92        	sbc	#$92
     c9b: 50 02        	bvc	$c9f <f256main+0x55a>
     c9d: 49 80        	eor	#$80
     c9f: a8           	tay
     ca0: 30 03        	bmi	$ca5 <f256main+0x560>
     ca2: 4c ae 11     	jmp	$11ae <f256main+0xa69>
     ca5: e0 81        	cpx	#$81
     ca7: d0 03        	bne	$cac <f256main+0x567>
     ca9: 4c a5 15     	jmp	$15a5 <f256main+0xe60>
     cac: e0 83        	cpx	#$83
     cae: d0 03        	bne	$cb3 <f256main+0x56e>
     cb0: 4c 58 16     	jmp	$1658 <f256main+0xf13>
     cb3: e0 85        	cpx	#$85
     cb5: f0 03        	beq	$cba <f256main+0x575>
     cb7: 4c 04 17     	jmp	$1704 <f256main+0xfbf>
     cba: a0 0d        	ldy	#$d
     cbc: b1 10        	lda	($10),y                 ; 0x2010 <_ZN12_GLOBAL__N_13putEcP6Status+0x9>
     cbe: 85 29        	sta	$29                     ; 0x2029 <_ZN12_GLOBAL__N_13putEcP6Status+0x22>
     cc0: 64 87        	stz	$87                     ; 0x2087 <_ZN12_GLOBAL__N_13putEcP6Status+0x80>
     cc2: a2 80        	ldx	#$80
     cc4: 86 f3        	stx	$f3                     ; 0x20f3 <_ZN12_GLOBAL__N_112print_stringEPKcP6Status+0x19>
     cc6: a0 05        	ldy	#$5
     cc8: b1 10        	lda	($10),y                 ; 0x2010 <_ZN12_GLOBAL__N_13putEcP6Status+0x9>
     cca: 85 16        	sta	$16                     ; 0x2016 <_ZN12_GLOBAL__N_13putEcP6Status+0xf>
     ccc: c8           	iny
     ccd: b1 10        	lda	($10),y                 ; 0x2010 <_ZN12_GLOBAL__N_13putEcP6Status+0x9>
     ccf: 85 17        	sta	$17                     ; 0x2017 <_ZN12_GLOBAL__N_13putEcP6Status+0x10>
     cd1: 20 f0 ff     	jsr	$fff0 <end_block9+0xc8a6>
     cd4: 92 16        	sta	($16)                   ; 0x2016 <_ZN12_GLOBAL__N_13putEcP6Status+0xf>
     cd6: a9 00        	lda	#$0
     cd8: 6a           	ror
     cd9: 85 12        	sta	$12                     ; 0x2012 <_ZN12_GLOBAL__N_13putEcP6Status+0xb>
     cdb: 18           	clc
     cdc: a9 19        	lda	#$19
     cde: 72 16        	adc	($16)                   ; 0x2016 <_ZN12_GLOBAL__N_13putEcP6Status+0xf>
     ce0: 85 8b        	sta	$8b                     ; 0x208b <_ZN12_GLOBAL__N_13putEcP6Status+0x84>
     ce2: 64 8e        	stz	$8e                     ; 0x208e <_ZN12_GLOBAL__N_13putEcP6Status+0x87>
     ce4: 64 8f        	stz	$8f                     ; 0x208f <_ZN12_GLOBAL__N_13putEcP6Status+0x88>
     ce6: a5 89        	lda	$89                     ; 0x2089 <_ZN12_GLOBAL__N_13putEcP6Status+0x82>
     ce8: 29 01        	and	#$1
     cea: f0 38        	beq	$d24 <f256main+0x5df>
     cec: a2 9f        	ldx	#$9f
     cee: 8e 08 d6     	stx	$d608                   ; 0xd608 <end_block9+0x9ebe>
     cf1: a2 94        	ldx	#$94
     cf3: 8e 08 d6     	stx	$d608                   ; 0xd608 <end_block9+0x9ebe>
     cf6: 18           	clc
     cf7: a9 48        	lda	#$48
     cf9: 65 8e        	adc	$8e                     ; 0x208e <_ZN12_GLOBAL__N_13putEcP6Status+0x87>
     cfb: 85 12        	sta	$12                     ; 0x2012 <_ZN12_GLOBAL__N_13putEcP6Status+0xb>
     cfd: a9 30        	lda	#$30
     cff: 65 8f        	adc	$8f                     ; 0x208f <_ZN12_GLOBAL__N_13putEcP6Status+0x88>
     d01: 85 13        	sta	$13                     ; 0x2013 <_ZN12_GLOBAL__N_13putEcP6Status+0xc>
     d03: b2 12        	lda	($12)                   ; 0x2012 <_ZN12_GLOBAL__N_13putEcP6Status+0xb>
     d05: aa           	tax
     d06: bd 43 31     	lda	$3143,x                 ; 0x3143 <KeyCodesToLoPSG>
     d09: aa           	tax
     d0a: 8e 08 d6     	stx	$d608                   ; 0xd608 <end_block9+0x9ebe>
     d0d: a9 48        	lda	#$48
     d0f: 18           	clc
     d10: 65 8e        	adc	$8e                     ; 0x208e <_ZN12_GLOBAL__N_13putEcP6Status+0x87>
     d12: 85 12        	sta	$12                     ; 0x2012 <_ZN12_GLOBAL__N_13putEcP6Status+0xb>
     d14: a9 30        	lda	#$30
     d16: 65 8f        	adc	$8f                     ; 0x208f <_ZN12_GLOBAL__N_13putEcP6Status+0x88>
     d18: 85 13        	sta	$13                     ; 0x2013 <_ZN12_GLOBAL__N_13putEcP6Status+0xc>
     d1a: b2 12        	lda	($12)                   ; 0x2012 <_ZN12_GLOBAL__N_13putEcP6Status+0xb>
     d1c: aa           	tax
     d1d: bd be 31     	lda	$31be,x                 ; 0x31be <KeyCodesToHiPSG>
     d20: aa           	tax
     d21: 8e 08 d6     	stx	$d608                   ; 0xd608 <end_block9+0x9ebe>
     d24: 64 f3        	stz	$f3                     ; 0x20f3 <_ZN12_GLOBAL__N_112print_stringEPKcP6Status+0x19>
     d26: a6 8b        	ldx	$8b                     ; 0x208b <_ZN12_GLOBAL__N_13putEcP6Status+0x84>
     d28: 86 f4        	stx	$f4                     ; 0x20f4 <_ZN12_GLOBAL__N_112print_stringEPKcP6Status+0x1a>
     d2a: a2 01        	ldx	#$1
     d2c: 86 f5        	stx	$f5                     ; 0x20f5 <_ZN12_GLOBAL__N_112print_stringEPKcP6Status+0x1b>
     d2e: a0 49        	ldy	#$49
     d30: 84 12        	sty	$12                     ; 0x2012 <_ZN12_GLOBAL__N_13putEcP6Status+0xb>
     d32: a0 37        	ldy	#$37
     d34: 84 13        	sty	$13                     ; 0x2013 <_ZN12_GLOBAL__N_13putEcP6Status+0xc>
     d36: a0 05        	ldy	#$5
     d38: b1 10        	lda	($10),y                 ; 0x2010 <_ZN12_GLOBAL__N_13putEcP6Status+0x9>
     d3a: 85 14        	sta	$14                     ; 0x2014 <_ZN12_GLOBAL__N_13putEcP6Status+0xd>
     d3c: c8           	iny
     d3d: b1 10        	lda	($10),y                 ; 0x2010 <_ZN12_GLOBAL__N_13putEcP6Status+0x9>
     d3f: 85 15        	sta	$15                     ; 0x2015 <_ZN12_GLOBAL__N_13putEcP6Status+0xe>
     d41: 20 f0 ff     	jsr	$fff0 <end_block9+0xc8a6>
     d44: 92 14        	sta	($14)                   ; 0x2014 <_ZN12_GLOBAL__N_13putEcP6Status+0xd>
     d46: a9 00        	lda	#$0
     d48: 6a           	ror
     d49: 85 12        	sta	$12                     ; 0x2012 <_ZN12_GLOBAL__N_13putEcP6Status+0xb>
     d4b: a5 89        	lda	$89                     ; 0x2089 <_ZN12_GLOBAL__N_13putEcP6Status+0x82>
     d4d: 29 01        	and	#$1
     d4f: 64 12        	stz	$12                     ; 0x2012 <_ZN12_GLOBAL__N_13putEcP6Status+0xb>
     d51: 48           	pha
     d52: a9 00        	lda	#$0
     d54: a0 08        	ldy	#$8
     d56: 91 10        	sta	($10),y                 ; 0x2010 <_ZN12_GLOBAL__N_13putEcP6Status+0x9>
     d58: 8a           	txa
     d59: a0 02        	ldy	#$2
     d5b: 91 10        	sta	($10),y                 ; 0x2010 <_ZN12_GLOBAL__N_13putEcP6Status+0x9>
     d5d: a0 0a        	ldy	#$a
     d5f: b1 10        	lda	($10),y                 ; 0x2010 <_ZN12_GLOBAL__N_13putEcP6Status+0x9>
     d61: 85 16        	sta	$16                     ; 0x2016 <_ZN12_GLOBAL__N_13putEcP6Status+0xf>
     d63: 88           	dey
     d64: 91 10        	sta	($10),y                 ; 0x2010 <_ZN12_GLOBAL__N_13putEcP6Status+0x9>
     d66: a0 0b        	ldy	#$b
     d68: b1 10        	lda	($10),y                 ; 0x2010 <_ZN12_GLOBAL__N_13putEcP6Status+0x9>
     d6a: 85 17        	sta	$17                     ; 0x2017 <_ZN12_GLOBAL__N_13putEcP6Status+0x10>
     d6c: a8           	tay
     d6d: 5a           	phy
     d6e: a0 07        	ldy	#$7
     d70: b1 10        	lda	($10),y                 ; 0x2010 <_ZN12_GLOBAL__N_13putEcP6Status+0x9>
     d72: 7a           	ply
     d73: 85 27        	sta	$27                     ; 0x2027 <_ZN12_GLOBAL__N_13putEcP6Status+0x20>
     d75: 68           	pla
     d76: a6 27        	ldx	$27                     ; 0x2027 <_ZN12_GLOBAL__N_13putEcP6Status+0x20>
     d78: c9 00        	cmp	#$0
     d7a: f0 03        	beq	$d7f <f256main+0x63a>
     d7c: 4c 63 1b     	jmp	$1b63 <f256main+0x141e>
     d7f: a6 8e        	ldx	$8e                     ; 0x208e <_ZN12_GLOBAL__N_13putEcP6Status+0x87>
     d81: a0 90        	ldy	#$90
     d83: 8c a1 dd     	sty	$dda1                   ; 0xdda1 <end_block9+0xa657>
     d86: 8e a1 dd     	stx	$dda1                   ; 0xdda1 <end_block9+0xa657>
     d89: a2 6f        	ldx	#$6f
     d8b: 8e a1 dd     	stx	$dda1                   ; 0xdda1 <end_block9+0xa657>
     d8e: a9 00        	lda	#$0
     d90: a0 08        	ldy	#$8
     d92: 91 10        	sta	($10),y                 ; 0x2010 <_ZN12_GLOBAL__N_13putEcP6Status+0x9>
     d94: a2 01        	ldx	#$1
     d96: 8a           	txa
     d97: a0 02        	ldy	#$2
     d99: 91 10        	sta	($10),y                 ; 0x2010 <_ZN12_GLOBAL__N_13putEcP6Status+0x9>
     d9b: a5 16        	lda	$16                     ; 0x2016 <_ZN12_GLOBAL__N_13putEcP6Status+0xf>
     d9d: a0 09        	ldy	#$9
     d9f: 91 10        	sta	($10),y                 ; 0x2010 <_ZN12_GLOBAL__N_13putEcP6Status+0x9>
     da1: a4 17        	ldy	$17                     ; 0x2017 <_ZN12_GLOBAL__N_13putEcP6Status+0x10>
     da3: a6 27        	ldx	$27                     ; 0x2027 <_ZN12_GLOBAL__N_13putEcP6Status+0x20>
     da5: 4c 63 1b     	jmp	$1b63 <f256main+0x141e>
     da8: a9 00        	lda	#$0
     daa: 5a           	phy
     dab: a4 15        	ldy	$15                     ; 0x2015 <_ZN12_GLOBAL__N_13putEcP6Status+0xe>
     dad: c0 01        	cpy	#$1
     daf: 2a           	rol
     db0: a4 16        	ldy	$16                     ; 0x2016 <_ZN12_GLOBAL__N_13putEcP6Status+0xf>
     db2: c0 01        	cpy	#$1
     db4: 7a           	ply
     db5: 2a           	rol
     db6: 85 12        	sta	$12                     ; 0x2012 <_ZN12_GLOBAL__N_13putEcP6Status+0xb>
     db8: a5 2a        	lda	$2a                     ; 0x202a <_ZN12_GLOBAL__N_13putEcP6Status+0x23>
     dba: 18           	clc
     dbb: 65 2b        	adc	$2b                     ; 0x202b <_ZN12_GLOBAL__N_13putEcP6Status+0x24>
     dbd: 85 2c        	sta	$2c                     ; 0x202c <_ZN12_GLOBAL__N_13putEcP6Status+0x25>
     dbf: a5 12        	lda	$12                     ; 0x2012 <_ZN12_GLOBAL__N_13putEcP6Status+0xb>
     dc1: 85 15        	sta	$15                     ; 0x2015 <_ZN12_GLOBAL__N_13putEcP6Status+0xe>
     dc3: a5 14        	lda	$14                     ; 0x2014 <_ZN12_GLOBAL__N_13putEcP6Status+0xd>
     dc5: c9 01        	cmp	#$1
     dc7: 26 15        	rol	$15                     ; 0x2015 <_ZN12_GLOBAL__N_13putEcP6Status+0xe>
     dc9: a5 2a        	lda	$2a                     ; 0x202a <_ZN12_GLOBAL__N_13putEcP6Status+0x23>
     dcb: 18           	clc
     dcc: 65 2b        	adc	$2b                     ; 0x202b <_ZN12_GLOBAL__N_13putEcP6Status+0x24>
     dce: 85 25        	sta	$25                     ; 0x2025 <_ZN12_GLOBAL__N_13putEcP6Status+0x1e>
     dd0: a5 15        	lda	$15                     ; 0x2015 <_ZN12_GLOBAL__N_13putEcP6Status+0xe>
     dd2: 65 12        	adc	$12                     ; 0x2012 <_ZN12_GLOBAL__N_13putEcP6Status+0xb>
     dd4: 85 24        	sta	$24                     ; 0x2024 <_ZN12_GLOBAL__N_13putEcP6Status+0x1d>
     dd6: 86 2d        	stx	$2d                     ; 0x202d <_ZN12_GLOBAL__N_13putEcP6Status+0x26>
     dd8: 98           	tya
     dd9: a0 0b        	ldy	#$b
     ddb: 91 10        	sta	($10),y                 ; 0x2010 <_ZN12_GLOBAL__N_13putEcP6Status+0x9>
     ddd: a0 09        	ldy	#$9
     ddf: b1 10        	lda	($10),y                 ; 0x2010 <_ZN12_GLOBAL__N_13putEcP6Status+0x9>
     de1: c8           	iny
     de2: 91 10        	sta	($10),y                 ; 0x2010 <_ZN12_GLOBAL__N_13putEcP6Status+0x9>
     de4: a0 08        	ldy	#$8
     de6: b1 10        	lda	($10),y                 ; 0x2010 <_ZN12_GLOBAL__N_13putEcP6Status+0x9>
     de8: 85 17        	sta	$17                     ; 0x2017 <_ZN12_GLOBAL__N_13putEcP6Status+0x10>
     dea: a5 29        	lda	$29                     ; 0x2029 <_ZN12_GLOBAL__N_13putEcP6Status+0x22>
     dec: a0 0d        	ldy	#$d
     dee: 91 10        	sta	($10),y                 ; 0x2010 <_ZN12_GLOBAL__N_13putEcP6Status+0x9>
     df0: ac a1 dd     	ldy	$dda1                   ; 0xdda1 <end_block9+0xa657>
     df3: 5a           	phy
     df4: a0 0c        	ldy	#$c
     df6: b1 10        	lda	($10),y                 ; 0x2010 <_ZN12_GLOBAL__N_13putEcP6Status+0x9>
     df8: 7a           	ply
     df9: aa           	tax
     dfa: d0 03        	bne	$dff <f256main+0x6ba>
     dfc: 4c 7a 0f     	jmp	$f7a <f256main+0x835>
     dff: a5 89        	lda	$89                     ; 0x2089 <_ZN12_GLOBAL__N_13putEcP6Status+0x82>
     e01: 29 01        	and	#$1
     e03: 85 13        	sta	$13                     ; 0x2013 <_ZN12_GLOBAL__N_13putEcP6Status+0xc>
     e05: 84 27        	sty	$27                     ; 0x2027 <_ZN12_GLOBAL__N_13putEcP6Status+0x20>
     e07: 5a           	phy
     e08: a0 0d        	ldy	#$d
     e0a: b1 10        	lda	($10),y                 ; 0x2010 <_ZN12_GLOBAL__N_13putEcP6Status+0x9>
     e0c: 7a           	ply
     e0d: aa           	tax
     e0e: f0 44        	beq	$e54 <f256main+0x70f>
     e10: a5 25        	lda	$25                     ; 0x2025 <_ZN12_GLOBAL__N_13putEcP6Status+0x1e>
     e12: 18           	clc
     e13: 65 28        	adc	$28                     ; 0x2028 <_ZN12_GLOBAL__N_13putEcP6Status+0x21>
     e15: 85 18        	sta	$18                     ; 0x2018 <_ZN12_GLOBAL__N_13putEcP6Status+0x11>
     e17: a5 24        	lda	$24                     ; 0x2024 <_ZN12_GLOBAL__N_13putEcP6Status+0x1d>
     e19: 69 00        	adc	#$0
     e1b: 85 12        	sta	$12                     ; 0x2012 <_ZN12_GLOBAL__N_13putEcP6Status+0xb>
     e1d: a5 13        	lda	$13                     ; 0x2013 <_ZN12_GLOBAL__N_13putEcP6Status+0xc>
     e1f: d0 03        	bne	$e24 <f256main+0x6df>
     e21: 4c d4 0e     	jmp	$ed4 <f256main+0x78f>
     e24: a0 0d        	ldy	#$d
     e26: b1 10        	lda	($10),y                 ; 0x2010 <_ZN12_GLOBAL__N_13putEcP6Status+0x9>
     e28: 85 16        	sta	$16                     ; 0x2016 <_ZN12_GLOBAL__N_13putEcP6Status+0xf>
     e2a: a9 48        	lda	#$48
     e2c: 18           	clc
     e2d: 65 18        	adc	$18                     ; 0x2018 <_ZN12_GLOBAL__N_13putEcP6Status+0x11>
     e2f: 85 14        	sta	$14                     ; 0x2014 <_ZN12_GLOBAL__N_13putEcP6Status+0xd>
     e31: a9 30        	lda	#$30
     e33: 65 12        	adc	$12                     ; 0x2012 <_ZN12_GLOBAL__N_13putEcP6Status+0xb>
     e35: a2 9f        	ldx	#$9f
     e37: 8e 08 d6     	stx	$d608                   ; 0xd608 <end_block9+0x9ebe>
     e3a: a2 94        	ldx	#$94
     e3c: 8e 08 d6     	stx	$d608                   ; 0xd608 <end_block9+0x9ebe>
     e3f: 85 15        	sta	$15                     ; 0x2015 <_ZN12_GLOBAL__N_13putEcP6Status+0xe>
     e41: b2 14        	lda	($14)                   ; 0x2014 <_ZN12_GLOBAL__N_13putEcP6Status+0xd>
     e43: aa           	tax
     e44: bc 43 31     	ldy	$3143,x                 ; 0x3143 <KeyCodesToLoPSG>
     e47: 8c 08 d6     	sty	$d608                   ; 0xd608 <end_block9+0x9ebe>
     e4a: bd be 31     	lda	$31be,x                 ; 0x31be <KeyCodesToHiPSG>
     e4d: aa           	tax
     e4e: 8e 08 d6     	stx	$d608                   ; 0xd608 <end_block9+0x9ebe>
     e51: 4c ec 0e     	jmp	$eec <f256main+0x7a7>
     e54: a5 13        	lda	$13                     ; 0x2013 <_ZN12_GLOBAL__N_13putEcP6Status+0xc>
     e56: d0 14        	bne	$e6c <f256main+0x727>
     e58: a5 28        	lda	$28                     ; 0x2028 <_ZN12_GLOBAL__N_13putEcP6Status+0x21>
     e5a: 18           	clc
     e5b: 65 2c        	adc	$2c                     ; 0x202c <_ZN12_GLOBAL__N_13putEcP6Status+0x25>
     e5d: a2 81        	ldx	#$81
     e5f: 8e a1 dd     	stx	$dda1                   ; 0xdda1 <end_block9+0xa657>
     e62: 8d a1 dd     	sta	$dda1                   ; 0xdda1 <end_block9+0xa657>
     e65: a4 27        	ldy	$27                     ; 0x2027 <_ZN12_GLOBAL__N_13putEcP6Status+0x20>
     e67: a2 6f        	ldx	#$6f
     e69: 8e a1 dd     	stx	$dda1                   ; 0xdda1 <end_block9+0xa657>
     e6c: 5a           	phy
     e6d: a0 0b        	ldy	#$b
     e6f: b1 10        	lda	($10),y                 ; 0x2010 <_ZN12_GLOBAL__N_13putEcP6Status+0x9>
     e71: 7a           	ply
     e72: aa           	tax
     e73: d0 03        	bne	$e78 <f256main+0x733>
     e75: 4c 70 0f     	jmp	$f70 <f256main+0x82b>
     e78: a2 00        	ldx	#$0
     e7a: a0 0a        	ldy	#$a
     e7c: b1 10        	lda	($10),y                 ; 0x2010 <_ZN12_GLOBAL__N_13putEcP6Status+0x9>
     e7e: d0 03        	bne	$e83 <f256main+0x73e>
     e80: 4c e9 0f     	jmp	$fe9 <f256main+0x8a4>
     e83: a6 17        	ldx	$17                     ; 0x2017 <_ZN12_GLOBAL__N_13putEcP6Status+0x10>
     e85: e0 4a        	cpx	#$4a
     e87: 90 03        	bcc	$e8c <f256main+0x747>
     e89: 4c e7 0f     	jmp	$fe7 <f256main+0x8a2>
     e8c: e8           	inx
     e8d: 86 17        	stx	$17                     ; 0x2017 <_ZN12_GLOBAL__N_13putEcP6Status+0x10>
     e8f: bd d9 32     	lda	$32d9,x                 ; 0x32d9 <songNotes>
     e92: 85 8e        	sta	$8e                     ; 0x208e <_ZN12_GLOBAL__N_13putEcP6Status+0x87>
     e94: 64 8f        	stz	$8f                     ; 0x208f <_ZN12_GLOBAL__N_13putEcP6Status+0x88>
     e96: 0a           	asl
     e97: 85 12        	sta	$12                     ; 0x2012 <_ZN12_GLOBAL__N_13putEcP6Status+0xb>
     e99: a9 00        	lda	#$0
     e9b: 2a           	rol
     e9c: 85 13        	sta	$13                     ; 0x2013 <_ZN12_GLOBAL__N_13putEcP6Status+0xc>
     e9e: a9 39        	lda	#$39
     ea0: 18           	clc
     ea1: 65 12        	adc	$12                     ; 0x2012 <_ZN12_GLOBAL__N_13putEcP6Status+0xb>
     ea3: 85 12        	sta	$12                     ; 0x2012 <_ZN12_GLOBAL__N_13putEcP6Status+0xb>
     ea5: a9 32        	lda	#$32
     ea7: 65 13        	adc	$13                     ; 0x2013 <_ZN12_GLOBAL__N_13putEcP6Status+0xc>
     ea9: 85 13        	sta	$13                     ; 0x2013 <_ZN12_GLOBAL__N_13putEcP6Status+0xc>
     eab: b2 12        	lda	($12)                   ; 0x2012 <_ZN12_GLOBAL__N_13putEcP6Status+0xb>
     ead: 85 14        	sta	$14                     ; 0x2014 <_ZN12_GLOBAL__N_13putEcP6Status+0xd>
     eaf: a0 01        	ldy	#$1
     eb1: b1 12        	lda	($12),y                 ; 0x2012 <_ZN12_GLOBAL__N_13putEcP6Status+0xb>
     eb3: 85 12        	sta	$12                     ; 0x2012 <_ZN12_GLOBAL__N_13putEcP6Status+0xb>
     eb5: 98           	tya
     eb6: 05 46        	ora	$46                     ; 0x2046 <_ZN12_GLOBAL__N_13putEcP6Status+0x3f>
     eb8: 8d 08 d9     	sta	$d908                   ; 0xd908 <end_block9+0xa1be>
     ebb: a6 14        	ldx	$14                     ; 0x2014 <_ZN12_GLOBAL__N_13putEcP6Status+0xd>
     ebd: 8e 0c d9     	stx	$d90c                   ; 0xd90c <end_block9+0xa1c2>
     ec0: a6 12        	ldx	$12                     ; 0x2012 <_ZN12_GLOBAL__N_13putEcP6Status+0xb>
     ec2: 8e 0d d9     	stx	$d90d                   ; 0xd90d <end_block9+0xa1c3>
     ec5: a0 c0        	ldy	#$c0
     ec7: 8c 0e d9     	sty	$d90e                   ; 0xd90e <end_block9+0xa1c4>
     eca: 9c 0f d9     	stz	$d90f                   ; 0xd90f <end_block9+0xa1c5>
     ecd: a4 27        	ldy	$27                     ; 0x2027 <_ZN12_GLOBAL__N_13putEcP6Status+0x20>
     ecf: a2 00        	ldx	#$0
     ed1: 4c eb 0f     	jmp	$feb <f256main+0x8a6>
     ed4: a0 0d        	ldy	#$d
     ed6: b1 10        	lda	($10),y                 ; 0x2010 <_ZN12_GLOBAL__N_13putEcP6Status+0x9>
     ed8: 85 16        	sta	$16                     ; 0x2016 <_ZN12_GLOBAL__N_13putEcP6Status+0xf>
     eda: a5 28        	lda	$28                     ; 0x2028 <_ZN12_GLOBAL__N_13putEcP6Status+0x21>
     edc: 18           	clc
     edd: 65 2c        	adc	$2c                     ; 0x202c <_ZN12_GLOBAL__N_13putEcP6Status+0x25>
     edf: a2 91        	ldx	#$91
     ee1: 8e a1 dd     	stx	$dda1                   ; 0xdda1 <end_block9+0xa657>
     ee4: 8d a1 dd     	sta	$dda1                   ; 0xdda1 <end_block9+0xa657>
     ee7: a2 6f        	ldx	#$6f
     ee9: 8e a1 dd     	stx	$dda1                   ; 0xdda1 <end_block9+0xa657>
     eec: a5 18        	lda	$18                     ; 0x2018 <_ZN12_GLOBAL__N_13putEcP6Status+0x11>
     eee: 0a           	asl
     eef: 85 13        	sta	$13                     ; 0x2013 <_ZN12_GLOBAL__N_13putEcP6Status+0xc>
     ef1: a9 00        	lda	#$0
     ef3: 2a           	rol
     ef4: 85 14        	sta	$14                     ; 0x2014 <_ZN12_GLOBAL__N_13putEcP6Status+0xd>
     ef6: a9 39        	lda	#$39
     ef8: 18           	clc
     ef9: 65 13        	adc	$13                     ; 0x2013 <_ZN12_GLOBAL__N_13putEcP6Status+0xc>
     efb: aa           	tax
     efc: a9 32        	lda	#$32
     efe: 65 14        	adc	$14                     ; 0x2014 <_ZN12_GLOBAL__N_13putEcP6Status+0xd>
     f00: 86 14        	stx	$14                     ; 0x2014 <_ZN12_GLOBAL__N_13putEcP6Status+0xd>
     f02: 85 15        	sta	$15                     ; 0x2015 <_ZN12_GLOBAL__N_13putEcP6Status+0xe>
     f04: b2 14        	lda	($14)                   ; 0x2014 <_ZN12_GLOBAL__N_13putEcP6Status+0xd>
     f06: 85 13        	sta	$13                     ; 0x2013 <_ZN12_GLOBAL__N_13putEcP6Status+0xc>
     f08: a0 01        	ldy	#$1
     f0a: b1 14        	lda	($14),y                 ; 0x2014 <_ZN12_GLOBAL__N_13putEcP6Status+0xd>
     f0c: 85 14        	sta	$14                     ; 0x2014 <_ZN12_GLOBAL__N_13putEcP6Status+0xd>
     f0e: 98           	tya
     f0f: 05 45        	ora	$45                     ; 0x2045 <_ZN12_GLOBAL__N_13putEcP6Status+0x3e>
     f11: 8d 00 d9     	sta	$d900                   ; 0xd900 <end_block9+0xa1b6>
     f14: a6 13        	ldx	$13                     ; 0x2013 <_ZN12_GLOBAL__N_13putEcP6Status+0xc>
     f16: 8e 04 d9     	stx	$d904                   ; 0xd904 <end_block9+0xa1ba>
     f19: a6 14        	ldx	$14                     ; 0x2014 <_ZN12_GLOBAL__N_13putEcP6Status+0xd>
     f1b: 8e 05 d9     	stx	$d905                   ; 0xd905 <end_block9+0xa1bb>
     f1e: a2 c0        	ldx	#$c0
     f20: 8e 06 d9     	stx	$d906                   ; 0xd906 <end_block9+0xa1bc>
     f23: 9c 07 d9     	stz	$d907                   ; 0xd907 <end_block9+0xa1bd>
     f26: a5 12        	lda	$12                     ; 0x2012 <_ZN12_GLOBAL__N_13putEcP6Status+0xb>
     f28: d0 2b        	bne	$f55 <f256main+0x810>
     f2a: a6 17        	ldx	$17                     ; 0x2017 <_ZN12_GLOBAL__N_13putEcP6Status+0x10>
     f2c: bd d9 32     	lda	$32d9,x                 ; 0x32d9 <songNotes>
     f2f: aa           	tax
     f30: 86 12        	stx	$12                     ; 0x2012 <_ZN12_GLOBAL__N_13putEcP6Status+0xb>
     f32: a6 18        	ldx	$18                     ; 0x2018 <_ZN12_GLOBAL__N_13putEcP6Status+0x11>
     f34: e4 12        	cpx	$12                     ; 0x2012 <_ZN12_GLOBAL__N_13putEcP6Status+0xb>
     f36: d0 1d        	bne	$f55 <f256main+0x810>
     f38: a5 16        	lda	$16                     ; 0x2016 <_ZN12_GLOBAL__N_13putEcP6Status+0xf>
     f3a: a0 0d        	ldy	#$d
     f3c: 91 10        	sta	($10),y                 ; 0x2010 <_ZN12_GLOBAL__N_13putEcP6Status+0x9>
     f3e: a4 27        	ldy	$27                     ; 0x2027 <_ZN12_GLOBAL__N_13putEcP6Status+0x20>
     f40: 5a           	phy
     f41: a0 0b        	ldy	#$b
     f43: b1 10        	lda	($10),y                 ; 0x2010 <_ZN12_GLOBAL__N_13putEcP6Status+0x9>
     f45: 7a           	ply
     f46: aa           	tax
     f47: f0 27        	beq	$f70 <f256main+0x82b>
     f49: a2 01        	ldx	#$1
     f4b: 5a           	phy
     f4c: 8a           	txa
     f4d: a0 0a        	ldy	#$a
     f4f: 91 10        	sta	($10),y                 ; 0x2010 <_ZN12_GLOBAL__N_13putEcP6Status+0x9>
     f51: e6 87        	inc	$87                     ; 0x2087 <_ZN12_GLOBAL__N_13putEcP6Status+0x80>
     f53: 80 20        	bra	$f75 <f256main+0x830>
     f55: a5 16        	lda	$16                     ; 0x2016 <_ZN12_GLOBAL__N_13putEcP6Status+0xf>
     f57: a0 0d        	ldy	#$d
     f59: 91 10        	sta	($10),y                 ; 0x2010 <_ZN12_GLOBAL__N_13putEcP6Status+0x9>
     f5b: a0 0b        	ldy	#$b
     f5d: b1 10        	lda	($10),y                 ; 0x2010 <_ZN12_GLOBAL__N_13putEcP6Status+0x9>
     f5f: a4 27        	ldy	$27                     ; 0x2027 <_ZN12_GLOBAL__N_13putEcP6Status+0x20>
     f61: aa           	tax
     f62: f0 0c        	beq	$f70 <f256main+0x82b>
     f64: a6 87        	ldx	$87                     ; 0x2087 <_ZN12_GLOBAL__N_13putEcP6Status+0x80>
     f66: f0 03        	beq	$f6b <f256main+0x826>
     f68: ca           	dex
     f69: 86 87        	stx	$87                     ; 0x2087 <_ZN12_GLOBAL__N_13putEcP6Status+0x80>
     f6b: a2 01        	ldx	#$1
     f6d: 8a           	txa
     f6e: 80 04        	bra	$f74 <f256main+0x82f>
     f70: 64 12        	stz	$12                     ; 0x2012 <_ZN12_GLOBAL__N_13putEcP6Status+0xb>
     f72: a9 00        	lda	#$0
     f74: 5a           	phy
     f75: a0 0b        	ldy	#$b
     f77: 91 10        	sta	($10),y                 ; 0x2010 <_ZN12_GLOBAL__N_13putEcP6Status+0x9>
     f79: 7a           	ply
     f7a: a6 17        	ldx	$17                     ; 0x2017 <_ZN12_GLOBAL__N_13putEcP6Status+0x10>
     f7c: a5 2e        	lda	$2e                     ; 0x202e <_ZN12_GLOBAL__N_13putEcP6Status+0x27>
     f7e: f0 04        	beq	$f84 <f256main+0x83f>
     f80: 86 17        	stx	$17                     ; 0x2017 <_ZN12_GLOBAL__N_13putEcP6Status+0x10>
     f82: 80 10        	bra	$f94 <f256main+0x84f>
     f84: 86 17        	stx	$17                     ; 0x2017 <_ZN12_GLOBAL__N_13putEcP6Status+0x10>
     f86: 64 12        	stz	$12                     ; 0x2012 <_ZN12_GLOBAL__N_13putEcP6Status+0xb>
     f88: a9 00        	lda	#$0
     f8a: c0 00        	cpy	#$0
     f8c: 30 0b        	bmi	$f99 <f256main+0x854>
     f8e: 5a           	phy
     f8f: a0 0d        	ldy	#$d
     f91: 91 10        	sta	($10),y                 ; 0x2010 <_ZN12_GLOBAL__N_13putEcP6Status+0x9>
     f93: 7a           	ply
     f94: 84 28        	sty	$28                     ; 0x2028 <_ZN12_GLOBAL__N_13putEcP6Status+0x21>
     f96: a2 01        	ldx	#$1
     f98: 8a           	txa
     f99: 5a           	phy
     f9a: a0 0c        	ldy	#$c
     f9c: 91 10        	sta	($10),y                 ; 0x2010 <_ZN12_GLOBAL__N_13putEcP6Status+0x9>
     f9e: 7a           	ply
     f9f: 98           	tya
     fa0: 29 f0        	and	#$f0
     fa2: c9 90        	cmp	#$90
     fa4: d0 05        	bne	$fab <f256main+0x866>
     fa6: a2 01        	ldx	#$1
     fa8: 8a           	txa
     fa9: 80 13        	bra	$fbe <f256main+0x879>
     fab: 38           	sec
     fac: 98           	tya
     fad: e9 90        	sbc	#$90
     faf: 50 02        	bvc	$fb3 <f256main+0x86e>
     fb1: 49 80        	eor	#$80
     fb3: aa           	tax
     fb4: a9 00        	lda	#$0
     fb6: e0 00        	cpx	#$0
     fb8: 10 0a        	bpl	$fc4 <f256main+0x87f>
     fba: 64 12        	stz	$12                     ; 0x2012 <_ZN12_GLOBAL__N_13putEcP6Status+0xb>
     fbc: a9 00        	lda	#$0
     fbe: a0 0d        	ldy	#$d
     fc0: 91 10        	sta	($10),y                 ; 0x2010 <_ZN12_GLOBAL__N_13putEcP6Status+0x9>
     fc2: a9 01        	lda	#$1
     fc4: a6 2f        	ldx	$2f                     ; 0x202f <_ZN12_GLOBAL__N_13putEcP6Status+0x28>
     fc6: 86 12        	stx	$12                     ; 0x2012 <_ZN12_GLOBAL__N_13putEcP6Status+0xb>
     fc8: a2 ff        	ldx	#$ff
     fca: c6 2d        	dec	$2d                     ; 0x202d <_ZN12_GLOBAL__N_13putEcP6Status+0x26>
     fcc: e4 2d        	cpx	$2d                     ; 0x202d <_ZN12_GLOBAL__N_13putEcP6Status+0x26>
     fce: d0 02        	bne	$fd2 <f256main+0x88d>
     fd0: c6 12        	dec	$12                     ; 0x2012 <_ZN12_GLOBAL__N_13putEcP6Status+0xb>
     fd2: 85 2e        	sta	$2e                     ; 0x202e <_ZN12_GLOBAL__N_13putEcP6Status+0x27>
     fd4: a6 12        	ldx	$12                     ; 0x2012 <_ZN12_GLOBAL__N_13putEcP6Status+0xb>
     fd6: 86 2f        	stx	$2f                     ; 0x202f <_ZN12_GLOBAL__N_13putEcP6Status+0x28>
     fd8: f0 03        	beq	$fdd <f256main+0x898>
     fda: 4c f0 0d     	jmp	$df0 <f256main+0x6ab>
     fdd: a6 2d        	ldx	$2d                     ; 0x202d <_ZN12_GLOBAL__N_13putEcP6Status+0x26>
     fdf: f0 03        	beq	$fe4 <f256main+0x89f>
     fe1: 4c f0 0d     	jmp	$df0 <f256main+0x6ab>
     fe4: 4c 7f 0b     	jmp	$b7f <f256main+0x43a>
     fe7: a2 01        	ldx	#$1
     fe9: a4 27        	ldy	$27                     ; 0x2027 <_ZN12_GLOBAL__N_13putEcP6Status+0x20>
     feb: 5a           	phy
     fec: 8a           	txa
     fed: a0 0a        	ldy	#$a
     fef: 91 10        	sta	($10),y                 ; 0x2010 <_ZN12_GLOBAL__N_13putEcP6Status+0x9>
     ff1: a2 01        	ldx	#$1
     ff3: 8a           	txa
     ff4: c8           	iny
     ff5: 91 10        	sta	($10),y                 ; 0x2010 <_ZN12_GLOBAL__N_13putEcP6Status+0x9>
     ff7: 7a           	ply
     ff8: a6 17        	ldx	$17                     ; 0x2017 <_ZN12_GLOBAL__N_13putEcP6Status+0x10>
     ffa: e0 4a        	cpx	#$4a
     ffc: f0 03        	beq	$1001 <f256main+0x8bc>
     ffe: 4c 7c 0f     	jmp	$f7c <f256main+0x837>
    1001: a0 0d        	ldy	#$d
    1003: b1 10        	lda	($10),y                 ; 0x2010 <_ZN12_GLOBAL__N_13putEcP6Status+0x9>
    1005: a2 19        	ldx	#$19
    1007: 86 32        	stx	$32                     ; 0x2032 <_ZN12_GLOBAL__N_13putEcP6Status+0x2b>
    1009: 8e 14 d0     	stx	$d014                   ; 0xd014 <end_block9+0x98ca>
    100c: 9c 15 d0     	stz	$d015                   ; 0xd015 <end_block9+0x98cb>
    100f: a2 08        	ldx	#$8
    1011: 86 33        	stx	$33                     ; 0x2033 <_ZN12_GLOBAL__N_13putEcP6Status+0x2c>
    1013: 8e 16 d0     	stx	$d016                   ; 0xd016 <end_block9+0x98cc>
    1016: 9c 17 d0     	stz	$d017                   ; 0xd017 <end_block9+0x98cd>
    1019: a2 00        	ldx	#$0
    101b: a9 2f        	lda	#$2f
    101d: 20 bf 2d     	jsr	$2dbf <putchar>
    1020: a2 1a        	ldx	#$1a
    1022: 86 32        	stx	$32                     ; 0x2032 <_ZN12_GLOBAL__N_13putEcP6Status+0x2b>
    1024: 8e 14 d0     	stx	$d014                   ; 0xd014 <end_block9+0x98ca>
    1027: 9c 15 d0     	stz	$d015                   ; 0xd015 <end_block9+0x98cb>
    102a: a2 07        	ldx	#$7
    102c: 86 33        	stx	$33                     ; 0x2033 <_ZN12_GLOBAL__N_13putEcP6Status+0x2c>
    102e: 8e 16 d0     	stx	$d016                   ; 0xd016 <end_block9+0x98cc>
    1031: 9c 17 d0     	stz	$d017                   ; 0xd017 <end_block9+0x98cd>
    1034: a6 87        	ldx	$87                     ; 0x2087 <_ZN12_GLOBAL__N_13putEcP6Status+0x80>
    1036: e0 48        	cpx	#$48
    1038: b0 03        	bcs	$103d <f256main+0x8f8>
    103a: 4c e7 10     	jmp	$10e7 <f256main+0x9a2>
    103d: a2 da        	ldx	#$da
    103f: 86 12        	stx	$12                     ; 0x2012 <_ZN12_GLOBAL__N_13putEcP6Status+0xb>
    1041: a2 36        	ldx	#$36
    1043: 86 13        	stx	$13                     ; 0x2013 <_ZN12_GLOBAL__N_13putEcP6Status+0xc>
    1045: 20 e6 21     	jsr	$21e6 <printf>
    1048: a2 01        	ldx	#$1
    104a: 86 88        	stx	$88                     ; 0x2088 <_ZN12_GLOBAL__N_13putEcP6Status+0x81>
    104c: a2 50        	ldx	#$50
    104e: 86 30        	stx	$30                     ; 0x2030 <_ZN12_GLOBAL__N_13putEcP6Status+0x29>
    1050: 64 12        	stz	$12                     ; 0x2012 <_ZN12_GLOBAL__N_13putEcP6Status+0xb>
    1052: 64 31        	stz	$31                     ; 0x2031 <_ZN12_GLOBAL__N_13putEcP6Status+0x2a>
    1054: a9 01        	lda	#$1
    1056: 05 4f        	ora	$4f                     ; 0x204f <_ZN12_GLOBAL__N_13putEcP6Status+0x48>
    1058: 8d 50 d9     	sta	$d950                   ; 0xd950 <end_block9+0xa206>
    105b: a5 88        	lda	$88                     ; 0x2088 <_ZN12_GLOBAL__N_13putEcP6Status+0x81>
    105d: 29 01        	and	#$1
    105f: a0 45        	ldy	#$45
    1061: aa           	tax
    1062: d0 02        	bne	$1066 <f256main+0x921>
    1064: a0 b3        	ldy	#$b3
    1066: a5 30        	lda	$30                     ; 0x2030 <_ZN12_GLOBAL__N_13putEcP6Status+0x29>
    1068: a6 31        	ldx	$31                     ; 0x2031 <_ZN12_GLOBAL__N_13putEcP6Status+0x2a>
    106a: 8c 54 d9     	sty	$d954                   ; 0xd954 <end_block9+0xa20a>
    106d: a0 00        	ldy	#$0
    106f: 8c 55 d9     	sty	$d955                   ; 0xd955 <end_block9+0xa20b>
    1072: 8d 56 d9     	sta	$d956                   ; 0xd956 <end_block9+0xa20c>
    1075: 8e 57 d9     	stx	$d957                   ; 0xd957 <end_block9+0xa20d>
    1078: a9 01        	lda	#$1
    107a: 05 50        	ora	$50                     ; 0x2050 <_ZN12_GLOBAL__N_13putEcP6Status+0x49>
    107c: 8d 58 d9     	sta	$d958                   ; 0xd958 <end_block9+0xa20e>
    107f: a5 88        	lda	$88                     ; 0x2088 <_ZN12_GLOBAL__N_13putEcP6Status+0x81>
    1081: 29 01        	and	#$1
    1083: a0 65        	ldy	#$65
    1085: aa           	tax
    1086: d0 02        	bne	$108a <f256main+0x945>
    1088: a0 d3        	ldy	#$d3
    108a: a6 30        	ldx	$30                     ; 0x2030 <_ZN12_GLOBAL__N_13putEcP6Status+0x29>
    108c: a5 31        	lda	$31                     ; 0x2031 <_ZN12_GLOBAL__N_13putEcP6Status+0x2a>
    108e: 8c 5c d9     	sty	$d95c                   ; 0xd95c <end_block9+0xa212>
    1091: a0 00        	ldy	#$0
    1093: 8c 5d d9     	sty	$d95d                   ; 0xd95d <end_block9+0xa213>
    1096: 8e 5e d9     	stx	$d95e                   ; 0xd95e <end_block9+0xa214>
    1099: 8d 5f d9     	sta	$d95f                   ; 0xd95f <end_block9+0xa215>
    109c: a2 80        	ldx	#$80
    109e: 86 f3        	stx	$f3                     ; 0x20f3 <_ZN12_GLOBAL__N_112print_stringEPKcP6Status+0x19>
    10a0: a2 49        	ldx	#$49
    10a2: 86 12        	stx	$12                     ; 0x2012 <_ZN12_GLOBAL__N_13putEcP6Status+0xb>
    10a4: a2 37        	ldx	#$37
    10a6: 86 13        	stx	$13                     ; 0x2013 <_ZN12_GLOBAL__N_13putEcP6Status+0xc>
    10a8: a0 05        	ldy	#$5
    10aa: b1 10        	lda	($10),y                 ; 0x2010 <_ZN12_GLOBAL__N_13putEcP6Status+0x9>
    10ac: 85 18        	sta	$18                     ; 0x2018 <_ZN12_GLOBAL__N_13putEcP6Status+0x11>
    10ae: c8           	iny
    10af: b1 10        	lda	($10),y                 ; 0x2010 <_ZN12_GLOBAL__N_13putEcP6Status+0x9>
    10b1: 85 19        	sta	$19                     ; 0x2019 <_ZN12_GLOBAL__N_13putEcP6Status+0x12>
    10b3: 20 f0 ff     	jsr	$fff0 <end_block9+0xc8a6>
    10b6: 92 18        	sta	($18)                   ; 0x2018 <_ZN12_GLOBAL__N_13putEcP6Status+0x11>
    10b8: a9 00        	lda	#$0
    10ba: 6a           	ror
    10bb: 85 12        	sta	$12                     ; 0x2012 <_ZN12_GLOBAL__N_13putEcP6Status+0xb>
    10bd: a9 03        	lda	#$3
    10bf: 18           	clc
    10c0: 72 18        	adc	($18)                   ; 0x2018 <_ZN12_GLOBAL__N_13putEcP6Status+0x11>
    10c2: 85 8c        	sta	$8c                     ; 0x208c <_ZN12_GLOBAL__N_13putEcP6Status+0x85>
    10c4: 64 14        	stz	$14                     ; 0x2014 <_ZN12_GLOBAL__N_13putEcP6Status+0xd>
    10c6: a9 00        	lda	#$0
    10c8: a0 0a        	ldy	#$a
    10ca: 91 10        	sta	($10),y                 ; 0x2010 <_ZN12_GLOBAL__N_13putEcP6Status+0x9>
    10cc: 64 f3        	stz	$f3                     ; 0x20f3 <_ZN12_GLOBAL__N_112print_stringEPKcP6Status+0x19>
    10ce: a6 8c        	ldx	$8c                     ; 0x208c <_ZN12_GLOBAL__N_13putEcP6Status+0x85>
    10d0: 86 f4        	stx	$f4                     ; 0x20f4 <_ZN12_GLOBAL__N_112print_stringEPKcP6Status+0x1a>
    10d2: a2 02        	ldx	#$2
    10d4: 86 f5        	stx	$f5                     ; 0x20f5 <_ZN12_GLOBAL__N_112print_stringEPKcP6Status+0x1b>
    10d6: a2 4a        	ldx	#$4a
    10d8: c8           	iny
    10d9: 91 10        	sta	($10),y                 ; 0x2010 <_ZN12_GLOBAL__N_13putEcP6Status+0x9>
    10db: 20 f0 ff     	jsr	$fff0 <end_block9+0xc8a6>
    10de: 92 18        	sta	($18)                   ; 0x2018 <_ZN12_GLOBAL__N_13putEcP6Status+0x11>
    10e0: a9 00        	lda	#$0
    10e2: 6a           	ror
    10e3: 85 12        	sta	$12                     ; 0x2012 <_ZN12_GLOBAL__N_13putEcP6Status+0xb>
    10e5: 80 18        	bra	$10ff <f256main+0x9ba>
    10e7: a2 78        	ldx	#$78
    10e9: 86 12        	stx	$12                     ; 0x2012 <_ZN12_GLOBAL__N_13putEcP6Status+0xb>
    10eb: a2 35        	ldx	#$35
    10ed: 86 13        	stx	$13                     ; 0x2013 <_ZN12_GLOBAL__N_13putEcP6Status+0xc>
    10ef: 20 e6 21     	jsr	$21e6 <printf>
    10f2: a2 4a        	ldx	#$4a
    10f4: 64 12        	stz	$12                     ; 0x2012 <_ZN12_GLOBAL__N_13putEcP6Status+0xb>
    10f6: a9 00        	lda	#$0
    10f8: a0 0a        	ldy	#$a
    10fa: 91 10        	sta	($10),y                 ; 0x2010 <_ZN12_GLOBAL__N_13putEcP6Status+0x9>
    10fc: c8           	iny
    10fd: 91 10        	sta	($10),y                 ; 0x2010 <_ZN12_GLOBAL__N_13putEcP6Status+0x9>
    10ff: a4 27        	ldy	$27                     ; 0x2027 <_ZN12_GLOBAL__N_13putEcP6Status+0x20>
    1101: 4c 7c 0f     	jmp	$f7c <f256main+0x837>
    1104: a0 0d        	ldy	#$d
    1106: b1 10        	lda	($10),y                 ; 0x2010 <_ZN12_GLOBAL__N_13putEcP6Status+0x9>
    1108: 85 29        	sta	$29                     ; 0x2029 <_ZN12_GLOBAL__N_13putEcP6Status+0x22>
    110a: a5 17        	lda	$17                     ; 0x2017 <_ZN12_GLOBAL__N_13putEcP6Status+0x10>
    110c: a0 08        	ldy	#$8
    110e: 91 10        	sta	($10),y                 ; 0x2010 <_ZN12_GLOBAL__N_13putEcP6Status+0x9>
    1110: a6 94        	ldx	$94                     ; 0x2094 <_ZN12_GLOBAL__N_13putEcP6Status+0x8d>
    1112: 18           	clc
    1113: a5 2a        	lda	$2a                     ; 0x202a <_ZN12_GLOBAL__N_13putEcP6Status+0x23>
    1115: 65 2b        	adc	$2b                     ; 0x202b <_ZN12_GLOBAL__N_13putEcP6Status+0x24>
    1117: 18           	clc
    1118: 7d c8 30     	adc	$30c8,x                 ; 0x30c8 <KeyCodesToMIDINotes>
    111b: a2 81        	ldx	#$81
    111d: 8e a1 dd     	stx	$dda1                   ; 0xdda1 <end_block9+0xa657>
    1120: 8d a1 dd     	sta	$dda1                   ; 0xdda1 <end_block9+0xa657>
    1123: a2 6f        	ldx	#$6f
    1125: 8e a1 dd     	stx	$dda1                   ; 0xdda1 <end_block9+0xa657>
    1128: a6 45        	ldx	$45                     ; 0x2045 <_ZN12_GLOBAL__N_13putEcP6Status+0x3e>
    112a: 8e 00 d9     	stx	$d900                   ; 0xd900 <end_block9+0xa1b6>
    112d: a0 0a        	ldy	#$a
    112f: b1 10        	lda	($10),y                 ; 0x2010 <_ZN12_GLOBAL__N_13putEcP6Status+0x9>
    1131: 48           	pha
    1132: 88           	dey
    1133: 91 10        	sta	($10),y                 ; 0x2010 <_ZN12_GLOBAL__N_13putEcP6Status+0x9>
    1135: a0 00        	ldy	#$0
    1137: 5a           	phy
    1138: a0 07        	ldy	#$7
    113a: b1 10        	lda	($10),y                 ; 0x2010 <_ZN12_GLOBAL__N_13putEcP6Status+0x9>
    113c: aa           	tax
    113d: a0 0b        	ldy	#$b
    113f: b1 10        	lda	($10),y                 ; 0x2010 <_ZN12_GLOBAL__N_13putEcP6Status+0x9>
    1141: 7a           	ply
    1142: 85 12        	sta	$12                     ; 0x2012 <_ZN12_GLOBAL__N_13putEcP6Status+0xb>
    1144: 68           	pla
    1145: e6 12        	inc	$12                     ; 0x2012 <_ZN12_GLOBAL__N_13putEcP6Status+0xb>
    1147: c6 12        	dec	$12                     ; 0x2012 <_ZN12_GLOBAL__N_13putEcP6Status+0xb>
    1149: d0 03        	bne	$114e <f256main+0xa09>
    114b: 4c 63 1b     	jmp	$1b63 <f256main+0x141e>
    114e: aa           	tax
    114f: d0 03        	bne	$1154 <f256main+0xa0f>
    1151: 4c 0d 12     	jmp	$120d <f256main+0xac8>
    1154: a0 08        	ldy	#$8
    1156: b1 10        	lda	($10),y                 ; 0x2010 <_ZN12_GLOBAL__N_13putEcP6Status+0x9>
    1158: aa           	tax
    1159: c9 4a        	cmp	#$4a
    115b: 90 03        	bcc	$1160 <f256main+0xa1b>
    115d: 4c 84 14     	jmp	$1484 <f256main+0xd3f>
    1160: 64 12        	stz	$12                     ; 0x2012 <_ZN12_GLOBAL__N_13putEcP6Status+0xb>
    1162: a9 00        	lda	#$0
    1164: a0 09        	ldy	#$9
    1166: 91 10        	sta	($10),y                 ; 0x2010 <_ZN12_GLOBAL__N_13putEcP6Status+0x9>
    1168: e8           	inx
    1169: 8a           	txa
    116a: 88           	dey
    116b: 91 10        	sta	($10),y                 ; 0x2010 <_ZN12_GLOBAL__N_13putEcP6Status+0x9>
    116d: bd d9 32     	lda	$32d9,x                 ; 0x32d9 <songNotes>
    1170: 85 8e        	sta	$8e                     ; 0x208e <_ZN12_GLOBAL__N_13putEcP6Status+0x87>
    1172: 64 8f        	stz	$8f                     ; 0x208f <_ZN12_GLOBAL__N_13putEcP6Status+0x88>
    1174: 0a           	asl
    1175: 85 12        	sta	$12                     ; 0x2012 <_ZN12_GLOBAL__N_13putEcP6Status+0xb>
    1177: a9 00        	lda	#$0
    1179: 2a           	rol
    117a: 85 13        	sta	$13                     ; 0x2013 <_ZN12_GLOBAL__N_13putEcP6Status+0xc>
    117c: a9 39        	lda	#$39
    117e: 18           	clc
    117f: 65 12        	adc	$12                     ; 0x2012 <_ZN12_GLOBAL__N_13putEcP6Status+0xb>
    1181: 85 12        	sta	$12                     ; 0x2012 <_ZN12_GLOBAL__N_13putEcP6Status+0xb>
    1183: a9 32        	lda	#$32
    1185: 65 13        	adc	$13                     ; 0x2013 <_ZN12_GLOBAL__N_13putEcP6Status+0xc>
    1187: 85 13        	sta	$13                     ; 0x2013 <_ZN12_GLOBAL__N_13putEcP6Status+0xc>
    1189: b2 12        	lda	($12)                   ; 0x2012 <_ZN12_GLOBAL__N_13putEcP6Status+0xb>
    118b: 85 14        	sta	$14                     ; 0x2014 <_ZN12_GLOBAL__N_13putEcP6Status+0xd>
    118d: a0 01        	ldy	#$1
    118f: b1 12        	lda	($12),y                 ; 0x2012 <_ZN12_GLOBAL__N_13putEcP6Status+0xb>
    1191: 85 12        	sta	$12                     ; 0x2012 <_ZN12_GLOBAL__N_13putEcP6Status+0xb>
    1193: 98           	tya
    1194: 05 46        	ora	$46                     ; 0x2046 <_ZN12_GLOBAL__N_13putEcP6Status+0x3f>
    1196: 8d 08 d9     	sta	$d908                   ; 0xd908 <end_block9+0xa1be>
    1199: a6 14        	ldx	$14                     ; 0x2014 <_ZN12_GLOBAL__N_13putEcP6Status+0xd>
    119b: 8e 0c d9     	stx	$d90c                   ; 0xd90c <end_block9+0xa1c2>
    119e: a6 12        	ldx	$12                     ; 0x2012 <_ZN12_GLOBAL__N_13putEcP6Status+0xb>
    11a0: 8e 0d d9     	stx	$d90d                   ; 0xd90d <end_block9+0xa1c3>
    11a3: a2 c0        	ldx	#$c0
    11a5: 8e 0e d9     	stx	$d90e                   ; 0xd90e <end_block9+0xa1c4>
    11a8: 9c 0f d9     	stz	$d90f                   ; 0xd90f <end_block9+0xa1c5>
    11ab: 4c 8b 14     	jmp	$148b <f256main+0xd46>
    11ae: 8a           	txa
    11af: 18           	clc
    11b0: 69 4a        	adc	#$4a
    11b2: c9 04        	cmp	#$4
    11b4: 90 03        	bcc	$11b9 <f256main+0xa74>
    11b6: 4c fd 16     	jmp	$16fd <f256main+0xfb8>
    11b9: 0a           	asl
    11ba: aa           	tax
    11bb: 7c ce 2f     	jmp	($2fce,x)               ; 0x2fce <__set_v+0x1>
    11be: a0 0d        	ldy	#$d
    11c0: b1 10        	lda	($10),y                 ; 0x2010 <_ZN12_GLOBAL__N_13putEcP6Status+0x9>
    11c2: 85 29        	sta	$29                     ; 0x2029 <_ZN12_GLOBAL__N_13putEcP6Status+0x22>
    11c4: a5 17        	lda	$17                     ; 0x2017 <_ZN12_GLOBAL__N_13putEcP6Status+0x10>
    11c6: a0 08        	ldy	#$8
    11c8: 91 10        	sta	($10),y                 ; 0x2010 <_ZN12_GLOBAL__N_13putEcP6Status+0x9>
    11ca: 88           	dey
    11cb: b1 10        	lda	($10),y                 ; 0x2010 <_ZN12_GLOBAL__N_13putEcP6Status+0x9>
    11cd: c9 81        	cmp	#$81
    11cf: 48           	pha
    11d0: a0 0a        	ldy	#$a
    11d2: b1 10        	lda	($10),y                 ; 0x2010 <_ZN12_GLOBAL__N_13putEcP6Status+0x9>
    11d4: 85 12        	sta	$12                     ; 0x2012 <_ZN12_GLOBAL__N_13putEcP6Status+0xb>
    11d6: 88           	dey
    11d7: 91 10        	sta	($10),y                 ; 0x2010 <_ZN12_GLOBAL__N_13putEcP6Status+0x9>
    11d9: a0 0b        	ldy	#$b
    11db: b1 10        	lda	($10),y                 ; 0x2010 <_ZN12_GLOBAL__N_13putEcP6Status+0x9>
    11dd: 85 13        	sta	$13                     ; 0x2013 <_ZN12_GLOBAL__N_13putEcP6Status+0xc>
    11df: 68           	pla
    11e0: a4 13        	ldy	$13                     ; 0x2013 <_ZN12_GLOBAL__N_13putEcP6Status+0xc>
    11e2: aa           	tax
    11e3: 90 03        	bcc	$11e8 <f256main+0xaa3>
    11e5: 4c 63 1b     	jmp	$1b63 <f256main+0x141e>
    11e8: a6 89        	ldx	$89                     ; 0x2089 <_ZN12_GLOBAL__N_13putEcP6Status+0x82>
    11ea: 86 14        	stx	$14                     ; 0x2014 <_ZN12_GLOBAL__N_13putEcP6Status+0xd>
    11ec: aa           	tax
    11ed: a5 14        	lda	$14                     ; 0x2014 <_ZN12_GLOBAL__N_13putEcP6Status+0xd>
    11ef: 29 01        	and	#$1
    11f1: 85 16        	sta	$16                     ; 0x2016 <_ZN12_GLOBAL__N_13putEcP6Status+0xf>
    11f3: 8a           	txa
    11f4: a6 12        	ldx	$12                     ; 0x2012 <_ZN12_GLOBAL__N_13putEcP6Status+0xb>
    11f6: 48           	pha
    11f7: 8a           	txa
    11f8: a0 09        	ldy	#$9
    11fa: 91 10        	sta	($10),y                 ; 0x2010 <_ZN12_GLOBAL__N_13putEcP6Status+0x9>
    11fc: 68           	pla
    11fd: a4 13        	ldy	$13                     ; 0x2013 <_ZN12_GLOBAL__N_13putEcP6Status+0xc>
    11ff: aa           	tax
    1200: e6 16        	inc	$16                     ; 0x2016 <_ZN12_GLOBAL__N_13putEcP6Status+0xf>
    1202: c6 16        	dec	$16                     ; 0x2016 <_ZN12_GLOBAL__N_13putEcP6Status+0xf>
    1204: f0 03        	beq	$1209 <f256main+0xac4>
    1206: 4c 63 1b     	jmp	$1b63 <f256main+0x141e>
    1209: 1a           	inc
    120a: 4c 2e 18     	jmp	$182e <f256main+0x10e9>
    120d: 64 12        	stz	$12                     ; 0x2012 <_ZN12_GLOBAL__N_13putEcP6Status+0xb>
    120f: a9 00        	lda	#$0
    1211: 4c 87 14     	jmp	$1487 <f256main+0xd42>
    1214: a5 30        	lda	$30                     ; 0x2030 <_ZN12_GLOBAL__N_13putEcP6Status+0x29>
    1216: a4 31        	ldy	$31                     ; 0x2031 <_ZN12_GLOBAL__N_13putEcP6Status+0x2a>
    1218: 84 12        	sty	$12                     ; 0x2012 <_ZN12_GLOBAL__N_13putEcP6Status+0xb>
    121a: 1a           	inc
    121b: d0 02        	bne	$121f <f256main+0xada>
    121d: e6 12        	inc	$12                     ; 0x2012 <_ZN12_GLOBAL__N_13putEcP6Status+0xb>
    121f: a8           	tay
    1220: a6 12        	ldx	$12                     ; 0x2012 <_ZN12_GLOBAL__N_13putEcP6Status+0xb>
    1222: 85 30        	sta	$30                     ; 0x2030 <_ZN12_GLOBAL__N_13putEcP6Status+0x29>
    1224: 86 13        	stx	$13                     ; 0x2013 <_ZN12_GLOBAL__N_13putEcP6Status+0xc>
    1226: 86 31        	stx	$31                     ; 0x2031 <_ZN12_GLOBAL__N_13putEcP6Status+0x2a>
    1228: a5 88        	lda	$88                     ; 0x2088 <_ZN12_GLOBAL__N_13putEcP6Status+0x81>
    122a: 29 01        	and	#$1
    122c: a2 45        	ldx	#$45
    122e: 64 12        	stz	$12                     ; 0x2012 <_ZN12_GLOBAL__N_13putEcP6Status+0xb>
    1230: c9 00        	cmp	#$0
    1232: d0 02        	bne	$1236 <f256main+0xaf1>
    1234: a2 b3        	ldx	#$b3
    1236: 8e 54 d9     	stx	$d954                   ; 0xd954 <end_block9+0xa20a>
    1239: a2 00        	ldx	#$0
    123b: 8e 55 d9     	stx	$d955                   ; 0xd955 <end_block9+0xa20b>
    123e: 8c 56 d9     	sty	$d956                   ; 0xd956 <end_block9+0xa20c>
    1241: a6 13        	ldx	$13                     ; 0x2013 <_ZN12_GLOBAL__N_13putEcP6Status+0xc>
    1243: 8e 57 d9     	stx	$d957                   ; 0xd957 <end_block9+0xa20d>
    1246: a2 65        	ldx	#$65
    1248: a8           	tay
    1249: d0 02        	bne	$124d <f256main+0xb08>
    124b: a2 d3        	ldx	#$d3
    124d: a4 30        	ldy	$30                     ; 0x2030 <_ZN12_GLOBAL__N_13putEcP6Status+0x29>
    124f: a5 31        	lda	$31                     ; 0x2031 <_ZN12_GLOBAL__N_13putEcP6Status+0x2a>
    1251: 8e 5c d9     	stx	$d95c                   ; 0xd95c <end_block9+0xa212>
    1254: a2 00        	ldx	#$0
    1256: 8e 5d d9     	stx	$d95d                   ; 0xd95d <end_block9+0xa213>
    1259: 8c 5e d9     	sty	$d95e                   ; 0xd95e <end_block9+0xa214>
    125c: 8d 5f d9     	sta	$d95f                   ; 0xd95f <end_block9+0xa215>
    125f: a6 31        	ldx	$31                     ; 0x2031 <_ZN12_GLOBAL__N_13putEcP6Status+0x2a>
    1261: f0 03        	beq	$1266 <f256main+0xb21>
    1263: 4c 32 17     	jmp	$1732 <f256main+0xfed>
    1266: a6 30        	ldx	$30                     ; 0x2030 <_ZN12_GLOBAL__N_13putEcP6Status+0x29>
    1268: e0 81        	cpx	#$81
    126a: b0 03        	bcs	$126f <f256main+0xb2a>
    126c: 4c 39 17     	jmp	$1739 <f256main+0xff4>
    126f: a2 04        	ldx	#$4
    1271: 86 32        	stx	$32                     ; 0x2032 <_ZN12_GLOBAL__N_13putEcP6Status+0x2b>
    1273: 8e 14 d0     	stx	$d014                   ; 0xd014 <end_block9+0x98ca>
    1276: 9c 15 d0     	stz	$d015                   ; 0xd015 <end_block9+0x98cb>
    1279: a2 18        	ldx	#$18
    127b: 86 33        	stx	$33                     ; 0x2033 <_ZN12_GLOBAL__N_13putEcP6Status+0x2c>
    127d: 8e 16 d0     	stx	$d016                   ; 0xd016 <end_block9+0x98cc>
    1280: 9c 17 d0     	stz	$d017                   ; 0xd017 <end_block9+0x98cd>
    1283: a2 f4        	ldx	#$f4
    1285: 86 12        	stx	$12                     ; 0x2012 <_ZN12_GLOBAL__N_13putEcP6Status+0xb>
    1287: a2 35        	ldx	#$35
    1289: 86 13        	stx	$13                     ; 0x2013 <_ZN12_GLOBAL__N_13putEcP6Status+0xc>
    128b: 20 e6 21     	jsr	$21e6 <printf>
    128e: a2 04        	ldx	#$4
    1290: 86 32        	stx	$32                     ; 0x2032 <_ZN12_GLOBAL__N_13putEcP6Status+0x2b>
    1292: 8e 14 d0     	stx	$d014                   ; 0xd014 <end_block9+0x98ca>
    1295: 9c 15 d0     	stz	$d015                   ; 0xd015 <end_block9+0x98cb>
    1298: a2 19        	ldx	#$19
    129a: 86 33        	stx	$33                     ; 0x2033 <_ZN12_GLOBAL__N_13putEcP6Status+0x2c>
    129c: 8e 16 d0     	stx	$d016                   ; 0xd016 <end_block9+0x98cc>
    129f: 9c 17 d0     	stz	$d017                   ; 0xd017 <end_block9+0x98cd>
    12a2: a2 ac        	ldx	#$ac
    12a4: 86 12        	stx	$12                     ; 0x2012 <_ZN12_GLOBAL__N_13putEcP6Status+0xb>
    12a6: a2 35        	ldx	#$35
    12a8: 4c cb 18     	jmp	$18cb <f256main+0x1186>
    12ab: e6 26        	inc	$26                     ; 0x2026 <_ZN12_GLOBAL__N_13putEcP6Status+0x1f>
    12ad: 18           	clc
    12ae: a5 12        	lda	$12                     ; 0x2012 <_ZN12_GLOBAL__N_13putEcP6Status+0xb>
    12b0: 69 02        	adc	#$2
    12b2: 85 14        	sta	$14                     ; 0x2014 <_ZN12_GLOBAL__N_13putEcP6Status+0xd>
    12b4: a5 26        	lda	$26                     ; 0x2026 <_ZN12_GLOBAL__N_13putEcP6Status+0x1f>
    12b6: 0a           	asl
    12b7: 85 12        	sta	$12                     ; 0x2012 <_ZN12_GLOBAL__N_13putEcP6Status+0xb>
    12b9: a9 00        	lda	#$0
    12bb: 2a           	rol
    12bc: 85 13        	sta	$13                     ; 0x2013 <_ZN12_GLOBAL__N_13putEcP6Status+0xc>
    12be: a9 2b        	lda	#$2b
    12c0: 18           	clc
    12c1: 65 12        	adc	$12                     ; 0x2012 <_ZN12_GLOBAL__N_13putEcP6Status+0xb>
    12c3: aa           	tax
    12c4: a9 33        	lda	#$33
    12c6: 65 13        	adc	$13                     ; 0x2013 <_ZN12_GLOBAL__N_13putEcP6Status+0xc>
    12c8: a8           	tay
    12c9: a5 14        	lda	$14                     ; 0x2014 <_ZN12_GLOBAL__N_13putEcP6Status+0xd>
    12cb: 5a           	phy
    12cc: a0 03        	ldy	#$3
    12ce: 91 10        	sta	($10),y                 ; 0x2010 <_ZN12_GLOBAL__N_13putEcP6Status+0x9>
    12d0: 7a           	ply
    12d1: 0a           	asl
    12d2: 85 12        	sta	$12                     ; 0x2012 <_ZN12_GLOBAL__N_13putEcP6Status+0xb>
    12d4: a9 00        	lda	#$0
    12d6: 2a           	rol
    12d7: 85 13        	sta	$13                     ; 0x2013 <_ZN12_GLOBAL__N_13putEcP6Status+0xc>
    12d9: a9 2b        	lda	#$2b
    12db: 18           	clc
    12dc: 65 12        	adc	$12                     ; 0x2012 <_ZN12_GLOBAL__N_13putEcP6Status+0xb>
    12de: 85 15        	sta	$15                     ; 0x2015 <_ZN12_GLOBAL__N_13putEcP6Status+0xe>
    12e0: a9 33        	lda	#$33
    12e2: 65 13        	adc	$13                     ; 0x2013 <_ZN12_GLOBAL__N_13putEcP6Status+0xc>
    12e4: 85 16        	sta	$16                     ; 0x2016 <_ZN12_GLOBAL__N_13putEcP6Status+0xf>
    12e6: 86 12        	stx	$12                     ; 0x2012 <_ZN12_GLOBAL__N_13putEcP6Status+0xb>
    12e8: 84 13        	sty	$13                     ; 0x2013 <_ZN12_GLOBAL__N_13putEcP6Status+0xc>
    12ea: b2 12        	lda	($12)                   ; 0x2012 <_ZN12_GLOBAL__N_13putEcP6Status+0xb>
    12ec: 85 14        	sta	$14                     ; 0x2014 <_ZN12_GLOBAL__N_13putEcP6Status+0xd>
    12ee: a6 15        	ldx	$15                     ; 0x2015 <_ZN12_GLOBAL__N_13putEcP6Status+0xe>
    12f0: 86 12        	stx	$12                     ; 0x2012 <_ZN12_GLOBAL__N_13putEcP6Status+0xb>
    12f2: a6 16        	ldx	$16                     ; 0x2016 <_ZN12_GLOBAL__N_13putEcP6Status+0xf>
    12f4: 86 13        	stx	$13                     ; 0x2013 <_ZN12_GLOBAL__N_13putEcP6Status+0xc>
    12f6: b2 12        	lda	($12)                   ; 0x2012 <_ZN12_GLOBAL__N_13putEcP6Status+0xb>
    12f8: aa           	tax
    12f9: a5 14        	lda	$14                     ; 0x2014 <_ZN12_GLOBAL__N_13putEcP6Status+0xd>
    12fb: 4a           	lsr
    12fc: 29 1f        	and	#$1f
    12fe: 85 12        	sta	$12                     ; 0x2012 <_ZN12_GLOBAL__N_13putEcP6Status+0xb>
    1300: 8a           	txa
    1301: 4a           	lsr
    1302: 29 1f        	and	#$1f
    1304: a6 12        	ldx	$12                     ; 0x2012 <_ZN12_GLOBAL__N_13putEcP6Status+0xb>
    1306: 8e 08 d2     	stx	$d208                   ; 0xd208 <end_block9+0x9abe>
    1309: 9c 09 d2     	stz	$d209                   ; 0xd209 <end_block9+0x9abf>
    130c: 8d 0a d2     	sta	$d20a                   ; 0xd20a <end_block9+0x9ac0>
    130f: 9c 0b d2     	stz	$d20b                   ; 0xd20b <end_block9+0x9ac1>
    1312: a2 80        	ldx	#$80
    1314: 86 f3        	stx	$f3                     ; 0x20f3 <_ZN12_GLOBAL__N_112print_stringEPKcP6Status+0x19>
    1316: a2 49        	ldx	#$49
    1318: 86 12        	stx	$12                     ; 0x2012 <_ZN12_GLOBAL__N_13putEcP6Status+0xb>
    131a: a2 37        	ldx	#$37
    131c: 86 13        	stx	$13                     ; 0x2013 <_ZN12_GLOBAL__N_13putEcP6Status+0xc>
    131e: a0 05        	ldy	#$5
    1320: b1 10        	lda	($10),y                 ; 0x2010 <_ZN12_GLOBAL__N_13putEcP6Status+0x9>
    1322: 85 18        	sta	$18                     ; 0x2018 <_ZN12_GLOBAL__N_13putEcP6Status+0x11>
    1324: c8           	iny
    1325: b1 10        	lda	($10),y                 ; 0x2010 <_ZN12_GLOBAL__N_13putEcP6Status+0x9>
    1327: 85 19        	sta	$19                     ; 0x2019 <_ZN12_GLOBAL__N_13putEcP6Status+0x12>
    1329: 20 f0 ff     	jsr	$fff0 <end_block9+0xc8a6>
    132c: 92 18        	sta	($18)                   ; 0x2018 <_ZN12_GLOBAL__N_13putEcP6Status+0x11>
    132e: a9 00        	lda	#$0
    1330: 6a           	ror
    1331: 85 12        	sta	$12                     ; 0x2012 <_ZN12_GLOBAL__N_13putEcP6Status+0xb>
    1333: a9 03        	lda	#$3
    1335: 18           	clc
    1336: 72 18        	adc	($18)                   ; 0x2018 <_ZN12_GLOBAL__N_13putEcP6Status+0x11>
    1338: 85 8d        	sta	$8d                     ; 0x208d <_ZN12_GLOBAL__N_13putEcP6Status+0x86>
    133a: 64 f3        	stz	$f3                     ; 0x20f3 <_ZN12_GLOBAL__N_112print_stringEPKcP6Status+0x19>
    133c: a6 8d        	ldx	$8d                     ; 0x208d <_ZN12_GLOBAL__N_13putEcP6Status+0x86>
    133e: 86 f4        	stx	$f4                     ; 0x20f4 <_ZN12_GLOBAL__N_112print_stringEPKcP6Status+0x1a>
    1340: a2 03        	ldx	#$3
    1342: 86 f5        	stx	$f5                     ; 0x20f5 <_ZN12_GLOBAL__N_112print_stringEPKcP6Status+0x1b>
    1344: a0 0a        	ldy	#$a
    1346: b1 10        	lda	($10),y                 ; 0x2010 <_ZN12_GLOBAL__N_13putEcP6Status+0x9>
    1348: 88           	dey
    1349: 91 10        	sta	($10),y                 ; 0x2010 <_ZN12_GLOBAL__N_13putEcP6Status+0x9>
    134b: a0 0b        	ldy	#$b
    134d: b1 10        	lda	($10),y                 ; 0x2010 <_ZN12_GLOBAL__N_13putEcP6Status+0x9>
    134f: a8           	tay
    1350: 5a           	phy
    1351: a0 07        	ldy	#$7
    1353: b1 10        	lda	($10),y                 ; 0x2010 <_ZN12_GLOBAL__N_13putEcP6Status+0x9>
    1355: 7a           	ply
    1356: aa           	tax
    1357: 20 f0 ff     	jsr	$fff0 <end_block9+0xc8a6>
    135a: 92 18        	sta	($18)                   ; 0x2018 <_ZN12_GLOBAL__N_13putEcP6Status+0x11>
    135c: a9 00        	lda	#$0
    135e: 6a           	ror
    135f: 85 12        	sta	$12                     ; 0x2012 <_ZN12_GLOBAL__N_13putEcP6Status+0xb>
    1361: 4c 63 1b     	jmp	$1b63 <f256main+0x141e>
    1364: a9 80        	lda	#$80
    1366: 05 8e        	ora	$8e                     ; 0x208e <_ZN12_GLOBAL__N_13putEcP6Status+0x87>
    1368: 8d a1 dd     	sta	$dda1                   ; 0xdda1 <end_block9+0xa657>
    136b: 9c a1 dd     	stz	$dda1                   ; 0xdda1 <end_block9+0xa657>
    136e: a2 6f        	ldx	#$6f
    1370: 8e a1 dd     	stx	$dda1                   ; 0xdda1 <end_block9+0xa657>
    1373: a0 02        	ldy	#$2
    1375: b1 10        	lda	($10),y                 ; 0x2010 <_ZN12_GLOBAL__N_13putEcP6Status+0x9>
    1377: aa           	tax
    1378: a0 07        	ldy	#$7
    137a: b1 10        	lda	($10),y                 ; 0x2010 <_ZN12_GLOBAL__N_13putEcP6Status+0x9>
    137c: e0 00        	cpx	#$0
    137e: d0 03        	bne	$1383 <f256main+0xc3e>
    1380: 4c 10 19     	jmp	$1910 <f256main+0x11cb>
    1383: 48           	pha
    1384: a0 08        	ldy	#$8
    1386: b1 10        	lda	($10),y                 ; 0x2010 <_ZN12_GLOBAL__N_13putEcP6Status+0x9>
    1388: a8           	tay
    1389: 68           	pla
    138a: c0 49        	cpy	#$49
    138c: 90 03        	bcc	$1391 <f256main+0xc4c>
    138e: 4c e6 18     	jmp	$18e6 <f256main+0x11a1>
    1391: c8           	iny
    1392: be d9 32     	ldx	$32d9,y                 ; 0x32d9 <songNotes>
    1395: 86 8e        	stx	$8e                     ; 0x208e <_ZN12_GLOBAL__N_13putEcP6Status+0x87>
    1397: 64 8f        	stz	$8f                     ; 0x208f <_ZN12_GLOBAL__N_13putEcP6Status+0x88>
    1399: a2 80        	ldx	#$80
    139b: 86 f3        	stx	$f3                     ; 0x20f3 <_ZN12_GLOBAL__N_112print_stringEPKcP6Status+0x19>
    139d: a2 49        	ldx	#$49
    139f: 86 12        	stx	$12                     ; 0x2012 <_ZN12_GLOBAL__N_13putEcP6Status+0xb>
    13a1: a2 37        	ldx	#$37
    13a3: 86 13        	stx	$13                     ; 0x2013 <_ZN12_GLOBAL__N_13putEcP6Status+0xc>
    13a5: 5a           	phy
    13a6: a0 05        	ldy	#$5
    13a8: b1 10        	lda	($10),y                 ; 0x2010 <_ZN12_GLOBAL__N_13putEcP6Status+0x9>
    13aa: 85 16        	sta	$16                     ; 0x2016 <_ZN12_GLOBAL__N_13putEcP6Status+0xf>
    13ac: c8           	iny
    13ad: b1 10        	lda	($10),y                 ; 0x2010 <_ZN12_GLOBAL__N_13putEcP6Status+0x9>
    13af: 7a           	ply
    13b0: 85 17        	sta	$17                     ; 0x2017 <_ZN12_GLOBAL__N_13putEcP6Status+0x10>
    13b2: 20 f0 ff     	jsr	$fff0 <end_block9+0xc8a6>
    13b5: 92 16        	sta	($16)                   ; 0x2016 <_ZN12_GLOBAL__N_13putEcP6Status+0xf>
    13b7: a9 00        	lda	#$0
    13b9: 6a           	ror
    13ba: 85 12        	sta	$12                     ; 0x2012 <_ZN12_GLOBAL__N_13putEcP6Status+0xb>
    13bc: 18           	clc
    13bd: a9 19        	lda	#$19
    13bf: 72 16        	adc	($16)                   ; 0x2016 <_ZN12_GLOBAL__N_13putEcP6Status+0xf>
    13c1: 85 8b        	sta	$8b                     ; 0x208b <_ZN12_GLOBAL__N_13putEcP6Status+0x84>
    13c3: a5 89        	lda	$89                     ; 0x2089 <_ZN12_GLOBAL__N_13putEcP6Status+0x82>
    13c5: 29 01        	and	#$1
    13c7: f0 38        	beq	$1401 <f256main+0xcbc>
    13c9: a2 9f        	ldx	#$9f
    13cb: 8e 08 d6     	stx	$d608                   ; 0xd608 <end_block9+0x9ebe>
    13ce: a2 94        	ldx	#$94
    13d0: 8e 08 d6     	stx	$d608                   ; 0xd608 <end_block9+0x9ebe>
    13d3: a9 48        	lda	#$48
    13d5: 18           	clc
    13d6: 65 8e        	adc	$8e                     ; 0x208e <_ZN12_GLOBAL__N_13putEcP6Status+0x87>
    13d8: 85 12        	sta	$12                     ; 0x2012 <_ZN12_GLOBAL__N_13putEcP6Status+0xb>
    13da: a9 30        	lda	#$30
    13dc: 65 8f        	adc	$8f                     ; 0x208f <_ZN12_GLOBAL__N_13putEcP6Status+0x88>
    13de: 85 13        	sta	$13                     ; 0x2013 <_ZN12_GLOBAL__N_13putEcP6Status+0xc>
    13e0: b2 12        	lda	($12)                   ; 0x2012 <_ZN12_GLOBAL__N_13putEcP6Status+0xb>
    13e2: aa           	tax
    13e3: bd 43 31     	lda	$3143,x                 ; 0x3143 <KeyCodesToLoPSG>
    13e6: aa           	tax
    13e7: 8e 08 d6     	stx	$d608                   ; 0xd608 <end_block9+0x9ebe>
    13ea: a9 48        	lda	#$48
    13ec: 18           	clc
    13ed: 65 8e        	adc	$8e                     ; 0x208e <_ZN12_GLOBAL__N_13putEcP6Status+0x87>
    13ef: 85 12        	sta	$12                     ; 0x2012 <_ZN12_GLOBAL__N_13putEcP6Status+0xb>
    13f1: a9 30        	lda	#$30
    13f3: 65 8f        	adc	$8f                     ; 0x208f <_ZN12_GLOBAL__N_13putEcP6Status+0x88>
    13f5: 85 13        	sta	$13                     ; 0x2013 <_ZN12_GLOBAL__N_13putEcP6Status+0xc>
    13f7: b2 12        	lda	($12)                   ; 0x2012 <_ZN12_GLOBAL__N_13putEcP6Status+0xb>
    13f9: aa           	tax
    13fa: bd be 31     	lda	$31be,x                 ; 0x31be <KeyCodesToHiPSG>
    13fd: aa           	tax
    13fe: 8e 08 d6     	stx	$d608                   ; 0xd608 <end_block9+0x9ebe>
    1401: 98           	tya
    1402: a0 08        	ldy	#$8
    1404: 91 10        	sta	($10),y                 ; 0x2010 <_ZN12_GLOBAL__N_13putEcP6Status+0x9>
    1406: 64 f3        	stz	$f3                     ; 0x20f3 <_ZN12_GLOBAL__N_112print_stringEPKcP6Status+0x19>
    1408: a6 8b        	ldx	$8b                     ; 0x208b <_ZN12_GLOBAL__N_13putEcP6Status+0x84>
    140a: 86 f4        	stx	$f4                     ; 0x20f4 <_ZN12_GLOBAL__N_112print_stringEPKcP6Status+0x1a>
    140c: a2 01        	ldx	#$1
    140e: 86 f5        	stx	$f5                     ; 0x20f5 <_ZN12_GLOBAL__N_112print_stringEPKcP6Status+0x1b>
    1410: a2 49        	ldx	#$49
    1412: 86 12        	stx	$12                     ; 0x2012 <_ZN12_GLOBAL__N_13putEcP6Status+0xb>
    1414: a2 37        	ldx	#$37
    1416: 86 13        	stx	$13                     ; 0x2013 <_ZN12_GLOBAL__N_13putEcP6Status+0xc>
    1418: a0 05        	ldy	#$5
    141a: b1 10        	lda	($10),y                 ; 0x2010 <_ZN12_GLOBAL__N_13putEcP6Status+0x9>
    141c: 85 14        	sta	$14                     ; 0x2014 <_ZN12_GLOBAL__N_13putEcP6Status+0xd>
    141e: c8           	iny
    141f: b1 10        	lda	($10),y                 ; 0x2010 <_ZN12_GLOBAL__N_13putEcP6Status+0x9>
    1421: 85 15        	sta	$15                     ; 0x2015 <_ZN12_GLOBAL__N_13putEcP6Status+0xe>
    1423: 20 f0 ff     	jsr	$fff0 <end_block9+0xc8a6>
    1426: 92 14        	sta	($14)                   ; 0x2014 <_ZN12_GLOBAL__N_13putEcP6Status+0xd>
    1428: a9 00        	lda	#$0
    142a: 6a           	ror
    142b: 85 12        	sta	$12                     ; 0x2012 <_ZN12_GLOBAL__N_13putEcP6Status+0xb>
    142d: a5 89        	lda	$89                     ; 0x2089 <_ZN12_GLOBAL__N_13putEcP6Status+0x82>
    142f: 29 01        	and	#$1
    1431: d0 0f        	bne	$1442 <f256main+0xcfd>
    1433: a6 8e        	ldx	$8e                     ; 0x208e <_ZN12_GLOBAL__N_13putEcP6Status+0x87>
    1435: a0 90        	ldy	#$90
    1437: 8c a1 dd     	sty	$dda1                   ; 0xdda1 <end_block9+0xa657>
    143a: 8e a1 dd     	stx	$dda1                   ; 0xdda1 <end_block9+0xa657>
    143d: a2 6f        	ldx	#$6f
    143f: 8e a1 dd     	stx	$dda1                   ; 0xdda1 <end_block9+0xa657>
    1442: a5 8e        	lda	$8e                     ; 0x208e <_ZN12_GLOBAL__N_13putEcP6Status+0x87>
    1444: 0a           	asl
    1445: 85 12        	sta	$12                     ; 0x2012 <_ZN12_GLOBAL__N_13putEcP6Status+0xb>
    1447: a9 00        	lda	#$0
    1449: 2a           	rol
    144a: 85 13        	sta	$13                     ; 0x2013 <_ZN12_GLOBAL__N_13putEcP6Status+0xc>
    144c: a9 39        	lda	#$39
    144e: 18           	clc
    144f: 65 12        	adc	$12                     ; 0x2012 <_ZN12_GLOBAL__N_13putEcP6Status+0xb>
    1451: 85 12        	sta	$12                     ; 0x2012 <_ZN12_GLOBAL__N_13putEcP6Status+0xb>
    1453: a9 32        	lda	#$32
    1455: 65 13        	adc	$13                     ; 0x2013 <_ZN12_GLOBAL__N_13putEcP6Status+0xc>
    1457: 85 13        	sta	$13                     ; 0x2013 <_ZN12_GLOBAL__N_13putEcP6Status+0xc>
    1459: b2 12        	lda	($12)                   ; 0x2012 <_ZN12_GLOBAL__N_13putEcP6Status+0xb>
    145b: 85 14        	sta	$14                     ; 0x2014 <_ZN12_GLOBAL__N_13putEcP6Status+0xd>
    145d: a0 01        	ldy	#$1
    145f: b1 12        	lda	($12),y                 ; 0x2012 <_ZN12_GLOBAL__N_13putEcP6Status+0xb>
    1461: 85 12        	sta	$12                     ; 0x2012 <_ZN12_GLOBAL__N_13putEcP6Status+0xb>
    1463: 98           	tya
    1464: 05 46        	ora	$46                     ; 0x2046 <_ZN12_GLOBAL__N_13putEcP6Status+0x3f>
    1466: 8d 08 d9     	sta	$d908                   ; 0xd908 <end_block9+0xa1be>
    1469: a6 14        	ldx	$14                     ; 0x2014 <_ZN12_GLOBAL__N_13putEcP6Status+0xd>
    146b: 8e 0c d9     	stx	$d90c                   ; 0xd90c <end_block9+0xa1c2>
    146e: a6 12        	ldx	$12                     ; 0x2012 <_ZN12_GLOBAL__N_13putEcP6Status+0xb>
    1470: 8e 0d d9     	stx	$d90d                   ; 0xd90d <end_block9+0xa1c3>
    1473: a2 c0        	ldx	#$c0
    1475: 8e 0e d9     	stx	$d90e                   ; 0xd90e <end_block9+0xa1c4>
    1478: 9c 0f d9     	stz	$d90f                   ; 0xd90f <end_block9+0xa1c5>
    147b: a2 01        	ldx	#$1
    147d: 8a           	txa
    147e: c8           	iny
    147f: 91 10        	sta	($10),y                 ; 0x2010 <_ZN12_GLOBAL__N_13putEcP6Status+0x9>
    1481: 4c d0 18     	jmp	$18d0 <f256main+0x118b>
    1484: a2 01        	ldx	#$1
    1486: 8a           	txa
    1487: a0 09        	ldy	#$9
    1489: 91 10        	sta	($10),y                 ; 0x2010 <_ZN12_GLOBAL__N_13putEcP6Status+0x9>
    148b: a0 07        	ldy	#$7
    148d: b1 10        	lda	($10),y                 ; 0x2010 <_ZN12_GLOBAL__N_13putEcP6Status+0x9>
    148f: aa           	tax
    1490: a0 01        	ldy	#$1
    1492: 5a           	phy
    1493: a0 08        	ldy	#$8
    1495: b1 10        	lda	($10),y                 ; 0x2010 <_ZN12_GLOBAL__N_13putEcP6Status+0x9>
    1497: 7a           	ply
    1498: c9 4a        	cmp	#$4a
    149a: f0 03        	beq	$149f <f256main+0xd5a>
    149c: 4c 63 1b     	jmp	$1b63 <f256main+0x141e>
    149f: a2 19        	ldx	#$19
    14a1: 86 32        	stx	$32                     ; 0x2032 <_ZN12_GLOBAL__N_13putEcP6Status+0x2b>
    14a3: 8e 14 d0     	stx	$d014                   ; 0xd014 <end_block9+0x98ca>
    14a6: 9c 15 d0     	stz	$d015                   ; 0xd015 <end_block9+0x98cb>
    14a9: a2 08        	ldx	#$8
    14ab: 86 33        	stx	$33                     ; 0x2033 <_ZN12_GLOBAL__N_13putEcP6Status+0x2c>
    14ad: 8e 16 d0     	stx	$d016                   ; 0xd016 <end_block9+0x98cc>
    14b0: 9c 17 d0     	stz	$d017                   ; 0xd017 <end_block9+0x98cd>
    14b3: a2 00        	ldx	#$0
    14b5: a9 2f        	lda	#$2f
    14b7: 20 bf 2d     	jsr	$2dbf <putchar>
    14ba: a2 1a        	ldx	#$1a
    14bc: 86 32        	stx	$32                     ; 0x2032 <_ZN12_GLOBAL__N_13putEcP6Status+0x2b>
    14be: 8e 14 d0     	stx	$d014                   ; 0xd014 <end_block9+0x98ca>
    14c1: 9c 15 d0     	stz	$d015                   ; 0xd015 <end_block9+0x98cb>
    14c4: a2 07        	ldx	#$7
    14c6: 86 33        	stx	$33                     ; 0x2033 <_ZN12_GLOBAL__N_13putEcP6Status+0x2c>
    14c8: 8e 16 d0     	stx	$d016                   ; 0xd016 <end_block9+0x98cc>
    14cb: 9c 17 d0     	stz	$d017                   ; 0xd017 <end_block9+0x98cd>
    14ce: a6 87        	ldx	$87                     ; 0x2087 <_ZN12_GLOBAL__N_13putEcP6Status+0x80>
    14d0: e0 48        	cpx	#$48
    14d2: b0 03        	bcs	$14d7 <f256main+0xd92>
    14d4: 4c 89 15     	jmp	$1589 <f256main+0xe44>
    14d7: a2 da        	ldx	#$da
    14d9: 86 12        	stx	$12                     ; 0x2012 <_ZN12_GLOBAL__N_13putEcP6Status+0xb>
    14db: a2 36        	ldx	#$36
    14dd: 86 13        	stx	$13                     ; 0x2013 <_ZN12_GLOBAL__N_13putEcP6Status+0xc>
    14df: 20 e6 21     	jsr	$21e6 <printf>
    14e2: a2 01        	ldx	#$1
    14e4: 86 88        	stx	$88                     ; 0x2088 <_ZN12_GLOBAL__N_13putEcP6Status+0x81>
    14e6: a2 50        	ldx	#$50
    14e8: 86 30        	stx	$30                     ; 0x2030 <_ZN12_GLOBAL__N_13putEcP6Status+0x29>
    14ea: 64 12        	stz	$12                     ; 0x2012 <_ZN12_GLOBAL__N_13putEcP6Status+0xb>
    14ec: 64 31        	stz	$31                     ; 0x2031 <_ZN12_GLOBAL__N_13putEcP6Status+0x2a>
    14ee: a9 01        	lda	#$1
    14f0: 05 4f        	ora	$4f                     ; 0x204f <_ZN12_GLOBAL__N_13putEcP6Status+0x48>
    14f2: 8d 50 d9     	sta	$d950                   ; 0xd950 <end_block9+0xa206>
    14f5: a5 88        	lda	$88                     ; 0x2088 <_ZN12_GLOBAL__N_13putEcP6Status+0x81>
    14f7: 29 01        	and	#$1
    14f9: a0 45        	ldy	#$45
    14fb: aa           	tax
    14fc: d0 02        	bne	$1500 <f256main+0xdbb>
    14fe: a0 b3        	ldy	#$b3
    1500: a5 30        	lda	$30                     ; 0x2030 <_ZN12_GLOBAL__N_13putEcP6Status+0x29>
    1502: a6 31        	ldx	$31                     ; 0x2031 <_ZN12_GLOBAL__N_13putEcP6Status+0x2a>
    1504: 8c 54 d9     	sty	$d954                   ; 0xd954 <end_block9+0xa20a>
    1507: a0 00        	ldy	#$0
    1509: 8c 55 d9     	sty	$d955                   ; 0xd955 <end_block9+0xa20b>
    150c: 8d 56 d9     	sta	$d956                   ; 0xd956 <end_block9+0xa20c>
    150f: 8e 57 d9     	stx	$d957                   ; 0xd957 <end_block9+0xa20d>
    1512: a9 01        	lda	#$1
    1514: 05 50        	ora	$50                     ; 0x2050 <_ZN12_GLOBAL__N_13putEcP6Status+0x49>
    1516: 8d 58 d9     	sta	$d958                   ; 0xd958 <end_block9+0xa20e>
    1519: a5 88        	lda	$88                     ; 0x2088 <_ZN12_GLOBAL__N_13putEcP6Status+0x81>
    151b: 29 01        	and	#$1
    151d: a0 65        	ldy	#$65
    151f: aa           	tax
    1520: d0 02        	bne	$1524 <f256main+0xddf>
    1522: a0 d3        	ldy	#$d3
    1524: a6 30        	ldx	$30                     ; 0x2030 <_ZN12_GLOBAL__N_13putEcP6Status+0x29>
    1526: a5 31        	lda	$31                     ; 0x2031 <_ZN12_GLOBAL__N_13putEcP6Status+0x2a>
    1528: 8c 5c d9     	sty	$d95c                   ; 0xd95c <end_block9+0xa212>
    152b: a0 00        	ldy	#$0
    152d: 8c 5d d9     	sty	$d95d                   ; 0xd95d <end_block9+0xa213>
    1530: 8e 5e d9     	stx	$d95e                   ; 0xd95e <end_block9+0xa214>
    1533: 8d 5f d9     	sta	$d95f                   ; 0xd95f <end_block9+0xa215>
    1536: a2 80        	ldx	#$80
    1538: 86 f3        	stx	$f3                     ; 0x20f3 <_ZN12_GLOBAL__N_112print_stringEPKcP6Status+0x19>
    153a: a2 49        	ldx	#$49
    153c: 86 14        	stx	$14                     ; 0x2014 <_ZN12_GLOBAL__N_13putEcP6Status+0xd>
    153e: a2 37        	ldx	#$37
    1540: 86 15        	stx	$15                     ; 0x2015 <_ZN12_GLOBAL__N_13putEcP6Status+0xe>
    1542: a0 05        	ldy	#$5
    1544: b1 10        	lda	($10),y                 ; 0x2010 <_ZN12_GLOBAL__N_13putEcP6Status+0x9>
    1546: 85 18        	sta	$18                     ; 0x2018 <_ZN12_GLOBAL__N_13putEcP6Status+0x11>
    1548: c8           	iny
    1549: b1 10        	lda	($10),y                 ; 0x2010 <_ZN12_GLOBAL__N_13putEcP6Status+0x9>
    154b: 85 19        	sta	$19                     ; 0x2019 <_ZN12_GLOBAL__N_13putEcP6Status+0x12>
    154d: 20 f0 ff     	jsr	$fff0 <end_block9+0xc8a6>
    1550: 92 18        	sta	($18)                   ; 0x2018 <_ZN12_GLOBAL__N_13putEcP6Status+0x11>
    1552: a9 00        	lda	#$0
    1554: 6a           	ror
    1555: 85 14        	sta	$14                     ; 0x2014 <_ZN12_GLOBAL__N_13putEcP6Status+0xd>
    1557: a9 03        	lda	#$3
    1559: 18           	clc
    155a: 72 18        	adc	($18)                   ; 0x2018 <_ZN12_GLOBAL__N_13putEcP6Status+0x11>
    155c: 85 8c        	sta	$8c                     ; 0x208c <_ZN12_GLOBAL__N_13putEcP6Status+0x85>
    155e: 64 f3        	stz	$f3                     ; 0x20f3 <_ZN12_GLOBAL__N_112print_stringEPKcP6Status+0x19>
    1560: a6 8c        	ldx	$8c                     ; 0x208c <_ZN12_GLOBAL__N_13putEcP6Status+0x85>
    1562: 86 f4        	stx	$f4                     ; 0x20f4 <_ZN12_GLOBAL__N_112print_stringEPKcP6Status+0x1a>
    1564: a2 02        	ldx	#$2
    1566: 86 f5        	stx	$f5                     ; 0x20f5 <_ZN12_GLOBAL__N_112print_stringEPKcP6Status+0x1b>
    1568: a2 4a        	ldx	#$4a
    156a: 8a           	txa
    156b: a0 08        	ldy	#$8
    156d: 91 10        	sta	($10),y                 ; 0x2010 <_ZN12_GLOBAL__N_13putEcP6Status+0x9>
    156f: a9 00        	lda	#$0
    1571: c8           	iny
    1572: 91 10        	sta	($10),y                 ; 0x2010 <_ZN12_GLOBAL__N_13putEcP6Status+0x9>
    1574: a8           	tay
    1575: 5a           	phy
    1576: a0 07        	ldy	#$7
    1578: b1 10        	lda	($10),y                 ; 0x2010 <_ZN12_GLOBAL__N_13putEcP6Status+0x9>
    157a: 7a           	ply
    157b: aa           	tax
    157c: 20 f0 ff     	jsr	$fff0 <end_block9+0xc8a6>
    157f: 92 18        	sta	($18)                   ; 0x2018 <_ZN12_GLOBAL__N_13putEcP6Status+0x11>
    1581: a9 00        	lda	#$0
    1583: 6a           	ror
    1584: 85 14        	sta	$14                     ; 0x2014 <_ZN12_GLOBAL__N_13putEcP6Status+0xd>
    1586: 4c 63 1b     	jmp	$1b63 <f256main+0x141e>
    1589: a2 78        	ldx	#$78
    158b: 86 12        	stx	$12                     ; 0x2012 <_ZN12_GLOBAL__N_13putEcP6Status+0xb>
    158d: a2 35        	ldx	#$35
    158f: 86 13        	stx	$13                     ; 0x2013 <_ZN12_GLOBAL__N_13putEcP6Status+0xc>
    1591: 20 e6 21     	jsr	$21e6 <printf>
    1594: a2 4a        	ldx	#$4a
    1596: 8a           	txa
    1597: a0 08        	ldy	#$8
    1599: 91 10        	sta	($10),y                 ; 0x2010 <_ZN12_GLOBAL__N_13putEcP6Status+0x9>
    159b: 64 12        	stz	$12                     ; 0x2012 <_ZN12_GLOBAL__N_13putEcP6Status+0xb>
    159d: a9 00        	lda	#$0
    159f: c8           	iny
    15a0: 91 10        	sta	($10),y                 ; 0x2010 <_ZN12_GLOBAL__N_13putEcP6Status+0x9>
    15a2: 4c db 18     	jmp	$18db <f256main+0x1196>
    15a5: a0 0d        	ldy	#$d
    15a7: b1 10        	lda	($10),y                 ; 0x2010 <_ZN12_GLOBAL__N_13putEcP6Status+0x9>
    15a9: 85 29        	sta	$29                     ; 0x2029 <_ZN12_GLOBAL__N_13putEcP6Status+0x22>
    15ab: 64 87        	stz	$87                     ; 0x2087 <_ZN12_GLOBAL__N_13putEcP6Status+0x80>
    15ad: a2 80        	ldx	#$80
    15af: 86 f3        	stx	$f3                     ; 0x20f3 <_ZN12_GLOBAL__N_112print_stringEPKcP6Status+0x19>
    15b1: a2 49        	ldx	#$49
    15b3: 86 14        	stx	$14                     ; 0x2014 <_ZN12_GLOBAL__N_13putEcP6Status+0xd>
    15b5: a2 37        	ldx	#$37
    15b7: 86 15        	stx	$15                     ; 0x2015 <_ZN12_GLOBAL__N_13putEcP6Status+0xe>
    15b9: a0 05        	ldy	#$5
    15bb: b1 10        	lda	($10),y                 ; 0x2010 <_ZN12_GLOBAL__N_13putEcP6Status+0x9>
    15bd: 85 16        	sta	$16                     ; 0x2016 <_ZN12_GLOBAL__N_13putEcP6Status+0xf>
    15bf: c8           	iny
    15c0: b1 10        	lda	($10),y                 ; 0x2010 <_ZN12_GLOBAL__N_13putEcP6Status+0x9>
    15c2: 85 17        	sta	$17                     ; 0x2017 <_ZN12_GLOBAL__N_13putEcP6Status+0x10>
    15c4: 20 f0 ff     	jsr	$fff0 <end_block9+0xc8a6>
    15c7: 92 16        	sta	($16)                   ; 0x2016 <_ZN12_GLOBAL__N_13putEcP6Status+0xf>
    15c9: a9 00        	lda	#$0
    15cb: 6a           	ror
    15cc: 85 14        	sta	$14                     ; 0x2014 <_ZN12_GLOBAL__N_13putEcP6Status+0xd>
    15ce: a9 1e        	lda	#$1e
    15d0: 18           	clc
    15d1: 72 16        	adc	($16)                   ; 0x2016 <_ZN12_GLOBAL__N_13putEcP6Status+0xf>
    15d3: 85 8b        	sta	$8b                     ; 0x208b <_ZN12_GLOBAL__N_13putEcP6Status+0x84>
    15d5: a2 37        	ldx	#$37
    15d7: 86 8e        	stx	$8e                     ; 0x208e <_ZN12_GLOBAL__N_13putEcP6Status+0x87>
    15d9: 64 8f        	stz	$8f                     ; 0x208f <_ZN12_GLOBAL__N_13putEcP6Status+0x88>
    15db: 64 f3        	stz	$f3                     ; 0x20f3 <_ZN12_GLOBAL__N_112print_stringEPKcP6Status+0x19>
    15dd: a6 8b        	ldx	$8b                     ; 0x208b <_ZN12_GLOBAL__N_13putEcP6Status+0x84>
    15df: 86 f4        	stx	$f4                     ; 0x20f4 <_ZN12_GLOBAL__N_112print_stringEPKcP6Status+0x1a>
    15e1: a0 01        	ldy	#$1
    15e3: a2 01        	ldx	#$1
    15e5: 8a           	txa
    15e6: 5a           	phy
    15e7: a0 08        	ldy	#$8
    15e9: 91 10        	sta	($10),y                 ; 0x2010 <_ZN12_GLOBAL__N_13putEcP6Status+0x9>
    15eb: 7a           	ply
    15ec: 84 f5        	sty	$f5                     ; 0x20f5 <_ZN12_GLOBAL__N_112print_stringEPKcP6Status+0x1b>
    15ee: 20 f0 ff     	jsr	$fff0 <end_block9+0xc8a6>
    15f1: 92 16        	sta	($16)                   ; 0x2016 <_ZN12_GLOBAL__N_13putEcP6Status+0xf>
    15f3: a9 00        	lda	#$0
    15f5: 6a           	ror
    15f6: 85 14        	sta	$14                     ; 0x2014 <_ZN12_GLOBAL__N_13putEcP6Status+0xd>
    15f8: a6 8e        	ldx	$8e                     ; 0x208e <_ZN12_GLOBAL__N_13putEcP6Status+0x87>
    15fa: a0 90        	ldy	#$90
    15fc: 8c a1 dd     	sty	$dda1                   ; 0xdda1 <end_block9+0xa657>
    15ff: 8e a1 dd     	stx	$dda1                   ; 0xdda1 <end_block9+0xa657>
    1602: a2 6f        	ldx	#$6f
    1604: 8e a1 dd     	stx	$dda1                   ; 0xdda1 <end_block9+0xa657>
    1607: a2 19        	ldx	#$19
    1609: 86 32        	stx	$32                     ; 0x2032 <_ZN12_GLOBAL__N_13putEcP6Status+0x2b>
    160b: 8e 14 d0     	stx	$d014                   ; 0xd014 <end_block9+0x98ca>
    160e: 9c 15 d0     	stz	$d015                   ; 0xd015 <end_block9+0x98cb>
    1611: a2 08        	ldx	#$8
    1613: 86 33        	stx	$33                     ; 0x2033 <_ZN12_GLOBAL__N_13putEcP6Status+0x2c>
    1615: 8e 16 d0     	stx	$d016                   ; 0xd016 <end_block9+0x98cc>
    1618: 9c 17 d0     	stz	$d017                   ; 0xd017 <end_block9+0x98cd>
    161b: a2 00        	ldx	#$0
    161d: a9 20        	lda	#$20
    161f: 20 bf 2d     	jsr	$2dbf <putchar>
    1622: a2 1a        	ldx	#$1a
    1624: 86 32        	stx	$32                     ; 0x2032 <_ZN12_GLOBAL__N_13putEcP6Status+0x2b>
    1626: 8e 14 d0     	stx	$d014                   ; 0xd014 <end_block9+0x98ca>
    1629: 9c 15 d0     	stz	$d015                   ; 0xd015 <end_block9+0x98cb>
    162c: a2 07        	ldx	#$7
    162e: 86 33        	stx	$33                     ; 0x2033 <_ZN12_GLOBAL__N_13putEcP6Status+0x2c>
    1630: 8e 16 d0     	stx	$d016                   ; 0xd016 <end_block9+0x98cc>
    1633: 9c 17 d0     	stz	$d017                   ; 0xd017 <end_block9+0x98cd>
    1636: a2 1f        	ldx	#$1f
    1638: 86 12        	stx	$12                     ; 0x2012 <_ZN12_GLOBAL__N_13putEcP6Status+0xb>
    163a: a2 37        	ldx	#$37
    163c: 86 13        	stx	$13                     ; 0x2013 <_ZN12_GLOBAL__N_13putEcP6Status+0xc>
    163e: 20 e6 21     	jsr	$21e6 <printf>
    1641: a6 4f        	ldx	$4f                     ; 0x204f <_ZN12_GLOBAL__N_13putEcP6Status+0x48>
    1643: 8e 50 d9     	stx	$d950                   ; 0xd950 <end_block9+0xa206>
    1646: a6 50        	ldx	$50                     ; 0x2050 <_ZN12_GLOBAL__N_13putEcP6Status+0x49>
    1648: 8e 58 d9     	stx	$d958                   ; 0xd958 <end_block9+0xa20e>
    164b: 64 12        	stz	$12                     ; 0x2012 <_ZN12_GLOBAL__N_13putEcP6Status+0xb>
    164d: a9 00        	lda	#$0
    164f: a0 09        	ldy	#$9
    1651: 91 10        	sta	($10),y                 ; 0x2010 <_ZN12_GLOBAL__N_13putEcP6Status+0x9>
    1653: a0 01        	ldy	#$1
    1655: 4c dc 18     	jmp	$18dc <f256main+0x1197>
    1658: a0 0d        	ldy	#$d
    165a: b1 10        	lda	($10),y                 ; 0x2010 <_ZN12_GLOBAL__N_13putEcP6Status+0x9>
    165c: 85 29        	sta	$29                     ; 0x2029 <_ZN12_GLOBAL__N_13putEcP6Status+0x22>
    165e: a5 17        	lda	$17                     ; 0x2017 <_ZN12_GLOBAL__N_13putEcP6Status+0x10>
    1660: a0 08        	ldy	#$8
    1662: 91 10        	sta	($10),y                 ; 0x2010 <_ZN12_GLOBAL__N_13putEcP6Status+0x9>
    1664: a2 9f        	ldx	#$9f
    1666: 8e 08 d6     	stx	$d608                   ; 0xd608 <end_block9+0x9ebe>
    1669: a5 89        	lda	$89                     ; 0x2089 <_ZN12_GLOBAL__N_13putEcP6Status+0x82>
    166b: 29 01        	and	#$1
    166d: a2 10        	ldx	#$10
    166f: 86 43        	stx	$43                     ; 0x2043 <_ZN12_GLOBAL__N_13putEcP6Status+0x3c>
    1671: aa           	tax
    1672: d0 03        	bne	$1677 <f256main+0xf32>
    1674: 4c 44 18     	jmp	$1844 <f256main+0x10ff>
    1677: 9c 01 d2     	stz	$d201                   ; 0xd201 <end_block9+0x9ab7>
    167a: a2 88        	ldx	#$88
    167c: 8e 02 d2     	stx	$d202                   ; 0xd202 <end_block9+0x9ab8>
    167f: a2 03        	ldx	#$3
    1681: 8e 03 d2     	stx	$d203                   ; 0xd203 <end_block9+0x9ab9>
    1684: a2 17        	ldx	#$17
    1686: 8e 04 d2     	stx	$d204                   ; 0xd204 <end_block9+0x9aba>
    1689: 9c 05 d2     	stz	$d205                   ; 0xd205 <end_block9+0x9abb>
    168c: a2 13        	ldx	#$13
    168e: 8e 06 d2     	stx	$d206                   ; 0xd206 <end_block9+0x9abc>
    1691: 9c 07 d2     	stz	$d207                   ; 0xd207 <end_block9+0x9abd>
    1694: 9c 08 d2     	stz	$d208                   ; 0xd208 <end_block9+0x9abe>
    1697: 9c 09 d2     	stz	$d209                   ; 0xd209 <end_block9+0x9abf>
    169a: 9c 0a d2     	stz	$d20a                   ; 0xd20a <end_block9+0x9ac0>
    169d: 9c 0b d2     	stz	$d20b                   ; 0xd20b <end_block9+0x9ac1>
    16a0: a2 3c        	ldx	#$3c
    16a2: 86 32        	stx	$32                     ; 0x2032 <_ZN12_GLOBAL__N_13putEcP6Status+0x2b>
    16a4: 8e 14 d0     	stx	$d014                   ; 0xd014 <end_block9+0x98ca>
    16a7: 9c 15 d0     	stz	$d015                   ; 0xd015 <end_block9+0x98cb>
    16aa: a2 02        	ldx	#$2
    16ac: 86 33        	stx	$33                     ; 0x2033 <_ZN12_GLOBAL__N_13putEcP6Status+0x2c>
    16ae: 8e 16 d0     	stx	$d016                   ; 0xd016 <end_block9+0x98cc>
    16b1: 9c 17 d0     	stz	$d017                   ; 0xd017 <end_block9+0x98cd>
    16b4: a2 8f        	ldx	#$8f
    16b6: 86 12        	stx	$12                     ; 0x2012 <_ZN12_GLOBAL__N_13putEcP6Status+0xb>
    16b8: a2 35        	ldx	#$35
    16ba: 86 13        	stx	$13                     ; 0x2013 <_ZN12_GLOBAL__N_13putEcP6Status+0xc>
    16bc: 20 e6 21     	jsr	$21e6 <printf>
    16bf: 64 89        	stz	$89                     ; 0x2089 <_ZN12_GLOBAL__N_13putEcP6Status+0x82>
    16c1: a2 21        	ldx	#$21
    16c3: 86 32        	stx	$32                     ; 0x2032 <_ZN12_GLOBAL__N_13putEcP6Status+0x2b>
    16c5: 8e 14 d0     	stx	$d014                   ; 0xd014 <end_block9+0x98ca>
    16c8: 9c 15 d0     	stz	$d015                   ; 0xd015 <end_block9+0x98cb>
    16cb: a2 10        	ldx	#$10
    16cd: 86 33        	stx	$33                     ; 0x2033 <_ZN12_GLOBAL__N_13putEcP6Status+0x2c>
    16cf: 8e 16 d0     	stx	$d016                   ; 0xd016 <end_block9+0x98cc>
    16d2: 9c 17 d0     	stz	$d017                   ; 0xd017 <end_block9+0x98cd>
    16d5: a2 2a        	ldx	#$2a
    16d7: 86 12        	stx	$12                     ; 0x2012 <_ZN12_GLOBAL__N_13putEcP6Status+0xb>
    16d9: a2 36        	ldx	#$36
    16db: 86 13        	stx	$13                     ; 0x2013 <_ZN12_GLOBAL__N_13putEcP6Status+0xc>
    16dd: 20 e6 21     	jsr	$21e6 <printf>
    16e0: a2 22        	ldx	#$22
    16e2: 86 32        	stx	$32                     ; 0x2032 <_ZN12_GLOBAL__N_13putEcP6Status+0x2b>
    16e4: 8e 14 d0     	stx	$d014                   ; 0xd014 <end_block9+0x98ca>
    16e7: 9c 15 d0     	stz	$d015                   ; 0xd015 <end_block9+0x98cb>
    16ea: a2 17        	ldx	#$17
    16ec: 86 33        	stx	$33                     ; 0x2033 <_ZN12_GLOBAL__N_13putEcP6Status+0x2c>
    16ee: 8e 16 d0     	stx	$d016                   ; 0xd016 <end_block9+0x98cc>
    16f1: 9c 17 d0     	stz	$d017                   ; 0xd017 <end_block9+0x98cd>
    16f4: a2 f3        	ldx	#$f3
    16f6: 86 12        	stx	$12                     ; 0x2012 <_ZN12_GLOBAL__N_13putEcP6Status+0xb>
    16f8: a2 36        	ldx	#$36
    16fa: 4c cb 18     	jmp	$18cb <f256main+0x1186>
    16fd: e0 92        	cpx	#$92
    16ff: d0 03        	bne	$1704 <f256main+0xfbf>
    1701: 4c 1d 1b     	jmp	$1b1d <f256main+0x13d8>
    1704: a5 89        	lda	$89                     ; 0x2089 <_ZN12_GLOBAL__N_13putEcP6Status+0x82>
    1706: 29 01        	and	#$1
    1708: d0 03        	bne	$170d <f256main+0xfc8>
    170a: 4c 99 19     	jmp	$1999 <f256main+0x1254>
    170d: a0 0d        	ldy	#$d
    170f: b1 10        	lda	($10),y                 ; 0x2010 <_ZN12_GLOBAL__N_13putEcP6Status+0x9>
    1711: 85 29        	sta	$29                     ; 0x2029 <_ZN12_GLOBAL__N_13putEcP6Status+0x22>
    1713: a2 9f        	ldx	#$9f
    1715: 8e 08 d6     	stx	$d608                   ; 0xd608 <end_block9+0x9ebe>
    1718: a2 94        	ldx	#$94
    171a: 8e 08 d6     	stx	$d608                   ; 0xd608 <end_block9+0x9ebe>
    171d: a6 94        	ldx	$94                     ; 0x2094 <_ZN12_GLOBAL__N_13putEcP6Status+0x8d>
    171f: bd 43 31     	lda	$3143,x                 ; 0x3143 <KeyCodesToLoPSG>
    1722: aa           	tax
    1723: 8e 08 d6     	stx	$d608                   ; 0xd608 <end_block9+0x9ebe>
    1726: a6 94        	ldx	$94                     ; 0x2094 <_ZN12_GLOBAL__N_13putEcP6Status+0x8d>
    1728: bd be 31     	lda	$31be,x                 ; 0x31be <KeyCodesToHiPSG>
    172b: aa           	tax
    172c: 8e 08 d6     	stx	$d608                   ; 0xd608 <end_block9+0x9ebe>
    172f: 4c b5 19     	jmp	$19b5 <f256main+0x1270>
    1732: e0 00        	cpx	#$0
    1734: 90 03        	bcc	$1739 <f256main+0xff4>
    1736: 4c 6f 12     	jmp	$126f <f256main+0xb2a>
    1739: a0 0a        	ldy	#$a
    173b: b1 10        	lda	($10),y                 ; 0x2010 <_ZN12_GLOBAL__N_13putEcP6Status+0x9>
    173d: 85 14        	sta	$14                     ; 0x2014 <_ZN12_GLOBAL__N_13putEcP6Status+0xd>
    173f: c8           	iny
    1740: b1 10        	lda	($10),y                 ; 0x2010 <_ZN12_GLOBAL__N_13putEcP6Status+0x9>
    1742: a8           	tay
    1743: a2 80        	ldx	#$80
    1745: 86 f3        	stx	$f3                     ; 0x20f3 <_ZN12_GLOBAL__N_112print_stringEPKcP6Status+0x19>
    1747: a2 49        	ldx	#$49
    1749: 86 12        	stx	$12                     ; 0x2012 <_ZN12_GLOBAL__N_13putEcP6Status+0xb>
    174b: a2 37        	ldx	#$37
    174d: 86 13        	stx	$13                     ; 0x2013 <_ZN12_GLOBAL__N_13putEcP6Status+0xc>
    174f: 5a           	phy
    1750: a0 05        	ldy	#$5
    1752: b1 10        	lda	($10),y                 ; 0x2010 <_ZN12_GLOBAL__N_13putEcP6Status+0x9>
    1754: 85 18        	sta	$18                     ; 0x2018 <_ZN12_GLOBAL__N_13putEcP6Status+0x11>
    1756: c8           	iny
    1757: b1 10        	lda	($10),y                 ; 0x2010 <_ZN12_GLOBAL__N_13putEcP6Status+0x9>
    1759: 85 19        	sta	$19                     ; 0x2019 <_ZN12_GLOBAL__N_13putEcP6Status+0x12>
    175b: 20 f0 ff     	jsr	$fff0 <end_block9+0xc8a6>
    175e: 92 18        	sta	($18)                   ; 0x2018 <_ZN12_GLOBAL__N_13putEcP6Status+0x11>
    1760: a9 00        	lda	#$0
    1762: 6a           	ror
    1763: 85 12        	sta	$12                     ; 0x2012 <_ZN12_GLOBAL__N_13putEcP6Status+0xb>
    1765: a9 03        	lda	#$3
    1767: 18           	clc
    1768: 72 18        	adc	($18)                   ; 0x2018 <_ZN12_GLOBAL__N_13putEcP6Status+0x11>
    176a: 85 8c        	sta	$8c                     ; 0x208c <_ZN12_GLOBAL__N_13putEcP6Status+0x85>
    176c: 64 f3        	stz	$f3                     ; 0x20f3 <_ZN12_GLOBAL__N_112print_stringEPKcP6Status+0x19>
    176e: a6 8c        	ldx	$8c                     ; 0x208c <_ZN12_GLOBAL__N_13putEcP6Status+0x85>
    1770: 86 f4        	stx	$f4                     ; 0x20f4 <_ZN12_GLOBAL__N_112print_stringEPKcP6Status+0x1a>
    1772: a2 02        	ldx	#$2
    1774: 86 f5        	stx	$f5                     ; 0x20f5 <_ZN12_GLOBAL__N_112print_stringEPKcP6Status+0x1b>
    1776: a5 14        	lda	$14                     ; 0x2014 <_ZN12_GLOBAL__N_13putEcP6Status+0xd>
    1778: a0 09        	ldy	#$9
    177a: 91 10        	sta	($10),y                 ; 0x2010 <_ZN12_GLOBAL__N_13putEcP6Status+0x9>
    177c: a0 07        	ldy	#$7
    177e: b1 10        	lda	($10),y                 ; 0x2010 <_ZN12_GLOBAL__N_13putEcP6Status+0x9>
    1780: 7a           	ply
    1781: aa           	tax
    1782: 20 f0 ff     	jsr	$fff0 <end_block9+0xc8a6>
    1785: 92 18        	sta	($18)                   ; 0x2018 <_ZN12_GLOBAL__N_13putEcP6Status+0x11>
    1787: a9 00        	lda	#$0
    1789: 6a           	ror
    178a: 85 12        	sta	$12                     ; 0x2012 <_ZN12_GLOBAL__N_13putEcP6Status+0xb>
    178c: 4c 63 1b     	jmp	$1b63 <f256main+0x141e>
    178f: a2 81        	ldx	#$81
    1791: 8e a1 dd     	stx	$dda1                   ; 0xdda1 <end_block9+0xa657>
    1794: a2 6f        	ldx	#$6f
    1796: 8e a1 dd     	stx	$dda1                   ; 0xdda1 <end_block9+0xa657>
    1799: 38           	sec
    179a: a0 04        	ldy	#$4
    179c: b1 10        	lda	($10),y                 ; 0x2010 <_ZN12_GLOBAL__N_13putEcP6Status+0x9>
    179e: e9 fe        	sbc	#$fe
    17a0: 70 03        	bvs	$17a5 <f256main+0x1060>
    17a2: 4c 6d 1a     	jmp	$1a6d <f256main+0x1328>
    17a5: 48           	pha
    17a6: a0 0d        	ldy	#$d
    17a8: b1 10        	lda	($10),y                 ; 0x2010 <_ZN12_GLOBAL__N_13putEcP6Status+0x9>
    17aa: 85 29        	sta	$29                     ; 0x2029 <_ZN12_GLOBAL__N_13putEcP6Status+0x22>
    17ac: a5 17        	lda	$17                     ; 0x2017 <_ZN12_GLOBAL__N_13putEcP6Status+0x10>
    17ae: a0 08        	ldy	#$8
    17b0: 91 10        	sta	($10),y                 ; 0x2010 <_ZN12_GLOBAL__N_13putEcP6Status+0x9>
    17b2: 68           	pla
    17b3: 49 80        	eor	#$80
    17b5: 4c 7b 1a     	jmp	$1a7b <f256main+0x1336>
    17b8: a2 81        	ldx	#$81
    17ba: 8e a1 dd     	stx	$dda1                   ; 0xdda1 <end_block9+0xa657>
    17bd: a2 6f        	ldx	#$6f
    17bf: 8e a1 dd     	stx	$dda1                   ; 0xdda1 <end_block9+0xa657>
    17c2: 38           	sec
    17c3: a0 04        	ldy	#$4
    17c5: b1 10        	lda	($10),y                 ; 0x2010 <_ZN12_GLOBAL__N_13putEcP6Status+0x9>
    17c7: e9 04        	sbc	#$4
    17c9: 70 03        	bvs	$17ce <f256main+0x1089>
    17cb: 4c bf 1a     	jmp	$1abf <f256main+0x137a>
    17ce: 48           	pha
    17cf: a0 0d        	ldy	#$d
    17d1: b1 10        	lda	($10),y                 ; 0x2010 <_ZN12_GLOBAL__N_13putEcP6Status+0x9>
    17d3: 85 29        	sta	$29                     ; 0x2029 <_ZN12_GLOBAL__N_13putEcP6Status+0x22>
    17d5: a5 17        	lda	$17                     ; 0x2017 <_ZN12_GLOBAL__N_13putEcP6Status+0x10>
    17d7: a0 08        	ldy	#$8
    17d9: 91 10        	sta	($10),y                 ; 0x2010 <_ZN12_GLOBAL__N_13putEcP6Status+0x9>
    17db: 68           	pla
    17dc: 49 80        	eor	#$80
    17de: 4c cd 1a     	jmp	$1acd <f256main+0x1388>
    17e1: a0 0d        	ldy	#$d
    17e3: b1 10        	lda	($10),y                 ; 0x2010 <_ZN12_GLOBAL__N_13putEcP6Status+0x9>
    17e5: 85 29        	sta	$29                     ; 0x2029 <_ZN12_GLOBAL__N_13putEcP6Status+0x22>
    17e7: a5 17        	lda	$17                     ; 0x2017 <_ZN12_GLOBAL__N_13putEcP6Status+0x10>
    17e9: a0 08        	ldy	#$8
    17eb: 91 10        	sta	($10),y                 ; 0x2010 <_ZN12_GLOBAL__N_13putEcP6Status+0x9>
    17ed: a2 00        	ldx	#$0
    17ef: a0 0a        	ldy	#$a
    17f1: b1 10        	lda	($10),y                 ; 0x2010 <_ZN12_GLOBAL__N_13putEcP6Status+0x9>
    17f3: 85 12        	sta	$12                     ; 0x2012 <_ZN12_GLOBAL__N_13putEcP6Status+0xb>
    17f5: 88           	dey
    17f6: 91 10        	sta	($10),y                 ; 0x2010 <_ZN12_GLOBAL__N_13putEcP6Status+0x9>
    17f8: a0 0b        	ldy	#$b
    17fa: b1 10        	lda	($10),y                 ; 0x2010 <_ZN12_GLOBAL__N_13putEcP6Status+0x9>
    17fc: 85 13        	sta	$13                     ; 0x2013 <_ZN12_GLOBAL__N_13putEcP6Status+0xc>
    17fe: a8           	tay
    17ff: 5a           	phy
    1800: a0 07        	ldy	#$7
    1802: b1 10        	lda	($10),y                 ; 0x2010 <_ZN12_GLOBAL__N_13putEcP6Status+0x9>
    1804: 7a           	ply
    1805: c9 00        	cmp	#$0
    1807: d0 03        	bne	$180c <f256main+0x10c7>
    1809: 4c 63 1b     	jmp	$1b63 <f256main+0x141e>
    180c: a6 89        	ldx	$89                     ; 0x2089 <_ZN12_GLOBAL__N_13putEcP6Status+0x82>
    180e: 86 14        	stx	$14                     ; 0x2014 <_ZN12_GLOBAL__N_13putEcP6Status+0xd>
    1810: aa           	tax
    1811: a5 14        	lda	$14                     ; 0x2014 <_ZN12_GLOBAL__N_13putEcP6Status+0xd>
    1813: 29 01        	and	#$1
    1815: 85 16        	sta	$16                     ; 0x2016 <_ZN12_GLOBAL__N_13putEcP6Status+0xf>
    1817: 8a           	txa
    1818: a6 12        	ldx	$12                     ; 0x2012 <_ZN12_GLOBAL__N_13putEcP6Status+0xb>
    181a: 48           	pha
    181b: 8a           	txa
    181c: a0 09        	ldy	#$9
    181e: 91 10        	sta	($10),y                 ; 0x2010 <_ZN12_GLOBAL__N_13putEcP6Status+0x9>
    1820: 68           	pla
    1821: a4 13        	ldy	$13                     ; 0x2013 <_ZN12_GLOBAL__N_13putEcP6Status+0xc>
    1823: aa           	tax
    1824: e6 16        	inc	$16                     ; 0x2016 <_ZN12_GLOBAL__N_13putEcP6Status+0xf>
    1826: c6 16        	dec	$16                     ; 0x2016 <_ZN12_GLOBAL__N_13putEcP6Status+0xf>
    1828: f0 03        	beq	$182d <f256main+0x10e8>
    182a: 4c 63 1b     	jmp	$1b63 <f256main+0x141e>
    182d: 3a           	dec
    182e: a2 c1        	ldx	#$c1
    1830: 8e a1 dd     	stx	$dda1                   ; 0xdda1 <end_block9+0xa657>
    1833: 8d a1 dd     	sta	$dda1                   ; 0xdda1 <end_block9+0xa657>
    1836: 48           	pha
    1837: a5 12        	lda	$12                     ; 0x2012 <_ZN12_GLOBAL__N_13putEcP6Status+0xb>
    1839: a0 09        	ldy	#$9
    183b: 91 10        	sta	($10),y                 ; 0x2010 <_ZN12_GLOBAL__N_13putEcP6Status+0x9>
    183d: 68           	pla
    183e: a4 13        	ldy	$13                     ; 0x2013 <_ZN12_GLOBAL__N_13putEcP6Status+0xc>
    1840: aa           	tax
    1841: 4c 63 1b     	jmp	$1b63 <f256main+0x141e>
    1844: a2 20        	ldx	#$20
    1846: 8e 01 d2     	stx	$d201                   ; 0xd201 <end_block9+0x9ab7>
    1849: a2 8f        	ldx	#$8f
    184b: 8e 02 d2     	stx	$d202                   ; 0xd202 <end_block9+0x9ab8>
    184e: a2 03        	ldx	#$3
    1850: 8e 03 d2     	stx	$d203                   ; 0xd203 <end_block9+0x9ab9>
    1853: a2 17        	ldx	#$17
    1855: 8e 04 d2     	stx	$d204                   ; 0xd204 <end_block9+0x9aba>
    1858: 9c 05 d2     	stz	$d205                   ; 0xd205 <end_block9+0x9abb>
    185b: a2 13        	ldx	#$13
    185d: 8e 06 d2     	stx	$d206                   ; 0xd206 <end_block9+0x9abc>
    1860: 9c 07 d2     	stz	$d207                   ; 0xd207 <end_block9+0x9abd>
    1863: 9c 08 d2     	stz	$d208                   ; 0xd208 <end_block9+0x9abe>
    1866: 9c 09 d2     	stz	$d209                   ; 0xd209 <end_block9+0x9abf>
    1869: 9c 0a d2     	stz	$d20a                   ; 0xd20a <end_block9+0x9ac0>
    186c: 9c 0b d2     	stz	$d20b                   ; 0xd20b <end_block9+0x9ac1>
    186f: a2 3c        	ldx	#$3c
    1871: 86 32        	stx	$32                     ; 0x2032 <_ZN12_GLOBAL__N_13putEcP6Status+0x2b>
    1873: 8e 14 d0     	stx	$d014                   ; 0xd014 <end_block9+0x98ca>
    1876: 9c 15 d0     	stz	$d015                   ; 0xd015 <end_block9+0x98cb>
    1879: a2 02        	ldx	#$2
    187b: 86 33        	stx	$33                     ; 0x2033 <_ZN12_GLOBAL__N_13putEcP6Status+0x2c>
    187d: 8e 16 d0     	stx	$d016                   ; 0xd016 <end_block9+0x98cc>
    1880: 9c 17 d0     	stz	$d017                   ; 0xd017 <end_block9+0x98cd>
    1883: a2 67        	ldx	#$67
    1885: 86 12        	stx	$12                     ; 0x2012 <_ZN12_GLOBAL__N_13putEcP6Status+0xb>
    1887: a2 35        	ldx	#$35
    1889: 86 13        	stx	$13                     ; 0x2013 <_ZN12_GLOBAL__N_13putEcP6Status+0xc>
    188b: 20 e6 21     	jsr	$21e6 <printf>
    188e: a2 01        	ldx	#$1
    1890: 86 89        	stx	$89                     ; 0x2089 <_ZN12_GLOBAL__N_13putEcP6Status+0x82>
    1892: a2 21        	ldx	#$21
    1894: 86 32        	stx	$32                     ; 0x2032 <_ZN12_GLOBAL__N_13putEcP6Status+0x2b>
    1896: 8e 14 d0     	stx	$d014                   ; 0xd014 <end_block9+0x98ca>
    1899: 9c 15 d0     	stz	$d015                   ; 0xd015 <end_block9+0x98cb>
    189c: a2 10        	ldx	#$10
    189e: 86 33        	stx	$33                     ; 0x2033 <_ZN12_GLOBAL__N_13putEcP6Status+0x2c>
    18a0: 8e 16 d0     	stx	$d016                   ; 0xd016 <end_block9+0x98cc>
    18a3: 9c 17 d0     	stz	$d017                   ; 0xd017 <end_block9+0x98cd>
    18a6: a2 ae        	ldx	#$ae
    18a8: 86 12        	stx	$12                     ; 0x2012 <_ZN12_GLOBAL__N_13putEcP6Status+0xb>
    18aa: a2 36        	ldx	#$36
    18ac: 86 13        	stx	$13                     ; 0x2013 <_ZN12_GLOBAL__N_13putEcP6Status+0xc>
    18ae: 20 e6 21     	jsr	$21e6 <printf>
    18b1: a2 22        	ldx	#$22
    18b3: 86 32        	stx	$32                     ; 0x2032 <_ZN12_GLOBAL__N_13putEcP6Status+0x2b>
    18b5: 8e 14 d0     	stx	$d014                   ; 0xd014 <end_block9+0x98ca>
    18b8: 9c 15 d0     	stz	$d015                   ; 0xd015 <end_block9+0x98cb>
    18bb: a2 17        	ldx	#$17
    18bd: 86 33        	stx	$33                     ; 0x2033 <_ZN12_GLOBAL__N_13putEcP6Status+0x2c>
    18bf: 8e 16 d0     	stx	$d016                   ; 0xd016 <end_block9+0x98cc>
    18c2: 9c 17 d0     	stz	$d017                   ; 0xd017 <end_block9+0x98cd>
    18c5: a2 2b        	ldx	#$2b
    18c7: 86 12        	stx	$12                     ; 0x2012 <_ZN12_GLOBAL__N_13putEcP6Status+0xb>
    18c9: a2 35        	ldx	#$35
    18cb: 86 13        	stx	$13                     ; 0x2013 <_ZN12_GLOBAL__N_13putEcP6Status+0xc>
    18cd: 20 e6 21     	jsr	$21e6 <printf>
    18d0: a0 0a        	ldy	#$a
    18d2: b1 10        	lda	($10),y                 ; 0x2010 <_ZN12_GLOBAL__N_13putEcP6Status+0x9>
    18d4: 88           	dey
    18d5: 91 10        	sta	($10),y                 ; 0x2010 <_ZN12_GLOBAL__N_13putEcP6Status+0x9>
    18d7: a0 0b        	ldy	#$b
    18d9: b1 10        	lda	($10),y                 ; 0x2010 <_ZN12_GLOBAL__N_13putEcP6Status+0x9>
    18db: a8           	tay
    18dc: 5a           	phy
    18dd: a0 07        	ldy	#$7
    18df: b1 10        	lda	($10),y                 ; 0x2010 <_ZN12_GLOBAL__N_13putEcP6Status+0x9>
    18e1: 7a           	ply
    18e2: aa           	tax
    18e3: 4c 63 1b     	jmp	$1b63 <f256main+0x141e>
    18e6: c0 49        	cpy	#$49
    18e8: d0 26        	bne	$1910 <f256main+0x11cb>
    18ea: a2 9f        	ldx	#$9f
    18ec: 8e 08 d6     	stx	$d608                   ; 0xd608 <end_block9+0x9ebe>
    18ef: a2 49        	ldx	#$49
    18f1: 48           	pha
    18f2: 8a           	txa
    18f3: a0 08        	ldy	#$8
    18f5: 91 10        	sta	($10),y                 ; 0x2010 <_ZN12_GLOBAL__N_13putEcP6Status+0x9>
    18f7: 64 12        	stz	$12                     ; 0x2012 <_ZN12_GLOBAL__N_13putEcP6Status+0xb>
    18f9: a9 00        	lda	#$0
    18fb: a0 02        	ldy	#$2
    18fd: 91 10        	sta	($10),y                 ; 0x2010 <_ZN12_GLOBAL__N_13putEcP6Status+0x9>
    18ff: a0 0a        	ldy	#$a
    1901: b1 10        	lda	($10),y                 ; 0x2010 <_ZN12_GLOBAL__N_13putEcP6Status+0x9>
    1903: 88           	dey
    1904: 91 10        	sta	($10),y                 ; 0x2010 <_ZN12_GLOBAL__N_13putEcP6Status+0x9>
    1906: a0 0b        	ldy	#$b
    1908: b1 10        	lda	($10),y                 ; 0x2010 <_ZN12_GLOBAL__N_13putEcP6Status+0x9>
    190a: a8           	tay
    190b: 68           	pla
    190c: aa           	tax
    190d: 4c 63 1b     	jmp	$1b63 <f256main+0x141e>
    1910: a2 01        	ldx	#$1
    1912: 48           	pha
    1913: 8a           	txa
    1914: a0 09        	ldy	#$9
    1916: 91 10        	sta	($10),y                 ; 0x2010 <_ZN12_GLOBAL__N_13putEcP6Status+0x9>
    1918: a0 0b        	ldy	#$b
    191a: b1 10        	lda	($10),y                 ; 0x2010 <_ZN12_GLOBAL__N_13putEcP6Status+0x9>
    191c: a8           	tay
    191d: 68           	pla
    191e: aa           	tax
    191f: 85 14        	sta	$14                     ; 0x2014 <_ZN12_GLOBAL__N_13putEcP6Status+0xd>
    1921: 5a           	phy
    1922: a0 0a        	ldy	#$a
    1924: b1 10        	lda	($10),y                 ; 0x2010 <_ZN12_GLOBAL__N_13putEcP6Status+0x9>
    1926: 7a           	ply
    1927: c9 00        	cmp	#$0
    1929: f0 03        	beq	$192e <f256main+0x11e9>
    192b: 4c 63 1b     	jmp	$1b63 <f256main+0x141e>
    192e: 84 15        	sty	$15                     ; 0x2015 <_ZN12_GLOBAL__N_13putEcP6Status+0xe>
    1930: 64 12        	stz	$12                     ; 0x2012 <_ZN12_GLOBAL__N_13putEcP6Status+0xb>
    1932: a9 00        	lda	#$0
    1934: a0 09        	ldy	#$9
    1936: 91 10        	sta	($10),y                 ; 0x2010 <_ZN12_GLOBAL__N_13putEcP6Status+0x9>
    1938: a8           	tay
    1939: a6 14        	ldx	$14                     ; 0x2014 <_ZN12_GLOBAL__N_13putEcP6Status+0xd>
    193b: a5 15        	lda	$15                     ; 0x2015 <_ZN12_GLOBAL__N_13putEcP6Status+0xe>
    193d: c9 01        	cmp	#$1
    193f: f0 03        	beq	$1944 <f256main+0x11ff>
    1941: 4c 63 1b     	jmp	$1b63 <f256main+0x141e>
    1944: a0 08        	ldy	#$8
    1946: b1 10        	lda	($10),y                 ; 0x2010 <_ZN12_GLOBAL__N_13putEcP6Status+0x9>
    1948: aa           	tax
    1949: e8           	inx
    194a: 8a           	txa
    194b: 91 10        	sta	($10),y                 ; 0x2010 <_ZN12_GLOBAL__N_13putEcP6Status+0x9>
    194d: bd d9 32     	lda	$32d9,x                 ; 0x32d9 <songNotes>
    1950: 85 8e        	sta	$8e                     ; 0x208e <_ZN12_GLOBAL__N_13putEcP6Status+0x87>
    1952: 64 8f        	stz	$8f                     ; 0x208f <_ZN12_GLOBAL__N_13putEcP6Status+0x88>
    1954: 0a           	asl
    1955: 85 12        	sta	$12                     ; 0x2012 <_ZN12_GLOBAL__N_13putEcP6Status+0xb>
    1957: a9 00        	lda	#$0
    1959: 2a           	rol
    195a: 85 13        	sta	$13                     ; 0x2013 <_ZN12_GLOBAL__N_13putEcP6Status+0xc>
    195c: a9 39        	lda	#$39
    195e: 18           	clc
    195f: 65 12        	adc	$12                     ; 0x2012 <_ZN12_GLOBAL__N_13putEcP6Status+0xb>
    1961: 85 12        	sta	$12                     ; 0x2012 <_ZN12_GLOBAL__N_13putEcP6Status+0xb>
    1963: a9 32        	lda	#$32
    1965: 65 13        	adc	$13                     ; 0x2013 <_ZN12_GLOBAL__N_13putEcP6Status+0xc>
    1967: 85 13        	sta	$13                     ; 0x2013 <_ZN12_GLOBAL__N_13putEcP6Status+0xc>
    1969: b2 12        	lda	($12)                   ; 0x2012 <_ZN12_GLOBAL__N_13putEcP6Status+0xb>
    196b: 85 15        	sta	$15                     ; 0x2015 <_ZN12_GLOBAL__N_13putEcP6Status+0xe>
    196d: a0 01        	ldy	#$1
    196f: b1 12        	lda	($12),y                 ; 0x2012 <_ZN12_GLOBAL__N_13putEcP6Status+0xb>
    1971: 85 12        	sta	$12                     ; 0x2012 <_ZN12_GLOBAL__N_13putEcP6Status+0xb>
    1973: 98           	tya
    1974: 05 46        	ora	$46                     ; 0x2046 <_ZN12_GLOBAL__N_13putEcP6Status+0x3f>
    1976: 8d 08 d9     	sta	$d908                   ; 0xd908 <end_block9+0xa1be>
    1979: a6 15        	ldx	$15                     ; 0x2015 <_ZN12_GLOBAL__N_13putEcP6Status+0xe>
    197b: 8e 0c d9     	stx	$d90c                   ; 0xd90c <end_block9+0xa1c2>
    197e: a6 12        	ldx	$12                     ; 0x2012 <_ZN12_GLOBAL__N_13putEcP6Status+0xb>
    1980: 8e 0d d9     	stx	$d90d                   ; 0xd90d <end_block9+0xa1c3>
    1983: a2 c0        	ldx	#$c0
    1985: 8e 0e d9     	stx	$d90e                   ; 0xd90e <end_block9+0xa1c4>
    1988: 9c 0f d9     	stz	$d90f                   ; 0xd90f <end_block9+0xa1c5>
    198b: a2 01        	ldx	#$1
    198d: 8a           	txa
    198e: a0 09        	ldy	#$9
    1990: 91 10        	sta	($10),y                 ; 0x2010 <_ZN12_GLOBAL__N_13putEcP6Status+0x9>
    1992: a0 01        	ldy	#$1
    1994: a6 14        	ldx	$14                     ; 0x2014 <_ZN12_GLOBAL__N_13putEcP6Status+0xd>
    1996: 4c 63 1b     	jmp	$1b63 <f256main+0x141e>
    1999: a0 0d        	ldy	#$d
    199b: b1 10        	lda	($10),y                 ; 0x2010 <_ZN12_GLOBAL__N_13putEcP6Status+0x9>
    199d: 85 29        	sta	$29                     ; 0x2029 <_ZN12_GLOBAL__N_13putEcP6Status+0x22>
    199f: 18           	clc
    19a0: a5 2a        	lda	$2a                     ; 0x202a <_ZN12_GLOBAL__N_13putEcP6Status+0x23>
    19a2: 65 2b        	adc	$2b                     ; 0x202b <_ZN12_GLOBAL__N_13putEcP6Status+0x24>
    19a4: 18           	clc
    19a5: 7d c8 30     	adc	$30c8,x                 ; 0x30c8 <KeyCodesToMIDINotes>
    19a8: a2 91        	ldx	#$91
    19aa: 8e a1 dd     	stx	$dda1                   ; 0xdda1 <end_block9+0xa657>
    19ad: 8d a1 dd     	sta	$dda1                   ; 0xdda1 <end_block9+0xa657>
    19b0: a2 6f        	ldx	#$6f
    19b2: 8e a1 dd     	stx	$dda1                   ; 0xdda1 <end_block9+0xa657>
    19b5: a6 94        	ldx	$94                     ; 0x2094 <_ZN12_GLOBAL__N_13putEcP6Status+0x8d>
    19b7: bd c8 30     	lda	$30c8,x                 ; 0x30c8 <KeyCodesToMIDINotes>
    19ba: 0a           	asl
    19bb: 85 12        	sta	$12                     ; 0x2012 <_ZN12_GLOBAL__N_13putEcP6Status+0xb>
    19bd: a9 00        	lda	#$0
    19bf: 2a           	rol
    19c0: 85 13        	sta	$13                     ; 0x2013 <_ZN12_GLOBAL__N_13putEcP6Status+0xc>
    19c2: a9 39        	lda	#$39
    19c4: 18           	clc
    19c5: 65 12        	adc	$12                     ; 0x2012 <_ZN12_GLOBAL__N_13putEcP6Status+0xb>
    19c7: 85 12        	sta	$12                     ; 0x2012 <_ZN12_GLOBAL__N_13putEcP6Status+0xb>
    19c9: a9 32        	lda	#$32
    19cb: 65 13        	adc	$13                     ; 0x2013 <_ZN12_GLOBAL__N_13putEcP6Status+0xc>
    19cd: 85 13        	sta	$13                     ; 0x2013 <_ZN12_GLOBAL__N_13putEcP6Status+0xc>
    19cf: b2 12        	lda	($12)                   ; 0x2012 <_ZN12_GLOBAL__N_13putEcP6Status+0xb>
    19d1: 85 14        	sta	$14                     ; 0x2014 <_ZN12_GLOBAL__N_13putEcP6Status+0xd>
    19d3: a0 01        	ldy	#$1
    19d5: b1 12        	lda	($12),y                 ; 0x2012 <_ZN12_GLOBAL__N_13putEcP6Status+0xb>
    19d7: 85 12        	sta	$12                     ; 0x2012 <_ZN12_GLOBAL__N_13putEcP6Status+0xb>
    19d9: 98           	tya
    19da: 05 45        	ora	$45                     ; 0x2045 <_ZN12_GLOBAL__N_13putEcP6Status+0x3e>
    19dc: 8d 00 d9     	sta	$d900                   ; 0xd900 <end_block9+0xa1b6>
    19df: a6 14        	ldx	$14                     ; 0x2014 <_ZN12_GLOBAL__N_13putEcP6Status+0xd>
    19e1: 8e 04 d9     	stx	$d904                   ; 0xd904 <end_block9+0xa1ba>
    19e4: a6 12        	ldx	$12                     ; 0x2012 <_ZN12_GLOBAL__N_13putEcP6Status+0xb>
    19e6: 8e 05 d9     	stx	$d905                   ; 0xd905 <end_block9+0xa1bb>
    19e9: a2 c0        	ldx	#$c0
    19eb: 8e 06 d9     	stx	$d906                   ; 0xd906 <end_block9+0xa1bc>
    19ee: 9c 07 d9     	stz	$d907                   ; 0xd907 <end_block9+0xa1bd>
    19f1: a6 94        	ldx	$94                     ; 0x2094 <_ZN12_GLOBAL__N_13putEcP6Status+0x8d>
    19f3: bd c8 30     	lda	$30c8,x                 ; 0x30c8 <KeyCodesToMIDINotes>
    19f6: a6 17        	ldx	$17                     ; 0x2017 <_ZN12_GLOBAL__N_13putEcP6Status+0x10>
    19f8: 48           	pha
    19f9: 8a           	txa
    19fa: a0 08        	ldy	#$8
    19fc: 91 10        	sta	($10),y                 ; 0x2010 <_ZN12_GLOBAL__N_13putEcP6Status+0x9>
    19fe: 68           	pla
    19ff: dd d9 32     	cmp	$32d9,x                 ; 0x32d9 <songNotes>
    1a02: d0 24        	bne	$1a28 <f256main+0x12e3>
    1a04: a0 0a        	ldy	#$a
    1a06: b1 10        	lda	($10),y                 ; 0x2010 <_ZN12_GLOBAL__N_13putEcP6Status+0x9>
    1a08: 88           	dey
    1a09: 91 10        	sta	($10),y                 ; 0x2010 <_ZN12_GLOBAL__N_13putEcP6Status+0x9>
    1a0b: a0 00        	ldy	#$0
    1a0d: 5a           	phy
    1a0e: a0 07        	ldy	#$7
    1a10: b1 10        	lda	($10),y                 ; 0x2010 <_ZN12_GLOBAL__N_13putEcP6Status+0x9>
    1a12: 85 27        	sta	$27                     ; 0x2027 <_ZN12_GLOBAL__N_13putEcP6Status+0x20>
    1a14: aa           	tax
    1a15: a0 0b        	ldy	#$b
    1a17: b1 10        	lda	($10),y                 ; 0x2010 <_ZN12_GLOBAL__N_13putEcP6Status+0x9>
    1a19: 7a           	ply
    1a1a: c9 00        	cmp	#$0
    1a1c: d0 03        	bne	$1a21 <f256main+0x12dc>
    1a1e: 4c 63 1b     	jmp	$1b63 <f256main+0x141e>
    1a21: e6 87        	inc	$87                     ; 0x2087 <_ZN12_GLOBAL__N_13putEcP6Status+0x80>
    1a23: a2 01        	ldx	#$1
    1a25: 8a           	txa
    1a26: 80 3a        	bra	$1a62 <f256main+0x131d>
    1a28: a0 0a        	ldy	#$a
    1a2a: b1 10        	lda	($10),y                 ; 0x2010 <_ZN12_GLOBAL__N_13putEcP6Status+0x9>
    1a2c: 85 12        	sta	$12                     ; 0x2012 <_ZN12_GLOBAL__N_13putEcP6Status+0xb>
    1a2e: 88           	dey
    1a2f: 91 10        	sta	($10),y                 ; 0x2010 <_ZN12_GLOBAL__N_13putEcP6Status+0x9>
    1a31: a0 00        	ldy	#$0
    1a33: 5a           	phy
    1a34: a0 07        	ldy	#$7
    1a36: b1 10        	lda	($10),y                 ; 0x2010 <_ZN12_GLOBAL__N_13putEcP6Status+0x9>
    1a38: 85 27        	sta	$27                     ; 0x2027 <_ZN12_GLOBAL__N_13putEcP6Status+0x20>
    1a3a: aa           	tax
    1a3b: a0 0b        	ldy	#$b
    1a3d: b1 10        	lda	($10),y                 ; 0x2010 <_ZN12_GLOBAL__N_13putEcP6Status+0x9>
    1a3f: 7a           	ply
    1a40: c9 00        	cmp	#$0
    1a42: d0 03        	bne	$1a47 <f256main+0x1302>
    1a44: 4c 63 1b     	jmp	$1b63 <f256main+0x141e>
    1a47: a5 87        	lda	$87                     ; 0x2087 <_ZN12_GLOBAL__N_13putEcP6Status+0x80>
    1a49: a6 12        	ldx	$12                     ; 0x2012 <_ZN12_GLOBAL__N_13putEcP6Status+0xb>
    1a4b: 48           	pha
    1a4c: 8a           	txa
    1a4d: a0 09        	ldy	#$9
    1a4f: 91 10        	sta	($10),y                 ; 0x2010 <_ZN12_GLOBAL__N_13putEcP6Status+0x9>
    1a51: 68           	pla
    1a52: a0 01        	ldy	#$1
    1a54: a6 27        	ldx	$27                     ; 0x2027 <_ZN12_GLOBAL__N_13putEcP6Status+0x20>
    1a56: c9 00        	cmp	#$0
    1a58: d0 03        	bne	$1a5d <f256main+0x1318>
    1a5a: 4c 63 1b     	jmp	$1b63 <f256main+0x141e>
    1a5d: 3a           	dec
    1a5e: 85 87        	sta	$87                     ; 0x2087 <_ZN12_GLOBAL__N_13putEcP6Status+0x80>
    1a60: a5 12        	lda	$12                     ; 0x2012 <_ZN12_GLOBAL__N_13putEcP6Status+0xb>
    1a62: a0 09        	ldy	#$9
    1a64: 91 10        	sta	($10),y                 ; 0x2010 <_ZN12_GLOBAL__N_13putEcP6Status+0x9>
    1a66: a0 01        	ldy	#$1
    1a68: a6 27        	ldx	$27                     ; 0x2027 <_ZN12_GLOBAL__N_13putEcP6Status+0x20>
    1a6a: 4c 63 1b     	jmp	$1b63 <f256main+0x141e>
    1a6d: 48           	pha
    1a6e: a0 0d        	ldy	#$d
    1a70: b1 10        	lda	($10),y                 ; 0x2010 <_ZN12_GLOBAL__N_13putEcP6Status+0x9>
    1a72: 85 29        	sta	$29                     ; 0x2029 <_ZN12_GLOBAL__N_13putEcP6Status+0x22>
    1a74: a5 17        	lda	$17                     ; 0x2017 <_ZN12_GLOBAL__N_13putEcP6Status+0x10>
    1a76: a0 08        	ldy	#$8
    1a78: 91 10        	sta	($10),y                 ; 0x2010 <_ZN12_GLOBAL__N_13putEcP6Status+0x9>
    1a7a: 68           	pla
    1a7b: 48           	pha
    1a7c: a0 0a        	ldy	#$a
    1a7e: b1 10        	lda	($10),y                 ; 0x2010 <_ZN12_GLOBAL__N_13putEcP6Status+0x9>
    1a80: 85 12        	sta	$12                     ; 0x2012 <_ZN12_GLOBAL__N_13putEcP6Status+0xb>
    1a82: 88           	dey
    1a83: 91 10        	sta	($10),y                 ; 0x2010 <_ZN12_GLOBAL__N_13putEcP6Status+0x9>
    1a85: a0 0b        	ldy	#$b
    1a87: b1 10        	lda	($10),y                 ; 0x2010 <_ZN12_GLOBAL__N_13putEcP6Status+0x9>
    1a89: 85 13        	sta	$13                     ; 0x2013 <_ZN12_GLOBAL__N_13putEcP6Status+0xc>
    1a8b: a8           	tay
    1a8c: 5a           	phy
    1a8d: a0 07        	ldy	#$7
    1a8f: b1 10        	lda	($10),y                 ; 0x2010 <_ZN12_GLOBAL__N_13putEcP6Status+0x9>
    1a91: 7a           	ply
    1a92: 85 27        	sta	$27                     ; 0x2027 <_ZN12_GLOBAL__N_13putEcP6Status+0x20>
    1a94: 68           	pla
    1a95: a6 27        	ldx	$27                     ; 0x2027 <_ZN12_GLOBAL__N_13putEcP6Status+0x20>
    1a97: c9 00        	cmp	#$0
    1a99: 10 03        	bpl	$1a9e <f256main+0x1359>
    1a9b: 4c 63 1b     	jmp	$1b63 <f256main+0x141e>
    1a9e: a5 89        	lda	$89                     ; 0x2089 <_ZN12_GLOBAL__N_13putEcP6Status+0x82>
    1aa0: 29 01        	and	#$1
    1aa2: a6 12        	ldx	$12                     ; 0x2012 <_ZN12_GLOBAL__N_13putEcP6Status+0xb>
    1aa4: 48           	pha
    1aa5: 8a           	txa
    1aa6: a0 09        	ldy	#$9
    1aa8: 91 10        	sta	($10),y                 ; 0x2010 <_ZN12_GLOBAL__N_13putEcP6Status+0x9>
    1aaa: 68           	pla
    1aab: a4 13        	ldy	$13                     ; 0x2013 <_ZN12_GLOBAL__N_13putEcP6Status+0xc>
    1aad: a6 27        	ldx	$27                     ; 0x2027 <_ZN12_GLOBAL__N_13putEcP6Status+0x20>
    1aaf: c9 00        	cmp	#$0
    1ab1: f0 03        	beq	$1ab6 <f256main+0x1371>
    1ab3: 4c 63 1b     	jmp	$1b63 <f256main+0x141e>
    1ab6: a0 04        	ldy	#$4
    1ab8: b1 10        	lda	($10),y                 ; 0x2010 <_ZN12_GLOBAL__N_13putEcP6Status+0x9>
    1aba: aa           	tax
    1abb: ca           	dex
    1abc: 4c 0e 1b     	jmp	$1b0e <f256main+0x13c9>
    1abf: 48           	pha
    1ac0: a0 0d        	ldy	#$d
    1ac2: b1 10        	lda	($10),y                 ; 0x2010 <_ZN12_GLOBAL__N_13putEcP6Status+0x9>
    1ac4: 85 29        	sta	$29                     ; 0x2029 <_ZN12_GLOBAL__N_13putEcP6Status+0x22>
    1ac6: a5 17        	lda	$17                     ; 0x2017 <_ZN12_GLOBAL__N_13putEcP6Status+0x10>
    1ac8: a0 08        	ldy	#$8
    1aca: 91 10        	sta	($10),y                 ; 0x2010 <_ZN12_GLOBAL__N_13putEcP6Status+0x9>
    1acc: 68           	pla
    1acd: 48           	pha
    1ace: a0 0a        	ldy	#$a
    1ad0: b1 10        	lda	($10),y                 ; 0x2010 <_ZN12_GLOBAL__N_13putEcP6Status+0x9>
    1ad2: 85 12        	sta	$12                     ; 0x2012 <_ZN12_GLOBAL__N_13putEcP6Status+0xb>
    1ad4: 88           	dey
    1ad5: 91 10        	sta	($10),y                 ; 0x2010 <_ZN12_GLOBAL__N_13putEcP6Status+0x9>
    1ad7: a0 0b        	ldy	#$b
    1ad9: b1 10        	lda	($10),y                 ; 0x2010 <_ZN12_GLOBAL__N_13putEcP6Status+0x9>
    1adb: 85 13        	sta	$13                     ; 0x2013 <_ZN12_GLOBAL__N_13putEcP6Status+0xc>
    1add: a8           	tay
    1ade: 5a           	phy
    1adf: a0 07        	ldy	#$7
    1ae1: b1 10        	lda	($10),y                 ; 0x2010 <_ZN12_GLOBAL__N_13putEcP6Status+0x9>
    1ae3: 7a           	ply
    1ae4: 85 27        	sta	$27                     ; 0x2027 <_ZN12_GLOBAL__N_13putEcP6Status+0x20>
    1ae6: 68           	pla
    1ae7: a6 27        	ldx	$27                     ; 0x2027 <_ZN12_GLOBAL__N_13putEcP6Status+0x20>
    1ae9: c9 00        	cmp	#$0
    1aeb: 30 03        	bmi	$1af0 <f256main+0x13ab>
    1aed: 4c 63 1b     	jmp	$1b63 <f256main+0x141e>
    1af0: a5 89        	lda	$89                     ; 0x2089 <_ZN12_GLOBAL__N_13putEcP6Status+0x82>
    1af2: 29 01        	and	#$1
    1af4: a6 12        	ldx	$12                     ; 0x2012 <_ZN12_GLOBAL__N_13putEcP6Status+0xb>
    1af6: 48           	pha
    1af7: 8a           	txa
    1af8: a0 09        	ldy	#$9
    1afa: 91 10        	sta	($10),y                 ; 0x2010 <_ZN12_GLOBAL__N_13putEcP6Status+0x9>
    1afc: 68           	pla
    1afd: a4 13        	ldy	$13                     ; 0x2013 <_ZN12_GLOBAL__N_13putEcP6Status+0xc>
    1aff: a6 27        	ldx	$27                     ; 0x2027 <_ZN12_GLOBAL__N_13putEcP6Status+0x20>
    1b01: c9 00        	cmp	#$0
    1b03: f0 03        	beq	$1b08 <f256main+0x13c3>
    1b05: 4c 63 1b     	jmp	$1b63 <f256main+0x141e>
    1b08: a0 04        	ldy	#$4
    1b0a: b1 10        	lda	($10),y                 ; 0x2010 <_ZN12_GLOBAL__N_13putEcP6Status+0x9>
    1b0c: aa           	tax
    1b0d: e8           	inx
    1b0e: 8a           	txa
    1b0f: 91 10        	sta	($10),y                 ; 0x2010 <_ZN12_GLOBAL__N_13putEcP6Status+0x9>
    1b11: a5 12        	lda	$12                     ; 0x2012 <_ZN12_GLOBAL__N_13putEcP6Status+0xb>
    1b13: a0 09        	ldy	#$9
    1b15: 91 10        	sta	($10),y                 ; 0x2010 <_ZN12_GLOBAL__N_13putEcP6Status+0x9>
    1b17: a4 13        	ldy	$13                     ; 0x2013 <_ZN12_GLOBAL__N_13putEcP6Status+0xc>
    1b19: a6 27        	ldx	$27                     ; 0x2027 <_ZN12_GLOBAL__N_13putEcP6Status+0x20>
    1b1b: 80 46        	bra	$1b63 <f256main+0x141e>
    1b1d: a0 0d        	ldy	#$d
    1b1f: b1 10        	lda	($10),y                 ; 0x2010 <_ZN12_GLOBAL__N_13putEcP6Status+0x9>
    1b21: 85 29        	sta	$29                     ; 0x2029 <_ZN12_GLOBAL__N_13putEcP6Status+0x22>
    1b23: a5 17        	lda	$17                     ; 0x2017 <_ZN12_GLOBAL__N_13putEcP6Status+0x10>
    1b25: a0 08        	ldy	#$8
    1b27: 91 10        	sta	($10),y                 ; 0x2010 <_ZN12_GLOBAL__N_13putEcP6Status+0x9>
    1b29: a2 7b        	ldx	#$7b
    1b2b: 8e a1 dd     	stx	$dda1                   ; 0xdda1 <end_block9+0xa657>
    1b2e: 9c a1 dd     	stz	$dda1                   ; 0xdda1 <end_block9+0xa657>
    1b31: a2 ff        	ldx	#$ff
    1b33: 8e a1 dd     	stx	$dda1                   ; 0xdda1 <end_block9+0xa657>
    1b36: a2 c0        	ldx	#$c0
    1b38: 8e a1 dd     	stx	$dda1                   ; 0xdda1 <end_block9+0xa657>
    1b3b: a2 13        	ldx	#$13
    1b3d: 8e a1 dd     	stx	$dda1                   ; 0xdda1 <end_block9+0xa657>
    1b40: a0 c1        	ldy	#$c1
    1b42: 8c a1 dd     	sty	$dda1                   ; 0xdda1 <end_block9+0xa657>
    1b45: 8e a1 dd     	stx	$dda1                   ; 0xdda1 <end_block9+0xa657>
    1b48: a0 9f        	ldy	#$9f
    1b4a: 8c 08 d6     	sty	$d608                   ; 0xd608 <end_block9+0x9ebe>
    1b4d: a0 0a        	ldy	#$a
    1b4f: b1 10        	lda	($10),y                 ; 0x2010 <_ZN12_GLOBAL__N_13putEcP6Status+0x9>
    1b51: 88           	dey
    1b52: 91 10        	sta	($10),y                 ; 0x2010 <_ZN12_GLOBAL__N_13putEcP6Status+0x9>
    1b54: a0 0b        	ldy	#$b
    1b56: b1 10        	lda	($10),y                 ; 0x2010 <_ZN12_GLOBAL__N_13putEcP6Status+0x9>
    1b58: a8           	tay
    1b59: 64 12        	stz	$12                     ; 0x2012 <_ZN12_GLOBAL__N_13putEcP6Status+0xb>
    1b5b: a9 00        	lda	#$0
    1b5d: 5a           	phy
    1b5e: a0 04        	ldy	#$4
    1b60: 91 10        	sta	($10),y                 ; 0x2010 <_ZN12_GLOBAL__N_13putEcP6Status+0x9>
    1b62: 7a           	ply
    1b63: 84 21        	sty	$21                     ; 0x2021 <_ZN12_GLOBAL__N_13putEcP6Status+0x1a>
    1b65: a0 03        	ldy	#$3
    1b67: b1 10        	lda	($10),y                 ; 0x2010 <_ZN12_GLOBAL__N_13putEcP6Status+0x9>
    1b69: 8a           	txa
    1b6a: a0 07        	ldy	#$7
    1b6c: 91 10        	sta	($10),y                 ; 0x2010 <_ZN12_GLOBAL__N_13putEcP6Status+0x9>
    1b6e: ad a0 dd     	lda	$dda0                   ; 0xdda0 <end_block9+0xa656>
    1b71: 29 02        	and	#$2
    1b73: 48           	pha
    1b74: a0 04        	ldy	#$4
    1b76: b1 10        	lda	($10),y                 ; 0x2010 <_ZN12_GLOBAL__N_13putEcP6Status+0x9>
    1b78: a4 21        	ldy	$21                     ; 0x2021 <_ZN12_GLOBAL__N_13putEcP6Status+0x1a>
    1b7a: 85 2b        	sta	$2b                     ; 0x202b <_ZN12_GLOBAL__N_13putEcP6Status+0x24>
    1b7c: 68           	pla
    1b7d: 06 2b        	asl	$2b                     ; 0x202b <_ZN12_GLOBAL__N_13putEcP6Status+0x24>
    1b7f: a2 01        	ldx	#$1
    1b81: b0 02        	bcs	$1b85 <f256main+0x1440>
    1b83: a2 00        	ldx	#$0
    1b85: 86 15        	stx	$15                     ; 0x2015 <_ZN12_GLOBAL__N_13putEcP6Status+0xe>
    1b87: 06 2b        	asl	$2b                     ; 0x202b <_ZN12_GLOBAL__N_13putEcP6Status+0x24>
    1b89: a2 01        	ldx	#$1
    1b8b: b0 02        	bcs	$1b8f <f256main+0x144a>
    1b8d: a2 00        	ldx	#$0
    1b8f: 86 16        	stx	$16                     ; 0x2016 <_ZN12_GLOBAL__N_13putEcP6Status+0xf>
    1b91: a6 2b        	ldx	$2b                     ; 0x202b <_ZN12_GLOBAL__N_13putEcP6Status+0x24>
    1b93: 86 2a        	stx	$2a                     ; 0x202a <_ZN12_GLOBAL__N_13putEcP6Status+0x23>
    1b95: 06 2a        	asl	$2a                     ; 0x202a <_ZN12_GLOBAL__N_13putEcP6Status+0x23>
    1b97: a2 01        	ldx	#$1
    1b99: b0 02        	bcs	$1b9d <f256main+0x1458>
    1b9b: a2 00        	ldx	#$0
    1b9d: 86 14        	stx	$14                     ; 0x2014 <_ZN12_GLOBAL__N_13putEcP6Status+0xd>
    1b9f: aa           	tax
    1ba0: f0 03        	beq	$1ba5 <f256main+0x1460>
    1ba2: 4c 63 0b     	jmp	$b63 <f256main+0x41e>
    1ba5: ae a2 dd     	ldx	$dda2                   ; 0xdda2 <end_block9+0xa658>
    1ba8: ad a3 dd     	lda	$dda3                   ; 0xdda3 <end_block9+0xa659>
    1bab: 29 0f        	and	#$f
    1bad: d0 07        	bne	$1bb6 <f256main+0x1471>
    1baf: e0 00        	cpx	#$0
    1bb1: d0 03        	bne	$1bb6 <f256main+0x1471>
    1bb3: 4c 63 0b     	jmp	$b63 <f256main+0x41e>
    1bb6: 85 2f        	sta	$2f                     ; 0x202f <_ZN12_GLOBAL__N_13putEcP6Status+0x28>
    1bb8: 5a           	phy
    1bb9: a0 04        	ldy	#$4
    1bbb: b1 10        	lda	($10),y                 ; 0x2010 <_ZN12_GLOBAL__N_13putEcP6Status+0x9>
    1bbd: 7a           	ply
    1bbe: c9 00        	cmp	#$0
    1bc0: 30 03        	bmi	$1bc5 <f256main+0x1480>
    1bc2: 4c a8 0d     	jmp	$da8 <f256main+0x663>
    1bc5: a9 ff        	lda	#$ff
    1bc7: 4c aa 0d     	jmp	$daa <f256main+0x665>

00001bca <bitmapLine>:
    1bca: 48           	pha
    1bcb: 18           	clc
    1bcc: a5 10        	lda	$10                     ; 0x2010 <_ZN12_GLOBAL__N_13putEcP6Status+0x9>
    1bce: 69 fe        	adc	#$fe
    1bd0: 85 10        	sta	$10                     ; 0x2010 <_ZN12_GLOBAL__N_13putEcP6Status+0x9>
    1bd2: a5 11        	lda	$11                     ; 0x2011 <_ZN12_GLOBAL__N_13putEcP6Status+0xa>
    1bd4: 69 ff        	adc	#$ff
    1bd6: 85 11        	sta	$11                     ; 0x2011 <_ZN12_GLOBAL__N_13putEcP6Status+0xa>
    1bd8: 68           	pla
    1bd9: a4 24        	ldy	$24                     ; 0x2024 <_ZN12_GLOBAL__N_13putEcP6Status+0x1d>
    1bdb: 5a           	phy
    1bdc: a4 25        	ldy	$25                     ; 0x2025 <_ZN12_GLOBAL__N_13putEcP6Status+0x1e>
    1bde: 5a           	phy
    1bdf: a4 26        	ldy	$26                     ; 0x2026 <_ZN12_GLOBAL__N_13putEcP6Status+0x1f>
    1be1: 5a           	phy
    1be2: a4 27        	ldy	$27                     ; 0x2027 <_ZN12_GLOBAL__N_13putEcP6Status+0x20>
    1be4: 5a           	phy
    1be5: 48           	pha
    1be6: a5 28        	lda	$28                     ; 0x2028 <_ZN12_GLOBAL__N_13putEcP6Status+0x21>
    1be8: a0 01        	ldy	#$1
    1bea: 91 10        	sta	($10),y                 ; 0x2010 <_ZN12_GLOBAL__N_13putEcP6Status+0x9>
    1bec: a5 29        	lda	$29                     ; 0x2029 <_ZN12_GLOBAL__N_13putEcP6Status+0x22>
    1bee: 88           	dey
    1bef: 91 10        	sta	($10),y                 ; 0x2010 <_ZN12_GLOBAL__N_13putEcP6Status+0x9>
    1bf1: 68           	pla
    1bf2: 85 19        	sta	$19                     ; 0x2019 <_ZN12_GLOBAL__N_13putEcP6Status+0x12>
    1bf4: 86 18        	stx	$18                     ; 0x2018 <_ZN12_GLOBAL__N_13putEcP6Status+0x11>
    1bf6: a6 12        	ldx	$12                     ; 0x2012 <_ZN12_GLOBAL__N_13putEcP6Status+0xb>
    1bf8: 86 24        	stx	$24                     ; 0x2024 <_ZN12_GLOBAL__N_13putEcP6Status+0x1d>
    1bfa: a5 14        	lda	$14                     ; 0x2014 <_ZN12_GLOBAL__N_13putEcP6Status+0xd>
    1bfc: a4 15        	ldy	$15                     ; 0x2015 <_ZN12_GLOBAL__N_13putEcP6Status+0xe>
    1bfe: a6 0f        	ldx	$f                      ; 0x200f <_ZN12_GLOBAL__N_13putEcP6Status+0x8>
    1c00: 86 1e        	stx	$1e                     ; 0x201e <_ZN12_GLOBAL__N_13putEcP6Status+0x17>
    1c02: 78           	sei
    1c03: a6 18        	ldx	$18                     ; 0x2018 <_ZN12_GLOBAL__N_13putEcP6Status+0x11>
    1c05: 86 22        	stx	$22                     ; 0x2022 <_ZN12_GLOBAL__N_13putEcP6Status+0x1b>
    1c07: 84 27        	sty	$27                     ; 0x2027 <_ZN12_GLOBAL__N_13putEcP6Status+0x20>
    1c09: 85 28        	sta	$28                     ; 0x2028 <_ZN12_GLOBAL__N_13putEcP6Status+0x21>
    1c0b: c4 18        	cpy	$18                     ; 0x2018 <_ZN12_GLOBAL__N_13putEcP6Status+0x11>
    1c0d: d0 1d        	bne	$1c2c <bitmapLine+0x62>
    1c0f: c5 19        	cmp	$19                     ; 0x2019 <_ZN12_GLOBAL__N_13putEcP6Status+0x12>
    1c11: b0 1d        	bcs	$1c30 <bitmapLine+0x66>
    1c13: 38           	sec
    1c14: a6 19        	ldx	$19                     ; 0x2019 <_ZN12_GLOBAL__N_13putEcP6Status+0x12>
    1c16: 86 1f        	stx	$1f                     ; 0x201f <_ZN12_GLOBAL__N_13putEcP6Status+0x18>
    1c18: a5 19        	lda	$19                     ; 0x2019 <_ZN12_GLOBAL__N_13putEcP6Status+0x12>
    1c1a: e5 28        	sbc	$28                     ; 0x2028 <_ZN12_GLOBAL__N_13putEcP6Status+0x21>
    1c1c: 85 1b        	sta	$1b                     ; 0x201b <_ZN12_GLOBAL__N_13putEcP6Status+0x14>
    1c1e: a5 18        	lda	$18                     ; 0x2018 <_ZN12_GLOBAL__N_13putEcP6Status+0x11>
    1c20: e5 27        	sbc	$27                     ; 0x2027 <_ZN12_GLOBAL__N_13putEcP6Status+0x20>
    1c22: a2 ff        	ldx	#$ff
    1c24: 86 12        	stx	$12                     ; 0x2012 <_ZN12_GLOBAL__N_13putEcP6Status+0xb>
    1c26: 86 23        	stx	$23                     ; 0x2023 <_ZN12_GLOBAL__N_13putEcP6Status+0x1c>
    1c28: 85 1a        	sta	$1a                     ; 0x201a <_ZN12_GLOBAL__N_13putEcP6Status+0x13>
    1c2a: 80 18        	bra	$1c44 <bitmapLine+0x7a>
    1c2c: c4 18        	cpy	$18                     ; 0x2018 <_ZN12_GLOBAL__N_13putEcP6Status+0x11>
    1c2e: 90 e3        	bcc	$1c13 <bitmapLine+0x49>
    1c30: 38           	sec
    1c31: a6 19        	ldx	$19                     ; 0x2019 <_ZN12_GLOBAL__N_13putEcP6Status+0x12>
    1c33: 86 1f        	stx	$1f                     ; 0x201f <_ZN12_GLOBAL__N_13putEcP6Status+0x18>
    1c35: e5 19        	sbc	$19                     ; 0x2019 <_ZN12_GLOBAL__N_13putEcP6Status+0x12>
    1c37: 85 1b        	sta	$1b                     ; 0x201b <_ZN12_GLOBAL__N_13putEcP6Status+0x14>
    1c39: 98           	tya
    1c3a: e5 22        	sbc	$22                     ; 0x2022 <_ZN12_GLOBAL__N_13putEcP6Status+0x1b>
    1c3c: a2 01        	ldx	#$1
    1c3e: 86 12        	stx	$12                     ; 0x2012 <_ZN12_GLOBAL__N_13putEcP6Status+0xb>
    1c40: 85 1a        	sta	$1a                     ; 0x201a <_ZN12_GLOBAL__N_13putEcP6Status+0x13>
    1c42: 64 23        	stz	$23                     ; 0x2023 <_ZN12_GLOBAL__N_13putEcP6Status+0x1c>
    1c44: a6 13        	ldx	$13                     ; 0x2013 <_ZN12_GLOBAL__N_13putEcP6Status+0xc>
    1c46: 86 15        	stx	$15                     ; 0x2015 <_ZN12_GLOBAL__N_13putEcP6Status+0xe>
    1c48: a6 17        	ldx	$17                     ; 0x2017 <_ZN12_GLOBAL__N_13putEcP6Status+0x10>
    1c4a: e4 13        	cpx	$13                     ; 0x2013 <_ZN12_GLOBAL__N_13putEcP6Status+0xc>
    1c4c: d0 25        	bne	$1c73 <bitmapLine+0xa9>
    1c4e: a4 24        	ldy	$24                     ; 0x2024 <_ZN12_GLOBAL__N_13putEcP6Status+0x1d>
    1c50: 84 14        	sty	$14                     ; 0x2014 <_ZN12_GLOBAL__N_13putEcP6Status+0xd>
    1c52: a4 16        	ldy	$16                     ; 0x2016 <_ZN12_GLOBAL__N_13putEcP6Status+0xf>
    1c54: c4 14        	cpy	$14                     ; 0x2014 <_ZN12_GLOBAL__N_13putEcP6Status+0xd>
    1c56: b0 1f        	bcs	$1c77 <bitmapLine+0xad>
    1c58: 38           	sec
    1c59: a4 16        	ldy	$16                     ; 0x2016 <_ZN12_GLOBAL__N_13putEcP6Status+0xf>
    1c5b: 84 14        	sty	$14                     ; 0x2014 <_ZN12_GLOBAL__N_13putEcP6Status+0xd>
    1c5d: a5 24        	lda	$24                     ; 0x2024 <_ZN12_GLOBAL__N_13putEcP6Status+0x1d>
    1c5f: e5 14        	sbc	$14                     ; 0x2014 <_ZN12_GLOBAL__N_13putEcP6Status+0xd>
    1c61: 85 1d        	sta	$1d                     ; 0x201d <_ZN12_GLOBAL__N_13putEcP6Status+0x16>
    1c63: 86 14        	stx	$14                     ; 0x2014 <_ZN12_GLOBAL__N_13putEcP6Status+0xd>
    1c65: a5 13        	lda	$13                     ; 0x2013 <_ZN12_GLOBAL__N_13putEcP6Status+0xc>
    1c67: e5 14        	sbc	$14                     ; 0x2014 <_ZN12_GLOBAL__N_13putEcP6Status+0xd>
    1c69: a2 ff        	ldx	#$ff
    1c6b: 86 14        	stx	$14                     ; 0x2014 <_ZN12_GLOBAL__N_13putEcP6Status+0xd>
    1c6d: 86 15        	stx	$15                     ; 0x2015 <_ZN12_GLOBAL__N_13putEcP6Status+0xe>
    1c6f: 85 1c        	sta	$1c                     ; 0x201c <_ZN12_GLOBAL__N_13putEcP6Status+0x15>
    1c71: 80 1a        	bra	$1c8d <bitmapLine+0xc3>
    1c73: e4 15        	cpx	$15                     ; 0x2015 <_ZN12_GLOBAL__N_13putEcP6Status+0xe>
    1c75: 90 e1        	bcc	$1c58 <bitmapLine+0x8e>
    1c77: 38           	sec
    1c78: a4 24        	ldy	$24                     ; 0x2024 <_ZN12_GLOBAL__N_13putEcP6Status+0x1d>
    1c7a: 84 14        	sty	$14                     ; 0x2014 <_ZN12_GLOBAL__N_13putEcP6Status+0xd>
    1c7c: a5 16        	lda	$16                     ; 0x2016 <_ZN12_GLOBAL__N_13putEcP6Status+0xf>
    1c7e: e5 14        	sbc	$14                     ; 0x2014 <_ZN12_GLOBAL__N_13putEcP6Status+0xd>
    1c80: 85 1d        	sta	$1d                     ; 0x201d <_ZN12_GLOBAL__N_13putEcP6Status+0x16>
    1c82: 8a           	txa
    1c83: e5 15        	sbc	$15                     ; 0x2015 <_ZN12_GLOBAL__N_13putEcP6Status+0xe>
    1c85: a2 01        	ldx	#$1
    1c87: 86 14        	stx	$14                     ; 0x2014 <_ZN12_GLOBAL__N_13putEcP6Status+0xd>
    1c89: 85 1c        	sta	$1c                     ; 0x201c <_ZN12_GLOBAL__N_13putEcP6Status+0x15>
    1c8b: 64 15        	stz	$15                     ; 0x2015 <_ZN12_GLOBAL__N_13putEcP6Status+0xe>
    1c8d: a6 1b        	ldx	$1b                     ; 0x201b <_ZN12_GLOBAL__N_13putEcP6Status+0x14>
    1c8f: e4 1d        	cpx	$1d                     ; 0x201d <_ZN12_GLOBAL__N_13putEcP6Status+0x16>
    1c91: a5 1a        	lda	$1a                     ; 0x201a <_ZN12_GLOBAL__N_13putEcP6Status+0x13>
    1c93: e5 1c        	sbc	$1c                     ; 0x201c <_ZN12_GLOBAL__N_13putEcP6Status+0x15>
    1c95: 50 02        	bvc	$1c99 <bitmapLine+0xcf>
    1c97: 49 80        	eor	#$80
    1c99: a6 1b        	ldx	$1b                     ; 0x201b <_ZN12_GLOBAL__N_13putEcP6Status+0x14>
    1c9b: 86 25        	stx	$25                     ; 0x2025 <_ZN12_GLOBAL__N_13putEcP6Status+0x1e>
    1c9d: 06 25        	asl	$25                     ; 0x2025 <_ZN12_GLOBAL__N_13putEcP6Status+0x1e>
    1c9f: a6 1a        	ldx	$1a                     ; 0x201a <_ZN12_GLOBAL__N_13putEcP6Status+0x13>
    1ca1: 86 26        	stx	$26                     ; 0x2026 <_ZN12_GLOBAL__N_13putEcP6Status+0x1f>
    1ca3: 26 26        	rol	$26                     ; 0x2026 <_ZN12_GLOBAL__N_13putEcP6Status+0x1f>
    1ca5: a6 1d        	ldx	$1d                     ; 0x201d <_ZN12_GLOBAL__N_13putEcP6Status+0x16>
    1ca7: 86 18        	stx	$18                     ; 0x2018 <_ZN12_GLOBAL__N_13putEcP6Status+0x11>
    1ca9: 06 18        	asl	$18                     ; 0x2018 <_ZN12_GLOBAL__N_13putEcP6Status+0x11>
    1cab: a6 1c        	ldx	$1c                     ; 0x201c <_ZN12_GLOBAL__N_13putEcP6Status+0x15>
    1cad: 86 19        	stx	$19                     ; 0x2019 <_ZN12_GLOBAL__N_13putEcP6Status+0x12>
    1caf: 26 19        	rol	$19                     ; 0x2019 <_ZN12_GLOBAL__N_13putEcP6Status+0x12>
    1cb1: aa           	tax
    1cb2: 10 1b        	bpl	$1ccf <bitmapLine+0x105>
    1cb4: a6 17        	ldx	$17                     ; 0x2017 <_ZN12_GLOBAL__N_13putEcP6Status+0x10>
    1cb6: 86 1a        	stx	$1a                     ; 0x201a <_ZN12_GLOBAL__N_13putEcP6Status+0x13>
    1cb8: a6 13        	ldx	$13                     ; 0x2013 <_ZN12_GLOBAL__N_13putEcP6Status+0xc>
    1cba: e4 1a        	cpx	$1a                     ; 0x201a <_ZN12_GLOBAL__N_13putEcP6Status+0x13>
    1cbc: d0 36        	bne	$1cf4 <bitmapLine+0x12a>
    1cbe: a4 16        	ldy	$16                     ; 0x2016 <_ZN12_GLOBAL__N_13putEcP6Status+0xf>
    1cc0: 84 1a        	sty	$1a                     ; 0x201a <_ZN12_GLOBAL__N_13putEcP6Status+0x13>
    1cc2: a5 1f        	lda	$1f                     ; 0x201f <_ZN12_GLOBAL__N_13putEcP6Status+0x18>
    1cc4: a4 24        	ldy	$24                     ; 0x2024 <_ZN12_GLOBAL__N_13putEcP6Status+0x1d>
    1cc6: c4 1a        	cpy	$1a                     ; 0x201a <_ZN12_GLOBAL__N_13putEcP6Status+0x13>
    1cc8: d0 2c        	bne	$1cf6 <bitmapLine+0x12c>
    1cca: 85 15        	sta	$15                     ; 0x2015 <_ZN12_GLOBAL__N_13putEcP6Status+0xe>
    1ccc: 4c 2d 1f     	jmp	$1f2d <bitmapLine+0x363>
    1ccf: a4 22        	ldy	$22                     ; 0x2022 <_ZN12_GLOBAL__N_13putEcP6Status+0x1b>
    1cd1: c4 27        	cpy	$27                     ; 0x2027 <_ZN12_GLOBAL__N_13putEcP6Status+0x20>
    1cd3: f0 03        	beq	$1cd8 <bitmapLine+0x10e>
    1cd5: 4c 0f 1e     	jmp	$1e0f <bitmapLine+0x245>
    1cd8: a6 1f        	ldx	$1f                     ; 0x201f <_ZN12_GLOBAL__N_13putEcP6Status+0x18>
    1cda: e4 28        	cpx	$28                     ; 0x2028 <_ZN12_GLOBAL__N_13putEcP6Status+0x21>
    1cdc: f0 03        	beq	$1ce1 <bitmapLine+0x117>
    1cde: 4c 11 1e     	jmp	$1e11 <bitmapLine+0x247>
    1ce1: a5 13        	lda	$13                     ; 0x2013 <_ZN12_GLOBAL__N_13putEcP6Status+0xc>
    1ce3: a6 24        	ldx	$24                     ; 0x2024 <_ZN12_GLOBAL__N_13putEcP6Status+0x1d>
    1ce5: 86 16        	stx	$16                     ; 0x2016 <_ZN12_GLOBAL__N_13putEcP6Status+0xf>
    1ce7: 85 17        	sta	$17                     ; 0x2017 <_ZN12_GLOBAL__N_13putEcP6Status+0x10>
    1ce9: a6 28        	ldx	$28                     ; 0x2028 <_ZN12_GLOBAL__N_13putEcP6Status+0x21>
    1ceb: 86 15        	stx	$15                     ; 0x2015 <_ZN12_GLOBAL__N_13putEcP6Status+0xe>
    1ced: a6 27        	ldx	$27                     ; 0x2027 <_ZN12_GLOBAL__N_13putEcP6Status+0x20>
    1cef: 86 22        	stx	$22                     ; 0x2022 <_ZN12_GLOBAL__N_13putEcP6Status+0x1b>
    1cf1: 4c 2d 1f     	jmp	$1f2d <bitmapLine+0x363>
    1cf4: a5 1f        	lda	$1f                     ; 0x201f <_ZN12_GLOBAL__N_13putEcP6Status+0x18>
    1cf6: 85 28        	sta	$28                     ; 0x2028 <_ZN12_GLOBAL__N_13putEcP6Status+0x21>
    1cf8: 38           	sec
    1cf9: a5 25        	lda	$25                     ; 0x2025 <_ZN12_GLOBAL__N_13putEcP6Status+0x1e>
    1cfb: e5 1d        	sbc	$1d                     ; 0x201d <_ZN12_GLOBAL__N_13putEcP6Status+0x16>
    1cfd: 85 1f        	sta	$1f                     ; 0x201f <_ZN12_GLOBAL__N_13putEcP6Status+0x18>
    1cff: a5 26        	lda	$26                     ; 0x2026 <_ZN12_GLOBAL__N_13putEcP6Status+0x1f>
    1d01: e5 1c        	sbc	$1c                     ; 0x201c <_ZN12_GLOBAL__N_13putEcP6Status+0x15>
    1d03: 85 27        	sta	$27                     ; 0x2027 <_ZN12_GLOBAL__N_13putEcP6Status+0x20>
    1d05: 86 13        	stx	$13                     ; 0x2013 <_ZN12_GLOBAL__N_13putEcP6Status+0xc>
    1d07: a6 28        	ldx	$28                     ; 0x2028 <_ZN12_GLOBAL__N_13putEcP6Status+0x21>
    1d09: 86 1d        	stx	$1d                     ; 0x201d <_ZN12_GLOBAL__N_13putEcP6Status+0x16>
    1d0b: a9 01        	lda	#$1
    1d0d: 25 40        	and	$40                     ; 0x2040 <_ZN12_GLOBAL__N_13putEcP6Status+0x39>
    1d0f: 0a           	asl
    1d10: 0a           	asl
    1d11: aa           	tax
    1d12: b4 34        	ldy	$34,x                   ; 0x2034 <_ZN12_GLOBAL__N_13putEcP6Status+0x2d>
    1d14: 84 1a        	sty	$1a                     ; 0x201a <_ZN12_GLOBAL__N_13putEcP6Status+0x13>
    1d16: b4 35        	ldy	$35,x                   ; 0x2035 <_ZN12_GLOBAL__N_13putEcP6Status+0x2e>
    1d18: 84 1b        	sty	$1b                     ; 0x201b <_ZN12_GLOBAL__N_13putEcP6Status+0x14>
    1d1a: b5 36        	lda	$36,x                   ; 0x2036 <_ZN12_GLOBAL__N_13putEcP6Status+0x2f>
    1d1c: aa           	tax
    1d1d: 86 1c        	stx	$1c                     ; 0x201c <_ZN12_GLOBAL__N_13putEcP6Status+0x15>
    1d1f: a5 42        	lda	$42                     ; 0x2042 <_ZN12_GLOBAL__N_13putEcP6Status+0x3b>
    1d21: 29 01        	and	#$1
    1d23: a2 40        	ldx	#$40
    1d25: a0 01        	ldy	#$1
    1d27: c9 00        	cmp	#$0
    1d29: d0 04        	bne	$1d2f <bitmapLine+0x165>
    1d2b: a2 00        	ldx	#$0
    1d2d: a0 00        	ldy	#$0
    1d2f: a5 24        	lda	$24                     ; 0x2024 <_ZN12_GLOBAL__N_13putEcP6Status+0x1d>
    1d31: 8d 00 de     	sta	$de00                   ; 0xde00 <end_block9+0xa6b6>
    1d34: a5 13        	lda	$13                     ; 0x2013 <_ZN12_GLOBAL__N_13putEcP6Status+0xc>
    1d36: 8d 01 de     	sta	$de01                   ; 0xde01 <end_block9+0xa6b7>
    1d39: 8e 02 de     	stx	$de02                   ; 0xde02 <end_block9+0xa6b8>
    1d3c: 8c 03 de     	sty	$de03                   ; 0xde03 <end_block9+0xa6b9>
    1d3f: ae 10 de     	ldx	$de10                   ; 0xde10 <end_block9+0xa6c6>
    1d42: 86 29        	stx	$29                     ; 0x2029 <_ZN12_GLOBAL__N_13putEcP6Status+0x22>
    1d44: ac 11 de     	ldy	$de11                   ; 0xde11 <end_block9+0xa6c7>
    1d47: ad 12 de     	lda	$de12                   ; 0xde12 <end_block9+0xa6c8>
    1d4a: ae 13 de     	ldx	$de13                   ; 0xde13 <end_block9+0xa6c9>
    1d4d: 86 28        	stx	$28                     ; 0x2028 <_ZN12_GLOBAL__N_13putEcP6Status+0x21>
    1d4f: a6 29        	ldx	$29                     ; 0x2029 <_ZN12_GLOBAL__N_13putEcP6Status+0x22>
    1d51: 8e 08 de     	stx	$de08                   ; 0xde08 <end_block9+0xa6be>
    1d54: 8c 09 de     	sty	$de09                   ; 0xde09 <end_block9+0xa6bf>
    1d57: 8d 0a de     	sta	$de0a                   ; 0xde0a <end_block9+0xa6c0>
    1d5a: a6 28        	ldx	$28                     ; 0x2028 <_ZN12_GLOBAL__N_13putEcP6Status+0x21>
    1d5c: 8e 0b de     	stx	$de0b                   ; 0xde0b <end_block9+0xa6c1>
    1d5f: a6 1d        	ldx	$1d                     ; 0x201d <_ZN12_GLOBAL__N_13putEcP6Status+0x16>
    1d61: 8e 0c de     	stx	$de0c                   ; 0xde0c <end_block9+0xa6c2>
    1d64: a6 22        	ldx	$22                     ; 0x2022 <_ZN12_GLOBAL__N_13putEcP6Status+0x1b>
    1d66: 8e 0d de     	stx	$de0d                   ; 0xde0d <end_block9+0xa6c3>
    1d69: 9c 0e de     	stz	$de0e                   ; 0xde0e <end_block9+0xa6c4>
    1d6c: 9c 0f de     	stz	$de0f                   ; 0xde0f <end_block9+0xa6c5>
    1d6f: ad 18 de     	lda	$de18                   ; 0xde18 <end_block9+0xa6ce>
    1d72: ac 19 de     	ldy	$de19                   ; 0xde19 <end_block9+0xa6cf>
    1d75: ae 1a de     	ldx	$de1a                   ; 0xde1a <end_block9+0xa6d0>
    1d78: 86 28        	stx	$28                     ; 0x2028 <_ZN12_GLOBAL__N_13putEcP6Status+0x21>
    1d7a: ae 1b de     	ldx	$de1b                   ; 0xde1b <end_block9+0xa6d1>
    1d7d: 18           	clc
    1d7e: 65 1a        	adc	$1a                     ; 0x201a <_ZN12_GLOBAL__N_13putEcP6Status+0x13>
    1d80: aa           	tax
    1d81: 98           	tya
    1d82: 65 1b        	adc	$1b                     ; 0x201b <_ZN12_GLOBAL__N_13putEcP6Status+0x14>
    1d84: a8           	tay
    1d85: a5 28        	lda	$28                     ; 0x2028 <_ZN12_GLOBAL__N_13putEcP6Status+0x21>
    1d87: 65 1c        	adc	$1c                     ; 0x201c <_ZN12_GLOBAL__N_13putEcP6Status+0x15>
    1d89: 84 1b        	sty	$1b                     ; 0x201b <_ZN12_GLOBAL__N_13putEcP6Status+0x14>
    1d8b: 84 1a        	sty	$1a                     ; 0x201a <_ZN12_GLOBAL__N_13putEcP6Status+0x13>
    1d8d: 06 1a        	asl	$1a                     ; 0x201a <_ZN12_GLOBAL__N_13putEcP6Status+0x13>
    1d8f: 2a           	rol
    1d90: 06 1a        	asl	$1a                     ; 0x201a <_ZN12_GLOBAL__N_13putEcP6Status+0x13>
    1d92: 2a           	rol
    1d93: 06 1a        	asl	$1a                     ; 0x201a <_ZN12_GLOBAL__N_13putEcP6Status+0x13>
    1d95: 2a           	rol
    1d96: 85 0f        	sta	$f                      ; 0x200f <_ZN12_GLOBAL__N_13putEcP6Status+0x8>
    1d98: a5 41        	lda	$41                     ; 0x2041 <_ZN12_GLOBAL__N_13putEcP6Status+0x3a>
    1d9a: 4a           	lsr
    1d9b: a9 00        	lda	#$0
    1d9d: 6a           	ror
    1d9e: 10 04        	bpl	$1da4 <bitmapLine+0x1da>
    1da0: a0 ff        	ldy	#$ff
    1da2: 80 02        	bra	$1da6 <bitmapLine+0x1dc>
    1da4: a0 00        	ldy	#$0
    1da6: 0a           	asl
    1da7: 98           	tya
    1da8: 2a           	rol
    1da9: a8           	tay
    1daa: a5 1b        	lda	$1b                     ; 0x201b <_ZN12_GLOBAL__N_13putEcP6Status+0x14>
    1dac: 09 e0        	ora	#$e0
    1dae: 86 1a        	stx	$1a                     ; 0x201a <_ZN12_GLOBAL__N_13putEcP6Status+0x13>
    1db0: 85 1b        	sta	$1b                     ; 0x201b <_ZN12_GLOBAL__N_13putEcP6Status+0x14>
    1db2: 98           	tya
    1db3: 92 1a        	sta	($1a)                   ; 0x201a <_ZN12_GLOBAL__N_13putEcP6Status+0x13>
    1db5: a6 27        	ldx	$27                     ; 0x2027 <_ZN12_GLOBAL__N_13putEcP6Status+0x20>
    1db7: 30 1a        	bmi	$1dd3 <bitmapLine+0x209>
    1db9: a5 1d        	lda	$1d                     ; 0x201d <_ZN12_GLOBAL__N_13putEcP6Status+0x16>
    1dbb: 18           	clc
    1dbc: 65 12        	adc	$12                     ; 0x2012 <_ZN12_GLOBAL__N_13putEcP6Status+0xb>
    1dbe: 85 28        	sta	$28                     ; 0x2028 <_ZN12_GLOBAL__N_13putEcP6Status+0x21>
    1dc0: a5 22        	lda	$22                     ; 0x2022 <_ZN12_GLOBAL__N_13putEcP6Status+0x1b>
    1dc2: 65 23        	adc	$23                     ; 0x2023 <_ZN12_GLOBAL__N_13putEcP6Status+0x1c>
    1dc4: 85 22        	sta	$22                     ; 0x2022 <_ZN12_GLOBAL__N_13putEcP6Status+0x1b>
    1dc6: 38           	sec
    1dc7: a5 1f        	lda	$1f                     ; 0x201f <_ZN12_GLOBAL__N_13putEcP6Status+0x18>
    1dc9: e5 18        	sbc	$18                     ; 0x2018 <_ZN12_GLOBAL__N_13putEcP6Status+0x11>
    1dcb: a8           	tay
    1dcc: 8a           	txa
    1dcd: e5 19        	sbc	$19                     ; 0x2019 <_ZN12_GLOBAL__N_13putEcP6Status+0x12>
    1dcf: aa           	tax
    1dd0: 98           	tya
    1dd1: 80 06        	bra	$1dd9 <bitmapLine+0x20f>
    1dd3: a4 1d        	ldy	$1d                     ; 0x201d <_ZN12_GLOBAL__N_13putEcP6Status+0x16>
    1dd5: 84 28        	sty	$28                     ; 0x2028 <_ZN12_GLOBAL__N_13putEcP6Status+0x21>
    1dd7: a5 1f        	lda	$1f                     ; 0x201f <_ZN12_GLOBAL__N_13putEcP6Status+0x18>
    1dd9: 18           	clc
    1dda: 65 25        	adc	$25                     ; 0x2025 <_ZN12_GLOBAL__N_13putEcP6Status+0x1e>
    1ddc: 85 1f        	sta	$1f                     ; 0x201f <_ZN12_GLOBAL__N_13putEcP6Status+0x18>
    1dde: 8a           	txa
    1ddf: 65 26        	adc	$26                     ; 0x2026 <_ZN12_GLOBAL__N_13putEcP6Status+0x1f>
    1de1: 85 27        	sta	$27                     ; 0x2027 <_ZN12_GLOBAL__N_13putEcP6Status+0x20>
    1de3: a5 24        	lda	$24                     ; 0x2024 <_ZN12_GLOBAL__N_13putEcP6Status+0x1d>
    1de5: 18           	clc
    1de6: 65 14        	adc	$14                     ; 0x2014 <_ZN12_GLOBAL__N_13putEcP6Status+0xd>
    1de8: 85 1a        	sta	$1a                     ; 0x201a <_ZN12_GLOBAL__N_13putEcP6Status+0x13>
    1dea: a5 13        	lda	$13                     ; 0x2013 <_ZN12_GLOBAL__N_13putEcP6Status+0xc>
    1dec: 65 15        	adc	$15                     ; 0x2015 <_ZN12_GLOBAL__N_13putEcP6Status+0xe>
    1dee: 85 1b        	sta	$1b                     ; 0x201b <_ZN12_GLOBAL__N_13putEcP6Status+0x14>
    1df0: a6 1a        	ldx	$1a                     ; 0x201a <_ZN12_GLOBAL__N_13putEcP6Status+0x13>
    1df2: 86 24        	stx	$24                     ; 0x2024 <_ZN12_GLOBAL__N_13putEcP6Status+0x1d>
    1df4: aa           	tax
    1df5: a4 17        	ldy	$17                     ; 0x2017 <_ZN12_GLOBAL__N_13putEcP6Status+0x10>
    1df7: c4 1b        	cpy	$1b                     ; 0x201b <_ZN12_GLOBAL__N_13putEcP6Status+0x14>
    1df9: f0 03        	beq	$1dfe <bitmapLine+0x234>
    1dfb: 4c 05 1d     	jmp	$1d05 <bitmapLine+0x13b>
    1dfe: a6 1a        	ldx	$1a                     ; 0x201a <_ZN12_GLOBAL__N_13putEcP6Status+0x13>
    1e00: 86 24        	stx	$24                     ; 0x2024 <_ZN12_GLOBAL__N_13putEcP6Status+0x1d>
    1e02: aa           	tax
    1e03: a4 16        	ldy	$16                     ; 0x2016 <_ZN12_GLOBAL__N_13putEcP6Status+0xf>
    1e05: c4 1a        	cpy	$1a                     ; 0x201a <_ZN12_GLOBAL__N_13putEcP6Status+0x13>
    1e07: f0 03        	beq	$1e0c <bitmapLine+0x242>
    1e09: 4c 05 1d     	jmp	$1d05 <bitmapLine+0x13b>
    1e0c: 4c 29 1f     	jmp	$1f29 <bitmapLine+0x35f>
    1e0f: a6 1f        	ldx	$1f                     ; 0x201f <_ZN12_GLOBAL__N_13putEcP6Status+0x18>
    1e11: 38           	sec
    1e12: a5 18        	lda	$18                     ; 0x2018 <_ZN12_GLOBAL__N_13putEcP6Status+0x11>
    1e14: e5 1b        	sbc	$1b                     ; 0x201b <_ZN12_GLOBAL__N_13putEcP6Status+0x14>
    1e16: 85 16        	sta	$16                     ; 0x2016 <_ZN12_GLOBAL__N_13putEcP6Status+0xf>
    1e18: a5 19        	lda	$19                     ; 0x2019 <_ZN12_GLOBAL__N_13putEcP6Status+0x12>
    1e1a: e5 1a        	sbc	$1a                     ; 0x201a <_ZN12_GLOBAL__N_13putEcP6Status+0x13>
    1e1c: 85 17        	sta	$17                     ; 0x2017 <_ZN12_GLOBAL__N_13putEcP6Status+0x10>
    1e1e: 84 1f        	sty	$1f                     ; 0x201f <_ZN12_GLOBAL__N_13putEcP6Status+0x18>
    1e20: 86 1d        	stx	$1d                     ; 0x201d <_ZN12_GLOBAL__N_13putEcP6Status+0x16>
    1e22: a9 01        	lda	#$1
    1e24: 25 40        	and	$40                     ; 0x2040 <_ZN12_GLOBAL__N_13putEcP6Status+0x39>
    1e26: 0a           	asl
    1e27: 0a           	asl
    1e28: aa           	tax
    1e29: b4 34        	ldy	$34,x                   ; 0x2034 <_ZN12_GLOBAL__N_13putEcP6Status+0x2d>
    1e2b: 84 1a        	sty	$1a                     ; 0x201a <_ZN12_GLOBAL__N_13putEcP6Status+0x13>
    1e2d: b4 35        	ldy	$35,x                   ; 0x2035 <_ZN12_GLOBAL__N_13putEcP6Status+0x2e>
    1e2f: 84 1b        	sty	$1b                     ; 0x201b <_ZN12_GLOBAL__N_13putEcP6Status+0x14>
    1e31: b5 36        	lda	$36,x                   ; 0x2036 <_ZN12_GLOBAL__N_13putEcP6Status+0x2f>
    1e33: aa           	tax
    1e34: 86 1c        	stx	$1c                     ; 0x201c <_ZN12_GLOBAL__N_13putEcP6Status+0x15>
    1e36: a5 42        	lda	$42                     ; 0x2042 <_ZN12_GLOBAL__N_13putEcP6Status+0x3b>
    1e38: 29 01        	and	#$1
    1e3a: a2 40        	ldx	#$40
    1e3c: a0 01        	ldy	#$1
    1e3e: c9 00        	cmp	#$0
    1e40: d0 04        	bne	$1e46 <bitmapLine+0x27c>
    1e42: a2 00        	ldx	#$0
    1e44: a0 00        	ldy	#$0
    1e46: a5 24        	lda	$24                     ; 0x2024 <_ZN12_GLOBAL__N_13putEcP6Status+0x1d>
    1e48: 8d 00 de     	sta	$de00                   ; 0xde00 <end_block9+0xa6b6>
    1e4b: a5 13        	lda	$13                     ; 0x2013 <_ZN12_GLOBAL__N_13putEcP6Status+0xc>
    1e4d: 8d 01 de     	sta	$de01                   ; 0xde01 <end_block9+0xa6b7>
    1e50: 8e 02 de     	stx	$de02                   ; 0xde02 <end_block9+0xa6b8>
    1e53: 8c 03 de     	sty	$de03                   ; 0xde03 <end_block9+0xa6b9>
    1e56: ae 10 de     	ldx	$de10                   ; 0xde10 <end_block9+0xa6c6>
    1e59: 86 29        	stx	$29                     ; 0x2029 <_ZN12_GLOBAL__N_13putEcP6Status+0x22>
    1e5b: ac 11 de     	ldy	$de11                   ; 0xde11 <end_block9+0xa6c7>
    1e5e: ad 12 de     	lda	$de12                   ; 0xde12 <end_block9+0xa6c8>
    1e61: ae 13 de     	ldx	$de13                   ; 0xde13 <end_block9+0xa6c9>
    1e64: 86 22        	stx	$22                     ; 0x2022 <_ZN12_GLOBAL__N_13putEcP6Status+0x1b>
    1e66: a6 29        	ldx	$29                     ; 0x2029 <_ZN12_GLOBAL__N_13putEcP6Status+0x22>
    1e68: 8e 08 de     	stx	$de08                   ; 0xde08 <end_block9+0xa6be>
    1e6b: 8c 09 de     	sty	$de09                   ; 0xde09 <end_block9+0xa6bf>
    1e6e: 8d 0a de     	sta	$de0a                   ; 0xde0a <end_block9+0xa6c0>
    1e71: a6 22        	ldx	$22                     ; 0x2022 <_ZN12_GLOBAL__N_13putEcP6Status+0x1b>
    1e73: 8e 0b de     	stx	$de0b                   ; 0xde0b <end_block9+0xa6c1>
    1e76: a6 1d        	ldx	$1d                     ; 0x201d <_ZN12_GLOBAL__N_13putEcP6Status+0x16>
    1e78: 8e 0c de     	stx	$de0c                   ; 0xde0c <end_block9+0xa6c2>
    1e7b: a6 1f        	ldx	$1f                     ; 0x201f <_ZN12_GLOBAL__N_13putEcP6Status+0x18>
    1e7d: 8e 0d de     	stx	$de0d                   ; 0xde0d <end_block9+0xa6c3>
    1e80: 9c 0e de     	stz	$de0e                   ; 0xde0e <end_block9+0xa6c4>
    1e83: 9c 0f de     	stz	$de0f                   ; 0xde0f <end_block9+0xa6c5>
    1e86: ad 18 de     	lda	$de18                   ; 0xde18 <end_block9+0xa6ce>
    1e89: ae 19 de     	ldx	$de19                   ; 0xde19 <end_block9+0xa6cf>
    1e8c: 86 22        	stx	$22                     ; 0x2022 <_ZN12_GLOBAL__N_13putEcP6Status+0x1b>
    1e8e: ae 1a de     	ldx	$de1a                   ; 0xde1a <end_block9+0xa6d0>
    1e91: 86 29        	stx	$29                     ; 0x2029 <_ZN12_GLOBAL__N_13putEcP6Status+0x22>
    1e93: ae 1b de     	ldx	$de1b                   ; 0xde1b <end_block9+0xa6d1>
    1e96: 18           	clc
    1e97: 65 1a        	adc	$1a                     ; 0x201a <_ZN12_GLOBAL__N_13putEcP6Status+0x13>
    1e99: aa           	tax
    1e9a: a5 22        	lda	$22                     ; 0x2022 <_ZN12_GLOBAL__N_13putEcP6Status+0x1b>
    1e9c: 65 1b        	adc	$1b                     ; 0x201b <_ZN12_GLOBAL__N_13putEcP6Status+0x14>
    1e9e: a8           	tay
    1e9f: a5 29        	lda	$29                     ; 0x2029 <_ZN12_GLOBAL__N_13putEcP6Status+0x22>
    1ea1: 65 1c        	adc	$1c                     ; 0x201c <_ZN12_GLOBAL__N_13putEcP6Status+0x15>
    1ea3: 84 1b        	sty	$1b                     ; 0x201b <_ZN12_GLOBAL__N_13putEcP6Status+0x14>
    1ea5: 84 1a        	sty	$1a                     ; 0x201a <_ZN12_GLOBAL__N_13putEcP6Status+0x13>
    1ea7: 06 1a        	asl	$1a                     ; 0x201a <_ZN12_GLOBAL__N_13putEcP6Status+0x13>
    1ea9: 2a           	rol
    1eaa: 06 1a        	asl	$1a                     ; 0x201a <_ZN12_GLOBAL__N_13putEcP6Status+0x13>
    1eac: 2a           	rol
    1ead: 06 1a        	asl	$1a                     ; 0x201a <_ZN12_GLOBAL__N_13putEcP6Status+0x13>
    1eaf: 2a           	rol
    1eb0: 85 0f        	sta	$f                      ; 0x200f <_ZN12_GLOBAL__N_13putEcP6Status+0x8>
    1eb2: a5 41        	lda	$41                     ; 0x2041 <_ZN12_GLOBAL__N_13putEcP6Status+0x3a>
    1eb4: 4a           	lsr
    1eb5: a9 00        	lda	#$0
    1eb7: 6a           	ror
    1eb8: 10 04        	bpl	$1ebe <bitmapLine+0x2f4>
    1eba: a0 ff        	ldy	#$ff
    1ebc: 80 02        	bra	$1ec0 <bitmapLine+0x2f6>
    1ebe: a0 00        	ldy	#$0
    1ec0: 0a           	asl
    1ec1: 98           	tya
    1ec2: 2a           	rol
    1ec3: a8           	tay
    1ec4: a5 1b        	lda	$1b                     ; 0x201b <_ZN12_GLOBAL__N_13putEcP6Status+0x14>
    1ec6: 09 e0        	ora	#$e0
    1ec8: 86 1a        	stx	$1a                     ; 0x201a <_ZN12_GLOBAL__N_13putEcP6Status+0x13>
    1eca: 85 1b        	sta	$1b                     ; 0x201b <_ZN12_GLOBAL__N_13putEcP6Status+0x14>
    1ecc: 98           	tya
    1ecd: 92 1a        	sta	($1a)                   ; 0x201a <_ZN12_GLOBAL__N_13putEcP6Status+0x13>
    1ecf: a6 17        	ldx	$17                     ; 0x2017 <_ZN12_GLOBAL__N_13putEcP6Status+0x10>
    1ed1: 30 1a        	bmi	$1eed <bitmapLine+0x323>
    1ed3: a5 24        	lda	$24                     ; 0x2024 <_ZN12_GLOBAL__N_13putEcP6Status+0x1d>
    1ed5: 18           	clc
    1ed6: 65 14        	adc	$14                     ; 0x2014 <_ZN12_GLOBAL__N_13putEcP6Status+0xd>
    1ed8: 85 24        	sta	$24                     ; 0x2024 <_ZN12_GLOBAL__N_13putEcP6Status+0x1d>
    1eda: a5 13        	lda	$13                     ; 0x2013 <_ZN12_GLOBAL__N_13putEcP6Status+0xc>
    1edc: 65 15        	adc	$15                     ; 0x2015 <_ZN12_GLOBAL__N_13putEcP6Status+0xe>
    1ede: 85 13        	sta	$13                     ; 0x2013 <_ZN12_GLOBAL__N_13putEcP6Status+0xc>
    1ee0: 38           	sec
    1ee1: a5 16        	lda	$16                     ; 0x2016 <_ZN12_GLOBAL__N_13putEcP6Status+0xf>
    1ee3: e5 25        	sbc	$25                     ; 0x2025 <_ZN12_GLOBAL__N_13putEcP6Status+0x1e>
    1ee5: a8           	tay
    1ee6: 8a           	txa
    1ee7: e5 26        	sbc	$26                     ; 0x2026 <_ZN12_GLOBAL__N_13putEcP6Status+0x1f>
    1ee9: aa           	tax
    1eea: 98           	tya
    1eeb: 80 02        	bra	$1eef <bitmapLine+0x325>
    1eed: a5 16        	lda	$16                     ; 0x2016 <_ZN12_GLOBAL__N_13putEcP6Status+0xf>
    1eef: 18           	clc
    1ef0: 65 18        	adc	$18                     ; 0x2018 <_ZN12_GLOBAL__N_13putEcP6Status+0x11>
    1ef2: 85 16        	sta	$16                     ; 0x2016 <_ZN12_GLOBAL__N_13putEcP6Status+0xf>
    1ef4: 8a           	txa
    1ef5: 65 19        	adc	$19                     ; 0x2019 <_ZN12_GLOBAL__N_13putEcP6Status+0x12>
    1ef7: 85 17        	sta	$17                     ; 0x2017 <_ZN12_GLOBAL__N_13putEcP6Status+0x10>
    1ef9: a5 1d        	lda	$1d                     ; 0x201d <_ZN12_GLOBAL__N_13putEcP6Status+0x16>
    1efb: 18           	clc
    1efc: 65 12        	adc	$12                     ; 0x2012 <_ZN12_GLOBAL__N_13putEcP6Status+0xb>
    1efe: 85 1a        	sta	$1a                     ; 0x201a <_ZN12_GLOBAL__N_13putEcP6Status+0x13>
    1f00: a5 1f        	lda	$1f                     ; 0x201f <_ZN12_GLOBAL__N_13putEcP6Status+0x18>
    1f02: 65 23        	adc	$23                     ; 0x2023 <_ZN12_GLOBAL__N_13putEcP6Status+0x1c>
    1f04: 85 1b        	sta	$1b                     ; 0x201b <_ZN12_GLOBAL__N_13putEcP6Status+0x14>
    1f06: a6 1a        	ldx	$1a                     ; 0x201a <_ZN12_GLOBAL__N_13putEcP6Status+0x13>
    1f08: a8           	tay
    1f09: a5 27        	lda	$27                     ; 0x2027 <_ZN12_GLOBAL__N_13putEcP6Status+0x20>
    1f0b: c5 1b        	cmp	$1b                     ; 0x201b <_ZN12_GLOBAL__N_13putEcP6Status+0x14>
    1f0d: f0 03        	beq	$1f12 <bitmapLine+0x348>
    1f0f: 4c 1e 1e     	jmp	$1e1e <bitmapLine+0x254>
    1f12: 85 22        	sta	$22                     ; 0x2022 <_ZN12_GLOBAL__N_13putEcP6Status+0x1b>
    1f14: a6 1a        	ldx	$1a                     ; 0x201a <_ZN12_GLOBAL__N_13putEcP6Status+0x13>
    1f16: a4 1b        	ldy	$1b                     ; 0x201b <_ZN12_GLOBAL__N_13putEcP6Status+0x14>
    1f18: a5 28        	lda	$28                     ; 0x2028 <_ZN12_GLOBAL__N_13putEcP6Status+0x21>
    1f1a: c5 1a        	cmp	$1a                     ; 0x201a <_ZN12_GLOBAL__N_13putEcP6Status+0x13>
    1f1c: f0 03        	beq	$1f21 <bitmapLine+0x357>
    1f1e: 4c 1e 1e     	jmp	$1e1e <bitmapLine+0x254>
    1f21: a6 24        	ldx	$24                     ; 0x2024 <_ZN12_GLOBAL__N_13putEcP6Status+0x1d>
    1f23: 86 16        	stx	$16                     ; 0x2016 <_ZN12_GLOBAL__N_13putEcP6Status+0xf>
    1f25: a6 13        	ldx	$13                     ; 0x2013 <_ZN12_GLOBAL__N_13putEcP6Status+0xc>
    1f27: 86 17        	stx	$17                     ; 0x2017 <_ZN12_GLOBAL__N_13putEcP6Status+0x10>
    1f29: a6 28        	ldx	$28                     ; 0x2028 <_ZN12_GLOBAL__N_13putEcP6Status+0x21>
    1f2b: 86 15        	stx	$15                     ; 0x2015 <_ZN12_GLOBAL__N_13putEcP6Status+0xe>
    1f2d: a2 01        	ldx	#$1
    1f2f: 8a           	txa
    1f30: 25 40        	and	$40                     ; 0x2040 <_ZN12_GLOBAL__N_13putEcP6Status+0x39>
    1f32: 0a           	asl
    1f33: 0a           	asl
    1f34: a8           	tay
    1f35: b9 34 00     	lda	$34,y                   ; 0x34 <_BITMAP_BASE>
    1f38: 85 12        	sta	$12                     ; 0x2012 <_ZN12_GLOBAL__N_13putEcP6Status+0xb>
    1f3a: b9 35 00     	lda	$35,y                   ; 0x35 <_BITMAP_BASE+0x1>
    1f3d: 85 13        	sta	$13                     ; 0x2013 <_ZN12_GLOBAL__N_13putEcP6Status+0xc>
    1f3f: b9 36 00     	lda	$36,y                   ; 0x36 <_BITMAP_BASE+0x2>
    1f42: a8           	tay
    1f43: 84 14        	sty	$14                     ; 0x2014 <_ZN12_GLOBAL__N_13putEcP6Status+0xd>
    1f45: a5 42        	lda	$42                     ; 0x2042 <_ZN12_GLOBAL__N_13putEcP6Status+0x3b>
    1f47: 29 01        	and	#$1
    1f49: a0 40        	ldy	#$40
    1f4b: c9 00        	cmp	#$0
    1f4d: d0 04        	bne	$1f53 <bitmapLine+0x389>
    1f4f: a0 00        	ldy	#$0
    1f51: a2 00        	ldx	#$0
    1f53: a5 16        	lda	$16                     ; 0x2016 <_ZN12_GLOBAL__N_13putEcP6Status+0xf>
    1f55: 8d 00 de     	sta	$de00                   ; 0xde00 <end_block9+0xa6b6>
    1f58: a5 17        	lda	$17                     ; 0x2017 <_ZN12_GLOBAL__N_13putEcP6Status+0x10>
    1f5a: 8d 01 de     	sta	$de01                   ; 0xde01 <end_block9+0xa6b7>
    1f5d: 8c 02 de     	sty	$de02                   ; 0xde02 <end_block9+0xa6b8>
    1f60: 8e 03 de     	stx	$de03                   ; 0xde03 <end_block9+0xa6b9>
    1f63: ae 10 de     	ldx	$de10                   ; 0xde10 <end_block9+0xa6c6>
    1f66: ac 11 de     	ldy	$de11                   ; 0xde11 <end_block9+0xa6c7>
    1f69: 84 17        	sty	$17                     ; 0x2017 <_ZN12_GLOBAL__N_13putEcP6Status+0x10>
    1f6b: ad 12 de     	lda	$de12                   ; 0xde12 <end_block9+0xa6c8>
    1f6e: ac 13 de     	ldy	$de13                   ; 0xde13 <end_block9+0xa6c9>
    1f71: 8e 08 de     	stx	$de08                   ; 0xde08 <end_block9+0xa6be>
    1f74: a6 17        	ldx	$17                     ; 0x2017 <_ZN12_GLOBAL__N_13putEcP6Status+0x10>
    1f76: 8e 09 de     	stx	$de09                   ; 0xde09 <end_block9+0xa6bf>
    1f79: 8d 0a de     	sta	$de0a                   ; 0xde0a <end_block9+0xa6c0>
    1f7c: 8c 0b de     	sty	$de0b                   ; 0xde0b <end_block9+0xa6c1>
    1f7f: a6 15        	ldx	$15                     ; 0x2015 <_ZN12_GLOBAL__N_13putEcP6Status+0xe>
    1f81: 8e 0c de     	stx	$de0c                   ; 0xde0c <end_block9+0xa6c2>
    1f84: a6 22        	ldx	$22                     ; 0x2022 <_ZN12_GLOBAL__N_13putEcP6Status+0x1b>
    1f86: 8e 0d de     	stx	$de0d                   ; 0xde0d <end_block9+0xa6c3>
    1f89: 9c 0e de     	stz	$de0e                   ; 0xde0e <end_block9+0xa6c4>
    1f8c: 9c 0f de     	stz	$de0f                   ; 0xde0f <end_block9+0xa6c5>
    1f8f: ad 18 de     	lda	$de18                   ; 0xde18 <end_block9+0xa6ce>
    1f92: ae 19 de     	ldx	$de19                   ; 0xde19 <end_block9+0xa6cf>
    1f95: 86 15        	stx	$15                     ; 0x2015 <_ZN12_GLOBAL__N_13putEcP6Status+0xe>
    1f97: ae 1a de     	ldx	$de1a                   ; 0xde1a <end_block9+0xa6d0>
    1f9a: 86 16        	stx	$16                     ; 0x2016 <_ZN12_GLOBAL__N_13putEcP6Status+0xf>
    1f9c: ae 1b de     	ldx	$de1b                   ; 0xde1b <end_block9+0xa6d1>
    1f9f: 18           	clc
    1fa0: 65 12        	adc	$12                     ; 0x2012 <_ZN12_GLOBAL__N_13putEcP6Status+0xb>
    1fa2: aa           	tax
    1fa3: a5 15        	lda	$15                     ; 0x2015 <_ZN12_GLOBAL__N_13putEcP6Status+0xe>
    1fa5: 65 13        	adc	$13                     ; 0x2013 <_ZN12_GLOBAL__N_13putEcP6Status+0xc>
    1fa7: a8           	tay
    1fa8: a5 16        	lda	$16                     ; 0x2016 <_ZN12_GLOBAL__N_13putEcP6Status+0xf>
    1faa: 65 14        	adc	$14                     ; 0x2014 <_ZN12_GLOBAL__N_13putEcP6Status+0xd>
    1fac: 84 13        	sty	$13                     ; 0x2013 <_ZN12_GLOBAL__N_13putEcP6Status+0xc>
    1fae: 84 12        	sty	$12                     ; 0x2012 <_ZN12_GLOBAL__N_13putEcP6Status+0xb>
    1fb0: 06 12        	asl	$12                     ; 0x2012 <_ZN12_GLOBAL__N_13putEcP6Status+0xb>
    1fb2: 2a           	rol
    1fb3: 06 12        	asl	$12                     ; 0x2012 <_ZN12_GLOBAL__N_13putEcP6Status+0xb>
    1fb5: 2a           	rol
    1fb6: 06 12        	asl	$12                     ; 0x2012 <_ZN12_GLOBAL__N_13putEcP6Status+0xb>
    1fb8: 2a           	rol
    1fb9: 85 0f        	sta	$f                      ; 0x200f <_ZN12_GLOBAL__N_13putEcP6Status+0x8>
    1fbb: a5 41        	lda	$41                     ; 0x2041 <_ZN12_GLOBAL__N_13putEcP6Status+0x3a>
    1fbd: 4a           	lsr
    1fbe: a9 00        	lda	#$0
    1fc0: 6a           	ror
    1fc1: 10 04        	bpl	$1fc7 <bitmapLine+0x3fd>
    1fc3: a0 ff        	ldy	#$ff
    1fc5: 80 02        	bra	$1fc9 <bitmapLine+0x3ff>
    1fc7: a0 00        	ldy	#$0
    1fc9: 0a           	asl
    1fca: 98           	tya
    1fcb: 2a           	rol
    1fcc: a8           	tay
    1fcd: a5 13        	lda	$13                     ; 0x2013 <_ZN12_GLOBAL__N_13putEcP6Status+0xc>
    1fcf: 09 e0        	ora	#$e0
    1fd1: 86 12        	stx	$12                     ; 0x2012 <_ZN12_GLOBAL__N_13putEcP6Status+0xb>
    1fd3: 85 13        	sta	$13                     ; 0x2013 <_ZN12_GLOBAL__N_13putEcP6Status+0xc>
    1fd5: 98           	tya
    1fd6: 92 12        	sta	($12)                   ; 0x2012 <_ZN12_GLOBAL__N_13putEcP6Status+0xb>
    1fd8: a6 1e        	ldx	$1e                     ; 0x201e <_ZN12_GLOBAL__N_13putEcP6Status+0x17>
    1fda: 86 0f        	stx	$f                      ; 0x200f <_ZN12_GLOBAL__N_13putEcP6Status+0x8>
    1fdc: 58           	cli
    1fdd: a0 00        	ldy	#$0
    1fdf: b1 10        	lda	($10),y                 ; 0x2010 <_ZN12_GLOBAL__N_13putEcP6Status+0x9>
    1fe1: 85 29        	sta	$29                     ; 0x2029 <_ZN12_GLOBAL__N_13putEcP6Status+0x22>
    1fe3: c8           	iny
    1fe4: b1 10        	lda	($10),y                 ; 0x2010 <_ZN12_GLOBAL__N_13putEcP6Status+0x9>
    1fe6: 85 28        	sta	$28                     ; 0x2028 <_ZN12_GLOBAL__N_13putEcP6Status+0x21>
    1fe8: fa           	plx
    1fe9: 86 27        	stx	$27                     ; 0x2027 <_ZN12_GLOBAL__N_13putEcP6Status+0x20>
    1feb: fa           	plx
    1fec: 86 26        	stx	$26                     ; 0x2026 <_ZN12_GLOBAL__N_13putEcP6Status+0x1f>
    1fee: fa           	plx
    1fef: 86 25        	stx	$25                     ; 0x2025 <_ZN12_GLOBAL__N_13putEcP6Status+0x1e>
    1ff1: fa           	plx
    1ff2: 86 24        	stx	$24                     ; 0x2024 <_ZN12_GLOBAL__N_13putEcP6Status+0x1d>
    1ff4: 18           	clc
    1ff5: a5 10        	lda	$10                     ; 0x2010 <_ZN12_GLOBAL__N_13putEcP6Status+0x9>
    1ff7: 69 02        	adc	#$2
    1ff9: 85 10        	sta	$10                     ; 0x2010 <_ZN12_GLOBAL__N_13putEcP6Status+0x9>
    1ffb: a5 11        	lda	$11                     ; 0x2011 <_ZN12_GLOBAL__N_13putEcP6Status+0xa>
    1ffd: 69 00        	adc	#$0
    1fff: 85 11        	sta	$11                     ; 0x2011 <_ZN12_GLOBAL__N_13putEcP6Status+0xa>
    2001: 60           	rts

00002002 <exit>:
    2002: 20 19 03     	jsr	$319 <_fini>
    2005: 80 fe        	bra	$2005 <exit+0x3>

00002007 <_ZN12_GLOBAL__N_13putEcP6Status>:
    2007: 85 18        	sta	$18                     ; 0x2018 <_ZN12_GLOBAL__N_13putEcP6Status+0x11>
    2009: a6 13        	ldx	$13                     ; 0x2013 <_ZN12_GLOBAL__N_13putEcP6Status+0xc>
    200b: 18           	clc
    200c: a5 12        	lda	$12                     ; 0x2012 <_ZN12_GLOBAL__N_13putEcP6Status+0xb>
    200e: 69 05        	adc	#$5
    2010: a8           	tay
    2011: a5 13        	lda	$13                     ; 0x2013 <_ZN12_GLOBAL__N_13putEcP6Status+0xc>
    2013: 86 15        	stx	$15                     ; 0x2015 <_ZN12_GLOBAL__N_13putEcP6Status+0xe>
    2015: 69 00        	adc	#$0
    2017: 18           	clc
    2018: 84 16        	sty	$16                     ; 0x2016 <_ZN12_GLOBAL__N_13putEcP6Status+0xf>
    201a: a0 05        	ldy	#$5
    201c: 85 17        	sta	$17                     ; 0x2017 <_ZN12_GLOBAL__N_13putEcP6Status+0x10>
    201e: b1 12        	lda	($12),y                 ; 0x2012 <_ZN12_GLOBAL__N_13putEcP6Status+0xb>
    2020: aa           	tax
    2021: a5 12        	lda	$12                     ; 0x2012 <_ZN12_GLOBAL__N_13putEcP6Status+0xb>
    2023: 69 03        	adc	#$3
    2025: 85 14        	sta	$14                     ; 0x2014 <_ZN12_GLOBAL__N_13putEcP6Status+0xd>
    2027: a5 15        	lda	$15                     ; 0x2015 <_ZN12_GLOBAL__N_13putEcP6Status+0xe>
    2029: 69 00        	adc	#$0
    202b: 85 15        	sta	$15                     ; 0x2015 <_ZN12_GLOBAL__N_13putEcP6Status+0xe>
    202d: a0 01        	ldy	#$1
    202f: b1 16        	lda	($16),y                 ; 0x2016 <_ZN12_GLOBAL__N_13putEcP6Status+0xf>
    2031: d1 14        	cmp	($14),y                 ; 0x2014 <_ZN12_GLOBAL__N_13putEcP6Status+0xd>
    2033: d0 11        	bne	$2046 <_ZN12_GLOBAL__N_13putEcP6Status+0x3f>
    2035: a0 03        	ldy	#$3
    2037: 85 17        	sta	$17                     ; 0x2017 <_ZN12_GLOBAL__N_13putEcP6Status+0x10>
    2039: b1 12        	lda	($12),y                 ; 0x2012 <_ZN12_GLOBAL__N_13putEcP6Status+0xb>
    203b: 85 14        	sta	$14                     ; 0x2014 <_ZN12_GLOBAL__N_13putEcP6Status+0xd>
    203d: 86 16        	stx	$16                     ; 0x2016 <_ZN12_GLOBAL__N_13putEcP6Status+0xf>
    203f: e4 14        	cpx	$14                     ; 0x2014 <_ZN12_GLOBAL__N_13putEcP6Status+0xd>
    2041: 90 0e        	bcc	$2051 <_ZN12_GLOBAL__N_13putEcP6Status+0x4a>
    2043: 4c b2 20     	jmp	$20b2 <_ZN12_GLOBAL__N_13putEcP6Status+0xab>
    2046: 86 16        	stx	$16                     ; 0x2016 <_ZN12_GLOBAL__N_13putEcP6Status+0xf>
    2048: d1 14        	cmp	($14),y                 ; 0x2014 <_ZN12_GLOBAL__N_13putEcP6Status+0xd>
    204a: 85 17        	sta	$17                     ; 0x2017 <_ZN12_GLOBAL__N_13putEcP6Status+0x10>
    204c: 90 03        	bcc	$2051 <_ZN12_GLOBAL__N_13putEcP6Status+0x4a>
    204e: 4c b2 20     	jmp	$20b2 <_ZN12_GLOBAL__N_13putEcP6Status+0xab>
    2051: a5 12        	lda	$12                     ; 0x2012 <_ZN12_GLOBAL__N_13putEcP6Status+0xb>
    2053: 18           	clc
    2054: 69 0f        	adc	#$f
    2056: 85 14        	sta	$14                     ; 0x2014 <_ZN12_GLOBAL__N_13putEcP6Status+0xd>
    2058: a5 13        	lda	$13                     ; 0x2013 <_ZN12_GLOBAL__N_13putEcP6Status+0xc>
    205a: 69 00        	adc	#$0
    205c: 85 15        	sta	$15                     ; 0x2015 <_ZN12_GLOBAL__N_13putEcP6Status+0xe>
    205e: a0 01        	ldy	#$1
    2060: b1 14        	lda	($14),y                 ; 0x2014 <_ZN12_GLOBAL__N_13putEcP6Status+0xd>
    2062: a2 00        	ldx	#$0
    2064: 86 14        	stx	$14                     ; 0x2014 <_ZN12_GLOBAL__N_13putEcP6Status+0xd>
    2066: a2 00        	ldx	#$0
    2068: 86 15        	stx	$15                     ; 0x2015 <_ZN12_GLOBAL__N_13putEcP6Status+0xe>
    206a: c5 15        	cmp	$15                     ; 0x2015 <_ZN12_GLOBAL__N_13putEcP6Status+0xe>
    206c: d0 2d        	bne	$209b <_ZN12_GLOBAL__N_13putEcP6Status+0x94>
    206e: a0 0f        	ldy	#$f
    2070: b1 12        	lda	($12),y                 ; 0x2012 <_ZN12_GLOBAL__N_13putEcP6Status+0xb>
    2072: c5 14        	cmp	$14                     ; 0x2014 <_ZN12_GLOBAL__N_13putEcP6Status+0xd>
    2074: d0 25        	bne	$209b <_ZN12_GLOBAL__N_13putEcP6Status+0x94>
    2076: a5 12        	lda	$12                     ; 0x2012 <_ZN12_GLOBAL__N_13putEcP6Status+0xb>
    2078: 18           	clc
    2079: 69 09        	adc	#$9
    207b: 85 14        	sta	$14                     ; 0x2014 <_ZN12_GLOBAL__N_13putEcP6Status+0xd>
    207d: a5 13        	lda	$13                     ; 0x2013 <_ZN12_GLOBAL__N_13putEcP6Status+0xc>
    207f: 69 00        	adc	#$0
    2081: a0 09        	ldy	#$9
    2083: 85 15        	sta	$15                     ; 0x2015 <_ZN12_GLOBAL__N_13putEcP6Status+0xe>
    2085: 18           	clc
    2086: a5 16        	lda	$16                     ; 0x2016 <_ZN12_GLOBAL__N_13putEcP6Status+0xf>
    2088: 71 12        	adc	($12),y                 ; 0x2012 <_ZN12_GLOBAL__N_13putEcP6Status+0xb>
    208a: aa           	tax
    208b: a0 01        	ldy	#$1
    208d: a5 17        	lda	$17                     ; 0x2017 <_ZN12_GLOBAL__N_13putEcP6Status+0x10>
    208f: 71 14        	adc	($14),y                 ; 0x2014 <_ZN12_GLOBAL__N_13putEcP6Status+0xd>
    2091: 86 14        	stx	$14                     ; 0x2014 <_ZN12_GLOBAL__N_13putEcP6Status+0xd>
    2093: 85 15        	sta	$15                     ; 0x2015 <_ZN12_GLOBAL__N_13putEcP6Status+0xe>
    2095: a5 18        	lda	$18                     ; 0x2018 <_ZN12_GLOBAL__N_13putEcP6Status+0x11>
    2097: 92 14        	sta	($14)                   ; 0x2014 <_ZN12_GLOBAL__N_13putEcP6Status+0xd>
    2099: 80 17        	bra	$20b2 <_ZN12_GLOBAL__N_13putEcP6Status+0xab>
    209b: a6 12        	ldx	$12                     ; 0x2012 <_ZN12_GLOBAL__N_13putEcP6Status+0xb>
    209d: 86 ec        	stx	$ec                     ; 0x20ec <_ZN12_GLOBAL__N_112print_stringEPKcP6Status+0x12>
    209f: a6 13        	ldx	$13                     ; 0x2013 <_ZN12_GLOBAL__N_13putEcP6Status+0xc>
    20a1: 86 ed        	stx	$ed                     ; 0x20ed <_ZN12_GLOBAL__N_112print_stringEPKcP6Status+0x13>
    20a3: a2 00        	ldx	#$0
    20a5: a5 18        	lda	$18                     ; 0x2018 <_ZN12_GLOBAL__N_13putEcP6Status+0x11>
    20a7: 20 bf 2d     	jsr	$2dbf <putchar>
    20aa: a6 ec        	ldx	$ec                     ; 0x20ec <_ZN12_GLOBAL__N_112print_stringEPKcP6Status+0x12>
    20ac: 86 12        	stx	$12                     ; 0x2012 <_ZN12_GLOBAL__N_13putEcP6Status+0xb>
    20ae: a6 ed        	ldx	$ed                     ; 0x20ed <_ZN12_GLOBAL__N_112print_stringEPKcP6Status+0x13>
    20b0: 86 13        	stx	$13                     ; 0x2013 <_ZN12_GLOBAL__N_13putEcP6Status+0xc>
    20b2: a0 05        	ldy	#$5
    20b4: a5 12        	lda	$12                     ; 0x2012 <_ZN12_GLOBAL__N_13putEcP6Status+0xb>
    20b6: 18           	clc
    20b7: 69 05        	adc	#$5
    20b9: 85 14        	sta	$14                     ; 0x2014 <_ZN12_GLOBAL__N_13putEcP6Status+0xd>
    20bb: a5 13        	lda	$13                     ; 0x2013 <_ZN12_GLOBAL__N_13putEcP6Status+0xc>
    20bd: 69 00        	adc	#$0
    20bf: 85 15        	sta	$15                     ; 0x2015 <_ZN12_GLOBAL__N_13putEcP6Status+0xe>
    20c1: b1 12        	lda	($12),y                 ; 0x2012 <_ZN12_GLOBAL__N_13putEcP6Status+0xb>
    20c3: aa           	tax
    20c4: a0 01        	ldy	#$1
    20c6: b1 14        	lda	($14),y                 ; 0x2014 <_ZN12_GLOBAL__N_13putEcP6Status+0xd>
    20c8: e8           	inx
    20c9: d0 01        	bne	$20cc <_ZN12_GLOBAL__N_13putEcP6Status+0xc5>
    20cb: 1a           	inc
    20cc: 85 16        	sta	$16                     ; 0x2016 <_ZN12_GLOBAL__N_13putEcP6Status+0xf>
    20ce: 8a           	txa
    20cf: a0 05        	ldy	#$5
    20d1: 91 12        	sta	($12),y                 ; 0x2012 <_ZN12_GLOBAL__N_13putEcP6Status+0xb>
    20d3: a0 01        	ldy	#$1
    20d5: a5 16        	lda	$16                     ; 0x2016 <_ZN12_GLOBAL__N_13putEcP6Status+0xf>
    20d7: 91 14        	sta	($14),y                 ; 0x2014 <_ZN12_GLOBAL__N_13putEcP6Status+0xd>
    20d9: 60           	rts

000020da <_ZN12_GLOBAL__N_112print_stringEPKcP6Status>:
    20da: a6 12        	ldx	$12                     ; 0x2012 <_ZN12_GLOBAL__N_13putEcP6Status+0xb>
    20dc: 86 e4        	stx	$e4                     ; 0x20e4 <_ZN12_GLOBAL__N_112print_stringEPKcP6Status+0xa>
    20de: a6 13        	ldx	$13                     ; 0x2013 <_ZN12_GLOBAL__N_13putEcP6Status+0xc>
    20e0: 86 e5        	stx	$e5                     ; 0x20e5 <_ZN12_GLOBAL__N_112print_stringEPKcP6Status+0xb>
    20e2: a6 14        	ldx	$14                     ; 0x2014 <_ZN12_GLOBAL__N_13putEcP6Status+0xd>
    20e4: 86 e6        	stx	$e6                     ; 0x20e6 <_ZN12_GLOBAL__N_112print_stringEPKcP6Status+0xc>
    20e6: a6 15        	ldx	$15                     ; 0x2015 <_ZN12_GLOBAL__N_13putEcP6Status+0xe>
    20e8: 86 e7        	stx	$e7                     ; 0x20e7 <_ZN12_GLOBAL__N_112print_stringEPKcP6Status+0xd>
    20ea: a5 e6        	lda	$e6                     ; 0x20e6 <_ZN12_GLOBAL__N_112print_stringEPKcP6Status+0xc>
    20ec: 18           	clc
    20ed: 69 0d        	adc	#$d
    20ef: 85 12        	sta	$12                     ; 0x2012 <_ZN12_GLOBAL__N_13putEcP6Status+0xb>
    20f1: a5 e7        	lda	$e7                     ; 0x20e7 <_ZN12_GLOBAL__N_112print_stringEPKcP6Status+0xd>
    20f3: 69 00        	adc	#$0
    20f5: 85 13        	sta	$13                     ; 0x2013 <_ZN12_GLOBAL__N_13putEcP6Status+0xc>
    20f7: a0 01        	ldy	#$1
    20f9: b1 12        	lda	($12),y                 ; 0x2012 <_ZN12_GLOBAL__N_13putEcP6Status+0xb>
    20fb: 30 16        	bmi	$2113 <_ZN12_GLOBAL__N_112print_stringEPKcP6Status+0x39>
    20fd: a0 0d        	ldy	#$d
    20ff: 85 12        	sta	$12                     ; 0x2012 <_ZN12_GLOBAL__N_13putEcP6Status+0xb>
    2101: b1 e6        	lda	($e6),y                 ; 0x20e6 <_ZN12_GLOBAL__N_112print_stringEPKcP6Status+0xc>
    2103: a6 12        	ldx	$12                     ; 0x2012 <_ZN12_GLOBAL__N_13putEcP6Status+0xb>
    2105: 86 eb        	stx	$eb                     ; 0x20eb <_ZN12_GLOBAL__N_112print_stringEPKcP6Status+0x11>
    2107: d0 0f        	bne	$2118 <_ZN12_GLOBAL__N_112print_stringEPKcP6Status+0x3e>
    2109: aa           	tax
    210a: d0 0c        	bne	$2118 <_ZN12_GLOBAL__N_112print_stringEPKcP6Status+0x3e>
    210c: 64 e8        	stz	$e8                     ; 0x20e8 <_ZN12_GLOBAL__N_112print_stringEPKcP6Status+0xe>
    210e: a2 00        	ldx	#$0
    2110: 4c e1 21     	jmp	$21e1 <_ZN12_GLOBAL__N_112print_stringEPKcP6Status+0x107>
    2113: a9 ff        	lda	#$ff
    2115: aa           	tax
    2116: 86 eb        	stx	$eb                     ; 0x20eb <_ZN12_GLOBAL__N_112print_stringEPKcP6Status+0x11>
    2118: 85 e8        	sta	$e8                     ; 0x20e8 <_ZN12_GLOBAL__N_112print_stringEPKcP6Status+0xe>
    211a: 64 12        	stz	$12                     ; 0x2012 <_ZN12_GLOBAL__N_13putEcP6Status+0xb>
    211c: a4 e4        	ldy	$e4                     ; 0x20e4 <_ZN12_GLOBAL__N_112print_stringEPKcP6Status+0xa>
    211e: a6 e5        	ldx	$e5                     ; 0x20e5 <_ZN12_GLOBAL__N_112print_stringEPKcP6Status+0xb>
    2120: 86 16        	stx	$16                     ; 0x2016 <_ZN12_GLOBAL__N_13putEcP6Status+0xf>
    2122: 64 13        	stz	$13                     ; 0x2013 <_ZN12_GLOBAL__N_13putEcP6Status+0xc>
    2124: 98           	tya
    2125: 18           	clc
    2126: 65 12        	adc	$12                     ; 0x2012 <_ZN12_GLOBAL__N_13putEcP6Status+0xb>
    2128: 85 14        	sta	$14                     ; 0x2014 <_ZN12_GLOBAL__N_13putEcP6Status+0xd>
    212a: a5 e5        	lda	$e5                     ; 0x20e5 <_ZN12_GLOBAL__N_112print_stringEPKcP6Status+0xb>
    212c: 65 13        	adc	$13                     ; 0x2013 <_ZN12_GLOBAL__N_13putEcP6Status+0xc>
    212e: 85 15        	sta	$15                     ; 0x2015 <_ZN12_GLOBAL__N_13putEcP6Status+0xe>
    2130: b2 14        	lda	($14)                   ; 0x2014 <_ZN12_GLOBAL__N_13putEcP6Status+0xd>
    2132: d0 03        	bne	$2137 <_ZN12_GLOBAL__N_112print_stringEPKcP6Status+0x5d>
    2134: 4c db 21     	jmp	$21db <_ZN12_GLOBAL__N_112print_stringEPKcP6Status+0x101>
    2137: e6 12        	inc	$12                     ; 0x2012 <_ZN12_GLOBAL__N_13putEcP6Status+0xb>
    2139: d0 02        	bne	$213d <_ZN12_GLOBAL__N_112print_stringEPKcP6Status+0x63>
    213b: e6 13        	inc	$13                     ; 0x2013 <_ZN12_GLOBAL__N_13putEcP6Status+0xc>
    213d: a6 eb        	ldx	$eb                     ; 0x20eb <_ZN12_GLOBAL__N_112print_stringEPKcP6Status+0x11>
    213f: e4 13        	cpx	$13                     ; 0x2013 <_ZN12_GLOBAL__N_13putEcP6Status+0xc>
    2141: d0 e1        	bne	$2124 <_ZN12_GLOBAL__N_112print_stringEPKcP6Status+0x4a>
    2143: a6 e8        	ldx	$e8                     ; 0x20e8 <_ZN12_GLOBAL__N_112print_stringEPKcP6Status+0xe>
    2145: e4 12        	cpx	$12                     ; 0x2012 <_ZN12_GLOBAL__N_13putEcP6Status+0xb>
    2147: d0 db        	bne	$2124 <_ZN12_GLOBAL__N_112print_stringEPKcP6Status+0x4a>
    2149: a0 01        	ldy	#$1
    214b: b1 e6        	lda	($e6),y                 ; 0x20e6 <_ZN12_GLOBAL__N_112print_stringEPKcP6Status+0xc>
    214d: 29 01        	and	#$1
    214f: f0 03        	beq	$2154 <_ZN12_GLOBAL__N_112print_stringEPKcP6Status+0x7a>
    2151: 4c ac 21     	jmp	$21ac <_ZN12_GLOBAL__N_112print_stringEPKcP6Status+0xd2>
    2154: a5 e6        	lda	$e6                     ; 0x20e6 <_ZN12_GLOBAL__N_112print_stringEPKcP6Status+0xc>
    2156: 18           	clc
    2157: 69 0b        	adc	#$b
    2159: 85 14        	sta	$14                     ; 0x2014 <_ZN12_GLOBAL__N_13putEcP6Status+0xd>
    215b: a5 e7        	lda	$e7                     ; 0x20e7 <_ZN12_GLOBAL__N_112print_stringEPKcP6Status+0xd>
    215d: 69 00        	adc	#$0
    215f: 85 15        	sta	$15                     ; 0x2015 <_ZN12_GLOBAL__N_13putEcP6Status+0xe>
    2161: a0 0b        	ldy	#$b
    2163: b1 e6        	lda	($e6),y                 ; 0x20e6 <_ZN12_GLOBAL__N_112print_stringEPKcP6Status+0xc>
    2165: 85 13        	sta	$13                     ; 0x2013 <_ZN12_GLOBAL__N_13putEcP6Status+0xc>
    2167: a0 01        	ldy	#$1
    2169: b1 14        	lda	($14),y                 ; 0x2014 <_ZN12_GLOBAL__N_13putEcP6Status+0xd>
    216b: 85 12        	sta	$12                     ; 0x2012 <_ZN12_GLOBAL__N_13putEcP6Status+0xb>
    216d: a6 eb        	ldx	$eb                     ; 0x20eb <_ZN12_GLOBAL__N_112print_stringEPKcP6Status+0x11>
    216f: e4 12        	cpx	$12                     ; 0x2012 <_ZN12_GLOBAL__N_13putEcP6Status+0xb>
    2171: d0 08        	bne	$217b <_ZN12_GLOBAL__N_112print_stringEPKcP6Status+0xa1>
    2173: a6 e8        	ldx	$e8                     ; 0x20e8 <_ZN12_GLOBAL__N_112print_stringEPKcP6Status+0xe>
    2175: e4 13        	cpx	$13                     ; 0x2013 <_ZN12_GLOBAL__N_13putEcP6Status+0xc>
    2177: 90 06        	bcc	$217f <_ZN12_GLOBAL__N_112print_stringEPKcP6Status+0xa5>
    2179: 80 31        	bra	$21ac <_ZN12_GLOBAL__N_112print_stringEPKcP6Status+0xd2>
    217b: e4 12        	cpx	$12                     ; 0x2012 <_ZN12_GLOBAL__N_13putEcP6Status+0xb>
    217d: b0 2d        	bcs	$21ac <_ZN12_GLOBAL__N_112print_stringEPKcP6Status+0xd2>
    217f: 38           	sec
    2180: a5 e8        	lda	$e8                     ; 0x20e8 <_ZN12_GLOBAL__N_112print_stringEPKcP6Status+0xe>
    2182: e5 13        	sbc	$13                     ; 0x2013 <_ZN12_GLOBAL__N_13putEcP6Status+0xc>
    2184: a8           	tay
    2185: a5 eb        	lda	$eb                     ; 0x20eb <_ZN12_GLOBAL__N_112print_stringEPKcP6Status+0x11>
    2187: e5 12        	sbc	$12                     ; 0x2012 <_ZN12_GLOBAL__N_13putEcP6Status+0xb>
    2189: 85 ea        	sta	$ea                     ; 0x20ea <_ZN12_GLOBAL__N_112print_stringEPKcP6Status+0x10>
    218b: a6 e6        	ldx	$e6                     ; 0x20e6 <_ZN12_GLOBAL__N_112print_stringEPKcP6Status+0xc>
    218d: 86 12        	stx	$12                     ; 0x2012 <_ZN12_GLOBAL__N_13putEcP6Status+0xb>
    218f: a6 e7        	ldx	$e7                     ; 0x20e7 <_ZN12_GLOBAL__N_112print_stringEPKcP6Status+0xd>
    2191: 86 13        	stx	$13                     ; 0x2013 <_ZN12_GLOBAL__N_13putEcP6Status+0xc>
    2193: 84 e9        	sty	$e9                     ; 0x20e9 <_ZN12_GLOBAL__N_112print_stringEPKcP6Status+0xf>
    2195: a9 20        	lda	#$20
    2197: 20 07 20     	jsr	$2007 <_ZN12_GLOBAL__N_13putEcP6Status>
    219a: a6 ea        	ldx	$ea                     ; 0x20ea <_ZN12_GLOBAL__N_112print_stringEPKcP6Status+0x10>
    219c: e6 e9        	inc	$e9                     ; 0x20e9 <_ZN12_GLOBAL__N_112print_stringEPKcP6Status+0xf>
    219e: d0 01        	bne	$21a1 <_ZN12_GLOBAL__N_112print_stringEPKcP6Status+0xc7>
    21a0: e8           	inx
    21a1: 86 ea        	stx	$ea                     ; 0x20ea <_ZN12_GLOBAL__N_112print_stringEPKcP6Status+0x10>
    21a3: a4 e9        	ldy	$e9                     ; 0x20e9 <_ZN12_GLOBAL__N_112print_stringEPKcP6Status+0xf>
    21a5: 8a           	txa
    21a6: d0 e3        	bne	$218b <_ZN12_GLOBAL__N_112print_stringEPKcP6Status+0xb1>
    21a8: a5 e9        	lda	$e9                     ; 0x20e9 <_ZN12_GLOBAL__N_112print_stringEPKcP6Status+0xf>
    21aa: d0 df        	bne	$218b <_ZN12_GLOBAL__N_112print_stringEPKcP6Status+0xb1>
    21ac: a4 eb        	ldy	$eb                     ; 0x20eb <_ZN12_GLOBAL__N_112print_stringEPKcP6Status+0x11>
    21ae: d0 04        	bne	$21b4 <_ZN12_GLOBAL__N_112print_stringEPKcP6Status+0xda>
    21b0: a5 e8        	lda	$e8                     ; 0x20e8 <_ZN12_GLOBAL__N_112print_stringEPKcP6Status+0xe>
    21b2: f0 26        	beq	$21da <_ZN12_GLOBAL__N_112print_stringEPKcP6Status+0x100>
    21b4: a2 ff        	ldx	#$ff
    21b6: c6 e8        	dec	$e8                     ; 0x20e8 <_ZN12_GLOBAL__N_112print_stringEPKcP6Status+0xe>
    21b8: e4 e8        	cpx	$e8                     ; 0x20e8 <_ZN12_GLOBAL__N_112print_stringEPKcP6Status+0xe>
    21ba: d0 01        	bne	$21bd <_ZN12_GLOBAL__N_112print_stringEPKcP6Status+0xe3>
    21bc: 88           	dey
    21bd: 84 e9        	sty	$e9                     ; 0x20e9 <_ZN12_GLOBAL__N_112print_stringEPKcP6Status+0xf>
    21bf: b2 e4        	lda	($e4)                   ; 0x20e4 <_ZN12_GLOBAL__N_112print_stringEPKcP6Status+0xa>
    21c1: e6 e4        	inc	$e4                     ; 0x20e4 <_ZN12_GLOBAL__N_112print_stringEPKcP6Status+0xa>
    21c3: d0 02        	bne	$21c7 <_ZN12_GLOBAL__N_112print_stringEPKcP6Status+0xed>
    21c5: e6 e5        	inc	$e5                     ; 0x20e5 <_ZN12_GLOBAL__N_112print_stringEPKcP6Status+0xb>
    21c7: a6 e6        	ldx	$e6                     ; 0x20e6 <_ZN12_GLOBAL__N_112print_stringEPKcP6Status+0xc>
    21c9: 86 12        	stx	$12                     ; 0x2012 <_ZN12_GLOBAL__N_13putEcP6Status+0xb>
    21cb: a6 e7        	ldx	$e7                     ; 0x20e7 <_ZN12_GLOBAL__N_112print_stringEPKcP6Status+0xd>
    21cd: 86 13        	stx	$13                     ; 0x2013 <_ZN12_GLOBAL__N_13putEcP6Status+0xc>
    21cf: 20 07 20     	jsr	$2007 <_ZN12_GLOBAL__N_13putEcP6Status>
    21d2: a4 e9        	ldy	$e9                     ; 0x20e9 <_ZN12_GLOBAL__N_112print_stringEPKcP6Status+0xf>
    21d4: d0 de        	bne	$21b4 <_ZN12_GLOBAL__N_112print_stringEPKcP6Status+0xda>
    21d6: a5 e8        	lda	$e8                     ; 0x20e8 <_ZN12_GLOBAL__N_112print_stringEPKcP6Status+0xe>
    21d8: d0 da        	bne	$21b4 <_ZN12_GLOBAL__N_112print_stringEPKcP6Status+0xda>
    21da: 60           	rts
    21db: a6 12        	ldx	$12                     ; 0x2012 <_ZN12_GLOBAL__N_13putEcP6Status+0xb>
    21dd: 86 e8        	stx	$e8                     ; 0x20e8 <_ZN12_GLOBAL__N_112print_stringEPKcP6Status+0xe>
    21df: a6 13        	ldx	$13                     ; 0x2013 <_ZN12_GLOBAL__N_13putEcP6Status+0xc>
    21e1: 86 eb        	stx	$eb                     ; 0x20eb <_ZN12_GLOBAL__N_112print_stringEPKcP6Status+0x11>
    21e3: 4c 49 21     	jmp	$2149 <_ZN12_GLOBAL__N_112print_stringEPKcP6Status+0x6f>

000021e6 <printf>:
    21e6: a6 12        	ldx	$12                     ; 0x2012 <_ZN12_GLOBAL__N_13putEcP6Status+0xb>
    21e8: 86 99        	stx	$99                     ; 0x2099 <_ZN12_GLOBAL__N_13putEcP6Status+0x92>
    21ea: a6 13        	ldx	$13                     ; 0x2013 <_ZN12_GLOBAL__N_13putEcP6Status+0xc>
    21ec: 86 9a        	stx	$9a                     ; 0x209a <_ZN12_GLOBAL__N_13putEcP6Status+0x93>
    21ee: 18           	clc
    21ef: a6 10        	ldx	$10                     ; 0x2010 <_ZN12_GLOBAL__N_13putEcP6Status+0x9>
    21f1: a4 11        	ldy	$11                     ; 0x2011 <_ZN12_GLOBAL__N_13putEcP6Status+0xa>
    21f3: 86 da        	stx	$da                     ; 0x20da <_ZN12_GLOBAL__N_112print_stringEPKcP6Status>
    21f5: 84 db        	sty	$db                     ; 0x20db <_ZN12_GLOBAL__N_112print_stringEPKcP6Status+0x1>
    21f7: a6 da        	ldx	$da                     ; 0x20da <_ZN12_GLOBAL__N_112print_stringEPKcP6Status>
    21f9: a4 db        	ldy	$db                     ; 0x20db <_ZN12_GLOBAL__N_112print_stringEPKcP6Status+0x1>
    21fb: 86 c5        	stx	$c5                     ; 0x20c5 <_ZN12_GLOBAL__N_13putEcP6Status+0xbe>
    21fd: 84 c6        	sty	$c6                     ; 0x20c6 <_ZN12_GLOBAL__N_13putEcP6Status+0xbf>
    21ff: a2 ff        	ldx	#$ff
    2201: 86 ca        	stx	$ca                     ; 0x20ca <_ZN12_GLOBAL__N_13putEcP6Status+0xc3>
    2203: 86 cb        	stx	$cb                     ; 0x20cb <_ZN12_GLOBAL__N_13putEcP6Status+0xc4>
    2205: 64 cc        	stz	$cc                     ; 0x20cc <_ZN12_GLOBAL__N_13putEcP6Status+0xc5>
    2207: 64 cd        	stz	$cd                     ; 0x20cd <_ZN12_GLOBAL__N_13putEcP6Status+0xc6>
    2209: e8           	inx
    220a: 86 9b        	stx	$9b                     ; 0x209b <_ZN12_GLOBAL__N_13putEcP6Status+0x94>
    220c: a2 00        	ldx	#$0
    220e: 86 9c        	stx	$9c                     ; 0x209c <_ZN12_GLOBAL__N_13putEcP6Status+0x95>
    2210: a6 9b        	ldx	$9b                     ; 0x209b <_ZN12_GLOBAL__N_13putEcP6Status+0x94>
    2212: a4 9c        	ldy	$9c                     ; 0x209c <_ZN12_GLOBAL__N_13putEcP6Status+0x95>
    2214: 86 d0        	stx	$d0                     ; 0x20d0 <_ZN12_GLOBAL__N_13putEcP6Status+0xc9>
    2216: 84 d1        	sty	$d1                     ; 0x20d1 <_ZN12_GLOBAL__N_13putEcP6Status+0xca>
    2218: a2 02        	ldx	#$2
    221a: 86 d6        	stx	$d6                     ; 0x20d6 <_ZN12_GLOBAL__N_13putEcP6Status+0xcf>
    221c: 64 d7        	stz	$d7                     ; 0x20d7 <_ZN12_GLOBAL__N_13putEcP6Status+0xd0>
    221e: a6 c5        	ldx	$c5                     ; 0x20c5 <_ZN12_GLOBAL__N_13putEcP6Status+0xbe>
    2220: a4 c6        	ldy	$c6                     ; 0x20c6 <_ZN12_GLOBAL__N_13putEcP6Status+0xbf>
    2222: 86 d8        	stx	$d8                     ; 0x20d8 <_ZN12_GLOBAL__N_13putEcP6Status+0xd1>
    2224: 84 d9        	sty	$d9                     ; 0x20d9 <_ZN12_GLOBAL__N_13putEcP6Status+0xd2>
    2226: a2 bc        	ldx	#$bc
    2228: a0 00        	ldy	#$0
    222a: 86 12        	stx	$12                     ; 0x2012 <_ZN12_GLOBAL__N_13putEcP6Status+0xb>
    222c: 84 13        	sty	$13                     ; 0x2013 <_ZN12_GLOBAL__N_13putEcP6Status+0xc>
    222e: a0 01        	ldy	#$1
    2230: a9 a3        	lda	#$a3
    2232: 18           	clc
    2233: 69 02        	adc	#$2
    2235: 85 e2        	sta	$e2                     ; 0x20e2 <_ZN12_GLOBAL__N_112print_stringEPKcP6Status+0x8>
    2237: a9 00        	lda	#$0
    2239: 69 00        	adc	#$0
    223b: 85 e3        	sta	$e3                     ; 0x20e3 <_ZN12_GLOBAL__N_112print_stringEPKcP6Status+0x9>
    223d: e6 12        	inc	$12                     ; 0x2012 <_ZN12_GLOBAL__N_13putEcP6Status+0xb>
    223f: d0 02        	bne	$2243 <printf+0x5d>
    2241: e6 13        	inc	$13                     ; 0x2013 <_ZN12_GLOBAL__N_13putEcP6Status+0xc>
    2243: a6 12        	ldx	$12                     ; 0x2012 <_ZN12_GLOBAL__N_13putEcP6Status+0xb>
    2245: 86 de        	stx	$de                     ; 0x20de <_ZN12_GLOBAL__N_112print_stringEPKcP6Status+0x4>
    2247: a6 13        	ldx	$13                     ; 0x2013 <_ZN12_GLOBAL__N_13putEcP6Status+0xc>
    2249: 86 df        	stx	$df                     ; 0x20df <_ZN12_GLOBAL__N_112print_stringEPKcP6Status+0x5>
    224b: a6 99        	ldx	$99                     ; 0x2099 <_ZN12_GLOBAL__N_13putEcP6Status+0x92>
    224d: 86 9d        	stx	$9d                     ; 0x209d <_ZN12_GLOBAL__N_13putEcP6Status+0x96>
    224f: a6 9a        	ldx	$9a                     ; 0x209a <_ZN12_GLOBAL__N_13putEcP6Status+0x93>
    2251: 86 9e        	stx	$9e                     ; 0x209e <_ZN12_GLOBAL__N_13putEcP6Status+0x97>
    2253: b2 99        	lda	($99)                   ; 0x2099 <_ZN12_GLOBAL__N_13putEcP6Status+0x92>
    2255: c9 25        	cmp	#$25
    2257: f0 23        	beq	$227c <printf+0x96>
    2259: a2 00        	ldx	#$0
    225b: a8           	tay
    225c: d0 03        	bne	$2261 <printf+0x7b>
    225e: 4c be 2d     	jmp	$2dbe <printf+0xbd8>
    2261: 20 bf 2d     	jsr	$2dbf <putchar>
    2264: a0 01        	ldy	#$1
    2266: e6 9d        	inc	$9d                     ; 0x209d <_ZN12_GLOBAL__N_13putEcP6Status+0x96>
    2268: d0 02        	bne	$226c <printf+0x86>
    226a: e6 9e        	inc	$9e                     ; 0x209e <_ZN12_GLOBAL__N_13putEcP6Status+0x97>
    226c: e6 cc        	inc	$cc                     ; 0x20cc <_ZN12_GLOBAL__N_13putEcP6Status+0xc5>
    226e: d0 02        	bne	$2272 <printf+0x8c>
    2270: e6 cd        	inc	$cd                     ; 0x20cd <_ZN12_GLOBAL__N_13putEcP6Status+0xc6>
    2272: a6 9d        	ldx	$9d                     ; 0x209d <_ZN12_GLOBAL__N_13putEcP6Status+0x96>
    2274: 86 99        	stx	$99                     ; 0x2099 <_ZN12_GLOBAL__N_13putEcP6Status+0x92>
    2276: a6 9e        	ldx	$9e                     ; 0x209e <_ZN12_GLOBAL__N_13putEcP6Status+0x97>
    2278: 86 9a        	stx	$9a                     ; 0x209a <_ZN12_GLOBAL__N_13putEcP6Status+0x93>
    227a: 80 cf        	bra	$224b <printf+0x65>
    227c: a6 99        	ldx	$99                     ; 0x2099 <_ZN12_GLOBAL__N_13putEcP6Status+0x92>
    227e: 86 12        	stx	$12                     ; 0x2012 <_ZN12_GLOBAL__N_13putEcP6Status+0xb>
    2280: a6 9a        	ldx	$9a                     ; 0x209a <_ZN12_GLOBAL__N_13putEcP6Status+0x93>
    2282: 86 13        	stx	$13                     ; 0x2013 <_ZN12_GLOBAL__N_13putEcP6Status+0xc>
    2284: e6 12        	inc	$12                     ; 0x2012 <_ZN12_GLOBAL__N_13putEcP6Status+0xb>
    2286: d0 02        	bne	$228a <printf+0xa4>
    2288: e6 13        	inc	$13                     ; 0x2013 <_ZN12_GLOBAL__N_13putEcP6Status+0xc>
    228a: b1 9d        	lda	($9d),y                 ; 0x209d <_ZN12_GLOBAL__N_13putEcP6Status+0x96>
    228c: c9 25        	cmp	#$25
    228e: d0 16        	bne	$22a6 <printf+0xc0>
    2290: a4 cc        	ldy	$cc                     ; 0x20cc <_ZN12_GLOBAL__N_13putEcP6Status+0xc5>
    2292: a5 cd        	lda	$cd                     ; 0x20cd <_ZN12_GLOBAL__N_13putEcP6Status+0xc6>
    2294: c5 cb        	cmp	$cb                     ; 0x20cb <_ZN12_GLOBAL__N_13putEcP6Status+0xc4>
    2296: f0 03        	beq	$229b <printf+0xb5>
    2298: 4c ac 23     	jmp	$23ac <printf+0x1c6>
    229b: a6 ca        	ldx	$ca                     ; 0x20ca <_ZN12_GLOBAL__N_13putEcP6Status+0xc3>
    229d: 86 12        	stx	$12                     ; 0x2012 <_ZN12_GLOBAL__N_13putEcP6Status+0xb>
    229f: 84 13        	sty	$13                     ; 0x2013 <_ZN12_GLOBAL__N_13putEcP6Status+0xc>
    22a1: c4 12        	cpy	$12                     ; 0x2012 <_ZN12_GLOBAL__N_13putEcP6Status+0xb>
    22a3: 4c b0 23     	jmp	$23b0 <printf+0x1ca>
    22a6: 64 c8        	stz	$c8                     ; 0x20c8 <_ZN12_GLOBAL__N_13putEcP6Status+0xc1>
    22a8: 64 c9        	stz	$c9                     ; 0x20c9 <_ZN12_GLOBAL__N_13putEcP6Status+0xc2>
    22aa: 64 c7        	stz	$c7                     ; 0x20c7 <_ZN12_GLOBAL__N_13putEcP6Status+0xc0>
    22ac: 64 d2        	stz	$d2                     ; 0x20d2 <_ZN12_GLOBAL__N_13putEcP6Status+0xcb>
    22ae: 64 d3        	stz	$d3                     ; 0x20d3 <_ZN12_GLOBAL__N_13putEcP6Status+0xcc>
    22b0: a2 ff        	ldx	#$ff
    22b2: 86 d4        	stx	$d4                     ; 0x20d4 <_ZN12_GLOBAL__N_13putEcP6Status+0xcd>
    22b4: 86 d5        	stx	$d5                     ; 0x20d5 <_ZN12_GLOBAL__N_13putEcP6Status+0xce>
    22b6: 64 98        	stz	$98                     ; 0x2098 <_ZN12_GLOBAL__N_13putEcP6Status+0x91>
    22b8: 80 33        	bra	$22ed <printf+0x107>
    22ba: a2 02        	ldx	#$2
    22bc: 80 15        	bra	$22d3 <printf+0xed>
    22be: e0 20        	cpx	#$20
    22c0: f0 15        	beq	$22d7 <printf+0xf1>
    22c2: 86 15        	stx	$15                     ; 0x2015 <_ZN12_GLOBAL__N_13putEcP6Status+0xe>
    22c4: e0 23        	cpx	#$23
    22c6: f0 03        	beq	$22cb <printf+0xe5>
    22c8: 4c 4a 23     	jmp	$234a <printf+0x164>
    22cb: a5 98        	lda	$98                     ; 0x2098 <_ZN12_GLOBAL__N_13putEcP6Status+0x91>
    22cd: a2 04        	ldx	#$4
    22cf: 80 02        	bra	$22d3 <printf+0xed>
    22d1: a2 10        	ldx	#$10
    22d3: 86 14        	stx	$14                     ; 0x2014 <_ZN12_GLOBAL__N_13putEcP6Status+0xd>
    22d5: 80 06        	bra	$22dd <printf+0xf7>
    22d7: a2 08        	ldx	#$8
    22d9: 86 14        	stx	$14                     ; 0x2014 <_ZN12_GLOBAL__N_13putEcP6Status+0xd>
    22db: a5 98        	lda	$98                     ; 0x2098 <_ZN12_GLOBAL__N_13putEcP6Status+0x91>
    22dd: 05 14        	ora	$14                     ; 0x2014 <_ZN12_GLOBAL__N_13putEcP6Status+0xd>
    22df: 85 98        	sta	$98                     ; 0x2098 <_ZN12_GLOBAL__N_13putEcP6Status+0x91>
    22e1: 85 c8        	sta	$c8                     ; 0x20c8 <_ZN12_GLOBAL__N_13putEcP6Status+0xc1>
    22e3: a2 00        	ldx	#$0
    22e5: 86 c9        	stx	$c9                     ; 0x20c9 <_ZN12_GLOBAL__N_13putEcP6Status+0xc2>
    22e7: e6 12        	inc	$12                     ; 0x2012 <_ZN12_GLOBAL__N_13putEcP6Status+0xb>
    22e9: d0 02        	bne	$22ed <printf+0x107>
    22eb: e6 13        	inc	$13                     ; 0x2013 <_ZN12_GLOBAL__N_13putEcP6Status+0xc>
    22ed: b2 12        	lda	($12)                   ; 0x2012 <_ZN12_GLOBAL__N_13putEcP6Status+0xb>
    22ef: aa           	tax
    22f0: 18           	clc
    22f1: 69 d6        	adc	#$d6
    22f3: c9 07        	cmp	#$7
    22f5: b0 c7        	bcs	$22be <printf+0xd8>
    22f7: 86 15        	stx	$15                     ; 0x2015 <_ZN12_GLOBAL__N_13putEcP6Status+0xe>
    22f9: 0a           	asl
    22fa: aa           	tax
    22fb: a0 01        	ldy	#$1
    22fd: 84 14        	sty	$14                     ; 0x2014 <_ZN12_GLOBAL__N_13putEcP6Status+0xd>
    22ff: a5 98        	lda	$98                     ; 0x2098 <_ZN12_GLOBAL__N_13putEcP6Status+0x91>
    2301: 7c de 2f     	jmp	($2fde,x)               ; 0x2fde <__set_v+0x11>
    2304: a5 d8        	lda	$d8                     ; 0x20d8 <_ZN12_GLOBAL__N_13putEcP6Status+0xd1>
    2306: a6 d9        	ldx	$d9                     ; 0x20d9 <_ZN12_GLOBAL__N_13putEcP6Status+0xd2>
    2308: 85 16        	sta	$16                     ; 0x2016 <_ZN12_GLOBAL__N_13putEcP6Status+0xf>
    230a: 86 17        	stx	$17                     ; 0x2017 <_ZN12_GLOBAL__N_13putEcP6Status+0x10>
    230c: 18           	clc
    230d: 69 02        	adc	#$2
    230f: a8           	tay
    2310: 8a           	txa
    2311: 69 00        	adc	#$0
    2313: 84 d8        	sty	$d8                     ; 0x20d8 <_ZN12_GLOBAL__N_13putEcP6Status+0xd1>
    2315: 85 d9        	sta	$d9                     ; 0x20d9 <_ZN12_GLOBAL__N_13putEcP6Status+0xd2>
    2317: b2 16        	lda	($16)                   ; 0x2016 <_ZN12_GLOBAL__N_13putEcP6Status+0xf>
    2319: 85 15        	sta	$15                     ; 0x2015 <_ZN12_GLOBAL__N_13putEcP6Status+0xe>
    231b: a0 01        	ldy	#$1
    231d: b1 16        	lda	($16),y                 ; 0x2016 <_ZN12_GLOBAL__N_13putEcP6Status+0xf>
    231f: 85 14        	sta	$14                     ; 0x2014 <_ZN12_GLOBAL__N_13putEcP6Status+0xd>
    2321: 10 15        	bpl	$2338 <printf+0x152>
    2323: a5 98        	lda	$98                     ; 0x2098 <_ZN12_GLOBAL__N_13putEcP6Status+0x91>
    2325: 09 01        	ora	#$1
    2327: 85 98        	sta	$98                     ; 0x2098 <_ZN12_GLOBAL__N_13putEcP6Status+0x91>
    2329: 85 c8        	sta	$c8                     ; 0x20c8 <_ZN12_GLOBAL__N_13putEcP6Status+0xc1>
    232b: a2 00        	ldx	#$0
    232d: 86 c9        	stx	$c9                     ; 0x20c9 <_ZN12_GLOBAL__N_13putEcP6Status+0xc2>
    232f: 8a           	txa
    2330: 38           	sec
    2331: e5 15        	sbc	$15                     ; 0x2015 <_ZN12_GLOBAL__N_13putEcP6Status+0xe>
    2333: 85 15        	sta	$15                     ; 0x2015 <_ZN12_GLOBAL__N_13putEcP6Status+0xe>
    2335: 8a           	txa
    2336: e5 14        	sbc	$14                     ; 0x2014 <_ZN12_GLOBAL__N_13putEcP6Status+0xd>
    2338: a6 15        	ldx	$15                     ; 0x2015 <_ZN12_GLOBAL__N_13putEcP6Status+0xe>
    233a: 86 d2        	stx	$d2                     ; 0x20d2 <_ZN12_GLOBAL__N_13putEcP6Status+0xcb>
    233c: 85 d3        	sta	$d3                     ; 0x20d3 <_ZN12_GLOBAL__N_13putEcP6Status+0xcc>
    233e: e6 12        	inc	$12                     ; 0x2012 <_ZN12_GLOBAL__N_13putEcP6Status+0xb>
    2340: f0 03        	beq	$2345 <printf+0x15f>
    2342: 4c 00 24     	jmp	$2400 <printf+0x21a>
    2345: e6 13        	inc	$13                     ; 0x2013 <_ZN12_GLOBAL__N_13putEcP6Status+0xc>
    2347: 4c 00 24     	jmp	$2400 <printf+0x21a>
    234a: a5 15        	lda	$15                     ; 0x2015 <_ZN12_GLOBAL__N_13putEcP6Status+0xe>
    234c: 18           	clc
    234d: 69 d0        	adc	#$d0
    234f: c9 0a        	cmp	#$a
    2351: 90 03        	bcc	$2356 <printf+0x170>
    2353: 4c f2 23     	jmp	$23f2 <printf+0x20c>
    2356: a6 15        	ldx	$15                     ; 0x2015 <_ZN12_GLOBAL__N_13putEcP6Status+0xe>
    2358: 86 14        	stx	$14                     ; 0x2014 <_ZN12_GLOBAL__N_13putEcP6Status+0xd>
    235a: 64 16        	stz	$16                     ; 0x2016 <_ZN12_GLOBAL__N_13putEcP6Status+0xf>
    235c: 64 15        	stz	$15                     ; 0x2015 <_ZN12_GLOBAL__N_13putEcP6Status+0xe>
    235e: 64 17        	stz	$17                     ; 0x2017 <_ZN12_GLOBAL__N_13putEcP6Status+0x10>
    2360: a0 01        	ldy	#$1
    2362: 06 16        	asl	$16                     ; 0x2016 <_ZN12_GLOBAL__N_13putEcP6Status+0xf>
    2364: 26 17        	rol	$17                     ; 0x2017 <_ZN12_GLOBAL__N_13putEcP6Status+0x10>
    2366: a5 16        	lda	$16                     ; 0x2016 <_ZN12_GLOBAL__N_13putEcP6Status+0xf>
    2368: 0a           	asl
    2369: aa           	tax
    236a: a5 17        	lda	$17                     ; 0x2017 <_ZN12_GLOBAL__N_13putEcP6Status+0x10>
    236c: 2a           	rol
    236d: 86 18        	stx	$18                     ; 0x2018 <_ZN12_GLOBAL__N_13putEcP6Status+0x11>
    236f: 06 18        	asl	$18                     ; 0x2018 <_ZN12_GLOBAL__N_13putEcP6Status+0x11>
    2371: 2a           	rol
    2372: aa           	tax
    2373: a5 18        	lda	$18                     ; 0x2018 <_ZN12_GLOBAL__N_13putEcP6Status+0x11>
    2375: 18           	clc
    2376: 65 16        	adc	$16                     ; 0x2016 <_ZN12_GLOBAL__N_13putEcP6Status+0xf>
    2378: 85 16        	sta	$16                     ; 0x2016 <_ZN12_GLOBAL__N_13putEcP6Status+0xf>
    237a: 8a           	txa
    237b: 65 17        	adc	$17                     ; 0x2017 <_ZN12_GLOBAL__N_13putEcP6Status+0x10>
    237d: 85 17        	sta	$17                     ; 0x2017 <_ZN12_GLOBAL__N_13putEcP6Status+0x10>
    237f: a5 16        	lda	$16                     ; 0x2016 <_ZN12_GLOBAL__N_13putEcP6Status+0xf>
    2381: 18           	clc
    2382: 65 14        	adc	$14                     ; 0x2014 <_ZN12_GLOBAL__N_13putEcP6Status+0xd>
    2384: 85 14        	sta	$14                     ; 0x2014 <_ZN12_GLOBAL__N_13putEcP6Status+0xd>
    2386: a5 17        	lda	$17                     ; 0x2017 <_ZN12_GLOBAL__N_13putEcP6Status+0x10>
    2388: 65 15        	adc	$15                     ; 0x2015 <_ZN12_GLOBAL__N_13putEcP6Status+0xe>
    238a: aa           	tax
    238b: 18           	clc
    238c: a5 14        	lda	$14                     ; 0x2014 <_ZN12_GLOBAL__N_13putEcP6Status+0xd>
    238e: 69 d0        	adc	#$d0
    2390: 85 16        	sta	$16                     ; 0x2016 <_ZN12_GLOBAL__N_13putEcP6Status+0xf>
    2392: 8a           	txa
    2393: 69 ff        	adc	#$ff
    2395: 85 17        	sta	$17                     ; 0x2017 <_ZN12_GLOBAL__N_13putEcP6Status+0x10>
    2397: b1 12        	lda	($12),y                 ; 0x2012 <_ZN12_GLOBAL__N_13putEcP6Status+0xb>
    2399: 85 14        	sta	$14                     ; 0x2014 <_ZN12_GLOBAL__N_13putEcP6Status+0xd>
    239b: 18           	clc
    239c: 69 d0        	adc	#$d0
    239e: e6 12        	inc	$12                     ; 0x2012 <_ZN12_GLOBAL__N_13putEcP6Status+0xb>
    23a0: d0 02        	bne	$23a4 <printf+0x1be>
    23a2: e6 13        	inc	$13                     ; 0x2013 <_ZN12_GLOBAL__N_13putEcP6Status+0xc>
    23a4: c9 0a        	cmp	#$a
    23a6: 64 15        	stz	$15                     ; 0x2015 <_ZN12_GLOBAL__N_13putEcP6Status+0xe>
    23a8: 90 b8        	bcc	$2362 <printf+0x17c>
    23aa: 80 4c        	bra	$23f8 <printf+0x212>
    23ac: 84 13        	sty	$13                     ; 0x2013 <_ZN12_GLOBAL__N_13putEcP6Status+0xc>
    23ae: c5 cb        	cmp	$cb                     ; 0x20cb <_ZN12_GLOBAL__N_13putEcP6Status+0xc4>
    23b0: a0 01        	ldy	#$1
    23b2: b0 28        	bcs	$23dc <printf+0x1f6>
    23b4: a6 d7        	ldx	$d7                     ; 0x20d7 <_ZN12_GLOBAL__N_13putEcP6Status+0xd0>
    23b6: e4 9c        	cpx	$9c                     ; 0x209c <_ZN12_GLOBAL__N_13putEcP6Status+0x95>
    23b8: d0 19        	bne	$23d3 <printf+0x1ed>
    23ba: a6 d6        	ldx	$d6                     ; 0x20d6 <_ZN12_GLOBAL__N_13putEcP6Status+0xcf>
    23bc: e4 9b        	cpx	$9b                     ; 0x209b <_ZN12_GLOBAL__N_13putEcP6Status+0x94>
    23be: d0 13        	bne	$23d3 <printf+0x1ed>
    23c0: 18           	clc
    23c1: aa           	tax
    23c2: a5 13        	lda	$13                     ; 0x2013 <_ZN12_GLOBAL__N_13putEcP6Status+0xc>
    23c4: 65 d0        	adc	$d0                     ; 0x20d0 <_ZN12_GLOBAL__N_13putEcP6Status+0xc9>
    23c6: 85 12        	sta	$12                     ; 0x2012 <_ZN12_GLOBAL__N_13putEcP6Status+0xb>
    23c8: 8a           	txa
    23c9: 65 d1        	adc	$d1                     ; 0x20d1 <_ZN12_GLOBAL__N_13putEcP6Status+0xca>
    23cb: 85 13        	sta	$13                     ; 0x2013 <_ZN12_GLOBAL__N_13putEcP6Status+0xc>
    23cd: a9 25        	lda	#$25
    23cf: 92 12        	sta	($12)                   ; 0x2012 <_ZN12_GLOBAL__N_13putEcP6Status+0xb>
    23d1: 80 09        	bra	$23dc <printf+0x1f6>
    23d3: a2 00        	ldx	#$0
    23d5: a9 25        	lda	#$25
    23d7: 20 bf 2d     	jsr	$2dbf <putchar>
    23da: a0 01        	ldy	#$1
    23dc: e6 cc        	inc	$cc                     ; 0x20cc <_ZN12_GLOBAL__N_13putEcP6Status+0xc5>
    23de: d0 02        	bne	$23e2 <printf+0x1fc>
    23e0: e6 cd        	inc	$cd                     ; 0x20cd <_ZN12_GLOBAL__N_13putEcP6Status+0xc6>
    23e2: a5 9d        	lda	$9d                     ; 0x209d <_ZN12_GLOBAL__N_13putEcP6Status+0x96>
    23e4: 18           	clc
    23e5: 69 02        	adc	#$2
    23e7: 85 99        	sta	$99                     ; 0x2099 <_ZN12_GLOBAL__N_13putEcP6Status+0x92>
    23e9: a5 9e        	lda	$9e                     ; 0x209e <_ZN12_GLOBAL__N_13putEcP6Status+0x97>
    23eb: 69 00        	adc	#$0
    23ed: 85 9a        	sta	$9a                     ; 0x209a <_ZN12_GLOBAL__N_13putEcP6Status+0x93>
    23ef: 4c 4b 22     	jmp	$224b <printf+0x65>
    23f2: 64 16        	stz	$16                     ; 0x2016 <_ZN12_GLOBAL__N_13putEcP6Status+0xf>
    23f4: 64 17        	stz	$17                     ; 0x2017 <_ZN12_GLOBAL__N_13putEcP6Status+0x10>
    23f6: a0 01        	ldy	#$1
    23f8: a6 16        	ldx	$16                     ; 0x2016 <_ZN12_GLOBAL__N_13putEcP6Status+0xf>
    23fa: 86 d2        	stx	$d2                     ; 0x20d2 <_ZN12_GLOBAL__N_13putEcP6Status+0xcb>
    23fc: a5 17        	lda	$17                     ; 0x2017 <_ZN12_GLOBAL__N_13putEcP6Status+0x10>
    23fe: 85 d3        	sta	$d3                     ; 0x20d3 <_ZN12_GLOBAL__N_13putEcP6Status+0xcc>
    2400: 86 a1        	stx	$a1                     ; 0x20a1 <_ZN12_GLOBAL__N_13putEcP6Status+0x9a>
    2402: 85 9f        	sta	$9f                     ; 0x209f <_ZN12_GLOBAL__N_13putEcP6Status+0x98>
    2404: b2 12        	lda	($12)                   ; 0x2012 <_ZN12_GLOBAL__N_13putEcP6Status+0xb>
    2406: a2 ff        	ldx	#$ff
    2408: c9 2e        	cmp	#$2e
    240a: d0 39        	bne	$2445 <printf+0x25f>
    240c: b1 12        	lda	($12),y                 ; 0x2012 <_ZN12_GLOBAL__N_13putEcP6Status+0xb>
    240e: c9 2a        	cmp	#$2a
    2410: d0 38        	bne	$244a <printf+0x264>
    2412: a5 d8        	lda	$d8                     ; 0x20d8 <_ZN12_GLOBAL__N_13putEcP6Status+0xd1>
    2414: a6 d9        	ldx	$d9                     ; 0x20d9 <_ZN12_GLOBAL__N_13putEcP6Status+0xd2>
    2416: 85 14        	sta	$14                     ; 0x2014 <_ZN12_GLOBAL__N_13putEcP6Status+0xd>
    2418: 86 15        	stx	$15                     ; 0x2015 <_ZN12_GLOBAL__N_13putEcP6Status+0xe>
    241a: 18           	clc
    241b: 69 02        	adc	#$2
    241d: 85 16        	sta	$16                     ; 0x2016 <_ZN12_GLOBAL__N_13putEcP6Status+0xf>
    241f: 8a           	txa
    2420: 69 00        	adc	#$0
    2422: a6 16        	ldx	$16                     ; 0x2016 <_ZN12_GLOBAL__N_13putEcP6Status+0xf>
    2424: 86 d8        	stx	$d8                     ; 0x20d8 <_ZN12_GLOBAL__N_13putEcP6Status+0xd1>
    2426: 85 d9        	sta	$d9                     ; 0x20d9 <_ZN12_GLOBAL__N_13putEcP6Status+0xd2>
    2428: a5 12        	lda	$12                     ; 0x2012 <_ZN12_GLOBAL__N_13putEcP6Status+0xb>
    242a: 18           	clc
    242b: 69 02        	adc	#$2
    242d: 85 12        	sta	$12                     ; 0x2012 <_ZN12_GLOBAL__N_13putEcP6Status+0xb>
    242f: a5 13        	lda	$13                     ; 0x2013 <_ZN12_GLOBAL__N_13putEcP6Status+0xc>
    2431: 69 00        	adc	#$0
    2433: 85 13        	sta	$13                     ; 0x2013 <_ZN12_GLOBAL__N_13putEcP6Status+0xc>
    2435: b2 14        	lda	($14)                   ; 0x2014 <_ZN12_GLOBAL__N_13putEcP6Status+0xd>
    2437: aa           	tax
    2438: b1 14        	lda	($14),y                 ; 0x2014 <_ZN12_GLOBAL__N_13putEcP6Status+0xd>
    243a: 86 18        	stx	$18                     ; 0x2018 <_ZN12_GLOBAL__N_13putEcP6Status+0x11>
    243c: 86 d4        	stx	$d4                     ; 0x20d4 <_ZN12_GLOBAL__N_13putEcP6Status+0xcd>
    243e: 85 19        	sta	$19                     ; 0x2019 <_ZN12_GLOBAL__N_13putEcP6Status+0x12>
    2440: 85 d5        	sta	$d5                     ; 0x20d5 <_ZN12_GLOBAL__N_13putEcP6Status+0xce>
    2442: 4c f5 24     	jmp	$24f5 <printf+0x30f>
    2445: 86 18        	stx	$18                     ; 0x2018 <_ZN12_GLOBAL__N_13putEcP6Status+0x11>
    2447: 4c 05 25     	jmp	$2505 <printf+0x31f>
    244a: 85 17        	sta	$17                     ; 0x2017 <_ZN12_GLOBAL__N_13putEcP6Status+0x10>
    244c: 18           	clc
    244d: 69 d0        	adc	#$d0
    244f: c9 0a        	cmp	#$a
    2451: 90 03        	bcc	$2456 <printf+0x270>
    2453: 4c e7 24     	jmp	$24e7 <printf+0x301>
    2456: 64 16        	stz	$16                     ; 0x2016 <_ZN12_GLOBAL__N_13putEcP6Status+0xf>
    2458: a2 01        	ldx	#$1
    245a: 64 18        	stz	$18                     ; 0x2018 <_ZN12_GLOBAL__N_13putEcP6Status+0x11>
    245c: 64 19        	stz	$19                     ; 0x2019 <_ZN12_GLOBAL__N_13putEcP6Status+0x12>
    245e: a0 01        	ldy	#$1
    2460: 64 1a        	stz	$1a                     ; 0x201a <_ZN12_GLOBAL__N_13putEcP6Status+0x13>
    2462: 5a           	phy
    2463: a4 1a        	ldy	$1a                     ; 0x201a <_ZN12_GLOBAL__N_13putEcP6Status+0x13>
    2465: 84 14        	sty	$14                     ; 0x2014 <_ZN12_GLOBAL__N_13putEcP6Status+0xd>
    2467: 86 15        	stx	$15                     ; 0x2015 <_ZN12_GLOBAL__N_13putEcP6Status+0xe>
    2469: 06 18        	asl	$18                     ; 0x2018 <_ZN12_GLOBAL__N_13putEcP6Status+0x11>
    246b: 26 19        	rol	$19                     ; 0x2019 <_ZN12_GLOBAL__N_13putEcP6Status+0x12>
    246d: a5 18        	lda	$18                     ; 0x2018 <_ZN12_GLOBAL__N_13putEcP6Status+0x11>
    246f: 0a           	asl
    2470: 85 1d        	sta	$1d                     ; 0x201d <_ZN12_GLOBAL__N_13putEcP6Status+0x16>
    2472: a5 19        	lda	$19                     ; 0x2019 <_ZN12_GLOBAL__N_13putEcP6Status+0x12>
    2474: 2a           	rol
    2475: 06 1d        	asl	$1d                     ; 0x201d <_ZN12_GLOBAL__N_13putEcP6Status+0x16>
    2477: 2a           	rol
    2478: 85 1e        	sta	$1e                     ; 0x201e <_ZN12_GLOBAL__N_13putEcP6Status+0x17>
    247a: a5 1d        	lda	$1d                     ; 0x201d <_ZN12_GLOBAL__N_13putEcP6Status+0x16>
    247c: 18           	clc
    247d: 65 18        	adc	$18                     ; 0x2018 <_ZN12_GLOBAL__N_13putEcP6Status+0x11>
    247f: 85 18        	sta	$18                     ; 0x2018 <_ZN12_GLOBAL__N_13putEcP6Status+0x11>
    2481: a5 1e        	lda	$1e                     ; 0x201e <_ZN12_GLOBAL__N_13putEcP6Status+0x17>
    2483: 65 19        	adc	$19                     ; 0x2019 <_ZN12_GLOBAL__N_13putEcP6Status+0x12>
    2485: 85 19        	sta	$19                     ; 0x2019 <_ZN12_GLOBAL__N_13putEcP6Status+0x12>
    2487: a5 18        	lda	$18                     ; 0x2018 <_ZN12_GLOBAL__N_13putEcP6Status+0x11>
    2489: 18           	clc
    248a: 65 17        	adc	$17                     ; 0x2017 <_ZN12_GLOBAL__N_13putEcP6Status+0x10>
    248c: 85 17        	sta	$17                     ; 0x2017 <_ZN12_GLOBAL__N_13putEcP6Status+0x10>
    248e: a5 19        	lda	$19                     ; 0x2019 <_ZN12_GLOBAL__N_13putEcP6Status+0x12>
    2490: 65 16        	adc	$16                     ; 0x2016 <_ZN12_GLOBAL__N_13putEcP6Status+0xf>
    2492: 85 16        	sta	$16                     ; 0x2016 <_ZN12_GLOBAL__N_13putEcP6Status+0xf>
    2494: 18           	clc
    2495: a5 17        	lda	$17                     ; 0x2017 <_ZN12_GLOBAL__N_13putEcP6Status+0x10>
    2497: 69 d0        	adc	#$d0
    2499: 85 18        	sta	$18                     ; 0x2018 <_ZN12_GLOBAL__N_13putEcP6Status+0x11>
    249b: a5 16        	lda	$16                     ; 0x2016 <_ZN12_GLOBAL__N_13putEcP6Status+0xf>
    249d: 69 ff        	adc	#$ff
    249f: 85 19        	sta	$19                     ; 0x2019 <_ZN12_GLOBAL__N_13putEcP6Status+0x12>
    24a1: e8           	inx
    24a2: d0 02        	bne	$24a6 <printf+0x2c0>
    24a4: e6 1a        	inc	$1a                     ; 0x201a <_ZN12_GLOBAL__N_13putEcP6Status+0x13>
    24a6: a5 12        	lda	$12                     ; 0x2012 <_ZN12_GLOBAL__N_13putEcP6Status+0xb>
    24a8: 18           	clc
    24a9: 65 15        	adc	$15                     ; 0x2015 <_ZN12_GLOBAL__N_13putEcP6Status+0xe>
    24ab: 85 1d        	sta	$1d                     ; 0x201d <_ZN12_GLOBAL__N_13putEcP6Status+0x16>
    24ad: a5 13        	lda	$13                     ; 0x2013 <_ZN12_GLOBAL__N_13putEcP6Status+0xc>
    24af: 65 14        	adc	$14                     ; 0x2014 <_ZN12_GLOBAL__N_13putEcP6Status+0xd>
    24b1: a4 1d        	ldy	$1d                     ; 0x201d <_ZN12_GLOBAL__N_13putEcP6Status+0x16>
    24b3: 84 16        	sty	$16                     ; 0x2016 <_ZN12_GLOBAL__N_13putEcP6Status+0xf>
    24b5: 7a           	ply
    24b6: 85 17        	sta	$17                     ; 0x2017 <_ZN12_GLOBAL__N_13putEcP6Status+0x10>
    24b8: b1 16        	lda	($16),y                 ; 0x2016 <_ZN12_GLOBAL__N_13putEcP6Status+0xf>
    24ba: 85 17        	sta	$17                     ; 0x2017 <_ZN12_GLOBAL__N_13putEcP6Status+0x10>
    24bc: 18           	clc
    24bd: 69 d0        	adc	#$d0
    24bf: c9 0a        	cmp	#$a
    24c1: 64 16        	stz	$16                     ; 0x2016 <_ZN12_GLOBAL__N_13putEcP6Status+0xf>
    24c3: b0 03        	bcs	$24c8 <printf+0x2e2>
    24c5: 4c 62 24     	jmp	$2462 <printf+0x27c>
    24c8: a5 12        	lda	$12                     ; 0x2012 <_ZN12_GLOBAL__N_13putEcP6Status+0xb>
    24ca: 18           	clc
    24cb: 65 15        	adc	$15                     ; 0x2015 <_ZN12_GLOBAL__N_13putEcP6Status+0xe>
    24cd: 85 12        	sta	$12                     ; 0x2012 <_ZN12_GLOBAL__N_13putEcP6Status+0xb>
    24cf: a5 13        	lda	$13                     ; 0x2013 <_ZN12_GLOBAL__N_13putEcP6Status+0xc>
    24d1: 65 14        	adc	$14                     ; 0x2014 <_ZN12_GLOBAL__N_13putEcP6Status+0xd>
    24d3: 85 13        	sta	$13                     ; 0x2013 <_ZN12_GLOBAL__N_13putEcP6Status+0xc>
    24d5: e6 12        	inc	$12                     ; 0x2012 <_ZN12_GLOBAL__N_13putEcP6Status+0xb>
    24d7: d0 02        	bne	$24db <printf+0x2f5>
    24d9: e6 13        	inc	$13                     ; 0x2013 <_ZN12_GLOBAL__N_13putEcP6Status+0xc>
    24db: a6 18        	ldx	$18                     ; 0x2018 <_ZN12_GLOBAL__N_13putEcP6Status+0x11>
    24dd: 86 d4        	stx	$d4                     ; 0x20d4 <_ZN12_GLOBAL__N_13putEcP6Status+0xcd>
    24df: a6 19        	ldx	$19                     ; 0x2019 <_ZN12_GLOBAL__N_13putEcP6Status+0x12>
    24e1: 86 d5        	stx	$d5                     ; 0x20d5 <_ZN12_GLOBAL__N_13putEcP6Status+0xce>
    24e3: a0 01        	ldy	#$1
    24e5: 80 0e        	bra	$24f5 <printf+0x30f>
    24e7: e6 12        	inc	$12                     ; 0x2012 <_ZN12_GLOBAL__N_13putEcP6Status+0xb>
    24e9: d0 02        	bne	$24ed <printf+0x307>
    24eb: e6 13        	inc	$13                     ; 0x2013 <_ZN12_GLOBAL__N_13putEcP6Status+0xc>
    24ed: 64 18        	stz	$18                     ; 0x2018 <_ZN12_GLOBAL__N_13putEcP6Status+0x11>
    24ef: 64 d4        	stz	$d4                     ; 0x20d4 <_ZN12_GLOBAL__N_13putEcP6Status+0xcd>
    24f1: 64 d5        	stz	$d5                     ; 0x20d5 <_ZN12_GLOBAL__N_13putEcP6Status+0xce>
    24f3: 64 19        	stz	$19                     ; 0x2019 <_ZN12_GLOBAL__N_13putEcP6Status+0x12>
    24f5: a5 98        	lda	$98                     ; 0x2098 <_ZN12_GLOBAL__N_13putEcP6Status+0x91>
    24f7: 29 ef        	and	#$ef
    24f9: 85 98        	sta	$98                     ; 0x2098 <_ZN12_GLOBAL__N_13putEcP6Status+0x91>
    24fb: 85 c8        	sta	$c8                     ; 0x20c8 <_ZN12_GLOBAL__N_13putEcP6Status+0xc1>
    24fd: a2 00        	ldx	#$0
    24ff: 86 c9        	stx	$c9                     ; 0x20c9 <_ZN12_GLOBAL__N_13putEcP6Status+0xc2>
    2501: b2 12        	lda	($12)                   ; 0x2012 <_ZN12_GLOBAL__N_13putEcP6Status+0xb>
    2503: a6 19        	ldx	$19                     ; 0x2019 <_ZN12_GLOBAL__N_13putEcP6Status+0x12>
    2505: 86 15        	stx	$15                     ; 0x2015 <_ZN12_GLOBAL__N_13putEcP6Status+0xe>
    2507: a6 12        	ldx	$12                     ; 0x2012 <_ZN12_GLOBAL__N_13putEcP6Status+0xb>
    2509: 86 99        	stx	$99                     ; 0x2099 <_ZN12_GLOBAL__N_13putEcP6Status+0x92>
    250b: a6 13        	ldx	$13                     ; 0x2013 <_ZN12_GLOBAL__N_13putEcP6Status+0xc>
    250d: 86 9a        	stx	$9a                     ; 0x209a <_ZN12_GLOBAL__N_13putEcP6Status+0x93>
    250f: e6 99        	inc	$99                     ; 0x2099 <_ZN12_GLOBAL__N_13putEcP6Status+0x92>
    2511: d0 02        	bne	$2515 <printf+0x32f>
    2513: e6 9a        	inc	$9a                     ; 0x209a <_ZN12_GLOBAL__N_13putEcP6Status+0x93>
    2515: 85 14        	sta	$14                     ; 0x2014 <_ZN12_GLOBAL__N_13putEcP6Status+0xd>
    2517: 38           	sec
    2518: e9 6c        	sbc	#$6c
    251a: 50 02        	bvc	$251e <printf+0x338>
    251c: 49 80        	eor	#$80
    251e: aa           	tax
    251f: 10 1d        	bpl	$253e <printf+0x358>
    2521: a5 14        	lda	$14                     ; 0x2014 <_ZN12_GLOBAL__N_13putEcP6Status+0xd>
    2523: c9 4c        	cmp	#$4c
    2525: f0 27        	beq	$254e <printf+0x368>
    2527: c9 68        	cmp	#$68
    2529: d0 03        	bne	$252e <printf+0x348>
    252b: 4c b5 25     	jmp	$25b5 <printf+0x3cf>
    252e: a2 08        	ldx	#$8
    2530: c9 6a        	cmp	#$6a
    2532: d0 2e        	bne	$2562 <printf+0x37c>
    2534: a5 99        	lda	$99                     ; 0x2099 <_ZN12_GLOBAL__N_13putEcP6Status+0x92>
    2536: 85 12        	sta	$12                     ; 0x2012 <_ZN12_GLOBAL__N_13putEcP6Status+0xb>
    2538: a5 9a        	lda	$9a                     ; 0x209a <_ZN12_GLOBAL__N_13putEcP6Status+0x93>
    253a: 85 13        	sta	$13                     ; 0x2013 <_ZN12_GLOBAL__N_13putEcP6Status+0xc>
    253c: 80 43        	bra	$2581 <printf+0x39b>
    253e: a6 14        	ldx	$14                     ; 0x2014 <_ZN12_GLOBAL__N_13putEcP6Status+0xd>
    2540: e0 6c        	cpx	#$6c
    2542: f0 23        	beq	$2567 <printf+0x381>
    2544: e0 74        	cpx	#$74
    2546: f0 12        	beq	$255a <printf+0x374>
    2548: e0 7a        	cpx	#$7a
    254a: f0 0e        	beq	$255a <printf+0x374>
    254c: 80 14        	bra	$2562 <printf+0x37c>
    254e: a5 98        	lda	$98                     ; 0x2098 <_ZN12_GLOBAL__N_13putEcP6Status+0x91>
    2550: 09 40        	ora	#$40
    2552: 85 98        	sta	$98                     ; 0x2098 <_ZN12_GLOBAL__N_13putEcP6Status+0x91>
    2554: 85 c8        	sta	$c8                     ; 0x20c8 <_ZN12_GLOBAL__N_13putEcP6Status+0xc1>
    2556: a2 00        	ldx	#$0
    2558: 86 c9        	stx	$c9                     ; 0x20c9 <_ZN12_GLOBAL__N_13putEcP6Status+0xc2>
    255a: a6 99        	ldx	$99                     ; 0x2099 <_ZN12_GLOBAL__N_13putEcP6Status+0x92>
    255c: 86 12        	stx	$12                     ; 0x2012 <_ZN12_GLOBAL__N_13putEcP6Status+0xb>
    255e: a6 9a        	ldx	$9a                     ; 0x209a <_ZN12_GLOBAL__N_13putEcP6Status+0x93>
    2560: 86 13        	stx	$13                     ; 0x2013 <_ZN12_GLOBAL__N_13putEcP6Status+0xc>
    2562: a2 02        	ldx	#$2
    2564: 8a           	txa
    2565: 80 1c        	bra	$2583 <printf+0x39d>
    2567: b1 12        	lda	($12),y                 ; 0x2012 <_ZN12_GLOBAL__N_13putEcP6Status+0xb>
    2569: a2 04        	ldx	#$4
    256b: c9 6c        	cmp	#$6c
    256d: f0 03        	beq	$2572 <printf+0x38c>
    256f: 4c c4 28     	jmp	$28c4 <printf+0x6de>
    2572: a5 12        	lda	$12                     ; 0x2012 <_ZN12_GLOBAL__N_13putEcP6Status+0xb>
    2574: 18           	clc
    2575: 69 02        	adc	#$2
    2577: 85 12        	sta	$12                     ; 0x2012 <_ZN12_GLOBAL__N_13putEcP6Status+0xb>
    2579: a5 13        	lda	$13                     ; 0x2013 <_ZN12_GLOBAL__N_13putEcP6Status+0xc>
    257b: 69 00        	adc	#$0
    257d: 85 13        	sta	$13                     ; 0x2013 <_ZN12_GLOBAL__N_13putEcP6Status+0xc>
    257f: a2 08        	ldx	#$8
    2581: a9 08        	lda	#$8
    2583: 85 dd        	sta	$dd                     ; 0x20dd <_ZN12_GLOBAL__N_112print_stringEPKcP6Status+0x3>
    2585: b2 12        	lda	($12)                   ; 0x2012 <_ZN12_GLOBAL__N_13putEcP6Status+0xb>
    2587: 5a           	phy
    2588: a4 12        	ldy	$12                     ; 0x2012 <_ZN12_GLOBAL__N_13putEcP6Status+0xb>
    258a: 84 99        	sty	$99                     ; 0x2099 <_ZN12_GLOBAL__N_13putEcP6Status+0x92>
    258c: a4 13        	ldy	$13                     ; 0x2013 <_ZN12_GLOBAL__N_13putEcP6Status+0xc>
    258e: 84 9a        	sty	$9a                     ; 0x209a <_ZN12_GLOBAL__N_13putEcP6Status+0x93>
    2590: 7a           	ply
    2591: 86 9b        	stx	$9b                     ; 0x209b <_ZN12_GLOBAL__N_13putEcP6Status+0x94>
    2593: aa           	tax
    2594: 18           	clc
    2595: 69 9d        	adc	#$9d
    2597: c9 16        	cmp	#$16
    2599: b0 39        	bcs	$25d4 <printf+0x3ee>
    259b: 0a           	asl
    259c: aa           	tax
    259d: 7c ec 2f     	jmp	($2fec,x)               ; 0x2fec <__set_v+0x1f>
    25a0: a6 15        	ldx	$15                     ; 0x2015 <_ZN12_GLOBAL__N_13putEcP6Status+0xe>
    25a2: 86 e0        	stx	$e0                     ; 0x20e0 <_ZN12_GLOBAL__N_112print_stringEPKcP6Status+0x6>
    25a4: a6 18        	ldx	$18                     ; 0x2018 <_ZN12_GLOBAL__N_13putEcP6Status+0x11>
    25a6: 86 e1        	stx	$e1                     ; 0x20e1 <_ZN12_GLOBAL__N_112print_stringEPKcP6Status+0x7>
    25a8: a0 0a        	ldy	#$a
    25aa: a2 0a        	ldx	#$a
    25ac: 86 dc        	stx	$dc                     ; 0x20dc <_ZN12_GLOBAL__N_112print_stringEPKcP6Status+0x2>
    25ae: 84 c7        	sty	$c7                     ; 0x20c7 <_ZN12_GLOBAL__N_13putEcP6Status+0xc0>
    25b0: 64 a2        	stz	$a2                     ; 0x20a2 <_ZN12_GLOBAL__N_13putEcP6Status+0x9b>
    25b2: 4c d4 26     	jmp	$26d4 <printf+0x4ee>
    25b5: b1 12        	lda	($12),y                 ; 0x2012 <_ZN12_GLOBAL__N_13putEcP6Status+0xb>
    25b7: a2 02        	ldx	#$2
    25b9: c9 68        	cmp	#$68
    25bb: f0 03        	beq	$25c0 <printf+0x3da>
    25bd: 4c ca 28     	jmp	$28ca <printf+0x6e4>
    25c0: a5 12        	lda	$12                     ; 0x2012 <_ZN12_GLOBAL__N_13putEcP6Status+0xb>
    25c2: 18           	clc
    25c3: 69 02        	adc	#$2
    25c5: 85 12        	sta	$12                     ; 0x2012 <_ZN12_GLOBAL__N_13putEcP6Status+0xb>
    25c7: a5 13        	lda	$13                     ; 0x2013 <_ZN12_GLOBAL__N_13putEcP6Status+0xc>
    25c9: 69 00        	adc	#$0
    25cb: 85 13        	sta	$13                     ; 0x2013 <_ZN12_GLOBAL__N_13putEcP6Status+0xc>
    25cd: a2 01        	ldx	#$1
    25cf: 86 dd        	stx	$dd                     ; 0x20dd <_ZN12_GLOBAL__N_112print_stringEPKcP6Status+0x3>
    25d1: e8           	inx
    25d2: 80 b1        	bra	$2585 <printf+0x39f>
    25d4: e0 58        	cpx	#$58
    25d6: f0 03        	beq	$25db <printf+0x3f5>
    25d8: 4c 78 2d     	jmp	$2d78 <printf+0xb92>
    25db: a6 15        	ldx	$15                     ; 0x2015 <_ZN12_GLOBAL__N_13putEcP6Status+0xe>
    25dd: 86 e0        	stx	$e0                     ; 0x20e0 <_ZN12_GLOBAL__N_112print_stringEPKcP6Status+0x6>
    25df: a6 18        	ldx	$18                     ; 0x2018 <_ZN12_GLOBAL__N_13putEcP6Status+0x11>
    25e1: 86 e1        	stx	$e1                     ; 0x20e1 <_ZN12_GLOBAL__N_112print_stringEPKcP6Status+0x7>
    25e3: a2 10        	ldx	#$10
    25e5: 86 c7        	stx	$c7                     ; 0x20c7 <_ZN12_GLOBAL__N_13putEcP6Status+0xc0>
    25e7: a9 00        	lda	#$0
    25e9: 09 01        	ora	#$1
    25eb: a6 98        	ldx	$98                     ; 0x2098 <_ZN12_GLOBAL__N_13putEcP6Status+0x91>
    25ed: 80 29        	bra	$2618 <printf+0x432>
    25ef: a6 15        	ldx	$15                     ; 0x2015 <_ZN12_GLOBAL__N_13putEcP6Status+0xe>
    25f1: 86 e0        	stx	$e0                     ; 0x20e0 <_ZN12_GLOBAL__N_112print_stringEPKcP6Status+0x6>
    25f3: a6 18        	ldx	$18                     ; 0x2018 <_ZN12_GLOBAL__N_13putEcP6Status+0x11>
    25f5: 86 e1        	stx	$e1                     ; 0x20e1 <_ZN12_GLOBAL__N_112print_stringEPKcP6Status+0x7>
    25f7: a2 10        	ldx	#$10
    25f9: 86 c7        	stx	$c7                     ; 0x20c7 <_ZN12_GLOBAL__N_13putEcP6Status+0xc0>
    25fb: a5 98        	lda	$98                     ; 0x2098 <_ZN12_GLOBAL__N_13putEcP6Status+0x91>
    25fd: 09 84        	ora	#$84
    25ff: 80 10        	bra	$2611 <printf+0x42b>
    2601: a6 15        	ldx	$15                     ; 0x2015 <_ZN12_GLOBAL__N_13putEcP6Status+0xe>
    2603: 86 e0        	stx	$e0                     ; 0x20e0 <_ZN12_GLOBAL__N_112print_stringEPKcP6Status+0x6>
    2605: a6 18        	ldx	$18                     ; 0x2018 <_ZN12_GLOBAL__N_13putEcP6Status+0x11>
    2607: 86 e1        	stx	$e1                     ; 0x20e1 <_ZN12_GLOBAL__N_112print_stringEPKcP6Status+0x7>
    2609: a2 10        	ldx	#$10
    260b: 86 c7        	stx	$c7                     ; 0x20c7 <_ZN12_GLOBAL__N_13putEcP6Status+0xc0>
    260d: a5 98        	lda	$98                     ; 0x2098 <_ZN12_GLOBAL__N_13putEcP6Status+0x91>
    260f: 09 80        	ora	#$80
    2611: aa           	tax
    2612: a9 00        	lda	#$0
    2614: 09 01        	ora	#$1
    2616: 86 98        	stx	$98                     ; 0x2098 <_ZN12_GLOBAL__N_13putEcP6Status+0x91>
    2618: 86 c8        	stx	$c8                     ; 0x20c8 <_ZN12_GLOBAL__N_13putEcP6Status+0xc1>
    261a: 85 a2        	sta	$a2                     ; 0x20a2 <_ZN12_GLOBAL__N_13putEcP6Status+0x9b>
    261c: 85 c9        	sta	$c9                     ; 0x20c9 <_ZN12_GLOBAL__N_13putEcP6Status+0xc2>
    261e: a2 10        	ldx	#$10
    2620: 86 dc        	stx	$dc                     ; 0x20dc <_ZN12_GLOBAL__N_112print_stringEPKcP6Status+0x2>
    2622: 4c d4 26     	jmp	$26d4 <printf+0x4ee>
    2625: a5 d8        	lda	$d8                     ; 0x20d8 <_ZN12_GLOBAL__N_13putEcP6Status+0xd1>
    2627: a6 d9        	ldx	$d9                     ; 0x20d9 <_ZN12_GLOBAL__N_13putEcP6Status+0xd2>
    2629: 85 12        	sta	$12                     ; 0x2012 <_ZN12_GLOBAL__N_13putEcP6Status+0xb>
    262b: 86 13        	stx	$13                     ; 0x2013 <_ZN12_GLOBAL__N_13putEcP6Status+0xc>
    262d: 18           	clc
    262e: 69 02        	adc	#$2
    2630: 85 14        	sta	$14                     ; 0x2014 <_ZN12_GLOBAL__N_13putEcP6Status+0xd>
    2632: 8a           	txa
    2633: 69 00        	adc	#$0
    2635: a6 14        	ldx	$14                     ; 0x2014 <_ZN12_GLOBAL__N_13putEcP6Status+0xd>
    2637: 86 d8        	stx	$d8                     ; 0x20d8 <_ZN12_GLOBAL__N_13putEcP6Status+0xd1>
    2639: 85 d9        	sta	$d9                     ; 0x20d9 <_ZN12_GLOBAL__N_13putEcP6Status+0xd2>
    263b: b2 12        	lda	($12)                   ; 0x2012 <_ZN12_GLOBAL__N_13putEcP6Status+0xb>
    263d: aa           	tax
    263e: b1 12        	lda	($12),y                 ; 0x2012 <_ZN12_GLOBAL__N_13putEcP6Status+0xb>
    2640: 86 12        	stx	$12                     ; 0x2012 <_ZN12_GLOBAL__N_13putEcP6Status+0xb>
    2642: 85 13        	sta	$13                     ; 0x2013 <_ZN12_GLOBAL__N_13putEcP6Status+0xc>
    2644: a5 cc        	lda	$cc                     ; 0x20cc <_ZN12_GLOBAL__N_13putEcP6Status+0xc5>
    2646: a6 cd        	ldx	$cd                     ; 0x20cd <_ZN12_GLOBAL__N_13putEcP6Status+0xc6>
    2648: 92 12        	sta	($12)                   ; 0x2012 <_ZN12_GLOBAL__N_13putEcP6Status+0xb>
    264a: 8a           	txa
    264b: 91 12        	sta	($12),y                 ; 0x2012 <_ZN12_GLOBAL__N_13putEcP6Status+0xb>
    264d: 4c ad 26     	jmp	$26ad <printf+0x4c7>
    2650: a5 d8        	lda	$d8                     ; 0x20d8 <_ZN12_GLOBAL__N_13putEcP6Status+0xd1>
    2652: a6 d9        	ldx	$d9                     ; 0x20d9 <_ZN12_GLOBAL__N_13putEcP6Status+0xd2>
    2654: 85 12        	sta	$12                     ; 0x2012 <_ZN12_GLOBAL__N_13putEcP6Status+0xb>
    2656: 86 13        	stx	$13                     ; 0x2013 <_ZN12_GLOBAL__N_13putEcP6Status+0xc>
    2658: 18           	clc
    2659: 69 02        	adc	#$2
    265b: 85 14        	sta	$14                     ; 0x2014 <_ZN12_GLOBAL__N_13putEcP6Status+0xd>
    265d: 8a           	txa
    265e: 69 00        	adc	#$0
    2660: a6 14        	ldx	$14                     ; 0x2014 <_ZN12_GLOBAL__N_13putEcP6Status+0xd>
    2662: 86 d8        	stx	$d8                     ; 0x20d8 <_ZN12_GLOBAL__N_13putEcP6Status+0xd1>
    2664: 85 d9        	sta	$d9                     ; 0x20d9 <_ZN12_GLOBAL__N_13putEcP6Status+0xd2>
    2666: b2 12        	lda	($12)                   ; 0x2012 <_ZN12_GLOBAL__N_13putEcP6Status+0xb>
    2668: aa           	tax
    2669: b1 12        	lda	($12),y                 ; 0x2012 <_ZN12_GLOBAL__N_13putEcP6Status+0xb>
    266b: 86 12        	stx	$12                     ; 0x2012 <_ZN12_GLOBAL__N_13putEcP6Status+0xb>
    266d: 85 13        	sta	$13                     ; 0x2013 <_ZN12_GLOBAL__N_13putEcP6Status+0xc>
    266f: 80 2f        	bra	$26a0 <printf+0x4ba>
    2671: a6 15        	ldx	$15                     ; 0x2015 <_ZN12_GLOBAL__N_13putEcP6Status+0xe>
    2673: 86 e0        	stx	$e0                     ; 0x20e0 <_ZN12_GLOBAL__N_112print_stringEPKcP6Status+0x6>
    2675: a6 18        	ldx	$18                     ; 0x2018 <_ZN12_GLOBAL__N_13putEcP6Status+0x11>
    2677: 86 e1        	stx	$e1                     ; 0x20e1 <_ZN12_GLOBAL__N_112print_stringEPKcP6Status+0x7>
    2679: a0 08        	ldy	#$8
    267b: a2 08        	ldx	#$8
    267d: 80 45        	bra	$26c4 <printf+0x4de>
    267f: a5 d8        	lda	$d8                     ; 0x20d8 <_ZN12_GLOBAL__N_13putEcP6Status+0xd1>
    2681: a6 d9        	ldx	$d9                     ; 0x20d9 <_ZN12_GLOBAL__N_13putEcP6Status+0xd2>
    2683: 85 12        	sta	$12                     ; 0x2012 <_ZN12_GLOBAL__N_13putEcP6Status+0xb>
    2685: 86 13        	stx	$13                     ; 0x2013 <_ZN12_GLOBAL__N_13putEcP6Status+0xc>
    2687: 18           	clc
    2688: 69 02        	adc	#$2
    268a: a8           	tay
    268b: 8a           	txa
    268c: 69 00        	adc	#$0
    268e: 84 d8        	sty	$d8                     ; 0x20d8 <_ZN12_GLOBAL__N_13putEcP6Status+0xd1>
    2690: 85 d9        	sta	$d9                     ; 0x20d9 <_ZN12_GLOBAL__N_13putEcP6Status+0xd2>
    2692: b2 12        	lda	($12)                   ; 0x2012 <_ZN12_GLOBAL__N_13putEcP6Status+0xb>
    2694: 85 ba        	sta	$ba                     ; 0x20ba <_ZN12_GLOBAL__N_13putEcP6Status+0xb3>
    2696: 64 bb        	stz	$bb                     ; 0x20bb <_ZN12_GLOBAL__N_13putEcP6Status+0xb4>
    2698: a2 ba        	ldx	#$ba
    269a: 86 12        	stx	$12                     ; 0x2012 <_ZN12_GLOBAL__N_13putEcP6Status+0xb>
    269c: a2 00        	ldx	#$0
    269e: 86 13        	stx	$13                     ; 0x2013 <_ZN12_GLOBAL__N_13putEcP6Status+0xc>
    26a0: a2 c7        	ldx	#$c7
    26a2: 86 14        	stx	$14                     ; 0x2014 <_ZN12_GLOBAL__N_13putEcP6Status+0xd>
    26a4: a2 00        	ldx	#$0
    26a6: 86 15        	stx	$15                     ; 0x2015 <_ZN12_GLOBAL__N_13putEcP6Status+0xe>
    26a8: 20 da 20     	jsr	$20da <_ZN12_GLOBAL__N_112print_stringEPKcP6Status>
    26ab: a0 01        	ldy	#$1
    26ad: a2 00        	ldx	#$0
    26af: 86 9b        	stx	$9b                     ; 0x209b <_ZN12_GLOBAL__N_13putEcP6Status+0x94>
    26b1: a2 00        	ldx	#$0
    26b3: 86 9c        	stx	$9c                     ; 0x209c <_ZN12_GLOBAL__N_13putEcP6Status+0x95>
    26b5: 4c 60 2d     	jmp	$2d60 <printf+0xb7a>
    26b8: a6 15        	ldx	$15                     ; 0x2015 <_ZN12_GLOBAL__N_13putEcP6Status+0xe>
    26ba: 86 e0        	stx	$e0                     ; 0x20e0 <_ZN12_GLOBAL__N_112print_stringEPKcP6Status+0x6>
    26bc: a6 18        	ldx	$18                     ; 0x2018 <_ZN12_GLOBAL__N_13putEcP6Status+0x11>
    26be: 86 e1        	stx	$e1                     ; 0x20e1 <_ZN12_GLOBAL__N_112print_stringEPKcP6Status+0x7>
    26c0: a0 0a        	ldy	#$a
    26c2: a2 0a        	ldx	#$a
    26c4: 86 dc        	stx	$dc                     ; 0x20dc <_ZN12_GLOBAL__N_112print_stringEPKcP6Status+0x2>
    26c6: 84 c7        	sty	$c7                     ; 0x20c7 <_ZN12_GLOBAL__N_13putEcP6Status+0xc0>
    26c8: a9 00        	lda	#$0
    26ca: 09 01        	ora	#$1
    26cc: a6 98        	ldx	$98                     ; 0x2098 <_ZN12_GLOBAL__N_13putEcP6Status+0x91>
    26ce: 86 c8        	stx	$c8                     ; 0x20c8 <_ZN12_GLOBAL__N_13putEcP6Status+0xc1>
    26d0: 85 a2        	sta	$a2                     ; 0x20a2 <_ZN12_GLOBAL__N_13putEcP6Status+0x9b>
    26d2: 85 c9        	sta	$c9                     ; 0x20c9 <_ZN12_GLOBAL__N_13putEcP6Status+0xc2>
    26d4: a5 dd        	lda	$dd                     ; 0x20dd <_ZN12_GLOBAL__N_112print_stringEPKcP6Status+0x3>
    26d6: 85 bc        	sta	$bc                     ; 0x20bc <_ZN12_GLOBAL__N_13putEcP6Status+0xb5>
    26d8: a4 d8        	ldy	$d8                     ; 0x20d8 <_ZN12_GLOBAL__N_13putEcP6Status+0xd1>
    26da: a6 d9        	ldx	$d9                     ; 0x20d9 <_ZN12_GLOBAL__N_13putEcP6Status+0xd2>
    26dc: 86 a0        	stx	$a0                     ; 0x20a0 <_ZN12_GLOBAL__N_13putEcP6Status+0x99>
    26de: 84 14        	sty	$14                     ; 0x2014 <_ZN12_GLOBAL__N_13putEcP6Status+0xd>
    26e0: 84 97        	sty	$97                     ; 0x2097 <_ZN12_GLOBAL__N_13putEcP6Status+0x90>
    26e2: 86 15        	stx	$15                     ; 0x2015 <_ZN12_GLOBAL__N_13putEcP6Status+0xe>
    26e4: a6 de        	ldx	$de                     ; 0x20de <_ZN12_GLOBAL__N_112print_stringEPKcP6Status+0x4>
    26e6: 86 12        	stx	$12                     ; 0x2012 <_ZN12_GLOBAL__N_13putEcP6Status+0xb>
    26e8: a6 df        	ldx	$df                     ; 0x20df <_ZN12_GLOBAL__N_112print_stringEPKcP6Status+0x5>
    26ea: 86 13        	stx	$13                     ; 0x2013 <_ZN12_GLOBAL__N_13putEcP6Status+0xc>
    26ec: a2 00        	ldx	#$0
    26ee: 85 9c        	sta	$9c                     ; 0x209c <_ZN12_GLOBAL__N_13putEcP6Status+0x95>
    26f0: 20 81 2f     	jsr	$2f81 <memcpy>
    26f3: 18           	clc
    26f4: a5 97        	lda	$97                     ; 0x2097 <_ZN12_GLOBAL__N_13putEcP6Status+0x90>
    26f6: 65 9b        	adc	$9b                     ; 0x209b <_ZN12_GLOBAL__N_13putEcP6Status+0x94>
    26f8: aa           	tax
    26f9: a5 a0        	lda	$a0                     ; 0x20a0 <_ZN12_GLOBAL__N_13putEcP6Status+0x99>
    26fb: 69 00        	adc	#$0
    26fd: 86 d8        	stx	$d8                     ; 0x20d8 <_ZN12_GLOBAL__N_13putEcP6Status+0xd1>
    26ff: 85 d9        	sta	$d9                     ; 0x20d9 <_ZN12_GLOBAL__N_13putEcP6Status+0xd2>
    2701: a5 a2        	lda	$a2                     ; 0x20a2 <_ZN12_GLOBAL__N_13putEcP6Status+0x9b>
    2703: 29 01        	and	#$1
    2705: b8           	clv
    2706: f0 03        	beq	$270b <printf+0x525>
    2708: 4c 5f 27     	jmp	$275f <printf+0x579>
    270b: a6 9c        	ldx	$9c                     ; 0x209c <_ZN12_GLOBAL__N_13putEcP6Status+0x95>
    270d: b5 bc        	lda	$bc,x                   ; 0x20bc <_ZN12_GLOBAL__N_13putEcP6Status+0xb5>
    270f: aa           	tax
    2710: a0 01        	ldy	#$1
    2712: a5 9f        	lda	$9f                     ; 0x209f <_ZN12_GLOBAL__N_13putEcP6Status+0x98>
    2714: 85 1a        	sta	$1a                     ; 0x201a <_ZN12_GLOBAL__N_13putEcP6Status+0x13>
    2716: a5 e1        	lda	$e1                     ; 0x20e1 <_ZN12_GLOBAL__N_112print_stringEPKcP6Status+0x7>
    2718: 85 9f        	sta	$9f                     ; 0x209f <_ZN12_GLOBAL__N_13putEcP6Status+0x98>
    271a: a9 00        	lda	#$0
    271c: 85 9b        	sta	$9b                     ; 0x209b <_ZN12_GLOBAL__N_13putEcP6Status+0x94>
    271e: a9 00        	lda	#$0
    2720: 85 9c        	sta	$9c                     ; 0x209c <_ZN12_GLOBAL__N_13putEcP6Status+0x95>
    2722: a5 e0        	lda	$e0                     ; 0x20e0 <_ZN12_GLOBAL__N_112print_stringEPKcP6Status+0x6>
    2724: 85 a0        	sta	$a0                     ; 0x20a0 <_ZN12_GLOBAL__N_13putEcP6Status+0x99>
    2726: 8a           	txa
    2727: 10 4c        	bpl	$2775 <printf+0x58f>
    2729: a2 00        	ldx	#$0
    272b: 64 12        	stz	$12                     ; 0x2012 <_ZN12_GLOBAL__N_13putEcP6Status+0xb>
    272d: a9 00        	lda	#$0
    272f: 38           	sec
    2730: f5 bd        	sbc	$bd,x                   ; 0x20bd <_ZN12_GLOBAL__N_13putEcP6Status+0xb6>
    2732: a0 00        	ldy	#$0
    2734: b0 02        	bcs	$2738 <printf+0x552>
    2736: a0 01        	ldy	#$1
    2738: 38           	sec
    2739: e5 12        	sbc	$12                     ; 0x2012 <_ZN12_GLOBAL__N_13putEcP6Status+0xb>
    273b: 85 13        	sta	$13                     ; 0x2013 <_ZN12_GLOBAL__N_13putEcP6Status+0xc>
    273d: 64 12        	stz	$12                     ; 0x2012 <_ZN12_GLOBAL__N_13putEcP6Status+0xb>
    273f: b0 04        	bcs	$2745 <printf+0x55f>
    2741: a9 01        	lda	#$1
    2743: 85 12        	sta	$12                     ; 0x2012 <_ZN12_GLOBAL__N_13putEcP6Status+0xb>
    2745: 98           	tya
    2746: 05 12        	ora	$12                     ; 0x2012 <_ZN12_GLOBAL__N_13putEcP6Status+0xb>
    2748: 85 12        	sta	$12                     ; 0x2012 <_ZN12_GLOBAL__N_13putEcP6Status+0xb>
    274a: a5 13        	lda	$13                     ; 0x2013 <_ZN12_GLOBAL__N_13putEcP6Status+0xc>
    274c: 9d bd 00     	sta	$bd,x                   ; 0xbd <__zp_bss_size+0x58>
    274f: e8           	inx
    2750: 86 13        	stx	$13                     ; 0x2013 <_ZN12_GLOBAL__N_13putEcP6Status+0xc>
    2752: a4 dd        	ldy	$dd                     ; 0x20dd <_ZN12_GLOBAL__N_112print_stringEPKcP6Status+0x3>
    2754: c4 13        	cpy	$13                     ; 0x2013 <_ZN12_GLOBAL__N_13putEcP6Status+0xc>
    2756: d0 d5        	bne	$272d <printf+0x547>
    2758: 2c cd 2f     	bit	$2fcd                   ; 0x2fcd <__set_v>
    275b: a0 01        	ldy	#$1
    275d: 80 16        	bra	$2775 <printf+0x58f>
    275f: a0 01        	ldy	#$1
    2761: a6 9f        	ldx	$9f                     ; 0x209f <_ZN12_GLOBAL__N_13putEcP6Status+0x98>
    2763: 86 1a        	stx	$1a                     ; 0x201a <_ZN12_GLOBAL__N_13putEcP6Status+0x13>
    2765: a6 e1        	ldx	$e1                     ; 0x20e1 <_ZN12_GLOBAL__N_112print_stringEPKcP6Status+0x7>
    2767: 86 9f        	stx	$9f                     ; 0x209f <_ZN12_GLOBAL__N_13putEcP6Status+0x98>
    2769: a2 00        	ldx	#$0
    276b: 86 9b        	stx	$9b                     ; 0x209b <_ZN12_GLOBAL__N_13putEcP6Status+0x94>
    276d: a2 00        	ldx	#$0
    276f: 86 9c        	stx	$9c                     ; 0x209c <_ZN12_GLOBAL__N_13putEcP6Status+0x95>
    2771: a6 e0        	ldx	$e0                     ; 0x20e0 <_ZN12_GLOBAL__N_112print_stringEPKcP6Status+0x6>
    2773: 86 a0        	stx	$a0                     ; 0x20a0 <_ZN12_GLOBAL__N_13putEcP6Status+0x99>
    2775: a2 01        	ldx	#$1
    2777: 70 02        	bvs	$277b <printf+0x595>
    2779: a2 00        	ldx	#$0
    277b: 86 16        	stx	$16                     ; 0x2016 <_ZN12_GLOBAL__N_13putEcP6Status+0xf>
    277d: a5 dd        	lda	$dd                     ; 0x20dd <_ZN12_GLOBAL__N_112print_stringEPKcP6Status+0x3>
    277f: 0a           	asl
    2780: 0a           	asl
    2781: 0a           	asl
    2782: 85 12        	sta	$12                     ; 0x2012 <_ZN12_GLOBAL__N_13putEcP6Status+0xb>
    2784: a2 00        	ldx	#$0
    2786: 8a           	txa
    2787: e0 00        	cpx	#$0
    2789: d0 03        	bne	$278e <printf+0x5a8>
    278b: 4c 13 28     	jmp	$2813 <printf+0x62d>
    278e: 85 17        	sta	$17                     ; 0x2017 <_ZN12_GLOBAL__N_13putEcP6Status+0x10>
    2790: 86 97        	stx	$97                     ; 0x2097 <_ZN12_GLOBAL__N_13putEcP6Status+0x90>
    2792: ca           	dex
    2793: 86 15        	stx	$15                     ; 0x2015 <_ZN12_GLOBAL__N_13putEcP6Status+0xe>
    2795: a2 00        	ldx	#$0
    2797: 64 13        	stz	$13                     ; 0x2013 <_ZN12_GLOBAL__N_13putEcP6Status+0xc>
    2799: 80 0d        	bra	$27a8 <printf+0x5c2>
    279b: a4 13        	ldy	$13                     ; 0x2013 <_ZN12_GLOBAL__N_13putEcP6Status+0xc>
    279d: 99 a5 00     	sta	$a5,y                   ; 0xa5 <__zp_bss_size+0x40>
    27a0: a4 15        	ldy	$15                     ; 0x2015 <_ZN12_GLOBAL__N_13putEcP6Status+0xe>
    27a2: c4 13        	cpy	$13                     ; 0x2013 <_ZN12_GLOBAL__N_13putEcP6Status+0xc>
    27a4: f0 38        	beq	$27de <printf+0x5f8>
    27a6: e6 13        	inc	$13                     ; 0x2013 <_ZN12_GLOBAL__N_13putEcP6Status+0xc>
    27a8: a4 13        	ldy	$13                     ; 0x2013 <_ZN12_GLOBAL__N_13putEcP6Status+0xc>
    27aa: b9 a5 00     	lda	$a5,y                   ; 0xa5 <__zp_bss_size+0x40>
    27ad: 0a           	asl
    27ae: e0 00        	cpx	#$0
    27b0: f0 02        	beq	$27b4 <printf+0x5ce>
    27b2: 09 01        	ora	#$1
    27b4: a4 dc        	ldy	$dc                     ; 0x20dc <_ZN12_GLOBAL__N_112print_stringEPKcP6Status+0x2>
    27b6: 84 14        	sty	$14                     ; 0x2014 <_ZN12_GLOBAL__N_13putEcP6Status+0xd>
    27b8: c5 14        	cmp	$14                     ; 0x2014 <_ZN12_GLOBAL__N_13putEcP6Status+0xd>
    27ba: a2 01        	ldx	#$1
    27bc: b0 02        	bcs	$27c0 <printf+0x5da>
    27be: a2 00        	ldx	#$0
    27c0: 90 d9        	bcc	$279b <printf+0x5b5>
    27c2: 84 14        	sty	$14                     ; 0x2014 <_ZN12_GLOBAL__N_13putEcP6Status+0xd>
    27c4: 38           	sec
    27c5: e5 14        	sbc	$14                     ; 0x2014 <_ZN12_GLOBAL__N_13putEcP6Status+0xd>
    27c7: a4 13        	ldy	$13                     ; 0x2013 <_ZN12_GLOBAL__N_13putEcP6Status+0xc>
    27c9: 99 a5 00     	sta	$a5,y                   ; 0xa5 <__zp_bss_size+0x40>
    27cc: a4 15        	ldy	$15                     ; 0x2015 <_ZN12_GLOBAL__N_13putEcP6Status+0xe>
    27ce: c4 13        	cpy	$13                     ; 0x2013 <_ZN12_GLOBAL__N_13putEcP6Status+0xc>
    27d0: d0 d4        	bne	$27a6 <printf+0x5c0>
    27d2: a4 97        	ldy	$97                     ; 0x2097 <_ZN12_GLOBAL__N_13putEcP6Status+0x90>
    27d4: a6 97        	ldx	$97                     ; 0x2097 <_ZN12_GLOBAL__N_13putEcP6Status+0x90>
    27d6: e8           	inx
    27d7: a9 01        	lda	#$1
    27d9: 99 a5 00     	sta	$a5,y                   ; 0xa5 <__zp_bss_size+0x40>
    27dc: 86 97        	stx	$97                     ; 0x2097 <_ZN12_GLOBAL__N_13putEcP6Status+0x90>
    27de: a6 dd        	ldx	$dd                     ; 0x20dd <_ZN12_GLOBAL__N_112print_stringEPKcP6Status+0x3>
    27e0: b5 bc        	lda	$bc,x                   ; 0x20bc <_ZN12_GLOBAL__N_13putEcP6Status+0xb5>
    27e2: aa           	tax
    27e3: a0 01        	ldy	#$1
    27e5: 8a           	txa
    27e6: 10 47        	bpl	$282f <printf+0x649>
    27e8: a5 97        	lda	$97                     ; 0x2097 <_ZN12_GLOBAL__N_13putEcP6Status+0x90>
    27ea: f0 34        	beq	$2820 <printf+0x63a>
    27ec: a2 00        	ldx	#$0
    27ee: a4 dc        	ldy	$dc                     ; 0x20dc <_ZN12_GLOBAL__N_112print_stringEPKcP6Status+0x2>
    27f0: 84 14        	sty	$14                     ; 0x2014 <_ZN12_GLOBAL__N_13putEcP6Status+0xd>
    27f2: b5 a5        	lda	$a5,x                   ; 0x20a5 <_ZN12_GLOBAL__N_13putEcP6Status+0x9e>
    27f4: 1a           	inc
    27f5: f6 a5        	inc	$a5,x                   ; 0x20a5 <_ZN12_GLOBAL__N_13putEcP6Status+0x9e>
    27f7: c5 14        	cmp	$14                     ; 0x2014 <_ZN12_GLOBAL__N_13putEcP6Status+0xd>
    27f9: b0 03        	bcs	$27fe <printf+0x618>
    27fb: 4c 5a 28     	jmp	$285a <printf+0x674>
    27fe: a4 14        	ldy	$14                     ; 0x2014 <_ZN12_GLOBAL__N_13putEcP6Status+0xd>
    2800: 84 13        	sty	$13                     ; 0x2013 <_ZN12_GLOBAL__N_13putEcP6Status+0xc>
    2802: 38           	sec
    2803: e5 13        	sbc	$13                     ; 0x2013 <_ZN12_GLOBAL__N_13putEcP6Status+0xc>
    2805: 9d a5 00     	sta	$a5,x                   ; 0xa5 <__zp_bss_size+0x40>
    2808: e8           	inx
    2809: 86 13        	stx	$13                     ; 0x2013 <_ZN12_GLOBAL__N_13putEcP6Status+0xc>
    280b: a4 97        	ldy	$97                     ; 0x2097 <_ZN12_GLOBAL__N_13putEcP6Status+0x90>
    280d: c4 13        	cpy	$13                     ; 0x2013 <_ZN12_GLOBAL__N_13putEcP6Status+0xc>
    280f: d0 e1        	bne	$27f2 <printf+0x60c>
    2811: 80 0f        	bra	$2822 <printf+0x63c>
    2813: 85 17        	sta	$17                     ; 0x2017 <_ZN12_GLOBAL__N_13putEcP6Status+0x10>
    2815: a6 dd        	ldx	$dd                     ; 0x20dd <_ZN12_GLOBAL__N_112print_stringEPKcP6Status+0x3>
    2817: b5 bc        	lda	$bc,x                   ; 0x20bc <_ZN12_GLOBAL__N_13putEcP6Status+0xb5>
    2819: aa           	tax
    281a: 64 97        	stz	$97                     ; 0x2097 <_ZN12_GLOBAL__N_13putEcP6Status+0x90>
    281c: 30 04        	bmi	$2822 <printf+0x63c>
    281e: 80 0f        	bra	$282f <printf+0x649>
    2820: 64 97        	stz	$97                     ; 0x2097 <_ZN12_GLOBAL__N_13putEcP6Status+0x90>
    2822: a4 97        	ldy	$97                     ; 0x2097 <_ZN12_GLOBAL__N_13putEcP6Status+0x90>
    2824: a6 97        	ldx	$97                     ; 0x2097 <_ZN12_GLOBAL__N_13putEcP6Status+0x90>
    2826: e8           	inx
    2827: a9 01        	lda	#$1
    2829: 99 a5 00     	sta	$a5,y                   ; 0xa5 <__zp_bss_size+0x40>
    282c: a8           	tay
    282d: 86 97        	stx	$97                     ; 0x2097 <_ZN12_GLOBAL__N_13putEcP6Status+0x90>
    282f: a2 01        	ldx	#$1
    2831: 64 13        	stz	$13                     ; 0x2013 <_ZN12_GLOBAL__N_13putEcP6Status+0xc>
    2833: a5 dd        	lda	$dd                     ; 0x20dd <_ZN12_GLOBAL__N_112print_stringEPKcP6Status+0x3>
    2835: 85 14        	sta	$14                     ; 0x2014 <_ZN12_GLOBAL__N_13putEcP6Status+0xd>
    2837: b5 bc        	lda	$bc,x                   ; 0x20bc <_ZN12_GLOBAL__N_13putEcP6Status+0xb5>
    2839: 0a           	asl
    283a: 64 15        	stz	$15                     ; 0x2015 <_ZN12_GLOBAL__N_13putEcP6Status+0xe>
    283c: 26 15        	rol	$15                     ; 0x2015 <_ZN12_GLOBAL__N_13putEcP6Status+0xe>
    283e: 05 13        	ora	$13                     ; 0x2013 <_ZN12_GLOBAL__N_13putEcP6Status+0xc>
    2840: 9d bc 00     	sta	$bc,x                   ; 0xbc <__zp_bss_size+0x57>
    2843: e8           	inx
    2844: c6 14        	dec	$14                     ; 0x2014 <_ZN12_GLOBAL__N_13putEcP6Status+0xd>
    2846: a5 15        	lda	$15                     ; 0x2015 <_ZN12_GLOBAL__N_13putEcP6Status+0xe>
    2848: 85 13        	sta	$13                     ; 0x2013 <_ZN12_GLOBAL__N_13putEcP6Status+0xc>
    284a: a5 14        	lda	$14                     ; 0x2014 <_ZN12_GLOBAL__N_13putEcP6Status+0xd>
    284c: d0 e9        	bne	$2837 <printf+0x651>
    284e: a5 17        	lda	$17                     ; 0x2017 <_ZN12_GLOBAL__N_13putEcP6Status+0x10>
    2850: 1a           	inc
    2851: c5 12        	cmp	$12                     ; 0x2012 <_ZN12_GLOBAL__N_13putEcP6Status+0xb>
    2853: a6 97        	ldx	$97                     ; 0x2097 <_ZN12_GLOBAL__N_13putEcP6Status+0x90>
    2855: b0 07        	bcs	$285e <printf+0x678>
    2857: 4c 87 27     	jmp	$2787 <printf+0x5a1>
    285a: a0 01        	ldy	#$1
    285c: 80 d1        	bra	$282f <printf+0x649>
    285e: a5 98        	lda	$98                     ; 0x2098 <_ZN12_GLOBAL__N_13putEcP6Status+0x91>
    2860: e6 a0        	inc	$a0                     ; 0x20a0 <_ZN12_GLOBAL__N_13putEcP6Status+0x99>
    2862: c6 a0        	dec	$a0                     ; 0x20a0 <_ZN12_GLOBAL__N_13putEcP6Status+0x99>
    2864: 10 08        	bpl	$286e <printf+0x688>
    2866: a2 01        	ldx	#$1
    2868: 64 a0        	stz	$a0                     ; 0x20a0 <_ZN12_GLOBAL__N_13putEcP6Status+0x99>
    286a: 86 9f        	stx	$9f                     ; 0x209f <_ZN12_GLOBAL__N_13putEcP6Status+0x98>
    286c: a6 97        	ldx	$97                     ; 0x2097 <_ZN12_GLOBAL__N_13putEcP6Status+0x90>
    286e: 29 04        	and	#$4
    2870: f0 2b        	beq	$289d <printf+0x6b7>
    2872: a5 dc        	lda	$dc                     ; 0x20dc <_ZN12_GLOBAL__N_112print_stringEPKcP6Status+0x2>
    2874: c9 10        	cmp	#$10
    2876: f0 14        	beq	$288c <printf+0x6a6>
    2878: c9 08        	cmp	#$8
    287a: d0 21        	bne	$289d <printf+0x6b7>
    287c: a2 00        	ldx	#$0
    287e: e4 a0        	cpx	$a0                     ; 0x20a0 <_ZN12_GLOBAL__N_13putEcP6Status+0x99>
    2880: f0 03        	beq	$2885 <printf+0x69f>
    2882: 4c 87 2d     	jmp	$2d87 <printf+0xba1>
    2885: a6 97        	ldx	$97                     ; 0x2097 <_ZN12_GLOBAL__N_13putEcP6Status+0x90>
    2887: e4 9f        	cpx	$9f                     ; 0x209f <_ZN12_GLOBAL__N_13putEcP6Status+0x98>
    2889: 4c 89 2d     	jmp	$2d89 <printf+0xba3>
    288c: 8a           	txa
    288d: f0 0e        	beq	$289d <printf+0x6b7>
    288f: a5 98        	lda	$98                     ; 0x2098 <_ZN12_GLOBAL__N_13putEcP6Status+0x91>
    2891: 29 80        	and	#$80
    2893: d0 03        	bne	$2898 <printf+0x6b2>
    2895: 4c a2 2d     	jmp	$2da2 <printf+0xbbc>
    2898: a2 78        	ldx	#$78
    289a: 4c a4 2d     	jmp	$2da4 <printf+0xbbe>
    289d: a6 98        	ldx	$98                     ; 0x2098 <_ZN12_GLOBAL__N_13putEcP6Status+0x91>
    289f: a9 2d        	lda	#$2d
    28a1: 85 e0        	sta	$e0                     ; 0x20e0 <_ZN12_GLOBAL__N_112print_stringEPKcP6Status+0x6>
    28a3: a5 16        	lda	$16                     ; 0x2016 <_ZN12_GLOBAL__N_13putEcP6Status+0xf>
    28a5: d0 32        	bne	$28d9 <printf+0x6f3>
    28a7: 86 12        	stx	$12                     ; 0x2012 <_ZN12_GLOBAL__N_13putEcP6Status+0xb>
    28a9: 8a           	txa
    28aa: 29 02        	and	#$2
    28ac: a2 2b        	ldx	#$2b
    28ae: 86 e0        	stx	$e0                     ; 0x20e0 <_ZN12_GLOBAL__N_112print_stringEPKcP6Status+0x6>
    28b0: aa           	tax
    28b1: d0 26        	bne	$28d9 <printf+0x6f3>
    28b3: a5 12        	lda	$12                     ; 0x2012 <_ZN12_GLOBAL__N_13putEcP6Status+0xb>
    28b5: 29 08        	and	#$8
    28b7: d0 1c        	bne	$28d5 <printf+0x6ef>
    28b9: a2 01        	ldx	#$1
    28bb: 86 dd        	stx	$dd                     ; 0x20dd <_ZN12_GLOBAL__N_112print_stringEPKcP6Status+0x3>
    28bd: a9 00        	lda	#$0
    28bf: aa           	tax
    28c0: 86 dc        	stx	$dc                     ; 0x20dc <_ZN12_GLOBAL__N_112print_stringEPKcP6Status+0x2>
    28c2: 80 1c        	bra	$28e0 <printf+0x6fa>
    28c4: 85 12        	sta	$12                     ; 0x2012 <_ZN12_GLOBAL__N_13putEcP6Status+0xb>
    28c6: a9 04        	lda	#$4
    28c8: 80 04        	bra	$28ce <printf+0x6e8>
    28ca: 85 12        	sta	$12                     ; 0x2012 <_ZN12_GLOBAL__N_13putEcP6Status+0xb>
    28cc: a9 02        	lda	#$2
    28ce: 85 dd        	sta	$dd                     ; 0x20dd <_ZN12_GLOBAL__N_112print_stringEPKcP6Status+0x3>
    28d0: a5 12        	lda	$12                     ; 0x2012 <_ZN12_GLOBAL__N_13putEcP6Status+0xb>
    28d2: 4c 91 25     	jmp	$2591 <printf+0x3ab>
    28d5: a2 20        	ldx	#$20
    28d7: 86 e0        	stx	$e0                     ; 0x20e0 <_ZN12_GLOBAL__N_112print_stringEPKcP6Status+0x6>
    28d9: a2 00        	ldx	#$0
    28db: 86 dd        	stx	$dd                     ; 0x20dd <_ZN12_GLOBAL__N_112print_stringEPKcP6Status+0x3>
    28dd: 86 dc        	stx	$dc                     ; 0x20dc <_ZN12_GLOBAL__N_112print_stringEPKcP6Status+0x2>
    28df: 98           	tya
    28e0: a6 a0        	ldx	$a0                     ; 0x20a0 <_ZN12_GLOBAL__N_13putEcP6Status+0x99>
    28e2: d0 35        	bne	$2919 <printf+0x733>
    28e4: a6 9f        	ldx	$9f                     ; 0x209f <_ZN12_GLOBAL__N_13putEcP6Status+0x98>
    28e6: a4 97        	ldy	$97                     ; 0x2097 <_ZN12_GLOBAL__N_13putEcP6Status+0x90>
    28e8: 84 12        	sty	$12                     ; 0x2012 <_ZN12_GLOBAL__N_13putEcP6Status+0xb>
    28ea: e4 12        	cpx	$12                     ; 0x2012 <_ZN12_GLOBAL__N_13putEcP6Status+0xb>
    28ec: a6 9f        	ldx	$9f                     ; 0x209f <_ZN12_GLOBAL__N_13putEcP6Status+0x98>
    28ee: 86 12        	stx	$12                     ; 0x2012 <_ZN12_GLOBAL__N_13putEcP6Status+0xb>
    28f0: a6 a0        	ldx	$a0                     ; 0x20a0 <_ZN12_GLOBAL__N_13putEcP6Status+0x99>
    28f2: 86 13        	stx	$13                     ; 0x2013 <_ZN12_GLOBAL__N_13putEcP6Status+0xc>
    28f4: b0 04        	bcs	$28fa <printf+0x714>
    28f6: 84 12        	sty	$12                     ; 0x2012 <_ZN12_GLOBAL__N_13putEcP6Status+0xb>
    28f8: 64 13        	stz	$13                     ; 0x2013 <_ZN12_GLOBAL__N_13putEcP6Status+0xc>
    28fa: 85 18        	sta	$18                     ; 0x2018 <_ZN12_GLOBAL__N_13putEcP6Status+0x11>
    28fc: 18           	clc
    28fd: 65 12        	adc	$12                     ; 0x2012 <_ZN12_GLOBAL__N_13putEcP6Status+0xb>
    28ff: 85 16        	sta	$16                     ; 0x2016 <_ZN12_GLOBAL__N_13putEcP6Status+0xf>
    2901: 85 14        	sta	$14                     ; 0x2014 <_ZN12_GLOBAL__N_13putEcP6Status+0xd>
    2903: a5 13        	lda	$13                     ; 0x2013 <_ZN12_GLOBAL__N_13putEcP6Status+0xc>
    2905: 69 00        	adc	#$0
    2907: 85 15        	sta	$15                     ; 0x2015 <_ZN12_GLOBAL__N_13putEcP6Status+0xe>
    2909: c5 1a        	cmp	$1a                     ; 0x201a <_ZN12_GLOBAL__N_13putEcP6Status+0x13>
    290b: d0 1e        	bne	$292b <printf+0x745>
    290d: a6 1a        	ldx	$1a                     ; 0x201a <_ZN12_GLOBAL__N_13putEcP6Status+0x13>
    290f: 86 17        	stx	$17                     ; 0x2017 <_ZN12_GLOBAL__N_13putEcP6Status+0x10>
    2911: a6 a1        	ldx	$a1                     ; 0x20a1 <_ZN12_GLOBAL__N_13putEcP6Status+0x9a>
    2913: a5 16        	lda	$16                     ; 0x2016 <_ZN12_GLOBAL__N_13putEcP6Status+0xf>
    2915: c5 a1        	cmp	$a1                     ; 0x20a1 <_ZN12_GLOBAL__N_13putEcP6Status+0x9a>
    2917: 80 1c        	bra	$2935 <printf+0x74f>
    2919: a6 a0        	ldx	$a0                     ; 0x20a0 <_ZN12_GLOBAL__N_13putEcP6Status+0x99>
    291b: e0 00        	cpx	#$0
    291d: a6 9f        	ldx	$9f                     ; 0x209f <_ZN12_GLOBAL__N_13putEcP6Status+0x98>
    291f: 86 12        	stx	$12                     ; 0x2012 <_ZN12_GLOBAL__N_13putEcP6Status+0xb>
    2921: a6 a0        	ldx	$a0                     ; 0x20a0 <_ZN12_GLOBAL__N_13putEcP6Status+0x99>
    2923: 86 13        	stx	$13                     ; 0x2013 <_ZN12_GLOBAL__N_13putEcP6Status+0xc>
    2925: a4 97        	ldy	$97                     ; 0x2097 <_ZN12_GLOBAL__N_13putEcP6Status+0x90>
    2927: 90 cd        	bcc	$28f6 <printf+0x710>
    2929: 80 cf        	bra	$28fa <printf+0x714>
    292b: a6 a1        	ldx	$a1                     ; 0x20a1 <_ZN12_GLOBAL__N_13putEcP6Status+0x9a>
    292d: 5a           	phy
    292e: a4 1a        	ldy	$1a                     ; 0x201a <_ZN12_GLOBAL__N_13putEcP6Status+0x13>
    2930: 84 17        	sty	$17                     ; 0x2017 <_ZN12_GLOBAL__N_13putEcP6Status+0x10>
    2932: 7a           	ply
    2933: c5 1a        	cmp	$1a                     ; 0x201a <_ZN12_GLOBAL__N_13putEcP6Status+0x13>
    2935: 64 a2        	stz	$a2                     ; 0x20a2 <_ZN12_GLOBAL__N_13putEcP6Status+0x9b>
    2937: 64 a1        	stz	$a1                     ; 0x20a1 <_ZN12_GLOBAL__N_13putEcP6Status+0x9a>
    2939: 90 03        	bcc	$293e <printf+0x758>
    293b: 4c d9 29     	jmp	$29d9 <printf+0x7f3>
    293e: a5 98        	lda	$98                     ; 0x2098 <_ZN12_GLOBAL__N_13putEcP6Status+0x91>
    2940: 29 11        	and	#$11
    2942: 86 16        	stx	$16                     ; 0x2016 <_ZN12_GLOBAL__N_13putEcP6Status+0xf>
    2944: f0 0f        	beq	$2955 <printf+0x76f>
    2946: 8a           	txa
    2947: 38           	sec
    2948: e5 14        	sbc	$14                     ; 0x2014 <_ZN12_GLOBAL__N_13putEcP6Status+0xd>
    294a: 85 a2        	sta	$a2                     ; 0x20a2 <_ZN12_GLOBAL__N_13putEcP6Status+0x9b>
    294c: a5 1a        	lda	$1a                     ; 0x201a <_ZN12_GLOBAL__N_13putEcP6Status+0x13>
    294e: e5 15        	sbc	$15                     ; 0x2015 <_ZN12_GLOBAL__N_13putEcP6Status+0xe>
    2950: 85 a1        	sta	$a1                     ; 0x20a1 <_ZN12_GLOBAL__N_13putEcP6Status+0x9a>
    2952: 4c d9 29     	jmp	$29d9 <printf+0x7f3>
    2955: a6 cc        	ldx	$cc                     ; 0x20cc <_ZN12_GLOBAL__N_13putEcP6Status+0xc5>
    2957: 86 14        	stx	$14                     ; 0x2014 <_ZN12_GLOBAL__N_13putEcP6Status+0xd>
    2959: 38           	sec
    295a: a5 18        	lda	$18                     ; 0x2018 <_ZN12_GLOBAL__N_13putEcP6Status+0x11>
    295c: e5 16        	sbc	$16                     ; 0x2016 <_ZN12_GLOBAL__N_13putEcP6Status+0xf>
    295e: a8           	tay
    295f: a9 00        	lda	#$0
    2961: e5 17        	sbc	$17                     ; 0x2017 <_ZN12_GLOBAL__N_13putEcP6Status+0x10>
    2963: aa           	tax
    2964: 18           	clc
    2965: 98           	tya
    2966: 65 12        	adc	$12                     ; 0x2012 <_ZN12_GLOBAL__N_13putEcP6Status+0xb>
    2968: 85 98        	sta	$98                     ; 0x2098 <_ZN12_GLOBAL__N_13putEcP6Status+0x91>
    296a: 8a           	txa
    296b: 65 13        	adc	$13                     ; 0x2013 <_ZN12_GLOBAL__N_13putEcP6Status+0xc>
    296d: 85 a1        	sta	$a1                     ; 0x20a1 <_ZN12_GLOBAL__N_13putEcP6Status+0x9a>
    296f: a5 cd        	lda	$cd                     ; 0x20cd <_ZN12_GLOBAL__N_13putEcP6Status+0xc6>
    2971: 80 4e        	bra	$29c1 <printf+0x7db>
    2973: c5 cb        	cmp	$cb                     ; 0x20cb <_ZN12_GLOBAL__N_13putEcP6Status+0xc4>
    2975: a4 a1        	ldy	$a1                     ; 0x20a1 <_ZN12_GLOBAL__N_13putEcP6Status+0x9a>
    2977: b0 28        	bcs	$29a1 <printf+0x7bb>
    2979: a6 d7        	ldx	$d7                     ; 0x20d7 <_ZN12_GLOBAL__N_13putEcP6Status+0xd0>
    297b: e4 9c        	cpx	$9c                     ; 0x209c <_ZN12_GLOBAL__N_13putEcP6Status+0x95>
    297d: d0 19        	bne	$2998 <printf+0x7b2>
    297f: a6 d6        	ldx	$d6                     ; 0x20d6 <_ZN12_GLOBAL__N_13putEcP6Status+0xcf>
    2981: e4 9b        	cpx	$9b                     ; 0x209b <_ZN12_GLOBAL__N_13putEcP6Status+0x94>
    2983: d0 13        	bne	$2998 <printf+0x7b2>
    2985: 18           	clc
    2986: aa           	tax
    2987: a5 14        	lda	$14                     ; 0x2014 <_ZN12_GLOBAL__N_13putEcP6Status+0xd>
    2989: 65 d0        	adc	$d0                     ; 0x20d0 <_ZN12_GLOBAL__N_13putEcP6Status+0xc9>
    298b: 85 12        	sta	$12                     ; 0x2012 <_ZN12_GLOBAL__N_13putEcP6Status+0xb>
    298d: 8a           	txa
    298e: 65 d1        	adc	$d1                     ; 0x20d1 <_ZN12_GLOBAL__N_13putEcP6Status+0xca>
    2990: 85 13        	sta	$13                     ; 0x2013 <_ZN12_GLOBAL__N_13putEcP6Status+0xc>
    2992: a9 20        	lda	#$20
    2994: 92 12        	sta	($12)                   ; 0x2012 <_ZN12_GLOBAL__N_13putEcP6Status+0xb>
    2996: 80 07        	bra	$299f <printf+0x7b9>
    2998: a2 00        	ldx	#$0
    299a: a9 20        	lda	#$20
    299c: 20 bf 2d     	jsr	$2dbf <putchar>
    299f: a4 a1        	ldy	$a1                     ; 0x20a1 <_ZN12_GLOBAL__N_13putEcP6Status+0x9a>
    29a1: a6 cc        	ldx	$cc                     ; 0x20cc <_ZN12_GLOBAL__N_13putEcP6Status+0xc5>
    29a3: a5 cd        	lda	$cd                     ; 0x20cd <_ZN12_GLOBAL__N_13putEcP6Status+0xc6>
    29a5: e8           	inx
    29a6: d0 01        	bne	$29a9 <printf+0x7c3>
    29a8: 1a           	inc
    29a9: 86 14        	stx	$14                     ; 0x2014 <_ZN12_GLOBAL__N_13putEcP6Status+0xd>
    29ab: 86 cc        	stx	$cc                     ; 0x20cc <_ZN12_GLOBAL__N_13putEcP6Status+0xc5>
    29ad: 85 cd        	sta	$cd                     ; 0x20cd <_ZN12_GLOBAL__N_13putEcP6Status+0xc6>
    29af: a6 98        	ldx	$98                     ; 0x2098 <_ZN12_GLOBAL__N_13putEcP6Status+0x91>
    29b1: e8           	inx
    29b2: d0 01        	bne	$29b5 <printf+0x7cf>
    29b4: c8           	iny
    29b5: 86 98        	stx	$98                     ; 0x2098 <_ZN12_GLOBAL__N_13putEcP6Status+0x91>
    29b7: 84 a1        	sty	$a1                     ; 0x20a1 <_ZN12_GLOBAL__N_13putEcP6Status+0x9a>
    29b9: c0 00        	cpy	#$0
    29bb: d0 04        	bne	$29c1 <printf+0x7db>
    29bd: e0 00        	cpx	#$0
    29bf: f0 12        	beq	$29d3 <printf+0x7ed>
    29c1: c5 cb        	cmp	$cb                     ; 0x20cb <_ZN12_GLOBAL__N_13putEcP6Status+0xc4>
    29c3: f0 03        	beq	$29c8 <printf+0x7e2>
    29c5: 4c 73 29     	jmp	$2973 <printf+0x78d>
    29c8: a6 ca        	ldx	$ca                     ; 0x20ca <_ZN12_GLOBAL__N_13putEcP6Status+0xc3>
    29ca: 86 12        	stx	$12                     ; 0x2012 <_ZN12_GLOBAL__N_13putEcP6Status+0xb>
    29cc: a6 14        	ldx	$14                     ; 0x2014 <_ZN12_GLOBAL__N_13putEcP6Status+0xd>
    29ce: e4 12        	cpx	$12                     ; 0x2012 <_ZN12_GLOBAL__N_13putEcP6Status+0xb>
    29d0: 4c 75 29     	jmp	$2975 <printf+0x78f>
    29d3: 64 a2        	stz	$a2                     ; 0x20a2 <_ZN12_GLOBAL__N_13putEcP6Status+0x9b>
    29d5: 64 a1        	stz	$a1                     ; 0x20a1 <_ZN12_GLOBAL__N_13putEcP6Status+0x9a>
    29d7: a4 97        	ldy	$97                     ; 0x2097 <_ZN12_GLOBAL__N_13putEcP6Status+0x90>
    29d9: a6 dd        	ldx	$dd                     ; 0x20dd <_ZN12_GLOBAL__N_112print_stringEPKcP6Status+0x3>
    29db: d0 4f        	bne	$2a2c <printf+0x846>
    29dd: a6 cc        	ldx	$cc                     ; 0x20cc <_ZN12_GLOBAL__N_13putEcP6Status+0xc5>
    29df: a5 cd        	lda	$cd                     ; 0x20cd <_ZN12_GLOBAL__N_13putEcP6Status+0xc6>
    29e1: c5 cb        	cmp	$cb                     ; 0x20cb <_ZN12_GLOBAL__N_13putEcP6Status+0xc4>
    29e3: d0 10        	bne	$29f5 <printf+0x80f>
    29e5: 86 13        	stx	$13                     ; 0x2013 <_ZN12_GLOBAL__N_13putEcP6Status+0xc>
    29e7: a6 ca        	ldx	$ca                     ; 0x20ca <_ZN12_GLOBAL__N_13putEcP6Status+0xc3>
    29e9: 86 12        	stx	$12                     ; 0x2012 <_ZN12_GLOBAL__N_13putEcP6Status+0xb>
    29eb: a4 97        	ldy	$97                     ; 0x2097 <_ZN12_GLOBAL__N_13putEcP6Status+0x90>
    29ed: a6 13        	ldx	$13                     ; 0x2013 <_ZN12_GLOBAL__N_13putEcP6Status+0xc>
    29ef: e4 12        	cpx	$12                     ; 0x2012 <_ZN12_GLOBAL__N_13putEcP6Status+0xb>
    29f1: 90 08        	bcc	$29fb <printf+0x815>
    29f3: 80 31        	bra	$2a26 <printf+0x840>
    29f5: 86 13        	stx	$13                     ; 0x2013 <_ZN12_GLOBAL__N_13putEcP6Status+0xc>
    29f7: c5 cb        	cmp	$cb                     ; 0x20cb <_ZN12_GLOBAL__N_13putEcP6Status+0xc4>
    29f9: b0 2b        	bcs	$2a26 <printf+0x840>
    29fb: a6 d7        	ldx	$d7                     ; 0x20d7 <_ZN12_GLOBAL__N_13putEcP6Status+0xd0>
    29fd: e4 9c        	cpx	$9c                     ; 0x209c <_ZN12_GLOBAL__N_13putEcP6Status+0x95>
    29ff: d0 1c        	bne	$2a1d <printf+0x837>
    2a01: a6 d6        	ldx	$d6                     ; 0x20d6 <_ZN12_GLOBAL__N_13putEcP6Status+0xcf>
    2a03: e4 9b        	cpx	$9b                     ; 0x209b <_ZN12_GLOBAL__N_13putEcP6Status+0x94>
    2a05: d0 16        	bne	$2a1d <printf+0x837>
    2a07: 18           	clc
    2a08: 85 12        	sta	$12                     ; 0x2012 <_ZN12_GLOBAL__N_13putEcP6Status+0xb>
    2a0a: a5 13        	lda	$13                     ; 0x2013 <_ZN12_GLOBAL__N_13putEcP6Status+0xc>
    2a0c: 65 d0        	adc	$d0                     ; 0x20d0 <_ZN12_GLOBAL__N_13putEcP6Status+0xc9>
    2a0e: aa           	tax
    2a0f: a5 12        	lda	$12                     ; 0x2012 <_ZN12_GLOBAL__N_13putEcP6Status+0xb>
    2a11: 65 d1        	adc	$d1                     ; 0x20d1 <_ZN12_GLOBAL__N_13putEcP6Status+0xca>
    2a13: 86 12        	stx	$12                     ; 0x2012 <_ZN12_GLOBAL__N_13putEcP6Status+0xb>
    2a15: 85 13        	sta	$13                     ; 0x2013 <_ZN12_GLOBAL__N_13putEcP6Status+0xc>
    2a17: a5 e0        	lda	$e0                     ; 0x20e0 <_ZN12_GLOBAL__N_112print_stringEPKcP6Status+0x6>
    2a19: 92 12        	sta	($12)                   ; 0x2012 <_ZN12_GLOBAL__N_13putEcP6Status+0xb>
    2a1b: 80 07        	bra	$2a24 <printf+0x83e>
    2a1d: a2 00        	ldx	#$0
    2a1f: a5 e0        	lda	$e0                     ; 0x20e0 <_ZN12_GLOBAL__N_112print_stringEPKcP6Status+0x6>
    2a21: 20 bf 2d     	jsr	$2dbf <putchar>
    2a24: a4 97        	ldy	$97                     ; 0x2097 <_ZN12_GLOBAL__N_13putEcP6Status+0x90>
    2a26: e6 cc        	inc	$cc                     ; 0x20cc <_ZN12_GLOBAL__N_13putEcP6Status+0xc5>
    2a28: d0 02        	bne	$2a2c <printf+0x846>
    2a2a: e6 cd        	inc	$cd                     ; 0x20cd <_ZN12_GLOBAL__N_13putEcP6Status+0xc6>
    2a2c: a6 dc        	ldx	$dc                     ; 0x20dc <_ZN12_GLOBAL__N_112print_stringEPKcP6Status+0x2>
    2a2e: f0 4f        	beq	$2a7f <printf+0x899>
    2a30: a6 cc        	ldx	$cc                     ; 0x20cc <_ZN12_GLOBAL__N_13putEcP6Status+0xc5>
    2a32: a5 cd        	lda	$cd                     ; 0x20cd <_ZN12_GLOBAL__N_13putEcP6Status+0xc6>
    2a34: c5 cb        	cmp	$cb                     ; 0x20cb <_ZN12_GLOBAL__N_13putEcP6Status+0xc4>
    2a36: d0 10        	bne	$2a48 <printf+0x862>
    2a38: 86 13        	stx	$13                     ; 0x2013 <_ZN12_GLOBAL__N_13putEcP6Status+0xc>
    2a3a: a6 ca        	ldx	$ca                     ; 0x20ca <_ZN12_GLOBAL__N_13putEcP6Status+0xc3>
    2a3c: 86 12        	stx	$12                     ; 0x2012 <_ZN12_GLOBAL__N_13putEcP6Status+0xb>
    2a3e: a4 97        	ldy	$97                     ; 0x2097 <_ZN12_GLOBAL__N_13putEcP6Status+0x90>
    2a40: a6 13        	ldx	$13                     ; 0x2013 <_ZN12_GLOBAL__N_13putEcP6Status+0xc>
    2a42: e4 12        	cpx	$12                     ; 0x2012 <_ZN12_GLOBAL__N_13putEcP6Status+0xb>
    2a44: 90 08        	bcc	$2a4e <printf+0x868>
    2a46: 80 31        	bra	$2a79 <printf+0x893>
    2a48: 86 13        	stx	$13                     ; 0x2013 <_ZN12_GLOBAL__N_13putEcP6Status+0xc>
    2a4a: c5 cb        	cmp	$cb                     ; 0x20cb <_ZN12_GLOBAL__N_13putEcP6Status+0xc4>
    2a4c: b0 2b        	bcs	$2a79 <printf+0x893>
    2a4e: a6 d7        	ldx	$d7                     ; 0x20d7 <_ZN12_GLOBAL__N_13putEcP6Status+0xd0>
    2a50: e4 9c        	cpx	$9c                     ; 0x209c <_ZN12_GLOBAL__N_13putEcP6Status+0x95>
    2a52: d0 1c        	bne	$2a70 <printf+0x88a>
    2a54: a6 d6        	ldx	$d6                     ; 0x20d6 <_ZN12_GLOBAL__N_13putEcP6Status+0xcf>
    2a56: e4 9b        	cpx	$9b                     ; 0x209b <_ZN12_GLOBAL__N_13putEcP6Status+0x94>
    2a58: d0 16        	bne	$2a70 <printf+0x88a>
    2a5a: 18           	clc
    2a5b: 85 12        	sta	$12                     ; 0x2012 <_ZN12_GLOBAL__N_13putEcP6Status+0xb>
    2a5d: a5 13        	lda	$13                     ; 0x2013 <_ZN12_GLOBAL__N_13putEcP6Status+0xc>
    2a5f: 65 d0        	adc	$d0                     ; 0x20d0 <_ZN12_GLOBAL__N_13putEcP6Status+0xc9>
    2a61: aa           	tax
    2a62: a5 12        	lda	$12                     ; 0x2012 <_ZN12_GLOBAL__N_13putEcP6Status+0xb>
    2a64: 65 d1        	adc	$d1                     ; 0x20d1 <_ZN12_GLOBAL__N_13putEcP6Status+0xca>
    2a66: 86 12        	stx	$12                     ; 0x2012 <_ZN12_GLOBAL__N_13putEcP6Status+0xb>
    2a68: 85 13        	sta	$13                     ; 0x2013 <_ZN12_GLOBAL__N_13putEcP6Status+0xc>
    2a6a: a5 e1        	lda	$e1                     ; 0x20e1 <_ZN12_GLOBAL__N_112print_stringEPKcP6Status+0x7>
    2a6c: 92 12        	sta	($12)                   ; 0x2012 <_ZN12_GLOBAL__N_13putEcP6Status+0xb>
    2a6e: 80 07        	bra	$2a77 <printf+0x891>
    2a70: a2 00        	ldx	#$0
    2a72: a5 e1        	lda	$e1                     ; 0x20e1 <_ZN12_GLOBAL__N_112print_stringEPKcP6Status+0x7>
    2a74: 20 bf 2d     	jsr	$2dbf <putchar>
    2a77: a4 97        	ldy	$97                     ; 0x2097 <_ZN12_GLOBAL__N_13putEcP6Status+0x90>
    2a79: e6 cc        	inc	$cc                     ; 0x20cc <_ZN12_GLOBAL__N_13putEcP6Status+0xc5>
    2a7b: d0 02        	bne	$2a7f <printf+0x899>
    2a7d: e6 cd        	inc	$cd                     ; 0x20cd <_ZN12_GLOBAL__N_13putEcP6Status+0xc6>
    2a7f: a9 10        	lda	#$10
    2a81: 25 c8        	and	$c8                     ; 0x20c8 <_ZN12_GLOBAL__N_13putEcP6Status+0xc1>
    2a83: d0 03        	bne	$2a88 <printf+0x8a2>
    2a85: 4c 11 2b     	jmp	$2b11 <printf+0x92b>
    2a88: a5 c8        	lda	$c8                     ; 0x20c8 <_ZN12_GLOBAL__N_13putEcP6Status+0xc1>
    2a8a: 29 01        	and	#$1
    2a8c: f0 03        	beq	$2a91 <printf+0x8ab>
    2a8e: 4c 11 2b     	jmp	$2b11 <printf+0x92b>
    2a91: a6 a2        	ldx	$a2                     ; 0x20a2 <_ZN12_GLOBAL__N_13putEcP6Status+0x9b>
    2a93: a5 a1        	lda	$a1                     ; 0x20a1 <_ZN12_GLOBAL__N_13putEcP6Status+0x9a>
    2a95: d0 06        	bne	$2a9d <printf+0x8b7>
    2a97: 8a           	txa
    2a98: d0 03        	bne	$2a9d <printf+0x8b7>
    2a9a: 4c b7 2d     	jmp	$2db7 <printf+0xbd1>
    2a9d: a6 cc        	ldx	$cc                     ; 0x20cc <_ZN12_GLOBAL__N_13putEcP6Status+0xc5>
    2a9f: 86 13        	stx	$13                     ; 0x2013 <_ZN12_GLOBAL__N_13putEcP6Status+0xc>
    2aa1: a5 cd        	lda	$cd                     ; 0x20cd <_ZN12_GLOBAL__N_13putEcP6Status+0xc6>
    2aa3: 4c f7 2a     	jmp	$2af7 <printf+0x911>
    2aa6: c5 cb        	cmp	$cb                     ; 0x20cb <_ZN12_GLOBAL__N_13putEcP6Status+0xc4>
    2aa8: b0 26        	bcs	$2ad0 <printf+0x8ea>
    2aaa: a6 d7        	ldx	$d7                     ; 0x20d7 <_ZN12_GLOBAL__N_13putEcP6Status+0xd0>
    2aac: e4 9c        	cpx	$9c                     ; 0x209c <_ZN12_GLOBAL__N_13putEcP6Status+0x95>
    2aae: d0 19        	bne	$2ac9 <printf+0x8e3>
    2ab0: a6 d6        	ldx	$d6                     ; 0x20d6 <_ZN12_GLOBAL__N_13putEcP6Status+0xcf>
    2ab2: e4 9b        	cpx	$9b                     ; 0x209b <_ZN12_GLOBAL__N_13putEcP6Status+0x94>
    2ab4: d0 13        	bne	$2ac9 <printf+0x8e3>
    2ab6: 18           	clc
    2ab7: aa           	tax
    2ab8: a5 13        	lda	$13                     ; 0x2013 <_ZN12_GLOBAL__N_13putEcP6Status+0xc>
    2aba: 65 d0        	adc	$d0                     ; 0x20d0 <_ZN12_GLOBAL__N_13putEcP6Status+0xc9>
    2abc: 85 12        	sta	$12                     ; 0x2012 <_ZN12_GLOBAL__N_13putEcP6Status+0xb>
    2abe: 8a           	txa
    2abf: 65 d1        	adc	$d1                     ; 0x20d1 <_ZN12_GLOBAL__N_13putEcP6Status+0xca>
    2ac1: 85 13        	sta	$13                     ; 0x2013 <_ZN12_GLOBAL__N_13putEcP6Status+0xc>
    2ac3: a9 30        	lda	#$30
    2ac5: 92 12        	sta	($12)                   ; 0x2012 <_ZN12_GLOBAL__N_13putEcP6Status+0xb>
    2ac7: 80 07        	bra	$2ad0 <printf+0x8ea>
    2ac9: a2 00        	ldx	#$0
    2acb: a9 30        	lda	#$30
    2acd: 20 bf 2d     	jsr	$2dbf <putchar>
    2ad0: a6 cc        	ldx	$cc                     ; 0x20cc <_ZN12_GLOBAL__N_13putEcP6Status+0xc5>
    2ad2: a5 cd        	lda	$cd                     ; 0x20cd <_ZN12_GLOBAL__N_13putEcP6Status+0xc6>
    2ad4: e8           	inx
    2ad5: d0 01        	bne	$2ad8 <printf+0x8f2>
    2ad7: 1a           	inc
    2ad8: 86 13        	stx	$13                     ; 0x2013 <_ZN12_GLOBAL__N_13putEcP6Status+0xc>
    2ada: 86 cc        	stx	$cc                     ; 0x20cc <_ZN12_GLOBAL__N_13putEcP6Status+0xc5>
    2adc: 85 cd        	sta	$cd                     ; 0x20cd <_ZN12_GLOBAL__N_13putEcP6Status+0xc6>
    2ade: a4 a2        	ldy	$a2                     ; 0x20a2 <_ZN12_GLOBAL__N_13putEcP6Status+0x9b>
    2ae0: a6 a1        	ldx	$a1                     ; 0x20a1 <_ZN12_GLOBAL__N_13putEcP6Status+0x9a>
    2ae2: 86 12        	stx	$12                     ; 0x2012 <_ZN12_GLOBAL__N_13putEcP6Status+0xb>
    2ae4: 88           	dey
    2ae5: c0 ff        	cpy	#$ff
    2ae7: d0 02        	bne	$2aeb <printf+0x905>
    2ae9: c6 12        	dec	$12                     ; 0x2012 <_ZN12_GLOBAL__N_13putEcP6Status+0xb>
    2aeb: 84 a2        	sty	$a2                     ; 0x20a2 <_ZN12_GLOBAL__N_13putEcP6Status+0x9b>
    2aed: a6 12        	ldx	$12                     ; 0x2012 <_ZN12_GLOBAL__N_13putEcP6Status+0xb>
    2aef: 86 a1        	stx	$a1                     ; 0x20a1 <_ZN12_GLOBAL__N_13putEcP6Status+0x9a>
    2af1: d0 04        	bne	$2af7 <printf+0x911>
    2af3: c0 00        	cpy	#$0
    2af5: f0 14        	beq	$2b0b <printf+0x925>
    2af7: c5 cb        	cmp	$cb                     ; 0x20cb <_ZN12_GLOBAL__N_13putEcP6Status+0xc4>
    2af9: f0 03        	beq	$2afe <printf+0x918>
    2afb: 4c a6 2a     	jmp	$2aa6 <printf+0x8c0>
    2afe: a6 ca        	ldx	$ca                     ; 0x20ca <_ZN12_GLOBAL__N_13putEcP6Status+0xc3>
    2b00: 86 12        	stx	$12                     ; 0x2012 <_ZN12_GLOBAL__N_13putEcP6Status+0xb>
    2b02: a6 13        	ldx	$13                     ; 0x2013 <_ZN12_GLOBAL__N_13putEcP6Status+0xc>
    2b04: e4 12        	cpx	$12                     ; 0x2012 <_ZN12_GLOBAL__N_13putEcP6Status+0xb>
    2b06: b0 c8        	bcs	$2ad0 <printf+0x8ea>
    2b08: 4c aa 2a     	jmp	$2aaa <printf+0x8c4>
    2b0b: 64 a2        	stz	$a2                     ; 0x20a2 <_ZN12_GLOBAL__N_13putEcP6Status+0x9b>
    2b0d: 64 a1        	stz	$a1                     ; 0x20a1 <_ZN12_GLOBAL__N_13putEcP6Status+0x9a>
    2b0f: a4 97        	ldy	$97                     ; 0x2097 <_ZN12_GLOBAL__N_13putEcP6Status+0x90>
    2b11: a2 00        	ldx	#$0
    2b13: e4 a0        	cpx	$a0                     ; 0x20a0 <_ZN12_GLOBAL__N_13putEcP6Status+0x99>
    2b15: d0 07        	bne	$2b1e <printf+0x938>
    2b17: c4 9f        	cpy	$9f                     ; 0x209f <_ZN12_GLOBAL__N_13putEcP6Status+0x98>
    2b19: 90 0a        	bcc	$2b25 <printf+0x93f>
    2b1b: 4c 95 2b     	jmp	$2b95 <printf+0x9af>
    2b1e: e4 a0        	cpx	$a0                     ; 0x20a0 <_ZN12_GLOBAL__N_13putEcP6Status+0x99>
    2b20: 90 03        	bcc	$2b25 <printf+0x93f>
    2b22: 4c 95 2b     	jmp	$2b95 <printf+0x9af>
    2b25: a6 cc        	ldx	$cc                     ; 0x20cc <_ZN12_GLOBAL__N_13putEcP6Status+0xc5>
    2b27: 86 13        	stx	$13                     ; 0x2013 <_ZN12_GLOBAL__N_13putEcP6Status+0xc>
    2b29: a5 cd        	lda	$cd                     ; 0x20cd <_ZN12_GLOBAL__N_13putEcP6Status+0xc6>
    2b2b: a2 ff        	ldx	#$ff
    2b2d: c6 9f        	dec	$9f                     ; 0x209f <_ZN12_GLOBAL__N_13putEcP6Status+0x98>
    2b2f: e4 9f        	cpx	$9f                     ; 0x209f <_ZN12_GLOBAL__N_13putEcP6Status+0x98>
    2b31: d0 02        	bne	$2b35 <printf+0x94f>
    2b33: c6 a0        	dec	$a0                     ; 0x20a0 <_ZN12_GLOBAL__N_13putEcP6Status+0x99>
    2b35: c5 cb        	cmp	$cb                     ; 0x20cb <_ZN12_GLOBAL__N_13putEcP6Status+0xc4>
    2b37: d0 0c        	bne	$2b45 <printf+0x95f>
    2b39: a6 ca        	ldx	$ca                     ; 0x20ca <_ZN12_GLOBAL__N_13putEcP6Status+0xc3>
    2b3b: 86 12        	stx	$12                     ; 0x2012 <_ZN12_GLOBAL__N_13putEcP6Status+0xb>
    2b3d: a6 13        	ldx	$13                     ; 0x2013 <_ZN12_GLOBAL__N_13putEcP6Status+0xc>
    2b3f: e4 12        	cpx	$12                     ; 0x2012 <_ZN12_GLOBAL__N_13putEcP6Status+0xb>
    2b41: 90 06        	bcc	$2b49 <printf+0x963>
    2b43: 80 2a        	bra	$2b6f <printf+0x989>
    2b45: c5 cb        	cmp	$cb                     ; 0x20cb <_ZN12_GLOBAL__N_13putEcP6Status+0xc4>
    2b47: b0 26        	bcs	$2b6f <printf+0x989>
    2b49: a6 d7        	ldx	$d7                     ; 0x20d7 <_ZN12_GLOBAL__N_13putEcP6Status+0xd0>
    2b4b: e4 9c        	cpx	$9c                     ; 0x209c <_ZN12_GLOBAL__N_13putEcP6Status+0x95>
    2b4d: d0 19        	bne	$2b68 <printf+0x982>
    2b4f: a6 d6        	ldx	$d6                     ; 0x20d6 <_ZN12_GLOBAL__N_13putEcP6Status+0xcf>
    2b51: e4 9b        	cpx	$9b                     ; 0x209b <_ZN12_GLOBAL__N_13putEcP6Status+0x94>
    2b53: d0 13        	bne	$2b68 <printf+0x982>
    2b55: 18           	clc
    2b56: aa           	tax
    2b57: a5 13        	lda	$13                     ; 0x2013 <_ZN12_GLOBAL__N_13putEcP6Status+0xc>
    2b59: 65 d0        	adc	$d0                     ; 0x20d0 <_ZN12_GLOBAL__N_13putEcP6Status+0xc9>
    2b5b: 85 12        	sta	$12                     ; 0x2012 <_ZN12_GLOBAL__N_13putEcP6Status+0xb>
    2b5d: 8a           	txa
    2b5e: 65 d1        	adc	$d1                     ; 0x20d1 <_ZN12_GLOBAL__N_13putEcP6Status+0xca>
    2b60: 85 13        	sta	$13                     ; 0x2013 <_ZN12_GLOBAL__N_13putEcP6Status+0xc>
    2b62: a9 30        	lda	#$30
    2b64: 92 12        	sta	($12)                   ; 0x2012 <_ZN12_GLOBAL__N_13putEcP6Status+0xb>
    2b66: 80 07        	bra	$2b6f <printf+0x989>
    2b68: a2 00        	ldx	#$0
    2b6a: a9 30        	lda	#$30
    2b6c: 20 bf 2d     	jsr	$2dbf <putchar>
    2b6f: a6 cc        	ldx	$cc                     ; 0x20cc <_ZN12_GLOBAL__N_13putEcP6Status+0xc5>
    2b71: a5 cd        	lda	$cd                     ; 0x20cd <_ZN12_GLOBAL__N_13putEcP6Status+0xc6>
    2b73: e8           	inx
    2b74: d0 01        	bne	$2b77 <printf+0x991>
    2b76: 1a           	inc
    2b77: 86 13        	stx	$13                     ; 0x2013 <_ZN12_GLOBAL__N_13putEcP6Status+0xc>
    2b79: 86 cc        	stx	$cc                     ; 0x20cc <_ZN12_GLOBAL__N_13putEcP6Status+0xc5>
    2b7b: 85 cd        	sta	$cd                     ; 0x20cd <_ZN12_GLOBAL__N_13putEcP6Status+0xc6>
    2b7d: a2 00        	ldx	#$0
    2b7f: e4 a0        	cpx	$a0                     ; 0x20a0 <_ZN12_GLOBAL__N_13putEcP6Status+0x99>
    2b81: d0 09        	bne	$2b8c <printf+0x9a6>
    2b83: a4 97        	ldy	$97                     ; 0x2097 <_ZN12_GLOBAL__N_13putEcP6Status+0x90>
    2b85: c4 9f        	cpy	$9f                     ; 0x209f <_ZN12_GLOBAL__N_13putEcP6Status+0x98>
    2b87: b0 0c        	bcs	$2b95 <printf+0x9af>
    2b89: 4c 2b 2b     	jmp	$2b2b <printf+0x945>
    2b8c: e4 a0        	cpx	$a0                     ; 0x20a0 <_ZN12_GLOBAL__N_13putEcP6Status+0x99>
    2b8e: a4 97        	ldy	$97                     ; 0x2097 <_ZN12_GLOBAL__N_13putEcP6Status+0x90>
    2b90: b0 03        	bcs	$2b95 <printf+0x9af>
    2b92: 4c 2b 2b     	jmp	$2b2b <printf+0x945>
    2b95: 98           	tya
    2b96: d0 03        	bne	$2b9b <printf+0x9b5>
    2b98: 4c 8e 2c     	jmp	$2c8e <printf+0xaa8>
    2b9b: 88           	dey
    2b9c: d0 03        	bne	$2ba1 <printf+0x9bb>
    2b9e: 4c 2b 2c     	jmp	$2c2b <printf+0xa45>
    2ba1: 84 9f        	sty	$9f                     ; 0x209f <_ZN12_GLOBAL__N_13putEcP6Status+0x98>
    2ba3: a6 e2        	ldx	$e2                     ; 0x20e2 <_ZN12_GLOBAL__N_112print_stringEPKcP6Status+0x8>
    2ba5: 8a           	txa
    2ba6: 18           	clc
    2ba7: 65 9f        	adc	$9f                     ; 0x209f <_ZN12_GLOBAL__N_13putEcP6Status+0x98>
    2ba9: 85 97        	sta	$97                     ; 0x2097 <_ZN12_GLOBAL__N_13putEcP6Status+0x90>
    2bab: a5 e3        	lda	$e3                     ; 0x20e3 <_ZN12_GLOBAL__N_112print_stringEPKcP6Status+0x9>
    2bad: 69 00        	adc	#$0
    2baf: 85 98        	sta	$98                     ; 0x2098 <_ZN12_GLOBAL__N_13putEcP6Status+0x91>
    2bb1: 4c 1d 2c     	jmp	$2c1d <printf+0xa37>
    2bb4: a8           	tay
    2bb5: a9 80        	lda	#$80
    2bb7: 25 c8        	and	$c8                     ; 0x20c8 <_ZN12_GLOBAL__N_13putEcP6Status+0xc1>
    2bb9: f0 04        	beq	$2bbf <printf+0x9d9>
    2bbb: a2 61        	ldx	#$61
    2bbd: 80 02        	bra	$2bc1 <printf+0x9db>
    2bbf: a2 41        	ldx	#$41
    2bc1: 86 12        	stx	$12                     ; 0x2012 <_ZN12_GLOBAL__N_13putEcP6Status+0xb>
    2bc3: 18           	clc
    2bc4: 98           	tya
    2bc5: 65 12        	adc	$12                     ; 0x2012 <_ZN12_GLOBAL__N_13putEcP6Status+0xb>
    2bc7: 18           	clc
    2bc8: 69 f6        	adc	#$f6
    2bca: a4 cc        	ldy	$cc                     ; 0x20cc <_ZN12_GLOBAL__N_13putEcP6Status+0xc5>
    2bcc: a6 cd        	ldx	$cd                     ; 0x20cd <_ZN12_GLOBAL__N_13putEcP6Status+0xc6>
    2bce: e4 cb        	cpx	$cb                     ; 0x20cb <_ZN12_GLOBAL__N_13putEcP6Status+0xc4>
    2bd0: d0 0c        	bne	$2bde <printf+0x9f8>
    2bd2: 86 14        	stx	$14                     ; 0x2014 <_ZN12_GLOBAL__N_13putEcP6Status+0xd>
    2bd4: a6 ca        	ldx	$ca                     ; 0x20ca <_ZN12_GLOBAL__N_13putEcP6Status+0xc3>
    2bd6: 86 12        	stx	$12                     ; 0x2012 <_ZN12_GLOBAL__N_13putEcP6Status+0xb>
    2bd8: c4 12        	cpy	$12                     ; 0x2012 <_ZN12_GLOBAL__N_13putEcP6Status+0xb>
    2bda: 90 08        	bcc	$2be4 <printf+0x9fe>
    2bdc: 80 29        	bra	$2c07 <printf+0xa21>
    2bde: 86 14        	stx	$14                     ; 0x2014 <_ZN12_GLOBAL__N_13putEcP6Status+0xd>
    2be0: e4 cb        	cpx	$cb                     ; 0x20cb <_ZN12_GLOBAL__N_13putEcP6Status+0xc4>
    2be2: b0 23        	bcs	$2c07 <printf+0xa21>
    2be4: a6 d7        	ldx	$d7                     ; 0x20d7 <_ZN12_GLOBAL__N_13putEcP6Status+0xd0>
    2be6: e4 9c        	cpx	$9c                     ; 0x209c <_ZN12_GLOBAL__N_13putEcP6Status+0x95>
    2be8: d0 18        	bne	$2c02 <printf+0xa1c>
    2bea: a6 d6        	ldx	$d6                     ; 0x20d6 <_ZN12_GLOBAL__N_13putEcP6Status+0xcf>
    2bec: e4 9b        	cpx	$9b                     ; 0x209b <_ZN12_GLOBAL__N_13putEcP6Status+0x94>
    2bee: d0 12        	bne	$2c02 <printf+0xa1c>
    2bf0: 18           	clc
    2bf1: aa           	tax
    2bf2: 98           	tya
    2bf3: 65 d0        	adc	$d0                     ; 0x20d0 <_ZN12_GLOBAL__N_13putEcP6Status+0xc9>
    2bf5: 85 12        	sta	$12                     ; 0x2012 <_ZN12_GLOBAL__N_13putEcP6Status+0xb>
    2bf7: a5 14        	lda	$14                     ; 0x2014 <_ZN12_GLOBAL__N_13putEcP6Status+0xd>
    2bf9: 65 d1        	adc	$d1                     ; 0x20d1 <_ZN12_GLOBAL__N_13putEcP6Status+0xca>
    2bfb: 85 13        	sta	$13                     ; 0x2013 <_ZN12_GLOBAL__N_13putEcP6Status+0xc>
    2bfd: 8a           	txa
    2bfe: 92 12        	sta	($12)                   ; 0x2012 <_ZN12_GLOBAL__N_13putEcP6Status+0xb>
    2c00: 80 05        	bra	$2c07 <printf+0xa21>
    2c02: a2 00        	ldx	#$0
    2c04: 20 bf 2d     	jsr	$2dbf <putchar>
    2c07: e6 cc        	inc	$cc                     ; 0x20cc <_ZN12_GLOBAL__N_13putEcP6Status+0xc5>
    2c09: d0 02        	bne	$2c0d <printf+0xa27>
    2c0b: e6 cd        	inc	$cd                     ; 0x20cd <_ZN12_GLOBAL__N_13putEcP6Status+0xc6>
    2c0d: c6 9f        	dec	$9f                     ; 0x209f <_ZN12_GLOBAL__N_13putEcP6Status+0x98>
    2c0f: a2 ff        	ldx	#$ff
    2c11: c6 97        	dec	$97                     ; 0x2097 <_ZN12_GLOBAL__N_13putEcP6Status+0x90>
    2c13: e4 97        	cpx	$97                     ; 0x2097 <_ZN12_GLOBAL__N_13putEcP6Status+0x90>
    2c15: d0 02        	bne	$2c19 <printf+0xa33>
    2c17: c6 98        	dec	$98                     ; 0x2098 <_ZN12_GLOBAL__N_13putEcP6Status+0x91>
    2c19: a5 9f        	lda	$9f                     ; 0x209f <_ZN12_GLOBAL__N_13putEcP6Status+0x98>
    2c1b: f0 0e        	beq	$2c2b <printf+0xa45>
    2c1d: b2 97        	lda	($97)                   ; 0x2097 <_ZN12_GLOBAL__N_13putEcP6Status+0x90>
    2c1f: c9 0a        	cmp	#$a
    2c21: 90 03        	bcc	$2c26 <printf+0xa40>
    2c23: 4c b4 2b     	jmp	$2bb4 <printf+0x9ce>
    2c26: 09 30        	ora	#$30
    2c28: 4c ca 2b     	jmp	$2bca <printf+0x9e4>
    2c2b: a5 a5        	lda	$a5                     ; 0x20a5 <_ZN12_GLOBAL__N_13putEcP6Status+0x9e>
    2c2d: c9 0a        	cmp	#$a
    2c2f: b0 04        	bcs	$2c35 <printf+0xa4f>
    2c31: 09 30        	ora	#$30
    2c33: 80 16        	bra	$2c4b <printf+0xa65>
    2c35: a8           	tay
    2c36: a9 80        	lda	#$80
    2c38: 25 c8        	and	$c8                     ; 0x20c8 <_ZN12_GLOBAL__N_13putEcP6Status+0xc1>
    2c3a: f0 04        	beq	$2c40 <printf+0xa5a>
    2c3c: a2 61        	ldx	#$61
    2c3e: 80 02        	bra	$2c42 <printf+0xa5c>
    2c40: a2 41        	ldx	#$41
    2c42: 86 12        	stx	$12                     ; 0x2012 <_ZN12_GLOBAL__N_13putEcP6Status+0xb>
    2c44: 18           	clc
    2c45: 98           	tya
    2c46: 65 12        	adc	$12                     ; 0x2012 <_ZN12_GLOBAL__N_13putEcP6Status+0xb>
    2c48: 18           	clc
    2c49: 69 f6        	adc	#$f6
    2c4b: a4 cc        	ldy	$cc                     ; 0x20cc <_ZN12_GLOBAL__N_13putEcP6Status+0xc5>
    2c4d: a6 cd        	ldx	$cd                     ; 0x20cd <_ZN12_GLOBAL__N_13putEcP6Status+0xc6>
    2c4f: e4 cb        	cpx	$cb                     ; 0x20cb <_ZN12_GLOBAL__N_13putEcP6Status+0xc4>
    2c51: d0 0c        	bne	$2c5f <printf+0xa79>
    2c53: 86 14        	stx	$14                     ; 0x2014 <_ZN12_GLOBAL__N_13putEcP6Status+0xd>
    2c55: a6 ca        	ldx	$ca                     ; 0x20ca <_ZN12_GLOBAL__N_13putEcP6Status+0xc3>
    2c57: 86 12        	stx	$12                     ; 0x2012 <_ZN12_GLOBAL__N_13putEcP6Status+0xb>
    2c59: c4 12        	cpy	$12                     ; 0x2012 <_ZN12_GLOBAL__N_13putEcP6Status+0xb>
    2c5b: 90 08        	bcc	$2c65 <printf+0xa7f>
    2c5d: 80 29        	bra	$2c88 <printf+0xaa2>
    2c5f: 86 14        	stx	$14                     ; 0x2014 <_ZN12_GLOBAL__N_13putEcP6Status+0xd>
    2c61: e4 cb        	cpx	$cb                     ; 0x20cb <_ZN12_GLOBAL__N_13putEcP6Status+0xc4>
    2c63: b0 23        	bcs	$2c88 <printf+0xaa2>
    2c65: a6 d7        	ldx	$d7                     ; 0x20d7 <_ZN12_GLOBAL__N_13putEcP6Status+0xd0>
    2c67: e4 9c        	cpx	$9c                     ; 0x209c <_ZN12_GLOBAL__N_13putEcP6Status+0x95>
    2c69: d0 18        	bne	$2c83 <printf+0xa9d>
    2c6b: a6 d6        	ldx	$d6                     ; 0x20d6 <_ZN12_GLOBAL__N_13putEcP6Status+0xcf>
    2c6d: e4 9b        	cpx	$9b                     ; 0x209b <_ZN12_GLOBAL__N_13putEcP6Status+0x94>
    2c6f: d0 12        	bne	$2c83 <printf+0xa9d>
    2c71: 18           	clc
    2c72: aa           	tax
    2c73: 98           	tya
    2c74: 65 d0        	adc	$d0                     ; 0x20d0 <_ZN12_GLOBAL__N_13putEcP6Status+0xc9>
    2c76: 85 12        	sta	$12                     ; 0x2012 <_ZN12_GLOBAL__N_13putEcP6Status+0xb>
    2c78: a5 14        	lda	$14                     ; 0x2014 <_ZN12_GLOBAL__N_13putEcP6Status+0xd>
    2c7a: 65 d1        	adc	$d1                     ; 0x20d1 <_ZN12_GLOBAL__N_13putEcP6Status+0xca>
    2c7c: 85 13        	sta	$13                     ; 0x2013 <_ZN12_GLOBAL__N_13putEcP6Status+0xc>
    2c7e: 8a           	txa
    2c7f: 92 12        	sta	($12)                   ; 0x2012 <_ZN12_GLOBAL__N_13putEcP6Status+0xb>
    2c81: 80 05        	bra	$2c88 <printf+0xaa2>
    2c83: a2 00        	ldx	#$0
    2c85: 20 bf 2d     	jsr	$2dbf <putchar>
    2c88: e6 cc        	inc	$cc                     ; 0x20cc <_ZN12_GLOBAL__N_13putEcP6Status+0xc5>
    2c8a: d0 02        	bne	$2c8e <printf+0xaa8>
    2c8c: e6 cd        	inc	$cd                     ; 0x20cd <_ZN12_GLOBAL__N_13putEcP6Status+0xc6>
    2c8e: a5 c8        	lda	$c8                     ; 0x20c8 <_ZN12_GLOBAL__N_13putEcP6Status+0xc1>
    2c90: 29 01        	and	#$1
    2c92: d0 1e        	bne	$2cb2 <printf+0xacc>
    2c94: a6 cc        	ldx	$cc                     ; 0x20cc <_ZN12_GLOBAL__N_13putEcP6Status+0xc5>
    2c96: 86 14        	stx	$14                     ; 0x2014 <_ZN12_GLOBAL__N_13putEcP6Status+0xd>
    2c98: a5 cd        	lda	$cd                     ; 0x20cd <_ZN12_GLOBAL__N_13putEcP6Status+0xc6>
    2c9a: a4 ca        	ldy	$ca                     ; 0x20ca <_ZN12_GLOBAL__N_13putEcP6Status+0xc3>
    2c9c: a6 cb        	ldx	$cb                     ; 0x20cb <_ZN12_GLOBAL__N_13putEcP6Status+0xc4>
    2c9e: 86 12        	stx	$12                     ; 0x2012 <_ZN12_GLOBAL__N_13putEcP6Status+0xb>
    2ca0: 86 13        	stx	$13                     ; 0x2013 <_ZN12_GLOBAL__N_13putEcP6Status+0xc>
    2ca2: c5 12        	cmp	$12                     ; 0x2012 <_ZN12_GLOBAL__N_13putEcP6Status+0xb>
    2ca4: f0 03        	beq	$2ca9 <printf+0xac3>
    2ca6: 4c 37 2d     	jmp	$2d37 <printf+0xb51>
    2ca9: 84 12        	sty	$12                     ; 0x2012 <_ZN12_GLOBAL__N_13putEcP6Status+0xb>
    2cab: a6 14        	ldx	$14                     ; 0x2014 <_ZN12_GLOBAL__N_13putEcP6Status+0xd>
    2cad: e4 12        	cpx	$12                     ; 0x2012 <_ZN12_GLOBAL__N_13putEcP6Status+0xb>
    2caf: 4c 3b 2d     	jmp	$2d3b <printf+0xb55>
    2cb2: a6 cc        	ldx	$cc                     ; 0x20cc <_ZN12_GLOBAL__N_13putEcP6Status+0xc5>
    2cb4: 86 14        	stx	$14                     ; 0x2014 <_ZN12_GLOBAL__N_13putEcP6Status+0xd>
    2cb6: a5 cd        	lda	$cd                     ; 0x20cd <_ZN12_GLOBAL__N_13putEcP6Status+0xc6>
    2cb8: a6 a2        	ldx	$a2                     ; 0x20a2 <_ZN12_GLOBAL__N_13putEcP6Status+0x9b>
    2cba: a4 a1        	ldy	$a1                     ; 0x20a1 <_ZN12_GLOBAL__N_13putEcP6Status+0x9a>
    2cbc: f0 03        	beq	$2cc1 <printf+0xadb>
    2cbe: 4c 23 2d     	jmp	$2d23 <printf+0xb3d>
    2cc1: e0 00        	cpx	#$0
    2cc3: f0 d5        	beq	$2c9a <printf+0xab4>
    2cc5: 4c 23 2d     	jmp	$2d23 <printf+0xb3d>
    2cc8: c5 cb        	cmp	$cb                     ; 0x20cb <_ZN12_GLOBAL__N_13putEcP6Status+0xc4>
    2cca: b0 26        	bcs	$2cf2 <printf+0xb0c>
    2ccc: a6 d7        	ldx	$d7                     ; 0x20d7 <_ZN12_GLOBAL__N_13putEcP6Status+0xd0>
    2cce: e4 9c        	cpx	$9c                     ; 0x209c <_ZN12_GLOBAL__N_13putEcP6Status+0x95>
    2cd0: d0 19        	bne	$2ceb <printf+0xb05>
    2cd2: a6 d6        	ldx	$d6                     ; 0x20d6 <_ZN12_GLOBAL__N_13putEcP6Status+0xcf>
    2cd4: e4 9b        	cpx	$9b                     ; 0x209b <_ZN12_GLOBAL__N_13putEcP6Status+0x94>
    2cd6: d0 13        	bne	$2ceb <printf+0xb05>
    2cd8: 18           	clc
    2cd9: aa           	tax
    2cda: a5 14        	lda	$14                     ; 0x2014 <_ZN12_GLOBAL__N_13putEcP6Status+0xd>
    2cdc: 65 d0        	adc	$d0                     ; 0x20d0 <_ZN12_GLOBAL__N_13putEcP6Status+0xc9>
    2cde: 85 12        	sta	$12                     ; 0x2012 <_ZN12_GLOBAL__N_13putEcP6Status+0xb>
    2ce0: 8a           	txa
    2ce1: 65 d1        	adc	$d1                     ; 0x20d1 <_ZN12_GLOBAL__N_13putEcP6Status+0xca>
    2ce3: 85 13        	sta	$13                     ; 0x2013 <_ZN12_GLOBAL__N_13putEcP6Status+0xc>
    2ce5: a9 20        	lda	#$20
    2ce7: 92 12        	sta	($12)                   ; 0x2012 <_ZN12_GLOBAL__N_13putEcP6Status+0xb>
    2ce9: 80 07        	bra	$2cf2 <printf+0xb0c>
    2ceb: a2 00        	ldx	#$0
    2ced: a9 20        	lda	#$20
    2cef: 20 bf 2d     	jsr	$2dbf <putchar>
    2cf2: a6 cc        	ldx	$cc                     ; 0x20cc <_ZN12_GLOBAL__N_13putEcP6Status+0xc5>
    2cf4: a5 cd        	lda	$cd                     ; 0x20cd <_ZN12_GLOBAL__N_13putEcP6Status+0xc6>
    2cf6: e8           	inx
    2cf7: d0 01        	bne	$2cfa <printf+0xb14>
    2cf9: 1a           	inc
    2cfa: 86 14        	stx	$14                     ; 0x2014 <_ZN12_GLOBAL__N_13putEcP6Status+0xd>
    2cfc: 86 cc        	stx	$cc                     ; 0x20cc <_ZN12_GLOBAL__N_13putEcP6Status+0xc5>
    2cfe: 85 cd        	sta	$cd                     ; 0x20cd <_ZN12_GLOBAL__N_13putEcP6Status+0xc6>
    2d00: a6 a2        	ldx	$a2                     ; 0x20a2 <_ZN12_GLOBAL__N_13putEcP6Status+0x9b>
    2d02: 86 12        	stx	$12                     ; 0x2012 <_ZN12_GLOBAL__N_13putEcP6Status+0xb>
    2d04: a6 a1        	ldx	$a1                     ; 0x20a1 <_ZN12_GLOBAL__N_13putEcP6Status+0x9a>
    2d06: 86 13        	stx	$13                     ; 0x2013 <_ZN12_GLOBAL__N_13putEcP6Status+0xc>
    2d08: a2 ff        	ldx	#$ff
    2d0a: c6 12        	dec	$12                     ; 0x2012 <_ZN12_GLOBAL__N_13putEcP6Status+0xb>
    2d0c: e4 12        	cpx	$12                     ; 0x2012 <_ZN12_GLOBAL__N_13putEcP6Status+0xb>
    2d0e: d0 02        	bne	$2d12 <printf+0xb2c>
    2d10: c6 13        	dec	$13                     ; 0x2013 <_ZN12_GLOBAL__N_13putEcP6Status+0xc>
    2d12: a6 12        	ldx	$12                     ; 0x2012 <_ZN12_GLOBAL__N_13putEcP6Status+0xb>
    2d14: 86 a2        	stx	$a2                     ; 0x20a2 <_ZN12_GLOBAL__N_13putEcP6Status+0x9b>
    2d16: a6 13        	ldx	$13                     ; 0x2013 <_ZN12_GLOBAL__N_13putEcP6Status+0xc>
    2d18: 86 a1        	stx	$a1                     ; 0x20a1 <_ZN12_GLOBAL__N_13putEcP6Status+0x9a>
    2d1a: d0 07        	bne	$2d23 <printf+0xb3d>
    2d1c: a6 12        	ldx	$12                     ; 0x2012 <_ZN12_GLOBAL__N_13putEcP6Status+0xb>
    2d1e: d0 03        	bne	$2d23 <printf+0xb3d>
    2d20: 4c 9a 2c     	jmp	$2c9a <printf+0xab4>
    2d23: c5 cb        	cmp	$cb                     ; 0x20cb <_ZN12_GLOBAL__N_13putEcP6Status+0xc4>
    2d25: f0 03        	beq	$2d2a <printf+0xb44>
    2d27: 4c c8 2c     	jmp	$2cc8 <printf+0xae2>
    2d2a: a6 ca        	ldx	$ca                     ; 0x20ca <_ZN12_GLOBAL__N_13putEcP6Status+0xc3>
    2d2c: 86 12        	stx	$12                     ; 0x2012 <_ZN12_GLOBAL__N_13putEcP6Status+0xb>
    2d2e: a6 14        	ldx	$14                     ; 0x2014 <_ZN12_GLOBAL__N_13putEcP6Status+0xd>
    2d30: e4 12        	cpx	$12                     ; 0x2012 <_ZN12_GLOBAL__N_13putEcP6Status+0xb>
    2d32: b0 be        	bcs	$2cf2 <printf+0xb0c>
    2d34: 4c cc 2c     	jmp	$2ccc <printf+0xae6>
    2d37: 86 12        	stx	$12                     ; 0x2012 <_ZN12_GLOBAL__N_13putEcP6Status+0xb>
    2d39: c5 12        	cmp	$12                     ; 0x2012 <_ZN12_GLOBAL__N_13putEcP6Status+0xb>
    2d3b: 98           	tya
    2d3c: a0 01        	ldy	#$1
    2d3e: 90 20        	bcc	$2d60 <printf+0xb7a>
    2d40: a6 13        	ldx	$13                     ; 0x2013 <_ZN12_GLOBAL__N_13putEcP6Status+0xc>
    2d42: d0 03        	bne	$2d47 <printf+0xb61>
    2d44: aa           	tax
    2d45: f0 19        	beq	$2d60 <printf+0xb7a>
    2d47: 18           	clc
    2d48: 65 d0        	adc	$d0                     ; 0x20d0 <_ZN12_GLOBAL__N_13putEcP6Status+0xc9>
    2d4a: 85 12        	sta	$12                     ; 0x2012 <_ZN12_GLOBAL__N_13putEcP6Status+0xb>
    2d4c: a5 13        	lda	$13                     ; 0x2013 <_ZN12_GLOBAL__N_13putEcP6Status+0xc>
    2d4e: 65 d1        	adc	$d1                     ; 0x20d1 <_ZN12_GLOBAL__N_13putEcP6Status+0xca>
    2d50: 85 13        	sta	$13                     ; 0x2013 <_ZN12_GLOBAL__N_13putEcP6Status+0xc>
    2d52: a2 ff        	ldx	#$ff
    2d54: c6 12        	dec	$12                     ; 0x2012 <_ZN12_GLOBAL__N_13putEcP6Status+0xb>
    2d56: e4 12        	cpx	$12                     ; 0x2012 <_ZN12_GLOBAL__N_13putEcP6Status+0xb>
    2d58: d0 02        	bne	$2d5c <printf+0xb76>
    2d5a: c6 13        	dec	$13                     ; 0x2013 <_ZN12_GLOBAL__N_13putEcP6Status+0xc>
    2d5c: a9 00        	lda	#$0
    2d5e: 92 12        	sta	($12)                   ; 0x2012 <_ZN12_GLOBAL__N_13putEcP6Status+0xb>
    2d60: e6 99        	inc	$99                     ; 0x2099 <_ZN12_GLOBAL__N_13putEcP6Status+0x92>
    2d62: d0 02        	bne	$2d66 <printf+0xb80>
    2d64: e6 9a        	inc	$9a                     ; 0x209a <_ZN12_GLOBAL__N_13putEcP6Status+0x93>
    2d66: a6 9a        	ldx	$9a                     ; 0x209a <_ZN12_GLOBAL__N_13putEcP6Status+0x93>
    2d68: e4 9e        	cpx	$9e                     ; 0x209e <_ZN12_GLOBAL__N_13putEcP6Status+0x97>
    2d6a: f0 03        	beq	$2d6f <printf+0xb89>
    2d6c: 4c 4b 22     	jmp	$224b <printf+0x65>
    2d6f: a6 99        	ldx	$99                     ; 0x2099 <_ZN12_GLOBAL__N_13putEcP6Status+0x92>
    2d71: e4 9d        	cpx	$9d                     ; 0x209d <_ZN12_GLOBAL__N_13putEcP6Status+0x96>
    2d73: f0 03        	beq	$2d78 <printf+0xb92>
    2d75: 4c 4b 22     	jmp	$224b <printf+0x65>
    2d78: b2 9d        	lda	($9d)                   ; 0x209d <_ZN12_GLOBAL__N_13putEcP6Status+0x96>
    2d7a: a2 00        	ldx	#$0
    2d7c: a0 00        	ldy	#$0
    2d7e: 84 9b        	sty	$9b                     ; 0x209b <_ZN12_GLOBAL__N_13putEcP6Status+0x94>
    2d80: a0 00        	ldy	#$0
    2d82: 84 9c        	sty	$9c                     ; 0x209c <_ZN12_GLOBAL__N_13putEcP6Status+0x95>
    2d84: 4c 61 22     	jmp	$2261 <printf+0x7b>
    2d87: e4 a0        	cpx	$a0                     ; 0x20a0 <_ZN12_GLOBAL__N_13putEcP6Status+0x99>
    2d89: a6 98        	ldx	$98                     ; 0x2098 <_ZN12_GLOBAL__N_13putEcP6Status+0x91>
    2d8b: b0 03        	bcs	$2d90 <printf+0xbaa>
    2d8d: 4c 9f 28     	jmp	$289f <printf+0x6b9>
    2d90: a5 97        	lda	$97                     ; 0x2097 <_ZN12_GLOBAL__N_13putEcP6Status+0x90>
    2d92: 85 9f        	sta	$9f                     ; 0x209f <_ZN12_GLOBAL__N_13putEcP6Status+0x98>
    2d94: 64 a0        	stz	$a0                     ; 0x20a0 <_ZN12_GLOBAL__N_13putEcP6Status+0x99>
    2d96: e6 9f        	inc	$9f                     ; 0x209f <_ZN12_GLOBAL__N_13putEcP6Status+0x98>
    2d98: f0 03        	beq	$2d9d <printf+0xbb7>
    2d9a: 4c 9f 28     	jmp	$289f <printf+0x6b9>
    2d9d: e6 a0        	inc	$a0                     ; 0x20a0 <_ZN12_GLOBAL__N_13putEcP6Status+0x99>
    2d9f: 4c 9f 28     	jmp	$289f <printf+0x6b9>
    2da2: a2 58        	ldx	#$58
    2da4: 86 e1        	stx	$e1                     ; 0x20e1 <_ZN12_GLOBAL__N_112print_stringEPKcP6Status+0x7>
    2da6: a2 01        	ldx	#$1
    2da8: 86 dc        	stx	$dc                     ; 0x20dc <_ZN12_GLOBAL__N_112print_stringEPKcP6Status+0x2>
    2daa: a2 30        	ldx	#$30
    2dac: 86 e0        	stx	$e0                     ; 0x20e0 <_ZN12_GLOBAL__N_112print_stringEPKcP6Status+0x6>
    2dae: a9 02        	lda	#$2
    2db0: a2 00        	ldx	#$0
    2db2: 86 dd        	stx	$dd                     ; 0x20dd <_ZN12_GLOBAL__N_112print_stringEPKcP6Status+0x3>
    2db4: 4c e0 28     	jmp	$28e0 <printf+0x6fa>
    2db7: 64 a2        	stz	$a2                     ; 0x20a2 <_ZN12_GLOBAL__N_13putEcP6Status+0x9b>
    2db9: 64 a1        	stz	$a1                     ; 0x20a1 <_ZN12_GLOBAL__N_13putEcP6Status+0x9a>
    2dbb: 4c 11 2b     	jmp	$2b11 <printf+0x92b>
    2dbe: 60           	rts

00002dbf <putchar>:
    2dbf: 86 12        	stx	$12                     ; 0x2012 <_ZN12_GLOBAL__N_13putEcP6Status+0xb>
    2dc1: 85 ef        	sta	$ef                     ; 0x20ef <_ZN12_GLOBAL__N_112print_stringEPKcP6Status+0x15>
    2dc3: 85 85        	sta	$85                     ; 0x2085 <_ZN12_GLOBAL__N_13putEcP6Status+0x7e>
    2dc5: a6 01        	ldx	$1                      ; 0x2001 <bitmapLine+0x437>
    2dc7: 86 ee        	stx	$ee                     ; 0x20ee <_ZN12_GLOBAL__N_112print_stringEPKcP6Status+0x14>
    2dc9: a6 33        	ldx	$33                     ; 0x2033 <_ZN12_GLOBAL__N_13putEcP6Status+0x2c>
    2dcb: a0 50        	ldy	#$50
    2dcd: 8c 00 de     	sty	$de00                   ; 0xde00 <end_block9+0xa6b6>
    2dd0: 9c 01 de     	stz	$de01                   ; 0xde01 <end_block9+0xa6b7>
    2dd3: 8e 02 de     	stx	$de02                   ; 0xde02 <end_block9+0xa6b8>
    2dd6: 9c 03 de     	stz	$de03                   ; 0xde03 <end_block9+0xa6b9>
    2dd9: ad 10 de     	lda	$de10                   ; 0xde10 <end_block9+0xa6c6>
    2ddc: ac 11 de     	ldy	$de11                   ; 0xde11 <end_block9+0xa6c7>
    2ddf: ae 12 de     	ldx	$de12                   ; 0xde12 <end_block9+0xa6c8>
    2de2: 86 1a        	stx	$1a                     ; 0x201a <_ZN12_GLOBAL__N_13putEcP6Status+0x13>
    2de4: ae 13 de     	ldx	$de13                   ; 0xde13 <end_block9+0xa6c9>
    2de7: 86 1b        	stx	$1b                     ; 0x201b <_ZN12_GLOBAL__N_13putEcP6Status+0x14>
    2de9: 9c 08 de     	stz	$de08                   ; 0xde08 <end_block9+0xa6be>
    2dec: a2 c0        	ldx	#$c0
    2dee: 8e 09 de     	stx	$de09                   ; 0xde09 <end_block9+0xa6bf>
    2df1: 9c 0a de     	stz	$de0a                   ; 0xde0a <end_block9+0xa6c0>
    2df4: 9c 0b de     	stz	$de0b                   ; 0xde0b <end_block9+0xa6c1>
    2df7: 8d 0c de     	sta	$de0c                   ; 0xde0c <end_block9+0xa6c2>
    2dfa: 8c 0d de     	sty	$de0d                   ; 0xde0d <end_block9+0xa6c3>
    2dfd: 64 13        	stz	$13                     ; 0x2013 <_ZN12_GLOBAL__N_13putEcP6Status+0xc>
    2dff: a2 00        	ldx	#$0
    2e01: 86 14        	stx	$14                     ; 0x2014 <_ZN12_GLOBAL__N_13putEcP6Status+0xd>
    2e03: a2 c0        	ldx	#$c0
    2e05: 86 15        	stx	$15                     ; 0x2015 <_ZN12_GLOBAL__N_13putEcP6Status+0xe>
    2e07: a2 11        	ldx	#$11
    2e09: 86 16        	stx	$16                     ; 0x2016 <_ZN12_GLOBAL__N_13putEcP6Status+0xf>
    2e0b: a2 c9        	ldx	#$c9
    2e0d: 86 17        	stx	$17                     ; 0x2017 <_ZN12_GLOBAL__N_13putEcP6Status+0x10>
    2e0f: a2 10        	ldx	#$10
    2e11: 86 18        	stx	$18                     ; 0x2018 <_ZN12_GLOBAL__N_13putEcP6Status+0x11>
    2e13: a2 c9        	ldx	#$c9
    2e15: 86 19        	stx	$19                     ; 0x2019 <_ZN12_GLOBAL__N_13putEcP6Status+0x12>
    2e17: a6 1a        	ldx	$1a                     ; 0x201a <_ZN12_GLOBAL__N_13putEcP6Status+0x13>
    2e19: 8e 0e de     	stx	$de0e                   ; 0xde0e <end_block9+0xa6c4>
    2e1c: a6 1b        	ldx	$1b                     ; 0x201b <_ZN12_GLOBAL__N_13putEcP6Status+0x14>
    2e1e: 8e 0f de     	stx	$de0f                   ; 0xde0f <end_block9+0xa6c5>
    2e21: ad 18 de     	lda	$de18                   ; 0xde18 <end_block9+0xa6ce>
    2e24: ac 19 de     	ldy	$de19                   ; 0xde19 <end_block9+0xa6cf>
    2e27: ae 1a de     	ldx	$de1a                   ; 0xde1a <end_block9+0xa6d0>
    2e2a: ae 1b de     	ldx	$de1b                   ; 0xde1b <end_block9+0xa6d1>
    2e2d: 85 1c        	sta	$1c                     ; 0x201c <_ZN12_GLOBAL__N_13putEcP6Status+0x15>
    2e2f: 84 1d        	sty	$1d                     ; 0x201d <_ZN12_GLOBAL__N_13putEcP6Status+0x16>
    2e31: 64 1a        	stz	$1a                     ; 0x201a <_ZN12_GLOBAL__N_13putEcP6Status+0x13>
    2e33: 80 13        	bra	$2e48 <putchar+0x89>
    2e35: a5 1c        	lda	$1c                     ; 0x201c <_ZN12_GLOBAL__N_13putEcP6Status+0x15>
    2e37: 18           	clc
    2e38: 69 50        	adc	#$50
    2e3a: 85 1c        	sta	$1c                     ; 0x201c <_ZN12_GLOBAL__N_13putEcP6Status+0x15>
    2e3c: a5 1d        	lda	$1d                     ; 0x201d <_ZN12_GLOBAL__N_13putEcP6Status+0x16>
    2e3e: 69 00        	adc	#$0
    2e40: 85 1d        	sta	$1d                     ; 0x201d <_ZN12_GLOBAL__N_13putEcP6Status+0x16>
    2e42: e6 13        	inc	$13                     ; 0x2013 <_ZN12_GLOBAL__N_13putEcP6Status+0xc>
    2e44: d0 02        	bne	$2e48 <putchar+0x89>
    2e46: e6 1a        	inc	$1a                     ; 0x201a <_ZN12_GLOBAL__N_13putEcP6Status+0x13>
    2e48: a9 85        	lda	#$85
    2e4a: 18           	clc
    2e4b: 65 13        	adc	$13                     ; 0x2013 <_ZN12_GLOBAL__N_13putEcP6Status+0xc>
    2e4d: 85 1e        	sta	$1e                     ; 0x201e <_ZN12_GLOBAL__N_13putEcP6Status+0x17>
    2e4f: a9 00        	lda	#$0
    2e51: 65 1a        	adc	$1a                     ; 0x201a <_ZN12_GLOBAL__N_13putEcP6Status+0x13>
    2e53: 85 1f        	sta	$1f                     ; 0x201f <_ZN12_GLOBAL__N_13putEcP6Status+0x18>
    2e55: b2 1e        	lda	($1e)                   ; 0x201e <_ZN12_GLOBAL__N_13putEcP6Status+0x17>
    2e57: c9 0a        	cmp	#$a
    2e59: f0 26        	beq	$2e81 <putchar+0xc2>
    2e5b: c9 0d        	cmp	#$d
    2e5d: f0 22        	beq	$2e81 <putchar+0xc2>
    2e5f: aa           	tax
    2e60: d0 03        	bne	$2e65 <putchar+0xa6>
    2e62: 4c 66 2f     	jmp	$2f66 <putchar+0x1a7>
    2e65: a2 03        	ldx	#$3
    2e67: 86 01        	stx	$1                      ; 0x2001 <bitmapLine+0x437>
    2e69: a4 32        	ldy	$32                     ; 0x2032 <_ZN12_GLOBAL__N_13putEcP6Status+0x2b>
    2e6b: a9 f0        	lda	#$f0
    2e6d: 91 1c        	sta	($1c),y                 ; 0x201c <_ZN12_GLOBAL__N_13putEcP6Status+0x15>
    2e6f: ca           	dex
    2e70: 86 01        	stx	$1                      ; 0x2001 <bitmapLine+0x437>
    2e72: b2 1e        	lda	($1e)                   ; 0x201e <_ZN12_GLOBAL__N_13putEcP6Status+0x17>
    2e74: a4 32        	ldy	$32                     ; 0x2032 <_ZN12_GLOBAL__N_13putEcP6Status+0x2b>
    2e76: 91 1c        	sta	($1c),y                 ; 0x201c <_ZN12_GLOBAL__N_13putEcP6Status+0x15>
    2e78: a6 32        	ldx	$32                     ; 0x2032 <_ZN12_GLOBAL__N_13putEcP6Status+0x2b>
    2e7a: e8           	inx
    2e7b: e6 32        	inc	$32                     ; 0x2032 <_ZN12_GLOBAL__N_13putEcP6Status+0x2b>
    2e7d: e0 50        	cpx	#$50
    2e7f: d0 c1        	bne	$2e42 <putchar+0x83>
    2e81: 64 32        	stz	$32                     ; 0x2032 <_ZN12_GLOBAL__N_13putEcP6Status+0x2b>
    2e83: a6 33        	ldx	$33                     ; 0x2033 <_ZN12_GLOBAL__N_13putEcP6Status+0x2c>
    2e85: e8           	inx
    2e86: e6 33        	inc	$33                     ; 0x2033 <_ZN12_GLOBAL__N_13putEcP6Status+0x2c>
    2e88: e0 1e        	cpx	#$1e
    2e8a: f0 03        	beq	$2e8f <putchar+0xd0>
    2e8c: 4c 35 2e     	jmp	$2e35 <putchar+0x76>
    2e8f: a2 03        	ldx	#$3
    2e91: 86 01        	stx	$1                      ; 0x2001 <bitmapLine+0x437>
    2e93: a2 01        	ldx	#$1
    2e95: 86 1b        	stx	$1b                     ; 0x201b <_ZN12_GLOBAL__N_13putEcP6Status+0x14>
    2e97: a2 09        	ldx	#$9
    2e99: a0 10        	ldy	#$10
    2e9b: a9 00        	lda	#$0
    2e9d: 85 1c        	sta	$1c                     ; 0x201c <_ZN12_GLOBAL__N_13putEcP6Status+0x15>
    2e9f: a9 c0        	lda	#$c0
    2ea1: 85 1d        	sta	$1d                     ; 0x201d <_ZN12_GLOBAL__N_13putEcP6Status+0x16>
    2ea3: 84 1e        	sty	$1e                     ; 0x201e <_ZN12_GLOBAL__N_13putEcP6Status+0x17>
    2ea5: a0 50        	ldy	#$50
    2ea7: b1 1c        	lda	($1c),y                 ; 0x201c <_ZN12_GLOBAL__N_13putEcP6Status+0x15>
    2ea9: 92 1c        	sta	($1c)                   ; 0x201c <_ZN12_GLOBAL__N_13putEcP6Status+0x15>
    2eab: a0 ff        	ldy	#$ff
    2ead: c6 1e        	dec	$1e                     ; 0x201e <_ZN12_GLOBAL__N_13putEcP6Status+0x17>
    2eaf: c4 1e        	cpy	$1e                     ; 0x201e <_ZN12_GLOBAL__N_13putEcP6Status+0x17>
    2eb1: d0 01        	bne	$2eb4 <putchar+0xf5>
    2eb3: ca           	dex
    2eb4: e6 1c        	inc	$1c                     ; 0x201c <_ZN12_GLOBAL__N_13putEcP6Status+0x15>
    2eb6: d0 02        	bne	$2eba <putchar+0xfb>
    2eb8: e6 1d        	inc	$1d                     ; 0x201d <_ZN12_GLOBAL__N_13putEcP6Status+0x16>
    2eba: 8a           	txa
    2ebb: d0 e8        	bne	$2ea5 <putchar+0xe6>
    2ebd: a5 1e        	lda	$1e                     ; 0x201e <_ZN12_GLOBAL__N_13putEcP6Status+0x17>
    2ebf: d0 e4        	bne	$2ea5 <putchar+0xe6>
    2ec1: a2 02        	ldx	#$2
    2ec3: 86 01        	stx	$1                      ; 0x2001 <bitmapLine+0x437>
    2ec5: a2 00        	ldx	#$0
    2ec7: a5 1b        	lda	$1b                     ; 0x201b <_ZN12_GLOBAL__N_13putEcP6Status+0x14>
    2ec9: d0 ca        	bne	$2e95 <putchar+0xd6>
    2ecb: a2 03        	ldx	#$3
    2ecd: 86 01        	stx	$1                      ; 0x2001 <bitmapLine+0x437>
    2ecf: a2 50        	ldx	#$50
    2ed1: a0 11        	ldy	#$11
    2ed3: 84 1c        	sty	$1c                     ; 0x201c <_ZN12_GLOBAL__N_13putEcP6Status+0x15>
    2ed5: a0 c9        	ldy	#$c9
    2ed7: 84 1d        	sty	$1d                     ; 0x201d <_ZN12_GLOBAL__N_13putEcP6Status+0x16>
    2ed9: a0 10        	ldy	#$10
    2edb: 84 1e        	sty	$1e                     ; 0x201e <_ZN12_GLOBAL__N_13putEcP6Status+0x17>
    2edd: a0 c9        	ldy	#$c9
    2edf: 84 1f        	sty	$1f                     ; 0x201f <_ZN12_GLOBAL__N_13putEcP6Status+0x18>
    2ee1: a9 f0        	lda	#$f0
    2ee3: a4 1c        	ldy	$1c                     ; 0x201c <_ZN12_GLOBAL__N_13putEcP6Status+0x15>
    2ee5: 84 22        	sty	$22                     ; 0x2022 <_ZN12_GLOBAL__N_13putEcP6Status+0x1b>
    2ee7: a4 1d        	ldy	$1d                     ; 0x201d <_ZN12_GLOBAL__N_13putEcP6Status+0x16>
    2ee9: 84 23        	sty	$23                     ; 0x2023 <_ZN12_GLOBAL__N_13putEcP6Status+0x1c>
    2eeb: 92 1e        	sta	($1e)                   ; 0x201e <_ZN12_GLOBAL__N_13putEcP6Status+0x17>
    2eed: e6 1c        	inc	$1c                     ; 0x201c <_ZN12_GLOBAL__N_13putEcP6Status+0x15>
    2eef: d0 02        	bne	$2ef3 <putchar+0x134>
    2ef1: e6 1d        	inc	$1d                     ; 0x201d <_ZN12_GLOBAL__N_13putEcP6Status+0x16>
    2ef3: ca           	dex
    2ef4: a4 22        	ldy	$22                     ; 0x2022 <_ZN12_GLOBAL__N_13putEcP6Status+0x1b>
    2ef6: 84 1e        	sty	$1e                     ; 0x201e <_ZN12_GLOBAL__N_13putEcP6Status+0x17>
    2ef8: a4 23        	ldy	$23                     ; 0x2023 <_ZN12_GLOBAL__N_13putEcP6Status+0x1c>
    2efa: 84 1f        	sty	$1f                     ; 0x201f <_ZN12_GLOBAL__N_13putEcP6Status+0x18>
    2efc: e0 00        	cpx	#$0
    2efe: d0 e3        	bne	$2ee3 <putchar+0x124>
    2f00: a2 02        	ldx	#$2
    2f02: 86 01        	stx	$1                      ; 0x2001 <bitmapLine+0x437>
    2f04: a2 50        	ldx	#$50
    2f06: a0 11        	ldy	#$11
    2f08: 84 1c        	sty	$1c                     ; 0x201c <_ZN12_GLOBAL__N_13putEcP6Status+0x15>
    2f0a: a0 c9        	ldy	#$c9
    2f0c: 84 1d        	sty	$1d                     ; 0x201d <_ZN12_GLOBAL__N_13putEcP6Status+0x16>
    2f0e: a0 10        	ldy	#$10
    2f10: 84 1e        	sty	$1e                     ; 0x201e <_ZN12_GLOBAL__N_13putEcP6Status+0x17>
    2f12: a0 c9        	ldy	#$c9
    2f14: 84 1f        	sty	$1f                     ; 0x201f <_ZN12_GLOBAL__N_13putEcP6Status+0x18>
    2f16: a9 20        	lda	#$20
    2f18: a4 1c        	ldy	$1c                     ; 0x201c <_ZN12_GLOBAL__N_13putEcP6Status+0x15>
    2f1a: 84 22        	sty	$22                     ; 0x2022 <_ZN12_GLOBAL__N_13putEcP6Status+0x1b>
    2f1c: a4 1d        	ldy	$1d                     ; 0x201d <_ZN12_GLOBAL__N_13putEcP6Status+0x16>
    2f1e: 84 23        	sty	$23                     ; 0x2023 <_ZN12_GLOBAL__N_13putEcP6Status+0x1c>
    2f20: 92 1e        	sta	($1e)                   ; 0x201e <_ZN12_GLOBAL__N_13putEcP6Status+0x17>
    2f22: e6 1c        	inc	$1c                     ; 0x201c <_ZN12_GLOBAL__N_13putEcP6Status+0x15>
    2f24: d0 02        	bne	$2f28 <putchar+0x169>
    2f26: e6 1d        	inc	$1d                     ; 0x201d <_ZN12_GLOBAL__N_13putEcP6Status+0x16>
    2f28: ca           	dex
    2f29: a4 22        	ldy	$22                     ; 0x2022 <_ZN12_GLOBAL__N_13putEcP6Status+0x1b>
    2f2b: 84 1e        	sty	$1e                     ; 0x201e <_ZN12_GLOBAL__N_13putEcP6Status+0x17>
    2f2d: a4 23        	ldy	$23                     ; 0x2023 <_ZN12_GLOBAL__N_13putEcP6Status+0x1c>
    2f2f: 84 1f        	sty	$1f                     ; 0x201f <_ZN12_GLOBAL__N_13putEcP6Status+0x18>
    2f31: e0 00        	cpx	#$0
    2f33: d0 e3        	bne	$2f18 <putchar+0x159>
    2f35: c6 33        	dec	$33                     ; 0x2033 <_ZN12_GLOBAL__N_13putEcP6Status+0x2c>
    2f37: 9c 08 de     	stz	$de08                   ; 0xde08 <end_block9+0xa6be>
    2f3a: a2 c0        	ldx	#$c0
    2f3c: 8e 09 de     	stx	$de09                   ; 0xde09 <end_block9+0xa6bf>
    2f3f: 9c 0a de     	stz	$de0a                   ; 0xde0a <end_block9+0xa6c0>
    2f42: 9c 0b de     	stz	$de0b                   ; 0xde0b <end_block9+0xa6c1>
    2f45: a2 1d        	ldx	#$1d
    2f47: 8e 0c de     	stx	$de0c                   ; 0xde0c <end_block9+0xa6c2>
    2f4a: 9c 0d de     	stz	$de0d                   ; 0xde0d <end_block9+0xa6c3>
    2f4d: 9c 0e de     	stz	$de0e                   ; 0xde0e <end_block9+0xa6c4>
    2f50: 9c 0f de     	stz	$de0f                   ; 0xde0f <end_block9+0xa6c5>
    2f53: ad 18 de     	lda	$de18                   ; 0xde18 <end_block9+0xa6ce>
    2f56: ac 19 de     	ldy	$de19                   ; 0xde19 <end_block9+0xa6cf>
    2f59: ae 1a de     	ldx	$de1a                   ; 0xde1a <end_block9+0xa6d0>
    2f5c: ae 1b de     	ldx	$de1b                   ; 0xde1b <end_block9+0xa6d1>
    2f5f: 85 1c        	sta	$1c                     ; 0x201c <_ZN12_GLOBAL__N_13putEcP6Status+0x15>
    2f61: 84 1d        	sty	$1d                     ; 0x201d <_ZN12_GLOBAL__N_13putEcP6Status+0x16>
    2f63: 4c 42 2e     	jmp	$2e42 <putchar+0x83>
    2f66: a6 ee        	ldx	$ee                     ; 0x20ee <_ZN12_GLOBAL__N_112print_stringEPKcP6Status+0x14>
    2f68: 86 01        	stx	$1                      ; 0x2001 <bitmapLine+0x437>
    2f6a: a6 32        	ldx	$32                     ; 0x2032 <_ZN12_GLOBAL__N_13putEcP6Status+0x2b>
    2f6c: a4 33        	ldy	$33                     ; 0x2033 <_ZN12_GLOBAL__N_13putEcP6Status+0x2c>
    2f6e: 8e 14 d0     	stx	$d014                   ; 0xd014 <end_block9+0x98ca>
    2f71: 9c 15 d0     	stz	$d015                   ; 0xd015 <end_block9+0x98cb>
    2f74: 84 33        	sty	$33                     ; 0x2033 <_ZN12_GLOBAL__N_13putEcP6Status+0x2c>
    2f76: 8c 16 d0     	sty	$d016                   ; 0xd016 <end_block9+0x98cc>
    2f79: 9c 17 d0     	stz	$d017                   ; 0xd017 <end_block9+0x98cd>
    2f7c: a6 12        	ldx	$12                     ; 0x2012 <_ZN12_GLOBAL__N_13putEcP6Status+0xb>
    2f7e: a5 ef        	lda	$ef                     ; 0x20ef <_ZN12_GLOBAL__N_112print_stringEPKcP6Status+0x15>
    2f80: 60           	rts

00002f81 <memcpy>:
    2f81: a8           	tay
    2f82: 8a           	txa
    2f83: d0 03        	bne	$2f88 <memcpy+0x7>
    2f85: 98           	tya
    2f86: f0 24        	beq	$2fac <memcpy+0x2b>
    2f88: a5 12        	lda	$12                     ; 0x2012 <_ZN12_GLOBAL__N_13putEcP6Status+0xb>
    2f8a: 85 16        	sta	$16                     ; 0x2016 <_ZN12_GLOBAL__N_13putEcP6Status+0xf>
    2f8c: a5 13        	lda	$13                     ; 0x2013 <_ZN12_GLOBAL__N_13putEcP6Status+0xc>
    2f8e: 85 17        	sta	$17                     ; 0x2017 <_ZN12_GLOBAL__N_13putEcP6Status+0x10>
    2f90: b2 14        	lda	($14)                   ; 0x2014 <_ZN12_GLOBAL__N_13putEcP6Status+0xd>
    2f92: 92 16        	sta	($16)                   ; 0x2016 <_ZN12_GLOBAL__N_13putEcP6Status+0xf>
    2f94: e6 16        	inc	$16                     ; 0x2016 <_ZN12_GLOBAL__N_13putEcP6Status+0xf>
    2f96: d0 02        	bne	$2f9a <memcpy+0x19>
    2f98: e6 17        	inc	$17                     ; 0x2017 <_ZN12_GLOBAL__N_13putEcP6Status+0x10>
    2f9a: e6 14        	inc	$14                     ; 0x2014 <_ZN12_GLOBAL__N_13putEcP6Status+0xd>
    2f9c: d0 02        	bne	$2fa0 <memcpy+0x1f>
    2f9e: e6 15        	inc	$15                     ; 0x2015 <_ZN12_GLOBAL__N_13putEcP6Status+0xe>
    2fa0: 88           	dey
    2fa1: c0 ff        	cpy	#$ff
    2fa3: d0 01        	bne	$2fa6 <memcpy+0x25>
    2fa5: ca           	dex
    2fa6: 8a           	txa
    2fa7: d0 e7        	bne	$2f90 <memcpy+0xf>
    2fa9: 98           	tya
    2faa: d0 e4        	bne	$2f90 <memcpy+0xf>
    2fac: 60           	rts

00002fad <__memset>:
    2fad: a4 14        	ldy	$14                     ; 0x2014 <_ZN12_GLOBAL__N_13putEcP6Status+0xd>
    2faf: d0 04        	bne	$2fb5 <__memset+0x8>
    2fb1: e0 00        	cpx	#$0
    2fb3: f0 17        	beq	$2fcc <__memset+0x1f>
    2fb5: 92 12        	sta	($12)                   ; 0x2012 <_ZN12_GLOBAL__N_13putEcP6Status+0xb>
    2fb7: e6 12        	inc	$12                     ; 0x2012 <_ZN12_GLOBAL__N_13putEcP6Status+0xb>
    2fb9: d0 02        	bne	$2fbd <__memset+0x10>
    2fbb: e6 13        	inc	$13                     ; 0x2013 <_ZN12_GLOBAL__N_13putEcP6Status+0xc>
    2fbd: ca           	dex
    2fbe: e0 ff        	cpx	#$ff
    2fc0: d0 02        	bne	$2fc4 <__memset+0x17>
    2fc2: c6 14        	dec	$14                     ; 0x2014 <_ZN12_GLOBAL__N_13putEcP6Status+0xd>
    2fc4: a4 14        	ldy	$14                     ; 0x2014 <_ZN12_GLOBAL__N_13putEcP6Status+0xd>
    2fc6: d0 ed        	bne	$2fb5 <__memset+0x8>
    2fc8: e0 00        	cpx	#$0
    2fca: d0 e9        	bne	$2fb5 <__memset+0x8>
    2fcc: 60           	rts
