
BachHero.elf:	file format elf32-mos

SYMBOL TABLE:
00000000 l    df *ABS*	00000000 zero-bss.c
00000000 l    df *ABS*	00000000 zero-zp-bss.c
00000000 l    df *ABS*	00000000 copy-zp-data.c
00000000 l    df *ABS*	00000000 ld-temp.o
00000357 l     F .text	0000034d f256Init
00000032 l     O .zp.bss	00000007 kernelEventData
000029c8 l     O .rodata	00000030 textColors
000006a4 l     F .text	0000009a textClear
00000049 l     O .zp.bss	00000001 _MAX_X
00000047 l     O .zp.bss	00000001 _active
00000048 l     O .zp.bss	00000001 _color
0000003b l     O .zp.bss	0000000c _BITMAP_BASE
000030a9 l     O .bss	00000003 _BITMAP_CLUT
0000004a l     O .zp.bss	00000001 _tileSize.0
0000004b l     O .zp.bss	00000001 _tileSize.1
0000004c l     O .zp.bss	00000001 _tileSize.2
0000004d l     O .zp.bss	00000040 _spriteCtl
000030a8 l     O .bss	00000001 kernelError
00000039 l     O .zp.bss	00000001 _col
0000003a l     O .zp.bss	00000001 _row
00000744 l     F .text	00000e5c f256main
00000092 l     O .zp.bss	00000001 GUITimer.1
00000093 l     O .zp.bss	00000001 midiTimer.1
00000094 l     O .zp.bss	00000001 glassesTimer.1
000015a0 l     F .text	00000438 bitmapLine
00000095 l     O .zp.bss	00000001 scrollTimer.1
00001d75 l     F .text	00000bb0 printf
0000008f l     O .zp.bss	00000001 score
00000091 l     O .zp.bss	00000001 midiPSG
00000096 l     O .zp.bss	00000002 songrefnote
000029f8 l     O .rodata	00000080 MIDINotesToKeyCodes
00002af3 l     O .rodata	0000007b KeyCodesToLoPSG
00002b6e l     O .rodata	0000007b KeyCodesToHiPSG
00002a78 l     O .rodata	0000007b KeyCodesToMIDINotes
00002c89 l     O .rodata	00000052 songNotes
00002be9 l     O .rodata	000000a0 NoteXPosition
00000030 l     O .zp.data	00000002 reticY
00000090 l     O .zp.bss	00000001 reticX
00002cdb l     O .rodata	00000200 SIN
00002925 l     F .text	0000000c putchar
000019d8 l     F .text	000001ba __putchar
0000008d l     O .zp.bss	00000002 __putchar.s
00001b97 l     F .text	000000d1 _ZN12_GLOBAL__N_13putEcP6Status
00001c68 l     F .text	0000010d _ZN12_GLOBAL__N_112print_stringEPKcP6Status
0000073e g     F .text	00000006 main
00018000 g       .xab	00000000 xab_start
00048000 g       .tileset2	00000000 tileset2_start
00039640 g       .psgmap	00000000 psgmap_end
00040000 g       .tileset1	00000000 tileset1_start
00038400 g       .glasses2	00000000 glasses2_start
0004ff00 g       .tileset2	00000000 tileset2_end
00038f20 g       .psgmap	00000000 psgmap_start
00038400 g       .glasses1	00000000 glasses1_end
00010000 g       .xaa	00000000 xaa_start
00028000 g       .palbach	00000000 palbach_start
00028400 g       .palbach	00000000 palbach_end
00020000 g       .xac	00000000 xac_start
00018000 g       .xaa	00000000 xaa_end
00038800 g       .glasses2	00000000 glasses2_end
00028800 g       .ntespr	00000000 ntespr_start
00022c00 g       .xac	00000000 xac_end
00028400 g       .paltile	00000000 paltile_start
00020000 g       .xab	00000000 xab_end
00028800 g       .paltile	00000000 paltile_end
00038000 g       .glasses1	00000000 glasses1_start
00038800 g       .tilemap	00000000 tilemap_start
00048000 g       .tileset1	00000000 tileset1_end
00028840 g       .ntespr	00000000 ntespr_end
00038f20 g       .tilemap	00000000 tilemap_end
00000316 g       .text	00000000 __after_main
00000302 g       .text	00000000 __do_init_stack
00000310 g       .text	00000000 __do_copy_zp_data
00000340 g     F .text	00000017 __copy_zp_data
0000030a g       .text	00000000 __do_zero_bss
0000031a g     F .text	00000013 __zero_bss
0000030d g       .text	00000000 __do_zero_zp_bss
0000032d g     F .text	00000013 __zero_zp_bss
00001b92 g     F .text	00000005 exit
00000319 g       .text	00000000 _fini
0000297d g       .rodata	00000000 __set_v
0000295d  w    F .text	00000020 __memset
00001000  w      *ABS*	00000000 __heap_default_limit
000030ac g       .noinit	00000000 __heap_start
00002931  w    F .text	0000002c memcpy
00000010 g       *ABS*	00000000 __rc0
00000012 g       *ABS*	00000000 __rc2
00000014 g       *ABS*	00000000 __rc4
00000016 g       *ABS*	00000000 __rc6
00000018 g       *ABS*	00000000 __rc8
0000001a g       *ABS*	00000000 __rc10
0000001c g       *ABS*	00000000 __rc12
0000001e g       *ABS*	00000000 __rc14
00000020 g       *ABS*	00000000 __rc16
00000022 g       *ABS*	00000000 __rc18
00000024 g       *ABS*	00000000 __rc20
00000026 g       *ABS*	00000000 __rc22
00000028 g       *ABS*	00000000 __rc24
0000002a g       *ABS*	00000000 __rc26
0000002c g       *ABS*	00000000 __rc28
0000002e g       *ABS*	00000000 __rc30
0000002f g       *ABS*	00000000 __rc31
00000300 g       *ABS*	00000000 __f256_start
0000a000 g       *ABS*	00000000 __stack
0000a000 g       *ABS*	00000000 __SLOT_ADDR
0800a000 g       *ABS*	00000000 __block8_lma
00002000 g       *ABS*	00000000 __BLOCK_SIZE
0900a000 g       *ABS*	00000000 __block9_lma
0a00a000 g       *ABS*	00000000 __block10_lma
0b00a000 g       *ABS*	00000000 __block11_lma
0c00a000 g       *ABS*	00000000 __block12_lma
0d00a000 g       *ABS*	00000000 __block13_lma
0e00a000 g       *ABS*	00000000 __block14_lma
0f00a000 g       *ABS*	00000000 __block15_lma
1000a000 g       *ABS*	00000000 __block16_lma
1100a000 g       *ABS*	00000000 __block17_lma
1200a000 g       *ABS*	00000000 __block18_lma
1300a000 g       *ABS*	00000000 __block19_lma
1400a000 g       *ABS*	00000000 __block20_lma
1500a000 g       *ABS*	00000000 __block21_lma
1600a000 g       *ABS*	00000000 __block22_lma
1700a000 g       *ABS*	00000000 __block23_lma
00010000 g       *ABS*	00000000 __xaa_lma
00008000 g       *ABS*	00000000 __xaa_size
00018000 g       *ABS*	00000000 __xab_lma
00008000 g       *ABS*	00000000 __xab_size
00020000 g       *ABS*	00000000 __xac_lma
00002c00 g       *ABS*	00000000 __xac_size
00028000 g       *ABS*	00000000 __palbach_lma
00000400 g       *ABS*	00000000 __palbach_size
00028400 g       *ABS*	00000000 __paltile_lma
00000400 g       *ABS*	00000000 __paltile_size
00028800 g       *ABS*	00000000 __ntespr_lma
00000040 g       *ABS*	00000000 __ntespr_size
00038000 g       *ABS*	00000000 __glasses1_lma
00000400 g       *ABS*	00000000 __glasses1_size
00038400 g       *ABS*	00000000 __glasses2_lma
00000400 g       *ABS*	00000000 __glasses2_size
00038800 g       *ABS*	00000000 __tilemap_lma
00000720 g       *ABS*	00000000 __tilemap_size
00038f20 g       *ABS*	00000000 __psgmap_lma
00000720 g       *ABS*	00000000 __psgmap_size
00040000 g       *ABS*	00000000 __tileset1_lma
00008000 g       *ABS*	00000000 __tileset1_size
00048000 g       *ABS*	00000000 __tileset2_lma
00007f00 g       *ABS*	00000000 __tileset2_size
000030a8 g       .bss	00000000 __bss_start
00018000 g       .xaa	00000000 end_xaa
00020000 g       .xab	00000000 end_xab
00022c00 g       .xac	00000000 end_xac
00028400 g       .palbach	00000000 end_palbach
00028800 g       .paltile	00000000 end_paltile
00028840 g       .ntespr	00000000 end_ntespr
00038400 g       .glasses1	00000000 end_glasses1
00038800 g       .glasses2	00000000 end_glasses2
00038f20 g       .tilemap	00000000 end_tilemap
00039640 g       .psgmap	00000000 end_psgmap
00048000 g       .tileset1	00000000 end_tileset1
0004ff00 g       .tileset2	00000000 end_tileset2
00000302 g       .text	00000000 _start
0000002d g       *ABS*	00000000 __rc29
0000002b g       *ABS*	00000000 __rc27
00000029 g       *ABS*	00000000 __rc25
00000027 g       *ABS*	00000000 __rc23
00000025 g       *ABS*	00000000 __rc21
00000023 g       *ABS*	00000000 __rc19
00000021 g       *ABS*	00000000 __rc17
0000001f g       *ABS*	00000000 __rc15
0000001d g       *ABS*	00000000 __rc13
0000001b g       *ABS*	00000000 __rc11
00000019 g       *ABS*	00000000 __rc9
00000017 g       *ABS*	00000000 __rc7
00000015 g       *ABS*	00000000 __rc5
00000013 g       *ABS*	00000000 __rc3
00000011 g       *ABS*	00000000 __rc1
00000030 g       .zp.data	00000000 __zp_data_start
00000300 g       *ABS*	00000000 __zp_data_load_start
00000002 g       *ABS*	00000000 __zp_data_size
00000032 g       .zp.bss	00000000 __zp_bss_start
00000066 g       *ABS*	00000000 __zp_bss_size
00000302 g       .text	00000000 _init
0000297d g       .text	00000000 __init_array_start
0000297d g       .text	00000000 __init_array_end
0000297d g       .text	00000000 __fini_array_start
0000297d g       .text	00000000 __fini_array_end
000030a8 g       .data	00000000 __data_start
000030a8 g       .data	00000000 __data_end
000030a8 g       *ABS*	00000000 __data_load_start
00000000 g       *ABS*	00000000 __data_size
000030ac g       .bss	00000000 __bss_end
00000004 g       *ABS*	00000000 __bss_size
000030ac g       .noinit	00000000 end_block8
000030ac g       .noinit	00000000 end_block9
000030ac g       .noinit	00000000 end_block10
000030ac g       .noinit	00000000 end_block11
000030ac g       .noinit	00000000 end_block12
000030ac g       .noinit	00000000 end_block13
000030ac g       .noinit	00000000 end_block14
000030ac g       .noinit	00000000 end_block15
000030ac g       .noinit	00000000 end_block16
000030ac g       .noinit	00000000 end_block17
000030ac g       .noinit	00000000 end_block18
000030ac g       .noinit	00000000 end_block19
000030ac g       .noinit	00000000 end_block20
000030ac g       .noinit	00000000 end_block21
000030ac g       .noinit	00000000 end_block22
000030ac g       .noinit	00000000 end_block23

Disassembly of section .text:

00000302 <_start>:
     302: a9 00        	lda	#$0
     304: 85 10        	sta	$10                     ; 0x2010 <printf+0x29b>
     306: a9 a0        	lda	#$a0
     308: 85 11        	sta	$11                     ; 0x2011 <printf+0x29c>

0000030a <__do_zero_bss>:
     30a: 20 1a 03     	jsr	$31a <__zero_bss>

0000030d <__do_zero_zp_bss>:
     30d: 20 2d 03     	jsr	$32d <__zero_zp_bss>

00000310 <__do_copy_zp_data>:
     310: 20 40 03     	jsr	$340 <__copy_zp_data>
     313: 20 3e 07     	jsr	$73e <main>

00000316 <__after_main>:
     316: 4c 92 1b     	jmp	$1b92 <exit>

00000319 <_fini>:
     319: 60           	rts

0000031a <__zero_bss>:
     31a: a2 04        	ldx	#$4
     31c: a0 00        	ldy	#$0
     31e: a9 a8        	lda	#$a8
     320: 85 12        	sta	$12                     ; 0x2012 <printf+0x29d>
     322: a9 30        	lda	#$30
     324: 85 13        	sta	$13                     ; 0x2013 <printf+0x29e>
     326: a9 00        	lda	#$0
     328: 84 14        	sty	$14                     ; 0x2014 <printf+0x29f>
     32a: 4c 5d 29     	jmp	$295d <__memset>

0000032d <__zero_zp_bss>:
     32d: a2 66        	ldx	#$66
     32f: a0 00        	ldy	#$0
     331: a9 32        	lda	#$32
     333: 85 12        	sta	$12                     ; 0x2012 <printf+0x29d>
     335: a9 00        	lda	#$0
     337: 85 13        	sta	$13                     ; 0x2013 <printf+0x29e>
     339: a9 00        	lda	#$0
     33b: 84 14        	sty	$14                     ; 0x2014 <printf+0x29f>
     33d: 4c 5d 29     	jmp	$295d <__memset>

00000340 <__copy_zp_data>:
     340: a9 02        	lda	#$2
     342: a2 00        	ldx	#$0
     344: a0 30        	ldy	#$30
     346: 84 12        	sty	$12                     ; 0x2012 <printf+0x29d>
     348: a0 00        	ldy	#$0
     34a: 84 13        	sty	$13                     ; 0x2013 <printf+0x29e>
     34c: a0 00        	ldy	#$0
     34e: 84 14        	sty	$14                     ; 0x2014 <printf+0x29f>
     350: a0 03        	ldy	#$3
     352: 84 15        	sty	$15                     ; 0x2015 <printf+0x2a0>
     354: 4c 31 29     	jmp	$2931 <memcpy>

00000357 <f256Init>:
     357: 64 12        	stz	$12                     ; 0x2012 <printf+0x29d>
     359: 64 01        	stz	$1                      ; 0x2001 <printf+0x28c>
     35b: a2 3f        	ldx	#$3f
     35d: 8e 00 d0     	stx	$d000                   ; 0xd000 <end_block9+0x9f54>
     360: a2 b3        	ldx	#$b3
     362: 86 00        	stx	$0                      ; 0x2000 <printf+0x28b>
     364: 64 08        	stz	$8                      ; 0x2008 <printf+0x293>
     366: a2 01        	ldx	#$1
     368: 86 09        	stx	$9                      ; 0x2009 <printf+0x294>
     36a: e8           	inx
     36b: 86 0a        	stx	$a                      ; 0x200a <printf+0x295>
     36d: e8           	inx
     36e: 86 0b        	stx	$b                      ; 0x200b <printf+0x296>
     370: e8           	inx
     371: 86 0c        	stx	$c                      ; 0x200c <printf+0x297>
     373: e8           	inx
     374: 86 0d        	stx	$d                      ; 0x200d <printf+0x298>
     376: a2 32        	ldx	#$32
     378: a0 00        	ldy	#$0
     37a: 86 f0        	stx	$f0                     ; 0x20f0 <printf+0x37b>
     37c: 84 f1        	sty	$f1                     ; 0x20f1 <printf+0x37c>
     37e: a2 00        	ldx	#$0
     380: 86 16        	stx	$16                     ; 0x2016 <printf+0x2a1>
     382: ca           	dex
     383: 86 17        	stx	$17                     ; 0x2017 <printf+0x2a2>
     385: 8a           	txa
     386: 0a           	asl
     387: 0a           	asl
     388: 18           	clc
     389: 69 d4        	adc	#$d4
     38b: 85 18        	sta	$18                     ; 0x2018 <printf+0x2a3>
     38d: a0 00        	ldy	#$0
     38f: 64 15        	stz	$15                     ; 0x2015 <printf+0x2a0>
     391: 64 14        	stz	$14                     ; 0x2014 <printf+0x29f>
     393: a6 17        	ldx	$17                     ; 0x2017 <printf+0x2a2>
     395: e0 03        	cpx	#$3
     397: a6 01        	ldx	$1                      ; 0x2001 <printf+0x28c>
     399: 86 1a        	stx	$1a                     ; 0x201a <printf+0x2a5>
     39b: a2 d0        	ldx	#$d0
     39d: 84 19        	sty	$19                     ; 0x2019 <printf+0x2a4>
     39f: b0 02        	bcs	$3a3 <f256Init+0x4c>
     3a1: a6 18        	ldx	$18                     ; 0x2018 <printf+0x2a3>
     3a3: 86 13        	stx	$13                     ; 0x2013 <printf+0x29e>
     3a5: a5 15        	lda	$15                     ; 0x2015 <printf+0x2a0>
     3a7: 18           	clc
     3a8: 65 12        	adc	$12                     ; 0x2012 <printf+0x29d>
     3aa: a8           	tay
     3ab: a6 15        	ldx	$15                     ; 0x2015 <printf+0x2a0>
     3ad: a5 14        	lda	$14                     ; 0x2014 <printf+0x29f>
     3af: 85 1b        	sta	$1b                     ; 0x201b <printf+0x2a6>
     3b1: a5 14        	lda	$14                     ; 0x2014 <printf+0x29f>
     3b3: 65 13        	adc	$13                     ; 0x2013 <printf+0x29e>
     3b5: 84 14        	sty	$14                     ; 0x2014 <printf+0x29f>
     3b7: a0 01        	ldy	#$1
     3b9: 84 01        	sty	$1                      ; 0x2001 <printf+0x28c>
     3bb: 85 15        	sta	$15                     ; 0x2015 <printf+0x2a0>
     3bd: a5 19        	lda	$19                     ; 0x2019 <printf+0x2a4>
     3bf: 92 14        	sta	($14)                   ; 0x2014 <printf+0x29f>
     3c1: 91 14        	sta	($14),y                 ; 0x2014 <printf+0x29f>
     3c3: c8           	iny
     3c4: 91 14        	sta	($14),y                 ; 0x2014 <printf+0x29f>
     3c6: 85 13        	sta	$13                     ; 0x2013 <printf+0x29e>
     3c8: c8           	iny
     3c9: a9 ff        	lda	#$ff
     3cb: 91 14        	sta	($14),y                 ; 0x2014 <printf+0x29f>
     3cd: 8a           	txa
     3ce: a6 1a        	ldx	$1a                     ; 0x201a <printf+0x2a5>
     3d0: 86 01        	stx	$1                      ; 0x2001 <printf+0x28c>
     3d2: 18           	clc
     3d3: 69 04        	adc	#$4
     3d5: 85 15        	sta	$15                     ; 0x2015 <printf+0x2a0>
     3d7: a5 1b        	lda	$1b                     ; 0x201b <printf+0x2a6>
     3d9: 69 00        	adc	#$0
     3db: e6 13        	inc	$13                     ; 0x2013 <printf+0x29e>
     3dd: a4 13        	ldy	$13                     ; 0x2013 <printf+0x29e>
     3df: 85 14        	sta	$14                     ; 0x2014 <printf+0x29f>
     3e1: c9 04        	cmp	#$4
     3e3: f0 03        	beq	$3e8 <f256Init+0x91>
     3e5: 4c 93 03     	jmp	$393 <f256Init+0x3c>
     3e8: a5 15        	lda	$15                     ; 0x2015 <printf+0x2a0>
     3ea: f0 03        	beq	$3ef <f256Init+0x98>
     3ec: 4c 93 03     	jmp	$393 <f256Init+0x3c>
     3ef: a6 16        	ldx	$16                     ; 0x2016 <printf+0x2a1>
     3f1: e8           	inx
     3f2: e0 04        	cpx	#$4
     3f4: f0 03        	beq	$3f9 <f256Init+0xa2>
     3f6: 4c 80 03     	jmp	$380 <f256Init+0x29>
     3f9: ad 02 d0     	lda	$d002                   ; 0xd002 <end_block9+0x9f56>
     3fc: 29 f0        	and	#$f0
     3fe: 8d 02 d0     	sta	$d002                   ; 0xd002 <end_block9+0x9f56>
     401: ad 02 d0     	lda	$d002                   ; 0xd002 <end_block9+0x9f56>
     404: 29 0f        	and	#$f
     406: 09 10        	ora	#$10
     408: 8d 02 d0     	sta	$d002                   ; 0xd002 <end_block9+0x9f56>
     40b: a2 02        	ldx	#$2
     40d: 8e 03 d0     	stx	$d003                   ; 0xd003 <end_block9+0x9f57>
     410: ad 01 d0     	lda	$d001                   ; 0xd001 <end_block9+0x9f55>
     413: 29 f9        	and	#$f9
     415: 09 04        	ora	#$4
     417: 8d 01 d0     	sta	$d001                   ; 0xd001 <end_block9+0x9f55>
     41a: 64 12        	stz	$12                     ; 0x2012 <printf+0x29d>
     41c: 9c 10 d0     	stz	$d010                   ; 0xd010 <end_block9+0x9f64>
     41f: a2 00        	ldx	#$0
     421: 64 13        	stz	$13                     ; 0x2013 <printf+0x29e>
     423: 86 16        	stx	$16                     ; 0x2016 <printf+0x2a1>
     425: a4 16        	ldy	$16                     ; 0x2016 <printf+0x2a1>
     427: be c8 29     	ldx	$29c8,y                 ; 0x29c8 <textColors>
     42a: 86 17        	stx	$17                     ; 0x2017 <printf+0x2a2>
     42c: be c9 29     	ldx	$29c9,y                 ; 0x29c9 <textColors+0x1>
     42f: 86 18        	stx	$18                     ; 0x2018 <printf+0x2a3>
     431: be ca 29     	ldx	$29ca,y                 ; 0x29ca <textColors+0x2>
     434: 86 19        	stx	$19                     ; 0x2019 <printf+0x2a4>
     436: a6 13        	ldx	$13                     ; 0x2013 <printf+0x29e>
     438: 8e 00 de     	stx	$de00                   ; 0xde00 <end_block9+0xad54>
     43b: 86 15        	stx	$15                     ; 0x2015 <printf+0x2a0>
     43d: 9c 01 de     	stz	$de01                   ; 0xde01 <end_block9+0xad55>
     440: a2 04        	ldx	#$4
     442: 8e 02 de     	stx	$de02                   ; 0xde02 <end_block9+0xad56>
     445: 9c 03 de     	stz	$de03                   ; 0xde03 <end_block9+0xad57>
     448: ad 10 de     	lda	$de10                   ; 0xde10 <end_block9+0xad64>
     44b: ac 11 de     	ldy	$de11                   ; 0xde11 <end_block9+0xad65>
     44e: 84 13        	sty	$13                     ; 0x2013 <printf+0x29e>
     450: ac 12 de     	ldy	$de12                   ; 0xde12 <end_block9+0xad66>
     453: ac 13 de     	ldy	$de13                   ; 0xde13 <end_block9+0xad67>
     456: 18           	clc
     457: 65 12        	adc	$12                     ; 0x2012 <printf+0x29d>
     459: 85 14        	sta	$14                     ; 0x2014 <printf+0x29f>
     45b: a6 15        	ldx	$15                     ; 0x2015 <printf+0x2a0>
     45d: a9 d8        	lda	#$d8
     45f: 65 13        	adc	$13                     ; 0x2013 <printf+0x29e>
     461: 85 15        	sta	$15                     ; 0x2015 <printf+0x2a0>
     463: a5 19        	lda	$19                     ; 0x2019 <printf+0x2a4>
     465: 92 14        	sta	($14)                   ; 0x2014 <printf+0x29f>
     467: a0 01        	ldy	#$1
     469: a5 18        	lda	$18                     ; 0x2018 <printf+0x2a3>
     46b: 91 14        	sta	($14),y                 ; 0x2014 <printf+0x29f>
     46d: c8           	iny
     46e: a5 17        	lda	$17                     ; 0x2017 <printf+0x2a2>
     470: 91 14        	sta	($14),y                 ; 0x2014 <printf+0x29f>
     472: c8           	iny
     473: a9 ff        	lda	#$ff
     475: 91 14        	sta	($14),y                 ; 0x2014 <printf+0x29f>
     477: 8e 00 de     	stx	$de00                   ; 0xde00 <end_block9+0xad54>
     47a: 9c 01 de     	stz	$de01                   ; 0xde01 <end_block9+0xad55>
     47d: c8           	iny
     47e: 8c 02 de     	sty	$de02                   ; 0xde02 <end_block9+0xad56>
     481: 9c 03 de     	stz	$de03                   ; 0xde03 <end_block9+0xad57>
     484: ad 10 de     	lda	$de10                   ; 0xde10 <end_block9+0xad64>
     487: 85 13        	sta	$13                     ; 0x2013 <printf+0x29e>
     489: ad 11 de     	lda	$de11                   ; 0xde11 <end_block9+0xad65>
     48c: 85 14        	sta	$14                     ; 0x2014 <printf+0x29f>
     48e: a9 40        	lda	#$40
     490: 18           	clc
     491: 65 13        	adc	$13                     ; 0x2013 <printf+0x29e>
     493: a8           	tay
     494: a9 d8        	lda	#$d8
     496: 65 14        	adc	$14                     ; 0x2014 <printf+0x29f>
     498: 85 15        	sta	$15                     ; 0x2015 <printf+0x2a0>
     49a: 84 14        	sty	$14                     ; 0x2014 <printf+0x29f>
     49c: ad 12 de     	lda	$de12                   ; 0xde12 <end_block9+0xad66>
     49f: ad 13 de     	lda	$de13                   ; 0xde13 <end_block9+0xad67>
     4a2: a5 19        	lda	$19                     ; 0x2019 <printf+0x2a4>
     4a4: 92 14        	sta	($14)                   ; 0x2014 <printf+0x29f>
     4a6: a5 18        	lda	$18                     ; 0x2018 <printf+0x2a3>
     4a8: a0 01        	ldy	#$1
     4aa: 91 14        	sta	($14),y                 ; 0x2014 <printf+0x29f>
     4ac: a5 17        	lda	$17                     ; 0x2017 <printf+0x2a2>
     4ae: c8           	iny
     4af: 91 14        	sta	($14),y                 ; 0x2014 <printf+0x29f>
     4b1: c8           	iny
     4b2: a9 ff        	lda	#$ff
     4b4: 91 14        	sta	($14),y                 ; 0x2014 <printf+0x29f>
     4b6: e8           	inx
     4b7: 86 13        	stx	$13                     ; 0x2013 <printf+0x29e>
     4b9: 18           	clc
     4ba: a5 16        	lda	$16                     ; 0x2016 <printf+0x2a1>
     4bc: 69 03        	adc	#$3
     4be: aa           	tax
     4bf: c9 30        	cmp	#$30
     4c1: f0 03        	beq	$4c6 <f256Init+0x16f>
     4c3: 4c 23 04     	jmp	$423 <f256Init+0xcc>
     4c6: 20 a4 06     	jsr	$6a4 <textClear>
     4c9: a0 01        	ldy	#$1
     4cb: 84 49        	sty	$49                     ; 0x2049 <printf+0x2d4>
     4cd: a2 40        	ldx	#$40
     4cf: 8e 00 de     	stx	$de00                   ; 0xde00 <end_block9+0xad54>
     4d2: 8c 01 de     	sty	$de01                   ; 0xde01 <end_block9+0xad55>
     4d5: a2 f0        	ldx	#$f0
     4d7: 8e 02 de     	stx	$de02                   ; 0xde02 <end_block9+0xad56>
     4da: 9c 03 de     	stz	$de03                   ; 0xde03 <end_block9+0xad57>
     4dd: ae 10 de     	ldx	$de10                   ; 0xde10 <end_block9+0xad64>
     4e0: 86 17        	stx	$17                     ; 0x2017 <printf+0x2a2>
     4e2: ae 11 de     	ldx	$de11                   ; 0xde11 <end_block9+0xad65>
     4e5: 86 12        	stx	$12                     ; 0x2012 <printf+0x29d>
     4e7: ae 12 de     	ldx	$de12                   ; 0xde12 <end_block9+0xad66>
     4ea: 86 13        	stx	$13                     ; 0x2013 <printf+0x29e>
     4ec: ae 13 de     	ldx	$de13                   ; 0xde13 <end_block9+0xad67>
     4ef: 86 14        	stx	$14                     ; 0x2014 <printf+0x29f>
     4f1: 64 47        	stz	$47                     ; 0x2047 <printf+0x2d2>
     4f3: 84 48        	sty	$48                     ; 0x2048 <printf+0x2d3>
     4f5: a4 12        	ldy	$12                     ; 0x2012 <printf+0x29d>
     4f7: 84 15        	sty	$15                     ; 0x2015 <printf+0x2a0>
     4f9: 06 15        	asl	$15                     ; 0x2015 <printf+0x2a0>
     4fb: a5 13        	lda	$13                     ; 0x2013 <printf+0x29e>
     4fd: 2a           	rol
     4fe: 86 16        	stx	$16                     ; 0x2016 <printf+0x2a1>
     500: 26 16        	rol	$16                     ; 0x2016 <printf+0x2a1>
     502: 06 15        	asl	$15                     ; 0x2015 <printf+0x2a0>
     504: 2a           	rol
     505: 26 16        	rol	$16                     ; 0x2016 <printf+0x2a1>
     507: 06 15        	asl	$15                     ; 0x2015 <printf+0x2a0>
     509: 2a           	rol
     50a: 26 16        	rol	$16                     ; 0x2016 <printf+0x2a1>
     50c: 85 15        	sta	$15                     ; 0x2015 <printf+0x2a0>
     50e: 8d 00 de     	sta	$de00                   ; 0xde00 <end_block9+0xad54>
     511: a5 16        	lda	$16                     ; 0x2016 <printf+0x2a1>
     513: 8d 01 de     	sta	$de01                   ; 0xde01 <end_block9+0xad55>
     516: 9c 02 de     	stz	$de02                   ; 0xde02 <end_block9+0xad56>
     519: a2 20        	ldx	#$20
     51b: 8e 03 de     	stx	$de03                   ; 0xde03 <end_block9+0xad57>
     51e: ae 10 de     	ldx	$de10                   ; 0xde10 <end_block9+0xad64>
     521: 86 16        	stx	$16                     ; 0x2016 <printf+0x2a1>
     523: ae 11 de     	ldx	$de11                   ; 0xde11 <end_block9+0xad65>
     526: 86 18        	stx	$18                     ; 0x2018 <printf+0x2a3>
     528: ac 12 de     	ldy	$de12                   ; 0xde12 <end_block9+0xad66>
     52b: ae 13 de     	ldx	$de13                   ; 0xde13 <end_block9+0xad67>
     52e: e4 14        	cpx	$14                     ; 0x2014 <printf+0x29f>
     530: d0 14        	bne	$546 <f256Init+0x1ef>
     532: c4 13        	cpy	$13                     ; 0x2013 <printf+0x29e>
     534: d0 10        	bne	$546 <f256Init+0x1ef>
     536: a6 18        	ldx	$18                     ; 0x2018 <printf+0x2a3>
     538: e4 12        	cpx	$12                     ; 0x2012 <printf+0x29d>
     53a: d0 0a        	bne	$546 <f256Init+0x1ef>
     53c: a6 16        	ldx	$16                     ; 0x2016 <printf+0x2a1>
     53e: e4 17        	cpx	$17                     ; 0x2017 <printf+0x2a2>
     540: d0 04        	bne	$546 <f256Init+0x1ef>
     542: a6 15        	ldx	$15                     ; 0x2015 <printf+0x2a0>
     544: 80 06        	bra	$54c <f256Init+0x1f5>
     546: a6 15        	ldx	$15                     ; 0x2015 <printf+0x2a0>
     548: e8           	inx
     549: d0 01        	bne	$54c <f256Init+0x1f5>
     54b: 1a           	inc
     54c: 8e 00 de     	stx	$de00                   ; 0xde00 <end_block9+0xad54>
     54f: 8d 01 de     	sta	$de01                   ; 0xde01 <end_block9+0xad55>
     552: 9c 02 de     	stz	$de02                   ; 0xde02 <end_block9+0xad56>
     555: a2 20        	ldx	#$20
     557: 8e 03 de     	stx	$de03                   ; 0xde03 <end_block9+0xad57>
     55a: ae 10 de     	ldx	$de10                   ; 0xde10 <end_block9+0xad64>
     55d: 86 12        	stx	$12                     ; 0x2012 <printf+0x29d>
     55f: ae 11 de     	ldx	$de11                   ; 0xde11 <end_block9+0xad65>
     562: 86 13        	stx	$13                     ; 0x2013 <printf+0x29e>
     564: ae 12 de     	ldx	$de12                   ; 0xde12 <end_block9+0xad66>
     567: 86 14        	stx	$14                     ; 0x2014 <printf+0x29f>
     569: ae 13 de     	ldx	$de13                   ; 0xde13 <end_block9+0xad67>
     56c: 86 15        	stx	$15                     ; 0x2015 <printf+0x2a0>
     56e: 38           	sec
     56f: a9 00        	lda	#$0
     571: e5 12        	sbc	$12                     ; 0x2012 <printf+0x29d>
     573: 85 19        	sta	$19                     ; 0x2019 <printf+0x2a4>
     575: a9 00        	lda	#$0
     577: e5 13        	sbc	$13                     ; 0x2013 <printf+0x29e>
     579: aa           	tax
     57a: a9 08        	lda	#$8
     57c: e5 14        	sbc	$14                     ; 0x2014 <printf+0x29f>
     57e: 85 16        	sta	$16                     ; 0x2016 <printf+0x2a1>
     580: a9 00        	lda	#$0
     582: e5 15        	sbc	$15                     ; 0x2015 <printf+0x2a0>
     584: 86 3c        	stx	$3c                     ; 0x203c <printf+0x2c7>
     586: a4 16        	ldy	$16                     ; 0x2016 <printf+0x2a1>
     588: 84 3d        	sty	$3d                     ; 0x203d <printf+0x2c8>
     58a: 85 3e        	sta	$3e                     ; 0x203e <printf+0x2c9>
     58c: a8           	tay
     58d: a5 19        	lda	$19                     ; 0x2019 <printf+0x2a4>
     58f: 38           	sec
     590: e5 12        	sbc	$12                     ; 0x2012 <printf+0x29d>
     592: 85 18        	sta	$18                     ; 0x2018 <printf+0x2a3>
     594: 8a           	txa
     595: e5 13        	sbc	$13                     ; 0x2013 <printf+0x29e>
     597: 85 1a        	sta	$1a                     ; 0x201a <printf+0x2a5>
     599: a5 16        	lda	$16                     ; 0x2016 <printf+0x2a1>
     59b: e5 14        	sbc	$14                     ; 0x2014 <printf+0x29f>
     59d: 85 16        	sta	$16                     ; 0x2016 <printf+0x2a1>
     59f: 98           	tya
     5a0: e5 15        	sbc	$15                     ; 0x2015 <printf+0x2a0>
     5a2: 85 17        	sta	$17                     ; 0x2017 <printf+0x2a2>
     5a4: 38           	sec
     5a5: a4 18        	ldy	$18                     ; 0x2018 <printf+0x2a3>
     5a7: 84 3f        	sty	$3f                     ; 0x203f <printf+0x2ca>
     5a9: a6 1a        	ldx	$1a                     ; 0x201a <printf+0x2a5>
     5ab: 86 40        	stx	$40                     ; 0x2040 <printf+0x2cb>
     5ad: a4 16        	ldy	$16                     ; 0x2016 <printf+0x2a1>
     5af: 84 41        	sty	$41                     ; 0x2041 <printf+0x2cc>
     5b1: 85 42        	sta	$42                     ; 0x2042 <printf+0x2cd>
     5b3: a5 18        	lda	$18                     ; 0x2018 <printf+0x2a3>
     5b5: e5 12        	sbc	$12                     ; 0x2012 <printf+0x29d>
     5b7: 85 18        	sta	$18                     ; 0x2018 <printf+0x2a3>
     5b9: a5 1a        	lda	$1a                     ; 0x201a <printf+0x2a5>
     5bb: e5 13        	sbc	$13                     ; 0x2013 <printf+0x29e>
     5bd: a8           	tay
     5be: a5 16        	lda	$16                     ; 0x2016 <printf+0x2a1>
     5c0: e5 14        	sbc	$14                     ; 0x2014 <printf+0x29f>
     5c2: 85 12        	sta	$12                     ; 0x2012 <printf+0x29d>
     5c4: a5 17        	lda	$17                     ; 0x2017 <printf+0x2a2>
     5c6: e5 15        	sbc	$15                     ; 0x2015 <printf+0x2a0>
     5c8: a6 18        	ldx	$18                     ; 0x2018 <printf+0x2a3>
     5ca: 86 43        	stx	$43                     ; 0x2043 <printf+0x2ce>
     5cc: 84 44        	sty	$44                     ; 0x2044 <printf+0x2cf>
     5ce: a4 12        	ldy	$12                     ; 0x2012 <printf+0x29d>
     5d0: 84 45        	sty	$45                     ; 0x2045 <printf+0x2d0>
     5d2: a6 19        	ldx	$19                     ; 0x2019 <printf+0x2a4>
     5d4: 86 3b        	stx	$3b                     ; 0x203b <printf+0x2c6>
     5d6: 85 46        	sta	$46                     ; 0x2046 <printf+0x2d1>
     5d8: 9c a9 30     	stz	$30a9                   ; 0x30a9 <_BITMAP_CLUT>
     5db: 9c aa 30     	stz	$30aa                   ; 0x30aa <_BITMAP_CLUT+0x1>
     5de: 9c ab 30     	stz	$30ab                   ; 0x30ab <_BITMAP_CLUT+0x2>
     5e1: 8e 01 d1     	stx	$d101                   ; 0xd101 <end_block9+0xa055>
     5e4: a6 3c        	ldx	$3c                     ; 0x203c <printf+0x2c7>
     5e6: 8e 02 d1     	stx	$d102                   ; 0xd102 <end_block9+0xa056>
     5e9: a6 3d        	ldx	$3d                     ; 0x203d <printf+0x2c8>
     5eb: 8e 03 d1     	stx	$d103                   ; 0xd103 <end_block9+0xa057>
     5ee: a6 3f        	ldx	$3f                     ; 0x203f <printf+0x2ca>
     5f0: 8e 09 d1     	stx	$d109                   ; 0xd109 <end_block9+0xa05d>
     5f3: a6 40        	ldx	$40                     ; 0x2040 <printf+0x2cb>
     5f5: 8e 0a d1     	stx	$d10a                   ; 0xd10a <end_block9+0xa05e>
     5f8: a6 41        	ldx	$41                     ; 0x2041 <printf+0x2cc>
     5fa: 8e 0b d1     	stx	$d10b                   ; 0xd10b <end_block9+0xa05f>
     5fd: a6 43        	ldx	$43                     ; 0x2043 <printf+0x2ce>
     5ff: 8e 11 d1     	stx	$d111                   ; 0xd111 <end_block9+0xa065>
     602: a6 44        	ldx	$44                     ; 0x2044 <printf+0x2cf>
     604: 8e 12 d1     	stx	$d112                   ; 0xd112 <end_block9+0xa066>
     607: a6 45        	ldx	$45                     ; 0x2045 <printf+0x2d0>
     609: 8e 13 d1     	stx	$d113                   ; 0xd113 <end_block9+0xa067>
     60c: 9c 00 d1     	stz	$d100                   ; 0xd100 <end_block9+0xa054>
     60f: 9c 08 d1     	stz	$d108                   ; 0xd108 <end_block9+0xa05c>
     612: 9c 10 d1     	stz	$d110                   ; 0xd110 <end_block9+0xa064>
     615: a2 08        	ldx	#$8
     617: 86 4a        	stx	$4a                     ; 0x204a <printf+0x2d5>
     619: 86 4b        	stx	$4b                     ; 0x204b <printf+0x2d6>
     61b: a2 01        	ldx	#$1
     61d: 86 4c        	stx	$4c                     ; 0x204c <printf+0x2d7>
     61f: a2 10        	ldx	#$10
     621: 8e 00 d2     	stx	$d200                   ; 0xd200 <end_block9+0xa154>
     624: a5 4b        	lda	$4b                     ; 0x204b <printf+0x2d6>
     626: a0 10        	ldy	#$10
     628: c9 08        	cmp	#$8
     62a: f0 02        	beq	$62e <f256Init+0x2d7>
     62c: a0 00        	ldy	#$0
     62e: 8c 0c d2     	sty	$d20c                   ; 0xd20c <end_block9+0xa160>
     631: 8e 18 d2     	stx	$d218                   ; 0xd218 <end_block9+0xa16c>
     634: a0 d9        	ldy	#$d9
     636: a9 00        	lda	#$0
     638: aa           	tax
     639: 85 12        	sta	$12                     ; 0x2012 <printf+0x29d>
     63b: 84 14        	sty	$14                     ; 0x2014 <printf+0x29f>
     63d: 84 13        	sty	$13                     ; 0x2013 <printf+0x29e>
     63f: a8           	tay
     640: b5 4d        	lda	$4d,x                   ; 0x204d <printf+0x2d8>
     642: 92 12        	sta	($12)                   ; 0x2012 <printf+0x29d>
     644: 98           	tya
     645: e8           	inx
     646: 18           	clc
     647: 69 08        	adc	#$8
     649: 85 12        	sta	$12                     ; 0x2012 <printf+0x29d>
     64b: a5 14        	lda	$14                     ; 0x2014 <printf+0x29f>
     64d: 69 00        	adc	#$0
     64f: a8           	tay
     650: a5 12        	lda	$12                     ; 0x2012 <printf+0x29d>
     652: e0 40        	cpx	#$40
     654: d0 e3        	bne	$639 <f256Init+0x2e2>
     656: a2 98        	ldx	#$98
     658: a0 00        	ldy	#$0
     65a: 86 fb        	stx	$fb                     ; 0x20fb <printf+0x386>
     65c: 84 fc        	sty	$fc                     ; 0x20fc <printf+0x387>
     65e: a2 08        	ldx	#$8
     660: 86 fd        	stx	$fd                     ; 0x20fd <printf+0x388>
     662: a2 a0        	ldx	#$a0
     664: a0 00        	ldy	#$0
     666: 86 12        	stx	$12                     ; 0x2012 <printf+0x29d>
     668: 84 13        	sty	$13                     ; 0x2013 <printf+0x29e>
     66a: a2 a8        	ldx	#$a8
     66c: 86 14        	stx	$14                     ; 0x2014 <printf+0x29f>
     66e: a2 30        	ldx	#$30
     670: 86 15        	stx	$15                     ; 0x2015 <printf+0x2a0>
     672: 20 dc ff     	jsr	$ffdc <end_block9+0xcf30>
     675: 92 12        	sta	($12)                   ; 0x2012 <printf+0x29d>
     677: a9 00        	lda	#$0
     679: 6a           	ror
     67a: 85 14        	sta	$14                     ; 0x2014 <printf+0x29f>
     67c: a6 9e        	ldx	$9e                     ; 0x209e <printf+0x329>
     67e: a4 9f        	ldy	$9f                     ; 0x209f <printf+0x32a>
     680: 8e 00 de     	stx	$de00                   ; 0xde00 <end_block9+0xad54>
     683: 9c 01 de     	stz	$de01                   ; 0xde01 <end_block9+0xad55>
     686: 8c 02 de     	sty	$de02                   ; 0xde02 <end_block9+0xad56>
     689: 9c 03 de     	stz	$de03                   ; 0xde03 <end_block9+0xad57>
     68c: ae 10 de     	ldx	$de10                   ; 0xde10 <end_block9+0xad64>
     68f: ac 11 de     	ldy	$de11                   ; 0xde11 <end_block9+0xad65>
     692: ad 12 de     	lda	$de12                   ; 0xde12 <end_block9+0xad66>
     695: ad 13 de     	lda	$de13                   ; 0xde13 <end_block9+0xad67>
     698: 8e a4 d6     	stx	$d6a4                   ; 0xd6a4 <end_block9+0xa5f8>
     69b: 8c a5 d6     	sty	$d6a5                   ; 0xd6a5 <end_block9+0xa5f9>
     69e: a2 03        	ldx	#$3
     6a0: 8e a6 d6     	stx	$d6a6                   ; 0xd6a6 <end_block9+0xa5fa>
     6a3: 60           	rts

000006a4 <textClear>:
     6a4: a6 01        	ldx	$1                      ; 0x2001 <printf+0x28c>
     6a6: 86 18        	stx	$18                     ; 0x2018 <printf+0x2a3>
     6a8: a2 50        	ldx	#$50
     6aa: 8e 00 de     	stx	$de00                   ; 0xde00 <end_block9+0xad54>
     6ad: 9c 01 de     	stz	$de01                   ; 0xde01 <end_block9+0xad55>
     6b0: a2 1e        	ldx	#$1e
     6b2: 8e 02 de     	stx	$de02                   ; 0xde02 <end_block9+0xad56>
     6b5: 9c 03 de     	stz	$de03                   ; 0xde03 <end_block9+0xad57>
     6b8: ae 10 de     	ldx	$de10                   ; 0xde10 <end_block9+0xad64>
     6bb: ac 11 de     	ldy	$de11                   ; 0xde11 <end_block9+0xad65>
     6be: ad 12 de     	lda	$de12                   ; 0xde12 <end_block9+0xad66>
     6c1: ad 13 de     	lda	$de13                   ; 0xde13 <end_block9+0xad67>
     6c4: a9 02        	lda	#$2
     6c6: 85 01        	sta	$1                      ; 0x2001 <printf+0x28c>
     6c8: e0 01        	cpx	#$1
     6ca: 98           	tya
     6cb: e9 00        	sbc	#$0
     6cd: 50 02        	bvc	$6d1 <textClear+0x2d>
     6cf: 49 80        	eor	#$80
     6d1: c9 00        	cmp	#$0
     6d3: 30 50        	bmi	$725 <textClear+0x81>
     6d5: a9 00        	lda	#$0
     6d7: 85 12        	sta	$12                     ; 0x2012 <printf+0x29d>
     6d9: a9 c0        	lda	#$c0
     6db: 85 13        	sta	$13                     ; 0x2013 <printf+0x29e>
     6dd: a9 20        	lda	#$20
     6df: 86 19        	stx	$19                     ; 0x2019 <printf+0x2a4>
     6e1: 86 14        	stx	$14                     ; 0x2014 <printf+0x29f>
     6e3: 84 15        	sty	$15                     ; 0x2015 <printf+0x2a0>
     6e5: a2 00        	ldx	#$0
     6e7: 86 16        	stx	$16                     ; 0x2016 <printf+0x2a1>
     6e9: a2 c0        	ldx	#$c0
     6eb: 86 17        	stx	$17                     ; 0x2017 <printf+0x2a2>
     6ed: 92 16        	sta	($16)                   ; 0x2016 <printf+0x2a1>
     6ef: e6 16        	inc	$16                     ; 0x2016 <printf+0x2a1>
     6f1: d0 02        	bne	$6f5 <textClear+0x51>
     6f3: e6 17        	inc	$17                     ; 0x2017 <printf+0x2a2>
     6f5: a2 ff        	ldx	#$ff
     6f7: c6 14        	dec	$14                     ; 0x2014 <printf+0x29f>
     6f9: e4 14        	cpx	$14                     ; 0x2014 <printf+0x29f>
     6fb: d0 02        	bne	$6ff <textClear+0x5b>
     6fd: c6 15        	dec	$15                     ; 0x2015 <printf+0x2a0>
     6ff: a6 15        	ldx	$15                     ; 0x2015 <printf+0x2a0>
     701: d0 ea        	bne	$6ed <textClear+0x49>
     703: a6 14        	ldx	$14                     ; 0x2014 <printf+0x29f>
     705: d0 e6        	bne	$6ed <textClear+0x49>
     707: a2 03        	ldx	#$3
     709: 86 01        	stx	$1                      ; 0x2001 <printf+0x28c>
     70b: a6 19        	ldx	$19                     ; 0x2019 <printf+0x2a4>
     70d: a9 f0        	lda	#$f0
     70f: 92 12        	sta	($12)                   ; 0x2012 <printf+0x29d>
     711: e6 12        	inc	$12                     ; 0x2012 <printf+0x29d>
     713: d0 02        	bne	$717 <textClear+0x73>
     715: e6 13        	inc	$13                     ; 0x2013 <printf+0x29e>
     717: ca           	dex
     718: e0 ff        	cpx	#$ff
     71a: d0 01        	bne	$71d <textClear+0x79>
     71c: 88           	dey
     71d: 98           	tya
     71e: d0 ed        	bne	$70d <textClear+0x69>
     720: 8a           	txa
     721: d0 ea        	bne	$70d <textClear+0x69>
     723: 80 04        	bra	$729 <textClear+0x85>
     725: a2 03        	ldx	#$3
     727: 86 01        	stx	$1                      ; 0x2001 <printf+0x28c>
     729: a6 18        	ldx	$18                     ; 0x2018 <printf+0x2a3>
     72b: 86 01        	stx	$1                      ; 0x2001 <printf+0x28c>
     72d: 64 39        	stz	$39                     ; 0x2039 <printf+0x2c4>
     72f: 9c 14 d0     	stz	$d014                   ; 0xd014 <end_block9+0x9f68>
     732: 9c 15 d0     	stz	$d015                   ; 0xd015 <end_block9+0x9f69>
     735: 64 3a        	stz	$3a                     ; 0x203a <printf+0x2c5>
     737: 9c 16 d0     	stz	$d016                   ; 0xd016 <end_block9+0x9f6a>
     73a: 9c 17 d0     	stz	$d017                   ; 0xd017 <end_block9+0x9f6b>
     73d: 60           	rts

0000073e <main>:
     73e: 20 57 03     	jsr	$357 <f256Init>
     741: 20 44 07     	jsr	$744 <f256main>

00000744 <f256main>:
     744: 18           	clc
     745: a5 10        	lda	$10                     ; 0x2010 <printf+0x29b>
     747: 69 f8        	adc	#$f8
     749: 85 10        	sta	$10                     ; 0x2010 <printf+0x29b>
     74b: a5 11        	lda	$11                     ; 0x2011 <printf+0x29c>
     74d: 69 ff        	adc	#$ff
     74f: 85 11        	sta	$11                     ; 0x2011 <printf+0x29c>
     751: 64 12        	stz	$12                     ; 0x2012 <printf+0x29d>
     753: a9 00        	lda	#$0
     755: a0 03        	ldy	#$3
     757: 91 10        	sta	($10),y                 ; 0x2010 <printf+0x29b>
     759: aa           	tax
     75a: 86 24        	stx	$24                     ; 0x2024 <printf+0x2af>
     75c: a2 d1        	ldx	#$d1
     75e: 86 25        	stx	$25                     ; 0x2025 <printf+0x2b0>
     760: a2 7b        	ldx	#$7b
     762: 8e a1 dd     	stx	$dda1                   ; 0xdda1 <end_block9+0xacf5>
     765: 9c a1 dd     	stz	$dda1                   ; 0xdda1 <end_block9+0xacf5>
     768: a2 ff        	ldx	#$ff
     76a: 8e a1 dd     	stx	$dda1                   ; 0xdda1 <end_block9+0xacf5>
     76d: a2 c0        	ldx	#$c0
     76f: 8e a1 dd     	stx	$dda1                   ; 0xdda1 <end_block9+0xacf5>
     772: a2 13        	ldx	#$13
     774: 8e a1 dd     	stx	$dda1                   ; 0xdda1 <end_block9+0xacf5>
     777: a0 c1        	ldy	#$c1
     779: 8c a1 dd     	sty	$dda1                   ; 0xdda1 <end_block9+0xacf5>
     77c: 8e a1 dd     	stx	$dda1                   ; 0xdda1 <end_block9+0xacf5>
     77f: a2 01        	ldx	#$1
     781: 86 92        	stx	$92                     ; 0x2092 <printf+0x31d>
     783: a0 1e        	ldy	#$1e
     785: 84 93        	sty	$93                     ; 0x2093 <printf+0x31e>
     787: a0 03        	ldy	#$3
     789: 84 94        	sty	$94                     ; 0x2094 <printf+0x31f>
     78b: 64 01        	stz	$1                      ; 0x2001 <printf+0x28c>
     78d: a0 3f        	ldy	#$3f
     78f: 8c 00 d0     	sty	$d000                   ; 0xd000 <end_block9+0x9f54>
     792: a0 14        	ldy	#$14
     794: 8c 01 d0     	sty	$d001                   ; 0xd001 <end_block9+0x9f55>
     797: 8e 02 d0     	stx	$d002                   ; 0xd002 <end_block9+0x9f56>
     79a: a0 04        	ldy	#$4
     79c: 8c 03 d0     	sty	$d003                   ; 0xd003 <end_block9+0x9f57>
     79f: 86 01        	stx	$1                      ; 0x2001 <printf+0x28c>
     7a1: a0 d0        	ldy	#$d0
     7a3: aa           	tax
     7a4: 86 12        	stx	$12                     ; 0x2012 <printf+0x29d>
     7a6: 84 13        	sty	$13                     ; 0x2013 <printf+0x29e>
     7a8: 86 19        	stx	$19                     ; 0x2019 <printf+0x2a4>
     7aa: a5 0f        	lda	$f                      ; 0x200f <printf+0x29a>
     7ac: 85 18        	sta	$18                     ; 0x2018 <printf+0x2a3>
     7ae: 78           	sei
     7af: a2 14        	ldx	#$14
     7b1: 86 0f        	stx	$f                      ; 0x200f <printf+0x29a>
     7b3: a5 19        	lda	$19                     ; 0x2019 <printf+0x2a4>
     7b5: 18           	clc
     7b6: 69 00        	adc	#$0
     7b8: a2 01        	ldx	#$1
     7ba: b0 02        	bcs	$7be <f256main+0x7a>
     7bc: a2 00        	ldx	#$0
     7be: 86 17        	stx	$17                     ; 0x2017 <printf+0x2a2>
     7c0: 85 16        	sta	$16                     ; 0x2016 <printf+0x2a1>
     7c2: 98           	tya
     7c3: 69 10        	adc	#$10
     7c5: a6 16        	ldx	$16                     ; 0x2016 <printf+0x2a1>
     7c7: 86 14        	stx	$14                     ; 0x2014 <printf+0x29f>
     7c9: 85 15        	sta	$15                     ; 0x2015 <printf+0x2a0>
     7cb: b2 14        	lda	($14)                   ; 0x2014 <printf+0x29f>
     7cd: a6 18        	ldx	$18                     ; 0x2018 <printf+0x2a3>
     7cf: 86 0f        	stx	$f                      ; 0x200f <printf+0x29a>
     7d1: 58           	cli
     7d2: 92 12        	sta	($12)                   ; 0x2012 <printf+0x29d>
     7d4: a6 0f        	ldx	$f                      ; 0x200f <printf+0x29a>
     7d6: 78           	sei
     7d7: a9 14        	lda	#$14
     7d9: 85 0f        	sta	$f                      ; 0x200f <printf+0x29a>
     7db: 98           	tya
     7dc: 5a           	phy
     7dd: a4 17        	ldy	$17                     ; 0x2017 <printf+0x2a2>
     7df: c0 01        	cpy	#$1
     7e1: 69 14        	adc	#$14
     7e3: a4 16        	ldy	$16                     ; 0x2016 <printf+0x2a1>
     7e5: 84 12        	sty	$12                     ; 0x2012 <printf+0x29d>
     7e7: 7a           	ply
     7e8: 85 13        	sta	$13                     ; 0x2013 <printf+0x29e>
     7ea: b2 12        	lda	($12)                   ; 0x2012 <printf+0x29d>
     7ec: 85 14        	sta	$14                     ; 0x2014 <printf+0x29f>
     7ee: 86 0f        	stx	$f                      ; 0x200f <printf+0x29a>
     7f0: 98           	tya
     7f1: a6 17        	ldx	$17                     ; 0x2017 <printf+0x2a2>
     7f3: e0 01        	cpx	#$1
     7f5: 69 04        	adc	#$4
     7f7: 58           	cli
     7f8: 85 13        	sta	$13                     ; 0x2013 <printf+0x29e>
     7fa: a6 19        	ldx	$19                     ; 0x2019 <printf+0x2a4>
     7fc: a5 14        	lda	$14                     ; 0x2014 <printf+0x29f>
     7fe: 92 12        	sta	($12)                   ; 0x2012 <printf+0x29d>
     800: e8           	inx
     801: d0 01        	bne	$804 <f256main+0xc0>
     803: c8           	iny
     804: c0 d3        	cpy	#$d3
     806: f0 03        	beq	$80b <f256main+0xc7>
     808: 4c a4 07     	jmp	$7a4 <f256main+0x60>
     80b: e0 ff        	cpx	#$ff
     80d: f0 03        	beq	$812 <f256main+0xce>
     80f: 4c a4 07     	jmp	$7a4 <f256main+0x60>
     812: 64 01        	stz	$1                      ; 0x2001 <printf+0x28c>
     814: 64 3b        	stz	$3b                     ; 0x203b <printf+0x2c6>
     816: 64 3c        	stz	$3c                     ; 0x203c <printf+0x2c7>
     818: a2 01        	ldx	#$1
     81a: 86 3d        	stx	$3d                     ; 0x203d <printf+0x2c8>
     81c: 64 3e        	stz	$3e                     ; 0x203e <printf+0x2c9>
     81e: 9c 01 d1     	stz	$d101                   ; 0xd101 <end_block9+0xa055>
     821: 9c 02 d1     	stz	$d102                   ; 0xd102 <end_block9+0xa056>
     824: 8e 03 d1     	stx	$d103                   ; 0xd103 <end_block9+0xa057>
     827: a2 b6        	ldx	#$b6
     829: 86 12        	stx	$12                     ; 0x2012 <printf+0x29d>
     82b: 64 13        	stz	$13                     ; 0x2013 <printf+0x29e>
     82d: a0 64        	ldy	#$64
     82f: 84 14        	sty	$14                     ; 0x2014 <printf+0x29f>
     831: 64 15        	stz	$15                     ; 0x2015 <printf+0x2a0>
     833: 86 16        	stx	$16                     ; 0x2016 <printf+0x2a1>
     835: 64 17        	stz	$17                     ; 0x2017 <printf+0x2a2>
     837: 86 26        	stx	$26                     ; 0x2026 <printf+0x2b1>
     839: a2 00        	ldx	#$0
     83b: a9 28        	lda	#$28
     83d: 20 a0 15     	jsr	$15a0 <bitmapLine>
     840: a6 26        	ldx	$26                     ; 0x2026 <printf+0x2b1>
     842: e8           	inx
     843: e0 c1        	cpx	#$c1
     845: d0 e2        	bne	$829 <f256main+0xe5>
     847: a2 06        	ldx	#$6
     849: a0 22        	ldy	#$22
     84b: 86 12        	stx	$12                     ; 0x2012 <printf+0x29d>
     84d: 64 13        	stz	$13                     ; 0x2013 <printf+0x29e>
     84f: a9 40        	lda	#$40
     851: 85 14        	sta	$14                     ; 0x2014 <printf+0x29f>
     853: a9 01        	lda	#$1
     855: 85 15        	sta	$15                     ; 0x2015 <printf+0x2a0>
     857: 86 16        	stx	$16                     ; 0x2016 <printf+0x2a1>
     859: 64 17        	stz	$17                     ; 0x2017 <printf+0x2a2>
     85b: 86 26        	stx	$26                     ; 0x2026 <printf+0x2b1>
     85d: a2 00        	ldx	#$0
     85f: a9 f0        	lda	#$f0
     861: 84 27        	sty	$27                     ; 0x2027 <printf+0x2b2>
     863: 20 a0 15     	jsr	$15a0 <bitmapLine>
     866: a4 27        	ldy	$27                     ; 0x2027 <printf+0x2b2>
     868: a6 26        	ldx	$26                     ; 0x2026 <printf+0x2b1>
     86a: 88           	dey
     86b: e8           	inx
     86c: 98           	tya
     86d: d0 dc        	bne	$84b <f256main+0x107>
     86f: a9 01        	lda	#$1
     871: 0d a9 30     	ora	$30a9                   ; 0x30a9 <_BITMAP_CLUT>
     874: 8d 00 d1     	sta	$d100                   ; 0xd100 <end_block9+0xa054>
     877: 9c 08 d1     	stz	$d108                   ; 0xd108 <end_block9+0xa05c>
     87a: 9c 10 d1     	stz	$d110                   ; 0xd110 <end_block9+0xa064>
     87d: a5 47        	lda	$47                     ; 0x2047 <printf+0x2d2>
     87f: 29 01        	and	#$1
     881: a8           	tay
     882: a9 01        	lda	#$1
     884: 25 47        	and	$47                     ; 0x2047 <printf+0x2d2>
     886: aa           	tax
     887: 9e a9 30     	stz	$30a9,x                 ; 0x30a9 <_BITMAP_CLUT>
     88a: 98           	tya
     88b: f0 08        	beq	$895 <f256main+0x151>
     88d: a2 08        	ldx	#$8
     88f: 86 24        	stx	$24                     ; 0x2024 <printf+0x2af>
     891: a2 d1        	ldx	#$d1
     893: 86 25        	stx	$25                     ; 0x2025 <printf+0x2b0>
     895: b2 24        	lda	($24)                   ; 0x2024 <printf+0x2af>
     897: 29 f9        	and	#$f9
     899: 92 24        	sta	($24)                   ; 0x2024 <printf+0x2af>
     89b: a2 01        	ldx	#$1
     89d: 86 47        	stx	$47                     ; 0x2047 <printf+0x2d2>
     89f: 20 a4 06     	jsr	$6a4 <textClear>
     8a2: 64 12        	stz	$12                     ; 0x2012 <printf+0x29d>
     8a4: 9c 00 de     	stz	$de00                   ; 0xde00 <end_block9+0xad54>
     8a7: 9c 01 de     	stz	$de01                   ; 0xde01 <end_block9+0xad55>
     8aa: a2 04        	ldx	#$4
     8ac: 8e 02 de     	stx	$de02                   ; 0xde02 <end_block9+0xad56>
     8af: 9c 03 de     	stz	$de03                   ; 0xde03 <end_block9+0xad57>
     8b2: ad 10 de     	lda	$de10                   ; 0xde10 <end_block9+0xad64>
     8b5: ae 11 de     	ldx	$de11                   ; 0xde11 <end_block9+0xad65>
     8b8: 86 13        	stx	$13                     ; 0x2013 <printf+0x29e>
     8ba: ae 12 de     	ldx	$de12                   ; 0xde12 <end_block9+0xad66>
     8bd: ae 13 de     	ldx	$de13                   ; 0xde13 <end_block9+0xad67>
     8c0: 18           	clc
     8c1: 65 12        	adc	$12                     ; 0x2012 <printf+0x29d>
     8c3: 85 12        	sta	$12                     ; 0x2012 <printf+0x29d>
     8c5: a9 d8        	lda	#$d8
     8c7: 65 13        	adc	$13                     ; 0x2013 <printf+0x29e>
     8c9: 85 13        	sta	$13                     ; 0x2013 <printf+0x29e>
     8cb: a9 ff        	lda	#$ff
     8cd: 92 12        	sta	($12)                   ; 0x2012 <printf+0x29d>
     8cf: a0 01        	ldy	#$1
     8d1: 91 12        	sta	($12),y                 ; 0x2012 <printf+0x29d>
     8d3: c8           	iny
     8d4: 91 12        	sta	($12),y                 ; 0x2012 <printf+0x29d>
     8d6: c8           	iny
     8d7: 91 12        	sta	($12),y                 ; 0x2012 <printf+0x29d>
     8d9: ad 01 d0     	lda	$d001                   ; 0xd001 <end_block9+0x9f55>
     8dc: 29 ef        	and	#$ef
     8de: 8d 01 d0     	sta	$d001                   ; 0xd001 <end_block9+0x9f55>
     8e1: a0 10        	ldy	#$10
     8e3: 84 4a        	sty	$4a                     ; 0x204a <printf+0x2d5>
     8e5: 9c 01 d2     	stz	$d201                   ; 0xd201 <end_block9+0xa155>
     8e8: a2 88        	ldx	#$88
     8ea: 8e 02 d2     	stx	$d202                   ; 0xd202 <end_block9+0xa156>
     8ed: a2 03        	ldx	#$3
     8ef: 8e 03 d2     	stx	$d203                   ; 0xd203 <end_block9+0xa157>
     8f2: a2 17        	ldx	#$17
     8f4: 8e 04 d2     	stx	$d204                   ; 0xd204 <end_block9+0xa158>
     8f7: 9c 05 d2     	stz	$d205                   ; 0xd205 <end_block9+0xa159>
     8fa: a2 13        	ldx	#$13
     8fc: 8e 06 d2     	stx	$d206                   ; 0xd206 <end_block9+0xa15a>
     8ff: 9c 07 d2     	stz	$d207                   ; 0xd207 <end_block9+0xa15b>
     902: 9c 08 d2     	stz	$d208                   ; 0xd208 <end_block9+0xa15c>
     905: 9c 09 d2     	stz	$d209                   ; 0xd209 <end_block9+0xa15d>
     908: 9c 0a d2     	stz	$d20a                   ; 0xd20a <end_block9+0xa15e>
     90b: 9c 0b d2     	stz	$d20b                   ; 0xd20b <end_block9+0xa15f>
     90e: 84 4b        	sty	$4b                     ; 0x204b <printf+0x2d6>
     910: a9 20        	lda	#$20
     912: 8d 0d d2     	sta	$d20d                   ; 0xd20d <end_block9+0xa161>
     915: a9 8f        	lda	#$8f
     917: 8d 0e d2     	sta	$d20e                   ; 0xd20e <end_block9+0xa162>
     91a: a9 03        	lda	#$3
     91c: 8d 0f d2     	sta	$d20f                   ; 0xd20f <end_block9+0xa163>
     91f: a9 17        	lda	#$17
     921: 8d 10 d2     	sta	$d210                   ; 0xd210 <end_block9+0xa164>
     924: 9c 11 d2     	stz	$d211                   ; 0xd211 <end_block9+0xa165>
     927: 8e 12 d2     	stx	$d212                   ; 0xd212 <end_block9+0xa166>
     92a: 9c 13 d2     	stz	$d213                   ; 0xd213 <end_block9+0xa167>
     92d: 9c 14 d2     	stz	$d214                   ; 0xd214 <end_block9+0xa168>
     930: 9c 15 d2     	stz	$d215                   ; 0xd215 <end_block9+0xa169>
     933: 9c 16 d2     	stz	$d216                   ; 0xd216 <end_block9+0xa16a>
     936: 9c 17 d2     	stz	$d217                   ; 0xd217 <end_block9+0xa16b>
     939: 9c 80 d2     	stz	$d280                   ; 0xd280 <end_block9+0xa1d4>
     93c: 9c 81 d2     	stz	$d281                   ; 0xd281 <end_block9+0xa1d5>
     93f: a2 04        	ldx	#$4
     941: 8e 82 d2     	stx	$d282                   ; 0xd282 <end_block9+0xa1d6>
     944: 9c 83 d2     	stz	$d283                   ; 0xd283 <end_block9+0xa1d7>
     947: a5 4a        	lda	$4a                     ; 0x204a <printf+0x2d5>
     949: a2 11        	ldx	#$11
     94b: c9 08        	cmp	#$8
     94d: f0 02        	beq	$951 <f256main+0x20d>
     94f: a2 01        	ldx	#$1
     951: 8e 00 d2     	stx	$d200                   ; 0xd200 <end_block9+0xa154>
     954: a6 4b        	ldx	$4b                     ; 0x204b <printf+0x2d6>
     956: e0 08        	cpx	#$8
     958: f0 02        	beq	$95c <f256main+0x218>
     95a: a0 00        	ldy	#$0
     95c: 8c 0c d2     	sty	$d20c                   ; 0xd20c <end_block9+0xa160>
     95f: a5 4c        	lda	$4c                     ; 0x204c <printf+0x2d7>
     961: 29 01        	and	#$1
     963: a2 10        	ldx	#$10
     965: a8           	tay
     966: d0 02        	bne	$96a <f256main+0x226>
     968: a2 00        	ldx	#$0
     96a: 8e 18 d2     	stx	$d218                   ; 0xd218 <end_block9+0xa16c>
     96d: a2 03        	ldx	#$3
     96f: 86 95        	stx	$95                     ; 0x2095 <printf+0x320>
     971: 64 f3        	stz	$f3                     ; 0x20f3 <printf+0x37e>
     973: a6 92        	ldx	$92                     ; 0x2092 <printf+0x31d>
     975: 86 f4        	stx	$f4                     ; 0x20f4 <printf+0x37f>
     977: 64 f5        	stz	$f5                     ; 0x20f5 <printf+0x380>
     979: 18           	clc
     97a: a5 10        	lda	$10                     ; 0x2010 <printf+0x29b>
     97c: 69 07        	adc	#$7
     97e: 85 24        	sta	$24                     ; 0x2024 <printf+0x2af>
     980: a5 11        	lda	$11                     ; 0x2011 <printf+0x29c>
     982: 69 00        	adc	#$0
     984: 85 25        	sta	$25                     ; 0x2025 <printf+0x2b0>
     986: a2 a8        	ldx	#$a8
     988: 86 12        	stx	$12                     ; 0x2012 <printf+0x29d>
     98a: a2 30        	ldx	#$30
     98c: 86 13        	stx	$13                     ; 0x2013 <printf+0x29e>
     98e: a0 d9        	ldy	#$d9
     990: 64 14        	stz	$14                     ; 0x2014 <printf+0x29f>
     992: a2 00        	ldx	#$0
     994: 20 f0 ff     	jsr	$fff0 <end_block9+0xcf44>
     997: 92 24        	sta	($24)                   ; 0x2024 <printf+0x2af>
     999: a9 00        	lda	#$0
     99b: 6a           	ror
     99c: 85 12        	sta	$12                     ; 0x2012 <printf+0x29d>
     99e: a5 14        	lda	$14                     ; 0x2014 <printf+0x29f>
     9a0: 85 12        	sta	$12                     ; 0x2012 <printf+0x29d>
     9a2: 84 13        	sty	$13                     ; 0x2013 <printf+0x29e>
     9a4: a9 60        	lda	#$60
     9a6: 9d 4d 00     	sta	$4d,x                   ; 0x4d <_spriteCtl>
     9a9: 92 12        	sta	($12)                   ; 0x2012 <printf+0x29d>
     9ab: a5 14        	lda	$14                     ; 0x2014 <printf+0x29f>
     9ad: 09 01        	ora	#$1
     9af: 85 12        	sta	$12                     ; 0x2012 <printf+0x29d>
     9b1: a9 00        	lda	#$0
     9b3: 92 12        	sta	($12)                   ; 0x2012 <printf+0x29d>
     9b5: a5 14        	lda	$14                     ; 0x2014 <printf+0x29f>
     9b7: 09 02        	ora	#$2
     9b9: 85 12        	sta	$12                     ; 0x2012 <printf+0x29d>
     9bb: a9 88        	lda	#$88
     9bd: 92 12        	sta	($12)                   ; 0x2012 <printf+0x29d>
     9bf: a5 14        	lda	$14                     ; 0x2014 <printf+0x29f>
     9c1: 09 03        	ora	#$3
     9c3: 85 12        	sta	$12                     ; 0x2012 <printf+0x29d>
     9c5: a9 02        	lda	#$2
     9c7: 92 12        	sta	($12)                   ; 0x2012 <printf+0x29d>
     9c9: e8           	inx
     9ca: 18           	clc
     9cb: a5 14        	lda	$14                     ; 0x2014 <printf+0x29f>
     9cd: 69 08        	adc	#$8
     9cf: 85 14        	sta	$14                     ; 0x2014 <printf+0x29f>
     9d1: 98           	tya
     9d2: 69 00        	adc	#$0
     9d4: a8           	tay
     9d5: e0 09        	cpx	#$9
     9d7: d0 c5        	bne	$99e <f256main+0x25a>
     9d9: 64 57        	stz	$57                     ; 0x2057 <printf+0x2e2>
     9db: 9c 50 d9     	stz	$d950                   ; 0xd950 <end_block9+0xa8a4>
     9de: 9c 51 d9     	stz	$d951                   ; 0xd951 <end_block9+0xa8a5>
     9e1: a2 80        	ldx	#$80
     9e3: 8e 52 d9     	stx	$d952                   ; 0xd952 <end_block9+0xa8a6>
     9e6: a0 03        	ldy	#$3
     9e8: 8c 53 d9     	sty	$d953                   ; 0xd953 <end_block9+0xa8a7>
     9eb: 64 58        	stz	$58                     ; 0x2058 <printf+0x2e3>
     9ed: 9c 58 d9     	stz	$d958                   ; 0xd958 <end_block9+0xa8ac>
     9f0: 9c 59 d9     	stz	$d959                   ; 0xd959 <end_block9+0xa8ad>
     9f3: a2 84        	ldx	#$84
     9f5: 8e 5a d9     	stx	$d95a                   ; 0xd95a <end_block9+0xa8ae>
     9f8: 8c 5b d9     	sty	$d95b                   ; 0xd95b <end_block9+0xa8af>
     9fb: a2 3c        	ldx	#$3c
     9fd: 86 39        	stx	$39                     ; 0x2039 <printf+0x2c4>
     9ff: 8e 14 d0     	stx	$d014                   ; 0xd014 <end_block9+0x9f68>
     a02: 9c 15 d0     	stz	$d015                   ; 0xd015 <end_block9+0x9f69>
     a05: a2 01        	ldx	#$1
     a07: 86 3a        	stx	$3a                     ; 0x203a <printf+0x2c5>
     a09: 8e 16 d0     	stx	$d016                   ; 0xd016 <end_block9+0x9f6a>
     a0c: 9c 17 d0     	stz	$d017                   ; 0xd017 <end_block9+0x9f6b>
     a0f: a2 07        	ldx	#$7
     a11: 86 12        	stx	$12                     ; 0x2012 <printf+0x29d>
     a13: a2 2f        	ldx	#$2f
     a15: 86 13        	stx	$13                     ; 0x2013 <printf+0x29e>
     a17: 20 75 1d     	jsr	$1d75 <printf>
     a1a: a2 21        	ldx	#$21
     a1c: 86 39        	stx	$39                     ; 0x2039 <printf+0x2c4>
     a1e: 8e 14 d0     	stx	$d014                   ; 0xd014 <end_block9+0x9f68>
     a21: 9c 15 d0     	stz	$d015                   ; 0xd015 <end_block9+0x9f69>
     a24: a2 10        	ldx	#$10
     a26: 86 3a        	stx	$3a                     ; 0x203a <printf+0x2c5>
     a28: 8e 16 d0     	stx	$d016                   ; 0xd016 <end_block9+0x9f6a>
     a2b: 9c 17 d0     	stz	$d017                   ; 0xd017 <end_block9+0x9f6b>
     a2e: a2 da        	ldx	#$da
     a30: 86 12        	stx	$12                     ; 0x2012 <printf+0x29d>
     a32: a2 2f        	ldx	#$2f
     a34: 86 13        	stx	$13                     ; 0x2013 <printf+0x29e>
     a36: 20 75 1d     	jsr	$1d75 <printf>
     a39: a2 22        	ldx	#$22
     a3b: 86 39        	stx	$39                     ; 0x2039 <printf+0x2c4>
     a3d: 8e 14 d0     	stx	$d014                   ; 0xd014 <end_block9+0x9f68>
     a40: 9c 15 d0     	stz	$d015                   ; 0xd015 <end_block9+0x9f69>
     a43: a2 17        	ldx	#$17
     a45: 86 3a        	stx	$3a                     ; 0x203a <printf+0x2c5>
     a47: 8e 16 d0     	stx	$d016                   ; 0xd016 <end_block9+0x9f6a>
     a4a: 9c 17 d0     	stz	$d017                   ; 0xd017 <end_block9+0x9f6b>
     a4d: a2 56        	ldx	#$56
     a4f: 86 12        	stx	$12                     ; 0x2012 <printf+0x29d>
     a51: a2 30        	ldx	#$30
     a53: 86 13        	stx	$13                     ; 0x2013 <printf+0x29e>
     a55: 20 75 1d     	jsr	$1d75 <printf>
     a58: a2 0c        	ldx	#$c
     a5a: 86 39        	stx	$39                     ; 0x2039 <printf+0x2c4>
     a5c: 8e 14 d0     	stx	$d014                   ; 0xd014 <end_block9+0x9f68>
     a5f: 9c 15 d0     	stz	$d015                   ; 0xd015 <end_block9+0x9f69>
     a62: a2 17        	ldx	#$17
     a64: 86 3a        	stx	$3a                     ; 0x203a <printf+0x2c5>
     a66: 8e 16 d0     	stx	$d016                   ; 0xd016 <end_block9+0x9f6a>
     a69: 9c 17 d0     	stz	$d017                   ; 0xd017 <end_block9+0x9f6b>
     a6c: a2 50        	ldx	#$50
     a6e: 86 12        	stx	$12                     ; 0x2012 <printf+0x29d>
     a70: a2 2f        	ldx	#$2f
     a72: 86 13        	stx	$13                     ; 0x2013 <printf+0x29e>
     a74: 20 75 1d     	jsr	$1d75 <printf>
     a77: a2 3c        	ldx	#$3c
     a79: 86 39        	stx	$39                     ; 0x2039 <printf+0x2c4>
     a7b: 8e 14 d0     	stx	$d014                   ; 0xd014 <end_block9+0x9f68>
     a7e: 9c 15 d0     	stz	$d015                   ; 0xd015 <end_block9+0x9f69>
     a81: a2 02        	ldx	#$2
     a83: 86 3a        	stx	$3a                     ; 0x203a <printf+0x2c5>
     a85: 8e 16 d0     	stx	$d016                   ; 0xd016 <end_block9+0x9f6a>
     a88: 9c 17 d0     	stz	$d017                   ; 0xd017 <end_block9+0x9f6b>
     a8b: a2 3f        	ldx	#$3f
     a8d: 86 12        	stx	$12                     ; 0x2012 <printf+0x29d>
     a8f: a2 2f        	ldx	#$2f
     a91: 86 13        	stx	$13                     ; 0x2013 <printf+0x29e>
     a93: 20 75 1d     	jsr	$1d75 <printf>
     a96: a2 3c        	ldx	#$3c
     a98: 86 39        	stx	$39                     ; 0x2039 <printf+0x2c4>
     a9a: 8e 14 d0     	stx	$d014                   ; 0xd014 <end_block9+0x9f68>
     a9d: 9c 15 d0     	stz	$d015                   ; 0xd015 <end_block9+0x9f69>
     aa0: a2 03        	ldx	#$3
     aa2: 86 3a        	stx	$3a                     ; 0x203a <printf+0x2c5>
     aa4: 8e 16 d0     	stx	$d016                   ; 0xd016 <end_block9+0x9f6a>
     aa7: 9c 17 d0     	stz	$d017                   ; 0xd017 <end_block9+0x9f6b>
     aaa: a2 99        	ldx	#$99
     aac: 86 12        	stx	$12                     ; 0x2012 <printf+0x29d>
     aae: a2 30        	ldx	#$30
     ab0: 86 13        	stx	$13                     ; 0x2013 <printf+0x29e>
     ab2: 20 75 1d     	jsr	$1d75 <printf>
     ab5: a2 80        	ldx	#$80
     ab7: 86 f3        	stx	$f3                     ; 0x20f3 <printf+0x37e>
     ab9: a2 a8        	ldx	#$a8
     abb: 86 26        	stx	$26                     ; 0x2026 <printf+0x2b1>
     abd: a2 30        	ldx	#$30
     abf: 86 27        	stx	$27                     ; 0x2027 <printf+0x2b2>
     ac1: 20 f0 ff     	jsr	$fff0 <end_block9+0xcf44>
     ac4: 92 24        	sta	($24)                   ; 0x2024 <printf+0x2af>
     ac6: a9 00        	lda	#$0
     ac8: 6a           	ror
     ac9: 85 26        	sta	$26                     ; 0x2026 <printf+0x2b1>
     acb: 18           	clc
     acc: a9 03        	lda	#$3
     ace: 72 24        	adc	($24)                   ; 0x2024 <printf+0x2af>
     ad0: 85 95        	sta	$95                     ; 0x2095 <printf+0x320>
     ad2: 64 f3        	stz	$f3                     ; 0x20f3 <printf+0x37e>
     ad4: a6 95        	ldx	$95                     ; 0x2095 <printf+0x320>
     ad6: 86 f4        	stx	$f4                     ; 0x20f4 <printf+0x37f>
     ad8: a2 03        	ldx	#$3
     ada: 86 f5        	stx	$f5                     ; 0x20f5 <printf+0x380>
     adc: 20 f0 ff     	jsr	$fff0 <end_block9+0xcf44>
     adf: 92 24        	sta	($24)                   ; 0x2024 <printf+0x2af>
     ae1: a9 00        	lda	#$0
     ae3: 6a           	ror
     ae4: 85 26        	sta	$26                     ; 0x2026 <printf+0x2b1>
     ae6: 64 01        	stz	$1                      ; 0x2001 <printf+0x28c>
     ae8: 64 29        	stz	$29                     ; 0x2029 <printf+0x2b4>
     aea: 64 28        	stz	$28                     ; 0x2028 <printf+0x2b3>
     aec: 64 12        	stz	$12                     ; 0x2012 <printf+0x29d>
     aee: a9 00        	lda	#$0
     af0: a0 02        	ldy	#$2
     af2: 91 10        	sta	($10),y                 ; 0x2010 <printf+0x29b>
     af4: a0 06        	ldy	#$6
     af6: 91 10        	sta	($10),y                 ; 0x2010 <printf+0x29b>
     af8: 88           	dey
     af9: 91 10        	sta	($10),y                 ; 0x2010 <printf+0x29b>
     afb: a2 13        	ldx	#$13
     afd: a0 80        	ldy	#$80
     aff: 98           	tya
     b00: a0 04        	ldy	#$4
     b02: 91 10        	sta	($10),y                 ; 0x2010 <printf+0x29b>
     b04: 4c 2e 15     	jmp	$152e <f256main+0xdea>
     b07: a2 3c        	ldx	#$3c
     b09: 86 39        	stx	$39                     ; 0x2039 <printf+0x2c4>
     b0b: 8e 14 d0     	stx	$d014                   ; 0xd014 <end_block9+0x9f68>
     b0e: 9c 15 d0     	stz	$d015                   ; 0xd015 <end_block9+0x9f69>
     b11: a2 04        	ldx	#$4
     b13: 86 3a        	stx	$3a                     ; 0x203a <printf+0x2c5>
     b15: 8e 16 d0     	stx	$d016                   ; 0xd016 <end_block9+0x9f6a>
     b18: 9c 17 d0     	stz	$d017                   ; 0xd017 <end_block9+0x9f6b>
     b1b: a5 8f        	lda	$8f                     ; 0x208f <printf+0x31a>
     b1d: 92 10        	sta	($10)                   ; 0x2010 <printf+0x29b>
     b1f: a9 00        	lda	#$0
     b21: a0 01        	ldy	#$1
     b23: 91 10        	sta	($10),y                 ; 0x2010 <printf+0x29b>
     b25: a2 06        	ldx	#$6
     b27: 86 12        	stx	$12                     ; 0x2012 <printf+0x29d>
     b29: a2 30        	ldx	#$30
     b2b: 86 13        	stx	$13                     ; 0x2013 <printf+0x29e>
     b2d: 20 75 1d     	jsr	$1d75 <printf>
     b30: a2 80        	ldx	#$80
     b32: 86 f3        	stx	$f3                     ; 0x20f3 <printf+0x37e>
     b34: 20 f0 ff     	jsr	$fff0 <end_block9+0xcf44>
     b37: 92 24        	sta	($24)                   ; 0x2024 <printf+0x2af>
     b39: a9 00        	lda	#$0
     b3b: 6a           	ror
     b3c: 85 26        	sta	$26                     ; 0x2026 <printf+0x2b1>
     b3e: b2 24        	lda	($24)                   ; 0x2024 <printf+0x2af>
     b40: 1a           	inc
     b41: 85 92        	sta	$92                     ; 0x2092 <printf+0x31d>
     b43: 64 f3        	stz	$f3                     ; 0x20f3 <printf+0x37e>
     b45: a6 92        	ldx	$92                     ; 0x2092 <printf+0x31d>
     b47: 86 f4        	stx	$f4                     ; 0x20f4 <printf+0x37f>
     b49: 64 f5        	stz	$f5                     ; 0x20f5 <printf+0x380>
     b4b: a5 2b        	lda	$2b                     ; 0x202b <printf+0x2b6>
     b4d: a0 06        	ldy	#$6
     b4f: 91 10        	sta	($10),y                 ; 0x2010 <printf+0x29b>
     b51: a5 2a        	lda	$2a                     ; 0x202a <printf+0x2b5>
     b53: 88           	dey
     b54: 91 10        	sta	($10),y                 ; 0x2010 <printf+0x29b>
     b56: a6 2d        	ldx	$2d                     ; 0x202d <printf+0x2b8>
     b58: 20 f0 ff     	jsr	$fff0 <end_block9+0xcf44>
     b5b: 92 24        	sta	($24)                   ; 0x2024 <printf+0x2af>
     b5d: a9 00        	lda	#$0
     b5f: 6a           	ror
     b60: 85 26        	sta	$26                     ; 0x2026 <printf+0x2b1>
     b62: 4c 2e 15     	jmp	$152e <f256main+0xdea>
     b65: 86 2d        	stx	$2d                     ; 0x202d <printf+0x2b8>
     b67: a5 91        	lda	$91                     ; 0x2091 <printf+0x31c>
     b69: 29 01        	and	#$1
     b6b: d0 03        	bne	$b70 <f256main+0x42c>
     b6d: 4c 61 0c     	jmp	$c61 <f256main+0x51d>
     b70: a2 9f        	ldx	#$9f
     b72: 8e 08 d6     	stx	$d608                   ; 0xd608 <end_block9+0xa55c>
     b75: 4c 79 0c     	jmp	$c79 <f256main+0x535>
     b78: 86 2d        	stx	$2d                     ; 0x202d <printf+0x2b8>
     b7a: a6 36        	ldx	$36                     ; 0x2036 <printf+0x2c1>
     b7c: 8a           	txa
     b7d: 38           	sec
     b7e: e9 92        	sbc	#$92
     b80: 50 02        	bvc	$b84 <f256main+0x440>
     b82: 49 80        	eor	#$80
     b84: a0 10        	ldy	#$10
     b86: c9 00        	cmp	#$0
     b88: 30 03        	bmi	$b8d <f256main+0x449>
     b8a: 4c f1 0c     	jmp	$cf1 <f256main+0x5ad>
     b8d: e0 81        	cpx	#$81
     b8f: d0 03        	bne	$b94 <f256main+0x450>
     b91: 4c 60 10     	jmp	$1060 <f256main+0x91c>
     b94: e0 83        	cpx	#$83
     b96: d0 03        	bne	$b9b <f256main+0x457>
     b98: 4c fb 10     	jmp	$10fb <f256main+0x9b7>
     b9b: e0 85        	cpx	#$85
     b9d: f0 03        	beq	$ba2 <f256main+0x45e>
     b9f: 4c c9 11     	jmp	$11c9 <f256main+0xa85>
     ba2: 64 8f        	stz	$8f                     ; 0x208f <printf+0x31a>
     ba4: a2 80        	ldx	#$80
     ba6: 86 f3        	stx	$f3                     ; 0x20f3 <printf+0x37e>
     ba8: 20 f0 ff     	jsr	$fff0 <end_block9+0xcf44>
     bab: 92 24        	sta	($24)                   ; 0x2024 <printf+0x2af>
     bad: a9 00        	lda	#$0
     baf: 6a           	ror
     bb0: 85 26        	sta	$26                     ; 0x2026 <printf+0x2b1>
     bb2: a9 19        	lda	#$19
     bb4: 18           	clc
     bb5: 72 24        	adc	($24)                   ; 0x2024 <printf+0x2af>
     bb7: 85 93        	sta	$93                     ; 0x2093 <printf+0x31e>
     bb9: 64 96        	stz	$96                     ; 0x2096 <printf+0x321>
     bbb: 64 97        	stz	$97                     ; 0x2097 <printf+0x322>
     bbd: a5 91        	lda	$91                     ; 0x2091 <printf+0x31c>
     bbf: 29 01        	and	#$1
     bc1: f0 38        	beq	$bfb <f256main+0x4b7>
     bc3: a2 9f        	ldx	#$9f
     bc5: 8e 08 d6     	stx	$d608                   ; 0xd608 <end_block9+0xa55c>
     bc8: a2 94        	ldx	#$94
     bca: 8e 08 d6     	stx	$d608                   ; 0xd608 <end_block9+0xa55c>
     bcd: 18           	clc
     bce: a9 f8        	lda	#$f8
     bd0: 65 96        	adc	$96                     ; 0x2096 <printf+0x321>
     bd2: 85 12        	sta	$12                     ; 0x2012 <printf+0x29d>
     bd4: a9 29        	lda	#$29
     bd6: 65 97        	adc	$97                     ; 0x2097 <printf+0x322>
     bd8: 85 13        	sta	$13                     ; 0x2013 <printf+0x29e>
     bda: b2 12        	lda	($12)                   ; 0x2012 <printf+0x29d>
     bdc: aa           	tax
     bdd: bd f3 2a     	lda	$2af3,x                 ; 0x2af3 <KeyCodesToLoPSG>
     be0: aa           	tax
     be1: 8e 08 d6     	stx	$d608                   ; 0xd608 <end_block9+0xa55c>
     be4: a9 f8        	lda	#$f8
     be6: 18           	clc
     be7: 65 96        	adc	$96                     ; 0x2096 <printf+0x321>
     be9: 85 12        	sta	$12                     ; 0x2012 <printf+0x29d>
     beb: a9 29        	lda	#$29
     bed: 65 97        	adc	$97                     ; 0x2097 <printf+0x322>
     bef: 85 13        	sta	$13                     ; 0x2013 <printf+0x29e>
     bf1: b2 12        	lda	($12)                   ; 0x2012 <printf+0x29d>
     bf3: aa           	tax
     bf4: bd 6e 2b     	lda	$2b6e,x                 ; 0x2b6e <KeyCodesToHiPSG>
     bf7: aa           	tax
     bf8: 8e 08 d6     	stx	$d608                   ; 0xd608 <end_block9+0xa55c>
     bfb: 64 f3        	stz	$f3                     ; 0x20f3 <printf+0x37e>
     bfd: a6 93        	ldx	$93                     ; 0x2093 <printf+0x31e>
     bff: 86 f4        	stx	$f4                     ; 0x20f4 <printf+0x37f>
     c01: a2 01        	ldx	#$1
     c03: 86 f5        	stx	$f5                     ; 0x20f5 <printf+0x380>
     c05: 20 f0 ff     	jsr	$fff0 <end_block9+0xcf44>
     c08: 92 24        	sta	($24)                   ; 0x2024 <printf+0x2af>
     c0a: a9 00        	lda	#$0
     c0c: 6a           	ror
     c0d: 85 26        	sta	$26                     ; 0x2026 <printf+0x2b1>
     c0f: a5 91        	lda	$91                     ; 0x2091 <printf+0x31c>
     c11: 29 01        	and	#$1
     c13: 64 12        	stz	$12                     ; 0x2012 <printf+0x29d>
     c15: 48           	pha
     c16: a9 00        	lda	#$0
     c18: a0 03        	ldy	#$3
     c1a: 91 10        	sta	($10),y                 ; 0x2010 <printf+0x29b>
     c1c: 8a           	txa
     c1d: 88           	dey
     c1e: 91 10        	sta	($10),y                 ; 0x2010 <printf+0x29b>
     c20: a6 2b        	ldx	$2b                     ; 0x202b <printf+0x2b6>
     c22: 8a           	txa
     c23: a0 06        	ldy	#$6
     c25: 91 10        	sta	($10),y                 ; 0x2010 <printf+0x29b>
     c27: a6 2a        	ldx	$2a                     ; 0x202a <printf+0x2b5>
     c29: 8a           	txa
     c2a: 88           	dey
     c2b: 91 10        	sta	($10),y                 ; 0x2010 <printf+0x29b>
     c2d: 68           	pla
     c2e: a6 2d        	ldx	$2d                     ; 0x202d <printf+0x2b8>
     c30: a8           	tay
     c31: f0 03        	beq	$c36 <f256main+0x4f2>
     c33: 4c 2e 15     	jmp	$152e <f256main+0xdea>
     c36: a6 96        	ldx	$96                     ; 0x2096 <printf+0x321>
     c38: a0 90        	ldy	#$90
     c3a: 8c a1 dd     	sty	$dda1                   ; 0xdda1 <end_block9+0xacf5>
     c3d: 8e a1 dd     	stx	$dda1                   ; 0xdda1 <end_block9+0xacf5>
     c40: a2 7f        	ldx	#$7f
     c42: 8e a1 dd     	stx	$dda1                   ; 0xdda1 <end_block9+0xacf5>
     c45: a9 00        	lda	#$0
     c47: a0 03        	ldy	#$3
     c49: 91 10        	sta	($10),y                 ; 0x2010 <printf+0x29b>
     c4b: a2 01        	ldx	#$1
     c4d: 8a           	txa
     c4e: 88           	dey
     c4f: 91 10        	sta	($10),y                 ; 0x2010 <printf+0x29b>
     c51: a5 2b        	lda	$2b                     ; 0x202b <printf+0x2b6>
     c53: a0 06        	ldy	#$6
     c55: 91 10        	sta	($10),y                 ; 0x2010 <printf+0x29b>
     c57: a5 2a        	lda	$2a                     ; 0x202a <printf+0x2b5>
     c59: 88           	dey
     c5a: 91 10        	sta	($10),y                 ; 0x2010 <printf+0x29b>
     c5c: a6 2d        	ldx	$2d                     ; 0x202d <printf+0x2b8>
     c5e: 4c 2e 15     	jmp	$152e <f256main+0xdea>
     c61: a6 36        	ldx	$36                     ; 0x2036 <printf+0x2c1>
     c63: 18           	clc
     c64: a5 14        	lda	$14                     ; 0x2014 <printf+0x29f>
     c66: 65 12        	adc	$12                     ; 0x2012 <printf+0x29d>
     c68: 18           	clc
     c69: 7d 78 2a     	adc	$2a78,x                 ; 0x2a78 <KeyCodesToMIDINotes>
     c6c: a2 81        	ldx	#$81
     c6e: 8e a1 dd     	stx	$dda1                   ; 0xdda1 <end_block9+0xacf5>
     c71: 8d a1 dd     	sta	$dda1                   ; 0xdda1 <end_block9+0xacf5>
     c74: a2 4f        	ldx	#$4f
     c76: 8e a1 dd     	stx	$dda1                   ; 0xdda1 <end_block9+0xacf5>
     c79: a6 4d        	ldx	$4d                     ; 0x204d <printf+0x2d8>
     c7b: 8e 00 d9     	stx	$d900                   ; 0xd900 <end_block9+0xa854>
     c7e: a6 2b        	ldx	$2b                     ; 0x202b <printf+0x2b6>
     c80: 8a           	txa
     c81: a0 06        	ldy	#$6
     c83: 91 10        	sta	($10),y                 ; 0x2010 <printf+0x29b>
     c85: 64 12        	stz	$12                     ; 0x2012 <printf+0x29d>
     c87: a9 00        	lda	#$0
     c89: 88           	dey
     c8a: 91 10        	sta	($10),y                 ; 0x2010 <printf+0x29b>
     c8c: a6 2d        	ldx	$2d                     ; 0x202d <printf+0x2b8>
     c8e: a5 2a        	lda	$2a                     ; 0x202a <printf+0x2b5>
     c90: d0 03        	bne	$c95 <f256main+0x551>
     c92: 4c 2e 15     	jmp	$152e <f256main+0xdea>
     c95: a5 2b        	lda	$2b                     ; 0x202b <printf+0x2b6>
     c97: d0 03        	bne	$c9c <f256main+0x558>
     c99: 4c 3d 0d     	jmp	$d3d <f256main+0x5f9>
     c9c: a0 03        	ldy	#$3
     c9e: b1 10        	lda	($10),y                 ; 0x2010 <printf+0x29b>
     ca0: aa           	tax
     ca1: c9 4a        	cmp	#$4a
     ca3: 90 03        	bcc	$ca8 <f256main+0x564>
     ca5: 4c 65 0f     	jmp	$f65 <f256main+0x821>
     ca8: a9 00        	lda	#$0
     caa: a0 06        	ldy	#$6
     cac: 91 10        	sta	($10),y                 ; 0x2010 <printf+0x29b>
     cae: e8           	inx
     caf: bd 89 2c     	lda	$2c89,x                 ; 0x2c89 <songNotes>
     cb2: 85 96        	sta	$96                     ; 0x2096 <printf+0x321>
     cb4: 64 97        	stz	$97                     ; 0x2097 <printf+0x322>
     cb6: 0a           	asl
     cb7: 85 12        	sta	$12                     ; 0x2012 <printf+0x29d>
     cb9: a9 00        	lda	#$0
     cbb: 2a           	rol
     cbc: 85 13        	sta	$13                     ; 0x2013 <printf+0x29e>
     cbe: a9 e9        	lda	#$e9
     cc0: 18           	clc
     cc1: 65 12        	adc	$12                     ; 0x2012 <printf+0x29d>
     cc3: 85 12        	sta	$12                     ; 0x2012 <printf+0x29d>
     cc5: a9 2b        	lda	#$2b
     cc7: 65 13        	adc	$13                     ; 0x2013 <printf+0x29e>
     cc9: 85 13        	sta	$13                     ; 0x2013 <printf+0x29e>
     ccb: b2 12        	lda	($12)                   ; 0x2012 <printf+0x29d>
     ccd: 85 14        	sta	$14                     ; 0x2014 <printf+0x29f>
     ccf: a0 01        	ldy	#$1
     cd1: b1 12        	lda	($12),y                 ; 0x2012 <printf+0x29d>
     cd3: 85 12        	sta	$12                     ; 0x2012 <printf+0x29d>
     cd5: 98           	tya
     cd6: 05 4e        	ora	$4e                     ; 0x204e <printf+0x2d9>
     cd8: 8d 08 d9     	sta	$d908                   ; 0xd908 <end_block9+0xa85c>
     cdb: a4 14        	ldy	$14                     ; 0x2014 <printf+0x29f>
     cdd: 8c 0c d9     	sty	$d90c                   ; 0xd90c <end_block9+0xa860>
     ce0: a4 12        	ldy	$12                     ; 0x2012 <printf+0x29d>
     ce2: 8c 0d d9     	sty	$d90d                   ; 0xd90d <end_block9+0xa861>
     ce5: 8a           	txa
     ce6: a2 c0        	ldx	#$c0
     ce8: 8e 0e d9     	stx	$d90e                   ; 0xd90e <end_block9+0xa862>
     ceb: 9c 0f d9     	stz	$d90f                   ; 0xd90f <end_block9+0xa863>
     cee: 4c 6e 0f     	jmp	$f6e <f256main+0x82a>
     cf1: 8a           	txa
     cf2: 38           	sec
     cf3: e9 b6        	sbc	#$b6
     cf5: c9 04        	cmp	#$4
     cf7: 90 03        	bcc	$cfc <f256main+0x5b8>
     cf9: 4c 91 11     	jmp	$1191 <f256main+0xa4d>
     cfc: 0a           	asl
     cfd: aa           	tax
     cfe: 7c 7e 29     	jmp	($297e,x)               ; 0x297e <__set_v+0x1>
     d01: a4 2d        	ldy	$2d                     ; 0x202d <printf+0x2b8>
     d03: c0 81        	cpy	#$81
     d05: a6 2b        	ldx	$2b                     ; 0x202b <printf+0x2b6>
     d07: 5a           	phy
     d08: 8a           	txa
     d09: a0 06        	ldy	#$6
     d0b: 91 10        	sta	($10),y                 ; 0x2010 <printf+0x29b>
     d0d: a6 2a        	ldx	$2a                     ; 0x202a <printf+0x2b5>
     d0f: 8a           	txa
     d10: 88           	dey
     d11: 91 10        	sta	($10),y                 ; 0x2010 <printf+0x29b>
     d13: 7a           	ply
     d14: a6 2d        	ldx	$2d                     ; 0x202d <printf+0x2b8>
     d16: 90 03        	bcc	$d1b <f256main+0x5d7>
     d18: 4c 2e 15     	jmp	$152e <f256main+0xdea>
     d1b: a5 91        	lda	$91                     ; 0x2091 <printf+0x31c>
     d1d: 29 01        	and	#$1
     d1f: a6 2b        	ldx	$2b                     ; 0x202b <printf+0x2b6>
     d21: 48           	pha
     d22: 5a           	phy
     d23: 8a           	txa
     d24: a0 06        	ldy	#$6
     d26: 91 10        	sta	($10),y                 ; 0x2010 <printf+0x29b>
     d28: a6 2a        	ldx	$2a                     ; 0x202a <printf+0x2b5>
     d2a: 8a           	txa
     d2b: 88           	dey
     d2c: 91 10        	sta	($10),y                 ; 0x2010 <printf+0x29b>
     d2e: 7a           	ply
     d2f: 68           	pla
     d30: 5a           	phy
     d31: fa           	plx
     d32: c9 00        	cmp	#$0
     d34: f0 03        	beq	$d39 <f256main+0x5f5>
     d36: 4c 2e 15     	jmp	$152e <f256main+0xdea>
     d39: c8           	iny
     d3a: 4c 09 13     	jmp	$1309 <f256main+0xbc5>
     d3d: a9 00        	lda	#$0
     d3f: a0 06        	ldy	#$6
     d41: 91 10        	sta	($10),y                 ; 0x2010 <printf+0x29b>
     d43: a0 03        	ldy	#$3
     d45: b1 10        	lda	($10),y                 ; 0x2010 <printf+0x29b>
     d47: 4c 6e 0f     	jmp	$f6e <f256main+0x82a>
     d4a: a5 30        	lda	$30                     ; 0x2030 <printf+0x2bb>
     d4c: a4 31        	ldy	$31                     ; 0x2031 <printf+0x2bc>
     d4e: 84 12        	sty	$12                     ; 0x2012 <printf+0x29d>
     d50: 1a           	inc
     d51: d0 02        	bne	$d55 <f256main+0x611>
     d53: e6 12        	inc	$12                     ; 0x2012 <printf+0x29d>
     d55: a8           	tay
     d56: a6 12        	ldx	$12                     ; 0x2012 <printf+0x29d>
     d58: 85 30        	sta	$30                     ; 0x2030 <printf+0x2bb>
     d5a: 86 31        	stx	$31                     ; 0x2031 <printf+0x2bc>
     d5c: a5 90        	lda	$90                     ; 0x2090 <printf+0x31b>
     d5e: 29 01        	and	#$1
     d60: a2 45        	ldx	#$45
     d62: c9 00        	cmp	#$0
     d64: d0 02        	bne	$d68 <f256main+0x624>
     d66: a2 b3        	ldx	#$b3
     d68: 8e 54 d9     	stx	$d954                   ; 0xd954 <end_block9+0xa8a8>
     d6b: a2 00        	ldx	#$0
     d6d: 8e 55 d9     	stx	$d955                   ; 0xd955 <end_block9+0xa8a9>
     d70: 8c 56 d9     	sty	$d956                   ; 0xd956 <end_block9+0xa8aa>
     d73: a6 12        	ldx	$12                     ; 0x2012 <printf+0x29d>
     d75: 8e 57 d9     	stx	$d957                   ; 0xd957 <end_block9+0xa8ab>
     d78: a2 65        	ldx	#$65
     d7a: a8           	tay
     d7b: d0 02        	bne	$d7f <f256main+0x63b>
     d7d: a2 d3        	ldx	#$d3
     d7f: a4 30        	ldy	$30                     ; 0x2030 <printf+0x2bb>
     d81: a5 31        	lda	$31                     ; 0x2031 <printf+0x2bc>
     d83: 8e 5c d9     	stx	$d95c                   ; 0xd95c <end_block9+0xa8b0>
     d86: a2 00        	ldx	#$0
     d88: 8e 5d d9     	stx	$d95d                   ; 0xd95d <end_block9+0xa8b1>
     d8b: 8c 5e d9     	sty	$d95e                   ; 0xd95e <end_block9+0xa8b2>
     d8e: 8d 5f d9     	sta	$d95f                   ; 0xd95f <end_block9+0xa8b3>
     d91: a6 31        	ldx	$31                     ; 0x2031 <printf+0x2bc>
     d93: f0 03        	beq	$d98 <f256main+0x654>
     d95: 4c f1 11     	jmp	$11f1 <f256main+0xaad>
     d98: a6 30        	ldx	$30                     ; 0x2030 <printf+0x2bb>
     d9a: e0 81        	cpx	#$81
     d9c: b0 03        	bcs	$da1 <f256main+0x65d>
     d9e: 4c f8 11     	jmp	$11f8 <f256main+0xab4>
     da1: a2 04        	ldx	#$4
     da3: 86 39        	stx	$39                     ; 0x2039 <printf+0x2c4>
     da5: 8e 14 d0     	stx	$d014                   ; 0xd014 <end_block9+0x9f68>
     da8: 9c 15 d0     	stz	$d015                   ; 0xd015 <end_block9+0x9f69>
     dab: a2 18        	ldx	#$18
     dad: 86 3a        	stx	$3a                     ; 0x203a <printf+0x2c5>
     daf: 8e 16 d0     	stx	$d016                   ; 0xd016 <end_block9+0x9f6a>
     db2: 9c 17 d0     	stz	$d017                   ; 0xd017 <end_block9+0x9f6b>
     db5: a2 a4        	ldx	#$a4
     db7: 86 12        	stx	$12                     ; 0x2012 <printf+0x29d>
     db9: a2 2f        	ldx	#$2f
     dbb: 86 13        	stx	$13                     ; 0x2013 <printf+0x29e>
     dbd: 20 75 1d     	jsr	$1d75 <printf>
     dc0: a2 04        	ldx	#$4
     dc2: 86 39        	stx	$39                     ; 0x2039 <printf+0x2c4>
     dc4: 8e 14 d0     	stx	$d014                   ; 0xd014 <end_block9+0x9f68>
     dc7: 9c 15 d0     	stz	$d015                   ; 0xd015 <end_block9+0x9f69>
     dca: a2 19        	ldx	#$19
     dcc: 86 3a        	stx	$3a                     ; 0x203a <printf+0x2c5>
     dce: 8e 16 d0     	stx	$d016                   ; 0xd016 <end_block9+0x9f6a>
     dd1: 9c 17 d0     	stz	$d017                   ; 0xd017 <end_block9+0x9f6b>
     dd4: a2 5c        	ldx	#$5c
     dd6: 86 12        	stx	$12                     ; 0x2012 <printf+0x29d>
     dd8: a2 2f        	ldx	#$2f
     dda: 4c aa 13     	jmp	$13aa <f256main+0xc66>
     ddd: e6 28        	inc	$28                     ; 0x2028 <printf+0x2b3>
     ddf: 18           	clc
     de0: a5 13        	lda	$13                     ; 0x2013 <printf+0x29e>
     de2: 69 02        	adc	#$2
     de4: aa           	tax
     de5: a5 28        	lda	$28                     ; 0x2028 <printf+0x2b3>
     de7: 0a           	asl
     de8: 85 12        	sta	$12                     ; 0x2012 <printf+0x29d>
     dea: a9 00        	lda	#$0
     dec: 2a           	rol
     ded: 85 13        	sta	$13                     ; 0x2013 <printf+0x29e>
     def: a9 db        	lda	#$db
     df1: 18           	clc
     df2: 65 12        	adc	$12                     ; 0x2012 <printf+0x29d>
     df4: 85 12        	sta	$12                     ; 0x2012 <printf+0x29d>
     df6: a9 2c        	lda	#$2c
     df8: 65 13        	adc	$13                     ; 0x2013 <printf+0x29e>
     dfa: 85 13        	sta	$13                     ; 0x2013 <printf+0x29e>
     dfc: b2 12        	lda	($12)                   ; 0x2012 <printf+0x29d>
     dfe: 85 14        	sta	$14                     ; 0x2014 <printf+0x29f>
     e00: 8a           	txa
     e01: 91 10        	sta	($10),y                 ; 0x2010 <printf+0x29b>
     e03: 0a           	asl
     e04: 85 12        	sta	$12                     ; 0x2012 <printf+0x29d>
     e06: a9 00        	lda	#$0
     e08: 2a           	rol
     e09: 85 13        	sta	$13                     ; 0x2013 <printf+0x29e>
     e0b: a9 db        	lda	#$db
     e0d: 18           	clc
     e0e: 65 12        	adc	$12                     ; 0x2012 <printf+0x29d>
     e10: 85 12        	sta	$12                     ; 0x2012 <printf+0x29d>
     e12: a9 2c        	lda	#$2c
     e14: 65 13        	adc	$13                     ; 0x2013 <printf+0x29e>
     e16: 85 13        	sta	$13                     ; 0x2013 <printf+0x29e>
     e18: b2 12        	lda	($12)                   ; 0x2012 <printf+0x29d>
     e1a: aa           	tax
     e1b: a5 14        	lda	$14                     ; 0x2014 <printf+0x29f>
     e1d: 4a           	lsr
     e1e: 29 1f        	and	#$1f
     e20: 85 12        	sta	$12                     ; 0x2012 <printf+0x29d>
     e22: 8a           	txa
     e23: 4a           	lsr
     e24: 29 1f        	and	#$1f
     e26: a6 12        	ldx	$12                     ; 0x2012 <printf+0x29d>
     e28: 8e 08 d2     	stx	$d208                   ; 0xd208 <end_block9+0xa15c>
     e2b: 9c 09 d2     	stz	$d209                   ; 0xd209 <end_block9+0xa15d>
     e2e: 8d 0a d2     	sta	$d20a                   ; 0xd20a <end_block9+0xa15e>
     e31: 9c 0b d2     	stz	$d20b                   ; 0xd20b <end_block9+0xa15f>
     e34: a2 80        	ldx	#$80
     e36: 86 f3        	stx	$f3                     ; 0x20f3 <printf+0x37e>
     e38: 20 f0 ff     	jsr	$fff0 <end_block9+0xcf44>
     e3b: 92 24        	sta	($24)                   ; 0x2024 <printf+0x2af>
     e3d: a9 00        	lda	#$0
     e3f: 6a           	ror
     e40: 85 26        	sta	$26                     ; 0x2026 <printf+0x2b1>
     e42: 18           	clc
     e43: a9 03        	lda	#$3
     e45: 72 24        	adc	($24)                   ; 0x2024 <printf+0x2af>
     e47: 85 95        	sta	$95                     ; 0x2095 <printf+0x320>
     e49: 64 f3        	stz	$f3                     ; 0x20f3 <printf+0x37e>
     e4b: a6 95        	ldx	$95                     ; 0x2095 <printf+0x320>
     e4d: 86 f4        	stx	$f4                     ; 0x20f4 <printf+0x37f>
     e4f: a2 03        	ldx	#$3
     e51: 86 f5        	stx	$f5                     ; 0x20f5 <printf+0x380>
     e53: a5 2b        	lda	$2b                     ; 0x202b <printf+0x2b6>
     e55: a0 06        	ldy	#$6
     e57: 91 10        	sta	($10),y                 ; 0x2010 <printf+0x29b>
     e59: a5 2a        	lda	$2a                     ; 0x202a <printf+0x2b5>
     e5b: 88           	dey
     e5c: 91 10        	sta	($10),y                 ; 0x2010 <printf+0x29b>
     e5e: a6 2d        	ldx	$2d                     ; 0x202d <printf+0x2b8>
     e60: 20 f0 ff     	jsr	$fff0 <end_block9+0xcf44>
     e63: 92 24        	sta	($24)                   ; 0x2024 <printf+0x2af>
     e65: a9 00        	lda	#$0
     e67: 6a           	ror
     e68: 85 26        	sta	$26                     ; 0x2026 <printf+0x2b1>
     e6a: 4c 2e 15     	jmp	$152e <f256main+0xdea>
     e6d: a6 96        	ldx	$96                     ; 0x2096 <printf+0x321>
     e6f: a0 80        	ldy	#$80
     e71: 8c a1 dd     	sty	$dda1                   ; 0xdda1 <end_block9+0xacf5>
     e74: 8e a1 dd     	stx	$dda1                   ; 0xdda1 <end_block9+0xacf5>
     e77: a2 4f        	ldx	#$4f
     e79: 8e a1 dd     	stx	$dda1                   ; 0xdda1 <end_block9+0xacf5>
     e7c: a5 12        	lda	$12                     ; 0x2012 <printf+0x29d>
     e7e: 48           	pha
     e7f: a0 02        	ldy	#$2
     e81: b1 10        	lda	($10),y                 ; 0x2010 <printf+0x29b>
     e83: aa           	tax
     e84: 68           	pla
     e85: e0 00        	cpx	#$0
     e87: d0 03        	bne	$e8c <f256main+0x748>
     e89: 4c e3 13     	jmp	$13e3 <f256main+0xc9f>
     e8c: 48           	pha
     e8d: a0 03        	ldy	#$3
     e8f: b1 10        	lda	($10),y                 ; 0x2010 <printf+0x29b>
     e91: a8           	tay
     e92: 68           	pla
     e93: c0 49        	cpy	#$49
     e95: 90 03        	bcc	$e9a <f256main+0x756>
     e97: 4c c0 13     	jmp	$13c0 <f256main+0xc7c>
     e9a: c8           	iny
     e9b: be 89 2c     	ldx	$2c89,y                 ; 0x2c89 <songNotes>
     e9e: 86 96        	stx	$96                     ; 0x2096 <printf+0x321>
     ea0: 64 97        	stz	$97                     ; 0x2097 <printf+0x322>
     ea2: a2 80        	ldx	#$80
     ea4: 86 f3        	stx	$f3                     ; 0x20f3 <printf+0x37e>
     ea6: 20 f0 ff     	jsr	$fff0 <end_block9+0xcf44>
     ea9: 92 24        	sta	($24)                   ; 0x2024 <printf+0x2af>
     eab: a9 00        	lda	#$0
     ead: 6a           	ror
     eae: 85 26        	sta	$26                     ; 0x2026 <printf+0x2b1>
     eb0: a9 19        	lda	#$19
     eb2: 18           	clc
     eb3: 72 24        	adc	($24)                   ; 0x2024 <printf+0x2af>
     eb5: 85 93        	sta	$93                     ; 0x2093 <printf+0x31e>
     eb7: a5 91        	lda	$91                     ; 0x2091 <printf+0x31c>
     eb9: 29 01        	and	#$1
     ebb: f0 38        	beq	$ef5 <f256main+0x7b1>
     ebd: a2 9f        	ldx	#$9f
     ebf: 8e 08 d6     	stx	$d608                   ; 0xd608 <end_block9+0xa55c>
     ec2: a2 94        	ldx	#$94
     ec4: 8e 08 d6     	stx	$d608                   ; 0xd608 <end_block9+0xa55c>
     ec7: a9 f8        	lda	#$f8
     ec9: 18           	clc
     eca: 65 96        	adc	$96                     ; 0x2096 <printf+0x321>
     ecc: 85 12        	sta	$12                     ; 0x2012 <printf+0x29d>
     ece: a9 29        	lda	#$29
     ed0: 65 97        	adc	$97                     ; 0x2097 <printf+0x322>
     ed2: 85 13        	sta	$13                     ; 0x2013 <printf+0x29e>
     ed4: b2 12        	lda	($12)                   ; 0x2012 <printf+0x29d>
     ed6: aa           	tax
     ed7: bd f3 2a     	lda	$2af3,x                 ; 0x2af3 <KeyCodesToLoPSG>
     eda: aa           	tax
     edb: 8e 08 d6     	stx	$d608                   ; 0xd608 <end_block9+0xa55c>
     ede: a9 f8        	lda	#$f8
     ee0: 18           	clc
     ee1: 65 96        	adc	$96                     ; 0x2096 <printf+0x321>
     ee3: 85 12        	sta	$12                     ; 0x2012 <printf+0x29d>
     ee5: a9 29        	lda	#$29
     ee7: 65 97        	adc	$97                     ; 0x2097 <printf+0x322>
     ee9: 85 13        	sta	$13                     ; 0x2013 <printf+0x29e>
     eeb: b2 12        	lda	($12)                   ; 0x2012 <printf+0x29d>
     eed: aa           	tax
     eee: bd 6e 2b     	lda	$2b6e,x                 ; 0x2b6e <KeyCodesToHiPSG>
     ef1: aa           	tax
     ef2: 8e 08 d6     	stx	$d608                   ; 0xd608 <end_block9+0xa55c>
     ef5: 98           	tya
     ef6: a0 03        	ldy	#$3
     ef8: 91 10        	sta	($10),y                 ; 0x2010 <printf+0x29b>
     efa: 64 f3        	stz	$f3                     ; 0x20f3 <printf+0x37e>
     efc: a6 93        	ldx	$93                     ; 0x2093 <printf+0x31e>
     efe: 86 f4        	stx	$f4                     ; 0x20f4 <printf+0x37f>
     f00: a2 01        	ldx	#$1
     f02: 86 f5        	stx	$f5                     ; 0x20f5 <printf+0x380>
     f04: 20 f0 ff     	jsr	$fff0 <end_block9+0xcf44>
     f07: 92 24        	sta	($24)                   ; 0x2024 <printf+0x2af>
     f09: a9 00        	lda	#$0
     f0b: 6a           	ror
     f0c: 85 26        	sta	$26                     ; 0x2026 <printf+0x2b1>
     f0e: a5 91        	lda	$91                     ; 0x2091 <printf+0x31c>
     f10: 29 01        	and	#$1
     f12: d0 0f        	bne	$f23 <f256main+0x7df>
     f14: a6 96        	ldx	$96                     ; 0x2096 <printf+0x321>
     f16: a0 90        	ldy	#$90
     f18: 8c a1 dd     	sty	$dda1                   ; 0xdda1 <end_block9+0xacf5>
     f1b: 8e a1 dd     	stx	$dda1                   ; 0xdda1 <end_block9+0xacf5>
     f1e: a2 7f        	ldx	#$7f
     f20: 8e a1 dd     	stx	$dda1                   ; 0xdda1 <end_block9+0xacf5>
     f23: a5 96        	lda	$96                     ; 0x2096 <printf+0x321>
     f25: 0a           	asl
     f26: 85 12        	sta	$12                     ; 0x2012 <printf+0x29d>
     f28: a9 00        	lda	#$0
     f2a: 2a           	rol
     f2b: 85 13        	sta	$13                     ; 0x2013 <printf+0x29e>
     f2d: a9 e9        	lda	#$e9
     f2f: 18           	clc
     f30: 65 12        	adc	$12                     ; 0x2012 <printf+0x29d>
     f32: 85 12        	sta	$12                     ; 0x2012 <printf+0x29d>
     f34: a9 2b        	lda	#$2b
     f36: 65 13        	adc	$13                     ; 0x2013 <printf+0x29e>
     f38: 85 13        	sta	$13                     ; 0x2013 <printf+0x29e>
     f3a: b2 12        	lda	($12)                   ; 0x2012 <printf+0x29d>
     f3c: 85 14        	sta	$14                     ; 0x2014 <printf+0x29f>
     f3e: a0 01        	ldy	#$1
     f40: b1 12        	lda	($12),y                 ; 0x2012 <printf+0x29d>
     f42: 85 12        	sta	$12                     ; 0x2012 <printf+0x29d>
     f44: 98           	tya
     f45: 05 4e        	ora	$4e                     ; 0x204e <printf+0x2d9>
     f47: 8d 08 d9     	sta	$d908                   ; 0xd908 <end_block9+0xa85c>
     f4a: a6 14        	ldx	$14                     ; 0x2014 <printf+0x29f>
     f4c: 8e 0c d9     	stx	$d90c                   ; 0xd90c <end_block9+0xa860>
     f4f: a6 12        	ldx	$12                     ; 0x2012 <printf+0x29d>
     f51: 8e 0d d9     	stx	$d90d                   ; 0xd90d <end_block9+0xa861>
     f54: a2 c0        	ldx	#$c0
     f56: 8e 0e d9     	stx	$d90e                   ; 0xd90e <end_block9+0xa862>
     f59: 9c 0f d9     	stz	$d90f                   ; 0xd90f <end_block9+0xa863>
     f5c: a2 01        	ldx	#$1
     f5e: 8a           	txa
     f5f: c8           	iny
     f60: 91 10        	sta	($10),y                 ; 0x2010 <printf+0x29b>
     f62: 4c af 13     	jmp	$13af <f256main+0xc6b>
     f65: a2 01        	ldx	#$1
     f67: 48           	pha
     f68: 8a           	txa
     f69: a0 06        	ldy	#$6
     f6b: 91 10        	sta	($10),y                 ; 0x2010 <printf+0x29b>
     f6d: 68           	pla
     f6e: a6 2d        	ldx	$2d                     ; 0x202d <printf+0x2b8>
     f70: a0 01        	ldy	#$1
     f72: 48           	pha
     f73: 98           	tya
     f74: a0 05        	ldy	#$5
     f76: 91 10        	sta	($10),y                 ; 0x2010 <printf+0x29b>
     f78: 68           	pla
     f79: a0 03        	ldy	#$3
     f7b: 91 10        	sta	($10),y                 ; 0x2010 <printf+0x29b>
     f7d: c9 4a        	cmp	#$4a
     f7f: f0 03        	beq	$f84 <f256main+0x840>
     f81: 4c 2e 15     	jmp	$152e <f256main+0xdea>
     f84: a2 19        	ldx	#$19
     f86: 86 39        	stx	$39                     ; 0x2039 <printf+0x2c4>
     f88: 8e 14 d0     	stx	$d014                   ; 0xd014 <end_block9+0x9f68>
     f8b: 9c 15 d0     	stz	$d015                   ; 0xd015 <end_block9+0x9f69>
     f8e: a2 08        	ldx	#$8
     f90: 86 3a        	stx	$3a                     ; 0x203a <printf+0x2c5>
     f92: 8e 16 d0     	stx	$d016                   ; 0xd016 <end_block9+0x9f6a>
     f95: 9c 17 d0     	stz	$d017                   ; 0xd017 <end_block9+0x9f6b>
     f98: a2 00        	ldx	#$0
     f9a: a9 2f        	lda	#$2f
     f9c: 20 25 29     	jsr	$2925 <putchar>
     f9f: a2 1a        	ldx	#$1a
     fa1: 86 39        	stx	$39                     ; 0x2039 <printf+0x2c4>
     fa3: 8e 14 d0     	stx	$d014                   ; 0xd014 <end_block9+0x9f68>
     fa6: 9c 15 d0     	stz	$d015                   ; 0xd015 <end_block9+0x9f69>
     fa9: a2 07        	ldx	#$7
     fab: 86 3a        	stx	$3a                     ; 0x203a <printf+0x2c5>
     fad: 8e 16 d0     	stx	$d016                   ; 0xd016 <end_block9+0x9f6a>
     fb0: 9c 17 d0     	stz	$d017                   ; 0xd017 <end_block9+0x9f6b>
     fb3: a6 8f        	ldx	$8f                     ; 0x208f <printf+0x31a>
     fb5: e0 48        	cpx	#$48
     fb7: b0 03        	bcs	$fbc <f256main+0x878>
     fb9: 4c 43 10     	jmp	$1043 <f256main+0x8ff>
     fbc: a2 3d        	ldx	#$3d
     fbe: 86 12        	stx	$12                     ; 0x2012 <printf+0x29d>
     fc0: a2 30        	ldx	#$30
     fc2: 86 13        	stx	$13                     ; 0x2013 <printf+0x29e>
     fc4: 20 75 1d     	jsr	$1d75 <printf>
     fc7: a2 01        	ldx	#$1
     fc9: 86 90        	stx	$90                     ; 0x2090 <printf+0x31b>
     fcb: a2 50        	ldx	#$50
     fcd: 86 30        	stx	$30                     ; 0x2030 <printf+0x2bb>
     fcf: 64 31        	stz	$31                     ; 0x2031 <printf+0x2bc>
     fd1: a9 01        	lda	#$1
     fd3: 05 57        	ora	$57                     ; 0x2057 <printf+0x2e2>
     fd5: 8d 50 d9     	sta	$d950                   ; 0xd950 <end_block9+0xa8a4>
     fd8: a6 30        	ldx	$30                     ; 0x2030 <printf+0x2bb>
     fda: a4 31        	ldy	$31                     ; 0x2031 <printf+0x2bc>
     fdc: a9 45        	lda	#$45
     fde: 8d 54 d9     	sta	$d954                   ; 0xd954 <end_block9+0xa8a8>
     fe1: 9c 55 d9     	stz	$d955                   ; 0xd955 <end_block9+0xa8a9>
     fe4: 8e 56 d9     	stx	$d956                   ; 0xd956 <end_block9+0xa8aa>
     fe7: 8c 57 d9     	sty	$d957                   ; 0xd957 <end_block9+0xa8ab>
     fea: a9 01        	lda	#$1
     fec: 05 58        	ora	$58                     ; 0x2058 <printf+0x2e3>
     fee: 8d 58 d9     	sta	$d958                   ; 0xd958 <end_block9+0xa8ac>
     ff1: a6 30        	ldx	$30                     ; 0x2030 <printf+0x2bb>
     ff3: a4 31        	ldy	$31                     ; 0x2031 <printf+0x2bc>
     ff5: a9 65        	lda	#$65
     ff7: 8d 5c d9     	sta	$d95c                   ; 0xd95c <end_block9+0xa8b0>
     ffa: 9c 5d d9     	stz	$d95d                   ; 0xd95d <end_block9+0xa8b1>
     ffd: 8e 5e d9     	stx	$d95e                   ; 0xd95e <end_block9+0xa8b2>
    1000: 8c 5f d9     	sty	$d95f                   ; 0xd95f <end_block9+0xa8b3>
    1003: a2 80        	ldx	#$80
    1005: 86 f3        	stx	$f3                     ; 0x20f3 <printf+0x37e>
    1007: 20 f0 ff     	jsr	$fff0 <end_block9+0xcf44>
    100a: 92 24        	sta	($24)                   ; 0x2024 <printf+0x2af>
    100c: a9 00        	lda	#$0
    100e: 6a           	ror
    100f: 85 26        	sta	$26                     ; 0x2026 <printf+0x2b1>
    1011: 18           	clc
    1012: a9 03        	lda	#$3
    1014: 72 24        	adc	($24)                   ; 0x2024 <printf+0x2af>
    1016: 85 94        	sta	$94                     ; 0x2094 <printf+0x31f>
    1018: 64 f3        	stz	$f3                     ; 0x20f3 <printf+0x37e>
    101a: a6 94        	ldx	$94                     ; 0x2094 <printf+0x31f>
    101c: 86 f4        	stx	$f4                     ; 0x20f4 <printf+0x37f>
    101e: a2 02        	ldx	#$2
    1020: 86 f5        	stx	$f5                     ; 0x20f5 <printf+0x380>
    1022: a2 4a        	ldx	#$4a
    1024: 8a           	txa
    1025: a0 03        	ldy	#$3
    1027: 91 10        	sta	($10),y                 ; 0x2010 <printf+0x29b>
    1029: 64 12        	stz	$12                     ; 0x2012 <printf+0x29d>
    102b: a9 00        	lda	#$0
    102d: a0 06        	ldy	#$6
    102f: 91 10        	sta	($10),y                 ; 0x2010 <printf+0x29b>
    1031: 88           	dey
    1032: 91 10        	sta	($10),y                 ; 0x2010 <printf+0x29b>
    1034: a6 2d        	ldx	$2d                     ; 0x202d <printf+0x2b8>
    1036: 20 f0 ff     	jsr	$fff0 <end_block9+0xcf44>
    1039: 92 24        	sta	($24)                   ; 0x2024 <printf+0x2af>
    103b: a9 00        	lda	#$0
    103d: 6a           	ror
    103e: 85 26        	sta	$26                     ; 0x2026 <printf+0x2b1>
    1040: 4c 2e 15     	jmp	$152e <f256main+0xdea>
    1043: a2 28        	ldx	#$28
    1045: 86 12        	stx	$12                     ; 0x2012 <printf+0x29d>
    1047: a2 2f        	ldx	#$2f
    1049: 86 13        	stx	$13                     ; 0x2013 <printf+0x29e>
    104b: 20 75 1d     	jsr	$1d75 <printf>
    104e: a2 4a        	ldx	#$4a
    1050: 8a           	txa
    1051: a0 03        	ldy	#$3
    1053: 91 10        	sta	($10),y                 ; 0x2010 <printf+0x29b>
    1055: 64 12        	stz	$12                     ; 0x2012 <printf+0x29d>
    1057: a9 00        	lda	#$0
    1059: a0 06        	ldy	#$6
    105b: 91 10        	sta	($10),y                 ; 0x2010 <printf+0x29b>
    105d: 4c b7 13     	jmp	$13b7 <f256main+0xc73>
    1060: 64 8f        	stz	$8f                     ; 0x208f <printf+0x31a>
    1062: a2 80        	ldx	#$80
    1064: 86 f3        	stx	$f3                     ; 0x20f3 <printf+0x37e>
    1066: 20 f0 ff     	jsr	$fff0 <end_block9+0xcf44>
    1069: 92 24        	sta	($24)                   ; 0x2024 <printf+0x2af>
    106b: a9 00        	lda	#$0
    106d: 6a           	ror
    106e: 85 26        	sta	$26                     ; 0x2026 <printf+0x2b1>
    1070: a9 1e        	lda	#$1e
    1072: 18           	clc
    1073: 72 24        	adc	($24)                   ; 0x2024 <printf+0x2af>
    1075: 85 93        	sta	$93                     ; 0x2093 <printf+0x31e>
    1077: a2 37        	ldx	#$37
    1079: 86 96        	stx	$96                     ; 0x2096 <printf+0x321>
    107b: 64 97        	stz	$97                     ; 0x2097 <printf+0x322>
    107d: 64 f3        	stz	$f3                     ; 0x20f3 <printf+0x37e>
    107f: a6 93        	ldx	$93                     ; 0x2093 <printf+0x31e>
    1081: 86 f4        	stx	$f4                     ; 0x20f4 <printf+0x37f>
    1083: a0 01        	ldy	#$1
    1085: a2 01        	ldx	#$1
    1087: 8a           	txa
    1088: 5a           	phy
    1089: a0 03        	ldy	#$3
    108b: 91 10        	sta	($10),y                 ; 0x2010 <printf+0x29b>
    108d: 7a           	ply
    108e: 84 f5        	sty	$f5                     ; 0x20f5 <printf+0x380>
    1090: 20 f0 ff     	jsr	$fff0 <end_block9+0xcf44>
    1093: 92 24        	sta	($24)                   ; 0x2024 <printf+0x2af>
    1095: a9 00        	lda	#$0
    1097: 6a           	ror
    1098: 85 26        	sta	$26                     ; 0x2026 <printf+0x2b1>
    109a: a6 96        	ldx	$96                     ; 0x2096 <printf+0x321>
    109c: a0 90        	ldy	#$90
    109e: 8c a1 dd     	sty	$dda1                   ; 0xdda1 <end_block9+0xacf5>
    10a1: 8e a1 dd     	stx	$dda1                   ; 0xdda1 <end_block9+0xacf5>
    10a4: a2 7f        	ldx	#$7f
    10a6: 8e a1 dd     	stx	$dda1                   ; 0xdda1 <end_block9+0xacf5>
    10a9: a2 19        	ldx	#$19
    10ab: 86 39        	stx	$39                     ; 0x2039 <printf+0x2c4>
    10ad: 8e 14 d0     	stx	$d014                   ; 0xd014 <end_block9+0x9f68>
    10b0: 9c 15 d0     	stz	$d015                   ; 0xd015 <end_block9+0x9f69>
    10b3: a2 08        	ldx	#$8
    10b5: 86 3a        	stx	$3a                     ; 0x203a <printf+0x2c5>
    10b7: 8e 16 d0     	stx	$d016                   ; 0xd016 <end_block9+0x9f6a>
    10ba: 9c 17 d0     	stz	$d017                   ; 0xd017 <end_block9+0x9f6b>
    10bd: a2 00        	ldx	#$0
    10bf: a9 20        	lda	#$20
    10c1: 20 25 29     	jsr	$2925 <putchar>
    10c4: a2 1a        	ldx	#$1a
    10c6: 86 39        	stx	$39                     ; 0x2039 <printf+0x2c4>
    10c8: 8e 14 d0     	stx	$d014                   ; 0xd014 <end_block9+0x9f68>
    10cb: 9c 15 d0     	stz	$d015                   ; 0xd015 <end_block9+0x9f69>
    10ce: a2 07        	ldx	#$7
    10d0: 86 3a        	stx	$3a                     ; 0x203a <printf+0x2c5>
    10d2: 8e 16 d0     	stx	$d016                   ; 0xd016 <end_block9+0x9f6a>
    10d5: 9c 17 d0     	stz	$d017                   ; 0xd017 <end_block9+0x9f6b>
    10d8: a2 82        	ldx	#$82
    10da: 86 12        	stx	$12                     ; 0x2012 <printf+0x29d>
    10dc: a2 30        	ldx	#$30
    10de: 86 13        	stx	$13                     ; 0x2013 <printf+0x29e>
    10e0: 20 75 1d     	jsr	$1d75 <printf>
    10e3: a6 57        	ldx	$57                     ; 0x2057 <printf+0x2e2>
    10e5: 8e 50 d9     	stx	$d950                   ; 0xd950 <end_block9+0xa8a4>
    10e8: a6 58        	ldx	$58                     ; 0x2058 <printf+0x2e3>
    10ea: 8e 58 d9     	stx	$d958                   ; 0xd958 <end_block9+0xa8ac>
    10ed: 64 12        	stz	$12                     ; 0x2012 <printf+0x29d>
    10ef: a9 00        	lda	#$0
    10f1: a0 06        	ldy	#$6
    10f3: 91 10        	sta	($10),y                 ; 0x2010 <printf+0x29b>
    10f5: a2 01        	ldx	#$1
    10f7: 8a           	txa
    10f8: 4c b7 13     	jmp	$13b7 <f256main+0xc73>
    10fb: a2 9f        	ldx	#$9f
    10fd: 8e 08 d6     	stx	$d608                   ; 0xd608 <end_block9+0xa55c>
    1100: a5 91        	lda	$91                     ; 0x2091 <printf+0x31c>
    1102: 29 01        	and	#$1
    1104: 84 4a        	sty	$4a                     ; 0x204a <printf+0x2d5>
    1106: d0 03        	bne	$110b <f256main+0x9c7>
    1108: 4c 23 13     	jmp	$1323 <f256main+0xbdf>
    110b: 9c 01 d2     	stz	$d201                   ; 0xd201 <end_block9+0xa155>
    110e: a2 88        	ldx	#$88
    1110: 8e 02 d2     	stx	$d202                   ; 0xd202 <end_block9+0xa156>
    1113: a2 03        	ldx	#$3
    1115: 8e 03 d2     	stx	$d203                   ; 0xd203 <end_block9+0xa157>
    1118: a2 17        	ldx	#$17
    111a: 8e 04 d2     	stx	$d204                   ; 0xd204 <end_block9+0xa158>
    111d: 9c 05 d2     	stz	$d205                   ; 0xd205 <end_block9+0xa159>
    1120: a2 13        	ldx	#$13
    1122: 8e 06 d2     	stx	$d206                   ; 0xd206 <end_block9+0xa15a>
    1125: 9c 07 d2     	stz	$d207                   ; 0xd207 <end_block9+0xa15b>
    1128: 9c 08 d2     	stz	$d208                   ; 0xd208 <end_block9+0xa15c>
    112b: 9c 09 d2     	stz	$d209                   ; 0xd209 <end_block9+0xa15d>
    112e: 9c 0a d2     	stz	$d20a                   ; 0xd20a <end_block9+0xa15e>
    1131: 9c 0b d2     	stz	$d20b                   ; 0xd20b <end_block9+0xa15f>
    1134: a2 3c        	ldx	#$3c
    1136: 86 39        	stx	$39                     ; 0x2039 <printf+0x2c4>
    1138: 8e 14 d0     	stx	$d014                   ; 0xd014 <end_block9+0x9f68>
    113b: 9c 15 d0     	stz	$d015                   ; 0xd015 <end_block9+0x9f69>
    113e: a2 02        	ldx	#$2
    1140: 86 3a        	stx	$3a                     ; 0x203a <printf+0x2c5>
    1142: 8e 16 d0     	stx	$d016                   ; 0xd016 <end_block9+0x9f6a>
    1145: 9c 17 d0     	stz	$d017                   ; 0xd017 <end_block9+0x9f6b>
    1148: a2 3f        	ldx	#$3f
    114a: 86 12        	stx	$12                     ; 0x2012 <printf+0x29d>
    114c: a2 2f        	ldx	#$2f
    114e: 86 13        	stx	$13                     ; 0x2013 <printf+0x29e>
    1150: 20 75 1d     	jsr	$1d75 <printf>
    1153: 64 91        	stz	$91                     ; 0x2091 <printf+0x31c>
    1155: a2 21        	ldx	#$21
    1157: 86 39        	stx	$39                     ; 0x2039 <printf+0x2c4>
    1159: 8e 14 d0     	stx	$d014                   ; 0xd014 <end_block9+0x9f68>
    115c: 9c 15 d0     	stz	$d015                   ; 0xd015 <end_block9+0x9f69>
    115f: a2 10        	ldx	#$10
    1161: 86 3a        	stx	$3a                     ; 0x203a <printf+0x2c5>
    1163: 8e 16 d0     	stx	$d016                   ; 0xd016 <end_block9+0x9f6a>
    1166: 9c 17 d0     	stz	$d017                   ; 0xd017 <end_block9+0x9f6b>
    1169: a2 da        	ldx	#$da
    116b: 86 12        	stx	$12                     ; 0x2012 <printf+0x29d>
    116d: a2 2f        	ldx	#$2f
    116f: 86 13        	stx	$13                     ; 0x2013 <printf+0x29e>
    1171: 20 75 1d     	jsr	$1d75 <printf>
    1174: a2 22        	ldx	#$22
    1176: 86 39        	stx	$39                     ; 0x2039 <printf+0x2c4>
    1178: 8e 14 d0     	stx	$d014                   ; 0xd014 <end_block9+0x9f68>
    117b: 9c 15 d0     	stz	$d015                   ; 0xd015 <end_block9+0x9f69>
    117e: a2 17        	ldx	#$17
    1180: 86 3a        	stx	$3a                     ; 0x203a <printf+0x2c5>
    1182: 8e 16 d0     	stx	$d016                   ; 0xd016 <end_block9+0x9f6a>
    1185: 9c 17 d0     	stz	$d017                   ; 0xd017 <end_block9+0x9f6b>
    1188: a2 56        	ldx	#$56
    118a: 86 12        	stx	$12                     ; 0x2012 <printf+0x29d>
    118c: a2 30        	ldx	#$30
    118e: 4c aa 13     	jmp	$13aa <f256main+0xc66>
    1191: e0 92        	cpx	#$92
    1193: d0 34        	bne	$11c9 <f256main+0xa85>
    1195: a2 7b        	ldx	#$7b
    1197: 8e a1 dd     	stx	$dda1                   ; 0xdda1 <end_block9+0xacf5>
    119a: 9c a1 dd     	stz	$dda1                   ; 0xdda1 <end_block9+0xacf5>
    119d: a2 ff        	ldx	#$ff
    119f: 8e a1 dd     	stx	$dda1                   ; 0xdda1 <end_block9+0xacf5>
    11a2: a2 c0        	ldx	#$c0
    11a4: 8e a1 dd     	stx	$dda1                   ; 0xdda1 <end_block9+0xacf5>
    11a7: a2 13        	ldx	#$13
    11a9: 8e a1 dd     	stx	$dda1                   ; 0xdda1 <end_block9+0xacf5>
    11ac: a0 c1        	ldy	#$c1
    11ae: 8c a1 dd     	sty	$dda1                   ; 0xdda1 <end_block9+0xacf5>
    11b1: 8e a1 dd     	stx	$dda1                   ; 0xdda1 <end_block9+0xacf5>
    11b4: a0 9f        	ldy	#$9f
    11b6: 8c 08 d6     	sty	$d608                   ; 0xd608 <end_block9+0xa55c>
    11b9: a5 2b        	lda	$2b                     ; 0x202b <printf+0x2b6>
    11bb: a0 06        	ldy	#$6
    11bd: 91 10        	sta	($10),y                 ; 0x2010 <printf+0x29b>
    11bf: a5 2a        	lda	$2a                     ; 0x202a <printf+0x2b5>
    11c1: 88           	dey
    11c2: 91 10        	sta	($10),y                 ; 0x2010 <printf+0x29b>
    11c4: 64 29        	stz	$29                     ; 0x2029 <printf+0x2b4>
    11c6: 4c 2e 15     	jmp	$152e <f256main+0xdea>
    11c9: a5 91        	lda	$91                     ; 0x2091 <printf+0x31c>
    11cb: 29 01        	and	#$1
    11cd: d0 03        	bne	$11d2 <f256main+0xa8e>
    11cf: 4c 66 14     	jmp	$1466 <f256main+0xd22>
    11d2: a2 9f        	ldx	#$9f
    11d4: 8e 08 d6     	stx	$d608                   ; 0xd608 <end_block9+0xa55c>
    11d7: a2 94        	ldx	#$94
    11d9: 8e 08 d6     	stx	$d608                   ; 0xd608 <end_block9+0xa55c>
    11dc: a6 36        	ldx	$36                     ; 0x2036 <printf+0x2c1>
    11de: bd f3 2a     	lda	$2af3,x                 ; 0x2af3 <KeyCodesToLoPSG>
    11e1: aa           	tax
    11e2: 8e 08 d6     	stx	$d608                   ; 0xd608 <end_block9+0xa55c>
    11e5: a6 36        	ldx	$36                     ; 0x2036 <printf+0x2c1>
    11e7: bd 6e 2b     	lda	$2b6e,x                 ; 0x2b6e <KeyCodesToHiPSG>
    11ea: aa           	tax
    11eb: 8e 08 d6     	stx	$d608                   ; 0xd608 <end_block9+0xa55c>
    11ee: 4c 7c 14     	jmp	$147c <f256main+0xd38>
    11f1: e0 00        	cpx	#$0
    11f3: 90 03        	bcc	$11f8 <f256main+0xab4>
    11f5: 4c a1 0d     	jmp	$da1 <f256main+0x65d>
    11f8: a2 80        	ldx	#$80
    11fa: 86 f3        	stx	$f3                     ; 0x20f3 <printf+0x37e>
    11fc: 20 f0 ff     	jsr	$fff0 <end_block9+0xcf44>
    11ff: 92 24        	sta	($24)                   ; 0x2024 <printf+0x2af>
    1201: a9 00        	lda	#$0
    1203: 6a           	ror
    1204: 85 26        	sta	$26                     ; 0x2026 <printf+0x2b1>
    1206: 18           	clc
    1207: a9 03        	lda	#$3
    1209: 72 24        	adc	($24)                   ; 0x2024 <printf+0x2af>
    120b: 85 94        	sta	$94                     ; 0x2094 <printf+0x31f>
    120d: 64 f3        	stz	$f3                     ; 0x20f3 <printf+0x37e>
    120f: a6 94        	ldx	$94                     ; 0x2094 <printf+0x31f>
    1211: 86 f4        	stx	$f4                     ; 0x20f4 <printf+0x37f>
    1213: a2 02        	ldx	#$2
    1215: 86 f5        	stx	$f5                     ; 0x20f5 <printf+0x380>
    1217: a5 2b        	lda	$2b                     ; 0x202b <printf+0x2b6>
    1219: a0 06        	ldy	#$6
    121b: 91 10        	sta	($10),y                 ; 0x2010 <printf+0x29b>
    121d: a5 2a        	lda	$2a                     ; 0x202a <printf+0x2b5>
    121f: 88           	dey
    1220: 91 10        	sta	($10),y                 ; 0x2010 <printf+0x29b>
    1222: a6 2d        	ldx	$2d                     ; 0x202d <printf+0x2b8>
    1224: 20 f0 ff     	jsr	$fff0 <end_block9+0xcf44>
    1227: 92 24        	sta	($24)                   ; 0x2024 <printf+0x2af>
    1229: a9 00        	lda	#$0
    122b: 6a           	ror
    122c: 85 26        	sta	$26                     ; 0x2026 <printf+0x2b1>
    122e: 4c 2e 15     	jmp	$152e <f256main+0xdea>
    1231: a2 81        	ldx	#$81
    1233: 8e a1 dd     	stx	$dda1                   ; 0xdda1 <end_block9+0xacf5>
    1236: a2 4f        	ldx	#$4f
    1238: 8e a1 dd     	stx	$dda1                   ; 0xdda1 <end_block9+0xacf5>
    123b: a5 29        	lda	$29                     ; 0x2029 <printf+0x2b4>
    123d: 38           	sec
    123e: e9 fe        	sbc	#$fe
    1240: 50 02        	bvc	$1244 <f256main+0xb00>
    1242: 49 80        	eor	#$80
    1244: a6 2b        	ldx	$2b                     ; 0x202b <printf+0x2b6>
    1246: 48           	pha
    1247: 8a           	txa
    1248: a0 06        	ldy	#$6
    124a: 91 10        	sta	($10),y                 ; 0x2010 <printf+0x29b>
    124c: a6 2a        	ldx	$2a                     ; 0x202a <printf+0x2b5>
    124e: 8a           	txa
    124f: 88           	dey
    1250: 91 10        	sta	($10),y                 ; 0x2010 <printf+0x29b>
    1252: 68           	pla
    1253: a6 2d        	ldx	$2d                     ; 0x202d <printf+0x2b8>
    1255: a8           	tay
    1256: 10 03        	bpl	$125b <f256main+0xb17>
    1258: 4c 2e 15     	jmp	$152e <f256main+0xdea>
    125b: a5 91        	lda	$91                     ; 0x2091 <printf+0x31c>
    125d: 29 01        	and	#$1
    125f: a6 2b        	ldx	$2b                     ; 0x202b <printf+0x2b6>
    1261: 48           	pha
    1262: 8a           	txa
    1263: a0 06        	ldy	#$6
    1265: 91 10        	sta	($10),y                 ; 0x2010 <printf+0x29b>
    1267: a6 2a        	ldx	$2a                     ; 0x202a <printf+0x2b5>
    1269: 8a           	txa
    126a: 88           	dey
    126b: 91 10        	sta	($10),y                 ; 0x2010 <printf+0x29b>
    126d: 68           	pla
    126e: a6 2d        	ldx	$2d                     ; 0x202d <printf+0x2b8>
    1270: a8           	tay
    1271: f0 03        	beq	$1276 <f256main+0xb32>
    1273: 4c 2e 15     	jmp	$152e <f256main+0xdea>
    1276: c6 29        	dec	$29                     ; 0x2029 <printf+0x2b4>
    1278: 80 47        	bra	$12c1 <f256main+0xb7d>
    127a: a2 81        	ldx	#$81
    127c: 8e a1 dd     	stx	$dda1                   ; 0xdda1 <end_block9+0xacf5>
    127f: a2 4f        	ldx	#$4f
    1281: 8e a1 dd     	stx	$dda1                   ; 0xdda1 <end_block9+0xacf5>
    1284: a5 29        	lda	$29                     ; 0x2029 <printf+0x2b4>
    1286: 38           	sec
    1287: e9 04        	sbc	#$4
    1289: 50 02        	bvc	$128d <f256main+0xb49>
    128b: 49 80        	eor	#$80
    128d: a6 2b        	ldx	$2b                     ; 0x202b <printf+0x2b6>
    128f: 48           	pha
    1290: 8a           	txa
    1291: a0 06        	ldy	#$6
    1293: 91 10        	sta	($10),y                 ; 0x2010 <printf+0x29b>
    1295: a6 2a        	ldx	$2a                     ; 0x202a <printf+0x2b5>
    1297: 8a           	txa
    1298: 88           	dey
    1299: 91 10        	sta	($10),y                 ; 0x2010 <printf+0x29b>
    129b: 68           	pla
    129c: a6 2d        	ldx	$2d                     ; 0x202d <printf+0x2b8>
    129e: a8           	tay
    129f: 30 03        	bmi	$12a4 <f256main+0xb60>
    12a1: 4c 2e 15     	jmp	$152e <f256main+0xdea>
    12a4: a5 91        	lda	$91                     ; 0x2091 <printf+0x31c>
    12a6: 29 01        	and	#$1
    12a8: a6 2b        	ldx	$2b                     ; 0x202b <printf+0x2b6>
    12aa: 48           	pha
    12ab: 8a           	txa
    12ac: a0 06        	ldy	#$6
    12ae: 91 10        	sta	($10),y                 ; 0x2010 <printf+0x29b>
    12b0: a6 2a        	ldx	$2a                     ; 0x202a <printf+0x2b5>
    12b2: 8a           	txa
    12b3: 88           	dey
    12b4: 91 10        	sta	($10),y                 ; 0x2010 <printf+0x29b>
    12b6: 68           	pla
    12b7: a6 2d        	ldx	$2d                     ; 0x202d <printf+0x2b8>
    12b9: a8           	tay
    12ba: f0 03        	beq	$12bf <f256main+0xb7b>
    12bc: 4c 2e 15     	jmp	$152e <f256main+0xdea>
    12bf: e6 29        	inc	$29                     ; 0x2029 <printf+0x2b4>
    12c1: a5 2b        	lda	$2b                     ; 0x202b <printf+0x2b6>
    12c3: a0 06        	ldy	#$6
    12c5: 91 10        	sta	($10),y                 ; 0x2010 <printf+0x29b>
    12c7: a5 2a        	lda	$2a                     ; 0x202a <printf+0x2b5>
    12c9: 88           	dey
    12ca: 91 10        	sta	($10),y                 ; 0x2010 <printf+0x29b>
    12cc: a6 2d        	ldx	$2d                     ; 0x202d <printf+0x2b8>
    12ce: 4c 2e 15     	jmp	$152e <f256main+0xdea>
    12d1: a2 00        	ldx	#$0
    12d3: a4 2b        	ldy	$2b                     ; 0x202b <printf+0x2b6>
    12d5: 98           	tya
    12d6: a0 06        	ldy	#$6
    12d8: 91 10        	sta	($10),y                 ; 0x2010 <printf+0x29b>
    12da: a4 2a        	ldy	$2a                     ; 0x202a <printf+0x2b5>
    12dc: 98           	tya
    12dd: a0 05        	ldy	#$5
    12df: 91 10        	sta	($10),y                 ; 0x2010 <printf+0x29b>
    12e1: a5 2d        	lda	$2d                     ; 0x202d <printf+0x2b8>
    12e3: d0 03        	bne	$12e8 <f256main+0xba4>
    12e5: 4c 2e 15     	jmp	$152e <f256main+0xdea>
    12e8: a4 2d        	ldy	$2d                     ; 0x202d <printf+0x2b8>
    12ea: a5 91        	lda	$91                     ; 0x2091 <printf+0x31c>
    12ec: 29 01        	and	#$1
    12ee: a6 2b        	ldx	$2b                     ; 0x202b <printf+0x2b6>
    12f0: 48           	pha
    12f1: 5a           	phy
    12f2: 8a           	txa
    12f3: a0 06        	ldy	#$6
    12f5: 91 10        	sta	($10),y                 ; 0x2010 <printf+0x29b>
    12f7: a6 2a        	ldx	$2a                     ; 0x202a <printf+0x2b5>
    12f9: 8a           	txa
    12fa: 88           	dey
    12fb: 91 10        	sta	($10),y                 ; 0x2010 <printf+0x29b>
    12fd: 7a           	ply
    12fe: 68           	pla
    12ff: 5a           	phy
    1300: fa           	plx
    1301: c9 00        	cmp	#$0
    1303: f0 03        	beq	$1308 <f256main+0xbc4>
    1305: 4c 2e 15     	jmp	$152e <f256main+0xdea>
    1308: 88           	dey
    1309: a2 c1        	ldx	#$c1
    130b: 8e a1 dd     	stx	$dda1                   ; 0xdda1 <end_block9+0xacf5>
    130e: 8c a1 dd     	sty	$dda1                   ; 0xdda1 <end_block9+0xacf5>
    1311: 5a           	phy
    1312: a5 2b        	lda	$2b                     ; 0x202b <printf+0x2b6>
    1314: a0 06        	ldy	#$6
    1316: 91 10        	sta	($10),y                 ; 0x2010 <printf+0x29b>
    1318: a5 2a        	lda	$2a                     ; 0x202a <printf+0x2b5>
    131a: 88           	dey
    131b: 91 10        	sta	($10),y                 ; 0x2010 <printf+0x29b>
    131d: 7a           	ply
    131e: 5a           	phy
    131f: fa           	plx
    1320: 4c 2e 15     	jmp	$152e <f256main+0xdea>
    1323: a2 20        	ldx	#$20
    1325: 8e 01 d2     	stx	$d201                   ; 0xd201 <end_block9+0xa155>
    1328: a2 8f        	ldx	#$8f
    132a: 8e 02 d2     	stx	$d202                   ; 0xd202 <end_block9+0xa156>
    132d: a2 03        	ldx	#$3
    132f: 8e 03 d2     	stx	$d203                   ; 0xd203 <end_block9+0xa157>
    1332: a2 17        	ldx	#$17
    1334: 8e 04 d2     	stx	$d204                   ; 0xd204 <end_block9+0xa158>
    1337: 9c 05 d2     	stz	$d205                   ; 0xd205 <end_block9+0xa159>
    133a: a2 13        	ldx	#$13
    133c: 8e 06 d2     	stx	$d206                   ; 0xd206 <end_block9+0xa15a>
    133f: 9c 07 d2     	stz	$d207                   ; 0xd207 <end_block9+0xa15b>
    1342: 9c 08 d2     	stz	$d208                   ; 0xd208 <end_block9+0xa15c>
    1345: 9c 09 d2     	stz	$d209                   ; 0xd209 <end_block9+0xa15d>
    1348: 9c 0a d2     	stz	$d20a                   ; 0xd20a <end_block9+0xa15e>
    134b: 9c 0b d2     	stz	$d20b                   ; 0xd20b <end_block9+0xa15f>
    134e: a2 3c        	ldx	#$3c
    1350: 86 39        	stx	$39                     ; 0x2039 <printf+0x2c4>
    1352: 8e 14 d0     	stx	$d014                   ; 0xd014 <end_block9+0x9f68>
    1355: 9c 15 d0     	stz	$d015                   ; 0xd015 <end_block9+0x9f69>
    1358: a2 02        	ldx	#$2
    135a: 86 3a        	stx	$3a                     ; 0x203a <printf+0x2c5>
    135c: 8e 16 d0     	stx	$d016                   ; 0xd016 <end_block9+0x9f6a>
    135f: 9c 17 d0     	stz	$d017                   ; 0xd017 <end_block9+0x9f6b>
    1362: a2 17        	ldx	#$17
    1364: 86 12        	stx	$12                     ; 0x2012 <printf+0x29d>
    1366: a2 2f        	ldx	#$2f
    1368: 86 13        	stx	$13                     ; 0x2013 <printf+0x29e>
    136a: 20 75 1d     	jsr	$1d75 <printf>
    136d: a2 01        	ldx	#$1
    136f: 86 91        	stx	$91                     ; 0x2091 <printf+0x31c>
    1371: a2 21        	ldx	#$21
    1373: 86 39        	stx	$39                     ; 0x2039 <printf+0x2c4>
    1375: 8e 14 d0     	stx	$d014                   ; 0xd014 <end_block9+0x9f68>
    1378: 9c 15 d0     	stz	$d015                   ; 0xd015 <end_block9+0x9f69>
    137b: a2 10        	ldx	#$10
    137d: 86 3a        	stx	$3a                     ; 0x203a <printf+0x2c5>
    137f: 8e 16 d0     	stx	$d016                   ; 0xd016 <end_block9+0x9f6a>
    1382: 9c 17 d0     	stz	$d017                   ; 0xd017 <end_block9+0x9f6b>
    1385: a2 11        	ldx	#$11
    1387: 86 12        	stx	$12                     ; 0x2012 <printf+0x29d>
    1389: a2 30        	ldx	#$30
    138b: 86 13        	stx	$13                     ; 0x2013 <printf+0x29e>
    138d: 20 75 1d     	jsr	$1d75 <printf>
    1390: a2 22        	ldx	#$22
    1392: 86 39        	stx	$39                     ; 0x2039 <printf+0x2c4>
    1394: 8e 14 d0     	stx	$d014                   ; 0xd014 <end_block9+0x9f68>
    1397: 9c 15 d0     	stz	$d015                   ; 0xd015 <end_block9+0x9f69>
    139a: a2 17        	ldx	#$17
    139c: 86 3a        	stx	$3a                     ; 0x203a <printf+0x2c5>
    139e: 8e 16 d0     	stx	$d016                   ; 0xd016 <end_block9+0x9f6a>
    13a1: 9c 17 d0     	stz	$d017                   ; 0xd017 <end_block9+0x9f6b>
    13a4: a2 db        	ldx	#$db
    13a6: 86 12        	stx	$12                     ; 0x2012 <printf+0x29d>
    13a8: a2 2e        	ldx	#$2e
    13aa: 86 13        	stx	$13                     ; 0x2013 <printf+0x29e>
    13ac: 20 75 1d     	jsr	$1d75 <printf>
    13af: a5 2b        	lda	$2b                     ; 0x202b <printf+0x2b6>
    13b1: a0 06        	ldy	#$6
    13b3: 91 10        	sta	($10),y                 ; 0x2010 <printf+0x29b>
    13b5: a5 2a        	lda	$2a                     ; 0x202a <printf+0x2b5>
    13b7: a0 05        	ldy	#$5
    13b9: 91 10        	sta	($10),y                 ; 0x2010 <printf+0x29b>
    13bb: a6 2d        	ldx	$2d                     ; 0x202d <printf+0x2b8>
    13bd: 4c 2e 15     	jmp	$152e <f256main+0xdea>
    13c0: c0 49        	cpy	#$49
    13c2: d0 1f        	bne	$13e3 <f256main+0xc9f>
    13c4: a2 9f        	ldx	#$9f
    13c6: 8e 08 d6     	stx	$d608                   ; 0xd608 <end_block9+0xa55c>
    13c9: a2 49        	ldx	#$49
    13cb: 48           	pha
    13cc: 8a           	txa
    13cd: a0 03        	ldy	#$3
    13cf: 91 10        	sta	($10),y                 ; 0x2010 <printf+0x29b>
    13d1: 64 12        	stz	$12                     ; 0x2012 <printf+0x29d>
    13d3: a9 00        	lda	#$0
    13d5: 88           	dey
    13d6: 91 10        	sta	($10),y                 ; 0x2010 <printf+0x29b>
    13d8: a5 2b        	lda	$2b                     ; 0x202b <printf+0x2b6>
    13da: a0 06        	ldy	#$6
    13dc: 91 10        	sta	($10),y                 ; 0x2010 <printf+0x29b>
    13de: a5 2a        	lda	$2a                     ; 0x202a <printf+0x2b5>
    13e0: 4c 28 15     	jmp	$1528 <f256main+0xde4>
    13e3: a2 01        	ldx	#$1
    13e5: 48           	pha
    13e6: 8a           	txa
    13e7: a0 06        	ldy	#$6
    13e9: 91 10        	sta	($10),y                 ; 0x2010 <printf+0x29b>
    13eb: a6 2a        	ldx	$2a                     ; 0x202a <printf+0x2b5>
    13ed: 8a           	txa
    13ee: 88           	dey
    13ef: 91 10        	sta	($10),y                 ; 0x2010 <printf+0x29b>
    13f1: 68           	pla
    13f2: aa           	tax
    13f3: a4 2b        	ldy	$2b                     ; 0x202b <printf+0x2b6>
    13f5: f0 03        	beq	$13fa <f256main+0xcb6>
    13f7: 4c 2e 15     	jmp	$152e <f256main+0xdea>
    13fa: 85 14        	sta	$14                     ; 0x2014 <printf+0x29f>
    13fc: 64 12        	stz	$12                     ; 0x2012 <printf+0x29d>
    13fe: a9 00        	lda	#$0
    1400: a0 06        	ldy	#$6
    1402: 91 10        	sta	($10),y                 ; 0x2010 <printf+0x29b>
    1404: 88           	dey
    1405: 91 10        	sta	($10),y                 ; 0x2010 <printf+0x29b>
    1407: a6 14        	ldx	$14                     ; 0x2014 <printf+0x29f>
    1409: a5 2a        	lda	$2a                     ; 0x202a <printf+0x2b5>
    140b: d0 03        	bne	$1410 <f256main+0xccc>
    140d: 4c 2e 15     	jmp	$152e <f256main+0xdea>
    1410: a0 03        	ldy	#$3
    1412: b1 10        	lda	($10),y                 ; 0x2010 <printf+0x29b>
    1414: aa           	tax
    1415: e8           	inx
    1416: 8a           	txa
    1417: 91 10        	sta	($10),y                 ; 0x2010 <printf+0x29b>
    1419: bd 89 2c     	lda	$2c89,x                 ; 0x2c89 <songNotes>
    141c: 85 96        	sta	$96                     ; 0x2096 <printf+0x321>
    141e: 64 97        	stz	$97                     ; 0x2097 <printf+0x322>
    1420: 0a           	asl
    1421: 85 12        	sta	$12                     ; 0x2012 <printf+0x29d>
    1423: a9 00        	lda	#$0
    1425: 2a           	rol
    1426: 85 13        	sta	$13                     ; 0x2013 <printf+0x29e>
    1428: a9 e9        	lda	#$e9
    142a: 18           	clc
    142b: 65 12        	adc	$12                     ; 0x2012 <printf+0x29d>
    142d: 85 12        	sta	$12                     ; 0x2012 <printf+0x29d>
    142f: a9 2b        	lda	#$2b
    1431: 65 13        	adc	$13                     ; 0x2013 <printf+0x29e>
    1433: 85 13        	sta	$13                     ; 0x2013 <printf+0x29e>
    1435: b2 12        	lda	($12)                   ; 0x2012 <printf+0x29d>
    1437: 85 15        	sta	$15                     ; 0x2015 <printf+0x2a0>
    1439: a0 01        	ldy	#$1
    143b: b1 12        	lda	($12),y                 ; 0x2012 <printf+0x29d>
    143d: 85 12        	sta	$12                     ; 0x2012 <printf+0x29d>
    143f: 98           	tya
    1440: 05 4e        	ora	$4e                     ; 0x204e <printf+0x2d9>
    1442: 8d 08 d9     	sta	$d908                   ; 0xd908 <end_block9+0xa85c>
    1445: a6 15        	ldx	$15                     ; 0x2015 <printf+0x2a0>
    1447: 8e 0c d9     	stx	$d90c                   ; 0xd90c <end_block9+0xa860>
    144a: a6 12        	ldx	$12                     ; 0x2012 <printf+0x29d>
    144c: 8e 0d d9     	stx	$d90d                   ; 0xd90d <end_block9+0xa861>
    144f: a2 c0        	ldx	#$c0
    1451: 8e 0e d9     	stx	$d90e                   ; 0xd90e <end_block9+0xa862>
    1454: 9c 0f d9     	stz	$d90f                   ; 0xd90f <end_block9+0xa863>
    1457: a2 01        	ldx	#$1
    1459: 8a           	txa
    145a: a0 06        	ldy	#$6
    145c: 91 10        	sta	($10),y                 ; 0x2010 <printf+0x29b>
    145e: 88           	dey
    145f: 91 10        	sta	($10),y                 ; 0x2010 <printf+0x29b>
    1461: a6 14        	ldx	$14                     ; 0x2014 <printf+0x29f>
    1463: 4c 2e 15     	jmp	$152e <f256main+0xdea>
    1466: 18           	clc
    1467: a5 14        	lda	$14                     ; 0x2014 <printf+0x29f>
    1469: 65 12        	adc	$12                     ; 0x2012 <printf+0x29d>
    146b: 18           	clc
    146c: 7d 78 2a     	adc	$2a78,x                 ; 0x2a78 <KeyCodesToMIDINotes>
    146f: a2 91        	ldx	#$91
    1471: 8e a1 dd     	stx	$dda1                   ; 0xdda1 <end_block9+0xacf5>
    1474: 8d a1 dd     	sta	$dda1                   ; 0xdda1 <end_block9+0xacf5>
    1477: a2 7f        	ldx	#$7f
    1479: 8e a1 dd     	stx	$dda1                   ; 0xdda1 <end_block9+0xacf5>
    147c: a6 36        	ldx	$36                     ; 0x2036 <printf+0x2c1>
    147e: bd 78 2a     	lda	$2a78,x                 ; 0x2a78 <KeyCodesToMIDINotes>
    1481: 0a           	asl
    1482: 85 12        	sta	$12                     ; 0x2012 <printf+0x29d>
    1484: a9 00        	lda	#$0
    1486: 2a           	rol
    1487: 85 13        	sta	$13                     ; 0x2013 <printf+0x29e>
    1489: a9 e9        	lda	#$e9
    148b: 18           	clc
    148c: 65 12        	adc	$12                     ; 0x2012 <printf+0x29d>
    148e: 85 12        	sta	$12                     ; 0x2012 <printf+0x29d>
    1490: a9 2b        	lda	#$2b
    1492: 65 13        	adc	$13                     ; 0x2013 <printf+0x29e>
    1494: 85 13        	sta	$13                     ; 0x2013 <printf+0x29e>
    1496: b2 12        	lda	($12)                   ; 0x2012 <printf+0x29d>
    1498: 85 14        	sta	$14                     ; 0x2014 <printf+0x29f>
    149a: a0 01        	ldy	#$1
    149c: b1 12        	lda	($12),y                 ; 0x2012 <printf+0x29d>
    149e: 85 12        	sta	$12                     ; 0x2012 <printf+0x29d>
    14a0: 98           	tya
    14a1: 05 4d        	ora	$4d                     ; 0x204d <printf+0x2d8>
    14a3: 8d 00 d9     	sta	$d900                   ; 0xd900 <end_block9+0xa854>
    14a6: a6 14        	ldx	$14                     ; 0x2014 <printf+0x29f>
    14a8: 8e 04 d9     	stx	$d904                   ; 0xd904 <end_block9+0xa858>
    14ab: a6 12        	ldx	$12                     ; 0x2012 <printf+0x29d>
    14ad: 8e 05 d9     	stx	$d905                   ; 0xd905 <end_block9+0xa859>
    14b0: a2 c0        	ldx	#$c0
    14b2: 8e 06 d9     	stx	$d906                   ; 0xd906 <end_block9+0xa85a>
    14b5: 9c 07 d9     	stz	$d907                   ; 0xd907 <end_block9+0xa85b>
    14b8: a6 36        	ldx	$36                     ; 0x2036 <printf+0x2c1>
    14ba: bd 78 2a     	lda	$2a78,x                 ; 0x2a78 <KeyCodesToMIDINotes>
    14bd: 48           	pha
    14be: a0 03        	ldy	#$3
    14c0: b1 10        	lda	($10),y                 ; 0x2010 <printf+0x29b>
    14c2: aa           	tax
    14c3: 68           	pla
    14c4: dd 89 2c     	cmp	$2c89,x                 ; 0x2c89 <songNotes>
    14c7: d0 24        	bne	$14ed <f256main+0xda9>
    14c9: a5 2b        	lda	$2b                     ; 0x202b <printf+0x2b6>
    14cb: a0 06        	ldy	#$6
    14cd: 91 10        	sta	($10),y                 ; 0x2010 <printf+0x29b>
    14cf: 64 12        	stz	$12                     ; 0x2012 <printf+0x29d>
    14d1: a9 00        	lda	#$0
    14d3: 88           	dey
    14d4: 91 10        	sta	($10),y                 ; 0x2010 <printf+0x29b>
    14d6: a6 2d        	ldx	$2d                     ; 0x202d <printf+0x2b8>
    14d8: a5 2a        	lda	$2a                     ; 0x202a <printf+0x2b5>
    14da: d0 03        	bne	$14df <f256main+0xd9b>
    14dc: 4c 2e 15     	jmp	$152e <f256main+0xdea>
    14df: a5 2d        	lda	$2d                     ; 0x202d <printf+0x2b8>
    14e1: e6 8f        	inc	$8f                     ; 0x208f <printf+0x31a>
    14e3: a2 01        	ldx	#$1
    14e5: 48           	pha
    14e6: 8a           	txa
    14e7: a0 06        	ldy	#$6
    14e9: 91 10        	sta	($10),y                 ; 0x2010 <printf+0x29b>
    14eb: 80 3a        	bra	$1527 <f256main+0xde3>
    14ed: a6 2b        	ldx	$2b                     ; 0x202b <printf+0x2b6>
    14ef: 8a           	txa
    14f0: a0 06        	ldy	#$6
    14f2: 91 10        	sta	($10),y                 ; 0x2010 <printf+0x29b>
    14f4: 64 12        	stz	$12                     ; 0x2012 <printf+0x29d>
    14f6: a9 00        	lda	#$0
    14f8: 88           	dey
    14f9: 91 10        	sta	($10),y                 ; 0x2010 <printf+0x29b>
    14fb: a6 2d        	ldx	$2d                     ; 0x202d <printf+0x2b8>
    14fd: a5 2a        	lda	$2a                     ; 0x202a <printf+0x2b5>
    14ff: f0 2d        	beq	$152e <f256main+0xdea>
    1501: a5 2d        	lda	$2d                     ; 0x202d <printf+0x2b8>
    1503: a4 8f        	ldy	$8f                     ; 0x208f <printf+0x31a>
    1505: a6 2b        	ldx	$2b                     ; 0x202b <printf+0x2b6>
    1507: 48           	pha
    1508: 5a           	phy
    1509: 8a           	txa
    150a: a0 06        	ldy	#$6
    150c: 91 10        	sta	($10),y                 ; 0x2010 <printf+0x29b>
    150e: a2 01        	ldx	#$1
    1510: 8a           	txa
    1511: 88           	dey
    1512: 91 10        	sta	($10),y                 ; 0x2010 <printf+0x29b>
    1514: 7a           	ply
    1515: 68           	pla
    1516: aa           	tax
    1517: c0 00        	cpy	#$0
    1519: f0 13        	beq	$152e <f256main+0xdea>
    151b: 88           	dey
    151c: 84 8f        	sty	$8f                     ; 0x208f <printf+0x31a>
    151e: 48           	pha
    151f: a5 2b        	lda	$2b                     ; 0x202b <printf+0x2b6>
    1521: a0 06        	ldy	#$6
    1523: 91 10        	sta	($10),y                 ; 0x2010 <printf+0x29b>
    1525: a2 01        	ldx	#$1
    1527: 8a           	txa
    1528: a0 05        	ldy	#$5
    152a: 91 10        	sta	($10),y                 ; 0x2010 <printf+0x29b>
    152c: 68           	pla
    152d: aa           	tax
    152e: a0 04        	ldy	#$4
    1530: b1 10        	lda	($10),y                 ; 0x2010 <printf+0x29b>
    1532: c8           	iny
    1533: b1 10        	lda	($10),y                 ; 0x2010 <printf+0x29b>
    1535: 85 2a        	sta	$2a                     ; 0x202a <printf+0x2b5>
    1537: c8           	iny
    1538: b1 10        	lda	($10),y                 ; 0x2010 <printf+0x29b>
    153a: 85 2b        	sta	$2b                     ; 0x202b <printf+0x2b6>
    153c: 64 32        	stz	$32                     ; 0x2032 <printf+0x2bd>
    153e: 20 00 ff     	jsr	$ff00 <end_block9+0xce54>
    1541: 92 24        	sta	($24)                   ; 0x2024 <printf+0x2af>
    1543: a9 00        	lda	#$0
    1545: 6a           	ror
    1546: 85 26        	sta	$26                     ; 0x2026 <printf+0x2b1>
    1548: a4 32        	ldy	$32                     ; 0x2032 <printf+0x2bd>
    154a: a5 29        	lda	$29                     ; 0x2029 <printf+0x2b4>
    154c: 0a           	asl
    154d: 0a           	asl
    154e: 85 12        	sta	$12                     ; 0x2012 <printf+0x29d>
    1550: 85 14        	sta	$14                     ; 0x2014 <printf+0x29f>
    1552: 06 14        	asl	$14                     ; 0x2014 <printf+0x29f>
    1554: c0 08        	cpy	#$8
    1556: d0 03        	bne	$155b <f256main+0xe17>
    1558: 4c 78 0b     	jmp	$b78 <f256main+0x434>
    155b: c0 0a        	cpy	#$a
    155d: d0 03        	bne	$1562 <f256main+0xe1e>
    155f: 4c 65 0b     	jmp	$b65 <f256main+0x421>
    1562: a5 2b        	lda	$2b                     ; 0x202b <printf+0x2b6>
    1564: 5a           	phy
    1565: a0 06        	ldy	#$6
    1567: 91 10        	sta	($10),y                 ; 0x2010 <printf+0x29b>
    1569: a5 2a        	lda	$2a                     ; 0x202a <printf+0x2b5>
    156b: 88           	dey
    156c: 91 10        	sta	($10),y                 ; 0x2010 <printf+0x29b>
    156e: 7a           	ply
    156f: c0 52        	cpy	#$52
    1571: d0 bb        	bne	$152e <f256main+0xdea>
    1573: 86 12        	stx	$12                     ; 0x2012 <printf+0x29d>
    1575: a5 36        	lda	$36                     ; 0x2036 <printf+0x2c1>
    1577: c9 04        	cmp	#$4
    1579: a6 2b        	ldx	$2b                     ; 0x202b <printf+0x2b6>
    157b: 48           	pha
    157c: 8a           	txa
    157d: a0 06        	ldy	#$6
    157f: 91 10        	sta	($10),y                 ; 0x2010 <printf+0x29b>
    1581: a6 2a        	ldx	$2a                     ; 0x202a <printf+0x2b5>
    1583: 8a           	txa
    1584: 88           	dey
    1585: 91 10        	sta	($10),y                 ; 0x2010 <printf+0x29b>
    1587: 68           	pla
    1588: a6 12        	ldx	$12                     ; 0x2012 <printf+0x29d>
    158a: 90 03        	bcc	$158f <f256main+0xe4b>
    158c: 4c 2e 15     	jmp	$152e <f256main+0xdea>
    158f: 48           	pha
    1590: a0 04        	ldy	#$4
    1592: b1 10        	lda	($10),y                 ; 0x2010 <printf+0x29b>
    1594: 85 13        	sta	$13                     ; 0x2013 <printf+0x29e>
    1596: 68           	pla
    1597: a6 12        	ldx	$12                     ; 0x2012 <printf+0x29d>
    1599: 86 2d        	stx	$2d                     ; 0x202d <printf+0x2b8>
    159b: 0a           	asl
    159c: aa           	tax
    159d: 7c 86 29     	jmp	($2986,x)               ; 0x2986 <__set_v+0x9>

000015a0 <bitmapLine>:
    15a0: 48           	pha
    15a1: 18           	clc
    15a2: a5 10        	lda	$10                     ; 0x2010 <printf+0x29b>
    15a4: 69 fe        	adc	#$fe
    15a6: 85 10        	sta	$10                     ; 0x2010 <printf+0x29b>
    15a8: a5 11        	lda	$11                     ; 0x2011 <printf+0x29c>
    15aa: 69 ff        	adc	#$ff
    15ac: 85 11        	sta	$11                     ; 0x2011 <printf+0x29c>
    15ae: 68           	pla
    15af: a4 24        	ldy	$24                     ; 0x2024 <printf+0x2af>
    15b1: 5a           	phy
    15b2: a4 25        	ldy	$25                     ; 0x2025 <printf+0x2b0>
    15b4: 5a           	phy
    15b5: a4 26        	ldy	$26                     ; 0x2026 <printf+0x2b1>
    15b7: 5a           	phy
    15b8: a4 27        	ldy	$27                     ; 0x2027 <printf+0x2b2>
    15ba: 5a           	phy
    15bb: 48           	pha
    15bc: a5 28        	lda	$28                     ; 0x2028 <printf+0x2b3>
    15be: a0 01        	ldy	#$1
    15c0: 91 10        	sta	($10),y                 ; 0x2010 <printf+0x29b>
    15c2: a5 29        	lda	$29                     ; 0x2029 <printf+0x2b4>
    15c4: 88           	dey
    15c5: 91 10        	sta	($10),y                 ; 0x2010 <printf+0x29b>
    15c7: 68           	pla
    15c8: 85 19        	sta	$19                     ; 0x2019 <printf+0x2a4>
    15ca: 86 18        	stx	$18                     ; 0x2018 <printf+0x2a3>
    15cc: a6 12        	ldx	$12                     ; 0x2012 <printf+0x29d>
    15ce: 86 24        	stx	$24                     ; 0x2024 <printf+0x2af>
    15d0: a5 14        	lda	$14                     ; 0x2014 <printf+0x29f>
    15d2: a4 15        	ldy	$15                     ; 0x2015 <printf+0x2a0>
    15d4: a6 0f        	ldx	$f                      ; 0x200f <printf+0x29a>
    15d6: 86 1e        	stx	$1e                     ; 0x201e <printf+0x2a9>
    15d8: 78           	sei
    15d9: a6 18        	ldx	$18                     ; 0x2018 <printf+0x2a3>
    15db: 86 22        	stx	$22                     ; 0x2022 <printf+0x2ad>
    15dd: 84 27        	sty	$27                     ; 0x2027 <printf+0x2b2>
    15df: 85 28        	sta	$28                     ; 0x2028 <printf+0x2b3>
    15e1: c4 18        	cpy	$18                     ; 0x2018 <printf+0x2a3>
    15e3: d0 1d        	bne	$1602 <bitmapLine+0x62>
    15e5: c5 19        	cmp	$19                     ; 0x2019 <printf+0x2a4>
    15e7: b0 1d        	bcs	$1606 <bitmapLine+0x66>
    15e9: 38           	sec
    15ea: a6 19        	ldx	$19                     ; 0x2019 <printf+0x2a4>
    15ec: 86 1f        	stx	$1f                     ; 0x201f <printf+0x2aa>
    15ee: a5 19        	lda	$19                     ; 0x2019 <printf+0x2a4>
    15f0: e5 28        	sbc	$28                     ; 0x2028 <printf+0x2b3>
    15f2: 85 1b        	sta	$1b                     ; 0x201b <printf+0x2a6>
    15f4: a5 18        	lda	$18                     ; 0x2018 <printf+0x2a3>
    15f6: e5 27        	sbc	$27                     ; 0x2027 <printf+0x2b2>
    15f8: a2 ff        	ldx	#$ff
    15fa: 86 12        	stx	$12                     ; 0x2012 <printf+0x29d>
    15fc: 86 23        	stx	$23                     ; 0x2023 <printf+0x2ae>
    15fe: 85 1a        	sta	$1a                     ; 0x201a <printf+0x2a5>
    1600: 80 18        	bra	$161a <bitmapLine+0x7a>
    1602: c4 18        	cpy	$18                     ; 0x2018 <printf+0x2a3>
    1604: 90 e3        	bcc	$15e9 <bitmapLine+0x49>
    1606: 38           	sec
    1607: a6 19        	ldx	$19                     ; 0x2019 <printf+0x2a4>
    1609: 86 1f        	stx	$1f                     ; 0x201f <printf+0x2aa>
    160b: e5 19        	sbc	$19                     ; 0x2019 <printf+0x2a4>
    160d: 85 1b        	sta	$1b                     ; 0x201b <printf+0x2a6>
    160f: 98           	tya
    1610: e5 22        	sbc	$22                     ; 0x2022 <printf+0x2ad>
    1612: a2 01        	ldx	#$1
    1614: 86 12        	stx	$12                     ; 0x2012 <printf+0x29d>
    1616: 85 1a        	sta	$1a                     ; 0x201a <printf+0x2a5>
    1618: 64 23        	stz	$23                     ; 0x2023 <printf+0x2ae>
    161a: a6 13        	ldx	$13                     ; 0x2013 <printf+0x29e>
    161c: 86 15        	stx	$15                     ; 0x2015 <printf+0x2a0>
    161e: a6 17        	ldx	$17                     ; 0x2017 <printf+0x2a2>
    1620: e4 13        	cpx	$13                     ; 0x2013 <printf+0x29e>
    1622: d0 25        	bne	$1649 <bitmapLine+0xa9>
    1624: a4 24        	ldy	$24                     ; 0x2024 <printf+0x2af>
    1626: 84 14        	sty	$14                     ; 0x2014 <printf+0x29f>
    1628: a4 16        	ldy	$16                     ; 0x2016 <printf+0x2a1>
    162a: c4 14        	cpy	$14                     ; 0x2014 <printf+0x29f>
    162c: b0 1f        	bcs	$164d <bitmapLine+0xad>
    162e: 38           	sec
    162f: a4 16        	ldy	$16                     ; 0x2016 <printf+0x2a1>
    1631: 84 14        	sty	$14                     ; 0x2014 <printf+0x29f>
    1633: a5 24        	lda	$24                     ; 0x2024 <printf+0x2af>
    1635: e5 14        	sbc	$14                     ; 0x2014 <printf+0x29f>
    1637: 85 1d        	sta	$1d                     ; 0x201d <printf+0x2a8>
    1639: 86 14        	stx	$14                     ; 0x2014 <printf+0x29f>
    163b: a5 13        	lda	$13                     ; 0x2013 <printf+0x29e>
    163d: e5 14        	sbc	$14                     ; 0x2014 <printf+0x29f>
    163f: a2 ff        	ldx	#$ff
    1641: 86 14        	stx	$14                     ; 0x2014 <printf+0x29f>
    1643: 86 15        	stx	$15                     ; 0x2015 <printf+0x2a0>
    1645: 85 1c        	sta	$1c                     ; 0x201c <printf+0x2a7>
    1647: 80 1a        	bra	$1663 <bitmapLine+0xc3>
    1649: e4 15        	cpx	$15                     ; 0x2015 <printf+0x2a0>
    164b: 90 e1        	bcc	$162e <bitmapLine+0x8e>
    164d: 38           	sec
    164e: a4 24        	ldy	$24                     ; 0x2024 <printf+0x2af>
    1650: 84 14        	sty	$14                     ; 0x2014 <printf+0x29f>
    1652: a5 16        	lda	$16                     ; 0x2016 <printf+0x2a1>
    1654: e5 14        	sbc	$14                     ; 0x2014 <printf+0x29f>
    1656: 85 1d        	sta	$1d                     ; 0x201d <printf+0x2a8>
    1658: 8a           	txa
    1659: e5 15        	sbc	$15                     ; 0x2015 <printf+0x2a0>
    165b: a2 01        	ldx	#$1
    165d: 86 14        	stx	$14                     ; 0x2014 <printf+0x29f>
    165f: 85 1c        	sta	$1c                     ; 0x201c <printf+0x2a7>
    1661: 64 15        	stz	$15                     ; 0x2015 <printf+0x2a0>
    1663: a6 1b        	ldx	$1b                     ; 0x201b <printf+0x2a6>
    1665: e4 1d        	cpx	$1d                     ; 0x201d <printf+0x2a8>
    1667: a5 1a        	lda	$1a                     ; 0x201a <printf+0x2a5>
    1669: e5 1c        	sbc	$1c                     ; 0x201c <printf+0x2a7>
    166b: 50 02        	bvc	$166f <bitmapLine+0xcf>
    166d: 49 80        	eor	#$80
    166f: a6 1b        	ldx	$1b                     ; 0x201b <printf+0x2a6>
    1671: 86 25        	stx	$25                     ; 0x2025 <printf+0x2b0>
    1673: 06 25        	asl	$25                     ; 0x2025 <printf+0x2b0>
    1675: a6 1a        	ldx	$1a                     ; 0x201a <printf+0x2a5>
    1677: 86 26        	stx	$26                     ; 0x2026 <printf+0x2b1>
    1679: 26 26        	rol	$26                     ; 0x2026 <printf+0x2b1>
    167b: a6 1d        	ldx	$1d                     ; 0x201d <printf+0x2a8>
    167d: 86 18        	stx	$18                     ; 0x2018 <printf+0x2a3>
    167f: 06 18        	asl	$18                     ; 0x2018 <printf+0x2a3>
    1681: a6 1c        	ldx	$1c                     ; 0x201c <printf+0x2a7>
    1683: 86 19        	stx	$19                     ; 0x2019 <printf+0x2a4>
    1685: 26 19        	rol	$19                     ; 0x2019 <printf+0x2a4>
    1687: aa           	tax
    1688: 10 1b        	bpl	$16a5 <bitmapLine+0x105>
    168a: a6 17        	ldx	$17                     ; 0x2017 <printf+0x2a2>
    168c: 86 1a        	stx	$1a                     ; 0x201a <printf+0x2a5>
    168e: a6 13        	ldx	$13                     ; 0x2013 <printf+0x29e>
    1690: e4 1a        	cpx	$1a                     ; 0x201a <printf+0x2a5>
    1692: d0 36        	bne	$16ca <bitmapLine+0x12a>
    1694: a4 16        	ldy	$16                     ; 0x2016 <printf+0x2a1>
    1696: 84 1a        	sty	$1a                     ; 0x201a <printf+0x2a5>
    1698: a5 1f        	lda	$1f                     ; 0x201f <printf+0x2aa>
    169a: a4 24        	ldy	$24                     ; 0x2024 <printf+0x2af>
    169c: c4 1a        	cpy	$1a                     ; 0x201a <printf+0x2a5>
    169e: d0 2c        	bne	$16cc <bitmapLine+0x12c>
    16a0: 85 15        	sta	$15                     ; 0x2015 <printf+0x2a0>
    16a2: 4c 03 19     	jmp	$1903 <bitmapLine+0x363>
    16a5: a4 22        	ldy	$22                     ; 0x2022 <printf+0x2ad>
    16a7: c4 27        	cpy	$27                     ; 0x2027 <printf+0x2b2>
    16a9: f0 03        	beq	$16ae <bitmapLine+0x10e>
    16ab: 4c e5 17     	jmp	$17e5 <bitmapLine+0x245>
    16ae: a6 1f        	ldx	$1f                     ; 0x201f <printf+0x2aa>
    16b0: e4 28        	cpx	$28                     ; 0x2028 <printf+0x2b3>
    16b2: f0 03        	beq	$16b7 <bitmapLine+0x117>
    16b4: 4c e7 17     	jmp	$17e7 <bitmapLine+0x247>
    16b7: a5 13        	lda	$13                     ; 0x2013 <printf+0x29e>
    16b9: a6 24        	ldx	$24                     ; 0x2024 <printf+0x2af>
    16bb: 86 16        	stx	$16                     ; 0x2016 <printf+0x2a1>
    16bd: 85 17        	sta	$17                     ; 0x2017 <printf+0x2a2>
    16bf: a6 28        	ldx	$28                     ; 0x2028 <printf+0x2b3>
    16c1: 86 15        	stx	$15                     ; 0x2015 <printf+0x2a0>
    16c3: a6 27        	ldx	$27                     ; 0x2027 <printf+0x2b2>
    16c5: 86 22        	stx	$22                     ; 0x2022 <printf+0x2ad>
    16c7: 4c 03 19     	jmp	$1903 <bitmapLine+0x363>
    16ca: a5 1f        	lda	$1f                     ; 0x201f <printf+0x2aa>
    16cc: 85 28        	sta	$28                     ; 0x2028 <printf+0x2b3>
    16ce: 38           	sec
    16cf: a5 25        	lda	$25                     ; 0x2025 <printf+0x2b0>
    16d1: e5 1d        	sbc	$1d                     ; 0x201d <printf+0x2a8>
    16d3: 85 1f        	sta	$1f                     ; 0x201f <printf+0x2aa>
    16d5: a5 26        	lda	$26                     ; 0x2026 <printf+0x2b1>
    16d7: e5 1c        	sbc	$1c                     ; 0x201c <printf+0x2a7>
    16d9: 85 27        	sta	$27                     ; 0x2027 <printf+0x2b2>
    16db: 86 13        	stx	$13                     ; 0x2013 <printf+0x29e>
    16dd: a6 28        	ldx	$28                     ; 0x2028 <printf+0x2b3>
    16df: 86 1d        	stx	$1d                     ; 0x201d <printf+0x2a8>
    16e1: a9 01        	lda	#$1
    16e3: 25 47        	and	$47                     ; 0x2047 <printf+0x2d2>
    16e5: 0a           	asl
    16e6: 0a           	asl
    16e7: aa           	tax
    16e8: b4 3b        	ldy	$3b,x                   ; 0x203b <printf+0x2c6>
    16ea: 84 1a        	sty	$1a                     ; 0x201a <printf+0x2a5>
    16ec: b4 3c        	ldy	$3c,x                   ; 0x203c <printf+0x2c7>
    16ee: 84 1b        	sty	$1b                     ; 0x201b <printf+0x2a6>
    16f0: b5 3d        	lda	$3d,x                   ; 0x203d <printf+0x2c8>
    16f2: aa           	tax
    16f3: 86 1c        	stx	$1c                     ; 0x201c <printf+0x2a7>
    16f5: a5 49        	lda	$49                     ; 0x2049 <printf+0x2d4>
    16f7: 29 01        	and	#$1
    16f9: a2 40        	ldx	#$40
    16fb: a0 01        	ldy	#$1
    16fd: c9 00        	cmp	#$0
    16ff: d0 04        	bne	$1705 <bitmapLine+0x165>
    1701: a2 00        	ldx	#$0
    1703: a0 00        	ldy	#$0
    1705: a5 24        	lda	$24                     ; 0x2024 <printf+0x2af>
    1707: 8d 00 de     	sta	$de00                   ; 0xde00 <end_block9+0xad54>
    170a: a5 13        	lda	$13                     ; 0x2013 <printf+0x29e>
    170c: 8d 01 de     	sta	$de01                   ; 0xde01 <end_block9+0xad55>
    170f: 8e 02 de     	stx	$de02                   ; 0xde02 <end_block9+0xad56>
    1712: 8c 03 de     	sty	$de03                   ; 0xde03 <end_block9+0xad57>
    1715: ae 10 de     	ldx	$de10                   ; 0xde10 <end_block9+0xad64>
    1718: 86 29        	stx	$29                     ; 0x2029 <printf+0x2b4>
    171a: ac 11 de     	ldy	$de11                   ; 0xde11 <end_block9+0xad65>
    171d: ad 12 de     	lda	$de12                   ; 0xde12 <end_block9+0xad66>
    1720: ae 13 de     	ldx	$de13                   ; 0xde13 <end_block9+0xad67>
    1723: 86 28        	stx	$28                     ; 0x2028 <printf+0x2b3>
    1725: a6 29        	ldx	$29                     ; 0x2029 <printf+0x2b4>
    1727: 8e 08 de     	stx	$de08                   ; 0xde08 <end_block9+0xad5c>
    172a: 8c 09 de     	sty	$de09                   ; 0xde09 <end_block9+0xad5d>
    172d: 8d 0a de     	sta	$de0a                   ; 0xde0a <end_block9+0xad5e>
    1730: a6 28        	ldx	$28                     ; 0x2028 <printf+0x2b3>
    1732: 8e 0b de     	stx	$de0b                   ; 0xde0b <end_block9+0xad5f>
    1735: a6 1d        	ldx	$1d                     ; 0x201d <printf+0x2a8>
    1737: 8e 0c de     	stx	$de0c                   ; 0xde0c <end_block9+0xad60>
    173a: a6 22        	ldx	$22                     ; 0x2022 <printf+0x2ad>
    173c: 8e 0d de     	stx	$de0d                   ; 0xde0d <end_block9+0xad61>
    173f: 9c 0e de     	stz	$de0e                   ; 0xde0e <end_block9+0xad62>
    1742: 9c 0f de     	stz	$de0f                   ; 0xde0f <end_block9+0xad63>
    1745: ad 18 de     	lda	$de18                   ; 0xde18 <end_block9+0xad6c>
    1748: ac 19 de     	ldy	$de19                   ; 0xde19 <end_block9+0xad6d>
    174b: ae 1a de     	ldx	$de1a                   ; 0xde1a <end_block9+0xad6e>
    174e: 86 28        	stx	$28                     ; 0x2028 <printf+0x2b3>
    1750: ae 1b de     	ldx	$de1b                   ; 0xde1b <end_block9+0xad6f>
    1753: 18           	clc
    1754: 65 1a        	adc	$1a                     ; 0x201a <printf+0x2a5>
    1756: aa           	tax
    1757: 98           	tya
    1758: 65 1b        	adc	$1b                     ; 0x201b <printf+0x2a6>
    175a: a8           	tay
    175b: a5 28        	lda	$28                     ; 0x2028 <printf+0x2b3>
    175d: 65 1c        	adc	$1c                     ; 0x201c <printf+0x2a7>
    175f: 84 1b        	sty	$1b                     ; 0x201b <printf+0x2a6>
    1761: 84 1a        	sty	$1a                     ; 0x201a <printf+0x2a5>
    1763: 06 1a        	asl	$1a                     ; 0x201a <printf+0x2a5>
    1765: 2a           	rol
    1766: 06 1a        	asl	$1a                     ; 0x201a <printf+0x2a5>
    1768: 2a           	rol
    1769: 06 1a        	asl	$1a                     ; 0x201a <printf+0x2a5>
    176b: 2a           	rol
    176c: 85 0f        	sta	$f                      ; 0x200f <printf+0x29a>
    176e: a5 48        	lda	$48                     ; 0x2048 <printf+0x2d3>
    1770: 4a           	lsr
    1771: a9 00        	lda	#$0
    1773: 6a           	ror
    1774: 10 04        	bpl	$177a <bitmapLine+0x1da>
    1776: a0 ff        	ldy	#$ff
    1778: 80 02        	bra	$177c <bitmapLine+0x1dc>
    177a: a0 00        	ldy	#$0
    177c: 0a           	asl
    177d: 98           	tya
    177e: 2a           	rol
    177f: a8           	tay
    1780: a5 1b        	lda	$1b                     ; 0x201b <printf+0x2a6>
    1782: 09 e0        	ora	#$e0
    1784: 86 1a        	stx	$1a                     ; 0x201a <printf+0x2a5>
    1786: 85 1b        	sta	$1b                     ; 0x201b <printf+0x2a6>
    1788: 98           	tya
    1789: 92 1a        	sta	($1a)                   ; 0x201a <printf+0x2a5>
    178b: a6 27        	ldx	$27                     ; 0x2027 <printf+0x2b2>
    178d: 30 1a        	bmi	$17a9 <bitmapLine+0x209>
    178f: a5 1d        	lda	$1d                     ; 0x201d <printf+0x2a8>
    1791: 18           	clc
    1792: 65 12        	adc	$12                     ; 0x2012 <printf+0x29d>
    1794: 85 28        	sta	$28                     ; 0x2028 <printf+0x2b3>
    1796: a5 22        	lda	$22                     ; 0x2022 <printf+0x2ad>
    1798: 65 23        	adc	$23                     ; 0x2023 <printf+0x2ae>
    179a: 85 22        	sta	$22                     ; 0x2022 <printf+0x2ad>
    179c: 38           	sec
    179d: a5 1f        	lda	$1f                     ; 0x201f <printf+0x2aa>
    179f: e5 18        	sbc	$18                     ; 0x2018 <printf+0x2a3>
    17a1: a8           	tay
    17a2: 8a           	txa
    17a3: e5 19        	sbc	$19                     ; 0x2019 <printf+0x2a4>
    17a5: aa           	tax
    17a6: 98           	tya
    17a7: 80 06        	bra	$17af <bitmapLine+0x20f>
    17a9: a4 1d        	ldy	$1d                     ; 0x201d <printf+0x2a8>
    17ab: 84 28        	sty	$28                     ; 0x2028 <printf+0x2b3>
    17ad: a5 1f        	lda	$1f                     ; 0x201f <printf+0x2aa>
    17af: 18           	clc
    17b0: 65 25        	adc	$25                     ; 0x2025 <printf+0x2b0>
    17b2: 85 1f        	sta	$1f                     ; 0x201f <printf+0x2aa>
    17b4: 8a           	txa
    17b5: 65 26        	adc	$26                     ; 0x2026 <printf+0x2b1>
    17b7: 85 27        	sta	$27                     ; 0x2027 <printf+0x2b2>
    17b9: a5 24        	lda	$24                     ; 0x2024 <printf+0x2af>
    17bb: 18           	clc
    17bc: 65 14        	adc	$14                     ; 0x2014 <printf+0x29f>
    17be: 85 1a        	sta	$1a                     ; 0x201a <printf+0x2a5>
    17c0: a5 13        	lda	$13                     ; 0x2013 <printf+0x29e>
    17c2: 65 15        	adc	$15                     ; 0x2015 <printf+0x2a0>
    17c4: 85 1b        	sta	$1b                     ; 0x201b <printf+0x2a6>
    17c6: a6 1a        	ldx	$1a                     ; 0x201a <printf+0x2a5>
    17c8: 86 24        	stx	$24                     ; 0x2024 <printf+0x2af>
    17ca: aa           	tax
    17cb: a4 17        	ldy	$17                     ; 0x2017 <printf+0x2a2>
    17cd: c4 1b        	cpy	$1b                     ; 0x201b <printf+0x2a6>
    17cf: f0 03        	beq	$17d4 <bitmapLine+0x234>
    17d1: 4c db 16     	jmp	$16db <bitmapLine+0x13b>
    17d4: a6 1a        	ldx	$1a                     ; 0x201a <printf+0x2a5>
    17d6: 86 24        	stx	$24                     ; 0x2024 <printf+0x2af>
    17d8: aa           	tax
    17d9: a4 16        	ldy	$16                     ; 0x2016 <printf+0x2a1>
    17db: c4 1a        	cpy	$1a                     ; 0x201a <printf+0x2a5>
    17dd: f0 03        	beq	$17e2 <bitmapLine+0x242>
    17df: 4c db 16     	jmp	$16db <bitmapLine+0x13b>
    17e2: 4c ff 18     	jmp	$18ff <bitmapLine+0x35f>
    17e5: a6 1f        	ldx	$1f                     ; 0x201f <printf+0x2aa>
    17e7: 38           	sec
    17e8: a5 18        	lda	$18                     ; 0x2018 <printf+0x2a3>
    17ea: e5 1b        	sbc	$1b                     ; 0x201b <printf+0x2a6>
    17ec: 85 16        	sta	$16                     ; 0x2016 <printf+0x2a1>
    17ee: a5 19        	lda	$19                     ; 0x2019 <printf+0x2a4>
    17f0: e5 1a        	sbc	$1a                     ; 0x201a <printf+0x2a5>
    17f2: 85 17        	sta	$17                     ; 0x2017 <printf+0x2a2>
    17f4: 84 1f        	sty	$1f                     ; 0x201f <printf+0x2aa>
    17f6: 86 1d        	stx	$1d                     ; 0x201d <printf+0x2a8>
    17f8: a9 01        	lda	#$1
    17fa: 25 47        	and	$47                     ; 0x2047 <printf+0x2d2>
    17fc: 0a           	asl
    17fd: 0a           	asl
    17fe: aa           	tax
    17ff: b4 3b        	ldy	$3b,x                   ; 0x203b <printf+0x2c6>
    1801: 84 1a        	sty	$1a                     ; 0x201a <printf+0x2a5>
    1803: b4 3c        	ldy	$3c,x                   ; 0x203c <printf+0x2c7>
    1805: 84 1b        	sty	$1b                     ; 0x201b <printf+0x2a6>
    1807: b5 3d        	lda	$3d,x                   ; 0x203d <printf+0x2c8>
    1809: aa           	tax
    180a: 86 1c        	stx	$1c                     ; 0x201c <printf+0x2a7>
    180c: a5 49        	lda	$49                     ; 0x2049 <printf+0x2d4>
    180e: 29 01        	and	#$1
    1810: a2 40        	ldx	#$40
    1812: a0 01        	ldy	#$1
    1814: c9 00        	cmp	#$0
    1816: d0 04        	bne	$181c <bitmapLine+0x27c>
    1818: a2 00        	ldx	#$0
    181a: a0 00        	ldy	#$0
    181c: a5 24        	lda	$24                     ; 0x2024 <printf+0x2af>
    181e: 8d 00 de     	sta	$de00                   ; 0xde00 <end_block9+0xad54>
    1821: a5 13        	lda	$13                     ; 0x2013 <printf+0x29e>
    1823: 8d 01 de     	sta	$de01                   ; 0xde01 <end_block9+0xad55>
    1826: 8e 02 de     	stx	$de02                   ; 0xde02 <end_block9+0xad56>
    1829: 8c 03 de     	sty	$de03                   ; 0xde03 <end_block9+0xad57>
    182c: ae 10 de     	ldx	$de10                   ; 0xde10 <end_block9+0xad64>
    182f: 86 29        	stx	$29                     ; 0x2029 <printf+0x2b4>
    1831: ac 11 de     	ldy	$de11                   ; 0xde11 <end_block9+0xad65>
    1834: ad 12 de     	lda	$de12                   ; 0xde12 <end_block9+0xad66>
    1837: ae 13 de     	ldx	$de13                   ; 0xde13 <end_block9+0xad67>
    183a: 86 22        	stx	$22                     ; 0x2022 <printf+0x2ad>
    183c: a6 29        	ldx	$29                     ; 0x2029 <printf+0x2b4>
    183e: 8e 08 de     	stx	$de08                   ; 0xde08 <end_block9+0xad5c>
    1841: 8c 09 de     	sty	$de09                   ; 0xde09 <end_block9+0xad5d>
    1844: 8d 0a de     	sta	$de0a                   ; 0xde0a <end_block9+0xad5e>
    1847: a6 22        	ldx	$22                     ; 0x2022 <printf+0x2ad>
    1849: 8e 0b de     	stx	$de0b                   ; 0xde0b <end_block9+0xad5f>
    184c: a6 1d        	ldx	$1d                     ; 0x201d <printf+0x2a8>
    184e: 8e 0c de     	stx	$de0c                   ; 0xde0c <end_block9+0xad60>
    1851: a6 1f        	ldx	$1f                     ; 0x201f <printf+0x2aa>
    1853: 8e 0d de     	stx	$de0d                   ; 0xde0d <end_block9+0xad61>
    1856: 9c 0e de     	stz	$de0e                   ; 0xde0e <end_block9+0xad62>
    1859: 9c 0f de     	stz	$de0f                   ; 0xde0f <end_block9+0xad63>
    185c: ad 18 de     	lda	$de18                   ; 0xde18 <end_block9+0xad6c>
    185f: ae 19 de     	ldx	$de19                   ; 0xde19 <end_block9+0xad6d>
    1862: 86 22        	stx	$22                     ; 0x2022 <printf+0x2ad>
    1864: ae 1a de     	ldx	$de1a                   ; 0xde1a <end_block9+0xad6e>
    1867: 86 29        	stx	$29                     ; 0x2029 <printf+0x2b4>
    1869: ae 1b de     	ldx	$de1b                   ; 0xde1b <end_block9+0xad6f>
    186c: 18           	clc
    186d: 65 1a        	adc	$1a                     ; 0x201a <printf+0x2a5>
    186f: aa           	tax
    1870: a5 22        	lda	$22                     ; 0x2022 <printf+0x2ad>
    1872: 65 1b        	adc	$1b                     ; 0x201b <printf+0x2a6>
    1874: a8           	tay
    1875: a5 29        	lda	$29                     ; 0x2029 <printf+0x2b4>
    1877: 65 1c        	adc	$1c                     ; 0x201c <printf+0x2a7>
    1879: 84 1b        	sty	$1b                     ; 0x201b <printf+0x2a6>
    187b: 84 1a        	sty	$1a                     ; 0x201a <printf+0x2a5>
    187d: 06 1a        	asl	$1a                     ; 0x201a <printf+0x2a5>
    187f: 2a           	rol
    1880: 06 1a        	asl	$1a                     ; 0x201a <printf+0x2a5>
    1882: 2a           	rol
    1883: 06 1a        	asl	$1a                     ; 0x201a <printf+0x2a5>
    1885: 2a           	rol
    1886: 85 0f        	sta	$f                      ; 0x200f <printf+0x29a>
    1888: a5 48        	lda	$48                     ; 0x2048 <printf+0x2d3>
    188a: 4a           	lsr
    188b: a9 00        	lda	#$0
    188d: 6a           	ror
    188e: 10 04        	bpl	$1894 <bitmapLine+0x2f4>
    1890: a0 ff        	ldy	#$ff
    1892: 80 02        	bra	$1896 <bitmapLine+0x2f6>
    1894: a0 00        	ldy	#$0
    1896: 0a           	asl
    1897: 98           	tya
    1898: 2a           	rol
    1899: a8           	tay
    189a: a5 1b        	lda	$1b                     ; 0x201b <printf+0x2a6>
    189c: 09 e0        	ora	#$e0
    189e: 86 1a        	stx	$1a                     ; 0x201a <printf+0x2a5>
    18a0: 85 1b        	sta	$1b                     ; 0x201b <printf+0x2a6>
    18a2: 98           	tya
    18a3: 92 1a        	sta	($1a)                   ; 0x201a <printf+0x2a5>
    18a5: a6 17        	ldx	$17                     ; 0x2017 <printf+0x2a2>
    18a7: 30 1a        	bmi	$18c3 <bitmapLine+0x323>
    18a9: a5 24        	lda	$24                     ; 0x2024 <printf+0x2af>
    18ab: 18           	clc
    18ac: 65 14        	adc	$14                     ; 0x2014 <printf+0x29f>
    18ae: 85 24        	sta	$24                     ; 0x2024 <printf+0x2af>
    18b0: a5 13        	lda	$13                     ; 0x2013 <printf+0x29e>
    18b2: 65 15        	adc	$15                     ; 0x2015 <printf+0x2a0>
    18b4: 85 13        	sta	$13                     ; 0x2013 <printf+0x29e>
    18b6: 38           	sec
    18b7: a5 16        	lda	$16                     ; 0x2016 <printf+0x2a1>
    18b9: e5 25        	sbc	$25                     ; 0x2025 <printf+0x2b0>
    18bb: a8           	tay
    18bc: 8a           	txa
    18bd: e5 26        	sbc	$26                     ; 0x2026 <printf+0x2b1>
    18bf: aa           	tax
    18c0: 98           	tya
    18c1: 80 02        	bra	$18c5 <bitmapLine+0x325>
    18c3: a5 16        	lda	$16                     ; 0x2016 <printf+0x2a1>
    18c5: 18           	clc
    18c6: 65 18        	adc	$18                     ; 0x2018 <printf+0x2a3>
    18c8: 85 16        	sta	$16                     ; 0x2016 <printf+0x2a1>
    18ca: 8a           	txa
    18cb: 65 19        	adc	$19                     ; 0x2019 <printf+0x2a4>
    18cd: 85 17        	sta	$17                     ; 0x2017 <printf+0x2a2>
    18cf: a5 1d        	lda	$1d                     ; 0x201d <printf+0x2a8>
    18d1: 18           	clc
    18d2: 65 12        	adc	$12                     ; 0x2012 <printf+0x29d>
    18d4: 85 1a        	sta	$1a                     ; 0x201a <printf+0x2a5>
    18d6: a5 1f        	lda	$1f                     ; 0x201f <printf+0x2aa>
    18d8: 65 23        	adc	$23                     ; 0x2023 <printf+0x2ae>
    18da: 85 1b        	sta	$1b                     ; 0x201b <printf+0x2a6>
    18dc: a6 1a        	ldx	$1a                     ; 0x201a <printf+0x2a5>
    18de: a8           	tay
    18df: a5 27        	lda	$27                     ; 0x2027 <printf+0x2b2>
    18e1: c5 1b        	cmp	$1b                     ; 0x201b <printf+0x2a6>
    18e3: f0 03        	beq	$18e8 <bitmapLine+0x348>
    18e5: 4c f4 17     	jmp	$17f4 <bitmapLine+0x254>
    18e8: 85 22        	sta	$22                     ; 0x2022 <printf+0x2ad>
    18ea: a6 1a        	ldx	$1a                     ; 0x201a <printf+0x2a5>
    18ec: a4 1b        	ldy	$1b                     ; 0x201b <printf+0x2a6>
    18ee: a5 28        	lda	$28                     ; 0x2028 <printf+0x2b3>
    18f0: c5 1a        	cmp	$1a                     ; 0x201a <printf+0x2a5>
    18f2: f0 03        	beq	$18f7 <bitmapLine+0x357>
    18f4: 4c f4 17     	jmp	$17f4 <bitmapLine+0x254>
    18f7: a6 24        	ldx	$24                     ; 0x2024 <printf+0x2af>
    18f9: 86 16        	stx	$16                     ; 0x2016 <printf+0x2a1>
    18fb: a6 13        	ldx	$13                     ; 0x2013 <printf+0x29e>
    18fd: 86 17        	stx	$17                     ; 0x2017 <printf+0x2a2>
    18ff: a6 28        	ldx	$28                     ; 0x2028 <printf+0x2b3>
    1901: 86 15        	stx	$15                     ; 0x2015 <printf+0x2a0>
    1903: a2 01        	ldx	#$1
    1905: 8a           	txa
    1906: 25 47        	and	$47                     ; 0x2047 <printf+0x2d2>
    1908: 0a           	asl
    1909: 0a           	asl
    190a: a8           	tay
    190b: b9 3b 00     	lda	$3b,y                   ; 0x3b <_BITMAP_BASE>
    190e: 85 12        	sta	$12                     ; 0x2012 <printf+0x29d>
    1910: b9 3c 00     	lda	$3c,y                   ; 0x3c <_BITMAP_BASE+0x1>
    1913: 85 13        	sta	$13                     ; 0x2013 <printf+0x29e>
    1915: b9 3d 00     	lda	$3d,y                   ; 0x3d <_BITMAP_BASE+0x2>
    1918: a8           	tay
    1919: 84 14        	sty	$14                     ; 0x2014 <printf+0x29f>
    191b: a5 49        	lda	$49                     ; 0x2049 <printf+0x2d4>
    191d: 29 01        	and	#$1
    191f: a0 40        	ldy	#$40
    1921: c9 00        	cmp	#$0
    1923: d0 04        	bne	$1929 <bitmapLine+0x389>
    1925: a0 00        	ldy	#$0
    1927: a2 00        	ldx	#$0
    1929: a5 16        	lda	$16                     ; 0x2016 <printf+0x2a1>
    192b: 8d 00 de     	sta	$de00                   ; 0xde00 <end_block9+0xad54>
    192e: a5 17        	lda	$17                     ; 0x2017 <printf+0x2a2>
    1930: 8d 01 de     	sta	$de01                   ; 0xde01 <end_block9+0xad55>
    1933: 8c 02 de     	sty	$de02                   ; 0xde02 <end_block9+0xad56>
    1936: 8e 03 de     	stx	$de03                   ; 0xde03 <end_block9+0xad57>
    1939: ae 10 de     	ldx	$de10                   ; 0xde10 <end_block9+0xad64>
    193c: ac 11 de     	ldy	$de11                   ; 0xde11 <end_block9+0xad65>
    193f: 84 17        	sty	$17                     ; 0x2017 <printf+0x2a2>
    1941: ad 12 de     	lda	$de12                   ; 0xde12 <end_block9+0xad66>
    1944: ac 13 de     	ldy	$de13                   ; 0xde13 <end_block9+0xad67>
    1947: 8e 08 de     	stx	$de08                   ; 0xde08 <end_block9+0xad5c>
    194a: a6 17        	ldx	$17                     ; 0x2017 <printf+0x2a2>
    194c: 8e 09 de     	stx	$de09                   ; 0xde09 <end_block9+0xad5d>
    194f: 8d 0a de     	sta	$de0a                   ; 0xde0a <end_block9+0xad5e>
    1952: 8c 0b de     	sty	$de0b                   ; 0xde0b <end_block9+0xad5f>
    1955: a6 15        	ldx	$15                     ; 0x2015 <printf+0x2a0>
    1957: 8e 0c de     	stx	$de0c                   ; 0xde0c <end_block9+0xad60>
    195a: a6 22        	ldx	$22                     ; 0x2022 <printf+0x2ad>
    195c: 8e 0d de     	stx	$de0d                   ; 0xde0d <end_block9+0xad61>
    195f: 9c 0e de     	stz	$de0e                   ; 0xde0e <end_block9+0xad62>
    1962: 9c 0f de     	stz	$de0f                   ; 0xde0f <end_block9+0xad63>
    1965: ad 18 de     	lda	$de18                   ; 0xde18 <end_block9+0xad6c>
    1968: ae 19 de     	ldx	$de19                   ; 0xde19 <end_block9+0xad6d>
    196b: 86 15        	stx	$15                     ; 0x2015 <printf+0x2a0>
    196d: ae 1a de     	ldx	$de1a                   ; 0xde1a <end_block9+0xad6e>
    1970: 86 16        	stx	$16                     ; 0x2016 <printf+0x2a1>
    1972: ae 1b de     	ldx	$de1b                   ; 0xde1b <end_block9+0xad6f>
    1975: 18           	clc
    1976: 65 12        	adc	$12                     ; 0x2012 <printf+0x29d>
    1978: aa           	tax
    1979: a5 15        	lda	$15                     ; 0x2015 <printf+0x2a0>
    197b: 65 13        	adc	$13                     ; 0x2013 <printf+0x29e>
    197d: a8           	tay
    197e: a5 16        	lda	$16                     ; 0x2016 <printf+0x2a1>
    1980: 65 14        	adc	$14                     ; 0x2014 <printf+0x29f>
    1982: 84 13        	sty	$13                     ; 0x2013 <printf+0x29e>
    1984: 84 12        	sty	$12                     ; 0x2012 <printf+0x29d>
    1986: 06 12        	asl	$12                     ; 0x2012 <printf+0x29d>
    1988: 2a           	rol
    1989: 06 12        	asl	$12                     ; 0x2012 <printf+0x29d>
    198b: 2a           	rol
    198c: 06 12        	asl	$12                     ; 0x2012 <printf+0x29d>
    198e: 2a           	rol
    198f: 85 0f        	sta	$f                      ; 0x200f <printf+0x29a>
    1991: a5 48        	lda	$48                     ; 0x2048 <printf+0x2d3>
    1993: 4a           	lsr
    1994: a9 00        	lda	#$0
    1996: 6a           	ror
    1997: 10 04        	bpl	$199d <bitmapLine+0x3fd>
    1999: a0 ff        	ldy	#$ff
    199b: 80 02        	bra	$199f <bitmapLine+0x3ff>
    199d: a0 00        	ldy	#$0
    199f: 0a           	asl
    19a0: 98           	tya
    19a1: 2a           	rol
    19a2: a8           	tay
    19a3: a5 13        	lda	$13                     ; 0x2013 <printf+0x29e>
    19a5: 09 e0        	ora	#$e0
    19a7: 86 12        	stx	$12                     ; 0x2012 <printf+0x29d>
    19a9: 85 13        	sta	$13                     ; 0x2013 <printf+0x29e>
    19ab: 98           	tya
    19ac: 92 12        	sta	($12)                   ; 0x2012 <printf+0x29d>
    19ae: a6 1e        	ldx	$1e                     ; 0x201e <printf+0x2a9>
    19b0: 86 0f        	stx	$f                      ; 0x200f <printf+0x29a>
    19b2: 58           	cli
    19b3: a0 00        	ldy	#$0
    19b5: b1 10        	lda	($10),y                 ; 0x2010 <printf+0x29b>
    19b7: 85 29        	sta	$29                     ; 0x2029 <printf+0x2b4>
    19b9: c8           	iny
    19ba: b1 10        	lda	($10),y                 ; 0x2010 <printf+0x29b>
    19bc: 85 28        	sta	$28                     ; 0x2028 <printf+0x2b3>
    19be: fa           	plx
    19bf: 86 27        	stx	$27                     ; 0x2027 <printf+0x2b2>
    19c1: fa           	plx
    19c2: 86 26        	stx	$26                     ; 0x2026 <printf+0x2b1>
    19c4: fa           	plx
    19c5: 86 25        	stx	$25                     ; 0x2025 <printf+0x2b0>
    19c7: fa           	plx
    19c8: 86 24        	stx	$24                     ; 0x2024 <printf+0x2af>
    19ca: 18           	clc
    19cb: a5 10        	lda	$10                     ; 0x2010 <printf+0x29b>
    19cd: 69 02        	adc	#$2
    19cf: 85 10        	sta	$10                     ; 0x2010 <printf+0x29b>
    19d1: a5 11        	lda	$11                     ; 0x2011 <printf+0x29c>
    19d3: 69 00        	adc	#$0
    19d5: 85 11        	sta	$11                     ; 0x2011 <printf+0x29c>
    19d7: 60           	rts

000019d8 <__putchar>:
    19d8: 85 8d        	sta	$8d                     ; 0x208d <printf+0x318>
    19da: a6 01        	ldx	$1                      ; 0x2001 <printf+0x28c>
    19dc: 86 22        	stx	$22                     ; 0x2022 <printf+0x2ad>
    19de: a6 3a        	ldx	$3a                     ; 0x203a <printf+0x2c5>
    19e0: a0 50        	ldy	#$50
    19e2: 8c 00 de     	sty	$de00                   ; 0xde00 <end_block9+0xad54>
    19e5: 9c 01 de     	stz	$de01                   ; 0xde01 <end_block9+0xad55>
    19e8: 8e 02 de     	stx	$de02                   ; 0xde02 <end_block9+0xad56>
    19eb: 9c 03 de     	stz	$de03                   ; 0xde03 <end_block9+0xad57>
    19ee: ae 10 de     	ldx	$de10                   ; 0xde10 <end_block9+0xad64>
    19f1: ac 11 de     	ldy	$de11                   ; 0xde11 <end_block9+0xad65>
    19f4: 84 13        	sty	$13                     ; 0x2013 <printf+0x29e>
    19f6: ad 12 de     	lda	$de12                   ; 0xde12 <end_block9+0xad66>
    19f9: ac 13 de     	ldy	$de13                   ; 0xde13 <end_block9+0xad67>
    19fc: 84 1a        	sty	$1a                     ; 0x201a <printf+0x2a5>
    19fe: 9c 08 de     	stz	$de08                   ; 0xde08 <end_block9+0xad5c>
    1a01: a0 c0        	ldy	#$c0
    1a03: 8c 09 de     	sty	$de09                   ; 0xde09 <end_block9+0xad5d>
    1a06: 9c 0a de     	stz	$de0a                   ; 0xde0a <end_block9+0xad5e>
    1a09: 9c 0b de     	stz	$de0b                   ; 0xde0b <end_block9+0xad5f>
    1a0c: 8e 0c de     	stx	$de0c                   ; 0xde0c <end_block9+0xad60>
    1a0f: 64 12        	stz	$12                     ; 0x2012 <printf+0x29d>
    1a11: a2 00        	ldx	#$0
    1a13: 86 14        	stx	$14                     ; 0x2014 <printf+0x29f>
    1a15: a2 c0        	ldx	#$c0
    1a17: 86 15        	stx	$15                     ; 0x2015 <printf+0x2a0>
    1a19: a2 11        	ldx	#$11
    1a1b: 86 16        	stx	$16                     ; 0x2016 <printf+0x2a1>
    1a1d: a2 c9        	ldx	#$c9
    1a1f: 86 17        	stx	$17                     ; 0x2017 <printf+0x2a2>
    1a21: a2 10        	ldx	#$10
    1a23: 86 18        	stx	$18                     ; 0x2018 <printf+0x2a3>
    1a25: a2 c9        	ldx	#$c9
    1a27: 86 19        	stx	$19                     ; 0x2019 <printf+0x2a4>
    1a29: a6 13        	ldx	$13                     ; 0x2013 <printf+0x29e>
    1a2b: 8e 0d de     	stx	$de0d                   ; 0xde0d <end_block9+0xad61>
    1a2e: 8d 0e de     	sta	$de0e                   ; 0xde0e <end_block9+0xad62>
    1a31: a6 1a        	ldx	$1a                     ; 0x201a <printf+0x2a5>
    1a33: 8e 0f de     	stx	$de0f                   ; 0xde0f <end_block9+0xad63>
    1a36: ac 18 de     	ldy	$de18                   ; 0xde18 <end_block9+0xad6c>
    1a39: ad 19 de     	lda	$de19                   ; 0xde19 <end_block9+0xad6d>
    1a3c: ae 1a de     	ldx	$de1a                   ; 0xde1a <end_block9+0xad6e>
    1a3f: ae 1b de     	ldx	$de1b                   ; 0xde1b <end_block9+0xad6f>
    1a42: 84 1a        	sty	$1a                     ; 0x201a <printf+0x2a5>
    1a44: 85 1b        	sta	$1b                     ; 0x201b <printf+0x2a6>
    1a46: 64 13        	stz	$13                     ; 0x2013 <printf+0x29e>
    1a48: 80 13        	bra	$1a5d <__putchar+0x85>
    1a4a: a5 1a        	lda	$1a                     ; 0x201a <printf+0x2a5>
    1a4c: 18           	clc
    1a4d: 69 50        	adc	#$50
    1a4f: 85 1a        	sta	$1a                     ; 0x201a <printf+0x2a5>
    1a51: a5 1b        	lda	$1b                     ; 0x201b <printf+0x2a6>
    1a53: 69 00        	adc	#$0
    1a55: 85 1b        	sta	$1b                     ; 0x201b <printf+0x2a6>
    1a57: e6 12        	inc	$12                     ; 0x2012 <printf+0x29d>
    1a59: d0 02        	bne	$1a5d <__putchar+0x85>
    1a5b: e6 13        	inc	$13                     ; 0x2013 <printf+0x29e>
    1a5d: a9 8d        	lda	#$8d
    1a5f: 18           	clc
    1a60: 65 12        	adc	$12                     ; 0x2012 <printf+0x29d>
    1a62: 85 1c        	sta	$1c                     ; 0x201c <printf+0x2a7>
    1a64: a9 00        	lda	#$0
    1a66: 65 13        	adc	$13                     ; 0x2013 <printf+0x29e>
    1a68: 85 1d        	sta	$1d                     ; 0x201d <printf+0x2a8>
    1a6a: b2 1c        	lda	($1c)                   ; 0x201c <printf+0x2a7>
    1a6c: c9 0a        	cmp	#$a
    1a6e: f0 26        	beq	$1a96 <__putchar+0xbe>
    1a70: c9 0d        	cmp	#$d
    1a72: f0 22        	beq	$1a96 <__putchar+0xbe>
    1a74: aa           	tax
    1a75: d0 03        	bne	$1a7a <__putchar+0xa2>
    1a77: 4c 7b 1b     	jmp	$1b7b <__putchar+0x1a3>
    1a7a: a2 03        	ldx	#$3
    1a7c: 86 01        	stx	$1                      ; 0x2001 <printf+0x28c>
    1a7e: a4 39        	ldy	$39                     ; 0x2039 <printf+0x2c4>
    1a80: a9 f0        	lda	#$f0
    1a82: 91 1a        	sta	($1a),y                 ; 0x201a <printf+0x2a5>
    1a84: ca           	dex
    1a85: 86 01        	stx	$1                      ; 0x2001 <printf+0x28c>
    1a87: b2 1c        	lda	($1c)                   ; 0x201c <printf+0x2a7>
    1a89: a4 39        	ldy	$39                     ; 0x2039 <printf+0x2c4>
    1a8b: 91 1a        	sta	($1a),y                 ; 0x201a <printf+0x2a5>
    1a8d: a6 39        	ldx	$39                     ; 0x2039 <printf+0x2c4>
    1a8f: e8           	inx
    1a90: e6 39        	inc	$39                     ; 0x2039 <printf+0x2c4>
    1a92: e0 50        	cpx	#$50
    1a94: d0 c1        	bne	$1a57 <__putchar+0x7f>
    1a96: 64 39        	stz	$39                     ; 0x2039 <printf+0x2c4>
    1a98: a6 3a        	ldx	$3a                     ; 0x203a <printf+0x2c5>
    1a9a: e8           	inx
    1a9b: e6 3a        	inc	$3a                     ; 0x203a <printf+0x2c5>
    1a9d: e0 1e        	cpx	#$1e
    1a9f: f0 03        	beq	$1aa4 <__putchar+0xcc>
    1aa1: 4c 4a 1a     	jmp	$1a4a <__putchar+0x72>
    1aa4: a2 03        	ldx	#$3
    1aa6: 86 01        	stx	$1                      ; 0x2001 <printf+0x28c>
    1aa8: a2 01        	ldx	#$1
    1aaa: 86 1a        	stx	$1a                     ; 0x201a <printf+0x2a5>
    1aac: a2 09        	ldx	#$9
    1aae: a0 10        	ldy	#$10
    1ab0: a9 00        	lda	#$0
    1ab2: 85 1c        	sta	$1c                     ; 0x201c <printf+0x2a7>
    1ab4: a9 c0        	lda	#$c0
    1ab6: 85 1d        	sta	$1d                     ; 0x201d <printf+0x2a8>
    1ab8: 84 1b        	sty	$1b                     ; 0x201b <printf+0x2a6>
    1aba: a0 50        	ldy	#$50
    1abc: b1 1c        	lda	($1c),y                 ; 0x201c <printf+0x2a7>
    1abe: 92 1c        	sta	($1c)                   ; 0x201c <printf+0x2a7>
    1ac0: a9 ff        	lda	#$ff
    1ac2: c6 1b        	dec	$1b                     ; 0x201b <printf+0x2a6>
    1ac4: c5 1b        	cmp	$1b                     ; 0x201b <printf+0x2a6>
    1ac6: d0 01        	bne	$1ac9 <__putchar+0xf1>
    1ac8: ca           	dex
    1ac9: e6 1c        	inc	$1c                     ; 0x201c <printf+0x2a7>
    1acb: d0 02        	bne	$1acf <__putchar+0xf7>
    1acd: e6 1d        	inc	$1d                     ; 0x201d <printf+0x2a8>
    1acf: 8a           	txa
    1ad0: d0 ea        	bne	$1abc <__putchar+0xe4>
    1ad2: a5 1b        	lda	$1b                     ; 0x201b <printf+0x2a6>
    1ad4: d0 e6        	bne	$1abc <__putchar+0xe4>
    1ad6: a2 02        	ldx	#$2
    1ad8: 86 01        	stx	$1                      ; 0x2001 <printf+0x28c>
    1ada: a2 00        	ldx	#$0
    1adc: a5 1a        	lda	$1a                     ; 0x201a <printf+0x2a5>
    1ade: d0 ca        	bne	$1aaa <__putchar+0xd2>
    1ae0: a2 03        	ldx	#$3
    1ae2: 86 01        	stx	$1                      ; 0x2001 <printf+0x28c>
    1ae4: a2 50        	ldx	#$50
    1ae6: a0 11        	ldy	#$11
    1ae8: 84 1a        	sty	$1a                     ; 0x201a <printf+0x2a5>
    1aea: a0 c9        	ldy	#$c9
    1aec: 84 1b        	sty	$1b                     ; 0x201b <printf+0x2a6>
    1aee: a0 10        	ldy	#$10
    1af0: 84 1c        	sty	$1c                     ; 0x201c <printf+0x2a7>
    1af2: a0 c9        	ldy	#$c9
    1af4: 84 1d        	sty	$1d                     ; 0x201d <printf+0x2a8>
    1af6: a9 f0        	lda	#$f0
    1af8: a4 1a        	ldy	$1a                     ; 0x201a <printf+0x2a5>
    1afa: 84 1e        	sty	$1e                     ; 0x201e <printf+0x2a9>
    1afc: a4 1b        	ldy	$1b                     ; 0x201b <printf+0x2a6>
    1afe: 84 1f        	sty	$1f                     ; 0x201f <printf+0x2aa>
    1b00: 92 1c        	sta	($1c)                   ; 0x201c <printf+0x2a7>
    1b02: e6 1a        	inc	$1a                     ; 0x201a <printf+0x2a5>
    1b04: d0 02        	bne	$1b08 <__putchar+0x130>
    1b06: e6 1b        	inc	$1b                     ; 0x201b <printf+0x2a6>
    1b08: ca           	dex
    1b09: a4 1e        	ldy	$1e                     ; 0x201e <printf+0x2a9>
    1b0b: 84 1c        	sty	$1c                     ; 0x201c <printf+0x2a7>
    1b0d: a4 1f        	ldy	$1f                     ; 0x201f <printf+0x2aa>
    1b0f: 84 1d        	sty	$1d                     ; 0x201d <printf+0x2a8>
    1b11: e0 00        	cpx	#$0
    1b13: d0 e3        	bne	$1af8 <__putchar+0x120>
    1b15: a2 02        	ldx	#$2
    1b17: 86 01        	stx	$1                      ; 0x2001 <printf+0x28c>
    1b19: a2 50        	ldx	#$50
    1b1b: a0 11        	ldy	#$11
    1b1d: 84 1a        	sty	$1a                     ; 0x201a <printf+0x2a5>
    1b1f: a0 c9        	ldy	#$c9
    1b21: 84 1b        	sty	$1b                     ; 0x201b <printf+0x2a6>
    1b23: a0 10        	ldy	#$10
    1b25: 84 1c        	sty	$1c                     ; 0x201c <printf+0x2a7>
    1b27: a0 c9        	ldy	#$c9
    1b29: 84 1d        	sty	$1d                     ; 0x201d <printf+0x2a8>
    1b2b: a9 20        	lda	#$20
    1b2d: a4 1a        	ldy	$1a                     ; 0x201a <printf+0x2a5>
    1b2f: 84 1e        	sty	$1e                     ; 0x201e <printf+0x2a9>
    1b31: a4 1b        	ldy	$1b                     ; 0x201b <printf+0x2a6>
    1b33: 84 1f        	sty	$1f                     ; 0x201f <printf+0x2aa>
    1b35: 92 1c        	sta	($1c)                   ; 0x201c <printf+0x2a7>
    1b37: e6 1a        	inc	$1a                     ; 0x201a <printf+0x2a5>
    1b39: d0 02        	bne	$1b3d <__putchar+0x165>
    1b3b: e6 1b        	inc	$1b                     ; 0x201b <printf+0x2a6>
    1b3d: ca           	dex
    1b3e: a4 1e        	ldy	$1e                     ; 0x201e <printf+0x2a9>
    1b40: 84 1c        	sty	$1c                     ; 0x201c <printf+0x2a7>
    1b42: a4 1f        	ldy	$1f                     ; 0x201f <printf+0x2aa>
    1b44: 84 1d        	sty	$1d                     ; 0x201d <printf+0x2a8>
    1b46: e0 00        	cpx	#$0
    1b48: d0 e3        	bne	$1b2d <__putchar+0x155>
    1b4a: c6 3a        	dec	$3a                     ; 0x203a <printf+0x2c5>
    1b4c: 9c 08 de     	stz	$de08                   ; 0xde08 <end_block9+0xad5c>
    1b4f: a2 c0        	ldx	#$c0
    1b51: 8e 09 de     	stx	$de09                   ; 0xde09 <end_block9+0xad5d>
    1b54: 9c 0a de     	stz	$de0a                   ; 0xde0a <end_block9+0xad5e>
    1b57: 9c 0b de     	stz	$de0b                   ; 0xde0b <end_block9+0xad5f>
    1b5a: a2 1d        	ldx	#$1d
    1b5c: 8e 0c de     	stx	$de0c                   ; 0xde0c <end_block9+0xad60>
    1b5f: 9c 0d de     	stz	$de0d                   ; 0xde0d <end_block9+0xad61>
    1b62: 9c 0e de     	stz	$de0e                   ; 0xde0e <end_block9+0xad62>
    1b65: 9c 0f de     	stz	$de0f                   ; 0xde0f <end_block9+0xad63>
    1b68: ae 18 de     	ldx	$de18                   ; 0xde18 <end_block9+0xad6c>
    1b6b: ac 19 de     	ldy	$de19                   ; 0xde19 <end_block9+0xad6d>
    1b6e: ad 1a de     	lda	$de1a                   ; 0xde1a <end_block9+0xad6e>
    1b71: ad 1b de     	lda	$de1b                   ; 0xde1b <end_block9+0xad6f>
    1b74: 86 1a        	stx	$1a                     ; 0x201a <printf+0x2a5>
    1b76: 84 1b        	sty	$1b                     ; 0x201b <printf+0x2a6>
    1b78: 4c 57 1a     	jmp	$1a57 <__putchar+0x7f>
    1b7b: a6 22        	ldx	$22                     ; 0x2022 <printf+0x2ad>
    1b7d: 86 01        	stx	$1                      ; 0x2001 <printf+0x28c>
    1b7f: a6 39        	ldx	$39                     ; 0x2039 <printf+0x2c4>
    1b81: a4 3a        	ldy	$3a                     ; 0x203a <printf+0x2c5>
    1b83: 8e 14 d0     	stx	$d014                   ; 0xd014 <end_block9+0x9f68>
    1b86: 9c 15 d0     	stz	$d015                   ; 0xd015 <end_block9+0x9f69>
    1b89: 84 3a        	sty	$3a                     ; 0x203a <printf+0x2c5>
    1b8b: 8c 16 d0     	sty	$d016                   ; 0xd016 <end_block9+0x9f6a>
    1b8e: 9c 17 d0     	stz	$d017                   ; 0xd017 <end_block9+0x9f6b>
    1b91: 60           	rts

00001b92 <exit>:
    1b92: 20 19 03     	jsr	$319 <_fini>
    1b95: 80 fe        	bra	$1b95 <exit+0x3>

00001b97 <_ZN12_GLOBAL__N_13putEcP6Status>:
    1b97: 85 18        	sta	$18                     ; 0x2018 <printf+0x2a3>
    1b99: a6 13        	ldx	$13                     ; 0x2013 <printf+0x29e>
    1b9b: 18           	clc
    1b9c: a5 12        	lda	$12                     ; 0x2012 <printf+0x29d>
    1b9e: 69 05        	adc	#$5
    1ba0: a8           	tay
    1ba1: a5 13        	lda	$13                     ; 0x2013 <printf+0x29e>
    1ba3: 86 15        	stx	$15                     ; 0x2015 <printf+0x2a0>
    1ba5: 69 00        	adc	#$0
    1ba7: 18           	clc
    1ba8: 84 16        	sty	$16                     ; 0x2016 <printf+0x2a1>
    1baa: a0 05        	ldy	#$5
    1bac: 85 17        	sta	$17                     ; 0x2017 <printf+0x2a2>
    1bae: b1 12        	lda	($12),y                 ; 0x2012 <printf+0x29d>
    1bb0: aa           	tax
    1bb1: a5 12        	lda	$12                     ; 0x2012 <printf+0x29d>
    1bb3: 69 03        	adc	#$3
    1bb5: 85 14        	sta	$14                     ; 0x2014 <printf+0x29f>
    1bb7: a5 15        	lda	$15                     ; 0x2015 <printf+0x2a0>
    1bb9: 69 00        	adc	#$0
    1bbb: 85 15        	sta	$15                     ; 0x2015 <printf+0x2a0>
    1bbd: a0 01        	ldy	#$1
    1bbf: b1 16        	lda	($16),y                 ; 0x2016 <printf+0x2a1>
    1bc1: d1 14        	cmp	($14),y                 ; 0x2014 <printf+0x29f>
    1bc3: d0 11        	bne	$1bd6 <_ZN12_GLOBAL__N_13putEcP6Status+0x3f>
    1bc5: a0 03        	ldy	#$3
    1bc7: 85 17        	sta	$17                     ; 0x2017 <printf+0x2a2>
    1bc9: b1 12        	lda	($12),y                 ; 0x2012 <printf+0x29d>
    1bcb: 85 14        	sta	$14                     ; 0x2014 <printf+0x29f>
    1bcd: 86 16        	stx	$16                     ; 0x2016 <printf+0x2a1>
    1bcf: e4 14        	cpx	$14                     ; 0x2014 <printf+0x29f>
    1bd1: 90 0e        	bcc	$1be1 <_ZN12_GLOBAL__N_13putEcP6Status+0x4a>
    1bd3: 4c 40 1c     	jmp	$1c40 <_ZN12_GLOBAL__N_13putEcP6Status+0xa9>
    1bd6: 86 16        	stx	$16                     ; 0x2016 <printf+0x2a1>
    1bd8: d1 14        	cmp	($14),y                 ; 0x2014 <printf+0x29f>
    1bda: 85 17        	sta	$17                     ; 0x2017 <printf+0x2a2>
    1bdc: 90 03        	bcc	$1be1 <_ZN12_GLOBAL__N_13putEcP6Status+0x4a>
    1bde: 4c 40 1c     	jmp	$1c40 <_ZN12_GLOBAL__N_13putEcP6Status+0xa9>
    1be1: a5 12        	lda	$12                     ; 0x2012 <printf+0x29d>
    1be3: 18           	clc
    1be4: 69 0f        	adc	#$f
    1be6: 85 14        	sta	$14                     ; 0x2014 <printf+0x29f>
    1be8: a5 13        	lda	$13                     ; 0x2013 <printf+0x29e>
    1bea: 69 00        	adc	#$0
    1bec: 85 15        	sta	$15                     ; 0x2015 <printf+0x2a0>
    1bee: a0 01        	ldy	#$1
    1bf0: b1 14        	lda	($14),y                 ; 0x2014 <printf+0x29f>
    1bf2: a2 00        	ldx	#$0
    1bf4: 86 14        	stx	$14                     ; 0x2014 <printf+0x29f>
    1bf6: a2 00        	ldx	#$0
    1bf8: 86 15        	stx	$15                     ; 0x2015 <printf+0x2a0>
    1bfa: c5 15        	cmp	$15                     ; 0x2015 <printf+0x2a0>
    1bfc: d0 2d        	bne	$1c2b <_ZN12_GLOBAL__N_13putEcP6Status+0x94>
    1bfe: a0 0f        	ldy	#$f
    1c00: b1 12        	lda	($12),y                 ; 0x2012 <printf+0x29d>
    1c02: c5 14        	cmp	$14                     ; 0x2014 <printf+0x29f>
    1c04: d0 25        	bne	$1c2b <_ZN12_GLOBAL__N_13putEcP6Status+0x94>
    1c06: a5 12        	lda	$12                     ; 0x2012 <printf+0x29d>
    1c08: 18           	clc
    1c09: 69 09        	adc	#$9
    1c0b: 85 14        	sta	$14                     ; 0x2014 <printf+0x29f>
    1c0d: a5 13        	lda	$13                     ; 0x2013 <printf+0x29e>
    1c0f: 69 00        	adc	#$0
    1c11: a0 09        	ldy	#$9
    1c13: 85 15        	sta	$15                     ; 0x2015 <printf+0x2a0>
    1c15: 18           	clc
    1c16: a5 16        	lda	$16                     ; 0x2016 <printf+0x2a1>
    1c18: 71 12        	adc	($12),y                 ; 0x2012 <printf+0x29d>
    1c1a: aa           	tax
    1c1b: a0 01        	ldy	#$1
    1c1d: a5 17        	lda	$17                     ; 0x2017 <printf+0x2a2>
    1c1f: 71 14        	adc	($14),y                 ; 0x2014 <printf+0x29f>
    1c21: 86 14        	stx	$14                     ; 0x2014 <printf+0x29f>
    1c23: 85 15        	sta	$15                     ; 0x2015 <printf+0x2a0>
    1c25: a5 18        	lda	$18                     ; 0x2018 <printf+0x2a3>
    1c27: 92 14        	sta	($14)                   ; 0x2014 <printf+0x29f>
    1c29: 80 15        	bra	$1c40 <_ZN12_GLOBAL__N_13putEcP6Status+0xa9>
    1c2b: a6 12        	ldx	$12                     ; 0x2012 <printf+0x29d>
    1c2d: 86 ed        	stx	$ed                     ; 0x20ed <printf+0x378>
    1c2f: a6 13        	ldx	$13                     ; 0x2013 <printf+0x29e>
    1c31: 86 ee        	stx	$ee                     ; 0x20ee <printf+0x379>
    1c33: a5 18        	lda	$18                     ; 0x2018 <printf+0x2a3>
    1c35: 20 d8 19     	jsr	$19d8 <__putchar>
    1c38: a6 ed        	ldx	$ed                     ; 0x20ed <printf+0x378>
    1c3a: 86 12        	stx	$12                     ; 0x2012 <printf+0x29d>
    1c3c: a6 ee        	ldx	$ee                     ; 0x20ee <printf+0x379>
    1c3e: 86 13        	stx	$13                     ; 0x2013 <printf+0x29e>
    1c40: a0 05        	ldy	#$5
    1c42: a5 12        	lda	$12                     ; 0x2012 <printf+0x29d>
    1c44: 18           	clc
    1c45: 69 05        	adc	#$5
    1c47: 85 14        	sta	$14                     ; 0x2014 <printf+0x29f>
    1c49: a5 13        	lda	$13                     ; 0x2013 <printf+0x29e>
    1c4b: 69 00        	adc	#$0
    1c4d: 85 15        	sta	$15                     ; 0x2015 <printf+0x2a0>
    1c4f: b1 12        	lda	($12),y                 ; 0x2012 <printf+0x29d>
    1c51: aa           	tax
    1c52: a0 01        	ldy	#$1
    1c54: b1 14        	lda	($14),y                 ; 0x2014 <printf+0x29f>
    1c56: e8           	inx
    1c57: d0 01        	bne	$1c5a <_ZN12_GLOBAL__N_13putEcP6Status+0xc3>
    1c59: 1a           	inc
    1c5a: 85 16        	sta	$16                     ; 0x2016 <printf+0x2a1>
    1c5c: 8a           	txa
    1c5d: a0 05        	ldy	#$5
    1c5f: 91 12        	sta	($12),y                 ; 0x2012 <printf+0x29d>
    1c61: a0 01        	ldy	#$1
    1c63: a5 16        	lda	$16                     ; 0x2016 <printf+0x2a1>
    1c65: 91 14        	sta	($14),y                 ; 0x2014 <printf+0x29f>
    1c67: 60           	rts

00001c68 <_ZN12_GLOBAL__N_112print_stringEPKcP6Status>:
    1c68: a6 12        	ldx	$12                     ; 0x2012 <printf+0x29d>
    1c6a: 86 e5        	stx	$e5                     ; 0x20e5 <printf+0x370>
    1c6c: a6 13        	ldx	$13                     ; 0x2013 <printf+0x29e>
    1c6e: 86 e6        	stx	$e6                     ; 0x20e6 <printf+0x371>
    1c70: a6 14        	ldx	$14                     ; 0x2014 <printf+0x29f>
    1c72: 86 e7        	stx	$e7                     ; 0x20e7 <printf+0x372>
    1c74: a6 15        	ldx	$15                     ; 0x2015 <printf+0x2a0>
    1c76: 86 e8        	stx	$e8                     ; 0x20e8 <printf+0x373>
    1c78: a5 e7        	lda	$e7                     ; 0x20e7 <printf+0x372>
    1c7a: 18           	clc
    1c7b: 69 0d        	adc	#$d
    1c7d: 85 12        	sta	$12                     ; 0x2012 <printf+0x29d>
    1c7f: a5 e8        	lda	$e8                     ; 0x20e8 <printf+0x373>
    1c81: 69 00        	adc	#$0
    1c83: 85 13        	sta	$13                     ; 0x2013 <printf+0x29e>
    1c85: a0 01        	ldy	#$1
    1c87: b1 12        	lda	($12),y                 ; 0x2012 <printf+0x29d>
    1c89: 30 16        	bmi	$1ca1 <_ZN12_GLOBAL__N_112print_stringEPKcP6Status+0x39>
    1c8b: a0 0d        	ldy	#$d
    1c8d: 85 12        	sta	$12                     ; 0x2012 <printf+0x29d>
    1c8f: b1 e7        	lda	($e7),y                 ; 0x20e7 <printf+0x372>
    1c91: a6 12        	ldx	$12                     ; 0x2012 <printf+0x29d>
    1c93: 86 ec        	stx	$ec                     ; 0x20ec <printf+0x377>
    1c95: d0 0f        	bne	$1ca6 <_ZN12_GLOBAL__N_112print_stringEPKcP6Status+0x3e>
    1c97: aa           	tax
    1c98: d0 0c        	bne	$1ca6 <_ZN12_GLOBAL__N_112print_stringEPKcP6Status+0x3e>
    1c9a: 64 e9        	stz	$e9                     ; 0x20e9 <printf+0x374>
    1c9c: a2 00        	ldx	#$0
    1c9e: 4c 70 1d     	jmp	$1d70 <_ZN12_GLOBAL__N_112print_stringEPKcP6Status+0x108>
    1ca1: a9 ff        	lda	#$ff
    1ca3: aa           	tax
    1ca4: 86 ec        	stx	$ec                     ; 0x20ec <printf+0x377>
    1ca6: 85 e9        	sta	$e9                     ; 0x20e9 <printf+0x374>
    1ca8: 64 12        	stz	$12                     ; 0x2012 <printf+0x29d>
    1caa: a4 e5        	ldy	$e5                     ; 0x20e5 <printf+0x370>
    1cac: a6 e6        	ldx	$e6                     ; 0x20e6 <printf+0x371>
    1cae: 86 16        	stx	$16                     ; 0x2016 <printf+0x2a1>
    1cb0: 64 13        	stz	$13                     ; 0x2013 <printf+0x29e>
    1cb2: 98           	tya
    1cb3: 18           	clc
    1cb4: 65 12        	adc	$12                     ; 0x2012 <printf+0x29d>
    1cb6: 85 14        	sta	$14                     ; 0x2014 <printf+0x29f>
    1cb8: a5 e6        	lda	$e6                     ; 0x20e6 <printf+0x371>
    1cba: 65 13        	adc	$13                     ; 0x2013 <printf+0x29e>
    1cbc: 85 15        	sta	$15                     ; 0x2015 <printf+0x2a0>
    1cbe: b2 14        	lda	($14)                   ; 0x2014 <printf+0x29f>
    1cc0: d0 03        	bne	$1cc5 <_ZN12_GLOBAL__N_112print_stringEPKcP6Status+0x5d>
    1cc2: 4c 6a 1d     	jmp	$1d6a <_ZN12_GLOBAL__N_112print_stringEPKcP6Status+0x102>
    1cc5: e6 12        	inc	$12                     ; 0x2012 <printf+0x29d>
    1cc7: d0 02        	bne	$1ccb <_ZN12_GLOBAL__N_112print_stringEPKcP6Status+0x63>
    1cc9: e6 13        	inc	$13                     ; 0x2013 <printf+0x29e>
    1ccb: a6 ec        	ldx	$ec                     ; 0x20ec <printf+0x377>
    1ccd: e4 13        	cpx	$13                     ; 0x2013 <printf+0x29e>
    1ccf: d0 e1        	bne	$1cb2 <_ZN12_GLOBAL__N_112print_stringEPKcP6Status+0x4a>
    1cd1: a6 e9        	ldx	$e9                     ; 0x20e9 <printf+0x374>
    1cd3: e4 12        	cpx	$12                     ; 0x2012 <printf+0x29d>
    1cd5: d0 db        	bne	$1cb2 <_ZN12_GLOBAL__N_112print_stringEPKcP6Status+0x4a>
    1cd7: a0 01        	ldy	#$1
    1cd9: 98           	tya
    1cda: 31 e7        	and	($e7),y                 ; 0x20e7 <printf+0x372>
    1cdc: 29 01        	and	#$1
    1cde: f0 03        	beq	$1ce3 <_ZN12_GLOBAL__N_112print_stringEPKcP6Status+0x7b>
    1ce0: 4c 3b 1d     	jmp	$1d3b <_ZN12_GLOBAL__N_112print_stringEPKcP6Status+0xd3>
    1ce3: a0 0b        	ldy	#$b
    1ce5: a5 e7        	lda	$e7                     ; 0x20e7 <printf+0x372>
    1ce7: 18           	clc
    1ce8: 69 0b        	adc	#$b
    1cea: 85 14        	sta	$14                     ; 0x2014 <printf+0x29f>
    1cec: a5 e8        	lda	$e8                     ; 0x20e8 <printf+0x373>
    1cee: 69 00        	adc	#$0
    1cf0: 85 15        	sta	$15                     ; 0x2015 <printf+0x2a0>
    1cf2: b1 e7        	lda	($e7),y                 ; 0x20e7 <printf+0x372>
    1cf4: 85 12        	sta	$12                     ; 0x2012 <printf+0x29d>
    1cf6: a0 01        	ldy	#$1
    1cf8: b1 14        	lda	($14),y                 ; 0x2014 <printf+0x29f>
    1cfa: 85 13        	sta	$13                     ; 0x2013 <printf+0x29e>
    1cfc: a6 ec        	ldx	$ec                     ; 0x20ec <printf+0x377>
    1cfe: e4 13        	cpx	$13                     ; 0x2013 <printf+0x29e>
    1d00: d0 08        	bne	$1d0a <_ZN12_GLOBAL__N_112print_stringEPKcP6Status+0xa2>
    1d02: a6 e9        	ldx	$e9                     ; 0x20e9 <printf+0x374>
    1d04: e4 12        	cpx	$12                     ; 0x2012 <printf+0x29d>
    1d06: 90 06        	bcc	$1d0e <_ZN12_GLOBAL__N_112print_stringEPKcP6Status+0xa6>
    1d08: 80 31        	bra	$1d3b <_ZN12_GLOBAL__N_112print_stringEPKcP6Status+0xd3>
    1d0a: e4 13        	cpx	$13                     ; 0x2013 <printf+0x29e>
    1d0c: b0 2d        	bcs	$1d3b <_ZN12_GLOBAL__N_112print_stringEPKcP6Status+0xd3>
    1d0e: 38           	sec
    1d0f: a5 e9        	lda	$e9                     ; 0x20e9 <printf+0x374>
    1d11: e5 12        	sbc	$12                     ; 0x2012 <printf+0x29d>
    1d13: a8           	tay
    1d14: a5 ec        	lda	$ec                     ; 0x20ec <printf+0x377>
    1d16: e5 13        	sbc	$13                     ; 0x2013 <printf+0x29e>
    1d18: 85 eb        	sta	$eb                     ; 0x20eb <printf+0x376>
    1d1a: a6 e7        	ldx	$e7                     ; 0x20e7 <printf+0x372>
    1d1c: 86 12        	stx	$12                     ; 0x2012 <printf+0x29d>
    1d1e: a6 e8        	ldx	$e8                     ; 0x20e8 <printf+0x373>
    1d20: 86 13        	stx	$13                     ; 0x2013 <printf+0x29e>
    1d22: 84 ea        	sty	$ea                     ; 0x20ea <printf+0x375>
    1d24: a9 20        	lda	#$20
    1d26: 20 97 1b     	jsr	$1b97 <_ZN12_GLOBAL__N_13putEcP6Status>
    1d29: a6 eb        	ldx	$eb                     ; 0x20eb <printf+0x376>
    1d2b: e6 ea        	inc	$ea                     ; 0x20ea <printf+0x375>
    1d2d: d0 01        	bne	$1d30 <_ZN12_GLOBAL__N_112print_stringEPKcP6Status+0xc8>
    1d2f: e8           	inx
    1d30: 86 eb        	stx	$eb                     ; 0x20eb <printf+0x376>
    1d32: a4 ea        	ldy	$ea                     ; 0x20ea <printf+0x375>
    1d34: 8a           	txa
    1d35: d0 e3        	bne	$1d1a <_ZN12_GLOBAL__N_112print_stringEPKcP6Status+0xb2>
    1d37: a5 ea        	lda	$ea                     ; 0x20ea <printf+0x375>
    1d39: d0 df        	bne	$1d1a <_ZN12_GLOBAL__N_112print_stringEPKcP6Status+0xb2>
    1d3b: a4 ec        	ldy	$ec                     ; 0x20ec <printf+0x377>
    1d3d: d0 04        	bne	$1d43 <_ZN12_GLOBAL__N_112print_stringEPKcP6Status+0xdb>
    1d3f: a5 e9        	lda	$e9                     ; 0x20e9 <printf+0x374>
    1d41: f0 26        	beq	$1d69 <_ZN12_GLOBAL__N_112print_stringEPKcP6Status+0x101>
    1d43: a2 ff        	ldx	#$ff
    1d45: c6 e9        	dec	$e9                     ; 0x20e9 <printf+0x374>
    1d47: e4 e9        	cpx	$e9                     ; 0x20e9 <printf+0x374>
    1d49: d0 01        	bne	$1d4c <_ZN12_GLOBAL__N_112print_stringEPKcP6Status+0xe4>
    1d4b: 88           	dey
    1d4c: 84 ea        	sty	$ea                     ; 0x20ea <printf+0x375>
    1d4e: b2 e5        	lda	($e5)                   ; 0x20e5 <printf+0x370>
    1d50: e6 e5        	inc	$e5                     ; 0x20e5 <printf+0x370>
    1d52: d0 02        	bne	$1d56 <_ZN12_GLOBAL__N_112print_stringEPKcP6Status+0xee>
    1d54: e6 e6        	inc	$e6                     ; 0x20e6 <printf+0x371>
    1d56: a6 e7        	ldx	$e7                     ; 0x20e7 <printf+0x372>
    1d58: 86 12        	stx	$12                     ; 0x2012 <printf+0x29d>
    1d5a: a6 e8        	ldx	$e8                     ; 0x20e8 <printf+0x373>
    1d5c: 86 13        	stx	$13                     ; 0x2013 <printf+0x29e>
    1d5e: 20 97 1b     	jsr	$1b97 <_ZN12_GLOBAL__N_13putEcP6Status>
    1d61: a4 ea        	ldy	$ea                     ; 0x20ea <printf+0x375>
    1d63: d0 de        	bne	$1d43 <_ZN12_GLOBAL__N_112print_stringEPKcP6Status+0xdb>
    1d65: a5 e9        	lda	$e9                     ; 0x20e9 <printf+0x374>
    1d67: d0 da        	bne	$1d43 <_ZN12_GLOBAL__N_112print_stringEPKcP6Status+0xdb>
    1d69: 60           	rts
    1d6a: a6 12        	ldx	$12                     ; 0x2012 <printf+0x29d>
    1d6c: 86 e9        	stx	$e9                     ; 0x20e9 <printf+0x374>
    1d6e: a6 13        	ldx	$13                     ; 0x2013 <printf+0x29e>
    1d70: 86 ec        	stx	$ec                     ; 0x20ec <printf+0x377>
    1d72: 4c d7 1c     	jmp	$1cd7 <_ZN12_GLOBAL__N_112print_stringEPKcP6Status+0x6f>

00001d75 <printf>:
    1d75: a6 12        	ldx	$12                     ; 0x2012 <printf+0x29d>
    1d77: 86 9a        	stx	$9a                     ; 0x209a <printf+0x325>
    1d79: a6 13        	ldx	$13                     ; 0x2013 <printf+0x29e>
    1d7b: 86 9b        	stx	$9b                     ; 0x209b <printf+0x326>
    1d7d: 18           	clc
    1d7e: a6 10        	ldx	$10                     ; 0x2010 <printf+0x29b>
    1d80: a4 11        	ldy	$11                     ; 0x2011 <printf+0x29c>
    1d82: 86 db        	stx	$db                     ; 0x20db <printf+0x366>
    1d84: 84 dc        	sty	$dc                     ; 0x20dc <printf+0x367>
    1d86: a6 db        	ldx	$db                     ; 0x20db <printf+0x366>
    1d88: a4 dc        	ldy	$dc                     ; 0x20dc <printf+0x367>
    1d8a: 86 c6        	stx	$c6                     ; 0x20c6 <printf+0x351>
    1d8c: 84 c7        	sty	$c7                     ; 0x20c7 <printf+0x352>
    1d8e: a2 ff        	ldx	#$ff
    1d90: 86 cb        	stx	$cb                     ; 0x20cb <printf+0x356>
    1d92: 86 cc        	stx	$cc                     ; 0x20cc <printf+0x357>
    1d94: 64 cd        	stz	$cd                     ; 0x20cd <printf+0x358>
    1d96: 64 ce        	stz	$ce                     ; 0x20ce <printf+0x359>
    1d98: e8           	inx
    1d99: 86 9c        	stx	$9c                     ; 0x209c <printf+0x327>
    1d9b: a2 00        	ldx	#$0
    1d9d: 86 9d        	stx	$9d                     ; 0x209d <printf+0x328>
    1d9f: a6 9c        	ldx	$9c                     ; 0x209c <printf+0x327>
    1da1: a4 9d        	ldy	$9d                     ; 0x209d <printf+0x328>
    1da3: 86 d1        	stx	$d1                     ; 0x20d1 <printf+0x35c>
    1da5: 84 d2        	sty	$d2                     ; 0x20d2 <printf+0x35d>
    1da7: a2 02        	ldx	#$2
    1da9: 86 d7        	stx	$d7                     ; 0x20d7 <printf+0x362>
    1dab: 64 d8        	stz	$d8                     ; 0x20d8 <printf+0x363>
    1dad: a6 c6        	ldx	$c6                     ; 0x20c6 <printf+0x351>
    1daf: a4 c7        	ldy	$c7                     ; 0x20c7 <printf+0x352>
    1db1: 86 d9        	stx	$d9                     ; 0x20d9 <printf+0x364>
    1db3: 84 da        	sty	$da                     ; 0x20da <printf+0x365>
    1db5: a2 bd        	ldx	#$bd
    1db7: a0 00        	ldy	#$0
    1db9: 86 12        	stx	$12                     ; 0x2012 <printf+0x29d>
    1dbb: 84 13        	sty	$13                     ; 0x2013 <printf+0x29e>
    1dbd: a0 01        	ldy	#$1
    1dbf: a9 a4        	lda	#$a4
    1dc1: 18           	clc
    1dc2: 69 02        	adc	#$2
    1dc4: 85 e3        	sta	$e3                     ; 0x20e3 <printf+0x36e>
    1dc6: a9 00        	lda	#$0
    1dc8: 69 00        	adc	#$0
    1dca: 85 e4        	sta	$e4                     ; 0x20e4 <printf+0x36f>
    1dcc: e6 12        	inc	$12                     ; 0x2012 <printf+0x29d>
    1dce: d0 02        	bne	$1dd2 <printf+0x5d>
    1dd0: e6 13        	inc	$13                     ; 0x2013 <printf+0x29e>
    1dd2: a6 12        	ldx	$12                     ; 0x2012 <printf+0x29d>
    1dd4: 86 e0        	stx	$e0                     ; 0x20e0 <printf+0x36b>
    1dd6: a6 13        	ldx	$13                     ; 0x2013 <printf+0x29e>
    1dd8: 86 e1        	stx	$e1                     ; 0x20e1 <printf+0x36c>
    1dda: a6 9a        	ldx	$9a                     ; 0x209a <printf+0x325>
    1ddc: 86 9e        	stx	$9e                     ; 0x209e <printf+0x329>
    1dde: a6 9b        	ldx	$9b                     ; 0x209b <printf+0x326>
    1de0: 86 9f        	stx	$9f                     ; 0x209f <printf+0x32a>
    1de2: b2 9a        	lda	($9a)                   ; 0x209a <printf+0x325>
    1de4: c9 25        	cmp	#$25
    1de6: f0 21        	beq	$1e09 <printf+0x94>
    1de8: aa           	tax
    1de9: d0 03        	bne	$1dee <printf+0x79>
    1deb: 4c 24 29     	jmp	$2924 <printf+0xbaf>
    1dee: 20 d8 19     	jsr	$19d8 <__putchar>
    1df1: a0 01        	ldy	#$1
    1df3: e6 9e        	inc	$9e                     ; 0x209e <printf+0x329>
    1df5: d0 02        	bne	$1df9 <printf+0x84>
    1df7: e6 9f        	inc	$9f                     ; 0x209f <printf+0x32a>
    1df9: e6 cd        	inc	$cd                     ; 0x20cd <printf+0x358>
    1dfb: d0 02        	bne	$1dff <printf+0x8a>
    1dfd: e6 ce        	inc	$ce                     ; 0x20ce <printf+0x359>
    1dff: a6 9e        	ldx	$9e                     ; 0x209e <printf+0x329>
    1e01: 86 9a        	stx	$9a                     ; 0x209a <printf+0x325>
    1e03: a6 9f        	ldx	$9f                     ; 0x209f <printf+0x32a>
    1e05: 86 9b        	stx	$9b                     ; 0x209b <printf+0x326>
    1e07: 80 d1        	bra	$1dda <printf+0x65>
    1e09: a6 9a        	ldx	$9a                     ; 0x209a <printf+0x325>
    1e0b: 86 12        	stx	$12                     ; 0x2012 <printf+0x29d>
    1e0d: a6 9b        	ldx	$9b                     ; 0x209b <printf+0x326>
    1e0f: 86 13        	stx	$13                     ; 0x2013 <printf+0x29e>
    1e11: e6 12        	inc	$12                     ; 0x2012 <printf+0x29d>
    1e13: d0 02        	bne	$1e17 <printf+0xa2>
    1e15: e6 13        	inc	$13                     ; 0x2013 <printf+0x29e>
    1e17: b1 9e        	lda	($9e),y                 ; 0x209e <printf+0x329>
    1e19: c9 25        	cmp	#$25
    1e1b: d0 16        	bne	$1e33 <printf+0xbe>
    1e1d: a4 cd        	ldy	$cd                     ; 0x20cd <printf+0x358>
    1e1f: a5 ce        	lda	$ce                     ; 0x20ce <printf+0x359>
    1e21: c5 cc        	cmp	$cc                     ; 0x20cc <printf+0x357>
    1e23: f0 03        	beq	$1e28 <printf+0xb3>
    1e25: 4c 39 1f     	jmp	$1f39 <printf+0x1c4>
    1e28: a6 cb        	ldx	$cb                     ; 0x20cb <printf+0x356>
    1e2a: 86 12        	stx	$12                     ; 0x2012 <printf+0x29d>
    1e2c: 84 13        	sty	$13                     ; 0x2013 <printf+0x29e>
    1e2e: c4 12        	cpy	$12                     ; 0x2012 <printf+0x29d>
    1e30: 4c 3d 1f     	jmp	$1f3d <printf+0x1c8>
    1e33: 64 c9        	stz	$c9                     ; 0x20c9 <printf+0x354>
    1e35: 64 ca        	stz	$ca                     ; 0x20ca <printf+0x355>
    1e37: 64 c8        	stz	$c8                     ; 0x20c8 <printf+0x353>
    1e39: 64 d3        	stz	$d3                     ; 0x20d3 <printf+0x35e>
    1e3b: 64 d4        	stz	$d4                     ; 0x20d4 <printf+0x35f>
    1e3d: a2 ff        	ldx	#$ff
    1e3f: 86 d5        	stx	$d5                     ; 0x20d5 <printf+0x360>
    1e41: 86 d6        	stx	$d6                     ; 0x20d6 <printf+0x361>
    1e43: 64 99        	stz	$99                     ; 0x2099 <printf+0x324>
    1e45: 80 33        	bra	$1e7a <printf+0x105>
    1e47: a2 02        	ldx	#$2
    1e49: 80 15        	bra	$1e60 <printf+0xeb>
    1e4b: e0 20        	cpx	#$20
    1e4d: f0 15        	beq	$1e64 <printf+0xef>
    1e4f: 86 15        	stx	$15                     ; 0x2015 <printf+0x2a0>
    1e51: e0 23        	cpx	#$23
    1e53: f0 03        	beq	$1e58 <printf+0xe3>
    1e55: 4c d7 1e     	jmp	$1ed7 <printf+0x162>
    1e58: a5 99        	lda	$99                     ; 0x2099 <printf+0x324>
    1e5a: a2 04        	ldx	#$4
    1e5c: 80 02        	bra	$1e60 <printf+0xeb>
    1e5e: a2 10        	ldx	#$10
    1e60: 86 14        	stx	$14                     ; 0x2014 <printf+0x29f>
    1e62: 80 06        	bra	$1e6a <printf+0xf5>
    1e64: a2 08        	ldx	#$8
    1e66: 86 14        	stx	$14                     ; 0x2014 <printf+0x29f>
    1e68: a5 99        	lda	$99                     ; 0x2099 <printf+0x324>
    1e6a: 05 14        	ora	$14                     ; 0x2014 <printf+0x29f>
    1e6c: 85 99        	sta	$99                     ; 0x2099 <printf+0x324>
    1e6e: 85 c9        	sta	$c9                     ; 0x20c9 <printf+0x354>
    1e70: a2 00        	ldx	#$0
    1e72: 86 ca        	stx	$ca                     ; 0x20ca <printf+0x355>
    1e74: e6 12        	inc	$12                     ; 0x2012 <printf+0x29d>
    1e76: d0 02        	bne	$1e7a <printf+0x105>
    1e78: e6 13        	inc	$13                     ; 0x2013 <printf+0x29e>
    1e7a: b2 12        	lda	($12)                   ; 0x2012 <printf+0x29d>
    1e7c: aa           	tax
    1e7d: 38           	sec
    1e7e: e9 2a        	sbc	#$2a
    1e80: c9 07        	cmp	#$7
    1e82: b0 c7        	bcs	$1e4b <printf+0xd6>
    1e84: 86 15        	stx	$15                     ; 0x2015 <printf+0x2a0>
    1e86: 0a           	asl
    1e87: aa           	tax
    1e88: a0 01        	ldy	#$1
    1e8a: 84 14        	sty	$14                     ; 0x2014 <printf+0x29f>
    1e8c: a5 99        	lda	$99                     ; 0x2099 <printf+0x324>
    1e8e: 7c 8e 29     	jmp	($298e,x)               ; 0x298e <__set_v+0x11>
    1e91: a5 d9        	lda	$d9                     ; 0x20d9 <printf+0x364>
    1e93: a6 da        	ldx	$da                     ; 0x20da <printf+0x365>
    1e95: 85 16        	sta	$16                     ; 0x2016 <printf+0x2a1>
    1e97: 86 17        	stx	$17                     ; 0x2017 <printf+0x2a2>
    1e99: 18           	clc
    1e9a: 69 02        	adc	#$2
    1e9c: a8           	tay
    1e9d: 8a           	txa
    1e9e: 69 00        	adc	#$0
    1ea0: 84 d9        	sty	$d9                     ; 0x20d9 <printf+0x364>
    1ea2: 85 da        	sta	$da                     ; 0x20da <printf+0x365>
    1ea4: b2 16        	lda	($16)                   ; 0x2016 <printf+0x2a1>
    1ea6: 85 15        	sta	$15                     ; 0x2015 <printf+0x2a0>
    1ea8: a0 01        	ldy	#$1
    1eaa: b1 16        	lda	($16),y                 ; 0x2016 <printf+0x2a1>
    1eac: 85 14        	sta	$14                     ; 0x2014 <printf+0x29f>
    1eae: 10 15        	bpl	$1ec5 <printf+0x150>
    1eb0: a5 99        	lda	$99                     ; 0x2099 <printf+0x324>
    1eb2: 09 01        	ora	#$1
    1eb4: 85 99        	sta	$99                     ; 0x2099 <printf+0x324>
    1eb6: 85 c9        	sta	$c9                     ; 0x20c9 <printf+0x354>
    1eb8: a2 00        	ldx	#$0
    1eba: 86 ca        	stx	$ca                     ; 0x20ca <printf+0x355>
    1ebc: 8a           	txa
    1ebd: 38           	sec
    1ebe: e5 15        	sbc	$15                     ; 0x2015 <printf+0x2a0>
    1ec0: 85 15        	sta	$15                     ; 0x2015 <printf+0x2a0>
    1ec2: 8a           	txa
    1ec3: e5 14        	sbc	$14                     ; 0x2014 <printf+0x29f>
    1ec5: a6 15        	ldx	$15                     ; 0x2015 <printf+0x2a0>
    1ec7: 86 d3        	stx	$d3                     ; 0x20d3 <printf+0x35e>
    1ec9: 85 d4        	sta	$d4                     ; 0x20d4 <printf+0x35f>
    1ecb: e6 12        	inc	$12                     ; 0x2012 <printf+0x29d>
    1ecd: f0 03        	beq	$1ed2 <printf+0x15d>
    1ecf: 4c 8b 1f     	jmp	$1f8b <printf+0x216>
    1ed2: e6 13        	inc	$13                     ; 0x2013 <printf+0x29e>
    1ed4: 4c 8b 1f     	jmp	$1f8b <printf+0x216>
    1ed7: a5 15        	lda	$15                     ; 0x2015 <printf+0x2a0>
    1ed9: 18           	clc
    1eda: 69 d0        	adc	#$d0
    1edc: c9 0a        	cmp	#$a
    1ede: 90 03        	bcc	$1ee3 <printf+0x16e>
    1ee0: 4c 7d 1f     	jmp	$1f7d <printf+0x208>
    1ee3: a6 15        	ldx	$15                     ; 0x2015 <printf+0x2a0>
    1ee5: 86 14        	stx	$14                     ; 0x2014 <printf+0x29f>
    1ee7: 64 16        	stz	$16                     ; 0x2016 <printf+0x2a1>
    1ee9: 64 15        	stz	$15                     ; 0x2015 <printf+0x2a0>
    1eeb: 64 17        	stz	$17                     ; 0x2017 <printf+0x2a2>
    1eed: a0 01        	ldy	#$1
    1eef: 06 16        	asl	$16                     ; 0x2016 <printf+0x2a1>
    1ef1: 26 17        	rol	$17                     ; 0x2017 <printf+0x2a2>
    1ef3: a5 16        	lda	$16                     ; 0x2016 <printf+0x2a1>
    1ef5: 0a           	asl
    1ef6: aa           	tax
    1ef7: a5 17        	lda	$17                     ; 0x2017 <printf+0x2a2>
    1ef9: 2a           	rol
    1efa: 86 18        	stx	$18                     ; 0x2018 <printf+0x2a3>
    1efc: 06 18        	asl	$18                     ; 0x2018 <printf+0x2a3>
    1efe: 2a           	rol
    1eff: aa           	tax
    1f00: a5 18        	lda	$18                     ; 0x2018 <printf+0x2a3>
    1f02: 18           	clc
    1f03: 65 16        	adc	$16                     ; 0x2016 <printf+0x2a1>
    1f05: 85 16        	sta	$16                     ; 0x2016 <printf+0x2a1>
    1f07: 8a           	txa
    1f08: 65 17        	adc	$17                     ; 0x2017 <printf+0x2a2>
    1f0a: 85 17        	sta	$17                     ; 0x2017 <printf+0x2a2>
    1f0c: a5 16        	lda	$16                     ; 0x2016 <printf+0x2a1>
    1f0e: 18           	clc
    1f0f: 65 14        	adc	$14                     ; 0x2014 <printf+0x29f>
    1f11: 85 14        	sta	$14                     ; 0x2014 <printf+0x29f>
    1f13: a5 17        	lda	$17                     ; 0x2017 <printf+0x2a2>
    1f15: 65 15        	adc	$15                     ; 0x2015 <printf+0x2a0>
    1f17: aa           	tax
    1f18: 18           	clc
    1f19: a5 14        	lda	$14                     ; 0x2014 <printf+0x29f>
    1f1b: 69 d0        	adc	#$d0
    1f1d: 85 16        	sta	$16                     ; 0x2016 <printf+0x2a1>
    1f1f: 8a           	txa
    1f20: 69 ff        	adc	#$ff
    1f22: 85 17        	sta	$17                     ; 0x2017 <printf+0x2a2>
    1f24: b1 12        	lda	($12),y                 ; 0x2012 <printf+0x29d>
    1f26: 85 14        	sta	$14                     ; 0x2014 <printf+0x29f>
    1f28: 18           	clc
    1f29: 69 d0        	adc	#$d0
    1f2b: e6 12        	inc	$12                     ; 0x2012 <printf+0x29d>
    1f2d: d0 02        	bne	$1f31 <printf+0x1bc>
    1f2f: e6 13        	inc	$13                     ; 0x2013 <printf+0x29e>
    1f31: c9 0a        	cmp	#$a
    1f33: 64 15        	stz	$15                     ; 0x2015 <printf+0x2a0>
    1f35: 90 b8        	bcc	$1eef <printf+0x17a>
    1f37: 80 4a        	bra	$1f83 <printf+0x20e>
    1f39: 84 13        	sty	$13                     ; 0x2013 <printf+0x29e>
    1f3b: c5 cc        	cmp	$cc                     ; 0x20cc <printf+0x357>
    1f3d: a0 01        	ldy	#$1
    1f3f: b0 26        	bcs	$1f67 <printf+0x1f2>
    1f41: a6 d8        	ldx	$d8                     ; 0x20d8 <printf+0x363>
    1f43: e4 9d        	cpx	$9d                     ; 0x209d <printf+0x328>
    1f45: d0 19        	bne	$1f60 <printf+0x1eb>
    1f47: a6 d7        	ldx	$d7                     ; 0x20d7 <printf+0x362>
    1f49: e4 9c        	cpx	$9c                     ; 0x209c <printf+0x327>
    1f4b: d0 13        	bne	$1f60 <printf+0x1eb>
    1f4d: 18           	clc
    1f4e: aa           	tax
    1f4f: a5 13        	lda	$13                     ; 0x2013 <printf+0x29e>
    1f51: 65 d1        	adc	$d1                     ; 0x20d1 <printf+0x35c>
    1f53: 85 12        	sta	$12                     ; 0x2012 <printf+0x29d>
    1f55: 8a           	txa
    1f56: 65 d2        	adc	$d2                     ; 0x20d2 <printf+0x35d>
    1f58: 85 13        	sta	$13                     ; 0x2013 <printf+0x29e>
    1f5a: a9 25        	lda	#$25
    1f5c: 92 12        	sta	($12)                   ; 0x2012 <printf+0x29d>
    1f5e: 80 07        	bra	$1f67 <printf+0x1f2>
    1f60: a9 25        	lda	#$25
    1f62: 20 d8 19     	jsr	$19d8 <__putchar>
    1f65: a0 01        	ldy	#$1
    1f67: e6 cd        	inc	$cd                     ; 0x20cd <printf+0x358>
    1f69: d0 02        	bne	$1f6d <printf+0x1f8>
    1f6b: e6 ce        	inc	$ce                     ; 0x20ce <printf+0x359>
    1f6d: a5 9e        	lda	$9e                     ; 0x209e <printf+0x329>
    1f6f: 18           	clc
    1f70: 69 02        	adc	#$2
    1f72: 85 9a        	sta	$9a                     ; 0x209a <printf+0x325>
    1f74: a5 9f        	lda	$9f                     ; 0x209f <printf+0x32a>
    1f76: 69 00        	adc	#$0
    1f78: 85 9b        	sta	$9b                     ; 0x209b <printf+0x326>
    1f7a: 4c da 1d     	jmp	$1dda <printf+0x65>
    1f7d: 64 16        	stz	$16                     ; 0x2016 <printf+0x2a1>
    1f7f: 64 17        	stz	$17                     ; 0x2017 <printf+0x2a2>
    1f81: a0 01        	ldy	#$1
    1f83: a6 16        	ldx	$16                     ; 0x2016 <printf+0x2a1>
    1f85: 86 d3        	stx	$d3                     ; 0x20d3 <printf+0x35e>
    1f87: a5 17        	lda	$17                     ; 0x2017 <printf+0x2a2>
    1f89: 85 d4        	sta	$d4                     ; 0x20d4 <printf+0x35f>
    1f8b: 86 a2        	stx	$a2                     ; 0x20a2 <printf+0x32d>
    1f8d: 85 a0        	sta	$a0                     ; 0x20a0 <printf+0x32b>
    1f8f: b2 12        	lda	($12)                   ; 0x2012 <printf+0x29d>
    1f91: a2 ff        	ldx	#$ff
    1f93: c9 2e        	cmp	#$2e
    1f95: d0 39        	bne	$1fd0 <printf+0x25b>
    1f97: b1 12        	lda	($12),y                 ; 0x2012 <printf+0x29d>
    1f99: c9 2a        	cmp	#$2a
    1f9b: d0 38        	bne	$1fd5 <printf+0x260>
    1f9d: a5 d9        	lda	$d9                     ; 0x20d9 <printf+0x364>
    1f9f: a6 da        	ldx	$da                     ; 0x20da <printf+0x365>
    1fa1: 85 14        	sta	$14                     ; 0x2014 <printf+0x29f>
    1fa3: 86 15        	stx	$15                     ; 0x2015 <printf+0x2a0>
    1fa5: 18           	clc
    1fa6: 69 02        	adc	#$2
    1fa8: 85 16        	sta	$16                     ; 0x2016 <printf+0x2a1>
    1faa: 8a           	txa
    1fab: 69 00        	adc	#$0
    1fad: a6 16        	ldx	$16                     ; 0x2016 <printf+0x2a1>
    1faf: 86 d9        	stx	$d9                     ; 0x20d9 <printf+0x364>
    1fb1: 85 da        	sta	$da                     ; 0x20da <printf+0x365>
    1fb3: a5 12        	lda	$12                     ; 0x2012 <printf+0x29d>
    1fb5: 18           	clc
    1fb6: 69 02        	adc	#$2
    1fb8: 85 12        	sta	$12                     ; 0x2012 <printf+0x29d>
    1fba: a5 13        	lda	$13                     ; 0x2013 <printf+0x29e>
    1fbc: 69 00        	adc	#$0
    1fbe: 85 13        	sta	$13                     ; 0x2013 <printf+0x29e>
    1fc0: b2 14        	lda	($14)                   ; 0x2014 <printf+0x29f>
    1fc2: aa           	tax
    1fc3: b1 14        	lda	($14),y                 ; 0x2014 <printf+0x29f>
    1fc5: 86 18        	stx	$18                     ; 0x2018 <printf+0x2a3>
    1fc7: 86 d5        	stx	$d5                     ; 0x20d5 <printf+0x360>
    1fc9: 85 19        	sta	$19                     ; 0x2019 <printf+0x2a4>
    1fcb: 85 d6        	sta	$d6                     ; 0x20d6 <printf+0x361>
    1fcd: 4c 80 20     	jmp	$2080 <printf+0x30b>
    1fd0: 86 18        	stx	$18                     ; 0x2018 <printf+0x2a3>
    1fd2: 4c 90 20     	jmp	$2090 <printf+0x31b>
    1fd5: 85 17        	sta	$17                     ; 0x2017 <printf+0x2a2>
    1fd7: 18           	clc
    1fd8: 69 d0        	adc	#$d0
    1fda: c9 0a        	cmp	#$a
    1fdc: 90 03        	bcc	$1fe1 <printf+0x26c>
    1fde: 4c 72 20     	jmp	$2072 <printf+0x2fd>
    1fe1: 64 16        	stz	$16                     ; 0x2016 <printf+0x2a1>
    1fe3: a2 01        	ldx	#$1
    1fe5: 64 18        	stz	$18                     ; 0x2018 <printf+0x2a3>
    1fe7: 64 19        	stz	$19                     ; 0x2019 <printf+0x2a4>
    1fe9: a0 01        	ldy	#$1
    1feb: 64 1a        	stz	$1a                     ; 0x201a <printf+0x2a5>
    1fed: 5a           	phy
    1fee: a4 1a        	ldy	$1a                     ; 0x201a <printf+0x2a5>
    1ff0: 84 14        	sty	$14                     ; 0x2014 <printf+0x29f>
    1ff2: 86 15        	stx	$15                     ; 0x2015 <printf+0x2a0>
    1ff4: 06 18        	asl	$18                     ; 0x2018 <printf+0x2a3>
    1ff6: 26 19        	rol	$19                     ; 0x2019 <printf+0x2a4>
    1ff8: a5 18        	lda	$18                     ; 0x2018 <printf+0x2a3>
    1ffa: 0a           	asl
    1ffb: 85 1d        	sta	$1d                     ; 0x201d <printf+0x2a8>
    1ffd: a5 19        	lda	$19                     ; 0x2019 <printf+0x2a4>
    1fff: 2a           	rol
    2000: 06 1d        	asl	$1d                     ; 0x201d <printf+0x2a8>
    2002: 2a           	rol
    2003: 85 1e        	sta	$1e                     ; 0x201e <printf+0x2a9>
    2005: a5 1d        	lda	$1d                     ; 0x201d <printf+0x2a8>
    2007: 18           	clc
    2008: 65 18        	adc	$18                     ; 0x2018 <printf+0x2a3>
    200a: 85 18        	sta	$18                     ; 0x2018 <printf+0x2a3>
    200c: a5 1e        	lda	$1e                     ; 0x201e <printf+0x2a9>
    200e: 65 19        	adc	$19                     ; 0x2019 <printf+0x2a4>
    2010: 85 19        	sta	$19                     ; 0x2019 <printf+0x2a4>
    2012: a5 18        	lda	$18                     ; 0x2018 <printf+0x2a3>
    2014: 18           	clc
    2015: 65 17        	adc	$17                     ; 0x2017 <printf+0x2a2>
    2017: 85 17        	sta	$17                     ; 0x2017 <printf+0x2a2>
    2019: a5 19        	lda	$19                     ; 0x2019 <printf+0x2a4>
    201b: 65 16        	adc	$16                     ; 0x2016 <printf+0x2a1>
    201d: 85 16        	sta	$16                     ; 0x2016 <printf+0x2a1>
    201f: 18           	clc
    2020: a5 17        	lda	$17                     ; 0x2017 <printf+0x2a2>
    2022: 69 d0        	adc	#$d0
    2024: 85 18        	sta	$18                     ; 0x2018 <printf+0x2a3>
    2026: a5 16        	lda	$16                     ; 0x2016 <printf+0x2a1>
    2028: 69 ff        	adc	#$ff
    202a: 85 19        	sta	$19                     ; 0x2019 <printf+0x2a4>
    202c: e8           	inx
    202d: d0 02        	bne	$2031 <printf+0x2bc>
    202f: e6 1a        	inc	$1a                     ; 0x201a <printf+0x2a5>
    2031: a5 12        	lda	$12                     ; 0x2012 <printf+0x29d>
    2033: 18           	clc
    2034: 65 15        	adc	$15                     ; 0x2015 <printf+0x2a0>
    2036: 85 1d        	sta	$1d                     ; 0x201d <printf+0x2a8>
    2038: a5 13        	lda	$13                     ; 0x2013 <printf+0x29e>
    203a: 65 14        	adc	$14                     ; 0x2014 <printf+0x29f>
    203c: a4 1d        	ldy	$1d                     ; 0x201d <printf+0x2a8>
    203e: 84 16        	sty	$16                     ; 0x2016 <printf+0x2a1>
    2040: 7a           	ply
    2041: 85 17        	sta	$17                     ; 0x2017 <printf+0x2a2>
    2043: b1 16        	lda	($16),y                 ; 0x2016 <printf+0x2a1>
    2045: 85 17        	sta	$17                     ; 0x2017 <printf+0x2a2>
    2047: 18           	clc
    2048: 69 d0        	adc	#$d0
    204a: c9 0a        	cmp	#$a
    204c: 64 16        	stz	$16                     ; 0x2016 <printf+0x2a1>
    204e: b0 03        	bcs	$2053 <printf+0x2de>
    2050: 4c ed 1f     	jmp	$1fed <printf+0x278>
    2053: a5 12        	lda	$12                     ; 0x2012 <printf+0x29d>
    2055: 18           	clc
    2056: 65 15        	adc	$15                     ; 0x2015 <printf+0x2a0>
    2058: 85 12        	sta	$12                     ; 0x2012 <printf+0x29d>
    205a: a5 13        	lda	$13                     ; 0x2013 <printf+0x29e>
    205c: 65 14        	adc	$14                     ; 0x2014 <printf+0x29f>
    205e: 85 13        	sta	$13                     ; 0x2013 <printf+0x29e>
    2060: e6 12        	inc	$12                     ; 0x2012 <printf+0x29d>
    2062: d0 02        	bne	$2066 <printf+0x2f1>
    2064: e6 13        	inc	$13                     ; 0x2013 <printf+0x29e>
    2066: a6 18        	ldx	$18                     ; 0x2018 <printf+0x2a3>
    2068: 86 d5        	stx	$d5                     ; 0x20d5 <printf+0x360>
    206a: a6 19        	ldx	$19                     ; 0x2019 <printf+0x2a4>
    206c: 86 d6        	stx	$d6                     ; 0x20d6 <printf+0x361>
    206e: a0 01        	ldy	#$1
    2070: 80 0e        	bra	$2080 <printf+0x30b>
    2072: e6 12        	inc	$12                     ; 0x2012 <printf+0x29d>
    2074: d0 02        	bne	$2078 <printf+0x303>
    2076: e6 13        	inc	$13                     ; 0x2013 <printf+0x29e>
    2078: 64 18        	stz	$18                     ; 0x2018 <printf+0x2a3>
    207a: 64 d5        	stz	$d5                     ; 0x20d5 <printf+0x360>
    207c: 64 d6        	stz	$d6                     ; 0x20d6 <printf+0x361>
    207e: 64 19        	stz	$19                     ; 0x2019 <printf+0x2a4>
    2080: a5 99        	lda	$99                     ; 0x2099 <printf+0x324>
    2082: 29 ef        	and	#$ef
    2084: 85 99        	sta	$99                     ; 0x2099 <printf+0x324>
    2086: 85 c9        	sta	$c9                     ; 0x20c9 <printf+0x354>
    2088: a2 00        	ldx	#$0
    208a: 86 ca        	stx	$ca                     ; 0x20ca <printf+0x355>
    208c: b2 12        	lda	($12)                   ; 0x2012 <printf+0x29d>
    208e: a6 19        	ldx	$19                     ; 0x2019 <printf+0x2a4>
    2090: 86 15        	stx	$15                     ; 0x2015 <printf+0x2a0>
    2092: a6 12        	ldx	$12                     ; 0x2012 <printf+0x29d>
    2094: 86 9a        	stx	$9a                     ; 0x209a <printf+0x325>
    2096: a6 13        	ldx	$13                     ; 0x2013 <printf+0x29e>
    2098: 86 9b        	stx	$9b                     ; 0x209b <printf+0x326>
    209a: e6 9a        	inc	$9a                     ; 0x209a <printf+0x325>
    209c: d0 02        	bne	$20a0 <printf+0x32b>
    209e: e6 9b        	inc	$9b                     ; 0x209b <printf+0x326>
    20a0: 85 14        	sta	$14                     ; 0x2014 <printf+0x29f>
    20a2: 38           	sec
    20a3: e9 6c        	sbc	#$6c
    20a5: 50 02        	bvc	$20a9 <printf+0x334>
    20a7: 49 80        	eor	#$80
    20a9: aa           	tax
    20aa: 10 1d        	bpl	$20c9 <printf+0x354>
    20ac: a5 14        	lda	$14                     ; 0x2014 <printf+0x29f>
    20ae: c9 4c        	cmp	#$4c
    20b0: f0 27        	beq	$20d9 <printf+0x364>
    20b2: c9 68        	cmp	#$68
    20b4: d0 03        	bne	$20b9 <printf+0x344>
    20b6: 4c 40 21     	jmp	$2140 <printf+0x3cb>
    20b9: a2 08        	ldx	#$8
    20bb: c9 6a        	cmp	#$6a
    20bd: d0 2e        	bne	$20ed <printf+0x378>
    20bf: a5 9a        	lda	$9a                     ; 0x209a <printf+0x325>
    20c1: 85 12        	sta	$12                     ; 0x2012 <printf+0x29d>
    20c3: a5 9b        	lda	$9b                     ; 0x209b <printf+0x326>
    20c5: 85 13        	sta	$13                     ; 0x2013 <printf+0x29e>
    20c7: 80 43        	bra	$210c <printf+0x397>
    20c9: a6 14        	ldx	$14                     ; 0x2014 <printf+0x29f>
    20cb: e0 6c        	cpx	#$6c
    20cd: f0 23        	beq	$20f2 <printf+0x37d>
    20cf: e0 74        	cpx	#$74
    20d1: f0 12        	beq	$20e5 <printf+0x370>
    20d3: e0 7a        	cpx	#$7a
    20d5: f0 0e        	beq	$20e5 <printf+0x370>
    20d7: 80 14        	bra	$20ed <printf+0x378>
    20d9: a5 99        	lda	$99                     ; 0x2099 <printf+0x324>
    20db: 09 40        	ora	#$40
    20dd: 85 99        	sta	$99                     ; 0x2099 <printf+0x324>
    20df: 85 c9        	sta	$c9                     ; 0x20c9 <printf+0x354>
    20e1: a2 00        	ldx	#$0
    20e3: 86 ca        	stx	$ca                     ; 0x20ca <printf+0x355>
    20e5: a6 9a        	ldx	$9a                     ; 0x209a <printf+0x325>
    20e7: 86 12        	stx	$12                     ; 0x2012 <printf+0x29d>
    20e9: a6 9b        	ldx	$9b                     ; 0x209b <printf+0x326>
    20eb: 86 13        	stx	$13                     ; 0x2013 <printf+0x29e>
    20ed: a2 02        	ldx	#$2
    20ef: 8a           	txa
    20f0: 80 1c        	bra	$210e <printf+0x399>
    20f2: b1 12        	lda	($12),y                 ; 0x2012 <printf+0x29d>
    20f4: a2 04        	ldx	#$4
    20f6: c9 6c        	cmp	#$6c
    20f8: f0 03        	beq	$20fd <printf+0x388>
    20fa: 4c 3f 24     	jmp	$243f <printf+0x6ca>
    20fd: a5 12        	lda	$12                     ; 0x2012 <printf+0x29d>
    20ff: 18           	clc
    2100: 69 02        	adc	#$2
    2102: 85 12        	sta	$12                     ; 0x2012 <printf+0x29d>
    2104: a5 13        	lda	$13                     ; 0x2013 <printf+0x29e>
    2106: 69 00        	adc	#$0
    2108: 85 13        	sta	$13                     ; 0x2013 <printf+0x29e>
    210a: a2 08        	ldx	#$8
    210c: a9 08        	lda	#$8
    210e: 85 df        	sta	$df                     ; 0x20df <printf+0x36a>
    2110: b2 12        	lda	($12)                   ; 0x2012 <printf+0x29d>
    2112: 5a           	phy
    2113: a4 12        	ldy	$12                     ; 0x2012 <printf+0x29d>
    2115: 84 9a        	sty	$9a                     ; 0x209a <printf+0x325>
    2117: a4 13        	ldy	$13                     ; 0x2013 <printf+0x29e>
    2119: 84 9b        	sty	$9b                     ; 0x209b <printf+0x326>
    211b: 7a           	ply
    211c: 86 9c        	stx	$9c                     ; 0x209c <printf+0x327>
    211e: aa           	tax
    211f: 38           	sec
    2120: e9 63        	sbc	#$63
    2122: c9 16        	cmp	#$16
    2124: b0 39        	bcs	$215f <printf+0x3ea>
    2126: 0a           	asl
    2127: aa           	tax
    2128: 7c 9c 29     	jmp	($299c,x)               ; 0x299c <__set_v+0x1f>
    212b: a6 15        	ldx	$15                     ; 0x2015 <printf+0x2a0>
    212d: 86 dd        	stx	$dd                     ; 0x20dd <printf+0x368>
    212f: a6 18        	ldx	$18                     ; 0x2018 <printf+0x2a3>
    2131: 86 e2        	stx	$e2                     ; 0x20e2 <printf+0x36d>
    2133: a0 0a        	ldy	#$a
    2135: a2 0a        	ldx	#$a
    2137: 86 de        	stx	$de                     ; 0x20de <printf+0x369>
    2139: 84 c8        	sty	$c8                     ; 0x20c8 <printf+0x353>
    213b: 64 a3        	stz	$a3                     ; 0x20a3 <printf+0x32e>
    213d: 4c 5f 22     	jmp	$225f <printf+0x4ea>
    2140: b1 12        	lda	($12),y                 ; 0x2012 <printf+0x29d>
    2142: a2 02        	ldx	#$2
    2144: c9 68        	cmp	#$68
    2146: f0 03        	beq	$214b <printf+0x3d6>
    2148: 4c 45 24     	jmp	$2445 <printf+0x6d0>
    214b: a5 12        	lda	$12                     ; 0x2012 <printf+0x29d>
    214d: 18           	clc
    214e: 69 02        	adc	#$2
    2150: 85 12        	sta	$12                     ; 0x2012 <printf+0x29d>
    2152: a5 13        	lda	$13                     ; 0x2013 <printf+0x29e>
    2154: 69 00        	adc	#$0
    2156: 85 13        	sta	$13                     ; 0x2013 <printf+0x29e>
    2158: a2 01        	ldx	#$1
    215a: 86 df        	stx	$df                     ; 0x20df <printf+0x36a>
    215c: e8           	inx
    215d: 80 b1        	bra	$2110 <printf+0x39b>
    215f: e0 58        	cpx	#$58
    2161: f0 03        	beq	$2166 <printf+0x3f1>
    2163: 4c e0 28     	jmp	$28e0 <printf+0xb6b>
    2166: a6 15        	ldx	$15                     ; 0x2015 <printf+0x2a0>
    2168: 86 dd        	stx	$dd                     ; 0x20dd <printf+0x368>
    216a: a6 18        	ldx	$18                     ; 0x2018 <printf+0x2a3>
    216c: 86 e2        	stx	$e2                     ; 0x20e2 <printf+0x36d>
    216e: a2 10        	ldx	#$10
    2170: 86 c8        	stx	$c8                     ; 0x20c8 <printf+0x353>
    2172: a9 00        	lda	#$0
    2174: 09 01        	ora	#$1
    2176: a6 99        	ldx	$99                     ; 0x2099 <printf+0x324>
    2178: 80 29        	bra	$21a3 <printf+0x42e>
    217a: a6 15        	ldx	$15                     ; 0x2015 <printf+0x2a0>
    217c: 86 dd        	stx	$dd                     ; 0x20dd <printf+0x368>
    217e: a6 18        	ldx	$18                     ; 0x2018 <printf+0x2a3>
    2180: 86 e2        	stx	$e2                     ; 0x20e2 <printf+0x36d>
    2182: a2 10        	ldx	#$10
    2184: 86 c8        	stx	$c8                     ; 0x20c8 <printf+0x353>
    2186: a5 99        	lda	$99                     ; 0x2099 <printf+0x324>
    2188: 09 84        	ora	#$84
    218a: 80 10        	bra	$219c <printf+0x427>
    218c: a6 15        	ldx	$15                     ; 0x2015 <printf+0x2a0>
    218e: 86 dd        	stx	$dd                     ; 0x20dd <printf+0x368>
    2190: a6 18        	ldx	$18                     ; 0x2018 <printf+0x2a3>
    2192: 86 e2        	stx	$e2                     ; 0x20e2 <printf+0x36d>
    2194: a2 10        	ldx	#$10
    2196: 86 c8        	stx	$c8                     ; 0x20c8 <printf+0x353>
    2198: a5 99        	lda	$99                     ; 0x2099 <printf+0x324>
    219a: 09 80        	ora	#$80
    219c: aa           	tax
    219d: a9 00        	lda	#$0
    219f: 09 01        	ora	#$1
    21a1: 86 99        	stx	$99                     ; 0x2099 <printf+0x324>
    21a3: 86 c9        	stx	$c9                     ; 0x20c9 <printf+0x354>
    21a5: 85 a3        	sta	$a3                     ; 0x20a3 <printf+0x32e>
    21a7: 85 ca        	sta	$ca                     ; 0x20ca <printf+0x355>
    21a9: a2 10        	ldx	#$10
    21ab: 86 de        	stx	$de                     ; 0x20de <printf+0x369>
    21ad: 4c 5f 22     	jmp	$225f <printf+0x4ea>
    21b0: a5 d9        	lda	$d9                     ; 0x20d9 <printf+0x364>
    21b2: a6 da        	ldx	$da                     ; 0x20da <printf+0x365>
    21b4: 85 12        	sta	$12                     ; 0x2012 <printf+0x29d>
    21b6: 86 13        	stx	$13                     ; 0x2013 <printf+0x29e>
    21b8: 18           	clc
    21b9: 69 02        	adc	#$2
    21bb: 85 14        	sta	$14                     ; 0x2014 <printf+0x29f>
    21bd: 8a           	txa
    21be: 69 00        	adc	#$0
    21c0: a6 14        	ldx	$14                     ; 0x2014 <printf+0x29f>
    21c2: 86 d9        	stx	$d9                     ; 0x20d9 <printf+0x364>
    21c4: 85 da        	sta	$da                     ; 0x20da <printf+0x365>
    21c6: b2 12        	lda	($12)                   ; 0x2012 <printf+0x29d>
    21c8: aa           	tax
    21c9: b1 12        	lda	($12),y                 ; 0x2012 <printf+0x29d>
    21cb: 86 12        	stx	$12                     ; 0x2012 <printf+0x29d>
    21cd: 85 13        	sta	$13                     ; 0x2013 <printf+0x29e>
    21cf: a5 cd        	lda	$cd                     ; 0x20cd <printf+0x358>
    21d1: a6 ce        	ldx	$ce                     ; 0x20ce <printf+0x359>
    21d3: 92 12        	sta	($12)                   ; 0x2012 <printf+0x29d>
    21d5: 8a           	txa
    21d6: 91 12        	sta	($12),y                 ; 0x2012 <printf+0x29d>
    21d8: 4c 38 22     	jmp	$2238 <printf+0x4c3>
    21db: a5 d9        	lda	$d9                     ; 0x20d9 <printf+0x364>
    21dd: a6 da        	ldx	$da                     ; 0x20da <printf+0x365>
    21df: 85 12        	sta	$12                     ; 0x2012 <printf+0x29d>
    21e1: 86 13        	stx	$13                     ; 0x2013 <printf+0x29e>
    21e3: 18           	clc
    21e4: 69 02        	adc	#$2
    21e6: 85 14        	sta	$14                     ; 0x2014 <printf+0x29f>
    21e8: 8a           	txa
    21e9: 69 00        	adc	#$0
    21eb: a6 14        	ldx	$14                     ; 0x2014 <printf+0x29f>
    21ed: 86 d9        	stx	$d9                     ; 0x20d9 <printf+0x364>
    21ef: 85 da        	sta	$da                     ; 0x20da <printf+0x365>
    21f1: b2 12        	lda	($12)                   ; 0x2012 <printf+0x29d>
    21f3: aa           	tax
    21f4: b1 12        	lda	($12),y                 ; 0x2012 <printf+0x29d>
    21f6: 86 12        	stx	$12                     ; 0x2012 <printf+0x29d>
    21f8: 85 13        	sta	$13                     ; 0x2013 <printf+0x29e>
    21fa: 80 2f        	bra	$222b <printf+0x4b6>
    21fc: a6 15        	ldx	$15                     ; 0x2015 <printf+0x2a0>
    21fe: 86 dd        	stx	$dd                     ; 0x20dd <printf+0x368>
    2200: a6 18        	ldx	$18                     ; 0x2018 <printf+0x2a3>
    2202: 86 e2        	stx	$e2                     ; 0x20e2 <printf+0x36d>
    2204: a0 08        	ldy	#$8
    2206: a2 08        	ldx	#$8
    2208: 80 45        	bra	$224f <printf+0x4da>
    220a: a5 d9        	lda	$d9                     ; 0x20d9 <printf+0x364>
    220c: a6 da        	ldx	$da                     ; 0x20da <printf+0x365>
    220e: 85 12        	sta	$12                     ; 0x2012 <printf+0x29d>
    2210: 86 13        	stx	$13                     ; 0x2013 <printf+0x29e>
    2212: 18           	clc
    2213: 69 02        	adc	#$2
    2215: a8           	tay
    2216: 8a           	txa
    2217: 69 00        	adc	#$0
    2219: 84 d9        	sty	$d9                     ; 0x20d9 <printf+0x364>
    221b: 85 da        	sta	$da                     ; 0x20da <printf+0x365>
    221d: b2 12        	lda	($12)                   ; 0x2012 <printf+0x29d>
    221f: 85 bb        	sta	$bb                     ; 0x20bb <printf+0x346>
    2221: 64 bc        	stz	$bc                     ; 0x20bc <printf+0x347>
    2223: a2 bb        	ldx	#$bb
    2225: 86 12        	stx	$12                     ; 0x2012 <printf+0x29d>
    2227: a2 00        	ldx	#$0
    2229: 86 13        	stx	$13                     ; 0x2013 <printf+0x29e>
    222b: a2 c8        	ldx	#$c8
    222d: 86 14        	stx	$14                     ; 0x2014 <printf+0x29f>
    222f: a2 00        	ldx	#$0
    2231: 86 15        	stx	$15                     ; 0x2015 <printf+0x2a0>
    2233: 20 68 1c     	jsr	$1c68 <_ZN12_GLOBAL__N_112print_stringEPKcP6Status>
    2236: a0 01        	ldy	#$1
    2238: a2 00        	ldx	#$0
    223a: 86 9c        	stx	$9c                     ; 0x209c <printf+0x327>
    223c: a2 00        	ldx	#$0
    223e: 86 9d        	stx	$9d                     ; 0x209d <printf+0x328>
    2240: 4c c8 28     	jmp	$28c8 <printf+0xb53>
    2243: a6 15        	ldx	$15                     ; 0x2015 <printf+0x2a0>
    2245: 86 dd        	stx	$dd                     ; 0x20dd <printf+0x368>
    2247: a6 18        	ldx	$18                     ; 0x2018 <printf+0x2a3>
    2249: 86 e2        	stx	$e2                     ; 0x20e2 <printf+0x36d>
    224b: a0 0a        	ldy	#$a
    224d: a2 0a        	ldx	#$a
    224f: 86 de        	stx	$de                     ; 0x20de <printf+0x369>
    2251: 84 c8        	sty	$c8                     ; 0x20c8 <printf+0x353>
    2253: a9 00        	lda	#$0
    2255: 09 01        	ora	#$1
    2257: a6 99        	ldx	$99                     ; 0x2099 <printf+0x324>
    2259: 86 c9        	stx	$c9                     ; 0x20c9 <printf+0x354>
    225b: 85 a3        	sta	$a3                     ; 0x20a3 <printf+0x32e>
    225d: 85 ca        	sta	$ca                     ; 0x20ca <printf+0x355>
    225f: a5 df        	lda	$df                     ; 0x20df <printf+0x36a>
    2261: 85 bd        	sta	$bd                     ; 0x20bd <printf+0x348>
    2263: a4 d9        	ldy	$d9                     ; 0x20d9 <printf+0x364>
    2265: a6 da        	ldx	$da                     ; 0x20da <printf+0x365>
    2267: 86 a1        	stx	$a1                     ; 0x20a1 <printf+0x32c>
    2269: 84 14        	sty	$14                     ; 0x2014 <printf+0x29f>
    226b: 84 98        	sty	$98                     ; 0x2098 <printf+0x323>
    226d: 86 15        	stx	$15                     ; 0x2015 <printf+0x2a0>
    226f: a6 e0        	ldx	$e0                     ; 0x20e0 <printf+0x36b>
    2271: 86 12        	stx	$12                     ; 0x2012 <printf+0x29d>
    2273: a6 e1        	ldx	$e1                     ; 0x20e1 <printf+0x36c>
    2275: 86 13        	stx	$13                     ; 0x2013 <printf+0x29e>
    2277: a2 00        	ldx	#$0
    2279: 85 9d        	sta	$9d                     ; 0x209d <printf+0x328>
    227b: 20 31 29     	jsr	$2931 <memcpy>
    227e: 18           	clc
    227f: a5 98        	lda	$98                     ; 0x2098 <printf+0x323>
    2281: 65 9c        	adc	$9c                     ; 0x209c <printf+0x327>
    2283: aa           	tax
    2284: a5 a1        	lda	$a1                     ; 0x20a1 <printf+0x32c>
    2286: 69 00        	adc	#$0
    2288: 86 d9        	stx	$d9                     ; 0x20d9 <printf+0x364>
    228a: 85 da        	sta	$da                     ; 0x20da <printf+0x365>
    228c: a5 a3        	lda	$a3                     ; 0x20a3 <printf+0x32e>
    228e: 29 01        	and	#$1
    2290: b8           	clv
    2291: f0 03        	beq	$2296 <printf+0x521>
    2293: 4c ea 22     	jmp	$22ea <printf+0x575>
    2296: a6 9d        	ldx	$9d                     ; 0x209d <printf+0x328>
    2298: b5 bd        	lda	$bd,x                   ; 0x20bd <printf+0x348>
    229a: aa           	tax
    229b: a0 01        	ldy	#$1
    229d: a5 a0        	lda	$a0                     ; 0x20a0 <printf+0x32b>
    229f: 85 1a        	sta	$1a                     ; 0x201a <printf+0x2a5>
    22a1: a5 e2        	lda	$e2                     ; 0x20e2 <printf+0x36d>
    22a3: 85 a0        	sta	$a0                     ; 0x20a0 <printf+0x32b>
    22a5: a9 00        	lda	#$0
    22a7: 85 9c        	sta	$9c                     ; 0x209c <printf+0x327>
    22a9: a9 00        	lda	#$0
    22ab: 85 9d        	sta	$9d                     ; 0x209d <printf+0x328>
    22ad: a5 dd        	lda	$dd                     ; 0x20dd <printf+0x368>
    22af: 85 a1        	sta	$a1                     ; 0x20a1 <printf+0x32c>
    22b1: 8a           	txa
    22b2: 10 4c        	bpl	$2300 <printf+0x58b>
    22b4: a2 00        	ldx	#$0
    22b6: 64 12        	stz	$12                     ; 0x2012 <printf+0x29d>
    22b8: a9 00        	lda	#$0
    22ba: 38           	sec
    22bb: f5 be        	sbc	$be,x                   ; 0x20be <printf+0x349>
    22bd: a0 00        	ldy	#$0
    22bf: b0 02        	bcs	$22c3 <printf+0x54e>
    22c1: a0 01        	ldy	#$1
    22c3: 38           	sec
    22c4: e5 12        	sbc	$12                     ; 0x2012 <printf+0x29d>
    22c6: 85 13        	sta	$13                     ; 0x2013 <printf+0x29e>
    22c8: 64 12        	stz	$12                     ; 0x2012 <printf+0x29d>
    22ca: b0 04        	bcs	$22d0 <printf+0x55b>
    22cc: a9 01        	lda	#$1
    22ce: 85 12        	sta	$12                     ; 0x2012 <printf+0x29d>
    22d0: 98           	tya
    22d1: 05 12        	ora	$12                     ; 0x2012 <printf+0x29d>
    22d3: 85 12        	sta	$12                     ; 0x2012 <printf+0x29d>
    22d5: a5 13        	lda	$13                     ; 0x2013 <printf+0x29e>
    22d7: 9d be 00     	sta	$be,x                   ; 0xbe <__zp_bss_size+0x58>
    22da: e8           	inx
    22db: 86 13        	stx	$13                     ; 0x2013 <printf+0x29e>
    22dd: a4 df        	ldy	$df                     ; 0x20df <printf+0x36a>
    22df: c4 13        	cpy	$13                     ; 0x2013 <printf+0x29e>
    22e1: d0 d5        	bne	$22b8 <printf+0x543>
    22e3: 2c 7d 29     	bit	$297d                   ; 0x297d <__set_v>
    22e6: a0 01        	ldy	#$1
    22e8: 80 16        	bra	$2300 <printf+0x58b>
    22ea: a0 01        	ldy	#$1
    22ec: a6 a0        	ldx	$a0                     ; 0x20a0 <printf+0x32b>
    22ee: 86 1a        	stx	$1a                     ; 0x201a <printf+0x2a5>
    22f0: a6 e2        	ldx	$e2                     ; 0x20e2 <printf+0x36d>
    22f2: 86 a0        	stx	$a0                     ; 0x20a0 <printf+0x32b>
    22f4: a2 00        	ldx	#$0
    22f6: 86 9c        	stx	$9c                     ; 0x209c <printf+0x327>
    22f8: a2 00        	ldx	#$0
    22fa: 86 9d        	stx	$9d                     ; 0x209d <printf+0x328>
    22fc: a6 dd        	ldx	$dd                     ; 0x20dd <printf+0x368>
    22fe: 86 a1        	stx	$a1                     ; 0x20a1 <printf+0x32c>
    2300: a2 01        	ldx	#$1
    2302: 70 02        	bvs	$2306 <printf+0x591>
    2304: a2 00        	ldx	#$0
    2306: 86 16        	stx	$16                     ; 0x2016 <printf+0x2a1>
    2308: a5 df        	lda	$df                     ; 0x20df <printf+0x36a>
    230a: 0a           	asl
    230b: 0a           	asl
    230c: 0a           	asl
    230d: 85 12        	sta	$12                     ; 0x2012 <printf+0x29d>
    230f: a2 00        	ldx	#$0
    2311: 8a           	txa
    2312: 4c c6 23     	jmp	$23c6 <printf+0x651>
    2315: da           	phx
    2316: 7a           	ply
    2317: c8           	iny
    2318: 9d a6 00     	sta	$a6,x                   ; 0xa6 <__zp_bss_size+0x40>
    231b: 5a           	phy
    231c: fa           	plx
    231d: c4 98        	cpy	$98                     ; 0x2098 <printf+0x323>
    231f: f0 30        	beq	$2351 <printf+0x5dc>
    2321: b5 a6        	lda	$a6,x                   ; 0x20a6 <printf+0x331>
    2323: 0a           	asl
    2324: a4 dd        	ldy	$dd                     ; 0x20dd <printf+0x368>
    2326: f0 02        	beq	$232a <printf+0x5b5>
    2328: 09 01        	ora	#$1
    232a: a4 de        	ldy	$de                     ; 0x20de <printf+0x369>
    232c: 84 14        	sty	$14                     ; 0x2014 <printf+0x29f>
    232e: c5 14        	cmp	$14                     ; 0x2014 <printf+0x29f>
    2330: a0 01        	ldy	#$1
    2332: b0 02        	bcs	$2336 <printf+0x5c1>
    2334: a0 00        	ldy	#$0
    2336: 84 dd        	sty	$dd                     ; 0x20dd <printf+0x368>
    2338: 90 db        	bcc	$2315 <printf+0x5a0>
    233a: 38           	sec
    233b: e5 14        	sbc	$14                     ; 0x2014 <printf+0x29f>
    233d: 9d a6 00     	sta	$a6,x                   ; 0xa6 <__zp_bss_size+0x40>
    2340: e8           	inx
    2341: e4 98        	cpx	$98                     ; 0x2098 <printf+0x323>
    2343: d0 dc        	bne	$2321 <printf+0x5ac>
    2345: a4 98        	ldy	$98                     ; 0x2098 <printf+0x323>
    2347: a6 98        	ldx	$98                     ; 0x2098 <printf+0x323>
    2349: e8           	inx
    234a: a9 01        	lda	#$1
    234c: 99 a6 00     	sta	$a6,y                   ; 0xa6 <__zp_bss_size+0x40>
    234f: 86 98        	stx	$98                     ; 0x2098 <printf+0x323>
    2351: a6 df        	ldx	$df                     ; 0x20df <printf+0x36a>
    2353: b5 bd        	lda	$bd,x                   ; 0x20bd <printf+0x348>
    2355: aa           	tax
    2356: 30 0f        	bmi	$2367 <printf+0x5f2>
    2358: a0 01        	ldy	#$1
    235a: 80 42        	bra	$239e <printf+0x629>
    235c: a6 df        	ldx	$df                     ; 0x20df <printf+0x36a>
    235e: b5 bd        	lda	$bd,x                   ; 0x20bd <printf+0x348>
    2360: aa           	tax
    2361: 64 98        	stz	$98                     ; 0x2098 <printf+0x323>
    2363: 10 39        	bpl	$239e <printf+0x629>
    2365: 80 2a        	bra	$2391 <printf+0x61c>
    2367: a5 98        	lda	$98                     ; 0x2098 <printf+0x323>
    2369: f0 24        	beq	$238f <printf+0x61a>
    236b: a2 00        	ldx	#$0
    236d: a4 de        	ldy	$de                     ; 0x20de <printf+0x369>
    236f: 84 14        	sty	$14                     ; 0x2014 <printf+0x29f>
    2371: b5 a6        	lda	$a6,x                   ; 0x20a6 <printf+0x331>
    2373: 1a           	inc
    2374: f6 a6        	inc	$a6,x                   ; 0x20a6 <printf+0x331>
    2376: c5 14        	cmp	$14                     ; 0x2014 <printf+0x29f>
    2378: 90 de        	bcc	$2358 <printf+0x5e3>
    237a: a4 14        	ldy	$14                     ; 0x2014 <printf+0x29f>
    237c: 84 13        	sty	$13                     ; 0x2013 <printf+0x29e>
    237e: 38           	sec
    237f: e5 13        	sbc	$13                     ; 0x2013 <printf+0x29e>
    2381: 9d a6 00     	sta	$a6,x                   ; 0xa6 <__zp_bss_size+0x40>
    2384: e8           	inx
    2385: 86 13        	stx	$13                     ; 0x2013 <printf+0x29e>
    2387: a4 98        	ldy	$98                     ; 0x2098 <printf+0x323>
    2389: c4 13        	cpy	$13                     ; 0x2013 <printf+0x29e>
    238b: d0 e4        	bne	$2371 <printf+0x5fc>
    238d: 80 02        	bra	$2391 <printf+0x61c>
    238f: 64 98        	stz	$98                     ; 0x2098 <printf+0x323>
    2391: a4 98        	ldy	$98                     ; 0x2098 <printf+0x323>
    2393: a6 98        	ldx	$98                     ; 0x2098 <printf+0x323>
    2395: e8           	inx
    2396: a9 01        	lda	#$1
    2398: 99 a6 00     	sta	$a6,y                   ; 0xa6 <__zp_bss_size+0x40>
    239b: a8           	tay
    239c: 86 98        	stx	$98                     ; 0x2098 <printf+0x323>
    239e: a2 01        	ldx	#$1
    23a0: 64 13        	stz	$13                     ; 0x2013 <printf+0x29e>
    23a2: a5 df        	lda	$df                     ; 0x20df <printf+0x36a>
    23a4: 85 14        	sta	$14                     ; 0x2014 <printf+0x29f>
    23a6: b5 bd        	lda	$bd,x                   ; 0x20bd <printf+0x348>
    23a8: 0a           	asl
    23a9: 64 15        	stz	$15                     ; 0x2015 <printf+0x2a0>
    23ab: 26 15        	rol	$15                     ; 0x2015 <printf+0x2a0>
    23ad: 05 13        	ora	$13                     ; 0x2013 <printf+0x29e>
    23af: 9d bd 00     	sta	$bd,x                   ; 0xbd <__zp_bss_size+0x57>
    23b2: e8           	inx
    23b3: c6 14        	dec	$14                     ; 0x2014 <printf+0x29f>
    23b5: a5 15        	lda	$15                     ; 0x2015 <printf+0x2a0>
    23b7: 85 13        	sta	$13                     ; 0x2013 <printf+0x29e>
    23b9: a5 14        	lda	$14                     ; 0x2014 <printf+0x29f>
    23bb: d0 e9        	bne	$23a6 <printf+0x631>
    23bd: a5 17        	lda	$17                     ; 0x2017 <printf+0x2a2>
    23bf: 1a           	inc
    23c0: c5 12        	cmp	$12                     ; 0x2012 <printf+0x29d>
    23c2: a6 98        	ldx	$98                     ; 0x2098 <printf+0x323>
    23c4: b0 13        	bcs	$23d9 <printf+0x664>
    23c6: 85 17        	sta	$17                     ; 0x2017 <printf+0x2a2>
    23c8: 8a           	txa
    23c9: d0 03        	bne	$23ce <printf+0x659>
    23cb: 4c 5c 23     	jmp	$235c <printf+0x5e7>
    23ce: 86 98        	stx	$98                     ; 0x2098 <printf+0x323>
    23d0: a2 00        	ldx	#$0
    23d2: 86 dd        	stx	$dd                     ; 0x20dd <printf+0x368>
    23d4: a2 00        	ldx	#$0
    23d6: 4c 21 23     	jmp	$2321 <printf+0x5ac>
    23d9: a5 99        	lda	$99                     ; 0x2099 <printf+0x324>
    23db: e6 a1        	inc	$a1                     ; 0x20a1 <printf+0x32c>
    23dd: c6 a1        	dec	$a1                     ; 0x20a1 <printf+0x32c>
    23df: 10 08        	bpl	$23e9 <printf+0x674>
    23e1: a2 01        	ldx	#$1
    23e3: 64 a1        	stz	$a1                     ; 0x20a1 <printf+0x32c>
    23e5: 86 a0        	stx	$a0                     ; 0x20a0 <printf+0x32b>
    23e7: a6 98        	ldx	$98                     ; 0x2098 <printf+0x323>
    23e9: 29 04        	and	#$4
    23eb: f0 2b        	beq	$2418 <printf+0x6a3>
    23ed: a5 de        	lda	$de                     ; 0x20de <printf+0x369>
    23ef: c9 10        	cmp	#$10
    23f1: f0 14        	beq	$2407 <printf+0x692>
    23f3: c9 08        	cmp	#$8
    23f5: d0 21        	bne	$2418 <printf+0x6a3>
    23f7: a2 00        	ldx	#$0
    23f9: e4 a1        	cpx	$a1                     ; 0x20a1 <printf+0x32c>
    23fb: f0 03        	beq	$2400 <printf+0x68b>
    23fd: 4c ed 28     	jmp	$28ed <printf+0xb78>
    2400: a6 98        	ldx	$98                     ; 0x2098 <printf+0x323>
    2402: e4 a0        	cpx	$a0                     ; 0x20a0 <printf+0x32b>
    2404: 4c ef 28     	jmp	$28ef <printf+0xb7a>
    2407: 8a           	txa
    2408: f0 0e        	beq	$2418 <printf+0x6a3>
    240a: a5 99        	lda	$99                     ; 0x2099 <printf+0x324>
    240c: 29 80        	and	#$80
    240e: d0 03        	bne	$2413 <printf+0x69e>
    2410: 4c 08 29     	jmp	$2908 <printf+0xb93>
    2413: a2 78        	ldx	#$78
    2415: 4c 0a 29     	jmp	$290a <printf+0xb95>
    2418: a6 99        	ldx	$99                     ; 0x2099 <printf+0x324>
    241a: a9 2d        	lda	#$2d
    241c: 85 df        	sta	$df                     ; 0x20df <printf+0x36a>
    241e: a5 16        	lda	$16                     ; 0x2016 <printf+0x2a1>
    2420: d0 32        	bne	$2454 <printf+0x6df>
    2422: 86 12        	stx	$12                     ; 0x2012 <printf+0x29d>
    2424: 8a           	txa
    2425: 29 02        	and	#$2
    2427: a2 2b        	ldx	#$2b
    2429: 86 df        	stx	$df                     ; 0x20df <printf+0x36a>
    242b: aa           	tax
    242c: d0 26        	bne	$2454 <printf+0x6df>
    242e: a5 12        	lda	$12                     ; 0x2012 <printf+0x29d>
    2430: 29 08        	and	#$8
    2432: d0 1c        	bne	$2450 <printf+0x6db>
    2434: a2 01        	ldx	#$1
    2436: 86 de        	stx	$de                     ; 0x20de <printf+0x369>
    2438: a9 00        	lda	#$0
    243a: aa           	tax
    243b: 86 dd        	stx	$dd                     ; 0x20dd <printf+0x368>
    243d: 80 1c        	bra	$245b <printf+0x6e6>
    243f: 85 12        	sta	$12                     ; 0x2012 <printf+0x29d>
    2441: a9 04        	lda	#$4
    2443: 80 04        	bra	$2449 <printf+0x6d4>
    2445: 85 12        	sta	$12                     ; 0x2012 <printf+0x29d>
    2447: a9 02        	lda	#$2
    2449: 85 df        	sta	$df                     ; 0x20df <printf+0x36a>
    244b: a5 12        	lda	$12                     ; 0x2012 <printf+0x29d>
    244d: 4c 1c 21     	jmp	$211c <printf+0x3a7>
    2450: a2 20        	ldx	#$20
    2452: 86 df        	stx	$df                     ; 0x20df <printf+0x36a>
    2454: a2 00        	ldx	#$0
    2456: 86 de        	stx	$de                     ; 0x20de <printf+0x369>
    2458: 86 dd        	stx	$dd                     ; 0x20dd <printf+0x368>
    245a: 98           	tya
    245b: a6 a1        	ldx	$a1                     ; 0x20a1 <printf+0x32c>
    245d: d0 35        	bne	$2494 <printf+0x71f>
    245f: a6 a0        	ldx	$a0                     ; 0x20a0 <printf+0x32b>
    2461: a4 98        	ldy	$98                     ; 0x2098 <printf+0x323>
    2463: 84 12        	sty	$12                     ; 0x2012 <printf+0x29d>
    2465: e4 12        	cpx	$12                     ; 0x2012 <printf+0x29d>
    2467: a6 a0        	ldx	$a0                     ; 0x20a0 <printf+0x32b>
    2469: 86 12        	stx	$12                     ; 0x2012 <printf+0x29d>
    246b: a6 a1        	ldx	$a1                     ; 0x20a1 <printf+0x32c>
    246d: 86 13        	stx	$13                     ; 0x2013 <printf+0x29e>
    246f: b0 04        	bcs	$2475 <printf+0x700>
    2471: 84 12        	sty	$12                     ; 0x2012 <printf+0x29d>
    2473: 64 13        	stz	$13                     ; 0x2013 <printf+0x29e>
    2475: 85 18        	sta	$18                     ; 0x2018 <printf+0x2a3>
    2477: 18           	clc
    2478: 65 12        	adc	$12                     ; 0x2012 <printf+0x29d>
    247a: 85 16        	sta	$16                     ; 0x2016 <printf+0x2a1>
    247c: 85 14        	sta	$14                     ; 0x2014 <printf+0x29f>
    247e: a5 13        	lda	$13                     ; 0x2013 <printf+0x29e>
    2480: 69 00        	adc	#$0
    2482: 85 15        	sta	$15                     ; 0x2015 <printf+0x2a0>
    2484: c5 1a        	cmp	$1a                     ; 0x201a <printf+0x2a5>
    2486: d0 1e        	bne	$24a6 <printf+0x731>
    2488: a6 1a        	ldx	$1a                     ; 0x201a <printf+0x2a5>
    248a: 86 17        	stx	$17                     ; 0x2017 <printf+0x2a2>
    248c: a6 a2        	ldx	$a2                     ; 0x20a2 <printf+0x32d>
    248e: a5 16        	lda	$16                     ; 0x2016 <printf+0x2a1>
    2490: c5 a2        	cmp	$a2                     ; 0x20a2 <printf+0x32d>
    2492: 80 1c        	bra	$24b0 <printf+0x73b>
    2494: a6 a1        	ldx	$a1                     ; 0x20a1 <printf+0x32c>
    2496: e0 00        	cpx	#$0
    2498: a6 a0        	ldx	$a0                     ; 0x20a0 <printf+0x32b>
    249a: 86 12        	stx	$12                     ; 0x2012 <printf+0x29d>
    249c: a6 a1        	ldx	$a1                     ; 0x20a1 <printf+0x32c>
    249e: 86 13        	stx	$13                     ; 0x2013 <printf+0x29e>
    24a0: a4 98        	ldy	$98                     ; 0x2098 <printf+0x323>
    24a2: 90 cd        	bcc	$2471 <printf+0x6fc>
    24a4: 80 cf        	bra	$2475 <printf+0x700>
    24a6: a6 a2        	ldx	$a2                     ; 0x20a2 <printf+0x32d>
    24a8: 5a           	phy
    24a9: a4 1a        	ldy	$1a                     ; 0x201a <printf+0x2a5>
    24ab: 84 17        	sty	$17                     ; 0x2017 <printf+0x2a2>
    24ad: 7a           	ply
    24ae: c5 1a        	cmp	$1a                     ; 0x201a <printf+0x2a5>
    24b0: 64 a3        	stz	$a3                     ; 0x20a3 <printf+0x32e>
    24b2: 64 a2        	stz	$a2                     ; 0x20a2 <printf+0x32d>
    24b4: 90 03        	bcc	$24b9 <printf+0x744>
    24b6: 4c 4c 25     	jmp	$254c <printf+0x7d7>
    24b9: a5 99        	lda	$99                     ; 0x2099 <printf+0x324>
    24bb: 29 11        	and	#$11
    24bd: 86 16        	stx	$16                     ; 0x2016 <printf+0x2a1>
    24bf: f0 0f        	beq	$24d0 <printf+0x75b>
    24c1: 8a           	txa
    24c2: 38           	sec
    24c3: e5 14        	sbc	$14                     ; 0x2014 <printf+0x29f>
    24c5: 85 a3        	sta	$a3                     ; 0x20a3 <printf+0x32e>
    24c7: a5 1a        	lda	$1a                     ; 0x201a <printf+0x2a5>
    24c9: e5 15        	sbc	$15                     ; 0x2015 <printf+0x2a0>
    24cb: 85 a2        	sta	$a2                     ; 0x20a2 <printf+0x32d>
    24cd: 4c 4c 25     	jmp	$254c <printf+0x7d7>
    24d0: a6 cd        	ldx	$cd                     ; 0x20cd <printf+0x358>
    24d2: 86 14        	stx	$14                     ; 0x2014 <printf+0x29f>
    24d4: 38           	sec
    24d5: a5 18        	lda	$18                     ; 0x2018 <printf+0x2a3>
    24d7: e5 16        	sbc	$16                     ; 0x2016 <printf+0x2a1>
    24d9: aa           	tax
    24da: a9 00        	lda	#$0
    24dc: e5 17        	sbc	$17                     ; 0x2017 <printf+0x2a2>
    24de: a8           	tay
    24df: 18           	clc
    24e0: 8a           	txa
    24e1: 65 12        	adc	$12                     ; 0x2012 <printf+0x29d>
    24e3: 85 99        	sta	$99                     ; 0x2099 <printf+0x324>
    24e5: 98           	tya
    24e6: 65 13        	adc	$13                     ; 0x2013 <printf+0x29e>
    24e8: a4 ce        	ldy	$ce                     ; 0x20ce <printf+0x359>
    24ea: 80 47        	bra	$2533 <printf+0x7be>
    24ec: c4 cc        	cpy	$cc                     ; 0x20cc <printf+0x357>
    24ee: b0 25        	bcs	$2515 <printf+0x7a0>
    24f0: a6 d8        	ldx	$d8                     ; 0x20d8 <printf+0x363>
    24f2: e4 9d        	cpx	$9d                     ; 0x209d <printf+0x328>
    24f4: d0 18        	bne	$250e <printf+0x799>
    24f6: a6 d7        	ldx	$d7                     ; 0x20d7 <printf+0x362>
    24f8: e4 9c        	cpx	$9c                     ; 0x209c <printf+0x327>
    24fa: d0 12        	bne	$250e <printf+0x799>
    24fc: 18           	clc
    24fd: a5 14        	lda	$14                     ; 0x2014 <printf+0x29f>
    24ff: 65 d1        	adc	$d1                     ; 0x20d1 <printf+0x35c>
    2501: 85 12        	sta	$12                     ; 0x2012 <printf+0x29d>
    2503: 98           	tya
    2504: 65 d2        	adc	$d2                     ; 0x20d2 <printf+0x35d>
    2506: 85 13        	sta	$13                     ; 0x2013 <printf+0x29e>
    2508: a9 20        	lda	#$20
    250a: 92 12        	sta	($12)                   ; 0x2012 <printf+0x29d>
    250c: 80 05        	bra	$2513 <printf+0x79e>
    250e: a9 20        	lda	#$20
    2510: 20 d8 19     	jsr	$19d8 <__putchar>
    2513: a5 a2        	lda	$a2                     ; 0x20a2 <printf+0x32d>
    2515: a6 cd        	ldx	$cd                     ; 0x20cd <printf+0x358>
    2517: a4 ce        	ldy	$ce                     ; 0x20ce <printf+0x359>
    2519: e8           	inx
    251a: d0 01        	bne	$251d <printf+0x7a8>
    251c: c8           	iny
    251d: 86 14        	stx	$14                     ; 0x2014 <printf+0x29f>
    251f: 86 cd        	stx	$cd                     ; 0x20cd <printf+0x358>
    2521: 84 ce        	sty	$ce                     ; 0x20ce <printf+0x359>
    2523: a6 99        	ldx	$99                     ; 0x2099 <printf+0x324>
    2525: e8           	inx
    2526: d0 01        	bne	$2529 <printf+0x7b4>
    2528: 1a           	inc
    2529: 86 99        	stx	$99                     ; 0x2099 <printf+0x324>
    252b: c9 00        	cmp	#$0
    252d: d0 04        	bne	$2533 <printf+0x7be>
    252f: e0 00        	cpx	#$0
    2531: f0 13        	beq	$2546 <printf+0x7d1>
    2533: 85 a2        	sta	$a2                     ; 0x20a2 <printf+0x32d>
    2535: c4 cc        	cpy	$cc                     ; 0x20cc <printf+0x357>
    2537: d0 b3        	bne	$24ec <printf+0x777>
    2539: a6 cb        	ldx	$cb                     ; 0x20cb <printf+0x356>
    253b: 86 12        	stx	$12                     ; 0x2012 <printf+0x29d>
    253d: a6 14        	ldx	$14                     ; 0x2014 <printf+0x29f>
    253f: e4 12        	cpx	$12                     ; 0x2012 <printf+0x29d>
    2541: b0 d2        	bcs	$2515 <printf+0x7a0>
    2543: 4c f0 24     	jmp	$24f0 <printf+0x77b>
    2546: 64 a3        	stz	$a3                     ; 0x20a3 <printf+0x32e>
    2548: 64 a2        	stz	$a2                     ; 0x20a2 <printf+0x32d>
    254a: a4 98        	ldy	$98                     ; 0x2098 <printf+0x323>
    254c: a6 de        	ldx	$de                     ; 0x20de <printf+0x369>
    254e: d0 4d        	bne	$259d <printf+0x828>
    2550: a6 cd        	ldx	$cd                     ; 0x20cd <printf+0x358>
    2552: a5 ce        	lda	$ce                     ; 0x20ce <printf+0x359>
    2554: c5 cc        	cmp	$cc                     ; 0x20cc <printf+0x357>
    2556: d0 10        	bne	$2568 <printf+0x7f3>
    2558: 86 13        	stx	$13                     ; 0x2013 <printf+0x29e>
    255a: a6 cb        	ldx	$cb                     ; 0x20cb <printf+0x356>
    255c: 86 12        	stx	$12                     ; 0x2012 <printf+0x29d>
    255e: a4 98        	ldy	$98                     ; 0x2098 <printf+0x323>
    2560: a6 13        	ldx	$13                     ; 0x2013 <printf+0x29e>
    2562: e4 12        	cpx	$12                     ; 0x2012 <printf+0x29d>
    2564: 90 08        	bcc	$256e <printf+0x7f9>
    2566: 80 2f        	bra	$2597 <printf+0x822>
    2568: 86 13        	stx	$13                     ; 0x2013 <printf+0x29e>
    256a: c5 cc        	cmp	$cc                     ; 0x20cc <printf+0x357>
    256c: b0 29        	bcs	$2597 <printf+0x822>
    256e: a6 d8        	ldx	$d8                     ; 0x20d8 <printf+0x363>
    2570: e4 9d        	cpx	$9d                     ; 0x209d <printf+0x328>
    2572: d0 1c        	bne	$2590 <printf+0x81b>
    2574: a6 d7        	ldx	$d7                     ; 0x20d7 <printf+0x362>
    2576: e4 9c        	cpx	$9c                     ; 0x209c <printf+0x327>
    2578: d0 16        	bne	$2590 <printf+0x81b>
    257a: 18           	clc
    257b: 85 12        	sta	$12                     ; 0x2012 <printf+0x29d>
    257d: a5 13        	lda	$13                     ; 0x2013 <printf+0x29e>
    257f: 65 d1        	adc	$d1                     ; 0x20d1 <printf+0x35c>
    2581: aa           	tax
    2582: a5 12        	lda	$12                     ; 0x2012 <printf+0x29d>
    2584: 65 d2        	adc	$d2                     ; 0x20d2 <printf+0x35d>
    2586: 86 12        	stx	$12                     ; 0x2012 <printf+0x29d>
    2588: 85 13        	sta	$13                     ; 0x2013 <printf+0x29e>
    258a: a5 df        	lda	$df                     ; 0x20df <printf+0x36a>
    258c: 92 12        	sta	($12)                   ; 0x2012 <printf+0x29d>
    258e: 80 05        	bra	$2595 <printf+0x820>
    2590: a5 df        	lda	$df                     ; 0x20df <printf+0x36a>
    2592: 20 d8 19     	jsr	$19d8 <__putchar>
    2595: a4 98        	ldy	$98                     ; 0x2098 <printf+0x323>
    2597: e6 cd        	inc	$cd                     ; 0x20cd <printf+0x358>
    2599: d0 02        	bne	$259d <printf+0x828>
    259b: e6 ce        	inc	$ce                     ; 0x20ce <printf+0x359>
    259d: a6 dd        	ldx	$dd                     ; 0x20dd <printf+0x368>
    259f: f0 4d        	beq	$25ee <printf+0x879>
    25a1: a6 cd        	ldx	$cd                     ; 0x20cd <printf+0x358>
    25a3: a5 ce        	lda	$ce                     ; 0x20ce <printf+0x359>
    25a5: c5 cc        	cmp	$cc                     ; 0x20cc <printf+0x357>
    25a7: d0 10        	bne	$25b9 <printf+0x844>
    25a9: 86 13        	stx	$13                     ; 0x2013 <printf+0x29e>
    25ab: a6 cb        	ldx	$cb                     ; 0x20cb <printf+0x356>
    25ad: 86 12        	stx	$12                     ; 0x2012 <printf+0x29d>
    25af: a4 98        	ldy	$98                     ; 0x2098 <printf+0x323>
    25b1: a6 13        	ldx	$13                     ; 0x2013 <printf+0x29e>
    25b3: e4 12        	cpx	$12                     ; 0x2012 <printf+0x29d>
    25b5: 90 08        	bcc	$25bf <printf+0x84a>
    25b7: 80 2f        	bra	$25e8 <printf+0x873>
    25b9: 86 13        	stx	$13                     ; 0x2013 <printf+0x29e>
    25bb: c5 cc        	cmp	$cc                     ; 0x20cc <printf+0x357>
    25bd: b0 29        	bcs	$25e8 <printf+0x873>
    25bf: a6 d8        	ldx	$d8                     ; 0x20d8 <printf+0x363>
    25c1: e4 9d        	cpx	$9d                     ; 0x209d <printf+0x328>
    25c3: d0 1c        	bne	$25e1 <printf+0x86c>
    25c5: a6 d7        	ldx	$d7                     ; 0x20d7 <printf+0x362>
    25c7: e4 9c        	cpx	$9c                     ; 0x209c <printf+0x327>
    25c9: d0 16        	bne	$25e1 <printf+0x86c>
    25cb: 18           	clc
    25cc: 85 12        	sta	$12                     ; 0x2012 <printf+0x29d>
    25ce: a5 13        	lda	$13                     ; 0x2013 <printf+0x29e>
    25d0: 65 d1        	adc	$d1                     ; 0x20d1 <printf+0x35c>
    25d2: aa           	tax
    25d3: a5 12        	lda	$12                     ; 0x2012 <printf+0x29d>
    25d5: 65 d2        	adc	$d2                     ; 0x20d2 <printf+0x35d>
    25d7: 86 12        	stx	$12                     ; 0x2012 <printf+0x29d>
    25d9: 85 13        	sta	$13                     ; 0x2013 <printf+0x29e>
    25db: a5 e2        	lda	$e2                     ; 0x20e2 <printf+0x36d>
    25dd: 92 12        	sta	($12)                   ; 0x2012 <printf+0x29d>
    25df: 80 05        	bra	$25e6 <printf+0x871>
    25e1: a5 e2        	lda	$e2                     ; 0x20e2 <printf+0x36d>
    25e3: 20 d8 19     	jsr	$19d8 <__putchar>
    25e6: a4 98        	ldy	$98                     ; 0x2098 <printf+0x323>
    25e8: e6 cd        	inc	$cd                     ; 0x20cd <printf+0x358>
    25ea: d0 02        	bne	$25ee <printf+0x879>
    25ec: e6 ce        	inc	$ce                     ; 0x20ce <printf+0x359>
    25ee: a9 10        	lda	#$10
    25f0: 25 c9        	and	$c9                     ; 0x20c9 <printf+0x354>
    25f2: d0 03        	bne	$25f7 <printf+0x882>
    25f4: 4c 7f 26     	jmp	$267f <printf+0x90a>
    25f7: a5 c9        	lda	$c9                     ; 0x20c9 <printf+0x354>
    25f9: 29 01        	and	#$1
    25fb: 29 01        	and	#$1
    25fd: f0 03        	beq	$2602 <printf+0x88d>
    25ff: 4c 7f 26     	jmp	$267f <printf+0x90a>
    2602: a6 a3        	ldx	$a3                     ; 0x20a3 <printf+0x32e>
    2604: a5 a2        	lda	$a2                     ; 0x20a2 <printf+0x32d>
    2606: d0 06        	bne	$260e <printf+0x899>
    2608: 8a           	txa
    2609: d0 03        	bne	$260e <printf+0x899>
    260b: 4c 1d 29     	jmp	$291d <printf+0xba8>
    260e: a6 cd        	ldx	$cd                     ; 0x20cd <printf+0x358>
    2610: 86 13        	stx	$13                     ; 0x2013 <printf+0x29e>
    2612: a5 ce        	lda	$ce                     ; 0x20ce <printf+0x359>
    2614: 80 4f        	bra	$2665 <printf+0x8f0>
    2616: c5 cc        	cmp	$cc                     ; 0x20cc <printf+0x357>
    2618: b0 24        	bcs	$263e <printf+0x8c9>
    261a: a6 d8        	ldx	$d8                     ; 0x20d8 <printf+0x363>
    261c: e4 9d        	cpx	$9d                     ; 0x209d <printf+0x328>
    261e: d0 19        	bne	$2639 <printf+0x8c4>
    2620: a6 d7        	ldx	$d7                     ; 0x20d7 <printf+0x362>
    2622: e4 9c        	cpx	$9c                     ; 0x209c <printf+0x327>
    2624: d0 13        	bne	$2639 <printf+0x8c4>
    2626: 18           	clc
    2627: aa           	tax
    2628: a5 13        	lda	$13                     ; 0x2013 <printf+0x29e>
    262a: 65 d1        	adc	$d1                     ; 0x20d1 <printf+0x35c>
    262c: 85 12        	sta	$12                     ; 0x2012 <printf+0x29d>
    262e: 8a           	txa
    262f: 65 d2        	adc	$d2                     ; 0x20d2 <printf+0x35d>
    2631: 85 13        	sta	$13                     ; 0x2013 <printf+0x29e>
    2633: a9 30        	lda	#$30
    2635: 92 12        	sta	($12)                   ; 0x2012 <printf+0x29d>
    2637: 80 05        	bra	$263e <printf+0x8c9>
    2639: a9 30        	lda	#$30
    263b: 20 d8 19     	jsr	$19d8 <__putchar>
    263e: a6 cd        	ldx	$cd                     ; 0x20cd <printf+0x358>
    2640: a5 ce        	lda	$ce                     ; 0x20ce <printf+0x359>
    2642: e8           	inx
    2643: d0 01        	bne	$2646 <printf+0x8d1>
    2645: 1a           	inc
    2646: 86 13        	stx	$13                     ; 0x2013 <printf+0x29e>
    2648: 86 cd        	stx	$cd                     ; 0x20cd <printf+0x358>
    264a: 85 ce        	sta	$ce                     ; 0x20ce <printf+0x359>
    264c: a4 a3        	ldy	$a3                     ; 0x20a3 <printf+0x32e>
    264e: a6 a2        	ldx	$a2                     ; 0x20a2 <printf+0x32d>
    2650: 86 12        	stx	$12                     ; 0x2012 <printf+0x29d>
    2652: 88           	dey
    2653: c0 ff        	cpy	#$ff
    2655: d0 02        	bne	$2659 <printf+0x8e4>
    2657: c6 12        	dec	$12                     ; 0x2012 <printf+0x29d>
    2659: 84 a3        	sty	$a3                     ; 0x20a3 <printf+0x32e>
    265b: a6 12        	ldx	$12                     ; 0x2012 <printf+0x29d>
    265d: 86 a2        	stx	$a2                     ; 0x20a2 <printf+0x32d>
    265f: d0 04        	bne	$2665 <printf+0x8f0>
    2661: c0 00        	cpy	#$0
    2663: f0 14        	beq	$2679 <printf+0x904>
    2665: c5 cc        	cmp	$cc                     ; 0x20cc <printf+0x357>
    2667: f0 03        	beq	$266c <printf+0x8f7>
    2669: 4c 16 26     	jmp	$2616 <printf+0x8a1>
    266c: a6 cb        	ldx	$cb                     ; 0x20cb <printf+0x356>
    266e: 86 12        	stx	$12                     ; 0x2012 <printf+0x29d>
    2670: a6 13        	ldx	$13                     ; 0x2013 <printf+0x29e>
    2672: e4 12        	cpx	$12                     ; 0x2012 <printf+0x29d>
    2674: b0 c8        	bcs	$263e <printf+0x8c9>
    2676: 4c 1a 26     	jmp	$261a <printf+0x8a5>
    2679: 64 a3        	stz	$a3                     ; 0x20a3 <printf+0x32e>
    267b: 64 a2        	stz	$a2                     ; 0x20a2 <printf+0x32d>
    267d: a4 98        	ldy	$98                     ; 0x2098 <printf+0x323>
    267f: a2 00        	ldx	#$0
    2681: e4 a1        	cpx	$a1                     ; 0x20a1 <printf+0x32c>
    2683: d0 07        	bne	$268c <printf+0x917>
    2685: c4 a0        	cpy	$a0                     ; 0x20a0 <printf+0x32b>
    2687: 90 0a        	bcc	$2693 <printf+0x91e>
    2689: 4c 01 27     	jmp	$2701 <printf+0x98c>
    268c: e4 a1        	cpx	$a1                     ; 0x20a1 <printf+0x32c>
    268e: 90 03        	bcc	$2693 <printf+0x91e>
    2690: 4c 01 27     	jmp	$2701 <printf+0x98c>
    2693: a6 cd        	ldx	$cd                     ; 0x20cd <printf+0x358>
    2695: 86 13        	stx	$13                     ; 0x2013 <printf+0x29e>
    2697: a5 ce        	lda	$ce                     ; 0x20ce <printf+0x359>
    2699: a2 ff        	ldx	#$ff
    269b: c6 a0        	dec	$a0                     ; 0x20a0 <printf+0x32b>
    269d: e4 a0        	cpx	$a0                     ; 0x20a0 <printf+0x32b>
    269f: d0 02        	bne	$26a3 <printf+0x92e>
    26a1: c6 a1        	dec	$a1                     ; 0x20a1 <printf+0x32c>
    26a3: c5 cc        	cmp	$cc                     ; 0x20cc <printf+0x357>
    26a5: d0 0c        	bne	$26b3 <printf+0x93e>
    26a7: a6 cb        	ldx	$cb                     ; 0x20cb <printf+0x356>
    26a9: 86 12        	stx	$12                     ; 0x2012 <printf+0x29d>
    26ab: a6 13        	ldx	$13                     ; 0x2013 <printf+0x29e>
    26ad: e4 12        	cpx	$12                     ; 0x2012 <printf+0x29d>
    26af: 90 06        	bcc	$26b7 <printf+0x942>
    26b1: 80 28        	bra	$26db <printf+0x966>
    26b3: c5 cc        	cmp	$cc                     ; 0x20cc <printf+0x357>
    26b5: b0 24        	bcs	$26db <printf+0x966>
    26b7: a6 d8        	ldx	$d8                     ; 0x20d8 <printf+0x363>
    26b9: e4 9d        	cpx	$9d                     ; 0x209d <printf+0x328>
    26bb: d0 19        	bne	$26d6 <printf+0x961>
    26bd: a6 d7        	ldx	$d7                     ; 0x20d7 <printf+0x362>
    26bf: e4 9c        	cpx	$9c                     ; 0x209c <printf+0x327>
    26c1: d0 13        	bne	$26d6 <printf+0x961>
    26c3: 18           	clc
    26c4: aa           	tax
    26c5: a5 13        	lda	$13                     ; 0x2013 <printf+0x29e>
    26c7: 65 d1        	adc	$d1                     ; 0x20d1 <printf+0x35c>
    26c9: 85 12        	sta	$12                     ; 0x2012 <printf+0x29d>
    26cb: 8a           	txa
    26cc: 65 d2        	adc	$d2                     ; 0x20d2 <printf+0x35d>
    26ce: 85 13        	sta	$13                     ; 0x2013 <printf+0x29e>
    26d0: a9 30        	lda	#$30
    26d2: 92 12        	sta	($12)                   ; 0x2012 <printf+0x29d>
    26d4: 80 05        	bra	$26db <printf+0x966>
    26d6: a9 30        	lda	#$30
    26d8: 20 d8 19     	jsr	$19d8 <__putchar>
    26db: a6 cd        	ldx	$cd                     ; 0x20cd <printf+0x358>
    26dd: a5 ce        	lda	$ce                     ; 0x20ce <printf+0x359>
    26df: e8           	inx
    26e0: d0 01        	bne	$26e3 <printf+0x96e>
    26e2: 1a           	inc
    26e3: 86 13        	stx	$13                     ; 0x2013 <printf+0x29e>
    26e5: 86 cd        	stx	$cd                     ; 0x20cd <printf+0x358>
    26e7: 85 ce        	sta	$ce                     ; 0x20ce <printf+0x359>
    26e9: a2 00        	ldx	#$0
    26eb: e4 a1        	cpx	$a1                     ; 0x20a1 <printf+0x32c>
    26ed: d0 09        	bne	$26f8 <printf+0x983>
    26ef: a4 98        	ldy	$98                     ; 0x2098 <printf+0x323>
    26f1: c4 a0        	cpy	$a0                     ; 0x20a0 <printf+0x32b>
    26f3: b0 0c        	bcs	$2701 <printf+0x98c>
    26f5: 4c 99 26     	jmp	$2699 <printf+0x924>
    26f8: e4 a1        	cpx	$a1                     ; 0x20a1 <printf+0x32c>
    26fa: a4 98        	ldy	$98                     ; 0x2098 <printf+0x323>
    26fc: b0 03        	bcs	$2701 <printf+0x98c>
    26fe: 4c 99 26     	jmp	$2699 <printf+0x924>
    2701: 98           	tya
    2702: d0 03        	bne	$2707 <printf+0x992>
    2704: 4c f6 27     	jmp	$27f6 <printf+0xa81>
    2707: 88           	dey
    2708: d0 03        	bne	$270d <printf+0x998>
    270a: 4c 95 27     	jmp	$2795 <printf+0xa20>
    270d: 84 a0        	sty	$a0                     ; 0x20a0 <printf+0x32b>
    270f: a6 e3        	ldx	$e3                     ; 0x20e3 <printf+0x36e>
    2711: 8a           	txa
    2712: 18           	clc
    2713: 65 a0        	adc	$a0                     ; 0x20a0 <printf+0x32b>
    2715: 85 98        	sta	$98                     ; 0x2098 <printf+0x323>
    2717: a5 e4        	lda	$e4                     ; 0x20e4 <printf+0x36f>
    2719: 69 00        	adc	#$0
    271b: 85 99        	sta	$99                     ; 0x2099 <printf+0x324>
    271d: 4c 87 27     	jmp	$2787 <printf+0xa12>
    2720: a8           	tay
    2721: a9 80        	lda	#$80
    2723: 25 c9        	and	$c9                     ; 0x20c9 <printf+0x354>
    2725: f0 04        	beq	$272b <printf+0x9b6>
    2727: a2 61        	ldx	#$61
    2729: 80 02        	bra	$272d <printf+0x9b8>
    272b: a2 41        	ldx	#$41
    272d: 86 12        	stx	$12                     ; 0x2012 <printf+0x29d>
    272f: 18           	clc
    2730: 98           	tya
    2731: 65 12        	adc	$12                     ; 0x2012 <printf+0x29d>
    2733: 18           	clc
    2734: 69 f6        	adc	#$f6
    2736: a4 cd        	ldy	$cd                     ; 0x20cd <printf+0x358>
    2738: a6 ce        	ldx	$ce                     ; 0x20ce <printf+0x359>
    273a: e4 cc        	cpx	$cc                     ; 0x20cc <printf+0x357>
    273c: d0 0c        	bne	$274a <printf+0x9d5>
    273e: 86 14        	stx	$14                     ; 0x2014 <printf+0x29f>
    2740: a6 cb        	ldx	$cb                     ; 0x20cb <printf+0x356>
    2742: 86 12        	stx	$12                     ; 0x2012 <printf+0x29d>
    2744: c4 12        	cpy	$12                     ; 0x2012 <printf+0x29d>
    2746: 90 08        	bcc	$2750 <printf+0x9db>
    2748: 80 27        	bra	$2771 <printf+0x9fc>
    274a: 86 14        	stx	$14                     ; 0x2014 <printf+0x29f>
    274c: e4 cc        	cpx	$cc                     ; 0x20cc <printf+0x357>
    274e: b0 21        	bcs	$2771 <printf+0x9fc>
    2750: a6 d8        	ldx	$d8                     ; 0x20d8 <printf+0x363>
    2752: e4 9d        	cpx	$9d                     ; 0x209d <printf+0x328>
    2754: d0 18        	bne	$276e <printf+0x9f9>
    2756: a6 d7        	ldx	$d7                     ; 0x20d7 <printf+0x362>
    2758: e4 9c        	cpx	$9c                     ; 0x209c <printf+0x327>
    275a: d0 12        	bne	$276e <printf+0x9f9>
    275c: 18           	clc
    275d: aa           	tax
    275e: 98           	tya
    275f: 65 d1        	adc	$d1                     ; 0x20d1 <printf+0x35c>
    2761: 85 12        	sta	$12                     ; 0x2012 <printf+0x29d>
    2763: a5 14        	lda	$14                     ; 0x2014 <printf+0x29f>
    2765: 65 d2        	adc	$d2                     ; 0x20d2 <printf+0x35d>
    2767: 85 13        	sta	$13                     ; 0x2013 <printf+0x29e>
    2769: 8a           	txa
    276a: 92 12        	sta	($12)                   ; 0x2012 <printf+0x29d>
    276c: 80 03        	bra	$2771 <printf+0x9fc>
    276e: 20 d8 19     	jsr	$19d8 <__putchar>
    2771: e6 cd        	inc	$cd                     ; 0x20cd <printf+0x358>
    2773: d0 02        	bne	$2777 <printf+0xa02>
    2775: e6 ce        	inc	$ce                     ; 0x20ce <printf+0x359>
    2777: c6 a0        	dec	$a0                     ; 0x20a0 <printf+0x32b>
    2779: a2 ff        	ldx	#$ff
    277b: c6 98        	dec	$98                     ; 0x2098 <printf+0x323>
    277d: e4 98        	cpx	$98                     ; 0x2098 <printf+0x323>
    277f: d0 02        	bne	$2783 <printf+0xa0e>
    2781: c6 99        	dec	$99                     ; 0x2099 <printf+0x324>
    2783: a5 a0        	lda	$a0                     ; 0x20a0 <printf+0x32b>
    2785: f0 0e        	beq	$2795 <printf+0xa20>
    2787: b2 98        	lda	($98)                   ; 0x2098 <printf+0x323>
    2789: c9 0a        	cmp	#$a
    278b: 90 03        	bcc	$2790 <printf+0xa1b>
    278d: 4c 20 27     	jmp	$2720 <printf+0x9ab>
    2790: 09 30        	ora	#$30
    2792: 4c 36 27     	jmp	$2736 <printf+0x9c1>
    2795: a5 a6        	lda	$a6                     ; 0x20a6 <printf+0x331>
    2797: c9 0a        	cmp	#$a
    2799: b0 04        	bcs	$279f <printf+0xa2a>
    279b: 09 30        	ora	#$30
    279d: 80 16        	bra	$27b5 <printf+0xa40>
    279f: a8           	tay
    27a0: a9 80        	lda	#$80
    27a2: 25 c9        	and	$c9                     ; 0x20c9 <printf+0x354>
    27a4: f0 04        	beq	$27aa <printf+0xa35>
    27a6: a2 61        	ldx	#$61
    27a8: 80 02        	bra	$27ac <printf+0xa37>
    27aa: a2 41        	ldx	#$41
    27ac: 86 12        	stx	$12                     ; 0x2012 <printf+0x29d>
    27ae: 18           	clc
    27af: 98           	tya
    27b0: 65 12        	adc	$12                     ; 0x2012 <printf+0x29d>
    27b2: 18           	clc
    27b3: 69 f6        	adc	#$f6
    27b5: a4 cd        	ldy	$cd                     ; 0x20cd <printf+0x358>
    27b7: a6 ce        	ldx	$ce                     ; 0x20ce <printf+0x359>
    27b9: e4 cc        	cpx	$cc                     ; 0x20cc <printf+0x357>
    27bb: d0 0c        	bne	$27c9 <printf+0xa54>
    27bd: 86 14        	stx	$14                     ; 0x2014 <printf+0x29f>
    27bf: a6 cb        	ldx	$cb                     ; 0x20cb <printf+0x356>
    27c1: 86 12        	stx	$12                     ; 0x2012 <printf+0x29d>
    27c3: c4 12        	cpy	$12                     ; 0x2012 <printf+0x29d>
    27c5: 90 08        	bcc	$27cf <printf+0xa5a>
    27c7: 80 27        	bra	$27f0 <printf+0xa7b>
    27c9: 86 14        	stx	$14                     ; 0x2014 <printf+0x29f>
    27cb: e4 cc        	cpx	$cc                     ; 0x20cc <printf+0x357>
    27cd: b0 21        	bcs	$27f0 <printf+0xa7b>
    27cf: a6 d8        	ldx	$d8                     ; 0x20d8 <printf+0x363>
    27d1: e4 9d        	cpx	$9d                     ; 0x209d <printf+0x328>
    27d3: d0 18        	bne	$27ed <printf+0xa78>
    27d5: a6 d7        	ldx	$d7                     ; 0x20d7 <printf+0x362>
    27d7: e4 9c        	cpx	$9c                     ; 0x209c <printf+0x327>
    27d9: d0 12        	bne	$27ed <printf+0xa78>
    27db: 18           	clc
    27dc: aa           	tax
    27dd: 98           	tya
    27de: 65 d1        	adc	$d1                     ; 0x20d1 <printf+0x35c>
    27e0: 85 12        	sta	$12                     ; 0x2012 <printf+0x29d>
    27e2: a5 14        	lda	$14                     ; 0x2014 <printf+0x29f>
    27e4: 65 d2        	adc	$d2                     ; 0x20d2 <printf+0x35d>
    27e6: 85 13        	sta	$13                     ; 0x2013 <printf+0x29e>
    27e8: 8a           	txa
    27e9: 92 12        	sta	($12)                   ; 0x2012 <printf+0x29d>
    27eb: 80 03        	bra	$27f0 <printf+0xa7b>
    27ed: 20 d8 19     	jsr	$19d8 <__putchar>
    27f0: e6 cd        	inc	$cd                     ; 0x20cd <printf+0x358>
    27f2: d0 02        	bne	$27f6 <printf+0xa81>
    27f4: e6 ce        	inc	$ce                     ; 0x20ce <printf+0x359>
    27f6: a9 01        	lda	#$1
    27f8: 25 c9        	and	$c9                     ; 0x20c9 <printf+0x354>
    27fa: 29 01        	and	#$1
    27fc: d0 1e        	bne	$281c <printf+0xaa7>
    27fe: a6 cd        	ldx	$cd                     ; 0x20cd <printf+0x358>
    2800: 86 14        	stx	$14                     ; 0x2014 <printf+0x29f>
    2802: a5 ce        	lda	$ce                     ; 0x20ce <printf+0x359>
    2804: a4 cb        	ldy	$cb                     ; 0x20cb <printf+0x356>
    2806: a6 cc        	ldx	$cc                     ; 0x20cc <printf+0x357>
    2808: 86 12        	stx	$12                     ; 0x2012 <printf+0x29d>
    280a: 86 13        	stx	$13                     ; 0x2013 <printf+0x29e>
    280c: c5 12        	cmp	$12                     ; 0x2012 <printf+0x29d>
    280e: f0 03        	beq	$2813 <printf+0xa9e>
    2810: 4c 9f 28     	jmp	$289f <printf+0xb2a>
    2813: 84 12        	sty	$12                     ; 0x2012 <printf+0x29d>
    2815: a6 14        	ldx	$14                     ; 0x2014 <printf+0x29f>
    2817: e4 12        	cpx	$12                     ; 0x2012 <printf+0x29d>
    2819: 4c a3 28     	jmp	$28a3 <printf+0xb2e>
    281c: a6 cd        	ldx	$cd                     ; 0x20cd <printf+0x358>
    281e: 86 14        	stx	$14                     ; 0x2014 <printf+0x29f>
    2820: a5 ce        	lda	$ce                     ; 0x20ce <printf+0x359>
    2822: a6 a3        	ldx	$a3                     ; 0x20a3 <printf+0x32e>
    2824: a4 a2        	ldy	$a2                     ; 0x20a2 <printf+0x32d>
    2826: f0 03        	beq	$282b <printf+0xab6>
    2828: 4c 8b 28     	jmp	$288b <printf+0xb16>
    282b: e0 00        	cpx	#$0
    282d: f0 d5        	beq	$2804 <printf+0xa8f>
    282f: 4c 8b 28     	jmp	$288b <printf+0xb16>
    2832: c5 cc        	cmp	$cc                     ; 0x20cc <printf+0x357>
    2834: b0 24        	bcs	$285a <printf+0xae5>
    2836: a6 d8        	ldx	$d8                     ; 0x20d8 <printf+0x363>
    2838: e4 9d        	cpx	$9d                     ; 0x209d <printf+0x328>
    283a: d0 19        	bne	$2855 <printf+0xae0>
    283c: a6 d7        	ldx	$d7                     ; 0x20d7 <printf+0x362>
    283e: e4 9c        	cpx	$9c                     ; 0x209c <printf+0x327>
    2840: d0 13        	bne	$2855 <printf+0xae0>
    2842: 18           	clc
    2843: aa           	tax
    2844: a5 14        	lda	$14                     ; 0x2014 <printf+0x29f>
    2846: 65 d1        	adc	$d1                     ; 0x20d1 <printf+0x35c>
    2848: 85 12        	sta	$12                     ; 0x2012 <printf+0x29d>
    284a: 8a           	txa
    284b: 65 d2        	adc	$d2                     ; 0x20d2 <printf+0x35d>
    284d: 85 13        	sta	$13                     ; 0x2013 <printf+0x29e>
    284f: a9 20        	lda	#$20
    2851: 92 12        	sta	($12)                   ; 0x2012 <printf+0x29d>
    2853: 80 05        	bra	$285a <printf+0xae5>
    2855: a9 20        	lda	#$20
    2857: 20 d8 19     	jsr	$19d8 <__putchar>
    285a: a6 cd        	ldx	$cd                     ; 0x20cd <printf+0x358>
    285c: a5 ce        	lda	$ce                     ; 0x20ce <printf+0x359>
    285e: e8           	inx
    285f: d0 01        	bne	$2862 <printf+0xaed>
    2861: 1a           	inc
    2862: 86 14        	stx	$14                     ; 0x2014 <printf+0x29f>
    2864: 86 cd        	stx	$cd                     ; 0x20cd <printf+0x358>
    2866: 85 ce        	sta	$ce                     ; 0x20ce <printf+0x359>
    2868: a6 a3        	ldx	$a3                     ; 0x20a3 <printf+0x32e>
    286a: 86 12        	stx	$12                     ; 0x2012 <printf+0x29d>
    286c: a6 a2        	ldx	$a2                     ; 0x20a2 <printf+0x32d>
    286e: 86 13        	stx	$13                     ; 0x2013 <printf+0x29e>
    2870: a2 ff        	ldx	#$ff
    2872: c6 12        	dec	$12                     ; 0x2012 <printf+0x29d>
    2874: e4 12        	cpx	$12                     ; 0x2012 <printf+0x29d>
    2876: d0 02        	bne	$287a <printf+0xb05>
    2878: c6 13        	dec	$13                     ; 0x2013 <printf+0x29e>
    287a: a6 12        	ldx	$12                     ; 0x2012 <printf+0x29d>
    287c: 86 a3        	stx	$a3                     ; 0x20a3 <printf+0x32e>
    287e: a6 13        	ldx	$13                     ; 0x2013 <printf+0x29e>
    2880: 86 a2        	stx	$a2                     ; 0x20a2 <printf+0x32d>
    2882: d0 07        	bne	$288b <printf+0xb16>
    2884: a6 12        	ldx	$12                     ; 0x2012 <printf+0x29d>
    2886: d0 03        	bne	$288b <printf+0xb16>
    2888: 4c 04 28     	jmp	$2804 <printf+0xa8f>
    288b: c5 cc        	cmp	$cc                     ; 0x20cc <printf+0x357>
    288d: f0 03        	beq	$2892 <printf+0xb1d>
    288f: 4c 32 28     	jmp	$2832 <printf+0xabd>
    2892: a6 cb        	ldx	$cb                     ; 0x20cb <printf+0x356>
    2894: 86 12        	stx	$12                     ; 0x2012 <printf+0x29d>
    2896: a6 14        	ldx	$14                     ; 0x2014 <printf+0x29f>
    2898: e4 12        	cpx	$12                     ; 0x2012 <printf+0x29d>
    289a: b0 be        	bcs	$285a <printf+0xae5>
    289c: 4c 36 28     	jmp	$2836 <printf+0xac1>
    289f: 86 12        	stx	$12                     ; 0x2012 <printf+0x29d>
    28a1: c5 12        	cmp	$12                     ; 0x2012 <printf+0x29d>
    28a3: 98           	tya
    28a4: a0 01        	ldy	#$1
    28a6: 90 20        	bcc	$28c8 <printf+0xb53>
    28a8: a6 13        	ldx	$13                     ; 0x2013 <printf+0x29e>
    28aa: d0 03        	bne	$28af <printf+0xb3a>
    28ac: aa           	tax
    28ad: f0 19        	beq	$28c8 <printf+0xb53>
    28af: 18           	clc
    28b0: 65 d1        	adc	$d1                     ; 0x20d1 <printf+0x35c>
    28b2: 85 12        	sta	$12                     ; 0x2012 <printf+0x29d>
    28b4: a5 13        	lda	$13                     ; 0x2013 <printf+0x29e>
    28b6: 65 d2        	adc	$d2                     ; 0x20d2 <printf+0x35d>
    28b8: 85 13        	sta	$13                     ; 0x2013 <printf+0x29e>
    28ba: a2 ff        	ldx	#$ff
    28bc: c6 12        	dec	$12                     ; 0x2012 <printf+0x29d>
    28be: e4 12        	cpx	$12                     ; 0x2012 <printf+0x29d>
    28c0: d0 02        	bne	$28c4 <printf+0xb4f>
    28c2: c6 13        	dec	$13                     ; 0x2013 <printf+0x29e>
    28c4: a9 00        	lda	#$0
    28c6: 92 12        	sta	($12)                   ; 0x2012 <printf+0x29d>
    28c8: e6 9a        	inc	$9a                     ; 0x209a <printf+0x325>
    28ca: d0 02        	bne	$28ce <printf+0xb59>
    28cc: e6 9b        	inc	$9b                     ; 0x209b <printf+0x326>
    28ce: a6 9b        	ldx	$9b                     ; 0x209b <printf+0x326>
    28d0: e4 9f        	cpx	$9f                     ; 0x209f <printf+0x32a>
    28d2: f0 03        	beq	$28d7 <printf+0xb62>
    28d4: 4c da 1d     	jmp	$1dda <printf+0x65>
    28d7: a6 9a        	ldx	$9a                     ; 0x209a <printf+0x325>
    28d9: e4 9e        	cpx	$9e                     ; 0x209e <printf+0x329>
    28db: f0 03        	beq	$28e0 <printf+0xb6b>
    28dd: 4c da 1d     	jmp	$1dda <printf+0x65>
    28e0: b2 9e        	lda	($9e)                   ; 0x209e <printf+0x329>
    28e2: a2 00        	ldx	#$0
    28e4: 86 9c        	stx	$9c                     ; 0x209c <printf+0x327>
    28e6: a2 00        	ldx	#$0
    28e8: 86 9d        	stx	$9d                     ; 0x209d <printf+0x328>
    28ea: 4c ee 1d     	jmp	$1dee <printf+0x79>
    28ed: e4 a1        	cpx	$a1                     ; 0x20a1 <printf+0x32c>
    28ef: a6 99        	ldx	$99                     ; 0x2099 <printf+0x324>
    28f1: b0 03        	bcs	$28f6 <printf+0xb81>
    28f3: 4c 1a 24     	jmp	$241a <printf+0x6a5>
    28f6: a5 98        	lda	$98                     ; 0x2098 <printf+0x323>
    28f8: 85 a0        	sta	$a0                     ; 0x20a0 <printf+0x32b>
    28fa: 64 a1        	stz	$a1                     ; 0x20a1 <printf+0x32c>
    28fc: e6 a0        	inc	$a0                     ; 0x20a0 <printf+0x32b>
    28fe: f0 03        	beq	$2903 <printf+0xb8e>
    2900: 4c 1a 24     	jmp	$241a <printf+0x6a5>
    2903: e6 a1        	inc	$a1                     ; 0x20a1 <printf+0x32c>
    2905: 4c 1a 24     	jmp	$241a <printf+0x6a5>
    2908: a2 58        	ldx	#$58
    290a: 86 e2        	stx	$e2                     ; 0x20e2 <printf+0x36d>
    290c: a2 01        	ldx	#$1
    290e: 86 dd        	stx	$dd                     ; 0x20dd <printf+0x368>
    2910: a2 30        	ldx	#$30
    2912: 86 df        	stx	$df                     ; 0x20df <printf+0x36a>
    2914: a9 02        	lda	#$2
    2916: a2 00        	ldx	#$0
    2918: 86 de        	stx	$de                     ; 0x20de <printf+0x369>
    291a: 4c 5b 24     	jmp	$245b <printf+0x6e6>
    291d: 64 a3        	stz	$a3                     ; 0x20a3 <printf+0x32e>
    291f: 64 a2        	stz	$a2                     ; 0x20a2 <printf+0x32d>
    2921: 4c 7f 26     	jmp	$267f <printf+0x90a>
    2924: 60           	rts

00002925 <putchar>:
    2925: 85 99        	sta	$99                     ; 0x2099 <printf+0x324>
    2927: 86 98        	stx	$98                     ; 0x2098 <printf+0x323>
    2929: 20 d8 19     	jsr	$19d8 <__putchar>
    292c: a6 98        	ldx	$98                     ; 0x2098 <printf+0x323>
    292e: a5 99        	lda	$99                     ; 0x2099 <printf+0x324>
    2930: 60           	rts

00002931 <memcpy>:
    2931: a8           	tay
    2932: 8a           	txa
    2933: d0 03        	bne	$2938 <memcpy+0x7>
    2935: 98           	tya
    2936: f0 24        	beq	$295c <memcpy+0x2b>
    2938: a5 12        	lda	$12                     ; 0x2012 <printf+0x29d>
    293a: 85 16        	sta	$16                     ; 0x2016 <printf+0x2a1>
    293c: a5 13        	lda	$13                     ; 0x2013 <printf+0x29e>
    293e: 85 17        	sta	$17                     ; 0x2017 <printf+0x2a2>
    2940: b2 14        	lda	($14)                   ; 0x2014 <printf+0x29f>
    2942: 92 16        	sta	($16)                   ; 0x2016 <printf+0x2a1>
    2944: e6 16        	inc	$16                     ; 0x2016 <printf+0x2a1>
    2946: d0 02        	bne	$294a <memcpy+0x19>
    2948: e6 17        	inc	$17                     ; 0x2017 <printf+0x2a2>
    294a: e6 14        	inc	$14                     ; 0x2014 <printf+0x29f>
    294c: d0 02        	bne	$2950 <memcpy+0x1f>
    294e: e6 15        	inc	$15                     ; 0x2015 <printf+0x2a0>
    2950: 88           	dey
    2951: c0 ff        	cpy	#$ff
    2953: d0 01        	bne	$2956 <memcpy+0x25>
    2955: ca           	dex
    2956: 8a           	txa
    2957: d0 e7        	bne	$2940 <memcpy+0xf>
    2959: 98           	tya
    295a: d0 e4        	bne	$2940 <memcpy+0xf>
    295c: 60           	rts

0000295d <__memset>:
    295d: a4 14        	ldy	$14                     ; 0x2014 <printf+0x29f>
    295f: d0 04        	bne	$2965 <__memset+0x8>
    2961: e0 00        	cpx	#$0
    2963: f0 17        	beq	$297c <__memset+0x1f>
    2965: 92 12        	sta	($12)                   ; 0x2012 <printf+0x29d>
    2967: e6 12        	inc	$12                     ; 0x2012 <printf+0x29d>
    2969: d0 02        	bne	$296d <__memset+0x10>
    296b: e6 13        	inc	$13                     ; 0x2013 <printf+0x29e>
    296d: ca           	dex
    296e: e0 ff        	cpx	#$ff
    2970: d0 02        	bne	$2974 <__memset+0x17>
    2972: c6 14        	dec	$14                     ; 0x2014 <printf+0x29f>
    2974: a4 14        	ldy	$14                     ; 0x2014 <printf+0x29f>
    2976: d0 ed        	bne	$2965 <__memset+0x8>
    2978: e0 00        	cpx	#$0
    297a: d0 e9        	bne	$2965 <__memset+0x8>
    297c: 60           	rts
