
BachHero.elf:	file format elf32-mos

SYMBOL TABLE:
00000000 l    df *ABS*	00000000 zero-bss.c
00000000 l    df *ABS*	00000000 zero-zp-bss.c
00000000 l    df *ABS*	00000000 copy-zp-data.c
00000000 l    df *ABS*	00000000 ld-temp.o
00000357 l     F .text	0000031b f256Init
00000032 l     O .zp.bss	00000007 kernelEventData
0000238a l     O .rodata	00000030 textColors
00000672 l     F .text	0000009a textClear
000028b5 l     O .bss	00000004 _BITMAP_BASE.2
0000003b l     O .zp.bss	00000040 _spriteCtl
000028b4 l     O .bss	00000001 kernelError
00000039 l     O .zp.bss	00000001 _col
0000003a l     O .zp.bss	00000001 _row
00000712 l     F .text	00000c90 f256main
00000080 l     O .zp.bss	00000001 GUITimer.1
00000081 l     O .zp.bss	00000001 midiTimer.1
00000082 l     O .zp.bss	00000001 glassesTimer.1
0000173f l     F .text	00000bb0 printf
0000007f l     O .zp.bss	00000001 midiPSG
0000243a l     O .rodata	0000007b KeyCodesToMIDINotes
0000264b l     O .rodata	00000052 songNotes
00000083 l     O .zp.bss	00000002 songrefnote
000025ab l     O .rodata	000000a0 NoteXPosition
00000030 l     O .zp.data	00000002 reticY
0000007e l     O .zp.bss	00000001 reticX
000022ef l     F .text	0000000c putchar
0000007d l     O .zp.bss	00000001 score
000023ba l     O .rodata	00000080 MIDINotesToKeyCodes
000024b5 l     O .rodata	0000007b KeyCodesToLoPSG
00002530 l     O .rodata	0000007b KeyCodesToHiPSG
000013a2 l     F .text	000001ba __putchar
0000007b l     O .zp.bss	00000002 __putchar.s
00001561 l     F .text	000000d1 _ZN12_GLOBAL__N_13putEcP6Status
00001632 l     F .text	0000010d _ZN12_GLOBAL__N_112print_stringEPKcP6Status
0000070c g     F .text	00000006 main
00018000 g       .xab	00000000 xab_start
00040000 g       .glasses2	00000000 glasses2_start
00038400 g       .glasses1	00000000 glasses1_end
00010000 g       .xaa	00000000 xaa_start
00028000 g       .palbach	00000000 palbach_start
00028400 g       .palbach	00000000 palbach_end
00020000 g       .xac	00000000 xac_start
00018000 g       .xaa	00000000 xaa_end
00040400 g       .glasses2	00000000 glasses2_end
00030000 g       .ntespr	00000000 ntespr_start
00022c00 g       .xac	00000000 xac_end
00020000 g       .xab	00000000 xab_end
00038000 g       .glasses1	00000000 glasses1_start
00030040 g       .ntespr	00000000 ntespr_end
00000316 g       .text	00000000 __after_main
00000302 g       .text	00000000 __do_init_stack
00000310 g       .text	00000000 __do_copy_zp_data
00000340 g     F .text	00000017 __copy_zp_data
0000030a g       .text	00000000 __do_zero_bss
0000031a g     F .text	00000013 __zero_bss
0000030d g       .text	00000000 __do_zero_zp_bss
0000032d g     F .text	00000013 __zero_zp_bss
0000155c g     F .text	00000005 exit
00000319 g       .text	00000000 _fini
00002347 g       .rodata	00000000 __set_v
00002327  w    F .text	00000020 __memset
00001000  w      *ABS*	00000000 __heap_default_limit
000028ba g       .noinit	00000000 __heap_start
000022fb  w    F .text	0000002c memcpy
00000010 g       *ABS*	00000000 __rc0
00000012 g       *ABS*	00000000 __rc2
00000014 g       *ABS*	00000000 __rc4
00000016 g       *ABS*	00000000 __rc6
00000018 g       *ABS*	00000000 __rc8
0000001a g       *ABS*	00000000 __rc10
0000001c g       *ABS*	00000000 __rc12
0000001e g       *ABS*	00000000 __rc14
00000020 g       *ABS*	00000000 __rc16
00000022 g       *ABS*	00000000 __rc18
00000024 g       *ABS*	00000000 __rc20
00000026 g       *ABS*	00000000 __rc22
00000028 g       *ABS*	00000000 __rc24
0000002a g       *ABS*	00000000 __rc26
0000002c g       *ABS*	00000000 __rc28
0000002e g       *ABS*	00000000 __rc30
0000002f g       *ABS*	00000000 __rc31
00000300 g       *ABS*	00000000 __f256_start
0000a000 g       *ABS*	00000000 __stack
0000a000 g       *ABS*	00000000 __SLOT_ADDR
0800a000 g       *ABS*	00000000 __block8_lma
00002000 g       *ABS*	00000000 __BLOCK_SIZE
0900a000 g       *ABS*	00000000 __block9_lma
0a00a000 g       *ABS*	00000000 __block10_lma
0b00a000 g       *ABS*	00000000 __block11_lma
0c00a000 g       *ABS*	00000000 __block12_lma
0d00a000 g       *ABS*	00000000 __block13_lma
0e00a000 g       *ABS*	00000000 __block14_lma
0f00a000 g       *ABS*	00000000 __block15_lma
1000a000 g       *ABS*	00000000 __block16_lma
1100a000 g       *ABS*	00000000 __block17_lma
1200a000 g       *ABS*	00000000 __block18_lma
1300a000 g       *ABS*	00000000 __block19_lma
1400a000 g       *ABS*	00000000 __block20_lma
1500a000 g       *ABS*	00000000 __block21_lma
1600a000 g       *ABS*	00000000 __block22_lma
1700a000 g       *ABS*	00000000 __block23_lma
00010000 g       *ABS*	00000000 __xaa_lma
00008000 g       *ABS*	00000000 __xaa_size
00018000 g       *ABS*	00000000 __xab_lma
00008000 g       *ABS*	00000000 __xab_size
00020000 g       *ABS*	00000000 __xac_lma
00002c00 g       *ABS*	00000000 __xac_size
00028000 g       *ABS*	00000000 __palbach_lma
00000400 g       *ABS*	00000000 __palbach_size
00030000 g       *ABS*	00000000 __ntespr_lma
00000040 g       *ABS*	00000000 __ntespr_size
00038000 g       *ABS*	00000000 __glasses1_lma
00000400 g       *ABS*	00000000 __glasses1_size
00040000 g       *ABS*	00000000 __glasses2_lma
00000400 g       *ABS*	00000000 __glasses2_size
000028b4 g       .bss	00000000 __bss_start
00018000 g       .xaa	00000000 end_xaa
00020000 g       .xab	00000000 end_xab
00022c00 g       .xac	00000000 end_xac
00028400 g       .palbach	00000000 end_palbach
00030040 g       .ntespr	00000000 end_ntespr
00038400 g       .glasses1	00000000 end_glasses1
00040400 g       .glasses2	00000000 end_glasses2
00000302 g       .text	00000000 _start
0000002d g       *ABS*	00000000 __rc29
0000002b g       *ABS*	00000000 __rc27
00000029 g       *ABS*	00000000 __rc25
00000027 g       *ABS*	00000000 __rc23
00000025 g       *ABS*	00000000 __rc21
00000023 g       *ABS*	00000000 __rc19
00000021 g       *ABS*	00000000 __rc17
0000001f g       *ABS*	00000000 __rc15
0000001d g       *ABS*	00000000 __rc13
0000001b g       *ABS*	00000000 __rc11
00000019 g       *ABS*	00000000 __rc9
00000017 g       *ABS*	00000000 __rc7
00000015 g       *ABS*	00000000 __rc5
00000013 g       *ABS*	00000000 __rc3
00000011 g       *ABS*	00000000 __rc1
00000030 g       .zp.data	00000000 __zp_data_start
00000300 g       *ABS*	00000000 __zp_data_load_start
00000002 g       *ABS*	00000000 __zp_data_size
00000032 g       .zp.bss	00000000 __zp_bss_start
00000053 g       *ABS*	00000000 __zp_bss_size
00000302 g       .text	00000000 _init
00002347 g       .text	00000000 __init_array_start
00002347 g       .text	00000000 __init_array_end
00002347 g       .text	00000000 __fini_array_start
00002347 g       .text	00000000 __fini_array_end
000028b4 g       .data	00000000 __data_start
000028b4 g       .data	00000000 __data_end
000028b4 g       *ABS*	00000000 __data_load_start
00000000 g       *ABS*	00000000 __data_size
000028b9 g       .bss	00000000 __bss_end
00000005 g       *ABS*	00000000 __bss_size
000028b9 g       .noinit	00000000 end_block8
000028b9 g       .noinit	00000000 end_block9
000028b9 g       .noinit	00000000 end_block10
000028b9 g       .noinit	00000000 end_block11
000028b9 g       .noinit	00000000 end_block12
000028b9 g       .noinit	00000000 end_block13
000028b9 g       .noinit	00000000 end_block14
000028b9 g       .noinit	00000000 end_block15
000028b9 g       .noinit	00000000 end_block16
000028b9 g       .noinit	00000000 end_block17
000028b9 g       .noinit	00000000 end_block18
000028b9 g       .noinit	00000000 end_block19
000028b9 g       .noinit	00000000 end_block20
000028b9 g       .noinit	00000000 end_block21
000028b9 g       .noinit	00000000 end_block22
000028b9 g       .noinit	00000000 end_block23

Disassembly of section .text:

00000302 <_start>:
     302: a9 00        	lda	#$0
     304: 85 10        	sta	$10                     ; 0x2010 <printf+0x8d1>
     306: a9 a0        	lda	#$a0
     308: 85 11        	sta	$11                     ; 0x2011 <printf+0x8d2>

0000030a <__do_zero_bss>:
     30a: 20 1a 03     	jsr	$31a <__zero_bss>

0000030d <__do_zero_zp_bss>:
     30d: 20 2d 03     	jsr	$32d <__zero_zp_bss>

00000310 <__do_copy_zp_data>:
     310: 20 40 03     	jsr	$340 <__copy_zp_data>
     313: 20 0c 07     	jsr	$70c <main>

00000316 <__after_main>:
     316: 4c 5c 15     	jmp	$155c <exit>

00000319 <_fini>:
     319: 60           	rts

0000031a <__zero_bss>:
     31a: a2 05        	ldx	#$5
     31c: a0 00        	ldy	#$0
     31e: a9 b4        	lda	#$b4
     320: 85 12        	sta	$12                     ; 0x2012 <printf+0x8d3>
     322: a9 28        	lda	#$28
     324: 85 13        	sta	$13                     ; 0x2013 <printf+0x8d4>
     326: a9 00        	lda	#$0
     328: 84 14        	sty	$14                     ; 0x2014 <printf+0x8d5>
     32a: 4c 27 23     	jmp	$2327 <__memset>

0000032d <__zero_zp_bss>:
     32d: a2 53        	ldx	#$53
     32f: a0 00        	ldy	#$0
     331: a9 32        	lda	#$32
     333: 85 12        	sta	$12                     ; 0x2012 <printf+0x8d3>
     335: a9 00        	lda	#$0
     337: 85 13        	sta	$13                     ; 0x2013 <printf+0x8d4>
     339: a9 00        	lda	#$0
     33b: 84 14        	sty	$14                     ; 0x2014 <printf+0x8d5>
     33d: 4c 27 23     	jmp	$2327 <__memset>

00000340 <__copy_zp_data>:
     340: a9 02        	lda	#$2
     342: a2 00        	ldx	#$0
     344: a0 30        	ldy	#$30
     346: 84 12        	sty	$12                     ; 0x2012 <printf+0x8d3>
     348: a0 00        	ldy	#$0
     34a: 84 13        	sty	$13                     ; 0x2013 <printf+0x8d4>
     34c: a0 00        	ldy	#$0
     34e: 84 14        	sty	$14                     ; 0x2014 <printf+0x8d5>
     350: a0 03        	ldy	#$3
     352: 84 15        	sty	$15                     ; 0x2015 <printf+0x8d6>
     354: 4c fb 22     	jmp	$22fb <memcpy>

00000357 <f256Init>:
     357: 64 12        	stz	$12                     ; 0x2012 <printf+0x8d3>
     359: 64 01        	stz	$1                      ; 0x2001 <printf+0x8c2>
     35b: a2 3f        	ldx	#$3f
     35d: 8e 00 d0     	stx	$d000                   ; 0xd000 <__heap_start+0xa746>
     360: a2 b3        	ldx	#$b3
     362: 86 00        	stx	$0                      ; 0x2000 <printf+0x8c1>
     364: 64 08        	stz	$8                      ; 0x2008 <printf+0x8c9>
     366: a2 01        	ldx	#$1
     368: 86 09        	stx	$9                      ; 0x2009 <printf+0x8ca>
     36a: e8           	inx
     36b: 86 0a        	stx	$a                      ; 0x200a <printf+0x8cb>
     36d: e8           	inx
     36e: 86 0b        	stx	$b                      ; 0x200b <printf+0x8cc>
     370: e8           	inx
     371: 86 0c        	stx	$c                      ; 0x200c <printf+0x8cd>
     373: e8           	inx
     374: 86 0d        	stx	$d                      ; 0x200d <printf+0x8ce>
     376: a2 32        	ldx	#$32
     378: a0 00        	ldy	#$0
     37a: 86 f0        	stx	$f0                     ; 0x20f0 <printf+0x9b1>
     37c: 84 f1        	sty	$f1                     ; 0x20f1 <printf+0x9b2>
     37e: a2 00        	ldx	#$0
     380: 86 16        	stx	$16                     ; 0x2016 <printf+0x8d7>
     382: ca           	dex
     383: 86 17        	stx	$17                     ; 0x2017 <printf+0x8d8>
     385: 8a           	txa
     386: 0a           	asl
     387: 0a           	asl
     388: 18           	clc
     389: 69 d4        	adc	#$d4
     38b: 85 18        	sta	$18                     ; 0x2018 <printf+0x8d9>
     38d: a0 00        	ldy	#$0
     38f: 64 15        	stz	$15                     ; 0x2015 <printf+0x8d6>
     391: 64 14        	stz	$14                     ; 0x2014 <printf+0x8d5>
     393: a6 17        	ldx	$17                     ; 0x2017 <printf+0x8d8>
     395: e0 03        	cpx	#$3
     397: a6 01        	ldx	$1                      ; 0x2001 <printf+0x8c2>
     399: 86 1a        	stx	$1a                     ; 0x201a <printf+0x8db>
     39b: a2 d0        	ldx	#$d0
     39d: 84 19        	sty	$19                     ; 0x2019 <printf+0x8da>
     39f: b0 02        	bcs	$3a3 <f256Init+0x4c>
     3a1: a6 18        	ldx	$18                     ; 0x2018 <printf+0x8d9>
     3a3: 86 13        	stx	$13                     ; 0x2013 <printf+0x8d4>
     3a5: a5 15        	lda	$15                     ; 0x2015 <printf+0x8d6>
     3a7: 18           	clc
     3a8: 65 12        	adc	$12                     ; 0x2012 <printf+0x8d3>
     3aa: a8           	tay
     3ab: a6 15        	ldx	$15                     ; 0x2015 <printf+0x8d6>
     3ad: a5 14        	lda	$14                     ; 0x2014 <printf+0x8d5>
     3af: 85 1b        	sta	$1b                     ; 0x201b <printf+0x8dc>
     3b1: a5 14        	lda	$14                     ; 0x2014 <printf+0x8d5>
     3b3: 65 13        	adc	$13                     ; 0x2013 <printf+0x8d4>
     3b5: 84 14        	sty	$14                     ; 0x2014 <printf+0x8d5>
     3b7: a0 01        	ldy	#$1
     3b9: 84 01        	sty	$1                      ; 0x2001 <printf+0x8c2>
     3bb: 85 15        	sta	$15                     ; 0x2015 <printf+0x8d6>
     3bd: a5 19        	lda	$19                     ; 0x2019 <printf+0x8da>
     3bf: 92 14        	sta	($14)                   ; 0x2014 <printf+0x8d5>
     3c1: 91 14        	sta	($14),y                 ; 0x2014 <printf+0x8d5>
     3c3: c8           	iny
     3c4: 91 14        	sta	($14),y                 ; 0x2014 <printf+0x8d5>
     3c6: 85 13        	sta	$13                     ; 0x2013 <printf+0x8d4>
     3c8: c8           	iny
     3c9: a9 ff        	lda	#$ff
     3cb: 91 14        	sta	($14),y                 ; 0x2014 <printf+0x8d5>
     3cd: 8a           	txa
     3ce: a6 1a        	ldx	$1a                     ; 0x201a <printf+0x8db>
     3d0: 86 01        	stx	$1                      ; 0x2001 <printf+0x8c2>
     3d2: 18           	clc
     3d3: 69 04        	adc	#$4
     3d5: 85 15        	sta	$15                     ; 0x2015 <printf+0x8d6>
     3d7: a5 1b        	lda	$1b                     ; 0x201b <printf+0x8dc>
     3d9: 69 00        	adc	#$0
     3db: e6 13        	inc	$13                     ; 0x2013 <printf+0x8d4>
     3dd: a4 13        	ldy	$13                     ; 0x2013 <printf+0x8d4>
     3df: 85 14        	sta	$14                     ; 0x2014 <printf+0x8d5>
     3e1: c9 04        	cmp	#$4
     3e3: f0 03        	beq	$3e8 <f256Init+0x91>
     3e5: 4c 93 03     	jmp	$393 <f256Init+0x3c>
     3e8: a5 15        	lda	$15                     ; 0x2015 <printf+0x8d6>
     3ea: f0 03        	beq	$3ef <f256Init+0x98>
     3ec: 4c 93 03     	jmp	$393 <f256Init+0x3c>
     3ef: a6 16        	ldx	$16                     ; 0x2016 <printf+0x8d7>
     3f1: e8           	inx
     3f2: e0 04        	cpx	#$4
     3f4: f0 03        	beq	$3f9 <f256Init+0xa2>
     3f6: 4c 80 03     	jmp	$380 <f256Init+0x29>
     3f9: ad 02 d0     	lda	$d002                   ; 0xd002 <__heap_start+0xa748>
     3fc: 29 f0        	and	#$f0
     3fe: 8d 02 d0     	sta	$d002                   ; 0xd002 <__heap_start+0xa748>
     401: ad 02 d0     	lda	$d002                   ; 0xd002 <__heap_start+0xa748>
     404: 29 0f        	and	#$f
     406: 09 10        	ora	#$10
     408: 8d 02 d0     	sta	$d002                   ; 0xd002 <__heap_start+0xa748>
     40b: a2 02        	ldx	#$2
     40d: 8e 03 d0     	stx	$d003                   ; 0xd003 <__heap_start+0xa749>
     410: ad 01 d0     	lda	$d001                   ; 0xd001 <__heap_start+0xa747>
     413: 29 f9        	and	#$f9
     415: 09 04        	ora	#$4
     417: 8d 01 d0     	sta	$d001                   ; 0xd001 <__heap_start+0xa747>
     41a: 64 12        	stz	$12                     ; 0x2012 <printf+0x8d3>
     41c: 9c 10 d0     	stz	$d010                   ; 0xd010 <__heap_start+0xa756>
     41f: a2 00        	ldx	#$0
     421: 64 13        	stz	$13                     ; 0x2013 <printf+0x8d4>
     423: 86 16        	stx	$16                     ; 0x2016 <printf+0x8d7>
     425: a4 16        	ldy	$16                     ; 0x2016 <printf+0x8d7>
     427: be 8a 23     	ldx	$238a,y                 ; 0x238a <textColors>
     42a: 86 17        	stx	$17                     ; 0x2017 <printf+0x8d8>
     42c: be 8b 23     	ldx	$238b,y                 ; 0x238b <textColors+0x1>
     42f: 86 18        	stx	$18                     ; 0x2018 <printf+0x8d9>
     431: be 8c 23     	ldx	$238c,y                 ; 0x238c <textColors+0x2>
     434: 86 19        	stx	$19                     ; 0x2019 <printf+0x8da>
     436: a6 13        	ldx	$13                     ; 0x2013 <printf+0x8d4>
     438: 8e 00 de     	stx	$de00                   ; 0xde00 <__heap_start+0xb546>
     43b: 86 15        	stx	$15                     ; 0x2015 <printf+0x8d6>
     43d: 9c 01 de     	stz	$de01                   ; 0xde01 <__heap_start+0xb547>
     440: a2 04        	ldx	#$4
     442: 8e 02 de     	stx	$de02                   ; 0xde02 <__heap_start+0xb548>
     445: 9c 03 de     	stz	$de03                   ; 0xde03 <__heap_start+0xb549>
     448: ad 10 de     	lda	$de10                   ; 0xde10 <__heap_start+0xb556>
     44b: ac 11 de     	ldy	$de11                   ; 0xde11 <__heap_start+0xb557>
     44e: 84 13        	sty	$13                     ; 0x2013 <printf+0x8d4>
     450: ac 12 de     	ldy	$de12                   ; 0xde12 <__heap_start+0xb558>
     453: ac 13 de     	ldy	$de13                   ; 0xde13 <__heap_start+0xb559>
     456: 18           	clc
     457: 65 12        	adc	$12                     ; 0x2012 <printf+0x8d3>
     459: 85 14        	sta	$14                     ; 0x2014 <printf+0x8d5>
     45b: a6 15        	ldx	$15                     ; 0x2015 <printf+0x8d6>
     45d: a9 d8        	lda	#$d8
     45f: 65 13        	adc	$13                     ; 0x2013 <printf+0x8d4>
     461: 85 15        	sta	$15                     ; 0x2015 <printf+0x8d6>
     463: a5 19        	lda	$19                     ; 0x2019 <printf+0x8da>
     465: 92 14        	sta	($14)                   ; 0x2014 <printf+0x8d5>
     467: a0 01        	ldy	#$1
     469: a5 18        	lda	$18                     ; 0x2018 <printf+0x8d9>
     46b: 91 14        	sta	($14),y                 ; 0x2014 <printf+0x8d5>
     46d: c8           	iny
     46e: a5 17        	lda	$17                     ; 0x2017 <printf+0x8d8>
     470: 91 14        	sta	($14),y                 ; 0x2014 <printf+0x8d5>
     472: c8           	iny
     473: a9 ff        	lda	#$ff
     475: 91 14        	sta	($14),y                 ; 0x2014 <printf+0x8d5>
     477: 8e 00 de     	stx	$de00                   ; 0xde00 <__heap_start+0xb546>
     47a: 9c 01 de     	stz	$de01                   ; 0xde01 <__heap_start+0xb547>
     47d: c8           	iny
     47e: 8c 02 de     	sty	$de02                   ; 0xde02 <__heap_start+0xb548>
     481: 9c 03 de     	stz	$de03                   ; 0xde03 <__heap_start+0xb549>
     484: ad 10 de     	lda	$de10                   ; 0xde10 <__heap_start+0xb556>
     487: 85 13        	sta	$13                     ; 0x2013 <printf+0x8d4>
     489: ad 11 de     	lda	$de11                   ; 0xde11 <__heap_start+0xb557>
     48c: 85 14        	sta	$14                     ; 0x2014 <printf+0x8d5>
     48e: a9 40        	lda	#$40
     490: 18           	clc
     491: 65 13        	adc	$13                     ; 0x2013 <printf+0x8d4>
     493: a8           	tay
     494: a9 d8        	lda	#$d8
     496: 65 14        	adc	$14                     ; 0x2014 <printf+0x8d5>
     498: 85 15        	sta	$15                     ; 0x2015 <printf+0x8d6>
     49a: 84 14        	sty	$14                     ; 0x2014 <printf+0x8d5>
     49c: ad 12 de     	lda	$de12                   ; 0xde12 <__heap_start+0xb558>
     49f: ad 13 de     	lda	$de13                   ; 0xde13 <__heap_start+0xb559>
     4a2: a5 19        	lda	$19                     ; 0x2019 <printf+0x8da>
     4a4: 92 14        	sta	($14)                   ; 0x2014 <printf+0x8d5>
     4a6: a5 18        	lda	$18                     ; 0x2018 <printf+0x8d9>
     4a8: a0 01        	ldy	#$1
     4aa: 91 14        	sta	($14),y                 ; 0x2014 <printf+0x8d5>
     4ac: a5 17        	lda	$17                     ; 0x2017 <printf+0x8d8>
     4ae: c8           	iny
     4af: 91 14        	sta	($14),y                 ; 0x2014 <printf+0x8d5>
     4b1: c8           	iny
     4b2: a9 ff        	lda	#$ff
     4b4: 91 14        	sta	($14),y                 ; 0x2014 <printf+0x8d5>
     4b6: e8           	inx
     4b7: 86 13        	stx	$13                     ; 0x2013 <printf+0x8d4>
     4b9: 18           	clc
     4ba: a5 16        	lda	$16                     ; 0x2016 <printf+0x8d7>
     4bc: 69 03        	adc	#$3
     4be: aa           	tax
     4bf: c9 30        	cmp	#$30
     4c1: f0 03        	beq	$4c6 <f256Init+0x16f>
     4c3: 4c 23 04     	jmp	$423 <f256Init+0xcc>
     4c6: 20 72 06     	jsr	$672 <textClear>
     4c9: a2 40        	ldx	#$40
     4cb: 8e 00 de     	stx	$de00                   ; 0xde00 <__heap_start+0xb546>
     4ce: a2 01        	ldx	#$1
     4d0: 8e 01 de     	stx	$de01                   ; 0xde01 <__heap_start+0xb547>
     4d3: a2 f0        	ldx	#$f0
     4d5: 8e 02 de     	stx	$de02                   ; 0xde02 <__heap_start+0xb548>
     4d8: 9c 03 de     	stz	$de03                   ; 0xde03 <__heap_start+0xb549>
     4db: ae 10 de     	ldx	$de10                   ; 0xde10 <__heap_start+0xb556>
     4de: 86 17        	stx	$17                     ; 0x2017 <printf+0x8d8>
     4e0: ae 11 de     	ldx	$de11                   ; 0xde11 <__heap_start+0xb557>
     4e3: 86 12        	stx	$12                     ; 0x2012 <printf+0x8d3>
     4e5: ae 12 de     	ldx	$de12                   ; 0xde12 <__heap_start+0xb558>
     4e8: 86 13        	stx	$13                     ; 0x2013 <printf+0x8d4>
     4ea: ae 13 de     	ldx	$de13                   ; 0xde13 <__heap_start+0xb559>
     4ed: 86 14        	stx	$14                     ; 0x2014 <printf+0x8d5>
     4ef: a4 12        	ldy	$12                     ; 0x2012 <printf+0x8d3>
     4f1: 84 15        	sty	$15                     ; 0x2015 <printf+0x8d6>
     4f3: 06 15        	asl	$15                     ; 0x2015 <printf+0x8d6>
     4f5: a5 13        	lda	$13                     ; 0x2013 <printf+0x8d4>
     4f7: 2a           	rol
     4f8: 86 16        	stx	$16                     ; 0x2016 <printf+0x8d7>
     4fa: 26 16        	rol	$16                     ; 0x2016 <printf+0x8d7>
     4fc: 06 15        	asl	$15                     ; 0x2015 <printf+0x8d6>
     4fe: 2a           	rol
     4ff: 26 16        	rol	$16                     ; 0x2016 <printf+0x8d7>
     501: 06 15        	asl	$15                     ; 0x2015 <printf+0x8d6>
     503: 2a           	rol
     504: 26 16        	rol	$16                     ; 0x2016 <printf+0x8d7>
     506: 85 15        	sta	$15                     ; 0x2015 <printf+0x8d6>
     508: 8d 00 de     	sta	$de00                   ; 0xde00 <__heap_start+0xb546>
     50b: a5 16        	lda	$16                     ; 0x2016 <printf+0x8d7>
     50d: 8d 01 de     	sta	$de01                   ; 0xde01 <__heap_start+0xb547>
     510: 9c 02 de     	stz	$de02                   ; 0xde02 <__heap_start+0xb548>
     513: a2 20        	ldx	#$20
     515: 8e 03 de     	stx	$de03                   ; 0xde03 <__heap_start+0xb549>
     518: ae 10 de     	ldx	$de10                   ; 0xde10 <__heap_start+0xb556>
     51b: 86 16        	stx	$16                     ; 0x2016 <printf+0x8d7>
     51d: ae 11 de     	ldx	$de11                   ; 0xde11 <__heap_start+0xb557>
     520: 86 18        	stx	$18                     ; 0x2018 <printf+0x8d9>
     522: ac 12 de     	ldy	$de12                   ; 0xde12 <__heap_start+0xb558>
     525: ae 13 de     	ldx	$de13                   ; 0xde13 <__heap_start+0xb559>
     528: e4 14        	cpx	$14                     ; 0x2014 <printf+0x8d5>
     52a: d0 14        	bne	$540 <f256Init+0x1e9>
     52c: c4 13        	cpy	$13                     ; 0x2013 <printf+0x8d4>
     52e: d0 10        	bne	$540 <f256Init+0x1e9>
     530: a6 18        	ldx	$18                     ; 0x2018 <printf+0x8d9>
     532: e4 12        	cpx	$12                     ; 0x2012 <printf+0x8d3>
     534: d0 0a        	bne	$540 <f256Init+0x1e9>
     536: a6 16        	ldx	$16                     ; 0x2016 <printf+0x8d7>
     538: e4 17        	cpx	$17                     ; 0x2017 <printf+0x8d8>
     53a: d0 04        	bne	$540 <f256Init+0x1e9>
     53c: a6 15        	ldx	$15                     ; 0x2015 <printf+0x8d6>
     53e: 80 06        	bra	$546 <f256Init+0x1ef>
     540: a6 15        	ldx	$15                     ; 0x2015 <printf+0x8d6>
     542: e8           	inx
     543: d0 01        	bne	$546 <f256Init+0x1ef>
     545: 1a           	inc
     546: 8e 00 de     	stx	$de00                   ; 0xde00 <__heap_start+0xb546>
     549: 8d 01 de     	sta	$de01                   ; 0xde01 <__heap_start+0xb547>
     54c: 9c 02 de     	stz	$de02                   ; 0xde02 <__heap_start+0xb548>
     54f: a2 20        	ldx	#$20
     551: 8e 03 de     	stx	$de03                   ; 0xde03 <__heap_start+0xb549>
     554: ae 10 de     	ldx	$de10                   ; 0xde10 <__heap_start+0xb556>
     557: 86 12        	stx	$12                     ; 0x2012 <printf+0x8d3>
     559: ae 11 de     	ldx	$de11                   ; 0xde11 <__heap_start+0xb557>
     55c: 86 13        	stx	$13                     ; 0x2013 <printf+0x8d4>
     55e: ae 12 de     	ldx	$de12                   ; 0xde12 <__heap_start+0xb558>
     561: 86 14        	stx	$14                     ; 0x2014 <printf+0x8d5>
     563: ae 13 de     	ldx	$de13                   ; 0xde13 <__heap_start+0xb559>
     566: 86 15        	stx	$15                     ; 0x2015 <printf+0x8d6>
     568: 38           	sec
     569: a9 00        	lda	#$0
     56b: e5 12        	sbc	$12                     ; 0x2012 <printf+0x8d3>
     56d: 85 16        	sta	$16                     ; 0x2016 <printf+0x8d7>
     56f: a9 00        	lda	#$0
     571: e5 13        	sbc	$13                     ; 0x2013 <printf+0x8d4>
     573: a8           	tay
     574: a9 08        	lda	#$8
     576: e5 14        	sbc	$14                     ; 0x2014 <printf+0x8d5>
     578: aa           	tax
     579: a9 00        	lda	#$0
     57b: e5 15        	sbc	$15                     ; 0x2015 <printf+0x8d6>
     57d: 85 19        	sta	$19                     ; 0x2019 <printf+0x8da>
     57f: a5 16        	lda	$16                     ; 0x2016 <printf+0x8d7>
     581: 5a           	phy
     582: a4 16        	ldy	$16                     ; 0x2016 <printf+0x8d7>
     584: 84 18        	sty	$18                     ; 0x2018 <printf+0x8d9>
     586: 7a           	ply
     587: 38           	sec
     588: e5 12        	sbc	$12                     ; 0x2012 <printf+0x8d3>
     58a: 85 16        	sta	$16                     ; 0x2016 <printf+0x8d7>
     58c: 98           	tya
     58d: 84 1a        	sty	$1a                     ; 0x201a <printf+0x8db>
     58f: e5 13        	sbc	$13                     ; 0x2013 <printf+0x8d4>
     591: 85 17        	sta	$17                     ; 0x2017 <printf+0x8d8>
     593: 8a           	txa
     594: 86 1b        	stx	$1b                     ; 0x201b <printf+0x8dc>
     596: e5 14        	sbc	$14                     ; 0x2014 <printf+0x8d5>
     598: 85 1c        	sta	$1c                     ; 0x201c <printf+0x8dd>
     59a: a5 19        	lda	$19                     ; 0x2019 <printf+0x8da>
     59c: e5 15        	sbc	$15                     ; 0x2015 <printf+0x8d6>
     59e: aa           	tax
     59f: 38           	sec
     5a0: a5 16        	lda	$16                     ; 0x2016 <printf+0x8d7>
     5a2: e5 12        	sbc	$12                     ; 0x2012 <printf+0x8d3>
     5a4: 85 12        	sta	$12                     ; 0x2012 <printf+0x8d3>
     5a6: a5 17        	lda	$17                     ; 0x2017 <printf+0x8d8>
     5a8: e5 13        	sbc	$13                     ; 0x2013 <printf+0x8d4>
     5aa: 85 13        	sta	$13                     ; 0x2013 <printf+0x8d4>
     5ac: a5 1c        	lda	$1c                     ; 0x201c <printf+0x8dd>
     5ae: e5 14        	sbc	$14                     ; 0x2014 <printf+0x8d5>
     5b0: a8           	tay
     5b1: 8a           	txa
     5b2: e5 15        	sbc	$15                     ; 0x2015 <printf+0x8d6>
     5b4: a6 12        	ldx	$12                     ; 0x2012 <printf+0x8d3>
     5b6: 8e b5 28     	stx	$28b5                   ; 0x28b5 <_BITMAP_BASE.2>
     5b9: a6 13        	ldx	$13                     ; 0x2013 <printf+0x8d4>
     5bb: 8e b6 28     	stx	$28b6                   ; 0x28b6 <_BITMAP_BASE.2+0x1>
     5be: 8c b7 28     	sty	$28b7                   ; 0x28b7 <_BITMAP_BASE.2+0x2>
     5c1: 8d b8 28     	sta	$28b8                   ; 0x28b8 <_BITMAP_BASE.2+0x3>
     5c4: a5 18        	lda	$18                     ; 0x2018 <printf+0x8d9>
     5c6: 8d 01 d1     	sta	$d101                   ; 0xd101 <__heap_start+0xa847>
     5c9: a5 1a        	lda	$1a                     ; 0x201a <printf+0x8db>
     5cb: 8d 02 d1     	sta	$d102                   ; 0xd102 <__heap_start+0xa848>
     5ce: a6 1b        	ldx	$1b                     ; 0x201b <printf+0x8dc>
     5d0: 8e 03 d1     	stx	$d103                   ; 0xd103 <__heap_start+0xa849>
     5d3: a6 16        	ldx	$16                     ; 0x2016 <printf+0x8d7>
     5d5: 8e 09 d1     	stx	$d109                   ; 0xd109 <__heap_start+0xa84f>
     5d8: a6 17        	ldx	$17                     ; 0x2017 <printf+0x8d8>
     5da: 8e 0a d1     	stx	$d10a                   ; 0xd10a <__heap_start+0xa850>
     5dd: a6 1c        	ldx	$1c                     ; 0x201c <printf+0x8dd>
     5df: 8e 0b d1     	stx	$d10b                   ; 0xd10b <__heap_start+0xa851>
     5e2: ae b5 28     	ldx	$28b5                   ; 0x28b5 <_BITMAP_BASE.2>
     5e5: 8e 11 d1     	stx	$d111                   ; 0xd111 <__heap_start+0xa857>
     5e8: ae b6 28     	ldx	$28b6                   ; 0x28b6 <_BITMAP_BASE.2+0x1>
     5eb: 8e 12 d1     	stx	$d112                   ; 0xd112 <__heap_start+0xa858>
     5ee: ae b7 28     	ldx	$28b7                   ; 0x28b7 <_BITMAP_BASE.2+0x2>
     5f1: 8e 13 d1     	stx	$d113                   ; 0xd113 <__heap_start+0xa859>
     5f4: 9c 00 d1     	stz	$d100                   ; 0xd100 <__heap_start+0xa846>
     5f7: 9c 08 d1     	stz	$d108                   ; 0xd108 <__heap_start+0xa84e>
     5fa: 9c 10 d1     	stz	$d110                   ; 0xd110 <__heap_start+0xa856>
     5fd: a2 10        	ldx	#$10
     5ff: 8e 00 d2     	stx	$d200                   ; 0xd200 <__heap_start+0xa946>
     602: 8e 0c d2     	stx	$d20c                   ; 0xd20c <__heap_start+0xa952>
     605: 8e 18 d2     	stx	$d218                   ; 0xd218 <__heap_start+0xa95e>
     608: a0 d9        	ldy	#$d9
     60a: 64 12        	stz	$12                     ; 0x2012 <printf+0x8d3>
     60c: a2 00        	ldx	#$0
     60e: 84 13        	sty	$13                     ; 0x2013 <printf+0x8d4>
     610: b5 3b        	lda	$3b,x                   ; 0x203b <printf+0x8fc>
     612: 92 12        	sta	($12)                   ; 0x2012 <printf+0x8d3>
     614: a5 12        	lda	$12                     ; 0x2012 <printf+0x8d3>
     616: e8           	inx
     617: 18           	clc
     618: 69 08        	adc	#$8
     61a: 85 12        	sta	$12                     ; 0x2012 <printf+0x8d3>
     61c: 98           	tya
     61d: 69 00        	adc	#$0
     61f: a8           	tay
     620: e0 40        	cpx	#$40
     622: d0 ea        	bne	$60e <f256Init+0x2b7>
     624: a2 85        	ldx	#$85
     626: a0 00        	ldy	#$0
     628: 86 fb        	stx	$fb                     ; 0x20fb <printf+0x9bc>
     62a: 84 fc        	sty	$fc                     ; 0x20fc <printf+0x9bd>
     62c: a2 08        	ldx	#$8
     62e: 86 fd        	stx	$fd                     ; 0x20fd <printf+0x9be>
     630: a2 8d        	ldx	#$8d
     632: a0 00        	ldy	#$0
     634: 86 12        	stx	$12                     ; 0x2012 <printf+0x8d3>
     636: 84 13        	sty	$13                     ; 0x2013 <printf+0x8d4>
     638: a2 b4        	ldx	#$b4
     63a: 86 14        	stx	$14                     ; 0x2014 <printf+0x8d5>
     63c: a2 28        	ldx	#$28
     63e: 86 15        	stx	$15                     ; 0x2015 <printf+0x8d6>
     640: 20 dc ff     	jsr	$ffdc <__heap_start+0xd722>
     643: 92 12        	sta	($12)                   ; 0x2012 <printf+0x8d3>
     645: a9 00        	lda	#$0
     647: 6a           	ror
     648: 85 14        	sta	$14                     ; 0x2014 <printf+0x8d5>
     64a: a6 8b        	ldx	$8b                     ; 0x208b <printf+0x94c>
     64c: a4 8c        	ldy	$8c                     ; 0x208c <printf+0x94d>
     64e: 8e 00 de     	stx	$de00                   ; 0xde00 <__heap_start+0xb546>
     651: 9c 01 de     	stz	$de01                   ; 0xde01 <__heap_start+0xb547>
     654: 8c 02 de     	sty	$de02                   ; 0xde02 <__heap_start+0xb548>
     657: 9c 03 de     	stz	$de03                   ; 0xde03 <__heap_start+0xb549>
     65a: ae 10 de     	ldx	$de10                   ; 0xde10 <__heap_start+0xb556>
     65d: ac 11 de     	ldy	$de11                   ; 0xde11 <__heap_start+0xb557>
     660: ad 12 de     	lda	$de12                   ; 0xde12 <__heap_start+0xb558>
     663: ad 13 de     	lda	$de13                   ; 0xde13 <__heap_start+0xb559>
     666: 8e a4 d6     	stx	$d6a4                   ; 0xd6a4 <__heap_start+0xadea>
     669: 8c a5 d6     	sty	$d6a5                   ; 0xd6a5 <__heap_start+0xadeb>
     66c: a2 03        	ldx	#$3
     66e: 8e a6 d6     	stx	$d6a6                   ; 0xd6a6 <__heap_start+0xadec>
     671: 60           	rts

00000672 <textClear>:
     672: a6 01        	ldx	$1                      ; 0x2001 <printf+0x8c2>
     674: 86 18        	stx	$18                     ; 0x2018 <printf+0x8d9>
     676: a2 50        	ldx	#$50
     678: 8e 00 de     	stx	$de00                   ; 0xde00 <__heap_start+0xb546>
     67b: 9c 01 de     	stz	$de01                   ; 0xde01 <__heap_start+0xb547>
     67e: a2 1e        	ldx	#$1e
     680: 8e 02 de     	stx	$de02                   ; 0xde02 <__heap_start+0xb548>
     683: 9c 03 de     	stz	$de03                   ; 0xde03 <__heap_start+0xb549>
     686: ae 10 de     	ldx	$de10                   ; 0xde10 <__heap_start+0xb556>
     689: ac 11 de     	ldy	$de11                   ; 0xde11 <__heap_start+0xb557>
     68c: ad 12 de     	lda	$de12                   ; 0xde12 <__heap_start+0xb558>
     68f: ad 13 de     	lda	$de13                   ; 0xde13 <__heap_start+0xb559>
     692: a9 02        	lda	#$2
     694: 85 01        	sta	$1                      ; 0x2001 <printf+0x8c2>
     696: e0 01        	cpx	#$1
     698: 98           	tya
     699: e9 00        	sbc	#$0
     69b: 50 02        	bvc	$69f <textClear+0x2d>
     69d: 49 80        	eor	#$80
     69f: c9 00        	cmp	#$0
     6a1: 30 50        	bmi	$6f3 <textClear+0x81>
     6a3: a9 00        	lda	#$0
     6a5: 85 12        	sta	$12                     ; 0x2012 <printf+0x8d3>
     6a7: a9 c0        	lda	#$c0
     6a9: 85 13        	sta	$13                     ; 0x2013 <printf+0x8d4>
     6ab: a9 20        	lda	#$20
     6ad: 86 19        	stx	$19                     ; 0x2019 <printf+0x8da>
     6af: 86 14        	stx	$14                     ; 0x2014 <printf+0x8d5>
     6b1: 84 15        	sty	$15                     ; 0x2015 <printf+0x8d6>
     6b3: a2 00        	ldx	#$0
     6b5: 86 16        	stx	$16                     ; 0x2016 <printf+0x8d7>
     6b7: a2 c0        	ldx	#$c0
     6b9: 86 17        	stx	$17                     ; 0x2017 <printf+0x8d8>
     6bb: 92 16        	sta	($16)                   ; 0x2016 <printf+0x8d7>
     6bd: e6 16        	inc	$16                     ; 0x2016 <printf+0x8d7>
     6bf: d0 02        	bne	$6c3 <textClear+0x51>
     6c1: e6 17        	inc	$17                     ; 0x2017 <printf+0x8d8>
     6c3: a2 ff        	ldx	#$ff
     6c5: c6 14        	dec	$14                     ; 0x2014 <printf+0x8d5>
     6c7: e4 14        	cpx	$14                     ; 0x2014 <printf+0x8d5>
     6c9: d0 02        	bne	$6cd <textClear+0x5b>
     6cb: c6 15        	dec	$15                     ; 0x2015 <printf+0x8d6>
     6cd: a6 15        	ldx	$15                     ; 0x2015 <printf+0x8d6>
     6cf: d0 ea        	bne	$6bb <textClear+0x49>
     6d1: a6 14        	ldx	$14                     ; 0x2014 <printf+0x8d5>
     6d3: d0 e6        	bne	$6bb <textClear+0x49>
     6d5: a2 03        	ldx	#$3
     6d7: 86 01        	stx	$1                      ; 0x2001 <printf+0x8c2>
     6d9: a6 19        	ldx	$19                     ; 0x2019 <printf+0x8da>
     6db: a9 f0        	lda	#$f0
     6dd: 92 12        	sta	($12)                   ; 0x2012 <printf+0x8d3>
     6df: e6 12        	inc	$12                     ; 0x2012 <printf+0x8d3>
     6e1: d0 02        	bne	$6e5 <textClear+0x73>
     6e3: e6 13        	inc	$13                     ; 0x2013 <printf+0x8d4>
     6e5: ca           	dex
     6e6: e0 ff        	cpx	#$ff
     6e8: d0 01        	bne	$6eb <textClear+0x79>
     6ea: 88           	dey
     6eb: 98           	tya
     6ec: d0 ed        	bne	$6db <textClear+0x69>
     6ee: 8a           	txa
     6ef: d0 ea        	bne	$6db <textClear+0x69>
     6f1: 80 04        	bra	$6f7 <textClear+0x85>
     6f3: a2 03        	ldx	#$3
     6f5: 86 01        	stx	$1                      ; 0x2001 <printf+0x8c2>
     6f7: a6 18        	ldx	$18                     ; 0x2018 <printf+0x8d9>
     6f9: 86 01        	stx	$1                      ; 0x2001 <printf+0x8c2>
     6fb: 64 39        	stz	$39                     ; 0x2039 <printf+0x8fa>
     6fd: 9c 14 d0     	stz	$d014                   ; 0xd014 <__heap_start+0xa75a>
     700: 9c 15 d0     	stz	$d015                   ; 0xd015 <__heap_start+0xa75b>
     703: 64 3a        	stz	$3a                     ; 0x203a <printf+0x8fb>
     705: 9c 16 d0     	stz	$d016                   ; 0xd016 <__heap_start+0xa75c>
     708: 9c 17 d0     	stz	$d017                   ; 0xd017 <__heap_start+0xa75d>
     70b: 60           	rts

0000070c <main>:
     70c: 20 57 03     	jsr	$357 <f256Init>
     70f: 20 12 07     	jsr	$712 <f256main>

00000712 <f256main>:
     712: 18           	clc
     713: a5 10        	lda	$10                     ; 0x2010 <printf+0x8d1>
     715: 69 ec        	adc	#$ec
     717: 85 10        	sta	$10                     ; 0x2010 <printf+0x8d1>
     719: a5 11        	lda	$11                     ; 0x2011 <printf+0x8d2>
     71b: 69 ff        	adc	#$ff
     71d: 85 11        	sta	$11                     ; 0x2011 <printf+0x8d2>
     71f: 20 72 06     	jsr	$672 <textClear>
     722: 64 24        	stz	$24                     ; 0x2024 <printf+0x8e5>
     724: 9c 00 de     	stz	$de00                   ; 0xde00 <__heap_start+0xb546>
     727: 9c 01 de     	stz	$de01                   ; 0xde01 <__heap_start+0xb547>
     72a: a2 04        	ldx	#$4
     72c: 8e 02 de     	stx	$de02                   ; 0xde02 <__heap_start+0xb548>
     72f: 9c 03 de     	stz	$de03                   ; 0xde03 <__heap_start+0xb549>
     732: ad 10 de     	lda	$de10                   ; 0xde10 <__heap_start+0xb556>
     735: ae 11 de     	ldx	$de11                   ; 0xde11 <__heap_start+0xb557>
     738: 86 12        	stx	$12                     ; 0x2012 <printf+0x8d3>
     73a: ae 12 de     	ldx	$de12                   ; 0xde12 <__heap_start+0xb558>
     73d: ae 13 de     	ldx	$de13                   ; 0xde13 <__heap_start+0xb559>
     740: 18           	clc
     741: 65 24        	adc	$24                     ; 0x2024 <printf+0x8e5>
     743: aa           	tax
     744: a9 d8        	lda	#$d8
     746: 65 12        	adc	$12                     ; 0x2012 <printf+0x8d3>
     748: 86 12        	stx	$12                     ; 0x2012 <printf+0x8d3>
     74a: 85 13        	sta	$13                     ; 0x2013 <printf+0x8d4>
     74c: a9 ff        	lda	#$ff
     74e: 92 12        	sta	($12)                   ; 0x2012 <printf+0x8d3>
     750: a0 01        	ldy	#$1
     752: 91 12        	sta	($12),y                 ; 0x2012 <printf+0x8d3>
     754: c8           	iny
     755: 91 12        	sta	($12),y                 ; 0x2012 <printf+0x8d3>
     757: c8           	iny
     758: 91 12        	sta	($12),y                 ; 0x2012 <printf+0x8d3>
     75a: a2 7b        	ldx	#$7b
     75c: 8e a1 dd     	stx	$dda1                   ; 0xdda1 <__heap_start+0xb4e7>
     75f: 9c a1 dd     	stz	$dda1                   ; 0xdda1 <__heap_start+0xb4e7>
     762: 8d a1 dd     	sta	$dda1                   ; 0xdda1 <__heap_start+0xb4e7>
     765: a2 c0        	ldx	#$c0
     767: 8e a1 dd     	stx	$dda1                   ; 0xdda1 <__heap_start+0xb4e7>
     76a: a2 13        	ldx	#$13
     76c: 8e a1 dd     	stx	$dda1                   ; 0xdda1 <__heap_start+0xb4e7>
     76f: a0 c1        	ldy	#$c1
     771: 8c a1 dd     	sty	$dda1                   ; 0xdda1 <__heap_start+0xb4e7>
     774: 8e a1 dd     	stx	$dda1                   ; 0xdda1 <__heap_start+0xb4e7>
     777: a0 01        	ldy	#$1
     779: 84 80        	sty	$80                     ; 0x2080 <printf+0x941>
     77b: a2 1e        	ldx	#$1e
     77d: 86 81        	stx	$81                     ; 0x2081 <printf+0x942>
     77f: a2 03        	ldx	#$3
     781: 86 82        	stx	$82                     ; 0x2082 <printf+0x943>
     783: 84 01        	sty	$1                      ; 0x2001 <printf+0x8c2>
     785: a2 d0        	ldx	#$d0
     787: 88           	dey
     788: 18           	clc
     789: 84 17        	sty	$17                     ; 0x2017 <printf+0x8d8>
     78b: 98           	tya
     78c: 69 00        	adc	#$0
     78e: 85 14        	sta	$14                     ; 0x2014 <printf+0x8d5>
     790: 8a           	txa
     791: 69 10        	adc	#$10
     793: 85 15        	sta	$15                     ; 0x2015 <printf+0x8d6>
     795: 84 12        	sty	$12                     ; 0x2012 <printf+0x8d3>
     797: 86 13        	stx	$13                     ; 0x2013 <printf+0x8d4>
     799: a4 0f        	ldy	$f                      ; 0x200f <printf+0x8d0>
     79b: 78           	sei
     79c: a9 14        	lda	#$14
     79e: 85 0f        	sta	$f                      ; 0x200f <printf+0x8d0>
     7a0: b2 14        	lda	($14)                   ; 0x2014 <printf+0x8d5>
     7a2: 84 0f        	sty	$f                      ; 0x200f <printf+0x8d0>
     7a4: 58           	cli
     7a5: 92 12        	sta	($12)                   ; 0x2012 <printf+0x8d3>
     7a7: a4 17        	ldy	$17                     ; 0x2017 <printf+0x8d8>
     7a9: c8           	iny
     7aa: d0 01        	bne	$7ad <f256main+0x9b>
     7ac: e8           	inx
     7ad: e0 d3        	cpx	#$d3
     7af: d0 d7        	bne	$788 <f256main+0x76>
     7b1: c0 ff        	cpy	#$ff
     7b3: d0 d3        	bne	$788 <f256main+0x76>
     7b5: 64 01        	stz	$1                      ; 0x2001 <printf+0x8c2>
     7b7: 9c b5 28     	stz	$28b5                   ; 0x28b5 <_BITMAP_BASE.2>
     7ba: 9c b6 28     	stz	$28b6                   ; 0x28b6 <_BITMAP_BASE.2+0x1>
     7bd: a2 01        	ldx	#$1
     7bf: 8e b7 28     	stx	$28b7                   ; 0x28b7 <_BITMAP_BASE.2+0x2>
     7c2: 9c b8 28     	stz	$28b8                   ; 0x28b8 <_BITMAP_BASE.2+0x3>
     7c5: 9c 11 d1     	stz	$d111                   ; 0xd111 <__heap_start+0xa857>
     7c8: 9c 12 d1     	stz	$d112                   ; 0xd112 <__heap_start+0xa858>
     7cb: 8e 13 d1     	stx	$d113                   ; 0xd113 <__heap_start+0xa859>
     7ce: 8e 10 d1     	stx	$d110                   ; 0xd110 <__heap_start+0xa856>
     7d1: 64 01        	stz	$1                      ; 0x2001 <printf+0x8c2>
     7d3: 64 f3        	stz	$f3                     ; 0x20f3 <printf+0x9b4>
     7d5: a6 80        	ldx	$80                     ; 0x2080 <printf+0x941>
     7d7: 86 f4        	stx	$f4                     ; 0x20f4 <printf+0x9b5>
     7d9: 64 f5        	stz	$f5                     ; 0x20f5 <printf+0x9b6>
     7db: 18           	clc
     7dc: a5 10        	lda	$10                     ; 0x2010 <printf+0x8d1>
     7de: 69 07        	adc	#$7
     7e0: 85 12        	sta	$12                     ; 0x2012 <printf+0x8d3>
     7e2: a5 11        	lda	$11                     ; 0x2011 <printf+0x8d2>
     7e4: 69 00        	adc	#$0
     7e6: 85 13        	sta	$13                     ; 0x2013 <printf+0x8d4>
     7e8: a2 b4        	ldx	#$b4
     7ea: 86 14        	stx	$14                     ; 0x2014 <printf+0x8d5>
     7ec: a2 28        	ldx	#$28
     7ee: 86 15        	stx	$15                     ; 0x2015 <printf+0x8d6>
     7f0: a0 d9        	ldy	#$d9
     7f2: 64 16        	stz	$16                     ; 0x2016 <printf+0x8d7>
     7f4: a2 00        	ldx	#$0
     7f6: 20 f0 ff     	jsr	$fff0 <__heap_start+0xd736>
     7f9: 92 12        	sta	($12)                   ; 0x2012 <printf+0x8d3>
     7fb: a9 00        	lda	#$0
     7fd: 6a           	ror
     7fe: 85 14        	sta	$14                     ; 0x2014 <printf+0x8d5>
     800: a5 16        	lda	$16                     ; 0x2016 <printf+0x8d7>
     802: 85 12        	sta	$12                     ; 0x2012 <printf+0x8d3>
     804: 84 13        	sty	$13                     ; 0x2013 <printf+0x8d4>
     806: a9 60        	lda	#$60
     808: 9d 3b 00     	sta	$3b,x                   ; 0x3b <_spriteCtl>
     80b: 92 12        	sta	($12)                   ; 0x2012 <printf+0x8d3>
     80d: a5 16        	lda	$16                     ; 0x2016 <printf+0x8d7>
     80f: 09 01        	ora	#$1
     811: 85 12        	sta	$12                     ; 0x2012 <printf+0x8d3>
     813: a9 00        	lda	#$0
     815: 92 12        	sta	($12)                   ; 0x2012 <printf+0x8d3>
     817: a5 16        	lda	$16                     ; 0x2016 <printf+0x8d7>
     819: 09 02        	ora	#$2
     81b: 85 12        	sta	$12                     ; 0x2012 <printf+0x8d3>
     81d: a9 00        	lda	#$0
     81f: 92 12        	sta	($12)                   ; 0x2012 <printf+0x8d3>
     821: a5 16        	lda	$16                     ; 0x2016 <printf+0x8d7>
     823: 09 03        	ora	#$3
     825: 85 12        	sta	$12                     ; 0x2012 <printf+0x8d3>
     827: a9 03        	lda	#$3
     829: 92 12        	sta	($12)                   ; 0x2012 <printf+0x8d3>
     82b: e8           	inx
     82c: 18           	clc
     82d: a5 16        	lda	$16                     ; 0x2016 <printf+0x8d7>
     82f: 69 08        	adc	#$8
     831: 85 16        	sta	$16                     ; 0x2016 <printf+0x8d7>
     833: 98           	tya
     834: 69 00        	adc	#$0
     836: a8           	tay
     837: e0 09        	cpx	#$9
     839: d0 c5        	bne	$800 <f256main+0xee>
     83b: 64 45        	stz	$45                     ; 0x2045 <printf+0x906>
     83d: 9c 50 d9     	stz	$d950                   ; 0xd950 <__heap_start+0xb096>
     840: 9c 51 d9     	stz	$d951                   ; 0xd951 <__heap_start+0xb097>
     843: a2 80        	ldx	#$80
     845: 8e 52 d9     	stx	$d952                   ; 0xd952 <__heap_start+0xb098>
     848: a2 03        	ldx	#$3
     84a: 8e 53 d9     	stx	$d953                   ; 0xd953 <__heap_start+0xb099>
     84d: 64 46        	stz	$46                     ; 0x2046 <printf+0x907>
     84f: 9c 58 d9     	stz	$d958                   ; 0xd958 <__heap_start+0xb09e>
     852: 9c 59 d9     	stz	$d959                   ; 0xd959 <__heap_start+0xb09f>
     855: 9c 5a d9     	stz	$d95a                   ; 0xd95a <__heap_start+0xb0a0>
     858: e8           	inx
     859: 8e 5b d9     	stx	$d95b                   ; 0xd95b <__heap_start+0xb0a1>
     85c: e8           	inx
     85d: 86 39        	stx	$39                     ; 0x2039 <printf+0x8fa>
     85f: 8e 14 d0     	stx	$d014                   ; 0xd014 <__heap_start+0xa75a>
     862: 9c 15 d0     	stz	$d015                   ; 0xd015 <__heap_start+0xa75b>
     865: 64 3a        	stz	$3a                     ; 0x203a <printf+0x8fb>
     867: 9c 16 d0     	stz	$d016                   ; 0xd016 <__heap_start+0xa75c>
     86a: 9c 17 d0     	stz	$d017                   ; 0xd017 <__heap_start+0xa75d>
     86d: a2 f7        	ldx	#$f7
     86f: 86 12        	stx	$12                     ; 0x2012 <printf+0x8d3>
     871: a2 27        	ldx	#$27
     873: 86 13        	stx	$13                     ; 0x2013 <printf+0x8d4>
     875: 20 3f 17     	jsr	$173f <printf>
     878: a2 05        	ldx	#$5
     87a: 86 39        	stx	$39                     ; 0x2039 <printf+0x8fa>
     87c: 8e 14 d0     	stx	$d014                   ; 0xd014 <__heap_start+0xa75a>
     87f: 9c 15 d0     	stz	$d015                   ; 0xd015 <__heap_start+0xa75b>
     882: a2 01        	ldx	#$1
     884: 86 3a        	stx	$3a                     ; 0x203a <printf+0x8fb>
     886: 8e 16 d0     	stx	$d016                   ; 0xd016 <__heap_start+0xa75c>
     889: 9c 17 d0     	stz	$d017                   ; 0xd017 <__heap_start+0xa75d>
     88c: a2 9d        	ldx	#$9d
     88e: 86 12        	stx	$12                     ; 0x2012 <printf+0x8d3>
     890: a2 26        	ldx	#$26
     892: 86 13        	stx	$13                     ; 0x2013 <printf+0x8d4>
     894: 20 3f 17     	jsr	$173f <printf>
     897: a2 3c        	ldx	#$3c
     899: 86 39        	stx	$39                     ; 0x2039 <printf+0x8fa>
     89b: 8e 14 d0     	stx	$d014                   ; 0xd014 <__heap_start+0xa75a>
     89e: 9c 15 d0     	stz	$d015                   ; 0xd015 <__heap_start+0xa75b>
     8a1: a2 01        	ldx	#$1
     8a3: 86 3a        	stx	$3a                     ; 0x203a <printf+0x8fb>
     8a5: 8e 16 d0     	stx	$d016                   ; 0xd016 <__heap_start+0xa75c>
     8a8: 9c 17 d0     	stz	$d017                   ; 0xd017 <__heap_start+0xa75d>
     8ab: a2 f8        	ldx	#$f8
     8ad: 86 12        	stx	$12                     ; 0x2012 <printf+0x8d3>
     8af: a2 26        	ldx	#$26
     8b1: 86 13        	stx	$13                     ; 0x2013 <printf+0x8d4>
     8b3: 20 3f 17     	jsr	$173f <printf>
     8b6: a2 21        	ldx	#$21
     8b8: 86 39        	stx	$39                     ; 0x2039 <printf+0x8fa>
     8ba: 8e 14 d0     	stx	$d014                   ; 0xd014 <__heap_start+0xa75a>
     8bd: 9c 15 d0     	stz	$d015                   ; 0xd015 <__heap_start+0xa75b>
     8c0: a2 10        	ldx	#$10
     8c2: 86 3a        	stx	$3a                     ; 0x203a <printf+0x8fb>
     8c4: 8e 16 d0     	stx	$d016                   ; 0xd016 <__heap_start+0xa75c>
     8c7: 9c 17 d0     	stz	$d017                   ; 0xd017 <__heap_start+0xa75d>
     8ca: a2 cb        	ldx	#$cb
     8cc: 86 12        	stx	$12                     ; 0x2012 <printf+0x8d3>
     8ce: a2 27        	ldx	#$27
     8d0: 86 13        	stx	$13                     ; 0x2013 <printf+0x8d4>
     8d2: 20 3f 17     	jsr	$173f <printf>
     8d5: a2 22        	ldx	#$22
     8d7: 86 39        	stx	$39                     ; 0x2039 <printf+0x8fa>
     8d9: 8e 14 d0     	stx	$d014                   ; 0xd014 <__heap_start+0xa75a>
     8dc: 9c 15 d0     	stz	$d015                   ; 0xd015 <__heap_start+0xa75b>
     8df: a2 17        	ldx	#$17
     8e1: 86 3a        	stx	$3a                     ; 0x203a <printf+0x8fb>
     8e3: 8e 16 d0     	stx	$d016                   ; 0xd016 <__heap_start+0xa75c>
     8e6: 9c 17 d0     	stz	$d017                   ; 0xd017 <__heap_start+0xa75d>
     8e9: a2 62        	ldx	#$62
     8eb: 86 12        	stx	$12                     ; 0x2012 <printf+0x8d3>
     8ed: a2 28        	ldx	#$28
     8ef: 86 13        	stx	$13                     ; 0x2013 <printf+0x8d4>
     8f1: 20 3f 17     	jsr	$173f <printf>
     8f4: a2 0c        	ldx	#$c
     8f6: 86 39        	stx	$39                     ; 0x2039 <printf+0x8fa>
     8f8: 8e 14 d0     	stx	$d014                   ; 0xd014 <__heap_start+0xa75a>
     8fb: 9c 15 d0     	stz	$d015                   ; 0xd015 <__heap_start+0xa75b>
     8fe: a2 17        	ldx	#$17
     900: 86 3a        	stx	$3a                     ; 0x203a <printf+0x8fb>
     902: 8e 16 d0     	stx	$d016                   ; 0xd016 <__heap_start+0xa75c>
     905: 9c 17 d0     	stz	$d017                   ; 0xd017 <__heap_start+0xa75d>
     908: a2 41        	ldx	#$41
     90a: 86 12        	stx	$12                     ; 0x2012 <printf+0x8d3>
     90c: a2 27        	ldx	#$27
     90e: 86 13        	stx	$13                     ; 0x2013 <printf+0x8d4>
     910: 20 3f 17     	jsr	$173f <printf>
     913: a2 3c        	ldx	#$3c
     915: 86 39        	stx	$39                     ; 0x2039 <printf+0x8fa>
     917: 8e 14 d0     	stx	$d014                   ; 0xd014 <__heap_start+0xa75a>
     91a: 9c 15 d0     	stz	$d015                   ; 0xd015 <__heap_start+0xa75b>
     91d: a2 02        	ldx	#$2
     91f: 86 3a        	stx	$3a                     ; 0x203a <printf+0x8fb>
     921: 8e 16 d0     	stx	$d016                   ; 0xd016 <__heap_start+0xa75c>
     924: 9c 17 d0     	stz	$d017                   ; 0xd017 <__heap_start+0xa75d>
     927: a2 30        	ldx	#$30
     929: 86 12        	stx	$12                     ; 0x2012 <printf+0x8d3>
     92b: a2 27        	ldx	#$27
     92d: 86 13        	stx	$13                     ; 0x2013 <printf+0x8d4>
     92f: 20 3f 17     	jsr	$173f <printf>
     932: a2 3c        	ldx	#$3c
     934: 86 39        	stx	$39                     ; 0x2039 <printf+0x8fa>
     936: 8e 14 d0     	stx	$d014                   ; 0xd014 <__heap_start+0xa75a>
     939: 9c 15 d0     	stz	$d015                   ; 0xd015 <__heap_start+0xa75b>
     93c: a2 03        	ldx	#$3
     93e: 86 3a        	stx	$3a                     ; 0x203a <printf+0x8fb>
     940: 8e 16 d0     	stx	$d016                   ; 0xd016 <__heap_start+0xa75c>
     943: 9c 17 d0     	stz	$d017                   ; 0xd017 <__heap_start+0xa75d>
     946: a2 a5        	ldx	#$a5
     948: 86 12        	stx	$12                     ; 0x2012 <printf+0x8d3>
     94a: a2 28        	ldx	#$28
     94c: 86 13        	stx	$13                     ; 0x2013 <printf+0x8d4>
     94e: 20 3f 17     	jsr	$173f <printf>
     951: a2 13        	ldx	#$13
     953: 8a           	txa
     954: a0 04        	ldy	#$4
     956: 91 10        	sta	($10),y                 ; 0x2010 <printf+0x8d1>
     958: a2 b4        	ldx	#$b4
     95a: 86 26        	stx	$26                     ; 0x2026 <printf+0x8e7>
     95c: a2 28        	ldx	#$28
     95e: 86 27        	stx	$27                     ; 0x2027 <printf+0x8e8>
     960: 64 25        	stz	$25                     ; 0x2025 <printf+0x8e6>
     962: a2 00        	ldx	#$0
     964: 8a           	txa
     965: c8           	iny
     966: 91 10        	sta	($10),y                 ; 0x2010 <printf+0x8d1>
     968: 64 12        	stz	$12                     ; 0x2012 <printf+0x8d3>
     96a: 8a           	txa
     96b: 4c a3 12     	jmp	$12a3 <f256main+0xb91>
     96e: a5 7f        	lda	$7f                     ; 0x207f <printf+0x940>
     970: 29 01        	and	#$1
     972: f0 32        	beq	$9a6 <f256main+0x294>
     974: a2 9f        	ldx	#$9f
     976: 8e 08 d6     	stx	$d608                   ; 0xd608 <__heap_start+0xad4e>
     979: 80 43        	bra	$9be <f256main+0x2ac>
     97b: a6 36        	ldx	$36                     ; 0x2036 <printf+0x8f7>
     97d: 8a           	txa
     97e: 38           	sec
     97f: e9 92        	sbc	#$92
     981: 50 02        	bvc	$985 <f256main+0x273>
     983: 49 80        	eor	#$80
     985: a4 2a        	ldy	$2a                     ; 0x202a <printf+0x8eb>
     987: c9 00        	cmp	#$0
     989: 30 03        	bmi	$98e <f256main+0x27c>
     98b: 4c 3e 0a     	jmp	$a3e <f256main+0x32c>
     98e: e0 81        	cpx	#$81
     990: d0 03        	bne	$995 <f256main+0x283>
     992: 4c d3 0c     	jmp	$cd3 <f256main+0x5c1>
     995: e0 83        	cpx	#$83
     997: d0 03        	bne	$99c <f256main+0x28a>
     999: 4c 37 0e     	jmp	$e37 <f256main+0x725>
     99c: e0 85        	cpx	#$85
     99e: d0 03        	bne	$9a3 <f256main+0x291>
     9a0: 4c 85 0d     	jmp	$d85 <f256main+0x673>
     9a3: 4c 85 0f     	jmp	$f85 <f256main+0x873>
     9a6: a6 36        	ldx	$36                     ; 0x2036 <printf+0x8f7>
     9a8: 18           	clc
     9a9: a5 14        	lda	$14                     ; 0x2014 <printf+0x8d5>
     9ab: 65 12        	adc	$12                     ; 0x2012 <printf+0x8d3>
     9ad: 18           	clc
     9ae: 7d 3a 24     	adc	$243a,x                 ; 0x243a <KeyCodesToMIDINotes>
     9b1: a2 81        	ldx	#$81
     9b3: 8e a1 dd     	stx	$dda1                   ; 0xdda1 <__heap_start+0xb4e7>
     9b6: 8d a1 dd     	sta	$dda1                   ; 0xdda1 <__heap_start+0xb4e7>
     9b9: a2 4f        	ldx	#$4f
     9bb: 8e a1 dd     	stx	$dda1                   ; 0xdda1 <__heap_start+0xb4e7>
     9be: a4 2a        	ldy	$2a                     ; 0x202a <printf+0x8eb>
     9c0: a6 3b        	ldx	$3b                     ; 0x203b <printf+0x8fc>
     9c2: 8e 00 d9     	stx	$d900                   ; 0xd900 <__heap_start+0xb046>
     9c5: a6 29        	ldx	$29                     ; 0x2029 <printf+0x8ea>
     9c7: 8a           	txa
     9c8: 5a           	phy
     9c9: a0 05        	ldy	#$5
     9cb: 91 10        	sta	($10),y                 ; 0x2010 <printf+0x8d1>
     9cd: 7a           	ply
     9ce: a2 00        	ldx	#$0
     9d0: 98           	tya
     9d1: a0 04        	ldy	#$4
     9d3: 91 10        	sta	($10),y                 ; 0x2010 <printf+0x8d1>
     9d5: a5 28        	lda	$28                     ; 0x2028 <printf+0x8e9>
     9d7: d0 03        	bne	$9dc <f256main+0x2ca>
     9d9: 4c ae 12     	jmp	$12ae <f256main+0xb9c>
     9dc: a5 29        	lda	$29                     ; 0x2029 <printf+0x8ea>
     9de: d0 03        	bne	$9e3 <f256main+0x2d1>
     9e0: 4c c1 0a     	jmp	$ac1 <f256main+0x3af>
     9e3: a0 03        	ldy	#$3
     9e5: b1 10        	lda	($10),y                 ; 0x2010 <printf+0x8d1>
     9e7: aa           	tax
     9e8: c9 4a        	cmp	#$4a
     9ea: 90 03        	bcc	$9ef <f256main+0x2dd>
     9ec: 4c c7 0a     	jmp	$ac7 <f256main+0x3b5>
     9ef: 64 12        	stz	$12                     ; 0x2012 <printf+0x8d3>
     9f1: a9 00        	lda	#$0
     9f3: a0 05        	ldy	#$5
     9f5: 91 10        	sta	($10),y                 ; 0x2010 <printf+0x8d1>
     9f7: e8           	inx
     9f8: 8a           	txa
     9f9: a0 03        	ldy	#$3
     9fb: 91 10        	sta	($10),y                 ; 0x2010 <printf+0x8d1>
     9fd: bd 4b 26     	lda	$264b,x                 ; 0x264b <songNotes>
     a00: 85 83        	sta	$83                     ; 0x2083 <printf+0x944>
     a02: 64 84        	stz	$84                     ; 0x2084 <printf+0x945>
     a04: 0a           	asl
     a05: 85 12        	sta	$12                     ; 0x2012 <printf+0x8d3>
     a07: a9 00        	lda	#$0
     a09: 2a           	rol
     a0a: 85 13        	sta	$13                     ; 0x2013 <printf+0x8d4>
     a0c: a9 ab        	lda	#$ab
     a0e: 18           	clc
     a0f: 65 12        	adc	$12                     ; 0x2012 <printf+0x8d3>
     a11: 85 12        	sta	$12                     ; 0x2012 <printf+0x8d3>
     a13: a9 25        	lda	#$25
     a15: 65 13        	adc	$13                     ; 0x2013 <printf+0x8d4>
     a17: 85 13        	sta	$13                     ; 0x2013 <printf+0x8d4>
     a19: b2 12        	lda	($12)                   ; 0x2012 <printf+0x8d3>
     a1b: 85 14        	sta	$14                     ; 0x2014 <printf+0x8d5>
     a1d: a0 01        	ldy	#$1
     a1f: b1 12        	lda	($12),y                 ; 0x2012 <printf+0x8d3>
     a21: 85 12        	sta	$12                     ; 0x2012 <printf+0x8d3>
     a23: 98           	tya
     a24: 05 3c        	ora	$3c                     ; 0x203c <printf+0x8fd>
     a26: 8d 08 d9     	sta	$d908                   ; 0xd908 <__heap_start+0xb04e>
     a29: a6 14        	ldx	$14                     ; 0x2014 <printf+0x8d5>
     a2b: 8e 0c d9     	stx	$d90c                   ; 0xd90c <__heap_start+0xb052>
     a2e: a6 12        	ldx	$12                     ; 0x2012 <printf+0x8d3>
     a30: 8e 0d d9     	stx	$d90d                   ; 0xd90d <__heap_start+0xb053>
     a33: a2 c0        	ldx	#$c0
     a35: 8e 0e d9     	stx	$d90e                   ; 0xd90e <__heap_start+0xb054>
     a38: 9c 0f d9     	stz	$d90f                   ; 0xd90f <__heap_start+0xb055>
     a3b: 4c ce 0a     	jmp	$ace <f256main+0x3bc>
     a3e: 8a           	txa
     a3f: 38           	sec
     a40: e9 b6        	sbc	#$b6
     a42: c9 04        	cmp	#$4
     a44: 90 03        	bcc	$a49 <f256main+0x337>
     a46: 4c 9e 0e     	jmp	$e9e <f256main+0x78c>
     a49: 0a           	asl
     a4a: aa           	tax
     a4b: 7c 48 23     	jmp	($2348,x)               ; 0x2348 <__set_v+0x1>
     a4e: a6 83        	ldx	$83                     ; 0x2083 <printf+0x944>
     a50: a0 80        	ldy	#$80
     a52: 8c a1 dd     	sty	$dda1                   ; 0xdda1 <__heap_start+0xb4e7>
     a55: 8e a1 dd     	stx	$dda1                   ; 0xdda1 <__heap_start+0xb4e7>
     a58: a2 4f        	ldx	#$4f
     a5a: 8e a1 dd     	stx	$dda1                   ; 0xdda1 <__heap_start+0xb4e7>
     a5d: a4 2a        	ldy	$2a                     ; 0x202a <printf+0x8eb>
     a5f: 5a           	phy
     a60: a0 02        	ldy	#$2
     a62: b1 10        	lda	($10),y                 ; 0x2010 <printf+0x8d1>
     a64: 7a           	ply
     a65: aa           	tax
     a66: f0 03        	beq	$a6b <f256main+0x359>
     a68: 4c b9 0b     	jmp	$bb9 <f256main+0x4a7>
     a6b: 4c f6 10     	jmp	$10f6 <f256main+0x9e4>
     a6e: a6 30        	ldx	$30                     ; 0x2030 <printf+0x8f1>
     a70: a5 31        	lda	$31                     ; 0x2031 <printf+0x8f2>
     a72: e8           	inx
     a73: d0 03        	bne	$a78 <f256main+0x366>
     a75: 4c de 0e     	jmp	$ede <f256main+0x7cc>
     a78: da           	phx
     a79: 7a           	ply
     a7a: 86 30        	stx	$30                     ; 0x2030 <printf+0x8f1>
     a7c: 85 12        	sta	$12                     ; 0x2012 <printf+0x8d3>
     a7e: 85 31        	sta	$31                     ; 0x2031 <printf+0x8f2>
     a80: a5 7e        	lda	$7e                     ; 0x207e <printf+0x93f>
     a82: 29 01        	and	#$1
     a84: a2 45        	ldx	#$45
     a86: c9 00        	cmp	#$0
     a88: d0 03        	bne	$a8d <f256main+0x37b>
     a8a: 4c e2 0e     	jmp	$ee2 <f256main+0x7d0>
     a8d: 8e 54 d9     	stx	$d954                   ; 0xd954 <__heap_start+0xb09a>
     a90: a2 00        	ldx	#$0
     a92: 8e 55 d9     	stx	$d955                   ; 0xd955 <__heap_start+0xb09b>
     a95: 8c 56 d9     	sty	$d956                   ; 0xd956 <__heap_start+0xb09c>
     a98: a6 12        	ldx	$12                     ; 0x2012 <printf+0x8d3>
     a9a: 8e 57 d9     	stx	$d957                   ; 0xd957 <__heap_start+0xb09d>
     a9d: a2 65        	ldx	#$65
     a9f: a8           	tay
     aa0: d0 03        	bne	$aa5 <f256main+0x393>
     aa2: 4c e7 0e     	jmp	$ee7 <f256main+0x7d5>
     aa5: a4 30        	ldy	$30                     ; 0x2030 <printf+0x8f1>
     aa7: a5 31        	lda	$31                     ; 0x2031 <printf+0x8f2>
     aa9: 8e 5c d9     	stx	$d95c                   ; 0xd95c <__heap_start+0xb0a2>
     aac: a2 00        	ldx	#$0
     aae: 8e 5d d9     	stx	$d95d                   ; 0xd95d <__heap_start+0xb0a3>
     ab1: 8c 5e d9     	sty	$d95e                   ; 0xd95e <__heap_start+0xb0a4>
     ab4: 8d 5f d9     	sta	$d95f                   ; 0xd95f <__heap_start+0xb0a5>
     ab7: a6 31        	ldx	$31                     ; 0x2031 <printf+0x8f2>
     ab9: f0 03        	beq	$abe <f256main+0x3ac>
     abb: 4c 2e 0f     	jmp	$f2e <f256main+0x81c>
     abe: 4c ec 0e     	jmp	$eec <f256main+0x7da>
     ac1: 64 12        	stz	$12                     ; 0x2012 <printf+0x8d3>
     ac3: a9 00        	lda	#$0
     ac5: 80 03        	bra	$aca <f256main+0x3b8>
     ac7: a2 01        	ldx	#$1
     ac9: 8a           	txa
     aca: a0 05        	ldy	#$5
     acc: 91 10        	sta	($10),y                 ; 0x2010 <printf+0x8d1>
     ace: a4 2a        	ldy	$2a                     ; 0x202a <printf+0x8eb>
     ad0: a2 01        	ldx	#$1
     ad2: 98           	tya
     ad3: a0 04        	ldy	#$4
     ad5: 91 10        	sta	($10),y                 ; 0x2010 <printf+0x8d1>
     ad7: 88           	dey
     ad8: b1 10        	lda	($10),y                 ; 0x2010 <printf+0x8d1>
     ada: c9 4a        	cmp	#$4a
     adc: f0 03        	beq	$ae1 <f256main+0x3cf>
     ade: 4c ae 12     	jmp	$12ae <f256main+0xb9c>
     ae1: a2 19        	ldx	#$19
     ae3: 86 39        	stx	$39                     ; 0x2039 <printf+0x8fa>
     ae5: 8e 14 d0     	stx	$d014                   ; 0xd014 <__heap_start+0xa75a>
     ae8: 9c 15 d0     	stz	$d015                   ; 0xd015 <__heap_start+0xa75b>
     aeb: a2 08        	ldx	#$8
     aed: 86 3a        	stx	$3a                     ; 0x203a <printf+0x8fb>
     aef: 8e 16 d0     	stx	$d016                   ; 0xd016 <__heap_start+0xa75c>
     af2: 9c 17 d0     	stz	$d017                   ; 0xd017 <__heap_start+0xa75d>
     af5: a2 00        	ldx	#$0
     af7: a9 2f        	lda	#$2f
     af9: 20 ef 22     	jsr	$22ef <putchar>
     afc: a2 1a        	ldx	#$1a
     afe: 86 39        	stx	$39                     ; 0x2039 <printf+0x8fa>
     b00: 8e 14 d0     	stx	$d014                   ; 0xd014 <__heap_start+0xa75a>
     b03: 9c 15 d0     	stz	$d015                   ; 0xd015 <__heap_start+0xa75b>
     b06: a2 07        	ldx	#$7
     b08: 86 3a        	stx	$3a                     ; 0x203a <printf+0x8fb>
     b0a: 8e 16 d0     	stx	$d016                   ; 0xd016 <__heap_start+0xa75c>
     b0d: 9c 17 d0     	stz	$d017                   ; 0xd017 <__heap_start+0xa75d>
     b10: a6 7d        	ldx	$7d                     ; 0x207d <printf+0x93e>
     b12: e0 48        	cpx	#$48
     b14: b0 03        	bcs	$b19 <f256main+0x407>
     b16: 4c b7 0c     	jmp	$cb7 <f256main+0x5a5>
     b19: a2 49        	ldx	#$49
     b1b: 86 12        	stx	$12                     ; 0x2012 <printf+0x8d3>
     b1d: a2 28        	ldx	#$28
     b1f: 86 13        	stx	$13                     ; 0x2013 <printf+0x8d4>
     b21: 20 3f 17     	jsr	$173f <printf>
     b24: a2 01        	ldx	#$1
     b26: 86 7e        	stx	$7e                     ; 0x207e <printf+0x93f>
     b28: a2 50        	ldx	#$50
     b2a: 86 30        	stx	$30                     ; 0x2030 <printf+0x8f1>
     b2c: 64 31        	stz	$31                     ; 0x2031 <printf+0x8f2>
     b2e: a9 01        	lda	#$1
     b30: 05 45        	ora	$45                     ; 0x2045 <printf+0x906>
     b32: 8d 50 d9     	sta	$d950                   ; 0xd950 <__heap_start+0xb096>
     b35: a6 30        	ldx	$30                     ; 0x2030 <printf+0x8f1>
     b37: a4 31        	ldy	$31                     ; 0x2031 <printf+0x8f2>
     b39: a9 45        	lda	#$45
     b3b: 8d 54 d9     	sta	$d954                   ; 0xd954 <__heap_start+0xb09a>
     b3e: 9c 55 d9     	stz	$d955                   ; 0xd955 <__heap_start+0xb09b>
     b41: 8e 56 d9     	stx	$d956                   ; 0xd956 <__heap_start+0xb09c>
     b44: 8c 57 d9     	sty	$d957                   ; 0xd957 <__heap_start+0xb09d>
     b47: a9 01        	lda	#$1
     b49: 05 46        	ora	$46                     ; 0x2046 <printf+0x907>
     b4b: 8d 58 d9     	sta	$d958                   ; 0xd958 <__heap_start+0xb09e>
     b4e: a6 30        	ldx	$30                     ; 0x2030 <printf+0x8f1>
     b50: a4 31        	ldy	$31                     ; 0x2031 <printf+0x8f2>
     b52: a9 65        	lda	#$65
     b54: 8d 5c d9     	sta	$d95c                   ; 0xd95c <__heap_start+0xb0a2>
     b57: 9c 5d d9     	stz	$d95d                   ; 0xd95d <__heap_start+0xb0a3>
     b5a: 8e 5e d9     	stx	$d95e                   ; 0xd95e <__heap_start+0xb0a4>
     b5d: 8c 5f d9     	sty	$d95f                   ; 0xd95f <__heap_start+0xb0a5>
     b60: a2 80        	ldx	#$80
     b62: 86 f3        	stx	$f3                     ; 0x20f3 <printf+0x9b4>
     b64: 18           	clc
     b65: a5 10        	lda	$10                     ; 0x2010 <printf+0x8d1>
     b67: 69 12        	adc	#$12
     b69: 85 12        	sta	$12                     ; 0x2012 <printf+0x8d3>
     b6b: a5 11        	lda	$11                     ; 0x2011 <printf+0x8d2>
     b6d: 69 00        	adc	#$0
     b6f: 85 13        	sta	$13                     ; 0x2013 <printf+0x8d4>
     b71: 20 f0 ff     	jsr	$fff0 <__heap_start+0xd736>
     b74: 92 12        	sta	($12)                   ; 0x2012 <printf+0x8d3>
     b76: a9 00        	lda	#$0
     b78: 6a           	ror
     b79: 85 26        	sta	$26                     ; 0x2026 <printf+0x8e7>
     b7b: a9 03        	lda	#$3
     b7d: 18           	clc
     b7e: 72 12        	adc	($12)                   ; 0x2012 <printf+0x8d3>
     b80: 85 82        	sta	$82                     ; 0x2082 <printf+0x943>
     b82: 64 f3        	stz	$f3                     ; 0x20f3 <printf+0x9b4>
     b84: a6 82        	ldx	$82                     ; 0x2082 <printf+0x943>
     b86: 86 f4        	stx	$f4                     ; 0x20f4 <printf+0x9b5>
     b88: a2 02        	ldx	#$2
     b8a: 86 f5        	stx	$f5                     ; 0x20f5 <printf+0x9b6>
     b8c: 18           	clc
     b8d: a5 10        	lda	$10                     ; 0x2010 <printf+0x8d1>
     b8f: 69 13        	adc	#$13
     b91: 85 12        	sta	$12                     ; 0x2012 <printf+0x8d3>
     b93: a5 11        	lda	$11                     ; 0x2011 <printf+0x8d2>
     b95: 69 00        	adc	#$0
     b97: 85 13        	sta	$13                     ; 0x2013 <printf+0x8d4>
     b99: a2 4a        	ldx	#$4a
     b9b: 8a           	txa
     b9c: a0 03        	ldy	#$3
     b9e: 91 10        	sta	($10),y                 ; 0x2010 <printf+0x8d1>
     ba0: a2 00        	ldx	#$0
     ba2: 8a           	txa
     ba3: a0 05        	ldy	#$5
     ba5: 91 10        	sta	($10),y                 ; 0x2010 <printf+0x8d1>
     ba7: a5 2a        	lda	$2a                     ; 0x202a <printf+0x8eb>
     ba9: 88           	dey
     baa: 91 10        	sta	($10),y                 ; 0x2010 <printf+0x8d1>
     bac: 20 f0 ff     	jsr	$fff0 <__heap_start+0xd736>
     baf: 92 12        	sta	($12)                   ; 0x2012 <printf+0x8d3>
     bb1: a9 00        	lda	#$0
     bb3: 6a           	ror
     bb4: 85 26        	sta	$26                     ; 0x2026 <printf+0x8e7>
     bb6: 4c ae 12     	jmp	$12ae <f256main+0xb9c>
     bb9: 5a           	phy
     bba: a0 03        	ldy	#$3
     bbc: b1 10        	lda	($10),y                 ; 0x2010 <printf+0x8d1>
     bbe: 7a           	ply
     bbf: aa           	tax
     bc0: c9 49        	cmp	#$49
     bc2: 90 03        	bcc	$bc7 <f256main+0x4b5>
     bc4: 4c ce 10     	jmp	$10ce <f256main+0x9bc>
     bc7: e8           	inx
     bc8: 8a           	txa
     bc9: a0 03        	ldy	#$3
     bcb: 91 10        	sta	($10),y                 ; 0x2010 <printf+0x8d1>
     bcd: bd 4b 26     	lda	$264b,x                 ; 0x264b <songNotes>
     bd0: aa           	tax
     bd1: 86 83        	stx	$83                     ; 0x2083 <printf+0x944>
     bd3: 64 84        	stz	$84                     ; 0x2084 <printf+0x945>
     bd5: a2 80        	ldx	#$80
     bd7: 86 f3        	stx	$f3                     ; 0x20f3 <printf+0x9b4>
     bd9: 18           	clc
     bda: a5 10        	lda	$10                     ; 0x2010 <printf+0x8d1>
     bdc: 69 0a        	adc	#$a
     bde: 85 12        	sta	$12                     ; 0x2012 <printf+0x8d3>
     be0: a5 11        	lda	$11                     ; 0x2011 <printf+0x8d2>
     be2: 69 00        	adc	#$0
     be4: 85 13        	sta	$13                     ; 0x2013 <printf+0x8d4>
     be6: 20 f0 ff     	jsr	$fff0 <__heap_start+0xd736>
     be9: 92 12        	sta	($12)                   ; 0x2012 <printf+0x8d3>
     beb: a9 00        	lda	#$0
     bed: 6a           	ror
     bee: 85 26        	sta	$26                     ; 0x2026 <printf+0x8e7>
     bf0: a9 19        	lda	#$19
     bf2: 18           	clc
     bf3: 72 12        	adc	($12)                   ; 0x2012 <printf+0x8d3>
     bf5: 85 81        	sta	$81                     ; 0x2081 <printf+0x942>
     bf7: a5 7f        	lda	$7f                     ; 0x207f <printf+0x940>
     bf9: 29 01        	and	#$1
     bfb: f0 38        	beq	$c35 <f256main+0x523>
     bfd: a2 9f        	ldx	#$9f
     bff: 8e 08 d6     	stx	$d608                   ; 0xd608 <__heap_start+0xad4e>
     c02: a2 94        	ldx	#$94
     c04: 8e 08 d6     	stx	$d608                   ; 0xd608 <__heap_start+0xad4e>
     c07: a9 ba        	lda	#$ba
     c09: 18           	clc
     c0a: 65 83        	adc	$83                     ; 0x2083 <printf+0x944>
     c0c: 85 12        	sta	$12                     ; 0x2012 <printf+0x8d3>
     c0e: a9 23        	lda	#$23
     c10: 65 84        	adc	$84                     ; 0x2084 <printf+0x945>
     c12: 85 13        	sta	$13                     ; 0x2013 <printf+0x8d4>
     c14: b2 12        	lda	($12)                   ; 0x2012 <printf+0x8d3>
     c16: aa           	tax
     c17: bd b5 24     	lda	$24b5,x                 ; 0x24b5 <KeyCodesToLoPSG>
     c1a: aa           	tax
     c1b: 8e 08 d6     	stx	$d608                   ; 0xd608 <__heap_start+0xad4e>
     c1e: 18           	clc
     c1f: a9 ba        	lda	#$ba
     c21: 65 83        	adc	$83                     ; 0x2083 <printf+0x944>
     c23: 85 12        	sta	$12                     ; 0x2012 <printf+0x8d3>
     c25: a9 23        	lda	#$23
     c27: 65 84        	adc	$84                     ; 0x2084 <printf+0x945>
     c29: 85 13        	sta	$13                     ; 0x2013 <printf+0x8d4>
     c2b: b2 12        	lda	($12)                   ; 0x2012 <printf+0x8d3>
     c2d: aa           	tax
     c2e: bd 30 25     	lda	$2530,x                 ; 0x2530 <KeyCodesToHiPSG>
     c31: aa           	tax
     c32: 8e 08 d6     	stx	$d608                   ; 0xd608 <__heap_start+0xad4e>
     c35: 64 f3        	stz	$f3                     ; 0x20f3 <printf+0x9b4>
     c37: a6 81        	ldx	$81                     ; 0x2081 <printf+0x942>
     c39: 86 f4        	stx	$f4                     ; 0x20f4 <printf+0x9b5>
     c3b: a2 01        	ldx	#$1
     c3d: 86 f5        	stx	$f5                     ; 0x20f5 <printf+0x9b6>
     c3f: 18           	clc
     c40: a5 10        	lda	$10                     ; 0x2010 <printf+0x8d1>
     c42: 69 0b        	adc	#$b
     c44: 85 12        	sta	$12                     ; 0x2012 <printf+0x8d3>
     c46: a5 11        	lda	$11                     ; 0x2011 <printf+0x8d2>
     c48: 69 00        	adc	#$0
     c4a: 85 13        	sta	$13                     ; 0x2013 <printf+0x8d4>
     c4c: 20 f0 ff     	jsr	$fff0 <__heap_start+0xd736>
     c4f: 92 12        	sta	($12)                   ; 0x2012 <printf+0x8d3>
     c51: a9 00        	lda	#$0
     c53: 6a           	ror
     c54: 85 26        	sta	$26                     ; 0x2026 <printf+0x8e7>
     c56: a5 7f        	lda	$7f                     ; 0x207f <printf+0x940>
     c58: 29 01        	and	#$1
     c5a: d0 0f        	bne	$c6b <f256main+0x559>
     c5c: a6 83        	ldx	$83                     ; 0x2083 <printf+0x944>
     c5e: a0 90        	ldy	#$90
     c60: 8c a1 dd     	sty	$dda1                   ; 0xdda1 <__heap_start+0xb4e7>
     c63: 8e a1 dd     	stx	$dda1                   ; 0xdda1 <__heap_start+0xb4e7>
     c66: a2 7f        	ldx	#$7f
     c68: 8e a1 dd     	stx	$dda1                   ; 0xdda1 <__heap_start+0xb4e7>
     c6b: a5 83        	lda	$83                     ; 0x2083 <printf+0x944>
     c6d: 0a           	asl
     c6e: 85 12        	sta	$12                     ; 0x2012 <printf+0x8d3>
     c70: a9 00        	lda	#$0
     c72: 2a           	rol
     c73: 85 13        	sta	$13                     ; 0x2013 <printf+0x8d4>
     c75: a9 ab        	lda	#$ab
     c77: 18           	clc
     c78: 65 12        	adc	$12                     ; 0x2012 <printf+0x8d3>
     c7a: 85 12        	sta	$12                     ; 0x2012 <printf+0x8d3>
     c7c: a9 25        	lda	#$25
     c7e: 65 13        	adc	$13                     ; 0x2013 <printf+0x8d4>
     c80: 85 13        	sta	$13                     ; 0x2013 <printf+0x8d4>
     c82: b2 12        	lda	($12)                   ; 0x2012 <printf+0x8d3>
     c84: 85 14        	sta	$14                     ; 0x2014 <printf+0x8d5>
     c86: a0 01        	ldy	#$1
     c88: b1 12        	lda	($12),y                 ; 0x2012 <printf+0x8d3>
     c8a: 85 12        	sta	$12                     ; 0x2012 <printf+0x8d3>
     c8c: 98           	tya
     c8d: 05 3c        	ora	$3c                     ; 0x203c <printf+0x8fd>
     c8f: 8d 08 d9     	sta	$d908                   ; 0xd908 <__heap_start+0xb04e>
     c92: a6 14        	ldx	$14                     ; 0x2014 <printf+0x8d5>
     c94: 8e 0c d9     	stx	$d90c                   ; 0xd90c <__heap_start+0xb052>
     c97: a6 12        	ldx	$12                     ; 0x2012 <printf+0x8d3>
     c99: 8e 0d d9     	stx	$d90d                   ; 0xd90d <__heap_start+0xb053>
     c9c: a2 c0        	ldx	#$c0
     c9e: 8e 0e d9     	stx	$d90e                   ; 0xd90e <__heap_start+0xb054>
     ca1: 9c 0f d9     	stz	$d90f                   ; 0xd90f <__heap_start+0xb055>
     ca4: a5 29        	lda	$29                     ; 0x2029 <printf+0x8ea>
     ca6: a0 05        	ldy	#$5
     ca8: 91 10        	sta	($10),y                 ; 0x2010 <printf+0x8d1>
     caa: a6 28        	ldx	$28                     ; 0x2028 <printf+0x8e9>
     cac: a5 2a        	lda	$2a                     ; 0x202a <printf+0x8eb>
     cae: 88           	dey
     caf: 91 10        	sta	($10),y                 ; 0x2010 <printf+0x8d1>
     cb1: a0 01        	ldy	#$1
     cb3: 98           	tya
     cb4: 4c f1 10     	jmp	$10f1 <f256main+0x9df>
     cb7: a2 19        	ldx	#$19
     cb9: 86 12        	stx	$12                     ; 0x2012 <printf+0x8d3>
     cbb: a2 27        	ldx	#$27
     cbd: 86 13        	stx	$13                     ; 0x2013 <printf+0x8d4>
     cbf: 20 3f 17     	jsr	$173f <printf>
     cc2: a2 4a        	ldx	#$4a
     cc4: 8a           	txa
     cc5: a0 03        	ldy	#$3
     cc7: 91 10        	sta	($10),y                 ; 0x2010 <printf+0x8d1>
     cc9: a2 00        	ldx	#$0
     ccb: 8a           	txa
     ccc: a0 05        	ldy	#$5
     cce: 91 10        	sta	($10),y                 ; 0x2010 <printf+0x8d1>
     cd0: 4c cd 11     	jmp	$11cd <f256main+0xabb>
     cd3: 64 7d        	stz	$7d                     ; 0x207d <printf+0x93e>
     cd5: a2 80        	ldx	#$80
     cd7: 86 f3        	stx	$f3                     ; 0x20f3 <printf+0x9b4>
     cd9: 18           	clc
     cda: a5 10        	lda	$10                     ; 0x2010 <printf+0x8d1>
     cdc: 69 0e        	adc	#$e
     cde: 85 12        	sta	$12                     ; 0x2012 <printf+0x8d3>
     ce0: a5 11        	lda	$11                     ; 0x2011 <printf+0x8d2>
     ce2: 69 00        	adc	#$0
     ce4: 85 13        	sta	$13                     ; 0x2013 <printf+0x8d4>
     ce6: 20 f0 ff     	jsr	$fff0 <__heap_start+0xd736>
     ce9: 92 12        	sta	($12)                   ; 0x2012 <printf+0x8d3>
     ceb: a9 00        	lda	#$0
     ced: 6a           	ror
     cee: 85 26        	sta	$26                     ; 0x2026 <printf+0x8e7>
     cf0: a9 1e        	lda	#$1e
     cf2: 18           	clc
     cf3: 72 12        	adc	($12)                   ; 0x2012 <printf+0x8d3>
     cf5: 85 81        	sta	$81                     ; 0x2081 <printf+0x942>
     cf7: a2 37        	ldx	#$37
     cf9: 86 83        	stx	$83                     ; 0x2083 <printf+0x944>
     cfb: 64 84        	stz	$84                     ; 0x2084 <printf+0x945>
     cfd: 64 f3        	stz	$f3                     ; 0x20f3 <printf+0x9b4>
     cff: a6 81        	ldx	$81                     ; 0x2081 <printf+0x942>
     d01: 86 f4        	stx	$f4                     ; 0x20f4 <printf+0x9b5>
     d03: a0 01        	ldy	#$1
     d05: a2 01        	ldx	#$1
     d07: 8a           	txa
     d08: 5a           	phy
     d09: a0 03        	ldy	#$3
     d0b: 91 10        	sta	($10),y                 ; 0x2010 <printf+0x8d1>
     d0d: 7a           	ply
     d0e: 84 f5        	sty	$f5                     ; 0x20f5 <printf+0x9b6>
     d10: 18           	clc
     d11: a5 10        	lda	$10                     ; 0x2010 <printf+0x8d1>
     d13: 69 0f        	adc	#$f
     d15: 85 12        	sta	$12                     ; 0x2012 <printf+0x8d3>
     d17: a5 11        	lda	$11                     ; 0x2011 <printf+0x8d2>
     d19: 69 00        	adc	#$0
     d1b: 85 13        	sta	$13                     ; 0x2013 <printf+0x8d4>
     d1d: 20 f0 ff     	jsr	$fff0 <__heap_start+0xd736>
     d20: 92 12        	sta	($12)                   ; 0x2012 <printf+0x8d3>
     d22: a9 00        	lda	#$0
     d24: 6a           	ror
     d25: 85 26        	sta	$26                     ; 0x2026 <printf+0x8e7>
     d27: a6 83        	ldx	$83                     ; 0x2083 <printf+0x944>
     d29: a0 90        	ldy	#$90
     d2b: 8c a1 dd     	sty	$dda1                   ; 0xdda1 <__heap_start+0xb4e7>
     d2e: 8e a1 dd     	stx	$dda1                   ; 0xdda1 <__heap_start+0xb4e7>
     d31: a2 7f        	ldx	#$7f
     d33: 8e a1 dd     	stx	$dda1                   ; 0xdda1 <__heap_start+0xb4e7>
     d36: a2 19        	ldx	#$19
     d38: 86 39        	stx	$39                     ; 0x2039 <printf+0x8fa>
     d3a: 8e 14 d0     	stx	$d014                   ; 0xd014 <__heap_start+0xa75a>
     d3d: 9c 15 d0     	stz	$d015                   ; 0xd015 <__heap_start+0xa75b>
     d40: a2 08        	ldx	#$8
     d42: 86 3a        	stx	$3a                     ; 0x203a <printf+0x8fb>
     d44: 8e 16 d0     	stx	$d016                   ; 0xd016 <__heap_start+0xa75c>
     d47: 9c 17 d0     	stz	$d017                   ; 0xd017 <__heap_start+0xa75d>
     d4a: a2 00        	ldx	#$0
     d4c: a9 20        	lda	#$20
     d4e: 20 ef 22     	jsr	$22ef <putchar>
     d51: a2 1a        	ldx	#$1a
     d53: 86 39        	stx	$39                     ; 0x2039 <printf+0x8fa>
     d55: 8e 14 d0     	stx	$d014                   ; 0xd014 <__heap_start+0xa75a>
     d58: 9c 15 d0     	stz	$d015                   ; 0xd015 <__heap_start+0xa75b>
     d5b: a2 07        	ldx	#$7
     d5d: 86 3a        	stx	$3a                     ; 0x203a <printf+0x8fb>
     d5f: 8e 16 d0     	stx	$d016                   ; 0xd016 <__heap_start+0xa75c>
     d62: 9c 17 d0     	stz	$d017                   ; 0xd017 <__heap_start+0xa75d>
     d65: a2 8e        	ldx	#$8e
     d67: 86 12        	stx	$12                     ; 0x2012 <printf+0x8d3>
     d69: a2 28        	ldx	#$28
     d6b: 86 13        	stx	$13                     ; 0x2013 <printf+0x8d4>
     d6d: 20 3f 17     	jsr	$173f <printf>
     d70: a6 45        	ldx	$45                     ; 0x2045 <printf+0x906>
     d72: 8e 50 d9     	stx	$d950                   ; 0xd950 <__heap_start+0xb096>
     d75: a6 46        	ldx	$46                     ; 0x2046 <printf+0x907>
     d77: 8e 58 d9     	stx	$d958                   ; 0xd958 <__heap_start+0xb09e>
     d7a: a2 00        	ldx	#$0
     d7c: 8a           	txa
     d7d: a0 05        	ldy	#$5
     d7f: 91 10        	sta	($10),y                 ; 0x2010 <printf+0x8d1>
     d81: e8           	inx
     d82: 4c cd 11     	jmp	$11cd <f256main+0xabb>
     d85: 64 7d        	stz	$7d                     ; 0x207d <printf+0x93e>
     d87: a2 80        	ldx	#$80
     d89: 86 f3        	stx	$f3                     ; 0x20f3 <printf+0x9b4>
     d8b: 18           	clc
     d8c: a5 10        	lda	$10                     ; 0x2010 <printf+0x8d1>
     d8e: 69 10        	adc	#$10
     d90: 85 12        	sta	$12                     ; 0x2012 <printf+0x8d3>
     d92: a5 11        	lda	$11                     ; 0x2011 <printf+0x8d2>
     d94: 69 00        	adc	#$0
     d96: 85 13        	sta	$13                     ; 0x2013 <printf+0x8d4>
     d98: 20 f0 ff     	jsr	$fff0 <__heap_start+0xd736>
     d9b: 92 12        	sta	($12)                   ; 0x2012 <printf+0x8d3>
     d9d: a9 00        	lda	#$0
     d9f: 6a           	ror
     da0: 85 26        	sta	$26                     ; 0x2026 <printf+0x8e7>
     da2: a9 19        	lda	#$19
     da4: 18           	clc
     da5: 72 12        	adc	($12)                   ; 0x2012 <printf+0x8d3>
     da7: 85 81        	sta	$81                     ; 0x2081 <printf+0x942>
     da9: 64 83        	stz	$83                     ; 0x2083 <printf+0x944>
     dab: 64 84        	stz	$84                     ; 0x2084 <printf+0x945>
     dad: a5 7f        	lda	$7f                     ; 0x207f <printf+0x940>
     daf: 29 01        	and	#$1
     db1: f0 38        	beq	$deb <f256main+0x6d9>
     db3: a2 9f        	ldx	#$9f
     db5: 8e 08 d6     	stx	$d608                   ; 0xd608 <__heap_start+0xad4e>
     db8: a2 94        	ldx	#$94
     dba: 8e 08 d6     	stx	$d608                   ; 0xd608 <__heap_start+0xad4e>
     dbd: a9 ba        	lda	#$ba
     dbf: 18           	clc
     dc0: 65 83        	adc	$83                     ; 0x2083 <printf+0x944>
     dc2: 85 12        	sta	$12                     ; 0x2012 <printf+0x8d3>
     dc4: a9 23        	lda	#$23
     dc6: 65 84        	adc	$84                     ; 0x2084 <printf+0x945>
     dc8: 85 13        	sta	$13                     ; 0x2013 <printf+0x8d4>
     dca: b2 12        	lda	($12)                   ; 0x2012 <printf+0x8d3>
     dcc: aa           	tax
     dcd: bd b5 24     	lda	$24b5,x                 ; 0x24b5 <KeyCodesToLoPSG>
     dd0: aa           	tax
     dd1: 8e 08 d6     	stx	$d608                   ; 0xd608 <__heap_start+0xad4e>
     dd4: 18           	clc
     dd5: a9 ba        	lda	#$ba
     dd7: 65 83        	adc	$83                     ; 0x2083 <printf+0x944>
     dd9: 85 12        	sta	$12                     ; 0x2012 <printf+0x8d3>
     ddb: a9 23        	lda	#$23
     ddd: 65 84        	adc	$84                     ; 0x2084 <printf+0x945>
     ddf: 85 13        	sta	$13                     ; 0x2013 <printf+0x8d4>
     de1: b2 12        	lda	($12)                   ; 0x2012 <printf+0x8d3>
     de3: aa           	tax
     de4: bd 30 25     	lda	$2530,x                 ; 0x2530 <KeyCodesToHiPSG>
     de7: aa           	tax
     de8: 8e 08 d6     	stx	$d608                   ; 0xd608 <__heap_start+0xad4e>
     deb: 64 f3        	stz	$f3                     ; 0x20f3 <printf+0x9b4>
     ded: a6 81        	ldx	$81                     ; 0x2081 <printf+0x942>
     def: 86 f4        	stx	$f4                     ; 0x20f4 <printf+0x9b5>
     df1: a2 01        	ldx	#$1
     df3: 86 f5        	stx	$f5                     ; 0x20f5 <printf+0x9b6>
     df5: 18           	clc
     df6: a5 10        	lda	$10                     ; 0x2010 <printf+0x8d1>
     df8: 69 11        	adc	#$11
     dfa: 85 12        	sta	$12                     ; 0x2012 <printf+0x8d3>
     dfc: a5 11        	lda	$11                     ; 0x2011 <printf+0x8d2>
     dfe: 69 00        	adc	#$0
     e00: 85 13        	sta	$13                     ; 0x2013 <printf+0x8d4>
     e02: 20 f0 ff     	jsr	$fff0 <__heap_start+0xd736>
     e05: 92 12        	sta	($12)                   ; 0x2012 <printf+0x8d3>
     e07: a9 00        	lda	#$0
     e09: 6a           	ror
     e0a: 85 26        	sta	$26                     ; 0x2026 <printf+0x8e7>
     e0c: a5 7f        	lda	$7f                     ; 0x207f <printf+0x940>
     e0e: 29 01        	and	#$1
     e10: a6 29        	ldx	$29                     ; 0x2029 <printf+0x8ea>
     e12: 48           	pha
     e13: 8a           	txa
     e14: a0 05        	ldy	#$5
     e16: 91 10        	sta	($10),y                 ; 0x2010 <printf+0x8d1>
     e18: a6 28        	ldx	$28                     ; 0x2028 <printf+0x8e9>
     e1a: a4 2a        	ldy	$2a                     ; 0x202a <printf+0x8eb>
     e1c: 98           	tya
     e1d: a0 04        	ldy	#$4
     e1f: 91 10        	sta	($10),y                 ; 0x2010 <printf+0x8d1>
     e21: a0 01        	ldy	#$1
     e23: 98           	tya
     e24: c8           	iny
     e25: 91 10        	sta	($10),y                 ; 0x2010 <printf+0x8d1>
     e27: 64 12        	stz	$12                     ; 0x2012 <printf+0x8d3>
     e29: a9 00        	lda	#$0
     e2b: c8           	iny
     e2c: 91 10        	sta	($10),y                 ; 0x2010 <printf+0x8d1>
     e2e: 68           	pla
     e2f: f0 03        	beq	$e34 <f256main+0x722>
     e31: 4c ae 12     	jmp	$12ae <f256main+0xb9c>
     e34: 4c 84 12     	jmp	$1284 <f256main+0xb72>
     e37: a5 7f        	lda	$7f                     ; 0x207f <printf+0x940>
     e39: 29 01        	and	#$1
     e3b: a2 3c        	ldx	#$3c
     e3d: 86 39        	stx	$39                     ; 0x2039 <printf+0x8fa>
     e3f: 8e 14 d0     	stx	$d014                   ; 0xd014 <__heap_start+0xa75a>
     e42: 9c 15 d0     	stz	$d015                   ; 0xd015 <__heap_start+0xa75b>
     e45: a2 02        	ldx	#$2
     e47: 86 3a        	stx	$3a                     ; 0x203a <printf+0x8fb>
     e49: 8e 16 d0     	stx	$d016                   ; 0xd016 <__heap_start+0xa75c>
     e4c: 9c 17 d0     	stz	$d017                   ; 0xd017 <__heap_start+0xa75d>
     e4f: aa           	tax
     e50: d0 03        	bne	$e55 <f256main+0x743>
     e52: 4c 78 11     	jmp	$1178 <f256main+0xa66>
     e55: a2 30        	ldx	#$30
     e57: 86 12        	stx	$12                     ; 0x2012 <printf+0x8d3>
     e59: a2 27        	ldx	#$27
     e5b: 86 13        	stx	$13                     ; 0x2013 <printf+0x8d4>
     e5d: 20 3f 17     	jsr	$173f <printf>
     e60: 64 7f        	stz	$7f                     ; 0x207f <printf+0x940>
     e62: a2 21        	ldx	#$21
     e64: 86 39        	stx	$39                     ; 0x2039 <printf+0x8fa>
     e66: 8e 14 d0     	stx	$d014                   ; 0xd014 <__heap_start+0xa75a>
     e69: 9c 15 d0     	stz	$d015                   ; 0xd015 <__heap_start+0xa75b>
     e6c: a2 10        	ldx	#$10
     e6e: 86 3a        	stx	$3a                     ; 0x203a <printf+0x8fb>
     e70: 8e 16 d0     	stx	$d016                   ; 0xd016 <__heap_start+0xa75c>
     e73: 9c 17 d0     	stz	$d017                   ; 0xd017 <__heap_start+0xa75d>
     e76: a2 cb        	ldx	#$cb
     e78: 86 12        	stx	$12                     ; 0x2012 <printf+0x8d3>
     e7a: a2 27        	ldx	#$27
     e7c: 86 13        	stx	$13                     ; 0x2013 <printf+0x8d4>
     e7e: 20 3f 17     	jsr	$173f <printf>
     e81: a2 22        	ldx	#$22
     e83: 86 39        	stx	$39                     ; 0x2039 <printf+0x8fa>
     e85: 8e 14 d0     	stx	$d014                   ; 0xd014 <__heap_start+0xa75a>
     e88: 9c 15 d0     	stz	$d015                   ; 0xd015 <__heap_start+0xa75b>
     e8b: a2 17        	ldx	#$17
     e8d: 86 3a        	stx	$3a                     ; 0x203a <printf+0x8fb>
     e8f: 8e 16 d0     	stx	$d016                   ; 0xd016 <__heap_start+0xa75c>
     e92: 9c 17 d0     	stz	$d017                   ; 0xd017 <__heap_start+0xa75d>
     e95: a2 62        	ldx	#$62
     e97: 86 12        	stx	$12                     ; 0x2012 <printf+0x8d3>
     e99: a2 28        	ldx	#$28
     e9b: 4c c0 11     	jmp	$11c0 <f256main+0xaae>
     e9e: e0 92        	cpx	#$92
     ea0: f0 03        	beq	$ea5 <f256main+0x793>
     ea2: 4c 85 0f     	jmp	$f85 <f256main+0x873>
     ea5: a2 7b        	ldx	#$7b
     ea7: 8e a1 dd     	stx	$dda1                   ; 0xdda1 <__heap_start+0xb4e7>
     eaa: 9c a1 dd     	stz	$dda1                   ; 0xdda1 <__heap_start+0xb4e7>
     ead: a2 ff        	ldx	#$ff
     eaf: 8e a1 dd     	stx	$dda1                   ; 0xdda1 <__heap_start+0xb4e7>
     eb2: a2 c0        	ldx	#$c0
     eb4: 8e a1 dd     	stx	$dda1                   ; 0xdda1 <__heap_start+0xb4e7>
     eb7: a0 13        	ldy	#$13
     eb9: 8c a1 dd     	sty	$dda1                   ; 0xdda1 <__heap_start+0xb4e7>
     ebc: e8           	inx
     ebd: 8e a1 dd     	stx	$dda1                   ; 0xdda1 <__heap_start+0xb4e7>
     ec0: a2 13        	ldx	#$13
     ec2: 8a           	txa
     ec3: 5a           	phy
     ec4: a0 04        	ldy	#$4
     ec6: 91 10        	sta	($10),y                 ; 0x2010 <printf+0x8d1>
     ec8: 7a           	ply
     ec9: 8c a1 dd     	sty	$dda1                   ; 0xdda1 <__heap_start+0xb4e7>
     ecc: a2 9f        	ldx	#$9f
     ece: 8e 08 d6     	stx	$d608                   ; 0xd608 <__heap_start+0xad4e>
     ed1: a5 29        	lda	$29                     ; 0x2029 <printf+0x8ea>
     ed3: a0 05        	ldy	#$5
     ed5: 91 10        	sta	($10),y                 ; 0x2010 <printf+0x8d1>
     ed7: a6 28        	ldx	$28                     ; 0x2028 <printf+0x8e9>
     ed9: 64 25        	stz	$25                     ; 0x2025 <printf+0x8e6>
     edb: 4c ae 12     	jmp	$12ae <f256main+0xb9c>
     ede: 1a           	inc
     edf: 4c 78 0a     	jmp	$a78 <f256main+0x366>
     ee2: a2 b3        	ldx	#$b3
     ee4: 4c 8d 0a     	jmp	$a8d <f256main+0x37b>
     ee7: a2 d3        	ldx	#$d3
     ee9: 4c a5 0a     	jmp	$aa5 <f256main+0x393>
     eec: a6 30        	ldx	$30                     ; 0x2030 <printf+0x8f1>
     eee: e0 81        	cpx	#$81
     ef0: 90 40        	bcc	$f32 <f256main+0x820>
     ef2: a2 04        	ldx	#$4
     ef4: 86 39        	stx	$39                     ; 0x2039 <printf+0x8fa>
     ef6: 8e 14 d0     	stx	$d014                   ; 0xd014 <__heap_start+0xa75a>
     ef9: 9c 15 d0     	stz	$d015                   ; 0xd015 <__heap_start+0xa75b>
     efc: a2 18        	ldx	#$18
     efe: 86 3a        	stx	$3a                     ; 0x203a <printf+0x8fb>
     f00: 8e 16 d0     	stx	$d016                   ; 0xd016 <__heap_start+0xa75c>
     f03: 9c 17 d0     	stz	$d017                   ; 0xd017 <__heap_start+0xa75d>
     f06: a2 95        	ldx	#$95
     f08: 86 12        	stx	$12                     ; 0x2012 <printf+0x8d3>
     f0a: a2 27        	ldx	#$27
     f0c: 86 13        	stx	$13                     ; 0x2013 <printf+0x8d4>
     f0e: 20 3f 17     	jsr	$173f <printf>
     f11: a2 04        	ldx	#$4
     f13: 86 39        	stx	$39                     ; 0x2039 <printf+0x8fa>
     f15: 8e 14 d0     	stx	$d014                   ; 0xd014 <__heap_start+0xa75a>
     f18: 9c 15 d0     	stz	$d015                   ; 0xd015 <__heap_start+0xa75b>
     f1b: a2 19        	ldx	#$19
     f1d: 86 3a        	stx	$3a                     ; 0x203a <printf+0x8fb>
     f1f: 8e 16 d0     	stx	$d016                   ; 0xd016 <__heap_start+0xa75c>
     f22: 9c 17 d0     	stz	$d017                   ; 0xd017 <__heap_start+0xa75d>
     f25: a2 4d        	ldx	#$4d
     f27: 86 12        	stx	$12                     ; 0x2012 <printf+0x8d3>
     f29: a2 27        	ldx	#$27
     f2b: 4c c0 11     	jmp	$11c0 <f256main+0xaae>
     f2e: e0 00        	cpx	#$0
     f30: b0 c0        	bcs	$ef2 <f256main+0x7e0>
     f32: a2 80        	ldx	#$80
     f34: 86 f3        	stx	$f3                     ; 0x20f3 <printf+0x9b4>
     f36: 18           	clc
     f37: a5 10        	lda	$10                     ; 0x2010 <printf+0x8d1>
     f39: 69 0c        	adc	#$c
     f3b: 85 12        	sta	$12                     ; 0x2012 <printf+0x8d3>
     f3d: a5 11        	lda	$11                     ; 0x2011 <printf+0x8d2>
     f3f: 69 00        	adc	#$0
     f41: 85 13        	sta	$13                     ; 0x2013 <printf+0x8d4>
     f43: 20 f0 ff     	jsr	$fff0 <__heap_start+0xd736>
     f46: 92 12        	sta	($12)                   ; 0x2012 <printf+0x8d3>
     f48: a9 00        	lda	#$0
     f4a: 6a           	ror
     f4b: 85 26        	sta	$26                     ; 0x2026 <printf+0x8e7>
     f4d: a9 03        	lda	#$3
     f4f: 18           	clc
     f50: 72 12        	adc	($12)                   ; 0x2012 <printf+0x8d3>
     f52: 85 82        	sta	$82                     ; 0x2082 <printf+0x943>
     f54: 64 f3        	stz	$f3                     ; 0x20f3 <printf+0x9b4>
     f56: a6 82        	ldx	$82                     ; 0x2082 <printf+0x943>
     f58: 86 f4        	stx	$f4                     ; 0x20f4 <printf+0x9b5>
     f5a: a2 02        	ldx	#$2
     f5c: 86 f5        	stx	$f5                     ; 0x20f5 <printf+0x9b6>
     f5e: 18           	clc
     f5f: a5 10        	lda	$10                     ; 0x2010 <printf+0x8d1>
     f61: 69 0d        	adc	#$d
     f63: 85 12        	sta	$12                     ; 0x2012 <printf+0x8d3>
     f65: a5 11        	lda	$11                     ; 0x2011 <printf+0x8d2>
     f67: 69 00        	adc	#$0
     f69: 85 13        	sta	$13                     ; 0x2013 <printf+0x8d4>
     f6b: a5 29        	lda	$29                     ; 0x2029 <printf+0x8ea>
     f6d: a0 05        	ldy	#$5
     f6f: 91 10        	sta	($10),y                 ; 0x2010 <printf+0x8d1>
     f71: a6 28        	ldx	$28                     ; 0x2028 <printf+0x8e9>
     f73: a5 2a        	lda	$2a                     ; 0x202a <printf+0x8eb>
     f75: 88           	dey
     f76: 91 10        	sta	($10),y                 ; 0x2010 <printf+0x8d1>
     f78: 20 f0 ff     	jsr	$fff0 <__heap_start+0xd736>
     f7b: 92 12        	sta	($12)                   ; 0x2012 <printf+0x8d3>
     f7d: a9 00        	lda	#$0
     f7f: 6a           	ror
     f80: 85 26        	sta	$26                     ; 0x2026 <printf+0x8e7>
     f82: 4c ae 12     	jmp	$12ae <f256main+0xb9c>
     f85: a5 7f        	lda	$7f                     ; 0x207f <printf+0x940>
     f87: 29 01        	and	#$1
     f89: d0 03        	bne	$f8e <f256main+0x87c>
     f8b: 4c d4 11     	jmp	$11d4 <f256main+0xac2>
     f8e: a2 9f        	ldx	#$9f
     f90: 8e 08 d6     	stx	$d608                   ; 0xd608 <__heap_start+0xad4e>
     f93: a2 94        	ldx	#$94
     f95: 8e 08 d6     	stx	$d608                   ; 0xd608 <__heap_start+0xad4e>
     f98: a6 36        	ldx	$36                     ; 0x2036 <printf+0x8f7>
     f9a: bd b5 24     	lda	$24b5,x                 ; 0x24b5 <KeyCodesToLoPSG>
     f9d: aa           	tax
     f9e: 8e 08 d6     	stx	$d608                   ; 0xd608 <__heap_start+0xad4e>
     fa1: a6 36        	ldx	$36                     ; 0x2036 <printf+0x8f7>
     fa3: bd 30 25     	lda	$2530,x                 ; 0x2530 <KeyCodesToHiPSG>
     fa6: aa           	tax
     fa7: 8e 08 d6     	stx	$d608                   ; 0xd608 <__heap_start+0xad4e>
     faa: 4c ea 11     	jmp	$11ea <f256main+0xad8>
     fad: a2 81        	ldx	#$81
     faf: 8e a1 dd     	stx	$dda1                   ; 0xdda1 <__heap_start+0xb4e7>
     fb2: a2 4f        	ldx	#$4f
     fb4: 8e a1 dd     	stx	$dda1                   ; 0xdda1 <__heap_start+0xb4e7>
     fb7: a5 25        	lda	$25                     ; 0x2025 <printf+0x8e6>
     fb9: 38           	sec
     fba: e9 fe        	sbc	#$fe
     fbc: 50 02        	bvc	$fc0 <f256main+0x8ae>
     fbe: 49 80        	eor	#$80
     fc0: a6 29        	ldx	$29                     ; 0x2029 <printf+0x8ea>
     fc2: 48           	pha
     fc3: 8a           	txa
     fc4: 5a           	phy
     fc5: a0 05        	ldy	#$5
     fc7: 91 10        	sta	($10),y                 ; 0x2010 <printf+0x8d1>
     fc9: 7a           	ply
     fca: a6 28        	ldx	$28                     ; 0x2028 <printf+0x8e9>
     fcc: 98           	tya
     fcd: 5a           	phy
     fce: a0 04        	ldy	#$4
     fd0: 91 10        	sta	($10),y                 ; 0x2010 <printf+0x8d1>
     fd2: 7a           	ply
     fd3: 68           	pla
     fd4: 10 03        	bpl	$fd9 <f256main+0x8c7>
     fd6: 4c ae 12     	jmp	$12ae <f256main+0xb9c>
     fd9: a5 7f        	lda	$7f                     ; 0x207f <printf+0x940>
     fdb: 29 01        	and	#$1
     fdd: a6 29        	ldx	$29                     ; 0x2029 <printf+0x8ea>
     fdf: 48           	pha
     fe0: 8a           	txa
     fe1: 5a           	phy
     fe2: a0 05        	ldy	#$5
     fe4: 91 10        	sta	($10),y                 ; 0x2010 <printf+0x8d1>
     fe6: 7a           	ply
     fe7: a6 28        	ldx	$28                     ; 0x2028 <printf+0x8e9>
     fe9: 98           	tya
     fea: 5a           	phy
     feb: a0 04        	ldy	#$4
     fed: 91 10        	sta	($10),y                 ; 0x2010 <printf+0x8d1>
     fef: 7a           	ply
     ff0: 68           	pla
     ff1: f0 03        	beq	$ff6 <f256main+0x8e4>
     ff3: 4c ae 12     	jmp	$12ae <f256main+0xb9c>
     ff6: c6 25        	dec	$25                     ; 0x2025 <printf+0x8e6>
     ff8: 4c c0 10     	jmp	$10c0 <f256main+0x9ae>
     ffb: a2 81        	ldx	#$81
     ffd: 8e a1 dd     	stx	$dda1                   ; 0xdda1 <__heap_start+0xb4e7>
    1000: a2 4f        	ldx	#$4f
    1002: 8e a1 dd     	stx	$dda1                   ; 0xdda1 <__heap_start+0xb4e7>
    1005: a5 25        	lda	$25                     ; 0x2025 <printf+0x8e6>
    1007: 38           	sec
    1008: e9 04        	sbc	#$4
    100a: 50 02        	bvc	$100e <f256main+0x8fc>
    100c: 49 80        	eor	#$80
    100e: a6 29        	ldx	$29                     ; 0x2029 <printf+0x8ea>
    1010: 48           	pha
    1011: 8a           	txa
    1012: 5a           	phy
    1013: a0 05        	ldy	#$5
    1015: 91 10        	sta	($10),y                 ; 0x2010 <printf+0x8d1>
    1017: 7a           	ply
    1018: a6 28        	ldx	$28                     ; 0x2028 <printf+0x8e9>
    101a: 98           	tya
    101b: 5a           	phy
    101c: a0 04        	ldy	#$4
    101e: 91 10        	sta	($10),y                 ; 0x2010 <printf+0x8d1>
    1020: 7a           	ply
    1021: 68           	pla
    1022: 30 03        	bmi	$1027 <f256main+0x915>
    1024: 4c ae 12     	jmp	$12ae <f256main+0xb9c>
    1027: a5 7f        	lda	$7f                     ; 0x207f <printf+0x940>
    1029: 29 01        	and	#$1
    102b: a6 29        	ldx	$29                     ; 0x2029 <printf+0x8ea>
    102d: 48           	pha
    102e: 8a           	txa
    102f: 5a           	phy
    1030: a0 05        	ldy	#$5
    1032: 91 10        	sta	($10),y                 ; 0x2010 <printf+0x8d1>
    1034: 7a           	ply
    1035: a6 28        	ldx	$28                     ; 0x2028 <printf+0x8e9>
    1037: 98           	tya
    1038: 5a           	phy
    1039: a0 04        	ldy	#$4
    103b: 91 10        	sta	($10),y                 ; 0x2010 <printf+0x8d1>
    103d: 7a           	ply
    103e: 68           	pla
    103f: f0 03        	beq	$1044 <f256main+0x932>
    1041: 4c ae 12     	jmp	$12ae <f256main+0xb9c>
    1044: e6 25        	inc	$25                     ; 0x2025 <printf+0x8e6>
    1046: 4c c0 10     	jmp	$10c0 <f256main+0x9ae>
    1049: c0 81        	cpy	#$81
    104b: a6 29        	ldx	$29                     ; 0x2029 <printf+0x8ea>
    104d: 8a           	txa
    104e: 5a           	phy
    104f: a0 05        	ldy	#$5
    1051: 91 10        	sta	($10),y                 ; 0x2010 <printf+0x8d1>
    1053: 7a           	ply
    1054: a6 28        	ldx	$28                     ; 0x2028 <printf+0x8e9>
    1056: 98           	tya
    1057: 5a           	phy
    1058: a0 04        	ldy	#$4
    105a: 91 10        	sta	($10),y                 ; 0x2010 <printf+0x8d1>
    105c: 7a           	ply
    105d: 90 03        	bcc	$1062 <f256main+0x950>
    105f: 4c ae 12     	jmp	$12ae <f256main+0xb9c>
    1062: a5 7f        	lda	$7f                     ; 0x207f <printf+0x940>
    1064: 29 01        	and	#$1
    1066: a6 29        	ldx	$29                     ; 0x2029 <printf+0x8ea>
    1068: 48           	pha
    1069: 8a           	txa
    106a: 5a           	phy
    106b: a0 05        	ldy	#$5
    106d: 91 10        	sta	($10),y                 ; 0x2010 <printf+0x8d1>
    106f: 7a           	ply
    1070: a6 28        	ldx	$28                     ; 0x2028 <printf+0x8e9>
    1072: 98           	tya
    1073: 5a           	phy
    1074: a0 04        	ldy	#$4
    1076: 91 10        	sta	($10),y                 ; 0x2010 <printf+0x8d1>
    1078: 7a           	ply
    1079: 68           	pla
    107a: f0 03        	beq	$107f <f256main+0x96d>
    107c: 4c ae 12     	jmp	$12ae <f256main+0xb9c>
    107f: c8           	iny
    1080: 80 36        	bra	$10b8 <f256main+0x9a6>
    1082: 64 12        	stz	$12                     ; 0x2012 <printf+0x8d3>
    1084: 5a           	phy
    1085: a9 00        	lda	#$0
    1087: a0 04        	ldy	#$4
    1089: 91 10        	sta	($10),y                 ; 0x2010 <printf+0x8d1>
    108b: a6 29        	ldx	$29                     ; 0x2029 <printf+0x8ea>
    108d: 8a           	txa
    108e: c8           	iny
    108f: 91 10        	sta	($10),y                 ; 0x2010 <printf+0x8d1>
    1091: 7a           	ply
    1092: a6 28        	ldx	$28                     ; 0x2028 <printf+0x8e9>
    1094: 98           	tya
    1095: d0 03        	bne	$109a <f256main+0x988>
    1097: 4c ae 12     	jmp	$12ae <f256main+0xb9c>
    109a: a5 7f        	lda	$7f                     ; 0x207f <printf+0x940>
    109c: 29 01        	and	#$1
    109e: a6 29        	ldx	$29                     ; 0x2029 <printf+0x8ea>
    10a0: 48           	pha
    10a1: 8a           	txa
    10a2: 5a           	phy
    10a3: a0 05        	ldy	#$5
    10a5: 91 10        	sta	($10),y                 ; 0x2010 <printf+0x8d1>
    10a7: 7a           	ply
    10a8: a6 28        	ldx	$28                     ; 0x2028 <printf+0x8e9>
    10aa: 98           	tya
    10ab: 5a           	phy
    10ac: a0 04        	ldy	#$4
    10ae: 91 10        	sta	($10),y                 ; 0x2010 <printf+0x8d1>
    10b0: 7a           	ply
    10b1: 68           	pla
    10b2: f0 03        	beq	$10b7 <f256main+0x9a5>
    10b4: 4c ae 12     	jmp	$12ae <f256main+0xb9c>
    10b7: 88           	dey
    10b8: a2 c1        	ldx	#$c1
    10ba: 8e a1 dd     	stx	$dda1                   ; 0xdda1 <__heap_start+0xb4e7>
    10bd: 8c a1 dd     	sty	$dda1                   ; 0xdda1 <__heap_start+0xb4e7>
    10c0: a5 29        	lda	$29                     ; 0x2029 <printf+0x8ea>
    10c2: 5a           	phy
    10c3: a0 05        	ldy	#$5
    10c5: 91 10        	sta	($10),y                 ; 0x2010 <printf+0x8d1>
    10c7: 7a           	ply
    10c8: a6 28        	ldx	$28                     ; 0x2028 <printf+0x8e9>
    10ca: 98           	tya
    10cb: 4c cf 11     	jmp	$11cf <f256main+0xabd>
    10ce: e0 49        	cpx	#$49
    10d0: d0 24        	bne	$10f6 <f256main+0x9e4>
    10d2: a2 9f        	ldx	#$9f
    10d4: 8e 08 d6     	stx	$d608                   ; 0xd608 <__heap_start+0xad4e>
    10d7: a2 49        	ldx	#$49
    10d9: 5a           	phy
    10da: 8a           	txa
    10db: a0 03        	ldy	#$3
    10dd: 91 10        	sta	($10),y                 ; 0x2010 <printf+0x8d1>
    10df: a5 29        	lda	$29                     ; 0x2029 <printf+0x8ea>
    10e1: a0 05        	ldy	#$5
    10e3: 91 10        	sta	($10),y                 ; 0x2010 <printf+0x8d1>
    10e5: 7a           	ply
    10e6: a6 28        	ldx	$28                     ; 0x2028 <printf+0x8e9>
    10e8: 98           	tya
    10e9: a0 04        	ldy	#$4
    10eb: 91 10        	sta	($10),y                 ; 0x2010 <printf+0x8d1>
    10ed: 64 12        	stz	$12                     ; 0x2012 <printf+0x8d3>
    10ef: a9 00        	lda	#$0
    10f1: a0 02        	ldy	#$2
    10f3: 4c ac 12     	jmp	$12ac <f256main+0xb9a>
    10f6: a2 01        	ldx	#$1
    10f8: 8a           	txa
    10f9: 5a           	phy
    10fa: a0 05        	ldy	#$5
    10fc: 91 10        	sta	($10),y                 ; 0x2010 <printf+0x8d1>
    10fe: 7a           	ply
    10ff: a6 28        	ldx	$28                     ; 0x2028 <printf+0x8e9>
    1101: 98           	tya
    1102: 5a           	phy
    1103: a0 04        	ldy	#$4
    1105: 91 10        	sta	($10),y                 ; 0x2010 <printf+0x8d1>
    1107: 7a           	ply
    1108: a5 29        	lda	$29                     ; 0x2029 <printf+0x8ea>
    110a: f0 03        	beq	$110f <f256main+0x9fd>
    110c: 4c ae 12     	jmp	$12ae <f256main+0xb9c>
    110f: 84 14        	sty	$14                     ; 0x2014 <printf+0x8d5>
    1111: a2 00        	ldx	#$0
    1113: 8a           	txa
    1114: a0 05        	ldy	#$5
    1116: 91 10        	sta	($10),y                 ; 0x2010 <printf+0x8d1>
    1118: a4 14        	ldy	$14                     ; 0x2014 <printf+0x8d5>
    111a: 98           	tya
    111b: a0 04        	ldy	#$4
    111d: 91 10        	sta	($10),y                 ; 0x2010 <printf+0x8d1>
    111f: a5 28        	lda	$28                     ; 0x2028 <printf+0x8e9>
    1121: d0 03        	bne	$1126 <f256main+0xa14>
    1123: 4c ae 12     	jmp	$12ae <f256main+0xb9c>
    1126: a0 03        	ldy	#$3
    1128: b1 10        	lda	($10),y                 ; 0x2010 <printf+0x8d1>
    112a: aa           	tax
    112b: e8           	inx
    112c: 8a           	txa
    112d: 91 10        	sta	($10),y                 ; 0x2010 <printf+0x8d1>
    112f: bd 4b 26     	lda	$264b,x                 ; 0x264b <songNotes>
    1132: 85 83        	sta	$83                     ; 0x2083 <printf+0x944>
    1134: 64 84        	stz	$84                     ; 0x2084 <printf+0x945>
    1136: 0a           	asl
    1137: 85 12        	sta	$12                     ; 0x2012 <printf+0x8d3>
    1139: a9 00        	lda	#$0
    113b: 2a           	rol
    113c: 85 13        	sta	$13                     ; 0x2013 <printf+0x8d4>
    113e: a9 ab        	lda	#$ab
    1140: 18           	clc
    1141: 65 12        	adc	$12                     ; 0x2012 <printf+0x8d3>
    1143: 85 12        	sta	$12                     ; 0x2012 <printf+0x8d3>
    1145: a9 25        	lda	#$25
    1147: 65 13        	adc	$13                     ; 0x2013 <printf+0x8d4>
    1149: 85 13        	sta	$13                     ; 0x2013 <printf+0x8d4>
    114b: b2 12        	lda	($12)                   ; 0x2012 <printf+0x8d3>
    114d: 85 15        	sta	$15                     ; 0x2015 <printf+0x8d6>
    114f: a0 01        	ldy	#$1
    1151: b1 12        	lda	($12),y                 ; 0x2012 <printf+0x8d3>
    1153: 85 12        	sta	$12                     ; 0x2012 <printf+0x8d3>
    1155: 98           	tya
    1156: 05 3c        	ora	$3c                     ; 0x203c <printf+0x8fd>
    1158: 8d 08 d9     	sta	$d908                   ; 0xd908 <__heap_start+0xb04e>
    115b: a6 15        	ldx	$15                     ; 0x2015 <printf+0x8d6>
    115d: 8e 0c d9     	stx	$d90c                   ; 0xd90c <__heap_start+0xb052>
    1160: a6 12        	ldx	$12                     ; 0x2012 <printf+0x8d3>
    1162: 8e 0d d9     	stx	$d90d                   ; 0xd90d <__heap_start+0xb053>
    1165: a2 c0        	ldx	#$c0
    1167: 8e 0e d9     	stx	$d90e                   ; 0xd90e <__heap_start+0xb054>
    116a: 9c 0f d9     	stz	$d90f                   ; 0xd90f <__heap_start+0xb055>
    116d: a2 01        	ldx	#$1
    116f: 8a           	txa
    1170: a0 05        	ldy	#$5
    1172: 91 10        	sta	($10),y                 ; 0x2010 <printf+0x8d1>
    1174: a5 14        	lda	$14                     ; 0x2014 <printf+0x8d5>
    1176: 80 57        	bra	$11cf <f256main+0xabd>
    1178: a2 08        	ldx	#$8
    117a: 86 12        	stx	$12                     ; 0x2012 <printf+0x8d3>
    117c: a2 27        	ldx	#$27
    117e: 86 13        	stx	$13                     ; 0x2013 <printf+0x8d4>
    1180: 20 3f 17     	jsr	$173f <printf>
    1183: a2 01        	ldx	#$1
    1185: 86 7f        	stx	$7f                     ; 0x207f <printf+0x940>
    1187: a2 21        	ldx	#$21
    1189: 86 39        	stx	$39                     ; 0x2039 <printf+0x8fa>
    118b: 8e 14 d0     	stx	$d014                   ; 0xd014 <__heap_start+0xa75a>
    118e: 9c 15 d0     	stz	$d015                   ; 0xd015 <__heap_start+0xa75b>
    1191: a2 10        	ldx	#$10
    1193: 86 3a        	stx	$3a                     ; 0x203a <printf+0x8fb>
    1195: 8e 16 d0     	stx	$d016                   ; 0xd016 <__heap_start+0xa75c>
    1198: 9c 17 d0     	stz	$d017                   ; 0xd017 <__heap_start+0xa75d>
    119b: a2 1d        	ldx	#$1d
    119d: 86 12        	stx	$12                     ; 0x2012 <printf+0x8d3>
    119f: a2 28        	ldx	#$28
    11a1: 86 13        	stx	$13                     ; 0x2013 <printf+0x8d4>
    11a3: 20 3f 17     	jsr	$173f <printf>
    11a6: a2 22        	ldx	#$22
    11a8: 86 39        	stx	$39                     ; 0x2039 <printf+0x8fa>
    11aa: 8e 14 d0     	stx	$d014                   ; 0xd014 <__heap_start+0xa75a>
    11ad: 9c 15 d0     	stz	$d015                   ; 0xd015 <__heap_start+0xa75b>
    11b0: a2 17        	ldx	#$17
    11b2: 86 3a        	stx	$3a                     ; 0x203a <printf+0x8fb>
    11b4: 8e 16 d0     	stx	$d016                   ; 0xd016 <__heap_start+0xa75c>
    11b7: 9c 17 d0     	stz	$d017                   ; 0xd017 <__heap_start+0xa75d>
    11ba: a2 cc        	ldx	#$cc
    11bc: 86 12        	stx	$12                     ; 0x2012 <printf+0x8d3>
    11be: a2 26        	ldx	#$26
    11c0: 86 13        	stx	$13                     ; 0x2013 <printf+0x8d4>
    11c2: 20 3f 17     	jsr	$173f <printf>
    11c5: a5 29        	lda	$29                     ; 0x2029 <printf+0x8ea>
    11c7: a0 05        	ldy	#$5
    11c9: 91 10        	sta	($10),y                 ; 0x2010 <printf+0x8d1>
    11cb: a6 28        	ldx	$28                     ; 0x2028 <printf+0x8e9>
    11cd: a5 2a        	lda	$2a                     ; 0x202a <printf+0x8eb>
    11cf: a0 04        	ldy	#$4
    11d1: 4c ac 12     	jmp	$12ac <f256main+0xb9a>
    11d4: 18           	clc
    11d5: a5 14        	lda	$14                     ; 0x2014 <printf+0x8d5>
    11d7: 65 12        	adc	$12                     ; 0x2012 <printf+0x8d3>
    11d9: 18           	clc
    11da: 7d 3a 24     	adc	$243a,x                 ; 0x243a <KeyCodesToMIDINotes>
    11dd: a2 91        	ldx	#$91
    11df: 8e a1 dd     	stx	$dda1                   ; 0xdda1 <__heap_start+0xb4e7>
    11e2: 8d a1 dd     	sta	$dda1                   ; 0xdda1 <__heap_start+0xb4e7>
    11e5: a2 7f        	ldx	#$7f
    11e7: 8e a1 dd     	stx	$dda1                   ; 0xdda1 <__heap_start+0xb4e7>
    11ea: a6 36        	ldx	$36                     ; 0x2036 <printf+0x8f7>
    11ec: bd 3a 24     	lda	$243a,x                 ; 0x243a <KeyCodesToMIDINotes>
    11ef: 0a           	asl
    11f0: 85 12        	sta	$12                     ; 0x2012 <printf+0x8d3>
    11f2: a9 00        	lda	#$0
    11f4: 2a           	rol
    11f5: 85 13        	sta	$13                     ; 0x2013 <printf+0x8d4>
    11f7: a9 ab        	lda	#$ab
    11f9: 18           	clc
    11fa: 65 12        	adc	$12                     ; 0x2012 <printf+0x8d3>
    11fc: 85 12        	sta	$12                     ; 0x2012 <printf+0x8d3>
    11fe: a9 25        	lda	#$25
    1200: 65 13        	adc	$13                     ; 0x2013 <printf+0x8d4>
    1202: 85 13        	sta	$13                     ; 0x2013 <printf+0x8d4>
    1204: b2 12        	lda	($12)                   ; 0x2012 <printf+0x8d3>
    1206: 85 14        	sta	$14                     ; 0x2014 <printf+0x8d5>
    1208: a0 01        	ldy	#$1
    120a: b1 12        	lda	($12),y                 ; 0x2012 <printf+0x8d3>
    120c: 85 12        	sta	$12                     ; 0x2012 <printf+0x8d3>
    120e: 98           	tya
    120f: 05 3b        	ora	$3b                     ; 0x203b <printf+0x8fc>
    1211: 8d 00 d9     	sta	$d900                   ; 0xd900 <__heap_start+0xb046>
    1214: a6 14        	ldx	$14                     ; 0x2014 <printf+0x8d5>
    1216: 8e 04 d9     	stx	$d904                   ; 0xd904 <__heap_start+0xb04a>
    1219: a6 12        	ldx	$12                     ; 0x2012 <printf+0x8d3>
    121b: 8e 05 d9     	stx	$d905                   ; 0xd905 <__heap_start+0xb04b>
    121e: a2 c0        	ldx	#$c0
    1220: 8e 06 d9     	stx	$d906                   ; 0xd906 <__heap_start+0xb04c>
    1223: 9c 07 d9     	stz	$d907                   ; 0xd907 <__heap_start+0xb04d>
    1226: a6 36        	ldx	$36                     ; 0x2036 <printf+0x8f7>
    1228: bd 3a 24     	lda	$243a,x                 ; 0x243a <KeyCodesToMIDINotes>
    122b: 48           	pha
    122c: a0 03        	ldy	#$3
    122e: b1 10        	lda	($10),y                 ; 0x2010 <printf+0x8d1>
    1230: aa           	tax
    1231: 68           	pla
    1232: dd 4b 26     	cmp	$264b,x                 ; 0x264b <songNotes>
    1235: d0 1d        	bne	$1254 <f256main+0xb42>
    1237: a5 29        	lda	$29                     ; 0x2029 <printf+0x8ea>
    1239: a0 05        	ldy	#$5
    123b: 91 10        	sta	($10),y                 ; 0x2010 <printf+0x8d1>
    123d: a2 00        	ldx	#$0
    123f: a4 2a        	ldy	$2a                     ; 0x202a <printf+0x8eb>
    1241: 98           	tya
    1242: a0 04        	ldy	#$4
    1244: 91 10        	sta	($10),y                 ; 0x2010 <printf+0x8d1>
    1246: a5 28        	lda	$28                     ; 0x2028 <printf+0x8e9>
    1248: d0 03        	bne	$124d <f256main+0xb3b>
    124a: 4c ae 12     	jmp	$12ae <f256main+0xb9c>
    124d: e6 7d        	inc	$7d                     ; 0x207d <printf+0x93e>
    124f: a2 01        	ldx	#$1
    1251: 4c cb 0c     	jmp	$ccb <f256main+0x5b9>
    1254: a6 29        	ldx	$29                     ; 0x2029 <printf+0x8ea>
    1256: 8a           	txa
    1257: a0 05        	ldy	#$5
    1259: 91 10        	sta	($10),y                 ; 0x2010 <printf+0x8d1>
    125b: a2 00        	ldx	#$0
    125d: a4 2a        	ldy	$2a                     ; 0x202a <printf+0x8eb>
    125f: 98           	tya
    1260: a0 04        	ldy	#$4
    1262: 91 10        	sta	($10),y                 ; 0x2010 <printf+0x8d1>
    1264: a5 28        	lda	$28                     ; 0x2028 <printf+0x8e9>
    1266: f0 46        	beq	$12ae <f256main+0xb9c>
    1268: a4 7d        	ldy	$7d                     ; 0x207d <printf+0x93e>
    126a: a6 29        	ldx	$29                     ; 0x2029 <printf+0x8ea>
    126c: 5a           	phy
    126d: 8a           	txa
    126e: a0 05        	ldy	#$5
    1270: 91 10        	sta	($10),y                 ; 0x2010 <printf+0x8d1>
    1272: a2 01        	ldx	#$1
    1274: a5 2a        	lda	$2a                     ; 0x202a <printf+0x8eb>
    1276: 88           	dey
    1277: 91 10        	sta	($10),y                 ; 0x2010 <printf+0x8d1>
    1279: 7a           	ply
    127a: f0 32        	beq	$12ae <f256main+0xb9c>
    127c: 88           	dey
    127d: 84 7d        	sty	$7d                     ; 0x207d <printf+0x93e>
    127f: a5 29        	lda	$29                     ; 0x2029 <printf+0x8ea>
    1281: 4c cc 0c     	jmp	$ccc <f256main+0x5ba>
    1284: a6 83        	ldx	$83                     ; 0x2083 <printf+0x944>
    1286: a0 90        	ldy	#$90
    1288: 8c a1 dd     	sty	$dda1                   ; 0xdda1 <__heap_start+0xb4e7>
    128b: 8e a1 dd     	stx	$dda1                   ; 0xdda1 <__heap_start+0xb4e7>
    128e: a2 7f        	ldx	#$7f
    1290: 8e a1 dd     	stx	$dda1                   ; 0xdda1 <__heap_start+0xb4e7>
    1293: a5 29        	lda	$29                     ; 0x2029 <printf+0x8ea>
    1295: a0 05        	ldy	#$5
    1297: 91 10        	sta	($10),y                 ; 0x2010 <printf+0x8d1>
    1299: a6 28        	ldx	$28                     ; 0x2028 <printf+0x8e9>
    129b: a5 2a        	lda	$2a                     ; 0x202a <printf+0x8eb>
    129d: 88           	dey
    129e: 91 10        	sta	($10),y                 ; 0x2010 <printf+0x8d1>
    12a0: a0 01        	ldy	#$1
    12a2: 98           	tya
    12a3: a0 02        	ldy	#$2
    12a5: 91 10        	sta	($10),y                 ; 0x2010 <printf+0x8d1>
    12a7: a0 00        	ldy	#$0
    12a9: 98           	tya
    12aa: a0 03        	ldy	#$3
    12ac: 91 10        	sta	($10),y                 ; 0x2010 <printf+0x8d1>
    12ae: a0 04        	ldy	#$4
    12b0: b1 10        	lda	($10),y                 ; 0x2010 <printf+0x8d1>
    12b2: 85 2a        	sta	$2a                     ; 0x202a <printf+0x8eb>
    12b4: 86 28        	stx	$28                     ; 0x2028 <printf+0x8e9>
    12b6: c8           	iny
    12b7: b1 10        	lda	($10),y                 ; 0x2010 <printf+0x8d1>
    12b9: 85 29        	sta	$29                     ; 0x2029 <printf+0x8ea>
    12bb: 64 32        	stz	$32                     ; 0x2032 <printf+0x8f3>
    12bd: 18           	clc
    12be: a5 10        	lda	$10                     ; 0x2010 <printf+0x8d1>
    12c0: 69 06        	adc	#$6
    12c2: 85 12        	sta	$12                     ; 0x2012 <printf+0x8d3>
    12c4: a5 11        	lda	$11                     ; 0x2011 <printf+0x8d2>
    12c6: 69 00        	adc	#$0
    12c8: 85 13        	sta	$13                     ; 0x2013 <printf+0x8d4>
    12ca: 20 00 ff     	jsr	$ff00 <__heap_start+0xd646>
    12cd: 92 12        	sta	($12)                   ; 0x2012 <printf+0x8d3>
    12cf: a9 00        	lda	#$0
    12d1: 6a           	ror
    12d2: 85 26        	sta	$26                     ; 0x2026 <printf+0x8e7>
    12d4: a4 32        	ldy	$32                     ; 0x2032 <printf+0x8f3>
    12d6: a5 25        	lda	$25                     ; 0x2025 <printf+0x8e6>
    12d8: 0a           	asl
    12d9: 0a           	asl
    12da: 85 12        	sta	$12                     ; 0x2012 <printf+0x8d3>
    12dc: 85 14        	sta	$14                     ; 0x2014 <printf+0x8d5>
    12de: 06 14        	asl	$14                     ; 0x2014 <printf+0x8d5>
    12e0: c0 08        	cpy	#$8
    12e2: d0 03        	bne	$12e7 <f256main+0xbd5>
    12e4: 4c 7b 09     	jmp	$97b <f256main+0x269>
    12e7: c0 0a        	cpy	#$a
    12e9: d0 03        	bne	$12ee <f256main+0xbdc>
    12eb: 4c 6e 09     	jmp	$96e <f256main+0x25c>
    12ee: a6 29        	ldx	$29                     ; 0x2029 <printf+0x8ea>
    12f0: 5a           	phy
    12f1: 8a           	txa
    12f2: a0 05        	ldy	#$5
    12f4: 91 10        	sta	($10),y                 ; 0x2010 <printf+0x8d1>
    12f6: a6 28        	ldx	$28                     ; 0x2028 <printf+0x8e9>
    12f8: a5 2a        	lda	$2a                     ; 0x202a <printf+0x8eb>
    12fa: 88           	dey
    12fb: 91 10        	sta	($10),y                 ; 0x2010 <printf+0x8d1>
    12fd: 7a           	ply
    12fe: c0 52        	cpy	#$52
    1300: f0 03        	beq	$1305 <f256main+0xbf3>
    1302: 4c ae 12     	jmp	$12ae <f256main+0xb9c>
    1305: a4 36        	ldy	$36                     ; 0x2036 <printf+0x8f7>
    1307: c0 02        	cpy	#$2
    1309: d0 03        	bne	$130e <f256main+0xbfc>
    130b: 4c 6e 0a     	jmp	$a6e <f256main+0x35c>
    130e: c0 01        	cpy	#$1
    1310: d0 03        	bne	$1315 <f256main+0xc03>
    1312: 4c 4e 0a     	jmp	$a4e <f256main+0x33c>
    1315: a6 29        	ldx	$29                     ; 0x2029 <printf+0x8ea>
    1317: 5a           	phy
    1318: 8a           	txa
    1319: a0 05        	ldy	#$5
    131b: 91 10        	sta	($10),y                 ; 0x2010 <printf+0x8d1>
    131d: a6 28        	ldx	$28                     ; 0x2028 <printf+0x8e9>
    131f: a5 2a        	lda	$2a                     ; 0x202a <printf+0x8eb>
    1321: 88           	dey
    1322: 91 10        	sta	($10),y                 ; 0x2010 <printf+0x8d1>
    1324: 7a           	ply
    1325: f0 03        	beq	$132a <f256main+0xc18>
    1327: 4c ae 12     	jmp	$12ae <f256main+0xb9c>
    132a: a2 3c        	ldx	#$3c
    132c: 86 39        	stx	$39                     ; 0x2039 <printf+0x8fa>
    132e: 8e 14 d0     	stx	$d014                   ; 0xd014 <__heap_start+0xa75a>
    1331: 9c 15 d0     	stz	$d015                   ; 0xd015 <__heap_start+0xa75b>
    1334: a2 04        	ldx	#$4
    1336: 86 3a        	stx	$3a                     ; 0x203a <printf+0x8fb>
    1338: 8e 16 d0     	stx	$d016                   ; 0xd016 <__heap_start+0xa75c>
    133b: 9c 17 d0     	stz	$d017                   ; 0xd017 <__heap_start+0xa75d>
    133e: a5 7d        	lda	$7d                     ; 0x207d <printf+0x93e>
    1340: 92 10        	sta	($10)                   ; 0x2010 <printf+0x8d1>
    1342: a9 00        	lda	#$0
    1344: a0 01        	ldy	#$1
    1346: 91 10        	sta	($10),y                 ; 0x2010 <printf+0x8d1>
    1348: a2 12        	ldx	#$12
    134a: 86 12        	stx	$12                     ; 0x2012 <printf+0x8d3>
    134c: a2 28        	ldx	#$28
    134e: 86 13        	stx	$13                     ; 0x2013 <printf+0x8d4>
    1350: 20 3f 17     	jsr	$173f <printf>
    1353: a2 80        	ldx	#$80
    1355: 86 f3        	stx	$f3                     ; 0x20f3 <printf+0x9b4>
    1357: 18           	clc
    1358: a5 10        	lda	$10                     ; 0x2010 <printf+0x8d1>
    135a: 69 08        	adc	#$8
    135c: 85 12        	sta	$12                     ; 0x2012 <printf+0x8d3>
    135e: a5 11        	lda	$11                     ; 0x2011 <printf+0x8d2>
    1360: 69 00        	adc	#$0
    1362: 85 13        	sta	$13                     ; 0x2013 <printf+0x8d4>
    1364: 20 f0 ff     	jsr	$fff0 <__heap_start+0xd736>
    1367: 92 12        	sta	($12)                   ; 0x2012 <printf+0x8d3>
    1369: a9 00        	lda	#$0
    136b: 6a           	ror
    136c: 85 26        	sta	$26                     ; 0x2026 <printf+0x8e7>
    136e: b2 12        	lda	($12)                   ; 0x2012 <printf+0x8d3>
    1370: 1a           	inc
    1371: 85 80        	sta	$80                     ; 0x2080 <printf+0x941>
    1373: 64 f3        	stz	$f3                     ; 0x20f3 <printf+0x9b4>
    1375: a6 80        	ldx	$80                     ; 0x2080 <printf+0x941>
    1377: 86 f4        	stx	$f4                     ; 0x20f4 <printf+0x9b5>
    1379: 64 f5        	stz	$f5                     ; 0x20f5 <printf+0x9b6>
    137b: 18           	clc
    137c: a5 10        	lda	$10                     ; 0x2010 <printf+0x8d1>
    137e: 69 09        	adc	#$9
    1380: 85 12        	sta	$12                     ; 0x2012 <printf+0x8d3>
    1382: a5 11        	lda	$11                     ; 0x2011 <printf+0x8d2>
    1384: 69 00        	adc	#$0
    1386: 85 13        	sta	$13                     ; 0x2013 <printf+0x8d4>
    1388: a5 29        	lda	$29                     ; 0x2029 <printf+0x8ea>
    138a: a0 05        	ldy	#$5
    138c: 91 10        	sta	($10),y                 ; 0x2010 <printf+0x8d1>
    138e: a6 28        	ldx	$28                     ; 0x2028 <printf+0x8e9>
    1390: a5 2a        	lda	$2a                     ; 0x202a <printf+0x8eb>
    1392: 88           	dey
    1393: 91 10        	sta	($10),y                 ; 0x2010 <printf+0x8d1>
    1395: 20 f0 ff     	jsr	$fff0 <__heap_start+0xd736>
    1398: 92 12        	sta	($12)                   ; 0x2012 <printf+0x8d3>
    139a: a9 00        	lda	#$0
    139c: 6a           	ror
    139d: 85 26        	sta	$26                     ; 0x2026 <printf+0x8e7>
    139f: 4c ae 12     	jmp	$12ae <f256main+0xb9c>

000013a2 <__putchar>:
    13a2: 85 7b        	sta	$7b                     ; 0x207b <printf+0x93c>
    13a4: a6 01        	ldx	$1                      ; 0x2001 <printf+0x8c2>
    13a6: 86 22        	stx	$22                     ; 0x2022 <printf+0x8e3>
    13a8: a6 3a        	ldx	$3a                     ; 0x203a <printf+0x8fb>
    13aa: a0 50        	ldy	#$50
    13ac: 8c 00 de     	sty	$de00                   ; 0xde00 <__heap_start+0xb546>
    13af: 9c 01 de     	stz	$de01                   ; 0xde01 <__heap_start+0xb547>
    13b2: 8e 02 de     	stx	$de02                   ; 0xde02 <__heap_start+0xb548>
    13b5: 9c 03 de     	stz	$de03                   ; 0xde03 <__heap_start+0xb549>
    13b8: ae 10 de     	ldx	$de10                   ; 0xde10 <__heap_start+0xb556>
    13bb: ac 11 de     	ldy	$de11                   ; 0xde11 <__heap_start+0xb557>
    13be: 84 13        	sty	$13                     ; 0x2013 <printf+0x8d4>
    13c0: ad 12 de     	lda	$de12                   ; 0xde12 <__heap_start+0xb558>
    13c3: ac 13 de     	ldy	$de13                   ; 0xde13 <__heap_start+0xb559>
    13c6: 84 1a        	sty	$1a                     ; 0x201a <printf+0x8db>
    13c8: 9c 08 de     	stz	$de08                   ; 0xde08 <__heap_start+0xb54e>
    13cb: a0 c0        	ldy	#$c0
    13cd: 8c 09 de     	sty	$de09                   ; 0xde09 <__heap_start+0xb54f>
    13d0: 9c 0a de     	stz	$de0a                   ; 0xde0a <__heap_start+0xb550>
    13d3: 9c 0b de     	stz	$de0b                   ; 0xde0b <__heap_start+0xb551>
    13d6: 8e 0c de     	stx	$de0c                   ; 0xde0c <__heap_start+0xb552>
    13d9: 64 12        	stz	$12                     ; 0x2012 <printf+0x8d3>
    13db: a2 00        	ldx	#$0
    13dd: 86 14        	stx	$14                     ; 0x2014 <printf+0x8d5>
    13df: a2 c0        	ldx	#$c0
    13e1: 86 15        	stx	$15                     ; 0x2015 <printf+0x8d6>
    13e3: a2 11        	ldx	#$11
    13e5: 86 16        	stx	$16                     ; 0x2016 <printf+0x8d7>
    13e7: a2 c9        	ldx	#$c9
    13e9: 86 17        	stx	$17                     ; 0x2017 <printf+0x8d8>
    13eb: a2 10        	ldx	#$10
    13ed: 86 18        	stx	$18                     ; 0x2018 <printf+0x8d9>
    13ef: a2 c9        	ldx	#$c9
    13f1: 86 19        	stx	$19                     ; 0x2019 <printf+0x8da>
    13f3: a6 13        	ldx	$13                     ; 0x2013 <printf+0x8d4>
    13f5: 8e 0d de     	stx	$de0d                   ; 0xde0d <__heap_start+0xb553>
    13f8: 8d 0e de     	sta	$de0e                   ; 0xde0e <__heap_start+0xb554>
    13fb: a6 1a        	ldx	$1a                     ; 0x201a <printf+0x8db>
    13fd: 8e 0f de     	stx	$de0f                   ; 0xde0f <__heap_start+0xb555>
    1400: ac 18 de     	ldy	$de18                   ; 0xde18 <__heap_start+0xb55e>
    1403: ad 19 de     	lda	$de19                   ; 0xde19 <__heap_start+0xb55f>
    1406: ae 1a de     	ldx	$de1a                   ; 0xde1a <__heap_start+0xb560>
    1409: ae 1b de     	ldx	$de1b                   ; 0xde1b <__heap_start+0xb561>
    140c: 84 1a        	sty	$1a                     ; 0x201a <printf+0x8db>
    140e: 85 1b        	sta	$1b                     ; 0x201b <printf+0x8dc>
    1410: 64 13        	stz	$13                     ; 0x2013 <printf+0x8d4>
    1412: 80 13        	bra	$1427 <__putchar+0x85>
    1414: a5 1a        	lda	$1a                     ; 0x201a <printf+0x8db>
    1416: 18           	clc
    1417: 69 50        	adc	#$50
    1419: 85 1a        	sta	$1a                     ; 0x201a <printf+0x8db>
    141b: a5 1b        	lda	$1b                     ; 0x201b <printf+0x8dc>
    141d: 69 00        	adc	#$0
    141f: 85 1b        	sta	$1b                     ; 0x201b <printf+0x8dc>
    1421: e6 12        	inc	$12                     ; 0x2012 <printf+0x8d3>
    1423: d0 02        	bne	$1427 <__putchar+0x85>
    1425: e6 13        	inc	$13                     ; 0x2013 <printf+0x8d4>
    1427: a9 7b        	lda	#$7b
    1429: 18           	clc
    142a: 65 12        	adc	$12                     ; 0x2012 <printf+0x8d3>
    142c: 85 1c        	sta	$1c                     ; 0x201c <printf+0x8dd>
    142e: a9 00        	lda	#$0
    1430: 65 13        	adc	$13                     ; 0x2013 <printf+0x8d4>
    1432: 85 1d        	sta	$1d                     ; 0x201d <printf+0x8de>
    1434: b2 1c        	lda	($1c)                   ; 0x201c <printf+0x8dd>
    1436: c9 0a        	cmp	#$a
    1438: f0 26        	beq	$1460 <__putchar+0xbe>
    143a: c9 0d        	cmp	#$d
    143c: f0 22        	beq	$1460 <__putchar+0xbe>
    143e: aa           	tax
    143f: d0 03        	bne	$1444 <__putchar+0xa2>
    1441: 4c 45 15     	jmp	$1545 <__putchar+0x1a3>
    1444: a2 03        	ldx	#$3
    1446: 86 01        	stx	$1                      ; 0x2001 <printf+0x8c2>
    1448: a4 39        	ldy	$39                     ; 0x2039 <printf+0x8fa>
    144a: a9 f0        	lda	#$f0
    144c: 91 1a        	sta	($1a),y                 ; 0x201a <printf+0x8db>
    144e: ca           	dex
    144f: 86 01        	stx	$1                      ; 0x2001 <printf+0x8c2>
    1451: b2 1c        	lda	($1c)                   ; 0x201c <printf+0x8dd>
    1453: a4 39        	ldy	$39                     ; 0x2039 <printf+0x8fa>
    1455: 91 1a        	sta	($1a),y                 ; 0x201a <printf+0x8db>
    1457: a6 39        	ldx	$39                     ; 0x2039 <printf+0x8fa>
    1459: e8           	inx
    145a: e6 39        	inc	$39                     ; 0x2039 <printf+0x8fa>
    145c: e0 50        	cpx	#$50
    145e: d0 c1        	bne	$1421 <__putchar+0x7f>
    1460: 64 39        	stz	$39                     ; 0x2039 <printf+0x8fa>
    1462: a6 3a        	ldx	$3a                     ; 0x203a <printf+0x8fb>
    1464: e8           	inx
    1465: e6 3a        	inc	$3a                     ; 0x203a <printf+0x8fb>
    1467: e0 1e        	cpx	#$1e
    1469: f0 03        	beq	$146e <__putchar+0xcc>
    146b: 4c 14 14     	jmp	$1414 <__putchar+0x72>
    146e: a2 03        	ldx	#$3
    1470: 86 01        	stx	$1                      ; 0x2001 <printf+0x8c2>
    1472: a2 01        	ldx	#$1
    1474: 86 1a        	stx	$1a                     ; 0x201a <printf+0x8db>
    1476: a2 09        	ldx	#$9
    1478: a0 10        	ldy	#$10
    147a: a9 00        	lda	#$0
    147c: 85 1c        	sta	$1c                     ; 0x201c <printf+0x8dd>
    147e: a9 c0        	lda	#$c0
    1480: 85 1d        	sta	$1d                     ; 0x201d <printf+0x8de>
    1482: 84 1b        	sty	$1b                     ; 0x201b <printf+0x8dc>
    1484: a0 50        	ldy	#$50
    1486: b1 1c        	lda	($1c),y                 ; 0x201c <printf+0x8dd>
    1488: 92 1c        	sta	($1c)                   ; 0x201c <printf+0x8dd>
    148a: a9 ff        	lda	#$ff
    148c: c6 1b        	dec	$1b                     ; 0x201b <printf+0x8dc>
    148e: c5 1b        	cmp	$1b                     ; 0x201b <printf+0x8dc>
    1490: d0 01        	bne	$1493 <__putchar+0xf1>
    1492: ca           	dex
    1493: e6 1c        	inc	$1c                     ; 0x201c <printf+0x8dd>
    1495: d0 02        	bne	$1499 <__putchar+0xf7>
    1497: e6 1d        	inc	$1d                     ; 0x201d <printf+0x8de>
    1499: 8a           	txa
    149a: d0 ea        	bne	$1486 <__putchar+0xe4>
    149c: a5 1b        	lda	$1b                     ; 0x201b <printf+0x8dc>
    149e: d0 e6        	bne	$1486 <__putchar+0xe4>
    14a0: a2 02        	ldx	#$2
    14a2: 86 01        	stx	$1                      ; 0x2001 <printf+0x8c2>
    14a4: a2 00        	ldx	#$0
    14a6: a5 1a        	lda	$1a                     ; 0x201a <printf+0x8db>
    14a8: d0 ca        	bne	$1474 <__putchar+0xd2>
    14aa: a2 03        	ldx	#$3
    14ac: 86 01        	stx	$1                      ; 0x2001 <printf+0x8c2>
    14ae: a2 50        	ldx	#$50
    14b0: a0 11        	ldy	#$11
    14b2: 84 1a        	sty	$1a                     ; 0x201a <printf+0x8db>
    14b4: a0 c9        	ldy	#$c9
    14b6: 84 1b        	sty	$1b                     ; 0x201b <printf+0x8dc>
    14b8: a0 10        	ldy	#$10
    14ba: 84 1c        	sty	$1c                     ; 0x201c <printf+0x8dd>
    14bc: a0 c9        	ldy	#$c9
    14be: 84 1d        	sty	$1d                     ; 0x201d <printf+0x8de>
    14c0: a9 f0        	lda	#$f0
    14c2: a4 1a        	ldy	$1a                     ; 0x201a <printf+0x8db>
    14c4: 84 1e        	sty	$1e                     ; 0x201e <printf+0x8df>
    14c6: a4 1b        	ldy	$1b                     ; 0x201b <printf+0x8dc>
    14c8: 84 1f        	sty	$1f                     ; 0x201f <printf+0x8e0>
    14ca: 92 1c        	sta	($1c)                   ; 0x201c <printf+0x8dd>
    14cc: e6 1a        	inc	$1a                     ; 0x201a <printf+0x8db>
    14ce: d0 02        	bne	$14d2 <__putchar+0x130>
    14d0: e6 1b        	inc	$1b                     ; 0x201b <printf+0x8dc>
    14d2: ca           	dex
    14d3: a4 1e        	ldy	$1e                     ; 0x201e <printf+0x8df>
    14d5: 84 1c        	sty	$1c                     ; 0x201c <printf+0x8dd>
    14d7: a4 1f        	ldy	$1f                     ; 0x201f <printf+0x8e0>
    14d9: 84 1d        	sty	$1d                     ; 0x201d <printf+0x8de>
    14db: e0 00        	cpx	#$0
    14dd: d0 e3        	bne	$14c2 <__putchar+0x120>
    14df: a2 02        	ldx	#$2
    14e1: 86 01        	stx	$1                      ; 0x2001 <printf+0x8c2>
    14e3: a2 50        	ldx	#$50
    14e5: a0 11        	ldy	#$11
    14e7: 84 1a        	sty	$1a                     ; 0x201a <printf+0x8db>
    14e9: a0 c9        	ldy	#$c9
    14eb: 84 1b        	sty	$1b                     ; 0x201b <printf+0x8dc>
    14ed: a0 10        	ldy	#$10
    14ef: 84 1c        	sty	$1c                     ; 0x201c <printf+0x8dd>
    14f1: a0 c9        	ldy	#$c9
    14f3: 84 1d        	sty	$1d                     ; 0x201d <printf+0x8de>
    14f5: a9 20        	lda	#$20
    14f7: a4 1a        	ldy	$1a                     ; 0x201a <printf+0x8db>
    14f9: 84 1e        	sty	$1e                     ; 0x201e <printf+0x8df>
    14fb: a4 1b        	ldy	$1b                     ; 0x201b <printf+0x8dc>
    14fd: 84 1f        	sty	$1f                     ; 0x201f <printf+0x8e0>
    14ff: 92 1c        	sta	($1c)                   ; 0x201c <printf+0x8dd>
    1501: e6 1a        	inc	$1a                     ; 0x201a <printf+0x8db>
    1503: d0 02        	bne	$1507 <__putchar+0x165>
    1505: e6 1b        	inc	$1b                     ; 0x201b <printf+0x8dc>
    1507: ca           	dex
    1508: a4 1e        	ldy	$1e                     ; 0x201e <printf+0x8df>
    150a: 84 1c        	sty	$1c                     ; 0x201c <printf+0x8dd>
    150c: a4 1f        	ldy	$1f                     ; 0x201f <printf+0x8e0>
    150e: 84 1d        	sty	$1d                     ; 0x201d <printf+0x8de>
    1510: e0 00        	cpx	#$0
    1512: d0 e3        	bne	$14f7 <__putchar+0x155>
    1514: c6 3a        	dec	$3a                     ; 0x203a <printf+0x8fb>
    1516: 9c 08 de     	stz	$de08                   ; 0xde08 <__heap_start+0xb54e>
    1519: a2 c0        	ldx	#$c0
    151b: 8e 09 de     	stx	$de09                   ; 0xde09 <__heap_start+0xb54f>
    151e: 9c 0a de     	stz	$de0a                   ; 0xde0a <__heap_start+0xb550>
    1521: 9c 0b de     	stz	$de0b                   ; 0xde0b <__heap_start+0xb551>
    1524: a2 1d        	ldx	#$1d
    1526: 8e 0c de     	stx	$de0c                   ; 0xde0c <__heap_start+0xb552>
    1529: 9c 0d de     	stz	$de0d                   ; 0xde0d <__heap_start+0xb553>
    152c: 9c 0e de     	stz	$de0e                   ; 0xde0e <__heap_start+0xb554>
    152f: 9c 0f de     	stz	$de0f                   ; 0xde0f <__heap_start+0xb555>
    1532: ae 18 de     	ldx	$de18                   ; 0xde18 <__heap_start+0xb55e>
    1535: ac 19 de     	ldy	$de19                   ; 0xde19 <__heap_start+0xb55f>
    1538: ad 1a de     	lda	$de1a                   ; 0xde1a <__heap_start+0xb560>
    153b: ad 1b de     	lda	$de1b                   ; 0xde1b <__heap_start+0xb561>
    153e: 86 1a        	stx	$1a                     ; 0x201a <printf+0x8db>
    1540: 84 1b        	sty	$1b                     ; 0x201b <printf+0x8dc>
    1542: 4c 21 14     	jmp	$1421 <__putchar+0x7f>
    1545: a6 22        	ldx	$22                     ; 0x2022 <printf+0x8e3>
    1547: 86 01        	stx	$1                      ; 0x2001 <printf+0x8c2>
    1549: a6 39        	ldx	$39                     ; 0x2039 <printf+0x8fa>
    154b: a4 3a        	ldy	$3a                     ; 0x203a <printf+0x8fb>
    154d: 8e 14 d0     	stx	$d014                   ; 0xd014 <__heap_start+0xa75a>
    1550: 9c 15 d0     	stz	$d015                   ; 0xd015 <__heap_start+0xa75b>
    1553: 84 3a        	sty	$3a                     ; 0x203a <printf+0x8fb>
    1555: 8c 16 d0     	sty	$d016                   ; 0xd016 <__heap_start+0xa75c>
    1558: 9c 17 d0     	stz	$d017                   ; 0xd017 <__heap_start+0xa75d>
    155b: 60           	rts

0000155c <exit>:
    155c: 20 19 03     	jsr	$319 <_fini>
    155f: 80 fe        	bra	$155f <exit+0x3>

00001561 <_ZN12_GLOBAL__N_13putEcP6Status>:
    1561: 85 18        	sta	$18                     ; 0x2018 <printf+0x8d9>
    1563: a6 13        	ldx	$13                     ; 0x2013 <printf+0x8d4>
    1565: 18           	clc
    1566: a5 12        	lda	$12                     ; 0x2012 <printf+0x8d3>
    1568: 69 05        	adc	#$5
    156a: a8           	tay
    156b: a5 13        	lda	$13                     ; 0x2013 <printf+0x8d4>
    156d: 86 15        	stx	$15                     ; 0x2015 <printf+0x8d6>
    156f: 69 00        	adc	#$0
    1571: 18           	clc
    1572: 84 16        	sty	$16                     ; 0x2016 <printf+0x8d7>
    1574: a0 05        	ldy	#$5
    1576: 85 17        	sta	$17                     ; 0x2017 <printf+0x8d8>
    1578: b1 12        	lda	($12),y                 ; 0x2012 <printf+0x8d3>
    157a: aa           	tax
    157b: a5 12        	lda	$12                     ; 0x2012 <printf+0x8d3>
    157d: 69 03        	adc	#$3
    157f: 85 14        	sta	$14                     ; 0x2014 <printf+0x8d5>
    1581: a5 15        	lda	$15                     ; 0x2015 <printf+0x8d6>
    1583: 69 00        	adc	#$0
    1585: 85 15        	sta	$15                     ; 0x2015 <printf+0x8d6>
    1587: a0 01        	ldy	#$1
    1589: b1 16        	lda	($16),y                 ; 0x2016 <printf+0x8d7>
    158b: d1 14        	cmp	($14),y                 ; 0x2014 <printf+0x8d5>
    158d: d0 11        	bne	$15a0 <_ZN12_GLOBAL__N_13putEcP6Status+0x3f>
    158f: a0 03        	ldy	#$3
    1591: 85 17        	sta	$17                     ; 0x2017 <printf+0x8d8>
    1593: b1 12        	lda	($12),y                 ; 0x2012 <printf+0x8d3>
    1595: 85 14        	sta	$14                     ; 0x2014 <printf+0x8d5>
    1597: 86 16        	stx	$16                     ; 0x2016 <printf+0x8d7>
    1599: e4 14        	cpx	$14                     ; 0x2014 <printf+0x8d5>
    159b: 90 0e        	bcc	$15ab <_ZN12_GLOBAL__N_13putEcP6Status+0x4a>
    159d: 4c 0a 16     	jmp	$160a <_ZN12_GLOBAL__N_13putEcP6Status+0xa9>
    15a0: 86 16        	stx	$16                     ; 0x2016 <printf+0x8d7>
    15a2: d1 14        	cmp	($14),y                 ; 0x2014 <printf+0x8d5>
    15a4: 85 17        	sta	$17                     ; 0x2017 <printf+0x8d8>
    15a6: 90 03        	bcc	$15ab <_ZN12_GLOBAL__N_13putEcP6Status+0x4a>
    15a8: 4c 0a 16     	jmp	$160a <_ZN12_GLOBAL__N_13putEcP6Status+0xa9>
    15ab: a5 12        	lda	$12                     ; 0x2012 <printf+0x8d3>
    15ad: 18           	clc
    15ae: 69 0f        	adc	#$f
    15b0: 85 14        	sta	$14                     ; 0x2014 <printf+0x8d5>
    15b2: a5 13        	lda	$13                     ; 0x2013 <printf+0x8d4>
    15b4: 69 00        	adc	#$0
    15b6: 85 15        	sta	$15                     ; 0x2015 <printf+0x8d6>
    15b8: a0 01        	ldy	#$1
    15ba: b1 14        	lda	($14),y                 ; 0x2014 <printf+0x8d5>
    15bc: a2 00        	ldx	#$0
    15be: 86 14        	stx	$14                     ; 0x2014 <printf+0x8d5>
    15c0: a2 00        	ldx	#$0
    15c2: 86 15        	stx	$15                     ; 0x2015 <printf+0x8d6>
    15c4: c5 15        	cmp	$15                     ; 0x2015 <printf+0x8d6>
    15c6: d0 2d        	bne	$15f5 <_ZN12_GLOBAL__N_13putEcP6Status+0x94>
    15c8: a0 0f        	ldy	#$f
    15ca: b1 12        	lda	($12),y                 ; 0x2012 <printf+0x8d3>
    15cc: c5 14        	cmp	$14                     ; 0x2014 <printf+0x8d5>
    15ce: d0 25        	bne	$15f5 <_ZN12_GLOBAL__N_13putEcP6Status+0x94>
    15d0: a5 12        	lda	$12                     ; 0x2012 <printf+0x8d3>
    15d2: 18           	clc
    15d3: 69 09        	adc	#$9
    15d5: 85 14        	sta	$14                     ; 0x2014 <printf+0x8d5>
    15d7: a5 13        	lda	$13                     ; 0x2013 <printf+0x8d4>
    15d9: 69 00        	adc	#$0
    15db: a0 09        	ldy	#$9
    15dd: 85 15        	sta	$15                     ; 0x2015 <printf+0x8d6>
    15df: 18           	clc
    15e0: a5 16        	lda	$16                     ; 0x2016 <printf+0x8d7>
    15e2: 71 12        	adc	($12),y                 ; 0x2012 <printf+0x8d3>
    15e4: aa           	tax
    15e5: a0 01        	ldy	#$1
    15e7: a5 17        	lda	$17                     ; 0x2017 <printf+0x8d8>
    15e9: 71 14        	adc	($14),y                 ; 0x2014 <printf+0x8d5>
    15eb: 86 14        	stx	$14                     ; 0x2014 <printf+0x8d5>
    15ed: 85 15        	sta	$15                     ; 0x2015 <printf+0x8d6>
    15ef: a5 18        	lda	$18                     ; 0x2018 <printf+0x8d9>
    15f1: 92 14        	sta	($14)                   ; 0x2014 <printf+0x8d5>
    15f3: 80 15        	bra	$160a <_ZN12_GLOBAL__N_13putEcP6Status+0xa9>
    15f5: a6 12        	ldx	$12                     ; 0x2012 <printf+0x8d3>
    15f7: 86 da        	stx	$da                     ; 0x20da <printf+0x99b>
    15f9: a6 13        	ldx	$13                     ; 0x2013 <printf+0x8d4>
    15fb: 86 db        	stx	$db                     ; 0x20db <printf+0x99c>
    15fd: a5 18        	lda	$18                     ; 0x2018 <printf+0x8d9>
    15ff: 20 a2 13     	jsr	$13a2 <__putchar>
    1602: a6 da        	ldx	$da                     ; 0x20da <printf+0x99b>
    1604: 86 12        	stx	$12                     ; 0x2012 <printf+0x8d3>
    1606: a6 db        	ldx	$db                     ; 0x20db <printf+0x99c>
    1608: 86 13        	stx	$13                     ; 0x2013 <printf+0x8d4>
    160a: a0 05        	ldy	#$5
    160c: a5 12        	lda	$12                     ; 0x2012 <printf+0x8d3>
    160e: 18           	clc
    160f: 69 05        	adc	#$5
    1611: 85 14        	sta	$14                     ; 0x2014 <printf+0x8d5>
    1613: a5 13        	lda	$13                     ; 0x2013 <printf+0x8d4>
    1615: 69 00        	adc	#$0
    1617: 85 15        	sta	$15                     ; 0x2015 <printf+0x8d6>
    1619: b1 12        	lda	($12),y                 ; 0x2012 <printf+0x8d3>
    161b: aa           	tax
    161c: a0 01        	ldy	#$1
    161e: b1 14        	lda	($14),y                 ; 0x2014 <printf+0x8d5>
    1620: e8           	inx
    1621: d0 01        	bne	$1624 <_ZN12_GLOBAL__N_13putEcP6Status+0xc3>
    1623: 1a           	inc
    1624: 85 16        	sta	$16                     ; 0x2016 <printf+0x8d7>
    1626: 8a           	txa
    1627: a0 05        	ldy	#$5
    1629: 91 12        	sta	($12),y                 ; 0x2012 <printf+0x8d3>
    162b: a0 01        	ldy	#$1
    162d: a5 16        	lda	$16                     ; 0x2016 <printf+0x8d7>
    162f: 91 14        	sta	($14),y                 ; 0x2014 <printf+0x8d5>
    1631: 60           	rts

00001632 <_ZN12_GLOBAL__N_112print_stringEPKcP6Status>:
    1632: a6 12        	ldx	$12                     ; 0x2012 <printf+0x8d3>
    1634: 86 d2        	stx	$d2                     ; 0x20d2 <printf+0x993>
    1636: a6 13        	ldx	$13                     ; 0x2013 <printf+0x8d4>
    1638: 86 d3        	stx	$d3                     ; 0x20d3 <printf+0x994>
    163a: a6 14        	ldx	$14                     ; 0x2014 <printf+0x8d5>
    163c: 86 d4        	stx	$d4                     ; 0x20d4 <printf+0x995>
    163e: a6 15        	ldx	$15                     ; 0x2015 <printf+0x8d6>
    1640: 86 d5        	stx	$d5                     ; 0x20d5 <printf+0x996>
    1642: a5 d4        	lda	$d4                     ; 0x20d4 <printf+0x995>
    1644: 18           	clc
    1645: 69 0d        	adc	#$d
    1647: 85 12        	sta	$12                     ; 0x2012 <printf+0x8d3>
    1649: a5 d5        	lda	$d5                     ; 0x20d5 <printf+0x996>
    164b: 69 00        	adc	#$0
    164d: 85 13        	sta	$13                     ; 0x2013 <printf+0x8d4>
    164f: a0 01        	ldy	#$1
    1651: b1 12        	lda	($12),y                 ; 0x2012 <printf+0x8d3>
    1653: 30 16        	bmi	$166b <_ZN12_GLOBAL__N_112print_stringEPKcP6Status+0x39>
    1655: a0 0d        	ldy	#$d
    1657: 85 12        	sta	$12                     ; 0x2012 <printf+0x8d3>
    1659: b1 d4        	lda	($d4),y                 ; 0x20d4 <printf+0x995>
    165b: a6 12        	ldx	$12                     ; 0x2012 <printf+0x8d3>
    165d: 86 d9        	stx	$d9                     ; 0x20d9 <printf+0x99a>
    165f: d0 0f        	bne	$1670 <_ZN12_GLOBAL__N_112print_stringEPKcP6Status+0x3e>
    1661: aa           	tax
    1662: d0 0c        	bne	$1670 <_ZN12_GLOBAL__N_112print_stringEPKcP6Status+0x3e>
    1664: 64 d6        	stz	$d6                     ; 0x20d6 <printf+0x997>
    1666: a2 00        	ldx	#$0
    1668: 4c 3a 17     	jmp	$173a <_ZN12_GLOBAL__N_112print_stringEPKcP6Status+0x108>
    166b: a9 ff        	lda	#$ff
    166d: aa           	tax
    166e: 86 d9        	stx	$d9                     ; 0x20d9 <printf+0x99a>
    1670: 85 d6        	sta	$d6                     ; 0x20d6 <printf+0x997>
    1672: 64 12        	stz	$12                     ; 0x2012 <printf+0x8d3>
    1674: a4 d2        	ldy	$d2                     ; 0x20d2 <printf+0x993>
    1676: a6 d3        	ldx	$d3                     ; 0x20d3 <printf+0x994>
    1678: 86 16        	stx	$16                     ; 0x2016 <printf+0x8d7>
    167a: 64 13        	stz	$13                     ; 0x2013 <printf+0x8d4>
    167c: 98           	tya
    167d: 18           	clc
    167e: 65 12        	adc	$12                     ; 0x2012 <printf+0x8d3>
    1680: 85 14        	sta	$14                     ; 0x2014 <printf+0x8d5>
    1682: a5 d3        	lda	$d3                     ; 0x20d3 <printf+0x994>
    1684: 65 13        	adc	$13                     ; 0x2013 <printf+0x8d4>
    1686: 85 15        	sta	$15                     ; 0x2015 <printf+0x8d6>
    1688: b2 14        	lda	($14)                   ; 0x2014 <printf+0x8d5>
    168a: d0 03        	bne	$168f <_ZN12_GLOBAL__N_112print_stringEPKcP6Status+0x5d>
    168c: 4c 34 17     	jmp	$1734 <_ZN12_GLOBAL__N_112print_stringEPKcP6Status+0x102>
    168f: e6 12        	inc	$12                     ; 0x2012 <printf+0x8d3>
    1691: d0 02        	bne	$1695 <_ZN12_GLOBAL__N_112print_stringEPKcP6Status+0x63>
    1693: e6 13        	inc	$13                     ; 0x2013 <printf+0x8d4>
    1695: a6 d9        	ldx	$d9                     ; 0x20d9 <printf+0x99a>
    1697: e4 13        	cpx	$13                     ; 0x2013 <printf+0x8d4>
    1699: d0 e1        	bne	$167c <_ZN12_GLOBAL__N_112print_stringEPKcP6Status+0x4a>
    169b: a6 d6        	ldx	$d6                     ; 0x20d6 <printf+0x997>
    169d: e4 12        	cpx	$12                     ; 0x2012 <printf+0x8d3>
    169f: d0 db        	bne	$167c <_ZN12_GLOBAL__N_112print_stringEPKcP6Status+0x4a>
    16a1: a0 01        	ldy	#$1
    16a3: 98           	tya
    16a4: 31 d4        	and	($d4),y                 ; 0x20d4 <printf+0x995>
    16a6: 29 01        	and	#$1
    16a8: f0 03        	beq	$16ad <_ZN12_GLOBAL__N_112print_stringEPKcP6Status+0x7b>
    16aa: 4c 05 17     	jmp	$1705 <_ZN12_GLOBAL__N_112print_stringEPKcP6Status+0xd3>
    16ad: a0 0b        	ldy	#$b
    16af: a5 d4        	lda	$d4                     ; 0x20d4 <printf+0x995>
    16b1: 18           	clc
    16b2: 69 0b        	adc	#$b
    16b4: 85 14        	sta	$14                     ; 0x2014 <printf+0x8d5>
    16b6: a5 d5        	lda	$d5                     ; 0x20d5 <printf+0x996>
    16b8: 69 00        	adc	#$0
    16ba: 85 15        	sta	$15                     ; 0x2015 <printf+0x8d6>
    16bc: b1 d4        	lda	($d4),y                 ; 0x20d4 <printf+0x995>
    16be: 85 12        	sta	$12                     ; 0x2012 <printf+0x8d3>
    16c0: a0 01        	ldy	#$1
    16c2: b1 14        	lda	($14),y                 ; 0x2014 <printf+0x8d5>
    16c4: 85 13        	sta	$13                     ; 0x2013 <printf+0x8d4>
    16c6: a6 d9        	ldx	$d9                     ; 0x20d9 <printf+0x99a>
    16c8: e4 13        	cpx	$13                     ; 0x2013 <printf+0x8d4>
    16ca: d0 08        	bne	$16d4 <_ZN12_GLOBAL__N_112print_stringEPKcP6Status+0xa2>
    16cc: a6 d6        	ldx	$d6                     ; 0x20d6 <printf+0x997>
    16ce: e4 12        	cpx	$12                     ; 0x2012 <printf+0x8d3>
    16d0: 90 06        	bcc	$16d8 <_ZN12_GLOBAL__N_112print_stringEPKcP6Status+0xa6>
    16d2: 80 31        	bra	$1705 <_ZN12_GLOBAL__N_112print_stringEPKcP6Status+0xd3>
    16d4: e4 13        	cpx	$13                     ; 0x2013 <printf+0x8d4>
    16d6: b0 2d        	bcs	$1705 <_ZN12_GLOBAL__N_112print_stringEPKcP6Status+0xd3>
    16d8: 38           	sec
    16d9: a5 d6        	lda	$d6                     ; 0x20d6 <printf+0x997>
    16db: e5 12        	sbc	$12                     ; 0x2012 <printf+0x8d3>
    16dd: a8           	tay
    16de: a5 d9        	lda	$d9                     ; 0x20d9 <printf+0x99a>
    16e0: e5 13        	sbc	$13                     ; 0x2013 <printf+0x8d4>
    16e2: 85 d8        	sta	$d8                     ; 0x20d8 <printf+0x999>
    16e4: a6 d4        	ldx	$d4                     ; 0x20d4 <printf+0x995>
    16e6: 86 12        	stx	$12                     ; 0x2012 <printf+0x8d3>
    16e8: a6 d5        	ldx	$d5                     ; 0x20d5 <printf+0x996>
    16ea: 86 13        	stx	$13                     ; 0x2013 <printf+0x8d4>
    16ec: 84 d7        	sty	$d7                     ; 0x20d7 <printf+0x998>
    16ee: a9 20        	lda	#$20
    16f0: 20 61 15     	jsr	$1561 <_ZN12_GLOBAL__N_13putEcP6Status>
    16f3: a6 d8        	ldx	$d8                     ; 0x20d8 <printf+0x999>
    16f5: e6 d7        	inc	$d7                     ; 0x20d7 <printf+0x998>
    16f7: d0 01        	bne	$16fa <_ZN12_GLOBAL__N_112print_stringEPKcP6Status+0xc8>
    16f9: e8           	inx
    16fa: 86 d8        	stx	$d8                     ; 0x20d8 <printf+0x999>
    16fc: a4 d7        	ldy	$d7                     ; 0x20d7 <printf+0x998>
    16fe: 8a           	txa
    16ff: d0 e3        	bne	$16e4 <_ZN12_GLOBAL__N_112print_stringEPKcP6Status+0xb2>
    1701: a5 d7        	lda	$d7                     ; 0x20d7 <printf+0x998>
    1703: d0 df        	bne	$16e4 <_ZN12_GLOBAL__N_112print_stringEPKcP6Status+0xb2>
    1705: a4 d9        	ldy	$d9                     ; 0x20d9 <printf+0x99a>
    1707: d0 04        	bne	$170d <_ZN12_GLOBAL__N_112print_stringEPKcP6Status+0xdb>
    1709: a5 d6        	lda	$d6                     ; 0x20d6 <printf+0x997>
    170b: f0 26        	beq	$1733 <_ZN12_GLOBAL__N_112print_stringEPKcP6Status+0x101>
    170d: a2 ff        	ldx	#$ff
    170f: c6 d6        	dec	$d6                     ; 0x20d6 <printf+0x997>
    1711: e4 d6        	cpx	$d6                     ; 0x20d6 <printf+0x997>
    1713: d0 01        	bne	$1716 <_ZN12_GLOBAL__N_112print_stringEPKcP6Status+0xe4>
    1715: 88           	dey
    1716: 84 d7        	sty	$d7                     ; 0x20d7 <printf+0x998>
    1718: b2 d2        	lda	($d2)                   ; 0x20d2 <printf+0x993>
    171a: e6 d2        	inc	$d2                     ; 0x20d2 <printf+0x993>
    171c: d0 02        	bne	$1720 <_ZN12_GLOBAL__N_112print_stringEPKcP6Status+0xee>
    171e: e6 d3        	inc	$d3                     ; 0x20d3 <printf+0x994>
    1720: a6 d4        	ldx	$d4                     ; 0x20d4 <printf+0x995>
    1722: 86 12        	stx	$12                     ; 0x2012 <printf+0x8d3>
    1724: a6 d5        	ldx	$d5                     ; 0x20d5 <printf+0x996>
    1726: 86 13        	stx	$13                     ; 0x2013 <printf+0x8d4>
    1728: 20 61 15     	jsr	$1561 <_ZN12_GLOBAL__N_13putEcP6Status>
    172b: a4 d7        	ldy	$d7                     ; 0x20d7 <printf+0x998>
    172d: d0 de        	bne	$170d <_ZN12_GLOBAL__N_112print_stringEPKcP6Status+0xdb>
    172f: a5 d6        	lda	$d6                     ; 0x20d6 <printf+0x997>
    1731: d0 da        	bne	$170d <_ZN12_GLOBAL__N_112print_stringEPKcP6Status+0xdb>
    1733: 60           	rts
    1734: a6 12        	ldx	$12                     ; 0x2012 <printf+0x8d3>
    1736: 86 d6        	stx	$d6                     ; 0x20d6 <printf+0x997>
    1738: a6 13        	ldx	$13                     ; 0x2013 <printf+0x8d4>
    173a: 86 d9        	stx	$d9                     ; 0x20d9 <printf+0x99a>
    173c: 4c a1 16     	jmp	$16a1 <_ZN12_GLOBAL__N_112print_stringEPKcP6Status+0x6f>

0000173f <printf>:
    173f: a6 12        	ldx	$12                     ; 0x2012 <printf+0x8d3>
    1741: 86 87        	stx	$87                     ; 0x2087 <printf+0x948>
    1743: a6 13        	ldx	$13                     ; 0x2013 <printf+0x8d4>
    1745: 86 88        	stx	$88                     ; 0x2088 <printf+0x949>
    1747: 18           	clc
    1748: a6 10        	ldx	$10                     ; 0x2010 <printf+0x8d1>
    174a: a4 11        	ldy	$11                     ; 0x2011 <printf+0x8d2>
    174c: 86 c8        	stx	$c8                     ; 0x20c8 <printf+0x989>
    174e: 84 c9        	sty	$c9                     ; 0x20c9 <printf+0x98a>
    1750: a6 c8        	ldx	$c8                     ; 0x20c8 <printf+0x989>
    1752: a4 c9        	ldy	$c9                     ; 0x20c9 <printf+0x98a>
    1754: 86 b3        	stx	$b3                     ; 0x20b3 <printf+0x974>
    1756: 84 b4        	sty	$b4                     ; 0x20b4 <printf+0x975>
    1758: a2 ff        	ldx	#$ff
    175a: 86 b8        	stx	$b8                     ; 0x20b8 <printf+0x979>
    175c: 86 b9        	stx	$b9                     ; 0x20b9 <printf+0x97a>
    175e: 64 ba        	stz	$ba                     ; 0x20ba <printf+0x97b>
    1760: 64 bb        	stz	$bb                     ; 0x20bb <printf+0x97c>
    1762: e8           	inx
    1763: 86 89        	stx	$89                     ; 0x2089 <printf+0x94a>
    1765: a2 00        	ldx	#$0
    1767: 86 8a        	stx	$8a                     ; 0x208a <printf+0x94b>
    1769: a6 89        	ldx	$89                     ; 0x2089 <printf+0x94a>
    176b: a4 8a        	ldy	$8a                     ; 0x208a <printf+0x94b>
    176d: 86 be        	stx	$be                     ; 0x20be <printf+0x97f>
    176f: 84 bf        	sty	$bf                     ; 0x20bf <printf+0x980>
    1771: a2 02        	ldx	#$2
    1773: 86 c4        	stx	$c4                     ; 0x20c4 <printf+0x985>
    1775: 64 c5        	stz	$c5                     ; 0x20c5 <printf+0x986>
    1777: a6 b3        	ldx	$b3                     ; 0x20b3 <printf+0x974>
    1779: a4 b4        	ldy	$b4                     ; 0x20b4 <printf+0x975>
    177b: 86 c6        	stx	$c6                     ; 0x20c6 <printf+0x987>
    177d: 84 c7        	sty	$c7                     ; 0x20c7 <printf+0x988>
    177f: a2 aa        	ldx	#$aa
    1781: a0 00        	ldy	#$0
    1783: 86 12        	stx	$12                     ; 0x2012 <printf+0x8d3>
    1785: 84 13        	sty	$13                     ; 0x2013 <printf+0x8d4>
    1787: a0 01        	ldy	#$1
    1789: a9 91        	lda	#$91
    178b: 18           	clc
    178c: 69 02        	adc	#$2
    178e: 85 d0        	sta	$d0                     ; 0x20d0 <printf+0x991>
    1790: a9 00        	lda	#$0
    1792: 69 00        	adc	#$0
    1794: 85 d1        	sta	$d1                     ; 0x20d1 <printf+0x992>
    1796: e6 12        	inc	$12                     ; 0x2012 <printf+0x8d3>
    1798: d0 02        	bne	$179c <printf+0x5d>
    179a: e6 13        	inc	$13                     ; 0x2013 <printf+0x8d4>
    179c: a6 12        	ldx	$12                     ; 0x2012 <printf+0x8d3>
    179e: 86 cd        	stx	$cd                     ; 0x20cd <printf+0x98e>
    17a0: a6 13        	ldx	$13                     ; 0x2013 <printf+0x8d4>
    17a2: 86 ce        	stx	$ce                     ; 0x20ce <printf+0x98f>
    17a4: a6 87        	ldx	$87                     ; 0x2087 <printf+0x948>
    17a6: 86 8b        	stx	$8b                     ; 0x208b <printf+0x94c>
    17a8: a6 88        	ldx	$88                     ; 0x2088 <printf+0x949>
    17aa: 86 8c        	stx	$8c                     ; 0x208c <printf+0x94d>
    17ac: b2 87        	lda	($87)                   ; 0x2087 <printf+0x948>
    17ae: c9 25        	cmp	#$25
    17b0: f0 21        	beq	$17d3 <printf+0x94>
    17b2: aa           	tax
    17b3: d0 03        	bne	$17b8 <printf+0x79>
    17b5: 4c ee 22     	jmp	$22ee <printf+0xbaf>
    17b8: 20 a2 13     	jsr	$13a2 <__putchar>
    17bb: a0 01        	ldy	#$1
    17bd: e6 8b        	inc	$8b                     ; 0x208b <printf+0x94c>
    17bf: d0 02        	bne	$17c3 <printf+0x84>
    17c1: e6 8c        	inc	$8c                     ; 0x208c <printf+0x94d>
    17c3: e6 ba        	inc	$ba                     ; 0x20ba <printf+0x97b>
    17c5: d0 02        	bne	$17c9 <printf+0x8a>
    17c7: e6 bb        	inc	$bb                     ; 0x20bb <printf+0x97c>
    17c9: a6 8b        	ldx	$8b                     ; 0x208b <printf+0x94c>
    17cb: 86 87        	stx	$87                     ; 0x2087 <printf+0x948>
    17cd: a6 8c        	ldx	$8c                     ; 0x208c <printf+0x94d>
    17cf: 86 88        	stx	$88                     ; 0x2088 <printf+0x949>
    17d1: 80 d1        	bra	$17a4 <printf+0x65>
    17d3: a6 87        	ldx	$87                     ; 0x2087 <printf+0x948>
    17d5: 86 12        	stx	$12                     ; 0x2012 <printf+0x8d3>
    17d7: a6 88        	ldx	$88                     ; 0x2088 <printf+0x949>
    17d9: 86 13        	stx	$13                     ; 0x2013 <printf+0x8d4>
    17db: e6 12        	inc	$12                     ; 0x2012 <printf+0x8d3>
    17dd: d0 02        	bne	$17e1 <printf+0xa2>
    17df: e6 13        	inc	$13                     ; 0x2013 <printf+0x8d4>
    17e1: b1 8b        	lda	($8b),y                 ; 0x208b <printf+0x94c>
    17e3: c9 25        	cmp	#$25
    17e5: d0 16        	bne	$17fd <printf+0xbe>
    17e7: a4 ba        	ldy	$ba                     ; 0x20ba <printf+0x97b>
    17e9: a5 bb        	lda	$bb                     ; 0x20bb <printf+0x97c>
    17eb: c5 b9        	cmp	$b9                     ; 0x20b9 <printf+0x97a>
    17ed: f0 03        	beq	$17f2 <printf+0xb3>
    17ef: 4c 03 19     	jmp	$1903 <printf+0x1c4>
    17f2: a6 b8        	ldx	$b8                     ; 0x20b8 <printf+0x979>
    17f4: 86 12        	stx	$12                     ; 0x2012 <printf+0x8d3>
    17f6: 84 13        	sty	$13                     ; 0x2013 <printf+0x8d4>
    17f8: c4 12        	cpy	$12                     ; 0x2012 <printf+0x8d3>
    17fa: 4c 07 19     	jmp	$1907 <printf+0x1c8>
    17fd: 64 b6        	stz	$b6                     ; 0x20b6 <printf+0x977>
    17ff: 64 b7        	stz	$b7                     ; 0x20b7 <printf+0x978>
    1801: 64 b5        	stz	$b5                     ; 0x20b5 <printf+0x976>
    1803: 64 c0        	stz	$c0                     ; 0x20c0 <printf+0x981>
    1805: 64 c1        	stz	$c1                     ; 0x20c1 <printf+0x982>
    1807: a2 ff        	ldx	#$ff
    1809: 86 c2        	stx	$c2                     ; 0x20c2 <printf+0x983>
    180b: 86 c3        	stx	$c3                     ; 0x20c3 <printf+0x984>
    180d: 64 86        	stz	$86                     ; 0x2086 <printf+0x947>
    180f: 80 33        	bra	$1844 <printf+0x105>
    1811: a2 02        	ldx	#$2
    1813: 80 15        	bra	$182a <printf+0xeb>
    1815: e0 20        	cpx	#$20
    1817: f0 15        	beq	$182e <printf+0xef>
    1819: 86 15        	stx	$15                     ; 0x2015 <printf+0x8d6>
    181b: e0 23        	cpx	#$23
    181d: f0 03        	beq	$1822 <printf+0xe3>
    181f: 4c a1 18     	jmp	$18a1 <printf+0x162>
    1822: a5 86        	lda	$86                     ; 0x2086 <printf+0x947>
    1824: a2 04        	ldx	#$4
    1826: 80 02        	bra	$182a <printf+0xeb>
    1828: a2 10        	ldx	#$10
    182a: 86 14        	stx	$14                     ; 0x2014 <printf+0x8d5>
    182c: 80 06        	bra	$1834 <printf+0xf5>
    182e: a2 08        	ldx	#$8
    1830: 86 14        	stx	$14                     ; 0x2014 <printf+0x8d5>
    1832: a5 86        	lda	$86                     ; 0x2086 <printf+0x947>
    1834: 05 14        	ora	$14                     ; 0x2014 <printf+0x8d5>
    1836: 85 86        	sta	$86                     ; 0x2086 <printf+0x947>
    1838: 85 b6        	sta	$b6                     ; 0x20b6 <printf+0x977>
    183a: a2 00        	ldx	#$0
    183c: 86 b7        	stx	$b7                     ; 0x20b7 <printf+0x978>
    183e: e6 12        	inc	$12                     ; 0x2012 <printf+0x8d3>
    1840: d0 02        	bne	$1844 <printf+0x105>
    1842: e6 13        	inc	$13                     ; 0x2013 <printf+0x8d4>
    1844: b2 12        	lda	($12)                   ; 0x2012 <printf+0x8d3>
    1846: aa           	tax
    1847: 38           	sec
    1848: e9 2a        	sbc	#$2a
    184a: c9 07        	cmp	#$7
    184c: b0 c7        	bcs	$1815 <printf+0xd6>
    184e: 86 15        	stx	$15                     ; 0x2015 <printf+0x8d6>
    1850: 0a           	asl
    1851: aa           	tax
    1852: a0 01        	ldy	#$1
    1854: 84 14        	sty	$14                     ; 0x2014 <printf+0x8d5>
    1856: a5 86        	lda	$86                     ; 0x2086 <printf+0x947>
    1858: 7c 50 23     	jmp	($2350,x)               ; 0x2350 <__set_v+0x9>
    185b: a5 c6        	lda	$c6                     ; 0x20c6 <printf+0x987>
    185d: a6 c7        	ldx	$c7                     ; 0x20c7 <printf+0x988>
    185f: 85 16        	sta	$16                     ; 0x2016 <printf+0x8d7>
    1861: 86 17        	stx	$17                     ; 0x2017 <printf+0x8d8>
    1863: 18           	clc
    1864: 69 02        	adc	#$2
    1866: a8           	tay
    1867: 8a           	txa
    1868: 69 00        	adc	#$0
    186a: 84 c6        	sty	$c6                     ; 0x20c6 <printf+0x987>
    186c: 85 c7        	sta	$c7                     ; 0x20c7 <printf+0x988>
    186e: b2 16        	lda	($16)                   ; 0x2016 <printf+0x8d7>
    1870: 85 15        	sta	$15                     ; 0x2015 <printf+0x8d6>
    1872: a0 01        	ldy	#$1
    1874: b1 16        	lda	($16),y                 ; 0x2016 <printf+0x8d7>
    1876: 85 14        	sta	$14                     ; 0x2014 <printf+0x8d5>
    1878: 10 15        	bpl	$188f <printf+0x150>
    187a: a5 86        	lda	$86                     ; 0x2086 <printf+0x947>
    187c: 09 01        	ora	#$1
    187e: 85 86        	sta	$86                     ; 0x2086 <printf+0x947>
    1880: 85 b6        	sta	$b6                     ; 0x20b6 <printf+0x977>
    1882: a2 00        	ldx	#$0
    1884: 86 b7        	stx	$b7                     ; 0x20b7 <printf+0x978>
    1886: 8a           	txa
    1887: 38           	sec
    1888: e5 15        	sbc	$15                     ; 0x2015 <printf+0x8d6>
    188a: 85 15        	sta	$15                     ; 0x2015 <printf+0x8d6>
    188c: 8a           	txa
    188d: e5 14        	sbc	$14                     ; 0x2014 <printf+0x8d5>
    188f: a6 15        	ldx	$15                     ; 0x2015 <printf+0x8d6>
    1891: 86 c0        	stx	$c0                     ; 0x20c0 <printf+0x981>
    1893: 85 c1        	sta	$c1                     ; 0x20c1 <printf+0x982>
    1895: e6 12        	inc	$12                     ; 0x2012 <printf+0x8d3>
    1897: f0 03        	beq	$189c <printf+0x15d>
    1899: 4c 55 19     	jmp	$1955 <printf+0x216>
    189c: e6 13        	inc	$13                     ; 0x2013 <printf+0x8d4>
    189e: 4c 55 19     	jmp	$1955 <printf+0x216>
    18a1: a5 15        	lda	$15                     ; 0x2015 <printf+0x8d6>
    18a3: 18           	clc
    18a4: 69 d0        	adc	#$d0
    18a6: c9 0a        	cmp	#$a
    18a8: 90 03        	bcc	$18ad <printf+0x16e>
    18aa: 4c 47 19     	jmp	$1947 <printf+0x208>
    18ad: a6 15        	ldx	$15                     ; 0x2015 <printf+0x8d6>
    18af: 86 14        	stx	$14                     ; 0x2014 <printf+0x8d5>
    18b1: 64 16        	stz	$16                     ; 0x2016 <printf+0x8d7>
    18b3: 64 15        	stz	$15                     ; 0x2015 <printf+0x8d6>
    18b5: 64 17        	stz	$17                     ; 0x2017 <printf+0x8d8>
    18b7: a0 01        	ldy	#$1
    18b9: 06 16        	asl	$16                     ; 0x2016 <printf+0x8d7>
    18bb: 26 17        	rol	$17                     ; 0x2017 <printf+0x8d8>
    18bd: a5 16        	lda	$16                     ; 0x2016 <printf+0x8d7>
    18bf: 0a           	asl
    18c0: aa           	tax
    18c1: a5 17        	lda	$17                     ; 0x2017 <printf+0x8d8>
    18c3: 2a           	rol
    18c4: 86 18        	stx	$18                     ; 0x2018 <printf+0x8d9>
    18c6: 06 18        	asl	$18                     ; 0x2018 <printf+0x8d9>
    18c8: 2a           	rol
    18c9: aa           	tax
    18ca: a5 18        	lda	$18                     ; 0x2018 <printf+0x8d9>
    18cc: 18           	clc
    18cd: 65 16        	adc	$16                     ; 0x2016 <printf+0x8d7>
    18cf: 85 16        	sta	$16                     ; 0x2016 <printf+0x8d7>
    18d1: 8a           	txa
    18d2: 65 17        	adc	$17                     ; 0x2017 <printf+0x8d8>
    18d4: 85 17        	sta	$17                     ; 0x2017 <printf+0x8d8>
    18d6: a5 16        	lda	$16                     ; 0x2016 <printf+0x8d7>
    18d8: 18           	clc
    18d9: 65 14        	adc	$14                     ; 0x2014 <printf+0x8d5>
    18db: 85 14        	sta	$14                     ; 0x2014 <printf+0x8d5>
    18dd: a5 17        	lda	$17                     ; 0x2017 <printf+0x8d8>
    18df: 65 15        	adc	$15                     ; 0x2015 <printf+0x8d6>
    18e1: aa           	tax
    18e2: 18           	clc
    18e3: a5 14        	lda	$14                     ; 0x2014 <printf+0x8d5>
    18e5: 69 d0        	adc	#$d0
    18e7: 85 16        	sta	$16                     ; 0x2016 <printf+0x8d7>
    18e9: 8a           	txa
    18ea: 69 ff        	adc	#$ff
    18ec: 85 17        	sta	$17                     ; 0x2017 <printf+0x8d8>
    18ee: b1 12        	lda	($12),y                 ; 0x2012 <printf+0x8d3>
    18f0: 85 14        	sta	$14                     ; 0x2014 <printf+0x8d5>
    18f2: 18           	clc
    18f3: 69 d0        	adc	#$d0
    18f5: e6 12        	inc	$12                     ; 0x2012 <printf+0x8d3>
    18f7: d0 02        	bne	$18fb <printf+0x1bc>
    18f9: e6 13        	inc	$13                     ; 0x2013 <printf+0x8d4>
    18fb: c9 0a        	cmp	#$a
    18fd: 64 15        	stz	$15                     ; 0x2015 <printf+0x8d6>
    18ff: 90 b8        	bcc	$18b9 <printf+0x17a>
    1901: 80 4a        	bra	$194d <printf+0x20e>
    1903: 84 13        	sty	$13                     ; 0x2013 <printf+0x8d4>
    1905: c5 b9        	cmp	$b9                     ; 0x20b9 <printf+0x97a>
    1907: a0 01        	ldy	#$1
    1909: b0 26        	bcs	$1931 <printf+0x1f2>
    190b: a6 c5        	ldx	$c5                     ; 0x20c5 <printf+0x986>
    190d: e4 8a        	cpx	$8a                     ; 0x208a <printf+0x94b>
    190f: d0 19        	bne	$192a <printf+0x1eb>
    1911: a6 c4        	ldx	$c4                     ; 0x20c4 <printf+0x985>
    1913: e4 89        	cpx	$89                     ; 0x2089 <printf+0x94a>
    1915: d0 13        	bne	$192a <printf+0x1eb>
    1917: 18           	clc
    1918: aa           	tax
    1919: a5 13        	lda	$13                     ; 0x2013 <printf+0x8d4>
    191b: 65 be        	adc	$be                     ; 0x20be <printf+0x97f>
    191d: 85 12        	sta	$12                     ; 0x2012 <printf+0x8d3>
    191f: 8a           	txa
    1920: 65 bf        	adc	$bf                     ; 0x20bf <printf+0x980>
    1922: 85 13        	sta	$13                     ; 0x2013 <printf+0x8d4>
    1924: a9 25        	lda	#$25
    1926: 92 12        	sta	($12)                   ; 0x2012 <printf+0x8d3>
    1928: 80 07        	bra	$1931 <printf+0x1f2>
    192a: a9 25        	lda	#$25
    192c: 20 a2 13     	jsr	$13a2 <__putchar>
    192f: a0 01        	ldy	#$1
    1931: e6 ba        	inc	$ba                     ; 0x20ba <printf+0x97b>
    1933: d0 02        	bne	$1937 <printf+0x1f8>
    1935: e6 bb        	inc	$bb                     ; 0x20bb <printf+0x97c>
    1937: a5 8b        	lda	$8b                     ; 0x208b <printf+0x94c>
    1939: 18           	clc
    193a: 69 02        	adc	#$2
    193c: 85 87        	sta	$87                     ; 0x2087 <printf+0x948>
    193e: a5 8c        	lda	$8c                     ; 0x208c <printf+0x94d>
    1940: 69 00        	adc	#$0
    1942: 85 88        	sta	$88                     ; 0x2088 <printf+0x949>
    1944: 4c a4 17     	jmp	$17a4 <printf+0x65>
    1947: 64 16        	stz	$16                     ; 0x2016 <printf+0x8d7>
    1949: 64 17        	stz	$17                     ; 0x2017 <printf+0x8d8>
    194b: a0 01        	ldy	#$1
    194d: a6 16        	ldx	$16                     ; 0x2016 <printf+0x8d7>
    194f: 86 c0        	stx	$c0                     ; 0x20c0 <printf+0x981>
    1951: a5 17        	lda	$17                     ; 0x2017 <printf+0x8d8>
    1953: 85 c1        	sta	$c1                     ; 0x20c1 <printf+0x982>
    1955: 86 8f        	stx	$8f                     ; 0x208f <printf+0x950>
    1957: 85 8d        	sta	$8d                     ; 0x208d <printf+0x94e>
    1959: b2 12        	lda	($12)                   ; 0x2012 <printf+0x8d3>
    195b: a2 ff        	ldx	#$ff
    195d: c9 2e        	cmp	#$2e
    195f: d0 39        	bne	$199a <printf+0x25b>
    1961: b1 12        	lda	($12),y                 ; 0x2012 <printf+0x8d3>
    1963: c9 2a        	cmp	#$2a
    1965: d0 38        	bne	$199f <printf+0x260>
    1967: a5 c6        	lda	$c6                     ; 0x20c6 <printf+0x987>
    1969: a6 c7        	ldx	$c7                     ; 0x20c7 <printf+0x988>
    196b: 85 14        	sta	$14                     ; 0x2014 <printf+0x8d5>
    196d: 86 15        	stx	$15                     ; 0x2015 <printf+0x8d6>
    196f: 18           	clc
    1970: 69 02        	adc	#$2
    1972: 85 16        	sta	$16                     ; 0x2016 <printf+0x8d7>
    1974: 8a           	txa
    1975: 69 00        	adc	#$0
    1977: a6 16        	ldx	$16                     ; 0x2016 <printf+0x8d7>
    1979: 86 c6        	stx	$c6                     ; 0x20c6 <printf+0x987>
    197b: 85 c7        	sta	$c7                     ; 0x20c7 <printf+0x988>
    197d: a5 12        	lda	$12                     ; 0x2012 <printf+0x8d3>
    197f: 18           	clc
    1980: 69 02        	adc	#$2
    1982: 85 12        	sta	$12                     ; 0x2012 <printf+0x8d3>
    1984: a5 13        	lda	$13                     ; 0x2013 <printf+0x8d4>
    1986: 69 00        	adc	#$0
    1988: 85 13        	sta	$13                     ; 0x2013 <printf+0x8d4>
    198a: b2 14        	lda	($14)                   ; 0x2014 <printf+0x8d5>
    198c: aa           	tax
    198d: b1 14        	lda	($14),y                 ; 0x2014 <printf+0x8d5>
    198f: 86 18        	stx	$18                     ; 0x2018 <printf+0x8d9>
    1991: 86 c2        	stx	$c2                     ; 0x20c2 <printf+0x983>
    1993: 85 19        	sta	$19                     ; 0x2019 <printf+0x8da>
    1995: 85 c3        	sta	$c3                     ; 0x20c3 <printf+0x984>
    1997: 4c 4a 1a     	jmp	$1a4a <printf+0x30b>
    199a: 86 18        	stx	$18                     ; 0x2018 <printf+0x8d9>
    199c: 4c 5a 1a     	jmp	$1a5a <printf+0x31b>
    199f: 85 17        	sta	$17                     ; 0x2017 <printf+0x8d8>
    19a1: 18           	clc
    19a2: 69 d0        	adc	#$d0
    19a4: c9 0a        	cmp	#$a
    19a6: 90 03        	bcc	$19ab <printf+0x26c>
    19a8: 4c 3c 1a     	jmp	$1a3c <printf+0x2fd>
    19ab: 64 16        	stz	$16                     ; 0x2016 <printf+0x8d7>
    19ad: a2 01        	ldx	#$1
    19af: 64 18        	stz	$18                     ; 0x2018 <printf+0x8d9>
    19b1: 64 19        	stz	$19                     ; 0x2019 <printf+0x8da>
    19b3: a0 01        	ldy	#$1
    19b5: 64 1a        	stz	$1a                     ; 0x201a <printf+0x8db>
    19b7: 5a           	phy
    19b8: a4 1a        	ldy	$1a                     ; 0x201a <printf+0x8db>
    19ba: 84 14        	sty	$14                     ; 0x2014 <printf+0x8d5>
    19bc: 86 15        	stx	$15                     ; 0x2015 <printf+0x8d6>
    19be: 06 18        	asl	$18                     ; 0x2018 <printf+0x8d9>
    19c0: 26 19        	rol	$19                     ; 0x2019 <printf+0x8da>
    19c2: a5 18        	lda	$18                     ; 0x2018 <printf+0x8d9>
    19c4: 0a           	asl
    19c5: 85 1d        	sta	$1d                     ; 0x201d <printf+0x8de>
    19c7: a5 19        	lda	$19                     ; 0x2019 <printf+0x8da>
    19c9: 2a           	rol
    19ca: 06 1d        	asl	$1d                     ; 0x201d <printf+0x8de>
    19cc: 2a           	rol
    19cd: 85 1e        	sta	$1e                     ; 0x201e <printf+0x8df>
    19cf: a5 1d        	lda	$1d                     ; 0x201d <printf+0x8de>
    19d1: 18           	clc
    19d2: 65 18        	adc	$18                     ; 0x2018 <printf+0x8d9>
    19d4: 85 18        	sta	$18                     ; 0x2018 <printf+0x8d9>
    19d6: a5 1e        	lda	$1e                     ; 0x201e <printf+0x8df>
    19d8: 65 19        	adc	$19                     ; 0x2019 <printf+0x8da>
    19da: 85 19        	sta	$19                     ; 0x2019 <printf+0x8da>
    19dc: a5 18        	lda	$18                     ; 0x2018 <printf+0x8d9>
    19de: 18           	clc
    19df: 65 17        	adc	$17                     ; 0x2017 <printf+0x8d8>
    19e1: 85 17        	sta	$17                     ; 0x2017 <printf+0x8d8>
    19e3: a5 19        	lda	$19                     ; 0x2019 <printf+0x8da>
    19e5: 65 16        	adc	$16                     ; 0x2016 <printf+0x8d7>
    19e7: 85 16        	sta	$16                     ; 0x2016 <printf+0x8d7>
    19e9: 18           	clc
    19ea: a5 17        	lda	$17                     ; 0x2017 <printf+0x8d8>
    19ec: 69 d0        	adc	#$d0
    19ee: 85 18        	sta	$18                     ; 0x2018 <printf+0x8d9>
    19f0: a5 16        	lda	$16                     ; 0x2016 <printf+0x8d7>
    19f2: 69 ff        	adc	#$ff
    19f4: 85 19        	sta	$19                     ; 0x2019 <printf+0x8da>
    19f6: e8           	inx
    19f7: d0 02        	bne	$19fb <printf+0x2bc>
    19f9: e6 1a        	inc	$1a                     ; 0x201a <printf+0x8db>
    19fb: a5 12        	lda	$12                     ; 0x2012 <printf+0x8d3>
    19fd: 18           	clc
    19fe: 65 15        	adc	$15                     ; 0x2015 <printf+0x8d6>
    1a00: 85 1d        	sta	$1d                     ; 0x201d <printf+0x8de>
    1a02: a5 13        	lda	$13                     ; 0x2013 <printf+0x8d4>
    1a04: 65 14        	adc	$14                     ; 0x2014 <printf+0x8d5>
    1a06: a4 1d        	ldy	$1d                     ; 0x201d <printf+0x8de>
    1a08: 84 16        	sty	$16                     ; 0x2016 <printf+0x8d7>
    1a0a: 7a           	ply
    1a0b: 85 17        	sta	$17                     ; 0x2017 <printf+0x8d8>
    1a0d: b1 16        	lda	($16),y                 ; 0x2016 <printf+0x8d7>
    1a0f: 85 17        	sta	$17                     ; 0x2017 <printf+0x8d8>
    1a11: 18           	clc
    1a12: 69 d0        	adc	#$d0
    1a14: c9 0a        	cmp	#$a
    1a16: 64 16        	stz	$16                     ; 0x2016 <printf+0x8d7>
    1a18: b0 03        	bcs	$1a1d <printf+0x2de>
    1a1a: 4c b7 19     	jmp	$19b7 <printf+0x278>
    1a1d: a5 12        	lda	$12                     ; 0x2012 <printf+0x8d3>
    1a1f: 18           	clc
    1a20: 65 15        	adc	$15                     ; 0x2015 <printf+0x8d6>
    1a22: 85 12        	sta	$12                     ; 0x2012 <printf+0x8d3>
    1a24: a5 13        	lda	$13                     ; 0x2013 <printf+0x8d4>
    1a26: 65 14        	adc	$14                     ; 0x2014 <printf+0x8d5>
    1a28: 85 13        	sta	$13                     ; 0x2013 <printf+0x8d4>
    1a2a: e6 12        	inc	$12                     ; 0x2012 <printf+0x8d3>
    1a2c: d0 02        	bne	$1a30 <printf+0x2f1>
    1a2e: e6 13        	inc	$13                     ; 0x2013 <printf+0x8d4>
    1a30: a6 18        	ldx	$18                     ; 0x2018 <printf+0x8d9>
    1a32: 86 c2        	stx	$c2                     ; 0x20c2 <printf+0x983>
    1a34: a6 19        	ldx	$19                     ; 0x2019 <printf+0x8da>
    1a36: 86 c3        	stx	$c3                     ; 0x20c3 <printf+0x984>
    1a38: a0 01        	ldy	#$1
    1a3a: 80 0e        	bra	$1a4a <printf+0x30b>
    1a3c: e6 12        	inc	$12                     ; 0x2012 <printf+0x8d3>
    1a3e: d0 02        	bne	$1a42 <printf+0x303>
    1a40: e6 13        	inc	$13                     ; 0x2013 <printf+0x8d4>
    1a42: 64 18        	stz	$18                     ; 0x2018 <printf+0x8d9>
    1a44: 64 c2        	stz	$c2                     ; 0x20c2 <printf+0x983>
    1a46: 64 c3        	stz	$c3                     ; 0x20c3 <printf+0x984>
    1a48: 64 19        	stz	$19                     ; 0x2019 <printf+0x8da>
    1a4a: a5 86        	lda	$86                     ; 0x2086 <printf+0x947>
    1a4c: 29 ef        	and	#$ef
    1a4e: 85 86        	sta	$86                     ; 0x2086 <printf+0x947>
    1a50: 85 b6        	sta	$b6                     ; 0x20b6 <printf+0x977>
    1a52: a2 00        	ldx	#$0
    1a54: 86 b7        	stx	$b7                     ; 0x20b7 <printf+0x978>
    1a56: b2 12        	lda	($12)                   ; 0x2012 <printf+0x8d3>
    1a58: a6 19        	ldx	$19                     ; 0x2019 <printf+0x8da>
    1a5a: 86 15        	stx	$15                     ; 0x2015 <printf+0x8d6>
    1a5c: a6 12        	ldx	$12                     ; 0x2012 <printf+0x8d3>
    1a5e: 86 87        	stx	$87                     ; 0x2087 <printf+0x948>
    1a60: a6 13        	ldx	$13                     ; 0x2013 <printf+0x8d4>
    1a62: 86 88        	stx	$88                     ; 0x2088 <printf+0x949>
    1a64: e6 87        	inc	$87                     ; 0x2087 <printf+0x948>
    1a66: d0 02        	bne	$1a6a <printf+0x32b>
    1a68: e6 88        	inc	$88                     ; 0x2088 <printf+0x949>
    1a6a: 85 14        	sta	$14                     ; 0x2014 <printf+0x8d5>
    1a6c: 38           	sec
    1a6d: e9 6c        	sbc	#$6c
    1a6f: 50 02        	bvc	$1a73 <printf+0x334>
    1a71: 49 80        	eor	#$80
    1a73: aa           	tax
    1a74: 10 1d        	bpl	$1a93 <printf+0x354>
    1a76: a5 14        	lda	$14                     ; 0x2014 <printf+0x8d5>
    1a78: c9 4c        	cmp	#$4c
    1a7a: f0 27        	beq	$1aa3 <printf+0x364>
    1a7c: c9 68        	cmp	#$68
    1a7e: d0 03        	bne	$1a83 <printf+0x344>
    1a80: 4c 0a 1b     	jmp	$1b0a <printf+0x3cb>
    1a83: a2 08        	ldx	#$8
    1a85: c9 6a        	cmp	#$6a
    1a87: d0 2e        	bne	$1ab7 <printf+0x378>
    1a89: a5 87        	lda	$87                     ; 0x2087 <printf+0x948>
    1a8b: 85 12        	sta	$12                     ; 0x2012 <printf+0x8d3>
    1a8d: a5 88        	lda	$88                     ; 0x2088 <printf+0x949>
    1a8f: 85 13        	sta	$13                     ; 0x2013 <printf+0x8d4>
    1a91: 80 43        	bra	$1ad6 <printf+0x397>
    1a93: a6 14        	ldx	$14                     ; 0x2014 <printf+0x8d5>
    1a95: e0 6c        	cpx	#$6c
    1a97: f0 23        	beq	$1abc <printf+0x37d>
    1a99: e0 74        	cpx	#$74
    1a9b: f0 12        	beq	$1aaf <printf+0x370>
    1a9d: e0 7a        	cpx	#$7a
    1a9f: f0 0e        	beq	$1aaf <printf+0x370>
    1aa1: 80 14        	bra	$1ab7 <printf+0x378>
    1aa3: a5 86        	lda	$86                     ; 0x2086 <printf+0x947>
    1aa5: 09 40        	ora	#$40
    1aa7: 85 86        	sta	$86                     ; 0x2086 <printf+0x947>
    1aa9: 85 b6        	sta	$b6                     ; 0x20b6 <printf+0x977>
    1aab: a2 00        	ldx	#$0
    1aad: 86 b7        	stx	$b7                     ; 0x20b7 <printf+0x978>
    1aaf: a6 87        	ldx	$87                     ; 0x2087 <printf+0x948>
    1ab1: 86 12        	stx	$12                     ; 0x2012 <printf+0x8d3>
    1ab3: a6 88        	ldx	$88                     ; 0x2088 <printf+0x949>
    1ab5: 86 13        	stx	$13                     ; 0x2013 <printf+0x8d4>
    1ab7: a2 02        	ldx	#$2
    1ab9: 8a           	txa
    1aba: 80 1c        	bra	$1ad8 <printf+0x399>
    1abc: b1 12        	lda	($12),y                 ; 0x2012 <printf+0x8d3>
    1abe: a2 04        	ldx	#$4
    1ac0: c9 6c        	cmp	#$6c
    1ac2: f0 03        	beq	$1ac7 <printf+0x388>
    1ac4: 4c 09 1e     	jmp	$1e09 <printf+0x6ca>
    1ac7: a5 12        	lda	$12                     ; 0x2012 <printf+0x8d3>
    1ac9: 18           	clc
    1aca: 69 02        	adc	#$2
    1acc: 85 12        	sta	$12                     ; 0x2012 <printf+0x8d3>
    1ace: a5 13        	lda	$13                     ; 0x2013 <printf+0x8d4>
    1ad0: 69 00        	adc	#$0
    1ad2: 85 13        	sta	$13                     ; 0x2013 <printf+0x8d4>
    1ad4: a2 08        	ldx	#$8
    1ad6: a9 08        	lda	#$8
    1ad8: 85 cc        	sta	$cc                     ; 0x20cc <printf+0x98d>
    1ada: b2 12        	lda	($12)                   ; 0x2012 <printf+0x8d3>
    1adc: 5a           	phy
    1add: a4 12        	ldy	$12                     ; 0x2012 <printf+0x8d3>
    1adf: 84 87        	sty	$87                     ; 0x2087 <printf+0x948>
    1ae1: a4 13        	ldy	$13                     ; 0x2013 <printf+0x8d4>
    1ae3: 84 88        	sty	$88                     ; 0x2088 <printf+0x949>
    1ae5: 7a           	ply
    1ae6: 86 89        	stx	$89                     ; 0x2089 <printf+0x94a>
    1ae8: aa           	tax
    1ae9: 38           	sec
    1aea: e9 63        	sbc	#$63
    1aec: c9 16        	cmp	#$16
    1aee: b0 39        	bcs	$1b29 <printf+0x3ea>
    1af0: 0a           	asl
    1af1: aa           	tax
    1af2: 7c 5e 23     	jmp	($235e,x)               ; 0x235e <__set_v+0x17>
    1af5: a6 15        	ldx	$15                     ; 0x2015 <printf+0x8d6>
    1af7: 86 ca        	stx	$ca                     ; 0x20ca <printf+0x98b>
    1af9: a6 18        	ldx	$18                     ; 0x2018 <printf+0x8d9>
    1afb: 86 cf        	stx	$cf                     ; 0x20cf <printf+0x990>
    1afd: a0 0a        	ldy	#$a
    1aff: a2 0a        	ldx	#$a
    1b01: 86 cb        	stx	$cb                     ; 0x20cb <printf+0x98c>
    1b03: 84 b5        	sty	$b5                     ; 0x20b5 <printf+0x976>
    1b05: 64 90        	stz	$90                     ; 0x2090 <printf+0x951>
    1b07: 4c 29 1c     	jmp	$1c29 <printf+0x4ea>
    1b0a: b1 12        	lda	($12),y                 ; 0x2012 <printf+0x8d3>
    1b0c: a2 02        	ldx	#$2
    1b0e: c9 68        	cmp	#$68
    1b10: f0 03        	beq	$1b15 <printf+0x3d6>
    1b12: 4c 0f 1e     	jmp	$1e0f <printf+0x6d0>
    1b15: a5 12        	lda	$12                     ; 0x2012 <printf+0x8d3>
    1b17: 18           	clc
    1b18: 69 02        	adc	#$2
    1b1a: 85 12        	sta	$12                     ; 0x2012 <printf+0x8d3>
    1b1c: a5 13        	lda	$13                     ; 0x2013 <printf+0x8d4>
    1b1e: 69 00        	adc	#$0
    1b20: 85 13        	sta	$13                     ; 0x2013 <printf+0x8d4>
    1b22: a2 01        	ldx	#$1
    1b24: 86 cc        	stx	$cc                     ; 0x20cc <printf+0x98d>
    1b26: e8           	inx
    1b27: 80 b1        	bra	$1ada <printf+0x39b>
    1b29: e0 58        	cpx	#$58
    1b2b: f0 03        	beq	$1b30 <printf+0x3f1>
    1b2d: 4c aa 22     	jmp	$22aa <printf+0xb6b>
    1b30: a6 15        	ldx	$15                     ; 0x2015 <printf+0x8d6>
    1b32: 86 ca        	stx	$ca                     ; 0x20ca <printf+0x98b>
    1b34: a6 18        	ldx	$18                     ; 0x2018 <printf+0x8d9>
    1b36: 86 cf        	stx	$cf                     ; 0x20cf <printf+0x990>
    1b38: a2 10        	ldx	#$10
    1b3a: 86 b5        	stx	$b5                     ; 0x20b5 <printf+0x976>
    1b3c: a9 00        	lda	#$0
    1b3e: 09 01        	ora	#$1
    1b40: a6 86        	ldx	$86                     ; 0x2086 <printf+0x947>
    1b42: 80 29        	bra	$1b6d <printf+0x42e>
    1b44: a6 15        	ldx	$15                     ; 0x2015 <printf+0x8d6>
    1b46: 86 ca        	stx	$ca                     ; 0x20ca <printf+0x98b>
    1b48: a6 18        	ldx	$18                     ; 0x2018 <printf+0x8d9>
    1b4a: 86 cf        	stx	$cf                     ; 0x20cf <printf+0x990>
    1b4c: a2 10        	ldx	#$10
    1b4e: 86 b5        	stx	$b5                     ; 0x20b5 <printf+0x976>
    1b50: a5 86        	lda	$86                     ; 0x2086 <printf+0x947>
    1b52: 09 84        	ora	#$84
    1b54: 80 10        	bra	$1b66 <printf+0x427>
    1b56: a6 15        	ldx	$15                     ; 0x2015 <printf+0x8d6>
    1b58: 86 ca        	stx	$ca                     ; 0x20ca <printf+0x98b>
    1b5a: a6 18        	ldx	$18                     ; 0x2018 <printf+0x8d9>
    1b5c: 86 cf        	stx	$cf                     ; 0x20cf <printf+0x990>
    1b5e: a2 10        	ldx	#$10
    1b60: 86 b5        	stx	$b5                     ; 0x20b5 <printf+0x976>
    1b62: a5 86        	lda	$86                     ; 0x2086 <printf+0x947>
    1b64: 09 80        	ora	#$80
    1b66: aa           	tax
    1b67: a9 00        	lda	#$0
    1b69: 09 01        	ora	#$1
    1b6b: 86 86        	stx	$86                     ; 0x2086 <printf+0x947>
    1b6d: 86 b6        	stx	$b6                     ; 0x20b6 <printf+0x977>
    1b6f: 85 90        	sta	$90                     ; 0x2090 <printf+0x951>
    1b71: 85 b7        	sta	$b7                     ; 0x20b7 <printf+0x978>
    1b73: a2 10        	ldx	#$10
    1b75: 86 cb        	stx	$cb                     ; 0x20cb <printf+0x98c>
    1b77: 4c 29 1c     	jmp	$1c29 <printf+0x4ea>
    1b7a: a5 c6        	lda	$c6                     ; 0x20c6 <printf+0x987>
    1b7c: a6 c7        	ldx	$c7                     ; 0x20c7 <printf+0x988>
    1b7e: 85 12        	sta	$12                     ; 0x2012 <printf+0x8d3>
    1b80: 86 13        	stx	$13                     ; 0x2013 <printf+0x8d4>
    1b82: 18           	clc
    1b83: 69 02        	adc	#$2
    1b85: 85 14        	sta	$14                     ; 0x2014 <printf+0x8d5>
    1b87: 8a           	txa
    1b88: 69 00        	adc	#$0
    1b8a: a6 14        	ldx	$14                     ; 0x2014 <printf+0x8d5>
    1b8c: 86 c6        	stx	$c6                     ; 0x20c6 <printf+0x987>
    1b8e: 85 c7        	sta	$c7                     ; 0x20c7 <printf+0x988>
    1b90: b2 12        	lda	($12)                   ; 0x2012 <printf+0x8d3>
    1b92: aa           	tax
    1b93: b1 12        	lda	($12),y                 ; 0x2012 <printf+0x8d3>
    1b95: 86 12        	stx	$12                     ; 0x2012 <printf+0x8d3>
    1b97: 85 13        	sta	$13                     ; 0x2013 <printf+0x8d4>
    1b99: a5 ba        	lda	$ba                     ; 0x20ba <printf+0x97b>
    1b9b: a6 bb        	ldx	$bb                     ; 0x20bb <printf+0x97c>
    1b9d: 92 12        	sta	($12)                   ; 0x2012 <printf+0x8d3>
    1b9f: 8a           	txa
    1ba0: 91 12        	sta	($12),y                 ; 0x2012 <printf+0x8d3>
    1ba2: 4c 02 1c     	jmp	$1c02 <printf+0x4c3>
    1ba5: a5 c6        	lda	$c6                     ; 0x20c6 <printf+0x987>
    1ba7: a6 c7        	ldx	$c7                     ; 0x20c7 <printf+0x988>
    1ba9: 85 12        	sta	$12                     ; 0x2012 <printf+0x8d3>
    1bab: 86 13        	stx	$13                     ; 0x2013 <printf+0x8d4>
    1bad: 18           	clc
    1bae: 69 02        	adc	#$2
    1bb0: 85 14        	sta	$14                     ; 0x2014 <printf+0x8d5>
    1bb2: 8a           	txa
    1bb3: 69 00        	adc	#$0
    1bb5: a6 14        	ldx	$14                     ; 0x2014 <printf+0x8d5>
    1bb7: 86 c6        	stx	$c6                     ; 0x20c6 <printf+0x987>
    1bb9: 85 c7        	sta	$c7                     ; 0x20c7 <printf+0x988>
    1bbb: b2 12        	lda	($12)                   ; 0x2012 <printf+0x8d3>
    1bbd: aa           	tax
    1bbe: b1 12        	lda	($12),y                 ; 0x2012 <printf+0x8d3>
    1bc0: 86 12        	stx	$12                     ; 0x2012 <printf+0x8d3>
    1bc2: 85 13        	sta	$13                     ; 0x2013 <printf+0x8d4>
    1bc4: 80 2f        	bra	$1bf5 <printf+0x4b6>
    1bc6: a6 15        	ldx	$15                     ; 0x2015 <printf+0x8d6>
    1bc8: 86 ca        	stx	$ca                     ; 0x20ca <printf+0x98b>
    1bca: a6 18        	ldx	$18                     ; 0x2018 <printf+0x8d9>
    1bcc: 86 cf        	stx	$cf                     ; 0x20cf <printf+0x990>
    1bce: a0 08        	ldy	#$8
    1bd0: a2 08        	ldx	#$8
    1bd2: 80 45        	bra	$1c19 <printf+0x4da>
    1bd4: a5 c6        	lda	$c6                     ; 0x20c6 <printf+0x987>
    1bd6: a6 c7        	ldx	$c7                     ; 0x20c7 <printf+0x988>
    1bd8: 85 12        	sta	$12                     ; 0x2012 <printf+0x8d3>
    1bda: 86 13        	stx	$13                     ; 0x2013 <printf+0x8d4>
    1bdc: 18           	clc
    1bdd: 69 02        	adc	#$2
    1bdf: a8           	tay
    1be0: 8a           	txa
    1be1: 69 00        	adc	#$0
    1be3: 84 c6        	sty	$c6                     ; 0x20c6 <printf+0x987>
    1be5: 85 c7        	sta	$c7                     ; 0x20c7 <printf+0x988>
    1be7: b2 12        	lda	($12)                   ; 0x2012 <printf+0x8d3>
    1be9: 85 a8        	sta	$a8                     ; 0x20a8 <printf+0x969>
    1beb: 64 a9        	stz	$a9                     ; 0x20a9 <printf+0x96a>
    1bed: a2 a8        	ldx	#$a8
    1bef: 86 12        	stx	$12                     ; 0x2012 <printf+0x8d3>
    1bf1: a2 00        	ldx	#$0
    1bf3: 86 13        	stx	$13                     ; 0x2013 <printf+0x8d4>
    1bf5: a2 b5        	ldx	#$b5
    1bf7: 86 14        	stx	$14                     ; 0x2014 <printf+0x8d5>
    1bf9: a2 00        	ldx	#$0
    1bfb: 86 15        	stx	$15                     ; 0x2015 <printf+0x8d6>
    1bfd: 20 32 16     	jsr	$1632 <_ZN12_GLOBAL__N_112print_stringEPKcP6Status>
    1c00: a0 01        	ldy	#$1
    1c02: a2 00        	ldx	#$0
    1c04: 86 89        	stx	$89                     ; 0x2089 <printf+0x94a>
    1c06: a2 00        	ldx	#$0
    1c08: 86 8a        	stx	$8a                     ; 0x208a <printf+0x94b>
    1c0a: 4c 92 22     	jmp	$2292 <printf+0xb53>
    1c0d: a6 15        	ldx	$15                     ; 0x2015 <printf+0x8d6>
    1c0f: 86 ca        	stx	$ca                     ; 0x20ca <printf+0x98b>
    1c11: a6 18        	ldx	$18                     ; 0x2018 <printf+0x8d9>
    1c13: 86 cf        	stx	$cf                     ; 0x20cf <printf+0x990>
    1c15: a0 0a        	ldy	#$a
    1c17: a2 0a        	ldx	#$a
    1c19: 86 cb        	stx	$cb                     ; 0x20cb <printf+0x98c>
    1c1b: 84 b5        	sty	$b5                     ; 0x20b5 <printf+0x976>
    1c1d: a9 00        	lda	#$0
    1c1f: 09 01        	ora	#$1
    1c21: a6 86        	ldx	$86                     ; 0x2086 <printf+0x947>
    1c23: 86 b6        	stx	$b6                     ; 0x20b6 <printf+0x977>
    1c25: 85 90        	sta	$90                     ; 0x2090 <printf+0x951>
    1c27: 85 b7        	sta	$b7                     ; 0x20b7 <printf+0x978>
    1c29: a5 cc        	lda	$cc                     ; 0x20cc <printf+0x98d>
    1c2b: 85 aa        	sta	$aa                     ; 0x20aa <printf+0x96b>
    1c2d: a4 c6        	ldy	$c6                     ; 0x20c6 <printf+0x987>
    1c2f: a6 c7        	ldx	$c7                     ; 0x20c7 <printf+0x988>
    1c31: 86 8e        	stx	$8e                     ; 0x208e <printf+0x94f>
    1c33: 84 14        	sty	$14                     ; 0x2014 <printf+0x8d5>
    1c35: 84 85        	sty	$85                     ; 0x2085 <printf+0x946>
    1c37: 86 15        	stx	$15                     ; 0x2015 <printf+0x8d6>
    1c39: a6 cd        	ldx	$cd                     ; 0x20cd <printf+0x98e>
    1c3b: 86 12        	stx	$12                     ; 0x2012 <printf+0x8d3>
    1c3d: a6 ce        	ldx	$ce                     ; 0x20ce <printf+0x98f>
    1c3f: 86 13        	stx	$13                     ; 0x2013 <printf+0x8d4>
    1c41: a2 00        	ldx	#$0
    1c43: 85 8a        	sta	$8a                     ; 0x208a <printf+0x94b>
    1c45: 20 fb 22     	jsr	$22fb <memcpy>
    1c48: 18           	clc
    1c49: a5 85        	lda	$85                     ; 0x2085 <printf+0x946>
    1c4b: 65 89        	adc	$89                     ; 0x2089 <printf+0x94a>
    1c4d: aa           	tax
    1c4e: a5 8e        	lda	$8e                     ; 0x208e <printf+0x94f>
    1c50: 69 00        	adc	#$0
    1c52: 86 c6        	stx	$c6                     ; 0x20c6 <printf+0x987>
    1c54: 85 c7        	sta	$c7                     ; 0x20c7 <printf+0x988>
    1c56: a5 90        	lda	$90                     ; 0x2090 <printf+0x951>
    1c58: 29 01        	and	#$1
    1c5a: b8           	clv
    1c5b: f0 03        	beq	$1c60 <printf+0x521>
    1c5d: 4c b4 1c     	jmp	$1cb4 <printf+0x575>
    1c60: a6 8a        	ldx	$8a                     ; 0x208a <printf+0x94b>
    1c62: b5 aa        	lda	$aa,x                   ; 0x20aa <printf+0x96b>
    1c64: aa           	tax
    1c65: a0 01        	ldy	#$1
    1c67: a5 8d        	lda	$8d                     ; 0x208d <printf+0x94e>
    1c69: 85 1a        	sta	$1a                     ; 0x201a <printf+0x8db>
    1c6b: a5 cf        	lda	$cf                     ; 0x20cf <printf+0x990>
    1c6d: 85 8d        	sta	$8d                     ; 0x208d <printf+0x94e>
    1c6f: a9 00        	lda	#$0
    1c71: 85 89        	sta	$89                     ; 0x2089 <printf+0x94a>
    1c73: a9 00        	lda	#$0
    1c75: 85 8a        	sta	$8a                     ; 0x208a <printf+0x94b>
    1c77: a5 ca        	lda	$ca                     ; 0x20ca <printf+0x98b>
    1c79: 85 8e        	sta	$8e                     ; 0x208e <printf+0x94f>
    1c7b: 8a           	txa
    1c7c: 10 4c        	bpl	$1cca <printf+0x58b>
    1c7e: a2 00        	ldx	#$0
    1c80: 64 12        	stz	$12                     ; 0x2012 <printf+0x8d3>
    1c82: a9 00        	lda	#$0
    1c84: 38           	sec
    1c85: f5 ab        	sbc	$ab,x                   ; 0x20ab <printf+0x96c>
    1c87: a0 00        	ldy	#$0
    1c89: b0 02        	bcs	$1c8d <printf+0x54e>
    1c8b: a0 01        	ldy	#$1
    1c8d: 38           	sec
    1c8e: e5 12        	sbc	$12                     ; 0x2012 <printf+0x8d3>
    1c90: 85 13        	sta	$13                     ; 0x2013 <printf+0x8d4>
    1c92: 64 12        	stz	$12                     ; 0x2012 <printf+0x8d3>
    1c94: b0 04        	bcs	$1c9a <printf+0x55b>
    1c96: a9 01        	lda	#$1
    1c98: 85 12        	sta	$12                     ; 0x2012 <printf+0x8d3>
    1c9a: 98           	tya
    1c9b: 05 12        	ora	$12                     ; 0x2012 <printf+0x8d3>
    1c9d: 85 12        	sta	$12                     ; 0x2012 <printf+0x8d3>
    1c9f: a5 13        	lda	$13                     ; 0x2013 <printf+0x8d4>
    1ca1: 9d ab 00     	sta	$ab,x                   ; 0xab <__zp_bss_size+0x58>
    1ca4: e8           	inx
    1ca5: 86 13        	stx	$13                     ; 0x2013 <printf+0x8d4>
    1ca7: a4 cc        	ldy	$cc                     ; 0x20cc <printf+0x98d>
    1ca9: c4 13        	cpy	$13                     ; 0x2013 <printf+0x8d4>
    1cab: d0 d5        	bne	$1c82 <printf+0x543>
    1cad: 2c 47 23     	bit	$2347                   ; 0x2347 <__set_v>
    1cb0: a0 01        	ldy	#$1
    1cb2: 80 16        	bra	$1cca <printf+0x58b>
    1cb4: a0 01        	ldy	#$1
    1cb6: a6 8d        	ldx	$8d                     ; 0x208d <printf+0x94e>
    1cb8: 86 1a        	stx	$1a                     ; 0x201a <printf+0x8db>
    1cba: a6 cf        	ldx	$cf                     ; 0x20cf <printf+0x990>
    1cbc: 86 8d        	stx	$8d                     ; 0x208d <printf+0x94e>
    1cbe: a2 00        	ldx	#$0
    1cc0: 86 89        	stx	$89                     ; 0x2089 <printf+0x94a>
    1cc2: a2 00        	ldx	#$0
    1cc4: 86 8a        	stx	$8a                     ; 0x208a <printf+0x94b>
    1cc6: a6 ca        	ldx	$ca                     ; 0x20ca <printf+0x98b>
    1cc8: 86 8e        	stx	$8e                     ; 0x208e <printf+0x94f>
    1cca: a2 01        	ldx	#$1
    1ccc: 70 02        	bvs	$1cd0 <printf+0x591>
    1cce: a2 00        	ldx	#$0
    1cd0: 86 16        	stx	$16                     ; 0x2016 <printf+0x8d7>
    1cd2: a5 cc        	lda	$cc                     ; 0x20cc <printf+0x98d>
    1cd4: 0a           	asl
    1cd5: 0a           	asl
    1cd6: 0a           	asl
    1cd7: 85 12        	sta	$12                     ; 0x2012 <printf+0x8d3>
    1cd9: a2 00        	ldx	#$0
    1cdb: 8a           	txa
    1cdc: 4c 90 1d     	jmp	$1d90 <printf+0x651>
    1cdf: da           	phx
    1ce0: 7a           	ply
    1ce1: c8           	iny
    1ce2: 9d 93 00     	sta	$93,x                   ; 0x93 <__zp_bss_size+0x40>
    1ce5: 5a           	phy
    1ce6: fa           	plx
    1ce7: c4 85        	cpy	$85                     ; 0x2085 <printf+0x946>
    1ce9: f0 30        	beq	$1d1b <printf+0x5dc>
    1ceb: b5 93        	lda	$93,x                   ; 0x2093 <printf+0x954>
    1ced: 0a           	asl
    1cee: a4 ca        	ldy	$ca                     ; 0x20ca <printf+0x98b>
    1cf0: f0 02        	beq	$1cf4 <printf+0x5b5>
    1cf2: 09 01        	ora	#$1
    1cf4: a4 cb        	ldy	$cb                     ; 0x20cb <printf+0x98c>
    1cf6: 84 14        	sty	$14                     ; 0x2014 <printf+0x8d5>
    1cf8: c5 14        	cmp	$14                     ; 0x2014 <printf+0x8d5>
    1cfa: a0 01        	ldy	#$1
    1cfc: b0 02        	bcs	$1d00 <printf+0x5c1>
    1cfe: a0 00        	ldy	#$0
    1d00: 84 ca        	sty	$ca                     ; 0x20ca <printf+0x98b>
    1d02: 90 db        	bcc	$1cdf <printf+0x5a0>
    1d04: 38           	sec
    1d05: e5 14        	sbc	$14                     ; 0x2014 <printf+0x8d5>
    1d07: 9d 93 00     	sta	$93,x                   ; 0x93 <__zp_bss_size+0x40>
    1d0a: e8           	inx
    1d0b: e4 85        	cpx	$85                     ; 0x2085 <printf+0x946>
    1d0d: d0 dc        	bne	$1ceb <printf+0x5ac>
    1d0f: a4 85        	ldy	$85                     ; 0x2085 <printf+0x946>
    1d11: a6 85        	ldx	$85                     ; 0x2085 <printf+0x946>
    1d13: e8           	inx
    1d14: a9 01        	lda	#$1
    1d16: 99 93 00     	sta	$93,y                   ; 0x93 <__zp_bss_size+0x40>
    1d19: 86 85        	stx	$85                     ; 0x2085 <printf+0x946>
    1d1b: a6 cc        	ldx	$cc                     ; 0x20cc <printf+0x98d>
    1d1d: b5 aa        	lda	$aa,x                   ; 0x20aa <printf+0x96b>
    1d1f: aa           	tax
    1d20: 30 0f        	bmi	$1d31 <printf+0x5f2>
    1d22: a0 01        	ldy	#$1
    1d24: 80 42        	bra	$1d68 <printf+0x629>
    1d26: a6 cc        	ldx	$cc                     ; 0x20cc <printf+0x98d>
    1d28: b5 aa        	lda	$aa,x                   ; 0x20aa <printf+0x96b>
    1d2a: aa           	tax
    1d2b: 64 85        	stz	$85                     ; 0x2085 <printf+0x946>
    1d2d: 10 39        	bpl	$1d68 <printf+0x629>
    1d2f: 80 2a        	bra	$1d5b <printf+0x61c>
    1d31: a5 85        	lda	$85                     ; 0x2085 <printf+0x946>
    1d33: f0 24        	beq	$1d59 <printf+0x61a>
    1d35: a2 00        	ldx	#$0
    1d37: a4 cb        	ldy	$cb                     ; 0x20cb <printf+0x98c>
    1d39: 84 14        	sty	$14                     ; 0x2014 <printf+0x8d5>
    1d3b: b5 93        	lda	$93,x                   ; 0x2093 <printf+0x954>
    1d3d: 1a           	inc
    1d3e: f6 93        	inc	$93,x                   ; 0x2093 <printf+0x954>
    1d40: c5 14        	cmp	$14                     ; 0x2014 <printf+0x8d5>
    1d42: 90 de        	bcc	$1d22 <printf+0x5e3>
    1d44: a4 14        	ldy	$14                     ; 0x2014 <printf+0x8d5>
    1d46: 84 13        	sty	$13                     ; 0x2013 <printf+0x8d4>
    1d48: 38           	sec
    1d49: e5 13        	sbc	$13                     ; 0x2013 <printf+0x8d4>
    1d4b: 9d 93 00     	sta	$93,x                   ; 0x93 <__zp_bss_size+0x40>
    1d4e: e8           	inx
    1d4f: 86 13        	stx	$13                     ; 0x2013 <printf+0x8d4>
    1d51: a4 85        	ldy	$85                     ; 0x2085 <printf+0x946>
    1d53: c4 13        	cpy	$13                     ; 0x2013 <printf+0x8d4>
    1d55: d0 e4        	bne	$1d3b <printf+0x5fc>
    1d57: 80 02        	bra	$1d5b <printf+0x61c>
    1d59: 64 85        	stz	$85                     ; 0x2085 <printf+0x946>
    1d5b: a4 85        	ldy	$85                     ; 0x2085 <printf+0x946>
    1d5d: a6 85        	ldx	$85                     ; 0x2085 <printf+0x946>
    1d5f: e8           	inx
    1d60: a9 01        	lda	#$1
    1d62: 99 93 00     	sta	$93,y                   ; 0x93 <__zp_bss_size+0x40>
    1d65: a8           	tay
    1d66: 86 85        	stx	$85                     ; 0x2085 <printf+0x946>
    1d68: a2 01        	ldx	#$1
    1d6a: 64 13        	stz	$13                     ; 0x2013 <printf+0x8d4>
    1d6c: a5 cc        	lda	$cc                     ; 0x20cc <printf+0x98d>
    1d6e: 85 14        	sta	$14                     ; 0x2014 <printf+0x8d5>
    1d70: b5 aa        	lda	$aa,x                   ; 0x20aa <printf+0x96b>
    1d72: 0a           	asl
    1d73: 64 15        	stz	$15                     ; 0x2015 <printf+0x8d6>
    1d75: 26 15        	rol	$15                     ; 0x2015 <printf+0x8d6>
    1d77: 05 13        	ora	$13                     ; 0x2013 <printf+0x8d4>
    1d79: 9d aa 00     	sta	$aa,x                   ; 0xaa <__zp_bss_size+0x57>
    1d7c: e8           	inx
    1d7d: c6 14        	dec	$14                     ; 0x2014 <printf+0x8d5>
    1d7f: a5 15        	lda	$15                     ; 0x2015 <printf+0x8d6>
    1d81: 85 13        	sta	$13                     ; 0x2013 <printf+0x8d4>
    1d83: a5 14        	lda	$14                     ; 0x2014 <printf+0x8d5>
    1d85: d0 e9        	bne	$1d70 <printf+0x631>
    1d87: a5 17        	lda	$17                     ; 0x2017 <printf+0x8d8>
    1d89: 1a           	inc
    1d8a: c5 12        	cmp	$12                     ; 0x2012 <printf+0x8d3>
    1d8c: a6 85        	ldx	$85                     ; 0x2085 <printf+0x946>
    1d8e: b0 13        	bcs	$1da3 <printf+0x664>
    1d90: 85 17        	sta	$17                     ; 0x2017 <printf+0x8d8>
    1d92: 8a           	txa
    1d93: d0 03        	bne	$1d98 <printf+0x659>
    1d95: 4c 26 1d     	jmp	$1d26 <printf+0x5e7>
    1d98: 86 85        	stx	$85                     ; 0x2085 <printf+0x946>
    1d9a: a2 00        	ldx	#$0
    1d9c: 86 ca        	stx	$ca                     ; 0x20ca <printf+0x98b>
    1d9e: a2 00        	ldx	#$0
    1da0: 4c eb 1c     	jmp	$1ceb <printf+0x5ac>
    1da3: a5 86        	lda	$86                     ; 0x2086 <printf+0x947>
    1da5: e6 8e        	inc	$8e                     ; 0x208e <printf+0x94f>
    1da7: c6 8e        	dec	$8e                     ; 0x208e <printf+0x94f>
    1da9: 10 08        	bpl	$1db3 <printf+0x674>
    1dab: a2 01        	ldx	#$1
    1dad: 64 8e        	stz	$8e                     ; 0x208e <printf+0x94f>
    1daf: 86 8d        	stx	$8d                     ; 0x208d <printf+0x94e>
    1db1: a6 85        	ldx	$85                     ; 0x2085 <printf+0x946>
    1db3: 29 04        	and	#$4
    1db5: f0 2b        	beq	$1de2 <printf+0x6a3>
    1db7: a5 cb        	lda	$cb                     ; 0x20cb <printf+0x98c>
    1db9: c9 10        	cmp	#$10
    1dbb: f0 14        	beq	$1dd1 <printf+0x692>
    1dbd: c9 08        	cmp	#$8
    1dbf: d0 21        	bne	$1de2 <printf+0x6a3>
    1dc1: a2 00        	ldx	#$0
    1dc3: e4 8e        	cpx	$8e                     ; 0x208e <printf+0x94f>
    1dc5: f0 03        	beq	$1dca <printf+0x68b>
    1dc7: 4c b7 22     	jmp	$22b7 <printf+0xb78>
    1dca: a6 85        	ldx	$85                     ; 0x2085 <printf+0x946>
    1dcc: e4 8d        	cpx	$8d                     ; 0x208d <printf+0x94e>
    1dce: 4c b9 22     	jmp	$22b9 <printf+0xb7a>
    1dd1: 8a           	txa
    1dd2: f0 0e        	beq	$1de2 <printf+0x6a3>
    1dd4: a5 86        	lda	$86                     ; 0x2086 <printf+0x947>
    1dd6: 29 80        	and	#$80
    1dd8: d0 03        	bne	$1ddd <printf+0x69e>
    1dda: 4c d2 22     	jmp	$22d2 <printf+0xb93>
    1ddd: a2 78        	ldx	#$78
    1ddf: 4c d4 22     	jmp	$22d4 <printf+0xb95>
    1de2: a6 86        	ldx	$86                     ; 0x2086 <printf+0x947>
    1de4: a9 2d        	lda	#$2d
    1de6: 85 cc        	sta	$cc                     ; 0x20cc <printf+0x98d>
    1de8: a5 16        	lda	$16                     ; 0x2016 <printf+0x8d7>
    1dea: d0 32        	bne	$1e1e <printf+0x6df>
    1dec: 86 12        	stx	$12                     ; 0x2012 <printf+0x8d3>
    1dee: 8a           	txa
    1def: 29 02        	and	#$2
    1df1: a2 2b        	ldx	#$2b
    1df3: 86 cc        	stx	$cc                     ; 0x20cc <printf+0x98d>
    1df5: aa           	tax
    1df6: d0 26        	bne	$1e1e <printf+0x6df>
    1df8: a5 12        	lda	$12                     ; 0x2012 <printf+0x8d3>
    1dfa: 29 08        	and	#$8
    1dfc: d0 1c        	bne	$1e1a <printf+0x6db>
    1dfe: a2 01        	ldx	#$1
    1e00: 86 cb        	stx	$cb                     ; 0x20cb <printf+0x98c>
    1e02: a9 00        	lda	#$0
    1e04: aa           	tax
    1e05: 86 ca        	stx	$ca                     ; 0x20ca <printf+0x98b>
    1e07: 80 1c        	bra	$1e25 <printf+0x6e6>
    1e09: 85 12        	sta	$12                     ; 0x2012 <printf+0x8d3>
    1e0b: a9 04        	lda	#$4
    1e0d: 80 04        	bra	$1e13 <printf+0x6d4>
    1e0f: 85 12        	sta	$12                     ; 0x2012 <printf+0x8d3>
    1e11: a9 02        	lda	#$2
    1e13: 85 cc        	sta	$cc                     ; 0x20cc <printf+0x98d>
    1e15: a5 12        	lda	$12                     ; 0x2012 <printf+0x8d3>
    1e17: 4c e6 1a     	jmp	$1ae6 <printf+0x3a7>
    1e1a: a2 20        	ldx	#$20
    1e1c: 86 cc        	stx	$cc                     ; 0x20cc <printf+0x98d>
    1e1e: a2 00        	ldx	#$0
    1e20: 86 cb        	stx	$cb                     ; 0x20cb <printf+0x98c>
    1e22: 86 ca        	stx	$ca                     ; 0x20ca <printf+0x98b>
    1e24: 98           	tya
    1e25: a6 8e        	ldx	$8e                     ; 0x208e <printf+0x94f>
    1e27: d0 35        	bne	$1e5e <printf+0x71f>
    1e29: a6 8d        	ldx	$8d                     ; 0x208d <printf+0x94e>
    1e2b: a4 85        	ldy	$85                     ; 0x2085 <printf+0x946>
    1e2d: 84 12        	sty	$12                     ; 0x2012 <printf+0x8d3>
    1e2f: e4 12        	cpx	$12                     ; 0x2012 <printf+0x8d3>
    1e31: a6 8d        	ldx	$8d                     ; 0x208d <printf+0x94e>
    1e33: 86 12        	stx	$12                     ; 0x2012 <printf+0x8d3>
    1e35: a6 8e        	ldx	$8e                     ; 0x208e <printf+0x94f>
    1e37: 86 13        	stx	$13                     ; 0x2013 <printf+0x8d4>
    1e39: b0 04        	bcs	$1e3f <printf+0x700>
    1e3b: 84 12        	sty	$12                     ; 0x2012 <printf+0x8d3>
    1e3d: 64 13        	stz	$13                     ; 0x2013 <printf+0x8d4>
    1e3f: 85 18        	sta	$18                     ; 0x2018 <printf+0x8d9>
    1e41: 18           	clc
    1e42: 65 12        	adc	$12                     ; 0x2012 <printf+0x8d3>
    1e44: 85 16        	sta	$16                     ; 0x2016 <printf+0x8d7>
    1e46: 85 14        	sta	$14                     ; 0x2014 <printf+0x8d5>
    1e48: a5 13        	lda	$13                     ; 0x2013 <printf+0x8d4>
    1e4a: 69 00        	adc	#$0
    1e4c: 85 15        	sta	$15                     ; 0x2015 <printf+0x8d6>
    1e4e: c5 1a        	cmp	$1a                     ; 0x201a <printf+0x8db>
    1e50: d0 1e        	bne	$1e70 <printf+0x731>
    1e52: a6 1a        	ldx	$1a                     ; 0x201a <printf+0x8db>
    1e54: 86 17        	stx	$17                     ; 0x2017 <printf+0x8d8>
    1e56: a6 8f        	ldx	$8f                     ; 0x208f <printf+0x950>
    1e58: a5 16        	lda	$16                     ; 0x2016 <printf+0x8d7>
    1e5a: c5 8f        	cmp	$8f                     ; 0x208f <printf+0x950>
    1e5c: 80 1c        	bra	$1e7a <printf+0x73b>
    1e5e: a6 8e        	ldx	$8e                     ; 0x208e <printf+0x94f>
    1e60: e0 00        	cpx	#$0
    1e62: a6 8d        	ldx	$8d                     ; 0x208d <printf+0x94e>
    1e64: 86 12        	stx	$12                     ; 0x2012 <printf+0x8d3>
    1e66: a6 8e        	ldx	$8e                     ; 0x208e <printf+0x94f>
    1e68: 86 13        	stx	$13                     ; 0x2013 <printf+0x8d4>
    1e6a: a4 85        	ldy	$85                     ; 0x2085 <printf+0x946>
    1e6c: 90 cd        	bcc	$1e3b <printf+0x6fc>
    1e6e: 80 cf        	bra	$1e3f <printf+0x700>
    1e70: a6 8f        	ldx	$8f                     ; 0x208f <printf+0x950>
    1e72: 5a           	phy
    1e73: a4 1a        	ldy	$1a                     ; 0x201a <printf+0x8db>
    1e75: 84 17        	sty	$17                     ; 0x2017 <printf+0x8d8>
    1e77: 7a           	ply
    1e78: c5 1a        	cmp	$1a                     ; 0x201a <printf+0x8db>
    1e7a: 64 90        	stz	$90                     ; 0x2090 <printf+0x951>
    1e7c: 64 8f        	stz	$8f                     ; 0x208f <printf+0x950>
    1e7e: 90 03        	bcc	$1e83 <printf+0x744>
    1e80: 4c 16 1f     	jmp	$1f16 <printf+0x7d7>
    1e83: a5 86        	lda	$86                     ; 0x2086 <printf+0x947>
    1e85: 29 11        	and	#$11
    1e87: 86 16        	stx	$16                     ; 0x2016 <printf+0x8d7>
    1e89: f0 0f        	beq	$1e9a <printf+0x75b>
    1e8b: 8a           	txa
    1e8c: 38           	sec
    1e8d: e5 14        	sbc	$14                     ; 0x2014 <printf+0x8d5>
    1e8f: 85 90        	sta	$90                     ; 0x2090 <printf+0x951>
    1e91: a5 1a        	lda	$1a                     ; 0x201a <printf+0x8db>
    1e93: e5 15        	sbc	$15                     ; 0x2015 <printf+0x8d6>
    1e95: 85 8f        	sta	$8f                     ; 0x208f <printf+0x950>
    1e97: 4c 16 1f     	jmp	$1f16 <printf+0x7d7>
    1e9a: a6 ba        	ldx	$ba                     ; 0x20ba <printf+0x97b>
    1e9c: 86 14        	stx	$14                     ; 0x2014 <printf+0x8d5>
    1e9e: 38           	sec
    1e9f: a5 18        	lda	$18                     ; 0x2018 <printf+0x8d9>
    1ea1: e5 16        	sbc	$16                     ; 0x2016 <printf+0x8d7>
    1ea3: aa           	tax
    1ea4: a9 00        	lda	#$0
    1ea6: e5 17        	sbc	$17                     ; 0x2017 <printf+0x8d8>
    1ea8: a8           	tay
    1ea9: 18           	clc
    1eaa: 8a           	txa
    1eab: 65 12        	adc	$12                     ; 0x2012 <printf+0x8d3>
    1ead: 85 86        	sta	$86                     ; 0x2086 <printf+0x947>
    1eaf: 98           	tya
    1eb0: 65 13        	adc	$13                     ; 0x2013 <printf+0x8d4>
    1eb2: a4 bb        	ldy	$bb                     ; 0x20bb <printf+0x97c>
    1eb4: 80 47        	bra	$1efd <printf+0x7be>
    1eb6: c4 b9        	cpy	$b9                     ; 0x20b9 <printf+0x97a>
    1eb8: b0 25        	bcs	$1edf <printf+0x7a0>
    1eba: a6 c5        	ldx	$c5                     ; 0x20c5 <printf+0x986>
    1ebc: e4 8a        	cpx	$8a                     ; 0x208a <printf+0x94b>
    1ebe: d0 18        	bne	$1ed8 <printf+0x799>
    1ec0: a6 c4        	ldx	$c4                     ; 0x20c4 <printf+0x985>
    1ec2: e4 89        	cpx	$89                     ; 0x2089 <printf+0x94a>
    1ec4: d0 12        	bne	$1ed8 <printf+0x799>
    1ec6: 18           	clc
    1ec7: a5 14        	lda	$14                     ; 0x2014 <printf+0x8d5>
    1ec9: 65 be        	adc	$be                     ; 0x20be <printf+0x97f>
    1ecb: 85 12        	sta	$12                     ; 0x2012 <printf+0x8d3>
    1ecd: 98           	tya
    1ece: 65 bf        	adc	$bf                     ; 0x20bf <printf+0x980>
    1ed0: 85 13        	sta	$13                     ; 0x2013 <printf+0x8d4>
    1ed2: a9 20        	lda	#$20
    1ed4: 92 12        	sta	($12)                   ; 0x2012 <printf+0x8d3>
    1ed6: 80 05        	bra	$1edd <printf+0x79e>
    1ed8: a9 20        	lda	#$20
    1eda: 20 a2 13     	jsr	$13a2 <__putchar>
    1edd: a5 8f        	lda	$8f                     ; 0x208f <printf+0x950>
    1edf: a6 ba        	ldx	$ba                     ; 0x20ba <printf+0x97b>
    1ee1: a4 bb        	ldy	$bb                     ; 0x20bb <printf+0x97c>
    1ee3: e8           	inx
    1ee4: d0 01        	bne	$1ee7 <printf+0x7a8>
    1ee6: c8           	iny
    1ee7: 86 14        	stx	$14                     ; 0x2014 <printf+0x8d5>
    1ee9: 86 ba        	stx	$ba                     ; 0x20ba <printf+0x97b>
    1eeb: 84 bb        	sty	$bb                     ; 0x20bb <printf+0x97c>
    1eed: a6 86        	ldx	$86                     ; 0x2086 <printf+0x947>
    1eef: e8           	inx
    1ef0: d0 01        	bne	$1ef3 <printf+0x7b4>
    1ef2: 1a           	inc
    1ef3: 86 86        	stx	$86                     ; 0x2086 <printf+0x947>
    1ef5: c9 00        	cmp	#$0
    1ef7: d0 04        	bne	$1efd <printf+0x7be>
    1ef9: e0 00        	cpx	#$0
    1efb: f0 13        	beq	$1f10 <printf+0x7d1>
    1efd: 85 8f        	sta	$8f                     ; 0x208f <printf+0x950>
    1eff: c4 b9        	cpy	$b9                     ; 0x20b9 <printf+0x97a>
    1f01: d0 b3        	bne	$1eb6 <printf+0x777>
    1f03: a6 b8        	ldx	$b8                     ; 0x20b8 <printf+0x979>
    1f05: 86 12        	stx	$12                     ; 0x2012 <printf+0x8d3>
    1f07: a6 14        	ldx	$14                     ; 0x2014 <printf+0x8d5>
    1f09: e4 12        	cpx	$12                     ; 0x2012 <printf+0x8d3>
    1f0b: b0 d2        	bcs	$1edf <printf+0x7a0>
    1f0d: 4c ba 1e     	jmp	$1eba <printf+0x77b>
    1f10: 64 90        	stz	$90                     ; 0x2090 <printf+0x951>
    1f12: 64 8f        	stz	$8f                     ; 0x208f <printf+0x950>
    1f14: a4 85        	ldy	$85                     ; 0x2085 <printf+0x946>
    1f16: a6 cb        	ldx	$cb                     ; 0x20cb <printf+0x98c>
    1f18: d0 4d        	bne	$1f67 <printf+0x828>
    1f1a: a6 ba        	ldx	$ba                     ; 0x20ba <printf+0x97b>
    1f1c: a5 bb        	lda	$bb                     ; 0x20bb <printf+0x97c>
    1f1e: c5 b9        	cmp	$b9                     ; 0x20b9 <printf+0x97a>
    1f20: d0 10        	bne	$1f32 <printf+0x7f3>
    1f22: 86 13        	stx	$13                     ; 0x2013 <printf+0x8d4>
    1f24: a6 b8        	ldx	$b8                     ; 0x20b8 <printf+0x979>
    1f26: 86 12        	stx	$12                     ; 0x2012 <printf+0x8d3>
    1f28: a4 85        	ldy	$85                     ; 0x2085 <printf+0x946>
    1f2a: a6 13        	ldx	$13                     ; 0x2013 <printf+0x8d4>
    1f2c: e4 12        	cpx	$12                     ; 0x2012 <printf+0x8d3>
    1f2e: 90 08        	bcc	$1f38 <printf+0x7f9>
    1f30: 80 2f        	bra	$1f61 <printf+0x822>
    1f32: 86 13        	stx	$13                     ; 0x2013 <printf+0x8d4>
    1f34: c5 b9        	cmp	$b9                     ; 0x20b9 <printf+0x97a>
    1f36: b0 29        	bcs	$1f61 <printf+0x822>
    1f38: a6 c5        	ldx	$c5                     ; 0x20c5 <printf+0x986>
    1f3a: e4 8a        	cpx	$8a                     ; 0x208a <printf+0x94b>
    1f3c: d0 1c        	bne	$1f5a <printf+0x81b>
    1f3e: a6 c4        	ldx	$c4                     ; 0x20c4 <printf+0x985>
    1f40: e4 89        	cpx	$89                     ; 0x2089 <printf+0x94a>
    1f42: d0 16        	bne	$1f5a <printf+0x81b>
    1f44: 18           	clc
    1f45: 85 12        	sta	$12                     ; 0x2012 <printf+0x8d3>
    1f47: a5 13        	lda	$13                     ; 0x2013 <printf+0x8d4>
    1f49: 65 be        	adc	$be                     ; 0x20be <printf+0x97f>
    1f4b: aa           	tax
    1f4c: a5 12        	lda	$12                     ; 0x2012 <printf+0x8d3>
    1f4e: 65 bf        	adc	$bf                     ; 0x20bf <printf+0x980>
    1f50: 86 12        	stx	$12                     ; 0x2012 <printf+0x8d3>
    1f52: 85 13        	sta	$13                     ; 0x2013 <printf+0x8d4>
    1f54: a5 cc        	lda	$cc                     ; 0x20cc <printf+0x98d>
    1f56: 92 12        	sta	($12)                   ; 0x2012 <printf+0x8d3>
    1f58: 80 05        	bra	$1f5f <printf+0x820>
    1f5a: a5 cc        	lda	$cc                     ; 0x20cc <printf+0x98d>
    1f5c: 20 a2 13     	jsr	$13a2 <__putchar>
    1f5f: a4 85        	ldy	$85                     ; 0x2085 <printf+0x946>
    1f61: e6 ba        	inc	$ba                     ; 0x20ba <printf+0x97b>
    1f63: d0 02        	bne	$1f67 <printf+0x828>
    1f65: e6 bb        	inc	$bb                     ; 0x20bb <printf+0x97c>
    1f67: a6 ca        	ldx	$ca                     ; 0x20ca <printf+0x98b>
    1f69: f0 4d        	beq	$1fb8 <printf+0x879>
    1f6b: a6 ba        	ldx	$ba                     ; 0x20ba <printf+0x97b>
    1f6d: a5 bb        	lda	$bb                     ; 0x20bb <printf+0x97c>
    1f6f: c5 b9        	cmp	$b9                     ; 0x20b9 <printf+0x97a>
    1f71: d0 10        	bne	$1f83 <printf+0x844>
    1f73: 86 13        	stx	$13                     ; 0x2013 <printf+0x8d4>
    1f75: a6 b8        	ldx	$b8                     ; 0x20b8 <printf+0x979>
    1f77: 86 12        	stx	$12                     ; 0x2012 <printf+0x8d3>
    1f79: a4 85        	ldy	$85                     ; 0x2085 <printf+0x946>
    1f7b: a6 13        	ldx	$13                     ; 0x2013 <printf+0x8d4>
    1f7d: e4 12        	cpx	$12                     ; 0x2012 <printf+0x8d3>
    1f7f: 90 08        	bcc	$1f89 <printf+0x84a>
    1f81: 80 2f        	bra	$1fb2 <printf+0x873>
    1f83: 86 13        	stx	$13                     ; 0x2013 <printf+0x8d4>
    1f85: c5 b9        	cmp	$b9                     ; 0x20b9 <printf+0x97a>
    1f87: b0 29        	bcs	$1fb2 <printf+0x873>
    1f89: a6 c5        	ldx	$c5                     ; 0x20c5 <printf+0x986>
    1f8b: e4 8a        	cpx	$8a                     ; 0x208a <printf+0x94b>
    1f8d: d0 1c        	bne	$1fab <printf+0x86c>
    1f8f: a6 c4        	ldx	$c4                     ; 0x20c4 <printf+0x985>
    1f91: e4 89        	cpx	$89                     ; 0x2089 <printf+0x94a>
    1f93: d0 16        	bne	$1fab <printf+0x86c>
    1f95: 18           	clc
    1f96: 85 12        	sta	$12                     ; 0x2012 <printf+0x8d3>
    1f98: a5 13        	lda	$13                     ; 0x2013 <printf+0x8d4>
    1f9a: 65 be        	adc	$be                     ; 0x20be <printf+0x97f>
    1f9c: aa           	tax
    1f9d: a5 12        	lda	$12                     ; 0x2012 <printf+0x8d3>
    1f9f: 65 bf        	adc	$bf                     ; 0x20bf <printf+0x980>
    1fa1: 86 12        	stx	$12                     ; 0x2012 <printf+0x8d3>
    1fa3: 85 13        	sta	$13                     ; 0x2013 <printf+0x8d4>
    1fa5: a5 cf        	lda	$cf                     ; 0x20cf <printf+0x990>
    1fa7: 92 12        	sta	($12)                   ; 0x2012 <printf+0x8d3>
    1fa9: 80 05        	bra	$1fb0 <printf+0x871>
    1fab: a5 cf        	lda	$cf                     ; 0x20cf <printf+0x990>
    1fad: 20 a2 13     	jsr	$13a2 <__putchar>
    1fb0: a4 85        	ldy	$85                     ; 0x2085 <printf+0x946>
    1fb2: e6 ba        	inc	$ba                     ; 0x20ba <printf+0x97b>
    1fb4: d0 02        	bne	$1fb8 <printf+0x879>
    1fb6: e6 bb        	inc	$bb                     ; 0x20bb <printf+0x97c>
    1fb8: a9 10        	lda	#$10
    1fba: 25 b6        	and	$b6                     ; 0x20b6 <printf+0x977>
    1fbc: d0 03        	bne	$1fc1 <printf+0x882>
    1fbe: 4c 49 20     	jmp	$2049 <printf+0x90a>
    1fc1: a5 b6        	lda	$b6                     ; 0x20b6 <printf+0x977>
    1fc3: 29 01        	and	#$1
    1fc5: 29 01        	and	#$1
    1fc7: f0 03        	beq	$1fcc <printf+0x88d>
    1fc9: 4c 49 20     	jmp	$2049 <printf+0x90a>
    1fcc: a6 90        	ldx	$90                     ; 0x2090 <printf+0x951>
    1fce: a5 8f        	lda	$8f                     ; 0x208f <printf+0x950>
    1fd0: d0 06        	bne	$1fd8 <printf+0x899>
    1fd2: 8a           	txa
    1fd3: d0 03        	bne	$1fd8 <printf+0x899>
    1fd5: 4c e7 22     	jmp	$22e7 <printf+0xba8>
    1fd8: a6 ba        	ldx	$ba                     ; 0x20ba <printf+0x97b>
    1fda: 86 13        	stx	$13                     ; 0x2013 <printf+0x8d4>
    1fdc: a5 bb        	lda	$bb                     ; 0x20bb <printf+0x97c>
    1fde: 80 4f        	bra	$202f <printf+0x8f0>
    1fe0: c5 b9        	cmp	$b9                     ; 0x20b9 <printf+0x97a>
    1fe2: b0 24        	bcs	$2008 <printf+0x8c9>
    1fe4: a6 c5        	ldx	$c5                     ; 0x20c5 <printf+0x986>
    1fe6: e4 8a        	cpx	$8a                     ; 0x208a <printf+0x94b>
    1fe8: d0 19        	bne	$2003 <printf+0x8c4>
    1fea: a6 c4        	ldx	$c4                     ; 0x20c4 <printf+0x985>
    1fec: e4 89        	cpx	$89                     ; 0x2089 <printf+0x94a>
    1fee: d0 13        	bne	$2003 <printf+0x8c4>
    1ff0: 18           	clc
    1ff1: aa           	tax
    1ff2: a5 13        	lda	$13                     ; 0x2013 <printf+0x8d4>
    1ff4: 65 be        	adc	$be                     ; 0x20be <printf+0x97f>
    1ff6: 85 12        	sta	$12                     ; 0x2012 <printf+0x8d3>
    1ff8: 8a           	txa
    1ff9: 65 bf        	adc	$bf                     ; 0x20bf <printf+0x980>
    1ffb: 85 13        	sta	$13                     ; 0x2013 <printf+0x8d4>
    1ffd: a9 30        	lda	#$30
    1fff: 92 12        	sta	($12)                   ; 0x2012 <printf+0x8d3>
    2001: 80 05        	bra	$2008 <printf+0x8c9>
    2003: a9 30        	lda	#$30
    2005: 20 a2 13     	jsr	$13a2 <__putchar>
    2008: a6 ba        	ldx	$ba                     ; 0x20ba <printf+0x97b>
    200a: a5 bb        	lda	$bb                     ; 0x20bb <printf+0x97c>
    200c: e8           	inx
    200d: d0 01        	bne	$2010 <printf+0x8d1>
    200f: 1a           	inc
    2010: 86 13        	stx	$13                     ; 0x2013 <printf+0x8d4>
    2012: 86 ba        	stx	$ba                     ; 0x20ba <printf+0x97b>
    2014: 85 bb        	sta	$bb                     ; 0x20bb <printf+0x97c>
    2016: a4 90        	ldy	$90                     ; 0x2090 <printf+0x951>
    2018: a6 8f        	ldx	$8f                     ; 0x208f <printf+0x950>
    201a: 86 12        	stx	$12                     ; 0x2012 <printf+0x8d3>
    201c: 88           	dey
    201d: c0 ff        	cpy	#$ff
    201f: d0 02        	bne	$2023 <printf+0x8e4>
    2021: c6 12        	dec	$12                     ; 0x2012 <printf+0x8d3>
    2023: 84 90        	sty	$90                     ; 0x2090 <printf+0x951>
    2025: a6 12        	ldx	$12                     ; 0x2012 <printf+0x8d3>
    2027: 86 8f        	stx	$8f                     ; 0x208f <printf+0x950>
    2029: d0 04        	bne	$202f <printf+0x8f0>
    202b: c0 00        	cpy	#$0
    202d: f0 14        	beq	$2043 <printf+0x904>
    202f: c5 b9        	cmp	$b9                     ; 0x20b9 <printf+0x97a>
    2031: f0 03        	beq	$2036 <printf+0x8f7>
    2033: 4c e0 1f     	jmp	$1fe0 <printf+0x8a1>
    2036: a6 b8        	ldx	$b8                     ; 0x20b8 <printf+0x979>
    2038: 86 12        	stx	$12                     ; 0x2012 <printf+0x8d3>
    203a: a6 13        	ldx	$13                     ; 0x2013 <printf+0x8d4>
    203c: e4 12        	cpx	$12                     ; 0x2012 <printf+0x8d3>
    203e: b0 c8        	bcs	$2008 <printf+0x8c9>
    2040: 4c e4 1f     	jmp	$1fe4 <printf+0x8a5>
    2043: 64 90        	stz	$90                     ; 0x2090 <printf+0x951>
    2045: 64 8f        	stz	$8f                     ; 0x208f <printf+0x950>
    2047: a4 85        	ldy	$85                     ; 0x2085 <printf+0x946>
    2049: a2 00        	ldx	#$0
    204b: e4 8e        	cpx	$8e                     ; 0x208e <printf+0x94f>
    204d: d0 07        	bne	$2056 <printf+0x917>
    204f: c4 8d        	cpy	$8d                     ; 0x208d <printf+0x94e>
    2051: 90 0a        	bcc	$205d <printf+0x91e>
    2053: 4c cb 20     	jmp	$20cb <printf+0x98c>
    2056: e4 8e        	cpx	$8e                     ; 0x208e <printf+0x94f>
    2058: 90 03        	bcc	$205d <printf+0x91e>
    205a: 4c cb 20     	jmp	$20cb <printf+0x98c>
    205d: a6 ba        	ldx	$ba                     ; 0x20ba <printf+0x97b>
    205f: 86 13        	stx	$13                     ; 0x2013 <printf+0x8d4>
    2061: a5 bb        	lda	$bb                     ; 0x20bb <printf+0x97c>
    2063: a2 ff        	ldx	#$ff
    2065: c6 8d        	dec	$8d                     ; 0x208d <printf+0x94e>
    2067: e4 8d        	cpx	$8d                     ; 0x208d <printf+0x94e>
    2069: d0 02        	bne	$206d <printf+0x92e>
    206b: c6 8e        	dec	$8e                     ; 0x208e <printf+0x94f>
    206d: c5 b9        	cmp	$b9                     ; 0x20b9 <printf+0x97a>
    206f: d0 0c        	bne	$207d <printf+0x93e>
    2071: a6 b8        	ldx	$b8                     ; 0x20b8 <printf+0x979>
    2073: 86 12        	stx	$12                     ; 0x2012 <printf+0x8d3>
    2075: a6 13        	ldx	$13                     ; 0x2013 <printf+0x8d4>
    2077: e4 12        	cpx	$12                     ; 0x2012 <printf+0x8d3>
    2079: 90 06        	bcc	$2081 <printf+0x942>
    207b: 80 28        	bra	$20a5 <printf+0x966>
    207d: c5 b9        	cmp	$b9                     ; 0x20b9 <printf+0x97a>
    207f: b0 24        	bcs	$20a5 <printf+0x966>
    2081: a6 c5        	ldx	$c5                     ; 0x20c5 <printf+0x986>
    2083: e4 8a        	cpx	$8a                     ; 0x208a <printf+0x94b>
    2085: d0 19        	bne	$20a0 <printf+0x961>
    2087: a6 c4        	ldx	$c4                     ; 0x20c4 <printf+0x985>
    2089: e4 89        	cpx	$89                     ; 0x2089 <printf+0x94a>
    208b: d0 13        	bne	$20a0 <printf+0x961>
    208d: 18           	clc
    208e: aa           	tax
    208f: a5 13        	lda	$13                     ; 0x2013 <printf+0x8d4>
    2091: 65 be        	adc	$be                     ; 0x20be <printf+0x97f>
    2093: 85 12        	sta	$12                     ; 0x2012 <printf+0x8d3>
    2095: 8a           	txa
    2096: 65 bf        	adc	$bf                     ; 0x20bf <printf+0x980>
    2098: 85 13        	sta	$13                     ; 0x2013 <printf+0x8d4>
    209a: a9 30        	lda	#$30
    209c: 92 12        	sta	($12)                   ; 0x2012 <printf+0x8d3>
    209e: 80 05        	bra	$20a5 <printf+0x966>
    20a0: a9 30        	lda	#$30
    20a2: 20 a2 13     	jsr	$13a2 <__putchar>
    20a5: a6 ba        	ldx	$ba                     ; 0x20ba <printf+0x97b>
    20a7: a5 bb        	lda	$bb                     ; 0x20bb <printf+0x97c>
    20a9: e8           	inx
    20aa: d0 01        	bne	$20ad <printf+0x96e>
    20ac: 1a           	inc
    20ad: 86 13        	stx	$13                     ; 0x2013 <printf+0x8d4>
    20af: 86 ba        	stx	$ba                     ; 0x20ba <printf+0x97b>
    20b1: 85 bb        	sta	$bb                     ; 0x20bb <printf+0x97c>
    20b3: a2 00        	ldx	#$0
    20b5: e4 8e        	cpx	$8e                     ; 0x208e <printf+0x94f>
    20b7: d0 09        	bne	$20c2 <printf+0x983>
    20b9: a4 85        	ldy	$85                     ; 0x2085 <printf+0x946>
    20bb: c4 8d        	cpy	$8d                     ; 0x208d <printf+0x94e>
    20bd: b0 0c        	bcs	$20cb <printf+0x98c>
    20bf: 4c 63 20     	jmp	$2063 <printf+0x924>
    20c2: e4 8e        	cpx	$8e                     ; 0x208e <printf+0x94f>
    20c4: a4 85        	ldy	$85                     ; 0x2085 <printf+0x946>
    20c6: b0 03        	bcs	$20cb <printf+0x98c>
    20c8: 4c 63 20     	jmp	$2063 <printf+0x924>
    20cb: 98           	tya
    20cc: d0 03        	bne	$20d1 <printf+0x992>
    20ce: 4c c0 21     	jmp	$21c0 <printf+0xa81>
    20d1: 88           	dey
    20d2: d0 03        	bne	$20d7 <printf+0x998>
    20d4: 4c 5f 21     	jmp	$215f <printf+0xa20>
    20d7: 84 8d        	sty	$8d                     ; 0x208d <printf+0x94e>
    20d9: a6 d0        	ldx	$d0                     ; 0x20d0 <printf+0x991>
    20db: 8a           	txa
    20dc: 18           	clc
    20dd: 65 8d        	adc	$8d                     ; 0x208d <printf+0x94e>
    20df: 85 85        	sta	$85                     ; 0x2085 <printf+0x946>
    20e1: a5 d1        	lda	$d1                     ; 0x20d1 <printf+0x992>
    20e3: 69 00        	adc	#$0
    20e5: 85 86        	sta	$86                     ; 0x2086 <printf+0x947>
    20e7: 4c 51 21     	jmp	$2151 <printf+0xa12>
    20ea: a8           	tay
    20eb: a9 80        	lda	#$80
    20ed: 25 b6        	and	$b6                     ; 0x20b6 <printf+0x977>
    20ef: f0 04        	beq	$20f5 <printf+0x9b6>
    20f1: a2 61        	ldx	#$61
    20f3: 80 02        	bra	$20f7 <printf+0x9b8>
    20f5: a2 41        	ldx	#$41
    20f7: 86 12        	stx	$12                     ; 0x2012 <printf+0x8d3>
    20f9: 18           	clc
    20fa: 98           	tya
    20fb: 65 12        	adc	$12                     ; 0x2012 <printf+0x8d3>
    20fd: 18           	clc
    20fe: 69 f6        	adc	#$f6
    2100: a4 ba        	ldy	$ba                     ; 0x20ba <printf+0x97b>
    2102: a6 bb        	ldx	$bb                     ; 0x20bb <printf+0x97c>
    2104: e4 b9        	cpx	$b9                     ; 0x20b9 <printf+0x97a>
    2106: d0 0c        	bne	$2114 <printf+0x9d5>
    2108: 86 14        	stx	$14                     ; 0x2014 <printf+0x8d5>
    210a: a6 b8        	ldx	$b8                     ; 0x20b8 <printf+0x979>
    210c: 86 12        	stx	$12                     ; 0x2012 <printf+0x8d3>
    210e: c4 12        	cpy	$12                     ; 0x2012 <printf+0x8d3>
    2110: 90 08        	bcc	$211a <printf+0x9db>
    2112: 80 27        	bra	$213b <printf+0x9fc>
    2114: 86 14        	stx	$14                     ; 0x2014 <printf+0x8d5>
    2116: e4 b9        	cpx	$b9                     ; 0x20b9 <printf+0x97a>
    2118: b0 21        	bcs	$213b <printf+0x9fc>
    211a: a6 c5        	ldx	$c5                     ; 0x20c5 <printf+0x986>
    211c: e4 8a        	cpx	$8a                     ; 0x208a <printf+0x94b>
    211e: d0 18        	bne	$2138 <printf+0x9f9>
    2120: a6 c4        	ldx	$c4                     ; 0x20c4 <printf+0x985>
    2122: e4 89        	cpx	$89                     ; 0x2089 <printf+0x94a>
    2124: d0 12        	bne	$2138 <printf+0x9f9>
    2126: 18           	clc
    2127: aa           	tax
    2128: 98           	tya
    2129: 65 be        	adc	$be                     ; 0x20be <printf+0x97f>
    212b: 85 12        	sta	$12                     ; 0x2012 <printf+0x8d3>
    212d: a5 14        	lda	$14                     ; 0x2014 <printf+0x8d5>
    212f: 65 bf        	adc	$bf                     ; 0x20bf <printf+0x980>
    2131: 85 13        	sta	$13                     ; 0x2013 <printf+0x8d4>
    2133: 8a           	txa
    2134: 92 12        	sta	($12)                   ; 0x2012 <printf+0x8d3>
    2136: 80 03        	bra	$213b <printf+0x9fc>
    2138: 20 a2 13     	jsr	$13a2 <__putchar>
    213b: e6 ba        	inc	$ba                     ; 0x20ba <printf+0x97b>
    213d: d0 02        	bne	$2141 <printf+0xa02>
    213f: e6 bb        	inc	$bb                     ; 0x20bb <printf+0x97c>
    2141: c6 8d        	dec	$8d                     ; 0x208d <printf+0x94e>
    2143: a2 ff        	ldx	#$ff
    2145: c6 85        	dec	$85                     ; 0x2085 <printf+0x946>
    2147: e4 85        	cpx	$85                     ; 0x2085 <printf+0x946>
    2149: d0 02        	bne	$214d <printf+0xa0e>
    214b: c6 86        	dec	$86                     ; 0x2086 <printf+0x947>
    214d: a5 8d        	lda	$8d                     ; 0x208d <printf+0x94e>
    214f: f0 0e        	beq	$215f <printf+0xa20>
    2151: b2 85        	lda	($85)                   ; 0x2085 <printf+0x946>
    2153: c9 0a        	cmp	#$a
    2155: 90 03        	bcc	$215a <printf+0xa1b>
    2157: 4c ea 20     	jmp	$20ea <printf+0x9ab>
    215a: 09 30        	ora	#$30
    215c: 4c 00 21     	jmp	$2100 <printf+0x9c1>
    215f: a5 93        	lda	$93                     ; 0x2093 <printf+0x954>
    2161: c9 0a        	cmp	#$a
    2163: b0 04        	bcs	$2169 <printf+0xa2a>
    2165: 09 30        	ora	#$30
    2167: 80 16        	bra	$217f <printf+0xa40>
    2169: a8           	tay
    216a: a9 80        	lda	#$80
    216c: 25 b6        	and	$b6                     ; 0x20b6 <printf+0x977>
    216e: f0 04        	beq	$2174 <printf+0xa35>
    2170: a2 61        	ldx	#$61
    2172: 80 02        	bra	$2176 <printf+0xa37>
    2174: a2 41        	ldx	#$41
    2176: 86 12        	stx	$12                     ; 0x2012 <printf+0x8d3>
    2178: 18           	clc
    2179: 98           	tya
    217a: 65 12        	adc	$12                     ; 0x2012 <printf+0x8d3>
    217c: 18           	clc
    217d: 69 f6        	adc	#$f6
    217f: a4 ba        	ldy	$ba                     ; 0x20ba <printf+0x97b>
    2181: a6 bb        	ldx	$bb                     ; 0x20bb <printf+0x97c>
    2183: e4 b9        	cpx	$b9                     ; 0x20b9 <printf+0x97a>
    2185: d0 0c        	bne	$2193 <printf+0xa54>
    2187: 86 14        	stx	$14                     ; 0x2014 <printf+0x8d5>
    2189: a6 b8        	ldx	$b8                     ; 0x20b8 <printf+0x979>
    218b: 86 12        	stx	$12                     ; 0x2012 <printf+0x8d3>
    218d: c4 12        	cpy	$12                     ; 0x2012 <printf+0x8d3>
    218f: 90 08        	bcc	$2199 <printf+0xa5a>
    2191: 80 27        	bra	$21ba <printf+0xa7b>
    2193: 86 14        	stx	$14                     ; 0x2014 <printf+0x8d5>
    2195: e4 b9        	cpx	$b9                     ; 0x20b9 <printf+0x97a>
    2197: b0 21        	bcs	$21ba <printf+0xa7b>
    2199: a6 c5        	ldx	$c5                     ; 0x20c5 <printf+0x986>
    219b: e4 8a        	cpx	$8a                     ; 0x208a <printf+0x94b>
    219d: d0 18        	bne	$21b7 <printf+0xa78>
    219f: a6 c4        	ldx	$c4                     ; 0x20c4 <printf+0x985>
    21a1: e4 89        	cpx	$89                     ; 0x2089 <printf+0x94a>
    21a3: d0 12        	bne	$21b7 <printf+0xa78>
    21a5: 18           	clc
    21a6: aa           	tax
    21a7: 98           	tya
    21a8: 65 be        	adc	$be                     ; 0x20be <printf+0x97f>
    21aa: 85 12        	sta	$12                     ; 0x2012 <printf+0x8d3>
    21ac: a5 14        	lda	$14                     ; 0x2014 <printf+0x8d5>
    21ae: 65 bf        	adc	$bf                     ; 0x20bf <printf+0x980>
    21b0: 85 13        	sta	$13                     ; 0x2013 <printf+0x8d4>
    21b2: 8a           	txa
    21b3: 92 12        	sta	($12)                   ; 0x2012 <printf+0x8d3>
    21b5: 80 03        	bra	$21ba <printf+0xa7b>
    21b7: 20 a2 13     	jsr	$13a2 <__putchar>
    21ba: e6 ba        	inc	$ba                     ; 0x20ba <printf+0x97b>
    21bc: d0 02        	bne	$21c0 <printf+0xa81>
    21be: e6 bb        	inc	$bb                     ; 0x20bb <printf+0x97c>
    21c0: a9 01        	lda	#$1
    21c2: 25 b6        	and	$b6                     ; 0x20b6 <printf+0x977>
    21c4: 29 01        	and	#$1
    21c6: d0 1e        	bne	$21e6 <printf+0xaa7>
    21c8: a6 ba        	ldx	$ba                     ; 0x20ba <printf+0x97b>
    21ca: 86 14        	stx	$14                     ; 0x2014 <printf+0x8d5>
    21cc: a5 bb        	lda	$bb                     ; 0x20bb <printf+0x97c>
    21ce: a4 b8        	ldy	$b8                     ; 0x20b8 <printf+0x979>
    21d0: a6 b9        	ldx	$b9                     ; 0x20b9 <printf+0x97a>
    21d2: 86 12        	stx	$12                     ; 0x2012 <printf+0x8d3>
    21d4: 86 13        	stx	$13                     ; 0x2013 <printf+0x8d4>
    21d6: c5 12        	cmp	$12                     ; 0x2012 <printf+0x8d3>
    21d8: f0 03        	beq	$21dd <printf+0xa9e>
    21da: 4c 69 22     	jmp	$2269 <printf+0xb2a>
    21dd: 84 12        	sty	$12                     ; 0x2012 <printf+0x8d3>
    21df: a6 14        	ldx	$14                     ; 0x2014 <printf+0x8d5>
    21e1: e4 12        	cpx	$12                     ; 0x2012 <printf+0x8d3>
    21e3: 4c 6d 22     	jmp	$226d <printf+0xb2e>
    21e6: a6 ba        	ldx	$ba                     ; 0x20ba <printf+0x97b>
    21e8: 86 14        	stx	$14                     ; 0x2014 <printf+0x8d5>
    21ea: a5 bb        	lda	$bb                     ; 0x20bb <printf+0x97c>
    21ec: a6 90        	ldx	$90                     ; 0x2090 <printf+0x951>
    21ee: a4 8f        	ldy	$8f                     ; 0x208f <printf+0x950>
    21f0: f0 03        	beq	$21f5 <printf+0xab6>
    21f2: 4c 55 22     	jmp	$2255 <printf+0xb16>
    21f5: e0 00        	cpx	#$0
    21f7: f0 d5        	beq	$21ce <printf+0xa8f>
    21f9: 4c 55 22     	jmp	$2255 <printf+0xb16>
    21fc: c5 b9        	cmp	$b9                     ; 0x20b9 <printf+0x97a>
    21fe: b0 24        	bcs	$2224 <printf+0xae5>
    2200: a6 c5        	ldx	$c5                     ; 0x20c5 <printf+0x986>
    2202: e4 8a        	cpx	$8a                     ; 0x208a <printf+0x94b>
    2204: d0 19        	bne	$221f <printf+0xae0>
    2206: a6 c4        	ldx	$c4                     ; 0x20c4 <printf+0x985>
    2208: e4 89        	cpx	$89                     ; 0x2089 <printf+0x94a>
    220a: d0 13        	bne	$221f <printf+0xae0>
    220c: 18           	clc
    220d: aa           	tax
    220e: a5 14        	lda	$14                     ; 0x2014 <printf+0x8d5>
    2210: 65 be        	adc	$be                     ; 0x20be <printf+0x97f>
    2212: 85 12        	sta	$12                     ; 0x2012 <printf+0x8d3>
    2214: 8a           	txa
    2215: 65 bf        	adc	$bf                     ; 0x20bf <printf+0x980>
    2217: 85 13        	sta	$13                     ; 0x2013 <printf+0x8d4>
    2219: a9 20        	lda	#$20
    221b: 92 12        	sta	($12)                   ; 0x2012 <printf+0x8d3>
    221d: 80 05        	bra	$2224 <printf+0xae5>
    221f: a9 20        	lda	#$20
    2221: 20 a2 13     	jsr	$13a2 <__putchar>
    2224: a6 ba        	ldx	$ba                     ; 0x20ba <printf+0x97b>
    2226: a5 bb        	lda	$bb                     ; 0x20bb <printf+0x97c>
    2228: e8           	inx
    2229: d0 01        	bne	$222c <printf+0xaed>
    222b: 1a           	inc
    222c: 86 14        	stx	$14                     ; 0x2014 <printf+0x8d5>
    222e: 86 ba        	stx	$ba                     ; 0x20ba <printf+0x97b>
    2230: 85 bb        	sta	$bb                     ; 0x20bb <printf+0x97c>
    2232: a6 90        	ldx	$90                     ; 0x2090 <printf+0x951>
    2234: 86 12        	stx	$12                     ; 0x2012 <printf+0x8d3>
    2236: a6 8f        	ldx	$8f                     ; 0x208f <printf+0x950>
    2238: 86 13        	stx	$13                     ; 0x2013 <printf+0x8d4>
    223a: a2 ff        	ldx	#$ff
    223c: c6 12        	dec	$12                     ; 0x2012 <printf+0x8d3>
    223e: e4 12        	cpx	$12                     ; 0x2012 <printf+0x8d3>
    2240: d0 02        	bne	$2244 <printf+0xb05>
    2242: c6 13        	dec	$13                     ; 0x2013 <printf+0x8d4>
    2244: a6 12        	ldx	$12                     ; 0x2012 <printf+0x8d3>
    2246: 86 90        	stx	$90                     ; 0x2090 <printf+0x951>
    2248: a6 13        	ldx	$13                     ; 0x2013 <printf+0x8d4>
    224a: 86 8f        	stx	$8f                     ; 0x208f <printf+0x950>
    224c: d0 07        	bne	$2255 <printf+0xb16>
    224e: a6 12        	ldx	$12                     ; 0x2012 <printf+0x8d3>
    2250: d0 03        	bne	$2255 <printf+0xb16>
    2252: 4c ce 21     	jmp	$21ce <printf+0xa8f>
    2255: c5 b9        	cmp	$b9                     ; 0x20b9 <printf+0x97a>
    2257: f0 03        	beq	$225c <printf+0xb1d>
    2259: 4c fc 21     	jmp	$21fc <printf+0xabd>
    225c: a6 b8        	ldx	$b8                     ; 0x20b8 <printf+0x979>
    225e: 86 12        	stx	$12                     ; 0x2012 <printf+0x8d3>
    2260: a6 14        	ldx	$14                     ; 0x2014 <printf+0x8d5>
    2262: e4 12        	cpx	$12                     ; 0x2012 <printf+0x8d3>
    2264: b0 be        	bcs	$2224 <printf+0xae5>
    2266: 4c 00 22     	jmp	$2200 <printf+0xac1>
    2269: 86 12        	stx	$12                     ; 0x2012 <printf+0x8d3>
    226b: c5 12        	cmp	$12                     ; 0x2012 <printf+0x8d3>
    226d: 98           	tya
    226e: a0 01        	ldy	#$1
    2270: 90 20        	bcc	$2292 <printf+0xb53>
    2272: a6 13        	ldx	$13                     ; 0x2013 <printf+0x8d4>
    2274: d0 03        	bne	$2279 <printf+0xb3a>
    2276: aa           	tax
    2277: f0 19        	beq	$2292 <printf+0xb53>
    2279: 18           	clc
    227a: 65 be        	adc	$be                     ; 0x20be <printf+0x97f>
    227c: 85 12        	sta	$12                     ; 0x2012 <printf+0x8d3>
    227e: a5 13        	lda	$13                     ; 0x2013 <printf+0x8d4>
    2280: 65 bf        	adc	$bf                     ; 0x20bf <printf+0x980>
    2282: 85 13        	sta	$13                     ; 0x2013 <printf+0x8d4>
    2284: a2 ff        	ldx	#$ff
    2286: c6 12        	dec	$12                     ; 0x2012 <printf+0x8d3>
    2288: e4 12        	cpx	$12                     ; 0x2012 <printf+0x8d3>
    228a: d0 02        	bne	$228e <printf+0xb4f>
    228c: c6 13        	dec	$13                     ; 0x2013 <printf+0x8d4>
    228e: a9 00        	lda	#$0
    2290: 92 12        	sta	($12)                   ; 0x2012 <printf+0x8d3>
    2292: e6 87        	inc	$87                     ; 0x2087 <printf+0x948>
    2294: d0 02        	bne	$2298 <printf+0xb59>
    2296: e6 88        	inc	$88                     ; 0x2088 <printf+0x949>
    2298: a6 88        	ldx	$88                     ; 0x2088 <printf+0x949>
    229a: e4 8c        	cpx	$8c                     ; 0x208c <printf+0x94d>
    229c: f0 03        	beq	$22a1 <printf+0xb62>
    229e: 4c a4 17     	jmp	$17a4 <printf+0x65>
    22a1: a6 87        	ldx	$87                     ; 0x2087 <printf+0x948>
    22a3: e4 8b        	cpx	$8b                     ; 0x208b <printf+0x94c>
    22a5: f0 03        	beq	$22aa <printf+0xb6b>
    22a7: 4c a4 17     	jmp	$17a4 <printf+0x65>
    22aa: b2 8b        	lda	($8b)                   ; 0x208b <printf+0x94c>
    22ac: a2 00        	ldx	#$0
    22ae: 86 89        	stx	$89                     ; 0x2089 <printf+0x94a>
    22b0: a2 00        	ldx	#$0
    22b2: 86 8a        	stx	$8a                     ; 0x208a <printf+0x94b>
    22b4: 4c b8 17     	jmp	$17b8 <printf+0x79>
    22b7: e4 8e        	cpx	$8e                     ; 0x208e <printf+0x94f>
    22b9: a6 86        	ldx	$86                     ; 0x2086 <printf+0x947>
    22bb: b0 03        	bcs	$22c0 <printf+0xb81>
    22bd: 4c e4 1d     	jmp	$1de4 <printf+0x6a5>
    22c0: a5 85        	lda	$85                     ; 0x2085 <printf+0x946>
    22c2: 85 8d        	sta	$8d                     ; 0x208d <printf+0x94e>
    22c4: 64 8e        	stz	$8e                     ; 0x208e <printf+0x94f>
    22c6: e6 8d        	inc	$8d                     ; 0x208d <printf+0x94e>
    22c8: f0 03        	beq	$22cd <printf+0xb8e>
    22ca: 4c e4 1d     	jmp	$1de4 <printf+0x6a5>
    22cd: e6 8e        	inc	$8e                     ; 0x208e <printf+0x94f>
    22cf: 4c e4 1d     	jmp	$1de4 <printf+0x6a5>
    22d2: a2 58        	ldx	#$58
    22d4: 86 cf        	stx	$cf                     ; 0x20cf <printf+0x990>
    22d6: a2 01        	ldx	#$1
    22d8: 86 ca        	stx	$ca                     ; 0x20ca <printf+0x98b>
    22da: a2 30        	ldx	#$30
    22dc: 86 cc        	stx	$cc                     ; 0x20cc <printf+0x98d>
    22de: a9 02        	lda	#$2
    22e0: a2 00        	ldx	#$0
    22e2: 86 cb        	stx	$cb                     ; 0x20cb <printf+0x98c>
    22e4: 4c 25 1e     	jmp	$1e25 <printf+0x6e6>
    22e7: 64 90        	stz	$90                     ; 0x2090 <printf+0x951>
    22e9: 64 8f        	stz	$8f                     ; 0x208f <printf+0x950>
    22eb: 4c 49 20     	jmp	$2049 <printf+0x90a>
    22ee: 60           	rts

000022ef <putchar>:
    22ef: 85 86        	sta	$86                     ; 0x2086 <printf+0x947>
    22f1: 86 85        	stx	$85                     ; 0x2085 <printf+0x946>
    22f3: 20 a2 13     	jsr	$13a2 <__putchar>
    22f6: a6 85        	ldx	$85                     ; 0x2085 <printf+0x946>
    22f8: a5 86        	lda	$86                     ; 0x2086 <printf+0x947>
    22fa: 60           	rts

000022fb <memcpy>:
    22fb: a8           	tay
    22fc: 8a           	txa
    22fd: d0 03        	bne	$2302 <memcpy+0x7>
    22ff: 98           	tya
    2300: f0 24        	beq	$2326 <memcpy+0x2b>
    2302: a5 12        	lda	$12                     ; 0x2012 <printf+0x8d3>
    2304: 85 16        	sta	$16                     ; 0x2016 <printf+0x8d7>
    2306: a5 13        	lda	$13                     ; 0x2013 <printf+0x8d4>
    2308: 85 17        	sta	$17                     ; 0x2017 <printf+0x8d8>
    230a: b2 14        	lda	($14)                   ; 0x2014 <printf+0x8d5>
    230c: 92 16        	sta	($16)                   ; 0x2016 <printf+0x8d7>
    230e: e6 16        	inc	$16                     ; 0x2016 <printf+0x8d7>
    2310: d0 02        	bne	$2314 <memcpy+0x19>
    2312: e6 17        	inc	$17                     ; 0x2017 <printf+0x8d8>
    2314: e6 14        	inc	$14                     ; 0x2014 <printf+0x8d5>
    2316: d0 02        	bne	$231a <memcpy+0x1f>
    2318: e6 15        	inc	$15                     ; 0x2015 <printf+0x8d6>
    231a: 88           	dey
    231b: c0 ff        	cpy	#$ff
    231d: d0 01        	bne	$2320 <memcpy+0x25>
    231f: ca           	dex
    2320: 8a           	txa
    2321: d0 e7        	bne	$230a <memcpy+0xf>
    2323: 98           	tya
    2324: d0 e4        	bne	$230a <memcpy+0xf>
    2326: 60           	rts

00002327 <__memset>:
    2327: a4 14        	ldy	$14                     ; 0x2014 <printf+0x8d5>
    2329: d0 04        	bne	$232f <__memset+0x8>
    232b: e0 00        	cpx	#$0
    232d: f0 17        	beq	$2346 <__memset+0x1f>
    232f: 92 12        	sta	($12)                   ; 0x2012 <printf+0x8d3>
    2331: e6 12        	inc	$12                     ; 0x2012 <printf+0x8d3>
    2333: d0 02        	bne	$2337 <__memset+0x10>
    2335: e6 13        	inc	$13                     ; 0x2013 <printf+0x8d4>
    2337: ca           	dex
    2338: e0 ff        	cpx	#$ff
    233a: d0 02        	bne	$233e <__memset+0x17>
    233c: c6 14        	dec	$14                     ; 0x2014 <printf+0x8d5>
    233e: a4 14        	ldy	$14                     ; 0x2014 <printf+0x8d5>
    2340: d0 ed        	bne	$232f <__memset+0x8>
    2342: e0 00        	cpx	#$0
    2344: d0 e9        	bne	$232f <__memset+0x8>
    2346: 60           	rts
