
BachHero.elf:	file format elf32-mos

SYMBOL TABLE:
00000000 l    df *ABS*	00000000 zero-bss.c
00000000 l    df *ABS*	00000000 zero-zp-bss.c
00000000 l    df *ABS*	00000000 copy-zp-data.c
00000000 l    df *ABS*	00000000 ld-temp.o
00000455 l     F .text	0000018c f256Init
00003a0c l     O .bss	00000002 kernelArgs
000000de l     O .zp.bss	00000007 kernelEventData
000005e1 l     F .text	00000176 textReset
00000757 l     F .text	0000016f bitmapReset
00003a1f l     O .bss	00000003 _tileSize
0000008e l     O .zp.bss	00000040 _spriteCtl
00003a22 l     O .bss	00000008 _dirStream
000000dd l     O .zp.bss	00000001 kernelError
00000032 l     O .zp.data	00000001 _ccolor
00000030 l     O .zp.data	00000001 _MAX_COL
00000031 l     O .zp.data	00000001 _MAX_ROW
00003549 l     O .data	00000030 textColors
0000008a l     O .zp.bss	00000001 _col
0000008b l     O .zp.bss	00000001 _row
0000008d l     O .zp.bss	00000001 _MAX_X
00003a1b l     O .bss	00000001 _MAX_Y
0000008c l     O .zp.bss	00000001 _active
00003a1a l     O .bss	00000001 _color
00003a0e l     O .bss	0000000c _BITMAP_BASE
00003a1c l     O .bss	00000003 _BITMAP_CLUT
000008cc l     F .text	00000d3c f256main
00001608 l     F .text	000002ef setup
000000cf l     O .zp.bss	00000003 GUITimer
000020e1 l     F .text	00000033 setTimer
000018f7 l     F .text	000000f6 writePianoKeyHelp
00002114 l     F .text	00000021 getTimerAbsolute
000000d8 l     O .zp.bss	00000003 scrollTimer
0000380a l     O .data	00000200 SIN
00000037 l     O .zp.data	00000001 midiPSG
000020c1 l     F .text	00000020 midiNoteOn
000020a1 l     F .text	00000020 midiNoteOff
00000038 l     O .zp.data	00000052 songNotes
000000db l     O .zp.bss	00000002 songrefnote
0000376a l     O .data	000000a0 NoteXPosition
00003579 l     O .data	00000080 MIDINotesToKeyCodes
00003674 l     O .data	0000007b KeyCodesToLoPSG
000036ef l     O .data	0000007b KeyCodesToHiPSG
000000ce l     O .zp.bss	00000001 score
00003152 l     F .text	00000028 putchar
000030f6 l     F .text	00000059 printf
00000033 l     O .zp.data	00000002 reticX
00000035 l     O .zp.data	00000002 reticY
000000d5 l     O .zp.bss	00000003 glassesTimer
000035f9 l     O .data	0000007b KeyCodesToMIDINotes
000000d2 l     O .zp.bss	00000003 midiTimer
000019ed l     F .text	0000044c bitmapLine
00001e39 l     F .text	0000025a textPrint
00003249 l     F .text	00000032 __mulhi3
00002093 l     F .text	0000000e __putchar
00003a2a l     O .bss	00000002 __putchar.s
00002143 l     F .text	00000002 _Exit
00002145 l     F .text	00000218 vfprintf
00003181 l     F .text	00000003 putc
0000235d l     F .text	00000b44 _ZN12_GLOBAL__N_15printEPKcP6Status
00002ea1 l     F .text	000000e1 _ZN12_GLOBAL__N_13putEcP6Status
000031db l     F .text	0000006e __simple_strtoui
00002f82 l     F .text	00000174 _ZN12_GLOBAL__N_112print_stringEPKcP6Status
00000372 l     F .text	00000003 _ZN6__impl6VarInt4makeEPvc
00000384 l     F .text	0000000d _ZNK6__impl6VarInt8negativeEv
00000392 l     F .text	00000047 _ZN6__impl6VarInt6negateEv
00000376 l     F .text	0000000d _ZNK6__impl6VarInt8high_bitEv
000003da l     F .text	0000003b _ZN6__impl6VarInt3shlEv
00003a0a l     O .data	00000002 stdout
0000314f l     F .text	00000003 fputc
0000317a l     F .text	00000007 putchar_wrapper
00003184 l     F .text	0000000b __from_ascii
000008c6 g     F .text	00000006 main
00018000 g       .xab	00000000 xab_start
00048000 g       .tileset2	00000000 tileset2_start
00039640 g       .psgmap	00000000 psgmap_end
00040000 g       .tileset1	00000000 tileset1_start
00038400 g       .glasses2	00000000 glasses2_start
0004ff00 g       .tileset2	00000000 tileset2_end
00038f20 g       .psgmap	00000000 psgmap_start
00038400 g       .glasses1	00000000 glasses1_end
00010000 g       .xaa	00000000 xaa_start
00028000 g       .palbach	00000000 palbach_start
00028400 g       .palbach	00000000 palbach_end
00020000 g       .xac	00000000 xac_start
00018000 g       .xaa	00000000 xaa_end
00038800 g       .glasses2	00000000 glasses2_end
00028800 g       .ntespr	00000000 ntespr_start
00022c00 g       .xac	00000000 xac_end
00028400 g       .paltile	00000000 paltile_start
00020000 g       .xab	00000000 xab_end
00028800 g       .paltile	00000000 paltile_end
00038000 g       .glasses1	00000000 glasses1_start
00038800 g       .tilemap	00000000 tilemap_start
00048000 g       .tileset1	00000000 tileset1_end
00028840 g       .ntespr	00000000 ntespr_end
00038f20 g       .tilemap	00000000 tilemap_end
0000036e g       .text	00000000 __after_main
0000035a g       .text	00000000 __do_init_stack
00000368 g       .text	00000000 __do_copy_zp_data
0000043e g     F .text	00000017 __copy_zp_data
00000362 g       .text	00000000 __do_zero_bss
00000418 g     F .text	00000013 __zero_bss
00000365 g       .text	00000000 __do_zero_zp_bss
0000042b g     F .text	00000013 __zero_zp_bss
00002135 g     F .text	0000000e exit
00000371 g       .text	00000000 _fini
00000415 g       .text	00000000 __call_indir
000031bb  w    F .text	00000020 __memset
00001000  w      *ABS*	00000000 __heap_default_limit
00003a2c g       .noinit	00000000 __heap_start
0000318f  w    F .text	0000002c memcpy
00000010 g       *ABS*	00000000 __rc0
00000012 g       *ABS*	00000000 __rc2
00000014 g       *ABS*	00000000 __rc4
00000016 g       *ABS*	00000000 __rc6
00000018 g       *ABS*	00000000 __rc8
0000001a g       *ABS*	00000000 __rc10
0000001c g       *ABS*	00000000 __rc12
0000001e g       *ABS*	00000000 __rc14
00000020 g       *ABS*	00000000 __rc16
00000022 g       *ABS*	00000000 __rc18
00000024 g       *ABS*	00000000 __rc20
00000026 g       *ABS*	00000000 __rc22
00000028 g       *ABS*	00000000 __rc24
0000002a g       *ABS*	00000000 __rc26
0000002c g       *ABS*	00000000 __rc28
0000002e g       *ABS*	00000000 __rc30
0000002f g       *ABS*	00000000 __rc31
00000300 g       *ABS*	00000000 __f256_start
0000c000 g       *ABS*	00000000 __stack
0000c000 g       *ABS*	00000000 __SLOT_ADDR
0800c000 g       *ABS*	00000000 __block8_lma
00002000 g       *ABS*	00000000 __BLOCK_SIZE
0900c000 g       *ABS*	00000000 __block9_lma
0a00c000 g       *ABS*	00000000 __block10_lma
0b00c000 g       *ABS*	00000000 __block11_lma
0c00c000 g       *ABS*	00000000 __block12_lma
0d00c000 g       *ABS*	00000000 __block13_lma
0e00c000 g       *ABS*	00000000 __block14_lma
0f00c000 g       *ABS*	00000000 __block15_lma
1000c000 g       *ABS*	00000000 __block16_lma
1100c000 g       *ABS*	00000000 __block17_lma
1200c000 g       *ABS*	00000000 __block18_lma
1300c000 g       *ABS*	00000000 __block19_lma
1400c000 g       *ABS*	00000000 __block20_lma
1500c000 g       *ABS*	00000000 __block21_lma
1600c000 g       *ABS*	00000000 __block22_lma
1700c000 g       *ABS*	00000000 __block23_lma
00010000 g       *ABS*	00000000 __xaa_lma
00008000 g       *ABS*	00000000 __xaa_size
00018000 g       *ABS*	00000000 __xab_lma
00008000 g       *ABS*	00000000 __xab_size
00020000 g       *ABS*	00000000 __xac_lma
00002c00 g       *ABS*	00000000 __xac_size
00028000 g       *ABS*	00000000 __palbach_lma
00000400 g       *ABS*	00000000 __palbach_size
00028400 g       *ABS*	00000000 __paltile_lma
00000400 g       *ABS*	00000000 __paltile_size
00028800 g       *ABS*	00000000 __ntespr_lma
00000040 g       *ABS*	00000000 __ntespr_size
00038000 g       *ABS*	00000000 __glasses1_lma
00000400 g       *ABS*	00000000 __glasses1_size
00038400 g       *ABS*	00000000 __glasses2_lma
00000400 g       *ABS*	00000000 __glasses2_size
00038800 g       *ABS*	00000000 __tilemap_lma
00000720 g       *ABS*	00000000 __tilemap_size
00038f20 g       *ABS*	00000000 __psgmap_lma
00000720 g       *ABS*	00000000 __psgmap_size
00040000 g       *ABS*	00000000 __tileset1_lma
00008000 g       *ABS*	00000000 __tileset1_size
00048000 g       *ABS*	00000000 __tileset2_lma
00007f00 g       *ABS*	00000000 __tileset2_size
00003a0c g       .bss	00000000 __bss_start
00018000 g       .xaa	00000000 end_xaa
00020000 g       .xab	00000000 end_xab
00022c00 g       .xac	00000000 end_xac
00028400 g       .palbach	00000000 end_palbach
00028800 g       .paltile	00000000 end_paltile
00028840 g       .ntespr	00000000 end_ntespr
00038400 g       .glasses1	00000000 end_glasses1
00038800 g       .glasses2	00000000 end_glasses2
00038f20 g       .tilemap	00000000 end_tilemap
00039640 g       .psgmap	00000000 end_psgmap
00048000 g       .tileset1	00000000 end_tileset1
0004ff00 g       .tileset2	00000000 end_tileset2
0000035a g       .text	00000000 _start
0000002d g       *ABS*	00000000 __rc29
0000002b g       *ABS*	00000000 __rc27
00000029 g       *ABS*	00000000 __rc25
00000027 g       *ABS*	00000000 __rc23
00000025 g       *ABS*	00000000 __rc21
00000023 g       *ABS*	00000000 __rc19
00000021 g       *ABS*	00000000 __rc17
0000001f g       *ABS*	00000000 __rc15
0000001d g       *ABS*	00000000 __rc13
0000001b g       *ABS*	00000000 __rc11
00000019 g       *ABS*	00000000 __rc9
00000017 g       *ABS*	00000000 __rc7
00000015 g       *ABS*	00000000 __rc5
00000013 g       *ABS*	00000000 __rc3
00000011 g       *ABS*	00000000 __rc1
00000030 g       .zp.data	00000000 __zp_data_start
00000300 g       *ABS*	00000000 __zp_data_load_start
0000005a g       *ABS*	00000000 __zp_data_size
0000008a g       .zp.bss	00000000 __zp_bss_start
0000005b g       *ABS*	00000000 __zp_bss_size
0000035a g       .text	00000000 _init
0000327b g       .text	00000000 __init_array_start
0000327b g       .text	00000000 __init_array_end
0000327b g       .text	00000000 __fini_array_start
0000327b g       .text	00000000 __fini_array_end
00003549 g       .data	00000000 __data_start
00003a0c g       .data	00000000 __data_end
00003549 g       *ABS*	00000000 __data_load_start
000004c3 g       *ABS*	00000000 __data_size
00003a2c g       .bss	00000000 __bss_end
00000020 g       *ABS*	00000000 __bss_size
00003a2c g       .noinit	00000000 end_block8
00003a2c g       .noinit	00000000 end_block9
00003a2c g       .noinit	00000000 end_block10
00003a2c g       .noinit	00000000 end_block11
00003a2c g       .noinit	00000000 end_block12
00003a2c g       .noinit	00000000 end_block13
00003a2c g       .noinit	00000000 end_block14
00003a2c g       .noinit	00000000 end_block15
00003a2c g       .noinit	00000000 end_block16
00003a2c g       .noinit	00000000 end_block17
00003a2c g       .noinit	00000000 end_block18
00003a2c g       .noinit	00000000 end_block19
00003a2c g       .noinit	00000000 end_block20
00003a2c g       .noinit	00000000 end_block21
00003a2c g       .noinit	00000000 end_block22
00003a2c g       .noinit	00000000 end_block23

Disassembly of section .text:

0000035a <_start>:
     35a: a9 00        	lda	#$0
     35c: 85 10        	sta	$10                     ; 0x2010 <textPrint+0x1d7>
     35e: a9 c0        	lda	#$c0
     360: 85 11        	sta	$11                     ; 0x2011 <textPrint+0x1d8>

00000362 <__do_zero_bss>:
     362: 20 18 04     	jsr	$418 <__zero_bss>

00000365 <__do_zero_zp_bss>:
     365: 20 2b 04     	jsr	$42b <__zero_zp_bss>

00000368 <__do_copy_zp_data>:
     368: 20 3e 04     	jsr	$43e <__copy_zp_data>
     36b: 20 c6 08     	jsr	$8c6 <main>

0000036e <__after_main>:
     36e: 4c 35 21     	jmp	$2135 <exit>

00000371 <_fini>:
     371: 60           	rts

00000372 <_ZN6__impl6VarInt4makeEPvc>:
     372: 92 12        	sta	($12)                   ; 0x2012 <textPrint+0x1d9>
     374: 60           	rts
     375: 00           	brk

00000376 <_ZNK6__impl6VarInt8high_bitEv>:
     376: b2 12        	lda	($12)                   ; 0x2012 <textPrint+0x1d9>
     378: a8           	tay
     379: b1 12        	lda	($12),y                 ; 0x2012 <textPrint+0x1d9>
     37b: 10 03        	bpl	$380 <_ZNK6__impl6VarInt8high_bitEv+0xa>
     37d: a9 01        	lda	#$1
     37f: 60           	rts
     380: a9 00        	lda	#$0
     382: 60           	rts
     383: 00           	brk

00000384 <_ZNK6__impl6VarInt8negativeEv>:
     384: b2 12        	lda	($12)                   ; 0x2012 <textPrint+0x1d9>
     386: a8           	tay
     387: b1 12        	lda	($12),y                 ; 0x2012 <textPrint+0x1d9>
     389: 10 03        	bpl	$38e <_ZNK6__impl6VarInt8negativeEv+0xa>
     38b: a9 01        	lda	#$1
     38d: 60           	rts
     38e: a9 00        	lda	#$0
     390: 60           	rts
     391: 00           	brk

00000392 <_ZN6__impl6VarInt6negateEv>:
     392: b2 12        	lda	($12)                   ; 0x2012 <textPrint+0x1d9>
     394: f0 42        	beq	$3d8 <_ZN6__impl6VarInt6negateEv+0x46>
     396: aa           	tax
     397: a4 12        	ldy	$12                     ; 0x2012 <textPrint+0x1d9>
     399: 84 16        	sty	$16                     ; 0x2016 <textPrint+0x1dd>
     39b: a4 13        	ldy	$13                     ; 0x2013 <textPrint+0x1da>
     39d: 84 17        	sty	$17                     ; 0x2017 <textPrint+0x1de>
     39f: 64 12        	stz	$12                     ; 0x2012 <textPrint+0x1d9>
     3a1: 64 13        	stz	$13                     ; 0x2013 <textPrint+0x1da>
     3a3: a0 01        	ldy	#$1
     3a5: a5 16        	lda	$16                     ; 0x2016 <textPrint+0x1dd>
     3a7: 18           	clc
     3a8: 65 12        	adc	$12                     ; 0x2012 <textPrint+0x1d9>
     3aa: 85 14        	sta	$14                     ; 0x2014 <textPrint+0x1db>
     3ac: a5 17        	lda	$17                     ; 0x2017 <textPrint+0x1de>
     3ae: 69 00        	adc	#$0
     3b0: 85 15        	sta	$15                     ; 0x2015 <textPrint+0x1dc>
     3b2: a9 00        	lda	#$0
     3b4: 38           	sec
     3b5: f1 14        	sbc	($14),y                 ; 0x2014 <textPrint+0x1db>
     3b7: 64 19        	stz	$19                     ; 0x2019 <textPrint+0x1e0>
     3b9: b0 02        	bcs	$3bd <_ZN6__impl6VarInt6negateEv+0x2b>
     3bb: 84 19        	sty	$19                     ; 0x2019 <textPrint+0x1e0>
     3bd: 38           	sec
     3be: e5 13        	sbc	$13                     ; 0x2013 <textPrint+0x1da>
     3c0: 85 18        	sta	$18                     ; 0x2018 <textPrint+0x1df>
     3c2: 64 13        	stz	$13                     ; 0x2013 <textPrint+0x1da>
     3c4: b0 02        	bcs	$3c8 <_ZN6__impl6VarInt6negateEv+0x36>
     3c6: 84 13        	sty	$13                     ; 0x2013 <textPrint+0x1da>
     3c8: a5 19        	lda	$19                     ; 0x2019 <textPrint+0x1e0>
     3ca: 05 13        	ora	$13                     ; 0x2013 <textPrint+0x1da>
     3cc: 85 13        	sta	$13                     ; 0x2013 <textPrint+0x1da>
     3ce: a5 18        	lda	$18                     ; 0x2018 <textPrint+0x1df>
     3d0: 91 14        	sta	($14),y                 ; 0x2014 <textPrint+0x1db>
     3d2: e6 12        	inc	$12                     ; 0x2012 <textPrint+0x1d9>
     3d4: e4 12        	cpx	$12                     ; 0x2012 <textPrint+0x1d9>
     3d6: d0 cd        	bne	$3a5 <_ZN6__impl6VarInt6negateEv+0x13>
     3d8: 60           	rts
     3d9: 00           	brk

000003da <_ZN6__impl6VarInt3shlEv>:
     3da: b2 12        	lda	($12)                   ; 0x2012 <textPrint+0x1d9>
     3dc: f0 36        	beq	$414 <_ZN6__impl6VarInt3shlEv+0x3a>
     3de: 85 17        	sta	$17                     ; 0x2017 <textPrint+0x1de>
     3e0: 64 14        	stz	$14                     ; 0x2014 <textPrint+0x1db>
     3e2: a6 12        	ldx	$12                     ; 0x2012 <textPrint+0x1d9>
     3e4: 86 15        	stx	$15                     ; 0x2015 <textPrint+0x1dc>
     3e6: a6 13        	ldx	$13                     ; 0x2013 <textPrint+0x1da>
     3e8: 86 18        	stx	$18                     ; 0x2018 <textPrint+0x1df>
     3ea: a0 01        	ldy	#$1
     3ec: 64 12        	stz	$12                     ; 0x2012 <textPrint+0x1d9>
     3ee: a5 15        	lda	$15                     ; 0x2015 <textPrint+0x1dc>
     3f0: 18           	clc
     3f1: 65 12        	adc	$12                     ; 0x2012 <textPrint+0x1d9>
     3f3: 85 16        	sta	$16                     ; 0x2016 <textPrint+0x1dd>
     3f5: a6 17        	ldx	$17                     ; 0x2017 <textPrint+0x1de>
     3f7: a5 18        	lda	$18                     ; 0x2018 <textPrint+0x1df>
     3f9: 69 00        	adc	#$0
     3fb: 85 17        	sta	$17                     ; 0x2017 <textPrint+0x1de>
     3fd: b1 16        	lda	($16),y                 ; 0x2016 <textPrint+0x1dd>
     3ff: 0a           	asl
     400: 64 13        	stz	$13                     ; 0x2013 <textPrint+0x1da>
     402: 26 13        	rol	$13                     ; 0x2013 <textPrint+0x1da>
     404: 05 14        	ora	$14                     ; 0x2014 <textPrint+0x1db>
     406: 91 16        	sta	($16),y                 ; 0x2016 <textPrint+0x1dd>
     408: e6 12        	inc	$12                     ; 0x2012 <textPrint+0x1d9>
     40a: a5 13        	lda	$13                     ; 0x2013 <textPrint+0x1da>
     40c: 85 14        	sta	$14                     ; 0x2014 <textPrint+0x1db>
     40e: 86 17        	stx	$17                     ; 0x2017 <textPrint+0x1de>
     410: e4 12        	cpx	$12                     ; 0x2012 <textPrint+0x1d9>
     412: d0 da        	bne	$3ee <_ZN6__impl6VarInt3shlEv+0x14>
     414: 60           	rts

00000415 <__call_indir>:
     415: 6c 22 00     	jmp	($22)                   ; 0x22 <__rc18>

00000418 <__zero_bss>:
     418: a2 20        	ldx	#$20
     41a: a0 00        	ldy	#$0
     41c: a9 0c        	lda	#$c
     41e: 85 12        	sta	$12                     ; 0x2012 <textPrint+0x1d9>
     420: a9 3a        	lda	#$3a
     422: 85 13        	sta	$13                     ; 0x2013 <textPrint+0x1da>
     424: a9 00        	lda	#$0
     426: 84 14        	sty	$14                     ; 0x2014 <textPrint+0x1db>
     428: 4c bb 31     	jmp	$31bb <__memset>

0000042b <__zero_zp_bss>:
     42b: a2 5b        	ldx	#$5b
     42d: a0 00        	ldy	#$0
     42f: a9 8a        	lda	#$8a
     431: 85 12        	sta	$12                     ; 0x2012 <textPrint+0x1d9>
     433: a9 00        	lda	#$0
     435: 85 13        	sta	$13                     ; 0x2013 <textPrint+0x1da>
     437: a9 00        	lda	#$0
     439: 84 14        	sty	$14                     ; 0x2014 <textPrint+0x1db>
     43b: 4c bb 31     	jmp	$31bb <__memset>

0000043e <__copy_zp_data>:
     43e: a9 5a        	lda	#$5a
     440: a2 00        	ldx	#$0
     442: a0 30        	ldy	#$30
     444: 84 12        	sty	$12                     ; 0x2012 <textPrint+0x1d9>
     446: a0 00        	ldy	#$0
     448: 84 13        	sty	$13                     ; 0x2013 <textPrint+0x1da>
     44a: a0 00        	ldy	#$0
     44c: 84 14        	sty	$14                     ; 0x2014 <textPrint+0x1db>
     44e: a0 03        	ldy	#$3
     450: 84 15        	sty	$15                     ; 0x2015 <textPrint+0x1dc>
     452: 4c 8f 31     	jmp	$318f <memcpy>

00000455 <f256Init>:
     455: 64 12        	stz	$12                     ; 0x2012 <textPrint+0x1d9>
     457: 64 01        	stz	$1                      ; 0x2001 <textPrint+0x1c8>
     459: a2 3f        	ldx	#$3f
     45b: 8e 00 d0     	stx	$d000                   ; 0xd000 <end_block9+0x95d4>
     45e: a2 b3        	ldx	#$b3
     460: 86 00        	stx	$0                      ; 0x2000 <textPrint+0x1c7>
     462: 64 08        	stz	$8                      ; 0x2008 <textPrint+0x1cf>
     464: a2 01        	ldx	#$1
     466: 86 09        	stx	$9                      ; 0x2009 <textPrint+0x1d0>
     468: e8           	inx
     469: 86 0a        	stx	$a                      ; 0x200a <textPrint+0x1d1>
     46b: e8           	inx
     46c: 86 0b        	stx	$b                      ; 0x200b <textPrint+0x1d2>
     46e: e8           	inx
     46f: 86 0c        	stx	$c                      ; 0x200c <textPrint+0x1d3>
     471: e8           	inx
     472: 86 0d        	stx	$d                      ; 0x200d <textPrint+0x1d4>
     474: a2 f0        	ldx	#$f0
     476: 8e 0c 3a     	stx	$3a0c                   ; 0x3a0c <kernelArgs>
     479: 9c 0d 3a     	stz	$3a0d                   ; 0x3a0d <kernelArgs+0x1>
     47c: a2 de        	ldx	#$de
     47e: a0 00        	ldy	#$0
     480: 86 f0        	stx	$f0                     ; 0x20f0 <setTimer+0xf>
     482: 84 f1        	sty	$f1                     ; 0x20f1 <setTimer+0x10>
     484: a2 00        	ldx	#$0
     486: 86 16        	stx	$16                     ; 0x2016 <textPrint+0x1dd>
     488: ca           	dex
     489: 86 17        	stx	$17                     ; 0x2017 <textPrint+0x1de>
     48b: 8a           	txa
     48c: 0a           	asl
     48d: 0a           	asl
     48e: 18           	clc
     48f: 69 d4        	adc	#$d4
     491: 85 18        	sta	$18                     ; 0x2018 <textPrint+0x1df>
     493: a0 00        	ldy	#$0
     495: 64 15        	stz	$15                     ; 0x2015 <textPrint+0x1dc>
     497: 64 14        	stz	$14                     ; 0x2014 <textPrint+0x1db>
     499: a6 17        	ldx	$17                     ; 0x2017 <textPrint+0x1de>
     49b: e0 03        	cpx	#$3
     49d: a6 01        	ldx	$1                      ; 0x2001 <textPrint+0x1c8>
     49f: 86 1a        	stx	$1a                     ; 0x201a <textPrint+0x1e1>
     4a1: a2 d0        	ldx	#$d0
     4a3: 84 19        	sty	$19                     ; 0x2019 <textPrint+0x1e0>
     4a5: b0 02        	bcs	$4a9 <f256Init+0x54>
     4a7: a6 18        	ldx	$18                     ; 0x2018 <textPrint+0x1df>
     4a9: 86 13        	stx	$13                     ; 0x2013 <textPrint+0x1da>
     4ab: a5 15        	lda	$15                     ; 0x2015 <textPrint+0x1dc>
     4ad: 18           	clc
     4ae: 65 12        	adc	$12                     ; 0x2012 <textPrint+0x1d9>
     4b0: a8           	tay
     4b1: a6 15        	ldx	$15                     ; 0x2015 <textPrint+0x1dc>
     4b3: a5 14        	lda	$14                     ; 0x2014 <textPrint+0x1db>
     4b5: 85 1b        	sta	$1b                     ; 0x201b <textPrint+0x1e2>
     4b7: a5 14        	lda	$14                     ; 0x2014 <textPrint+0x1db>
     4b9: 65 13        	adc	$13                     ; 0x2013 <textPrint+0x1da>
     4bb: 84 14        	sty	$14                     ; 0x2014 <textPrint+0x1db>
     4bd: a0 01        	ldy	#$1
     4bf: 84 01        	sty	$1                      ; 0x2001 <textPrint+0x1c8>
     4c1: 85 15        	sta	$15                     ; 0x2015 <textPrint+0x1dc>
     4c3: a5 19        	lda	$19                     ; 0x2019 <textPrint+0x1e0>
     4c5: 92 14        	sta	($14)                   ; 0x2014 <textPrint+0x1db>
     4c7: 91 14        	sta	($14),y                 ; 0x2014 <textPrint+0x1db>
     4c9: c8           	iny
     4ca: 91 14        	sta	($14),y                 ; 0x2014 <textPrint+0x1db>
     4cc: 85 13        	sta	$13                     ; 0x2013 <textPrint+0x1da>
     4ce: c8           	iny
     4cf: a9 ff        	lda	#$ff
     4d1: 91 14        	sta	($14),y                 ; 0x2014 <textPrint+0x1db>
     4d3: 8a           	txa
     4d4: a6 1a        	ldx	$1a                     ; 0x201a <textPrint+0x1e1>
     4d6: 86 01        	stx	$1                      ; 0x2001 <textPrint+0x1c8>
     4d8: 18           	clc
     4d9: 69 04        	adc	#$4
     4db: 85 15        	sta	$15                     ; 0x2015 <textPrint+0x1dc>
     4dd: a5 1b        	lda	$1b                     ; 0x201b <textPrint+0x1e2>
     4df: 69 00        	adc	#$0
     4e1: e6 13        	inc	$13                     ; 0x2013 <textPrint+0x1da>
     4e3: a4 13        	ldy	$13                     ; 0x2013 <textPrint+0x1da>
     4e5: 85 14        	sta	$14                     ; 0x2014 <textPrint+0x1db>
     4e7: c9 04        	cmp	#$4
     4e9: f0 03        	beq	$4ee <f256Init+0x99>
     4eb: 4c 99 04     	jmp	$499 <f256Init+0x44>
     4ee: a5 15        	lda	$15                     ; 0x2015 <textPrint+0x1dc>
     4f0: f0 03        	beq	$4f5 <f256Init+0xa0>
     4f2: 4c 99 04     	jmp	$499 <f256Init+0x44>
     4f5: a6 16        	ldx	$16                     ; 0x2016 <textPrint+0x1dd>
     4f7: e8           	inx
     4f8: e0 04        	cpx	#$4
     4fa: f0 03        	beq	$4ff <f256Init+0xaa>
     4fc: 4c 86 04     	jmp	$486 <f256Init+0x31>
     4ff: ad 02 d0     	lda	$d002                   ; 0xd002 <end_block9+0x95d6>
     502: 29 f0        	and	#$f0
     504: 8d 02 d0     	sta	$d002                   ; 0xd002 <end_block9+0x95d6>
     507: ad 02 d0     	lda	$d002                   ; 0xd002 <end_block9+0x95d6>
     50a: 29 0f        	and	#$f
     50c: 09 10        	ora	#$10
     50e: 8d 02 d0     	sta	$d002                   ; 0xd002 <end_block9+0x95d6>
     511: a2 02        	ldx	#$2
     513: 8e 03 d0     	stx	$d003                   ; 0xd003 <end_block9+0x95d7>
     516: 20 e1 05     	jsr	$5e1 <textReset>
     519: 20 57 07     	jsr	$757 <bitmapReset>
     51c: a9 10        	lda	#$10
     51e: a2 08        	ldx	#$8
     520: 8e 1f 3a     	stx	$3a1f                   ; 0x3a1f <_tileSize>
     523: 8e 20 3a     	stx	$3a20                   ; 0x3a20 <_tileSize+0x1>
     526: 8e 21 3a     	stx	$3a21                   ; 0x3a21 <_tileSize+0x2>
     529: 8d 00 d2     	sta	$d200                   ; 0xd200 <end_block9+0x97d4>
     52c: ac 20 3a     	ldy	$3a20                   ; 0x3a20 <_tileSize+0x1>
     52f: aa           	tax
     530: c0 08        	cpy	#$8
     532: f0 02        	beq	$536 <f256Init+0xe1>
     534: a2 00        	ldx	#$0
     536: 8e 0c d2     	stx	$d20c                   ; 0xd20c <end_block9+0x97e0>
     539: ae 21 3a     	ldx	$3a21                   ; 0x3a21 <_tileSize+0x2>
     53c: e0 08        	cpx	#$8
     53e: f0 02        	beq	$542 <f256Init+0xed>
     540: a9 00        	lda	#$0
     542: 8d 18 d2     	sta	$d218                   ; 0xd218 <end_block9+0x97ec>
     545: a0 d9        	ldy	#$d9
     547: a2 00        	ldx	#$0
     549: 64 12        	stz	$12                     ; 0x2012 <textPrint+0x1d9>
     54b: 84 13        	sty	$13                     ; 0x2013 <textPrint+0x1da>
     54d: b5 8e        	lda	$8e,x                   ; 0x208e <textPrint+0x255>
     54f: 92 12        	sta	($12)                   ; 0x2012 <textPrint+0x1d9>
     551: e8           	inx
     552: 18           	clc
     553: a5 12        	lda	$12                     ; 0x2012 <textPrint+0x1d9>
     555: 69 08        	adc	#$8
     557: 85 12        	sta	$12                     ; 0x2012 <textPrint+0x1d9>
     559: 98           	tya
     55a: 69 00        	adc	#$0
     55c: a8           	tay
     55d: e0 40        	cpx	#$40
     55f: d0 ea        	bne	$54b <f256Init+0xf6>
     561: 9c 22 3a     	stz	$3a22                   ; 0x3a22 <_dirStream>
     564: 9c 23 3a     	stz	$3a23                   ; 0x3a23 <_dirStream+0x1>
     567: 9c 24 3a     	stz	$3a24                   ; 0x3a24 <_dirStream+0x2>
     56a: 9c 25 3a     	stz	$3a25                   ; 0x3a25 <_dirStream+0x3>
     56d: 9c 26 3a     	stz	$3a26                   ; 0x3a26 <_dirStream+0x4>
     570: 9c 27 3a     	stz	$3a27                   ; 0x3a27 <_dirStream+0x5>
     573: 9c 28 3a     	stz	$3a28                   ; 0x3a28 <_dirStream+0x6>
     576: 9c 29 3a     	stz	$3a29                   ; 0x3a29 <_dirStream+0x7>
     579: ad 0c 3a     	lda	$3a0c                   ; 0x3a0c <kernelArgs>
     57c: ae 0d 3a     	ldx	$3a0d                   ; 0x3a0d <kernelArgs+0x1>
     57f: 85 12        	sta	$12                     ; 0x2012 <textPrint+0x1d9>
     581: 86 13        	stx	$13                     ; 0x2013 <textPrint+0x1da>
     583: a0 0b        	ldy	#$b
     585: 18           	clc
     586: 69 0b        	adc	#$b
     588: 85 14        	sta	$14                     ; 0x2014 <textPrint+0x1db>
     58a: 8a           	txa
     58b: 69 00        	adc	#$0
     58d: 85 15        	sta	$15                     ; 0x2015 <textPrint+0x1dc>
     58f: a9 e5        	lda	#$e5
     591: 91 12        	sta	($12),y                 ; 0x2012 <textPrint+0x1d9>
     593: a0 01        	ldy	#$1
     595: a9 00        	lda	#$0
     597: 91 14        	sta	($14),y                 ; 0x2014 <textPrint+0x1db>
     599: a0 0d        	ldy	#$d
     59b: a9 08        	lda	#$8
     59d: 91 12        	sta	($12),y                 ; 0x2012 <textPrint+0x1d9>
     59f: a2 ed        	ldx	#$ed
     5a1: a0 00        	ldy	#$0
     5a3: 86 12        	stx	$12                     ; 0x2012 <textPrint+0x1d9>
     5a5: 84 13        	sty	$13                     ; 0x2013 <textPrint+0x1da>
     5a7: a2 dd        	ldx	#$dd
     5a9: 86 14        	stx	$14                     ; 0x2014 <textPrint+0x1db>
     5ab: a2 00        	ldx	#$0
     5ad: 86 15        	stx	$15                     ; 0x2015 <textPrint+0x1dc>
     5af: 20 dc ff     	jsr	$ffdc <end_block9+0xc5b0>
     5b2: 92 12        	sta	($12)                   ; 0x2012 <textPrint+0x1d9>
     5b4: a9 00        	lda	#$0
     5b6: 6a           	ror
     5b7: 85 14        	sta	$14                     ; 0x2014 <textPrint+0x1db>
     5b9: a6 eb        	ldx	$eb                     ; 0x20eb <setTimer+0xa>
     5bb: a4 ec        	ldy	$ec                     ; 0x20ec <setTimer+0xb>
     5bd: 8e 00 de     	stx	$de00                   ; 0xde00 <end_block9+0xa3d4>
     5c0: 9c 01 de     	stz	$de01                   ; 0xde01 <end_block9+0xa3d5>
     5c3: 8c 02 de     	sty	$de02                   ; 0xde02 <end_block9+0xa3d6>
     5c6: 9c 03 de     	stz	$de03                   ; 0xde03 <end_block9+0xa3d7>
     5c9: ae 10 de     	ldx	$de10                   ; 0xde10 <end_block9+0xa3e4>
     5cc: ac 11 de     	ldy	$de11                   ; 0xde11 <end_block9+0xa3e5>
     5cf: ad 12 de     	lda	$de12                   ; 0xde12 <end_block9+0xa3e6>
     5d2: ad 13 de     	lda	$de13                   ; 0xde13 <end_block9+0xa3e7>
     5d5: 8e a4 d6     	stx	$d6a4                   ; 0xd6a4 <end_block9+0x9c78>
     5d8: 8c a5 d6     	sty	$d6a5                   ; 0xd6a5 <end_block9+0x9c79>
     5db: a2 03        	ldx	#$3
     5dd: 8e a6 d6     	stx	$d6a6                   ; 0xd6a6 <end_block9+0x9c7a>
     5e0: 60           	rts

000005e1 <textReset>:
     5e1: 64 14        	stz	$14                     ; 0x2014 <textPrint+0x1db>
     5e3: a2 00        	ldx	#$0
     5e5: 86 12        	stx	$12                     ; 0x2012 <textPrint+0x1d9>
     5e7: a2 c0        	ldx	#$c0
     5e9: 86 13        	stx	$13                     ; 0x2013 <textPrint+0x1da>
     5eb: a2 f0        	ldx	#$f0
     5ed: 86 32        	stx	$32                     ; 0x2032 <textPrint+0x1f9>
     5ef: ad 01 d0     	lda	$d001                   ; 0xd001 <end_block9+0x95d5>
     5f2: 29 f9        	and	#$f9
     5f4: 09 04        	ora	#$4
     5f6: 8d 01 d0     	sta	$d001                   ; 0xd001 <end_block9+0x95d5>
     5f9: a2 50        	ldx	#$50
     5fb: 86 30        	stx	$30                     ; 0x2030 <textPrint+0x1f7>
     5fd: a2 1e        	ldx	#$1e
     5ff: 86 31        	stx	$31                     ; 0x2031 <textPrint+0x1f8>
     601: 9c 10 d0     	stz	$d010                   ; 0xd010 <end_block9+0x95e4>
     604: a0 00        	ldy	#$0
     606: a2 00        	ldx	#$0
     608: 84 18        	sty	$18                     ; 0x2018 <textPrint+0x1df>
     60a: b9 49 35     	lda	$3549,y                 ; 0x3549 <textColors>
     60d: 85 1b        	sta	$1b                     ; 0x201b <textPrint+0x1e2>
     60f: b9 4a 35     	lda	$354a,y                 ; 0x354a <textColors+0x1>
     612: 85 1c        	sta	$1c                     ; 0x201c <textPrint+0x1e3>
     614: b9 4b 35     	lda	$354b,y                 ; 0x354b <textColors+0x2>
     617: 85 1d        	sta	$1d                     ; 0x201d <textPrint+0x1e4>
     619: 84 1a        	sty	$1a                     ; 0x201a <textPrint+0x1e1>
     61b: 8e 00 de     	stx	$de00                   ; 0xde00 <end_block9+0xa3d4>
     61e: 9c 01 de     	stz	$de01                   ; 0xde01 <end_block9+0xa3d5>
     621: a0 04        	ldy	#$4
     623: 8c 02 de     	sty	$de02                   ; 0xde02 <end_block9+0xa3d6>
     626: 9c 03 de     	stz	$de03                   ; 0xde03 <end_block9+0xa3d7>
     629: ac 10 de     	ldy	$de10                   ; 0xde10 <end_block9+0xa3e4>
     62c: ad 11 de     	lda	$de11                   ; 0xde11 <end_block9+0xa3e5>
     62f: 85 15        	sta	$15                     ; 0x2015 <textPrint+0x1dc>
     631: 18           	clc
     632: 98           	tya
     633: 65 14        	adc	$14                     ; 0x2014 <textPrint+0x1db>
     635: 85 16        	sta	$16                     ; 0x2016 <textPrint+0x1dd>
     637: a9 d8        	lda	#$d8
     639: 65 15        	adc	$15                     ; 0x2015 <textPrint+0x1dc>
     63b: 86 19        	stx	$19                     ; 0x2019 <textPrint+0x1e0>
     63d: ae 12 de     	ldx	$de12                   ; 0xde12 <end_block9+0xa3e6>
     640: ae 13 de     	ldx	$de13                   ; 0xde13 <end_block9+0xa3e7>
     643: 85 17        	sta	$17                     ; 0x2017 <textPrint+0x1de>
     645: a5 1d        	lda	$1d                     ; 0x201d <textPrint+0x1e4>
     647: 92 16        	sta	($16)                   ; 0x2016 <textPrint+0x1dd>
     649: a0 01        	ldy	#$1
     64b: a5 1c        	lda	$1c                     ; 0x201c <textPrint+0x1e3>
     64d: 91 16        	sta	($16),y                 ; 0x2016 <textPrint+0x1dd>
     64f: c8           	iny
     650: a5 1b        	lda	$1b                     ; 0x201b <textPrint+0x1e2>
     652: 91 16        	sta	($16),y                 ; 0x2016 <textPrint+0x1dd>
     654: c8           	iny
     655: a9 ff        	lda	#$ff
     657: 91 16        	sta	($16),y                 ; 0x2016 <textPrint+0x1dd>
     659: a6 1a        	ldx	$1a                     ; 0x201a <textPrint+0x1e1>
     65b: bc 49 35     	ldy	$3549,x                 ; 0x3549 <textColors>
     65e: 84 1a        	sty	$1a                     ; 0x201a <textPrint+0x1e1>
     660: bc 4a 35     	ldy	$354a,x                 ; 0x354a <textColors+0x1>
     663: 84 1b        	sty	$1b                     ; 0x201b <textPrint+0x1e2>
     665: bd 4b 35     	lda	$354b,x                 ; 0x354b <textColors+0x2>
     668: aa           	tax
     669: 86 1c        	stx	$1c                     ; 0x201c <textPrint+0x1e3>
     66b: a6 19        	ldx	$19                     ; 0x2019 <textPrint+0x1e0>
     66d: 8e 00 de     	stx	$de00                   ; 0xde00 <end_block9+0xa3d4>
     670: 9c 01 de     	stz	$de01                   ; 0xde01 <end_block9+0xa3d5>
     673: a2 04        	ldx	#$4
     675: 8e 02 de     	stx	$de02                   ; 0xde02 <end_block9+0xa3d6>
     678: 9c 03 de     	stz	$de03                   ; 0xde03 <end_block9+0xa3d7>
     67b: ae 10 de     	ldx	$de10                   ; 0xde10 <end_block9+0xa3e4>
     67e: 86 15        	stx	$15                     ; 0x2015 <textPrint+0x1dc>
     680: ae 11 de     	ldx	$de11                   ; 0xde11 <end_block9+0xa3e5>
     683: 86 16        	stx	$16                     ; 0x2016 <textPrint+0x1dd>
     685: a9 40        	lda	#$40
     687: 18           	clc
     688: 65 15        	adc	$15                     ; 0x2015 <textPrint+0x1dc>
     68a: aa           	tax
     68b: a9 d8        	lda	#$d8
     68d: 65 16        	adc	$16                     ; 0x2016 <textPrint+0x1dd>
     68f: 86 16        	stx	$16                     ; 0x2016 <textPrint+0x1dd>
     691: ae 12 de     	ldx	$de12                   ; 0xde12 <end_block9+0xa3e6>
     694: 85 17        	sta	$17                     ; 0x2017 <textPrint+0x1de>
     696: ae 13 de     	ldx	$de13                   ; 0xde13 <end_block9+0xa3e7>
     699: a6 19        	ldx	$19                     ; 0x2019 <textPrint+0x1e0>
     69b: a5 1c        	lda	$1c                     ; 0x201c <textPrint+0x1e3>
     69d: 92 16        	sta	($16)                   ; 0x2016 <textPrint+0x1dd>
     69f: a0 01        	ldy	#$1
     6a1: a5 1b        	lda	$1b                     ; 0x201b <textPrint+0x1e2>
     6a3: 91 16        	sta	($16),y                 ; 0x2016 <textPrint+0x1dd>
     6a5: c8           	iny
     6a6: a5 1a        	lda	$1a                     ; 0x201a <textPrint+0x1e1>
     6a8: 91 16        	sta	($16),y                 ; 0x2016 <textPrint+0x1dd>
     6aa: a9 ff        	lda	#$ff
     6ac: c8           	iny
     6ad: 91 16        	sta	($16),y                 ; 0x2016 <textPrint+0x1dd>
     6af: e8           	inx
     6b0: 18           	clc
     6b1: a5 18        	lda	$18                     ; 0x2018 <textPrint+0x1df>
     6b3: 69 03        	adc	#$3
     6b5: a8           	tay
     6b6: c9 30        	cmp	#$30
     6b8: f0 03        	beq	$6bd <textReset+0xdc>
     6ba: 4c 08 06     	jmp	$608 <textReset+0x27>
     6bd: a6 01        	ldx	$1                      ; 0x2001 <textPrint+0x1c8>
     6bf: 86 18        	stx	$18                     ; 0x2018 <textPrint+0x1df>
     6c1: a6 30        	ldx	$30                     ; 0x2030 <textPrint+0x1f7>
     6c3: a4 31        	ldy	$31                     ; 0x2031 <textPrint+0x1f8>
     6c5: 8e 00 de     	stx	$de00                   ; 0xde00 <end_block9+0xa3d4>
     6c8: 9c 01 de     	stz	$de01                   ; 0xde01 <end_block9+0xa3d5>
     6cb: 8c 02 de     	sty	$de02                   ; 0xde02 <end_block9+0xa3d6>
     6ce: 9c 03 de     	stz	$de03                   ; 0xde03 <end_block9+0xa3d7>
     6d1: ae 10 de     	ldx	$de10                   ; 0xde10 <end_block9+0xa3e4>
     6d4: ac 11 de     	ldy	$de11                   ; 0xde11 <end_block9+0xa3e5>
     6d7: ad 12 de     	lda	$de12                   ; 0xde12 <end_block9+0xa3e6>
     6da: ad 13 de     	lda	$de13                   ; 0xde13 <end_block9+0xa3e7>
     6dd: a9 02        	lda	#$2
     6df: 85 01        	sta	$1                      ; 0x2001 <textPrint+0x1c8>
     6e1: e0 01        	cpx	#$1
     6e3: 98           	tya
     6e4: e9 00        	sbc	#$0
     6e6: 50 02        	bvc	$6ea <textReset+0x109>
     6e8: 49 80        	eor	#$80
     6ea: c9 00        	cmp	#$0
     6ec: 30 50        	bmi	$73e <textReset+0x15d>
     6ee: a9 20        	lda	#$20
     6f0: 86 19        	stx	$19                     ; 0x2019 <textPrint+0x1e0>
     6f2: 86 14        	stx	$14                     ; 0x2014 <textPrint+0x1db>
     6f4: 84 15        	sty	$15                     ; 0x2015 <textPrint+0x1dc>
     6f6: a2 00        	ldx	#$0
     6f8: 86 16        	stx	$16                     ; 0x2016 <textPrint+0x1dd>
     6fa: a2 c0        	ldx	#$c0
     6fc: 86 17        	stx	$17                     ; 0x2017 <textPrint+0x1de>
     6fe: 80 04        	bra	$704 <textReset+0x123>
     700: a6 15        	ldx	$15                     ; 0x2015 <textPrint+0x1dc>
     702: f0 14        	beq	$718 <textReset+0x137>
     704: 92 16        	sta	($16)                   ; 0x2016 <textPrint+0x1dd>
     706: e6 16        	inc	$16                     ; 0x2016 <textPrint+0x1dd>
     708: d0 02        	bne	$70c <textReset+0x12b>
     70a: e6 17        	inc	$17                     ; 0x2017 <textPrint+0x1de>
     70c: a2 ff        	ldx	#$ff
     70e: c6 14        	dec	$14                     ; 0x2014 <textPrint+0x1db>
     710: e4 14        	cpx	$14                     ; 0x2014 <textPrint+0x1db>
     712: d0 ec        	bne	$700 <textReset+0x11f>
     714: c6 15        	dec	$15                     ; 0x2015 <textPrint+0x1dc>
     716: 80 e8        	bra	$700 <textReset+0x11f>
     718: a6 14        	ldx	$14                     ; 0x2014 <textPrint+0x1db>
     71a: d0 e8        	bne	$704 <textReset+0x123>
     71c: a2 03        	ldx	#$3
     71e: 86 01        	stx	$1                      ; 0x2001 <textPrint+0x1c8>
     720: a6 19        	ldx	$19                     ; 0x2019 <textPrint+0x1e0>
     722: 80 03        	bra	$727 <textReset+0x146>
     724: 98           	tya
     725: f0 12        	beq	$739 <textReset+0x158>
     727: a5 32        	lda	$32                     ; 0x2032 <textPrint+0x1f9>
     729: 92 12        	sta	($12)                   ; 0x2012 <textPrint+0x1d9>
     72b: e6 12        	inc	$12                     ; 0x2012 <textPrint+0x1d9>
     72d: d0 02        	bne	$731 <textReset+0x150>
     72f: e6 13        	inc	$13                     ; 0x2013 <textPrint+0x1da>
     731: ca           	dex
     732: e0 ff        	cpx	#$ff
     734: d0 ee        	bne	$724 <textReset+0x143>
     736: 88           	dey
     737: 80 eb        	bra	$724 <textReset+0x143>
     739: 8a           	txa
     73a: d0 eb        	bne	$727 <textReset+0x146>
     73c: 80 04        	bra	$742 <textReset+0x161>
     73e: a2 03        	ldx	#$3
     740: 86 01        	stx	$1                      ; 0x2001 <textPrint+0x1c8>
     742: a6 18        	ldx	$18                     ; 0x2018 <textPrint+0x1df>
     744: 86 01        	stx	$1                      ; 0x2001 <textPrint+0x1c8>
     746: 64 8a        	stz	$8a                     ; 0x208a <textPrint+0x251>
     748: 9c 14 d0     	stz	$d014                   ; 0xd014 <end_block9+0x95e8>
     74b: 9c 15 d0     	stz	$d015                   ; 0xd015 <end_block9+0x95e9>
     74e: 64 8b        	stz	$8b                     ; 0x208b <textPrint+0x252>
     750: 9c 16 d0     	stz	$d016                   ; 0xd016 <end_block9+0x95ea>
     753: 9c 17 d0     	stz	$d017                   ; 0xd017 <end_block9+0x95eb>
     756: 60           	rts

00000757 <bitmapReset>:
     757: a2 01        	ldx	#$1
     759: 86 8d        	stx	$8d                     ; 0x208d <textPrint+0x254>
     75b: 8e 1b 3a     	stx	$3a1b                   ; 0x3a1b <_MAX_Y>
     75e: a0 40        	ldy	#$40
     760: 8c 00 de     	sty	$de00                   ; 0xde00 <end_block9+0xa3d4>
     763: 8e 01 de     	stx	$de01                   ; 0xde01 <end_block9+0xa3d5>
     766: a2 f0        	ldx	#$f0
     768: 8e 02 de     	stx	$de02                   ; 0xde02 <end_block9+0xa3d6>
     76b: 9c 03 de     	stz	$de03                   ; 0xde03 <end_block9+0xa3d7>
     76e: ae 10 de     	ldx	$de10                   ; 0xde10 <end_block9+0xa3e4>
     771: 86 17        	stx	$17                     ; 0x2017 <textPrint+0x1de>
     773: ae 11 de     	ldx	$de11                   ; 0xde11 <end_block9+0xa3e5>
     776: 86 12        	stx	$12                     ; 0x2012 <textPrint+0x1d9>
     778: ae 12 de     	ldx	$de12                   ; 0xde12 <end_block9+0xa3e6>
     77b: 86 13        	stx	$13                     ; 0x2013 <textPrint+0x1da>
     77d: ae 13 de     	ldx	$de13                   ; 0xde13 <end_block9+0xa3e7>
     780: 86 14        	stx	$14                     ; 0x2014 <textPrint+0x1db>
     782: 64 8c        	stz	$8c                     ; 0x208c <textPrint+0x253>
     784: a2 ff        	ldx	#$ff
     786: 8e 1a 3a     	stx	$3a1a                   ; 0x3a1a <_color>
     789: a6 12        	ldx	$12                     ; 0x2012 <textPrint+0x1d9>
     78b: 86 15        	stx	$15                     ; 0x2015 <textPrint+0x1dc>
     78d: 06 15        	asl	$15                     ; 0x2015 <textPrint+0x1dc>
     78f: a5 13        	lda	$13                     ; 0x2013 <textPrint+0x1da>
     791: 2a           	rol
     792: a6 14        	ldx	$14                     ; 0x2014 <textPrint+0x1db>
     794: 86 16        	stx	$16                     ; 0x2016 <textPrint+0x1dd>
     796: 26 16        	rol	$16                     ; 0x2016 <textPrint+0x1dd>
     798: 06 15        	asl	$15                     ; 0x2015 <textPrint+0x1dc>
     79a: 2a           	rol
     79b: 26 16        	rol	$16                     ; 0x2016 <textPrint+0x1dd>
     79d: 06 15        	asl	$15                     ; 0x2015 <textPrint+0x1dc>
     79f: 2a           	rol
     7a0: 26 16        	rol	$16                     ; 0x2016 <textPrint+0x1dd>
     7a2: 85 15        	sta	$15                     ; 0x2015 <textPrint+0x1dc>
     7a4: 8d 00 de     	sta	$de00                   ; 0xde00 <end_block9+0xa3d4>
     7a7: a5 16        	lda	$16                     ; 0x2016 <textPrint+0x1dd>
     7a9: 8d 01 de     	sta	$de01                   ; 0xde01 <end_block9+0xa3d5>
     7ac: 9c 02 de     	stz	$de02                   ; 0xde02 <end_block9+0xa3d6>
     7af: a2 20        	ldx	#$20
     7b1: 8e 03 de     	stx	$de03                   ; 0xde03 <end_block9+0xa3d7>
     7b4: ae 10 de     	ldx	$de10                   ; 0xde10 <end_block9+0xa3e4>
     7b7: 86 16        	stx	$16                     ; 0x2016 <textPrint+0x1dd>
     7b9: ae 11 de     	ldx	$de11                   ; 0xde11 <end_block9+0xa3e5>
     7bc: 86 18        	stx	$18                     ; 0x2018 <textPrint+0x1df>
     7be: ac 12 de     	ldy	$de12                   ; 0xde12 <end_block9+0xa3e6>
     7c1: ae 13 de     	ldx	$de13                   ; 0xde13 <end_block9+0xa3e7>
     7c4: e4 14        	cpx	$14                     ; 0x2014 <textPrint+0x1db>
     7c6: d0 14        	bne	$7dc <bitmapReset+0x85>
     7c8: c4 13        	cpy	$13                     ; 0x2013 <textPrint+0x1da>
     7ca: d0 10        	bne	$7dc <bitmapReset+0x85>
     7cc: a6 18        	ldx	$18                     ; 0x2018 <textPrint+0x1df>
     7ce: e4 12        	cpx	$12                     ; 0x2012 <textPrint+0x1d9>
     7d0: d0 0a        	bne	$7dc <bitmapReset+0x85>
     7d2: a6 16        	ldx	$16                     ; 0x2016 <textPrint+0x1dd>
     7d4: e4 17        	cpx	$17                     ; 0x2017 <textPrint+0x1de>
     7d6: d0 04        	bne	$7dc <bitmapReset+0x85>
     7d8: a6 15        	ldx	$15                     ; 0x2015 <textPrint+0x1dc>
     7da: 80 06        	bra	$7e2 <bitmapReset+0x8b>
     7dc: a6 15        	ldx	$15                     ; 0x2015 <textPrint+0x1dc>
     7de: e8           	inx
     7df: d0 01        	bne	$7e2 <bitmapReset+0x8b>
     7e1: 1a           	inc
     7e2: 8e 00 de     	stx	$de00                   ; 0xde00 <end_block9+0xa3d4>
     7e5: 8d 01 de     	sta	$de01                   ; 0xde01 <end_block9+0xa3d5>
     7e8: 9c 02 de     	stz	$de02                   ; 0xde02 <end_block9+0xa3d6>
     7eb: a2 20        	ldx	#$20
     7ed: 8e 03 de     	stx	$de03                   ; 0xde03 <end_block9+0xa3d7>
     7f0: ae 10 de     	ldx	$de10                   ; 0xde10 <end_block9+0xa3e4>
     7f3: 86 12        	stx	$12                     ; 0x2012 <textPrint+0x1d9>
     7f5: ae 11 de     	ldx	$de11                   ; 0xde11 <end_block9+0xa3e5>
     7f8: 86 13        	stx	$13                     ; 0x2013 <textPrint+0x1da>
     7fa: ae 12 de     	ldx	$de12                   ; 0xde12 <end_block9+0xa3e6>
     7fd: 86 14        	stx	$14                     ; 0x2014 <textPrint+0x1db>
     7ff: ae 13 de     	ldx	$de13                   ; 0xde13 <end_block9+0xa3e7>
     802: 86 15        	stx	$15                     ; 0x2015 <textPrint+0x1dc>
     804: a9 00        	lda	#$0
     806: 38           	sec
     807: e5 12        	sbc	$12                     ; 0x2012 <textPrint+0x1d9>
     809: 85 1a        	sta	$1a                     ; 0x201a <textPrint+0x1e1>
     80b: a9 00        	lda	#$0
     80d: e5 13        	sbc	$13                     ; 0x2013 <textPrint+0x1da>
     80f: 85 18        	sta	$18                     ; 0x2018 <textPrint+0x1df>
     811: a9 08        	lda	#$8
     813: e5 14        	sbc	$14                     ; 0x2014 <textPrint+0x1db>
     815: a8           	tay
     816: a9 00        	lda	#$0
     818: e5 15        	sbc	$15                     ; 0x2015 <textPrint+0x1dc>
     81a: 85 16        	sta	$16                     ; 0x2016 <textPrint+0x1dd>
     81c: a6 18        	ldx	$18                     ; 0x2018 <textPrint+0x1df>
     81e: 8e 0f 3a     	stx	$3a0f                   ; 0x3a0f <_BITMAP_BASE+0x1>
     821: 8c 10 3a     	sty	$3a10                   ; 0x3a10 <_BITMAP_BASE+0x2>
     824: 8d 11 3a     	sta	$3a11                   ; 0x3a11 <_BITMAP_BASE+0x3>
     827: a5 1a        	lda	$1a                     ; 0x201a <textPrint+0x1e1>
     829: 38           	sec
     82a: e5 12        	sbc	$12                     ; 0x2012 <textPrint+0x1d9>
     82c: 85 17        	sta	$17                     ; 0x2017 <textPrint+0x1de>
     82e: a5 18        	lda	$18                     ; 0x2018 <textPrint+0x1df>
     830: e5 13        	sbc	$13                     ; 0x2013 <textPrint+0x1da>
     832: 85 18        	sta	$18                     ; 0x2018 <textPrint+0x1df>
     834: 98           	tya
     835: e5 14        	sbc	$14                     ; 0x2014 <textPrint+0x1db>
     837: 85 19        	sta	$19                     ; 0x2019 <textPrint+0x1e0>
     839: a5 16        	lda	$16                     ; 0x2016 <textPrint+0x1dd>
     83b: e5 15        	sbc	$15                     ; 0x2015 <textPrint+0x1dc>
     83d: 85 16        	sta	$16                     ; 0x2016 <textPrint+0x1dd>
     83f: 38           	sec
     840: a6 17        	ldx	$17                     ; 0x2017 <textPrint+0x1de>
     842: 8e 12 3a     	stx	$3a12                   ; 0x3a12 <_BITMAP_BASE+0x4>
     845: a4 18        	ldy	$18                     ; 0x2018 <textPrint+0x1df>
     847: 8c 13 3a     	sty	$3a13                   ; 0x3a13 <_BITMAP_BASE+0x5>
     84a: a6 19        	ldx	$19                     ; 0x2019 <textPrint+0x1e0>
     84c: 8e 14 3a     	stx	$3a14                   ; 0x3a14 <_BITMAP_BASE+0x6>
     84f: 8d 15 3a     	sta	$3a15                   ; 0x3a15 <_BITMAP_BASE+0x7>
     852: a5 17        	lda	$17                     ; 0x2017 <textPrint+0x1de>
     854: e5 12        	sbc	$12                     ; 0x2012 <textPrint+0x1d9>
     856: 85 17        	sta	$17                     ; 0x2017 <textPrint+0x1de>
     858: a5 18        	lda	$18                     ; 0x2018 <textPrint+0x1df>
     85a: e5 13        	sbc	$13                     ; 0x2013 <textPrint+0x1da>
     85c: aa           	tax
     85d: a5 19        	lda	$19                     ; 0x2019 <textPrint+0x1e0>
     85f: e5 14        	sbc	$14                     ; 0x2014 <textPrint+0x1db>
     861: 85 13        	sta	$13                     ; 0x2013 <textPrint+0x1da>
     863: a5 16        	lda	$16                     ; 0x2016 <textPrint+0x1dd>
     865: e5 15        	sbc	$15                     ; 0x2015 <textPrint+0x1dc>
     867: 85 12        	sta	$12                     ; 0x2012 <textPrint+0x1d9>
     869: a5 17        	lda	$17                     ; 0x2017 <textPrint+0x1de>
     86b: 8d 16 3a     	sta	$3a16                   ; 0x3a16 <_BITMAP_BASE+0x8>
     86e: 8e 17 3a     	stx	$3a17                   ; 0x3a17 <_BITMAP_BASE+0x9>
     871: a6 13        	ldx	$13                     ; 0x2013 <textPrint+0x1da>
     873: 8e 18 3a     	stx	$3a18                   ; 0x3a18 <_BITMAP_BASE+0xa>
     876: a6 12        	ldx	$12                     ; 0x2012 <textPrint+0x1d9>
     878: 8e 19 3a     	stx	$3a19                   ; 0x3a19 <_BITMAP_BASE+0xb>
     87b: a6 1a        	ldx	$1a                     ; 0x201a <textPrint+0x1e1>
     87d: 8e 0e 3a     	stx	$3a0e                   ; 0x3a0e <_BITMAP_BASE>
     880: 9c 1c 3a     	stz	$3a1c                   ; 0x3a1c <_BITMAP_CLUT>
     883: 9c 1d 3a     	stz	$3a1d                   ; 0x3a1d <_BITMAP_CLUT+0x1>
     886: 9c 1e 3a     	stz	$3a1e                   ; 0x3a1e <_BITMAP_CLUT+0x2>
     889: 8e 01 d1     	stx	$d101                   ; 0xd101 <end_block9+0x96d5>
     88c: ae 0f 3a     	ldx	$3a0f                   ; 0x3a0f <_BITMAP_BASE+0x1>
     88f: 8e 02 d1     	stx	$d102                   ; 0xd102 <end_block9+0x96d6>
     892: ae 10 3a     	ldx	$3a10                   ; 0x3a10 <_BITMAP_BASE+0x2>
     895: 8e 03 d1     	stx	$d103                   ; 0xd103 <end_block9+0x96d7>
     898: ae 12 3a     	ldx	$3a12                   ; 0x3a12 <_BITMAP_BASE+0x4>
     89b: 8e 09 d1     	stx	$d109                   ; 0xd109 <end_block9+0x96dd>
     89e: ae 13 3a     	ldx	$3a13                   ; 0x3a13 <_BITMAP_BASE+0x5>
     8a1: 8e 0a d1     	stx	$d10a                   ; 0xd10a <end_block9+0x96de>
     8a4: ae 14 3a     	ldx	$3a14                   ; 0x3a14 <_BITMAP_BASE+0x6>
     8a7: 8e 0b d1     	stx	$d10b                   ; 0xd10b <end_block9+0x96df>
     8aa: ae 16 3a     	ldx	$3a16                   ; 0x3a16 <_BITMAP_BASE+0x8>
     8ad: 8e 11 d1     	stx	$d111                   ; 0xd111 <end_block9+0x96e5>
     8b0: ae 17 3a     	ldx	$3a17                   ; 0x3a17 <_BITMAP_BASE+0x9>
     8b3: 8e 12 d1     	stx	$d112                   ; 0xd112 <end_block9+0x96e6>
     8b6: ae 18 3a     	ldx	$3a18                   ; 0x3a18 <_BITMAP_BASE+0xa>
     8b9: 8e 13 d1     	stx	$d113                   ; 0xd113 <end_block9+0x96e7>
     8bc: 9c 00 d1     	stz	$d100                   ; 0xd100 <end_block9+0x96d4>
     8bf: 9c 08 d1     	stz	$d108                   ; 0xd108 <end_block9+0x96dc>
     8c2: 9c 10 d1     	stz	$d110                   ; 0xd110 <end_block9+0x96e4>
     8c5: 60           	rts

000008c6 <main>:
     8c6: 20 55 04     	jsr	$455 <f256Init>
     8c9: 20 cc 08     	jsr	$8cc <f256main>

000008cc <f256main>:
     8cc: 18           	clc
     8cd: a5 10        	lda	$10                     ; 0x2010 <textPrint+0x1d7>
     8cf: 69 f5        	adc	#$f5
     8d1: 85 10        	sta	$10                     ; 0x2010 <textPrint+0x1d7>
     8d3: a5 11        	lda	$11                     ; 0x2011 <textPrint+0x1d8>
     8d5: 69 ff        	adc	#$ff
     8d7: 85 11        	sta	$11                     ; 0x2011 <textPrint+0x1d8>
     8d9: 20 08 16     	jsr	$1608 <setup>
     8dc: a2 cf        	ldx	#$cf
     8de: 86 12        	stx	$12                     ; 0x2012 <textPrint+0x1d9>
     8e0: a2 00        	ldx	#$0
     8e2: 86 13        	stx	$13                     ; 0x2013 <textPrint+0x1da>
     8e4: 20 e1 20     	jsr	$20e1 <setTimer>
     8e7: a2 d9        	ldx	#$d9
     8e9: 8a           	txa
     8ea: a0 09        	ldy	#$9
     8ec: 91 10        	sta	($10),y                 ; 0x2010 <textPrint+0x1d7>
     8ee: a2 00        	ldx	#$0
     8f0: 8a           	txa
     8f1: 64 24        	stz	$24                     ; 0x2024 <textPrint+0x1eb>
     8f3: 85 16        	sta	$16                     ; 0x2016 <textPrint+0x1dd>
     8f5: 85 12        	sta	$12                     ; 0x2012 <textPrint+0x1d9>
     8f7: a0 09        	ldy	#$9
     8f9: b1 10        	lda	($10),y                 ; 0x2010 <textPrint+0x1d7>
     8fb: a8           	tay
     8fc: 85 13        	sta	$13                     ; 0x2013 <textPrint+0x1da>
     8fe: a9 60        	lda	#$60
     900: 9d 8e 00     	sta	$8e,x                   ; 0x8e <_spriteCtl>
     903: 92 12        	sta	($12)                   ; 0x2012 <textPrint+0x1d9>
     905: a5 16        	lda	$16                     ; 0x2016 <textPrint+0x1dd>
     907: 09 01        	ora	#$1
     909: 85 12        	sta	$12                     ; 0x2012 <textPrint+0x1d9>
     90b: a9 00        	lda	#$0
     90d: 92 12        	sta	($12)                   ; 0x2012 <textPrint+0x1d9>
     90f: a5 16        	lda	$16                     ; 0x2016 <textPrint+0x1dd>
     911: 09 02        	ora	#$2
     913: 85 12        	sta	$12                     ; 0x2012 <textPrint+0x1d9>
     915: a9 88        	lda	#$88
     917: 92 12        	sta	($12)                   ; 0x2012 <textPrint+0x1d9>
     919: a5 16        	lda	$16                     ; 0x2016 <textPrint+0x1dd>
     91b: 09 03        	ora	#$3
     91d: 85 12        	sta	$12                     ; 0x2012 <textPrint+0x1d9>
     91f: a9 02        	lda	#$2
     921: 92 12        	sta	($12)                   ; 0x2012 <textPrint+0x1d9>
     923: a5 16        	lda	$16                     ; 0x2016 <textPrint+0x1dd>
     925: e8           	inx
     926: 18           	clc
     927: 69 08        	adc	#$8
     929: 85 12        	sta	$12                     ; 0x2012 <textPrint+0x1d9>
     92b: 98           	tya
     92c: 69 00        	adc	#$0
     92e: a0 09        	ldy	#$9
     930: 91 10        	sta	($10),y                 ; 0x2010 <textPrint+0x1d7>
     932: a4 12        	ldy	$12                     ; 0x2012 <textPrint+0x1d9>
     934: a5 12        	lda	$12                     ; 0x2012 <textPrint+0x1d9>
     936: c0 48        	cpy	#$48
     938: d0 b9        	bne	$8f3 <f256main+0x27>
     93a: 64 98        	stz	$98                     ; 0x2098 <__putchar+0x5>
     93c: 9c 50 d9     	stz	$d950                   ; 0xd950 <end_block9+0x9f24>
     93f: 9c 51 d9     	stz	$d951                   ; 0xd951 <end_block9+0x9f25>
     942: a0 80        	ldy	#$80
     944: a2 80        	ldx	#$80
     946: 8a           	txa
     947: 5a           	phy
     948: a0 04        	ldy	#$4
     94a: 91 10        	sta	($10),y                 ; 0x2010 <textPrint+0x1d7>
     94c: 7a           	ply
     94d: 8c 52 d9     	sty	$d952                   ; 0xd952 <end_block9+0x9f26>
     950: a0 03        	ldy	#$3
     952: 8c 53 d9     	sty	$d953                   ; 0xd953 <end_block9+0x9f27>
     955: 64 99        	stz	$99                     ; 0x2099 <__putchar+0x6>
     957: 9c 58 d9     	stz	$d958                   ; 0xd958 <end_block9+0x9f2c>
     95a: 9c 59 d9     	stz	$d959                   ; 0xd959 <end_block9+0x9f2d>
     95d: a2 84        	ldx	#$84
     95f: 8e 5a d9     	stx	$d95a                   ; 0xd95a <end_block9+0x9f2e>
     962: 8c 5b d9     	sty	$d95b                   ; 0xd95b <end_block9+0x9f2f>
     965: 20 f7 18     	jsr	$18f7 <writePianoKeyHelp>
     968: a9 00        	lda	#$0
     96a: 20 14 21     	jsr	$2114 <getTimerAbsolute>
     96d: 18           	clc
     96e: 69 03        	adc	#$3
     970: 85 d9        	sta	$d9                     ; 0x20d9 <midiNoteOn+0x18>
     972: a2 d8        	ldx	#$d8
     974: 86 12        	stx	$12                     ; 0x2012 <textPrint+0x1d9>
     976: a2 00        	ldx	#$0
     978: 86 13        	stx	$13                     ; 0x2013 <textPrint+0x1da>
     97a: 20 e1 20     	jsr	$20e1 <setTimer>
     97d: 64 01        	stz	$1                      ; 0x2001 <textPrint+0x1c8>
     97f: 64 12        	stz	$12                     ; 0x2012 <textPrint+0x1d9>
     981: a9 00        	lda	#$0
     983: a0 05        	ldy	#$5
     985: 91 10        	sta	($10),y                 ; 0x2010 <textPrint+0x1d7>
     987: 64 27        	stz	$27                     ; 0x2027 <textPrint+0x1ee>
     989: a9 00        	lda	#$0
     98b: a0 08        	ldy	#$8
     98d: 91 10        	sta	($10),y                 ; 0x2010 <textPrint+0x1d7>
     98f: a9 00        	lda	#$0
     991: a0 02        	ldy	#$2
     993: 91 10        	sta	($10),y                 ; 0x2010 <textPrint+0x1d7>
     995: a0 07        	ldy	#$7
     997: 91 10        	sta	($10),y                 ; 0x2010 <textPrint+0x1d7>
     999: a0 09        	ldy	#$9
     99b: 91 10        	sta	($10),y                 ; 0x2010 <textPrint+0x1d7>
     99d: a2 13        	ldx	#$13
     99f: 8a           	txa
     9a0: a0 03        	ldy	#$3
     9a2: 91 10        	sta	($10),y                 ; 0x2010 <textPrint+0x1d7>
     9a4: 64 2e        	stz	$2e                     ; 0x202e <textPrint+0x1f5>
     9a6: a0 00        	ldy	#$0
     9a8: 64 2d        	stz	$2d                     ; 0x202d <textPrint+0x1f4>
     9aa: 4c 27 0a     	jmp	$a27 <f256main+0x15b>
     9ad: e6 27        	inc	$27                     ; 0x2027 <textPrint+0x1ee>
     9af: 18           	clc
     9b0: a0 04        	ldy	#$4
     9b2: b1 10        	lda	($10),y                 ; 0x2010 <textPrint+0x1d7>
     9b4: 69 02        	adc	#$2
     9b6: a8           	tay
     9b7: a5 27        	lda	$27                     ; 0x2027 <textPrint+0x1ee>
     9b9: 0a           	asl
     9ba: 85 12        	sta	$12                     ; 0x2012 <textPrint+0x1d9>
     9bc: a9 00        	lda	#$0
     9be: 2a           	rol
     9bf: 85 13        	sta	$13                     ; 0x2013 <textPrint+0x1da>
     9c1: a9 0a        	lda	#$a
     9c3: 18           	clc
     9c4: 65 12        	adc	$12                     ; 0x2012 <textPrint+0x1d9>
     9c6: aa           	tax
     9c7: a9 38        	lda	#$38
     9c9: 65 13        	adc	$13                     ; 0x2013 <textPrint+0x1da>
     9cb: 85 14        	sta	$14                     ; 0x2014 <textPrint+0x1db>
     9cd: 98           	tya
     9ce: 5a           	phy
     9cf: a0 04        	ldy	#$4
     9d1: 91 10        	sta	($10),y                 ; 0x2010 <textPrint+0x1d7>
     9d3: 7a           	ply
     9d4: 84 12        	sty	$12                     ; 0x2012 <textPrint+0x1d9>
     9d6: 06 12        	asl	$12                     ; 0x2012 <textPrint+0x1d9>
     9d8: 64 13        	stz	$13                     ; 0x2013 <textPrint+0x1da>
     9da: 26 13        	rol	$13                     ; 0x2013 <textPrint+0x1da>
     9dc: a9 0a        	lda	#$a
     9de: 18           	clc
     9df: 65 12        	adc	$12                     ; 0x2012 <textPrint+0x1d9>
     9e1: a8           	tay
     9e2: a9 38        	lda	#$38
     9e4: 65 13        	adc	$13                     ; 0x2013 <textPrint+0x1da>
     9e6: 85 15        	sta	$15                     ; 0x2015 <textPrint+0x1dc>
     9e8: 86 12        	stx	$12                     ; 0x2012 <textPrint+0x1d9>
     9ea: a6 14        	ldx	$14                     ; 0x2014 <textPrint+0x1db>
     9ec: 86 13        	stx	$13                     ; 0x2013 <textPrint+0x1da>
     9ee: b2 12        	lda	($12)                   ; 0x2012 <textPrint+0x1d9>
     9f0: 85 14        	sta	$14                     ; 0x2014 <textPrint+0x1db>
     9f2: 84 12        	sty	$12                     ; 0x2012 <textPrint+0x1d9>
     9f4: a6 15        	ldx	$15                     ; 0x2015 <textPrint+0x1dc>
     9f6: 86 13        	stx	$13                     ; 0x2013 <textPrint+0x1da>
     9f8: b2 12        	lda	($12)                   ; 0x2012 <textPrint+0x1d9>
     9fa: aa           	tax
     9fb: a5 14        	lda	$14                     ; 0x2014 <textPrint+0x1db>
     9fd: 4a           	lsr
     9fe: 29 1f        	and	#$1f
     a00: 8d 08 d2     	sta	$d208                   ; 0xd208 <end_block9+0x97dc>
     a03: 8a           	txa
     a04: 4a           	lsr
     a05: 29 1f        	and	#$1f
     a07: 9c 09 d2     	stz	$d209                   ; 0xd209 <end_block9+0x97dd>
     a0a: 8d 0a d2     	sta	$d20a                   ; 0xd20a <end_block9+0x97de>
     a0d: 9c 0b d2     	stz	$d20b                   ; 0xd20b <end_block9+0x97df>
     a10: a9 00        	lda	#$0
     a12: 20 14 21     	jsr	$2114 <getTimerAbsolute>
     a15: 18           	clc
     a16: 69 03        	adc	#$3
     a18: 85 d9        	sta	$d9                     ; 0x20d9 <midiNoteOn+0x18>
     a1a: a2 d8        	ldx	#$d8
     a1c: 86 12        	stx	$12                     ; 0x2012 <textPrint+0x1d9>
     a1e: a2 00        	ldx	#$0
     a20: 86 13        	stx	$13                     ; 0x2013 <textPrint+0x1da>
     a22: 20 e1 20     	jsr	$20e1 <setTimer>
     a25: a4 29        	ldy	$29                     ; 0x2029 <textPrint+0x1f0>
     a27: 84 21        	sty	$21                     ; 0x2021 <textPrint+0x1e8>
     a29: a0 04        	ldy	#$4
     a2b: b1 10        	lda	($10),y                 ; 0x2010 <textPrint+0x1d7>
     a2d: ad a0 dd     	lda	$dda0                   ; 0xdda0 <end_block9+0xa374>
     a30: 29 02        	and	#$2
     a32: 48           	pha
     a33: c8           	iny
     a34: b1 10        	lda	($10),y                 ; 0x2010 <textPrint+0x1d7>
     a36: 85 29        	sta	$29                     ; 0x2029 <textPrint+0x1f0>
     a38: 06 29        	asl	$29                     ; 0x2029 <textPrint+0x1f0>
     a3a: a2 01        	ldx	#$1
     a3c: b0 02        	bcs	$a40 <f256main+0x174>
     a3e: a2 00        	ldx	#$0
     a40: 86 18        	stx	$18                     ; 0x2018 <textPrint+0x1df>
     a42: 06 29        	asl	$29                     ; 0x2029 <textPrint+0x1f0>
     a44: a2 01        	ldx	#$1
     a46: b0 02        	bcs	$a4a <f256main+0x17e>
     a48: a2 00        	ldx	#$0
     a4a: 86 17        	stx	$17                     ; 0x2017 <textPrint+0x1de>
     a4c: a6 29        	ldx	$29                     ; 0x2029 <textPrint+0x1f0>
     a4e: 86 12        	stx	$12                     ; 0x2012 <textPrint+0x1d9>
     a50: 06 12        	asl	$12                     ; 0x2012 <textPrint+0x1d9>
     a52: a2 01        	ldx	#$1
     a54: b0 02        	bcs	$a58 <f256main+0x18c>
     a56: a2 00        	ldx	#$0
     a58: 86 16        	stx	$16                     ; 0x2016 <textPrint+0x1dd>
     a5a: a5 12        	lda	$12                     ; 0x2012 <textPrint+0x1d9>
     a5c: a0 06        	ldy	#$6
     a5e: 91 10        	sta	($10),y                 ; 0x2010 <textPrint+0x1d7>
     a60: a4 21        	ldy	$21                     ; 0x2021 <textPrint+0x1e8>
     a62: 68           	pla
     a63: d0 22        	bne	$a87 <f256main+0x1bb>
     a65: ae a2 dd     	ldx	$dda2                   ; 0xdda2 <end_block9+0xa376>
     a68: ad a3 dd     	lda	$dda3                   ; 0xdda3 <end_block9+0xa377>
     a6b: 29 0f        	and	#$f
     a6d: d0 04        	bne	$a73 <f256main+0x1a7>
     a6f: e0 00        	cpx	#$0
     a71: f0 14        	beq	$a87 <f256main+0x1bb>
     a73: 85 2f        	sta	$2f                     ; 0x202f <textPrint+0x1f6>
     a75: 5a           	phy
     a76: a0 05        	ldy	#$5
     a78: b1 10        	lda	($10),y                 ; 0x2010 <textPrint+0x1d7>
     a7a: 7a           	ply
     a7b: c9 00        	cmp	#$0
     a7d: 10 0f        	bpl	$a8e <f256main+0x1c2>
     a7f: a5 27        	lda	$27                     ; 0x2027 <textPrint+0x1ee>
     a81: 85 24        	sta	$24                     ; 0x2024 <textPrint+0x1eb>
     a83: a9 ff        	lda	#$ff
     a85: 80 0d        	bra	$a94 <f256main+0x1c8>
     a87: a6 27        	ldx	$27                     ; 0x2027 <textPrint+0x1ee>
     a89: 86 24        	stx	$24                     ; 0x2024 <textPrint+0x1eb>
     a8b: 4c d5 0d     	jmp	$dd5 <f256main+0x509>
     a8e: a5 27        	lda	$27                     ; 0x2027 <textPrint+0x1ee>
     a90: 85 24        	sta	$24                     ; 0x2024 <textPrint+0x1eb>
     a92: a9 00        	lda	#$0
     a94: 5a           	phy
     a95: a4 18        	ldy	$18                     ; 0x2018 <textPrint+0x1df>
     a97: c0 01        	cpy	#$1
     a99: 7a           	ply
     a9a: 2a           	rol
     a9b: 48           	pha
     a9c: 5a           	phy
     a9d: a0 06        	ldy	#$6
     a9f: b1 10        	lda	($10),y                 ; 0x2010 <textPrint+0x1d7>
     aa1: 7a           	ply
     aa2: 85 13        	sta	$13                     ; 0x2013 <textPrint+0x1da>
     aa4: 68           	pla
     aa5: 5a           	phy
     aa6: a4 17        	ldy	$17                     ; 0x2017 <textPrint+0x1de>
     aa8: c0 01        	cpy	#$1
     aaa: 7a           	ply
     aab: 2a           	rol
     aac: 85 12        	sta	$12                     ; 0x2012 <textPrint+0x1d9>
     aae: 85 15        	sta	$15                     ; 0x2015 <textPrint+0x1dc>
     ab0: a5 16        	lda	$16                     ; 0x2016 <textPrint+0x1dd>
     ab2: c9 01        	cmp	#$1
     ab4: 26 15        	rol	$15                     ; 0x2015 <textPrint+0x1dc>
     ab6: a5 13        	lda	$13                     ; 0x2013 <textPrint+0x1da>
     ab8: 18           	clc
     ab9: 65 29        	adc	$29                     ; 0x2029 <textPrint+0x1f0>
     abb: 85 25        	sta	$25                     ; 0x2025 <textPrint+0x1ec>
     abd: a5 15        	lda	$15                     ; 0x2015 <textPrint+0x1dc>
     abf: 65 12        	adc	$12                     ; 0x2012 <textPrint+0x1d9>
     ac1: 85 27        	sta	$27                     ; 0x2027 <textPrint+0x1ee>
     ac3: 18           	clc
     ac4: a5 13        	lda	$13                     ; 0x2013 <textPrint+0x1da>
     ac6: 65 29        	adc	$29                     ; 0x2029 <textPrint+0x1f0>
     ac8: 85 2a        	sta	$2a                     ; 0x202a <textPrint+0x1f1>
     aca: 86 2b        	stx	$2b                     ; 0x202b <textPrint+0x1f2>
     acc: 80 08        	bra	$ad6 <f256main+0x20a>
     ace: 85 2f        	sta	$2f                     ; 0x202f <textPrint+0x1f6>
     ad0: aa           	tax
     ad1: d0 03        	bne	$ad6 <f256main+0x20a>
     ad3: 4c ce 0d     	jmp	$dce <f256main+0x502>
     ad6: ad a1 dd     	lda	$dda1                   ; 0xdda1 <end_block9+0xa375>
     ad9: a6 2d        	ldx	$2d                     ; 0x202d <textPrint+0x1f4>
     adb: d0 03        	bne	$ae0 <f256main+0x214>
     add: 4c 73 0c     	jmp	$c73 <f256main+0x3a7>
     ae0: 85 2c        	sta	$2c                     ; 0x202c <textPrint+0x1f3>
     ae2: a6 37        	ldx	$37                     ; 0x2037 <textPrint+0x1fe>
     ae4: 98           	tya
     ae5: f0 1e        	beq	$b05 <f256main+0x239>
     ae7: 84 2d        	sty	$2d                     ; 0x202d <textPrint+0x1f4>
     ae9: 8a           	txa
     aea: d0 03        	bne	$aef <f256main+0x223>
     aec: 4c a5 0b     	jmp	$ba5 <f256main+0x2d9>
     aef: a5 26        	lda	$26                     ; 0x2026 <textPrint+0x1ed>
     af1: 18           	clc
     af2: 65 2a        	adc	$2a                     ; 0x202a <textPrint+0x1f1>
     af4: a2 6f        	ldx	#$6f
     af6: 86 12        	stx	$12                     ; 0x2012 <textPrint+0x1d9>
     af8: 64 13        	stz	$13                     ; 0x2013 <textPrint+0x1da>
     afa: aa           	tax
     afb: a9 01        	lda	#$1
     afd: 20 c1 20     	jsr	$20c1 <midiNoteOn>
     b00: a4 27        	ldy	$27                     ; 0x2027 <textPrint+0x1ee>
     b02: 4c df 0b     	jmp	$bdf <f256main+0x313>
     b05: 8a           	txa
     b06: f0 15        	beq	$b1d <f256main+0x251>
     b08: a5 26        	lda	$26                     ; 0x2026 <textPrint+0x1ed>
     b0a: 18           	clc
     b0b: 65 2a        	adc	$2a                     ; 0x202a <textPrint+0x1f1>
     b0d: a2 6f        	ldx	#$6f
     b0f: 86 12        	stx	$12                     ; 0x2012 <textPrint+0x1d9>
     b11: 64 13        	stz	$13                     ; 0x2013 <textPrint+0x1da>
     b13: aa           	tax
     b14: a9 01        	lda	#$1
     b16: 84 2d        	sty	$2d                     ; 0x202d <textPrint+0x1f4>
     b18: 20 a1 20     	jsr	$20a1 <midiNoteOff>
     b1b: a4 2d        	ldy	$2d                     ; 0x202d <textPrint+0x1f4>
     b1d: 5a           	phy
     b1e: a0 09        	ldy	#$9
     b20: b1 10        	lda	($10),y                 ; 0x2010 <textPrint+0x1d7>
     b22: 7a           	ply
     b23: aa           	tax
     b24: d0 03        	bne	$b29 <f256main+0x25d>
     b26: 4c 81 0c     	jmp	$c81 <f256main+0x3b5>
     b29: a9 00        	lda	#$0
     b2b: 48           	pha
     b2c: 5a           	phy
     b2d: a0 07        	ldy	#$7
     b2f: b1 10        	lda	($10),y                 ; 0x2010 <textPrint+0x1d7>
     b31: 7a           	ply
     b32: aa           	tax
     b33: 68           	pla
     b34: e0 00        	cpx	#$0
     b36: d0 03        	bne	$b3b <f256main+0x26f>
     b38: 4c 83 0c     	jmp	$c83 <f256main+0x3b7>
     b3b: 48           	pha
     b3c: 5a           	phy
     b3d: a0 08        	ldy	#$8
     b3f: b1 10        	lda	($10),y                 ; 0x2010 <textPrint+0x1d7>
     b41: 7a           	ply
     b42: aa           	tax
     b43: 68           	pla
     b44: e0 4a        	cpx	#$4a
     b46: 90 03        	bcc	$b4b <f256main+0x27f>
     b48: 4c 83 0c     	jmp	$c83 <f256main+0x3b7>
     b4b: e8           	inx
     b4c: 8a           	txa
     b4d: 5a           	phy
     b4e: a0 08        	ldy	#$8
     b50: 91 10        	sta	($10),y                 ; 0x2010 <textPrint+0x1d7>
     b52: 7a           	ply
     b53: b5 38        	lda	$38,x                   ; 0x2038 <textPrint+0x1ff>
     b55: 85 db        	sta	$db                     ; 0x20db <midiNoteOn+0x1a>
     b57: 64 dc        	stz	$dc                     ; 0x20dc <midiNoteOn+0x1b>
     b59: 0a           	asl
     b5a: 85 12        	sta	$12                     ; 0x2012 <textPrint+0x1d9>
     b5c: a9 00        	lda	#$0
     b5e: 2a           	rol
     b5f: 85 13        	sta	$13                     ; 0x2013 <textPrint+0x1da>
     b61: a9 6a        	lda	#$6a
     b63: 18           	clc
     b64: 65 12        	adc	$12                     ; 0x2012 <textPrint+0x1d9>
     b66: 85 12        	sta	$12                     ; 0x2012 <textPrint+0x1d9>
     b68: a9 37        	lda	#$37
     b6a: 65 13        	adc	$13                     ; 0x2013 <textPrint+0x1da>
     b6c: 85 13        	sta	$13                     ; 0x2013 <textPrint+0x1da>
     b6e: b2 12        	lda	($12)                   ; 0x2012 <textPrint+0x1d9>
     b70: 85 15        	sta	$15                     ; 0x2015 <textPrint+0x1dc>
     b72: 84 14        	sty	$14                     ; 0x2014 <textPrint+0x1db>
     b74: a0 01        	ldy	#$1
     b76: b1 12        	lda	($12),y                 ; 0x2012 <textPrint+0x1d9>
     b78: 85 12        	sta	$12                     ; 0x2012 <textPrint+0x1d9>
     b7a: 98           	tya
     b7b: 05 8f        	ora	$8f                     ; 0x208f <textPrint+0x256>
     b7d: 8d 08 d9     	sta	$d908                   ; 0xd908 <end_block9+0x9edc>
     b80: a9 00        	lda	#$0
     b82: a6 15        	ldx	$15                     ; 0x2015 <textPrint+0x1dc>
     b84: 8e 0c d9     	stx	$d90c                   ; 0xd90c <end_block9+0x9ee0>
     b87: a6 12        	ldx	$12                     ; 0x2012 <textPrint+0x1d9>
     b89: 8e 0d d9     	stx	$d90d                   ; 0xd90d <end_block9+0x9ee1>
     b8c: a0 c0        	ldy	#$c0
     b8e: 8c 0e d9     	sty	$d90e                   ; 0xd90e <end_block9+0x9ee2>
     b91: a4 14        	ldy	$14                     ; 0x2014 <textPrint+0x1db>
     b93: 64 12        	stz	$12                     ; 0x2012 <textPrint+0x1d9>
     b95: 48           	pha
     b96: a9 00        	lda	#$0
     b98: 5a           	phy
     b99: a0 07        	ldy	#$7
     b9b: 91 10        	sta	($10),y                 ; 0x2010 <textPrint+0x1d7>
     b9d: 7a           	ply
     b9e: 68           	pla
     b9f: 9c 0f d9     	stz	$d90f                   ; 0xd90f <end_block9+0x9ee3>
     ba2: 4c 83 0c     	jmp	$c83 <f256main+0x3b7>
     ba5: a5 25        	lda	$25                     ; 0x2025 <textPrint+0x1ec>
     ba7: 18           	clc
     ba8: 65 26        	adc	$26                     ; 0x2026 <textPrint+0x1ed>
     baa: 85 12        	sta	$12                     ; 0x2012 <textPrint+0x1d9>
     bac: a4 27        	ldy	$27                     ; 0x2027 <textPrint+0x1ee>
     bae: a5 27        	lda	$27                     ; 0x2027 <textPrint+0x1ee>
     bb0: 69 00        	adc	#$0
     bb2: 85 13        	sta	$13                     ; 0x2013 <textPrint+0x1da>
     bb4: a9 79        	lda	#$79
     bb6: 18           	clc
     bb7: 65 12        	adc	$12                     ; 0x2012 <textPrint+0x1d9>
     bb9: 85 12        	sta	$12                     ; 0x2012 <textPrint+0x1d9>
     bbb: a9 35        	lda	#$35
     bbd: 65 13        	adc	$13                     ; 0x2013 <textPrint+0x1da>
     bbf: a2 9f        	ldx	#$9f
     bc1: 8e 08 d6     	stx	$d608                   ; 0xd608 <end_block9+0x9bdc>
     bc4: a2 94        	ldx	#$94
     bc6: 8e 08 d6     	stx	$d608                   ; 0xd608 <end_block9+0x9bdc>
     bc9: 85 13        	sta	$13                     ; 0x2013 <textPrint+0x1da>
     bcb: b2 12        	lda	($12)                   ; 0x2012 <textPrint+0x1d9>
     bcd: aa           	tax
     bce: bd 74 36     	lda	$3674,x                 ; 0x3674 <KeyCodesToLoPSG>
     bd1: aa           	tax
     bd2: 8e 08 d6     	stx	$d608                   ; 0xd608 <end_block9+0x9bdc>
     bd5: b2 12        	lda	($12)                   ; 0x2012 <textPrint+0x1d9>
     bd7: aa           	tax
     bd8: bd ef 36     	lda	$36ef,x                 ; 0x36ef <KeyCodesToHiPSG>
     bdb: aa           	tax
     bdc: 8e 08 d6     	stx	$d608                   ; 0xd608 <end_block9+0x9bdc>
     bdf: a5 25        	lda	$25                     ; 0x2025 <textPrint+0x1ec>
     be1: 18           	clc
     be2: 65 26        	adc	$26                     ; 0x2026 <textPrint+0x1ed>
     be4: aa           	tax
     be5: 98           	tya
     be6: 69 00        	adc	#$0
     be8: 85 15        	sta	$15                     ; 0x2015 <textPrint+0x1dc>
     bea: 8a           	txa
     beb: 86 14        	stx	$14                     ; 0x2014 <textPrint+0x1db>
     bed: 0a           	asl
     bee: 85 12        	sta	$12                     ; 0x2012 <textPrint+0x1d9>
     bf0: a9 00        	lda	#$0
     bf2: 2a           	rol
     bf3: 85 13        	sta	$13                     ; 0x2013 <textPrint+0x1da>
     bf5: a9 6a        	lda	#$6a
     bf7: 18           	clc
     bf8: 65 12        	adc	$12                     ; 0x2012 <textPrint+0x1d9>
     bfa: 85 12        	sta	$12                     ; 0x2012 <textPrint+0x1d9>
     bfc: a9 37        	lda	#$37
     bfe: 65 13        	adc	$13                     ; 0x2013 <textPrint+0x1da>
     c00: 85 13        	sta	$13                     ; 0x2013 <textPrint+0x1da>
     c02: b2 12        	lda	($12)                   ; 0x2012 <textPrint+0x1d9>
     c04: 85 16        	sta	$16                     ; 0x2016 <textPrint+0x1dd>
     c06: a0 01        	ldy	#$1
     c08: b1 12        	lda	($12),y                 ; 0x2012 <textPrint+0x1d9>
     c0a: 85 12        	sta	$12                     ; 0x2012 <textPrint+0x1d9>
     c0c: 98           	tya
     c0d: 05 8e        	ora	$8e                     ; 0x208e <textPrint+0x255>
     c0f: 8d 00 d9     	sta	$d900                   ; 0xd900 <end_block9+0x9ed4>
     c12: a6 16        	ldx	$16                     ; 0x2016 <textPrint+0x1dd>
     c14: 8e 04 d9     	stx	$d904                   ; 0xd904 <end_block9+0x9ed8>
     c17: a6 12        	ldx	$12                     ; 0x2012 <textPrint+0x1d9>
     c19: 8e 05 d9     	stx	$d905                   ; 0xd905 <end_block9+0x9ed9>
     c1c: a2 c0        	ldx	#$c0
     c1e: 8e 06 d9     	stx	$d906                   ; 0xd906 <end_block9+0x9eda>
     c21: 9c 07 d9     	stz	$d907                   ; 0xd907 <end_block9+0x9edb>
     c24: a5 15        	lda	$15                     ; 0x2015 <textPrint+0x1dc>
     c26: d0 35        	bne	$c5d <f256main+0x391>
     c28: a0 08        	ldy	#$8
     c2a: b1 10        	lda	($10),y                 ; 0x2010 <textPrint+0x1d7>
     c2c: aa           	tax
     c2d: b5 38        	lda	$38,x                   ; 0x2038 <textPrint+0x1ff>
     c2f: aa           	tax
     c30: 86 12        	stx	$12                     ; 0x2012 <textPrint+0x1d9>
     c32: a6 14        	ldx	$14                     ; 0x2014 <textPrint+0x1db>
     c34: e4 12        	cpx	$12                     ; 0x2012 <textPrint+0x1d9>
     c36: d0 25        	bne	$c5d <f256main+0x391>
     c38: a4 2d        	ldy	$2d                     ; 0x202d <textPrint+0x1f4>
     c3a: a5 2c        	lda	$2c                     ; 0x202c <textPrint+0x1f3>
     c3c: 48           	pha
     c3d: 5a           	phy
     c3e: a0 09        	ldy	#$9
     c40: b1 10        	lda	($10),y                 ; 0x2010 <textPrint+0x1d7>
     c42: 7a           	ply
     c43: aa           	tax
     c44: 68           	pla
     c45: e0 00        	cpx	#$0
     c47: f0 2a        	beq	$c73 <f256main+0x3a7>
     c49: a2 01        	ldx	#$1
     c4b: 48           	pha
     c4c: 8a           	txa
     c4d: 5a           	phy
     c4e: a0 07        	ldy	#$7
     c50: 91 10        	sta	($10),y                 ; 0x2010 <textPrint+0x1d7>
     c52: 7a           	ply
     c53: 68           	pla
     c54: e6 ce        	inc	$ce                     ; 0x20ce <midiNoteOn+0xd>
     c56: a6 2e        	ldx	$2e                     ; 0x202e <textPrint+0x1f5>
     c58: d0 20        	bne	$c7a <f256main+0x3ae>
     c5a: 4c 86 0d     	jmp	$d86 <f256main+0x4ba>
     c5d: a4 2d        	ldy	$2d                     ; 0x202d <textPrint+0x1f4>
     c5f: 5a           	phy
     c60: a0 09        	ldy	#$9
     c62: b1 10        	lda	($10),y                 ; 0x2010 <textPrint+0x1d7>
     c64: 7a           	ply
     c65: aa           	tax
     c66: a5 2c        	lda	$2c                     ; 0x202c <textPrint+0x1f3>
     c68: e0 00        	cpx	#$0
     c6a: f0 07        	beq	$c73 <f256main+0x3a7>
     c6c: a6 ce        	ldx	$ce                     ; 0x20ce <midiNoteOn+0xd>
     c6e: f0 03        	beq	$c73 <f256main+0x3a7>
     c70: ca           	dex
     c71: 86 ce        	stx	$ce                     ; 0x20ce <midiNoteOn+0xd>
     c73: a6 2e        	ldx	$2e                     ; 0x202e <textPrint+0x1f5>
     c75: d0 03        	bne	$c7a <f256main+0x3ae>
     c77: 4c 86 0d     	jmp	$d86 <f256main+0x4ba>
     c7a: a2 01        	ldx	#$1
     c7c: 85 26        	sta	$26                     ; 0x2026 <textPrint+0x1ed>
     c7e: 4c 88 0d     	jmp	$d88 <f256main+0x4bc>
     c81: a9 00        	lda	#$0
     c83: 48           	pha
     c84: 5a           	phy
     c85: a0 09        	ldy	#$9
     c87: b1 10        	lda	($10),y                 ; 0x2010 <textPrint+0x1d7>
     c89: 7a           	ply
     c8a: aa           	tax
     c8b: 68           	pla
     c8c: e0 00        	cpx	#$0
     c8e: d0 03        	bne	$c93 <f256main+0x3c7>
     c90: 4c 7d 0d     	jmp	$d7d <f256main+0x4b1>
     c93: 48           	pha
     c94: 5a           	phy
     c95: a0 08        	ldy	#$8
     c97: b1 10        	lda	($10),y                 ; 0x2010 <textPrint+0x1d7>
     c99: 7a           	ply
     c9a: aa           	tax
     c9b: 68           	pla
     c9c: e0 4a        	cpx	#$4a
     c9e: f0 03        	beq	$ca3 <f256main+0x3d7>
     ca0: 4c 7d 0d     	jmp	$d7d <f256main+0x4b1>
     ca3: 84 2d        	sty	$2d                     ; 0x202d <textPrint+0x1f4>
     ca5: a0 19        	ldy	#$19
     ca7: 84 8a        	sty	$8a                     ; 0x208a <textPrint+0x251>
     ca9: 8c 14 d0     	sty	$d014                   ; 0xd014 <end_block9+0x95e8>
     cac: 9c 15 d0     	stz	$d015                   ; 0xd015 <end_block9+0x95e9>
     caf: a0 08        	ldy	#$8
     cb1: 84 8b        	sty	$8b                     ; 0x208b <textPrint+0x252>
     cb3: 8c 16 d0     	sty	$d016                   ; 0xd016 <end_block9+0x95ea>
     cb6: 9c 17 d0     	stz	$d017                   ; 0xd017 <end_block9+0x95eb>
     cb9: aa           	tax
     cba: a9 2f        	lda	#$2f
     cbc: 20 52 31     	jsr	$3152 <putchar>
     cbf: a2 1a        	ldx	#$1a
     cc1: 86 8a        	stx	$8a                     ; 0x208a <textPrint+0x251>
     cc3: 8e 14 d0     	stx	$d014                   ; 0xd014 <end_block9+0x95e8>
     cc6: 9c 15 d0     	stz	$d015                   ; 0xd015 <end_block9+0x95e9>
     cc9: a2 07        	ldx	#$7
     ccb: 86 8b        	stx	$8b                     ; 0x208b <textPrint+0x252>
     ccd: 8e 16 d0     	stx	$d016                   ; 0xd016 <end_block9+0x95ea>
     cd0: 9c 17 d0     	stz	$d017                   ; 0xd017 <end_block9+0x95eb>
     cd3: a6 ce        	ldx	$ce                     ; 0x20ce <midiNoteOn+0xd>
     cd5: e0 48        	cpx	#$48
     cd7: b0 03        	bcs	$cdc <f256main+0x410>
     cd9: 4c 62 0d     	jmp	$d62 <f256main+0x496>
     cdc: a2 de        	ldx	#$de
     cde: 86 12        	stx	$12                     ; 0x2012 <textPrint+0x1d9>
     ce0: a2 34        	ldx	#$34
     ce2: 86 13        	stx	$13                     ; 0x2013 <textPrint+0x1da>
     ce4: 20 f6 30     	jsr	$30f6 <printf>
     ce7: a2 45        	ldx	#$45
     ce9: 86 33        	stx	$33                     ; 0x2033 <textPrint+0x1fa>
     ceb: 64 34        	stz	$34                     ; 0x2034 <textPrint+0x1fb>
     ced: a2 50        	ldx	#$50
     cef: 86 35        	stx	$35                     ; 0x2035 <textPrint+0x1fc>
     cf1: 64 36        	stz	$36                     ; 0x2036 <textPrint+0x1fd>
     cf3: a9 01        	lda	#$1
     cf5: 05 98        	ora	$98                     ; 0x2098 <__putchar+0x5>
     cf7: 8d 50 d9     	sta	$d950                   ; 0xd950 <end_block9+0x9f24>
     cfa: a6 33        	ldx	$33                     ; 0x2033 <textPrint+0x1fa>
     cfc: 86 13        	stx	$13                     ; 0x2013 <textPrint+0x1da>
     cfe: a4 34        	ldy	$34                     ; 0x2034 <textPrint+0x1fb>
     d00: a5 35        	lda	$35                     ; 0x2035 <textPrint+0x1fc>
     d02: a6 36        	ldx	$36                     ; 0x2036 <textPrint+0x1fd>
     d04: 86 12        	stx	$12                     ; 0x2012 <textPrint+0x1d9>
     d06: a6 13        	ldx	$13                     ; 0x2013 <textPrint+0x1da>
     d08: 8e 54 d9     	stx	$d954                   ; 0xd954 <end_block9+0x9f28>
     d0b: 8c 55 d9     	sty	$d955                   ; 0xd955 <end_block9+0x9f29>
     d0e: 8d 56 d9     	sta	$d956                   ; 0xd956 <end_block9+0x9f2a>
     d11: a6 12        	ldx	$12                     ; 0x2012 <textPrint+0x1d9>
     d13: 8e 57 d9     	stx	$d957                   ; 0xd957 <end_block9+0x9f2b>
     d16: a9 01        	lda	#$1
     d18: 05 99        	ora	$99                     ; 0x2099 <__putchar+0x6>
     d1a: 8d 58 d9     	sta	$d958                   ; 0xd958 <end_block9+0x9f2c>
     d1d: a5 33        	lda	$33                     ; 0x2033 <textPrint+0x1fa>
     d1f: a6 34        	ldx	$34                     ; 0x2034 <textPrint+0x1fb>
     d21: 18           	clc
     d22: 69 20        	adc	#$20
     d24: 85 13        	sta	$13                     ; 0x2013 <textPrint+0x1da>
     d26: 8a           	txa
     d27: 69 00        	adc	#$0
     d29: 85 12        	sta	$12                     ; 0x2012 <textPrint+0x1d9>
     d2b: a6 35        	ldx	$35                     ; 0x2035 <textPrint+0x1fc>
     d2d: a4 36        	ldy	$36                     ; 0x2036 <textPrint+0x1fd>
     d2f: a5 13        	lda	$13                     ; 0x2013 <textPrint+0x1da>
     d31: 8d 5c d9     	sta	$d95c                   ; 0xd95c <end_block9+0x9f30>
     d34: a5 12        	lda	$12                     ; 0x2012 <textPrint+0x1d9>
     d36: 8d 5d d9     	sta	$d95d                   ; 0xd95d <end_block9+0x9f31>
     d39: 8e 5e d9     	stx	$d95e                   ; 0xd95e <end_block9+0x9f32>
     d3c: 8c 5f d9     	sty	$d95f                   ; 0xd95f <end_block9+0x9f33>
     d3f: a9 00        	lda	#$0
     d41: 64 12        	stz	$12                     ; 0x2012 <textPrint+0x1d9>
     d43: 48           	pha
     d44: a9 00        	lda	#$0
     d46: a0 07        	ldy	#$7
     d48: 91 10        	sta	($10),y                 ; 0x2010 <textPrint+0x1d7>
     d4a: 68           	pla
     d4b: 20 14 21     	jsr	$2114 <getTimerAbsolute>
     d4e: 18           	clc
     d4f: 69 03        	adc	#$3
     d51: 85 d6        	sta	$d6                     ; 0x20d6 <midiNoteOn+0x15>
     d53: a2 d5        	ldx	#$d5
     d55: 86 12        	stx	$12                     ; 0x2012 <textPrint+0x1d9>
     d57: a2 00        	ldx	#$0
     d59: 86 13        	stx	$13                     ; 0x2013 <textPrint+0x1da>
     d5b: 20 e1 20     	jsr	$20e1 <setTimer>
     d5e: 64 12        	stz	$12                     ; 0x2012 <textPrint+0x1d9>
     d60: 80 13        	bra	$d75 <f256main+0x4a9>
     d62: a2 7c        	ldx	#$7c
     d64: 86 12        	stx	$12                     ; 0x2012 <textPrint+0x1d9>
     d66: a2 33        	ldx	#$33
     d68: 86 13        	stx	$13                     ; 0x2013 <textPrint+0x1da>
     d6a: 20 f6 30     	jsr	$30f6 <printf>
     d6d: 64 12        	stz	$12                     ; 0x2012 <textPrint+0x1d9>
     d6f: a9 00        	lda	#$0
     d71: a0 07        	ldy	#$7
     d73: 91 10        	sta	($10),y                 ; 0x2010 <textPrint+0x1d7>
     d75: a9 00        	lda	#$0
     d77: a0 09        	ldy	#$9
     d79: 91 10        	sta	($10),y                 ; 0x2010 <textPrint+0x1d7>
     d7b: a4 2d        	ldy	$2d                     ; 0x202d <textPrint+0x1f4>
     d7d: a5 2c        	lda	$2c                     ; 0x202c <textPrint+0x1f3>
     d7f: a6 2e        	ldx	$2e                     ; 0x202e <textPrint+0x1f5>
     d81: f0 03        	beq	$d86 <f256main+0x4ba>
     d83: 4c 7a 0c     	jmp	$c7a <f256main+0x3ae>
     d86: a2 00        	ldx	#$0
     d88: e6 2e        	inc	$2e                     ; 0x202e <textPrint+0x1f5>
     d8a: c6 2e        	dec	$2e                     ; 0x202e <textPrint+0x1f5>
     d8c: d0 0a        	bne	$d98 <f256main+0x4cc>
     d8e: c9 00        	cmp	#$0
     d90: 30 06        	bmi	$d98 <f256main+0x4cc>
     d92: a0 00        	ldy	#$0
     d94: a2 01        	ldx	#$1
     d96: 85 26        	sta	$26                     ; 0x2026 <textPrint+0x1ed>
     d98: 86 2d        	stx	$2d                     ; 0x202d <textPrint+0x1f4>
     d9a: 85 12        	sta	$12                     ; 0x2012 <textPrint+0x1d9>
     d9c: 29 f0        	and	#$f0
     d9e: a2 01        	ldx	#$1
     da0: c9 90        	cmp	#$90
     da2: d0 04        	bne	$da8 <f256main+0x4dc>
     da4: a0 01        	ldy	#$1
     da6: 80 13        	bra	$dbb <f256main+0x4ef>
     da8: 38           	sec
     da9: a5 12        	lda	$12                     ; 0x2012 <textPrint+0x1d9>
     dab: e9 90        	sbc	#$90
     dad: 50 02        	bvc	$db1 <f256main+0x4e5>
     daf: 49 80        	eor	#$80
     db1: a2 00        	ldx	#$0
     db3: c9 00        	cmp	#$0
     db5: 10 04        	bpl	$dbb <f256main+0x4ef>
     db7: a0 00        	ldy	#$0
     db9: a2 01        	ldx	#$1
     dbb: 86 2e        	stx	$2e                     ; 0x202e <textPrint+0x1f5>
     dbd: a5 2f        	lda	$2f                     ; 0x202f <textPrint+0x1f6>
     dbf: a2 ff        	ldx	#$ff
     dc1: c6 2b        	dec	$2b                     ; 0x202b <textPrint+0x1f2>
     dc3: e4 2b        	cpx	$2b                     ; 0x202b <textPrint+0x1f2>
     dc5: f0 03        	beq	$dca <f256main+0x4fe>
     dc7: 4c ce 0a     	jmp	$ace <f256main+0x202>
     dca: 3a           	dec
     dcb: 4c ce 0a     	jmp	$ace <f256main+0x202>
     dce: a5 2b        	lda	$2b                     ; 0x202b <textPrint+0x1f2>
     dd0: f0 03        	beq	$dd5 <f256main+0x509>
     dd2: 4c d6 0a     	jmp	$ad6 <f256main+0x20a>
     dd5: 64 de        	stz	$de                     ; 0x20de <midiNoteOn+0x1d>
     dd7: 18           	clc
     dd8: a5 10        	lda	$10                     ; 0x2010 <textPrint+0x1d7>
     dda: 69 0a        	adc	#$a
     ddc: 85 12        	sta	$12                     ; 0x2012 <textPrint+0x1d9>
     dde: a5 11        	lda	$11                     ; 0x2011 <textPrint+0x1d8>
     de0: 69 00        	adc	#$0
     de2: 85 13        	sta	$13                     ; 0x2013 <textPrint+0x1da>
     de4: a2 dd        	ldx	#$dd
     de6: 86 14        	stx	$14                     ; 0x2014 <textPrint+0x1db>
     de8: a2 00        	ldx	#$0
     dea: 86 15        	stx	$15                     ; 0x2015 <textPrint+0x1dc>
     dec: 20 00 ff     	jsr	$ff00 <end_block9+0xc4d4>
     def: 92 12        	sta	($12)                   ; 0x2012 <textPrint+0x1d9>
     df1: a9 00        	lda	#$0
     df3: 6a           	ror
     df4: 85 14        	sta	$14                     ; 0x2014 <textPrint+0x1db>
     df6: a6 de        	ldx	$de                     ; 0x20de <midiNoteOn+0x1d>
     df8: e0 08        	cpx	#$8
     dfa: d0 03        	bne	$dff <f256main+0x533>
     dfc: 4c 81 0e     	jmp	$e81 <f256main+0x5b5>
     dff: a5 24        	lda	$24                     ; 0x2024 <textPrint+0x1eb>
     e01: 85 27        	sta	$27                     ; 0x2027 <textPrint+0x1ee>
     e03: e0 0a        	cpx	#$a
     e05: f0 51        	beq	$e58 <f256main+0x58c>
     e07: e0 52        	cpx	#$52
     e09: f0 03        	beq	$e0e <f256main+0x542>
     e0b: 4c 27 0a     	jmp	$a27 <f256main+0x15b>
     e0e: a5 e2        	lda	$e2                     ; 0x20e2 <setTimer+0x1>
     e10: c9 04        	cmp	#$4
     e12: 90 03        	bcc	$e17 <f256main+0x54b>
     e14: 4c 27 0a     	jmp	$a27 <f256main+0x15b>
     e17: 84 29        	sty	$29                     ; 0x2029 <textPrint+0x1f0>
     e19: 0a           	asl
     e1a: aa           	tax
     e1b: 7c ed 32     	jmp	($32ed,x)               ; 0x32ed <__xac_size+0x6ed>
     e1e: a2 3c        	ldx	#$3c
     e20: 86 8a        	stx	$8a                     ; 0x208a <textPrint+0x251>
     e22: 8e 14 d0     	stx	$d014                   ; 0xd014 <end_block9+0x95e8>
     e25: 9c 15 d0     	stz	$d015                   ; 0xd015 <end_block9+0x95e9>
     e28: a2 04        	ldx	#$4
     e2a: 86 8b        	stx	$8b                     ; 0x208b <textPrint+0x252>
     e2c: 8e 16 d0     	stx	$d016                   ; 0xd016 <end_block9+0x95ea>
     e2f: 9c 17 d0     	stz	$d017                   ; 0xd017 <end_block9+0x95eb>
     e32: a5 ce        	lda	$ce                     ; 0x20ce <midiNoteOn+0xd>
     e34: 92 10        	sta	($10)                   ; 0x2010 <textPrint+0x1d7>
     e36: a9 00        	lda	#$0
     e38: a0 01        	ldy	#$1
     e3a: 91 10        	sta	($10),y                 ; 0x2010 <textPrint+0x1d7>
     e3c: a2 75        	ldx	#$75
     e3e: 86 12        	stx	$12                     ; 0x2012 <textPrint+0x1d9>
     e40: a2 34        	ldx	#$34
     e42: 86 13        	stx	$13                     ; 0x2013 <textPrint+0x1da>
     e44: 20 f6 30     	jsr	$30f6 <printf>
     e47: a9 00        	lda	#$0
     e49: 20 14 21     	jsr	$2114 <getTimerAbsolute>
     e4c: 1a           	inc
     e4d: 85 d0        	sta	$d0                     ; 0x20d0 <midiNoteOn+0xf>
     e4f: a2 cf        	ldx	#$cf
     e51: 86 12        	stx	$12                     ; 0x2012 <textPrint+0x1d9>
     e53: a2 00        	ldx	#$0
     e55: 4c 20 0a     	jmp	$a20 <f256main+0x154>
     e58: a6 37        	ldx	$37                     ; 0x2037 <textPrint+0x1fe>
     e5a: d0 03        	bne	$e5f <f256main+0x593>
     e5c: 4c 1c 0f     	jmp	$f1c <f256main+0x650>
     e5f: a6 e2        	ldx	$e2                     ; 0x20e2 <setTimer+0x1>
     e61: 18           	clc
     e62: 5a           	phy
     e63: a0 06        	ldy	#$6
     e65: b1 10        	lda	($10),y                 ; 0x2010 <textPrint+0x1d7>
     e67: 7a           	ply
     e68: 65 29        	adc	$29                     ; 0x2029 <textPrint+0x1f0>
     e6a: 18           	clc
     e6b: 7d f9 35     	adc	$35f9,x                 ; 0x35f9 <KeyCodesToMIDINotes>
     e6e: a2 6f        	ldx	#$6f
     e70: 86 12        	stx	$12                     ; 0x2012 <textPrint+0x1d9>
     e72: 64 13        	stz	$13                     ; 0x2013 <textPrint+0x1da>
     e74: aa           	tax
     e75: a9 01        	lda	#$1
     e77: 84 29        	sty	$29                     ; 0x2029 <textPrint+0x1f0>
     e79: 20 a1 20     	jsr	$20a1 <midiNoteOff>
     e7c: a4 29        	ldy	$29                     ; 0x2029 <textPrint+0x1f0>
     e7e: 4c 21 0f     	jmp	$f21 <f256main+0x655>
     e81: 84 2a        	sty	$2a                     ; 0x202a <textPrint+0x1f1>
     e83: a4 e2        	ldy	$e2                     ; 0x20e2 <setTimer+0x1>
     e85: 18           	clc
     e86: a9 7f        	lda	#$7f
     e88: 65 e2        	adc	$e2                     ; 0x20e2 <setTimer+0x1>
     e8a: c9 39        	cmp	#$39
     e8c: a6 24        	ldx	$24                     ; 0x2024 <textPrint+0x1eb>
     e8e: 86 27        	stx	$27                     ; 0x2027 <textPrint+0x1ee>
     e90: 90 03        	bcc	$e95 <f256main+0x5c9>
     e92: 4c fc 11     	jmp	$11fc <f256main+0x930>
     e95: 0a           	asl
     e96: aa           	tax
     e97: 7c 7b 32     	jmp	($327b,x)               ; 0x327b <__xac_size+0x67b>
     e9a: 64 ce        	stz	$ce                     ; 0x20ce <midiNoteOn+0xd>
     e9c: a9 00        	lda	#$0
     e9e: 20 14 21     	jsr	$2114 <getTimerAbsolute>
     ea1: 18           	clc
     ea2: 69 1e        	adc	#$1e
     ea4: 85 d3        	sta	$d3                     ; 0x20d3 <midiNoteOn+0x12>
     ea6: a6 39        	ldx	$39                     ; 0x2039 <textPrint+0x200>
     ea8: 86 db        	stx	$db                     ; 0x20db <midiNoteOn+0x1a>
     eaa: 64 dc        	stz	$dc                     ; 0x20dc <midiNoteOn+0x1b>
     eac: a2 d2        	ldx	#$d2
     eae: 86 12        	stx	$12                     ; 0x2012 <textPrint+0x1d9>
     eb0: a2 00        	ldx	#$0
     eb2: 86 13        	stx	$13                     ; 0x2013 <textPrint+0x1da>
     eb4: 20 e1 20     	jsr	$20e1 <setTimer>
     eb7: a6 db        	ldx	$db                     ; 0x20db <midiNoteOn+0x1a>
     eb9: a0 6f        	ldy	#$6f
     ebb: 84 12        	sty	$12                     ; 0x2012 <textPrint+0x1d9>
     ebd: 64 13        	stz	$13                     ; 0x2013 <textPrint+0x1da>
     ebf: a9 00        	lda	#$0
     ec1: 20 c1 20     	jsr	$20c1 <midiNoteOn>
     ec4: a2 19        	ldx	#$19
     ec6: 86 8a        	stx	$8a                     ; 0x208a <textPrint+0x251>
     ec8: 8e 14 d0     	stx	$d014                   ; 0xd014 <end_block9+0x95e8>
     ecb: 9c 15 d0     	stz	$d015                   ; 0xd015 <end_block9+0x95e9>
     ece: a2 08        	ldx	#$8
     ed0: 86 8b        	stx	$8b                     ; 0x208b <textPrint+0x252>
     ed2: 8e 16 d0     	stx	$d016                   ; 0xd016 <end_block9+0x95ea>
     ed5: 9c 17 d0     	stz	$d017                   ; 0xd017 <end_block9+0x95eb>
     ed8: a2 00        	ldx	#$0
     eda: a9 20        	lda	#$20
     edc: 20 52 31     	jsr	$3152 <putchar>
     edf: a2 1a        	ldx	#$1a
     ee1: 86 8a        	stx	$8a                     ; 0x208a <textPrint+0x251>
     ee3: 8e 14 d0     	stx	$d014                   ; 0xd014 <end_block9+0x95e8>
     ee6: 9c 15 d0     	stz	$d015                   ; 0xd015 <end_block9+0x95e9>
     ee9: a2 07        	ldx	#$7
     eeb: 86 8b        	stx	$8b                     ; 0x208b <textPrint+0x252>
     eed: 8e 16 d0     	stx	$d016                   ; 0xd016 <end_block9+0x95ea>
     ef0: 9c 17 d0     	stz	$d017                   ; 0xd017 <end_block9+0x95eb>
     ef3: a2 23        	ldx	#$23
     ef5: 86 12        	stx	$12                     ; 0x2012 <textPrint+0x1d9>
     ef7: a2 35        	ldx	#$35
     ef9: 86 13        	stx	$13                     ; 0x2013 <textPrint+0x1da>
     efb: 20 f6 30     	jsr	$30f6 <printf>
     efe: a6 98        	ldx	$98                     ; 0x2098 <__putchar+0x5>
     f00: 8e 50 d9     	stx	$d950                   ; 0xd950 <end_block9+0x9f24>
     f03: a6 99        	ldx	$99                     ; 0x2099 <__putchar+0x6>
     f05: 8e 58 d9     	stx	$d958                   ; 0xd958 <end_block9+0x9f2c>
     f08: a2 01        	ldx	#$1
     f0a: 8a           	txa
     f0b: a0 08        	ldy	#$8
     f0d: 91 10        	sta	($10),y                 ; 0x2010 <textPrint+0x1d7>
     f0f: 64 12        	stz	$12                     ; 0x2012 <textPrint+0x1d9>
     f11: a9 00        	lda	#$0
     f13: 88           	dey
     f14: 91 10        	sta	($10),y                 ; 0x2010 <textPrint+0x1d7>
     f16: 8a           	txa
     f17: a0 09        	ldy	#$9
     f19: 4c 07 14     	jmp	$1407 <f256main+0xb3b>
     f1c: a2 9f        	ldx	#$9f
     f1e: 8e 08 d6     	stx	$d608                   ; 0xd608 <end_block9+0x9bdc>
     f21: a6 8e        	ldx	$8e                     ; 0x208e <textPrint+0x255>
     f23: 8e 00 d9     	stx	$d900                   ; 0xd900 <end_block9+0x9ed4>
     f26: 5a           	phy
     f27: a0 09        	ldy	#$9
     f29: b1 10        	lda	($10),y                 ; 0x2010 <textPrint+0x1d7>
     f2b: 7a           	ply
     f2c: aa           	tax
     f2d: d0 03        	bne	$f32 <f256main+0x666>
     f2f: 4c 9b 0f     	jmp	$f9b <f256main+0x6cf>
     f32: 5a           	phy
     f33: a0 08        	ldy	#$8
     f35: b1 10        	lda	($10),y                 ; 0x2010 <textPrint+0x1d7>
     f37: aa           	tax
     f38: 88           	dey
     f39: b1 10        	lda	($10),y                 ; 0x2010 <textPrint+0x1d7>
     f3b: 7a           	ply
     f3c: c9 00        	cmp	#$0
     f3e: d0 03        	bne	$f43 <f256main+0x677>
     f40: 4c a2 0f     	jmp	$fa2 <f256main+0x6d6>
     f43: e0 4a        	cpx	#$4a
     f45: 90 03        	bcc	$f4a <f256main+0x67e>
     f47: 4c a2 0f     	jmp	$fa2 <f256main+0x6d6>
     f4a: e8           	inx
     f4b: b5 38        	lda	$38,x                   ; 0x2038 <textPrint+0x1ff>
     f4d: 85 db        	sta	$db                     ; 0x20db <midiNoteOn+0x1a>
     f4f: 64 dc        	stz	$dc                     ; 0x20dc <midiNoteOn+0x1b>
     f51: 0a           	asl
     f52: 85 12        	sta	$12                     ; 0x2012 <textPrint+0x1d9>
     f54: a9 00        	lda	#$0
     f56: 2a           	rol
     f57: 85 13        	sta	$13                     ; 0x2013 <textPrint+0x1da>
     f59: a9 6a        	lda	#$6a
     f5b: 18           	clc
     f5c: 65 12        	adc	$12                     ; 0x2012 <textPrint+0x1d9>
     f5e: 85 12        	sta	$12                     ; 0x2012 <textPrint+0x1d9>
     f60: a9 37        	lda	#$37
     f62: 65 13        	adc	$13                     ; 0x2013 <textPrint+0x1da>
     f64: 85 13        	sta	$13                     ; 0x2013 <textPrint+0x1da>
     f66: b2 12        	lda	($12)                   ; 0x2012 <textPrint+0x1d9>
     f68: 85 14        	sta	$14                     ; 0x2014 <textPrint+0x1db>
     f6a: 84 15        	sty	$15                     ; 0x2015 <textPrint+0x1dc>
     f6c: a0 01        	ldy	#$1
     f6e: b1 12        	lda	($12),y                 ; 0x2012 <textPrint+0x1d9>
     f70: 85 12        	sta	$12                     ; 0x2012 <textPrint+0x1d9>
     f72: a4 15        	ldy	$15                     ; 0x2015 <textPrint+0x1dc>
     f74: a9 01        	lda	#$1
     f76: 05 8f        	ora	$8f                     ; 0x208f <textPrint+0x256>
     f78: 8d 08 d9     	sta	$d908                   ; 0xd908 <end_block9+0x9edc>
     f7b: a5 14        	lda	$14                     ; 0x2014 <textPrint+0x1db>
     f7d: 8d 0c d9     	sta	$d90c                   ; 0xd90c <end_block9+0x9ee0>
     f80: a5 12        	lda	$12                     ; 0x2012 <textPrint+0x1d9>
     f82: 8d 0d d9     	sta	$d90d                   ; 0xd90d <end_block9+0x9ee1>
     f85: 8a           	txa
     f86: a2 c0        	ldx	#$c0
     f88: 8e 0e d9     	stx	$d90e                   ; 0xd90e <end_block9+0x9ee2>
     f8b: aa           	tax
     f8c: 64 12        	stz	$12                     ; 0x2012 <textPrint+0x1d9>
     f8e: a9 00        	lda	#$0
     f90: 5a           	phy
     f91: a0 07        	ldy	#$7
     f93: 91 10        	sta	($10),y                 ; 0x2010 <textPrint+0x1d7>
     f95: 7a           	ply
     f96: 9c 0f d9     	stz	$d90f                   ; 0xd90f <end_block9+0x9ee3>
     f99: 80 07        	bra	$fa2 <f256main+0x6d6>
     f9b: 5a           	phy
     f9c: a0 08        	ldy	#$8
     f9e: b1 10        	lda	($10),y                 ; 0x2010 <textPrint+0x1d7>
     fa0: 7a           	ply
     fa1: aa           	tax
     fa2: 8a           	txa
     fa3: 5a           	phy
     fa4: a0 08        	ldy	#$8
     fa6: 91 10        	sta	($10),y                 ; 0x2010 <textPrint+0x1d7>
     fa8: 7a           	ply
     fa9: e0 4a        	cpx	#$4a
     fab: f0 03        	beq	$fb0 <f256main+0x6e4>
     fad: 4c 27 0a     	jmp	$a27 <f256main+0x15b>
     fb0: 5a           	phy
     fb1: a0 09        	ldy	#$9
     fb3: b1 10        	lda	($10),y                 ; 0x2010 <textPrint+0x1d7>
     fb5: 7a           	ply
     fb6: aa           	tax
     fb7: d0 03        	bne	$fbc <f256main+0x6f0>
     fb9: 4c 27 0a     	jmp	$a27 <f256main+0x15b>
     fbc: 84 29        	sty	$29                     ; 0x2029 <textPrint+0x1f0>
     fbe: a2 19        	ldx	#$19
     fc0: 86 8a        	stx	$8a                     ; 0x208a <textPrint+0x251>
     fc2: 8e 14 d0     	stx	$d014                   ; 0xd014 <end_block9+0x95e8>
     fc5: 9c 15 d0     	stz	$d015                   ; 0xd015 <end_block9+0x95e9>
     fc8: a2 08        	ldx	#$8
     fca: 86 8b        	stx	$8b                     ; 0x208b <textPrint+0x252>
     fcc: 8e 16 d0     	stx	$d016                   ; 0xd016 <end_block9+0x95ea>
     fcf: 9c 17 d0     	stz	$d017                   ; 0xd017 <end_block9+0x95eb>
     fd2: a2 00        	ldx	#$0
     fd4: a9 2f        	lda	#$2f
     fd6: 20 52 31     	jsr	$3152 <putchar>
     fd9: a2 1a        	ldx	#$1a
     fdb: 86 8a        	stx	$8a                     ; 0x208a <textPrint+0x251>
     fdd: 8e 14 d0     	stx	$d014                   ; 0xd014 <end_block9+0x95e8>
     fe0: 9c 15 d0     	stz	$d015                   ; 0xd015 <end_block9+0x95e9>
     fe3: a2 07        	ldx	#$7
     fe5: 86 8b        	stx	$8b                     ; 0x208b <textPrint+0x252>
     fe7: 8e 16 d0     	stx	$d016                   ; 0xd016 <end_block9+0x95ea>
     fea: 9c 17 d0     	stz	$d017                   ; 0xd017 <end_block9+0x95eb>
     fed: a6 ce        	ldx	$ce                     ; 0x20ce <midiNoteOn+0xd>
     fef: e0 48        	cpx	#$48
     ff1: b0 03        	bcs	$ff6 <f256main+0x72a>
     ff3: 4c e0 11     	jmp	$11e0 <f256main+0x914>
     ff6: a2 de        	ldx	#$de
     ff8: 86 12        	stx	$12                     ; 0x2012 <textPrint+0x1d9>
     ffa: a2 34        	ldx	#$34
     ffc: 86 13        	stx	$13                     ; 0x2013 <textPrint+0x1da>
     ffe: 20 f6 30     	jsr	$30f6 <printf>
    1001: a2 45        	ldx	#$45
    1003: 86 33        	stx	$33                     ; 0x2033 <textPrint+0x1fa>
    1005: 64 34        	stz	$34                     ; 0x2034 <textPrint+0x1fb>
    1007: a2 50        	ldx	#$50
    1009: 86 35        	stx	$35                     ; 0x2035 <textPrint+0x1fc>
    100b: 64 36        	stz	$36                     ; 0x2036 <textPrint+0x1fd>
    100d: a9 01        	lda	#$1
    100f: 05 98        	ora	$98                     ; 0x2098 <__putchar+0x5>
    1011: 8d 50 d9     	sta	$d950                   ; 0xd950 <end_block9+0x9f24>
    1014: a6 33        	ldx	$33                     ; 0x2033 <textPrint+0x1fa>
    1016: 86 13        	stx	$13                     ; 0x2013 <textPrint+0x1da>
    1018: a4 34        	ldy	$34                     ; 0x2034 <textPrint+0x1fb>
    101a: a5 35        	lda	$35                     ; 0x2035 <textPrint+0x1fc>
    101c: a6 36        	ldx	$36                     ; 0x2036 <textPrint+0x1fd>
    101e: 86 12        	stx	$12                     ; 0x2012 <textPrint+0x1d9>
    1020: a6 13        	ldx	$13                     ; 0x2013 <textPrint+0x1da>
    1022: 8e 54 d9     	stx	$d954                   ; 0xd954 <end_block9+0x9f28>
    1025: 8c 55 d9     	sty	$d955                   ; 0xd955 <end_block9+0x9f29>
    1028: 8d 56 d9     	sta	$d956                   ; 0xd956 <end_block9+0x9f2a>
    102b: a6 12        	ldx	$12                     ; 0x2012 <textPrint+0x1d9>
    102d: 8e 57 d9     	stx	$d957                   ; 0xd957 <end_block9+0x9f2b>
    1030: a9 01        	lda	#$1
    1032: 05 99        	ora	$99                     ; 0x2099 <__putchar+0x6>
    1034: 8d 58 d9     	sta	$d958                   ; 0xd958 <end_block9+0x9f2c>
    1037: a5 33        	lda	$33                     ; 0x2033 <textPrint+0x1fa>
    1039: a6 34        	ldx	$34                     ; 0x2034 <textPrint+0x1fb>
    103b: 18           	clc
    103c: 69 20        	adc	#$20
    103e: 85 13        	sta	$13                     ; 0x2013 <textPrint+0x1da>
    1040: 8a           	txa
    1041: 69 00        	adc	#$0
    1043: 85 12        	sta	$12                     ; 0x2012 <textPrint+0x1d9>
    1045: a6 35        	ldx	$35                     ; 0x2035 <textPrint+0x1fc>
    1047: a4 36        	ldy	$36                     ; 0x2036 <textPrint+0x1fd>
    1049: a5 13        	lda	$13                     ; 0x2013 <textPrint+0x1da>
    104b: 8d 5c d9     	sta	$d95c                   ; 0xd95c <end_block9+0x9f30>
    104e: a5 12        	lda	$12                     ; 0x2012 <textPrint+0x1d9>
    1050: 8d 5d d9     	sta	$d95d                   ; 0xd95d <end_block9+0x9f31>
    1053: 8e 5e d9     	stx	$d95e                   ; 0xd95e <end_block9+0x9f32>
    1056: 8c 5f d9     	sty	$d95f                   ; 0xd95f <end_block9+0x9f33>
    1059: a9 00        	lda	#$0
    105b: 20 14 21     	jsr	$2114 <getTimerAbsolute>
    105e: 18           	clc
    105f: 69 03        	adc	#$3
    1061: 85 d6        	sta	$d6                     ; 0x20d6 <midiNoteOn+0x15>
    1063: a2 d5        	ldx	#$d5
    1065: 86 12        	stx	$12                     ; 0x2012 <textPrint+0x1d9>
    1067: a2 00        	ldx	#$0
    1069: 86 13        	stx	$13                     ; 0x2013 <textPrint+0x1da>
    106b: 20 e1 20     	jsr	$20e1 <setTimer>
    106e: 4c eb 11     	jmp	$11eb <f256main+0x91f>
    1071: a6 35        	ldx	$35                     ; 0x2035 <textPrint+0x1fc>
    1073: a4 36        	ldy	$36                     ; 0x2036 <textPrint+0x1fd>
    1075: e8           	inx
    1076: d0 01        	bne	$1079 <f256main+0x7ad>
    1078: c8           	iny
    1079: 86 35        	stx	$35                     ; 0x2035 <textPrint+0x1fc>
    107b: 84 36        	sty	$36                     ; 0x2036 <textPrint+0x1fd>
    107d: a5 33        	lda	$33                     ; 0x2033 <textPrint+0x1fa>
    107f: 85 13        	sta	$13                     ; 0x2013 <textPrint+0x1da>
    1081: a5 34        	lda	$34                     ; 0x2034 <textPrint+0x1fb>
    1083: 85 12        	sta	$12                     ; 0x2012 <textPrint+0x1d9>
    1085: a5 13        	lda	$13                     ; 0x2013 <textPrint+0x1da>
    1087: 8d 54 d9     	sta	$d954                   ; 0xd954 <end_block9+0x9f28>
    108a: a5 12        	lda	$12                     ; 0x2012 <textPrint+0x1d9>
    108c: 8d 55 d9     	sta	$d955                   ; 0xd955 <end_block9+0x9f29>
    108f: 8e 56 d9     	stx	$d956                   ; 0xd956 <end_block9+0x9f2a>
    1092: 8c 57 d9     	sty	$d957                   ; 0xd957 <end_block9+0x9f2b>
    1095: a5 33        	lda	$33                     ; 0x2033 <textPrint+0x1fa>
    1097: a6 34        	ldx	$34                     ; 0x2034 <textPrint+0x1fb>
    1099: 18           	clc
    109a: 69 20        	adc	#$20
    109c: 85 13        	sta	$13                     ; 0x2013 <textPrint+0x1da>
    109e: 8a           	txa
    109f: 69 00        	adc	#$0
    10a1: 85 12        	sta	$12                     ; 0x2012 <textPrint+0x1d9>
    10a3: a6 35        	ldx	$35                     ; 0x2035 <textPrint+0x1fc>
    10a5: a4 36        	ldy	$36                     ; 0x2036 <textPrint+0x1fd>
    10a7: a5 13        	lda	$13                     ; 0x2013 <textPrint+0x1da>
    10a9: 8d 5c d9     	sta	$d95c                   ; 0xd95c <end_block9+0x9f30>
    10ac: a5 12        	lda	$12                     ; 0x2012 <textPrint+0x1d9>
    10ae: 8d 5d d9     	sta	$d95d                   ; 0xd95d <end_block9+0x9f31>
    10b1: 8e 5e d9     	stx	$d95e                   ; 0xd95e <end_block9+0x9f32>
    10b4: 8c 5f d9     	sty	$d95f                   ; 0xd95f <end_block9+0x9f33>
    10b7: a6 36        	ldx	$36                     ; 0x2036 <textPrint+0x1fd>
    10b9: f0 03        	beq	$10be <f256main+0x7f2>
    10bb: 4c 3c 14     	jmp	$143c <f256main+0xb70>
    10be: a6 35        	ldx	$35                     ; 0x2035 <textPrint+0x1fc>
    10c0: e0 81        	cpx	#$81
    10c2: b0 03        	bcs	$10c7 <f256main+0x7fb>
    10c4: 4c 43 14     	jmp	$1443 <f256main+0xb77>
    10c7: a2 04        	ldx	#$4
    10c9: 86 8a        	stx	$8a                     ; 0x208a <textPrint+0x251>
    10cb: 8e 14 d0     	stx	$d014                   ; 0xd014 <end_block9+0x95e8>
    10ce: 9c 15 d0     	stz	$d015                   ; 0xd015 <end_block9+0x95e9>
    10d1: a2 18        	ldx	#$18
    10d3: 86 8b        	stx	$8b                     ; 0x208b <textPrint+0x252>
    10d5: 8e 16 d0     	stx	$d016                   ; 0xd016 <end_block9+0x95ea>
    10d8: 9c 17 d0     	stz	$d017                   ; 0xd017 <end_block9+0x95eb>
    10db: a2 f8        	ldx	#$f8
    10dd: 86 12        	stx	$12                     ; 0x2012 <textPrint+0x1d9>
    10df: a2 33        	ldx	#$33
    10e1: 86 13        	stx	$13                     ; 0x2013 <textPrint+0x1da>
    10e3: 20 f6 30     	jsr	$30f6 <printf>
    10e6: a2 04        	ldx	#$4
    10e8: 86 8a        	stx	$8a                     ; 0x208a <textPrint+0x251>
    10ea: 8e 14 d0     	stx	$d014                   ; 0xd014 <end_block9+0x95e8>
    10ed: 9c 15 d0     	stz	$d015                   ; 0xd015 <end_block9+0x95e9>
    10f0: a2 19        	ldx	#$19
    10f2: 86 8b        	stx	$8b                     ; 0x208b <textPrint+0x252>
    10f4: 8e 16 d0     	stx	$d016                   ; 0xd016 <end_block9+0x95ea>
    10f7: 9c 17 d0     	stz	$d017                   ; 0xd017 <end_block9+0x95eb>
    10fa: a2 b0        	ldx	#$b0
    10fc: 86 12        	stx	$12                     ; 0x2012 <textPrint+0x1d9>
    10fe: a2 33        	ldx	#$33
    1100: 86 13        	stx	$13                     ; 0x2013 <textPrint+0x1da>
    1102: 20 f6 30     	jsr	$30f6 <printf>
    1105: a4 29        	ldy	$29                     ; 0x2029 <textPrint+0x1f0>
    1107: 4c 27 0a     	jmp	$a27 <f256main+0x15b>
    110a: a5 db        	lda	$db                     ; 0x20db <midiNoteOn+0x1a>
    110c: a2 6f        	ldx	#$6f
    110e: 86 12        	stx	$12                     ; 0x2012 <textPrint+0x1d9>
    1110: 64 13        	stz	$13                     ; 0x2013 <textPrint+0x1da>
    1112: a2 00        	ldx	#$0
    1114: 20 a1 20     	jsr	$20a1 <midiNoteOff>
    1117: a4 29        	ldy	$29                     ; 0x2029 <textPrint+0x1f0>
    1119: 5a           	phy
    111a: a0 02        	ldy	#$2
    111c: b1 10        	lda	($10),y                 ; 0x2010 <textPrint+0x1d7>
    111e: 7a           	ply
    111f: aa           	tax
    1120: d0 03        	bne	$1125 <f256main+0x859>
    1122: 4c 6c 14     	jmp	$146c <f256main+0xba0>
    1125: 5a           	phy
    1126: a0 08        	ldy	#$8
    1128: b1 10        	lda	($10),y                 ; 0x2010 <textPrint+0x1d7>
    112a: 7a           	ply
    112b: aa           	tax
    112c: c9 49        	cmp	#$49
    112e: 90 03        	bcc	$1133 <f256main+0x867>
    1130: 4c 56 14     	jmp	$1456 <f256main+0xb8a>
    1133: e8           	inx
    1134: 8a           	txa
    1135: a0 08        	ldy	#$8
    1137: 91 10        	sta	($10),y                 ; 0x2010 <textPrint+0x1d7>
    1139: b5 38        	lda	$38,x                   ; 0x2038 <textPrint+0x1ff>
    113b: aa           	tax
    113c: 86 db        	stx	$db                     ; 0x20db <midiNoteOn+0x1a>
    113e: 64 dc        	stz	$dc                     ; 0x20dc <midiNoteOn+0x1b>
    1140: a9 00        	lda	#$0
    1142: 20 14 21     	jsr	$2114 <getTimerAbsolute>
    1145: 18           	clc
    1146: 69 19        	adc	#$19
    1148: 85 d3        	sta	$d3                     ; 0x20d3 <midiNoteOn+0x12>
    114a: a6 37        	ldx	$37                     ; 0x2037 <textPrint+0x1fe>
    114c: d0 38        	bne	$1186 <f256main+0x8ba>
    114e: a2 9f        	ldx	#$9f
    1150: 8e 08 d6     	stx	$d608                   ; 0xd608 <end_block9+0x9bdc>
    1153: a2 94        	ldx	#$94
    1155: 8e 08 d6     	stx	$d608                   ; 0xd608 <end_block9+0x9bdc>
    1158: 18           	clc
    1159: a9 79        	lda	#$79
    115b: 65 db        	adc	$db                     ; 0x20db <midiNoteOn+0x1a>
    115d: 85 12        	sta	$12                     ; 0x2012 <textPrint+0x1d9>
    115f: a9 35        	lda	#$35
    1161: 65 dc        	adc	$dc                     ; 0x20dc <midiNoteOn+0x1b>
    1163: 85 13        	sta	$13                     ; 0x2013 <textPrint+0x1da>
    1165: b2 12        	lda	($12)                   ; 0x2012 <textPrint+0x1d9>
    1167: aa           	tax
    1168: bd 74 36     	lda	$3674,x                 ; 0x3674 <KeyCodesToLoPSG>
    116b: aa           	tax
    116c: 8e 08 d6     	stx	$d608                   ; 0xd608 <end_block9+0x9bdc>
    116f: 18           	clc
    1170: a9 79        	lda	#$79
    1172: 65 db        	adc	$db                     ; 0x20db <midiNoteOn+0x1a>
    1174: 85 12        	sta	$12                     ; 0x2012 <textPrint+0x1d9>
    1176: a9 35        	lda	#$35
    1178: 65 dc        	adc	$dc                     ; 0x20dc <midiNoteOn+0x1b>
    117a: 85 13        	sta	$13                     ; 0x2013 <textPrint+0x1da>
    117c: b2 12        	lda	($12)                   ; 0x2012 <textPrint+0x1d9>
    117e: aa           	tax
    117f: bd ef 36     	lda	$36ef,x                 ; 0x36ef <KeyCodesToHiPSG>
    1182: aa           	tax
    1183: 8e 08 d6     	stx	$d608                   ; 0xd608 <end_block9+0x9bdc>
    1186: a2 d2        	ldx	#$d2
    1188: 86 12        	stx	$12                     ; 0x2012 <textPrint+0x1d9>
    118a: a2 00        	ldx	#$0
    118c: 86 13        	stx	$13                     ; 0x2013 <textPrint+0x1da>
    118e: 20 e1 20     	jsr	$20e1 <setTimer>
    1191: a6 37        	ldx	$37                     ; 0x2037 <textPrint+0x1fe>
    1193: f0 0d        	beq	$11a2 <f256main+0x8d6>
    1195: a6 db        	ldx	$db                     ; 0x20db <midiNoteOn+0x1a>
    1197: a0 6f        	ldy	#$6f
    1199: 84 12        	sty	$12                     ; 0x2012 <textPrint+0x1d9>
    119b: 64 13        	stz	$13                     ; 0x2013 <textPrint+0x1da>
    119d: a9 00        	lda	#$0
    119f: 20 c1 20     	jsr	$20c1 <midiNoteOn>
    11a2: a5 db        	lda	$db                     ; 0x20db <midiNoteOn+0x1a>
    11a4: 0a           	asl
    11a5: 85 12        	sta	$12                     ; 0x2012 <textPrint+0x1d9>
    11a7: a9 00        	lda	#$0
    11a9: 2a           	rol
    11aa: 85 13        	sta	$13                     ; 0x2013 <textPrint+0x1da>
    11ac: a9 6a        	lda	#$6a
    11ae: 18           	clc
    11af: 65 12        	adc	$12                     ; 0x2012 <textPrint+0x1d9>
    11b1: 85 12        	sta	$12                     ; 0x2012 <textPrint+0x1d9>
    11b3: a9 37        	lda	#$37
    11b5: 65 13        	adc	$13                     ; 0x2013 <textPrint+0x1da>
    11b7: 85 13        	sta	$13                     ; 0x2013 <textPrint+0x1da>
    11b9: b2 12        	lda	($12)                   ; 0x2012 <textPrint+0x1d9>
    11bb: 85 14        	sta	$14                     ; 0x2014 <textPrint+0x1db>
    11bd: a0 01        	ldy	#$1
    11bf: b1 12        	lda	($12),y                 ; 0x2012 <textPrint+0x1d9>
    11c1: 85 12        	sta	$12                     ; 0x2012 <textPrint+0x1d9>
    11c3: 98           	tya
    11c4: 05 8f        	ora	$8f                     ; 0x208f <textPrint+0x256>
    11c6: 8d 08 d9     	sta	$d908                   ; 0xd908 <end_block9+0x9edc>
    11c9: a6 14        	ldx	$14                     ; 0x2014 <textPrint+0x1db>
    11cb: 8e 0c d9     	stx	$d90c                   ; 0xd90c <end_block9+0x9ee0>
    11ce: a6 12        	ldx	$12                     ; 0x2012 <textPrint+0x1d9>
    11d0: 8e 0d d9     	stx	$d90d                   ; 0xd90d <end_block9+0x9ee1>
    11d3: a2 c0        	ldx	#$c0
    11d5: 8e 0e d9     	stx	$d90e                   ; 0xd90e <end_block9+0x9ee2>
    11d8: 9c 0f d9     	stz	$d90f                   ; 0xd90f <end_block9+0x9ee3>
    11db: a4 29        	ldy	$29                     ; 0x2029 <textPrint+0x1f0>
    11dd: 4c 27 0a     	jmp	$a27 <f256main+0x15b>
    11e0: a2 7c        	ldx	#$7c
    11e2: 86 12        	stx	$12                     ; 0x2012 <textPrint+0x1d9>
    11e4: a2 33        	ldx	#$33
    11e6: 86 13        	stx	$13                     ; 0x2013 <textPrint+0x1da>
    11e8: 20 f6 30     	jsr	$30f6 <printf>
    11eb: 64 12        	stz	$12                     ; 0x2012 <textPrint+0x1d9>
    11ed: a9 00        	lda	#$0
    11ef: a0 07        	ldy	#$7
    11f1: 91 10        	sta	($10),y                 ; 0x2010 <textPrint+0x1d7>
    11f3: a0 09        	ldy	#$9
    11f5: 91 10        	sta	($10),y                 ; 0x2010 <textPrint+0x1d7>
    11f7: a4 29        	ldy	$29                     ; 0x2029 <textPrint+0x1f0>
    11f9: 4c 27 0a     	jmp	$a27 <f256main+0x15b>
    11fc: a6 37        	ldx	$37                     ; 0x2037 <textPrint+0x1fe>
    11fe: d0 03        	bne	$1203 <f256main+0x937>
    1200: 4c da 14     	jmp	$14da <f256main+0xc0e>
    1203: 18           	clc
    1204: 5a           	phy
    1205: a0 06        	ldy	#$6
    1207: b1 10        	lda	($10),y                 ; 0x2010 <textPrint+0x1d7>
    1209: 7a           	ply
    120a: 65 29        	adc	$29                     ; 0x2029 <textPrint+0x1f0>
    120c: 18           	clc
    120d: 79 f9 35     	adc	$35f9,y                 ; 0x35f9 <KeyCodesToMIDINotes>
    1210: a2 6f        	ldx	#$6f
    1212: 86 12        	stx	$12                     ; 0x2012 <textPrint+0x1d9>
    1214: 64 13        	stz	$13                     ; 0x2013 <textPrint+0x1da>
    1216: aa           	tax
    1217: a9 01        	lda	#$1
    1219: 20 c1 20     	jsr	$20c1 <midiNoteOn>
    121c: 4c f6 14     	jmp	$14f6 <f256main+0xc2a>
    121f: a0 03        	ldy	#$3
    1221: b1 10        	lda	($10),y                 ; 0x2010 <textPrint+0x1d7>
    1223: a4 2a        	ldy	$2a                     ; 0x202a <textPrint+0x1f1>
    1225: aa           	tax
    1226: d0 03        	bne	$122b <f256main+0x95f>
    1228: 4c 27 0a     	jmp	$a27 <f256main+0x15b>
    122b: a6 37        	ldx	$37                     ; 0x2037 <textPrint+0x1fe>
    122d: d0 03        	bne	$1232 <f256main+0x966>
    122f: 4c 27 0a     	jmp	$a27 <f256main+0x15b>
    1232: a0 03        	ldy	#$3
    1234: b1 10        	lda	($10),y                 ; 0x2010 <textPrint+0x1d7>
    1236: a8           	tay
    1237: 88           	dey
    1238: 4c 28 14     	jmp	$1428 <f256main+0xb5c>
    123b: a2 9f        	ldx	#$9f
    123d: 8e 08 d6     	stx	$d608                   ; 0xd608 <end_block9+0x9bdc>
    1240: a6 37        	ldx	$37                     ; 0x2037 <textPrint+0x1fe>
    1242: a0 10        	ldy	#$10
    1244: 8c 1f 3a     	sty	$3a1f                   ; 0x3a1f <_tileSize>
    1247: 8a           	txa
    1248: d0 03        	bne	$124d <f256main+0x981>
    124a: 4c 79 15     	jmp	$1579 <f256main+0xcad>
    124d: a2 20        	ldx	#$20
    124f: 8e 01 d2     	stx	$d201                   ; 0xd201 <end_block9+0x97d5>
    1252: a2 8f        	ldx	#$8f
    1254: 8e 02 d2     	stx	$d202                   ; 0xd202 <end_block9+0x97d6>
    1257: a2 03        	ldx	#$3
    1259: 8e 03 d2     	stx	$d203                   ; 0xd203 <end_block9+0x97d7>
    125c: a2 17        	ldx	#$17
    125e: 8e 04 d2     	stx	$d204                   ; 0xd204 <end_block9+0x97d8>
    1261: 9c 05 d2     	stz	$d205                   ; 0xd205 <end_block9+0x97d9>
    1264: a2 13        	ldx	#$13
    1266: 8e 06 d2     	stx	$d206                   ; 0xd206 <end_block9+0x97da>
    1269: 9c 07 d2     	stz	$d207                   ; 0xd207 <end_block9+0x97db>
    126c: 9c 08 d2     	stz	$d208                   ; 0xd208 <end_block9+0x97dc>
    126f: 9c 09 d2     	stz	$d209                   ; 0xd209 <end_block9+0x97dd>
    1272: 9c 0a d2     	stz	$d20a                   ; 0xd20a <end_block9+0x97de>
    1275: 9c 0b d2     	stz	$d20b                   ; 0xd20b <end_block9+0x97df>
    1278: a2 3c        	ldx	#$3c
    127a: 86 8a        	stx	$8a                     ; 0x208a <textPrint+0x251>
    127c: 8e 14 d0     	stx	$d014                   ; 0xd014 <end_block9+0x95e8>
    127f: 9c 15 d0     	stz	$d015                   ; 0xd015 <end_block9+0x95e9>
    1282: a2 02        	ldx	#$2
    1284: 86 8b        	stx	$8b                     ; 0x208b <textPrint+0x252>
    1286: 8e 16 d0     	stx	$d016                   ; 0xd016 <end_block9+0x95ea>
    1289: 9c 17 d0     	stz	$d017                   ; 0xd017 <end_block9+0x95eb>
    128c: a2 6b        	ldx	#$6b
    128e: 86 12        	stx	$12                     ; 0x2012 <textPrint+0x1d9>
    1290: a2 33        	ldx	#$33
    1292: 86 13        	stx	$13                     ; 0x2013 <textPrint+0x1da>
    1294: 20 f6 30     	jsr	$30f6 <printf>
    1297: 64 37        	stz	$37                     ; 0x2037 <textPrint+0x1fe>
    1299: a2 21        	ldx	#$21
    129b: 86 8a        	stx	$8a                     ; 0x208a <textPrint+0x251>
    129d: 8e 14 d0     	stx	$d014                   ; 0xd014 <end_block9+0x95e8>
    12a0: 9c 15 d0     	stz	$d015                   ; 0xd015 <end_block9+0x95e9>
    12a3: a2 10        	ldx	#$10
    12a5: 86 8b        	stx	$8b                     ; 0x208b <textPrint+0x252>
    12a7: 8e 16 d0     	stx	$d016                   ; 0xd016 <end_block9+0x95ea>
    12aa: 9c 17 d0     	stz	$d017                   ; 0xd017 <end_block9+0x95eb>
    12ad: a2 b2        	ldx	#$b2
    12af: 86 12        	stx	$12                     ; 0x2012 <textPrint+0x1d9>
    12b1: a2 34        	ldx	#$34
    12b3: 86 13        	stx	$13                     ; 0x2013 <textPrint+0x1da>
    12b5: 20 f6 30     	jsr	$30f6 <printf>
    12b8: a2 22        	ldx	#$22
    12ba: 86 8a        	stx	$8a                     ; 0x208a <textPrint+0x251>
    12bc: 8e 14 d0     	stx	$d014                   ; 0xd014 <end_block9+0x95e8>
    12bf: 9c 15 d0     	stz	$d015                   ; 0xd015 <end_block9+0x95e9>
    12c2: a2 17        	ldx	#$17
    12c4: 86 8b        	stx	$8b                     ; 0x208b <textPrint+0x252>
    12c6: 8e 16 d0     	stx	$d016                   ; 0xd016 <end_block9+0x95ea>
    12c9: 9c 17 d0     	stz	$d017                   ; 0xd017 <end_block9+0x95eb>
    12cc: a2 2f        	ldx	#$2f
    12ce: 86 12        	stx	$12                     ; 0x2012 <textPrint+0x1d9>
    12d0: a2 33        	ldx	#$33
    12d2: 4c fe 15     	jmp	$15fe <f256main+0xd32>
    12d5: 18           	clc
    12d6: a0 06        	ldy	#$6
    12d8: b1 10        	lda	($10),y                 ; 0x2010 <textPrint+0x1d7>
    12da: 65 29        	adc	$29                     ; 0x2029 <textPrint+0x1f0>
    12dc: 18           	clc
    12dd: 6d b1 36     	adc	$36b1                   ; 0x36b1 <KeyCodesToLoPSG+0x3d>
    12e0: a2 6f        	ldx	#$6f
    12e2: 86 12        	stx	$12                     ; 0x2012 <textPrint+0x1d9>
    12e4: 64 13        	stz	$13                     ; 0x2013 <textPrint+0x1da>
    12e6: aa           	tax
    12e7: a9 01        	lda	#$1
    12e9: 20 a1 20     	jsr	$20a1 <midiNoteOff>
    12ec: 38           	sec
    12ed: a0 05        	ldy	#$5
    12ef: b1 10        	lda	($10),y                 ; 0x2010 <textPrint+0x1d7>
    12f1: e9 fe        	sbc	#$fe
    12f3: 50 02        	bvc	$12f7 <f256main+0xa2b>
    12f5: 49 80        	eor	#$80
    12f7: a4 2a        	ldy	$2a                     ; 0x202a <textPrint+0x1f1>
    12f9: aa           	tax
    12fa: 10 03        	bpl	$12ff <f256main+0xa33>
    12fc: 4c 27 0a     	jmp	$a27 <f256main+0x15b>
    12ff: a6 37        	ldx	$37                     ; 0x2037 <textPrint+0x1fe>
    1301: d0 03        	bne	$1306 <f256main+0xa3a>
    1303: 4c 27 0a     	jmp	$a27 <f256main+0x15b>
    1306: 5a           	phy
    1307: a0 05        	ldy	#$5
    1309: b1 10        	lda	($10),y                 ; 0x2010 <textPrint+0x1d7>
    130b: aa           	tax
    130c: ca           	dex
    130d: 80 38        	bra	$1347 <f256main+0xa7b>
    130f: 18           	clc
    1310: a0 06        	ldy	#$6
    1312: b1 10        	lda	($10),y                 ; 0x2010 <textPrint+0x1d7>
    1314: 65 29        	adc	$29                     ; 0x2029 <textPrint+0x1f0>
    1316: 18           	clc
    1317: 6d b2 36     	adc	$36b2                   ; 0x36b2 <KeyCodesToLoPSG+0x3e>
    131a: a2 6f        	ldx	#$6f
    131c: 86 12        	stx	$12                     ; 0x2012 <textPrint+0x1d9>
    131e: 64 13        	stz	$13                     ; 0x2013 <textPrint+0x1da>
    1320: aa           	tax
    1321: a9 01        	lda	#$1
    1323: 20 a1 20     	jsr	$20a1 <midiNoteOff>
    1326: 38           	sec
    1327: a0 05        	ldy	#$5
    1329: b1 10        	lda	($10),y                 ; 0x2010 <textPrint+0x1d7>
    132b: e9 04        	sbc	#$4
    132d: 50 02        	bvc	$1331 <f256main+0xa65>
    132f: 49 80        	eor	#$80
    1331: a4 2a        	ldy	$2a                     ; 0x202a <textPrint+0x1f1>
    1333: aa           	tax
    1334: 30 03        	bmi	$1339 <f256main+0xa6d>
    1336: 4c 27 0a     	jmp	$a27 <f256main+0x15b>
    1339: a6 37        	ldx	$37                     ; 0x2037 <textPrint+0x1fe>
    133b: d0 03        	bne	$1340 <f256main+0xa74>
    133d: 4c 27 0a     	jmp	$a27 <f256main+0x15b>
    1340: 5a           	phy
    1341: a0 05        	ldy	#$5
    1343: b1 10        	lda	($10),y                 ; 0x2010 <textPrint+0x1d7>
    1345: aa           	tax
    1346: e8           	inx
    1347: 8a           	txa
    1348: 4c 66 14     	jmp	$1466 <f256main+0xb9a>
    134b: 64 ce        	stz	$ce                     ; 0x20ce <midiNoteOn+0xd>
    134d: a9 00        	lda	#$0
    134f: 20 14 21     	jsr	$2114 <getTimerAbsolute>
    1352: 18           	clc
    1353: 69 19        	adc	#$19
    1355: 85 d3        	sta	$d3                     ; 0x20d3 <midiNoteOn+0x12>
    1357: a6 38        	ldx	$38                     ; 0x2038 <textPrint+0x1ff>
    1359: 86 db        	stx	$db                     ; 0x20db <midiNoteOn+0x1a>
    135b: 64 dc        	stz	$dc                     ; 0x20dc <midiNoteOn+0x1b>
    135d: a6 37        	ldx	$37                     ; 0x2037 <textPrint+0x1fe>
    135f: d0 38        	bne	$1399 <f256main+0xacd>
    1361: a2 9f        	ldx	#$9f
    1363: 8e 08 d6     	stx	$d608                   ; 0xd608 <end_block9+0x9bdc>
    1366: a2 94        	ldx	#$94
    1368: 8e 08 d6     	stx	$d608                   ; 0xd608 <end_block9+0x9bdc>
    136b: 18           	clc
    136c: a9 79        	lda	#$79
    136e: 65 db        	adc	$db                     ; 0x20db <midiNoteOn+0x1a>
    1370: 85 12        	sta	$12                     ; 0x2012 <textPrint+0x1d9>
    1372: a9 35        	lda	#$35
    1374: 65 dc        	adc	$dc                     ; 0x20dc <midiNoteOn+0x1b>
    1376: 85 13        	sta	$13                     ; 0x2013 <textPrint+0x1da>
    1378: b2 12        	lda	($12)                   ; 0x2012 <textPrint+0x1d9>
    137a: aa           	tax
    137b: bd 74 36     	lda	$3674,x                 ; 0x3674 <KeyCodesToLoPSG>
    137e: aa           	tax
    137f: 8e 08 d6     	stx	$d608                   ; 0xd608 <end_block9+0x9bdc>
    1382: 18           	clc
    1383: a9 79        	lda	#$79
    1385: 65 db        	adc	$db                     ; 0x20db <midiNoteOn+0x1a>
    1387: 85 12        	sta	$12                     ; 0x2012 <textPrint+0x1d9>
    1389: a9 35        	lda	#$35
    138b: 65 dc        	adc	$dc                     ; 0x20dc <midiNoteOn+0x1b>
    138d: 85 13        	sta	$13                     ; 0x2013 <textPrint+0x1da>
    138f: b2 12        	lda	($12)                   ; 0x2012 <textPrint+0x1d9>
    1391: aa           	tax
    1392: bd ef 36     	lda	$36ef,x                 ; 0x36ef <KeyCodesToHiPSG>
    1395: aa           	tax
    1396: 8e 08 d6     	stx	$d608                   ; 0xd608 <end_block9+0x9bdc>
    1399: a2 d2        	ldx	#$d2
    139b: 86 12        	stx	$12                     ; 0x2012 <textPrint+0x1d9>
    139d: a2 00        	ldx	#$0
    139f: 86 13        	stx	$13                     ; 0x2013 <textPrint+0x1da>
    13a1: 20 e1 20     	jsr	$20e1 <setTimer>
    13a4: a6 37        	ldx	$37                     ; 0x2037 <textPrint+0x1fe>
    13a6: a0 01        	ldy	#$1
    13a8: 98           	tya
    13a9: c8           	iny
    13aa: 91 10        	sta	($10),y                 ; 0x2010 <textPrint+0x1d7>
    13ac: 64 12        	stz	$12                     ; 0x2012 <textPrint+0x1d9>
    13ae: a9 00        	lda	#$0
    13b0: a0 08        	ldy	#$8
    13b2: 91 10        	sta	($10),y                 ; 0x2010 <textPrint+0x1d7>
    13b4: a4 2a        	ldy	$2a                     ; 0x202a <textPrint+0x1f1>
    13b6: 8a           	txa
    13b7: d0 03        	bne	$13bc <f256main+0xaf0>
    13b9: 4c 27 0a     	jmp	$a27 <f256main+0x15b>
    13bc: a6 db        	ldx	$db                     ; 0x20db <midiNoteOn+0x1a>
    13be: a0 6f        	ldy	#$6f
    13c0: 84 12        	sty	$12                     ; 0x2012 <textPrint+0x1d9>
    13c2: 64 13        	stz	$13                     ; 0x2013 <textPrint+0x1da>
    13c4: a9 00        	lda	#$0
    13c6: 20 c1 20     	jsr	$20c1 <midiNoteOn>
    13c9: a4 2a        	ldy	$2a                     ; 0x202a <textPrint+0x1f1>
    13cb: 64 12        	stz	$12                     ; 0x2012 <textPrint+0x1d9>
    13cd: a9 00        	lda	#$0
    13cf: 5a           	phy
    13d0: a0 08        	ldy	#$8
    13d2: 4c 66 14     	jmp	$1466 <f256main+0xb9a>
    13d5: a2 7b        	ldx	#$7b
    13d7: 8e a1 dd     	stx	$dda1                   ; 0xdda1 <end_block9+0xa375>
    13da: 9c a1 dd     	stz	$dda1                   ; 0xdda1 <end_block9+0xa375>
    13dd: a2 ff        	ldx	#$ff
    13df: 8e a1 dd     	stx	$dda1                   ; 0xdda1 <end_block9+0xa375>
    13e2: a2 c0        	ldx	#$c0
    13e4: 8e a1 dd     	stx	$dda1                   ; 0xdda1 <end_block9+0xa375>
    13e7: a0 13        	ldy	#$13
    13e9: 8c a1 dd     	sty	$dda1                   ; 0xdda1 <end_block9+0xa375>
    13ec: e8           	inx
    13ed: 8e a1 dd     	stx	$dda1                   ; 0xdda1 <end_block9+0xa375>
    13f0: a2 13        	ldx	#$13
    13f2: 8a           	txa
    13f3: 5a           	phy
    13f4: a0 03        	ldy	#$3
    13f6: 91 10        	sta	($10),y                 ; 0x2010 <textPrint+0x1d7>
    13f8: 7a           	ply
    13f9: 8c a1 dd     	sty	$dda1                   ; 0xdda1 <end_block9+0xa375>
    13fc: a2 9f        	ldx	#$9f
    13fe: 8e 08 d6     	stx	$d608                   ; 0xd608 <end_block9+0x9bdc>
    1401: 64 12        	stz	$12                     ; 0x2012 <textPrint+0x1d9>
    1403: a9 00        	lda	#$0
    1405: a0 05        	ldy	#$5
    1407: 91 10        	sta	($10),y                 ; 0x2010 <textPrint+0x1d7>
    1409: a4 2a        	ldy	$2a                     ; 0x202a <textPrint+0x1f1>
    140b: 4c 27 0a     	jmp	$a27 <f256main+0x15b>
    140e: a0 03        	ldy	#$3
    1410: b1 10        	lda	($10),y                 ; 0x2010 <textPrint+0x1d7>
    1412: c9 81        	cmp	#$81
    1414: a4 2a        	ldy	$2a                     ; 0x202a <textPrint+0x1f1>
    1416: 90 03        	bcc	$141b <f256main+0xb4f>
    1418: 4c 27 0a     	jmp	$a27 <f256main+0x15b>
    141b: a6 37        	ldx	$37                     ; 0x2037 <textPrint+0x1fe>
    141d: d0 03        	bne	$1422 <f256main+0xb56>
    141f: 4c 27 0a     	jmp	$a27 <f256main+0x15b>
    1422: a0 03        	ldy	#$3
    1424: b1 10        	lda	($10),y                 ; 0x2010 <textPrint+0x1d7>
    1426: a8           	tay
    1427: c8           	iny
    1428: a2 c1        	ldx	#$c1
    142a: 8e a1 dd     	stx	$dda1                   ; 0xdda1 <end_block9+0xa375>
    142d: 98           	tya
    142e: 5a           	phy
    142f: a0 03        	ldy	#$3
    1431: 91 10        	sta	($10),y                 ; 0x2010 <textPrint+0x1d7>
    1433: 7a           	ply
    1434: 8c a1 dd     	sty	$dda1                   ; 0xdda1 <end_block9+0xa375>
    1437: a4 2a        	ldy	$2a                     ; 0x202a <textPrint+0x1f1>
    1439: 4c 27 0a     	jmp	$a27 <f256main+0x15b>
    143c: e0 00        	cpx	#$0
    143e: 90 03        	bcc	$1443 <f256main+0xb77>
    1440: 4c c7 10     	jmp	$10c7 <f256main+0x7fb>
    1443: a9 00        	lda	#$0
    1445: 20 14 21     	jsr	$2114 <getTimerAbsolute>
    1448: 18           	clc
    1449: 69 03        	adc	#$3
    144b: 85 d6        	sta	$d6                     ; 0x20d6 <midiNoteOn+0x15>
    144d: a2 d5        	ldx	#$d5
    144f: 86 12        	stx	$12                     ; 0x2012 <textPrint+0x1d9>
    1451: a2 00        	ldx	#$0
    1453: 4c 20 0a     	jmp	$a20 <f256main+0x154>
    1456: e0 49        	cpx	#$49
    1458: d0 12        	bne	$146c <f256main+0xba0>
    145a: a2 9f        	ldx	#$9f
    145c: 8e 08 d6     	stx	$d608                   ; 0xd608 <end_block9+0x9bdc>
    145f: 64 12        	stz	$12                     ; 0x2012 <textPrint+0x1d9>
    1461: a9 00        	lda	#$0
    1463: 5a           	phy
    1464: a0 02        	ldy	#$2
    1466: 91 10        	sta	($10),y                 ; 0x2010 <textPrint+0x1d7>
    1468: 7a           	ply
    1469: 4c 27 0a     	jmp	$a27 <f256main+0x15b>
    146c: 5a           	phy
    146d: a0 07        	ldy	#$7
    146f: b1 10        	lda	($10),y                 ; 0x2010 <textPrint+0x1d7>
    1471: 7a           	ply
    1472: aa           	tax
    1473: f0 03        	beq	$1478 <f256main+0xbac>
    1475: 4c 27 0a     	jmp	$a27 <f256main+0x15b>
    1478: 5a           	phy
    1479: a0 09        	ldy	#$9
    147b: b1 10        	lda	($10),y                 ; 0x2010 <textPrint+0x1d7>
    147d: 7a           	ply
    147e: c9 01        	cmp	#$1
    1480: f0 03        	beq	$1485 <f256main+0xbb9>
    1482: 4c 27 0a     	jmp	$a27 <f256main+0x15b>
    1485: a0 08        	ldy	#$8
    1487: b1 10        	lda	($10),y                 ; 0x2010 <textPrint+0x1d7>
    1489: aa           	tax
    148a: e8           	inx
    148b: 8a           	txa
    148c: 91 10        	sta	($10),y                 ; 0x2010 <textPrint+0x1d7>
    148e: b5 38        	lda	$38,x                   ; 0x2038 <textPrint+0x1ff>
    1490: 85 db        	sta	$db                     ; 0x20db <midiNoteOn+0x1a>
    1492: 64 dc        	stz	$dc                     ; 0x20dc <midiNoteOn+0x1b>
    1494: 0a           	asl
    1495: 85 12        	sta	$12                     ; 0x2012 <textPrint+0x1d9>
    1497: a9 00        	lda	#$0
    1499: 2a           	rol
    149a: 85 13        	sta	$13                     ; 0x2013 <textPrint+0x1da>
    149c: a9 6a        	lda	#$6a
    149e: 18           	clc
    149f: 65 12        	adc	$12                     ; 0x2012 <textPrint+0x1d9>
    14a1: 85 12        	sta	$12                     ; 0x2012 <textPrint+0x1d9>
    14a3: a9 37        	lda	#$37
    14a5: 65 13        	adc	$13                     ; 0x2013 <textPrint+0x1da>
    14a7: 85 13        	sta	$13                     ; 0x2013 <textPrint+0x1da>
    14a9: b2 12        	lda	($12)                   ; 0x2012 <textPrint+0x1d9>
    14ab: 85 14        	sta	$14                     ; 0x2014 <textPrint+0x1db>
    14ad: a0 01        	ldy	#$1
    14af: b1 12        	lda	($12),y                 ; 0x2012 <textPrint+0x1d9>
    14b1: 85 12        	sta	$12                     ; 0x2012 <textPrint+0x1d9>
    14b3: a4 29        	ldy	$29                     ; 0x2029 <textPrint+0x1f0>
    14b5: a9 01        	lda	#$1
    14b7: 05 8f        	ora	$8f                     ; 0x208f <textPrint+0x256>
    14b9: 8d 08 d9     	sta	$d908                   ; 0xd908 <end_block9+0x9edc>
    14bc: a6 14        	ldx	$14                     ; 0x2014 <textPrint+0x1db>
    14be: 8e 0c d9     	stx	$d90c                   ; 0xd90c <end_block9+0x9ee0>
    14c1: a6 12        	ldx	$12                     ; 0x2012 <textPrint+0x1d9>
    14c3: 8e 0d d9     	stx	$d90d                   ; 0xd90d <end_block9+0x9ee1>
    14c6: a2 01        	ldx	#$1
    14c8: 8a           	txa
    14c9: 5a           	phy
    14ca: a0 07        	ldy	#$7
    14cc: 91 10        	sta	($10),y                 ; 0x2010 <textPrint+0x1d7>
    14ce: 7a           	ply
    14cf: a2 c0        	ldx	#$c0
    14d1: 8e 0e d9     	stx	$d90e                   ; 0xd90e <end_block9+0x9ee2>
    14d4: 9c 0f d9     	stz	$d90f                   ; 0xd90f <end_block9+0x9ee3>
    14d7: 4c 27 0a     	jmp	$a27 <f256main+0x15b>
    14da: a2 9f        	ldx	#$9f
    14dc: 8e 08 d6     	stx	$d608                   ; 0xd608 <end_block9+0x9bdc>
    14df: a2 94        	ldx	#$94
    14e1: 8e 08 d6     	stx	$d608                   ; 0xd608 <end_block9+0x9bdc>
    14e4: a6 e2        	ldx	$e2                     ; 0x20e2 <setTimer+0x1>
    14e6: bd 74 36     	lda	$3674,x                 ; 0x3674 <KeyCodesToLoPSG>
    14e9: aa           	tax
    14ea: 8e 08 d6     	stx	$d608                   ; 0xd608 <end_block9+0x9bdc>
    14ed: a6 e2        	ldx	$e2                     ; 0x20e2 <setTimer+0x1>
    14ef: bd ef 36     	lda	$36ef,x                 ; 0x36ef <KeyCodesToHiPSG>
    14f2: aa           	tax
    14f3: 8e 08 d6     	stx	$d608                   ; 0xd608 <end_block9+0x9bdc>
    14f6: a6 e2        	ldx	$e2                     ; 0x20e2 <setTimer+0x1>
    14f8: bd f9 35     	lda	$35f9,x                 ; 0x35f9 <KeyCodesToMIDINotes>
    14fb: 0a           	asl
    14fc: 85 12        	sta	$12                     ; 0x2012 <textPrint+0x1d9>
    14fe: a9 00        	lda	#$0
    1500: 2a           	rol
    1501: 85 13        	sta	$13                     ; 0x2013 <textPrint+0x1da>
    1503: a9 6a        	lda	#$6a
    1505: 18           	clc
    1506: 65 12        	adc	$12                     ; 0x2012 <textPrint+0x1d9>
    1508: 85 12        	sta	$12                     ; 0x2012 <textPrint+0x1d9>
    150a: a9 37        	lda	#$37
    150c: 65 13        	adc	$13                     ; 0x2013 <textPrint+0x1da>
    150e: 85 13        	sta	$13                     ; 0x2013 <textPrint+0x1da>
    1510: b2 12        	lda	($12)                   ; 0x2012 <textPrint+0x1d9>
    1512: 85 14        	sta	$14                     ; 0x2014 <textPrint+0x1db>
    1514: a0 01        	ldy	#$1
    1516: b1 12        	lda	($12),y                 ; 0x2012 <textPrint+0x1d9>
    1518: 85 12        	sta	$12                     ; 0x2012 <textPrint+0x1d9>
    151a: 98           	tya
    151b: 05 8e        	ora	$8e                     ; 0x208e <textPrint+0x255>
    151d: 8d 00 d9     	sta	$d900                   ; 0xd900 <end_block9+0x9ed4>
    1520: a6 14        	ldx	$14                     ; 0x2014 <textPrint+0x1db>
    1522: 8e 04 d9     	stx	$d904                   ; 0xd904 <end_block9+0x9ed8>
    1525: a6 12        	ldx	$12                     ; 0x2012 <textPrint+0x1d9>
    1527: 8e 05 d9     	stx	$d905                   ; 0xd905 <end_block9+0x9ed9>
    152a: a2 c0        	ldx	#$c0
    152c: 8e 06 d9     	stx	$d906                   ; 0xd906 <end_block9+0x9eda>
    152f: 9c 07 d9     	stz	$d907                   ; 0xd907 <end_block9+0x9edb>
    1532: a6 e2        	ldx	$e2                     ; 0x20e2 <setTimer+0x1>
    1534: bd f9 35     	lda	$35f9,x                 ; 0x35f9 <KeyCodesToMIDINotes>
    1537: 48           	pha
    1538: a0 08        	ldy	#$8
    153a: b1 10        	lda	($10),y                 ; 0x2010 <textPrint+0x1d7>
    153c: aa           	tax
    153d: 68           	pla
    153e: d5 38        	cmp	$38,x                   ; 0x2038 <textPrint+0x1ff>
    1540: d0 1c        	bne	$155e <f256main+0xc92>
    1542: a4 2a        	ldy	$2a                     ; 0x202a <textPrint+0x1f1>
    1544: 5a           	phy
    1545: a0 09        	ldy	#$9
    1547: b1 10        	lda	($10),y                 ; 0x2010 <textPrint+0x1d7>
    1549: 7a           	ply
    154a: aa           	tax
    154b: d0 03        	bne	$1550 <f256main+0xc84>
    154d: 4c 27 0a     	jmp	$a27 <f256main+0x15b>
    1550: a2 01        	ldx	#$1
    1552: 8a           	txa
    1553: 5a           	phy
    1554: a0 07        	ldy	#$7
    1556: 91 10        	sta	($10),y                 ; 0x2010 <textPrint+0x1d7>
    1558: 7a           	ply
    1559: e6 ce        	inc	$ce                     ; 0x20ce <midiNoteOn+0xd>
    155b: 4c 27 0a     	jmp	$a27 <f256main+0x15b>
    155e: a4 2a        	ldy	$2a                     ; 0x202a <textPrint+0x1f1>
    1560: 5a           	phy
    1561: a0 09        	ldy	#$9
    1563: b1 10        	lda	($10),y                 ; 0x2010 <textPrint+0x1d7>
    1565: 7a           	ply
    1566: aa           	tax
    1567: d0 03        	bne	$156c <f256main+0xca0>
    1569: 4c 27 0a     	jmp	$a27 <f256main+0x15b>
    156c: a6 ce        	ldx	$ce                     ; 0x20ce <midiNoteOn+0xd>
    156e: d0 03        	bne	$1573 <f256main+0xca7>
    1570: 4c 27 0a     	jmp	$a27 <f256main+0x15b>
    1573: ca           	dex
    1574: 86 ce        	stx	$ce                     ; 0x20ce <midiNoteOn+0xd>
    1576: 4c 27 0a     	jmp	$a27 <f256main+0x15b>
    1579: 9c 01 d2     	stz	$d201                   ; 0xd201 <end_block9+0x97d5>
    157c: a2 88        	ldx	#$88
    157e: 8e 02 d2     	stx	$d202                   ; 0xd202 <end_block9+0x97d6>
    1581: a2 03        	ldx	#$3
    1583: 8e 03 d2     	stx	$d203                   ; 0xd203 <end_block9+0x97d7>
    1586: a2 17        	ldx	#$17
    1588: 8e 04 d2     	stx	$d204                   ; 0xd204 <end_block9+0x97d8>
    158b: 9c 05 d2     	stz	$d205                   ; 0xd205 <end_block9+0x97d9>
    158e: a2 13        	ldx	#$13
    1590: 8e 06 d2     	stx	$d206                   ; 0xd206 <end_block9+0x97da>
    1593: 9c 07 d2     	stz	$d207                   ; 0xd207 <end_block9+0x97db>
    1596: 9c 08 d2     	stz	$d208                   ; 0xd208 <end_block9+0x97dc>
    1599: 9c 09 d2     	stz	$d209                   ; 0xd209 <end_block9+0x97dd>
    159c: 9c 0a d2     	stz	$d20a                   ; 0xd20a <end_block9+0x97de>
    159f: 9c 0b d2     	stz	$d20b                   ; 0xd20b <end_block9+0x97df>
    15a2: a2 3c        	ldx	#$3c
    15a4: 86 8a        	stx	$8a                     ; 0x208a <textPrint+0x251>
    15a6: 8e 14 d0     	stx	$d014                   ; 0xd014 <end_block9+0x95e8>
    15a9: 9c 15 d0     	stz	$d015                   ; 0xd015 <end_block9+0x95e9>
    15ac: a2 02        	ldx	#$2
    15ae: 86 8b        	stx	$8b                     ; 0x208b <textPrint+0x252>
    15b0: 8e 16 d0     	stx	$d016                   ; 0xd016 <end_block9+0x95ea>
    15b3: 9c 17 d0     	stz	$d017                   ; 0xd017 <end_block9+0x95eb>
    15b6: a2 93        	ldx	#$93
    15b8: 86 12        	stx	$12                     ; 0x2012 <textPrint+0x1d9>
    15ba: a2 33        	ldx	#$33
    15bc: 86 13        	stx	$13                     ; 0x2013 <textPrint+0x1da>
    15be: 20 f6 30     	jsr	$30f6 <printf>
    15c1: a2 01        	ldx	#$1
    15c3: 86 37        	stx	$37                     ; 0x2037 <textPrint+0x1fe>
    15c5: a2 21        	ldx	#$21
    15c7: 86 8a        	stx	$8a                     ; 0x208a <textPrint+0x251>
    15c9: 8e 14 d0     	stx	$d014                   ; 0xd014 <end_block9+0x95e8>
    15cc: 9c 15 d0     	stz	$d015                   ; 0xd015 <end_block9+0x95e9>
    15cf: a2 10        	ldx	#$10
    15d1: 86 8b        	stx	$8b                     ; 0x208b <textPrint+0x252>
    15d3: 8e 16 d0     	stx	$d016                   ; 0xd016 <end_block9+0x95ea>
    15d6: 9c 17 d0     	stz	$d017                   ; 0xd017 <end_block9+0x95eb>
    15d9: a2 2e        	ldx	#$2e
    15db: 86 12        	stx	$12                     ; 0x2012 <textPrint+0x1d9>
    15dd: a2 34        	ldx	#$34
    15df: 86 13        	stx	$13                     ; 0x2013 <textPrint+0x1da>
    15e1: 20 f6 30     	jsr	$30f6 <printf>
    15e4: a2 22        	ldx	#$22
    15e6: 86 8a        	stx	$8a                     ; 0x208a <textPrint+0x251>
    15e8: 8e 14 d0     	stx	$d014                   ; 0xd014 <end_block9+0x95e8>
    15eb: 9c 15 d0     	stz	$d015                   ; 0xd015 <end_block9+0x95e9>
    15ee: a2 17        	ldx	#$17
    15f0: 86 8b        	stx	$8b                     ; 0x208b <textPrint+0x252>
    15f2: 8e 16 d0     	stx	$d016                   ; 0xd016 <end_block9+0x95ea>
    15f5: 9c 17 d0     	stz	$d017                   ; 0xd017 <end_block9+0x95eb>
    15f8: a2 f7        	ldx	#$f7
    15fa: 86 12        	stx	$12                     ; 0x2012 <textPrint+0x1d9>
    15fc: a2 34        	ldx	#$34
    15fe: 86 13        	stx	$13                     ; 0x2013 <textPrint+0x1da>
    1600: 20 f6 30     	jsr	$30f6 <printf>
    1603: a4 2a        	ldy	$2a                     ; 0x202a <textPrint+0x1f1>
    1605: 4c 27 0a     	jmp	$a27 <f256main+0x15b>

00001608 <setup>:
    1608: a6 24        	ldx	$24                     ; 0x2024 <textPrint+0x1eb>
    160a: da           	phx
    160b: a6 25        	ldx	$25                     ; 0x2025 <textPrint+0x1ec>
    160d: da           	phx
    160e: a6 26        	ldx	$26                     ; 0x2026 <textPrint+0x1ed>
    1610: da           	phx
    1611: a6 27        	ldx	$27                     ; 0x2027 <textPrint+0x1ee>
    1613: da           	phx
    1614: a2 c0        	ldx	#$c0
    1616: 64 16        	stz	$16                     ; 0x2016 <textPrint+0x1dd>
    1618: a0 00        	ldy	#$0
    161a: 84 24        	sty	$24                     ; 0x2024 <textPrint+0x1eb>
    161c: a0 c0        	ldy	#$c0
    161e: 84 25        	sty	$25                     ; 0x2025 <textPrint+0x1ec>
    1620: a0 7b        	ldy	#$7b
    1622: 8c a1 dd     	sty	$dda1                   ; 0xdda1 <end_block9+0xa375>
    1625: 9c a1 dd     	stz	$dda1                   ; 0xdda1 <end_block9+0xa375>
    1628: a0 ff        	ldy	#$ff
    162a: 8c a1 dd     	sty	$dda1                   ; 0xdda1 <end_block9+0xa375>
    162d: 8e a1 dd     	stx	$dda1                   ; 0xdda1 <end_block9+0xa375>
    1630: a2 13        	ldx	#$13
    1632: 8e a1 dd     	stx	$dda1                   ; 0xdda1 <end_block9+0xa375>
    1635: a0 c1        	ldy	#$c1
    1637: 8c a1 dd     	sty	$dda1                   ; 0xdda1 <end_block9+0xa375>
    163a: 8e a1 dd     	stx	$dda1                   ; 0xdda1 <end_block9+0xa375>
    163d: 64 cf        	stz	$cf                     ; 0x20cf <midiNoteOn+0xe>
    163f: a2 01        	ldx	#$1
    1641: 86 d0        	stx	$d0                     ; 0x20d0 <midiNoteOn+0xf>
    1643: 64 d1        	stz	$d1                     ; 0x20d1 <midiNoteOn+0x10>
    1645: 64 d2        	stz	$d2                     ; 0x20d2 <midiNoteOn+0x11>
    1647: a0 1e        	ldy	#$1e
    1649: 84 d3        	sty	$d3                     ; 0x20d3 <midiNoteOn+0x12>
    164b: 86 d4        	stx	$d4                     ; 0x20d4 <midiNoteOn+0x13>
    164d: 64 d5        	stz	$d5                     ; 0x20d5 <midiNoteOn+0x14>
    164f: a0 03        	ldy	#$3
    1651: 84 d6        	sty	$d6                     ; 0x20d6 <midiNoteOn+0x15>
    1653: 88           	dey
    1654: 84 d7        	sty	$d7                     ; 0x20d7 <midiNoteOn+0x16>
    1656: 64 01        	stz	$1                      ; 0x2001 <textPrint+0x1c8>
    1658: a0 3f        	ldy	#$3f
    165a: 8c 00 d0     	sty	$d000                   ; 0xd000 <end_block9+0x95d4>
    165d: a0 14        	ldy	#$14
    165f: 8c 01 d0     	sty	$d001                   ; 0xd001 <end_block9+0x95d5>
    1662: 8e 02 d0     	stx	$d002                   ; 0xd002 <end_block9+0x95d6>
    1665: a0 04        	ldy	#$4
    1667: 8c 03 d0     	sty	$d003                   ; 0xd003 <end_block9+0x95d7>
    166a: 86 01        	stx	$1                      ; 0x2001 <textPrint+0x1c8>
    166c: a2 d0        	ldx	#$d0
    166e: a4 16        	ldy	$16                     ; 0x2016 <textPrint+0x1dd>
    1670: 84 12        	sty	$12                     ; 0x2012 <textPrint+0x1d9>
    1672: 86 13        	stx	$13                     ; 0x2013 <textPrint+0x1da>
    1674: a4 0f        	ldy	$f                      ; 0x200f <textPrint+0x1d6>
    1676: 78           	sei
    1677: a9 14        	lda	#$14
    1679: 85 0f        	sta	$f                      ; 0x200f <textPrint+0x1d6>
    167b: 18           	clc
    167c: a5 16        	lda	$16                     ; 0x2016 <textPrint+0x1dd>
    167e: 69 00        	adc	#$0
    1680: 85 17        	sta	$17                     ; 0x2017 <textPrint+0x1de>
    1682: 5a           	phy
    1683: a0 01        	ldy	#$1
    1685: b0 02        	bcs	$1689 <setup+0x81>
    1687: a0 00        	ldy	#$0
    1689: 84 18        	sty	$18                     ; 0x2018 <textPrint+0x1df>
    168b: 8a           	txa
    168c: 69 10        	adc	#$10
    168e: a4 17        	ldy	$17                     ; 0x2017 <textPrint+0x1de>
    1690: 84 14        	sty	$14                     ; 0x2014 <textPrint+0x1db>
    1692: 7a           	ply
    1693: 85 15        	sta	$15                     ; 0x2015 <textPrint+0x1dc>
    1695: b2 14        	lda	($14)                   ; 0x2014 <textPrint+0x1db>
    1697: 84 0f        	sty	$f                      ; 0x200f <textPrint+0x1d6>
    1699: 58           	cli
    169a: 92 12        	sta	($12)                   ; 0x2012 <textPrint+0x1d9>
    169c: a4 0f        	ldy	$f                      ; 0x200f <textPrint+0x1d6>
    169e: 78           	sei
    169f: a9 14        	lda	#$14
    16a1: 85 0f        	sta	$f                      ; 0x200f <textPrint+0x1d6>
    16a3: 5a           	phy
    16a4: a4 18        	ldy	$18                     ; 0x2018 <textPrint+0x1df>
    16a6: c0 01        	cpy	#$1
    16a8: 8a           	txa
    16a9: 69 14        	adc	#$14
    16ab: a4 17        	ldy	$17                     ; 0x2017 <textPrint+0x1de>
    16ad: 84 12        	sty	$12                     ; 0x2012 <textPrint+0x1d9>
    16af: 7a           	ply
    16b0: 85 13        	sta	$13                     ; 0x2013 <textPrint+0x1da>
    16b2: b2 12        	lda	($12)                   ; 0x2012 <textPrint+0x1d9>
    16b4: 85 14        	sta	$14                     ; 0x2014 <textPrint+0x1db>
    16b6: 84 0f        	sty	$f                      ; 0x200f <textPrint+0x1d6>
    16b8: 8a           	txa
    16b9: a4 18        	ldy	$18                     ; 0x2018 <textPrint+0x1df>
    16bb: c0 01        	cpy	#$1
    16bd: 69 04        	adc	#$4
    16bf: 58           	cli
    16c0: 85 13        	sta	$13                     ; 0x2013 <textPrint+0x1da>
    16c2: a5 14        	lda	$14                     ; 0x2014 <textPrint+0x1db>
    16c4: 92 12        	sta	($12)                   ; 0x2012 <textPrint+0x1d9>
    16c6: e6 16        	inc	$16                     ; 0x2016 <textPrint+0x1dd>
    16c8: d0 01        	bne	$16cb <setup+0xc3>
    16ca: e8           	inx
    16cb: e0 d3        	cpx	#$d3
    16cd: f0 03        	beq	$16d2 <setup+0xca>
    16cf: 4c 6e 16     	jmp	$166e <setup+0x66>
    16d2: a4 16        	ldy	$16                     ; 0x2016 <textPrint+0x1dd>
    16d4: c0 ff        	cpy	#$ff
    16d6: f0 03        	beq	$16db <setup+0xd3>
    16d8: 4c 6e 16     	jmp	$166e <setup+0x66>
    16db: 64 01        	stz	$1                      ; 0x2001 <textPrint+0x1c8>
    16dd: 9c 0e 3a     	stz	$3a0e                   ; 0x3a0e <_BITMAP_BASE>
    16e0: 9c 0f 3a     	stz	$3a0f                   ; 0x3a0f <_BITMAP_BASE+0x1>
    16e3: a2 01        	ldx	#$1
    16e5: 8e 10 3a     	stx	$3a10                   ; 0x3a10 <_BITMAP_BASE+0x2>
    16e8: 9c 11 3a     	stz	$3a11                   ; 0x3a11 <_BITMAP_BASE+0x3>
    16eb: 9c 01 d1     	stz	$d101                   ; 0xd101 <end_block9+0x96d5>
    16ee: 9c 02 d1     	stz	$d102                   ; 0xd102 <end_block9+0x96d6>
    16f1: 8e 03 d1     	stx	$d103                   ; 0xd103 <end_block9+0x96d7>
    16f4: a2 b6        	ldx	#$b6
    16f6: 86 12        	stx	$12                     ; 0x2012 <textPrint+0x1d9>
    16f8: 64 13        	stz	$13                     ; 0x2013 <textPrint+0x1da>
    16fa: a0 64        	ldy	#$64
    16fc: 84 14        	sty	$14                     ; 0x2014 <textPrint+0x1db>
    16fe: 64 15        	stz	$15                     ; 0x2015 <textPrint+0x1dc>
    1700: 86 16        	stx	$16                     ; 0x2016 <textPrint+0x1dd>
    1702: 64 17        	stz	$17                     ; 0x2017 <textPrint+0x1de>
    1704: 86 26        	stx	$26                     ; 0x2026 <textPrint+0x1ed>
    1706: a2 00        	ldx	#$0
    1708: a9 28        	lda	#$28
    170a: 20 ed 19     	jsr	$19ed <bitmapLine>
    170d: a6 26        	ldx	$26                     ; 0x2026 <textPrint+0x1ed>
    170f: e8           	inx
    1710: e0 c1        	cpx	#$c1
    1712: d0 e2        	bne	$16f6 <setup+0xee>
    1714: a2 22        	ldx	#$22
    1716: a0 06        	ldy	#$6
    1718: 84 12        	sty	$12                     ; 0x2012 <textPrint+0x1d9>
    171a: 64 13        	stz	$13                     ; 0x2013 <textPrint+0x1da>
    171c: a9 40        	lda	#$40
    171e: 85 14        	sta	$14                     ; 0x2014 <textPrint+0x1db>
    1720: a9 01        	lda	#$1
    1722: 85 15        	sta	$15                     ; 0x2015 <textPrint+0x1dc>
    1724: 84 16        	sty	$16                     ; 0x2016 <textPrint+0x1dd>
    1726: 64 17        	stz	$17                     ; 0x2017 <textPrint+0x1de>
    1728: 86 26        	stx	$26                     ; 0x2026 <textPrint+0x1ed>
    172a: a2 00        	ldx	#$0
    172c: a9 f0        	lda	#$f0
    172e: 84 27        	sty	$27                     ; 0x2027 <textPrint+0x1ee>
    1730: 20 ed 19     	jsr	$19ed <bitmapLine>
    1733: a4 27        	ldy	$27                     ; 0x2027 <textPrint+0x1ee>
    1735: a6 26        	ldx	$26                     ; 0x2026 <textPrint+0x1ed>
    1737: ca           	dex
    1738: c8           	iny
    1739: 8a           	txa
    173a: d0 dc        	bne	$1718 <setup+0x110>
    173c: a9 01        	lda	#$1
    173e: 0d 1c 3a     	ora	$3a1c                   ; 0x3a1c <_BITMAP_CLUT>
    1741: 8d 00 d1     	sta	$d100                   ; 0xd100 <end_block9+0x96d4>
    1744: 9c 08 d1     	stz	$d108                   ; 0xd108 <end_block9+0x96dc>
    1747: 9c 10 d1     	stz	$d110                   ; 0xd110 <end_block9+0x96e4>
    174a: a6 8c        	ldx	$8c                     ; 0x208c <textPrint+0x253>
    174c: 9e 1c 3a     	stz	$3a1c,x                 ; 0x3a1c <_BITMAP_CLUT>
    174f: e0 02        	cpx	#$2
    1751: f0 1b        	beq	$176e <setup+0x166>
    1753: e0 01        	cpx	#$1
    1755: f0 0d        	beq	$1764 <setup+0x15c>
    1757: 8a           	txa
    1758: d0 1c        	bne	$1776 <setup+0x16e>
    175a: ad 00 d1     	lda	$d100                   ; 0xd100 <end_block9+0x96d4>
    175d: 29 f9        	and	#$f9
    175f: 8d 00 d1     	sta	$d100                   ; 0xd100 <end_block9+0x96d4>
    1762: 80 12        	bra	$1776 <setup+0x16e>
    1764: ad 08 d1     	lda	$d108                   ; 0xd108 <end_block9+0x96dc>
    1767: 29 f9        	and	#$f9
    1769: 8d 08 d1     	sta	$d108                   ; 0xd108 <end_block9+0x96dc>
    176c: 80 08        	bra	$1776 <setup+0x16e>
    176e: ad 10 d1     	lda	$d110                   ; 0xd110 <end_block9+0x96e4>
    1771: 29 f9        	and	#$f9
    1773: 8d 10 d1     	sta	$d110                   ; 0xd110 <end_block9+0x96e4>
    1776: a2 01        	ldx	#$1
    1778: 86 8c        	stx	$8c                     ; 0x208c <textPrint+0x253>
    177a: a6 01        	ldx	$1                      ; 0x2001 <textPrint+0x1c8>
    177c: 86 16        	stx	$16                     ; 0x2016 <textPrint+0x1dd>
    177e: a6 30        	ldx	$30                     ; 0x2030 <textPrint+0x1f7>
    1780: a4 31        	ldy	$31                     ; 0x2031 <textPrint+0x1f8>
    1782: 8e 00 de     	stx	$de00                   ; 0xde00 <end_block9+0xa3d4>
    1785: 9c 01 de     	stz	$de01                   ; 0xde01 <end_block9+0xa3d5>
    1788: 8c 02 de     	sty	$de02                   ; 0xde02 <end_block9+0xa3d6>
    178b: 9c 03 de     	stz	$de03                   ; 0xde03 <end_block9+0xa3d7>
    178e: ae 10 de     	ldx	$de10                   ; 0xde10 <end_block9+0xa3e4>
    1791: ac 11 de     	ldy	$de11                   ; 0xde11 <end_block9+0xa3e5>
    1794: ad 12 de     	lda	$de12                   ; 0xde12 <end_block9+0xa3e6>
    1797: ad 13 de     	lda	$de13                   ; 0xde13 <end_block9+0xa3e7>
    179a: a9 02        	lda	#$2
    179c: 85 01        	sta	$1                      ; 0x2001 <textPrint+0x1c8>
    179e: e0 01        	cpx	#$1
    17a0: 98           	tya
    17a1: e9 00        	sbc	#$0
    17a3: 50 02        	bvc	$17a7 <setup+0x19f>
    17a5: 49 80        	eor	#$80
    17a7: c9 00        	cmp	#$0
    17a9: 30 50        	bmi	$17fb <setup+0x1f3>
    17ab: a9 20        	lda	#$20
    17ad: 86 17        	stx	$17                     ; 0x2017 <textPrint+0x1de>
    17af: 86 12        	stx	$12                     ; 0x2012 <textPrint+0x1d9>
    17b1: 84 13        	sty	$13                     ; 0x2013 <textPrint+0x1da>
    17b3: a2 00        	ldx	#$0
    17b5: 86 14        	stx	$14                     ; 0x2014 <textPrint+0x1db>
    17b7: a2 c0        	ldx	#$c0
    17b9: 86 15        	stx	$15                     ; 0x2015 <textPrint+0x1dc>
    17bb: 80 04        	bra	$17c1 <setup+0x1b9>
    17bd: a6 13        	ldx	$13                     ; 0x2013 <textPrint+0x1da>
    17bf: f0 14        	beq	$17d5 <setup+0x1cd>
    17c1: 92 14        	sta	($14)                   ; 0x2014 <textPrint+0x1db>
    17c3: e6 14        	inc	$14                     ; 0x2014 <textPrint+0x1db>
    17c5: d0 02        	bne	$17c9 <setup+0x1c1>
    17c7: e6 15        	inc	$15                     ; 0x2015 <textPrint+0x1dc>
    17c9: a2 ff        	ldx	#$ff
    17cb: c6 12        	dec	$12                     ; 0x2012 <textPrint+0x1d9>
    17cd: e4 12        	cpx	$12                     ; 0x2012 <textPrint+0x1d9>
    17cf: d0 ec        	bne	$17bd <setup+0x1b5>
    17d1: c6 13        	dec	$13                     ; 0x2013 <textPrint+0x1da>
    17d3: 80 e8        	bra	$17bd <setup+0x1b5>
    17d5: a6 12        	ldx	$12                     ; 0x2012 <textPrint+0x1d9>
    17d7: d0 e8        	bne	$17c1 <setup+0x1b9>
    17d9: a2 03        	ldx	#$3
    17db: 86 01        	stx	$1                      ; 0x2001 <textPrint+0x1c8>
    17dd: a6 17        	ldx	$17                     ; 0x2017 <textPrint+0x1de>
    17df: 80 03        	bra	$17e4 <setup+0x1dc>
    17e1: 98           	tya
    17e2: f0 12        	beq	$17f6 <setup+0x1ee>
    17e4: a5 32        	lda	$32                     ; 0x2032 <textPrint+0x1f9>
    17e6: 92 24        	sta	($24)                   ; 0x2024 <textPrint+0x1eb>
    17e8: e6 24        	inc	$24                     ; 0x2024 <textPrint+0x1eb>
    17ea: d0 02        	bne	$17ee <setup+0x1e6>
    17ec: e6 25        	inc	$25                     ; 0x2025 <textPrint+0x1ec>
    17ee: ca           	dex
    17ef: e0 ff        	cpx	#$ff
    17f1: d0 ee        	bne	$17e1 <setup+0x1d9>
    17f3: 88           	dey
    17f4: 80 eb        	bra	$17e1 <setup+0x1d9>
    17f6: 8a           	txa
    17f7: d0 eb        	bne	$17e4 <setup+0x1dc>
    17f9: 80 04        	bra	$17ff <setup+0x1f7>
    17fb: a2 03        	ldx	#$3
    17fd: 86 01        	stx	$1                      ; 0x2001 <textPrint+0x1c8>
    17ff: a6 16        	ldx	$16                     ; 0x2016 <textPrint+0x1dd>
    1801: 86 01        	stx	$1                      ; 0x2001 <textPrint+0x1c8>
    1803: 64 12        	stz	$12                     ; 0x2012 <textPrint+0x1d9>
    1805: 64 8a        	stz	$8a                     ; 0x208a <textPrint+0x251>
    1807: 9c 14 d0     	stz	$d014                   ; 0xd014 <end_block9+0x95e8>
    180a: 9c 15 d0     	stz	$d015                   ; 0xd015 <end_block9+0x95e9>
    180d: 64 8b        	stz	$8b                     ; 0x208b <textPrint+0x252>
    180f: 9c 16 d0     	stz	$d016                   ; 0xd016 <end_block9+0x95ea>
    1812: 9c 17 d0     	stz	$d017                   ; 0xd017 <end_block9+0x95eb>
    1815: 9c 00 de     	stz	$de00                   ; 0xde00 <end_block9+0xa3d4>
    1818: 9c 01 de     	stz	$de01                   ; 0xde01 <end_block9+0xa3d5>
    181b: a2 04        	ldx	#$4
    181d: 8e 02 de     	stx	$de02                   ; 0xde02 <end_block9+0xa3d6>
    1820: 9c 03 de     	stz	$de03                   ; 0xde03 <end_block9+0xa3d7>
    1823: ad 10 de     	lda	$de10                   ; 0xde10 <end_block9+0xa3e4>
    1826: ae 11 de     	ldx	$de11                   ; 0xde11 <end_block9+0xa3e5>
    1829: 86 13        	stx	$13                     ; 0x2013 <textPrint+0x1da>
    182b: ae 12 de     	ldx	$de12                   ; 0xde12 <end_block9+0xa3e6>
    182e: ae 13 de     	ldx	$de13                   ; 0xde13 <end_block9+0xa3e7>
    1831: 18           	clc
    1832: 65 12        	adc	$12                     ; 0x2012 <textPrint+0x1d9>
    1834: 85 12        	sta	$12                     ; 0x2012 <textPrint+0x1d9>
    1836: a9 d8        	lda	#$d8
    1838: 65 13        	adc	$13                     ; 0x2013 <textPrint+0x1da>
    183a: 85 13        	sta	$13                     ; 0x2013 <textPrint+0x1da>
    183c: a9 ff        	lda	#$ff
    183e: 92 12        	sta	($12)                   ; 0x2012 <textPrint+0x1d9>
    1840: a0 01        	ldy	#$1
    1842: 91 12        	sta	($12),y                 ; 0x2012 <textPrint+0x1d9>
    1844: c8           	iny
    1845: 91 12        	sta	($12),y                 ; 0x2012 <textPrint+0x1d9>
    1847: c8           	iny
    1848: 91 12        	sta	($12),y                 ; 0x2012 <textPrint+0x1d9>
    184a: ad 01 d0     	lda	$d001                   ; 0xd001 <end_block9+0x95d5>
    184d: 29 ef        	and	#$ef
    184f: 8d 01 d0     	sta	$d001                   ; 0xd001 <end_block9+0x95d5>
    1852: a0 10        	ldy	#$10
    1854: 8c 1f 3a     	sty	$3a1f                   ; 0x3a1f <_tileSize>
    1857: 9c 01 d2     	stz	$d201                   ; 0xd201 <end_block9+0x97d5>
    185a: a2 88        	ldx	#$88
    185c: 8e 02 d2     	stx	$d202                   ; 0xd202 <end_block9+0x97d6>
    185f: a2 03        	ldx	#$3
    1861: 8e 03 d2     	stx	$d203                   ; 0xd203 <end_block9+0x97d7>
    1864: a2 17        	ldx	#$17
    1866: 8e 04 d2     	stx	$d204                   ; 0xd204 <end_block9+0x97d8>
    1869: 9c 05 d2     	stz	$d205                   ; 0xd205 <end_block9+0x97d9>
    186c: a2 13        	ldx	#$13
    186e: 8e 06 d2     	stx	$d206                   ; 0xd206 <end_block9+0x97da>
    1871: 9c 07 d2     	stz	$d207                   ; 0xd207 <end_block9+0x97db>
    1874: 9c 08 d2     	stz	$d208                   ; 0xd208 <end_block9+0x97dc>
    1877: 9c 09 d2     	stz	$d209                   ; 0xd209 <end_block9+0x97dd>
    187a: 9c 0a d2     	stz	$d20a                   ; 0xd20a <end_block9+0x97de>
    187d: 9c 0b d2     	stz	$d20b                   ; 0xd20b <end_block9+0x97df>
    1880: 8c 20 3a     	sty	$3a20                   ; 0x3a20 <_tileSize+0x1>
    1883: a9 20        	lda	#$20
    1885: 8d 0d d2     	sta	$d20d                   ; 0xd20d <end_block9+0x97e1>
    1888: a9 8f        	lda	#$8f
    188a: 8d 0e d2     	sta	$d20e                   ; 0xd20e <end_block9+0x97e2>
    188d: a9 03        	lda	#$3
    188f: 8d 0f d2     	sta	$d20f                   ; 0xd20f <end_block9+0x97e3>
    1892: a9 17        	lda	#$17
    1894: 8d 10 d2     	sta	$d210                   ; 0xd210 <end_block9+0x97e4>
    1897: 9c 11 d2     	stz	$d211                   ; 0xd211 <end_block9+0x97e5>
    189a: 8e 12 d2     	stx	$d212                   ; 0xd212 <end_block9+0x97e6>
    189d: 9c 13 d2     	stz	$d213                   ; 0xd213 <end_block9+0x97e7>
    18a0: 9c 14 d2     	stz	$d214                   ; 0xd214 <end_block9+0x97e8>
    18a3: 9c 15 d2     	stz	$d215                   ; 0xd215 <end_block9+0x97e9>
    18a6: 9c 16 d2     	stz	$d216                   ; 0xd216 <end_block9+0x97ea>
    18a9: 9c 17 d2     	stz	$d217                   ; 0xd217 <end_block9+0x97eb>
    18ac: 9c 80 d2     	stz	$d280                   ; 0xd280 <end_block9+0x9854>
    18af: 9c 81 d2     	stz	$d281                   ; 0xd281 <end_block9+0x9855>
    18b2: a2 04        	ldx	#$4
    18b4: 8e 82 d2     	stx	$d282                   ; 0xd282 <end_block9+0x9856>
    18b7: 9c 83 d2     	stz	$d283                   ; 0xd283 <end_block9+0x9857>
    18ba: ad 1f 3a     	lda	$3a1f                   ; 0x3a1f <_tileSize>
    18bd: a2 11        	ldx	#$11
    18bf: c9 08        	cmp	#$8
    18c1: f0 02        	beq	$18c5 <setup+0x2bd>
    18c3: a2 01        	ldx	#$1
    18c5: 8e 00 d2     	stx	$d200                   ; 0xd200 <end_block9+0x97d4>
    18c8: ae 20 3a     	ldx	$3a20                   ; 0x3a20 <_tileSize+0x1>
    18cb: e0 08        	cpx	#$8
    18cd: f0 02        	beq	$18d1 <setup+0x2c9>
    18cf: a0 00        	ldy	#$0
    18d1: 8c 0c d2     	sty	$d20c                   ; 0xd20c <end_block9+0x97e0>
    18d4: ac 21 3a     	ldy	$3a21                   ; 0x3a21 <_tileSize+0x2>
    18d7: a2 10        	ldx	#$10
    18d9: c0 08        	cpy	#$8
    18db: f0 02        	beq	$18df <setup+0x2d7>
    18dd: a2 00        	ldx	#$0
    18df: 8e 18 d2     	stx	$d218                   ; 0xd218 <end_block9+0x97ec>
    18e2: 64 d8        	stz	$d8                     ; 0x20d8 <midiNoteOn+0x17>
    18e4: a2 03        	ldx	#$3
    18e6: 86 d9        	stx	$d9                     ; 0x20d9 <midiNoteOn+0x18>
    18e8: 86 da        	stx	$da                     ; 0x20da <midiNoteOn+0x19>
    18ea: fa           	plx
    18eb: 86 27        	stx	$27                     ; 0x2027 <textPrint+0x1ee>
    18ed: fa           	plx
    18ee: 86 26        	stx	$26                     ; 0x2026 <textPrint+0x1ed>
    18f0: fa           	plx
    18f1: 86 25        	stx	$25                     ; 0x2025 <textPrint+0x1ec>
    18f3: fa           	plx
    18f4: 86 24        	stx	$24                     ; 0x2024 <textPrint+0x1eb>
    18f6: 60           	rts

000018f7 <writePianoKeyHelp>:
    18f7: a2 05        	ldx	#$5
    18f9: 86 8a        	stx	$8a                     ; 0x208a <textPrint+0x251>
    18fb: 8e 14 d0     	stx	$d014                   ; 0xd014 <end_block9+0x95e8>
    18fe: 9c 15 d0     	stz	$d015                   ; 0xd015 <end_block9+0x95e9>
    1901: 64 8b        	stz	$8b                     ; 0x208b <textPrint+0x252>
    1903: 9c 16 d0     	stz	$d016                   ; 0xd016 <end_block9+0x95ea>
    1906: 9c 17 d0     	stz	$d017                   ; 0xd017 <end_block9+0x95eb>
    1909: a2 5a        	ldx	#$5a
    190b: 86 12        	stx	$12                     ; 0x2012 <textPrint+0x1d9>
    190d: a2 34        	ldx	#$34
    190f: 86 13        	stx	$13                     ; 0x2013 <textPrint+0x1da>
    1911: 20 f6 30     	jsr	$30f6 <printf>
    1914: a2 05        	ldx	#$5
    1916: 86 8a        	stx	$8a                     ; 0x208a <textPrint+0x251>
    1918: 8e 14 d0     	stx	$d014                   ; 0xd014 <end_block9+0x95e8>
    191b: 9c 15 d0     	stz	$d015                   ; 0xd015 <end_block9+0x95e9>
    191e: a2 01        	ldx	#$1
    1920: 86 8b        	stx	$8b                     ; 0x208b <textPrint+0x252>
    1922: 8e 16 d0     	stx	$d016                   ; 0xd016 <end_block9+0x95ea>
    1925: 9c 17 d0     	stz	$d017                   ; 0xd017 <end_block9+0x95eb>
    1928: a2 80        	ldx	#$80
    192a: 86 12        	stx	$12                     ; 0x2012 <textPrint+0x1d9>
    192c: a2 34        	ldx	#$34
    192e: 86 13        	stx	$13                     ; 0x2013 <textPrint+0x1da>
    1930: 20 f6 30     	jsr	$30f6 <printf>
    1933: a2 3c        	ldx	#$3c
    1935: 86 8a        	stx	$8a                     ; 0x208a <textPrint+0x251>
    1937: 8e 14 d0     	stx	$d014                   ; 0xd014 <end_block9+0x95e8>
    193a: 9c 15 d0     	stz	$d015                   ; 0xd015 <end_block9+0x95e9>
    193d: a2 01        	ldx	#$1
    193f: 86 8b        	stx	$8b                     ; 0x208b <textPrint+0x252>
    1941: 8e 16 d0     	stx	$d016                   ; 0xd016 <end_block9+0x95ea>
    1944: 9c 17 d0     	stz	$d017                   ; 0xd017 <end_block9+0x95eb>
    1947: a2 5b        	ldx	#$5b
    1949: 86 12        	stx	$12                     ; 0x2012 <textPrint+0x1d9>
    194b: a2 33        	ldx	#$33
    194d: 86 13        	stx	$13                     ; 0x2013 <textPrint+0x1da>
    194f: 20 f6 30     	jsr	$30f6 <printf>
    1952: a2 21        	ldx	#$21
    1954: 86 8a        	stx	$8a                     ; 0x208a <textPrint+0x251>
    1956: 8e 14 d0     	stx	$d014                   ; 0xd014 <end_block9+0x95e8>
    1959: 9c 15 d0     	stz	$d015                   ; 0xd015 <end_block9+0x95e9>
    195c: a2 10        	ldx	#$10
    195e: 86 8b        	stx	$8b                     ; 0x208b <textPrint+0x252>
    1960: 8e 16 d0     	stx	$d016                   ; 0xd016 <end_block9+0x95ea>
    1963: 9c 17 d0     	stz	$d017                   ; 0xd017 <end_block9+0x95eb>
    1966: a2 2e        	ldx	#$2e
    1968: 86 12        	stx	$12                     ; 0x2012 <textPrint+0x1d9>
    196a: a2 34        	ldx	#$34
    196c: 86 13        	stx	$13                     ; 0x2013 <textPrint+0x1da>
    196e: 20 f6 30     	jsr	$30f6 <printf>
    1971: a2 22        	ldx	#$22
    1973: 86 8a        	stx	$8a                     ; 0x208a <textPrint+0x251>
    1975: 8e 14 d0     	stx	$d014                   ; 0xd014 <end_block9+0x95e8>
    1978: 9c 15 d0     	stz	$d015                   ; 0xd015 <end_block9+0x95e9>
    197b: a2 17        	ldx	#$17
    197d: 86 8b        	stx	$8b                     ; 0x208b <textPrint+0x252>
    197f: 8e 16 d0     	stx	$d016                   ; 0xd016 <end_block9+0x95ea>
    1982: 9c 17 d0     	stz	$d017                   ; 0xd017 <end_block9+0x95eb>
    1985: a2 f7        	ldx	#$f7
    1987: 86 12        	stx	$12                     ; 0x2012 <textPrint+0x1d9>
    1989: a2 34        	ldx	#$34
    198b: 86 13        	stx	$13                     ; 0x2013 <textPrint+0x1da>
    198d: 20 f6 30     	jsr	$30f6 <printf>
    1990: a2 0c        	ldx	#$c
    1992: 86 8a        	stx	$8a                     ; 0x208a <textPrint+0x251>
    1994: 8e 14 d0     	stx	$d014                   ; 0xd014 <end_block9+0x95e8>
    1997: 9c 15 d0     	stz	$d015                   ; 0xd015 <end_block9+0x95e9>
    199a: a2 17        	ldx	#$17
    199c: 86 8b        	stx	$8b                     ; 0x208b <textPrint+0x252>
    199e: 8e 16 d0     	stx	$d016                   ; 0xd016 <end_block9+0x95ea>
    19a1: 9c 17 d0     	stz	$d017                   ; 0xd017 <end_block9+0x95eb>
    19a4: a2 a4        	ldx	#$a4
    19a6: 86 12        	stx	$12                     ; 0x2012 <textPrint+0x1d9>
    19a8: a2 33        	ldx	#$33
    19aa: 86 13        	stx	$13                     ; 0x2013 <textPrint+0x1da>
    19ac: 20 f6 30     	jsr	$30f6 <printf>
    19af: a2 3c        	ldx	#$3c
    19b1: 86 8a        	stx	$8a                     ; 0x208a <textPrint+0x251>
    19b3: 8e 14 d0     	stx	$d014                   ; 0xd014 <end_block9+0x95e8>
    19b6: 9c 15 d0     	stz	$d015                   ; 0xd015 <end_block9+0x95e9>
    19b9: a2 02        	ldx	#$2
    19bb: 86 8b        	stx	$8b                     ; 0x208b <textPrint+0x252>
    19bd: 8e 16 d0     	stx	$d016                   ; 0xd016 <end_block9+0x95ea>
    19c0: 9c 17 d0     	stz	$d017                   ; 0xd017 <end_block9+0x95eb>
    19c3: a2 93        	ldx	#$93
    19c5: 86 12        	stx	$12                     ; 0x2012 <textPrint+0x1d9>
    19c7: a2 33        	ldx	#$33
    19c9: 86 13        	stx	$13                     ; 0x2013 <textPrint+0x1da>
    19cb: 20 f6 30     	jsr	$30f6 <printf>
    19ce: a2 3c        	ldx	#$3c
    19d0: 86 8a        	stx	$8a                     ; 0x208a <textPrint+0x251>
    19d2: 8e 14 d0     	stx	$d014                   ; 0xd014 <end_block9+0x95e8>
    19d5: 9c 15 d0     	stz	$d015                   ; 0xd015 <end_block9+0x95e9>
    19d8: a2 03        	ldx	#$3
    19da: 86 8b        	stx	$8b                     ; 0x208b <textPrint+0x252>
    19dc: 8e 16 d0     	stx	$d016                   ; 0xd016 <end_block9+0x95ea>
    19df: 9c 17 d0     	stz	$d017                   ; 0xd017 <end_block9+0x95eb>
    19e2: a2 3a        	ldx	#$3a
    19e4: 86 12        	stx	$12                     ; 0x2012 <textPrint+0x1d9>
    19e6: a2 35        	ldx	#$35
    19e8: 86 13        	stx	$13                     ; 0x2013 <textPrint+0x1da>
    19ea: 4c f6 30     	jmp	$30f6 <printf>

000019ed <bitmapLine>:
    19ed: 48           	pha
    19ee: 18           	clc
    19ef: a5 10        	lda	$10                     ; 0x2010 <textPrint+0x1d7>
    19f1: 69 fc        	adc	#$fc
    19f3: 85 10        	sta	$10                     ; 0x2010 <textPrint+0x1d7>
    19f5: a5 11        	lda	$11                     ; 0x2011 <textPrint+0x1d8>
    19f7: 69 ff        	adc	#$ff
    19f9: 85 11        	sta	$11                     ; 0x2011 <textPrint+0x1d8>
    19fb: 68           	pla
    19fc: a4 24        	ldy	$24                     ; 0x2024 <textPrint+0x1eb>
    19fe: 5a           	phy
    19ff: a4 25        	ldy	$25                     ; 0x2025 <textPrint+0x1ec>
    1a01: 5a           	phy
    1a02: a4 26        	ldy	$26                     ; 0x2026 <textPrint+0x1ed>
    1a04: 5a           	phy
    1a05: a4 27        	ldy	$27                     ; 0x2027 <textPrint+0x1ee>
    1a07: 5a           	phy
    1a08: 48           	pha
    1a09: a5 28        	lda	$28                     ; 0x2028 <textPrint+0x1ef>
    1a0b: a0 03        	ldy	#$3
    1a0d: 91 10        	sta	($10),y                 ; 0x2010 <textPrint+0x1d7>
    1a0f: a5 29        	lda	$29                     ; 0x2029 <textPrint+0x1f0>
    1a11: 88           	dey
    1a12: 91 10        	sta	($10),y                 ; 0x2010 <textPrint+0x1d7>
    1a14: a5 2a        	lda	$2a                     ; 0x202a <textPrint+0x1f1>
    1a16: 88           	dey
    1a17: 91 10        	sta	($10),y                 ; 0x2010 <textPrint+0x1d7>
    1a19: a5 2b        	lda	$2b                     ; 0x202b <textPrint+0x1f2>
    1a1b: 88           	dey
    1a1c: 91 10        	sta	($10),y                 ; 0x2010 <textPrint+0x1d7>
    1a1e: 68           	pla
    1a1f: 85 19        	sta	$19                     ; 0x2019 <textPrint+0x1e0>
    1a21: 86 18        	stx	$18                     ; 0x2018 <textPrint+0x1df>
    1a23: a6 12        	ldx	$12                     ; 0x2012 <textPrint+0x1d9>
    1a25: 86 23        	stx	$23                     ; 0x2023 <textPrint+0x1ea>
    1a27: a4 14        	ldy	$14                     ; 0x2014 <textPrint+0x1db>
    1a29: a5 15        	lda	$15                     ; 0x2015 <textPrint+0x1dc>
    1a2b: a6 0f        	ldx	$f                      ; 0x200f <textPrint+0x1d6>
    1a2d: 86 1e        	stx	$1e                     ; 0x201e <textPrint+0x1e5>
    1a2f: 78           	sei
    1a30: a6 19        	ldx	$19                     ; 0x2019 <textPrint+0x1e0>
    1a32: 86 22        	stx	$22                     ; 0x2022 <textPrint+0x1e9>
    1a34: 84 25        	sty	$25                     ; 0x2025 <textPrint+0x1ec>
    1a36: 85 26        	sta	$26                     ; 0x2026 <textPrint+0x1ed>
    1a38: c5 18        	cmp	$18                     ; 0x2018 <textPrint+0x1df>
    1a3a: d0 1d        	bne	$1a59 <bitmapLine+0x6c>
    1a3c: c4 19        	cpy	$19                     ; 0x2019 <textPrint+0x1e0>
    1a3e: a8           	tay
    1a3f: 90 1d        	bcc	$1a5e <bitmapLine+0x71>
    1a41: 38           	sec
    1a42: a5 25        	lda	$25                     ; 0x2025 <textPrint+0x1ec>
    1a44: e5 22        	sbc	$22                     ; 0x2022 <textPrint+0x1e9>
    1a46: 85 1b        	sta	$1b                     ; 0x201b <textPrint+0x1e2>
    1a48: a6 18        	ldx	$18                     ; 0x2018 <textPrint+0x1df>
    1a4a: 86 1f        	stx	$1f                     ; 0x201f <textPrint+0x1e6>
    1a4c: 98           	tya
    1a4d: e5 18        	sbc	$18                     ; 0x2018 <textPrint+0x1df>
    1a4f: a2 01        	ldx	#$1
    1a51: 86 12        	stx	$12                     ; 0x2012 <textPrint+0x1d9>
    1a53: 85 1a        	sta	$1a                     ; 0x201a <textPrint+0x1e1>
    1a55: 64 24        	stz	$24                     ; 0x2024 <textPrint+0x1eb>
    1a57: 80 1e        	bra	$1a77 <bitmapLine+0x8a>
    1a59: c5 18        	cmp	$18                     ; 0x2018 <textPrint+0x1df>
    1a5b: a8           	tay
    1a5c: b0 e3        	bcs	$1a41 <bitmapLine+0x54>
    1a5e: 38           	sec
    1a5f: a5 19        	lda	$19                     ; 0x2019 <textPrint+0x1e0>
    1a61: e5 25        	sbc	$25                     ; 0x2025 <textPrint+0x1ec>
    1a63: 85 1b        	sta	$1b                     ; 0x201b <textPrint+0x1e2>
    1a65: 84 12        	sty	$12                     ; 0x2012 <textPrint+0x1d9>
    1a67: a6 18        	ldx	$18                     ; 0x2018 <textPrint+0x1df>
    1a69: 86 1f        	stx	$1f                     ; 0x201f <textPrint+0x1e6>
    1a6b: a5 18        	lda	$18                     ; 0x2018 <textPrint+0x1df>
    1a6d: e5 12        	sbc	$12                     ; 0x2012 <textPrint+0x1d9>
    1a6f: a2 ff        	ldx	#$ff
    1a71: 86 12        	stx	$12                     ; 0x2012 <textPrint+0x1d9>
    1a73: 86 24        	stx	$24                     ; 0x2024 <textPrint+0x1eb>
    1a75: 85 1a        	sta	$1a                     ; 0x201a <textPrint+0x1e1>
    1a77: a4 13        	ldy	$13                     ; 0x2013 <textPrint+0x1da>
    1a79: 84 14        	sty	$14                     ; 0x2014 <textPrint+0x1db>
    1a7b: a6 23        	ldx	$23                     ; 0x2023 <textPrint+0x1ea>
    1a7d: a5 17        	lda	$17                     ; 0x2017 <textPrint+0x1de>
    1a7f: c5 14        	cmp	$14                     ; 0x2014 <textPrint+0x1db>
    1a81: d0 21        	bne	$1aa4 <bitmapLine+0xb7>
    1a83: 86 14        	stx	$14                     ; 0x2014 <textPrint+0x1db>
    1a85: a5 16        	lda	$16                     ; 0x2016 <textPrint+0x1dd>
    1a87: c5 14        	cmp	$14                     ; 0x2014 <textPrint+0x1db>
    1a89: 90 1f        	bcc	$1aaa <bitmapLine+0xbd>
    1a8b: 38           	sec
    1a8c: 86 14        	stx	$14                     ; 0x2014 <textPrint+0x1db>
    1a8e: a5 16        	lda	$16                     ; 0x2016 <textPrint+0x1dd>
    1a90: e5 14        	sbc	$14                     ; 0x2014 <textPrint+0x1db>
    1a92: 85 1d        	sta	$1d                     ; 0x201d <textPrint+0x1e4>
    1a94: 84 14        	sty	$14                     ; 0x2014 <textPrint+0x1db>
    1a96: a5 17        	lda	$17                     ; 0x2017 <textPrint+0x1de>
    1a98: e5 14        	sbc	$14                     ; 0x2014 <textPrint+0x1db>
    1a9a: a2 01        	ldx	#$1
    1a9c: 86 14        	stx	$14                     ; 0x2014 <textPrint+0x1db>
    1a9e: 85 1c        	sta	$1c                     ; 0x201c <textPrint+0x1e3>
    1aa0: 64 15        	stz	$15                     ; 0x2015 <textPrint+0x1dc>
    1aa2: 80 1f        	bra	$1ac3 <bitmapLine+0xd6>
    1aa4: 84 14        	sty	$14                     ; 0x2014 <textPrint+0x1db>
    1aa6: c5 14        	cmp	$14                     ; 0x2014 <textPrint+0x1db>
    1aa8: b0 e1        	bcs	$1a8b <bitmapLine+0x9e>
    1aaa: 38           	sec
    1aab: a5 16        	lda	$16                     ; 0x2016 <textPrint+0x1dd>
    1aad: 85 14        	sta	$14                     ; 0x2014 <textPrint+0x1db>
    1aaf: 8a           	txa
    1ab0: e5 14        	sbc	$14                     ; 0x2014 <textPrint+0x1db>
    1ab2: 85 1d        	sta	$1d                     ; 0x201d <textPrint+0x1e4>
    1ab4: a6 17        	ldx	$17                     ; 0x2017 <textPrint+0x1de>
    1ab6: 86 14        	stx	$14                     ; 0x2014 <textPrint+0x1db>
    1ab8: 98           	tya
    1ab9: e5 14        	sbc	$14                     ; 0x2014 <textPrint+0x1db>
    1abb: a2 ff        	ldx	#$ff
    1abd: 86 14        	stx	$14                     ; 0x2014 <textPrint+0x1db>
    1abf: 86 15        	stx	$15                     ; 0x2015 <textPrint+0x1dc>
    1ac1: 85 1c        	sta	$1c                     ; 0x201c <textPrint+0x1e3>
    1ac3: a6 1b        	ldx	$1b                     ; 0x201b <textPrint+0x1e2>
    1ac5: e4 1d        	cpx	$1d                     ; 0x201d <textPrint+0x1e4>
    1ac7: a5 1a        	lda	$1a                     ; 0x201a <textPrint+0x1e1>
    1ac9: e5 1c        	sbc	$1c                     ; 0x201c <textPrint+0x1e3>
    1acb: 50 02        	bvc	$1acf <bitmapLine+0xe2>
    1acd: 49 80        	eor	#$80
    1acf: a6 1b        	ldx	$1b                     ; 0x201b <textPrint+0x1e2>
    1ad1: 86 27        	stx	$27                     ; 0x2027 <textPrint+0x1ee>
    1ad3: 06 27        	asl	$27                     ; 0x2027 <textPrint+0x1ee>
    1ad5: a6 1a        	ldx	$1a                     ; 0x201a <textPrint+0x1e1>
    1ad7: 86 28        	stx	$28                     ; 0x2028 <textPrint+0x1ef>
    1ad9: 26 28        	rol	$28                     ; 0x2028 <textPrint+0x1ef>
    1adb: a6 1d        	ldx	$1d                     ; 0x201d <textPrint+0x1e4>
    1add: 86 18        	stx	$18                     ; 0x2018 <textPrint+0x1df>
    1adf: 06 18        	asl	$18                     ; 0x2018 <textPrint+0x1df>
    1ae1: a6 1c        	ldx	$1c                     ; 0x201c <textPrint+0x1e3>
    1ae3: 86 19        	stx	$19                     ; 0x2019 <textPrint+0x1e0>
    1ae5: 26 19        	rol	$19                     ; 0x2019 <textPrint+0x1e0>
    1ae7: aa           	tax
    1ae8: 10 19        	bpl	$1b03 <bitmapLine+0x116>
    1aea: a6 17        	ldx	$17                     ; 0x2017 <textPrint+0x1de>
    1aec: 86 1a        	stx	$1a                     ; 0x201a <textPrint+0x1e1>
    1aee: a6 13        	ldx	$13                     ; 0x2013 <textPrint+0x1da>
    1af0: e4 1a        	cpx	$1a                     ; 0x201a <textPrint+0x1e1>
    1af2: d0 24        	bne	$1b18 <bitmapLine+0x12b>
    1af4: a6 16        	ldx	$16                     ; 0x2016 <textPrint+0x1dd>
    1af6: 86 1a        	stx	$1a                     ; 0x201a <textPrint+0x1e1>
    1af8: a4 22        	ldy	$22                     ; 0x2022 <textPrint+0x1e9>
    1afa: a6 23        	ldx	$23                     ; 0x2023 <textPrint+0x1ea>
    1afc: e4 1a        	cpx	$1a                     ; 0x201a <textPrint+0x1e1>
    1afe: d0 18        	bne	$1b18 <bitmapLine+0x12b>
    1b00: 4c 2d 1c     	jmp	$1c2d <bitmapLine+0x240>
    1b03: a6 1f        	ldx	$1f                     ; 0x201f <textPrint+0x1e6>
    1b05: e4 26        	cpx	$26                     ; 0x2026 <textPrint+0x1ed>
    1b07: f0 03        	beq	$1b0c <bitmapLine+0x11f>
    1b09: 4c 32 1c     	jmp	$1c32 <bitmapLine+0x245>
    1b0c: a4 22        	ldy	$22                     ; 0x2022 <textPrint+0x1e9>
    1b0e: c4 25        	cpy	$25                     ; 0x2025 <textPrint+0x1ec>
    1b10: f0 03        	beq	$1b15 <bitmapLine+0x128>
    1b12: 4c 34 1c     	jmp	$1c34 <bitmapLine+0x247>
    1b15: 4c 4f 1d     	jmp	$1d4f <bitmapLine+0x362>
    1b18: 38           	sec
    1b19: a5 27        	lda	$27                     ; 0x2027 <textPrint+0x1ee>
    1b1b: e5 1d        	sbc	$1d                     ; 0x201d <textPrint+0x1e4>
    1b1d: 85 25        	sta	$25                     ; 0x2025 <textPrint+0x1ec>
    1b1f: a5 28        	lda	$28                     ; 0x2028 <textPrint+0x1ef>
    1b21: e5 1c        	sbc	$1c                     ; 0x201c <textPrint+0x1e3>
    1b23: 85 26        	sta	$26                     ; 0x2026 <textPrint+0x1ed>
    1b25: a5 8c        	lda	$8c                     ; 0x208c <textPrint+0x253>
    1b27: 0a           	asl
    1b28: 64 1a        	stz	$1a                     ; 0x201a <textPrint+0x1e1>
    1b2a: 26 1a        	rol	$1a                     ; 0x201a <textPrint+0x1e1>
    1b2c: 0a           	asl
    1b2d: 85 1b        	sta	$1b                     ; 0x201b <textPrint+0x1e2>
    1b2f: 26 1a        	rol	$1a                     ; 0x201a <textPrint+0x1e1>
    1b31: a9 0e        	lda	#$e
    1b33: 18           	clc
    1b34: 65 1b        	adc	$1b                     ; 0x201b <textPrint+0x1e2>
    1b36: 85 1c        	sta	$1c                     ; 0x201c <textPrint+0x1e3>
    1b38: a9 3a        	lda	#$3a
    1b3a: 65 1a        	adc	$1a                     ; 0x201a <textPrint+0x1e1>
    1b3c: 85 1d        	sta	$1d                     ; 0x201d <textPrint+0x1e4>
    1b3e: b2 1c        	lda	($1c)                   ; 0x201c <textPrint+0x1e3>
    1b40: 85 1a        	sta	$1a                     ; 0x201a <textPrint+0x1e1>
    1b42: a0 01        	ldy	#$1
    1b44: b1 1c        	lda	($1c),y                 ; 0x201c <textPrint+0x1e3>
    1b46: 85 1b        	sta	$1b                     ; 0x201b <textPrint+0x1e2>
    1b48: c8           	iny
    1b49: b1 1c        	lda	($1c),y                 ; 0x201c <textPrint+0x1e3>
    1b4b: 85 1c        	sta	$1c                     ; 0x201c <textPrint+0x1e3>
    1b4d: a5 8d        	lda	$8d                     ; 0x208d <textPrint+0x254>
    1b4f: 29 01        	and	#$1
    1b51: a0 40        	ldy	#$40
    1b53: a2 01        	ldx	#$1
    1b55: c9 00        	cmp	#$0
    1b57: d0 04        	bne	$1b5d <bitmapLine+0x170>
    1b59: a0 00        	ldy	#$0
    1b5b: a2 00        	ldx	#$0
    1b5d: a5 23        	lda	$23                     ; 0x2023 <textPrint+0x1ea>
    1b5f: 8d 00 de     	sta	$de00                   ; 0xde00 <end_block9+0xa3d4>
    1b62: a5 13        	lda	$13                     ; 0x2013 <textPrint+0x1da>
    1b64: 8d 01 de     	sta	$de01                   ; 0xde01 <end_block9+0xa3d5>
    1b67: 8c 02 de     	sty	$de02                   ; 0xde02 <end_block9+0xa3d6>
    1b6a: 8e 03 de     	stx	$de03                   ; 0xde03 <end_block9+0xa3d7>
    1b6d: ae 10 de     	ldx	$de10                   ; 0xde10 <end_block9+0xa3e4>
    1b70: 86 29        	stx	$29                     ; 0x2029 <textPrint+0x1f0>
    1b72: ac 11 de     	ldy	$de11                   ; 0xde11 <end_block9+0xa3e5>
    1b75: ad 12 de     	lda	$de12                   ; 0xde12 <end_block9+0xa3e6>
    1b78: ae 13 de     	ldx	$de13                   ; 0xde13 <end_block9+0xa3e7>
    1b7b: 86 1d        	stx	$1d                     ; 0x201d <textPrint+0x1e4>
    1b7d: a6 29        	ldx	$29                     ; 0x2029 <textPrint+0x1f0>
    1b7f: 8e 08 de     	stx	$de08                   ; 0xde08 <end_block9+0xa3dc>
    1b82: 8c 09 de     	sty	$de09                   ; 0xde09 <end_block9+0xa3dd>
    1b85: 8d 0a de     	sta	$de0a                   ; 0xde0a <end_block9+0xa3de>
    1b88: a6 1d        	ldx	$1d                     ; 0x201d <textPrint+0x1e4>
    1b8a: 8e 0b de     	stx	$de0b                   ; 0xde0b <end_block9+0xa3df>
    1b8d: a6 22        	ldx	$22                     ; 0x2022 <textPrint+0x1e9>
    1b8f: 8e 0c de     	stx	$de0c                   ; 0xde0c <end_block9+0xa3e0>
    1b92: a6 1f        	ldx	$1f                     ; 0x201f <textPrint+0x1e6>
    1b94: 8e 0d de     	stx	$de0d                   ; 0xde0d <end_block9+0xa3e1>
    1b97: 9c 0e de     	stz	$de0e                   ; 0xde0e <end_block9+0xa3e2>
    1b9a: 9c 0f de     	stz	$de0f                   ; 0xde0f <end_block9+0xa3e3>
    1b9d: ad 18 de     	lda	$de18                   ; 0xde18 <end_block9+0xa3ec>
    1ba0: ac 19 de     	ldy	$de19                   ; 0xde19 <end_block9+0xa3ed>
    1ba3: ae 1a de     	ldx	$de1a                   ; 0xde1a <end_block9+0xa3ee>
    1ba6: 86 29        	stx	$29                     ; 0x2029 <textPrint+0x1f0>
    1ba8: ae 1b de     	ldx	$de1b                   ; 0xde1b <end_block9+0xa3ef>
    1bab: 18           	clc
    1bac: 65 1a        	adc	$1a                     ; 0x201a <textPrint+0x1e1>
    1bae: aa           	tax
    1baf: 98           	tya
    1bb0: 65 1b        	adc	$1b                     ; 0x201b <textPrint+0x1e2>
    1bb2: a8           	tay
    1bb3: a5 29        	lda	$29                     ; 0x2029 <textPrint+0x1f0>
    1bb5: 65 1c        	adc	$1c                     ; 0x201c <textPrint+0x1e3>
    1bb7: 85 1b        	sta	$1b                     ; 0x201b <textPrint+0x1e2>
    1bb9: 98           	tya
    1bba: 84 1a        	sty	$1a                     ; 0x201a <textPrint+0x1e1>
    1bbc: 06 1a        	asl	$1a                     ; 0x201a <textPrint+0x1e1>
    1bbe: 26 1b        	rol	$1b                     ; 0x201b <textPrint+0x1e2>
    1bc0: 06 1a        	asl	$1a                     ; 0x201a <textPrint+0x1e1>
    1bc2: 26 1b        	rol	$1b                     ; 0x201b <textPrint+0x1e2>
    1bc4: 06 1a        	asl	$1a                     ; 0x201a <textPrint+0x1e1>
    1bc6: 26 1b        	rol	$1b                     ; 0x201b <textPrint+0x1e2>
    1bc8: a4 1b        	ldy	$1b                     ; 0x201b <textPrint+0x1e2>
    1bca: 84 0f        	sty	$f                      ; 0x200f <textPrint+0x1d6>
    1bcc: ac 1a 3a     	ldy	$3a1a                   ; 0x3a1a <_color>
    1bcf: 09 e0        	ora	#$e0
    1bd1: 86 1a        	stx	$1a                     ; 0x201a <textPrint+0x1e1>
    1bd3: 85 1b        	sta	$1b                     ; 0x201b <textPrint+0x1e2>
    1bd5: 98           	tya
    1bd6: 92 1a        	sta	($1a)                   ; 0x201a <textPrint+0x1e1>
    1bd8: a6 26        	ldx	$26                     ; 0x2026 <textPrint+0x1ed>
    1bda: 30 1a        	bmi	$1bf6 <bitmapLine+0x209>
    1bdc: 18           	clc
    1bdd: a5 22        	lda	$22                     ; 0x2022 <textPrint+0x1e9>
    1bdf: 65 12        	adc	$12                     ; 0x2012 <textPrint+0x1d9>
    1be1: 85 22        	sta	$22                     ; 0x2022 <textPrint+0x1e9>
    1be3: a5 1f        	lda	$1f                     ; 0x201f <textPrint+0x1e6>
    1be5: 65 24        	adc	$24                     ; 0x2024 <textPrint+0x1eb>
    1be7: 85 1f        	sta	$1f                     ; 0x201f <textPrint+0x1e6>
    1be9: 38           	sec
    1bea: a5 25        	lda	$25                     ; 0x2025 <textPrint+0x1ec>
    1bec: e5 18        	sbc	$18                     ; 0x2018 <textPrint+0x1df>
    1bee: a8           	tay
    1bef: 8a           	txa
    1bf0: e5 19        	sbc	$19                     ; 0x2019 <textPrint+0x1e0>
    1bf2: aa           	tax
    1bf3: 98           	tya
    1bf4: 80 02        	bra	$1bf8 <bitmapLine+0x20b>
    1bf6: a5 25        	lda	$25                     ; 0x2025 <textPrint+0x1ec>
    1bf8: 18           	clc
    1bf9: 65 27        	adc	$27                     ; 0x2027 <textPrint+0x1ee>
    1bfb: 85 25        	sta	$25                     ; 0x2025 <textPrint+0x1ec>
    1bfd: 8a           	txa
    1bfe: 65 28        	adc	$28                     ; 0x2028 <textPrint+0x1ef>
    1c00: 85 26        	sta	$26                     ; 0x2026 <textPrint+0x1ed>
    1c02: a5 23        	lda	$23                     ; 0x2023 <textPrint+0x1ea>
    1c04: 18           	clc
    1c05: 65 14        	adc	$14                     ; 0x2014 <textPrint+0x1db>
    1c07: 85 23        	sta	$23                     ; 0x2023 <textPrint+0x1ea>
    1c09: a5 13        	lda	$13                     ; 0x2013 <textPrint+0x1da>
    1c0b: 65 15        	adc	$15                     ; 0x2015 <textPrint+0x1dc>
    1c0d: 85 1b        	sta	$1b                     ; 0x201b <textPrint+0x1e2>
    1c0f: a6 23        	ldx	$23                     ; 0x2023 <textPrint+0x1ea>
    1c11: 85 13        	sta	$13                     ; 0x2013 <textPrint+0x1da>
    1c13: a4 17        	ldy	$17                     ; 0x2017 <textPrint+0x1de>
    1c15: c4 1b        	cpy	$1b                     ; 0x201b <textPrint+0x1e2>
    1c17: f0 03        	beq	$1c1c <bitmapLine+0x22f>
    1c19: 4c 25 1b     	jmp	$1b25 <bitmapLine+0x138>
    1c1c: a6 23        	ldx	$23                     ; 0x2023 <textPrint+0x1ea>
    1c1e: 85 13        	sta	$13                     ; 0x2013 <textPrint+0x1da>
    1c20: a4 16        	ldy	$16                     ; 0x2016 <textPrint+0x1dd>
    1c22: c4 23        	cpy	$23                     ; 0x2023 <textPrint+0x1ea>
    1c24: f0 03        	beq	$1c29 <bitmapLine+0x23c>
    1c26: 4c 25 1b     	jmp	$1b25 <bitmapLine+0x138>
    1c29: 85 13        	sta	$13                     ; 0x2013 <textPrint+0x1da>
    1c2b: a4 22        	ldy	$22                     ; 0x2022 <textPrint+0x1e9>
    1c2d: a6 1f        	ldx	$1f                     ; 0x201f <textPrint+0x1e6>
    1c2f: 4c 4f 1d     	jmp	$1d4f <bitmapLine+0x362>
    1c32: a4 22        	ldy	$22                     ; 0x2022 <textPrint+0x1e9>
    1c34: 38           	sec
    1c35: a5 18        	lda	$18                     ; 0x2018 <textPrint+0x1df>
    1c37: e5 1b        	sbc	$1b                     ; 0x201b <textPrint+0x1e2>
    1c39: 85 16        	sta	$16                     ; 0x2016 <textPrint+0x1dd>
    1c3b: a5 19        	lda	$19                     ; 0x2019 <textPrint+0x1e0>
    1c3d: e5 1a        	sbc	$1a                     ; 0x201a <textPrint+0x1e1>
    1c3f: 85 17        	sta	$17                     ; 0x2017 <textPrint+0x1de>
    1c41: 84 22        	sty	$22                     ; 0x2022 <textPrint+0x1e9>
    1c43: 86 1f        	stx	$1f                     ; 0x201f <textPrint+0x1e6>
    1c45: a5 8c        	lda	$8c                     ; 0x208c <textPrint+0x253>
    1c47: 0a           	asl
    1c48: 64 1a        	stz	$1a                     ; 0x201a <textPrint+0x1e1>
    1c4a: 26 1a        	rol	$1a                     ; 0x201a <textPrint+0x1e1>
    1c4c: 0a           	asl
    1c4d: 85 1b        	sta	$1b                     ; 0x201b <textPrint+0x1e2>
    1c4f: 26 1a        	rol	$1a                     ; 0x201a <textPrint+0x1e1>
    1c51: a9 0e        	lda	#$e
    1c53: 18           	clc
    1c54: 65 1b        	adc	$1b                     ; 0x201b <textPrint+0x1e2>
    1c56: 85 1c        	sta	$1c                     ; 0x201c <textPrint+0x1e3>
    1c58: a9 3a        	lda	#$3a
    1c5a: 65 1a        	adc	$1a                     ; 0x201a <textPrint+0x1e1>
    1c5c: 85 1d        	sta	$1d                     ; 0x201d <textPrint+0x1e4>
    1c5e: b2 1c        	lda	($1c)                   ; 0x201c <textPrint+0x1e3>
    1c60: 85 1a        	sta	$1a                     ; 0x201a <textPrint+0x1e1>
    1c62: a0 01        	ldy	#$1
    1c64: b1 1c        	lda	($1c),y                 ; 0x201c <textPrint+0x1e3>
    1c66: 85 1b        	sta	$1b                     ; 0x201b <textPrint+0x1e2>
    1c68: c8           	iny
    1c69: b1 1c        	lda	($1c),y                 ; 0x201c <textPrint+0x1e3>
    1c6b: 85 1c        	sta	$1c                     ; 0x201c <textPrint+0x1e3>
    1c6d: a5 8d        	lda	$8d                     ; 0x208d <textPrint+0x254>
    1c6f: 29 01        	and	#$1
    1c71: a0 40        	ldy	#$40
    1c73: a2 01        	ldx	#$1
    1c75: c9 00        	cmp	#$0
    1c77: d0 04        	bne	$1c7d <bitmapLine+0x290>
    1c79: a0 00        	ldy	#$0
    1c7b: a2 00        	ldx	#$0
    1c7d: a5 23        	lda	$23                     ; 0x2023 <textPrint+0x1ea>
    1c7f: 85 29        	sta	$29                     ; 0x2029 <textPrint+0x1f0>
    1c81: 8d 00 de     	sta	$de00                   ; 0xde00 <end_block9+0xa3d4>
    1c84: a5 13        	lda	$13                     ; 0x2013 <textPrint+0x1da>
    1c86: 85 1d        	sta	$1d                     ; 0x201d <textPrint+0x1e4>
    1c88: 8d 01 de     	sta	$de01                   ; 0xde01 <end_block9+0xa3d5>
    1c8b: 8c 02 de     	sty	$de02                   ; 0xde02 <end_block9+0xa3d6>
    1c8e: 8e 03 de     	stx	$de03                   ; 0xde03 <end_block9+0xa3d7>
    1c91: ae 10 de     	ldx	$de10                   ; 0xde10 <end_block9+0xa3e4>
    1c94: 86 2b        	stx	$2b                     ; 0x202b <textPrint+0x1f2>
    1c96: ac 11 de     	ldy	$de11                   ; 0xde11 <end_block9+0xa3e5>
    1c99: ad 12 de     	lda	$de12                   ; 0xde12 <end_block9+0xa3e6>
    1c9c: ae 13 de     	ldx	$de13                   ; 0xde13 <end_block9+0xa3e7>
    1c9f: 86 2a        	stx	$2a                     ; 0x202a <textPrint+0x1f1>
    1ca1: a6 2b        	ldx	$2b                     ; 0x202b <textPrint+0x1f2>
    1ca3: 8e 08 de     	stx	$de08                   ; 0xde08 <end_block9+0xa3dc>
    1ca6: 8c 09 de     	sty	$de09                   ; 0xde09 <end_block9+0xa3dd>
    1ca9: 8d 0a de     	sta	$de0a                   ; 0xde0a <end_block9+0xa3de>
    1cac: a6 2a        	ldx	$2a                     ; 0x202a <textPrint+0x1f1>
    1cae: 8e 0b de     	stx	$de0b                   ; 0xde0b <end_block9+0xa3df>
    1cb1: a6 22        	ldx	$22                     ; 0x2022 <textPrint+0x1e9>
    1cb3: 8e 0c de     	stx	$de0c                   ; 0xde0c <end_block9+0xa3e0>
    1cb6: a6 1f        	ldx	$1f                     ; 0x201f <textPrint+0x1e6>
    1cb8: 8e 0d de     	stx	$de0d                   ; 0xde0d <end_block9+0xa3e1>
    1cbb: 9c 0e de     	stz	$de0e                   ; 0xde0e <end_block9+0xa3e2>
    1cbe: 9c 0f de     	stz	$de0f                   ; 0xde0f <end_block9+0xa3e3>
    1cc1: ad 18 de     	lda	$de18                   ; 0xde18 <end_block9+0xa3ec>
    1cc4: ae 19 de     	ldx	$de19                   ; 0xde19 <end_block9+0xa3ed>
    1cc7: 86 2b        	stx	$2b                     ; 0x202b <textPrint+0x1f2>
    1cc9: ae 1a de     	ldx	$de1a                   ; 0xde1a <end_block9+0xa3ee>
    1ccc: 86 2a        	stx	$2a                     ; 0x202a <textPrint+0x1f1>
    1cce: ae 1b de     	ldx	$de1b                   ; 0xde1b <end_block9+0xa3ef>
    1cd1: 18           	clc
    1cd2: 65 1a        	adc	$1a                     ; 0x201a <textPrint+0x1e1>
    1cd4: aa           	tax
    1cd5: a5 2b        	lda	$2b                     ; 0x202b <textPrint+0x1f2>
    1cd7: 65 1b        	adc	$1b                     ; 0x201b <textPrint+0x1e2>
    1cd9: a8           	tay
    1cda: a5 2a        	lda	$2a                     ; 0x202a <textPrint+0x1f1>
    1cdc: 65 1c        	adc	$1c                     ; 0x201c <textPrint+0x1e3>
    1cde: 85 1b        	sta	$1b                     ; 0x201b <textPrint+0x1e2>
    1ce0: 98           	tya
    1ce1: 84 1a        	sty	$1a                     ; 0x201a <textPrint+0x1e1>
    1ce3: 06 1a        	asl	$1a                     ; 0x201a <textPrint+0x1e1>
    1ce5: 26 1b        	rol	$1b                     ; 0x201b <textPrint+0x1e2>
    1ce7: 06 1a        	asl	$1a                     ; 0x201a <textPrint+0x1e1>
    1ce9: 26 1b        	rol	$1b                     ; 0x201b <textPrint+0x1e2>
    1ceb: 06 1a        	asl	$1a                     ; 0x201a <textPrint+0x1e1>
    1ced: 26 1b        	rol	$1b                     ; 0x201b <textPrint+0x1e2>
    1cef: a4 1b        	ldy	$1b                     ; 0x201b <textPrint+0x1e2>
    1cf1: 84 0f        	sty	$f                      ; 0x200f <textPrint+0x1d6>
    1cf3: ac 1a 3a     	ldy	$3a1a                   ; 0x3a1a <_color>
    1cf6: 09 e0        	ora	#$e0
    1cf8: 86 1a        	stx	$1a                     ; 0x201a <textPrint+0x1e1>
    1cfa: 85 1b        	sta	$1b                     ; 0x201b <textPrint+0x1e2>
    1cfc: 98           	tya
    1cfd: 92 1a        	sta	($1a)                   ; 0x201a <textPrint+0x1e1>
    1cff: a6 17        	ldx	$17                     ; 0x2017 <textPrint+0x1de>
    1d01: 30 1a        	bmi	$1d1d <bitmapLine+0x330>
    1d03: 18           	clc
    1d04: a5 29        	lda	$29                     ; 0x2029 <textPrint+0x1f0>
    1d06: 65 14        	adc	$14                     ; 0x2014 <textPrint+0x1db>
    1d08: 85 23        	sta	$23                     ; 0x2023 <textPrint+0x1ea>
    1d0a: a5 1d        	lda	$1d                     ; 0x201d <textPrint+0x1e4>
    1d0c: 65 15        	adc	$15                     ; 0x2015 <textPrint+0x1dc>
    1d0e: 85 13        	sta	$13                     ; 0x2013 <textPrint+0x1da>
    1d10: 38           	sec
    1d11: a5 16        	lda	$16                     ; 0x2016 <textPrint+0x1dd>
    1d13: e5 27        	sbc	$27                     ; 0x2027 <textPrint+0x1ee>
    1d15: a8           	tay
    1d16: 8a           	txa
    1d17: e5 28        	sbc	$28                     ; 0x2028 <textPrint+0x1ef>
    1d19: aa           	tax
    1d1a: 98           	tya
    1d1b: 80 02        	bra	$1d1f <bitmapLine+0x332>
    1d1d: a5 16        	lda	$16                     ; 0x2016 <textPrint+0x1dd>
    1d1f: 18           	clc
    1d20: 65 18        	adc	$18                     ; 0x2018 <textPrint+0x1df>
    1d22: 85 16        	sta	$16                     ; 0x2016 <textPrint+0x1dd>
    1d24: 8a           	txa
    1d25: 65 19        	adc	$19                     ; 0x2019 <textPrint+0x1e0>
    1d27: 85 17        	sta	$17                     ; 0x2017 <textPrint+0x1de>
    1d29: a5 22        	lda	$22                     ; 0x2022 <textPrint+0x1e9>
    1d2b: 18           	clc
    1d2c: 65 12        	adc	$12                     ; 0x2012 <textPrint+0x1d9>
    1d2e: 85 1a        	sta	$1a                     ; 0x201a <textPrint+0x1e1>
    1d30: a5 1f        	lda	$1f                     ; 0x201f <textPrint+0x1e6>
    1d32: 65 24        	adc	$24                     ; 0x2024 <textPrint+0x1eb>
    1d34: 85 1b        	sta	$1b                     ; 0x201b <textPrint+0x1e2>
    1d36: a4 1a        	ldy	$1a                     ; 0x201a <textPrint+0x1e1>
    1d38: aa           	tax
    1d39: a5 26        	lda	$26                     ; 0x2026 <textPrint+0x1ed>
    1d3b: c5 1b        	cmp	$1b                     ; 0x201b <textPrint+0x1e2>
    1d3d: f0 03        	beq	$1d42 <bitmapLine+0x355>
    1d3f: 4c 41 1c     	jmp	$1c41 <bitmapLine+0x254>
    1d42: a4 1a        	ldy	$1a                     ; 0x201a <textPrint+0x1e1>
    1d44: a6 1b        	ldx	$1b                     ; 0x201b <textPrint+0x1e2>
    1d46: a5 25        	lda	$25                     ; 0x2025 <textPrint+0x1ec>
    1d48: c5 1a        	cmp	$1a                     ; 0x201a <textPrint+0x1e1>
    1d4a: f0 03        	beq	$1d4f <bitmapLine+0x362>
    1d4c: 4c 41 1c     	jmp	$1c41 <bitmapLine+0x254>
    1d4f: 84 17        	sty	$17                     ; 0x2017 <textPrint+0x1de>
    1d51: 86 16        	stx	$16                     ; 0x2016 <textPrint+0x1dd>
    1d53: a5 8c        	lda	$8c                     ; 0x208c <textPrint+0x253>
    1d55: 64 12        	stz	$12                     ; 0x2012 <textPrint+0x1d9>
    1d57: 0a           	asl
    1d58: 26 12        	rol	$12                     ; 0x2012 <textPrint+0x1d9>
    1d5a: 0a           	asl
    1d5b: 85 14        	sta	$14                     ; 0x2014 <textPrint+0x1db>
    1d5d: 26 12        	rol	$12                     ; 0x2012 <textPrint+0x1d9>
    1d5f: a9 0e        	lda	#$e
    1d61: 18           	clc
    1d62: 65 14        	adc	$14                     ; 0x2014 <textPrint+0x1db>
    1d64: 85 14        	sta	$14                     ; 0x2014 <textPrint+0x1db>
    1d66: a9 3a        	lda	#$3a
    1d68: 65 12        	adc	$12                     ; 0x2012 <textPrint+0x1d9>
    1d6a: a0 01        	ldy	#$1
    1d6c: 85 15        	sta	$15                     ; 0x2015 <textPrint+0x1dc>
    1d6e: b2 14        	lda	($14)                   ; 0x2014 <textPrint+0x1db>
    1d70: 85 12        	sta	$12                     ; 0x2012 <textPrint+0x1d9>
    1d72: b1 14        	lda	($14),y                 ; 0x2014 <textPrint+0x1db>
    1d74: 85 18        	sta	$18                     ; 0x2018 <textPrint+0x1df>
    1d76: c8           	iny
    1d77: b1 14        	lda	($14),y                 ; 0x2014 <textPrint+0x1db>
    1d79: 88           	dey
    1d7a: 85 14        	sta	$14                     ; 0x2014 <textPrint+0x1db>
    1d7c: a5 8d        	lda	$8d                     ; 0x208d <textPrint+0x254>
    1d7e: 29 01        	and	#$1
    1d80: a2 40        	ldx	#$40
    1d82: c9 00        	cmp	#$0
    1d84: d0 04        	bne	$1d8a <bitmapLine+0x39d>
    1d86: a2 00        	ldx	#$0
    1d88: a0 00        	ldy	#$0
    1d8a: a5 23        	lda	$23                     ; 0x2023 <textPrint+0x1ea>
    1d8c: 8d 00 de     	sta	$de00                   ; 0xde00 <end_block9+0xa3d4>
    1d8f: a5 13        	lda	$13                     ; 0x2013 <textPrint+0x1da>
    1d91: 8d 01 de     	sta	$de01                   ; 0xde01 <end_block9+0xa3d5>
    1d94: 8e 02 de     	stx	$de02                   ; 0xde02 <end_block9+0xa3d6>
    1d97: 8c 03 de     	sty	$de03                   ; 0xde03 <end_block9+0xa3d7>
    1d9a: ae 10 de     	ldx	$de10                   ; 0xde10 <end_block9+0xa3e4>
    1d9d: 86 15        	stx	$15                     ; 0x2015 <textPrint+0x1dc>
    1d9f: ac 11 de     	ldy	$de11                   ; 0xde11 <end_block9+0xa3e5>
    1da2: ad 12 de     	lda	$de12                   ; 0xde12 <end_block9+0xa3e6>
    1da5: ae 13 de     	ldx	$de13                   ; 0xde13 <end_block9+0xa3e7>
    1da8: 86 13        	stx	$13                     ; 0x2013 <textPrint+0x1da>
    1daa: a6 15        	ldx	$15                     ; 0x2015 <textPrint+0x1dc>
    1dac: 8e 08 de     	stx	$de08                   ; 0xde08 <end_block9+0xa3dc>
    1daf: 8c 09 de     	sty	$de09                   ; 0xde09 <end_block9+0xa3dd>
    1db2: 8d 0a de     	sta	$de0a                   ; 0xde0a <end_block9+0xa3de>
    1db5: a6 13        	ldx	$13                     ; 0x2013 <textPrint+0x1da>
    1db7: 8e 0b de     	stx	$de0b                   ; 0xde0b <end_block9+0xa3df>
    1dba: a6 17        	ldx	$17                     ; 0x2017 <textPrint+0x1de>
    1dbc: 8e 0c de     	stx	$de0c                   ; 0xde0c <end_block9+0xa3e0>
    1dbf: a6 16        	ldx	$16                     ; 0x2016 <textPrint+0x1dd>
    1dc1: 8e 0d de     	stx	$de0d                   ; 0xde0d <end_block9+0xa3e1>
    1dc4: 9c 0e de     	stz	$de0e                   ; 0xde0e <end_block9+0xa3e2>
    1dc7: 9c 0f de     	stz	$de0f                   ; 0xde0f <end_block9+0xa3e3>
    1dca: ad 18 de     	lda	$de18                   ; 0xde18 <end_block9+0xa3ec>
    1dcd: ac 19 de     	ldy	$de19                   ; 0xde19 <end_block9+0xa3ed>
    1dd0: ae 1a de     	ldx	$de1a                   ; 0xde1a <end_block9+0xa3ee>
    1dd3: 86 15        	stx	$15                     ; 0x2015 <textPrint+0x1dc>
    1dd5: ae 1b de     	ldx	$de1b                   ; 0xde1b <end_block9+0xa3ef>
    1dd8: 18           	clc
    1dd9: 65 12        	adc	$12                     ; 0x2012 <textPrint+0x1d9>
    1ddb: aa           	tax
    1ddc: 98           	tya
    1ddd: 65 18        	adc	$18                     ; 0x2018 <textPrint+0x1df>
    1ddf: a8           	tay
    1de0: a5 15        	lda	$15                     ; 0x2015 <textPrint+0x1dc>
    1de2: 65 14        	adc	$14                     ; 0x2014 <textPrint+0x1db>
    1de4: 85 13        	sta	$13                     ; 0x2013 <textPrint+0x1da>
    1de6: 98           	tya
    1de7: 84 12        	sty	$12                     ; 0x2012 <textPrint+0x1d9>
    1de9: 06 12        	asl	$12                     ; 0x2012 <textPrint+0x1d9>
    1deb: 26 13        	rol	$13                     ; 0x2013 <textPrint+0x1da>
    1ded: 06 12        	asl	$12                     ; 0x2012 <textPrint+0x1d9>
    1def: 26 13        	rol	$13                     ; 0x2013 <textPrint+0x1da>
    1df1: 06 12        	asl	$12                     ; 0x2012 <textPrint+0x1d9>
    1df3: 26 13        	rol	$13                     ; 0x2013 <textPrint+0x1da>
    1df5: a4 13        	ldy	$13                     ; 0x2013 <textPrint+0x1da>
    1df7: 84 0f        	sty	$f                      ; 0x200f <textPrint+0x1d6>
    1df9: ac 1a 3a     	ldy	$3a1a                   ; 0x3a1a <_color>
    1dfc: 09 e0        	ora	#$e0
    1dfe: 86 12        	stx	$12                     ; 0x2012 <textPrint+0x1d9>
    1e00: 85 13        	sta	$13                     ; 0x2013 <textPrint+0x1da>
    1e02: 98           	tya
    1e03: 92 12        	sta	($12)                   ; 0x2012 <textPrint+0x1d9>
    1e05: a6 1e        	ldx	$1e                     ; 0x201e <textPrint+0x1e5>
    1e07: 86 0f        	stx	$f                      ; 0x200f <textPrint+0x1d6>
    1e09: 58           	cli
    1e0a: a0 00        	ldy	#$0
    1e0c: b1 10        	lda	($10),y                 ; 0x2010 <textPrint+0x1d7>
    1e0e: 85 2b        	sta	$2b                     ; 0x202b <textPrint+0x1f2>
    1e10: c8           	iny
    1e11: b1 10        	lda	($10),y                 ; 0x2010 <textPrint+0x1d7>
    1e13: 85 2a        	sta	$2a                     ; 0x202a <textPrint+0x1f1>
    1e15: c8           	iny
    1e16: b1 10        	lda	($10),y                 ; 0x2010 <textPrint+0x1d7>
    1e18: 85 29        	sta	$29                     ; 0x2029 <textPrint+0x1f0>
    1e1a: c8           	iny
    1e1b: b1 10        	lda	($10),y                 ; 0x2010 <textPrint+0x1d7>
    1e1d: 85 28        	sta	$28                     ; 0x2028 <textPrint+0x1ef>
    1e1f: fa           	plx
    1e20: 86 27        	stx	$27                     ; 0x2027 <textPrint+0x1ee>
    1e22: fa           	plx
    1e23: 86 26        	stx	$26                     ; 0x2026 <textPrint+0x1ed>
    1e25: fa           	plx
    1e26: 86 25        	stx	$25                     ; 0x2025 <textPrint+0x1ec>
    1e28: fa           	plx
    1e29: 86 24        	stx	$24                     ; 0x2024 <textPrint+0x1eb>
    1e2b: 18           	clc
    1e2c: a5 10        	lda	$10                     ; 0x2010 <textPrint+0x1d7>
    1e2e: 69 04        	adc	#$4
    1e30: 85 10        	sta	$10                     ; 0x2010 <textPrint+0x1d7>
    1e32: a5 11        	lda	$11                     ; 0x2011 <textPrint+0x1d8>
    1e34: 69 00        	adc	#$0
    1e36: 85 11        	sta	$11                     ; 0x2011 <textPrint+0x1d8>
    1e38: 60           	rts

00001e39 <textPrint>:
    1e39: a6 12        	ldx	$12                     ; 0x2012 <textPrint+0x1d9>
    1e3b: 86 e5        	stx	$e5                     ; 0x20e5 <setTimer+0x4>
    1e3d: a6 13        	ldx	$13                     ; 0x2013 <textPrint+0x1da>
    1e3f: 86 e6        	stx	$e6                     ; 0x20e6 <setTimer+0x5>
    1e41: a2 00        	ldx	#$0
    1e43: 86 e7        	stx	$e7                     ; 0x20e7 <setTimer+0x6>
    1e45: a2 c0        	ldx	#$c0
    1e47: 86 e8        	stx	$e8                     ; 0x20e8 <setTimer+0x7>
    1e49: a6 01        	ldx	$1                      ; 0x2001 <textPrint+0x1c8>
    1e4b: 86 ec        	stx	$ec                     ; 0x20ec <setTimer+0xb>
    1e4d: a6 30        	ldx	$30                     ; 0x2030 <textPrint+0x1f7>
    1e4f: a4 8b        	ldy	$8b                     ; 0x208b <textPrint+0x252>
    1e51: 8e 00 de     	stx	$de00                   ; 0xde00 <end_block9+0xa3d4>
    1e54: 9c 01 de     	stz	$de01                   ; 0xde01 <end_block9+0xa3d5>
    1e57: 8c 02 de     	sty	$de02                   ; 0xde02 <end_block9+0xa3d6>
    1e5a: 9c 03 de     	stz	$de03                   ; 0xde03 <end_block9+0xa3d7>
    1e5d: ae 10 de     	ldx	$de10                   ; 0xde10 <end_block9+0xa3e4>
    1e60: 86 12        	stx	$12                     ; 0x2012 <textPrint+0x1d9>
    1e62: ac 11 de     	ldy	$de11                   ; 0xde11 <end_block9+0xa3e5>
    1e65: ad 12 de     	lda	$de12                   ; 0xde12 <end_block9+0xa3e6>
    1e68: ae 13 de     	ldx	$de13                   ; 0xde13 <end_block9+0xa3e7>
    1e6b: 86 13        	stx	$13                     ; 0x2013 <textPrint+0x1da>
    1e6d: 9c 08 de     	stz	$de08                   ; 0xde08 <end_block9+0xa3dc>
    1e70: a2 c0        	ldx	#$c0
    1e72: 8e 09 de     	stx	$de09                   ; 0xde09 <end_block9+0xa3dd>
    1e75: 9c 0a de     	stz	$de0a                   ; 0xde0a <end_block9+0xa3de>
    1e78: 9c 0b de     	stz	$de0b                   ; 0xde0b <end_block9+0xa3df>
    1e7b: a6 12        	ldx	$12                     ; 0x2012 <textPrint+0x1d9>
    1e7d: 8e 0c de     	stx	$de0c                   ; 0xde0c <end_block9+0xa3e0>
    1e80: 8c 0d de     	sty	$de0d                   ; 0xde0d <end_block9+0xa3e1>
    1e83: 8d 0e de     	sta	$de0e                   ; 0xde0e <end_block9+0xa3e2>
    1e86: a6 13        	ldx	$13                     ; 0x2013 <textPrint+0x1da>
    1e88: 8e 0f de     	stx	$de0f                   ; 0xde0f <end_block9+0xa3e3>
    1e8b: ae 18 de     	ldx	$de18                   ; 0xde18 <end_block9+0xa3ec>
    1e8e: ac 19 de     	ldy	$de19                   ; 0xde19 <end_block9+0xa3ed>
    1e91: ad 1a de     	lda	$de1a                   ; 0xde1a <end_block9+0xa3ee>
    1e94: ad 1b de     	lda	$de1b                   ; 0xde1b <end_block9+0xa3ef>
    1e97: 86 12        	stx	$12                     ; 0x2012 <textPrint+0x1d9>
    1e99: 84 13        	sty	$13                     ; 0x2013 <textPrint+0x1da>
    1e9b: 64 e9        	stz	$e9                     ; 0x20e9 <setTimer+0x8>
    1e9d: 64 ea        	stz	$ea                     ; 0x20ea <setTimer+0x9>
    1e9f: 80 00        	bra	$1ea1 <textPrint+0x68>
    1ea1: a5 e5        	lda	$e5                     ; 0x20e5 <setTimer+0x4>
    1ea3: 18           	clc
    1ea4: 65 e9        	adc	$e9                     ; 0x20e9 <setTimer+0x8>
    1ea6: 85 14        	sta	$14                     ; 0x2014 <textPrint+0x1db>
    1ea8: a5 e6        	lda	$e6                     ; 0x20e6 <setTimer+0x5>
    1eaa: 65 ea        	adc	$ea                     ; 0x20ea <setTimer+0x9>
    1eac: 85 15        	sta	$15                     ; 0x2015 <textPrint+0x1dc>
    1eae: b2 14        	lda	($14)                   ; 0x2014 <textPrint+0x1db>
    1eb0: c9 0a        	cmp	#$a
    1eb2: f0 29        	beq	$1edd <textPrint+0xa4>
    1eb4: c9 0d        	cmp	#$d
    1eb6: f0 25        	beq	$1edd <textPrint+0xa4>
    1eb8: aa           	tax
    1eb9: d0 03        	bne	$1ebe <textPrint+0x85>
    1ebb: 4c 7c 20     	jmp	$207c <textPrint+0x243>
    1ebe: a2 03        	ldx	#$3
    1ec0: 86 01        	stx	$1                      ; 0x2001 <textPrint+0x1c8>
    1ec2: a5 32        	lda	$32                     ; 0x2032 <textPrint+0x1f9>
    1ec4: a4 8a        	ldy	$8a                     ; 0x208a <textPrint+0x251>
    1ec6: 91 12        	sta	($12),y                 ; 0x2012 <textPrint+0x1d9>
    1ec8: ca           	dex
    1ec9: 86 01        	stx	$1                      ; 0x2001 <textPrint+0x1c8>
    1ecb: b2 14        	lda	($14)                   ; 0x2014 <textPrint+0x1db>
    1ecd: a4 8a        	ldy	$8a                     ; 0x208a <textPrint+0x251>
    1ecf: 91 12        	sta	($12),y                 ; 0x2012 <textPrint+0x1d9>
    1ed1: a6 8a        	ldx	$8a                     ; 0x208a <textPrint+0x251>
    1ed3: e8           	inx
    1ed4: e6 8a        	inc	$8a                     ; 0x208a <textPrint+0x251>
    1ed6: e4 30        	cpx	$30                     ; 0x2030 <textPrint+0x1f7>
    1ed8: f0 03        	beq	$1edd <textPrint+0xa4>
    1eda: 4c ae 1f     	jmp	$1fae <textPrint+0x175>
    1edd: 64 8a        	stz	$8a                     ; 0x208a <textPrint+0x251>
    1edf: a6 8b        	ldx	$8b                     ; 0x208b <textPrint+0x252>
    1ee1: e8           	inx
    1ee2: e6 8b        	inc	$8b                     ; 0x208b <textPrint+0x252>
    1ee4: a4 31        	ldy	$31                     ; 0x2031 <textPrint+0x1f8>
    1ee6: 84 eb        	sty	$eb                     ; 0x20eb <setTimer+0xa>
    1ee8: e4 eb        	cpx	$eb                     ; 0x20eb <setTimer+0xa>
    1eea: f0 03        	beq	$1eef <textPrint+0xb6>
    1eec: 4c a1 1f     	jmp	$1fa1 <textPrint+0x168>
    1eef: a6 30        	ldx	$30                     ; 0x2030 <textPrint+0x1f7>
    1ef1: 86 ef        	stx	$ef                     ; 0x20ef <setTimer+0xe>
    1ef3: 98           	tya
    1ef4: a2 00        	ldx	#$0
    1ef6: 3a           	dec
    1ef7: c9 ff        	cmp	#$ff
    1ef9: d0 01        	bne	$1efc <textPrint+0xc3>
    1efb: ca           	dex
    1efc: a4 ef        	ldy	$ef                     ; 0x20ef <setTimer+0xe>
    1efe: 84 12        	sty	$12                     ; 0x2012 <textPrint+0x1d9>
    1f00: 64 13        	stz	$13                     ; 0x2013 <textPrint+0x1da>
    1f02: 20 49 32     	jsr	$3249 <__mulhi3>
    1f05: 85 ed        	sta	$ed                     ; 0x20ed <setTimer+0xc>
    1f07: 86 ee        	stx	$ee                     ; 0x20ee <setTimer+0xd>
    1f09: a2 03        	ldx	#$3
    1f0b: 86 01        	stx	$1                      ; 0x2001 <textPrint+0x1c8>
    1f0d: 38           	sec
    1f0e: a9 01        	lda	#$1
    1f10: e5 eb        	sbc	$eb                     ; 0x20eb <setTimer+0xa>
    1f12: a8           	tay
    1f13: 64 eb        	stz	$eb                     ; 0x20eb <setTimer+0xa>
    1f15: a9 00        	lda	#$0
    1f17: e9 00        	sbc	#$0
    1f19: a6 ef        	ldx	$ef                     ; 0x20ef <setTimer+0xe>
    1f1b: 86 12        	stx	$12                     ; 0x2012 <textPrint+0x1d9>
    1f1d: 64 13        	stz	$13                     ; 0x2013 <textPrint+0x1da>
    1f1f: aa           	tax
    1f20: 98           	tya
    1f21: 20 49 32     	jsr	$3249 <__mulhi3>
    1f24: 85 1a        	sta	$1a                     ; 0x201a <textPrint+0x1e1>
    1f26: a9 00        	lda	#$0
    1f28: 80 1d        	bra	$1f47 <textPrint+0x10e>
    1f2a: 64 14        	stz	$14                     ; 0x2014 <textPrint+0x1db>
    1f2c: 64 15        	stz	$15                     ; 0x2015 <textPrint+0x1dc>
    1f2e: a0 02        	ldy	#$2
    1f30: 84 01        	sty	$1                      ; 0x2001 <textPrint+0x1c8>
    1f32: a5 12        	lda	$12                     ; 0x2012 <textPrint+0x1d9>
    1f34: e6 eb        	inc	$eb                     ; 0x20eb <setTimer+0xa>
    1f36: d0 01        	bne	$1f39 <textPrint+0x100>
    1f38: 1a           	inc
    1f39: a4 12        	ldy	$12                     ; 0x2012 <textPrint+0x1d9>
    1f3b: f0 03        	beq	$1f40 <textPrint+0x107>
    1f3d: 4c ba 1f     	jmp	$1fba <textPrint+0x181>
    1f40: a4 13        	ldy	$13                     ; 0x2013 <textPrint+0x1da>
    1f42: f0 03        	beq	$1f47 <textPrint+0x10e>
    1f44: 4c ba 1f     	jmp	$1fba <textPrint+0x181>
    1f47: 85 12        	sta	$12                     ; 0x2012 <textPrint+0x1d9>
    1f49: a4 eb        	ldy	$eb                     ; 0x20eb <setTimer+0xa>
    1f4b: 84 13        	sty	$13                     ; 0x2013 <textPrint+0x1da>
    1f4d: a4 ed        	ldy	$ed                     ; 0x20ed <setTimer+0xc>
    1f4f: c0 01        	cpy	#$1
    1f51: a5 ee        	lda	$ee                     ; 0x20ee <setTimer+0xd>
    1f53: e9 00        	sbc	#$0
    1f55: 50 02        	bvc	$1f59 <textPrint+0x120>
    1f57: 49 80        	eor	#$80
    1f59: a8           	tay
    1f5a: 30 ce        	bmi	$1f2a <textPrint+0xf1>
    1f5c: 64 15        	stz	$15                     ; 0x2015 <textPrint+0x1dc>
    1f5e: a0 00        	ldy	#$0
    1f60: 84 18        	sty	$18                     ; 0x2018 <textPrint+0x1df>
    1f62: a0 c0        	ldy	#$c0
    1f64: 84 19        	sty	$19                     ; 0x2019 <textPrint+0x1e0>
    1f66: 64 17        	stz	$17                     ; 0x2017 <textPrint+0x1de>
    1f68: a4 17        	ldy	$17                     ; 0x2017 <textPrint+0x1de>
    1f6a: 84 14        	sty	$14                     ; 0x2014 <textPrint+0x1db>
    1f6c: a4 15        	ldy	$15                     ; 0x2015 <textPrint+0x1dc>
    1f6e: 84 16        	sty	$16                     ; 0x2016 <textPrint+0x1dd>
    1f70: a4 30        	ldy	$30                     ; 0x2030 <textPrint+0x1f7>
    1f72: b1 18        	lda	($18),y                 ; 0x2018 <textPrint+0x1df>
    1f74: 92 18        	sta	($18)                   ; 0x2018 <textPrint+0x1df>
    1f76: a0 ff        	ldy	#$ff
    1f78: c6 15        	dec	$15                     ; 0x2015 <textPrint+0x1dc>
    1f7a: c4 15        	cpy	$15                     ; 0x2015 <textPrint+0x1dc>
    1f7c: d0 02        	bne	$1f80 <textPrint+0x147>
    1f7e: c6 17        	dec	$17                     ; 0x2017 <textPrint+0x1de>
    1f80: e6 18        	inc	$18                     ; 0x2018 <textPrint+0x1df>
    1f82: d0 02        	bne	$1f86 <textPrint+0x14d>
    1f84: e6 19        	inc	$19                     ; 0x2019 <textPrint+0x1e0>
    1f86: e4 17        	cpx	$17                     ; 0x2017 <textPrint+0x1de>
    1f88: d0 de        	bne	$1f68 <textPrint+0x12f>
    1f8a: a4 1a        	ldy	$1a                     ; 0x201a <textPrint+0x1e1>
    1f8c: c4 15        	cpy	$15                     ; 0x2015 <textPrint+0x1dc>
    1f8e: d0 d8        	bne	$1f68 <textPrint+0x12f>
    1f90: 38           	sec
    1f91: a9 01        	lda	#$1
    1f93: e5 16        	sbc	$16                     ; 0x2016 <textPrint+0x1dd>
    1f95: a8           	tay
    1f96: a9 00        	lda	#$0
    1f98: e5 14        	sbc	$14                     ; 0x2014 <textPrint+0x1db>
    1f9a: 84 14        	sty	$14                     ; 0x2014 <textPrint+0x1db>
    1f9c: 85 15        	sta	$15                     ; 0x2015 <textPrint+0x1dc>
    1f9e: 4c 2e 1f     	jmp	$1f2e <textPrint+0xf5>
    1fa1: a5 12        	lda	$12                     ; 0x2012 <textPrint+0x1d9>
    1fa3: 18           	clc
    1fa4: 65 30        	adc	$30                     ; 0x2030 <textPrint+0x1f7>
    1fa6: 85 12        	sta	$12                     ; 0x2012 <textPrint+0x1d9>
    1fa8: a5 13        	lda	$13                     ; 0x2013 <textPrint+0x1da>
    1faa: 69 00        	adc	#$0
    1fac: 85 13        	sta	$13                     ; 0x2013 <textPrint+0x1da>
    1fae: e6 e9        	inc	$e9                     ; 0x20e9 <setTimer+0x8>
    1fb0: f0 03        	beq	$1fb5 <textPrint+0x17c>
    1fb2: 4c a1 1e     	jmp	$1ea1 <textPrint+0x68>
    1fb5: e6 ea        	inc	$ea                     ; 0x20ea <setTimer+0x9>
    1fb7: 4c a1 1e     	jmp	$1ea1 <textPrint+0x68>
    1fba: a9 00        	lda	#$0
    1fbc: 18           	clc
    1fbd: 65 14        	adc	$14                     ; 0x2014 <textPrint+0x1db>
    1fbf: 85 12        	sta	$12                     ; 0x2012 <textPrint+0x1d9>
    1fc1: a9 c0        	lda	#$c0
    1fc3: 65 15        	adc	$15                     ; 0x2015 <textPrint+0x1dc>
    1fc5: 85 13        	sta	$13                     ; 0x2013 <textPrint+0x1da>
    1fc7: a2 03        	ldx	#$3
    1fc9: 86 01        	stx	$1                      ; 0x2001 <textPrint+0x1c8>
    1fcb: a6 30        	ldx	$30                     ; 0x2030 <textPrint+0x1f7>
    1fcd: f0 37        	beq	$2006 <textPrint+0x1cd>
    1fcf: a9 01        	lda	#$1
    1fd1: 18           	clc
    1fd2: 65 14        	adc	$14                     ; 0x2014 <textPrint+0x1db>
    1fd4: 85 17        	sta	$17                     ; 0x2017 <textPrint+0x1de>
    1fd6: a9 c0        	lda	#$c0
    1fd8: 65 15        	adc	$15                     ; 0x2015 <textPrint+0x1dc>
    1fda: a8           	tay
    1fdb: 64 16        	stz	$16                     ; 0x2016 <textPrint+0x1dd>
    1fdd: a6 12        	ldx	$12                     ; 0x2012 <textPrint+0x1d9>
    1fdf: 86 18        	stx	$18                     ; 0x2018 <textPrint+0x1df>
    1fe1: a6 13        	ldx	$13                     ; 0x2013 <textPrint+0x1da>
    1fe3: 86 19        	stx	$19                     ; 0x2019 <textPrint+0x1e0>
    1fe5: a5 17        	lda	$17                     ; 0x2017 <textPrint+0x1de>
    1fe7: 18           	clc
    1fe8: 65 16        	adc	$16                     ; 0x2016 <textPrint+0x1dd>
    1fea: 85 1a        	sta	$1a                     ; 0x201a <textPrint+0x1e1>
    1fec: 98           	tya
    1fed: 69 00        	adc	#$0
    1fef: 85 1b        	sta	$1b                     ; 0x201b <textPrint+0x1e2>
    1ff1: a5 32        	lda	$32                     ; 0x2032 <textPrint+0x1f9>
    1ff3: 92 18        	sta	($18)                   ; 0x2018 <textPrint+0x1df>
    1ff5: a6 16        	ldx	$16                     ; 0x2016 <textPrint+0x1dd>
    1ff7: e8           	inx
    1ff8: 86 16        	stx	$16                     ; 0x2016 <textPrint+0x1dd>
    1ffa: e4 30        	cpx	$30                     ; 0x2030 <textPrint+0x1f7>
    1ffc: a6 1a        	ldx	$1a                     ; 0x201a <textPrint+0x1e1>
    1ffe: 86 18        	stx	$18                     ; 0x2018 <textPrint+0x1df>
    2000: a6 1b        	ldx	$1b                     ; 0x201b <textPrint+0x1e2>
    2002: 86 19        	stx	$19                     ; 0x2019 <textPrint+0x1e0>
    2004: 90 df        	bcc	$1fe5 <textPrint+0x1ac>
    2006: a2 02        	ldx	#$2
    2008: 86 01        	stx	$1                      ; 0x2001 <textPrint+0x1c8>
    200a: a6 30        	ldx	$30                     ; 0x2030 <textPrint+0x1f7>
    200c: f0 2f        	beq	$203d <textPrint+0x204>
    200e: a9 01        	lda	#$1
    2010: 18           	clc
    2011: 65 14        	adc	$14                     ; 0x2014 <textPrint+0x1db>
    2013: 85 18        	sta	$18                     ; 0x2018 <textPrint+0x1df>
    2015: a9 c0        	lda	#$c0
    2017: 65 15        	adc	$15                     ; 0x2015 <textPrint+0x1dc>
    2019: a8           	tay
    201a: 64 14        	stz	$14                     ; 0x2014 <textPrint+0x1db>
    201c: a5 18        	lda	$18                     ; 0x2018 <textPrint+0x1df>
    201e: 18           	clc
    201f: 65 14        	adc	$14                     ; 0x2014 <textPrint+0x1db>
    2021: 85 16        	sta	$16                     ; 0x2016 <textPrint+0x1dd>
    2023: 98           	tya
    2024: 69 00        	adc	#$0
    2026: 85 17        	sta	$17                     ; 0x2017 <textPrint+0x1de>
    2028: a9 20        	lda	#$20
    202a: 92 12        	sta	($12)                   ; 0x2012 <textPrint+0x1d9>
    202c: a6 14        	ldx	$14                     ; 0x2014 <textPrint+0x1db>
    202e: e8           	inx
    202f: 86 14        	stx	$14                     ; 0x2014 <textPrint+0x1db>
    2031: e4 30        	cpx	$30                     ; 0x2030 <textPrint+0x1f7>
    2033: a6 16        	ldx	$16                     ; 0x2016 <textPrint+0x1dd>
    2035: 86 12        	stx	$12                     ; 0x2012 <textPrint+0x1d9>
    2037: a6 17        	ldx	$17                     ; 0x2017 <textPrint+0x1de>
    2039: 86 13        	stx	$13                     ; 0x2013 <textPrint+0x1da>
    203b: 90 df        	bcc	$201c <textPrint+0x1e3>
    203d: c6 8b        	dec	$8b                     ; 0x208b <textPrint+0x252>
    203f: a6 31        	ldx	$31                     ; 0x2031 <textPrint+0x1f8>
    2041: a0 00        	ldy	#$0
    2043: ca           	dex
    2044: e0 ff        	cpx	#$ff
    2046: d0 01        	bne	$2049 <textPrint+0x210>
    2048: 88           	dey
    2049: 9c 08 de     	stz	$de08                   ; 0xde08 <end_block9+0xa3dc>
    204c: a9 c0        	lda	#$c0
    204e: 8d 09 de     	sta	$de09                   ; 0xde09 <end_block9+0xa3dd>
    2051: 9c 0a de     	stz	$de0a                   ; 0xde0a <end_block9+0xa3de>
    2054: 9c 0b de     	stz	$de0b                   ; 0xde0b <end_block9+0xa3df>
    2057: 8e 0c de     	stx	$de0c                   ; 0xde0c <end_block9+0xa3e0>
    205a: 8c 0d de     	sty	$de0d                   ; 0xde0d <end_block9+0xa3e1>
    205d: 9c 0e de     	stz	$de0e                   ; 0xde0e <end_block9+0xa3e2>
    2060: 9c 0f de     	stz	$de0f                   ; 0xde0f <end_block9+0xa3e3>
    2063: ae 18 de     	ldx	$de18                   ; 0xde18 <end_block9+0xa3ec>
    2066: ac 19 de     	ldy	$de19                   ; 0xde19 <end_block9+0xa3ed>
    2069: ad 1a de     	lda	$de1a                   ; 0xde1a <end_block9+0xa3ee>
    206c: ad 1b de     	lda	$de1b                   ; 0xde1b <end_block9+0xa3ef>
    206f: 86 12        	stx	$12                     ; 0x2012 <textPrint+0x1d9>
    2071: 84 13        	sty	$13                     ; 0x2013 <textPrint+0x1da>
    2073: e6 e9        	inc	$e9                     ; 0x20e9 <setTimer+0x8>
    2075: d0 02        	bne	$2079 <textPrint+0x240>
    2077: e6 ea        	inc	$ea                     ; 0x20ea <setTimer+0x9>
    2079: 4c a1 1e     	jmp	$1ea1 <textPrint+0x68>
    207c: a6 ec        	ldx	$ec                     ; 0x20ec <setTimer+0xb>
    207e: 86 01        	stx	$1                      ; 0x2001 <textPrint+0x1c8>
    2080: a6 8a        	ldx	$8a                     ; 0x208a <textPrint+0x251>
    2082: a4 8b        	ldy	$8b                     ; 0x208b <textPrint+0x252>
    2084: 8e 14 d0     	stx	$d014                   ; 0xd014 <end_block9+0x95e8>
    2087: 9c 15 d0     	stz	$d015                   ; 0xd015 <end_block9+0x95e9>
    208a: 84 8b        	sty	$8b                     ; 0x208b <textPrint+0x252>
    208c: 8c 16 d0     	sty	$d016                   ; 0xd016 <end_block9+0x95ea>
    208f: 9c 17 d0     	stz	$d017                   ; 0xd017 <end_block9+0x95eb>
    2092: 60           	rts

00002093 <__putchar>:
    2093: 8d 2a 3a     	sta	$3a2a                   ; 0x3a2a <__putchar.s>
    2096: a2 2a        	ldx	#$2a
    2098: 86 12        	stx	$12                     ; 0x2012 <textPrint+0x1d9>
    209a: a2 3a        	ldx	#$3a
    209c: 86 13        	stx	$13                     ; 0x2013 <textPrint+0x1da>
    209e: 4c 39 1e     	jmp	$1e39 <textPrint>

000020a1 <midiNoteOff>:
    20a1: 86 14        	stx	$14                     ; 0x2014 <textPrint+0x1db>
    20a3: a4 12        	ldy	$12                     ; 0x2012 <textPrint+0x1d9>
    20a5: 09 80        	ora	#$80
    20a7: a6 13        	ldx	$13                     ; 0x2013 <textPrint+0x1da>
    20a9: f0 04        	beq	$20af <midiNoteOff+0xe>
    20ab: a2 b1        	ldx	#$b1
    20ad: 80 02        	bra	$20b1 <midiNoteOff+0x10>
    20af: a2 a1        	ldx	#$a1
    20b1: 86 12        	stx	$12                     ; 0x2012 <textPrint+0x1d9>
    20b3: a2 dd        	ldx	#$dd
    20b5: 86 13        	stx	$13                     ; 0x2013 <textPrint+0x1da>
    20b7: 92 12        	sta	($12)                   ; 0x2012 <textPrint+0x1d9>
    20b9: a5 14        	lda	$14                     ; 0x2014 <textPrint+0x1db>
    20bb: 92 12        	sta	($12)                   ; 0x2012 <textPrint+0x1d9>
    20bd: 98           	tya
    20be: 92 12        	sta	($12)                   ; 0x2012 <textPrint+0x1d9>
    20c0: 60           	rts

000020c1 <midiNoteOn>:
    20c1: 86 14        	stx	$14                     ; 0x2014 <textPrint+0x1db>
    20c3: a4 12        	ldy	$12                     ; 0x2012 <textPrint+0x1d9>
    20c5: 09 90        	ora	#$90
    20c7: a6 13        	ldx	$13                     ; 0x2013 <textPrint+0x1da>
    20c9: f0 04        	beq	$20cf <midiNoteOn+0xe>
    20cb: a2 b1        	ldx	#$b1
    20cd: 80 02        	bra	$20d1 <midiNoteOn+0x10>
    20cf: a2 a1        	ldx	#$a1
    20d1: 86 12        	stx	$12                     ; 0x2012 <textPrint+0x1d9>
    20d3: a2 dd        	ldx	#$dd
    20d5: 86 13        	stx	$13                     ; 0x2013 <textPrint+0x1da>
    20d7: 92 12        	sta	($12)                   ; 0x2012 <textPrint+0x1d9>
    20d9: a5 14        	lda	$14                     ; 0x2014 <textPrint+0x1db>
    20db: 92 12        	sta	($12)                   ; 0x2012 <textPrint+0x1d9>
    20dd: 98           	tya
    20de: 92 12        	sta	($12)                   ; 0x2012 <textPrint+0x1d9>
    20e0: 60           	rts

000020e1 <setTimer>:
    20e1: b2 12        	lda	($12)                   ; 0x2012 <textPrint+0x1d9>
    20e3: 85 f3        	sta	$f3                     ; 0x20f3 <setTimer+0x12>
    20e5: a0 01        	ldy	#$1
    20e7: b1 12        	lda	($12),y                 ; 0x2012 <textPrint+0x1d9>
    20e9: 85 f4        	sta	$f4                     ; 0x20f4 <setTimer+0x13>
    20eb: c8           	iny
    20ec: b1 12        	lda	($12),y                 ; 0x2012 <textPrint+0x1d9>
    20ee: 85 f5        	sta	$f5                     ; 0x20f5 <setTimer+0x14>
    20f0: a2 e5        	ldx	#$e5
    20f2: a0 00        	ldy	#$0
    20f4: 86 12        	stx	$12                     ; 0x2012 <textPrint+0x1d9>
    20f6: 84 13        	sty	$13                     ; 0x2013 <textPrint+0x1da>
    20f8: a2 dd        	ldx	#$dd
    20fa: 86 14        	stx	$14                     ; 0x2014 <textPrint+0x1db>
    20fc: a2 00        	ldx	#$0
    20fe: 86 15        	stx	$15                     ; 0x2015 <textPrint+0x1dc>
    2100: 20 f0 ff     	jsr	$fff0 <end_block9+0xc5c4>
    2103: 92 12        	sta	($12)                   ; 0x2012 <textPrint+0x1d9>
    2105: a9 00        	lda	#$0
    2107: 6a           	ror
    2108: 85 14        	sta	$14                     ; 0x2014 <textPrint+0x1db>
    210a: a6 dd        	ldx	$dd                     ; 0x20dd <midiNoteOn+0x1c>
    210c: d0 03        	bne	$2111 <setTimer+0x30>
    210e: a9 01        	lda	#$1
    2110: 60           	rts
    2111: a9 00        	lda	#$0
    2113: 60           	rts

00002114 <getTimerAbsolute>:
    2114: 09 80        	ora	#$80
    2116: 85 f3        	sta	$f3                     ; 0x20f3 <setTimer+0x12>
    2118: a2 e5        	ldx	#$e5
    211a: a0 00        	ldy	#$0
    211c: 86 12        	stx	$12                     ; 0x2012 <textPrint+0x1d9>
    211e: 84 13        	sty	$13                     ; 0x2013 <textPrint+0x1da>
    2120: a2 dd        	ldx	#$dd
    2122: 86 14        	stx	$14                     ; 0x2014 <textPrint+0x1db>
    2124: a2 00        	ldx	#$0
    2126: 86 15        	stx	$15                     ; 0x2015 <textPrint+0x1dc>
    2128: 20 f0 ff     	jsr	$fff0 <end_block9+0xc5c4>
    212b: 92 12        	sta	($12)                   ; 0x2012 <textPrint+0x1d9>
    212d: a9 00        	lda	#$0
    212f: 6a           	ror
    2130: 85 14        	sta	$14                     ; 0x2014 <textPrint+0x1db>
    2132: a5 e5        	lda	$e5                     ; 0x20e5 <setTimer+0x4>
    2134: 60           	rts

00002135 <exit>:
    2135: 85 e5        	sta	$e5                     ; 0x20e5 <setTimer+0x4>
    2137: 86 e6        	stx	$e6                     ; 0x20e6 <setTimer+0x5>
    2139: 20 71 03     	jsr	$371 <_fini>
    213c: a6 e6        	ldx	$e6                     ; 0x20e6 <setTimer+0x5>
    213e: a5 e5        	lda	$e5                     ; 0x20e5 <setTimer+0x4>
    2140: 20 43 21     	jsr	$2143 <_Exit>

00002143 <_Exit>:
    2143: 80 fe        	bra	$2143 <_Exit>

00002145 <vfprintf>:
    2145: 18           	clc
    2146: a5 10        	lda	$10                     ; 0x2010 <textPrint+0x1d7>
    2148: 69 e8        	adc	#$e8
    214a: 85 10        	sta	$10                     ; 0x2010 <textPrint+0x1d7>
    214c: a5 11        	lda	$11                     ; 0x2011 <textPrint+0x1d8>
    214e: 69 ff        	adc	#$ff
    2150: 85 11        	sta	$11                     ; 0x2011 <textPrint+0x1d8>
    2152: a6 24        	ldx	$24                     ; 0x2024 <textPrint+0x1eb>
    2154: da           	phx
    2155: a6 25        	ldx	$25                     ; 0x2025 <textPrint+0x1ec>
    2157: da           	phx
    2158: a6 26        	ldx	$26                     ; 0x2026 <textPrint+0x1ed>
    215a: da           	phx
    215b: a6 27        	ldx	$27                     ; 0x2027 <textPrint+0x1ee>
    215d: da           	phx
    215e: a5 28        	lda	$28                     ; 0x2028 <textPrint+0x1ef>
    2160: a0 01        	ldy	#$1
    2162: 91 10        	sta	($10),y                 ; 0x2010 <textPrint+0x1d7>
    2164: a5 29        	lda	$29                     ; 0x2029 <textPrint+0x1f0>
    2166: 88           	dey
    2167: 91 10        	sta	($10),y                 ; 0x2010 <textPrint+0x1d7>
    2169: a6 12        	ldx	$12                     ; 0x2012 <textPrint+0x1d9>
    216b: 86 24        	stx	$24                     ; 0x2024 <textPrint+0x1eb>
    216d: a6 13        	ldx	$13                     ; 0x2013 <textPrint+0x1da>
    216f: 86 25        	stx	$25                     ; 0x2025 <textPrint+0x1ec>
    2171: a5 16        	lda	$16                     ; 0x2016 <textPrint+0x1dd>
    2173: 18           	clc
    2174: 48           	pha
    2175: a5 10        	lda	$10                     ; 0x2010 <textPrint+0x1d7>
    2177: 69 16        	adc	#$16
    2179: 85 12        	sta	$12                     ; 0x2012 <textPrint+0x1d9>
    217b: a5 11        	lda	$11                     ; 0x2011 <textPrint+0x1d8>
    217d: 69 00        	adc	#$0
    217f: 85 13        	sta	$13                     ; 0x2013 <textPrint+0x1da>
    2181: 68           	pla
    2182: 92 12        	sta	($12)                   ; 0x2012 <textPrint+0x1d9>
    2184: c8           	iny
    2185: a5 17        	lda	$17                     ; 0x2017 <textPrint+0x1de>
    2187: 91 12        	sta	($12),y                 ; 0x2012 <textPrint+0x1d9>
    2189: 18           	clc
    218a: a5 10        	lda	$10                     ; 0x2010 <textPrint+0x1d7>
    218c: 69 03        	adc	#$3
    218e: 48           	pha
    218f: a5 11        	lda	$11                     ; 0x2011 <textPrint+0x1d8>
    2191: 69 00        	adc	#$0
    2193: a8           	tay
    2194: 68           	pla
    2195: 85 16        	sta	$16                     ; 0x2016 <textPrint+0x1dd>
    2197: 84 17        	sty	$17                     ; 0x2017 <textPrint+0x1de>
    2199: 85 28        	sta	$28                     ; 0x2028 <textPrint+0x1ef>
    219b: 18           	clc
    219c: 69 03        	adc	#$3
    219e: 85 18        	sta	$18                     ; 0x2018 <textPrint+0x1df>
    21a0: 84 29        	sty	$29                     ; 0x2029 <textPrint+0x1f0>
    21a2: 98           	tya
    21a3: 69 00        	adc	#$0
    21a5: a0 03        	ldy	#$3
    21a7: 85 19        	sta	$19                     ; 0x2019 <textPrint+0x1e0>
    21a9: a9 ff        	lda	#$ff
    21ab: 91 16        	sta	($16),y                 ; 0x2016 <textPrint+0x1dd>
    21ad: 18           	clc
    21ae: a5 10        	lda	$10                     ; 0x2010 <textPrint+0x1d7>
    21b0: 69 03        	adc	#$3
    21b2: 85 1b        	sta	$1b                     ; 0x201b <textPrint+0x1e2>
    21b4: a5 11        	lda	$11                     ; 0x2011 <textPrint+0x1d8>
    21b6: 69 00        	adc	#$0
    21b8: 85 1a        	sta	$1a                     ; 0x201a <textPrint+0x1e1>
    21ba: a0 01        	ldy	#$1
    21bc: a9 ff        	lda	#$ff
    21be: 91 18        	sta	($18),y                 ; 0x2018 <textPrint+0x1df>
    21c0: 18           	clc
    21c1: a5 1b        	lda	$1b                     ; 0x201b <textPrint+0x1e2>
    21c3: 69 05        	adc	#$5
    21c5: 85 18        	sta	$18                     ; 0x2018 <textPrint+0x1df>
    21c7: a5 1a        	lda	$1a                     ; 0x201a <textPrint+0x1e1>
    21c9: 69 00        	adc	#$0
    21cb: 85 19        	sta	$19                     ; 0x2019 <textPrint+0x1e0>
    21cd: 18           	clc
    21ce: a5 10        	lda	$10                     ; 0x2010 <textPrint+0x1d7>
    21d0: 69 03        	adc	#$3
    21d2: 48           	pha
    21d3: a5 11        	lda	$11                     ; 0x2011 <textPrint+0x1d8>
    21d5: 69 00        	adc	#$0
    21d7: 85 1b        	sta	$1b                     ; 0x201b <textPrint+0x1e2>
    21d9: 68           	pla
    21da: 18           	clc
    21db: 69 09        	adc	#$9
    21dd: 85 1a        	sta	$1a                     ; 0x201a <textPrint+0x1e1>
    21df: a5 1b        	lda	$1b                     ; 0x201b <textPrint+0x1e2>
    21e1: 69 00        	adc	#$0
    21e3: 85 1b        	sta	$1b                     ; 0x201b <textPrint+0x1e2>
    21e5: a0 09        	ldy	#$9
    21e7: a2 00        	ldx	#$0
    21e9: 86 1c        	stx	$1c                     ; 0x201c <textPrint+0x1e3>
    21eb: a2 00        	ldx	#$0
    21ed: 86 1d        	stx	$1d                     ; 0x201d <textPrint+0x1e4>
    21ef: a5 1c        	lda	$1c                     ; 0x201c <textPrint+0x1e3>
    21f1: 91 16        	sta	($16),y                 ; 0x2016 <textPrint+0x1dd>
    21f3: a0 0f        	ldy	#$f
    21f5: a5 24        	lda	$24                     ; 0x2024 <textPrint+0x1eb>
    21f7: 91 16        	sta	($16),y                 ; 0x2016 <textPrint+0x1dd>
    21f9: 18           	clc
    21fa: a5 10        	lda	$10                     ; 0x2010 <textPrint+0x1d7>
    21fc: 69 03        	adc	#$3
    21fe: 85 1c        	sta	$1c                     ; 0x201c <textPrint+0x1e3>
    2200: a5 11        	lda	$11                     ; 0x2011 <textPrint+0x1d8>
    2202: 69 00        	adc	#$0
    2204: aa           	tax
    2205: a5 1d        	lda	$1d                     ; 0x201d <textPrint+0x1e4>
    2207: a0 01        	ldy	#$1
    2209: 91 1a        	sta	($1a),y                 ; 0x201a <textPrint+0x1e1>
    220b: 18           	clc
    220c: a5 1c        	lda	$1c                     ; 0x201c <textPrint+0x1e3>
    220e: 69 0f        	adc	#$f
    2210: 85 1a        	sta	$1a                     ; 0x201a <textPrint+0x1e1>
    2212: 8a           	txa
    2213: 69 00        	adc	#$0
    2215: aa           	tax
    2216: a0 05        	ldy	#$5
    2218: a9 00        	lda	#$0
    221a: 91 16        	sta	($16),y                 ; 0x2016 <textPrint+0x1dd>
    221c: 64 1b        	stz	$1b                     ; 0x201b <textPrint+0x1e2>
    221e: a9 00        	lda	#$0
    2220: a0 02        	ldy	#$2
    2222: 91 10        	sta	($10),y                 ; 0x2010 <textPrint+0x1d7>
    2224: 88           	dey
    2225: a9 00        	lda	#$0
    2227: 91 18        	sta	($18),y                 ; 0x2018 <textPrint+0x1df>
    2229: 86 1b        	stx	$1b                     ; 0x201b <textPrint+0x1e2>
    222b: a5 25        	lda	$25                     ; 0x2025 <textPrint+0x1ec>
    222d: 91 1a        	sta	($1a),y                 ; 0x201a <textPrint+0x1e1>
    222f: b2 12        	lda	($12)                   ; 0x2012 <textPrint+0x1d9>
    2231: 85 19        	sta	$19                     ; 0x2019 <textPrint+0x1e0>
    2233: b1 12        	lda	($12),y                 ; 0x2012 <textPrint+0x1d9>
    2235: 85 18        	sta	$18                     ; 0x2018 <textPrint+0x1df>
    2237: a0 11        	ldy	#$11
    2239: a5 19        	lda	$19                     ; 0x2019 <textPrint+0x1e0>
    223b: 91 16        	sta	($16),y                 ; 0x2016 <textPrint+0x1dd>
    223d: 18           	clc
    223e: a5 10        	lda	$10                     ; 0x2010 <textPrint+0x1d7>
    2240: 69 03        	adc	#$3
    2242: 48           	pha
    2243: a5 11        	lda	$11                     ; 0x2011 <textPrint+0x1d8>
    2245: 69 00        	adc	#$0
    2247: 85 12        	sta	$12                     ; 0x2012 <textPrint+0x1d9>
    2249: 68           	pla
    224a: 18           	clc
    224b: 69 11        	adc	#$11
    224d: aa           	tax
    224e: a5 12        	lda	$12                     ; 0x2012 <textPrint+0x1d9>
    2250: 69 00        	adc	#$0
    2252: 86 12        	stx	$12                     ; 0x2012 <textPrint+0x1d9>
    2254: 85 13        	sta	$13                     ; 0x2013 <textPrint+0x1da>
    2256: a5 18        	lda	$18                     ; 0x2018 <textPrint+0x1df>
    2258: a0 01        	ldy	#$1
    225a: 91 12        	sta	($12),y                 ; 0x2012 <textPrint+0x1d9>
    225c: a6 14        	ldx	$14                     ; 0x2014 <textPrint+0x1db>
    225e: 86 12        	stx	$12                     ; 0x2012 <textPrint+0x1d9>
    2260: a6 15        	ldx	$15                     ; 0x2015 <textPrint+0x1dc>
    2262: 86 13        	stx	$13                     ; 0x2013 <textPrint+0x1da>
    2264: a6 12        	ldx	$12                     ; 0x2012 <textPrint+0x1d9>
    2266: 86 26        	stx	$26                     ; 0x2026 <textPrint+0x1ed>
    2268: a6 13        	ldx	$13                     ; 0x2013 <textPrint+0x1da>
    226a: 86 27        	stx	$27                     ; 0x2027 <textPrint+0x1ee>
    226c: b2 12        	lda	($12)                   ; 0x2012 <textPrint+0x1d9>
    226e: c9 25        	cmp	#$25
    2270: d0 03        	bne	$2275 <vfprintf+0x130>
    2272: 4c dd 22     	jmp	$22dd <vfprintf+0x198>
    2275: aa           	tax
    2276: d0 03        	bne	$227b <vfprintf+0x136>
    2278: 4c 35 23     	jmp	$2335 <vfprintf+0x1f0>
    227b: a6 24        	ldx	$24                     ; 0x2024 <textPrint+0x1eb>
    227d: 86 12        	stx	$12                     ; 0x2012 <textPrint+0x1d9>
    227f: a6 25        	ldx	$25                     ; 0x2025 <textPrint+0x1ec>
    2281: 86 13        	stx	$13                     ; 0x2013 <textPrint+0x1da>
    2283: 48           	pha
    2284: a0 02        	ldy	#$2
    2286: b1 10        	lda	($10),y                 ; 0x2010 <textPrint+0x1d7>
    2288: aa           	tax
    2289: 68           	pla
    228a: 20 81 31     	jsr	$3181 <putc>
    228d: e0 ff        	cpx	#$ff
    228f: d0 07        	bne	$2298 <vfprintf+0x153>
    2291: c9 ff        	cmp	#$ff
    2293: d0 03        	bne	$2298 <vfprintf+0x153>
    2295: 4c ff 22     	jmp	$22ff <vfprintf+0x1ba>
    2298: e6 26        	inc	$26                     ; 0x2026 <textPrint+0x1ed>
    229a: d0 02        	bne	$229e <vfprintf+0x159>
    229c: e6 27        	inc	$27                     ; 0x2027 <textPrint+0x1ee>
    229e: 18           	clc
    229f: a5 10        	lda	$10                     ; 0x2010 <textPrint+0x1d7>
    22a1: 69 03        	adc	#$3
    22a3: 48           	pha
    22a4: a5 11        	lda	$11                     ; 0x2011 <textPrint+0x1d8>
    22a6: 69 00        	adc	#$0
    22a8: aa           	tax
    22a9: 68           	pla
    22aa: 85 12        	sta	$12                     ; 0x2012 <textPrint+0x1d9>
    22ac: 86 13        	stx	$13                     ; 0x2013 <textPrint+0x1da>
    22ae: 18           	clc
    22af: 69 05        	adc	#$5
    22b1: 85 14        	sta	$14                     ; 0x2014 <textPrint+0x1db>
    22b3: 8a           	txa
    22b4: 69 00        	adc	#$0
    22b6: 85 15        	sta	$15                     ; 0x2015 <textPrint+0x1dc>
    22b8: a0 05        	ldy	#$5
    22ba: b1 12        	lda	($12),y                 ; 0x2012 <textPrint+0x1d9>
    22bc: 85 16        	sta	$16                     ; 0x2016 <textPrint+0x1dd>
    22be: a0 01        	ldy	#$1
    22c0: b1 14        	lda	($14),y                 ; 0x2014 <textPrint+0x1db>
    22c2: aa           	tax
    22c3: a5 16        	lda	$16                     ; 0x2016 <textPrint+0x1dd>
    22c5: 1a           	inc
    22c6: d0 01        	bne	$22c9 <vfprintf+0x184>
    22c8: e8           	inx
    22c9: a0 05        	ldy	#$5
    22cb: 91 12        	sta	($12),y                 ; 0x2012 <textPrint+0x1d9>
    22cd: 8a           	txa
    22ce: a0 01        	ldy	#$1
    22d0: 91 14        	sta	($14),y                 ; 0x2014 <textPrint+0x1db>
    22d2: a6 26        	ldx	$26                     ; 0x2026 <textPrint+0x1ed>
    22d4: 86 12        	stx	$12                     ; 0x2012 <textPrint+0x1d9>
    22d6: a6 27        	ldx	$27                     ; 0x2027 <textPrint+0x1ee>
    22d8: 86 13        	stx	$13                     ; 0x2013 <textPrint+0x1da>
    22da: 4c 64 22     	jmp	$2264 <vfprintf+0x11f>
    22dd: a6 28        	ldx	$28                     ; 0x2028 <textPrint+0x1ef>
    22df: 86 14        	stx	$14                     ; 0x2014 <textPrint+0x1db>
    22e1: a6 29        	ldx	$29                     ; 0x2029 <textPrint+0x1f0>
    22e3: 86 15        	stx	$15                     ; 0x2015 <textPrint+0x1dc>
    22e5: 20 5d 23     	jsr	$235d <_ZN12_GLOBAL__N_15printEPKcP6Status>
    22e8: a6 13        	ldx	$13                     ; 0x2013 <textPrint+0x1da>
    22ea: e4 27        	cpx	$27                     ; 0x2027 <textPrint+0x1ee>
    22ec: f0 03        	beq	$22f1 <vfprintf+0x1ac>
    22ee: 4c 64 22     	jmp	$2264 <vfprintf+0x11f>
    22f1: a6 12        	ldx	$12                     ; 0x2012 <textPrint+0x1d9>
    22f3: e4 26        	cpx	$26                     ; 0x2026 <textPrint+0x1ed>
    22f5: f0 03        	beq	$22fa <vfprintf+0x1b5>
    22f7: 4c 64 22     	jmp	$2264 <vfprintf+0x11f>
    22fa: b2 26        	lda	($26)                   ; 0x2026 <textPrint+0x1ed>
    22fc: 4c 7b 22     	jmp	$227b <vfprintf+0x136>
    22ff: a2 ff        	ldx	#$ff
    2301: 8a           	txa
    2302: a0 02        	ldy	#$2
    2304: 91 10        	sta	($10),y                 ; 0x2010 <textPrint+0x1d7>
    2306: 8a           	txa
    2307: aa           	tax
    2308: a0 02        	ldy	#$2
    230a: b1 10        	lda	($10),y                 ; 0x2010 <textPrint+0x1d7>
    230c: 85 20        	sta	$20                     ; 0x2020 <textPrint+0x1e7>
    230e: a0 00        	ldy	#$0
    2310: b1 10        	lda	($10),y                 ; 0x2010 <textPrint+0x1d7>
    2312: 85 29        	sta	$29                     ; 0x2029 <textPrint+0x1f0>
    2314: c8           	iny
    2315: b1 10        	lda	($10),y                 ; 0x2010 <textPrint+0x1d7>
    2317: 85 28        	sta	$28                     ; 0x2028 <textPrint+0x1ef>
    2319: 7a           	ply
    231a: 84 27        	sty	$27                     ; 0x2027 <textPrint+0x1ee>
    231c: 7a           	ply
    231d: 84 26        	sty	$26                     ; 0x2026 <textPrint+0x1ed>
    231f: 7a           	ply
    2320: 84 25        	sty	$25                     ; 0x2025 <textPrint+0x1ec>
    2322: 7a           	ply
    2323: 84 24        	sty	$24                     ; 0x2024 <textPrint+0x1eb>
    2325: 18           	clc
    2326: a5 10        	lda	$10                     ; 0x2010 <textPrint+0x1d7>
    2328: 69 18        	adc	#$18
    232a: 85 10        	sta	$10                     ; 0x2010 <textPrint+0x1d7>
    232c: a5 11        	lda	$11                     ; 0x2011 <textPrint+0x1d8>
    232e: 69 00        	adc	#$0
    2330: 85 11        	sta	$11                     ; 0x2011 <textPrint+0x1d8>
    2332: a5 20        	lda	$20                     ; 0x2020 <textPrint+0x1e7>
    2334: 60           	rts
    2335: a0 05        	ldy	#$5
    2337: 18           	clc
    2338: a5 10        	lda	$10                     ; 0x2010 <textPrint+0x1d7>
    233a: 69 03        	adc	#$3
    233c: 48           	pha
    233d: a5 11        	lda	$11                     ; 0x2011 <textPrint+0x1d8>
    233f: 69 00        	adc	#$0
    2341: aa           	tax
    2342: 68           	pla
    2343: 85 12        	sta	$12                     ; 0x2012 <textPrint+0x1d9>
    2345: 86 13        	stx	$13                     ; 0x2013 <textPrint+0x1da>
    2347: 18           	clc
    2348: 69 05        	adc	#$5
    234a: 85 14        	sta	$14                     ; 0x2014 <textPrint+0x1db>
    234c: 8a           	txa
    234d: 69 00        	adc	#$0
    234f: 85 15        	sta	$15                     ; 0x2015 <textPrint+0x1dc>
    2351: b1 12        	lda	($12),y                 ; 0x2012 <textPrint+0x1d9>
    2353: a0 02        	ldy	#$2
    2355: 91 10        	sta	($10),y                 ; 0x2010 <textPrint+0x1d7>
    2357: 88           	dey
    2358: b1 14        	lda	($14),y                 ; 0x2014 <textPrint+0x1db>
    235a: 4c 07 23     	jmp	$2307 <vfprintf+0x1c2>

0000235d <_ZN12_GLOBAL__N_15printEPKcP6Status>:
    235d: 18           	clc
    235e: a5 10        	lda	$10                     ; 0x2010 <textPrint+0x1d7>
    2360: 69 d1        	adc	#$d1
    2362: 85 10        	sta	$10                     ; 0x2010 <textPrint+0x1d7>
    2364: a5 11        	lda	$11                     ; 0x2011 <textPrint+0x1d8>
    2366: 69 ff        	adc	#$ff
    2368: 85 11        	sta	$11                     ; 0x2011 <textPrint+0x1d8>
    236a: a6 24        	ldx	$24                     ; 0x2024 <textPrint+0x1eb>
    236c: da           	phx
    236d: a6 25        	ldx	$25                     ; 0x2025 <textPrint+0x1ec>
    236f: da           	phx
    2370: a6 26        	ldx	$26                     ; 0x2026 <textPrint+0x1ed>
    2372: da           	phx
    2373: a6 27        	ldx	$27                     ; 0x2027 <textPrint+0x1ee>
    2375: da           	phx
    2376: a5 28        	lda	$28                     ; 0x2028 <textPrint+0x1ef>
    2378: a0 07        	ldy	#$7
    237a: 91 10        	sta	($10),y                 ; 0x2010 <textPrint+0x1d7>
    237c: a5 29        	lda	$29                     ; 0x2029 <textPrint+0x1f0>
    237e: 88           	dey
    237f: 91 10        	sta	($10),y                 ; 0x2010 <textPrint+0x1d7>
    2381: a5 2a        	lda	$2a                     ; 0x202a <textPrint+0x1f1>
    2383: 88           	dey
    2384: 91 10        	sta	($10),y                 ; 0x2010 <textPrint+0x1d7>
    2386: a5 2b        	lda	$2b                     ; 0x202b <textPrint+0x1f2>
    2388: 88           	dey
    2389: 91 10        	sta	($10),y                 ; 0x2010 <textPrint+0x1d7>
    238b: a5 2c        	lda	$2c                     ; 0x202c <textPrint+0x1f3>
    238d: 88           	dey
    238e: 91 10        	sta	($10),y                 ; 0x2010 <textPrint+0x1d7>
    2390: a5 2d        	lda	$2d                     ; 0x202d <textPrint+0x1f4>
    2392: 88           	dey
    2393: 91 10        	sta	($10),y                 ; 0x2010 <textPrint+0x1d7>
    2395: a5 2e        	lda	$2e                     ; 0x202e <textPrint+0x1f5>
    2397: 88           	dey
    2398: 91 10        	sta	($10),y                 ; 0x2010 <textPrint+0x1d7>
    239a: a5 2f        	lda	$2f                     ; 0x202f <textPrint+0x1f6>
    239c: 88           	dey
    239d: 91 10        	sta	($10),y                 ; 0x2010 <textPrint+0x1d7>
    239f: a6 12        	ldx	$12                     ; 0x2012 <textPrint+0x1d9>
    23a1: 86 28        	stx	$28                     ; 0x2028 <textPrint+0x1ef>
    23a3: a6 13        	ldx	$13                     ; 0x2013 <textPrint+0x1da>
    23a5: 86 29        	stx	$29                     ; 0x2029 <textPrint+0x1f0>
    23a7: a6 14        	ldx	$14                     ; 0x2014 <textPrint+0x1db>
    23a9: 86 24        	stx	$24                     ; 0x2024 <textPrint+0x1eb>
    23ab: a6 15        	ldx	$15                     ; 0x2015 <textPrint+0x1dc>
    23ad: 86 25        	stx	$25                     ; 0x2025 <textPrint+0x1ec>
    23af: e6 12        	inc	$12                     ; 0x2012 <textPrint+0x1d9>
    23b1: d0 02        	bne	$23b5 <_ZN12_GLOBAL__N_15printEPKcP6Status+0x58>
    23b3: e6 13        	inc	$13                     ; 0x2013 <textPrint+0x1da>
    23b5: a5 12        	lda	$12                     ; 0x2012 <textPrint+0x1d9>
    23b7: 18           	clc
    23b8: 48           	pha
    23b9: a5 10        	lda	$10                     ; 0x2010 <textPrint+0x1d7>
    23bb: 69 16        	adc	#$16
    23bd: 85 26        	sta	$26                     ; 0x2026 <textPrint+0x1ed>
    23bf: a5 11        	lda	$11                     ; 0x2011 <textPrint+0x1d8>
    23c1: 69 00        	adc	#$0
    23c3: 85 27        	sta	$27                     ; 0x2027 <textPrint+0x1ee>
    23c5: 68           	pla
    23c6: 92 26        	sta	($26)                   ; 0x2026 <textPrint+0x1ed>
    23c8: a0 01        	ldy	#$1
    23ca: a5 13        	lda	$13                     ; 0x2013 <textPrint+0x1da>
    23cc: 91 26        	sta	($26),y                 ; 0x2026 <textPrint+0x1ed>
    23ce: b1 28        	lda	($28),y                 ; 0x2028 <textPrint+0x1ef>
    23d0: c9 25        	cmp	#$25
    23d2: d0 1d        	bne	$23f1 <_ZN12_GLOBAL__N_15printEPKcP6Status+0x94>
    23d4: a9 25        	lda	#$25
    23d6: a6 14        	ldx	$14                     ; 0x2014 <textPrint+0x1db>
    23d8: 86 12        	stx	$12                     ; 0x2012 <textPrint+0x1d9>
    23da: a6 15        	ldx	$15                     ; 0x2015 <textPrint+0x1dc>
    23dc: 86 13        	stx	$13                     ; 0x2013 <textPrint+0x1da>
    23de: 20 a1 2e     	jsr	$2ea1 <_ZN12_GLOBAL__N_13putEcP6Status>
    23e1: a5 28        	lda	$28                     ; 0x2028 <textPrint+0x1ef>
    23e3: 18           	clc
    23e4: 69 02        	adc	#$2
    23e6: 85 28        	sta	$28                     ; 0x2028 <textPrint+0x1ef>
    23e8: a5 29        	lda	$29                     ; 0x2029 <textPrint+0x1f0>
    23ea: 69 00        	adc	#$0
    23ec: 85 29        	sta	$29                     ; 0x2029 <textPrint+0x1f0>
    23ee: 4c 56 2e     	jmp	$2e56 <_ZN12_GLOBAL__N_15printEPKcP6Status+0xaf9>
    23f1: 64 2a        	stz	$2a                     ; 0x202a <textPrint+0x1f1>
    23f3: 18           	clc
    23f4: a5 24        	lda	$24                     ; 0x2024 <textPrint+0x1eb>
    23f6: 69 0b        	adc	#$b
    23f8: 85 16        	sta	$16                     ; 0x2016 <textPrint+0x1dd>
    23fa: a5 25        	lda	$25                     ; 0x2025 <textPrint+0x1ec>
    23fc: 69 00        	adc	#$0
    23fe: 85 17        	sta	$17                     ; 0x2017 <textPrint+0x1de>
    2400: 18           	clc
    2401: a9 00        	lda	#$0
    2403: a0 0b        	ldy	#$b
    2405: 91 10        	sta	($10),y                 ; 0x2010 <textPrint+0x1d7>
    2407: a9 00        	lda	#$0
    2409: 91 24        	sta	($24),y                 ; 0x2024 <textPrint+0x1eb>
    240b: a5 24        	lda	$24                     ; 0x2024 <textPrint+0x1eb>
    240d: 69 0d        	adc	#$d
    240f: 85 18        	sta	$18                     ; 0x2018 <textPrint+0x1df>
    2411: a5 25        	lda	$25                     ; 0x2025 <textPrint+0x1ec>
    2413: 69 00        	adc	#$0
    2415: e6 14        	inc	$14                     ; 0x2014 <textPrint+0x1db>
    2417: d0 02        	bne	$241b <_ZN12_GLOBAL__N_15printEPKcP6Status+0xbe>
    2419: e6 15        	inc	$15                     ; 0x2015 <textPrint+0x1dc>
    241b: a0 0d        	ldy	#$d
    241d: 85 19        	sta	$19                     ; 0x2019 <textPrint+0x1e0>
    241f: a9 ff        	lda	#$ff
    2421: 91 24        	sta	($24),y                 ; 0x2024 <textPrint+0x1eb>
    2423: a0 01        	ldy	#$1
    2425: 1a           	inc
    2426: 91 24        	sta	($24),y                 ; 0x2024 <textPrint+0x1eb>
    2428: 91 14        	sta	($14),y                 ; 0x2014 <textPrint+0x1db>
    242a: 92 24        	sta	($24)                   ; 0x2024 <textPrint+0x1eb>
    242c: 91 16        	sta	($16),y                 ; 0x2016 <textPrint+0x1dd>
    242e: 3a           	dec
    242f: 91 18        	sta	($18),y                 ; 0x2018 <textPrint+0x1df>
    2431: 64 18        	stz	$18                     ; 0x2018 <textPrint+0x1df>
    2433: 80 35        	bra	$246a <_ZN12_GLOBAL__N_15printEPKcP6Status+0x10d>
    2435: a2 02        	ldx	#$2
    2437: 80 15        	bra	$244e <_ZN12_GLOBAL__N_15printEPKcP6Status+0xf1>
    2439: e0 20        	cpx	#$20
    243b: f0 0f        	beq	$244c <_ZN12_GLOBAL__N_15printEPKcP6Status+0xef>
    243d: e0 23        	cpx	#$23
    243f: f0 03        	beq	$2444 <_ZN12_GLOBAL__N_15printEPKcP6Status+0xe7>
    2441: 4c af 24     	jmp	$24af <_ZN12_GLOBAL__N_15printEPKcP6Status+0x152>
    2444: a2 04        	ldx	#$4
    2446: 80 06        	bra	$244e <_ZN12_GLOBAL__N_15printEPKcP6Status+0xf1>
    2448: a2 10        	ldx	#$10
    244a: 80 02        	bra	$244e <_ZN12_GLOBAL__N_15printEPKcP6Status+0xf1>
    244c: a2 08        	ldx	#$8
    244e: 86 16        	stx	$16                     ; 0x2016 <textPrint+0x1dd>
    2450: a5 18        	lda	$18                     ; 0x2018 <textPrint+0x1df>
    2452: 05 16        	ora	$16                     ; 0x2016 <textPrint+0x1dd>
    2454: 85 18        	sta	$18                     ; 0x2018 <textPrint+0x1df>
    2456: 91 24        	sta	($24),y                 ; 0x2024 <textPrint+0x1eb>
    2458: a9 00        	lda	#$0
    245a: 91 14        	sta	($14),y                 ; 0x2014 <textPrint+0x1db>
    245c: e6 12        	inc	$12                     ; 0x2012 <textPrint+0x1d9>
    245e: d0 02        	bne	$2462 <_ZN12_GLOBAL__N_15printEPKcP6Status+0x105>
    2460: e6 13        	inc	$13                     ; 0x2013 <textPrint+0x1da>
    2462: a5 12        	lda	$12                     ; 0x2012 <textPrint+0x1d9>
    2464: 92 26        	sta	($26)                   ; 0x2026 <textPrint+0x1ed>
    2466: a5 13        	lda	$13                     ; 0x2013 <textPrint+0x1da>
    2468: 91 26        	sta	($26),y                 ; 0x2026 <textPrint+0x1ed>
    246a: b2 12        	lda	($12)                   ; 0x2012 <textPrint+0x1d9>
    246c: 18           	clc
    246d: aa           	tax
    246e: 69 d6        	adc	#$d6
    2470: c9 07        	cmp	#$7
    2472: b0 c5        	bcs	$2439 <_ZN12_GLOBAL__N_15printEPKcP6Status+0xdc>
    2474: 0a           	asl
    2475: aa           	tax
    2476: a9 01        	lda	#$1
    2478: 85 16        	sta	$16                     ; 0x2016 <textPrint+0x1dd>
    247a: 7c f5 32     	jmp	($32f5,x)               ; 0x32f5 <__xac_size+0x6f5>
    247d: a0 11        	ldy	#$11
    247f: a5 24        	lda	$24                     ; 0x2024 <textPrint+0x1eb>
    2481: 18           	clc
    2482: 69 11        	adc	#$11
    2484: 85 14        	sta	$14                     ; 0x2014 <textPrint+0x1db>
    2486: a5 25        	lda	$25                     ; 0x2025 <textPrint+0x1ec>
    2488: 69 00        	adc	#$0
    248a: 85 15        	sta	$15                     ; 0x2015 <textPrint+0x1dc>
    248c: b1 24        	lda	($24),y                 ; 0x2024 <textPrint+0x1eb>
    248e: 85 16        	sta	$16                     ; 0x2016 <textPrint+0x1dd>
    2490: 18           	clc
    2491: 69 02        	adc	#$2
    2493: 91 24        	sta	($24),y                 ; 0x2024 <textPrint+0x1eb>
    2495: a0 01        	ldy	#$1
    2497: b1 14        	lda	($14),y                 ; 0x2014 <textPrint+0x1db>
    2499: 85 17        	sta	$17                     ; 0x2017 <textPrint+0x1de>
    249b: 69 00        	adc	#$0
    249d: 91 14        	sta	($14),y                 ; 0x2014 <textPrint+0x1db>
    249f: b2 16        	lda	($16)                   ; 0x2016 <textPrint+0x1dd>
    24a1: 85 15        	sta	$15                     ; 0x2015 <textPrint+0x1dc>
    24a3: b1 16        	lda	($16),y                 ; 0x2016 <textPrint+0x1dd>
    24a5: 85 14        	sta	$14                     ; 0x2014 <textPrint+0x1db>
    24a7: 30 31        	bmi	$24da <_ZN12_GLOBAL__N_15printEPKcP6Status+0x17d>
    24a9: a5 15        	lda	$15                     ; 0x2015 <textPrint+0x1dc>
    24ab: a6 14        	ldx	$14                     ; 0x2014 <textPrint+0x1db>
    24ad: 80 4d        	bra	$24fc <_ZN12_GLOBAL__N_15printEPKcP6Status+0x19f>
    24af: a6 26        	ldx	$26                     ; 0x2026 <textPrint+0x1ed>
    24b1: 86 14        	stx	$14                     ; 0x2014 <textPrint+0x1db>
    24b3: a6 27        	ldx	$27                     ; 0x2027 <textPrint+0x1ee>
    24b5: 86 15        	stx	$15                     ; 0x2015 <textPrint+0x1dc>
    24b7: 20 db 31     	jsr	$31db <__simple_strtoui>
    24ba: a0 0b        	ldy	#$b
    24bc: 91 24        	sta	($24),y                 ; 0x2024 <textPrint+0x1eb>
    24be: 18           	clc
    24bf: a5 24        	lda	$24                     ; 0x2024 <textPrint+0x1eb>
    24c1: 69 0b        	adc	#$b
    24c3: 85 12        	sta	$12                     ; 0x2012 <textPrint+0x1d9>
    24c5: a5 25        	lda	$25                     ; 0x2025 <textPrint+0x1ec>
    24c7: 69 00        	adc	#$0
    24c9: 85 13        	sta	$13                     ; 0x2013 <textPrint+0x1da>
    24cb: a0 01        	ldy	#$1
    24cd: 8a           	txa
    24ce: 91 12        	sta	($12),y                 ; 0x2012 <textPrint+0x1d9>
    24d0: b2 26        	lda	($26)                   ; 0x2026 <textPrint+0x1ed>
    24d2: 85 12        	sta	$12                     ; 0x2012 <textPrint+0x1d9>
    24d4: b1 26        	lda	($26),y                 ; 0x2026 <textPrint+0x1ed>
    24d6: 85 13        	sta	$13                     ; 0x2013 <textPrint+0x1da>
    24d8: 80 46        	bra	$2520 <_ZN12_GLOBAL__N_15printEPKcP6Status+0x1c3>
    24da: a5 18        	lda	$18                     ; 0x2018 <textPrint+0x1df>
    24dc: 09 01        	ora	#$1
    24de: a6 24        	ldx	$24                     ; 0x2024 <textPrint+0x1eb>
    24e0: 86 16        	stx	$16                     ; 0x2016 <textPrint+0x1dd>
    24e2: a6 25        	ldx	$25                     ; 0x2025 <textPrint+0x1ec>
    24e4: 86 17        	stx	$17                     ; 0x2017 <textPrint+0x1de>
    24e6: e6 16        	inc	$16                     ; 0x2016 <textPrint+0x1dd>
    24e8: d0 02        	bne	$24ec <_ZN12_GLOBAL__N_15printEPKcP6Status+0x18f>
    24ea: e6 17        	inc	$17                     ; 0x2017 <textPrint+0x1de>
    24ec: 91 24        	sta	($24),y                 ; 0x2024 <textPrint+0x1eb>
    24ee: a9 00        	lda	#$0
    24f0: 91 16        	sta	($16),y                 ; 0x2016 <textPrint+0x1dd>
    24f2: 38           	sec
    24f3: e5 15        	sbc	$15                     ; 0x2015 <textPrint+0x1dc>
    24f5: a8           	tay
    24f6: a9 00        	lda	#$0
    24f8: e5 14        	sbc	$14                     ; 0x2014 <textPrint+0x1db>
    24fa: aa           	tax
    24fb: 98           	tya
    24fc: a0 0b        	ldy	#$b
    24fe: 91 24        	sta	($24),y                 ; 0x2024 <textPrint+0x1eb>
    2500: 18           	clc
    2501: a5 24        	lda	$24                     ; 0x2024 <textPrint+0x1eb>
    2503: 69 0b        	adc	#$b
    2505: 85 14        	sta	$14                     ; 0x2014 <textPrint+0x1db>
    2507: a5 25        	lda	$25                     ; 0x2025 <textPrint+0x1ec>
    2509: 69 00        	adc	#$0
    250b: 85 15        	sta	$15                     ; 0x2015 <textPrint+0x1dc>
    250d: 8a           	txa
    250e: a0 01        	ldy	#$1
    2510: 91 14        	sta	($14),y                 ; 0x2014 <textPrint+0x1db>
    2512: e6 12        	inc	$12                     ; 0x2012 <textPrint+0x1d9>
    2514: d0 02        	bne	$2518 <_ZN12_GLOBAL__N_15printEPKcP6Status+0x1bb>
    2516: e6 13        	inc	$13                     ; 0x2013 <textPrint+0x1da>
    2518: a5 13        	lda	$13                     ; 0x2013 <textPrint+0x1da>
    251a: 91 26        	sta	($26),y                 ; 0x2026 <textPrint+0x1ed>
    251c: a5 12        	lda	$12                     ; 0x2012 <textPrint+0x1d9>
    251e: 92 26        	sta	($26)                   ; 0x2026 <textPrint+0x1ed>
    2520: b2 12        	lda	($12)                   ; 0x2012 <textPrint+0x1d9>
    2522: c9 2e        	cmp	#$2e
    2524: f0 03        	beq	$2529 <_ZN12_GLOBAL__N_15printEPKcP6Status+0x1cc>
    2526: 4c 3e 26     	jmp	$263e <_ZN12_GLOBAL__N_15printEPKcP6Status+0x2e1>
    2529: a6 12        	ldx	$12                     ; 0x2012 <textPrint+0x1d9>
    252b: 86 14        	stx	$14                     ; 0x2014 <textPrint+0x1db>
    252d: a6 13        	ldx	$13                     ; 0x2013 <textPrint+0x1da>
    252f: 86 15        	stx	$15                     ; 0x2015 <textPrint+0x1dc>
    2531: e6 14        	inc	$14                     ; 0x2014 <textPrint+0x1db>
    2533: d0 02        	bne	$2537 <_ZN12_GLOBAL__N_15printEPKcP6Status+0x1da>
    2535: e6 15        	inc	$15                     ; 0x2015 <textPrint+0x1dc>
    2537: a5 14        	lda	$14                     ; 0x2014 <textPrint+0x1db>
    2539: 92 26        	sta	($26)                   ; 0x2026 <textPrint+0x1ed>
    253b: a5 15        	lda	$15                     ; 0x2015 <textPrint+0x1dc>
    253d: 91 26        	sta	($26),y                 ; 0x2026 <textPrint+0x1ed>
    253f: b1 12        	lda	($12),y                 ; 0x2012 <textPrint+0x1d9>
    2541: c9 2a        	cmp	#$2a
    2543: f0 03        	beq	$2548 <_ZN12_GLOBAL__N_15printEPKcP6Status+0x1eb>
    2545: 4c b3 25     	jmp	$25b3 <_ZN12_GLOBAL__N_15printEPKcP6Status+0x256>
    2548: a4 24        	ldy	$24                     ; 0x2024 <textPrint+0x1eb>
    254a: a5 24        	lda	$24                     ; 0x2024 <textPrint+0x1eb>
    254c: 84 18        	sty	$18                     ; 0x2018 <textPrint+0x1df>
    254e: 18           	clc
    254f: 69 11        	adc	#$11
    2551: 85 14        	sta	$14                     ; 0x2014 <textPrint+0x1db>
    2553: a5 25        	lda	$25                     ; 0x2025 <textPrint+0x1ec>
    2555: 69 00        	adc	#$0
    2557: a0 11        	ldy	#$11
    2559: 85 15        	sta	$15                     ; 0x2015 <textPrint+0x1dc>
    255b: b1 24        	lda	($24),y                 ; 0x2024 <textPrint+0x1eb>
    255d: 85 16        	sta	$16                     ; 0x2016 <textPrint+0x1dd>
    255f: a0 01        	ldy	#$1
    2561: b1 14        	lda	($14),y                 ; 0x2014 <textPrint+0x1db>
    2563: 85 19        	sta	$19                     ; 0x2019 <textPrint+0x1e0>
    2565: a5 16        	lda	$16                     ; 0x2016 <textPrint+0x1dd>
    2567: a6 19        	ldx	$19                     ; 0x2019 <textPrint+0x1e0>
    2569: 86 17        	stx	$17                     ; 0x2017 <textPrint+0x1de>
    256b: 18           	clc
    256c: 69 02        	adc	#$2
    256e: 85 1a        	sta	$1a                     ; 0x201a <textPrint+0x1e1>
    2570: a5 19        	lda	$19                     ; 0x2019 <textPrint+0x1e0>
    2572: 69 00        	adc	#$0
    2574: 85 19        	sta	$19                     ; 0x2019 <textPrint+0x1e0>
    2576: a0 11        	ldy	#$11
    2578: a5 1a        	lda	$1a                     ; 0x201a <textPrint+0x1e1>
    257a: 91 24        	sta	($24),y                 ; 0x2024 <textPrint+0x1eb>
    257c: a5 19        	lda	$19                     ; 0x2019 <textPrint+0x1e0>
    257e: a0 01        	ldy	#$1
    2580: 91 14        	sta	($14),y                 ; 0x2014 <textPrint+0x1db>
    2582: b2 16        	lda	($16)                   ; 0x2016 <textPrint+0x1dd>
    2584: 85 14        	sta	$14                     ; 0x2014 <textPrint+0x1db>
    2586: b1 16        	lda	($16),y                 ; 0x2016 <textPrint+0x1dd>
    2588: 85 16        	sta	$16                     ; 0x2016 <textPrint+0x1dd>
    258a: a0 0d        	ldy	#$d
    258c: a5 14        	lda	$14                     ; 0x2014 <textPrint+0x1db>
    258e: 91 24        	sta	($24),y                 ; 0x2024 <textPrint+0x1eb>
    2590: 18           	clc
    2591: a5 18        	lda	$18                     ; 0x2018 <textPrint+0x1df>
    2593: 69 0d        	adc	#$d
    2595: 85 14        	sta	$14                     ; 0x2014 <textPrint+0x1db>
    2597: a5 25        	lda	$25                     ; 0x2025 <textPrint+0x1ec>
    2599: 69 00        	adc	#$0
    259b: 18           	clc
    259c: 85 15        	sta	$15                     ; 0x2015 <textPrint+0x1dc>
    259e: a5 16        	lda	$16                     ; 0x2016 <textPrint+0x1dd>
    25a0: a0 01        	ldy	#$1
    25a2: 91 14        	sta	($14),y                 ; 0x2014 <textPrint+0x1db>
    25a4: a5 12        	lda	$12                     ; 0x2012 <textPrint+0x1d9>
    25a6: 69 02        	adc	#$2
    25a8: 85 12        	sta	$12                     ; 0x2012 <textPrint+0x1d9>
    25aa: a5 13        	lda	$13                     ; 0x2013 <textPrint+0x1da>
    25ac: 69 00        	adc	#$0
    25ae: 85 13        	sta	$13                     ; 0x2013 <textPrint+0x1da>
    25b0: 4c 22 26     	jmp	$2622 <_ZN12_GLOBAL__N_15printEPKcP6Status+0x2c5>
    25b3: a6 28        	ldx	$28                     ; 0x2028 <textPrint+0x1ef>
    25b5: 86 2c        	stx	$2c                     ; 0x202c <textPrint+0x1f3>
    25b7: a6 29        	ldx	$29                     ; 0x2029 <textPrint+0x1f0>
    25b9: 86 2d        	stx	$2d                     ; 0x202d <textPrint+0x1f4>
    25bb: a6 14        	ldx	$14                     ; 0x2014 <textPrint+0x1db>
    25bd: 86 12        	stx	$12                     ; 0x2012 <textPrint+0x1d9>
    25bf: a6 15        	ldx	$15                     ; 0x2015 <textPrint+0x1dc>
    25c1: 86 13        	stx	$13                     ; 0x2013 <textPrint+0x1da>
    25c3: 18           	clc
    25c4: a5 10        	lda	$10                     ; 0x2010 <textPrint+0x1d7>
    25c6: 69 18        	adc	#$18
    25c8: 85 28        	sta	$28                     ; 0x2028 <textPrint+0x1ef>
    25ca: a5 11        	lda	$11                     ; 0x2011 <textPrint+0x1d8>
    25cc: 69 00        	adc	#$0
    25ce: 85 29        	sta	$29                     ; 0x2029 <textPrint+0x1f0>
    25d0: a6 28        	ldx	$28                     ; 0x2028 <textPrint+0x1ef>
    25d2: 86 14        	stx	$14                     ; 0x2014 <textPrint+0x1db>
    25d4: 85 15        	sta	$15                     ; 0x2015 <textPrint+0x1dc>
    25d6: 20 db 31     	jsr	$31db <__simple_strtoui>
    25d9: a0 0d        	ldy	#$d
    25db: 91 24        	sta	($24),y                 ; 0x2024 <textPrint+0x1eb>
    25dd: 18           	clc
    25de: a5 24        	lda	$24                     ; 0x2024 <textPrint+0x1eb>
    25e0: 69 0d        	adc	#$d
    25e2: 85 12        	sta	$12                     ; 0x2012 <textPrint+0x1d9>
    25e4: a5 25        	lda	$25                     ; 0x2025 <textPrint+0x1ec>
    25e6: 69 00        	adc	#$0
    25e8: 85 13        	sta	$13                     ; 0x2013 <textPrint+0x1da>
    25ea: a0 01        	ldy	#$1
    25ec: 8a           	txa
    25ed: 91 12        	sta	($12),y                 ; 0x2012 <textPrint+0x1d9>
    25ef: b2 28        	lda	($28)                   ; 0x2028 <textPrint+0x1ef>
    25f1: 85 12        	sta	$12                     ; 0x2012 <textPrint+0x1d9>
    25f3: b1 28        	lda	($28),y                 ; 0x2028 <textPrint+0x1ef>
    25f5: 85 13        	sta	$13                     ; 0x2013 <textPrint+0x1da>
    25f7: b1 26        	lda	($26),y                 ; 0x2026 <textPrint+0x1ed>
    25f9: c5 13        	cmp	$13                     ; 0x2013 <textPrint+0x1da>
    25fb: d0 1d        	bne	$261a <_ZN12_GLOBAL__N_15printEPKcP6Status+0x2bd>
    25fd: b2 26        	lda	($26)                   ; 0x2026 <textPrint+0x1ed>
    25ff: c5 12        	cmp	$12                     ; 0x2012 <textPrint+0x1d9>
    2601: d0 17        	bne	$261a <_ZN12_GLOBAL__N_15printEPKcP6Status+0x2bd>
    2603: a0 0d        	ldy	#$d
    2605: a5 24        	lda	$24                     ; 0x2024 <textPrint+0x1eb>
    2607: 18           	clc
    2608: 69 0d        	adc	#$d
    260a: 85 14        	sta	$14                     ; 0x2014 <textPrint+0x1db>
    260c: a5 25        	lda	$25                     ; 0x2025 <textPrint+0x1ec>
    260e: 69 00        	adc	#$0
    2610: 85 15        	sta	$15                     ; 0x2015 <textPrint+0x1dc>
    2612: a9 00        	lda	#$0
    2614: 91 24        	sta	($24),y                 ; 0x2024 <textPrint+0x1eb>
    2616: a0 01        	ldy	#$1
    2618: 91 14        	sta	($14),y                 ; 0x2014 <textPrint+0x1db>
    261a: a6 2c        	ldx	$2c                     ; 0x202c <textPrint+0x1f3>
    261c: 86 28        	stx	$28                     ; 0x2028 <textPrint+0x1ef>
    261e: a6 2d        	ldx	$2d                     ; 0x202d <textPrint+0x1f4>
    2620: 86 29        	stx	$29                     ; 0x2029 <textPrint+0x1f0>
    2622: a6 24        	ldx	$24                     ; 0x2024 <textPrint+0x1eb>
    2624: 86 14        	stx	$14                     ; 0x2014 <textPrint+0x1db>
    2626: a6 25        	ldx	$25                     ; 0x2025 <textPrint+0x1ec>
    2628: 86 15        	stx	$15                     ; 0x2015 <textPrint+0x1dc>
    262a: e6 14        	inc	$14                     ; 0x2014 <textPrint+0x1db>
    262c: d0 02        	bne	$2630 <_ZN12_GLOBAL__N_15printEPKcP6Status+0x2d3>
    262e: e6 15        	inc	$15                     ; 0x2015 <textPrint+0x1dc>
    2630: b1 14        	lda	($14),y                 ; 0x2014 <textPrint+0x1db>
    2632: 85 16        	sta	$16                     ; 0x2016 <textPrint+0x1dd>
    2634: a9 ef        	lda	#$ef
    2636: 31 24        	and	($24),y                 ; 0x2024 <textPrint+0x1eb>
    2638: 91 24        	sta	($24),y                 ; 0x2024 <textPrint+0x1eb>
    263a: a5 16        	lda	$16                     ; 0x2016 <textPrint+0x1dd>
    263c: 91 14        	sta	($14),y                 ; 0x2014 <textPrint+0x1db>
    263e: a6 12        	ldx	$12                     ; 0x2012 <textPrint+0x1d9>
    2640: 86 14        	stx	$14                     ; 0x2014 <textPrint+0x1db>
    2642: a6 13        	ldx	$13                     ; 0x2013 <textPrint+0x1da>
    2644: 86 15        	stx	$15                     ; 0x2015 <textPrint+0x1dc>
    2646: e6 14        	inc	$14                     ; 0x2014 <textPrint+0x1db>
    2648: d0 02        	bne	$264c <_ZN12_GLOBAL__N_15printEPKcP6Status+0x2ef>
    264a: e6 15        	inc	$15                     ; 0x2015 <textPrint+0x1dc>
    264c: a5 14        	lda	$14                     ; 0x2014 <textPrint+0x1db>
    264e: 92 26        	sta	($26)                   ; 0x2026 <textPrint+0x1ed>
    2650: a5 15        	lda	$15                     ; 0x2015 <textPrint+0x1dc>
    2652: 91 26        	sta	($26),y                 ; 0x2026 <textPrint+0x1ed>
    2654: b2 12        	lda	($12)                   ; 0x2012 <textPrint+0x1d9>
    2656: 38           	sec
    2657: aa           	tax
    2658: e9 6c        	sbc	#$6c
    265a: 50 02        	bvc	$265e <_ZN12_GLOBAL__N_15printEPKcP6Status+0x301>
    265c: 49 80        	eor	#$80
    265e: c9 00        	cmp	#$0
    2660: 10 16        	bpl	$2678 <_ZN12_GLOBAL__N_15printEPKcP6Status+0x31b>
    2662: e0 4c        	cpx	#$4c
    2664: f0 3c        	beq	$26a2 <_ZN12_GLOBAL__N_15printEPKcP6Status+0x345>
    2666: 8a           	txa
    2667: e0 68        	cpx	#$68
    2669: d0 03        	bne	$266e <_ZN12_GLOBAL__N_15printEPKcP6Status+0x311>
    266b: 4c 1e 27     	jmp	$271e <_ZN12_GLOBAL__N_15printEPKcP6Status+0x3c1>
    266e: a2 08        	ldx	#$8
    2670: a0 08        	ldy	#$8
    2672: c9 6a        	cmp	#$6a
    2674: d0 14        	bne	$268a <_ZN12_GLOBAL__N_15printEPKcP6Status+0x32d>
    2676: 80 4a        	bra	$26c2 <_ZN12_GLOBAL__N_15printEPKcP6Status+0x365>
    2678: e0 6c        	cpx	#$6c
    267a: d0 03        	bne	$267f <_ZN12_GLOBAL__N_15printEPKcP6Status+0x322>
    267c: 4c e9 26     	jmp	$26e9 <_ZN12_GLOBAL__N_15printEPKcP6Status+0x38c>
    267f: 8a           	txa
    2680: e0 74        	cpx	#$74
    2682: f0 3a        	beq	$26be <_ZN12_GLOBAL__N_15printEPKcP6Status+0x361>
    2684: a2 02        	ldx	#$2
    2686: c9 7a        	cmp	#$7a
    2688: f0 14        	beq	$269e <_ZN12_GLOBAL__N_15printEPKcP6Status+0x341>
    268a: a5 12        	lda	$12                     ; 0x2012 <textPrint+0x1d9>
    268c: 92 26        	sta	($26)                   ; 0x2026 <textPrint+0x1ed>
    268e: a0 01        	ldy	#$1
    2690: a5 13        	lda	$13                     ; 0x2013 <textPrint+0x1da>
    2692: 91 26        	sta	($26),y                 ; 0x2026 <textPrint+0x1ed>
    2694: a6 12        	ldx	$12                     ; 0x2012 <textPrint+0x1d9>
    2696: 86 14        	stx	$14                     ; 0x2014 <textPrint+0x1db>
    2698: a6 13        	ldx	$13                     ; 0x2013 <textPrint+0x1da>
    269a: 86 15        	stx	$15                     ; 0x2015 <textPrint+0x1dc>
    269c: a2 02        	ldx	#$2
    269e: a0 02        	ldy	#$2
    26a0: 80 20        	bra	$26c2 <_ZN12_GLOBAL__N_15printEPKcP6Status+0x365>
    26a2: a6 24        	ldx	$24                     ; 0x2024 <textPrint+0x1eb>
    26a4: 86 12        	stx	$12                     ; 0x2012 <textPrint+0x1d9>
    26a6: a6 25        	ldx	$25                     ; 0x2025 <textPrint+0x1ec>
    26a8: 86 13        	stx	$13                     ; 0x2013 <textPrint+0x1da>
    26aa: e6 12        	inc	$12                     ; 0x2012 <textPrint+0x1d9>
    26ac: d0 02        	bne	$26b0 <_ZN12_GLOBAL__N_15printEPKcP6Status+0x353>
    26ae: e6 13        	inc	$13                     ; 0x2013 <textPrint+0x1da>
    26b0: b1 12        	lda	($12),y                 ; 0x2012 <textPrint+0x1d9>
    26b2: 85 16        	sta	$16                     ; 0x2016 <textPrint+0x1dd>
    26b4: a9 40        	lda	#$40
    26b6: 11 24        	ora	($24),y                 ; 0x2024 <textPrint+0x1eb>
    26b8: 91 24        	sta	($24),y                 ; 0x2024 <textPrint+0x1eb>
    26ba: a5 16        	lda	$16                     ; 0x2016 <textPrint+0x1dd>
    26bc: 91 12        	sta	($12),y                 ; 0x2012 <textPrint+0x1d9>
    26be: a0 02        	ldy	#$2
    26c0: a2 02        	ldx	#$2
    26c2: b2 14        	lda	($14)                   ; 0x2014 <textPrint+0x1db>
    26c4: 85 16        	sta	$16                     ; 0x2016 <textPrint+0x1dd>
    26c6: 86 2b        	stx	$2b                     ; 0x202b <textPrint+0x1f2>
    26c8: 98           	tya
    26c9: a0 0c        	ldy	#$c
    26cb: 91 10        	sta	($10),y                 ; 0x2010 <textPrint+0x1d7>
    26cd: 18           	clc
    26ce: a5 16        	lda	$16                     ; 0x2016 <textPrint+0x1dd>
    26d0: 69 9d        	adc	#$9d
    26d2: c9 16        	cmp	#$16
    26d4: 90 03        	bcc	$26d9 <_ZN12_GLOBAL__N_15printEPKcP6Status+0x37c>
    26d6: 4c 52 27     	jmp	$2752 <_ZN12_GLOBAL__N_15printEPKcP6Status+0x3f5>
    26d9: aa           	tax
    26da: b1 10        	lda	($10),y                 ; 0x2010 <textPrint+0x1d7>
    26dc: 8a           	txa
    26dd: 0a           	asl
    26de: aa           	tax
    26df: 7c 03 33     	jmp	($3303,x)               ; 0x3303 <__xac_size+0x703>
    26e2: a9 0a        	lda	#$a
    26e4: 92 24        	sta	($24)                   ; 0x2024 <textPrint+0x1eb>
    26e6: 4c bb 28     	jmp	$28bb <_ZN12_GLOBAL__N_15printEPKcP6Status+0x55e>
    26e9: b1 12        	lda	($12),y                 ; 0x2012 <textPrint+0x1d9>
    26eb: a2 04        	ldx	#$4
    26ed: a0 04        	ldy	#$4
    26ef: 48           	pha
    26f0: 98           	tya
    26f1: a0 0c        	ldy	#$c
    26f3: 91 10        	sta	($10),y                 ; 0x2010 <textPrint+0x1d7>
    26f5: 68           	pla
    26f6: 86 2b        	stx	$2b                     ; 0x202b <textPrint+0x1f2>
    26f8: 85 16        	sta	$16                     ; 0x2016 <textPrint+0x1dd>
    26fa: c9 6c        	cmp	#$6c
    26fc: d0 cf        	bne	$26cd <_ZN12_GLOBAL__N_15printEPKcP6Status+0x370>
    26fe: a5 12        	lda	$12                     ; 0x2012 <textPrint+0x1d9>
    2700: 18           	clc
    2701: 69 02        	adc	#$2
    2703: aa           	tax
    2704: a5 13        	lda	$13                     ; 0x2013 <textPrint+0x1da>
    2706: 69 00        	adc	#$0
    2708: 86 14        	stx	$14                     ; 0x2014 <textPrint+0x1db>
    270a: 85 15        	sta	$15                     ; 0x2015 <textPrint+0x1dc>
    270c: 85 12        	sta	$12                     ; 0x2012 <textPrint+0x1d9>
    270e: 8a           	txa
    270f: 92 26        	sta	($26)                   ; 0x2026 <textPrint+0x1ed>
    2711: a0 01        	ldy	#$1
    2713: a5 12        	lda	$12                     ; 0x2012 <textPrint+0x1d9>
    2715: 91 26        	sta	($26),y                 ; 0x2026 <textPrint+0x1ed>
    2717: a2 08        	ldx	#$8
    2719: a0 08        	ldy	#$8
    271b: 4c c2 26     	jmp	$26c2 <_ZN12_GLOBAL__N_15printEPKcP6Status+0x365>
    271e: b1 12        	lda	($12),y                 ; 0x2012 <textPrint+0x1d9>
    2720: a2 02        	ldx	#$2
    2722: a0 02        	ldy	#$2
    2724: 48           	pha
    2725: 98           	tya
    2726: a0 0c        	ldy	#$c
    2728: 91 10        	sta	($10),y                 ; 0x2010 <textPrint+0x1d7>
    272a: 68           	pla
    272b: 86 2b        	stx	$2b                     ; 0x202b <textPrint+0x1f2>
    272d: 85 16        	sta	$16                     ; 0x2016 <textPrint+0x1dd>
    272f: c9 68        	cmp	#$68
    2731: f0 03        	beq	$2736 <_ZN12_GLOBAL__N_15printEPKcP6Status+0x3d9>
    2733: 4c cd 26     	jmp	$26cd <_ZN12_GLOBAL__N_15printEPKcP6Status+0x370>
    2736: a5 12        	lda	$12                     ; 0x2012 <textPrint+0x1d9>
    2738: 18           	clc
    2739: 69 02        	adc	#$2
    273b: aa           	tax
    273c: a5 13        	lda	$13                     ; 0x2013 <textPrint+0x1da>
    273e: 69 00        	adc	#$0
    2740: 86 14        	stx	$14                     ; 0x2014 <textPrint+0x1db>
    2742: 85 15        	sta	$15                     ; 0x2015 <textPrint+0x1dc>
    2744: 85 12        	sta	$12                     ; 0x2012 <textPrint+0x1d9>
    2746: 8a           	txa
    2747: 92 26        	sta	($26)                   ; 0x2026 <textPrint+0x1ed>
    2749: a0 01        	ldy	#$1
    274b: a5 12        	lda	$12                     ; 0x2012 <textPrint+0x1d9>
    274d: 91 26        	sta	($26),y                 ; 0x2026 <textPrint+0x1ed>
    274f: 4c c0 26     	jmp	$26c0 <_ZN12_GLOBAL__N_15printEPKcP6Status+0x363>
    2752: a6 16        	ldx	$16                     ; 0x2016 <textPrint+0x1dd>
    2754: e0 58        	cpx	#$58
    2756: f0 03        	beq	$275b <_ZN12_GLOBAL__N_15printEPKcP6Status+0x3fe>
    2758: 4c 56 2e     	jmp	$2e56 <_ZN12_GLOBAL__N_15printEPKcP6Status+0xaf9>
    275b: a9 10        	lda	#$10
    275d: 4c 9a 28     	jmp	$289a <_ZN12_GLOBAL__N_15printEPKcP6Status+0x53d>
    2760: a9 10        	lda	#$10
    2762: 92 24        	sta	($24)                   ; 0x2024 <textPrint+0x1eb>
    2764: a6 24        	ldx	$24                     ; 0x2024 <textPrint+0x1eb>
    2766: 86 12        	stx	$12                     ; 0x2012 <textPrint+0x1d9>
    2768: a6 25        	ldx	$25                     ; 0x2025 <textPrint+0x1ec>
    276a: 86 13        	stx	$13                     ; 0x2013 <textPrint+0x1da>
    276c: e6 12        	inc	$12                     ; 0x2012 <textPrint+0x1d9>
    276e: d0 02        	bne	$2772 <_ZN12_GLOBAL__N_15printEPKcP6Status+0x415>
    2770: e6 13        	inc	$13                     ; 0x2013 <textPrint+0x1da>
    2772: a0 01        	ldy	#$1
    2774: a9 84        	lda	#$84
    2776: 80 16        	bra	$278e <_ZN12_GLOBAL__N_15printEPKcP6Status+0x431>
    2778: a9 10        	lda	#$10
    277a: 92 24        	sta	($24)                   ; 0x2024 <textPrint+0x1eb>
    277c: a6 24        	ldx	$24                     ; 0x2024 <textPrint+0x1eb>
    277e: 86 12        	stx	$12                     ; 0x2012 <textPrint+0x1d9>
    2780: a6 25        	ldx	$25                     ; 0x2025 <textPrint+0x1ec>
    2782: 86 13        	stx	$13                     ; 0x2013 <textPrint+0x1da>
    2784: e6 12        	inc	$12                     ; 0x2012 <textPrint+0x1d9>
    2786: d0 02        	bne	$278a <_ZN12_GLOBAL__N_15printEPKcP6Status+0x42d>
    2788: e6 13        	inc	$13                     ; 0x2013 <textPrint+0x1da>
    278a: a0 01        	ldy	#$1
    278c: a9 80        	lda	#$80
    278e: 11 24        	ora	($24),y                 ; 0x2024 <textPrint+0x1eb>
    2790: aa           	tax
    2791: a9 01        	lda	#$1
    2793: 11 12        	ora	($12),y                 ; 0x2012 <textPrint+0x1d9>
    2795: 85 14        	sta	$14                     ; 0x2014 <textPrint+0x1db>
    2797: 8a           	txa
    2798: 91 24        	sta	($24),y                 ; 0x2024 <textPrint+0x1eb>
    279a: a5 14        	lda	$14                     ; 0x2014 <textPrint+0x1db>
    279c: 4c b9 28     	jmp	$28b9 <_ZN12_GLOBAL__N_15printEPKcP6Status+0x55c>
    279f: a4 24        	ldy	$24                     ; 0x2024 <textPrint+0x1eb>
    27a1: 18           	clc
    27a2: a5 24        	lda	$24                     ; 0x2024 <textPrint+0x1eb>
    27a4: 84 18        	sty	$18                     ; 0x2018 <textPrint+0x1df>
    27a6: 69 11        	adc	#$11
    27a8: 85 12        	sta	$12                     ; 0x2012 <textPrint+0x1d9>
    27aa: a5 25        	lda	$25                     ; 0x2025 <textPrint+0x1ec>
    27ac: 69 00        	adc	#$0
    27ae: 85 13        	sta	$13                     ; 0x2013 <textPrint+0x1da>
    27b0: a0 11        	ldy	#$11
    27b2: b1 24        	lda	($24),y                 ; 0x2024 <textPrint+0x1eb>
    27b4: 85 16        	sta	$16                     ; 0x2016 <textPrint+0x1dd>
    27b6: 18           	clc
    27b7: 69 02        	adc	#$2
    27b9: 91 24        	sta	($24),y                 ; 0x2024 <textPrint+0x1eb>
    27bb: a0 01        	ldy	#$1
    27bd: b1 12        	lda	($12),y                 ; 0x2012 <textPrint+0x1d9>
    27bf: 85 17        	sta	$17                     ; 0x2017 <textPrint+0x1de>
    27c1: 69 00        	adc	#$0
    27c3: 18           	clc
    27c4: 91 12        	sta	($12),y                 ; 0x2012 <textPrint+0x1d9>
    27c6: b2 16        	lda	($16)                   ; 0x2016 <textPrint+0x1dd>
    27c8: 85 12        	sta	$12                     ; 0x2012 <textPrint+0x1d9>
    27ca: b1 16        	lda	($16),y                 ; 0x2016 <textPrint+0x1dd>
    27cc: 85 13        	sta	$13                     ; 0x2013 <textPrint+0x1da>
    27ce: a5 18        	lda	$18                     ; 0x2018 <textPrint+0x1df>
    27d0: 69 05        	adc	#$5
    27d2: 85 16        	sta	$16                     ; 0x2016 <textPrint+0x1dd>
    27d4: a5 25        	lda	$25                     ; 0x2025 <textPrint+0x1ec>
    27d6: 69 00        	adc	#$0
    27d8: 85 17        	sta	$17                     ; 0x2017 <textPrint+0x1de>
    27da: a0 05        	ldy	#$5
    27dc: b1 24        	lda	($24),y                 ; 0x2024 <textPrint+0x1eb>
    27de: 85 18        	sta	$18                     ; 0x2018 <textPrint+0x1df>
    27e0: a0 01        	ldy	#$1
    27e2: b1 16        	lda	($16),y                 ; 0x2016 <textPrint+0x1dd>
    27e4: 85 16        	sta	$16                     ; 0x2016 <textPrint+0x1dd>
    27e6: a5 18        	lda	$18                     ; 0x2018 <textPrint+0x1df>
    27e8: 92 12        	sta	($12)                   ; 0x2012 <textPrint+0x1d9>
    27ea: a5 16        	lda	$16                     ; 0x2016 <textPrint+0x1dd>
    27ec: 91 12        	sta	($12),y                 ; 0x2012 <textPrint+0x1d9>
    27ee: e6 14        	inc	$14                     ; 0x2014 <textPrint+0x1db>
    27f0: d0 02        	bne	$27f4 <_ZN12_GLOBAL__N_15printEPKcP6Status+0x497>
    27f2: e6 15        	inc	$15                     ; 0x2015 <textPrint+0x1dc>
    27f4: a6 14        	ldx	$14                     ; 0x2014 <textPrint+0x1db>
    27f6: 86 28        	stx	$28                     ; 0x2028 <textPrint+0x1ef>
    27f8: a6 15        	ldx	$15                     ; 0x2015 <textPrint+0x1dc>
    27fa: 86 29        	stx	$29                     ; 0x2029 <textPrint+0x1f0>
    27fc: 4c 56 2e     	jmp	$2e56 <_ZN12_GLOBAL__N_15printEPKcP6Status+0xaf9>
    27ff: a0 11        	ldy	#$11
    2801: a5 24        	lda	$24                     ; 0x2024 <textPrint+0x1eb>
    2803: 18           	clc
    2804: 69 11        	adc	#$11
    2806: 85 12        	sta	$12                     ; 0x2012 <textPrint+0x1d9>
    2808: a5 25        	lda	$25                     ; 0x2025 <textPrint+0x1ec>
    280a: 69 00        	adc	#$0
    280c: 85 13        	sta	$13                     ; 0x2013 <textPrint+0x1da>
    280e: b1 24        	lda	($24),y                 ; 0x2024 <textPrint+0x1eb>
    2810: aa           	tax
    2811: a0 01        	ldy	#$1
    2813: b1 12        	lda	($12),y                 ; 0x2012 <textPrint+0x1d9>
    2815: 86 14        	stx	$14                     ; 0x2014 <textPrint+0x1db>
    2817: 85 15        	sta	$15                     ; 0x2015 <textPrint+0x1dc>
    2819: a8           	tay
    281a: 18           	clc
    281b: 8a           	txa
    281c: 69 02        	adc	#$2
    281e: 85 16        	sta	$16                     ; 0x2016 <textPrint+0x1dd>
    2820: 98           	tya
    2821: 69 00        	adc	#$0
    2823: 85 17        	sta	$17                     ; 0x2017 <textPrint+0x1de>
    2825: a5 16        	lda	$16                     ; 0x2016 <textPrint+0x1dd>
    2827: a0 11        	ldy	#$11
    2829: 91 24        	sta	($24),y                 ; 0x2024 <textPrint+0x1eb>
    282b: a0 01        	ldy	#$1
    282d: a5 17        	lda	$17                     ; 0x2017 <textPrint+0x1de>
    282f: 91 12        	sta	($12),y                 ; 0x2012 <textPrint+0x1d9>
    2831: b2 14        	lda	($14)                   ; 0x2014 <textPrint+0x1db>
    2833: 85 12        	sta	$12                     ; 0x2012 <textPrint+0x1d9>
    2835: b1 14        	lda	($14),y                 ; 0x2014 <textPrint+0x1db>
    2837: 85 13        	sta	$13                     ; 0x2013 <textPrint+0x1da>
    2839: 4c 8a 28     	jmp	$288a <_ZN12_GLOBAL__N_15printEPKcP6Status+0x52d>
    283c: a9 08        	lda	#$8
    283e: 4c 9a 28     	jmp	$289a <_ZN12_GLOBAL__N_15printEPKcP6Status+0x53d>
    2841: a0 11        	ldy	#$11
    2843: a5 24        	lda	$24                     ; 0x2024 <textPrint+0x1eb>
    2845: 18           	clc
    2846: 69 11        	adc	#$11
    2848: 85 12        	sta	$12                     ; 0x2012 <textPrint+0x1d9>
    284a: a5 25        	lda	$25                     ; 0x2025 <textPrint+0x1ec>
    284c: 69 00        	adc	#$0
    284e: 85 13        	sta	$13                     ; 0x2013 <textPrint+0x1da>
    2850: b1 24        	lda	($24),y                 ; 0x2024 <textPrint+0x1eb>
    2852: aa           	tax
    2853: a0 01        	ldy	#$1
    2855: b1 12        	lda	($12),y                 ; 0x2012 <textPrint+0x1d9>
    2857: 86 14        	stx	$14                     ; 0x2014 <textPrint+0x1db>
    2859: 85 15        	sta	$15                     ; 0x2015 <textPrint+0x1dc>
    285b: a8           	tay
    285c: 18           	clc
    285d: 8a           	txa
    285e: 69 02        	adc	#$2
    2860: 85 16        	sta	$16                     ; 0x2016 <textPrint+0x1dd>
    2862: 98           	tya
    2863: 69 00        	adc	#$0
    2865: 85 17        	sta	$17                     ; 0x2017 <textPrint+0x1de>
    2867: a5 16        	lda	$16                     ; 0x2016 <textPrint+0x1dd>
    2869: a0 11        	ldy	#$11
    286b: 91 24        	sta	($24),y                 ; 0x2024 <textPrint+0x1eb>
    286d: a0 01        	ldy	#$1
    286f: a5 17        	lda	$17                     ; 0x2017 <textPrint+0x1de>
    2871: 91 12        	sta	($12),y                 ; 0x2012 <textPrint+0x1d9>
    2873: b2 14        	lda	($14)                   ; 0x2014 <textPrint+0x1db>
    2875: 18           	clc
    2876: 48           	pha
    2877: a5 10        	lda	$10                     ; 0x2010 <textPrint+0x1d7>
    2879: 69 18        	adc	#$18
    287b: 85 12        	sta	$12                     ; 0x2012 <textPrint+0x1d9>
    287d: a5 11        	lda	$11                     ; 0x2011 <textPrint+0x1d8>
    287f: 69 00        	adc	#$0
    2881: 85 13        	sta	$13                     ; 0x2013 <textPrint+0x1da>
    2883: 68           	pla
    2884: 92 12        	sta	($12)                   ; 0x2012 <textPrint+0x1d9>
    2886: a9 00        	lda	#$0
    2888: 91 12        	sta	($12),y                 ; 0x2012 <textPrint+0x1d9>
    288a: a6 24        	ldx	$24                     ; 0x2024 <textPrint+0x1eb>
    288c: 86 14        	stx	$14                     ; 0x2014 <textPrint+0x1db>
    288e: a6 25        	ldx	$25                     ; 0x2025 <textPrint+0x1ec>
    2890: 86 15        	stx	$15                     ; 0x2015 <textPrint+0x1dc>
    2892: 20 82 2f     	jsr	$2f82 <_ZN12_GLOBAL__N_112print_stringEPKcP6Status>
    2895: 4c 46 2e     	jmp	$2e46 <_ZN12_GLOBAL__N_15printEPKcP6Status+0xae9>
    2898: a9 0a        	lda	#$a
    289a: 92 24        	sta	($24)                   ; 0x2024 <textPrint+0x1eb>
    289c: a6 24        	ldx	$24                     ; 0x2024 <textPrint+0x1eb>
    289e: 86 12        	stx	$12                     ; 0x2012 <textPrint+0x1d9>
    28a0: a6 25        	ldx	$25                     ; 0x2025 <textPrint+0x1ec>
    28a2: 86 13        	stx	$13                     ; 0x2013 <textPrint+0x1da>
    28a4: e6 12        	inc	$12                     ; 0x2012 <textPrint+0x1d9>
    28a6: d0 02        	bne	$28aa <_ZN12_GLOBAL__N_15printEPKcP6Status+0x54d>
    28a8: e6 13        	inc	$13                     ; 0x2013 <textPrint+0x1da>
    28aa: a0 01        	ldy	#$1
    28ac: b1 24        	lda	($24),y                 ; 0x2024 <textPrint+0x1eb>
    28ae: 85 14        	sta	$14                     ; 0x2014 <textPrint+0x1db>
    28b0: 98           	tya
    28b1: 11 12        	ora	($12),y                 ; 0x2012 <textPrint+0x1d9>
    28b3: aa           	tax
    28b4: a5 14        	lda	$14                     ; 0x2014 <textPrint+0x1db>
    28b6: 91 24        	sta	($24),y                 ; 0x2024 <textPrint+0x1eb>
    28b8: 8a           	txa
    28b9: 91 12        	sta	($12),y                 ; 0x2012 <textPrint+0x1d9>
    28bb: 18           	clc
    28bc: a5 10        	lda	$10                     ; 0x2010 <textPrint+0x1d7>
    28be: 69 0d        	adc	#$d
    28c0: 85 28        	sta	$28                     ; 0x2028 <textPrint+0x1ef>
    28c2: a5 11        	lda	$11                     ; 0x2011 <textPrint+0x1d8>
    28c4: 69 00        	adc	#$0
    28c6: 85 29        	sta	$29                     ; 0x2029 <textPrint+0x1f0>
    28c8: a6 28        	ldx	$28                     ; 0x2028 <textPrint+0x1ef>
    28ca: 86 12        	stx	$12                     ; 0x2012 <textPrint+0x1d9>
    28cc: 85 13        	sta	$13                     ; 0x2013 <textPrint+0x1da>
    28ce: a0 0c        	ldy	#$c
    28d0: b1 10        	lda	($10),y                 ; 0x2010 <textPrint+0x1d7>
    28d2: 20 72 03     	jsr	$372 <_ZN6__impl6VarInt4makeEPvc>
    28d5: a6 28        	ldx	$28                     ; 0x2028 <textPrint+0x1ef>
    28d7: 86 12        	stx	$12                     ; 0x2012 <textPrint+0x1d9>
    28d9: a6 29        	ldx	$29                     ; 0x2029 <textPrint+0x1f0>
    28db: 86 13        	stx	$13                     ; 0x2013 <textPrint+0x1da>
    28dd: e6 12        	inc	$12                     ; 0x2012 <textPrint+0x1d9>
    28df: d0 02        	bne	$28e3 <_ZN12_GLOBAL__N_15printEPKcP6Status+0x586>
    28e1: e6 13        	inc	$13                     ; 0x2013 <textPrint+0x1da>
    28e3: a0 11        	ldy	#$11
    28e5: a2 00        	ldx	#$0
    28e7: a5 24        	lda	$24                     ; 0x2024 <textPrint+0x1eb>
    28e9: 18           	clc
    28ea: 69 11        	adc	#$11
    28ec: 85 2c        	sta	$2c                     ; 0x202c <textPrint+0x1f3>
    28ee: a5 25        	lda	$25                     ; 0x2025 <textPrint+0x1ec>
    28f0: 69 00        	adc	#$0
    28f2: 85 2d        	sta	$2d                     ; 0x202d <textPrint+0x1f4>
    28f4: b1 24        	lda	($24),y                 ; 0x2024 <textPrint+0x1eb>
    28f6: 85 2f        	sta	$2f                     ; 0x202f <textPrint+0x1f6>
    28f8: a0 01        	ldy	#$1
    28fa: b1 2c        	lda	($2c),y                 ; 0x202c <textPrint+0x1f3>
    28fc: a4 2f        	ldy	$2f                     ; 0x202f <textPrint+0x1f6>
    28fe: 84 14        	sty	$14                     ; 0x2014 <textPrint+0x1db>
    2900: 85 15        	sta	$15                     ; 0x2015 <textPrint+0x1dc>
    2902: 85 2e        	sta	$2e                     ; 0x202e <textPrint+0x1f5>
    2904: b2 28        	lda	($28)                   ; 0x2028 <textPrint+0x1ef>
    2906: 64 16        	stz	$16                     ; 0x2016 <textPrint+0x1dd>
    2908: 48           	pha
    2909: 8a           	txa
    290a: a0 0c        	ldy	#$c
    290c: 91 10        	sta	($10),y                 ; 0x2010 <textPrint+0x1d7>
    290e: 68           	pla
    290f: 20 8f 31     	jsr	$318f <memcpy>
    2912: 18           	clc
    2913: a9 00        	lda	#$0
    2915: a0 0a        	ldy	#$a
    2917: 91 10        	sta	($10),y                 ; 0x2010 <textPrint+0x1d7>
    2919: a5 2f        	lda	$2f                     ; 0x202f <textPrint+0x1f6>
    291b: 65 2b        	adc	$2b                     ; 0x202b <textPrint+0x1f2>
    291d: aa           	tax
    291e: a5 2e        	lda	$2e                     ; 0x202e <textPrint+0x1f5>
    2920: 69 00        	adc	#$0
    2922: 85 12        	sta	$12                     ; 0x2012 <textPrint+0x1d9>
    2924: a0 11        	ldy	#$11
    2926: 8a           	txa
    2927: 91 24        	sta	($24),y                 ; 0x2024 <textPrint+0x1eb>
    2929: a0 01        	ldy	#$1
    292b: a5 12        	lda	$12                     ; 0x2012 <textPrint+0x1d9>
    292d: 91 2c        	sta	($2c),y                 ; 0x202c <textPrint+0x1f3>
    292f: a6 24        	ldx	$24                     ; 0x2024 <textPrint+0x1eb>
    2931: 86 12        	stx	$12                     ; 0x2012 <textPrint+0x1d9>
    2933: a6 25        	ldx	$25                     ; 0x2025 <textPrint+0x1ec>
    2935: 86 13        	stx	$13                     ; 0x2013 <textPrint+0x1da>
    2937: e6 12        	inc	$12                     ; 0x2012 <textPrint+0x1d9>
    2939: d0 02        	bne	$293d <_ZN12_GLOBAL__N_15printEPKcP6Status+0x5e0>
    293b: e6 13        	inc	$13                     ; 0x2013 <textPrint+0x1da>
    293d: a9 01        	lda	#$1
    293f: 31 12        	and	($12),y                 ; 0x2012 <textPrint+0x1d9>
    2941: d0 21        	bne	$2964 <_ZN12_GLOBAL__N_15printEPKcP6Status+0x607>
    2943: a6 28        	ldx	$28                     ; 0x2028 <textPrint+0x1ef>
    2945: 86 12        	stx	$12                     ; 0x2012 <textPrint+0x1d9>
    2947: a6 29        	ldx	$29                     ; 0x2029 <textPrint+0x1f0>
    2949: 86 13        	stx	$13                     ; 0x2013 <textPrint+0x1da>
    294b: 20 84 03     	jsr	$384 <_ZNK6__impl6VarInt8negativeEv>
    294e: 29 01        	and	#$1
    2950: f0 12        	beq	$2964 <_ZN12_GLOBAL__N_15printEPKcP6Status+0x607>
    2952: a6 28        	ldx	$28                     ; 0x2028 <textPrint+0x1ef>
    2954: 86 12        	stx	$12                     ; 0x2012 <textPrint+0x1d9>
    2956: a6 29        	ldx	$29                     ; 0x2029 <textPrint+0x1f0>
    2958: 86 13        	stx	$13                     ; 0x2013 <textPrint+0x1da>
    295a: 20 92 03     	jsr	$392 <_ZN6__impl6VarInt6negateEv>
    295d: 38           	sec
    295e: a9 01        	lda	#$1
    2960: a0 0a        	ldy	#$a
    2962: 91 10        	sta	($10),y                 ; 0x2010 <textPrint+0x1d7>
    2964: b2 28        	lda	($28)                   ; 0x2028 <textPrint+0x1ef>
    2966: d0 03        	bne	$296b <_ZN12_GLOBAL__N_15printEPKcP6Status+0x60e>
    2968: 4c 62 2a     	jmp	$2a62 <_ZN12_GLOBAL__N_15printEPKcP6Status+0x705>
    296b: b2 24        	lda	($24)                   ; 0x2024 <textPrint+0x1eb>
    296d: 85 2b        	sta	$2b                     ; 0x202b <textPrint+0x1f2>
    296f: 18           	clc
    2970: a5 10        	lda	$10                     ; 0x2010 <textPrint+0x1d7>
    2972: 69 18        	adc	#$18
    2974: 48           	pha
    2975: a5 11        	lda	$11                     ; 0x2011 <textPrint+0x1d8>
    2977: 69 00        	adc	#$0
    2979: 85 12        	sta	$12                     ; 0x2012 <textPrint+0x1d9>
    297b: 68           	pla
    297c: 18           	clc
    297d: 69 02        	adc	#$2
    297f: 85 2c        	sta	$2c                     ; 0x202c <textPrint+0x1f3>
    2981: a5 12        	lda	$12                     ; 0x2012 <textPrint+0x1d9>
    2983: 69 00        	adc	#$0
    2985: 85 2d        	sta	$2d                     ; 0x202d <textPrint+0x1f4>
    2987: a2 00        	ldx	#$0
    2989: a0 00        	ldy	#$0
    298b: 8a           	txa
    298c: d0 03        	bne	$2991 <_ZN12_GLOBAL__N_15printEPKcP6Status+0x634>
    298e: 4c 0b 2a     	jmp	$2a0b <_ZN12_GLOBAL__N_15printEPKcP6Status+0x6ae>
    2991: 84 2f        	sty	$2f                     ; 0x202f <textPrint+0x1f6>
    2993: 86 2e        	stx	$2e                     ; 0x202e <textPrint+0x1f5>
    2995: ca           	dex
    2996: 86 13        	stx	$13                     ; 0x2013 <textPrint+0x1da>
    2998: a2 00        	ldx	#$0
    299a: 64 12        	stz	$12                     ; 0x2012 <textPrint+0x1d9>
    299c: 80 0c        	bra	$29aa <_ZN12_GLOBAL__N_15printEPKcP6Status+0x64d>
    299e: a4 12        	ldy	$12                     ; 0x2012 <textPrint+0x1d9>
    29a0: 91 2c        	sta	($2c),y                 ; 0x202c <textPrint+0x1f3>
    29a2: a4 13        	ldy	$13                     ; 0x2013 <textPrint+0x1da>
    29a4: c4 12        	cpy	$12                     ; 0x2012 <textPrint+0x1d9>
    29a6: f0 2f        	beq	$29d7 <_ZN12_GLOBAL__N_15printEPKcP6Status+0x67a>
    29a8: e6 12        	inc	$12                     ; 0x2012 <textPrint+0x1d9>
    29aa: a4 12        	ldy	$12                     ; 0x2012 <textPrint+0x1d9>
    29ac: b1 2c        	lda	($2c),y                 ; 0x202c <textPrint+0x1f3>
    29ae: 0a           	asl
    29af: e0 00        	cpx	#$0
    29b1: f0 02        	beq	$29b5 <_ZN12_GLOBAL__N_15printEPKcP6Status+0x658>
    29b3: 09 01        	ora	#$1
    29b5: c5 2b        	cmp	$2b                     ; 0x202b <textPrint+0x1f2>
    29b7: a2 01        	ldx	#$1
    29b9: b0 02        	bcs	$29bd <_ZN12_GLOBAL__N_15printEPKcP6Status+0x660>
    29bb: a2 00        	ldx	#$0
    29bd: 90 df        	bcc	$299e <_ZN12_GLOBAL__N_15printEPKcP6Status+0x641>
    29bf: 38           	sec
    29c0: e5 2b        	sbc	$2b                     ; 0x202b <textPrint+0x1f2>
    29c2: a4 12        	ldy	$12                     ; 0x2012 <textPrint+0x1d9>
    29c4: 91 2c        	sta	($2c),y                 ; 0x202c <textPrint+0x1f3>
    29c6: a4 13        	ldy	$13                     ; 0x2013 <textPrint+0x1da>
    29c8: c4 12        	cpy	$12                     ; 0x2012 <textPrint+0x1d9>
    29ca: d0 dc        	bne	$29a8 <_ZN12_GLOBAL__N_15printEPKcP6Status+0x64b>
    29cc: a4 2e        	ldy	$2e                     ; 0x202e <textPrint+0x1f5>
    29ce: a6 2e        	ldx	$2e                     ; 0x202e <textPrint+0x1f5>
    29d0: e8           	inx
    29d1: a9 01        	lda	#$1
    29d3: 91 2c        	sta	($2c),y                 ; 0x202c <textPrint+0x1f3>
    29d5: 86 2e        	stx	$2e                     ; 0x202e <textPrint+0x1f5>
    29d7: a6 28        	ldx	$28                     ; 0x2028 <textPrint+0x1ef>
    29d9: 86 12        	stx	$12                     ; 0x2012 <textPrint+0x1d9>
    29db: a6 29        	ldx	$29                     ; 0x2029 <textPrint+0x1f0>
    29dd: 86 13        	stx	$13                     ; 0x2013 <textPrint+0x1da>
    29df: 20 76 03     	jsr	$376 <_ZNK6__impl6VarInt8high_bitEv>
    29e2: 29 01        	and	#$1
    29e4: f0 21        	beq	$2a07 <_ZN12_GLOBAL__N_15printEPKcP6Status+0x6aa>
    29e6: a0 00        	ldy	#$0
    29e8: a5 2e        	lda	$2e                     ; 0x202e <textPrint+0x1f5>
    29ea: f0 33        	beq	$2a1f <_ZN12_GLOBAL__N_15printEPKcP6Status+0x6c2>
    29ec: b1 2c        	lda	($2c),y                 ; 0x202c <textPrint+0x1f3>
    29ee: 1a           	inc
    29ef: 91 2c        	sta	($2c),y                 ; 0x202c <textPrint+0x1f3>
    29f1: c5 2b        	cmp	$2b                     ; 0x202b <textPrint+0x1f2>
    29f3: 90 12        	bcc	$2a07 <_ZN12_GLOBAL__N_15printEPKcP6Status+0x6aa>
    29f5: 38           	sec
    29f6: e5 2b        	sbc	$2b                     ; 0x202b <textPrint+0x1f2>
    29f8: 91 2c        	sta	($2c),y                 ; 0x202c <textPrint+0x1f3>
    29fa: c8           	iny
    29fb: 84 12        	sty	$12                     ; 0x2012 <textPrint+0x1d9>
    29fd: a6 2e        	ldx	$2e                     ; 0x202e <textPrint+0x1f5>
    29ff: e4 12        	cpx	$12                     ; 0x2012 <textPrint+0x1d9>
    2a01: d0 e9        	bne	$29ec <_ZN12_GLOBAL__N_15printEPKcP6Status+0x68f>
    2a03: a4 2e        	ldy	$2e                     ; 0x202e <textPrint+0x1f5>
    2a05: 80 18        	bra	$2a1f <_ZN12_GLOBAL__N_15printEPKcP6Status+0x6c2>
    2a07: a4 2e        	ldy	$2e                     ; 0x202e <textPrint+0x1f5>
    2a09: 80 1d        	bra	$2a28 <_ZN12_GLOBAL__N_15printEPKcP6Status+0x6cb>
    2a0b: 84 2f        	sty	$2f                     ; 0x202f <textPrint+0x1f6>
    2a0d: a6 28        	ldx	$28                     ; 0x2028 <textPrint+0x1ef>
    2a0f: 86 12        	stx	$12                     ; 0x2012 <textPrint+0x1d9>
    2a11: a6 29        	ldx	$29                     ; 0x2029 <textPrint+0x1f0>
    2a13: 86 13        	stx	$13                     ; 0x2013 <textPrint+0x1da>
    2a15: 20 76 03     	jsr	$376 <_ZNK6__impl6VarInt8high_bitEv>
    2a18: 29 01        	and	#$1
    2a1a: a0 00        	ldy	#$0
    2a1c: aa           	tax
    2a1d: f0 09        	beq	$2a28 <_ZN12_GLOBAL__N_15printEPKcP6Status+0x6cb>
    2a1f: 5a           	phy
    2a20: fa           	plx
    2a21: e8           	inx
    2a22: a9 01        	lda	#$1
    2a24: 91 2c        	sta	($2c),y                 ; 0x202c <textPrint+0x1f3>
    2a26: da           	phx
    2a27: 7a           	ply
    2a28: 98           	tya
    2a29: a0 0c        	ldy	#$c
    2a2b: 91 10        	sta	($10),y                 ; 0x2010 <textPrint+0x1d7>
    2a2d: a6 28        	ldx	$28                     ; 0x2028 <textPrint+0x1ef>
    2a2f: 86 12        	stx	$12                     ; 0x2012 <textPrint+0x1d9>
    2a31: a6 29        	ldx	$29                     ; 0x2029 <textPrint+0x1f0>
    2a33: 86 13        	stx	$13                     ; 0x2013 <textPrint+0x1da>
    2a35: 20 da 03     	jsr	$3da <_ZN6__impl6VarInt3shlEv>
    2a38: a4 2f        	ldy	$2f                     ; 0x202f <textPrint+0x1f6>
    2a3a: c8           	iny
    2a3b: b2 28        	lda	($28)                   ; 0x2028 <textPrint+0x1ef>
    2a3d: 0a           	asl
    2a3e: 64 13        	stz	$13                     ; 0x2013 <textPrint+0x1da>
    2a40: 26 13        	rol	$13                     ; 0x2013 <textPrint+0x1da>
    2a42: 0a           	asl
    2a43: 26 13        	rol	$13                     ; 0x2013 <textPrint+0x1da>
    2a45: 0a           	asl
    2a46: 26 13        	rol	$13                     ; 0x2013 <textPrint+0x1da>
    2a48: a2 00        	ldx	#$0
    2a4a: e4 13        	cpx	$13                     ; 0x2013 <textPrint+0x1da>
    2a4c: d0 06        	bne	$2a54 <_ZN12_GLOBAL__N_15printEPKcP6Status+0x6f7>
    2a4e: 85 12        	sta	$12                     ; 0x2012 <textPrint+0x1d9>
    2a50: c4 12        	cpy	$12                     ; 0x2012 <textPrint+0x1d9>
    2a52: 80 02        	bra	$2a56 <_ZN12_GLOBAL__N_15printEPKcP6Status+0x6f9>
    2a54: e4 13        	cpx	$13                     ; 0x2013 <textPrint+0x1da>
    2a56: 5a           	phy
    2a57: a0 0c        	ldy	#$c
    2a59: b1 10        	lda	($10),y                 ; 0x2010 <textPrint+0x1d7>
    2a5b: 7a           	ply
    2a5c: aa           	tax
    2a5d: b0 03        	bcs	$2a62 <_ZN12_GLOBAL__N_15printEPKcP6Status+0x705>
    2a5f: 4c 8b 29     	jmp	$298b <_ZN12_GLOBAL__N_15printEPKcP6Status+0x62e>
    2a62: a5 24        	lda	$24                     ; 0x2024 <textPrint+0x1eb>
    2a64: 18           	clc
    2a65: 69 0d        	adc	#$d
    2a67: 85 12        	sta	$12                     ; 0x2012 <textPrint+0x1d9>
    2a69: a5 25        	lda	$25                     ; 0x2025 <textPrint+0x1ec>
    2a6b: 69 00        	adc	#$0
    2a6d: 85 13        	sta	$13                     ; 0x2013 <textPrint+0x1da>
    2a6f: a0 01        	ldy	#$1
    2a71: b1 12        	lda	($12),y                 ; 0x2012 <textPrint+0x1d9>
    2a73: 30 0a        	bmi	$2a7f <_ZN12_GLOBAL__N_15printEPKcP6Status+0x722>
    2a75: a0 0d        	ldy	#$d
    2a77: 85 29        	sta	$29                     ; 0x2029 <textPrint+0x1f0>
    2a79: b1 24        	lda	($24),y                 ; 0x2024 <textPrint+0x1eb>
    2a7b: 85 28        	sta	$28                     ; 0x2028 <textPrint+0x1ef>
    2a7d: 80 04        	bra	$2a83 <_ZN12_GLOBAL__N_15printEPKcP6Status+0x726>
    2a7f: 64 29        	stz	$29                     ; 0x2029 <textPrint+0x1f0>
    2a81: 84 28        	sty	$28                     ; 0x2028 <textPrint+0x1ef>
    2a83: a0 01        	ldy	#$1
    2a85: b1 24        	lda	($24),y                 ; 0x2024 <textPrint+0x1eb>
    2a87: 85 18        	sta	$18                     ; 0x2018 <textPrint+0x1df>
    2a89: 29 04        	and	#$4
    2a8b: f0 35        	beq	$2ac2 <_ZN12_GLOBAL__N_15printEPKcP6Status+0x765>
    2a8d: b2 24        	lda	($24)                   ; 0x2024 <textPrint+0x1eb>
    2a8f: c9 10        	cmp	#$10
    2a91: f0 18        	beq	$2aab <_ZN12_GLOBAL__N_15printEPKcP6Status+0x74e>
    2a93: c9 08        	cmp	#$8
    2a95: d0 2b        	bne	$2ac2 <_ZN12_GLOBAL__N_15printEPKcP6Status+0x765>
    2a97: a2 00        	ldx	#$0
    2a99: e4 29        	cpx	$29                     ; 0x2029 <textPrint+0x1f0>
    2a9b: f0 03        	beq	$2aa0 <_ZN12_GLOBAL__N_15printEPKcP6Status+0x743>
    2a9d: 4c 61 2c     	jmp	$2c61 <_ZN12_GLOBAL__N_15printEPKcP6Status+0x904>
    2aa0: 5a           	phy
    2aa1: a0 0c        	ldy	#$c
    2aa3: b1 10        	lda	($10),y                 ; 0x2010 <textPrint+0x1d7>
    2aa5: 7a           	ply
    2aa6: c5 28        	cmp	$28                     ; 0x2028 <textPrint+0x1ef>
    2aa8: 4c 63 2c     	jmp	$2c63 <_ZN12_GLOBAL__N_15printEPKcP6Status+0x906>
    2aab: 5a           	phy
    2aac: a0 0c        	ldy	#$c
    2aae: b1 10        	lda	($10),y                 ; 0x2010 <textPrint+0x1d7>
    2ab0: 7a           	ply
    2ab1: aa           	tax
    2ab2: f0 0e        	beq	$2ac2 <_ZN12_GLOBAL__N_15printEPKcP6Status+0x765>
    2ab4: a5 18        	lda	$18                     ; 0x2018 <textPrint+0x1df>
    2ab6: 29 80        	and	#$80
    2ab8: d0 03        	bne	$2abd <_ZN12_GLOBAL__N_15printEPKcP6Status+0x760>
    2aba: 4c 7e 2c     	jmp	$2c7e <_ZN12_GLOBAL__N_15printEPKcP6Status+0x921>
    2abd: a2 78        	ldx	#$78
    2abf: 4c 80 2c     	jmp	$2c80 <_ZN12_GLOBAL__N_15printEPKcP6Status+0x923>
    2ac2: a5 18        	lda	$18                     ; 0x2018 <textPrint+0x1df>
    2ac4: a2 2d        	ldx	#$2d
    2ac6: 48           	pha
    2ac7: 5a           	phy
    2ac8: 8a           	txa
    2ac9: a0 09        	ldy	#$9
    2acb: 91 10        	sta	($10),y                 ; 0x2010 <textPrint+0x1d7>
    2acd: c8           	iny
    2ace: b1 10        	lda	($10),y                 ; 0x2010 <textPrint+0x1d7>
    2ad0: 7a           	ply
    2ad1: 85 12        	sta	$12                     ; 0x2012 <textPrint+0x1d9>
    2ad3: 68           	pla
    2ad4: a6 12        	ldx	$12                     ; 0x2012 <textPrint+0x1d9>
    2ad6: f0 0d        	beq	$2ae5 <_ZN12_GLOBAL__N_15printEPKcP6Status+0x788>
    2ad8: 18           	clc
    2ad9: a9 00        	lda	#$0
    2adb: 5a           	phy
    2adc: a0 0a        	ldy	#$a
    2ade: 91 10        	sta	($10),y                 ; 0x2010 <textPrint+0x1d7>
    2ae0: 7a           	ply
    2ae1: 84 12        	sty	$12                     ; 0x2012 <textPrint+0x1d9>
    2ae3: 80 2f        	bra	$2b14 <_ZN12_GLOBAL__N_15printEPKcP6Status+0x7b7>
    2ae5: aa           	tax
    2ae6: 29 02        	and	#$2
    2ae8: a0 2b        	ldy	#$2b
    2aea: 48           	pha
    2aeb: 98           	tya
    2aec: a0 09        	ldy	#$9
    2aee: 91 10        	sta	($10),y                 ; 0x2010 <textPrint+0x1d7>
    2af0: 68           	pla
    2af1: d0 16        	bne	$2b09 <_ZN12_GLOBAL__N_15printEPKcP6Status+0x7ac>
    2af3: 8a           	txa
    2af4: 29 08        	and	#$8
    2af6: a0 01        	ldy	#$1
    2af8: aa           	tax
    2af9: f0 03        	beq	$2afe <_ZN12_GLOBAL__N_15printEPKcP6Status+0x7a1>
    2afb: 4c 53 2c     	jmp	$2c53 <_ZN12_GLOBAL__N_15printEPKcP6Status+0x8f6>
    2afe: 38           	sec
    2aff: a9 01        	lda	#$1
    2b01: a0 0a        	ldy	#$a
    2b03: 91 10        	sta	($10),y                 ; 0x2010 <textPrint+0x1d7>
    2b05: 64 12        	stz	$12                     ; 0x2012 <textPrint+0x1d9>
    2b07: 80 0b        	bra	$2b14 <_ZN12_GLOBAL__N_15printEPKcP6Status+0x7b7>
    2b09: 18           	clc
    2b0a: a9 00        	lda	#$0
    2b0c: a0 0a        	ldy	#$a
    2b0e: 91 10        	sta	($10),y                 ; 0x2010 <textPrint+0x1d7>
    2b10: a2 01        	ldx	#$1
    2b12: 86 12        	stx	$12                     ; 0x2012 <textPrint+0x1d9>
    2b14: a0 0c        	ldy	#$c
    2b16: b1 10        	lda	($10),y                 ; 0x2010 <textPrint+0x1d7>
    2b18: a8           	tay
    2b19: a5 29        	lda	$29                     ; 0x2029 <textPrint+0x1f0>
    2b1b: d0 4d        	bne	$2b6a <_ZN12_GLOBAL__N_15printEPKcP6Status+0x80d>
    2b1d: a6 28        	ldx	$28                     ; 0x2028 <textPrint+0x1ef>
    2b1f: 84 13        	sty	$13                     ; 0x2013 <textPrint+0x1da>
    2b21: e4 13        	cpx	$13                     ; 0x2013 <textPrint+0x1da>
    2b23: a5 28        	lda	$28                     ; 0x2028 <textPrint+0x1ef>
    2b25: a6 29        	ldx	$29                     ; 0x2029 <textPrint+0x1f0>
    2b27: b0 03        	bcs	$2b2c <_ZN12_GLOBAL__N_15printEPKcP6Status+0x7cf>
    2b29: 98           	tya
    2b2a: a2 00        	ldx	#$0
    2b2c: 18           	clc
    2b2d: 85 19        	sta	$19                     ; 0x2019 <textPrint+0x1e0>
    2b2f: 65 12        	adc	$12                     ; 0x2012 <textPrint+0x1d9>
    2b31: 85 1c        	sta	$1c                     ; 0x201c <textPrint+0x1e3>
    2b33: 85 13        	sta	$13                     ; 0x2013 <textPrint+0x1da>
    2b35: 86 1a        	stx	$1a                     ; 0x201a <textPrint+0x1e1>
    2b37: 8a           	txa
    2b38: 69 00        	adc	#$0
    2b3a: 85 14        	sta	$14                     ; 0x2014 <textPrint+0x1db>
    2b3c: 85 1d        	sta	$1d                     ; 0x201d <textPrint+0x1e4>
    2b3e: a5 24        	lda	$24                     ; 0x2024 <textPrint+0x1eb>
    2b40: 18           	clc
    2b41: 69 0b        	adc	#$b
    2b43: 85 16        	sta	$16                     ; 0x2016 <textPrint+0x1dd>
    2b45: a5 25        	lda	$25                     ; 0x2025 <textPrint+0x1ec>
    2b47: 69 00        	adc	#$0
    2b49: a0 0b        	ldy	#$b
    2b4b: 85 17        	sta	$17                     ; 0x2017 <textPrint+0x1de>
    2b4d: b1 24        	lda	($24),y                 ; 0x2024 <textPrint+0x1eb>
    2b4f: 85 1b        	sta	$1b                     ; 0x201b <textPrint+0x1e2>
    2b51: 85 15        	sta	$15                     ; 0x2015 <textPrint+0x1dc>
    2b53: a0 01        	ldy	#$1
    2b55: b1 16        	lda	($16),y                 ; 0x2016 <textPrint+0x1dd>
    2b57: 85 17        	sta	$17                     ; 0x2017 <textPrint+0x1de>
    2b59: 85 16        	sta	$16                     ; 0x2016 <textPrint+0x1dd>
    2b5b: a5 1d        	lda	$1d                     ; 0x201d <textPrint+0x1e4>
    2b5d: c5 16        	cmp	$16                     ; 0x2016 <textPrint+0x1dd>
    2b5f: d0 13        	bne	$2b74 <_ZN12_GLOBAL__N_15printEPKcP6Status+0x817>
    2b61: a6 1c        	ldx	$1c                     ; 0x201c <textPrint+0x1e3>
    2b63: e4 15        	cpx	$15                     ; 0x2015 <textPrint+0x1dc>
    2b65: 90 13        	bcc	$2b7a <_ZN12_GLOBAL__N_15printEPKcP6Status+0x81d>
    2b67: 4c c2 2b     	jmp	$2bc2 <_ZN12_GLOBAL__N_15printEPKcP6Status+0x865>
    2b6a: a6 29        	ldx	$29                     ; 0x2029 <textPrint+0x1f0>
    2b6c: e0 00        	cpx	#$0
    2b6e: a5 28        	lda	$28                     ; 0x2028 <textPrint+0x1ef>
    2b70: 90 b7        	bcc	$2b29 <_ZN12_GLOBAL__N_15printEPKcP6Status+0x7cc>
    2b72: 80 b8        	bra	$2b2c <_ZN12_GLOBAL__N_15printEPKcP6Status+0x7cf>
    2b74: a6 1d        	ldx	$1d                     ; 0x201d <textPrint+0x1e4>
    2b76: e4 16        	cpx	$16                     ; 0x2016 <textPrint+0x1dd>
    2b78: b0 48        	bcs	$2bc2 <_ZN12_GLOBAL__N_15printEPKcP6Status+0x865>
    2b7a: a5 18        	lda	$18                     ; 0x2018 <textPrint+0x1df>
    2b7c: 29 11        	and	#$11
    2b7e: f0 0d        	beq	$2b8d <_ZN12_GLOBAL__N_15printEPKcP6Status+0x830>
    2b80: a5 1b        	lda	$1b                     ; 0x201b <textPrint+0x1e2>
    2b82: 38           	sec
    2b83: e5 13        	sbc	$13                     ; 0x2013 <textPrint+0x1da>
    2b85: 85 2a        	sta	$2a                     ; 0x202a <textPrint+0x1f1>
    2b87: a5 17        	lda	$17                     ; 0x2017 <textPrint+0x1de>
    2b89: e5 14        	sbc	$14                     ; 0x2014 <textPrint+0x1db>
    2b8b: 80 37        	bra	$2bc4 <_ZN12_GLOBAL__N_15printEPKcP6Status+0x867>
    2b8d: 18           	clc
    2b8e: a5 19        	lda	$19                     ; 0x2019 <textPrint+0x1e0>
    2b90: 65 12        	adc	$12                     ; 0x2012 <textPrint+0x1d9>
    2b92: aa           	tax
    2b93: a5 1a        	lda	$1a                     ; 0x201a <textPrint+0x1e1>
    2b95: 69 00        	adc	#$0
    2b97: 85 12        	sta	$12                     ; 0x2012 <textPrint+0x1d9>
    2b99: 38           	sec
    2b9a: 8a           	txa
    2b9b: e5 15        	sbc	$15                     ; 0x2015 <textPrint+0x1dc>
    2b9d: 85 2b        	sta	$2b                     ; 0x202b <textPrint+0x1f2>
    2b9f: a5 12        	lda	$12                     ; 0x2012 <textPrint+0x1d9>
    2ba1: e5 16        	sbc	$16                     ; 0x2016 <textPrint+0x1dd>
    2ba3: 85 2c        	sta	$2c                     ; 0x202c <textPrint+0x1f3>
    2ba5: a6 24        	ldx	$24                     ; 0x2024 <textPrint+0x1eb>
    2ba7: 86 12        	stx	$12                     ; 0x2012 <textPrint+0x1d9>
    2ba9: a6 25        	ldx	$25                     ; 0x2025 <textPrint+0x1ec>
    2bab: 86 13        	stx	$13                     ; 0x2013 <textPrint+0x1da>
    2bad: a9 20        	lda	#$20
    2baf: 20 a1 2e     	jsr	$2ea1 <_ZN12_GLOBAL__N_13putEcP6Status>
    2bb2: a6 2c        	ldx	$2c                     ; 0x202c <textPrint+0x1f3>
    2bb4: e6 2b        	inc	$2b                     ; 0x202b <textPrint+0x1f2>
    2bb6: d0 01        	bne	$2bb9 <_ZN12_GLOBAL__N_15printEPKcP6Status+0x85c>
    2bb8: e8           	inx
    2bb9: 86 2c        	stx	$2c                     ; 0x202c <textPrint+0x1f3>
    2bbb: 8a           	txa
    2bbc: d0 e7        	bne	$2ba5 <_ZN12_GLOBAL__N_15printEPKcP6Status+0x848>
    2bbe: a5 2b        	lda	$2b                     ; 0x202b <textPrint+0x1f2>
    2bc0: d0 e3        	bne	$2ba5 <_ZN12_GLOBAL__N_15printEPKcP6Status+0x848>
    2bc2: a9 00        	lda	#$0
    2bc4: 85 2b        	sta	$2b                     ; 0x202b <textPrint+0x1f2>
    2bc6: a0 0a        	ldy	#$a
    2bc8: b1 10        	lda	($10),y                 ; 0x2010 <textPrint+0x1d7>
    2bca: 85 12        	sta	$12                     ; 0x2012 <textPrint+0x1d9>
    2bcc: a5 12        	lda	$12                     ; 0x2012 <textPrint+0x1d9>
    2bce: d0 0f        	bne	$2bdf <_ZN12_GLOBAL__N_15printEPKcP6Status+0x882>
    2bd0: a6 24        	ldx	$24                     ; 0x2024 <textPrint+0x1eb>
    2bd2: 86 12        	stx	$12                     ; 0x2012 <textPrint+0x1d9>
    2bd4: a6 25        	ldx	$25                     ; 0x2025 <textPrint+0x1ec>
    2bd6: 86 13        	stx	$13                     ; 0x2013 <textPrint+0x1da>
    2bd8: a0 09        	ldy	#$9
    2bda: b1 10        	lda	($10),y                 ; 0x2010 <textPrint+0x1d7>
    2bdc: 20 a1 2e     	jsr	$2ea1 <_ZN12_GLOBAL__N_13putEcP6Status>
    2bdf: a0 0b        	ldy	#$b
    2be1: b1 10        	lda	($10),y                 ; 0x2010 <textPrint+0x1d7>
    2be3: 85 12        	sta	$12                     ; 0x2012 <textPrint+0x1d9>
    2be5: a5 12        	lda	$12                     ; 0x2012 <textPrint+0x1d9>
    2be7: f0 0f        	beq	$2bf8 <_ZN12_GLOBAL__N_15printEPKcP6Status+0x89b>
    2be9: a6 24        	ldx	$24                     ; 0x2024 <textPrint+0x1eb>
    2beb: 86 12        	stx	$12                     ; 0x2012 <textPrint+0x1d9>
    2bed: a6 25        	ldx	$25                     ; 0x2025 <textPrint+0x1ec>
    2bef: 86 13        	stx	$13                     ; 0x2013 <textPrint+0x1da>
    2bf1: a0 08        	ldy	#$8
    2bf3: b1 10        	lda	($10),y                 ; 0x2010 <textPrint+0x1d7>
    2bf5: 20 a1 2e     	jsr	$2ea1 <_ZN12_GLOBAL__N_13putEcP6Status>
    2bf8: a0 01        	ldy	#$1
    2bfa: b1 24        	lda	($24),y                 ; 0x2024 <textPrint+0x1eb>
    2bfc: aa           	tax
    2bfd: 29 10        	and	#$10
    2bff: f0 3a        	beq	$2c3b <_ZN12_GLOBAL__N_15printEPKcP6Status+0x8de>
    2c01: 8a           	txa
    2c02: 29 01        	and	#$1
    2c04: 48           	pha
    2c05: a0 0c        	ldy	#$c
    2c07: b1 10        	lda	($10),y                 ; 0x2010 <textPrint+0x1d7>
    2c09: aa           	tax
    2c0a: 68           	pla
    2c0b: d0 33        	bne	$2c40 <_ZN12_GLOBAL__N_15printEPKcP6Status+0x8e3>
    2c0d: a5 2b        	lda	$2b                     ; 0x202b <textPrint+0x1f2>
    2c0f: d0 07        	bne	$2c18 <_ZN12_GLOBAL__N_15printEPKcP6Status+0x8bb>
    2c11: a5 2a        	lda	$2a                     ; 0x202a <textPrint+0x1f1>
    2c13: d0 03        	bne	$2c18 <_ZN12_GLOBAL__N_15printEPKcP6Status+0x8bb>
    2c15: 4c a7 2c     	jmp	$2ca7 <_ZN12_GLOBAL__N_15printEPKcP6Status+0x94a>
    2c18: a6 24        	ldx	$24                     ; 0x2024 <textPrint+0x1eb>
    2c1a: 86 12        	stx	$12                     ; 0x2012 <textPrint+0x1d9>
    2c1c: a6 25        	ldx	$25                     ; 0x2025 <textPrint+0x1ec>
    2c1e: 86 13        	stx	$13                     ; 0x2013 <textPrint+0x1da>
    2c20: a9 30        	lda	#$30
    2c22: 20 a1 2e     	jsr	$2ea1 <_ZN12_GLOBAL__N_13putEcP6Status>
    2c25: a2 ff        	ldx	#$ff
    2c27: c6 2a        	dec	$2a                     ; 0x202a <textPrint+0x1f1>
    2c29: e4 2a        	cpx	$2a                     ; 0x202a <textPrint+0x1f1>
    2c2b: d0 02        	bne	$2c2f <_ZN12_GLOBAL__N_15printEPKcP6Status+0x8d2>
    2c2d: c6 2b        	dec	$2b                     ; 0x202b <textPrint+0x1f2>
    2c2f: a5 2b        	lda	$2b                     ; 0x202b <textPrint+0x1f2>
    2c31: d0 e5        	bne	$2c18 <_ZN12_GLOBAL__N_15printEPKcP6Status+0x8bb>
    2c33: a5 2a        	lda	$2a                     ; 0x202a <textPrint+0x1f1>
    2c35: d0 e1        	bne	$2c18 <_ZN12_GLOBAL__N_15printEPKcP6Status+0x8bb>
    2c37: 64 2a        	stz	$2a                     ; 0x202a <textPrint+0x1f1>
    2c39: 64 2b        	stz	$2b                     ; 0x202b <textPrint+0x1f2>
    2c3b: a0 0c        	ldy	#$c
    2c3d: b1 10        	lda	($10),y                 ; 0x2010 <textPrint+0x1d7>
    2c3f: aa           	tax
    2c40: a0 00        	ldy	#$0
    2c42: c4 29        	cpy	$29                     ; 0x2029 <textPrint+0x1f0>
    2c44: d0 03        	bne	$2c49 <_ZN12_GLOBAL__N_15printEPKcP6Status+0x8ec>
    2c46: 4c b3 2c     	jmp	$2cb3 <_ZN12_GLOBAL__N_15printEPKcP6Status+0x956>
    2c49: c4 29        	cpy	$29                     ; 0x2029 <textPrint+0x1f0>
    2c4b: b0 03        	bcs	$2c50 <_ZN12_GLOBAL__N_15printEPKcP6Status+0x8f3>
    2c4d: 4c b7 2c     	jmp	$2cb7 <_ZN12_GLOBAL__N_15printEPKcP6Status+0x95a>
    2c50: 4c dd 2c     	jmp	$2cdd <_ZN12_GLOBAL__N_15printEPKcP6Status+0x980>
    2c53: a2 20        	ldx	#$20
    2c55: 5a           	phy
    2c56: 8a           	txa
    2c57: a0 09        	ldy	#$9
    2c59: 91 10        	sta	($10),y                 ; 0x2010 <textPrint+0x1d7>
    2c5b: 18           	clc
    2c5c: a9 00        	lda	#$0
    2c5e: 4c dc 2a     	jmp	$2adc <_ZN12_GLOBAL__N_15printEPKcP6Status+0x77f>
    2c61: e4 29        	cpx	$29                     ; 0x2029 <textPrint+0x1f0>
    2c63: a5 18        	lda	$18                     ; 0x2018 <textPrint+0x1df>
    2c65: b0 03        	bcs	$2c6a <_ZN12_GLOBAL__N_15printEPKcP6Status+0x90d>
    2c67: 4c c4 2a     	jmp	$2ac4 <_ZN12_GLOBAL__N_15printEPKcP6Status+0x767>
    2c6a: 48           	pha
    2c6b: 5a           	phy
    2c6c: a0 0c        	ldy	#$c
    2c6e: b1 10        	lda	($10),y                 ; 0x2010 <textPrint+0x1d7>
    2c70: 7a           	ply
    2c71: 85 28        	sta	$28                     ; 0x2028 <textPrint+0x1ef>
    2c73: 68           	pla
    2c74: e6 28        	inc	$28                     ; 0x2028 <textPrint+0x1ef>
    2c76: d0 01        	bne	$2c79 <_ZN12_GLOBAL__N_15printEPKcP6Status+0x91c>
    2c78: e8           	inx
    2c79: 86 29        	stx	$29                     ; 0x2029 <textPrint+0x1f0>
    2c7b: 4c c4 2a     	jmp	$2ac4 <_ZN12_GLOBAL__N_15printEPKcP6Status+0x767>
    2c7e: a2 58        	ldx	#$58
    2c80: 8a           	txa
    2c81: a0 08        	ldy	#$8
    2c83: 91 10        	sta	($10),y                 ; 0x2010 <textPrint+0x1d7>
    2c85: a0 0c        	ldy	#$c
    2c87: b1 10        	lda	($10),y                 ; 0x2010 <textPrint+0x1d7>
    2c89: a8           	tay
    2c8a: 38           	sec
    2c8b: 5a           	phy
    2c8c: a9 01        	lda	#$1
    2c8e: a0 0b        	ldy	#$b
    2c90: 91 10        	sta	($10),y                 ; 0x2010 <textPrint+0x1d7>
    2c92: a2 30        	ldx	#$30
    2c94: 8a           	txa
    2c95: a0 09        	ldy	#$9
    2c97: 91 10        	sta	($10),y                 ; 0x2010 <textPrint+0x1d7>
    2c99: a2 02        	ldx	#$2
    2c9b: 18           	clc
    2c9c: a9 00        	lda	#$0
    2c9e: c8           	iny
    2c9f: 91 10        	sta	($10),y                 ; 0x2010 <textPrint+0x1d7>
    2ca1: 7a           	ply
    2ca2: 86 12        	stx	$12                     ; 0x2012 <textPrint+0x1d9>
    2ca4: 4c 19 2b     	jmp	$2b19 <_ZN12_GLOBAL__N_15printEPKcP6Status+0x7bc>
    2ca7: 64 2a        	stz	$2a                     ; 0x202a <textPrint+0x1f1>
    2ca9: 64 2b        	stz	$2b                     ; 0x202b <textPrint+0x1f2>
    2cab: 4c 40 2c     	jmp	$2c40 <_ZN12_GLOBAL__N_15printEPKcP6Status+0x8e3>
    2cae: a0 0c        	ldy	#$c
    2cb0: b1 10        	lda	($10),y                 ; 0x2010 <textPrint+0x1d7>
    2cb2: aa           	tax
    2cb3: e4 28        	cpx	$28                     ; 0x2028 <textPrint+0x1ef>
    2cb5: b0 26        	bcs	$2cdd <_ZN12_GLOBAL__N_15printEPKcP6Status+0x980>
    2cb7: a2 ff        	ldx	#$ff
    2cb9: c6 28        	dec	$28                     ; 0x2028 <textPrint+0x1ef>
    2cbb: e4 28        	cpx	$28                     ; 0x2028 <textPrint+0x1ef>
    2cbd: d0 02        	bne	$2cc1 <_ZN12_GLOBAL__N_15printEPKcP6Status+0x964>
    2cbf: c6 29        	dec	$29                     ; 0x2029 <textPrint+0x1f0>
    2cc1: a6 24        	ldx	$24                     ; 0x2024 <textPrint+0x1eb>
    2cc3: 86 12        	stx	$12                     ; 0x2012 <textPrint+0x1d9>
    2cc5: a6 25        	ldx	$25                     ; 0x2025 <textPrint+0x1ec>
    2cc7: 86 13        	stx	$13                     ; 0x2013 <textPrint+0x1da>
    2cc9: a9 30        	lda	#$30
    2ccb: 20 a1 2e     	jsr	$2ea1 <_ZN12_GLOBAL__N_13putEcP6Status>
    2cce: a2 00        	ldx	#$0
    2cd0: e4 29        	cpx	$29                     ; 0x2029 <textPrint+0x1f0>
    2cd2: f0 da        	beq	$2cae <_ZN12_GLOBAL__N_15printEPKcP6Status+0x951>
    2cd4: e4 29        	cpx	$29                     ; 0x2029 <textPrint+0x1f0>
    2cd6: a0 0c        	ldy	#$c
    2cd8: b1 10        	lda	($10),y                 ; 0x2010 <textPrint+0x1d7>
    2cda: aa           	tax
    2cdb: 90 da        	bcc	$2cb7 <_ZN12_GLOBAL__N_15printEPKcP6Status+0x95a>
    2cdd: a4 2b        	ldy	$2b                     ; 0x202b <textPrint+0x1f2>
    2cdf: 84 2c        	sty	$2c                     ; 0x202c <textPrint+0x1f3>
    2ce1: 8a           	txa
    2ce2: d0 03        	bne	$2ce7 <_ZN12_GLOBAL__N_15printEPKcP6Status+0x98a>
    2ce4: 4c 91 2d     	jmp	$2d91 <_ZN12_GLOBAL__N_15printEPKcP6Status+0xa34>
    2ce7: ca           	dex
    2ce8: d0 03        	bne	$2ced <_ZN12_GLOBAL__N_15printEPKcP6Status+0x990>
    2cea: 4c 53 2d     	jmp	$2d53 <_ZN12_GLOBAL__N_15printEPKcP6Status+0x9f6>
    2ced: 86 2b        	stx	$2b                     ; 0x202b <textPrint+0x1f2>
    2cef: 18           	clc
    2cf0: a5 10        	lda	$10                     ; 0x2010 <textPrint+0x1d7>
    2cf2: 69 18        	adc	#$18
    2cf4: 48           	pha
    2cf5: a5 11        	lda	$11                     ; 0x2011 <textPrint+0x1d8>
    2cf7: 69 00        	adc	#$0
    2cf9: 85 12        	sta	$12                     ; 0x2012 <textPrint+0x1d9>
    2cfb: 68           	pla
    2cfc: 18           	clc
    2cfd: 65 2b        	adc	$2b                     ; 0x202b <textPrint+0x1f2>
    2cff: aa           	tax
    2d00: a5 12        	lda	$12                     ; 0x2012 <textPrint+0x1d9>
    2d02: 69 00        	adc	#$0
    2d04: 85 12        	sta	$12                     ; 0x2012 <textPrint+0x1d9>
    2d06: 18           	clc
    2d07: 8a           	txa
    2d08: 69 02        	adc	#$2
    2d0a: 85 28        	sta	$28                     ; 0x2028 <textPrint+0x1ef>
    2d0c: a5 12        	lda	$12                     ; 0x2012 <textPrint+0x1d9>
    2d0e: 69 00        	adc	#$0
    2d10: 85 29        	sta	$29                     ; 0x2029 <textPrint+0x1f0>
    2d12: 80 35        	bra	$2d49 <_ZN12_GLOBAL__N_15printEPKcP6Status+0x9ec>
    2d14: 85 13        	sta	$13                     ; 0x2013 <textPrint+0x1da>
    2d16: a9 80        	lda	#$80
    2d18: a0 01        	ldy	#$1
    2d1a: 31 24        	and	($24),y                 ; 0x2024 <textPrint+0x1eb>
    2d1c: f0 04        	beq	$2d22 <_ZN12_GLOBAL__N_15printEPKcP6Status+0x9c5>
    2d1e: a2 61        	ldx	#$61
    2d20: 80 02        	bra	$2d24 <_ZN12_GLOBAL__N_15printEPKcP6Status+0x9c7>
    2d22: a2 41        	ldx	#$41
    2d24: 86 12        	stx	$12                     ; 0x2012 <textPrint+0x1d9>
    2d26: 18           	clc
    2d27: a5 13        	lda	$13                     ; 0x2013 <textPrint+0x1da>
    2d29: 65 12        	adc	$12                     ; 0x2012 <textPrint+0x1d9>
    2d2b: 18           	clc
    2d2c: 69 f6        	adc	#$f6
    2d2e: a6 24        	ldx	$24                     ; 0x2024 <textPrint+0x1eb>
    2d30: 86 12        	stx	$12                     ; 0x2012 <textPrint+0x1d9>
    2d32: a6 25        	ldx	$25                     ; 0x2025 <textPrint+0x1ec>
    2d34: 86 13        	stx	$13                     ; 0x2013 <textPrint+0x1da>
    2d36: 20 a1 2e     	jsr	$2ea1 <_ZN12_GLOBAL__N_13putEcP6Status>
    2d39: c6 2b        	dec	$2b                     ; 0x202b <textPrint+0x1f2>
    2d3b: a2 ff        	ldx	#$ff
    2d3d: c6 28        	dec	$28                     ; 0x2028 <textPrint+0x1ef>
    2d3f: e4 28        	cpx	$28                     ; 0x2028 <textPrint+0x1ef>
    2d41: d0 02        	bne	$2d45 <_ZN12_GLOBAL__N_15printEPKcP6Status+0x9e8>
    2d43: c6 29        	dec	$29                     ; 0x2029 <textPrint+0x1f0>
    2d45: a5 2b        	lda	$2b                     ; 0x202b <textPrint+0x1f2>
    2d47: f0 0a        	beq	$2d53 <_ZN12_GLOBAL__N_15printEPKcP6Status+0x9f6>
    2d49: b2 28        	lda	($28)                   ; 0x2028 <textPrint+0x1ef>
    2d4b: c9 0a        	cmp	#$a
    2d4d: b0 c5        	bcs	$2d14 <_ZN12_GLOBAL__N_15printEPKcP6Status+0x9b7>
    2d4f: 09 30        	ora	#$30
    2d51: 80 db        	bra	$2d2e <_ZN12_GLOBAL__N_15printEPKcP6Status+0x9d1>
    2d53: a0 02        	ldy	#$2
    2d55: 18           	clc
    2d56: a5 10        	lda	$10                     ; 0x2010 <textPrint+0x1d7>
    2d58: 69 18        	adc	#$18
    2d5a: 85 12        	sta	$12                     ; 0x2012 <textPrint+0x1d9>
    2d5c: a5 11        	lda	$11                     ; 0x2011 <textPrint+0x1d8>
    2d5e: 69 00        	adc	#$0
    2d60: 85 13        	sta	$13                     ; 0x2013 <textPrint+0x1da>
    2d62: b1 12        	lda	($12),y                 ; 0x2012 <textPrint+0x1d9>
    2d64: c9 0a        	cmp	#$a
    2d66: b0 04        	bcs	$2d6c <_ZN12_GLOBAL__N_15printEPKcP6Status+0xa0f>
    2d68: 09 30        	ora	#$30
    2d6a: 80 1a        	bra	$2d86 <_ZN12_GLOBAL__N_15printEPKcP6Status+0xa29>
    2d6c: 85 13        	sta	$13                     ; 0x2013 <textPrint+0x1da>
    2d6e: a0 01        	ldy	#$1
    2d70: a9 80        	lda	#$80
    2d72: 31 24        	and	($24),y                 ; 0x2024 <textPrint+0x1eb>
    2d74: f0 04        	beq	$2d7a <_ZN12_GLOBAL__N_15printEPKcP6Status+0xa1d>
    2d76: a2 61        	ldx	#$61
    2d78: 80 02        	bra	$2d7c <_ZN12_GLOBAL__N_15printEPKcP6Status+0xa1f>
    2d7a: a2 41        	ldx	#$41
    2d7c: 86 12        	stx	$12                     ; 0x2012 <textPrint+0x1d9>
    2d7e: a5 13        	lda	$13                     ; 0x2013 <textPrint+0x1da>
    2d80: 18           	clc
    2d81: 65 12        	adc	$12                     ; 0x2012 <textPrint+0x1d9>
    2d83: 18           	clc
    2d84: 69 f6        	adc	#$f6
    2d86: a6 24        	ldx	$24                     ; 0x2024 <textPrint+0x1eb>
    2d88: 86 12        	stx	$12                     ; 0x2012 <textPrint+0x1d9>
    2d8a: a6 25        	ldx	$25                     ; 0x2025 <textPrint+0x1ec>
    2d8c: 86 13        	stx	$13                     ; 0x2013 <textPrint+0x1da>
    2d8e: 20 a1 2e     	jsr	$2ea1 <_ZN12_GLOBAL__N_13putEcP6Status>
    2d91: a0 01        	ldy	#$1
    2d93: 98           	tya
    2d94: 31 24        	and	($24),y                 ; 0x2024 <textPrint+0x1eb>
    2d96: f0 21        	beq	$2db9 <_ZN12_GLOBAL__N_15printEPKcP6Status+0xa5c>
    2d98: a5 2c        	lda	$2c                     ; 0x202c <textPrint+0x1f3>
    2d9a: f0 19        	beq	$2db5 <_ZN12_GLOBAL__N_15printEPKcP6Status+0xa58>
    2d9c: a6 24        	ldx	$24                     ; 0x2024 <textPrint+0x1eb>
    2d9e: 86 12        	stx	$12                     ; 0x2012 <textPrint+0x1d9>
    2da0: a6 25        	ldx	$25                     ; 0x2025 <textPrint+0x1ec>
    2da2: 86 13        	stx	$13                     ; 0x2013 <textPrint+0x1da>
    2da4: a9 20        	lda	#$20
    2da6: 20 a1 2e     	jsr	$2ea1 <_ZN12_GLOBAL__N_13putEcP6Status>
    2da9: a2 ff        	ldx	#$ff
    2dab: c6 2a        	dec	$2a                     ; 0x202a <textPrint+0x1f1>
    2dad: e4 2a        	cpx	$2a                     ; 0x202a <textPrint+0x1f1>
    2daf: d0 e7        	bne	$2d98 <_ZN12_GLOBAL__N_15printEPKcP6Status+0xa3b>
    2db1: c6 2c        	dec	$2c                     ; 0x202c <textPrint+0x1f3>
    2db3: 80 e3        	bra	$2d98 <_ZN12_GLOBAL__N_15printEPKcP6Status+0xa3b>
    2db5: a5 2a        	lda	$2a                     ; 0x202a <textPrint+0x1f1>
    2db7: d0 e3        	bne	$2d9c <_ZN12_GLOBAL__N_15printEPKcP6Status+0xa3f>
    2db9: a4 24        	ldy	$24                     ; 0x2024 <textPrint+0x1eb>
    2dbb: a5 24        	lda	$24                     ; 0x2024 <textPrint+0x1eb>
    2dbd: 84 14        	sty	$14                     ; 0x2014 <textPrint+0x1db>
    2dbf: 18           	clc
    2dc0: 69 05        	adc	#$5
    2dc2: 85 12        	sta	$12                     ; 0x2012 <textPrint+0x1d9>
    2dc4: a5 25        	lda	$25                     ; 0x2025 <textPrint+0x1ec>
    2dc6: 69 00        	adc	#$0
    2dc8: 18           	clc
    2dc9: 85 13        	sta	$13                     ; 0x2013 <textPrint+0x1da>
    2dcb: a0 01        	ldy	#$1
    2dcd: a5 14        	lda	$14                     ; 0x2014 <textPrint+0x1db>
    2dcf: 69 03        	adc	#$3
    2dd1: 85 14        	sta	$14                     ; 0x2014 <textPrint+0x1db>
    2dd3: a5 25        	lda	$25                     ; 0x2025 <textPrint+0x1ec>
    2dd5: 69 00        	adc	#$0
    2dd7: aa           	tax
    2dd8: b1 12        	lda	($12),y                 ; 0x2012 <textPrint+0x1d9>
    2dda: 85 15        	sta	$15                     ; 0x2015 <textPrint+0x1dc>
    2ddc: a4 14        	ldy	$14                     ; 0x2014 <textPrint+0x1db>
    2dde: 84 12        	sty	$12                     ; 0x2012 <textPrint+0x1d9>
    2de0: 86 13        	stx	$13                     ; 0x2013 <textPrint+0x1da>
    2de2: a0 03        	ldy	#$3
    2de4: b1 24        	lda	($24),y                 ; 0x2024 <textPrint+0x1eb>
    2de6: aa           	tax
    2de7: a0 01        	ldy	#$1
    2de9: b1 12        	lda	($12),y                 ; 0x2012 <textPrint+0x1d9>
    2deb: 85 12        	sta	$12                     ; 0x2012 <textPrint+0x1d9>
    2ded: a4 15        	ldy	$15                     ; 0x2015 <textPrint+0x1dc>
    2def: c4 12        	cpy	$12                     ; 0x2012 <textPrint+0x1d9>
    2df1: d0 10        	bne	$2e03 <_ZN12_GLOBAL__N_15printEPKcP6Status+0xaa6>
    2df3: a0 05        	ldy	#$5
    2df5: 85 15        	sta	$15                     ; 0x2015 <textPrint+0x1dc>
    2df7: b1 24        	lda	($24),y                 ; 0x2024 <textPrint+0x1eb>
    2df9: 86 13        	stx	$13                     ; 0x2013 <textPrint+0x1da>
    2dfb: 86 12        	stx	$12                     ; 0x2012 <textPrint+0x1d9>
    2dfd: c5 12        	cmp	$12                     ; 0x2012 <textPrint+0x1d9>
    2dff: b0 10        	bcs	$2e11 <_ZN12_GLOBAL__N_15printEPKcP6Status+0xab4>
    2e01: 80 43        	bra	$2e46 <_ZN12_GLOBAL__N_15printEPKcP6Status+0xae9>
    2e03: 84 14        	sty	$14                     ; 0x2014 <textPrint+0x1db>
    2e05: 86 13        	stx	$13                     ; 0x2013 <textPrint+0x1da>
    2e07: 85 12        	sta	$12                     ; 0x2012 <textPrint+0x1d9>
    2e09: a6 14        	ldx	$14                     ; 0x2014 <textPrint+0x1db>
    2e0b: e4 12        	cpx	$12                     ; 0x2012 <textPrint+0x1d9>
    2e0d: 85 15        	sta	$15                     ; 0x2015 <textPrint+0x1dc>
    2e0f: 90 35        	bcc	$2e46 <_ZN12_GLOBAL__N_15printEPKcP6Status+0xae9>
    2e11: a6 13        	ldx	$13                     ; 0x2013 <textPrint+0x1da>
    2e13: a5 15        	lda	$15                     ; 0x2015 <textPrint+0x1dc>
    2e15: d0 03        	bne	$2e1a <_ZN12_GLOBAL__N_15printEPKcP6Status+0xabd>
    2e17: 8a           	txa
    2e18: f0 2c        	beq	$2e46 <_ZN12_GLOBAL__N_15printEPKcP6Status+0xae9>
    2e1a: a5 24        	lda	$24                     ; 0x2024 <textPrint+0x1eb>
    2e1c: 18           	clc
    2e1d: 69 09        	adc	#$9
    2e1f: 85 12        	sta	$12                     ; 0x2012 <textPrint+0x1d9>
    2e21: a5 25        	lda	$25                     ; 0x2025 <textPrint+0x1ec>
    2e23: 69 00        	adc	#$0
    2e25: a0 09        	ldy	#$9
    2e27: 85 13        	sta	$13                     ; 0x2013 <textPrint+0x1da>
    2e29: 18           	clc
    2e2a: 8a           	txa
    2e2b: 71 24        	adc	($24),y                 ; 0x2024 <textPrint+0x1eb>
    2e2d: aa           	tax
    2e2e: a0 01        	ldy	#$1
    2e30: a5 15        	lda	$15                     ; 0x2015 <textPrint+0x1dc>
    2e32: 71 12        	adc	($12),y                 ; 0x2012 <textPrint+0x1d9>
    2e34: 86 12        	stx	$12                     ; 0x2012 <textPrint+0x1d9>
    2e36: 85 13        	sta	$13                     ; 0x2013 <textPrint+0x1da>
    2e38: a2 ff        	ldx	#$ff
    2e3a: c6 12        	dec	$12                     ; 0x2012 <textPrint+0x1d9>
    2e3c: e4 12        	cpx	$12                     ; 0x2012 <textPrint+0x1d9>
    2e3e: d0 02        	bne	$2e42 <_ZN12_GLOBAL__N_15printEPKcP6Status+0xae5>
    2e40: c6 13        	dec	$13                     ; 0x2013 <textPrint+0x1da>
    2e42: a9 00        	lda	#$0
    2e44: 92 12        	sta	($12)                   ; 0x2012 <textPrint+0x1d9>
    2e46: b2 26        	lda	($26)                   ; 0x2026 <textPrint+0x1ed>
    2e48: 85 28        	sta	$28                     ; 0x2028 <textPrint+0x1ef>
    2e4a: a0 01        	ldy	#$1
    2e4c: b1 26        	lda	($26),y                 ; 0x2026 <textPrint+0x1ed>
    2e4e: 85 29        	sta	$29                     ; 0x2029 <textPrint+0x1f0>
    2e50: e6 28        	inc	$28                     ; 0x2028 <textPrint+0x1ef>
    2e52: d0 02        	bne	$2e56 <_ZN12_GLOBAL__N_15printEPKcP6Status+0xaf9>
    2e54: e6 29        	inc	$29                     ; 0x2029 <textPrint+0x1f0>
    2e56: a6 28        	ldx	$28                     ; 0x2028 <textPrint+0x1ef>
    2e58: 86 12        	stx	$12                     ; 0x2012 <textPrint+0x1d9>
    2e5a: a6 29        	ldx	$29                     ; 0x2029 <textPrint+0x1f0>
    2e5c: 86 13        	stx	$13                     ; 0x2013 <textPrint+0x1da>
    2e5e: a0 00        	ldy	#$0
    2e60: b1 10        	lda	($10),y                 ; 0x2010 <textPrint+0x1d7>
    2e62: 85 2f        	sta	$2f                     ; 0x202f <textPrint+0x1f6>
    2e64: c8           	iny
    2e65: b1 10        	lda	($10),y                 ; 0x2010 <textPrint+0x1d7>
    2e67: 85 2e        	sta	$2e                     ; 0x202e <textPrint+0x1f5>
    2e69: c8           	iny
    2e6a: b1 10        	lda	($10),y                 ; 0x2010 <textPrint+0x1d7>
    2e6c: 85 2d        	sta	$2d                     ; 0x202d <textPrint+0x1f4>
    2e6e: c8           	iny
    2e6f: b1 10        	lda	($10),y                 ; 0x2010 <textPrint+0x1d7>
    2e71: 85 2c        	sta	$2c                     ; 0x202c <textPrint+0x1f3>
    2e73: c8           	iny
    2e74: b1 10        	lda	($10),y                 ; 0x2010 <textPrint+0x1d7>
    2e76: 85 2b        	sta	$2b                     ; 0x202b <textPrint+0x1f2>
    2e78: c8           	iny
    2e79: b1 10        	lda	($10),y                 ; 0x2010 <textPrint+0x1d7>
    2e7b: 85 2a        	sta	$2a                     ; 0x202a <textPrint+0x1f1>
    2e7d: c8           	iny
    2e7e: b1 10        	lda	($10),y                 ; 0x2010 <textPrint+0x1d7>
    2e80: 85 29        	sta	$29                     ; 0x2029 <textPrint+0x1f0>
    2e82: c8           	iny
    2e83: b1 10        	lda	($10),y                 ; 0x2010 <textPrint+0x1d7>
    2e85: 85 28        	sta	$28                     ; 0x2028 <textPrint+0x1ef>
    2e87: fa           	plx
    2e88: 86 27        	stx	$27                     ; 0x2027 <textPrint+0x1ee>
    2e8a: fa           	plx
    2e8b: 86 26        	stx	$26                     ; 0x2026 <textPrint+0x1ed>
    2e8d: fa           	plx
    2e8e: 86 25        	stx	$25                     ; 0x2025 <textPrint+0x1ec>
    2e90: fa           	plx
    2e91: 86 24        	stx	$24                     ; 0x2024 <textPrint+0x1eb>
    2e93: 18           	clc
    2e94: a5 10        	lda	$10                     ; 0x2010 <textPrint+0x1d7>
    2e96: 69 2f        	adc	#$2f
    2e98: 85 10        	sta	$10                     ; 0x2010 <textPrint+0x1d7>
    2e9a: a5 11        	lda	$11                     ; 0x2011 <textPrint+0x1d8>
    2e9c: 69 00        	adc	#$0
    2e9e: 85 11        	sta	$11                     ; 0x2011 <textPrint+0x1d8>
    2ea0: 60           	rts

00002ea1 <_ZN12_GLOBAL__N_13putEcP6Status>:
    2ea1: a6 24        	ldx	$24                     ; 0x2024 <textPrint+0x1eb>
    2ea3: da           	phx
    2ea4: a6 25        	ldx	$25                     ; 0x2025 <textPrint+0x1ec>
    2ea6: da           	phx
    2ea7: 85 16        	sta	$16                     ; 0x2016 <textPrint+0x1dd>
    2ea9: a6 12        	ldx	$12                     ; 0x2012 <textPrint+0x1d9>
    2eab: 86 24        	stx	$24                     ; 0x2024 <textPrint+0x1eb>
    2ead: a6 13        	ldx	$13                     ; 0x2013 <textPrint+0x1da>
    2eaf: 86 25        	stx	$25                     ; 0x2025 <textPrint+0x1ec>
    2eb1: a6 25        	ldx	$25                     ; 0x2025 <textPrint+0x1ec>
    2eb3: 18           	clc
    2eb4: a5 12        	lda	$12                     ; 0x2012 <textPrint+0x1d9>
    2eb6: 69 05        	adc	#$5
    2eb8: a8           	tay
    2eb9: a5 25        	lda	$25                     ; 0x2025 <textPrint+0x1ec>
    2ebb: 86 13        	stx	$13                     ; 0x2013 <textPrint+0x1da>
    2ebd: 69 00        	adc	#$0
    2ebf: 18           	clc
    2ec0: 84 14        	sty	$14                     ; 0x2014 <textPrint+0x1db>
    2ec2: a0 05        	ldy	#$5
    2ec4: 85 15        	sta	$15                     ; 0x2015 <textPrint+0x1dc>
    2ec6: b1 24        	lda	($24),y                 ; 0x2024 <textPrint+0x1eb>
    2ec8: aa           	tax
    2ec9: a5 12        	lda	$12                     ; 0x2012 <textPrint+0x1d9>
    2ecb: 69 03        	adc	#$3
    2ecd: 85 12        	sta	$12                     ; 0x2012 <textPrint+0x1d9>
    2ecf: a5 13        	lda	$13                     ; 0x2013 <textPrint+0x1da>
    2ed1: 69 00        	adc	#$0
    2ed3: 85 13        	sta	$13                     ; 0x2013 <textPrint+0x1da>
    2ed5: a0 01        	ldy	#$1
    2ed7: b1 14        	lda	($14),y                 ; 0x2014 <textPrint+0x1db>
    2ed9: d1 12        	cmp	($12),y                 ; 0x2012 <textPrint+0x1d9>
    2edb: d0 11        	bne	$2eee <_ZN12_GLOBAL__N_13putEcP6Status+0x4d>
    2edd: a0 03        	ldy	#$3
    2edf: 85 15        	sta	$15                     ; 0x2015 <textPrint+0x1dc>
    2ee1: b1 24        	lda	($24),y                 ; 0x2024 <textPrint+0x1eb>
    2ee3: 85 12        	sta	$12                     ; 0x2012 <textPrint+0x1d9>
    2ee5: 86 14        	stx	$14                     ; 0x2014 <textPrint+0x1db>
    2ee7: e4 12        	cpx	$12                     ; 0x2012 <textPrint+0x1d9>
    2ee9: 90 0e        	bcc	$2ef9 <_ZN12_GLOBAL__N_13putEcP6Status+0x58>
    2eeb: 4c 54 2f     	jmp	$2f54 <_ZN12_GLOBAL__N_13putEcP6Status+0xb3>
    2eee: 86 14        	stx	$14                     ; 0x2014 <textPrint+0x1db>
    2ef0: d1 12        	cmp	($12),y                 ; 0x2012 <textPrint+0x1d9>
    2ef2: 85 15        	sta	$15                     ; 0x2015 <textPrint+0x1dc>
    2ef4: 90 03        	bcc	$2ef9 <_ZN12_GLOBAL__N_13putEcP6Status+0x58>
    2ef6: 4c 54 2f     	jmp	$2f54 <_ZN12_GLOBAL__N_13putEcP6Status+0xb3>
    2ef9: a0 0f        	ldy	#$f
    2efb: a5 24        	lda	$24                     ; 0x2024 <textPrint+0x1eb>
    2efd: 18           	clc
    2efe: 69 0f        	adc	#$f
    2f00: 85 12        	sta	$12                     ; 0x2012 <textPrint+0x1d9>
    2f02: a5 25        	lda	$25                     ; 0x2025 <textPrint+0x1ec>
    2f04: 69 00        	adc	#$0
    2f06: 85 13        	sta	$13                     ; 0x2013 <textPrint+0x1da>
    2f08: b1 24        	lda	($24),y                 ; 0x2024 <textPrint+0x1eb>
    2f0a: 85 17        	sta	$17                     ; 0x2017 <textPrint+0x1de>
    2f0c: a0 01        	ldy	#$1
    2f0e: b1 12        	lda	($12),y                 ; 0x2012 <textPrint+0x1d9>
    2f10: a2 00        	ldx	#$0
    2f12: 86 12        	stx	$12                     ; 0x2012 <textPrint+0x1d9>
    2f14: a2 00        	ldx	#$0
    2f16: 86 13        	stx	$13                     ; 0x2013 <textPrint+0x1da>
    2f18: c5 13        	cmp	$13                     ; 0x2013 <textPrint+0x1da>
    2f1a: d0 2b        	bne	$2f47 <_ZN12_GLOBAL__N_13putEcP6Status+0xa6>
    2f1c: a4 17        	ldy	$17                     ; 0x2017 <textPrint+0x1de>
    2f1e: c4 12        	cpy	$12                     ; 0x2012 <textPrint+0x1d9>
    2f20: d0 27        	bne	$2f49 <_ZN12_GLOBAL__N_13putEcP6Status+0xa8>
    2f22: a5 24        	lda	$24                     ; 0x2024 <textPrint+0x1eb>
    2f24: 18           	clc
    2f25: 69 09        	adc	#$9
    2f27: 85 12        	sta	$12                     ; 0x2012 <textPrint+0x1d9>
    2f29: a5 25        	lda	$25                     ; 0x2025 <textPrint+0x1ec>
    2f2b: 69 00        	adc	#$0
    2f2d: a0 09        	ldy	#$9
    2f2f: 85 13        	sta	$13                     ; 0x2013 <textPrint+0x1da>
    2f31: 18           	clc
    2f32: a5 14        	lda	$14                     ; 0x2014 <textPrint+0x1db>
    2f34: 71 24        	adc	($24),y                 ; 0x2024 <textPrint+0x1eb>
    2f36: aa           	tax
    2f37: a0 01        	ldy	#$1
    2f39: a5 15        	lda	$15                     ; 0x2015 <textPrint+0x1dc>
    2f3b: 71 12        	adc	($12),y                 ; 0x2012 <textPrint+0x1d9>
    2f3d: 86 12        	stx	$12                     ; 0x2012 <textPrint+0x1d9>
    2f3f: 85 13        	sta	$13                     ; 0x2013 <textPrint+0x1da>
    2f41: a5 16        	lda	$16                     ; 0x2016 <textPrint+0x1dd>
    2f43: 92 12        	sta	($12)                   ; 0x2012 <textPrint+0x1d9>
    2f45: 80 0d        	bra	$2f54 <_ZN12_GLOBAL__N_13putEcP6Status+0xb3>
    2f47: a4 17        	ldy	$17                     ; 0x2017 <textPrint+0x1de>
    2f49: 84 12        	sty	$12                     ; 0x2012 <textPrint+0x1d9>
    2f4b: 85 13        	sta	$13                     ; 0x2013 <textPrint+0x1da>
    2f4d: a2 00        	ldx	#$0
    2f4f: a5 16        	lda	$16                     ; 0x2016 <textPrint+0x1dd>
    2f51: 20 81 31     	jsr	$3181 <putc>
    2f54: a0 05        	ldy	#$5
    2f56: a5 24        	lda	$24                     ; 0x2024 <textPrint+0x1eb>
    2f58: 18           	clc
    2f59: 69 05        	adc	#$5
    2f5b: 85 12        	sta	$12                     ; 0x2012 <textPrint+0x1d9>
    2f5d: a5 25        	lda	$25                     ; 0x2025 <textPrint+0x1ec>
    2f5f: 69 00        	adc	#$0
    2f61: 85 13        	sta	$13                     ; 0x2013 <textPrint+0x1da>
    2f63: b1 24        	lda	($24),y                 ; 0x2024 <textPrint+0x1eb>
    2f65: aa           	tax
    2f66: a0 01        	ldy	#$1
    2f68: b1 12        	lda	($12),y                 ; 0x2012 <textPrint+0x1d9>
    2f6a: e8           	inx
    2f6b: d0 01        	bne	$2f6e <_ZN12_GLOBAL__N_13putEcP6Status+0xcd>
    2f6d: 1a           	inc
    2f6e: 85 14        	sta	$14                     ; 0x2014 <textPrint+0x1db>
    2f70: 8a           	txa
    2f71: a0 05        	ldy	#$5
    2f73: 91 24        	sta	($24),y                 ; 0x2024 <textPrint+0x1eb>
    2f75: a0 01        	ldy	#$1
    2f77: a5 14        	lda	$14                     ; 0x2014 <textPrint+0x1db>
    2f79: 91 12        	sta	($12),y                 ; 0x2012 <textPrint+0x1d9>
    2f7b: fa           	plx
    2f7c: 86 25        	stx	$25                     ; 0x2025 <textPrint+0x1ec>
    2f7e: fa           	plx
    2f7f: 86 24        	stx	$24                     ; 0x2024 <textPrint+0x1eb>
    2f81: 60           	rts

00002f82 <_ZN12_GLOBAL__N_112print_stringEPKcP6Status>:
    2f82: 18           	clc
    2f83: a5 10        	lda	$10                     ; 0x2010 <textPrint+0x1d7>
    2f85: 69 fc        	adc	#$fc
    2f87: 85 10        	sta	$10                     ; 0x2010 <textPrint+0x1d7>
    2f89: a5 11        	lda	$11                     ; 0x2011 <textPrint+0x1d8>
    2f8b: 69 ff        	adc	#$ff
    2f8d: 85 11        	sta	$11                     ; 0x2011 <textPrint+0x1d8>
    2f8f: a6 24        	ldx	$24                     ; 0x2024 <textPrint+0x1eb>
    2f91: da           	phx
    2f92: a6 25        	ldx	$25                     ; 0x2025 <textPrint+0x1ec>
    2f94: da           	phx
    2f95: a6 26        	ldx	$26                     ; 0x2026 <textPrint+0x1ed>
    2f97: da           	phx
    2f98: a6 27        	ldx	$27                     ; 0x2027 <textPrint+0x1ee>
    2f9a: da           	phx
    2f9b: a5 28        	lda	$28                     ; 0x2028 <textPrint+0x1ef>
    2f9d: a0 02        	ldy	#$2
    2f9f: 91 10        	sta	($10),y                 ; 0x2010 <textPrint+0x1d7>
    2fa1: a5 29        	lda	$29                     ; 0x2029 <textPrint+0x1f0>
    2fa3: 88           	dey
    2fa4: 91 10        	sta	($10),y                 ; 0x2010 <textPrint+0x1d7>
    2fa6: a5 2a        	lda	$2a                     ; 0x202a <textPrint+0x1f1>
    2fa8: 88           	dey
    2fa9: 91 10        	sta	($10),y                 ; 0x2010 <textPrint+0x1d7>
    2fab: a6 12        	ldx	$12                     ; 0x2012 <textPrint+0x1d9>
    2fad: 86 24        	stx	$24                     ; 0x2024 <textPrint+0x1eb>
    2faf: a6 13        	ldx	$13                     ; 0x2013 <textPrint+0x1da>
    2fb1: 86 25        	stx	$25                     ; 0x2025 <textPrint+0x1ec>
    2fb3: a6 14        	ldx	$14                     ; 0x2014 <textPrint+0x1db>
    2fb5: 86 26        	stx	$26                     ; 0x2026 <textPrint+0x1ed>
    2fb7: a6 15        	ldx	$15                     ; 0x2015 <textPrint+0x1dc>
    2fb9: 86 27        	stx	$27                     ; 0x2027 <textPrint+0x1ee>
    2fbb: a5 26        	lda	$26                     ; 0x2026 <textPrint+0x1ed>
    2fbd: 18           	clc
    2fbe: 69 0d        	adc	#$d
    2fc0: 85 12        	sta	$12                     ; 0x2012 <textPrint+0x1d9>
    2fc2: a5 27        	lda	$27                     ; 0x2027 <textPrint+0x1ee>
    2fc4: 69 00        	adc	#$0
    2fc6: 85 13        	sta	$13                     ; 0x2013 <textPrint+0x1da>
    2fc8: c8           	iny
    2fc9: b1 12        	lda	($12),y                 ; 0x2012 <textPrint+0x1d9>
    2fcb: 30 1c        	bmi	$2fe9 <_ZN12_GLOBAL__N_112print_stringEPKcP6Status+0x67>
    2fcd: a0 0d        	ldy	#$d
    2fcf: aa           	tax
    2fd0: b1 26        	lda	($26),y                 ; 0x2026 <textPrint+0x1ed>
    2fd2: 48           	pha
    2fd3: 8a           	txa
    2fd4: a0 03        	ldy	#$3
    2fd6: 91 10        	sta	($10),y                 ; 0x2010 <textPrint+0x1d7>
    2fd8: 68           	pla
    2fd9: e0 00        	cpx	#$0
    2fdb: d0 16        	bne	$2ff3 <_ZN12_GLOBAL__N_112print_stringEPKcP6Status+0x71>
    2fdd: aa           	tax
    2fde: d0 13        	bne	$2ff3 <_ZN12_GLOBAL__N_112print_stringEPKcP6Status+0x71>
    2fe0: 64 28        	stz	$28                     ; 0x2028 <textPrint+0x1ef>
    2fe2: 64 12        	stz	$12                     ; 0x2012 <textPrint+0x1d9>
    2fe4: a9 00        	lda	#$0
    2fe6: 4c f1 30     	jmp	$30f1 <_ZN12_GLOBAL__N_112print_stringEPKcP6Status+0x16f>
    2fe9: a9 ff        	lda	#$ff
    2feb: aa           	tax
    2fec: 48           	pha
    2fed: 8a           	txa
    2fee: a0 03        	ldy	#$3
    2ff0: 91 10        	sta	($10),y                 ; 0x2010 <textPrint+0x1d7>
    2ff2: 68           	pla
    2ff3: 85 28        	sta	$28                     ; 0x2028 <textPrint+0x1ef>
    2ff5: 64 12        	stz	$12                     ; 0x2012 <textPrint+0x1d9>
    2ff7: a4 24        	ldy	$24                     ; 0x2024 <textPrint+0x1eb>
    2ff9: a6 25        	ldx	$25                     ; 0x2025 <textPrint+0x1ec>
    2ffb: 86 16        	stx	$16                     ; 0x2016 <textPrint+0x1dd>
    2ffd: 64 13        	stz	$13                     ; 0x2013 <textPrint+0x1da>
    2fff: 98           	tya
    3000: 18           	clc
    3001: 65 12        	adc	$12                     ; 0x2012 <textPrint+0x1d9>
    3003: 85 14        	sta	$14                     ; 0x2014 <textPrint+0x1db>
    3005: a5 25        	lda	$25                     ; 0x2025 <textPrint+0x1ec>
    3007: 65 13        	adc	$13                     ; 0x2013 <textPrint+0x1da>
    3009: 85 15        	sta	$15                     ; 0x2015 <textPrint+0x1dc>
    300b: b2 14        	lda	($14)                   ; 0x2014 <textPrint+0x1db>
    300d: d0 03        	bne	$3012 <_ZN12_GLOBAL__N_112print_stringEPKcP6Status+0x90>
    300f: 4c e9 30     	jmp	$30e9 <_ZN12_GLOBAL__N_112print_stringEPKcP6Status+0x167>
    3012: e6 12        	inc	$12                     ; 0x2012 <textPrint+0x1d9>
    3014: d0 02        	bne	$3018 <_ZN12_GLOBAL__N_112print_stringEPKcP6Status+0x96>
    3016: e6 13        	inc	$13                     ; 0x2013 <textPrint+0x1da>
    3018: 5a           	phy
    3019: a0 03        	ldy	#$3
    301b: b1 10        	lda	($10),y                 ; 0x2010 <textPrint+0x1d7>
    301d: 7a           	ply
    301e: c5 13        	cmp	$13                     ; 0x2013 <textPrint+0x1da>
    3020: d0 dd        	bne	$2fff <_ZN12_GLOBAL__N_112print_stringEPKcP6Status+0x7d>
    3022: a6 28        	ldx	$28                     ; 0x2028 <textPrint+0x1ef>
    3024: e4 12        	cpx	$12                     ; 0x2012 <textPrint+0x1d9>
    3026: d0 d7        	bne	$2fff <_ZN12_GLOBAL__N_112print_stringEPKcP6Status+0x7d>
    3028: a0 01        	ldy	#$1
    302a: b1 26        	lda	($26),y                 ; 0x2026 <textPrint+0x1ed>
    302c: 29 01        	and	#$1
    302e: f0 03        	beq	$3033 <_ZN12_GLOBAL__N_112print_stringEPKcP6Status+0xb1>
    3030: 4c 8e 30     	jmp	$308e <_ZN12_GLOBAL__N_112print_stringEPKcP6Status+0x10c>
    3033: a5 26        	lda	$26                     ; 0x2026 <textPrint+0x1ed>
    3035: 18           	clc
    3036: 69 0b        	adc	#$b
    3038: 85 14        	sta	$14                     ; 0x2014 <textPrint+0x1db>
    303a: a5 27        	lda	$27                     ; 0x2027 <textPrint+0x1ee>
    303c: 69 00        	adc	#$0
    303e: 85 15        	sta	$15                     ; 0x2015 <textPrint+0x1dc>
    3040: a0 0b        	ldy	#$b
    3042: b1 26        	lda	($26),y                 ; 0x2026 <textPrint+0x1ed>
    3044: 85 13        	sta	$13                     ; 0x2013 <textPrint+0x1da>
    3046: a0 01        	ldy	#$1
    3048: b1 14        	lda	($14),y                 ; 0x2014 <textPrint+0x1db>
    304a: 85 12        	sta	$12                     ; 0x2012 <textPrint+0x1d9>
    304c: a0 03        	ldy	#$3
    304e: b1 10        	lda	($10),y                 ; 0x2010 <textPrint+0x1d7>
    3050: aa           	tax
    3051: c5 12        	cmp	$12                     ; 0x2012 <textPrint+0x1d9>
    3053: d0 08        	bne	$305d <_ZN12_GLOBAL__N_112print_stringEPKcP6Status+0xdb>
    3055: a6 28        	ldx	$28                     ; 0x2028 <textPrint+0x1ef>
    3057: e4 13        	cpx	$13                     ; 0x2013 <textPrint+0x1da>
    3059: 90 06        	bcc	$3061 <_ZN12_GLOBAL__N_112print_stringEPKcP6Status+0xdf>
    305b: 80 31        	bra	$308e <_ZN12_GLOBAL__N_112print_stringEPKcP6Status+0x10c>
    305d: e4 12        	cpx	$12                     ; 0x2012 <textPrint+0x1d9>
    305f: b0 2d        	bcs	$308e <_ZN12_GLOBAL__N_112print_stringEPKcP6Status+0x10c>
    3061: 38           	sec
    3062: a5 28        	lda	$28                     ; 0x2028 <textPrint+0x1ef>
    3064: e5 13        	sbc	$13                     ; 0x2013 <textPrint+0x1da>
    3066: aa           	tax
    3067: b1 10        	lda	($10),y                 ; 0x2010 <textPrint+0x1d7>
    3069: e5 12        	sbc	$12                     ; 0x2012 <textPrint+0x1d9>
    306b: 85 2a        	sta	$2a                     ; 0x202a <textPrint+0x1f1>
    306d: a4 26        	ldy	$26                     ; 0x2026 <textPrint+0x1ed>
    306f: 84 12        	sty	$12                     ; 0x2012 <textPrint+0x1d9>
    3071: a4 27        	ldy	$27                     ; 0x2027 <textPrint+0x1ee>
    3073: 84 13        	sty	$13                     ; 0x2013 <textPrint+0x1da>
    3075: 86 29        	stx	$29                     ; 0x2029 <textPrint+0x1f0>
    3077: a9 20        	lda	#$20
    3079: 20 a1 2e     	jsr	$2ea1 <_ZN12_GLOBAL__N_13putEcP6Status>
    307c: a4 2a        	ldy	$2a                     ; 0x202a <textPrint+0x1f1>
    307e: e6 29        	inc	$29                     ; 0x2029 <textPrint+0x1f0>
    3080: d0 01        	bne	$3083 <_ZN12_GLOBAL__N_112print_stringEPKcP6Status+0x101>
    3082: c8           	iny
    3083: 84 2a        	sty	$2a                     ; 0x202a <textPrint+0x1f1>
    3085: a6 29        	ldx	$29                     ; 0x2029 <textPrint+0x1f0>
    3087: 98           	tya
    3088: d0 e3        	bne	$306d <_ZN12_GLOBAL__N_112print_stringEPKcP6Status+0xeb>
    308a: a5 29        	lda	$29                     ; 0x2029 <textPrint+0x1f0>
    308c: d0 df        	bne	$306d <_ZN12_GLOBAL__N_112print_stringEPKcP6Status+0xeb>
    308e: a0 03        	ldy	#$3
    3090: b1 10        	lda	($10),y                 ; 0x2010 <textPrint+0x1d7>
    3092: a8           	tay
    3093: d0 04        	bne	$3099 <_ZN12_GLOBAL__N_112print_stringEPKcP6Status+0x117>
    3095: a5 28        	lda	$28                     ; 0x2028 <textPrint+0x1ef>
    3097: f0 26        	beq	$30bf <_ZN12_GLOBAL__N_112print_stringEPKcP6Status+0x13d>
    3099: a2 ff        	ldx	#$ff
    309b: c6 28        	dec	$28                     ; 0x2028 <textPrint+0x1ef>
    309d: e4 28        	cpx	$28                     ; 0x2028 <textPrint+0x1ef>
    309f: d0 01        	bne	$30a2 <_ZN12_GLOBAL__N_112print_stringEPKcP6Status+0x120>
    30a1: 88           	dey
    30a2: 84 29        	sty	$29                     ; 0x2029 <textPrint+0x1f0>
    30a4: b2 24        	lda	($24)                   ; 0x2024 <textPrint+0x1eb>
    30a6: e6 24        	inc	$24                     ; 0x2024 <textPrint+0x1eb>
    30a8: d0 02        	bne	$30ac <_ZN12_GLOBAL__N_112print_stringEPKcP6Status+0x12a>
    30aa: e6 25        	inc	$25                     ; 0x2025 <textPrint+0x1ec>
    30ac: a6 26        	ldx	$26                     ; 0x2026 <textPrint+0x1ed>
    30ae: 86 12        	stx	$12                     ; 0x2012 <textPrint+0x1d9>
    30b0: a6 27        	ldx	$27                     ; 0x2027 <textPrint+0x1ee>
    30b2: 86 13        	stx	$13                     ; 0x2013 <textPrint+0x1da>
    30b4: 20 a1 2e     	jsr	$2ea1 <_ZN12_GLOBAL__N_13putEcP6Status>
    30b7: a4 29        	ldy	$29                     ; 0x2029 <textPrint+0x1f0>
    30b9: d0 de        	bne	$3099 <_ZN12_GLOBAL__N_112print_stringEPKcP6Status+0x117>
    30bb: a5 28        	lda	$28                     ; 0x2028 <textPrint+0x1ef>
    30bd: d0 da        	bne	$3099 <_ZN12_GLOBAL__N_112print_stringEPKcP6Status+0x117>
    30bf: a0 00        	ldy	#$0
    30c1: b1 10        	lda	($10),y                 ; 0x2010 <textPrint+0x1d7>
    30c3: 85 2a        	sta	$2a                     ; 0x202a <textPrint+0x1f1>
    30c5: c8           	iny
    30c6: b1 10        	lda	($10),y                 ; 0x2010 <textPrint+0x1d7>
    30c8: 85 29        	sta	$29                     ; 0x2029 <textPrint+0x1f0>
    30ca: c8           	iny
    30cb: b1 10        	lda	($10),y                 ; 0x2010 <textPrint+0x1d7>
    30cd: 85 28        	sta	$28                     ; 0x2028 <textPrint+0x1ef>
    30cf: fa           	plx
    30d0: 86 27        	stx	$27                     ; 0x2027 <textPrint+0x1ee>
    30d2: fa           	plx
    30d3: 86 26        	stx	$26                     ; 0x2026 <textPrint+0x1ed>
    30d5: fa           	plx
    30d6: 86 25        	stx	$25                     ; 0x2025 <textPrint+0x1ec>
    30d8: fa           	plx
    30d9: 86 24        	stx	$24                     ; 0x2024 <textPrint+0x1eb>
    30db: 18           	clc
    30dc: a5 10        	lda	$10                     ; 0x2010 <textPrint+0x1d7>
    30de: 69 04        	adc	#$4
    30e0: 85 10        	sta	$10                     ; 0x2010 <textPrint+0x1d7>
    30e2: a5 11        	lda	$11                     ; 0x2011 <textPrint+0x1d8>
    30e4: 69 00        	adc	#$0
    30e6: 85 11        	sta	$11                     ; 0x2011 <textPrint+0x1d8>
    30e8: 60           	rts
    30e9: a6 12        	ldx	$12                     ; 0x2012 <textPrint+0x1d9>
    30eb: 86 28        	stx	$28                     ; 0x2028 <textPrint+0x1ef>
    30ed: a5 13        	lda	$13                     ; 0x2013 <textPrint+0x1da>
    30ef: a0 03        	ldy	#$3
    30f1: 91 10        	sta	($10),y                 ; 0x2010 <textPrint+0x1d7>
    30f3: 4c 28 30     	jmp	$3028 <_ZN12_GLOBAL__N_112print_stringEPKcP6Status+0xa6>

000030f6 <printf>:
    30f6: 18           	clc
    30f7: a5 10        	lda	$10                     ; 0x2010 <textPrint+0x1d7>
    30f9: 69 fe        	adc	#$fe
    30fb: 85 10        	sta	$10                     ; 0x2010 <textPrint+0x1d7>
    30fd: a5 11        	lda	$11                     ; 0x2011 <textPrint+0x1d8>
    30ff: 69 ff        	adc	#$ff
    3101: 85 11        	sta	$11                     ; 0x2011 <textPrint+0x1d8>
    3103: a6 12        	ldx	$12                     ; 0x2012 <textPrint+0x1d9>
    3105: 86 14        	stx	$14                     ; 0x2014 <textPrint+0x1db>
    3107: a6 13        	ldx	$13                     ; 0x2013 <textPrint+0x1da>
    3109: 86 15        	stx	$15                     ; 0x2015 <textPrint+0x1dc>
    310b: 18           	clc
    310c: a5 10        	lda	$10                     ; 0x2010 <textPrint+0x1d7>
    310e: 69 02        	adc	#$2
    3110: 48           	pha
    3111: a5 11        	lda	$11                     ; 0x2011 <textPrint+0x1d8>
    3113: 69 00        	adc	#$0
    3115: 85 12        	sta	$12                     ; 0x2012 <textPrint+0x1d9>
    3117: 68           	pla
    3118: 18           	clc
    3119: a6 10        	ldx	$10                     ; 0x2010 <textPrint+0x1d7>
    311b: 86 16        	stx	$16                     ; 0x2016 <textPrint+0x1dd>
    311d: a6 11        	ldx	$11                     ; 0x2011 <textPrint+0x1d8>
    311f: 86 17        	stx	$17                     ; 0x2017 <textPrint+0x1de>
    3121: 92 16        	sta	($16)                   ; 0x2016 <textPrint+0x1dd>
    3123: a0 01        	ldy	#$1
    3125: a5 12        	lda	$12                     ; 0x2012 <textPrint+0x1d9>
    3127: 91 16        	sta	($16),y                 ; 0x2016 <textPrint+0x1dd>
    3129: ae 0a 3a     	ldx	$3a0a                   ; 0x3a0a <stdout>
    312c: ad 0b 3a     	lda	$3a0b                   ; 0x3a0b <stdout+0x1>
    312f: 86 12        	stx	$12                     ; 0x2012 <textPrint+0x1d9>
    3131: 85 13        	sta	$13                     ; 0x2013 <textPrint+0x1da>
    3133: b2 16        	lda	($16)                   ; 0x2016 <textPrint+0x1dd>
    3135: aa           	tax
    3136: b1 16        	lda	($16),y                 ; 0x2016 <textPrint+0x1dd>
    3138: 86 16        	stx	$16                     ; 0x2016 <textPrint+0x1dd>
    313a: 85 17        	sta	$17                     ; 0x2017 <textPrint+0x1de>
    313c: 20 45 21     	jsr	$2145 <vfprintf>
    313f: 48           	pha
    3140: 18           	clc
    3141: a5 10        	lda	$10                     ; 0x2010 <textPrint+0x1d7>
    3143: 69 02        	adc	#$2
    3145: 85 10        	sta	$10                     ; 0x2010 <textPrint+0x1d7>
    3147: a5 11        	lda	$11                     ; 0x2011 <textPrint+0x1d8>
    3149: 69 00        	adc	#$0
    314b: 85 11        	sta	$11                     ; 0x2011 <textPrint+0x1d8>
    314d: 68           	pla
    314e: 60           	rts

0000314f <fputc>:
    314f: 4c 52 31     	jmp	$3152 <putchar>

00003152 <putchar>:
    3152: a4 24        	ldy	$24                     ; 0x2024 <textPrint+0x1eb>
    3154: 5a           	phy
    3155: a4 25        	ldy	$25                     ; 0x2025 <textPrint+0x1ec>
    3157: 5a           	phy
    3158: 85 24        	sta	$24                     ; 0x2024 <textPrint+0x1eb>
    315a: 86 25        	stx	$25                     ; 0x2025 <textPrint+0x1ec>
    315c: a2 00        	ldx	#$0
    315e: 86 12        	stx	$12                     ; 0x2012 <textPrint+0x1d9>
    3160: a2 00        	ldx	#$0
    3162: 86 13        	stx	$13                     ; 0x2013 <textPrint+0x1da>
    3164: a2 7a        	ldx	#$7a
    3166: 86 14        	stx	$14                     ; 0x2014 <textPrint+0x1db>
    3168: a2 31        	ldx	#$31
    316a: 86 15        	stx	$15                     ; 0x2015 <textPrint+0x1dc>
    316c: 20 84 31     	jsr	$3184 <__from_ascii>
    316f: a6 25        	ldx	$25                     ; 0x2025 <textPrint+0x1ec>
    3171: a5 24        	lda	$24                     ; 0x2024 <textPrint+0x1eb>
    3173: 7a           	ply
    3174: 84 25        	sty	$25                     ; 0x2025 <textPrint+0x1ec>
    3176: 7a           	ply
    3177: 84 24        	sty	$24                     ; 0x2024 <textPrint+0x1eb>
    3179: 60           	rts

0000317a <putchar_wrapper>:
    317a: 20 93 20     	jsr	$2093 <__putchar>
    317d: a2 00        	ldx	#$0
    317f: 8a           	txa
    3180: 60           	rts

00003181 <putc>:
    3181: 4c 4f 31     	jmp	$314f <fputc>

00003184 <__from_ascii>:
    3184: a6 14        	ldx	$14                     ; 0x2014 <textPrint+0x1db>
    3186: 86 22        	stx	$22                     ; 0x2022 <textPrint+0x1e9>
    3188: a6 15        	ldx	$15                     ; 0x2015 <textPrint+0x1dc>
    318a: 86 23        	stx	$23                     ; 0x2023 <textPrint+0x1ea>
    318c: 4c 15 04     	jmp	$415 <__call_indir>

0000318f <memcpy>:
    318f: a8           	tay
    3190: 8a           	txa
    3191: d0 03        	bne	$3196 <memcpy+0x7>
    3193: 98           	tya
    3194: f0 24        	beq	$31ba <memcpy+0x2b>
    3196: a5 12        	lda	$12                     ; 0x2012 <textPrint+0x1d9>
    3198: 85 16        	sta	$16                     ; 0x2016 <textPrint+0x1dd>
    319a: a5 13        	lda	$13                     ; 0x2013 <textPrint+0x1da>
    319c: 85 17        	sta	$17                     ; 0x2017 <textPrint+0x1de>
    319e: b2 14        	lda	($14)                   ; 0x2014 <textPrint+0x1db>
    31a0: 92 16        	sta	($16)                   ; 0x2016 <textPrint+0x1dd>
    31a2: e6 16        	inc	$16                     ; 0x2016 <textPrint+0x1dd>
    31a4: d0 02        	bne	$31a8 <memcpy+0x19>
    31a6: e6 17        	inc	$17                     ; 0x2017 <textPrint+0x1de>
    31a8: e6 14        	inc	$14                     ; 0x2014 <textPrint+0x1db>
    31aa: d0 02        	bne	$31ae <memcpy+0x1f>
    31ac: e6 15        	inc	$15                     ; 0x2015 <textPrint+0x1dc>
    31ae: 88           	dey
    31af: c0 ff        	cpy	#$ff
    31b1: d0 01        	bne	$31b4 <memcpy+0x25>
    31b3: ca           	dex
    31b4: 8a           	txa
    31b5: d0 e7        	bne	$319e <memcpy+0xf>
    31b7: 98           	tya
    31b8: d0 e4        	bne	$319e <memcpy+0xf>
    31ba: 60           	rts

000031bb <__memset>:
    31bb: a4 14        	ldy	$14                     ; 0x2014 <textPrint+0x1db>
    31bd: d0 04        	bne	$31c3 <__memset+0x8>
    31bf: e0 00        	cpx	#$0
    31c1: f0 17        	beq	$31da <__memset+0x1f>
    31c3: 92 12        	sta	($12)                   ; 0x2012 <textPrint+0x1d9>
    31c5: e6 12        	inc	$12                     ; 0x2012 <textPrint+0x1d9>
    31c7: d0 02        	bne	$31cb <__memset+0x10>
    31c9: e6 13        	inc	$13                     ; 0x2013 <textPrint+0x1da>
    31cb: ca           	dex
    31cc: e0 ff        	cpx	#$ff
    31ce: d0 02        	bne	$31d2 <__memset+0x17>
    31d0: c6 14        	dec	$14                     ; 0x2014 <textPrint+0x1db>
    31d2: a4 14        	ldy	$14                     ; 0x2014 <textPrint+0x1db>
    31d4: d0 ed        	bne	$31c3 <__memset+0x8>
    31d6: e0 00        	cpx	#$0
    31d8: d0 e9        	bne	$31c3 <__memset+0x8>
    31da: 60           	rts

000031db <__simple_strtoui>:
    31db: a9 d0        	lda	#$d0
    31dd: 18           	clc
    31de: 72 12        	adc	($12)                   ; 0x2012 <textPrint+0x1d9>
    31e0: c9 0a        	cmp	#$a
    31e2: 90 03        	bcc	$31e7 <__simple_strtoui+0xc>
    31e4: 4c 38 32     	jmp	$3238 <__simple_strtoui+0x5d>
    31e7: b2 12        	lda	($12)                   ; 0x2012 <textPrint+0x1d9>
    31e9: 64 16        	stz	$16                     ; 0x2016 <textPrint+0x1dd>
    31eb: a0 01        	ldy	#$1
    31ed: 85 17        	sta	$17                     ; 0x2017 <textPrint+0x1de>
    31ef: 64 18        	stz	$18                     ; 0x2018 <textPrint+0x1df>
    31f1: a2 00        	ldx	#$0
    31f3: 06 18        	asl	$18                     ; 0x2018 <textPrint+0x1df>
    31f5: 8a           	txa
    31f6: 2a           	rol
    31f7: 85 19        	sta	$19                     ; 0x2019 <textPrint+0x1e0>
    31f9: a5 18        	lda	$18                     ; 0x2018 <textPrint+0x1df>
    31fb: 0a           	asl
    31fc: a6 19        	ldx	$19                     ; 0x2019 <textPrint+0x1e0>
    31fe: 86 1a        	stx	$1a                     ; 0x201a <textPrint+0x1e1>
    3200: 26 1a        	rol	$1a                     ; 0x201a <textPrint+0x1e1>
    3202: 0a           	asl
    3203: 26 1a        	rol	$1a                     ; 0x201a <textPrint+0x1e1>
    3205: 18           	clc
    3206: 65 18        	adc	$18                     ; 0x2018 <textPrint+0x1df>
    3208: aa           	tax
    3209: a5 1a        	lda	$1a                     ; 0x201a <textPrint+0x1e1>
    320b: 65 19        	adc	$19                     ; 0x2019 <textPrint+0x1e0>
    320d: 85 18        	sta	$18                     ; 0x2018 <textPrint+0x1df>
    320f: 8a           	txa
    3210: 18           	clc
    3211: 65 17        	adc	$17                     ; 0x2017 <textPrint+0x1de>
    3213: 85 17        	sta	$17                     ; 0x2017 <textPrint+0x1de>
    3215: a5 18        	lda	$18                     ; 0x2018 <textPrint+0x1df>
    3217: 65 16        	adc	$16                     ; 0x2016 <textPrint+0x1dd>
    3219: aa           	tax
    321a: 18           	clc
    321b: a5 17        	lda	$17                     ; 0x2017 <textPrint+0x1de>
    321d: 69 d0        	adc	#$d0
    321f: 85 18        	sta	$18                     ; 0x2018 <textPrint+0x1df>
    3221: 8a           	txa
    3222: 69 ff        	adc	#$ff
    3224: aa           	tax
    3225: b1 12        	lda	($12),y                 ; 0x2012 <textPrint+0x1d9>
    3227: 85 17        	sta	$17                     ; 0x2017 <textPrint+0x1de>
    3229: 18           	clc
    322a: 69 d0        	adc	#$d0
    322c: e6 12        	inc	$12                     ; 0x2012 <textPrint+0x1d9>
    322e: d0 02        	bne	$3232 <__simple_strtoui+0x57>
    3230: e6 13        	inc	$13                     ; 0x2013 <textPrint+0x1da>
    3232: c9 0a        	cmp	#$a
    3234: 90 bd        	bcc	$31f3 <__simple_strtoui+0x18>
    3236: 80 04        	bra	$323c <__simple_strtoui+0x61>
    3238: 64 18        	stz	$18                     ; 0x2018 <textPrint+0x1df>
    323a: a2 00        	ldx	#$0
    323c: a5 12        	lda	$12                     ; 0x2012 <textPrint+0x1d9>
    323e: 92 14        	sta	($14)                   ; 0x2014 <textPrint+0x1db>
    3240: a0 01        	ldy	#$1
    3242: a5 13        	lda	$13                     ; 0x2013 <textPrint+0x1da>
    3244: 91 14        	sta	($14),y                 ; 0x2014 <textPrint+0x1db>
    3246: a5 18        	lda	$18                     ; 0x2018 <textPrint+0x1df>
    3248: 60           	rts

00003249 <__mulhi3>:
    3249: a4 13        	ldy	$13                     ; 0x2013 <textPrint+0x1da>
    324b: d0 04        	bne	$3251 <__mulhi3+0x8>
    324d: a4 12        	ldy	$12                     ; 0x2012 <textPrint+0x1d9>
    324f: f0 25        	beq	$3276 <__mulhi3+0x2d>
    3251: 85 14        	sta	$14                     ; 0x2014 <textPrint+0x1db>
    3253: 86 15        	stx	$15                     ; 0x2015 <textPrint+0x1dc>
    3255: a0 00        	ldy	#$0
    3257: 98           	tya
    3258: 46 13        	lsr	$13                     ; 0x2013 <textPrint+0x1da>
    325a: 66 12        	ror	$12                     ; 0x2012 <textPrint+0x1d9>
    325c: 90 09        	bcc	$3267 <__mulhi3+0x1e>
    325e: aa           	tax
    325f: 98           	tya
    3260: 18           	clc
    3261: 65 14        	adc	$14                     ; 0x2014 <textPrint+0x1db>
    3263: a8           	tay
    3264: 8a           	txa
    3265: 65 15        	adc	$15                     ; 0x2015 <textPrint+0x1dc>
    3267: 06 14        	asl	$14                     ; 0x2014 <textPrint+0x1db>
    3269: 26 15        	rol	$15                     ; 0x2015 <textPrint+0x1dc>
    326b: a6 13        	ldx	$13                     ; 0x2013 <textPrint+0x1da>
    326d: d0 e9        	bne	$3258 <__mulhi3+0xf>
    326f: a6 12        	ldx	$12                     ; 0x2012 <textPrint+0x1d9>
    3271: d0 e5        	bne	$3258 <__mulhi3+0xf>
    3273: aa           	tax
    3274: 98           	tya
    3275: 60           	rts
    3276: a0 00        	ldy	#$0
    3278: 98           	tya
    3279: 80 f8        	bra	$3273 <__mulhi3+0x2a>
