
BachHero.elf:	file format elf32-mos

SYMBOL TABLE:
00000000 l    df *ABS*	00000000 zero-bss.c
00000000 l    df *ABS*	00000000 zero-zp-bss.c
00000000 l    df *ABS*	00000000 copy-zp-data.c
00000000 l    df *ABS*	00000000 ld-temp.o
00000357 l     F .text	0000034d f256Init
00000091 l     O .zp.bss	00000007 kernelEventData
00002fd3 l     O .rodata	00000030 textColors
000006a4 l     F .text	0000009a textClear
00000042 l     O .zp.bss	00000001 _MAX_X
00000040 l     O .zp.bss	00000001 _active
00000041 l     O .zp.bss	00000001 _color
00000034 l     O .zp.bss	0000000c _BITMAP_BASE
00003700 l     O .bss	00000003 _BITMAP_CLUT
00000043 l     O .zp.bss	00000001 _tileSize.0
00000044 l     O .zp.bss	00000001 _tileSize.1
00000045 l     O .zp.bss	00000001 _tileSize.2
00000046 l     O .zp.bss	00000040 _spriteCtl
00003703 l     O .bss	00000001 kernelError
00000032 l     O .zp.bss	00000001 _col
00000033 l     O .zp.bss	00000001 _row
00000744 l     F .text	00001467 f256main
0000008b l     O .zp.bss	00000001 GUITimer.1
0000008c l     O .zp.bss	00000001 midiTimer.1
0000008d l     O .zp.bss	00000001 glassesTimer.1
00001bab l     F .text	00000438 bitmapLine
0000008e l     O .zp.bss	00000001 scrollTimer.1
00002380 l     F .text	00000bb0 printf
00000088 l     O .zp.bss	00000001 score
0000008a l     O .zp.bss	00000001 midiPSG
0000008f l     O .zp.bss	00000002 songrefnote
00003003 l     O .rodata	00000080 MIDINotesToKeyCodes
000030fe l     O .rodata	0000007b KeyCodesToLoPSG
00003179 l     O .rodata	0000007b KeyCodesToHiPSG
00003294 l     O .rodata	00000052 songNotes
000031f4 l     O .rodata	000000a0 NoteXPosition
00002f30 l     F .text	0000000c putchar
00000089 l     O .zp.bss	00000001 reticX
00000030 l     O .zp.data	00000002 reticY
00003083 l     O .rodata	0000007b KeyCodesToMIDINotes
000032e6 l     O .rodata	00000200 SIN
00001fe3 l     F .text	000001ba __putchar
00000086 l     O .zp.bss	00000002 __putchar.s
000021a2 l     F .text	000000d1 _ZN12_GLOBAL__N_13putEcP6Status
00002273 l     F .text	0000010d _ZN12_GLOBAL__N_112print_stringEPKcP6Status
0000073e g     F .text	00000006 main
00018000 g       .xab	00000000 xab_start
00048000 g       .tileset2	00000000 tileset2_start
00039640 g       .psgmap	00000000 psgmap_end
00040000 g       .tileset1	00000000 tileset1_start
00038400 g       .glasses2	00000000 glasses2_start
0004ff00 g       .tileset2	00000000 tileset2_end
00038f20 g       .psgmap	00000000 psgmap_start
00038400 g       .glasses1	00000000 glasses1_end
00010000 g       .xaa	00000000 xaa_start
00028000 g       .palbach	00000000 palbach_start
00028400 g       .palbach	00000000 palbach_end
00020000 g       .xac	00000000 xac_start
00018000 g       .xaa	00000000 xaa_end
00038800 g       .glasses2	00000000 glasses2_end
00028800 g       .ntespr	00000000 ntespr_start
00022c00 g       .xac	00000000 xac_end
00028400 g       .paltile	00000000 paltile_start
00020000 g       .xab	00000000 xab_end
00028800 g       .paltile	00000000 paltile_end
00038000 g       .glasses1	00000000 glasses1_start
00038800 g       .tilemap	00000000 tilemap_start
00048000 g       .tileset1	00000000 tileset1_end
00028840 g       .ntespr	00000000 ntespr_end
00038f20 g       .tilemap	00000000 tilemap_end
00000316 g       .text	00000000 __after_main
00000302 g       .text	00000000 __do_init_stack
00000310 g       .text	00000000 __do_copy_zp_data
00000340 g     F .text	00000017 __copy_zp_data
0000030a g       .text	00000000 __do_zero_bss
0000031a g     F .text	00000013 __zero_bss
0000030d g       .text	00000000 __do_zero_zp_bss
0000032d g     F .text	00000013 __zero_zp_bss
0000219d g     F .text	00000005 exit
00000319 g       .text	00000000 _fini
00002f88 g       .rodata	00000000 __set_v
00002f68  w    F .text	00000020 __memset
00001000  w      *ABS*	00000000 __heap_default_limit
00003704 g       .noinit	00000000 __heap_start
00002f3c  w    F .text	0000002c memcpy
00000010 g       *ABS*	00000000 __rc0
00000012 g       *ABS*	00000000 __rc2
00000014 g       *ABS*	00000000 __rc4
00000016 g       *ABS*	00000000 __rc6
00000018 g       *ABS*	00000000 __rc8
0000001a g       *ABS*	00000000 __rc10
0000001c g       *ABS*	00000000 __rc12
0000001e g       *ABS*	00000000 __rc14
00000020 g       *ABS*	00000000 __rc16
00000022 g       *ABS*	00000000 __rc18
00000024 g       *ABS*	00000000 __rc20
00000026 g       *ABS*	00000000 __rc22
00000028 g       *ABS*	00000000 __rc24
0000002a g       *ABS*	00000000 __rc26
0000002c g       *ABS*	00000000 __rc28
0000002e g       *ABS*	00000000 __rc30
0000002f g       *ABS*	00000000 __rc31
00000300 g       *ABS*	00000000 __f256_start
0000a000 g       *ABS*	00000000 __stack
0000a000 g       *ABS*	00000000 __SLOT_ADDR
0800a000 g       *ABS*	00000000 __block8_lma
00002000 g       *ABS*	00000000 __BLOCK_SIZE
0900a000 g       *ABS*	00000000 __block9_lma
0a00a000 g       *ABS*	00000000 __block10_lma
0b00a000 g       *ABS*	00000000 __block11_lma
0c00a000 g       *ABS*	00000000 __block12_lma
0d00a000 g       *ABS*	00000000 __block13_lma
0e00a000 g       *ABS*	00000000 __block14_lma
0f00a000 g       *ABS*	00000000 __block15_lma
1000a000 g       *ABS*	00000000 __block16_lma
1100a000 g       *ABS*	00000000 __block17_lma
1200a000 g       *ABS*	00000000 __block18_lma
1300a000 g       *ABS*	00000000 __block19_lma
1400a000 g       *ABS*	00000000 __block20_lma
1500a000 g       *ABS*	00000000 __block21_lma
1600a000 g       *ABS*	00000000 __block22_lma
1700a000 g       *ABS*	00000000 __block23_lma
00010000 g       *ABS*	00000000 __xaa_lma
00008000 g       *ABS*	00000000 __xaa_size
00018000 g       *ABS*	00000000 __xab_lma
00008000 g       *ABS*	00000000 __xab_size
00020000 g       *ABS*	00000000 __xac_lma
00002c00 g       *ABS*	00000000 __xac_size
00028000 g       *ABS*	00000000 __palbach_lma
00000400 g       *ABS*	00000000 __palbach_size
00028400 g       *ABS*	00000000 __paltile_lma
00000400 g       *ABS*	00000000 __paltile_size
00028800 g       *ABS*	00000000 __ntespr_lma
00000040 g       *ABS*	00000000 __ntespr_size
00038000 g       *ABS*	00000000 __glasses1_lma
00000400 g       *ABS*	00000000 __glasses1_size
00038400 g       *ABS*	00000000 __glasses2_lma
00000400 g       *ABS*	00000000 __glasses2_size
00038800 g       *ABS*	00000000 __tilemap_lma
00000720 g       *ABS*	00000000 __tilemap_size
00038f20 g       *ABS*	00000000 __psgmap_lma
00000720 g       *ABS*	00000000 __psgmap_size
00040000 g       *ABS*	00000000 __tileset1_lma
00008000 g       *ABS*	00000000 __tileset1_size
00048000 g       *ABS*	00000000 __tileset2_lma
00007f00 g       *ABS*	00000000 __tileset2_size
00003700 g       .bss	00000000 __bss_start
00018000 g       .xaa	00000000 end_xaa
00020000 g       .xab	00000000 end_xab
00022c00 g       .xac	00000000 end_xac
00028400 g       .palbach	00000000 end_palbach
00028800 g       .paltile	00000000 end_paltile
00028840 g       .ntespr	00000000 end_ntespr
00038400 g       .glasses1	00000000 end_glasses1
00038800 g       .glasses2	00000000 end_glasses2
00038f20 g       .tilemap	00000000 end_tilemap
00039640 g       .psgmap	00000000 end_psgmap
00048000 g       .tileset1	00000000 end_tileset1
0004ff00 g       .tileset2	00000000 end_tileset2
00000302 g       .text	00000000 _start
0000002d g       *ABS*	00000000 __rc29
0000002b g       *ABS*	00000000 __rc27
00000029 g       *ABS*	00000000 __rc25
00000027 g       *ABS*	00000000 __rc23
00000025 g       *ABS*	00000000 __rc21
00000023 g       *ABS*	00000000 __rc19
00000021 g       *ABS*	00000000 __rc17
0000001f g       *ABS*	00000000 __rc15
0000001d g       *ABS*	00000000 __rc13
0000001b g       *ABS*	00000000 __rc11
00000019 g       *ABS*	00000000 __rc9
00000017 g       *ABS*	00000000 __rc7
00000015 g       *ABS*	00000000 __rc5
00000013 g       *ABS*	00000000 __rc3
00000011 g       *ABS*	00000000 __rc1
00000030 g       .zp.data	00000000 __zp_data_start
00000300 g       *ABS*	00000000 __zp_data_load_start
00000002 g       *ABS*	00000000 __zp_data_size
00000032 g       .zp.bss	00000000 __zp_bss_start
00000066 g       *ABS*	00000000 __zp_bss_size
00000302 g       .text	00000000 _init
00002f88 g       .text	00000000 __init_array_start
00002f88 g       .text	00000000 __init_array_end
00002f88 g       .text	00000000 __fini_array_start
00002f88 g       .text	00000000 __fini_array_end
00003700 g       .data	00000000 __data_start
00003700 g       .data	00000000 __data_end
00003700 g       *ABS*	00000000 __data_load_start
00000000 g       *ABS*	00000000 __data_size
00003704 g       .bss	00000000 __bss_end
00000004 g       *ABS*	00000000 __bss_size
00003704 g       .noinit	00000000 end_block8
00003704 g       .noinit	00000000 end_block9
00003704 g       .noinit	00000000 end_block10
00003704 g       .noinit	00000000 end_block11
00003704 g       .noinit	00000000 end_block12
00003704 g       .noinit	00000000 end_block13
00003704 g       .noinit	00000000 end_block14
00003704 g       .noinit	00000000 end_block15
00003704 g       .noinit	00000000 end_block16
00003704 g       .noinit	00000000 end_block17
00003704 g       .noinit	00000000 end_block18
00003704 g       .noinit	00000000 end_block19
00003704 g       .noinit	00000000 end_block20
00003704 g       .noinit	00000000 end_block21
00003704 g       .noinit	00000000 end_block22
00003704 g       .noinit	00000000 end_block23

Disassembly of section .text:

00000302 <_start>:
     302: a9 00        	lda	#$0
     304: 85 10        	sta	$10                     ; 0x2010 <__putchar+0x2d>
     306: a9 a0        	lda	#$a0
     308: 85 11        	sta	$11                     ; 0x2011 <__putchar+0x2e>

0000030a <__do_zero_bss>:
     30a: 20 1a 03     	jsr	$31a <__zero_bss>

0000030d <__do_zero_zp_bss>:
     30d: 20 2d 03     	jsr	$32d <__zero_zp_bss>

00000310 <__do_copy_zp_data>:
     310: 20 40 03     	jsr	$340 <__copy_zp_data>
     313: 20 3e 07     	jsr	$73e <main>

00000316 <__after_main>:
     316: 4c 9d 21     	jmp	$219d <exit>

00000319 <_fini>:
     319: 60           	rts

0000031a <__zero_bss>:
     31a: a2 04        	ldx	#$4
     31c: a0 00        	ldy	#$0
     31e: a9 00        	lda	#$0
     320: 85 12        	sta	$12                     ; 0x2012 <__putchar+0x2f>
     322: a9 37        	lda	#$37
     324: 85 13        	sta	$13                     ; 0x2013 <__putchar+0x30>
     326: a9 00        	lda	#$0
     328: 84 14        	sty	$14                     ; 0x2014 <__putchar+0x31>
     32a: 4c 68 2f     	jmp	$2f68 <__memset>

0000032d <__zero_zp_bss>:
     32d: a2 66        	ldx	#$66
     32f: a0 00        	ldy	#$0
     331: a9 32        	lda	#$32
     333: 85 12        	sta	$12                     ; 0x2012 <__putchar+0x2f>
     335: a9 00        	lda	#$0
     337: 85 13        	sta	$13                     ; 0x2013 <__putchar+0x30>
     339: a9 00        	lda	#$0
     33b: 84 14        	sty	$14                     ; 0x2014 <__putchar+0x31>
     33d: 4c 68 2f     	jmp	$2f68 <__memset>

00000340 <__copy_zp_data>:
     340: a9 02        	lda	#$2
     342: a2 00        	ldx	#$0
     344: a0 30        	ldy	#$30
     346: 84 12        	sty	$12                     ; 0x2012 <__putchar+0x2f>
     348: a0 00        	ldy	#$0
     34a: 84 13        	sty	$13                     ; 0x2013 <__putchar+0x30>
     34c: a0 00        	ldy	#$0
     34e: 84 14        	sty	$14                     ; 0x2014 <__putchar+0x31>
     350: a0 03        	ldy	#$3
     352: 84 15        	sty	$15                     ; 0x2015 <__putchar+0x32>
     354: 4c 3c 2f     	jmp	$2f3c <memcpy>

00000357 <f256Init>:
     357: 64 12        	stz	$12                     ; 0x2012 <__putchar+0x2f>
     359: 64 01        	stz	$1                      ; 0x2001 <__putchar+0x1e>
     35b: a2 3f        	ldx	#$3f
     35d: 8e 00 d0     	stx	$d000                   ; 0xd000 <end_block9+0x98fc>
     360: a2 b3        	ldx	#$b3
     362: 86 00        	stx	$0                      ; 0x2000 <__putchar+0x1d>
     364: 64 08        	stz	$8                      ; 0x2008 <__putchar+0x25>
     366: a2 01        	ldx	#$1
     368: 86 09        	stx	$9                      ; 0x2009 <__putchar+0x26>
     36a: e8           	inx
     36b: 86 0a        	stx	$a                      ; 0x200a <__putchar+0x27>
     36d: e8           	inx
     36e: 86 0b        	stx	$b                      ; 0x200b <__putchar+0x28>
     370: e8           	inx
     371: 86 0c        	stx	$c                      ; 0x200c <__putchar+0x29>
     373: e8           	inx
     374: 86 0d        	stx	$d                      ; 0x200d <__putchar+0x2a>
     376: a2 91        	ldx	#$91
     378: a0 00        	ldy	#$0
     37a: 86 f0        	stx	$f0                     ; 0x20f0 <__putchar+0x10d>
     37c: 84 f1        	sty	$f1                     ; 0x20f1 <__putchar+0x10e>
     37e: a2 00        	ldx	#$0
     380: 86 16        	stx	$16                     ; 0x2016 <__putchar+0x33>
     382: ca           	dex
     383: 86 17        	stx	$17                     ; 0x2017 <__putchar+0x34>
     385: 8a           	txa
     386: 0a           	asl
     387: 0a           	asl
     388: 18           	clc
     389: 69 d4        	adc	#$d4
     38b: 85 18        	sta	$18                     ; 0x2018 <__putchar+0x35>
     38d: a0 00        	ldy	#$0
     38f: 64 15        	stz	$15                     ; 0x2015 <__putchar+0x32>
     391: 64 14        	stz	$14                     ; 0x2014 <__putchar+0x31>
     393: a6 17        	ldx	$17                     ; 0x2017 <__putchar+0x34>
     395: e0 03        	cpx	#$3
     397: a6 01        	ldx	$1                      ; 0x2001 <__putchar+0x1e>
     399: 86 1a        	stx	$1a                     ; 0x201a <__putchar+0x37>
     39b: a2 d0        	ldx	#$d0
     39d: 84 19        	sty	$19                     ; 0x2019 <__putchar+0x36>
     39f: b0 02        	bcs	$3a3 <f256Init+0x4c>
     3a1: a6 18        	ldx	$18                     ; 0x2018 <__putchar+0x35>
     3a3: 86 13        	stx	$13                     ; 0x2013 <__putchar+0x30>
     3a5: a5 15        	lda	$15                     ; 0x2015 <__putchar+0x32>
     3a7: 18           	clc
     3a8: 65 12        	adc	$12                     ; 0x2012 <__putchar+0x2f>
     3aa: a8           	tay
     3ab: a6 15        	ldx	$15                     ; 0x2015 <__putchar+0x32>
     3ad: a5 14        	lda	$14                     ; 0x2014 <__putchar+0x31>
     3af: 85 1b        	sta	$1b                     ; 0x201b <__putchar+0x38>
     3b1: a5 14        	lda	$14                     ; 0x2014 <__putchar+0x31>
     3b3: 65 13        	adc	$13                     ; 0x2013 <__putchar+0x30>
     3b5: 84 14        	sty	$14                     ; 0x2014 <__putchar+0x31>
     3b7: a0 01        	ldy	#$1
     3b9: 84 01        	sty	$1                      ; 0x2001 <__putchar+0x1e>
     3bb: 85 15        	sta	$15                     ; 0x2015 <__putchar+0x32>
     3bd: a5 19        	lda	$19                     ; 0x2019 <__putchar+0x36>
     3bf: 92 14        	sta	($14)                   ; 0x2014 <__putchar+0x31>
     3c1: 91 14        	sta	($14),y                 ; 0x2014 <__putchar+0x31>
     3c3: c8           	iny
     3c4: 91 14        	sta	($14),y                 ; 0x2014 <__putchar+0x31>
     3c6: 85 13        	sta	$13                     ; 0x2013 <__putchar+0x30>
     3c8: c8           	iny
     3c9: a9 ff        	lda	#$ff
     3cb: 91 14        	sta	($14),y                 ; 0x2014 <__putchar+0x31>
     3cd: 8a           	txa
     3ce: a6 1a        	ldx	$1a                     ; 0x201a <__putchar+0x37>
     3d0: 86 01        	stx	$1                      ; 0x2001 <__putchar+0x1e>
     3d2: 18           	clc
     3d3: 69 04        	adc	#$4
     3d5: 85 15        	sta	$15                     ; 0x2015 <__putchar+0x32>
     3d7: a5 1b        	lda	$1b                     ; 0x201b <__putchar+0x38>
     3d9: 69 00        	adc	#$0
     3db: e6 13        	inc	$13                     ; 0x2013 <__putchar+0x30>
     3dd: a4 13        	ldy	$13                     ; 0x2013 <__putchar+0x30>
     3df: 85 14        	sta	$14                     ; 0x2014 <__putchar+0x31>
     3e1: c9 04        	cmp	#$4
     3e3: f0 03        	beq	$3e8 <f256Init+0x91>
     3e5: 4c 93 03     	jmp	$393 <f256Init+0x3c>
     3e8: a5 15        	lda	$15                     ; 0x2015 <__putchar+0x32>
     3ea: f0 03        	beq	$3ef <f256Init+0x98>
     3ec: 4c 93 03     	jmp	$393 <f256Init+0x3c>
     3ef: a6 16        	ldx	$16                     ; 0x2016 <__putchar+0x33>
     3f1: e8           	inx
     3f2: e0 04        	cpx	#$4
     3f4: f0 03        	beq	$3f9 <f256Init+0xa2>
     3f6: 4c 80 03     	jmp	$380 <f256Init+0x29>
     3f9: ad 02 d0     	lda	$d002                   ; 0xd002 <end_block9+0x98fe>
     3fc: 29 f0        	and	#$f0
     3fe: 8d 02 d0     	sta	$d002                   ; 0xd002 <end_block9+0x98fe>
     401: ad 02 d0     	lda	$d002                   ; 0xd002 <end_block9+0x98fe>
     404: 29 0f        	and	#$f
     406: 09 10        	ora	#$10
     408: 8d 02 d0     	sta	$d002                   ; 0xd002 <end_block9+0x98fe>
     40b: a2 02        	ldx	#$2
     40d: 8e 03 d0     	stx	$d003                   ; 0xd003 <end_block9+0x98ff>
     410: ad 01 d0     	lda	$d001                   ; 0xd001 <end_block9+0x98fd>
     413: 29 f9        	and	#$f9
     415: 09 04        	ora	#$4
     417: 8d 01 d0     	sta	$d001                   ; 0xd001 <end_block9+0x98fd>
     41a: 64 12        	stz	$12                     ; 0x2012 <__putchar+0x2f>
     41c: 9c 10 d0     	stz	$d010                   ; 0xd010 <end_block9+0x990c>
     41f: a2 00        	ldx	#$0
     421: 64 13        	stz	$13                     ; 0x2013 <__putchar+0x30>
     423: 86 16        	stx	$16                     ; 0x2016 <__putchar+0x33>
     425: a4 16        	ldy	$16                     ; 0x2016 <__putchar+0x33>
     427: be d3 2f     	ldx	$2fd3,y                 ; 0x2fd3 <textColors>
     42a: 86 17        	stx	$17                     ; 0x2017 <__putchar+0x34>
     42c: be d4 2f     	ldx	$2fd4,y                 ; 0x2fd4 <textColors+0x1>
     42f: 86 18        	stx	$18                     ; 0x2018 <__putchar+0x35>
     431: be d5 2f     	ldx	$2fd5,y                 ; 0x2fd5 <textColors+0x2>
     434: 86 19        	stx	$19                     ; 0x2019 <__putchar+0x36>
     436: a6 13        	ldx	$13                     ; 0x2013 <__putchar+0x30>
     438: 8e 00 de     	stx	$de00                   ; 0xde00 <end_block9+0xa6fc>
     43b: 86 15        	stx	$15                     ; 0x2015 <__putchar+0x32>
     43d: 9c 01 de     	stz	$de01                   ; 0xde01 <end_block9+0xa6fd>
     440: a2 04        	ldx	#$4
     442: 8e 02 de     	stx	$de02                   ; 0xde02 <end_block9+0xa6fe>
     445: 9c 03 de     	stz	$de03                   ; 0xde03 <end_block9+0xa6ff>
     448: ad 10 de     	lda	$de10                   ; 0xde10 <end_block9+0xa70c>
     44b: ac 11 de     	ldy	$de11                   ; 0xde11 <end_block9+0xa70d>
     44e: 84 13        	sty	$13                     ; 0x2013 <__putchar+0x30>
     450: ac 12 de     	ldy	$de12                   ; 0xde12 <end_block9+0xa70e>
     453: ac 13 de     	ldy	$de13                   ; 0xde13 <end_block9+0xa70f>
     456: 18           	clc
     457: 65 12        	adc	$12                     ; 0x2012 <__putchar+0x2f>
     459: 85 14        	sta	$14                     ; 0x2014 <__putchar+0x31>
     45b: a6 15        	ldx	$15                     ; 0x2015 <__putchar+0x32>
     45d: a9 d8        	lda	#$d8
     45f: 65 13        	adc	$13                     ; 0x2013 <__putchar+0x30>
     461: 85 15        	sta	$15                     ; 0x2015 <__putchar+0x32>
     463: a5 19        	lda	$19                     ; 0x2019 <__putchar+0x36>
     465: 92 14        	sta	($14)                   ; 0x2014 <__putchar+0x31>
     467: a0 01        	ldy	#$1
     469: a5 18        	lda	$18                     ; 0x2018 <__putchar+0x35>
     46b: 91 14        	sta	($14),y                 ; 0x2014 <__putchar+0x31>
     46d: c8           	iny
     46e: a5 17        	lda	$17                     ; 0x2017 <__putchar+0x34>
     470: 91 14        	sta	($14),y                 ; 0x2014 <__putchar+0x31>
     472: c8           	iny
     473: a9 ff        	lda	#$ff
     475: 91 14        	sta	($14),y                 ; 0x2014 <__putchar+0x31>
     477: 8e 00 de     	stx	$de00                   ; 0xde00 <end_block9+0xa6fc>
     47a: 9c 01 de     	stz	$de01                   ; 0xde01 <end_block9+0xa6fd>
     47d: c8           	iny
     47e: 8c 02 de     	sty	$de02                   ; 0xde02 <end_block9+0xa6fe>
     481: 9c 03 de     	stz	$de03                   ; 0xde03 <end_block9+0xa6ff>
     484: ad 10 de     	lda	$de10                   ; 0xde10 <end_block9+0xa70c>
     487: 85 13        	sta	$13                     ; 0x2013 <__putchar+0x30>
     489: ad 11 de     	lda	$de11                   ; 0xde11 <end_block9+0xa70d>
     48c: 85 14        	sta	$14                     ; 0x2014 <__putchar+0x31>
     48e: a9 40        	lda	#$40
     490: 18           	clc
     491: 65 13        	adc	$13                     ; 0x2013 <__putchar+0x30>
     493: a8           	tay
     494: a9 d8        	lda	#$d8
     496: 65 14        	adc	$14                     ; 0x2014 <__putchar+0x31>
     498: 85 15        	sta	$15                     ; 0x2015 <__putchar+0x32>
     49a: 84 14        	sty	$14                     ; 0x2014 <__putchar+0x31>
     49c: ad 12 de     	lda	$de12                   ; 0xde12 <end_block9+0xa70e>
     49f: ad 13 de     	lda	$de13                   ; 0xde13 <end_block9+0xa70f>
     4a2: a5 19        	lda	$19                     ; 0x2019 <__putchar+0x36>
     4a4: 92 14        	sta	($14)                   ; 0x2014 <__putchar+0x31>
     4a6: a5 18        	lda	$18                     ; 0x2018 <__putchar+0x35>
     4a8: a0 01        	ldy	#$1
     4aa: 91 14        	sta	($14),y                 ; 0x2014 <__putchar+0x31>
     4ac: a5 17        	lda	$17                     ; 0x2017 <__putchar+0x34>
     4ae: c8           	iny
     4af: 91 14        	sta	($14),y                 ; 0x2014 <__putchar+0x31>
     4b1: c8           	iny
     4b2: a9 ff        	lda	#$ff
     4b4: 91 14        	sta	($14),y                 ; 0x2014 <__putchar+0x31>
     4b6: e8           	inx
     4b7: 86 13        	stx	$13                     ; 0x2013 <__putchar+0x30>
     4b9: 18           	clc
     4ba: a5 16        	lda	$16                     ; 0x2016 <__putchar+0x33>
     4bc: 69 03        	adc	#$3
     4be: aa           	tax
     4bf: c9 30        	cmp	#$30
     4c1: f0 03        	beq	$4c6 <f256Init+0x16f>
     4c3: 4c 23 04     	jmp	$423 <f256Init+0xcc>
     4c6: 20 a4 06     	jsr	$6a4 <textClear>
     4c9: a0 01        	ldy	#$1
     4cb: 84 42        	sty	$42                     ; 0x2042 <__putchar+0x5f>
     4cd: a2 40        	ldx	#$40
     4cf: 8e 00 de     	stx	$de00                   ; 0xde00 <end_block9+0xa6fc>
     4d2: 8c 01 de     	sty	$de01                   ; 0xde01 <end_block9+0xa6fd>
     4d5: a2 f0        	ldx	#$f0
     4d7: 8e 02 de     	stx	$de02                   ; 0xde02 <end_block9+0xa6fe>
     4da: 9c 03 de     	stz	$de03                   ; 0xde03 <end_block9+0xa6ff>
     4dd: ae 10 de     	ldx	$de10                   ; 0xde10 <end_block9+0xa70c>
     4e0: 86 17        	stx	$17                     ; 0x2017 <__putchar+0x34>
     4e2: ae 11 de     	ldx	$de11                   ; 0xde11 <end_block9+0xa70d>
     4e5: 86 12        	stx	$12                     ; 0x2012 <__putchar+0x2f>
     4e7: ae 12 de     	ldx	$de12                   ; 0xde12 <end_block9+0xa70e>
     4ea: 86 13        	stx	$13                     ; 0x2013 <__putchar+0x30>
     4ec: ae 13 de     	ldx	$de13                   ; 0xde13 <end_block9+0xa70f>
     4ef: 86 14        	stx	$14                     ; 0x2014 <__putchar+0x31>
     4f1: 64 40        	stz	$40                     ; 0x2040 <__putchar+0x5d>
     4f3: 84 41        	sty	$41                     ; 0x2041 <__putchar+0x5e>
     4f5: a4 12        	ldy	$12                     ; 0x2012 <__putchar+0x2f>
     4f7: 84 15        	sty	$15                     ; 0x2015 <__putchar+0x32>
     4f9: 06 15        	asl	$15                     ; 0x2015 <__putchar+0x32>
     4fb: a5 13        	lda	$13                     ; 0x2013 <__putchar+0x30>
     4fd: 2a           	rol
     4fe: 86 16        	stx	$16                     ; 0x2016 <__putchar+0x33>
     500: 26 16        	rol	$16                     ; 0x2016 <__putchar+0x33>
     502: 06 15        	asl	$15                     ; 0x2015 <__putchar+0x32>
     504: 2a           	rol
     505: 26 16        	rol	$16                     ; 0x2016 <__putchar+0x33>
     507: 06 15        	asl	$15                     ; 0x2015 <__putchar+0x32>
     509: 2a           	rol
     50a: 26 16        	rol	$16                     ; 0x2016 <__putchar+0x33>
     50c: 85 15        	sta	$15                     ; 0x2015 <__putchar+0x32>
     50e: 8d 00 de     	sta	$de00                   ; 0xde00 <end_block9+0xa6fc>
     511: a5 16        	lda	$16                     ; 0x2016 <__putchar+0x33>
     513: 8d 01 de     	sta	$de01                   ; 0xde01 <end_block9+0xa6fd>
     516: 9c 02 de     	stz	$de02                   ; 0xde02 <end_block9+0xa6fe>
     519: a2 20        	ldx	#$20
     51b: 8e 03 de     	stx	$de03                   ; 0xde03 <end_block9+0xa6ff>
     51e: ae 10 de     	ldx	$de10                   ; 0xde10 <end_block9+0xa70c>
     521: 86 16        	stx	$16                     ; 0x2016 <__putchar+0x33>
     523: ae 11 de     	ldx	$de11                   ; 0xde11 <end_block9+0xa70d>
     526: 86 18        	stx	$18                     ; 0x2018 <__putchar+0x35>
     528: ac 12 de     	ldy	$de12                   ; 0xde12 <end_block9+0xa70e>
     52b: ae 13 de     	ldx	$de13                   ; 0xde13 <end_block9+0xa70f>
     52e: e4 14        	cpx	$14                     ; 0x2014 <__putchar+0x31>
     530: d0 14        	bne	$546 <f256Init+0x1ef>
     532: c4 13        	cpy	$13                     ; 0x2013 <__putchar+0x30>
     534: d0 10        	bne	$546 <f256Init+0x1ef>
     536: a6 18        	ldx	$18                     ; 0x2018 <__putchar+0x35>
     538: e4 12        	cpx	$12                     ; 0x2012 <__putchar+0x2f>
     53a: d0 0a        	bne	$546 <f256Init+0x1ef>
     53c: a6 16        	ldx	$16                     ; 0x2016 <__putchar+0x33>
     53e: e4 17        	cpx	$17                     ; 0x2017 <__putchar+0x34>
     540: d0 04        	bne	$546 <f256Init+0x1ef>
     542: a6 15        	ldx	$15                     ; 0x2015 <__putchar+0x32>
     544: 80 06        	bra	$54c <f256Init+0x1f5>
     546: a6 15        	ldx	$15                     ; 0x2015 <__putchar+0x32>
     548: e8           	inx
     549: d0 01        	bne	$54c <f256Init+0x1f5>
     54b: 1a           	inc
     54c: 8e 00 de     	stx	$de00                   ; 0xde00 <end_block9+0xa6fc>
     54f: 8d 01 de     	sta	$de01                   ; 0xde01 <end_block9+0xa6fd>
     552: 9c 02 de     	stz	$de02                   ; 0xde02 <end_block9+0xa6fe>
     555: a2 20        	ldx	#$20
     557: 8e 03 de     	stx	$de03                   ; 0xde03 <end_block9+0xa6ff>
     55a: ae 10 de     	ldx	$de10                   ; 0xde10 <end_block9+0xa70c>
     55d: 86 12        	stx	$12                     ; 0x2012 <__putchar+0x2f>
     55f: ae 11 de     	ldx	$de11                   ; 0xde11 <end_block9+0xa70d>
     562: 86 13        	stx	$13                     ; 0x2013 <__putchar+0x30>
     564: ae 12 de     	ldx	$de12                   ; 0xde12 <end_block9+0xa70e>
     567: 86 14        	stx	$14                     ; 0x2014 <__putchar+0x31>
     569: ae 13 de     	ldx	$de13                   ; 0xde13 <end_block9+0xa70f>
     56c: 86 15        	stx	$15                     ; 0x2015 <__putchar+0x32>
     56e: 38           	sec
     56f: a9 00        	lda	#$0
     571: e5 12        	sbc	$12                     ; 0x2012 <__putchar+0x2f>
     573: 85 19        	sta	$19                     ; 0x2019 <__putchar+0x36>
     575: a9 00        	lda	#$0
     577: e5 13        	sbc	$13                     ; 0x2013 <__putchar+0x30>
     579: aa           	tax
     57a: a9 08        	lda	#$8
     57c: e5 14        	sbc	$14                     ; 0x2014 <__putchar+0x31>
     57e: 85 16        	sta	$16                     ; 0x2016 <__putchar+0x33>
     580: a9 00        	lda	#$0
     582: e5 15        	sbc	$15                     ; 0x2015 <__putchar+0x32>
     584: 86 35        	stx	$35                     ; 0x2035 <__putchar+0x52>
     586: a4 16        	ldy	$16                     ; 0x2016 <__putchar+0x33>
     588: 84 36        	sty	$36                     ; 0x2036 <__putchar+0x53>
     58a: 85 37        	sta	$37                     ; 0x2037 <__putchar+0x54>
     58c: a8           	tay
     58d: a5 19        	lda	$19                     ; 0x2019 <__putchar+0x36>
     58f: 38           	sec
     590: e5 12        	sbc	$12                     ; 0x2012 <__putchar+0x2f>
     592: 85 18        	sta	$18                     ; 0x2018 <__putchar+0x35>
     594: 8a           	txa
     595: e5 13        	sbc	$13                     ; 0x2013 <__putchar+0x30>
     597: 85 1a        	sta	$1a                     ; 0x201a <__putchar+0x37>
     599: a5 16        	lda	$16                     ; 0x2016 <__putchar+0x33>
     59b: e5 14        	sbc	$14                     ; 0x2014 <__putchar+0x31>
     59d: 85 16        	sta	$16                     ; 0x2016 <__putchar+0x33>
     59f: 98           	tya
     5a0: e5 15        	sbc	$15                     ; 0x2015 <__putchar+0x32>
     5a2: 85 17        	sta	$17                     ; 0x2017 <__putchar+0x34>
     5a4: 38           	sec
     5a5: a4 18        	ldy	$18                     ; 0x2018 <__putchar+0x35>
     5a7: 84 38        	sty	$38                     ; 0x2038 <__putchar+0x55>
     5a9: a6 1a        	ldx	$1a                     ; 0x201a <__putchar+0x37>
     5ab: 86 39        	stx	$39                     ; 0x2039 <__putchar+0x56>
     5ad: a4 16        	ldy	$16                     ; 0x2016 <__putchar+0x33>
     5af: 84 3a        	sty	$3a                     ; 0x203a <__putchar+0x57>
     5b1: 85 3b        	sta	$3b                     ; 0x203b <__putchar+0x58>
     5b3: a5 18        	lda	$18                     ; 0x2018 <__putchar+0x35>
     5b5: e5 12        	sbc	$12                     ; 0x2012 <__putchar+0x2f>
     5b7: 85 18        	sta	$18                     ; 0x2018 <__putchar+0x35>
     5b9: a5 1a        	lda	$1a                     ; 0x201a <__putchar+0x37>
     5bb: e5 13        	sbc	$13                     ; 0x2013 <__putchar+0x30>
     5bd: a8           	tay
     5be: a5 16        	lda	$16                     ; 0x2016 <__putchar+0x33>
     5c0: e5 14        	sbc	$14                     ; 0x2014 <__putchar+0x31>
     5c2: 85 12        	sta	$12                     ; 0x2012 <__putchar+0x2f>
     5c4: a5 17        	lda	$17                     ; 0x2017 <__putchar+0x34>
     5c6: e5 15        	sbc	$15                     ; 0x2015 <__putchar+0x32>
     5c8: a6 18        	ldx	$18                     ; 0x2018 <__putchar+0x35>
     5ca: 86 3c        	stx	$3c                     ; 0x203c <__putchar+0x59>
     5cc: 84 3d        	sty	$3d                     ; 0x203d <__putchar+0x5a>
     5ce: a4 12        	ldy	$12                     ; 0x2012 <__putchar+0x2f>
     5d0: 84 3e        	sty	$3e                     ; 0x203e <__putchar+0x5b>
     5d2: a6 19        	ldx	$19                     ; 0x2019 <__putchar+0x36>
     5d4: 86 34        	stx	$34                     ; 0x2034 <__putchar+0x51>
     5d6: 85 3f        	sta	$3f                     ; 0x203f <__putchar+0x5c>
     5d8: 9c 00 37     	stz	$3700                   ; 0x3700 <__bss_start>
     5db: 9c 01 37     	stz	$3701                   ; 0x3701 <__bss_start+0x1>
     5de: 9c 02 37     	stz	$3702                   ; 0x3702 <__bss_start+0x2>
     5e1: 8e 01 d1     	stx	$d101                   ; 0xd101 <end_block9+0x99fd>
     5e4: a6 35        	ldx	$35                     ; 0x2035 <__putchar+0x52>
     5e6: 8e 02 d1     	stx	$d102                   ; 0xd102 <end_block9+0x99fe>
     5e9: a6 36        	ldx	$36                     ; 0x2036 <__putchar+0x53>
     5eb: 8e 03 d1     	stx	$d103                   ; 0xd103 <end_block9+0x99ff>
     5ee: a6 38        	ldx	$38                     ; 0x2038 <__putchar+0x55>
     5f0: 8e 09 d1     	stx	$d109                   ; 0xd109 <end_block9+0x9a05>
     5f3: a6 39        	ldx	$39                     ; 0x2039 <__putchar+0x56>
     5f5: 8e 0a d1     	stx	$d10a                   ; 0xd10a <end_block9+0x9a06>
     5f8: a6 3a        	ldx	$3a                     ; 0x203a <__putchar+0x57>
     5fa: 8e 0b d1     	stx	$d10b                   ; 0xd10b <end_block9+0x9a07>
     5fd: a6 3c        	ldx	$3c                     ; 0x203c <__putchar+0x59>
     5ff: 8e 11 d1     	stx	$d111                   ; 0xd111 <end_block9+0x9a0d>
     602: a6 3d        	ldx	$3d                     ; 0x203d <__putchar+0x5a>
     604: 8e 12 d1     	stx	$d112                   ; 0xd112 <end_block9+0x9a0e>
     607: a6 3e        	ldx	$3e                     ; 0x203e <__putchar+0x5b>
     609: 8e 13 d1     	stx	$d113                   ; 0xd113 <end_block9+0x9a0f>
     60c: 9c 00 d1     	stz	$d100                   ; 0xd100 <end_block9+0x99fc>
     60f: 9c 08 d1     	stz	$d108                   ; 0xd108 <end_block9+0x9a04>
     612: 9c 10 d1     	stz	$d110                   ; 0xd110 <end_block9+0x9a0c>
     615: a2 08        	ldx	#$8
     617: 86 43        	stx	$43                     ; 0x2043 <__putchar+0x60>
     619: 86 44        	stx	$44                     ; 0x2044 <__putchar+0x61>
     61b: a2 01        	ldx	#$1
     61d: 86 45        	stx	$45                     ; 0x2045 <__putchar+0x62>
     61f: a2 10        	ldx	#$10
     621: 8e 00 d2     	stx	$d200                   ; 0xd200 <end_block9+0x9afc>
     624: a5 44        	lda	$44                     ; 0x2044 <__putchar+0x61>
     626: a0 10        	ldy	#$10
     628: c9 08        	cmp	#$8
     62a: f0 02        	beq	$62e <f256Init+0x2d7>
     62c: a0 00        	ldy	#$0
     62e: 8c 0c d2     	sty	$d20c                   ; 0xd20c <end_block9+0x9b08>
     631: 8e 18 d2     	stx	$d218                   ; 0xd218 <end_block9+0x9b14>
     634: a0 d9        	ldy	#$d9
     636: a9 00        	lda	#$0
     638: aa           	tax
     639: 85 12        	sta	$12                     ; 0x2012 <__putchar+0x2f>
     63b: 84 14        	sty	$14                     ; 0x2014 <__putchar+0x31>
     63d: 84 13        	sty	$13                     ; 0x2013 <__putchar+0x30>
     63f: a8           	tay
     640: b5 46        	lda	$46,x                   ; 0x2046 <__putchar+0x63>
     642: 92 12        	sta	($12)                   ; 0x2012 <__putchar+0x2f>
     644: 98           	tya
     645: e8           	inx
     646: 18           	clc
     647: 69 08        	adc	#$8
     649: 85 12        	sta	$12                     ; 0x2012 <__putchar+0x2f>
     64b: a5 14        	lda	$14                     ; 0x2014 <__putchar+0x31>
     64d: 69 00        	adc	#$0
     64f: a8           	tay
     650: a5 12        	lda	$12                     ; 0x2012 <__putchar+0x2f>
     652: e0 40        	cpx	#$40
     654: d0 e3        	bne	$639 <f256Init+0x2e2>
     656: a2 98        	ldx	#$98
     658: a0 00        	ldy	#$0
     65a: 86 fb        	stx	$fb                     ; 0x20fb <__putchar+0x118>
     65c: 84 fc        	sty	$fc                     ; 0x20fc <__putchar+0x119>
     65e: a2 08        	ldx	#$8
     660: 86 fd        	stx	$fd                     ; 0x20fd <__putchar+0x11a>
     662: a2 a0        	ldx	#$a0
     664: a0 00        	ldy	#$0
     666: 86 12        	stx	$12                     ; 0x2012 <__putchar+0x2f>
     668: 84 13        	sty	$13                     ; 0x2013 <__putchar+0x30>
     66a: a2 03        	ldx	#$3
     66c: 86 14        	stx	$14                     ; 0x2014 <__putchar+0x31>
     66e: a2 37        	ldx	#$37
     670: 86 15        	stx	$15                     ; 0x2015 <__putchar+0x32>
     672: 20 dc ff     	jsr	$ffdc <end_block9+0xc8d8>
     675: 92 12        	sta	($12)                   ; 0x2012 <__putchar+0x2f>
     677: a9 00        	lda	#$0
     679: 6a           	ror
     67a: 85 14        	sta	$14                     ; 0x2014 <__putchar+0x31>
     67c: a6 9e        	ldx	$9e                     ; 0x209e <__putchar+0xbb>
     67e: a4 9f        	ldy	$9f                     ; 0x209f <__putchar+0xbc>
     680: 8e 00 de     	stx	$de00                   ; 0xde00 <end_block9+0xa6fc>
     683: 9c 01 de     	stz	$de01                   ; 0xde01 <end_block9+0xa6fd>
     686: 8c 02 de     	sty	$de02                   ; 0xde02 <end_block9+0xa6fe>
     689: 9c 03 de     	stz	$de03                   ; 0xde03 <end_block9+0xa6ff>
     68c: ae 10 de     	ldx	$de10                   ; 0xde10 <end_block9+0xa70c>
     68f: ac 11 de     	ldy	$de11                   ; 0xde11 <end_block9+0xa70d>
     692: ad 12 de     	lda	$de12                   ; 0xde12 <end_block9+0xa70e>
     695: ad 13 de     	lda	$de13                   ; 0xde13 <end_block9+0xa70f>
     698: 8e a4 d6     	stx	$d6a4                   ; 0xd6a4 <end_block9+0x9fa0>
     69b: 8c a5 d6     	sty	$d6a5                   ; 0xd6a5 <end_block9+0x9fa1>
     69e: a2 03        	ldx	#$3
     6a0: 8e a6 d6     	stx	$d6a6                   ; 0xd6a6 <end_block9+0x9fa2>
     6a3: 60           	rts

000006a4 <textClear>:
     6a4: a6 01        	ldx	$1                      ; 0x2001 <__putchar+0x1e>
     6a6: 86 18        	stx	$18                     ; 0x2018 <__putchar+0x35>
     6a8: a2 50        	ldx	#$50
     6aa: 8e 00 de     	stx	$de00                   ; 0xde00 <end_block9+0xa6fc>
     6ad: 9c 01 de     	stz	$de01                   ; 0xde01 <end_block9+0xa6fd>
     6b0: a2 1e        	ldx	#$1e
     6b2: 8e 02 de     	stx	$de02                   ; 0xde02 <end_block9+0xa6fe>
     6b5: 9c 03 de     	stz	$de03                   ; 0xde03 <end_block9+0xa6ff>
     6b8: ae 10 de     	ldx	$de10                   ; 0xde10 <end_block9+0xa70c>
     6bb: ac 11 de     	ldy	$de11                   ; 0xde11 <end_block9+0xa70d>
     6be: ad 12 de     	lda	$de12                   ; 0xde12 <end_block9+0xa70e>
     6c1: ad 13 de     	lda	$de13                   ; 0xde13 <end_block9+0xa70f>
     6c4: a9 02        	lda	#$2
     6c6: 85 01        	sta	$1                      ; 0x2001 <__putchar+0x1e>
     6c8: e0 01        	cpx	#$1
     6ca: 98           	tya
     6cb: e9 00        	sbc	#$0
     6cd: 50 02        	bvc	$6d1 <textClear+0x2d>
     6cf: 49 80        	eor	#$80
     6d1: c9 00        	cmp	#$0
     6d3: 30 50        	bmi	$725 <textClear+0x81>
     6d5: a9 00        	lda	#$0
     6d7: 85 12        	sta	$12                     ; 0x2012 <__putchar+0x2f>
     6d9: a9 c0        	lda	#$c0
     6db: 85 13        	sta	$13                     ; 0x2013 <__putchar+0x30>
     6dd: a9 20        	lda	#$20
     6df: 86 19        	stx	$19                     ; 0x2019 <__putchar+0x36>
     6e1: 86 14        	stx	$14                     ; 0x2014 <__putchar+0x31>
     6e3: 84 15        	sty	$15                     ; 0x2015 <__putchar+0x32>
     6e5: a2 00        	ldx	#$0
     6e7: 86 16        	stx	$16                     ; 0x2016 <__putchar+0x33>
     6e9: a2 c0        	ldx	#$c0
     6eb: 86 17        	stx	$17                     ; 0x2017 <__putchar+0x34>
     6ed: 92 16        	sta	($16)                   ; 0x2016 <__putchar+0x33>
     6ef: e6 16        	inc	$16                     ; 0x2016 <__putchar+0x33>
     6f1: d0 02        	bne	$6f5 <textClear+0x51>
     6f3: e6 17        	inc	$17                     ; 0x2017 <__putchar+0x34>
     6f5: a2 ff        	ldx	#$ff
     6f7: c6 14        	dec	$14                     ; 0x2014 <__putchar+0x31>
     6f9: e4 14        	cpx	$14                     ; 0x2014 <__putchar+0x31>
     6fb: d0 02        	bne	$6ff <textClear+0x5b>
     6fd: c6 15        	dec	$15                     ; 0x2015 <__putchar+0x32>
     6ff: a6 15        	ldx	$15                     ; 0x2015 <__putchar+0x32>
     701: d0 ea        	bne	$6ed <textClear+0x49>
     703: a6 14        	ldx	$14                     ; 0x2014 <__putchar+0x31>
     705: d0 e6        	bne	$6ed <textClear+0x49>
     707: a2 03        	ldx	#$3
     709: 86 01        	stx	$1                      ; 0x2001 <__putchar+0x1e>
     70b: a6 19        	ldx	$19                     ; 0x2019 <__putchar+0x36>
     70d: a9 f0        	lda	#$f0
     70f: 92 12        	sta	($12)                   ; 0x2012 <__putchar+0x2f>
     711: e6 12        	inc	$12                     ; 0x2012 <__putchar+0x2f>
     713: d0 02        	bne	$717 <textClear+0x73>
     715: e6 13        	inc	$13                     ; 0x2013 <__putchar+0x30>
     717: ca           	dex
     718: e0 ff        	cpx	#$ff
     71a: d0 01        	bne	$71d <textClear+0x79>
     71c: 88           	dey
     71d: 98           	tya
     71e: d0 ed        	bne	$70d <textClear+0x69>
     720: 8a           	txa
     721: d0 ea        	bne	$70d <textClear+0x69>
     723: 80 04        	bra	$729 <textClear+0x85>
     725: a2 03        	ldx	#$3
     727: 86 01        	stx	$1                      ; 0x2001 <__putchar+0x1e>
     729: a6 18        	ldx	$18                     ; 0x2018 <__putchar+0x35>
     72b: 86 01        	stx	$1                      ; 0x2001 <__putchar+0x1e>
     72d: 64 32        	stz	$32                     ; 0x2032 <__putchar+0x4f>
     72f: 9c 14 d0     	stz	$d014                   ; 0xd014 <end_block9+0x9910>
     732: 9c 15 d0     	stz	$d015                   ; 0xd015 <end_block9+0x9911>
     735: 64 33        	stz	$33                     ; 0x2033 <__putchar+0x50>
     737: 9c 16 d0     	stz	$d016                   ; 0xd016 <end_block9+0x9912>
     73a: 9c 17 d0     	stz	$d017                   ; 0xd017 <end_block9+0x9913>
     73d: 60           	rts

0000073e <main>:
     73e: 20 57 03     	jsr	$357 <f256Init>
     741: 20 44 07     	jsr	$744 <f256main>

00000744 <f256main>:
     744: 18           	clc
     745: a5 10        	lda	$10                     ; 0x2010 <__putchar+0x2d>
     747: 69 f2        	adc	#$f2
     749: 85 10        	sta	$10                     ; 0x2010 <__putchar+0x2d>
     74b: a5 11        	lda	$11                     ; 0x2011 <__putchar+0x2e>
     74d: 69 ff        	adc	#$ff
     74f: 85 11        	sta	$11                     ; 0x2011 <__putchar+0x2e>
     751: 64 12        	stz	$12                     ; 0x2012 <__putchar+0x2f>
     753: a9 00        	lda	#$0
     755: a0 0a        	ldy	#$a
     757: 91 10        	sta	($10),y                 ; 0x2010 <__putchar+0x2d>
     759: aa           	tax
     75a: 86 24        	stx	$24                     ; 0x2024 <__putchar+0x41>
     75c: a2 d1        	ldx	#$d1
     75e: 86 25        	stx	$25                     ; 0x2025 <__putchar+0x42>
     760: a2 7b        	ldx	#$7b
     762: 8e a1 dd     	stx	$dda1                   ; 0xdda1 <end_block9+0xa69d>
     765: 9c a1 dd     	stz	$dda1                   ; 0xdda1 <end_block9+0xa69d>
     768: a2 ff        	ldx	#$ff
     76a: 8e a1 dd     	stx	$dda1                   ; 0xdda1 <end_block9+0xa69d>
     76d: a2 c0        	ldx	#$c0
     76f: 8e a1 dd     	stx	$dda1                   ; 0xdda1 <end_block9+0xa69d>
     772: a2 13        	ldx	#$13
     774: 8e a1 dd     	stx	$dda1                   ; 0xdda1 <end_block9+0xa69d>
     777: a0 c1        	ldy	#$c1
     779: 8c a1 dd     	sty	$dda1                   ; 0xdda1 <end_block9+0xa69d>
     77c: 8e a1 dd     	stx	$dda1                   ; 0xdda1 <end_block9+0xa69d>
     77f: a2 01        	ldx	#$1
     781: 86 8b        	stx	$8b                     ; 0x208b <__putchar+0xa8>
     783: a0 1e        	ldy	#$1e
     785: 84 8c        	sty	$8c                     ; 0x208c <__putchar+0xa9>
     787: a0 03        	ldy	#$3
     789: 84 8d        	sty	$8d                     ; 0x208d <__putchar+0xaa>
     78b: 64 01        	stz	$1                      ; 0x2001 <__putchar+0x1e>
     78d: a0 3f        	ldy	#$3f
     78f: 8c 00 d0     	sty	$d000                   ; 0xd000 <end_block9+0x98fc>
     792: a0 14        	ldy	#$14
     794: 8c 01 d0     	sty	$d001                   ; 0xd001 <end_block9+0x98fd>
     797: 8e 02 d0     	stx	$d002                   ; 0xd002 <end_block9+0x98fe>
     79a: a0 04        	ldy	#$4
     79c: 8c 03 d0     	sty	$d003                   ; 0xd003 <end_block9+0x98ff>
     79f: 86 01        	stx	$1                      ; 0x2001 <__putchar+0x1e>
     7a1: a0 d0        	ldy	#$d0
     7a3: aa           	tax
     7a4: 86 12        	stx	$12                     ; 0x2012 <__putchar+0x2f>
     7a6: 84 13        	sty	$13                     ; 0x2013 <__putchar+0x30>
     7a8: 86 19        	stx	$19                     ; 0x2019 <__putchar+0x36>
     7aa: a5 0f        	lda	$f                      ; 0x200f <__putchar+0x2c>
     7ac: 85 18        	sta	$18                     ; 0x2018 <__putchar+0x35>
     7ae: 78           	sei
     7af: a2 14        	ldx	#$14
     7b1: 86 0f        	stx	$f                      ; 0x200f <__putchar+0x2c>
     7b3: 18           	clc
     7b4: a5 19        	lda	$19                     ; 0x2019 <__putchar+0x36>
     7b6: 69 00        	adc	#$0
     7b8: 85 16        	sta	$16                     ; 0x2016 <__putchar+0x33>
     7ba: a2 01        	ldx	#$1
     7bc: b0 02        	bcs	$7c0 <f256main+0x7c>
     7be: a2 00        	ldx	#$0
     7c0: 86 17        	stx	$17                     ; 0x2017 <__putchar+0x34>
     7c2: 98           	tya
     7c3: 69 10        	adc	#$10
     7c5: a6 16        	ldx	$16                     ; 0x2016 <__putchar+0x33>
     7c7: 86 14        	stx	$14                     ; 0x2014 <__putchar+0x31>
     7c9: 85 15        	sta	$15                     ; 0x2015 <__putchar+0x32>
     7cb: b2 14        	lda	($14)                   ; 0x2014 <__putchar+0x31>
     7cd: a6 18        	ldx	$18                     ; 0x2018 <__putchar+0x35>
     7cf: 86 0f        	stx	$f                      ; 0x200f <__putchar+0x2c>
     7d1: 58           	cli
     7d2: 92 12        	sta	($12)                   ; 0x2012 <__putchar+0x2f>
     7d4: a6 0f        	ldx	$f                      ; 0x200f <__putchar+0x2c>
     7d6: 78           	sei
     7d7: a9 14        	lda	#$14
     7d9: 85 0f        	sta	$f                      ; 0x200f <__putchar+0x2c>
     7db: 98           	tya
     7dc: 5a           	phy
     7dd: a4 17        	ldy	$17                     ; 0x2017 <__putchar+0x34>
     7df: c0 01        	cpy	#$1
     7e1: 69 14        	adc	#$14
     7e3: a4 16        	ldy	$16                     ; 0x2016 <__putchar+0x33>
     7e5: 84 12        	sty	$12                     ; 0x2012 <__putchar+0x2f>
     7e7: 7a           	ply
     7e8: 85 13        	sta	$13                     ; 0x2013 <__putchar+0x30>
     7ea: b2 12        	lda	($12)                   ; 0x2012 <__putchar+0x2f>
     7ec: 85 14        	sta	$14                     ; 0x2014 <__putchar+0x31>
     7ee: 86 0f        	stx	$f                      ; 0x200f <__putchar+0x2c>
     7f0: 98           	tya
     7f1: a6 17        	ldx	$17                     ; 0x2017 <__putchar+0x34>
     7f3: e0 01        	cpx	#$1
     7f5: 69 04        	adc	#$4
     7f7: 58           	cli
     7f8: 85 13        	sta	$13                     ; 0x2013 <__putchar+0x30>
     7fa: a6 19        	ldx	$19                     ; 0x2019 <__putchar+0x36>
     7fc: a5 14        	lda	$14                     ; 0x2014 <__putchar+0x31>
     7fe: 92 12        	sta	($12)                   ; 0x2012 <__putchar+0x2f>
     800: e8           	inx
     801: d0 01        	bne	$804 <f256main+0xc0>
     803: c8           	iny
     804: c0 d3        	cpy	#$d3
     806: f0 03        	beq	$80b <f256main+0xc7>
     808: 4c a4 07     	jmp	$7a4 <f256main+0x60>
     80b: e0 ff        	cpx	#$ff
     80d: f0 03        	beq	$812 <f256main+0xce>
     80f: 4c a4 07     	jmp	$7a4 <f256main+0x60>
     812: 64 01        	stz	$1                      ; 0x2001 <__putchar+0x1e>
     814: 64 34        	stz	$34                     ; 0x2034 <__putchar+0x51>
     816: 64 35        	stz	$35                     ; 0x2035 <__putchar+0x52>
     818: a2 01        	ldx	#$1
     81a: 86 36        	stx	$36                     ; 0x2036 <__putchar+0x53>
     81c: 64 37        	stz	$37                     ; 0x2037 <__putchar+0x54>
     81e: 9c 01 d1     	stz	$d101                   ; 0xd101 <end_block9+0x99fd>
     821: 9c 02 d1     	stz	$d102                   ; 0xd102 <end_block9+0x99fe>
     824: 8e 03 d1     	stx	$d103                   ; 0xd103 <end_block9+0x99ff>
     827: a2 b6        	ldx	#$b6
     829: 86 12        	stx	$12                     ; 0x2012 <__putchar+0x2f>
     82b: 64 13        	stz	$13                     ; 0x2013 <__putchar+0x30>
     82d: a0 64        	ldy	#$64
     82f: 84 14        	sty	$14                     ; 0x2014 <__putchar+0x31>
     831: 64 15        	stz	$15                     ; 0x2015 <__putchar+0x32>
     833: 86 16        	stx	$16                     ; 0x2016 <__putchar+0x33>
     835: 64 17        	stz	$17                     ; 0x2017 <__putchar+0x34>
     837: 86 26        	stx	$26                     ; 0x2026 <__putchar+0x43>
     839: a2 00        	ldx	#$0
     83b: a9 28        	lda	#$28
     83d: 20 ab 1b     	jsr	$1bab <bitmapLine>
     840: a6 26        	ldx	$26                     ; 0x2026 <__putchar+0x43>
     842: e8           	inx
     843: e0 c1        	cpx	#$c1
     845: d0 e2        	bne	$829 <f256main+0xe5>
     847: a2 06        	ldx	#$6
     849: a0 22        	ldy	#$22
     84b: 86 12        	stx	$12                     ; 0x2012 <__putchar+0x2f>
     84d: 64 13        	stz	$13                     ; 0x2013 <__putchar+0x30>
     84f: a9 40        	lda	#$40
     851: 85 14        	sta	$14                     ; 0x2014 <__putchar+0x31>
     853: a9 01        	lda	#$1
     855: 85 15        	sta	$15                     ; 0x2015 <__putchar+0x32>
     857: 86 16        	stx	$16                     ; 0x2016 <__putchar+0x33>
     859: 64 17        	stz	$17                     ; 0x2017 <__putchar+0x34>
     85b: 86 26        	stx	$26                     ; 0x2026 <__putchar+0x43>
     85d: a2 00        	ldx	#$0
     85f: a9 f0        	lda	#$f0
     861: 84 27        	sty	$27                     ; 0x2027 <__putchar+0x44>
     863: 20 ab 1b     	jsr	$1bab <bitmapLine>
     866: a4 27        	ldy	$27                     ; 0x2027 <__putchar+0x44>
     868: a6 26        	ldx	$26                     ; 0x2026 <__putchar+0x43>
     86a: 88           	dey
     86b: e8           	inx
     86c: 98           	tya
     86d: d0 dc        	bne	$84b <f256main+0x107>
     86f: a9 01        	lda	#$1
     871: 0d 00 37     	ora	$3700                   ; 0x3700 <__bss_start>
     874: 8d 00 d1     	sta	$d100                   ; 0xd100 <end_block9+0x99fc>
     877: 9c 08 d1     	stz	$d108                   ; 0xd108 <end_block9+0x9a04>
     87a: 9c 10 d1     	stz	$d110                   ; 0xd110 <end_block9+0x9a0c>
     87d: a5 40        	lda	$40                     ; 0x2040 <__putchar+0x5d>
     87f: 29 01        	and	#$1
     881: a8           	tay
     882: a9 01        	lda	#$1
     884: 25 40        	and	$40                     ; 0x2040 <__putchar+0x5d>
     886: aa           	tax
     887: 9e 00 37     	stz	$3700,x                 ; 0x3700 <__bss_start>
     88a: 98           	tya
     88b: f0 08        	beq	$895 <f256main+0x151>
     88d: a2 08        	ldx	#$8
     88f: 86 24        	stx	$24                     ; 0x2024 <__putchar+0x41>
     891: a2 d1        	ldx	#$d1
     893: 86 25        	stx	$25                     ; 0x2025 <__putchar+0x42>
     895: b2 24        	lda	($24)                   ; 0x2024 <__putchar+0x41>
     897: 29 f9        	and	#$f9
     899: 92 24        	sta	($24)                   ; 0x2024 <__putchar+0x41>
     89b: a2 01        	ldx	#$1
     89d: 86 40        	stx	$40                     ; 0x2040 <__putchar+0x5d>
     89f: 20 a4 06     	jsr	$6a4 <textClear>
     8a2: 64 12        	stz	$12                     ; 0x2012 <__putchar+0x2f>
     8a4: 9c 00 de     	stz	$de00                   ; 0xde00 <end_block9+0xa6fc>
     8a7: 9c 01 de     	stz	$de01                   ; 0xde01 <end_block9+0xa6fd>
     8aa: a2 04        	ldx	#$4
     8ac: 8e 02 de     	stx	$de02                   ; 0xde02 <end_block9+0xa6fe>
     8af: 9c 03 de     	stz	$de03                   ; 0xde03 <end_block9+0xa6ff>
     8b2: ad 10 de     	lda	$de10                   ; 0xde10 <end_block9+0xa70c>
     8b5: ae 11 de     	ldx	$de11                   ; 0xde11 <end_block9+0xa70d>
     8b8: 86 13        	stx	$13                     ; 0x2013 <__putchar+0x30>
     8ba: ae 12 de     	ldx	$de12                   ; 0xde12 <end_block9+0xa70e>
     8bd: ae 13 de     	ldx	$de13                   ; 0xde13 <end_block9+0xa70f>
     8c0: 18           	clc
     8c1: 65 12        	adc	$12                     ; 0x2012 <__putchar+0x2f>
     8c3: 85 12        	sta	$12                     ; 0x2012 <__putchar+0x2f>
     8c5: a9 d8        	lda	#$d8
     8c7: 65 13        	adc	$13                     ; 0x2013 <__putchar+0x30>
     8c9: 85 13        	sta	$13                     ; 0x2013 <__putchar+0x30>
     8cb: a9 ff        	lda	#$ff
     8cd: 92 12        	sta	($12)                   ; 0x2012 <__putchar+0x2f>
     8cf: a0 01        	ldy	#$1
     8d1: 91 12        	sta	($12),y                 ; 0x2012 <__putchar+0x2f>
     8d3: c8           	iny
     8d4: 91 12        	sta	($12),y                 ; 0x2012 <__putchar+0x2f>
     8d6: c8           	iny
     8d7: 91 12        	sta	($12),y                 ; 0x2012 <__putchar+0x2f>
     8d9: ad 01 d0     	lda	$d001                   ; 0xd001 <end_block9+0x98fd>
     8dc: 29 ef        	and	#$ef
     8de: 8d 01 d0     	sta	$d001                   ; 0xd001 <end_block9+0x98fd>
     8e1: a0 10        	ldy	#$10
     8e3: 84 43        	sty	$43                     ; 0x2043 <__putchar+0x60>
     8e5: 9c 01 d2     	stz	$d201                   ; 0xd201 <end_block9+0x9afd>
     8e8: a2 88        	ldx	#$88
     8ea: 8e 02 d2     	stx	$d202                   ; 0xd202 <end_block9+0x9afe>
     8ed: a2 03        	ldx	#$3
     8ef: 8e 03 d2     	stx	$d203                   ; 0xd203 <end_block9+0x9aff>
     8f2: a2 17        	ldx	#$17
     8f4: 8e 04 d2     	stx	$d204                   ; 0xd204 <end_block9+0x9b00>
     8f7: 9c 05 d2     	stz	$d205                   ; 0xd205 <end_block9+0x9b01>
     8fa: a2 13        	ldx	#$13
     8fc: 8e 06 d2     	stx	$d206                   ; 0xd206 <end_block9+0x9b02>
     8ff: 9c 07 d2     	stz	$d207                   ; 0xd207 <end_block9+0x9b03>
     902: 9c 08 d2     	stz	$d208                   ; 0xd208 <end_block9+0x9b04>
     905: 9c 09 d2     	stz	$d209                   ; 0xd209 <end_block9+0x9b05>
     908: 9c 0a d2     	stz	$d20a                   ; 0xd20a <end_block9+0x9b06>
     90b: 9c 0b d2     	stz	$d20b                   ; 0xd20b <end_block9+0x9b07>
     90e: 84 44        	sty	$44                     ; 0x2044 <__putchar+0x61>
     910: a9 20        	lda	#$20
     912: 8d 0d d2     	sta	$d20d                   ; 0xd20d <end_block9+0x9b09>
     915: a9 8f        	lda	#$8f
     917: 8d 0e d2     	sta	$d20e                   ; 0xd20e <end_block9+0x9b0a>
     91a: a9 03        	lda	#$3
     91c: 8d 0f d2     	sta	$d20f                   ; 0xd20f <end_block9+0x9b0b>
     91f: a9 17        	lda	#$17
     921: 8d 10 d2     	sta	$d210                   ; 0xd210 <end_block9+0x9b0c>
     924: 9c 11 d2     	stz	$d211                   ; 0xd211 <end_block9+0x9b0d>
     927: 8e 12 d2     	stx	$d212                   ; 0xd212 <end_block9+0x9b0e>
     92a: 9c 13 d2     	stz	$d213                   ; 0xd213 <end_block9+0x9b0f>
     92d: 9c 14 d2     	stz	$d214                   ; 0xd214 <end_block9+0x9b10>
     930: 9c 15 d2     	stz	$d215                   ; 0xd215 <end_block9+0x9b11>
     933: 9c 16 d2     	stz	$d216                   ; 0xd216 <end_block9+0x9b12>
     936: 9c 17 d2     	stz	$d217                   ; 0xd217 <end_block9+0x9b13>
     939: 9c 80 d2     	stz	$d280                   ; 0xd280 <end_block9+0x9b7c>
     93c: 9c 81 d2     	stz	$d281                   ; 0xd281 <end_block9+0x9b7d>
     93f: a2 04        	ldx	#$4
     941: 8e 82 d2     	stx	$d282                   ; 0xd282 <end_block9+0x9b7e>
     944: 9c 83 d2     	stz	$d283                   ; 0xd283 <end_block9+0x9b7f>
     947: a5 43        	lda	$43                     ; 0x2043 <__putchar+0x60>
     949: a2 11        	ldx	#$11
     94b: c9 08        	cmp	#$8
     94d: f0 02        	beq	$951 <f256main+0x20d>
     94f: a2 01        	ldx	#$1
     951: 8e 00 d2     	stx	$d200                   ; 0xd200 <end_block9+0x9afc>
     954: a6 44        	ldx	$44                     ; 0x2044 <__putchar+0x61>
     956: e0 08        	cpx	#$8
     958: f0 02        	beq	$95c <f256main+0x218>
     95a: a0 00        	ldy	#$0
     95c: 8c 0c d2     	sty	$d20c                   ; 0xd20c <end_block9+0x9b08>
     95f: a5 45        	lda	$45                     ; 0x2045 <__putchar+0x62>
     961: 29 01        	and	#$1
     963: a2 10        	ldx	#$10
     965: a8           	tay
     966: d0 02        	bne	$96a <f256main+0x226>
     968: a2 00        	ldx	#$0
     96a: 8e 18 d2     	stx	$d218                   ; 0xd218 <end_block9+0x9b14>
     96d: a2 03        	ldx	#$3
     96f: 86 8e        	stx	$8e                     ; 0x208e <__putchar+0xab>
     971: 64 f3        	stz	$f3                     ; 0x20f3 <__putchar+0x110>
     973: a6 8b        	ldx	$8b                     ; 0x208b <__putchar+0xa8>
     975: 86 f4        	stx	$f4                     ; 0x20f4 <__putchar+0x111>
     977: 64 f5        	stz	$f5                     ; 0x20f5 <__putchar+0x112>
     979: 18           	clc
     97a: a5 10        	lda	$10                     ; 0x2010 <__putchar+0x2d>
     97c: 69 0d        	adc	#$d
     97e: 85 16        	sta	$16                     ; 0x2016 <__putchar+0x33>
     980: a5 11        	lda	$11                     ; 0x2011 <__putchar+0x2e>
     982: 69 00        	adc	#$0
     984: 85 17        	sta	$17                     ; 0x2017 <__putchar+0x34>
     986: a2 03        	ldx	#$3
     988: 86 12        	stx	$12                     ; 0x2012 <__putchar+0x2f>
     98a: a2 37        	ldx	#$37
     98c: 86 13        	stx	$13                     ; 0x2013 <__putchar+0x30>
     98e: a0 d9        	ldy	#$d9
     990: 64 18        	stz	$18                     ; 0x2018 <__putchar+0x35>
     992: a2 00        	ldx	#$0
     994: 5a           	phy
     995: a5 16        	lda	$16                     ; 0x2016 <__putchar+0x33>
     997: a0 05        	ldy	#$5
     999: 91 10        	sta	($10),y                 ; 0x2010 <__putchar+0x2d>
     99b: a5 17        	lda	$17                     ; 0x2017 <__putchar+0x34>
     99d: c8           	iny
     99e: 91 10        	sta	($10),y                 ; 0x2010 <__putchar+0x2d>
     9a0: 7a           	ply
     9a1: 20 f0 ff     	jsr	$fff0 <end_block9+0xc8ec>
     9a4: 92 16        	sta	($16)                   ; 0x2016 <__putchar+0x33>
     9a6: a9 00        	lda	#$0
     9a8: 6a           	ror
     9a9: 85 12        	sta	$12                     ; 0x2012 <__putchar+0x2f>
     9ab: a5 18        	lda	$18                     ; 0x2018 <__putchar+0x35>
     9ad: 85 12        	sta	$12                     ; 0x2012 <__putchar+0x2f>
     9af: 84 13        	sty	$13                     ; 0x2013 <__putchar+0x30>
     9b1: a9 60        	lda	#$60
     9b3: 9d 46 00     	sta	$46,x                   ; 0x46 <_spriteCtl>
     9b6: 92 12        	sta	($12)                   ; 0x2012 <__putchar+0x2f>
     9b8: a5 18        	lda	$18                     ; 0x2018 <__putchar+0x35>
     9ba: 09 01        	ora	#$1
     9bc: 85 12        	sta	$12                     ; 0x2012 <__putchar+0x2f>
     9be: a9 00        	lda	#$0
     9c0: 92 12        	sta	($12)                   ; 0x2012 <__putchar+0x2f>
     9c2: a5 18        	lda	$18                     ; 0x2018 <__putchar+0x35>
     9c4: 09 02        	ora	#$2
     9c6: 85 12        	sta	$12                     ; 0x2012 <__putchar+0x2f>
     9c8: a9 88        	lda	#$88
     9ca: 92 12        	sta	($12)                   ; 0x2012 <__putchar+0x2f>
     9cc: a5 18        	lda	$18                     ; 0x2018 <__putchar+0x35>
     9ce: 09 03        	ora	#$3
     9d0: 85 12        	sta	$12                     ; 0x2012 <__putchar+0x2f>
     9d2: a9 02        	lda	#$2
     9d4: 92 12        	sta	($12)                   ; 0x2012 <__putchar+0x2f>
     9d6: e8           	inx
     9d7: 18           	clc
     9d8: a5 18        	lda	$18                     ; 0x2018 <__putchar+0x35>
     9da: 69 08        	adc	#$8
     9dc: 85 18        	sta	$18                     ; 0x2018 <__putchar+0x35>
     9de: 98           	tya
     9df: 69 00        	adc	#$0
     9e1: a8           	tay
     9e2: e0 09        	cpx	#$9
     9e4: d0 c5        	bne	$9ab <f256main+0x267>
     9e6: 64 50        	stz	$50                     ; 0x2050 <__putchar+0x6d>
     9e8: 9c 50 d9     	stz	$d950                   ; 0xd950 <end_block9+0xa24c>
     9eb: 9c 51 d9     	stz	$d951                   ; 0xd951 <end_block9+0xa24d>
     9ee: a2 80        	ldx	#$80
     9f0: 8e 52 d9     	stx	$d952                   ; 0xd952 <end_block9+0xa24e>
     9f3: a0 03        	ldy	#$3
     9f5: 8c 53 d9     	sty	$d953                   ; 0xd953 <end_block9+0xa24f>
     9f8: 64 51        	stz	$51                     ; 0x2051 <__putchar+0x6e>
     9fa: 9c 58 d9     	stz	$d958                   ; 0xd958 <end_block9+0xa254>
     9fd: 9c 59 d9     	stz	$d959                   ; 0xd959 <end_block9+0xa255>
     a00: a2 84        	ldx	#$84
     a02: 8e 5a d9     	stx	$d95a                   ; 0xd95a <end_block9+0xa256>
     a05: 8c 5b d9     	sty	$d95b                   ; 0xd95b <end_block9+0xa257>
     a08: a2 05        	ldx	#$5
     a0a: 86 32        	stx	$32                     ; 0x2032 <__putchar+0x4f>
     a0c: 8e 14 d0     	stx	$d014                   ; 0xd014 <end_block9+0x9910>
     a0f: 9c 15 d0     	stz	$d015                   ; 0xd015 <end_block9+0x9911>
     a12: 64 33        	stz	$33                     ; 0x2033 <__putchar+0x50>
     a14: 9c 16 d0     	stz	$d016                   ; 0xd016 <end_block9+0x9912>
     a17: 9c 17 d0     	stz	$d017                   ; 0xd017 <end_block9+0x9913>
     a1a: a2 11        	ldx	#$11
     a1c: 86 12        	stx	$12                     ; 0x2012 <__putchar+0x2f>
     a1e: a2 36        	ldx	#$36
     a20: 86 13        	stx	$13                     ; 0x2013 <__putchar+0x30>
     a22: 20 80 23     	jsr	$2380 <printf>
     a25: a2 05        	ldx	#$5
     a27: 86 32        	stx	$32                     ; 0x2032 <__putchar+0x4f>
     a29: 8e 14 d0     	stx	$d014                   ; 0xd014 <end_block9+0x9910>
     a2c: 9c 15 d0     	stz	$d015                   ; 0xd015 <end_block9+0x9911>
     a2f: a2 01        	ldx	#$1
     a31: 86 33        	stx	$33                     ; 0x2033 <__putchar+0x50>
     a33: 8e 16 d0     	stx	$d016                   ; 0xd016 <end_block9+0x9912>
     a36: 9c 17 d0     	stz	$d017                   ; 0xd017 <end_block9+0x9913>
     a39: a2 37        	ldx	#$37
     a3b: 86 12        	stx	$12                     ; 0x2012 <__putchar+0x2f>
     a3d: a2 36        	ldx	#$36
     a3f: 86 13        	stx	$13                     ; 0x2013 <__putchar+0x30>
     a41: 20 80 23     	jsr	$2380 <printf>
     a44: a2 3c        	ldx	#$3c
     a46: 86 32        	stx	$32                     ; 0x2032 <__putchar+0x4f>
     a48: 8e 14 d0     	stx	$d014                   ; 0xd014 <end_block9+0x9910>
     a4b: 9c 15 d0     	stz	$d015                   ; 0xd015 <end_block9+0x9911>
     a4e: a2 01        	ldx	#$1
     a50: 86 33        	stx	$33                     ; 0x2033 <__putchar+0x50>
     a52: 8e 16 d0     	stx	$d016                   ; 0xd016 <end_block9+0x9912>
     a55: 9c 17 d0     	stz	$d017                   ; 0xd017 <end_block9+0x9913>
     a58: a2 12        	ldx	#$12
     a5a: 86 12        	stx	$12                     ; 0x2012 <__putchar+0x2f>
     a5c: a2 35        	ldx	#$35
     a5e: 86 13        	stx	$13                     ; 0x2013 <__putchar+0x30>
     a60: 20 80 23     	jsr	$2380 <printf>
     a63: a2 21        	ldx	#$21
     a65: 86 32        	stx	$32                     ; 0x2032 <__putchar+0x4f>
     a67: 8e 14 d0     	stx	$d014                   ; 0xd014 <end_block9+0x9910>
     a6a: 9c 15 d0     	stz	$d015                   ; 0xd015 <end_block9+0x9911>
     a6d: a2 10        	ldx	#$10
     a6f: 86 33        	stx	$33                     ; 0x2033 <__putchar+0x50>
     a71: 8e 16 d0     	stx	$d016                   ; 0xd016 <end_block9+0x9912>
     a74: 9c 17 d0     	stz	$d017                   ; 0xd017 <end_block9+0x9913>
     a77: a2 e5        	ldx	#$e5
     a79: 86 12        	stx	$12                     ; 0x2012 <__putchar+0x2f>
     a7b: a2 35        	ldx	#$35
     a7d: 86 13        	stx	$13                     ; 0x2013 <__putchar+0x30>
     a7f: 20 80 23     	jsr	$2380 <printf>
     a82: a2 22        	ldx	#$22
     a84: 86 32        	stx	$32                     ; 0x2032 <__putchar+0x4f>
     a86: 8e 14 d0     	stx	$d014                   ; 0xd014 <end_block9+0x9910>
     a89: 9c 15 d0     	stz	$d015                   ; 0xd015 <end_block9+0x9911>
     a8c: a2 17        	ldx	#$17
     a8e: 86 33        	stx	$33                     ; 0x2033 <__putchar+0x50>
     a90: 8e 16 d0     	stx	$d016                   ; 0xd016 <end_block9+0x9912>
     a93: 9c 17 d0     	stz	$d017                   ; 0xd017 <end_block9+0x9913>
     a96: a2 ae        	ldx	#$ae
     a98: 86 12        	stx	$12                     ; 0x2012 <__putchar+0x2f>
     a9a: a2 36        	ldx	#$36
     a9c: 86 13        	stx	$13                     ; 0x2013 <__putchar+0x30>
     a9e: 20 80 23     	jsr	$2380 <printf>
     aa1: a2 0c        	ldx	#$c
     aa3: 86 32        	stx	$32                     ; 0x2032 <__putchar+0x4f>
     aa5: 8e 14 d0     	stx	$d014                   ; 0xd014 <end_block9+0x9910>
     aa8: 9c 15 d0     	stz	$d015                   ; 0xd015 <end_block9+0x9911>
     aab: a2 17        	ldx	#$17
     aad: 86 33        	stx	$33                     ; 0x2033 <__putchar+0x50>
     aaf: 8e 16 d0     	stx	$d016                   ; 0xd016 <end_block9+0x9912>
     ab2: 9c 17 d0     	stz	$d017                   ; 0xd017 <end_block9+0x9913>
     ab5: a2 5b        	ldx	#$5b
     ab7: 86 12        	stx	$12                     ; 0x2012 <__putchar+0x2f>
     ab9: a2 35        	ldx	#$35
     abb: 86 13        	stx	$13                     ; 0x2013 <__putchar+0x30>
     abd: 20 80 23     	jsr	$2380 <printf>
     ac0: a2 3c        	ldx	#$3c
     ac2: 86 32        	stx	$32                     ; 0x2032 <__putchar+0x4f>
     ac4: 8e 14 d0     	stx	$d014                   ; 0xd014 <end_block9+0x9910>
     ac7: 9c 15 d0     	stz	$d015                   ; 0xd015 <end_block9+0x9911>
     aca: a2 02        	ldx	#$2
     acc: 86 33        	stx	$33                     ; 0x2033 <__putchar+0x50>
     ace: 8e 16 d0     	stx	$d016                   ; 0xd016 <end_block9+0x9912>
     ad1: 9c 17 d0     	stz	$d017                   ; 0xd017 <end_block9+0x9913>
     ad4: a2 4a        	ldx	#$4a
     ad6: 86 12        	stx	$12                     ; 0x2012 <__putchar+0x2f>
     ad8: a2 35        	ldx	#$35
     ada: 86 13        	stx	$13                     ; 0x2013 <__putchar+0x30>
     adc: 20 80 23     	jsr	$2380 <printf>
     adf: a2 3c        	ldx	#$3c
     ae1: 86 32        	stx	$32                     ; 0x2032 <__putchar+0x4f>
     ae3: 8e 14 d0     	stx	$d014                   ; 0xd014 <end_block9+0x9910>
     ae6: 9c 15 d0     	stz	$d015                   ; 0xd015 <end_block9+0x9911>
     ae9: a2 03        	ldx	#$3
     aeb: 86 33        	stx	$33                     ; 0x2033 <__putchar+0x50>
     aed: 8e 16 d0     	stx	$d016                   ; 0xd016 <end_block9+0x9912>
     af0: 9c 17 d0     	stz	$d017                   ; 0xd017 <end_block9+0x9913>
     af3: a2 f1        	ldx	#$f1
     af5: 86 12        	stx	$12                     ; 0x2012 <__putchar+0x2f>
     af7: a2 36        	ldx	#$36
     af9: 86 13        	stx	$13                     ; 0x2013 <__putchar+0x30>
     afb: 20 80 23     	jsr	$2380 <printf>
     afe: a2 80        	ldx	#$80
     b00: 86 f3        	stx	$f3                     ; 0x20f3 <__putchar+0x110>
     b02: a2 03        	ldx	#$3
     b04: 86 12        	stx	$12                     ; 0x2012 <__putchar+0x2f>
     b06: a2 37        	ldx	#$37
     b08: 86 13        	stx	$13                     ; 0x2013 <__putchar+0x30>
     b0a: a0 05        	ldy	#$5
     b0c: b1 10        	lda	($10),y                 ; 0x2010 <__putchar+0x2d>
     b0e: 85 16        	sta	$16                     ; 0x2016 <__putchar+0x33>
     b10: c8           	iny
     b11: b1 10        	lda	($10),y                 ; 0x2010 <__putchar+0x2d>
     b13: 85 17        	sta	$17                     ; 0x2017 <__putchar+0x34>
     b15: 20 f0 ff     	jsr	$fff0 <end_block9+0xc8ec>
     b18: 92 16        	sta	($16)                   ; 0x2016 <__putchar+0x33>
     b1a: a9 00        	lda	#$0
     b1c: 6a           	ror
     b1d: 85 12        	sta	$12                     ; 0x2012 <__putchar+0x2f>
     b1f: 18           	clc
     b20: a9 03        	lda	#$3
     b22: 72 16        	adc	($16)                   ; 0x2016 <__putchar+0x33>
     b24: 85 8e        	sta	$8e                     ; 0x208e <__putchar+0xab>
     b26: 64 f3        	stz	$f3                     ; 0x20f3 <__putchar+0x110>
     b28: a6 8e        	ldx	$8e                     ; 0x208e <__putchar+0xab>
     b2a: 86 f4        	stx	$f4                     ; 0x20f4 <__putchar+0x111>
     b2c: a2 03        	ldx	#$3
     b2e: 86 f5        	stx	$f5                     ; 0x20f5 <__putchar+0x112>
     b30: 20 f0 ff     	jsr	$fff0 <end_block9+0xc8ec>
     b33: 92 16        	sta	($16)                   ; 0x2016 <__putchar+0x33>
     b35: a9 00        	lda	#$0
     b37: 6a           	ror
     b38: 85 12        	sta	$12                     ; 0x2012 <__putchar+0x2f>
     b3a: 64 01        	stz	$1                      ; 0x2001 <__putchar+0x1e>
     b3c: 64 12        	stz	$12                     ; 0x2012 <__putchar+0x2f>
     b3e: a9 00        	lda	#$0
     b40: a0 04        	ldy	#$4
     b42: 91 10        	sta	($10),y                 ; 0x2010 <__putchar+0x2d>
     b44: 64 26        	stz	$26                     ; 0x2026 <__putchar+0x43>
     b46: a0 02        	ldy	#$2
     b48: 91 10        	sta	($10),y                 ; 0x2010 <__putchar+0x2d>
     b4a: a0 09        	ldy	#$9
     b4c: 91 10        	sta	($10),y                 ; 0x2010 <__putchar+0x2d>
     b4e: a8           	tay
     b4f: a2 13        	ldx	#$13
     b51: 64 2e        	stz	$2e                     ; 0x202e <__putchar+0x4b>
     b53: 64 29        	stz	$29                     ; 0x2029 <__putchar+0x46>
     b55: 5a           	phy
     b56: a0 07        	ldy	#$7
     b58: 91 10        	sta	($10),y                 ; 0x2010 <__putchar+0x2d>
     b5a: a9 80        	lda	#$80
     b5c: a0 03        	ldy	#$3
     b5e: 4c 41 1b     	jmp	$1b41 <f256main+0x13fd>
     b61: 5a           	phy
     b62: a0 09        	ldy	#$9
     b64: b1 10        	lda	($10),y                 ; 0x2010 <__putchar+0x2d>
     b66: 7a           	ply
     b67: 85 2a        	sta	$2a                     ; 0x202a <__putchar+0x47>
     b69: 98           	tya
     b6a: a0 0b        	ldy	#$b
     b6c: 91 10        	sta	($10),y                 ; 0x2010 <__putchar+0x2d>
     b6e: a5 29        	lda	$29                     ; 0x2029 <__putchar+0x46>
     b70: c8           	iny
     b71: 91 10        	sta	($10),y                 ; 0x2010 <__putchar+0x2d>
     b73: a0 07        	ldy	#$7
     b75: b1 10        	lda	($10),y                 ; 0x2010 <__putchar+0x2d>
     b77: a8           	tay
     b78: a6 2e        	ldx	$2e                     ; 0x202e <__putchar+0x4b>
     b7a: 98           	tya
     b7b: a0 07        	ldy	#$7
     b7d: 91 10        	sta	($10),y                 ; 0x2010 <__putchar+0x2d>
     b7f: 64 91        	stz	$91                     ; 0x2091 <__putchar+0xae>
     b81: a0 03        	ldy	#$3
     b83: 84 12        	sty	$12                     ; 0x2012 <__putchar+0x2f>
     b85: a0 37        	ldy	#$37
     b87: 84 13        	sty	$13                     ; 0x2013 <__putchar+0x30>
     b89: a0 05        	ldy	#$5
     b8b: b1 10        	lda	($10),y                 ; 0x2010 <__putchar+0x2d>
     b8d: 85 14        	sta	$14                     ; 0x2014 <__putchar+0x31>
     b8f: c8           	iny
     b90: b1 10        	lda	($10),y                 ; 0x2010 <__putchar+0x2d>
     b92: 85 15        	sta	$15                     ; 0x2015 <__putchar+0x32>
     b94: 20 00 ff     	jsr	$ff00 <end_block9+0xc7fc>
     b97: 92 14        	sta	($14)                   ; 0x2014 <__putchar+0x31>
     b99: a9 00        	lda	#$0
     b9b: 6a           	ror
     b9c: 85 12        	sta	$12                     ; 0x2012 <__putchar+0x2f>
     b9e: a5 91        	lda	$91                     ; 0x2091 <__putchar+0xae>
     ba0: c9 08        	cmp	#$8
     ba2: d0 03        	bne	$ba7 <f256main+0x463>
     ba4: 4c 90 0c     	jmp	$c90 <f256main+0x54c>
     ba7: a4 2a        	ldy	$2a                     ; 0x202a <__putchar+0x47>
     ba9: c9 0a        	cmp	#$a
     bab: d0 03        	bne	$bb0 <f256main+0x46c>
     bad: 4c 75 0c     	jmp	$c75 <f256main+0x531>
     bb0: 86 2e        	stx	$2e                     ; 0x202e <__putchar+0x4b>
     bb2: 48           	pha
     bb3: 5a           	phy
     bb4: a0 0c        	ldy	#$c
     bb6: b1 10        	lda	($10),y                 ; 0x2010 <__putchar+0x2d>
     bb8: 7a           	ply
     bb9: 85 29        	sta	$29                     ; 0x2029 <__putchar+0x46>
     bbb: 98           	tya
     bbc: 5a           	phy
     bbd: a0 09        	ldy	#$9
     bbf: 91 10        	sta	($10),y                 ; 0x2010 <__putchar+0x2d>
     bc1: 7a           	ply
     bc2: 84 13        	sty	$13                     ; 0x2013 <__putchar+0x30>
     bc4: a0 0b        	ldy	#$b
     bc6: b1 10        	lda	($10),y                 ; 0x2010 <__putchar+0x2d>
     bc8: 85 14        	sta	$14                     ; 0x2014 <__putchar+0x31>
     bca: a8           	tay
     bcb: 5a           	phy
     bcc: a0 08        	ldy	#$8
     bce: b1 10        	lda	($10),y                 ; 0x2010 <__putchar+0x2d>
     bd0: 7a           	ply
     bd1: 85 12        	sta	$12                     ; 0x2012 <__putchar+0x2f>
     bd3: 68           	pla
     bd4: a6 12        	ldx	$12                     ; 0x2012 <__putchar+0x2f>
     bd6: c9 52        	cmp	#$52
     bd8: f0 03        	beq	$bdd <f256main+0x499>
     bda: 4c 44 1b     	jmp	$1b44 <f256main+0x1400>
     bdd: a5 95        	lda	$95                     ; 0x2095 <__putchar+0xb2>
     bdf: c9 04        	cmp	#$4
     be1: 48           	pha
     be2: a5 13        	lda	$13                     ; 0x2013 <__putchar+0x30>
     be4: a0 09        	ldy	#$9
     be6: 91 10        	sta	($10),y                 ; 0x2010 <__putchar+0x2d>
     be8: 68           	pla
     be9: a4 14        	ldy	$14                     ; 0x2014 <__putchar+0x31>
     beb: a6 12        	ldx	$12                     ; 0x2012 <__putchar+0x2f>
     bed: 90 03        	bcc	$bf2 <f256main+0x4ae>
     bef: 4c 44 1b     	jmp	$1b44 <f256main+0x1400>
     bf2: 48           	pha
     bf3: a0 03        	ldy	#$3
     bf5: b1 10        	lda	($10),y                 ; 0x2010 <__putchar+0x2d>
     bf7: 85 12        	sta	$12                     ; 0x2012 <__putchar+0x2f>
     bf9: 68           	pla
     bfa: 0a           	asl
     bfb: aa           	tax
     bfc: 7c 91 2f     	jmp	($2f91,x)               ; 0x2f91 <__set_v+0x9>
     bff: a2 3c        	ldx	#$3c
     c01: 86 32        	stx	$32                     ; 0x2032 <__putchar+0x4f>
     c03: 8e 14 d0     	stx	$d014                   ; 0xd014 <end_block9+0x9910>
     c06: 9c 15 d0     	stz	$d015                   ; 0xd015 <end_block9+0x9911>
     c09: a2 04        	ldx	#$4
     c0b: 86 33        	stx	$33                     ; 0x2033 <__putchar+0x50>
     c0d: 8e 16 d0     	stx	$d016                   ; 0xd016 <end_block9+0x9912>
     c10: 9c 17 d0     	stz	$d017                   ; 0xd017 <end_block9+0x9913>
     c13: a5 88        	lda	$88                     ; 0x2088 <__putchar+0xa5>
     c15: 92 10        	sta	($10)                   ; 0x2010 <__putchar+0x2d>
     c17: a9 00        	lda	#$0
     c19: a0 01        	ldy	#$1
     c1b: 91 10        	sta	($10),y                 ; 0x2010 <__putchar+0x2d>
     c1d: a2 2c        	ldx	#$2c
     c1f: 86 12        	stx	$12                     ; 0x2012 <__putchar+0x2f>
     c21: a2 36        	ldx	#$36
     c23: 86 13        	stx	$13                     ; 0x2013 <__putchar+0x30>
     c25: 20 80 23     	jsr	$2380 <printf>
     c28: a2 80        	ldx	#$80
     c2a: 86 f3        	stx	$f3                     ; 0x20f3 <__putchar+0x110>
     c2c: a2 03        	ldx	#$3
     c2e: 86 12        	stx	$12                     ; 0x2012 <__putchar+0x2f>
     c30: a2 37        	ldx	#$37
     c32: 86 13        	stx	$13                     ; 0x2013 <__putchar+0x30>
     c34: a0 05        	ldy	#$5
     c36: b1 10        	lda	($10),y                 ; 0x2010 <__putchar+0x2d>
     c38: 85 16        	sta	$16                     ; 0x2016 <__putchar+0x33>
     c3a: c8           	iny
     c3b: b1 10        	lda	($10),y                 ; 0x2010 <__putchar+0x2d>
     c3d: 85 17        	sta	$17                     ; 0x2017 <__putchar+0x34>
     c3f: 20 f0 ff     	jsr	$fff0 <end_block9+0xc8ec>
     c42: 92 16        	sta	($16)                   ; 0x2016 <__putchar+0x33>
     c44: a9 00        	lda	#$0
     c46: 6a           	ror
     c47: 85 12        	sta	$12                     ; 0x2012 <__putchar+0x2f>
     c49: b2 16        	lda	($16)                   ; 0x2016 <__putchar+0x33>
     c4b: 1a           	inc
     c4c: 85 8b        	sta	$8b                     ; 0x208b <__putchar+0xa8>
     c4e: 64 f3        	stz	$f3                     ; 0x20f3 <__putchar+0x110>
     c50: a6 8b        	ldx	$8b                     ; 0x208b <__putchar+0xa8>
     c52: 86 f4        	stx	$f4                     ; 0x20f4 <__putchar+0x111>
     c54: 64 f5        	stz	$f5                     ; 0x20f5 <__putchar+0x112>
     c56: a5 2a        	lda	$2a                     ; 0x202a <__putchar+0x47>
     c58: a0 09        	ldy	#$9
     c5a: 91 10        	sta	($10),y                 ; 0x2010 <__putchar+0x2d>
     c5c: a0 0b        	ldy	#$b
     c5e: b1 10        	lda	($10),y                 ; 0x2010 <__putchar+0x2d>
     c60: a8           	tay
     c61: 5a           	phy
     c62: a0 08        	ldy	#$8
     c64: b1 10        	lda	($10),y                 ; 0x2010 <__putchar+0x2d>
     c66: 7a           	ply
     c67: aa           	tax
     c68: 20 f0 ff     	jsr	$fff0 <end_block9+0xc8ec>
     c6b: 92 16        	sta	($16)                   ; 0x2016 <__putchar+0x33>
     c6d: a9 00        	lda	#$0
     c6f: 6a           	ror
     c70: 85 12        	sta	$12                     ; 0x2012 <__putchar+0x2f>
     c72: 4c 44 1b     	jmp	$1b44 <f256main+0x1400>
     c75: 86 2e        	stx	$2e                     ; 0x202e <__putchar+0x4b>
     c77: a5 8a        	lda	$8a                     ; 0x208a <__putchar+0xa7>
     c79: 29 01        	and	#$1
     c7b: d0 03        	bne	$c80 <f256main+0x53c>
     c7d: 4c 24 11     	jmp	$1124 <f256main+0x9e0>
     c80: 5a           	phy
     c81: a0 0c        	ldy	#$c
     c83: b1 10        	lda	($10),y                 ; 0x2010 <__putchar+0x2d>
     c85: 7a           	ply
     c86: 85 29        	sta	$29                     ; 0x2029 <__putchar+0x46>
     c88: a2 9f        	ldx	#$9f
     c8a: 8e 08 d6     	stx	$d608                   ; 0xd608 <end_block9+0x9f04>
     c8d: 4c 44 11     	jmp	$1144 <f256main+0xa00>
     c90: 86 2e        	stx	$2e                     ; 0x202e <__putchar+0x4b>
     c92: a6 95        	ldx	$95                     ; 0x2095 <__putchar+0xb2>
     c94: 8a           	txa
     c95: 38           	sec
     c96: e9 92        	sbc	#$92
     c98: a4 2a        	ldy	$2a                     ; 0x202a <__putchar+0x47>
     c9a: 50 02        	bvc	$c9e <f256main+0x55a>
     c9c: 49 80        	eor	#$80
     c9e: c9 00        	cmp	#$0
     ca0: 30 03        	bmi	$ca5 <f256main+0x561>
     ca2: 4c c8 11     	jmp	$11c8 <f256main+0xa84>
     ca5: e0 81        	cpx	#$81
     ca7: d0 03        	bne	$cac <f256main+0x568>
     ca9: 4c b3 15     	jmp	$15b3 <f256main+0xe6f>
     cac: e0 83        	cpx	#$83
     cae: d0 03        	bne	$cb3 <f256main+0x56f>
     cb0: 4c 66 16     	jmp	$1666 <f256main+0xf22>
     cb3: e0 85        	cpx	#$85
     cb5: f0 03        	beq	$cba <f256main+0x576>
     cb7: 4c 0c 17     	jmp	$170c <f256main+0xfc8>
     cba: 5a           	phy
     cbb: a0 0c        	ldy	#$c
     cbd: b1 10        	lda	($10),y                 ; 0x2010 <__putchar+0x2d>
     cbf: 85 29        	sta	$29                     ; 0x2029 <__putchar+0x46>
     cc1: 64 88        	stz	$88                     ; 0x2088 <__putchar+0xa5>
     cc3: a2 80        	ldx	#$80
     cc5: 86 f3        	stx	$f3                     ; 0x20f3 <__putchar+0x110>
     cc7: a0 05        	ldy	#$5
     cc9: b1 10        	lda	($10),y                 ; 0x2010 <__putchar+0x2d>
     ccb: 85 16        	sta	$16                     ; 0x2016 <__putchar+0x33>
     ccd: c8           	iny
     cce: b1 10        	lda	($10),y                 ; 0x2010 <__putchar+0x2d>
     cd0: 7a           	ply
     cd1: 85 17        	sta	$17                     ; 0x2017 <__putchar+0x34>
     cd3: 20 f0 ff     	jsr	$fff0 <end_block9+0xc8ec>
     cd6: 92 16        	sta	($16)                   ; 0x2016 <__putchar+0x33>
     cd8: a9 00        	lda	#$0
     cda: 6a           	ror
     cdb: 85 12        	sta	$12                     ; 0x2012 <__putchar+0x2f>
     cdd: a9 19        	lda	#$19
     cdf: 18           	clc
     ce0: 72 16        	adc	($16)                   ; 0x2016 <__putchar+0x33>
     ce2: 85 8c        	sta	$8c                     ; 0x208c <__putchar+0xa9>
     ce4: 64 8f        	stz	$8f                     ; 0x208f <__putchar+0xac>
     ce6: 64 90        	stz	$90                     ; 0x2090 <__putchar+0xad>
     ce8: a5 8a        	lda	$8a                     ; 0x208a <__putchar+0xa7>
     cea: 29 01        	and	#$1
     cec: f0 38        	beq	$d26 <f256main+0x5e2>
     cee: a2 9f        	ldx	#$9f
     cf0: 8e 08 d6     	stx	$d608                   ; 0xd608 <end_block9+0x9f04>
     cf3: a2 94        	ldx	#$94
     cf5: 8e 08 d6     	stx	$d608                   ; 0xd608 <end_block9+0x9f04>
     cf8: a9 03        	lda	#$3
     cfa: 18           	clc
     cfb: 65 8f        	adc	$8f                     ; 0x208f <__putchar+0xac>
     cfd: 85 12        	sta	$12                     ; 0x2012 <__putchar+0x2f>
     cff: a9 30        	lda	#$30
     d01: 65 90        	adc	$90                     ; 0x2090 <__putchar+0xad>
     d03: 85 13        	sta	$13                     ; 0x2013 <__putchar+0x30>
     d05: b2 12        	lda	($12)                   ; 0x2012 <__putchar+0x2f>
     d07: aa           	tax
     d08: bd fe 30     	lda	$30fe,x                 ; 0x30fe <KeyCodesToLoPSG>
     d0b: aa           	tax
     d0c: 8e 08 d6     	stx	$d608                   ; 0xd608 <end_block9+0x9f04>
     d0f: a9 03        	lda	#$3
     d11: 18           	clc
     d12: 65 8f        	adc	$8f                     ; 0x208f <__putchar+0xac>
     d14: 85 12        	sta	$12                     ; 0x2012 <__putchar+0x2f>
     d16: a9 30        	lda	#$30
     d18: 65 90        	adc	$90                     ; 0x2090 <__putchar+0xad>
     d1a: 85 13        	sta	$13                     ; 0x2013 <__putchar+0x30>
     d1c: b2 12        	lda	($12)                   ; 0x2012 <__putchar+0x2f>
     d1e: aa           	tax
     d1f: bd 79 31     	lda	$3179,x                 ; 0x3179 <KeyCodesToHiPSG>
     d22: aa           	tax
     d23: 8e 08 d6     	stx	$d608                   ; 0xd608 <end_block9+0x9f04>
     d26: 64 f3        	stz	$f3                     ; 0x20f3 <__putchar+0x110>
     d28: a6 8c        	ldx	$8c                     ; 0x208c <__putchar+0xa9>
     d2a: 86 f4        	stx	$f4                     ; 0x20f4 <__putchar+0x111>
     d2c: a2 01        	ldx	#$1
     d2e: 86 f5        	stx	$f5                     ; 0x20f5 <__putchar+0x112>
     d30: a9 03        	lda	#$3
     d32: 85 12        	sta	$12                     ; 0x2012 <__putchar+0x2f>
     d34: a9 37        	lda	#$37
     d36: 85 13        	sta	$13                     ; 0x2013 <__putchar+0x30>
     d38: 84 21        	sty	$21                     ; 0x2021 <__putchar+0x3e>
     d3a: a0 05        	ldy	#$5
     d3c: b1 10        	lda	($10),y                 ; 0x2010 <__putchar+0x2d>
     d3e: 85 14        	sta	$14                     ; 0x2014 <__putchar+0x31>
     d40: c8           	iny
     d41: b1 10        	lda	($10),y                 ; 0x2010 <__putchar+0x2d>
     d43: 85 15        	sta	$15                     ; 0x2015 <__putchar+0x32>
     d45: 20 f0 ff     	jsr	$fff0 <end_block9+0xc8ec>
     d48: 92 14        	sta	($14)                   ; 0x2014 <__putchar+0x31>
     d4a: a9 00        	lda	#$0
     d4c: 6a           	ror
     d4d: 85 12        	sta	$12                     ; 0x2012 <__putchar+0x2f>
     d4f: a5 8a        	lda	$8a                     ; 0x208a <__putchar+0xa7>
     d51: 29 01        	and	#$1
     d53: 64 12        	stz	$12                     ; 0x2012 <__putchar+0x2f>
     d55: 48           	pha
     d56: a9 00        	lda	#$0
     d58: a0 0a        	ldy	#$a
     d5a: 91 10        	sta	($10),y                 ; 0x2010 <__putchar+0x2d>
     d5c: 8a           	txa
     d5d: a0 02        	ldy	#$2
     d5f: 91 10        	sta	($10),y                 ; 0x2010 <__putchar+0x2d>
     d61: a4 21        	ldy	$21                     ; 0x2021 <__putchar+0x3e>
     d63: 98           	tya
     d64: 5a           	phy
     d65: a0 09        	ldy	#$9
     d67: 91 10        	sta	($10),y                 ; 0x2010 <__putchar+0x2d>
     d69: 7a           	ply
     d6a: 84 16        	sty	$16                     ; 0x2016 <__putchar+0x33>
     d6c: a0 0b        	ldy	#$b
     d6e: b1 10        	lda	($10),y                 ; 0x2010 <__putchar+0x2d>
     d70: 85 17        	sta	$17                     ; 0x2017 <__putchar+0x34>
     d72: a8           	tay
     d73: 5a           	phy
     d74: a0 08        	ldy	#$8
     d76: b1 10        	lda	($10),y                 ; 0x2010 <__putchar+0x2d>
     d78: 7a           	ply
     d79: 85 27        	sta	$27                     ; 0x2027 <__putchar+0x44>
     d7b: 68           	pla
     d7c: a6 27        	ldx	$27                     ; 0x2027 <__putchar+0x44>
     d7e: c9 00        	cmp	#$0
     d80: f0 03        	beq	$d85 <f256main+0x641>
     d82: 4c 44 1b     	jmp	$1b44 <f256main+0x1400>
     d85: a6 8f        	ldx	$8f                     ; 0x208f <__putchar+0xac>
     d87: a0 90        	ldy	#$90
     d89: 8c a1 dd     	sty	$dda1                   ; 0xdda1 <end_block9+0xa69d>
     d8c: 8e a1 dd     	stx	$dda1                   ; 0xdda1 <end_block9+0xa69d>
     d8f: a2 6f        	ldx	#$6f
     d91: 8e a1 dd     	stx	$dda1                   ; 0xdda1 <end_block9+0xa69d>
     d94: 64 12        	stz	$12                     ; 0x2012 <__putchar+0x2f>
     d96: a9 00        	lda	#$0
     d98: a0 0a        	ldy	#$a
     d9a: 91 10        	sta	($10),y                 ; 0x2010 <__putchar+0x2d>
     d9c: a2 01        	ldx	#$1
     d9e: 8a           	txa
     d9f: a0 02        	ldy	#$2
     da1: 91 10        	sta	($10),y                 ; 0x2010 <__putchar+0x2d>
     da3: a5 16        	lda	$16                     ; 0x2016 <__putchar+0x33>
     da5: a0 09        	ldy	#$9
     da7: 91 10        	sta	($10),y                 ; 0x2010 <__putchar+0x2d>
     da9: a4 17        	ldy	$17                     ; 0x2017 <__putchar+0x34>
     dab: a6 27        	ldx	$27                     ; 0x2027 <__putchar+0x44>
     dad: 4c 44 1b     	jmp	$1b44 <f256main+0x1400>
     db0: a9 00        	lda	#$0
     db2: 5a           	phy
     db3: a4 15        	ldy	$15                     ; 0x2015 <__putchar+0x32>
     db5: c0 01        	cpy	#$1
     db7: 2a           	rol
     db8: a4 16        	ldy	$16                     ; 0x2016 <__putchar+0x33>
     dba: c0 01        	cpy	#$1
     dbc: 7a           	ply
     dbd: 2a           	rol
     dbe: 85 12        	sta	$12                     ; 0x2012 <__putchar+0x2f>
     dc0: a5 24        	lda	$24                     ; 0x2024 <__putchar+0x41>
     dc2: 18           	clc
     dc3: 65 2b        	adc	$2b                     ; 0x202b <__putchar+0x48>
     dc5: 85 2c        	sta	$2c                     ; 0x202c <__putchar+0x49>
     dc7: a5 12        	lda	$12                     ; 0x2012 <__putchar+0x2f>
     dc9: 85 15        	sta	$15                     ; 0x2015 <__putchar+0x32>
     dcb: a5 14        	lda	$14                     ; 0x2014 <__putchar+0x31>
     dcd: c9 01        	cmp	#$1
     dcf: 26 15        	rol	$15                     ; 0x2015 <__putchar+0x32>
     dd1: a5 24        	lda	$24                     ; 0x2024 <__putchar+0x41>
     dd3: 18           	clc
     dd4: 65 2b        	adc	$2b                     ; 0x202b <__putchar+0x48>
     dd6: 85 27        	sta	$27                     ; 0x2027 <__putchar+0x44>
     dd8: a5 15        	lda	$15                     ; 0x2015 <__putchar+0x32>
     dda: 65 12        	adc	$12                     ; 0x2012 <__putchar+0x2f>
     ddc: 85 2f        	sta	$2f                     ; 0x202f <__putchar+0x4c>
     dde: 86 2d        	stx	$2d                     ; 0x202d <__putchar+0x4a>
     de0: 98           	tya
     de1: a0 0b        	ldy	#$b
     de3: 91 10        	sta	($10),y                 ; 0x2010 <__putchar+0x2d>
     de5: a0 09        	ldy	#$9
     de7: b1 10        	lda	($10),y                 ; 0x2010 <__putchar+0x2d>
     de9: 85 2a        	sta	$2a                     ; 0x202a <__putchar+0x47>
     deb: a5 29        	lda	$29                     ; 0x2029 <__putchar+0x46>
     ded: a0 0c        	ldy	#$c
     def: 91 10        	sta	($10),y                 ; 0x2010 <__putchar+0x2d>
     df1: a0 07        	ldy	#$7
     df3: b1 10        	lda	($10),y                 ; 0x2010 <__putchar+0x2d>
     df5: a8           	tay
     df6: ad a1 dd     	lda	$dda1                   ; 0xdda1 <end_block9+0xa69d>
     df9: c0 00        	cpy	#$0
     dfb: f0 4e        	beq	$e4b <f256main+0x707>
     dfd: 85 17        	sta	$17                     ; 0x2017 <__putchar+0x34>
     dff: a5 8a        	lda	$8a                     ; 0x208a <__putchar+0xa7>
     e01: 29 01        	and	#$1
     e03: 85 14        	sta	$14                     ; 0x2014 <__putchar+0x31>
     e05: a0 0c        	ldy	#$c
     e07: b1 10        	lda	($10),y                 ; 0x2010 <__putchar+0x2d>
     e09: 85 16        	sta	$16                     ; 0x2016 <__putchar+0x33>
     e0b: f0 43        	beq	$e50 <f256main+0x70c>
     e0d: a5 27        	lda	$27                     ; 0x2027 <__putchar+0x44>
     e0f: 18           	clc
     e10: 65 28        	adc	$28                     ; 0x2028 <__putchar+0x45>
     e12: 85 18        	sta	$18                     ; 0x2018 <__putchar+0x35>
     e14: a5 2f        	lda	$2f                     ; 0x202f <__putchar+0x4c>
     e16: 69 00        	adc	#$0
     e18: 85 12        	sta	$12                     ; 0x2012 <__putchar+0x2f>
     e1a: a5 14        	lda	$14                     ; 0x2014 <__putchar+0x31>
     e1c: d0 03        	bne	$e21 <f256main+0x6dd>
     e1e: 4c e4 0e     	jmp	$ee4 <f256main+0x7a0>
     e21: a9 03        	lda	#$3
     e23: 18           	clc
     e24: 65 18        	adc	$18                     ; 0x2018 <__putchar+0x35>
     e26: 85 14        	sta	$14                     ; 0x2014 <__putchar+0x31>
     e28: a9 30        	lda	#$30
     e2a: 65 12        	adc	$12                     ; 0x2012 <__putchar+0x2f>
     e2c: a2 9f        	ldx	#$9f
     e2e: 8e 08 d6     	stx	$d608                   ; 0xd608 <end_block9+0x9f04>
     e31: a2 94        	ldx	#$94
     e33: 8e 08 d6     	stx	$d608                   ; 0xd608 <end_block9+0x9f04>
     e36: 85 15        	sta	$15                     ; 0x2015 <__putchar+0x32>
     e38: b2 14        	lda	($14)                   ; 0x2014 <__putchar+0x31>
     e3a: aa           	tax
     e3b: bc fe 30     	ldy	$30fe,x                 ; 0x30fe <KeyCodesToLoPSG>
     e3e: 8c 08 d6     	sty	$d608                   ; 0xd608 <end_block9+0x9f04>
     e41: bd 79 31     	lda	$3179,x                 ; 0x3179 <KeyCodesToHiPSG>
     e44: aa           	tax
     e45: 8e 08 d6     	stx	$d608                   ; 0xd608 <end_block9+0x9f04>
     e48: 4c f6 0e     	jmp	$ef6 <f256main+0x7b2>
     e4b: a4 2a        	ldy	$2a                     ; 0x202a <__putchar+0x47>
     e4d: 4c 9a 10     	jmp	$109a <f256main+0x956>
     e50: a4 2a        	ldy	$2a                     ; 0x202a <__putchar+0x47>
     e52: a5 17        	lda	$17                     ; 0x2017 <__putchar+0x34>
     e54: a6 14        	ldx	$14                     ; 0x2014 <__putchar+0x31>
     e56: d0 16        	bne	$e6e <f256main+0x72a>
     e58: 85 12        	sta	$12                     ; 0x2012 <__putchar+0x2f>
     e5a: a5 28        	lda	$28                     ; 0x2028 <__putchar+0x45>
     e5c: 18           	clc
     e5d: 65 2c        	adc	$2c                     ; 0x202c <__putchar+0x49>
     e5f: a2 81        	ldx	#$81
     e61: 8e a1 dd     	stx	$dda1                   ; 0xdda1 <end_block9+0xa69d>
     e64: 8d a1 dd     	sta	$dda1                   ; 0xdda1 <end_block9+0xa69d>
     e67: a5 12        	lda	$12                     ; 0x2012 <__putchar+0x2f>
     e69: a2 6f        	ldx	#$6f
     e6b: 8e a1 dd     	stx	$dda1                   ; 0xdda1 <end_block9+0xa69d>
     e6e: 48           	pha
     e6f: 5a           	phy
     e70: a0 0b        	ldy	#$b
     e72: b1 10        	lda	($10),y                 ; 0x2010 <__putchar+0x2d>
     e74: 7a           	ply
     e75: aa           	tax
     e76: 68           	pla
     e77: e0 00        	cpx	#$0
     e79: d0 03        	bne	$e7e <f256main+0x73a>
     e7b: 4c 8e 10     	jmp	$108e <f256main+0x94a>
     e7e: a2 00        	ldx	#$0
     e80: c0 00        	cpy	#$0
     e82: d0 03        	bne	$e87 <f256main+0x743>
     e84: 4c 88 0f     	jmp	$f88 <f256main+0x844>
     e87: 48           	pha
     e88: a0 0a        	ldy	#$a
     e8a: b1 10        	lda	($10),y                 ; 0x2010 <__putchar+0x2d>
     e8c: a8           	tay
     e8d: 68           	pla
     e8e: c0 4a        	cpy	#$4a
     e90: 90 03        	bcc	$e95 <f256main+0x751>
     e92: 4c 86 0f     	jmp	$f86 <f256main+0x842>
     e95: c8           	iny
     e96: 48           	pha
     e97: 98           	tya
     e98: 5a           	phy
     e99: a0 0a        	ldy	#$a
     e9b: 91 10        	sta	($10),y                 ; 0x2010 <__putchar+0x2d>
     e9d: 7a           	ply
     e9e: 68           	pla
     e9f: 85 15        	sta	$15                     ; 0x2015 <__putchar+0x32>
     ea1: b9 94 32     	lda	$3294,y                 ; 0x3294 <songNotes>
     ea4: 85 8f        	sta	$8f                     ; 0x208f <__putchar+0xac>
     ea6: 64 90        	stz	$90                     ; 0x2090 <__putchar+0xad>
     ea8: 0a           	asl
     ea9: 85 12        	sta	$12                     ; 0x2012 <__putchar+0x2f>
     eab: a9 00        	lda	#$0
     ead: 2a           	rol
     eae: 85 13        	sta	$13                     ; 0x2013 <__putchar+0x30>
     eb0: a9 f4        	lda	#$f4
     eb2: 18           	clc
     eb3: 65 12        	adc	$12                     ; 0x2012 <__putchar+0x2f>
     eb5: 85 12        	sta	$12                     ; 0x2012 <__putchar+0x2f>
     eb7: a9 31        	lda	#$31
     eb9: 65 13        	adc	$13                     ; 0x2013 <__putchar+0x30>
     ebb: 85 13        	sta	$13                     ; 0x2013 <__putchar+0x30>
     ebd: b2 12        	lda	($12)                   ; 0x2012 <__putchar+0x2f>
     ebf: 85 14        	sta	$14                     ; 0x2014 <__putchar+0x31>
     ec1: a0 01        	ldy	#$1
     ec3: b1 12        	lda	($12),y                 ; 0x2012 <__putchar+0x2f>
     ec5: 85 12        	sta	$12                     ; 0x2012 <__putchar+0x2f>
     ec7: 98           	tya
     ec8: 05 47        	ora	$47                     ; 0x2047 <__putchar+0x64>
     eca: 8d 08 d9     	sta	$d908                   ; 0xd908 <end_block9+0xa204>
     ecd: a5 15        	lda	$15                     ; 0x2015 <__putchar+0x32>
     ecf: a4 14        	ldy	$14                     ; 0x2014 <__putchar+0x31>
     ed1: 8c 0c d9     	sty	$d90c                   ; 0xd90c <end_block9+0xa208>
     ed4: a4 12        	ldy	$12                     ; 0x2012 <__putchar+0x2f>
     ed6: 8c 0d d9     	sty	$d90d                   ; 0xd90d <end_block9+0xa209>
     ed9: a0 c0        	ldy	#$c0
     edb: 8c 0e d9     	sty	$d90e                   ; 0xd90e <end_block9+0xa20a>
     ede: 9c 0f d9     	stz	$d90f                   ; 0xd90f <end_block9+0xa20b>
     ee1: 4c 88 0f     	jmp	$f88 <f256main+0x844>
     ee4: a5 28        	lda	$28                     ; 0x2028 <__putchar+0x45>
     ee6: 18           	clc
     ee7: 65 2c        	adc	$2c                     ; 0x202c <__putchar+0x49>
     ee9: a2 91        	ldx	#$91
     eeb: 8e a1 dd     	stx	$dda1                   ; 0xdda1 <end_block9+0xa69d>
     eee: 8d a1 dd     	sta	$dda1                   ; 0xdda1 <end_block9+0xa69d>
     ef1: a2 6f        	ldx	#$6f
     ef3: 8e a1 dd     	stx	$dda1                   ; 0xdda1 <end_block9+0xa69d>
     ef6: a5 18        	lda	$18                     ; 0x2018 <__putchar+0x35>
     ef8: 0a           	asl
     ef9: 85 13        	sta	$13                     ; 0x2013 <__putchar+0x30>
     efb: a9 00        	lda	#$0
     efd: 2a           	rol
     efe: 85 14        	sta	$14                     ; 0x2014 <__putchar+0x31>
     f00: a9 f4        	lda	#$f4
     f02: 18           	clc
     f03: 65 13        	adc	$13                     ; 0x2013 <__putchar+0x30>
     f05: aa           	tax
     f06: a9 31        	lda	#$31
     f08: 65 14        	adc	$14                     ; 0x2014 <__putchar+0x31>
     f0a: 86 14        	stx	$14                     ; 0x2014 <__putchar+0x31>
     f0c: 85 15        	sta	$15                     ; 0x2015 <__putchar+0x32>
     f0e: b2 14        	lda	($14)                   ; 0x2014 <__putchar+0x31>
     f10: 85 13        	sta	$13                     ; 0x2013 <__putchar+0x30>
     f12: a0 01        	ldy	#$1
     f14: b1 14        	lda	($14),y                 ; 0x2014 <__putchar+0x31>
     f16: 85 14        	sta	$14                     ; 0x2014 <__putchar+0x31>
     f18: 98           	tya
     f19: 05 46        	ora	$46                     ; 0x2046 <__putchar+0x63>
     f1b: 8d 00 d9     	sta	$d900                   ; 0xd900 <end_block9+0xa1fc>
     f1e: a6 13        	ldx	$13                     ; 0x2013 <__putchar+0x30>
     f20: 8e 04 d9     	stx	$d904                   ; 0xd904 <end_block9+0xa200>
     f23: a6 14        	ldx	$14                     ; 0x2014 <__putchar+0x31>
     f25: 8e 05 d9     	stx	$d905                   ; 0xd905 <end_block9+0xa201>
     f28: a2 c0        	ldx	#$c0
     f2a: 8e 06 d9     	stx	$d906                   ; 0xd906 <end_block9+0xa202>
     f2d: 9c 07 d9     	stz	$d907                   ; 0xd907 <end_block9+0xa203>
     f30: a5 12        	lda	$12                     ; 0x2012 <__putchar+0x2f>
     f32: d0 2c        	bne	$f60 <f256main+0x81c>
     f34: a0 0a        	ldy	#$a
     f36: b1 10        	lda	($10),y                 ; 0x2010 <__putchar+0x2d>
     f38: aa           	tax
     f39: bd 94 32     	lda	$3294,x                 ; 0x3294 <songNotes>
     f3c: aa           	tax
     f3d: 86 12        	stx	$12                     ; 0x2012 <__putchar+0x2f>
     f3f: a6 18        	ldx	$18                     ; 0x2018 <__putchar+0x35>
     f41: e4 12        	cpx	$12                     ; 0x2012 <__putchar+0x2f>
     f43: d0 1b        	bne	$f60 <f256main+0x81c>
     f45: a5 16        	lda	$16                     ; 0x2016 <__putchar+0x33>
     f47: a0 0c        	ldy	#$c
     f49: 91 10        	sta	($10),y                 ; 0x2010 <__putchar+0x2d>
     f4b: a5 17        	lda	$17                     ; 0x2017 <__putchar+0x34>
     f4d: 48           	pha
     f4e: 88           	dey
     f4f: b1 10        	lda	($10),y                 ; 0x2010 <__putchar+0x2d>
     f51: aa           	tax
     f52: 68           	pla
     f53: e0 00        	cpx	#$0
     f55: d0 03        	bne	$f5a <f256main+0x816>
     f57: 4c 8c 10     	jmp	$108c <f256main+0x948>
     f5a: a0 01        	ldy	#$1
     f5c: e6 88        	inc	$88                     ; 0x2088 <__putchar+0xa5>
     f5e: 80 1f        	bra	$f7f <f256main+0x83b>
     f60: a5 16        	lda	$16                     ; 0x2016 <__putchar+0x33>
     f62: a0 0c        	ldy	#$c
     f64: 91 10        	sta	($10),y                 ; 0x2010 <__putchar+0x2d>
     f66: a4 2a        	ldy	$2a                     ; 0x202a <__putchar+0x47>
     f68: 5a           	phy
     f69: a0 0b        	ldy	#$b
     f6b: b1 10        	lda	($10),y                 ; 0x2010 <__putchar+0x2d>
     f6d: 7a           	ply
     f6e: aa           	tax
     f6f: a5 17        	lda	$17                     ; 0x2017 <__putchar+0x34>
     f71: e0 00        	cpx	#$0
     f73: d0 03        	bne	$f78 <f256main+0x834>
     f75: 4c 8e 10     	jmp	$108e <f256main+0x94a>
     f78: a6 88        	ldx	$88                     ; 0x2088 <__putchar+0xa5>
     f7a: f0 03        	beq	$f7f <f256main+0x83b>
     f7c: ca           	dex
     f7d: 86 88        	stx	$88                     ; 0x2088 <__putchar+0xa5>
     f7f: a2 01        	ldx	#$1
     f81: 48           	pha
     f82: 8a           	txa
     f83: 4c 93 10     	jmp	$1093 <f256main+0x94f>
     f86: a2 01        	ldx	#$1
     f88: da           	phx
     f89: 7a           	ply
     f8a: a2 01        	ldx	#$1
     f8c: 48           	pha
     f8d: 5a           	phy
     f8e: 8a           	txa
     f8f: a0 0b        	ldy	#$b
     f91: 91 10        	sta	($10),y                 ; 0x2010 <__putchar+0x2d>
     f93: 88           	dey
     f94: b1 10        	lda	($10),y                 ; 0x2010 <__putchar+0x2d>
     f96: 7a           	ply
     f97: aa           	tax
     f98: 68           	pla
     f99: e0 4a        	cpx	#$4a
     f9b: f0 03        	beq	$fa0 <f256main+0x85c>
     f9d: 4c 9a 10     	jmp	$109a <f256main+0x956>
     fa0: 85 2a        	sta	$2a                     ; 0x202a <__putchar+0x47>
     fa2: a0 0c        	ldy	#$c
     fa4: b1 10        	lda	($10),y                 ; 0x2010 <__putchar+0x2d>
     fa6: a2 19        	ldx	#$19
     fa8: 86 32        	stx	$32                     ; 0x2032 <__putchar+0x4f>
     faa: 8e 14 d0     	stx	$d014                   ; 0xd014 <end_block9+0x9910>
     fad: 9c 15 d0     	stz	$d015                   ; 0xd015 <end_block9+0x9911>
     fb0: a2 08        	ldx	#$8
     fb2: 86 33        	stx	$33                     ; 0x2033 <__putchar+0x50>
     fb4: 8e 16 d0     	stx	$d016                   ; 0xd016 <end_block9+0x9912>
     fb7: 9c 17 d0     	stz	$d017                   ; 0xd017 <end_block9+0x9913>
     fba: a2 00        	ldx	#$0
     fbc: a9 2f        	lda	#$2f
     fbe: 20 30 2f     	jsr	$2f30 <putchar>
     fc1: a2 1a        	ldx	#$1a
     fc3: 86 32        	stx	$32                     ; 0x2032 <__putchar+0x4f>
     fc5: 8e 14 d0     	stx	$d014                   ; 0xd014 <end_block9+0x9910>
     fc8: 9c 15 d0     	stz	$d015                   ; 0xd015 <end_block9+0x9911>
     fcb: a2 07        	ldx	#$7
     fcd: 86 33        	stx	$33                     ; 0x2033 <__putchar+0x50>
     fcf: 8e 16 d0     	stx	$d016                   ; 0xd016 <end_block9+0x9912>
     fd2: 9c 17 d0     	stz	$d017                   ; 0xd017 <end_block9+0x9913>
     fd5: a6 88        	ldx	$88                     ; 0x2088 <__putchar+0xa5>
     fd7: e0 48        	cpx	#$48
     fd9: b0 03        	bcs	$fde <f256main+0x89a>
     fdb: 4c 02 11     	jmp	$1102 <f256main+0x9be>
     fde: a2 95        	ldx	#$95
     fe0: 86 12        	stx	$12                     ; 0x2012 <__putchar+0x2f>
     fe2: a2 36        	ldx	#$36
     fe4: 86 13        	stx	$13                     ; 0x2013 <__putchar+0x30>
     fe6: 20 80 23     	jsr	$2380 <printf>
     fe9: a2 01        	ldx	#$1
     feb: 86 89        	stx	$89                     ; 0x2089 <__putchar+0xa6>
     fed: a2 50        	ldx	#$50
     fef: 86 30        	stx	$30                     ; 0x2030 <__putchar+0x4d>
     ff1: 64 31        	stz	$31                     ; 0x2031 <__putchar+0x4e>
     ff3: a9 01        	lda	#$1
     ff5: 05 50        	ora	$50                     ; 0x2050 <__putchar+0x6d>
     ff7: 8d 50 d9     	sta	$d950                   ; 0xd950 <end_block9+0xa24c>
     ffa: a5 89        	lda	$89                     ; 0x2089 <__putchar+0xa6>
     ffc: 29 01        	and	#$1
     ffe: a0 45        	ldy	#$45
    1000: aa           	tax
    1001: d0 02        	bne	$1005 <f256main+0x8c1>
    1003: a0 b3        	ldy	#$b3
    1005: a5 30        	lda	$30                     ; 0x2030 <__putchar+0x4d>
    1007: a6 31        	ldx	$31                     ; 0x2031 <__putchar+0x4e>
    1009: 8c 54 d9     	sty	$d954                   ; 0xd954 <end_block9+0xa250>
    100c: a0 00        	ldy	#$0
    100e: 8c 55 d9     	sty	$d955                   ; 0xd955 <end_block9+0xa251>
    1011: 8d 56 d9     	sta	$d956                   ; 0xd956 <end_block9+0xa252>
    1014: 8e 57 d9     	stx	$d957                   ; 0xd957 <end_block9+0xa253>
    1017: a9 01        	lda	#$1
    1019: 05 51        	ora	$51                     ; 0x2051 <__putchar+0x6e>
    101b: 8d 58 d9     	sta	$d958                   ; 0xd958 <end_block9+0xa254>
    101e: a5 89        	lda	$89                     ; 0x2089 <__putchar+0xa6>
    1020: 29 01        	and	#$1
    1022: a0 65        	ldy	#$65
    1024: aa           	tax
    1025: d0 02        	bne	$1029 <f256main+0x8e5>
    1027: a0 d3        	ldy	#$d3
    1029: a6 30        	ldx	$30                     ; 0x2030 <__putchar+0x4d>
    102b: a5 31        	lda	$31                     ; 0x2031 <__putchar+0x4e>
    102d: 8c 5c d9     	sty	$d95c                   ; 0xd95c <end_block9+0xa258>
    1030: a0 00        	ldy	#$0
    1032: 8c 5d d9     	sty	$d95d                   ; 0xd95d <end_block9+0xa259>
    1035: 8e 5e d9     	stx	$d95e                   ; 0xd95e <end_block9+0xa25a>
    1038: 8d 5f d9     	sta	$d95f                   ; 0xd95f <end_block9+0xa25b>
    103b: a2 80        	ldx	#$80
    103d: 86 f3        	stx	$f3                     ; 0x20f3 <__putchar+0x110>
    103f: a2 03        	ldx	#$3
    1041: 86 12        	stx	$12                     ; 0x2012 <__putchar+0x2f>
    1043: a2 37        	ldx	#$37
    1045: 86 13        	stx	$13                     ; 0x2013 <__putchar+0x30>
    1047: a0 05        	ldy	#$5
    1049: b1 10        	lda	($10),y                 ; 0x2010 <__putchar+0x2d>
    104b: 85 18        	sta	$18                     ; 0x2018 <__putchar+0x35>
    104d: c8           	iny
    104e: b1 10        	lda	($10),y                 ; 0x2010 <__putchar+0x2d>
    1050: 85 19        	sta	$19                     ; 0x2019 <__putchar+0x36>
    1052: 20 f0 ff     	jsr	$fff0 <end_block9+0xc8ec>
    1055: 92 18        	sta	($18)                   ; 0x2018 <__putchar+0x35>
    1057: a9 00        	lda	#$0
    1059: 6a           	ror
    105a: 85 12        	sta	$12                     ; 0x2012 <__putchar+0x2f>
    105c: 18           	clc
    105d: a9 03        	lda	#$3
    105f: 72 18        	adc	($18)                   ; 0x2018 <__putchar+0x35>
    1061: 85 8d        	sta	$8d                     ; 0x208d <__putchar+0xaa>
    1063: a0 00        	ldy	#$0
    1065: 64 f3        	stz	$f3                     ; 0x20f3 <__putchar+0x110>
    1067: a6 8d        	ldx	$8d                     ; 0x208d <__putchar+0xaa>
    1069: 86 f4        	stx	$f4                     ; 0x20f4 <__putchar+0x111>
    106b: a2 02        	ldx	#$2
    106d: 86 f5        	stx	$f5                     ; 0x20f5 <__putchar+0x112>
    106f: a2 4a        	ldx	#$4a
    1071: 5a           	phy
    1072: 8a           	txa
    1073: a0 0a        	ldy	#$a
    1075: 91 10        	sta	($10),y                 ; 0x2010 <__putchar+0x2d>
    1077: 64 14        	stz	$14                     ; 0x2014 <__putchar+0x31>
    1079: a9 00        	lda	#$0
    107b: c8           	iny
    107c: 91 10        	sta	($10),y                 ; 0x2010 <__putchar+0x2d>
    107e: 7a           	ply
    107f: 20 f0 ff     	jsr	$fff0 <end_block9+0xc8ec>
    1082: 92 18        	sta	($18)                   ; 0x2018 <__putchar+0x35>
    1084: a9 00        	lda	#$0
    1086: 6a           	ror
    1087: 85 12        	sta	$12                     ; 0x2012 <__putchar+0x2f>
    1089: 4c 1f 11     	jmp	$111f <f256main+0x9db>
    108c: a4 2a        	ldy	$2a                     ; 0x202a <__putchar+0x47>
    108e: 64 12        	stz	$12                     ; 0x2012 <__putchar+0x2f>
    1090: 48           	pha
    1091: a9 00        	lda	#$0
    1093: 5a           	phy
    1094: a0 0b        	ldy	#$b
    1096: 91 10        	sta	($10),y                 ; 0x2010 <__putchar+0x2d>
    1098: 7a           	ply
    1099: 68           	pla
    109a: a6 2e        	ldx	$2e                     ; 0x202e <__putchar+0x4b>
    109c: f0 04        	beq	$10a2 <f256main+0x95e>
    109e: 84 2a        	sty	$2a                     ; 0x202a <__putchar+0x47>
    10a0: 80 12        	bra	$10b4 <f256main+0x970>
    10a2: 84 2a        	sty	$2a                     ; 0x202a <__putchar+0x47>
    10a4: aa           	tax
    10a5: 10 03        	bpl	$10aa <f256main+0x966>
    10a7: 4c fe 10     	jmp	$10fe <f256main+0x9ba>
    10aa: 64 12        	stz	$12                     ; 0x2012 <__putchar+0x2f>
    10ac: 48           	pha
    10ad: a9 00        	lda	#$0
    10af: a0 0c        	ldy	#$c
    10b1: 91 10        	sta	($10),y                 ; 0x2010 <__putchar+0x2d>
    10b3: 68           	pla
    10b4: 85 28        	sta	$28                     ; 0x2028 <__putchar+0x45>
    10b6: a0 01        	ldy	#$1
    10b8: 29 f0        	and	#$f0
    10ba: c9 90        	cmp	#$90
    10bc: f0 0c        	beq	$10ca <f256main+0x986>
    10be: c9 80        	cmp	#$80
    10c0: d0 16        	bne	$10d8 <f256main+0x994>
    10c2: a9 01        	lda	#$1
    10c4: 64 12        	stz	$12                     ; 0x2012 <__putchar+0x2f>
    10c6: 48           	pha
    10c7: 3a           	dec
    10c8: 80 05        	bra	$10cf <f256main+0x98b>
    10ca: a9 01        	lda	#$1
    10cc: aa           	tax
    10cd: 48           	pha
    10ce: 8a           	txa
    10cf: 5a           	phy
    10d0: a0 0c        	ldy	#$c
    10d2: 91 10        	sta	($10),y                 ; 0x2010 <__putchar+0x2d>
    10d4: 7a           	ply
    10d5: 68           	pla
    10d6: 80 02        	bra	$10da <f256main+0x996>
    10d8: a9 00        	lda	#$0
    10da: a6 25        	ldx	$25                     ; 0x2025 <__putchar+0x42>
    10dc: 86 12        	stx	$12                     ; 0x2012 <__putchar+0x2f>
    10de: a2 ff        	ldx	#$ff
    10e0: c6 2d        	dec	$2d                     ; 0x202d <__putchar+0x4a>
    10e2: e4 2d        	cpx	$2d                     ; 0x202d <__putchar+0x4a>
    10e4: d0 02        	bne	$10e8 <f256main+0x9a4>
    10e6: c6 12        	dec	$12                     ; 0x2012 <__putchar+0x2f>
    10e8: aa           	tax
    10e9: 85 2e        	sta	$2e                     ; 0x202e <__putchar+0x4b>
    10eb: a5 12        	lda	$12                     ; 0x2012 <__putchar+0x2f>
    10ed: 85 25        	sta	$25                     ; 0x2025 <__putchar+0x42>
    10ef: f0 03        	beq	$10f4 <f256main+0x9b0>
    10f1: 4c f6 0d     	jmp	$df6 <f256main+0x6b2>
    10f4: a5 2d        	lda	$2d                     ; 0x202d <__putchar+0x4a>
    10f6: f0 03        	beq	$10fb <f256main+0x9b7>
    10f8: 4c f6 0d     	jmp	$df6 <f256main+0x6b2>
    10fb: 4c 7a 0b     	jmp	$b7a <f256main+0x436>
    10fe: a0 00        	ldy	#$0
    1100: 80 b6        	bra	$10b8 <f256main+0x974>
    1102: a2 33        	ldx	#$33
    1104: 86 12        	stx	$12                     ; 0x2012 <__putchar+0x2f>
    1106: a2 35        	ldx	#$35
    1108: 86 13        	stx	$13                     ; 0x2013 <__putchar+0x30>
    110a: 20 80 23     	jsr	$2380 <printf>
    110d: a2 4a        	ldx	#$4a
    110f: 8a           	txa
    1110: a0 0a        	ldy	#$a
    1112: 91 10        	sta	($10),y                 ; 0x2010 <__putchar+0x2d>
    1114: a0 00        	ldy	#$0
    1116: 64 12        	stz	$12                     ; 0x2012 <__putchar+0x2f>
    1118: 98           	tya
    1119: 5a           	phy
    111a: a0 0b        	ldy	#$b
    111c: 91 10        	sta	($10),y                 ; 0x2010 <__putchar+0x2d>
    111e: 7a           	ply
    111f: a5 2a        	lda	$2a                     ; 0x202a <__putchar+0x47>
    1121: 4c 9a 10     	jmp	$109a <f256main+0x956>
    1124: 5a           	phy
    1125: a0 0c        	ldy	#$c
    1127: b1 10        	lda	($10),y                 ; 0x2010 <__putchar+0x2d>
    1129: 7a           	ply
    112a: 85 29        	sta	$29                     ; 0x2029 <__putchar+0x46>
    112c: a6 95        	ldx	$95                     ; 0x2095 <__putchar+0xb2>
    112e: 18           	clc
    112f: a5 24        	lda	$24                     ; 0x2024 <__putchar+0x41>
    1131: 65 2b        	adc	$2b                     ; 0x202b <__putchar+0x48>
    1133: 18           	clc
    1134: 7d 83 30     	adc	$3083,x                 ; 0x3083 <KeyCodesToMIDINotes>
    1137: a2 81        	ldx	#$81
    1139: 8e a1 dd     	stx	$dda1                   ; 0xdda1 <end_block9+0xa69d>
    113c: 8d a1 dd     	sta	$dda1                   ; 0xdda1 <end_block9+0xa69d>
    113f: a2 6f        	ldx	#$6f
    1141: 8e a1 dd     	stx	$dda1                   ; 0xdda1 <end_block9+0xa69d>
    1144: a6 46        	ldx	$46                     ; 0x2046 <__putchar+0x63>
    1146: 8e 00 d9     	stx	$d900                   ; 0xd900 <end_block9+0xa1fc>
    1149: 98           	tya
    114a: a0 09        	ldy	#$9
    114c: 91 10        	sta	($10),y                 ; 0x2010 <__putchar+0x2d>
    114e: a0 00        	ldy	#$0
    1150: 48           	pha
    1151: 5a           	phy
    1152: a0 08        	ldy	#$8
    1154: b1 10        	lda	($10),y                 ; 0x2010 <__putchar+0x2d>
    1156: aa           	tax
    1157: a0 0b        	ldy	#$b
    1159: b1 10        	lda	($10),y                 ; 0x2010 <__putchar+0x2d>
    115b: 7a           	ply
    115c: 85 12        	sta	$12                     ; 0x2012 <__putchar+0x2f>
    115e: 68           	pla
    115f: e6 12        	inc	$12                     ; 0x2012 <__putchar+0x2f>
    1161: c6 12        	dec	$12                     ; 0x2012 <__putchar+0x2f>
    1163: d0 03        	bne	$1168 <f256main+0xa24>
    1165: 4c 44 1b     	jmp	$1b44 <f256main+0x1400>
    1168: aa           	tax
    1169: d0 03        	bne	$116e <f256main+0xa2a>
    116b: 4c 22 12     	jmp	$1222 <f256main+0xade>
    116e: a0 0a        	ldy	#$a
    1170: b1 10        	lda	($10),y                 ; 0x2010 <__putchar+0x2d>
    1172: aa           	tax
    1173: c9 4a        	cmp	#$4a
    1175: 90 03        	bcc	$117a <f256main+0xa36>
    1177: 4c 92 14     	jmp	$1492 <f256main+0xd4e>
    117a: 64 12        	stz	$12                     ; 0x2012 <__putchar+0x2f>
    117c: a9 00        	lda	#$0
    117e: a0 09        	ldy	#$9
    1180: 91 10        	sta	($10),y                 ; 0x2010 <__putchar+0x2d>
    1182: e8           	inx
    1183: 8a           	txa
    1184: c8           	iny
    1185: 91 10        	sta	($10),y                 ; 0x2010 <__putchar+0x2d>
    1187: bd 94 32     	lda	$3294,x                 ; 0x3294 <songNotes>
    118a: 85 8f        	sta	$8f                     ; 0x208f <__putchar+0xac>
    118c: 64 90        	stz	$90                     ; 0x2090 <__putchar+0xad>
    118e: 0a           	asl
    118f: 85 12        	sta	$12                     ; 0x2012 <__putchar+0x2f>
    1191: a9 00        	lda	#$0
    1193: 2a           	rol
    1194: 85 13        	sta	$13                     ; 0x2013 <__putchar+0x30>
    1196: a9 f4        	lda	#$f4
    1198: 18           	clc
    1199: 65 12        	adc	$12                     ; 0x2012 <__putchar+0x2f>
    119b: 85 12        	sta	$12                     ; 0x2012 <__putchar+0x2f>
    119d: a9 31        	lda	#$31
    119f: 65 13        	adc	$13                     ; 0x2013 <__putchar+0x30>
    11a1: 85 13        	sta	$13                     ; 0x2013 <__putchar+0x30>
    11a3: b2 12        	lda	($12)                   ; 0x2012 <__putchar+0x2f>
    11a5: 85 14        	sta	$14                     ; 0x2014 <__putchar+0x31>
    11a7: a0 01        	ldy	#$1
    11a9: b1 12        	lda	($12),y                 ; 0x2012 <__putchar+0x2f>
    11ab: 85 12        	sta	$12                     ; 0x2012 <__putchar+0x2f>
    11ad: 98           	tya
    11ae: 05 47        	ora	$47                     ; 0x2047 <__putchar+0x64>
    11b0: 8d 08 d9     	sta	$d908                   ; 0xd908 <end_block9+0xa204>
    11b3: a6 14        	ldx	$14                     ; 0x2014 <__putchar+0x31>
    11b5: 8e 0c d9     	stx	$d90c                   ; 0xd90c <end_block9+0xa208>
    11b8: a6 12        	ldx	$12                     ; 0x2012 <__putchar+0x2f>
    11ba: 8e 0d d9     	stx	$d90d                   ; 0xd90d <end_block9+0xa209>
    11bd: a2 c0        	ldx	#$c0
    11bf: 8e 0e d9     	stx	$d90e                   ; 0xd90e <end_block9+0xa20a>
    11c2: 9c 0f d9     	stz	$d90f                   ; 0xd90f <end_block9+0xa20b>
    11c5: 4c 99 14     	jmp	$1499 <f256main+0xd55>
    11c8: 8a           	txa
    11c9: 38           	sec
    11ca: e9 b6        	sbc	#$b6
    11cc: c9 04        	cmp	#$4
    11ce: 90 03        	bcc	$11d3 <f256main+0xa8f>
    11d0: 4c 05 17     	jmp	$1705 <f256main+0xfc1>
    11d3: 0a           	asl
    11d4: aa           	tax
    11d5: 7c 89 2f     	jmp	($2f89,x)               ; 0x2f89 <__set_v+0x1>
    11d8: 5a           	phy
    11d9: a0 0c        	ldy	#$c
    11db: b1 10        	lda	($10),y                 ; 0x2010 <__putchar+0x2d>
    11dd: 85 29        	sta	$29                     ; 0x2029 <__putchar+0x46>
    11df: a0 08        	ldy	#$8
    11e1: b1 10        	lda	($10),y                 ; 0x2010 <__putchar+0x2d>
    11e3: 7a           	ply
    11e4: c9 81        	cmp	#$81
    11e6: 84 12        	sty	$12                     ; 0x2012 <__putchar+0x2f>
    11e8: 48           	pha
    11e9: 98           	tya
    11ea: a0 09        	ldy	#$9
    11ec: 91 10        	sta	($10),y                 ; 0x2010 <__putchar+0x2d>
    11ee: a0 0b        	ldy	#$b
    11f0: b1 10        	lda	($10),y                 ; 0x2010 <__putchar+0x2d>
    11f2: 85 13        	sta	$13                     ; 0x2013 <__putchar+0x30>
    11f4: 68           	pla
    11f5: a4 13        	ldy	$13                     ; 0x2013 <__putchar+0x30>
    11f7: aa           	tax
    11f8: 90 03        	bcc	$11fd <f256main+0xab9>
    11fa: 4c 44 1b     	jmp	$1b44 <f256main+0x1400>
    11fd: a6 8a        	ldx	$8a                     ; 0x208a <__putchar+0xa7>
    11ff: 86 14        	stx	$14                     ; 0x2014 <__putchar+0x31>
    1201: aa           	tax
    1202: a5 14        	lda	$14                     ; 0x2014 <__putchar+0x31>
    1204: 29 01        	and	#$1
    1206: 85 16        	sta	$16                     ; 0x2016 <__putchar+0x33>
    1208: 8a           	txa
    1209: a6 12        	ldx	$12                     ; 0x2012 <__putchar+0x2f>
    120b: 48           	pha
    120c: 8a           	txa
    120d: a0 09        	ldy	#$9
    120f: 91 10        	sta	($10),y                 ; 0x2010 <__putchar+0x2d>
    1211: 68           	pla
    1212: a4 13        	ldy	$13                     ; 0x2013 <__putchar+0x30>
    1214: aa           	tax
    1215: e6 16        	inc	$16                     ; 0x2016 <__putchar+0x33>
    1217: c6 16        	dec	$16                     ; 0x2016 <__putchar+0x33>
    1219: f0 03        	beq	$121e <f256main+0xada>
    121b: 4c 44 1b     	jmp	$1b44 <f256main+0x1400>
    121e: 1a           	inc
    121f: 4c 28 18     	jmp	$1828 <f256main+0x10e4>
    1222: 64 12        	stz	$12                     ; 0x2012 <__putchar+0x2f>
    1224: a9 00        	lda	#$0
    1226: 4c 95 14     	jmp	$1495 <f256main+0xd51>
    1229: a6 30        	ldx	$30                     ; 0x2030 <__putchar+0x4d>
    122b: a5 31        	lda	$31                     ; 0x2031 <__putchar+0x4e>
    122d: e8           	inx
    122e: d0 01        	bne	$1231 <f256main+0xaed>
    1230: 1a           	inc
    1231: da           	phx
    1232: 7a           	ply
    1233: 86 30        	stx	$30                     ; 0x2030 <__putchar+0x4d>
    1235: 85 12        	sta	$12                     ; 0x2012 <__putchar+0x2f>
    1237: 85 31        	sta	$31                     ; 0x2031 <__putchar+0x4e>
    1239: a5 89        	lda	$89                     ; 0x2089 <__putchar+0xa6>
    123b: 29 01        	and	#$1
    123d: a2 45        	ldx	#$45
    123f: c9 00        	cmp	#$0
    1241: d0 02        	bne	$1245 <f256main+0xb01>
    1243: a2 b3        	ldx	#$b3
    1245: 8e 54 d9     	stx	$d954                   ; 0xd954 <end_block9+0xa250>
    1248: a2 00        	ldx	#$0
    124a: 8e 55 d9     	stx	$d955                   ; 0xd955 <end_block9+0xa251>
    124d: 8c 56 d9     	sty	$d956                   ; 0xd956 <end_block9+0xa252>
    1250: a6 12        	ldx	$12                     ; 0x2012 <__putchar+0x2f>
    1252: 8e 57 d9     	stx	$d957                   ; 0xd957 <end_block9+0xa253>
    1255: a2 65        	ldx	#$65
    1257: a8           	tay
    1258: d0 02        	bne	$125c <f256main+0xb18>
    125a: a2 d3        	ldx	#$d3
    125c: a4 30        	ldy	$30                     ; 0x2030 <__putchar+0x4d>
    125e: a5 31        	lda	$31                     ; 0x2031 <__putchar+0x4e>
    1260: 8e 5c d9     	stx	$d95c                   ; 0xd95c <end_block9+0xa258>
    1263: a2 00        	ldx	#$0
    1265: 8e 5d d9     	stx	$d95d                   ; 0xd95d <end_block9+0xa259>
    1268: 8c 5e d9     	sty	$d95e                   ; 0xd95e <end_block9+0xa25a>
    126b: 8d 5f d9     	sta	$d95f                   ; 0xd95f <end_block9+0xa25b>
    126e: a6 31        	ldx	$31                     ; 0x2031 <__putchar+0x4e>
    1270: f0 03        	beq	$1275 <f256main+0xb31>
    1272: 4c 3a 17     	jmp	$173a <f256main+0xff6>
    1275: a6 30        	ldx	$30                     ; 0x2030 <__putchar+0x4d>
    1277: e0 81        	cpx	#$81
    1279: b0 03        	bcs	$127e <f256main+0xb3a>
    127b: 4c 41 17     	jmp	$1741 <f256main+0xffd>
    127e: a2 04        	ldx	#$4
    1280: 86 32        	stx	$32                     ; 0x2032 <__putchar+0x4f>
    1282: 8e 14 d0     	stx	$d014                   ; 0xd014 <end_block9+0x9910>
    1285: 9c 15 d0     	stz	$d015                   ; 0xd015 <end_block9+0x9911>
    1288: a2 18        	ldx	#$18
    128a: 86 33        	stx	$33                     ; 0x2033 <__putchar+0x50>
    128c: 8e 16 d0     	stx	$d016                   ; 0xd016 <end_block9+0x9912>
    128f: 9c 17 d0     	stz	$d017                   ; 0xd017 <end_block9+0x9913>
    1292: a2 af        	ldx	#$af
    1294: 86 12        	stx	$12                     ; 0x2012 <__putchar+0x2f>
    1296: a2 35        	ldx	#$35
    1298: 86 13        	stx	$13                     ; 0x2013 <__putchar+0x30>
    129a: 20 80 23     	jsr	$2380 <printf>
    129d: a2 04        	ldx	#$4
    129f: 86 32        	stx	$32                     ; 0x2032 <__putchar+0x4f>
    12a1: 8e 14 d0     	stx	$d014                   ; 0xd014 <end_block9+0x9910>
    12a4: 9c 15 d0     	stz	$d015                   ; 0xd015 <end_block9+0x9911>
    12a7: a2 19        	ldx	#$19
    12a9: 86 33        	stx	$33                     ; 0x2033 <__putchar+0x50>
    12ab: 8e 16 d0     	stx	$d016                   ; 0xd016 <end_block9+0x9912>
    12ae: 9c 17 d0     	stz	$d017                   ; 0xd017 <end_block9+0x9913>
    12b1: a2 67        	ldx	#$67
    12b3: 86 12        	stx	$12                     ; 0x2012 <__putchar+0x2f>
    12b5: a2 35        	ldx	#$35
    12b7: 4c c5 18     	jmp	$18c5 <f256main+0x1181>
    12ba: e6 26        	inc	$26                     ; 0x2026 <__putchar+0x43>
    12bc: 18           	clc
    12bd: a5 12        	lda	$12                     ; 0x2012 <__putchar+0x2f>
    12bf: 69 02        	adc	#$2
    12c1: 85 14        	sta	$14                     ; 0x2014 <__putchar+0x31>
    12c3: a5 26        	lda	$26                     ; 0x2026 <__putchar+0x43>
    12c5: 0a           	asl
    12c6: 85 12        	sta	$12                     ; 0x2012 <__putchar+0x2f>
    12c8: a9 00        	lda	#$0
    12ca: 2a           	rol
    12cb: 85 13        	sta	$13                     ; 0x2013 <__putchar+0x30>
    12cd: a9 e6        	lda	#$e6
    12cf: 18           	clc
    12d0: 65 12        	adc	$12                     ; 0x2012 <__putchar+0x2f>
    12d2: aa           	tax
    12d3: a9 32        	lda	#$32
    12d5: 65 13        	adc	$13                     ; 0x2013 <__putchar+0x30>
    12d7: a8           	tay
    12d8: a5 14        	lda	$14                     ; 0x2014 <__putchar+0x31>
    12da: 5a           	phy
    12db: a0 03        	ldy	#$3
    12dd: 91 10        	sta	($10),y                 ; 0x2010 <__putchar+0x2d>
    12df: 7a           	ply
    12e0: 0a           	asl
    12e1: 85 12        	sta	$12                     ; 0x2012 <__putchar+0x2f>
    12e3: a9 00        	lda	#$0
    12e5: 2a           	rol
    12e6: 85 13        	sta	$13                     ; 0x2013 <__putchar+0x30>
    12e8: a9 e6        	lda	#$e6
    12ea: 18           	clc
    12eb: 65 12        	adc	$12                     ; 0x2012 <__putchar+0x2f>
    12ed: 85 15        	sta	$15                     ; 0x2015 <__putchar+0x32>
    12ef: a9 32        	lda	#$32
    12f1: 65 13        	adc	$13                     ; 0x2013 <__putchar+0x30>
    12f3: 85 16        	sta	$16                     ; 0x2016 <__putchar+0x33>
    12f5: 86 12        	stx	$12                     ; 0x2012 <__putchar+0x2f>
    12f7: 84 13        	sty	$13                     ; 0x2013 <__putchar+0x30>
    12f9: b2 12        	lda	($12)                   ; 0x2012 <__putchar+0x2f>
    12fb: 85 14        	sta	$14                     ; 0x2014 <__putchar+0x31>
    12fd: a6 15        	ldx	$15                     ; 0x2015 <__putchar+0x32>
    12ff: 86 12        	stx	$12                     ; 0x2012 <__putchar+0x2f>
    1301: a6 16        	ldx	$16                     ; 0x2016 <__putchar+0x33>
    1303: 86 13        	stx	$13                     ; 0x2013 <__putchar+0x30>
    1305: b2 12        	lda	($12)                   ; 0x2012 <__putchar+0x2f>
    1307: aa           	tax
    1308: a5 14        	lda	$14                     ; 0x2014 <__putchar+0x31>
    130a: 4a           	lsr
    130b: 29 1f        	and	#$1f
    130d: 85 12        	sta	$12                     ; 0x2012 <__putchar+0x2f>
    130f: 8a           	txa
    1310: 4a           	lsr
    1311: 29 1f        	and	#$1f
    1313: a6 12        	ldx	$12                     ; 0x2012 <__putchar+0x2f>
    1315: 8e 08 d2     	stx	$d208                   ; 0xd208 <end_block9+0x9b04>
    1318: 9c 09 d2     	stz	$d209                   ; 0xd209 <end_block9+0x9b05>
    131b: 8d 0a d2     	sta	$d20a                   ; 0xd20a <end_block9+0x9b06>
    131e: 9c 0b d2     	stz	$d20b                   ; 0xd20b <end_block9+0x9b07>
    1321: a2 80        	ldx	#$80
    1323: 86 f3        	stx	$f3                     ; 0x20f3 <__putchar+0x110>
    1325: a2 03        	ldx	#$3
    1327: 86 12        	stx	$12                     ; 0x2012 <__putchar+0x2f>
    1329: a2 37        	ldx	#$37
    132b: 86 13        	stx	$13                     ; 0x2013 <__putchar+0x30>
    132d: a0 05        	ldy	#$5
    132f: b1 10        	lda	($10),y                 ; 0x2010 <__putchar+0x2d>
    1331: 85 16        	sta	$16                     ; 0x2016 <__putchar+0x33>
    1333: c8           	iny
    1334: b1 10        	lda	($10),y                 ; 0x2010 <__putchar+0x2d>
    1336: 85 17        	sta	$17                     ; 0x2017 <__putchar+0x34>
    1338: 20 f0 ff     	jsr	$fff0 <end_block9+0xc8ec>
    133b: 92 16        	sta	($16)                   ; 0x2016 <__putchar+0x33>
    133d: a9 00        	lda	#$0
    133f: 6a           	ror
    1340: 85 12        	sta	$12                     ; 0x2012 <__putchar+0x2f>
    1342: 18           	clc
    1343: a9 03        	lda	#$3
    1345: 72 16        	adc	($16)                   ; 0x2016 <__putchar+0x33>
    1347: 85 8e        	sta	$8e                     ; 0x208e <__putchar+0xab>
    1349: 64 f3        	stz	$f3                     ; 0x20f3 <__putchar+0x110>
    134b: a6 8e        	ldx	$8e                     ; 0x208e <__putchar+0xab>
    134d: 86 f4        	stx	$f4                     ; 0x20f4 <__putchar+0x111>
    134f: a2 03        	ldx	#$3
    1351: 86 f5        	stx	$f5                     ; 0x20f5 <__putchar+0x112>
    1353: a5 2a        	lda	$2a                     ; 0x202a <__putchar+0x47>
    1355: a0 09        	ldy	#$9
    1357: 91 10        	sta	($10),y                 ; 0x2010 <__putchar+0x2d>
    1359: a0 0b        	ldy	#$b
    135b: b1 10        	lda	($10),y                 ; 0x2010 <__putchar+0x2d>
    135d: a8           	tay
    135e: 5a           	phy
    135f: a0 08        	ldy	#$8
    1361: b1 10        	lda	($10),y                 ; 0x2010 <__putchar+0x2d>
    1363: 7a           	ply
    1364: aa           	tax
    1365: 20 f0 ff     	jsr	$fff0 <end_block9+0xc8ec>
    1368: 92 16        	sta	($16)                   ; 0x2016 <__putchar+0x33>
    136a: a9 00        	lda	#$0
    136c: 6a           	ror
    136d: 85 12        	sta	$12                     ; 0x2012 <__putchar+0x2f>
    136f: 4c 44 1b     	jmp	$1b44 <f256main+0x1400>
    1372: a9 80        	lda	#$80
    1374: 05 8f        	ora	$8f                     ; 0x208f <__putchar+0xac>
    1376: 8d a1 dd     	sta	$dda1                   ; 0xdda1 <end_block9+0xa69d>
    1379: 9c a1 dd     	stz	$dda1                   ; 0xdda1 <end_block9+0xa69d>
    137c: a2 6f        	ldx	#$6f
    137e: 8e a1 dd     	stx	$dda1                   ; 0xdda1 <end_block9+0xa69d>
    1381: a0 02        	ldy	#$2
    1383: b1 10        	lda	($10),y                 ; 0x2010 <__putchar+0x2d>
    1385: aa           	tax
    1386: a0 08        	ldy	#$8
    1388: b1 10        	lda	($10),y                 ; 0x2010 <__putchar+0x2d>
    138a: e0 00        	cpx	#$0
    138c: d0 03        	bne	$1391 <f256main+0xc4d>
    138e: 4c 08 19     	jmp	$1908 <f256main+0x11c4>
    1391: 48           	pha
    1392: a0 0a        	ldy	#$a
    1394: b1 10        	lda	($10),y                 ; 0x2010 <__putchar+0x2d>
    1396: a8           	tay
    1397: 68           	pla
    1398: c0 49        	cpy	#$49
    139a: 90 03        	bcc	$139f <f256main+0xc5b>
    139c: 4c df 18     	jmp	$18df <f256main+0x119b>
    139f: c8           	iny
    13a0: be 94 32     	ldx	$3294,y                 ; 0x3294 <songNotes>
    13a3: 86 8f        	stx	$8f                     ; 0x208f <__putchar+0xac>
    13a5: 64 90        	stz	$90                     ; 0x2090 <__putchar+0xad>
    13a7: a2 80        	ldx	#$80
    13a9: 86 f3        	stx	$f3                     ; 0x20f3 <__putchar+0x110>
    13ab: a2 03        	ldx	#$3
    13ad: 86 12        	stx	$12                     ; 0x2012 <__putchar+0x2f>
    13af: a2 37        	ldx	#$37
    13b1: 86 13        	stx	$13                     ; 0x2013 <__putchar+0x30>
    13b3: 5a           	phy
    13b4: a0 05        	ldy	#$5
    13b6: b1 10        	lda	($10),y                 ; 0x2010 <__putchar+0x2d>
    13b8: 85 16        	sta	$16                     ; 0x2016 <__putchar+0x33>
    13ba: c8           	iny
    13bb: b1 10        	lda	($10),y                 ; 0x2010 <__putchar+0x2d>
    13bd: 7a           	ply
    13be: 85 17        	sta	$17                     ; 0x2017 <__putchar+0x34>
    13c0: 20 f0 ff     	jsr	$fff0 <end_block9+0xc8ec>
    13c3: 92 16        	sta	($16)                   ; 0x2016 <__putchar+0x33>
    13c5: a9 00        	lda	#$0
    13c7: 6a           	ror
    13c8: 85 12        	sta	$12                     ; 0x2012 <__putchar+0x2f>
    13ca: a9 19        	lda	#$19
    13cc: 18           	clc
    13cd: 72 16        	adc	($16)                   ; 0x2016 <__putchar+0x33>
    13cf: 85 8c        	sta	$8c                     ; 0x208c <__putchar+0xa9>
    13d1: a5 8a        	lda	$8a                     ; 0x208a <__putchar+0xa7>
    13d3: 29 01        	and	#$1
    13d5: f0 38        	beq	$140f <f256main+0xccb>
    13d7: a2 9f        	ldx	#$9f
    13d9: 8e 08 d6     	stx	$d608                   ; 0xd608 <end_block9+0x9f04>
    13dc: a2 94        	ldx	#$94
    13de: 8e 08 d6     	stx	$d608                   ; 0xd608 <end_block9+0x9f04>
    13e1: a9 03        	lda	#$3
    13e3: 18           	clc
    13e4: 65 8f        	adc	$8f                     ; 0x208f <__putchar+0xac>
    13e6: 85 12        	sta	$12                     ; 0x2012 <__putchar+0x2f>
    13e8: a9 30        	lda	#$30
    13ea: 65 90        	adc	$90                     ; 0x2090 <__putchar+0xad>
    13ec: 85 13        	sta	$13                     ; 0x2013 <__putchar+0x30>
    13ee: b2 12        	lda	($12)                   ; 0x2012 <__putchar+0x2f>
    13f0: aa           	tax
    13f1: bd fe 30     	lda	$30fe,x                 ; 0x30fe <KeyCodesToLoPSG>
    13f4: aa           	tax
    13f5: 8e 08 d6     	stx	$d608                   ; 0xd608 <end_block9+0x9f04>
    13f8: a9 03        	lda	#$3
    13fa: 18           	clc
    13fb: 65 8f        	adc	$8f                     ; 0x208f <__putchar+0xac>
    13fd: 85 12        	sta	$12                     ; 0x2012 <__putchar+0x2f>
    13ff: a9 30        	lda	#$30
    1401: 65 90        	adc	$90                     ; 0x2090 <__putchar+0xad>
    1403: 85 13        	sta	$13                     ; 0x2013 <__putchar+0x30>
    1405: b2 12        	lda	($12)                   ; 0x2012 <__putchar+0x2f>
    1407: aa           	tax
    1408: bd 79 31     	lda	$3179,x                 ; 0x3179 <KeyCodesToHiPSG>
    140b: aa           	tax
    140c: 8e 08 d6     	stx	$d608                   ; 0xd608 <end_block9+0x9f04>
    140f: 98           	tya
    1410: a0 0a        	ldy	#$a
    1412: 91 10        	sta	($10),y                 ; 0x2010 <__putchar+0x2d>
    1414: 64 f3        	stz	$f3                     ; 0x20f3 <__putchar+0x110>
    1416: a6 8c        	ldx	$8c                     ; 0x208c <__putchar+0xa9>
    1418: 86 f4        	stx	$f4                     ; 0x20f4 <__putchar+0x111>
    141a: a2 01        	ldx	#$1
    141c: 86 f5        	stx	$f5                     ; 0x20f5 <__putchar+0x112>
    141e: a2 03        	ldx	#$3
    1420: 86 12        	stx	$12                     ; 0x2012 <__putchar+0x2f>
    1422: a2 37        	ldx	#$37
    1424: 86 13        	stx	$13                     ; 0x2013 <__putchar+0x30>
    1426: a0 05        	ldy	#$5
    1428: b1 10        	lda	($10),y                 ; 0x2010 <__putchar+0x2d>
    142a: 85 14        	sta	$14                     ; 0x2014 <__putchar+0x31>
    142c: c8           	iny
    142d: b1 10        	lda	($10),y                 ; 0x2010 <__putchar+0x2d>
    142f: 85 15        	sta	$15                     ; 0x2015 <__putchar+0x32>
    1431: 20 f0 ff     	jsr	$fff0 <end_block9+0xc8ec>
    1434: 92 14        	sta	($14)                   ; 0x2014 <__putchar+0x31>
    1436: a9 00        	lda	#$0
    1438: 6a           	ror
    1439: 85 12        	sta	$12                     ; 0x2012 <__putchar+0x2f>
    143b: a5 8a        	lda	$8a                     ; 0x208a <__putchar+0xa7>
    143d: 29 01        	and	#$1
    143f: d0 0f        	bne	$1450 <f256main+0xd0c>
    1441: a6 8f        	ldx	$8f                     ; 0x208f <__putchar+0xac>
    1443: a0 90        	ldy	#$90
    1445: 8c a1 dd     	sty	$dda1                   ; 0xdda1 <end_block9+0xa69d>
    1448: 8e a1 dd     	stx	$dda1                   ; 0xdda1 <end_block9+0xa69d>
    144b: a2 6f        	ldx	#$6f
    144d: 8e a1 dd     	stx	$dda1                   ; 0xdda1 <end_block9+0xa69d>
    1450: a5 8f        	lda	$8f                     ; 0x208f <__putchar+0xac>
    1452: 0a           	asl
    1453: 85 12        	sta	$12                     ; 0x2012 <__putchar+0x2f>
    1455: a9 00        	lda	#$0
    1457: 2a           	rol
    1458: 85 13        	sta	$13                     ; 0x2013 <__putchar+0x30>
    145a: a9 f4        	lda	#$f4
    145c: 18           	clc
    145d: 65 12        	adc	$12                     ; 0x2012 <__putchar+0x2f>
    145f: 85 12        	sta	$12                     ; 0x2012 <__putchar+0x2f>
    1461: a9 31        	lda	#$31
    1463: 65 13        	adc	$13                     ; 0x2013 <__putchar+0x30>
    1465: 85 13        	sta	$13                     ; 0x2013 <__putchar+0x30>
    1467: b2 12        	lda	($12)                   ; 0x2012 <__putchar+0x2f>
    1469: 85 14        	sta	$14                     ; 0x2014 <__putchar+0x31>
    146b: a0 01        	ldy	#$1
    146d: b1 12        	lda	($12),y                 ; 0x2012 <__putchar+0x2f>
    146f: 85 12        	sta	$12                     ; 0x2012 <__putchar+0x2f>
    1471: 98           	tya
    1472: 05 47        	ora	$47                     ; 0x2047 <__putchar+0x64>
    1474: 8d 08 d9     	sta	$d908                   ; 0xd908 <end_block9+0xa204>
    1477: a6 14        	ldx	$14                     ; 0x2014 <__putchar+0x31>
    1479: 8e 0c d9     	stx	$d90c                   ; 0xd90c <end_block9+0xa208>
    147c: a6 12        	ldx	$12                     ; 0x2012 <__putchar+0x2f>
    147e: 8e 0d d9     	stx	$d90d                   ; 0xd90d <end_block9+0xa209>
    1481: a2 c0        	ldx	#$c0
    1483: 8e 0e d9     	stx	$d90e                   ; 0xd90e <end_block9+0xa20a>
    1486: 9c 0f d9     	stz	$d90f                   ; 0xd90f <end_block9+0xa20b>
    1489: a2 01        	ldx	#$1
    148b: 8a           	txa
    148c: c8           	iny
    148d: 91 10        	sta	($10),y                 ; 0x2010 <__putchar+0x2d>
    148f: 4c ca 18     	jmp	$18ca <f256main+0x1186>
    1492: a2 01        	ldx	#$1
    1494: 8a           	txa
    1495: a0 09        	ldy	#$9
    1497: 91 10        	sta	($10),y                 ; 0x2010 <__putchar+0x2d>
    1499: a0 08        	ldy	#$8
    149b: b1 10        	lda	($10),y                 ; 0x2010 <__putchar+0x2d>
    149d: aa           	tax
    149e: a0 01        	ldy	#$1
    14a0: 5a           	phy
    14a1: a0 0a        	ldy	#$a
    14a3: b1 10        	lda	($10),y                 ; 0x2010 <__putchar+0x2d>
    14a5: 7a           	ply
    14a6: c9 4a        	cmp	#$4a
    14a8: f0 03        	beq	$14ad <f256main+0xd69>
    14aa: 4c 44 1b     	jmp	$1b44 <f256main+0x1400>
    14ad: a2 19        	ldx	#$19
    14af: 86 32        	stx	$32                     ; 0x2032 <__putchar+0x4f>
    14b1: 8e 14 d0     	stx	$d014                   ; 0xd014 <end_block9+0x9910>
    14b4: 9c 15 d0     	stz	$d015                   ; 0xd015 <end_block9+0x9911>
    14b7: a2 08        	ldx	#$8
    14b9: 86 33        	stx	$33                     ; 0x2033 <__putchar+0x50>
    14bb: 8e 16 d0     	stx	$d016                   ; 0xd016 <end_block9+0x9912>
    14be: 9c 17 d0     	stz	$d017                   ; 0xd017 <end_block9+0x9913>
    14c1: a2 00        	ldx	#$0
    14c3: a9 2f        	lda	#$2f
    14c5: 20 30 2f     	jsr	$2f30 <putchar>
    14c8: a2 1a        	ldx	#$1a
    14ca: 86 32        	stx	$32                     ; 0x2032 <__putchar+0x4f>
    14cc: 8e 14 d0     	stx	$d014                   ; 0xd014 <end_block9+0x9910>
    14cf: 9c 15 d0     	stz	$d015                   ; 0xd015 <end_block9+0x9911>
    14d2: a2 07        	ldx	#$7
    14d4: 86 33        	stx	$33                     ; 0x2033 <__putchar+0x50>
    14d6: 8e 16 d0     	stx	$d016                   ; 0xd016 <end_block9+0x9912>
    14d9: 9c 17 d0     	stz	$d017                   ; 0xd017 <end_block9+0x9913>
    14dc: a6 88        	ldx	$88                     ; 0x2088 <__putchar+0xa5>
    14de: e0 48        	cpx	#$48
    14e0: b0 03        	bcs	$14e5 <f256main+0xda1>
    14e2: 4c 97 15     	jmp	$1597 <f256main+0xe53>
    14e5: a2 95        	ldx	#$95
    14e7: 86 12        	stx	$12                     ; 0x2012 <__putchar+0x2f>
    14e9: a2 36        	ldx	#$36
    14eb: 86 13        	stx	$13                     ; 0x2013 <__putchar+0x30>
    14ed: 20 80 23     	jsr	$2380 <printf>
    14f0: a2 01        	ldx	#$1
    14f2: 86 89        	stx	$89                     ; 0x2089 <__putchar+0xa6>
    14f4: a2 50        	ldx	#$50
    14f6: 86 30        	stx	$30                     ; 0x2030 <__putchar+0x4d>
    14f8: 64 31        	stz	$31                     ; 0x2031 <__putchar+0x4e>
    14fa: a9 01        	lda	#$1
    14fc: 05 50        	ora	$50                     ; 0x2050 <__putchar+0x6d>
    14fe: 8d 50 d9     	sta	$d950                   ; 0xd950 <end_block9+0xa24c>
    1501: a5 89        	lda	$89                     ; 0x2089 <__putchar+0xa6>
    1503: 29 01        	and	#$1
    1505: a0 45        	ldy	#$45
    1507: aa           	tax
    1508: d0 02        	bne	$150c <f256main+0xdc8>
    150a: a0 b3        	ldy	#$b3
    150c: a5 30        	lda	$30                     ; 0x2030 <__putchar+0x4d>
    150e: a6 31        	ldx	$31                     ; 0x2031 <__putchar+0x4e>
    1510: 8c 54 d9     	sty	$d954                   ; 0xd954 <end_block9+0xa250>
    1513: a0 00        	ldy	#$0
    1515: 8c 55 d9     	sty	$d955                   ; 0xd955 <end_block9+0xa251>
    1518: 8d 56 d9     	sta	$d956                   ; 0xd956 <end_block9+0xa252>
    151b: 8e 57 d9     	stx	$d957                   ; 0xd957 <end_block9+0xa253>
    151e: a9 01        	lda	#$1
    1520: 05 51        	ora	$51                     ; 0x2051 <__putchar+0x6e>
    1522: 8d 58 d9     	sta	$d958                   ; 0xd958 <end_block9+0xa254>
    1525: a5 89        	lda	$89                     ; 0x2089 <__putchar+0xa6>
    1527: 29 01        	and	#$1
    1529: a0 65        	ldy	#$65
    152b: aa           	tax
    152c: d0 02        	bne	$1530 <f256main+0xdec>
    152e: a0 d3        	ldy	#$d3
    1530: a6 30        	ldx	$30                     ; 0x2030 <__putchar+0x4d>
    1532: a5 31        	lda	$31                     ; 0x2031 <__putchar+0x4e>
    1534: 8c 5c d9     	sty	$d95c                   ; 0xd95c <end_block9+0xa258>
    1537: a0 00        	ldy	#$0
    1539: 8c 5d d9     	sty	$d95d                   ; 0xd95d <end_block9+0xa259>
    153c: 8e 5e d9     	stx	$d95e                   ; 0xd95e <end_block9+0xa25a>
    153f: 8d 5f d9     	sta	$d95f                   ; 0xd95f <end_block9+0xa25b>
    1542: a2 80        	ldx	#$80
    1544: 86 f3        	stx	$f3                     ; 0x20f3 <__putchar+0x110>
    1546: a2 03        	ldx	#$3
    1548: 86 14        	stx	$14                     ; 0x2014 <__putchar+0x31>
    154a: a2 37        	ldx	#$37
    154c: 86 15        	stx	$15                     ; 0x2015 <__putchar+0x32>
    154e: a0 05        	ldy	#$5
    1550: b1 10        	lda	($10),y                 ; 0x2010 <__putchar+0x2d>
    1552: 85 16        	sta	$16                     ; 0x2016 <__putchar+0x33>
    1554: c8           	iny
    1555: b1 10        	lda	($10),y                 ; 0x2010 <__putchar+0x2d>
    1557: 85 17        	sta	$17                     ; 0x2017 <__putchar+0x34>
    1559: 20 f0 ff     	jsr	$fff0 <end_block9+0xc8ec>
    155c: 92 16        	sta	($16)                   ; 0x2016 <__putchar+0x33>
    155e: a9 00        	lda	#$0
    1560: 6a           	ror
    1561: 85 14        	sta	$14                     ; 0x2014 <__putchar+0x31>
    1563: 18           	clc
    1564: a9 03        	lda	#$3
    1566: 72 16        	adc	($16)                   ; 0x2016 <__putchar+0x33>
    1568: 85 8d        	sta	$8d                     ; 0x208d <__putchar+0xaa>
    156a: 64 f3        	stz	$f3                     ; 0x20f3 <__putchar+0x110>
    156c: a6 8d        	ldx	$8d                     ; 0x208d <__putchar+0xaa>
    156e: 86 f4        	stx	$f4                     ; 0x20f4 <__putchar+0x111>
    1570: a2 02        	ldx	#$2
    1572: 86 f5        	stx	$f5                     ; 0x20f5 <__putchar+0x112>
    1574: a2 4a        	ldx	#$4a
    1576: 8a           	txa
    1577: a0 0a        	ldy	#$a
    1579: 91 10        	sta	($10),y                 ; 0x2010 <__putchar+0x2d>
    157b: 64 12        	stz	$12                     ; 0x2012 <__putchar+0x2f>
    157d: a9 00        	lda	#$0
    157f: 88           	dey
    1580: 91 10        	sta	($10),y                 ; 0x2010 <__putchar+0x2d>
    1582: a8           	tay
    1583: 5a           	phy
    1584: a0 08        	ldy	#$8
    1586: b1 10        	lda	($10),y                 ; 0x2010 <__putchar+0x2d>
    1588: 7a           	ply
    1589: aa           	tax
    158a: 20 f0 ff     	jsr	$fff0 <end_block9+0xc8ec>
    158d: 92 16        	sta	($16)                   ; 0x2016 <__putchar+0x33>
    158f: a9 00        	lda	#$0
    1591: 6a           	ror
    1592: 85 14        	sta	$14                     ; 0x2014 <__putchar+0x31>
    1594: 4c 44 1b     	jmp	$1b44 <f256main+0x1400>
    1597: a2 33        	ldx	#$33
    1599: 86 12        	stx	$12                     ; 0x2012 <__putchar+0x2f>
    159b: a2 35        	ldx	#$35
    159d: 86 13        	stx	$13                     ; 0x2013 <__putchar+0x30>
    159f: 20 80 23     	jsr	$2380 <printf>
    15a2: a2 4a        	ldx	#$4a
    15a4: 8a           	txa
    15a5: a0 0a        	ldy	#$a
    15a7: 91 10        	sta	($10),y                 ; 0x2010 <__putchar+0x2d>
    15a9: 64 12        	stz	$12                     ; 0x2012 <__putchar+0x2f>
    15ab: a9 00        	lda	#$0
    15ad: 88           	dey
    15ae: 91 10        	sta	($10),y                 ; 0x2010 <__putchar+0x2d>
    15b0: 4c d4 18     	jmp	$18d4 <f256main+0x1190>
    15b3: a0 0c        	ldy	#$c
    15b5: b1 10        	lda	($10),y                 ; 0x2010 <__putchar+0x2d>
    15b7: 85 29        	sta	$29                     ; 0x2029 <__putchar+0x46>
    15b9: 64 88        	stz	$88                     ; 0x2088 <__putchar+0xa5>
    15bb: a2 80        	ldx	#$80
    15bd: 86 f3        	stx	$f3                     ; 0x20f3 <__putchar+0x110>
    15bf: a2 03        	ldx	#$3
    15c1: 86 14        	stx	$14                     ; 0x2014 <__putchar+0x31>
    15c3: a2 37        	ldx	#$37
    15c5: 86 15        	stx	$15                     ; 0x2015 <__putchar+0x32>
    15c7: a0 05        	ldy	#$5
    15c9: b1 10        	lda	($10),y                 ; 0x2010 <__putchar+0x2d>
    15cb: 85 16        	sta	$16                     ; 0x2016 <__putchar+0x33>
    15cd: c8           	iny
    15ce: b1 10        	lda	($10),y                 ; 0x2010 <__putchar+0x2d>
    15d0: 85 17        	sta	$17                     ; 0x2017 <__putchar+0x34>
    15d2: 20 f0 ff     	jsr	$fff0 <end_block9+0xc8ec>
    15d5: 92 16        	sta	($16)                   ; 0x2016 <__putchar+0x33>
    15d7: a9 00        	lda	#$0
    15d9: 6a           	ror
    15da: 85 14        	sta	$14                     ; 0x2014 <__putchar+0x31>
    15dc: 18           	clc
    15dd: a9 1e        	lda	#$1e
    15df: 72 16        	adc	($16)                   ; 0x2016 <__putchar+0x33>
    15e1: 85 8c        	sta	$8c                     ; 0x208c <__putchar+0xa9>
    15e3: a2 37        	ldx	#$37
    15e5: 86 8f        	stx	$8f                     ; 0x208f <__putchar+0xac>
    15e7: 64 90        	stz	$90                     ; 0x2090 <__putchar+0xad>
    15e9: 64 f3        	stz	$f3                     ; 0x20f3 <__putchar+0x110>
    15eb: a6 8c        	ldx	$8c                     ; 0x208c <__putchar+0xa9>
    15ed: 86 f4        	stx	$f4                     ; 0x20f4 <__putchar+0x111>
    15ef: a0 01        	ldy	#$1
    15f1: a2 01        	ldx	#$1
    15f3: 8a           	txa
    15f4: 5a           	phy
    15f5: a0 0a        	ldy	#$a
    15f7: 91 10        	sta	($10),y                 ; 0x2010 <__putchar+0x2d>
    15f9: 7a           	ply
    15fa: 84 f5        	sty	$f5                     ; 0x20f5 <__putchar+0x112>
    15fc: 20 f0 ff     	jsr	$fff0 <end_block9+0xc8ec>
    15ff: 92 16        	sta	($16)                   ; 0x2016 <__putchar+0x33>
    1601: a9 00        	lda	#$0
    1603: 6a           	ror
    1604: 85 14        	sta	$14                     ; 0x2014 <__putchar+0x31>
    1606: a6 8f        	ldx	$8f                     ; 0x208f <__putchar+0xac>
    1608: a0 90        	ldy	#$90
    160a: 8c a1 dd     	sty	$dda1                   ; 0xdda1 <end_block9+0xa69d>
    160d: 8e a1 dd     	stx	$dda1                   ; 0xdda1 <end_block9+0xa69d>
    1610: a2 6f        	ldx	#$6f
    1612: 8e a1 dd     	stx	$dda1                   ; 0xdda1 <end_block9+0xa69d>
    1615: a2 19        	ldx	#$19
    1617: 86 32        	stx	$32                     ; 0x2032 <__putchar+0x4f>
    1619: 8e 14 d0     	stx	$d014                   ; 0xd014 <end_block9+0x9910>
    161c: 9c 15 d0     	stz	$d015                   ; 0xd015 <end_block9+0x9911>
    161f: a2 08        	ldx	#$8
    1621: 86 33        	stx	$33                     ; 0x2033 <__putchar+0x50>
    1623: 8e 16 d0     	stx	$d016                   ; 0xd016 <end_block9+0x9912>
    1626: 9c 17 d0     	stz	$d017                   ; 0xd017 <end_block9+0x9913>
    1629: a2 00        	ldx	#$0
    162b: a9 20        	lda	#$20
    162d: 20 30 2f     	jsr	$2f30 <putchar>
    1630: a2 1a        	ldx	#$1a
    1632: 86 32        	stx	$32                     ; 0x2032 <__putchar+0x4f>
    1634: 8e 14 d0     	stx	$d014                   ; 0xd014 <end_block9+0x9910>
    1637: 9c 15 d0     	stz	$d015                   ; 0xd015 <end_block9+0x9911>
    163a: a2 07        	ldx	#$7
    163c: 86 33        	stx	$33                     ; 0x2033 <__putchar+0x50>
    163e: 8e 16 d0     	stx	$d016                   ; 0xd016 <end_block9+0x9912>
    1641: 9c 17 d0     	stz	$d017                   ; 0xd017 <end_block9+0x9913>
    1644: a2 da        	ldx	#$da
    1646: 86 12        	stx	$12                     ; 0x2012 <__putchar+0x2f>
    1648: a2 36        	ldx	#$36
    164a: 86 13        	stx	$13                     ; 0x2013 <__putchar+0x30>
    164c: 20 80 23     	jsr	$2380 <printf>
    164f: a6 50        	ldx	$50                     ; 0x2050 <__putchar+0x6d>
    1651: 8e 50 d9     	stx	$d950                   ; 0xd950 <end_block9+0xa24c>
    1654: a6 51        	ldx	$51                     ; 0x2051 <__putchar+0x6e>
    1656: 8e 58 d9     	stx	$d958                   ; 0xd958 <end_block9+0xa254>
    1659: 64 12        	stz	$12                     ; 0x2012 <__putchar+0x2f>
    165b: a9 00        	lda	#$0
    165d: a0 09        	ldy	#$9
    165f: 91 10        	sta	($10),y                 ; 0x2010 <__putchar+0x2d>
    1661: a0 01        	ldy	#$1
    1663: 4c d5 18     	jmp	$18d5 <f256main+0x1191>
    1666: a0 0c        	ldy	#$c
    1668: b1 10        	lda	($10),y                 ; 0x2010 <__putchar+0x2d>
    166a: 85 29        	sta	$29                     ; 0x2029 <__putchar+0x46>
    166c: a2 9f        	ldx	#$9f
    166e: 8e 08 d6     	stx	$d608                   ; 0xd608 <end_block9+0x9f04>
    1671: a5 8a        	lda	$8a                     ; 0x208a <__putchar+0xa7>
    1673: 29 01        	and	#$1
    1675: a2 10        	ldx	#$10
    1677: 86 43        	stx	$43                     ; 0x2043 <__putchar+0x60>
    1679: aa           	tax
    167a: d0 03        	bne	$167f <f256main+0xf3b>
    167c: 4c 3e 18     	jmp	$183e <f256main+0x10fa>
    167f: 9c 01 d2     	stz	$d201                   ; 0xd201 <end_block9+0x9afd>
    1682: a2 88        	ldx	#$88
    1684: 8e 02 d2     	stx	$d202                   ; 0xd202 <end_block9+0x9afe>
    1687: a2 03        	ldx	#$3
    1689: 8e 03 d2     	stx	$d203                   ; 0xd203 <end_block9+0x9aff>
    168c: a2 17        	ldx	#$17
    168e: 8e 04 d2     	stx	$d204                   ; 0xd204 <end_block9+0x9b00>
    1691: 9c 05 d2     	stz	$d205                   ; 0xd205 <end_block9+0x9b01>
    1694: a2 13        	ldx	#$13
    1696: 8e 06 d2     	stx	$d206                   ; 0xd206 <end_block9+0x9b02>
    1699: 9c 07 d2     	stz	$d207                   ; 0xd207 <end_block9+0x9b03>
    169c: 9c 08 d2     	stz	$d208                   ; 0xd208 <end_block9+0x9b04>
    169f: 9c 09 d2     	stz	$d209                   ; 0xd209 <end_block9+0x9b05>
    16a2: 9c 0a d2     	stz	$d20a                   ; 0xd20a <end_block9+0x9b06>
    16a5: 9c 0b d2     	stz	$d20b                   ; 0xd20b <end_block9+0x9b07>
    16a8: a2 3c        	ldx	#$3c
    16aa: 86 32        	stx	$32                     ; 0x2032 <__putchar+0x4f>
    16ac: 8e 14 d0     	stx	$d014                   ; 0xd014 <end_block9+0x9910>
    16af: 9c 15 d0     	stz	$d015                   ; 0xd015 <end_block9+0x9911>
    16b2: a2 02        	ldx	#$2
    16b4: 86 33        	stx	$33                     ; 0x2033 <__putchar+0x50>
    16b6: 8e 16 d0     	stx	$d016                   ; 0xd016 <end_block9+0x9912>
    16b9: 9c 17 d0     	stz	$d017                   ; 0xd017 <end_block9+0x9913>
    16bc: a2 4a        	ldx	#$4a
    16be: 86 12        	stx	$12                     ; 0x2012 <__putchar+0x2f>
    16c0: a2 35        	ldx	#$35
    16c2: 86 13        	stx	$13                     ; 0x2013 <__putchar+0x30>
    16c4: 20 80 23     	jsr	$2380 <printf>
    16c7: 64 8a        	stz	$8a                     ; 0x208a <__putchar+0xa7>
    16c9: a2 21        	ldx	#$21
    16cb: 86 32        	stx	$32                     ; 0x2032 <__putchar+0x4f>
    16cd: 8e 14 d0     	stx	$d014                   ; 0xd014 <end_block9+0x9910>
    16d0: 9c 15 d0     	stz	$d015                   ; 0xd015 <end_block9+0x9911>
    16d3: a2 10        	ldx	#$10
    16d5: 86 33        	stx	$33                     ; 0x2033 <__putchar+0x50>
    16d7: 8e 16 d0     	stx	$d016                   ; 0xd016 <end_block9+0x9912>
    16da: 9c 17 d0     	stz	$d017                   ; 0xd017 <end_block9+0x9913>
    16dd: a2 e5        	ldx	#$e5
    16df: 86 12        	stx	$12                     ; 0x2012 <__putchar+0x2f>
    16e1: a2 35        	ldx	#$35
    16e3: 86 13        	stx	$13                     ; 0x2013 <__putchar+0x30>
    16e5: 20 80 23     	jsr	$2380 <printf>
    16e8: a2 22        	ldx	#$22
    16ea: 86 32        	stx	$32                     ; 0x2032 <__putchar+0x4f>
    16ec: 8e 14 d0     	stx	$d014                   ; 0xd014 <end_block9+0x9910>
    16ef: 9c 15 d0     	stz	$d015                   ; 0xd015 <end_block9+0x9911>
    16f2: a2 17        	ldx	#$17
    16f4: 86 33        	stx	$33                     ; 0x2033 <__putchar+0x50>
    16f6: 8e 16 d0     	stx	$d016                   ; 0xd016 <end_block9+0x9912>
    16f9: 9c 17 d0     	stz	$d017                   ; 0xd017 <end_block9+0x9913>
    16fc: a2 ae        	ldx	#$ae
    16fe: 86 12        	stx	$12                     ; 0x2012 <__putchar+0x2f>
    1700: a2 36        	ldx	#$36
    1702: 4c c5 18     	jmp	$18c5 <f256main+0x1181>
    1705: e0 92        	cpx	#$92
    1707: d0 03        	bne	$170c <f256main+0xfc8>
    1709: 4c 04 1b     	jmp	$1b04 <f256main+0x13c0>
    170c: a5 8a        	lda	$8a                     ; 0x208a <__putchar+0xa7>
    170e: 29 01        	and	#$1
    1710: d0 03        	bne	$1715 <f256main+0xfd1>
    1712: 4c 8d 19     	jmp	$198d <f256main+0x1249>
    1715: a0 0c        	ldy	#$c
    1717: b1 10        	lda	($10),y                 ; 0x2010 <__putchar+0x2d>
    1719: 85 29        	sta	$29                     ; 0x2029 <__putchar+0x46>
    171b: a2 9f        	ldx	#$9f
    171d: 8e 08 d6     	stx	$d608                   ; 0xd608 <end_block9+0x9f04>
    1720: a2 94        	ldx	#$94
    1722: 8e 08 d6     	stx	$d608                   ; 0xd608 <end_block9+0x9f04>
    1725: a6 95        	ldx	$95                     ; 0x2095 <__putchar+0xb2>
    1727: bd fe 30     	lda	$30fe,x                 ; 0x30fe <KeyCodesToLoPSG>
    172a: aa           	tax
    172b: 8e 08 d6     	stx	$d608                   ; 0xd608 <end_block9+0x9f04>
    172e: a6 95        	ldx	$95                     ; 0x2095 <__putchar+0xb2>
    1730: bd 79 31     	lda	$3179,x                 ; 0x3179 <KeyCodesToHiPSG>
    1733: aa           	tax
    1734: 8e 08 d6     	stx	$d608                   ; 0xd608 <end_block9+0x9f04>
    1737: 4c a9 19     	jmp	$19a9 <f256main+0x1265>
    173a: e0 00        	cpx	#$0
    173c: 90 03        	bcc	$1741 <f256main+0xffd>
    173e: 4c 7e 12     	jmp	$127e <f256main+0xb3a>
    1741: a0 0b        	ldy	#$b
    1743: b1 10        	lda	($10),y                 ; 0x2010 <__putchar+0x2d>
    1745: a8           	tay
    1746: a2 80        	ldx	#$80
    1748: 86 f3        	stx	$f3                     ; 0x20f3 <__putchar+0x110>
    174a: a2 03        	ldx	#$3
    174c: 86 12        	stx	$12                     ; 0x2012 <__putchar+0x2f>
    174e: a2 37        	ldx	#$37
    1750: 86 13        	stx	$13                     ; 0x2013 <__putchar+0x30>
    1752: 5a           	phy
    1753: a0 05        	ldy	#$5
    1755: b1 10        	lda	($10),y                 ; 0x2010 <__putchar+0x2d>
    1757: 85 16        	sta	$16                     ; 0x2016 <__putchar+0x33>
    1759: c8           	iny
    175a: b1 10        	lda	($10),y                 ; 0x2010 <__putchar+0x2d>
    175c: 85 17        	sta	$17                     ; 0x2017 <__putchar+0x34>
    175e: 20 f0 ff     	jsr	$fff0 <end_block9+0xc8ec>
    1761: 92 16        	sta	($16)                   ; 0x2016 <__putchar+0x33>
    1763: a9 00        	lda	#$0
    1765: 6a           	ror
    1766: 85 12        	sta	$12                     ; 0x2012 <__putchar+0x2f>
    1768: 18           	clc
    1769: a9 03        	lda	#$3
    176b: 72 16        	adc	($16)                   ; 0x2016 <__putchar+0x33>
    176d: 85 8d        	sta	$8d                     ; 0x208d <__putchar+0xaa>
    176f: 64 f3        	stz	$f3                     ; 0x20f3 <__putchar+0x110>
    1771: a6 8d        	ldx	$8d                     ; 0x208d <__putchar+0xaa>
    1773: 86 f4        	stx	$f4                     ; 0x20f4 <__putchar+0x111>
    1775: a2 02        	ldx	#$2
    1777: 86 f5        	stx	$f5                     ; 0x20f5 <__putchar+0x112>
    1779: a5 2a        	lda	$2a                     ; 0x202a <__putchar+0x47>
    177b: a0 09        	ldy	#$9
    177d: 91 10        	sta	($10),y                 ; 0x2010 <__putchar+0x2d>
    177f: 88           	dey
    1780: b1 10        	lda	($10),y                 ; 0x2010 <__putchar+0x2d>
    1782: 7a           	ply
    1783: aa           	tax
    1784: 20 f0 ff     	jsr	$fff0 <end_block9+0xc8ec>
    1787: 92 16        	sta	($16)                   ; 0x2016 <__putchar+0x33>
    1789: a9 00        	lda	#$0
    178b: 6a           	ror
    178c: 85 12        	sta	$12                     ; 0x2012 <__putchar+0x2f>
    178e: 4c 44 1b     	jmp	$1b44 <f256main+0x1400>
    1791: a2 81        	ldx	#$81
    1793: 8e a1 dd     	stx	$dda1                   ; 0xdda1 <end_block9+0xa69d>
    1796: a2 6f        	ldx	#$6f
    1798: 8e a1 dd     	stx	$dda1                   ; 0xdda1 <end_block9+0xa69d>
    179b: 38           	sec
    179c: 5a           	phy
    179d: a0 04        	ldy	#$4
    179f: b1 10        	lda	($10),y                 ; 0x2010 <__putchar+0x2d>
    17a1: 7a           	ply
    17a2: e9 fe        	sbc	#$fe
    17a4: 70 03        	bvs	$17a9 <f256main+0x1065>
    17a6: 4c 5c 1a     	jmp	$1a5c <f256main+0x1318>
    17a9: 48           	pha
    17aa: 5a           	phy
    17ab: a0 0c        	ldy	#$c
    17ad: b1 10        	lda	($10),y                 ; 0x2010 <__putchar+0x2d>
    17af: 7a           	ply
    17b0: 85 29        	sta	$29                     ; 0x2029 <__putchar+0x46>
    17b2: 68           	pla
    17b3: 49 80        	eor	#$80
    17b5: 4c 66 1a     	jmp	$1a66 <f256main+0x1322>
    17b8: a2 81        	ldx	#$81
    17ba: 8e a1 dd     	stx	$dda1                   ; 0xdda1 <end_block9+0xa69d>
    17bd: a2 6f        	ldx	#$6f
    17bf: 8e a1 dd     	stx	$dda1                   ; 0xdda1 <end_block9+0xa69d>
    17c2: 38           	sec
    17c3: 5a           	phy
    17c4: a0 04        	ldy	#$4
    17c6: b1 10        	lda	($10),y                 ; 0x2010 <__putchar+0x2d>
    17c8: 7a           	ply
    17c9: e9 04        	sbc	#$4
    17cb: 70 03        	bvs	$17d0 <f256main+0x108c>
    17cd: 4c aa 1a     	jmp	$1aaa <f256main+0x1366>
    17d0: 48           	pha
    17d1: 5a           	phy
    17d2: a0 0c        	ldy	#$c
    17d4: b1 10        	lda	($10),y                 ; 0x2010 <__putchar+0x2d>
    17d6: 7a           	ply
    17d7: 85 29        	sta	$29                     ; 0x2029 <__putchar+0x46>
    17d9: 68           	pla
    17da: 49 80        	eor	#$80
    17dc: 4c b4 1a     	jmp	$1ab4 <f256main+0x1370>
    17df: 5a           	phy
    17e0: a0 0c        	ldy	#$c
    17e2: b1 10        	lda	($10),y                 ; 0x2010 <__putchar+0x2d>
    17e4: 7a           	ply
    17e5: 85 29        	sta	$29                     ; 0x2029 <__putchar+0x46>
    17e7: a2 00        	ldx	#$0
    17e9: 98           	tya
    17ea: 5a           	phy
    17eb: a0 09        	ldy	#$9
    17ed: 91 10        	sta	($10),y                 ; 0x2010 <__putchar+0x2d>
    17ef: 7a           	ply
    17f0: 84 12        	sty	$12                     ; 0x2012 <__putchar+0x2f>
    17f2: a0 0b        	ldy	#$b
    17f4: b1 10        	lda	($10),y                 ; 0x2010 <__putchar+0x2d>
    17f6: 85 13        	sta	$13                     ; 0x2013 <__putchar+0x30>
    17f8: a8           	tay
    17f9: 5a           	phy
    17fa: a0 08        	ldy	#$8
    17fc: b1 10        	lda	($10),y                 ; 0x2010 <__putchar+0x2d>
    17fe: 7a           	ply
    17ff: c9 00        	cmp	#$0
    1801: d0 03        	bne	$1806 <f256main+0x10c2>
    1803: 4c 44 1b     	jmp	$1b44 <f256main+0x1400>
    1806: a6 8a        	ldx	$8a                     ; 0x208a <__putchar+0xa7>
    1808: 86 14        	stx	$14                     ; 0x2014 <__putchar+0x31>
    180a: aa           	tax
    180b: a5 14        	lda	$14                     ; 0x2014 <__putchar+0x31>
    180d: 29 01        	and	#$1
    180f: 85 16        	sta	$16                     ; 0x2016 <__putchar+0x33>
    1811: 8a           	txa
    1812: a6 12        	ldx	$12                     ; 0x2012 <__putchar+0x2f>
    1814: 48           	pha
    1815: 8a           	txa
    1816: a0 09        	ldy	#$9
    1818: 91 10        	sta	($10),y                 ; 0x2010 <__putchar+0x2d>
    181a: 68           	pla
    181b: a4 13        	ldy	$13                     ; 0x2013 <__putchar+0x30>
    181d: aa           	tax
    181e: e6 16        	inc	$16                     ; 0x2016 <__putchar+0x33>
    1820: c6 16        	dec	$16                     ; 0x2016 <__putchar+0x33>
    1822: f0 03        	beq	$1827 <f256main+0x10e3>
    1824: 4c 44 1b     	jmp	$1b44 <f256main+0x1400>
    1827: 3a           	dec
    1828: a2 c1        	ldx	#$c1
    182a: 8e a1 dd     	stx	$dda1                   ; 0xdda1 <end_block9+0xa69d>
    182d: 8d a1 dd     	sta	$dda1                   ; 0xdda1 <end_block9+0xa69d>
    1830: 48           	pha
    1831: a5 12        	lda	$12                     ; 0x2012 <__putchar+0x2f>
    1833: a0 09        	ldy	#$9
    1835: 91 10        	sta	($10),y                 ; 0x2010 <__putchar+0x2d>
    1837: 68           	pla
    1838: a4 13        	ldy	$13                     ; 0x2013 <__putchar+0x30>
    183a: aa           	tax
    183b: 4c 44 1b     	jmp	$1b44 <f256main+0x1400>
    183e: a2 20        	ldx	#$20
    1840: 8e 01 d2     	stx	$d201                   ; 0xd201 <end_block9+0x9afd>
    1843: a2 8f        	ldx	#$8f
    1845: 8e 02 d2     	stx	$d202                   ; 0xd202 <end_block9+0x9afe>
    1848: a2 03        	ldx	#$3
    184a: 8e 03 d2     	stx	$d203                   ; 0xd203 <end_block9+0x9aff>
    184d: a2 17        	ldx	#$17
    184f: 8e 04 d2     	stx	$d204                   ; 0xd204 <end_block9+0x9b00>
    1852: 9c 05 d2     	stz	$d205                   ; 0xd205 <end_block9+0x9b01>
    1855: a2 13        	ldx	#$13
    1857: 8e 06 d2     	stx	$d206                   ; 0xd206 <end_block9+0x9b02>
    185a: 9c 07 d2     	stz	$d207                   ; 0xd207 <end_block9+0x9b03>
    185d: 9c 08 d2     	stz	$d208                   ; 0xd208 <end_block9+0x9b04>
    1860: 9c 09 d2     	stz	$d209                   ; 0xd209 <end_block9+0x9b05>
    1863: 9c 0a d2     	stz	$d20a                   ; 0xd20a <end_block9+0x9b06>
    1866: 9c 0b d2     	stz	$d20b                   ; 0xd20b <end_block9+0x9b07>
    1869: a2 3c        	ldx	#$3c
    186b: 86 32        	stx	$32                     ; 0x2032 <__putchar+0x4f>
    186d: 8e 14 d0     	stx	$d014                   ; 0xd014 <end_block9+0x9910>
    1870: 9c 15 d0     	stz	$d015                   ; 0xd015 <end_block9+0x9911>
    1873: a2 02        	ldx	#$2
    1875: 86 33        	stx	$33                     ; 0x2033 <__putchar+0x50>
    1877: 8e 16 d0     	stx	$d016                   ; 0xd016 <end_block9+0x9912>
    187a: 9c 17 d0     	stz	$d017                   ; 0xd017 <end_block9+0x9913>
    187d: a2 22        	ldx	#$22
    187f: 86 12        	stx	$12                     ; 0x2012 <__putchar+0x2f>
    1881: a2 35        	ldx	#$35
    1883: 86 13        	stx	$13                     ; 0x2013 <__putchar+0x30>
    1885: 20 80 23     	jsr	$2380 <printf>
    1888: a2 01        	ldx	#$1
    188a: 86 8a        	stx	$8a                     ; 0x208a <__putchar+0xa7>
    188c: a2 21        	ldx	#$21
    188e: 86 32        	stx	$32                     ; 0x2032 <__putchar+0x4f>
    1890: 8e 14 d0     	stx	$d014                   ; 0xd014 <end_block9+0x9910>
    1893: 9c 15 d0     	stz	$d015                   ; 0xd015 <end_block9+0x9911>
    1896: a2 10        	ldx	#$10
    1898: 86 33        	stx	$33                     ; 0x2033 <__putchar+0x50>
    189a: 8e 16 d0     	stx	$d016                   ; 0xd016 <end_block9+0x9912>
    189d: 9c 17 d0     	stz	$d017                   ; 0xd017 <end_block9+0x9913>
    18a0: a2 69        	ldx	#$69
    18a2: 86 12        	stx	$12                     ; 0x2012 <__putchar+0x2f>
    18a4: a2 36        	ldx	#$36
    18a6: 86 13        	stx	$13                     ; 0x2013 <__putchar+0x30>
    18a8: 20 80 23     	jsr	$2380 <printf>
    18ab: a2 22        	ldx	#$22
    18ad: 86 32        	stx	$32                     ; 0x2032 <__putchar+0x4f>
    18af: 8e 14 d0     	stx	$d014                   ; 0xd014 <end_block9+0x9910>
    18b2: 9c 15 d0     	stz	$d015                   ; 0xd015 <end_block9+0x9911>
    18b5: a2 17        	ldx	#$17
    18b7: 86 33        	stx	$33                     ; 0x2033 <__putchar+0x50>
    18b9: 8e 16 d0     	stx	$d016                   ; 0xd016 <end_block9+0x9912>
    18bc: 9c 17 d0     	stz	$d017                   ; 0xd017 <end_block9+0x9913>
    18bf: a2 e6        	ldx	#$e6
    18c1: 86 12        	stx	$12                     ; 0x2012 <__putchar+0x2f>
    18c3: a2 34        	ldx	#$34
    18c5: 86 13        	stx	$13                     ; 0x2013 <__putchar+0x30>
    18c7: 20 80 23     	jsr	$2380 <printf>
    18ca: a5 2a        	lda	$2a                     ; 0x202a <__putchar+0x47>
    18cc: a0 09        	ldy	#$9
    18ce: 91 10        	sta	($10),y                 ; 0x2010 <__putchar+0x2d>
    18d0: a0 0b        	ldy	#$b
    18d2: b1 10        	lda	($10),y                 ; 0x2010 <__putchar+0x2d>
    18d4: a8           	tay
    18d5: 5a           	phy
    18d6: a0 08        	ldy	#$8
    18d8: b1 10        	lda	($10),y                 ; 0x2010 <__putchar+0x2d>
    18da: 7a           	ply
    18db: aa           	tax
    18dc: 4c 44 1b     	jmp	$1b44 <f256main+0x1400>
    18df: c0 49        	cpy	#$49
    18e1: d0 25        	bne	$1908 <f256main+0x11c4>
    18e3: a2 9f        	ldx	#$9f
    18e5: 8e 08 d6     	stx	$d608                   ; 0xd608 <end_block9+0x9f04>
    18e8: a2 49        	ldx	#$49
    18ea: 48           	pha
    18eb: 8a           	txa
    18ec: a0 0a        	ldy	#$a
    18ee: 91 10        	sta	($10),y                 ; 0x2010 <__putchar+0x2d>
    18f0: 64 12        	stz	$12                     ; 0x2012 <__putchar+0x2f>
    18f2: a9 00        	lda	#$0
    18f4: a0 02        	ldy	#$2
    18f6: 91 10        	sta	($10),y                 ; 0x2010 <__putchar+0x2d>
    18f8: a5 2a        	lda	$2a                     ; 0x202a <__putchar+0x47>
    18fa: a0 09        	ldy	#$9
    18fc: 91 10        	sta	($10),y                 ; 0x2010 <__putchar+0x2d>
    18fe: a0 0b        	ldy	#$b
    1900: b1 10        	lda	($10),y                 ; 0x2010 <__putchar+0x2d>
    1902: a8           	tay
    1903: 68           	pla
    1904: aa           	tax
    1905: 4c 44 1b     	jmp	$1b44 <f256main+0x1400>
    1908: a2 01        	ldx	#$1
    190a: 48           	pha
    190b: 8a           	txa
    190c: a0 09        	ldy	#$9
    190e: 91 10        	sta	($10),y                 ; 0x2010 <__putchar+0x2d>
    1910: a0 0b        	ldy	#$b
    1912: b1 10        	lda	($10),y                 ; 0x2010 <__putchar+0x2d>
    1914: a8           	tay
    1915: 68           	pla
    1916: aa           	tax
    1917: e6 2a        	inc	$2a                     ; 0x202a <__putchar+0x47>
    1919: c6 2a        	dec	$2a                     ; 0x202a <__putchar+0x47>
    191b: f0 03        	beq	$1920 <f256main+0x11dc>
    191d: 4c 44 1b     	jmp	$1b44 <f256main+0x1400>
    1920: 84 13        	sty	$13                     ; 0x2013 <__putchar+0x30>
    1922: 85 14        	sta	$14                     ; 0x2014 <__putchar+0x31>
    1924: 64 12        	stz	$12                     ; 0x2012 <__putchar+0x2f>
    1926: a9 00        	lda	#$0
    1928: a0 09        	ldy	#$9
    192a: 91 10        	sta	($10),y                 ; 0x2010 <__putchar+0x2d>
    192c: a8           	tay
    192d: a6 14        	ldx	$14                     ; 0x2014 <__putchar+0x31>
    192f: a5 13        	lda	$13                     ; 0x2013 <__putchar+0x30>
    1931: c9 01        	cmp	#$1
    1933: f0 03        	beq	$1938 <f256main+0x11f4>
    1935: 4c 44 1b     	jmp	$1b44 <f256main+0x1400>
    1938: a0 0a        	ldy	#$a
    193a: b1 10        	lda	($10),y                 ; 0x2010 <__putchar+0x2d>
    193c: aa           	tax
    193d: e8           	inx
    193e: 8a           	txa
    193f: 91 10        	sta	($10),y                 ; 0x2010 <__putchar+0x2d>
    1941: bd 94 32     	lda	$3294,x                 ; 0x3294 <songNotes>
    1944: 85 8f        	sta	$8f                     ; 0x208f <__putchar+0xac>
    1946: 64 90        	stz	$90                     ; 0x2090 <__putchar+0xad>
    1948: 0a           	asl
    1949: 85 12        	sta	$12                     ; 0x2012 <__putchar+0x2f>
    194b: a9 00        	lda	#$0
    194d: 2a           	rol
    194e: 85 13        	sta	$13                     ; 0x2013 <__putchar+0x30>
    1950: a9 f4        	lda	#$f4
    1952: 18           	clc
    1953: 65 12        	adc	$12                     ; 0x2012 <__putchar+0x2f>
    1955: 85 12        	sta	$12                     ; 0x2012 <__putchar+0x2f>
    1957: a9 31        	lda	#$31
    1959: 65 13        	adc	$13                     ; 0x2013 <__putchar+0x30>
    195b: 85 13        	sta	$13                     ; 0x2013 <__putchar+0x30>
    195d: b2 12        	lda	($12)                   ; 0x2012 <__putchar+0x2f>
    195f: 85 15        	sta	$15                     ; 0x2015 <__putchar+0x32>
    1961: a0 01        	ldy	#$1
    1963: b1 12        	lda	($12),y                 ; 0x2012 <__putchar+0x2f>
    1965: 85 12        	sta	$12                     ; 0x2012 <__putchar+0x2f>
    1967: 98           	tya
    1968: 05 47        	ora	$47                     ; 0x2047 <__putchar+0x64>
    196a: 8d 08 d9     	sta	$d908                   ; 0xd908 <end_block9+0xa204>
    196d: a6 15        	ldx	$15                     ; 0x2015 <__putchar+0x32>
    196f: 8e 0c d9     	stx	$d90c                   ; 0xd90c <end_block9+0xa208>
    1972: a6 12        	ldx	$12                     ; 0x2012 <__putchar+0x2f>
    1974: 8e 0d d9     	stx	$d90d                   ; 0xd90d <end_block9+0xa209>
    1977: a2 c0        	ldx	#$c0
    1979: 8e 0e d9     	stx	$d90e                   ; 0xd90e <end_block9+0xa20a>
    197c: 9c 0f d9     	stz	$d90f                   ; 0xd90f <end_block9+0xa20b>
    197f: a2 01        	ldx	#$1
    1981: 8a           	txa
    1982: a0 09        	ldy	#$9
    1984: 91 10        	sta	($10),y                 ; 0x2010 <__putchar+0x2d>
    1986: a0 01        	ldy	#$1
    1988: a6 14        	ldx	$14                     ; 0x2014 <__putchar+0x31>
    198a: 4c 44 1b     	jmp	$1b44 <f256main+0x1400>
    198d: a0 0c        	ldy	#$c
    198f: b1 10        	lda	($10),y                 ; 0x2010 <__putchar+0x2d>
    1991: 85 29        	sta	$29                     ; 0x2029 <__putchar+0x46>
    1993: 18           	clc
    1994: a5 24        	lda	$24                     ; 0x2024 <__putchar+0x41>
    1996: 65 2b        	adc	$2b                     ; 0x202b <__putchar+0x48>
    1998: 18           	clc
    1999: 7d 83 30     	adc	$3083,x                 ; 0x3083 <KeyCodesToMIDINotes>
    199c: a2 91        	ldx	#$91
    199e: 8e a1 dd     	stx	$dda1                   ; 0xdda1 <end_block9+0xa69d>
    19a1: 8d a1 dd     	sta	$dda1                   ; 0xdda1 <end_block9+0xa69d>
    19a4: a2 6f        	ldx	#$6f
    19a6: 8e a1 dd     	stx	$dda1                   ; 0xdda1 <end_block9+0xa69d>
    19a9: a6 95        	ldx	$95                     ; 0x2095 <__putchar+0xb2>
    19ab: bd 83 30     	lda	$3083,x                 ; 0x3083 <KeyCodesToMIDINotes>
    19ae: 0a           	asl
    19af: 85 12        	sta	$12                     ; 0x2012 <__putchar+0x2f>
    19b1: a9 00        	lda	#$0
    19b3: 2a           	rol
    19b4: 85 13        	sta	$13                     ; 0x2013 <__putchar+0x30>
    19b6: a9 f4        	lda	#$f4
    19b8: 18           	clc
    19b9: 65 12        	adc	$12                     ; 0x2012 <__putchar+0x2f>
    19bb: 85 12        	sta	$12                     ; 0x2012 <__putchar+0x2f>
    19bd: a9 31        	lda	#$31
    19bf: 65 13        	adc	$13                     ; 0x2013 <__putchar+0x30>
    19c1: 85 13        	sta	$13                     ; 0x2013 <__putchar+0x30>
    19c3: b2 12        	lda	($12)                   ; 0x2012 <__putchar+0x2f>
    19c5: 85 14        	sta	$14                     ; 0x2014 <__putchar+0x31>
    19c7: a0 01        	ldy	#$1
    19c9: b1 12        	lda	($12),y                 ; 0x2012 <__putchar+0x2f>
    19cb: 85 12        	sta	$12                     ; 0x2012 <__putchar+0x2f>
    19cd: 98           	tya
    19ce: 05 46        	ora	$46                     ; 0x2046 <__putchar+0x63>
    19d0: 8d 00 d9     	sta	$d900                   ; 0xd900 <end_block9+0xa1fc>
    19d3: a6 14        	ldx	$14                     ; 0x2014 <__putchar+0x31>
    19d5: 8e 04 d9     	stx	$d904                   ; 0xd904 <end_block9+0xa200>
    19d8: a6 12        	ldx	$12                     ; 0x2012 <__putchar+0x2f>
    19da: 8e 05 d9     	stx	$d905                   ; 0xd905 <end_block9+0xa201>
    19dd: a2 c0        	ldx	#$c0
    19df: 8e 06 d9     	stx	$d906                   ; 0xd906 <end_block9+0xa202>
    19e2: 9c 07 d9     	stz	$d907                   ; 0xd907 <end_block9+0xa203>
    19e5: a6 95        	ldx	$95                     ; 0x2095 <__putchar+0xb2>
    19e7: bd 83 30     	lda	$3083,x                 ; 0x3083 <KeyCodesToMIDINotes>
    19ea: 48           	pha
    19eb: a0 0a        	ldy	#$a
    19ed: b1 10        	lda	($10),y                 ; 0x2010 <__putchar+0x2d>
    19ef: aa           	tax
    19f0: 68           	pla
    19f1: dd 94 32     	cmp	$3294,x                 ; 0x3294 <songNotes>
    19f4: d0 23        	bne	$1a19 <f256main+0x12d5>
    19f6: a5 2a        	lda	$2a                     ; 0x202a <__putchar+0x47>
    19f8: a0 09        	ldy	#$9
    19fa: 91 10        	sta	($10),y                 ; 0x2010 <__putchar+0x2d>
    19fc: a0 00        	ldy	#$0
    19fe: 5a           	phy
    19ff: a0 08        	ldy	#$8
    1a01: b1 10        	lda	($10),y                 ; 0x2010 <__putchar+0x2d>
    1a03: 85 27        	sta	$27                     ; 0x2027 <__putchar+0x44>
    1a05: aa           	tax
    1a06: a0 0b        	ldy	#$b
    1a08: b1 10        	lda	($10),y                 ; 0x2010 <__putchar+0x2d>
    1a0a: 7a           	ply
    1a0b: c9 00        	cmp	#$0
    1a0d: d0 03        	bne	$1a12 <f256main+0x12ce>
    1a0f: 4c 44 1b     	jmp	$1b44 <f256main+0x1400>
    1a12: e6 88        	inc	$88                     ; 0x2088 <__putchar+0xa5>
    1a14: a2 01        	ldx	#$1
    1a16: 8a           	txa
    1a17: 80 38        	bra	$1a51 <f256main+0x130d>
    1a19: a6 2a        	ldx	$2a                     ; 0x202a <__putchar+0x47>
    1a1b: 8a           	txa
    1a1c: a0 09        	ldy	#$9
    1a1e: 91 10        	sta	($10),y                 ; 0x2010 <__putchar+0x2d>
    1a20: a0 00        	ldy	#$0
    1a22: 5a           	phy
    1a23: a0 08        	ldy	#$8
    1a25: b1 10        	lda	($10),y                 ; 0x2010 <__putchar+0x2d>
    1a27: 85 27        	sta	$27                     ; 0x2027 <__putchar+0x44>
    1a29: aa           	tax
    1a2a: a0 0b        	ldy	#$b
    1a2c: b1 10        	lda	($10),y                 ; 0x2010 <__putchar+0x2d>
    1a2e: 7a           	ply
    1a2f: c9 00        	cmp	#$0
    1a31: d0 03        	bne	$1a36 <f256main+0x12f2>
    1a33: 4c 44 1b     	jmp	$1b44 <f256main+0x1400>
    1a36: a5 88        	lda	$88                     ; 0x2088 <__putchar+0xa5>
    1a38: a6 2a        	ldx	$2a                     ; 0x202a <__putchar+0x47>
    1a3a: 48           	pha
    1a3b: 8a           	txa
    1a3c: a0 09        	ldy	#$9
    1a3e: 91 10        	sta	($10),y                 ; 0x2010 <__putchar+0x2d>
    1a40: 68           	pla
    1a41: a0 01        	ldy	#$1
    1a43: a6 27        	ldx	$27                     ; 0x2027 <__putchar+0x44>
    1a45: c9 00        	cmp	#$0
    1a47: d0 03        	bne	$1a4c <f256main+0x1308>
    1a49: 4c 44 1b     	jmp	$1b44 <f256main+0x1400>
    1a4c: 3a           	dec
    1a4d: 85 88        	sta	$88                     ; 0x2088 <__putchar+0xa5>
    1a4f: a5 2a        	lda	$2a                     ; 0x202a <__putchar+0x47>
    1a51: a0 09        	ldy	#$9
    1a53: 91 10        	sta	($10),y                 ; 0x2010 <__putchar+0x2d>
    1a55: a0 01        	ldy	#$1
    1a57: a6 27        	ldx	$27                     ; 0x2027 <__putchar+0x44>
    1a59: 4c 44 1b     	jmp	$1b44 <f256main+0x1400>
    1a5c: 48           	pha
    1a5d: 5a           	phy
    1a5e: a0 0c        	ldy	#$c
    1a60: b1 10        	lda	($10),y                 ; 0x2010 <__putchar+0x2d>
    1a62: 7a           	ply
    1a63: 85 29        	sta	$29                     ; 0x2029 <__putchar+0x46>
    1a65: 68           	pla
    1a66: 48           	pha
    1a67: 98           	tya
    1a68: 5a           	phy
    1a69: a0 09        	ldy	#$9
    1a6b: 91 10        	sta	($10),y                 ; 0x2010 <__putchar+0x2d>
    1a6d: 7a           	ply
    1a6e: 84 14        	sty	$14                     ; 0x2014 <__putchar+0x31>
    1a70: a0 0b        	ldy	#$b
    1a72: b1 10        	lda	($10),y                 ; 0x2010 <__putchar+0x2d>
    1a74: 85 15        	sta	$15                     ; 0x2015 <__putchar+0x32>
    1a76: a8           	tay
    1a77: 5a           	phy
    1a78: a0 08        	ldy	#$8
    1a7a: b1 10        	lda	($10),y                 ; 0x2010 <__putchar+0x2d>
    1a7c: 7a           	ply
    1a7d: 85 27        	sta	$27                     ; 0x2027 <__putchar+0x44>
    1a7f: 68           	pla
    1a80: a6 27        	ldx	$27                     ; 0x2027 <__putchar+0x44>
    1a82: c9 00        	cmp	#$0
    1a84: 10 03        	bpl	$1a89 <f256main+0x1345>
    1a86: 4c 44 1b     	jmp	$1b44 <f256main+0x1400>
    1a89: a5 8a        	lda	$8a                     ; 0x208a <__putchar+0xa7>
    1a8b: 29 01        	and	#$1
    1a8d: a6 14        	ldx	$14                     ; 0x2014 <__putchar+0x31>
    1a8f: 48           	pha
    1a90: 8a           	txa
    1a91: a0 09        	ldy	#$9
    1a93: 91 10        	sta	($10),y                 ; 0x2010 <__putchar+0x2d>
    1a95: 68           	pla
    1a96: a4 15        	ldy	$15                     ; 0x2015 <__putchar+0x32>
    1a98: a6 27        	ldx	$27                     ; 0x2027 <__putchar+0x44>
    1a9a: c9 00        	cmp	#$0
    1a9c: f0 03        	beq	$1aa1 <f256main+0x135d>
    1a9e: 4c 44 1b     	jmp	$1b44 <f256main+0x1400>
    1aa1: a0 04        	ldy	#$4
    1aa3: b1 10        	lda	($10),y                 ; 0x2010 <__putchar+0x2d>
    1aa5: aa           	tax
    1aa6: ca           	dex
    1aa7: 4c f5 1a     	jmp	$1af5 <f256main+0x13b1>
    1aaa: 48           	pha
    1aab: 5a           	phy
    1aac: a0 0c        	ldy	#$c
    1aae: b1 10        	lda	($10),y                 ; 0x2010 <__putchar+0x2d>
    1ab0: 7a           	ply
    1ab1: 85 29        	sta	$29                     ; 0x2029 <__putchar+0x46>
    1ab3: 68           	pla
    1ab4: 48           	pha
    1ab5: 98           	tya
    1ab6: 5a           	phy
    1ab7: a0 09        	ldy	#$9
    1ab9: 91 10        	sta	($10),y                 ; 0x2010 <__putchar+0x2d>
    1abb: 7a           	ply
    1abc: 84 14        	sty	$14                     ; 0x2014 <__putchar+0x31>
    1abe: a0 0b        	ldy	#$b
    1ac0: b1 10        	lda	($10),y                 ; 0x2010 <__putchar+0x2d>
    1ac2: 85 15        	sta	$15                     ; 0x2015 <__putchar+0x32>
    1ac4: a8           	tay
    1ac5: 5a           	phy
    1ac6: a0 08        	ldy	#$8
    1ac8: b1 10        	lda	($10),y                 ; 0x2010 <__putchar+0x2d>
    1aca: 7a           	ply
    1acb: 85 27        	sta	$27                     ; 0x2027 <__putchar+0x44>
    1acd: 68           	pla
    1ace: a6 27        	ldx	$27                     ; 0x2027 <__putchar+0x44>
    1ad0: c9 00        	cmp	#$0
    1ad2: 30 03        	bmi	$1ad7 <f256main+0x1393>
    1ad4: 4c 44 1b     	jmp	$1b44 <f256main+0x1400>
    1ad7: a5 8a        	lda	$8a                     ; 0x208a <__putchar+0xa7>
    1ad9: 29 01        	and	#$1
    1adb: a6 14        	ldx	$14                     ; 0x2014 <__putchar+0x31>
    1add: 48           	pha
    1ade: 8a           	txa
    1adf: a0 09        	ldy	#$9
    1ae1: 91 10        	sta	($10),y                 ; 0x2010 <__putchar+0x2d>
    1ae3: 68           	pla
    1ae4: a4 15        	ldy	$15                     ; 0x2015 <__putchar+0x32>
    1ae6: a6 27        	ldx	$27                     ; 0x2027 <__putchar+0x44>
    1ae8: c9 00        	cmp	#$0
    1aea: f0 03        	beq	$1aef <f256main+0x13ab>
    1aec: 4c 44 1b     	jmp	$1b44 <f256main+0x1400>
    1aef: a0 04        	ldy	#$4
    1af1: b1 10        	lda	($10),y                 ; 0x2010 <__putchar+0x2d>
    1af3: aa           	tax
    1af4: e8           	inx
    1af5: 8a           	txa
    1af6: 91 10        	sta	($10),y                 ; 0x2010 <__putchar+0x2d>
    1af8: a5 14        	lda	$14                     ; 0x2014 <__putchar+0x31>
    1afa: a0 09        	ldy	#$9
    1afc: 91 10        	sta	($10),y                 ; 0x2010 <__putchar+0x2d>
    1afe: a4 15        	ldy	$15                     ; 0x2015 <__putchar+0x32>
    1b00: a6 27        	ldx	$27                     ; 0x2027 <__putchar+0x44>
    1b02: 80 40        	bra	$1b44 <f256main+0x1400>
    1b04: 5a           	phy
    1b05: a0 0c        	ldy	#$c
    1b07: b1 10        	lda	($10),y                 ; 0x2010 <__putchar+0x2d>
    1b09: 7a           	ply
    1b0a: 85 29        	sta	$29                     ; 0x2029 <__putchar+0x46>
    1b0c: a2 7b        	ldx	#$7b
    1b0e: 8e a1 dd     	stx	$dda1                   ; 0xdda1 <end_block9+0xa69d>
    1b11: 9c a1 dd     	stz	$dda1                   ; 0xdda1 <end_block9+0xa69d>
    1b14: a2 ff        	ldx	#$ff
    1b16: 8e a1 dd     	stx	$dda1                   ; 0xdda1 <end_block9+0xa69d>
    1b19: a2 c0        	ldx	#$c0
    1b1b: 8e a1 dd     	stx	$dda1                   ; 0xdda1 <end_block9+0xa69d>
    1b1e: a2 13        	ldx	#$13
    1b20: 8e a1 dd     	stx	$dda1                   ; 0xdda1 <end_block9+0xa69d>
    1b23: 98           	tya
    1b24: a0 c1        	ldy	#$c1
    1b26: 8c a1 dd     	sty	$dda1                   ; 0xdda1 <end_block9+0xa69d>
    1b29: 8e a1 dd     	stx	$dda1                   ; 0xdda1 <end_block9+0xa69d>
    1b2c: a0 9f        	ldy	#$9f
    1b2e: 8c 08 d6     	sty	$d608                   ; 0xd608 <end_block9+0x9f04>
    1b31: a0 09        	ldy	#$9
    1b33: 91 10        	sta	($10),y                 ; 0x2010 <__putchar+0x2d>
    1b35: a0 0b        	ldy	#$b
    1b37: b1 10        	lda	($10),y                 ; 0x2010 <__putchar+0x2d>
    1b39: a8           	tay
    1b3a: 64 12        	stz	$12                     ; 0x2012 <__putchar+0x2f>
    1b3c: a9 00        	lda	#$0
    1b3e: 5a           	phy
    1b3f: a0 04        	ldy	#$4
    1b41: 91 10        	sta	($10),y                 ; 0x2010 <__putchar+0x2d>
    1b43: 7a           	ply
    1b44: 84 21        	sty	$21                     ; 0x2021 <__putchar+0x3e>
    1b46: a0 03        	ldy	#$3
    1b48: b1 10        	lda	($10),y                 ; 0x2010 <__putchar+0x2d>
    1b4a: 8a           	txa
    1b4b: a0 08        	ldy	#$8
    1b4d: 91 10        	sta	($10),y                 ; 0x2010 <__putchar+0x2d>
    1b4f: ad a0 dd     	lda	$dda0                   ; 0xdda0 <end_block9+0xa69c>
    1b52: 29 02        	and	#$2
    1b54: 48           	pha
    1b55: a0 04        	ldy	#$4
    1b57: b1 10        	lda	($10),y                 ; 0x2010 <__putchar+0x2d>
    1b59: a4 21        	ldy	$21                     ; 0x2021 <__putchar+0x3e>
    1b5b: 85 2b        	sta	$2b                     ; 0x202b <__putchar+0x48>
    1b5d: 68           	pla
    1b5e: 06 2b        	asl	$2b                     ; 0x202b <__putchar+0x48>
    1b60: a2 01        	ldx	#$1
    1b62: b0 02        	bcs	$1b66 <f256main+0x1422>
    1b64: a2 00        	ldx	#$0
    1b66: 86 15        	stx	$15                     ; 0x2015 <__putchar+0x32>
    1b68: 06 2b        	asl	$2b                     ; 0x202b <__putchar+0x48>
    1b6a: a2 01        	ldx	#$1
    1b6c: b0 02        	bcs	$1b70 <f256main+0x142c>
    1b6e: a2 00        	ldx	#$0
    1b70: 86 16        	stx	$16                     ; 0x2016 <__putchar+0x33>
    1b72: a6 2b        	ldx	$2b                     ; 0x202b <__putchar+0x48>
    1b74: 86 24        	stx	$24                     ; 0x2024 <__putchar+0x41>
    1b76: 06 24        	asl	$24                     ; 0x2024 <__putchar+0x41>
    1b78: a2 01        	ldx	#$1
    1b7a: b0 02        	bcs	$1b7e <f256main+0x143a>
    1b7c: a2 00        	ldx	#$0
    1b7e: 86 14        	stx	$14                     ; 0x2014 <__putchar+0x31>
    1b80: aa           	tax
    1b81: f0 03        	beq	$1b86 <f256main+0x1442>
    1b83: 4c 61 0b     	jmp	$b61 <f256main+0x41d>
    1b86: ae a2 dd     	ldx	$dda2                   ; 0xdda2 <end_block9+0xa69e>
    1b89: ad a3 dd     	lda	$dda3                   ; 0xdda3 <end_block9+0xa69f>
    1b8c: 29 0f        	and	#$f
    1b8e: d0 07        	bne	$1b97 <f256main+0x1453>
    1b90: e0 00        	cpx	#$0
    1b92: d0 03        	bne	$1b97 <f256main+0x1453>
    1b94: 4c 61 0b     	jmp	$b61 <f256main+0x41d>
    1b97: 85 25        	sta	$25                     ; 0x2025 <__putchar+0x42>
    1b99: 5a           	phy
    1b9a: a0 04        	ldy	#$4
    1b9c: b1 10        	lda	($10),y                 ; 0x2010 <__putchar+0x2d>
    1b9e: 7a           	ply
    1b9f: c9 00        	cmp	#$0
    1ba1: 30 03        	bmi	$1ba6 <f256main+0x1462>
    1ba3: 4c b0 0d     	jmp	$db0 <f256main+0x66c>
    1ba6: a9 ff        	lda	#$ff
    1ba8: 4c b2 0d     	jmp	$db2 <f256main+0x66e>

00001bab <bitmapLine>:
    1bab: 48           	pha
    1bac: 18           	clc
    1bad: a5 10        	lda	$10                     ; 0x2010 <__putchar+0x2d>
    1baf: 69 fe        	adc	#$fe
    1bb1: 85 10        	sta	$10                     ; 0x2010 <__putchar+0x2d>
    1bb3: a5 11        	lda	$11                     ; 0x2011 <__putchar+0x2e>
    1bb5: 69 ff        	adc	#$ff
    1bb7: 85 11        	sta	$11                     ; 0x2011 <__putchar+0x2e>
    1bb9: 68           	pla
    1bba: a4 24        	ldy	$24                     ; 0x2024 <__putchar+0x41>
    1bbc: 5a           	phy
    1bbd: a4 25        	ldy	$25                     ; 0x2025 <__putchar+0x42>
    1bbf: 5a           	phy
    1bc0: a4 26        	ldy	$26                     ; 0x2026 <__putchar+0x43>
    1bc2: 5a           	phy
    1bc3: a4 27        	ldy	$27                     ; 0x2027 <__putchar+0x44>
    1bc5: 5a           	phy
    1bc6: 48           	pha
    1bc7: a5 28        	lda	$28                     ; 0x2028 <__putchar+0x45>
    1bc9: a0 01        	ldy	#$1
    1bcb: 91 10        	sta	($10),y                 ; 0x2010 <__putchar+0x2d>
    1bcd: a5 29        	lda	$29                     ; 0x2029 <__putchar+0x46>
    1bcf: 88           	dey
    1bd0: 91 10        	sta	($10),y                 ; 0x2010 <__putchar+0x2d>
    1bd2: 68           	pla
    1bd3: 85 19        	sta	$19                     ; 0x2019 <__putchar+0x36>
    1bd5: 86 18        	stx	$18                     ; 0x2018 <__putchar+0x35>
    1bd7: a6 12        	ldx	$12                     ; 0x2012 <__putchar+0x2f>
    1bd9: 86 24        	stx	$24                     ; 0x2024 <__putchar+0x41>
    1bdb: a5 14        	lda	$14                     ; 0x2014 <__putchar+0x31>
    1bdd: a4 15        	ldy	$15                     ; 0x2015 <__putchar+0x32>
    1bdf: a6 0f        	ldx	$f                      ; 0x200f <__putchar+0x2c>
    1be1: 86 1e        	stx	$1e                     ; 0x201e <__putchar+0x3b>
    1be3: 78           	sei
    1be4: a6 18        	ldx	$18                     ; 0x2018 <__putchar+0x35>
    1be6: 86 22        	stx	$22                     ; 0x2022 <__putchar+0x3f>
    1be8: 84 27        	sty	$27                     ; 0x2027 <__putchar+0x44>
    1bea: 85 28        	sta	$28                     ; 0x2028 <__putchar+0x45>
    1bec: c4 18        	cpy	$18                     ; 0x2018 <__putchar+0x35>
    1bee: d0 1d        	bne	$1c0d <bitmapLine+0x62>
    1bf0: c5 19        	cmp	$19                     ; 0x2019 <__putchar+0x36>
    1bf2: b0 1d        	bcs	$1c11 <bitmapLine+0x66>
    1bf4: 38           	sec
    1bf5: a6 19        	ldx	$19                     ; 0x2019 <__putchar+0x36>
    1bf7: 86 1f        	stx	$1f                     ; 0x201f <__putchar+0x3c>
    1bf9: a5 19        	lda	$19                     ; 0x2019 <__putchar+0x36>
    1bfb: e5 28        	sbc	$28                     ; 0x2028 <__putchar+0x45>
    1bfd: 85 1b        	sta	$1b                     ; 0x201b <__putchar+0x38>
    1bff: a5 18        	lda	$18                     ; 0x2018 <__putchar+0x35>
    1c01: e5 27        	sbc	$27                     ; 0x2027 <__putchar+0x44>
    1c03: a2 ff        	ldx	#$ff
    1c05: 86 12        	stx	$12                     ; 0x2012 <__putchar+0x2f>
    1c07: 86 23        	stx	$23                     ; 0x2023 <__putchar+0x40>
    1c09: 85 1a        	sta	$1a                     ; 0x201a <__putchar+0x37>
    1c0b: 80 18        	bra	$1c25 <bitmapLine+0x7a>
    1c0d: c4 18        	cpy	$18                     ; 0x2018 <__putchar+0x35>
    1c0f: 90 e3        	bcc	$1bf4 <bitmapLine+0x49>
    1c11: 38           	sec
    1c12: a6 19        	ldx	$19                     ; 0x2019 <__putchar+0x36>
    1c14: 86 1f        	stx	$1f                     ; 0x201f <__putchar+0x3c>
    1c16: e5 19        	sbc	$19                     ; 0x2019 <__putchar+0x36>
    1c18: 85 1b        	sta	$1b                     ; 0x201b <__putchar+0x38>
    1c1a: 98           	tya
    1c1b: e5 22        	sbc	$22                     ; 0x2022 <__putchar+0x3f>
    1c1d: a2 01        	ldx	#$1
    1c1f: 86 12        	stx	$12                     ; 0x2012 <__putchar+0x2f>
    1c21: 85 1a        	sta	$1a                     ; 0x201a <__putchar+0x37>
    1c23: 64 23        	stz	$23                     ; 0x2023 <__putchar+0x40>
    1c25: a6 13        	ldx	$13                     ; 0x2013 <__putchar+0x30>
    1c27: 86 15        	stx	$15                     ; 0x2015 <__putchar+0x32>
    1c29: a6 17        	ldx	$17                     ; 0x2017 <__putchar+0x34>
    1c2b: e4 13        	cpx	$13                     ; 0x2013 <__putchar+0x30>
    1c2d: d0 25        	bne	$1c54 <bitmapLine+0xa9>
    1c2f: a4 24        	ldy	$24                     ; 0x2024 <__putchar+0x41>
    1c31: 84 14        	sty	$14                     ; 0x2014 <__putchar+0x31>
    1c33: a4 16        	ldy	$16                     ; 0x2016 <__putchar+0x33>
    1c35: c4 14        	cpy	$14                     ; 0x2014 <__putchar+0x31>
    1c37: b0 1f        	bcs	$1c58 <bitmapLine+0xad>
    1c39: 38           	sec
    1c3a: a4 16        	ldy	$16                     ; 0x2016 <__putchar+0x33>
    1c3c: 84 14        	sty	$14                     ; 0x2014 <__putchar+0x31>
    1c3e: a5 24        	lda	$24                     ; 0x2024 <__putchar+0x41>
    1c40: e5 14        	sbc	$14                     ; 0x2014 <__putchar+0x31>
    1c42: 85 1d        	sta	$1d                     ; 0x201d <__putchar+0x3a>
    1c44: 86 14        	stx	$14                     ; 0x2014 <__putchar+0x31>
    1c46: a5 13        	lda	$13                     ; 0x2013 <__putchar+0x30>
    1c48: e5 14        	sbc	$14                     ; 0x2014 <__putchar+0x31>
    1c4a: a2 ff        	ldx	#$ff
    1c4c: 86 14        	stx	$14                     ; 0x2014 <__putchar+0x31>
    1c4e: 86 15        	stx	$15                     ; 0x2015 <__putchar+0x32>
    1c50: 85 1c        	sta	$1c                     ; 0x201c <__putchar+0x39>
    1c52: 80 1a        	bra	$1c6e <bitmapLine+0xc3>
    1c54: e4 15        	cpx	$15                     ; 0x2015 <__putchar+0x32>
    1c56: 90 e1        	bcc	$1c39 <bitmapLine+0x8e>
    1c58: 38           	sec
    1c59: a4 24        	ldy	$24                     ; 0x2024 <__putchar+0x41>
    1c5b: 84 14        	sty	$14                     ; 0x2014 <__putchar+0x31>
    1c5d: a5 16        	lda	$16                     ; 0x2016 <__putchar+0x33>
    1c5f: e5 14        	sbc	$14                     ; 0x2014 <__putchar+0x31>
    1c61: 85 1d        	sta	$1d                     ; 0x201d <__putchar+0x3a>
    1c63: 8a           	txa
    1c64: e5 15        	sbc	$15                     ; 0x2015 <__putchar+0x32>
    1c66: a2 01        	ldx	#$1
    1c68: 86 14        	stx	$14                     ; 0x2014 <__putchar+0x31>
    1c6a: 85 1c        	sta	$1c                     ; 0x201c <__putchar+0x39>
    1c6c: 64 15        	stz	$15                     ; 0x2015 <__putchar+0x32>
    1c6e: a6 1b        	ldx	$1b                     ; 0x201b <__putchar+0x38>
    1c70: e4 1d        	cpx	$1d                     ; 0x201d <__putchar+0x3a>
    1c72: a5 1a        	lda	$1a                     ; 0x201a <__putchar+0x37>
    1c74: e5 1c        	sbc	$1c                     ; 0x201c <__putchar+0x39>
    1c76: 50 02        	bvc	$1c7a <bitmapLine+0xcf>
    1c78: 49 80        	eor	#$80
    1c7a: a6 1b        	ldx	$1b                     ; 0x201b <__putchar+0x38>
    1c7c: 86 25        	stx	$25                     ; 0x2025 <__putchar+0x42>
    1c7e: 06 25        	asl	$25                     ; 0x2025 <__putchar+0x42>
    1c80: a6 1a        	ldx	$1a                     ; 0x201a <__putchar+0x37>
    1c82: 86 26        	stx	$26                     ; 0x2026 <__putchar+0x43>
    1c84: 26 26        	rol	$26                     ; 0x2026 <__putchar+0x43>
    1c86: a6 1d        	ldx	$1d                     ; 0x201d <__putchar+0x3a>
    1c88: 86 18        	stx	$18                     ; 0x2018 <__putchar+0x35>
    1c8a: 06 18        	asl	$18                     ; 0x2018 <__putchar+0x35>
    1c8c: a6 1c        	ldx	$1c                     ; 0x201c <__putchar+0x39>
    1c8e: 86 19        	stx	$19                     ; 0x2019 <__putchar+0x36>
    1c90: 26 19        	rol	$19                     ; 0x2019 <__putchar+0x36>
    1c92: aa           	tax
    1c93: 10 1b        	bpl	$1cb0 <bitmapLine+0x105>
    1c95: a6 17        	ldx	$17                     ; 0x2017 <__putchar+0x34>
    1c97: 86 1a        	stx	$1a                     ; 0x201a <__putchar+0x37>
    1c99: a6 13        	ldx	$13                     ; 0x2013 <__putchar+0x30>
    1c9b: e4 1a        	cpx	$1a                     ; 0x201a <__putchar+0x37>
    1c9d: d0 36        	bne	$1cd5 <bitmapLine+0x12a>
    1c9f: a4 16        	ldy	$16                     ; 0x2016 <__putchar+0x33>
    1ca1: 84 1a        	sty	$1a                     ; 0x201a <__putchar+0x37>
    1ca3: a5 1f        	lda	$1f                     ; 0x201f <__putchar+0x3c>
    1ca5: a4 24        	ldy	$24                     ; 0x2024 <__putchar+0x41>
    1ca7: c4 1a        	cpy	$1a                     ; 0x201a <__putchar+0x37>
    1ca9: d0 2c        	bne	$1cd7 <bitmapLine+0x12c>
    1cab: 85 15        	sta	$15                     ; 0x2015 <__putchar+0x32>
    1cad: 4c 0e 1f     	jmp	$1f0e <bitmapLine+0x363>
    1cb0: a4 22        	ldy	$22                     ; 0x2022 <__putchar+0x3f>
    1cb2: c4 27        	cpy	$27                     ; 0x2027 <__putchar+0x44>
    1cb4: f0 03        	beq	$1cb9 <bitmapLine+0x10e>
    1cb6: 4c f0 1d     	jmp	$1df0 <bitmapLine+0x245>
    1cb9: a6 1f        	ldx	$1f                     ; 0x201f <__putchar+0x3c>
    1cbb: e4 28        	cpx	$28                     ; 0x2028 <__putchar+0x45>
    1cbd: f0 03        	beq	$1cc2 <bitmapLine+0x117>
    1cbf: 4c f2 1d     	jmp	$1df2 <bitmapLine+0x247>
    1cc2: a5 13        	lda	$13                     ; 0x2013 <__putchar+0x30>
    1cc4: a6 24        	ldx	$24                     ; 0x2024 <__putchar+0x41>
    1cc6: 86 16        	stx	$16                     ; 0x2016 <__putchar+0x33>
    1cc8: 85 17        	sta	$17                     ; 0x2017 <__putchar+0x34>
    1cca: a6 28        	ldx	$28                     ; 0x2028 <__putchar+0x45>
    1ccc: 86 15        	stx	$15                     ; 0x2015 <__putchar+0x32>
    1cce: a6 27        	ldx	$27                     ; 0x2027 <__putchar+0x44>
    1cd0: 86 22        	stx	$22                     ; 0x2022 <__putchar+0x3f>
    1cd2: 4c 0e 1f     	jmp	$1f0e <bitmapLine+0x363>
    1cd5: a5 1f        	lda	$1f                     ; 0x201f <__putchar+0x3c>
    1cd7: 85 28        	sta	$28                     ; 0x2028 <__putchar+0x45>
    1cd9: 38           	sec
    1cda: a5 25        	lda	$25                     ; 0x2025 <__putchar+0x42>
    1cdc: e5 1d        	sbc	$1d                     ; 0x201d <__putchar+0x3a>
    1cde: 85 1f        	sta	$1f                     ; 0x201f <__putchar+0x3c>
    1ce0: a5 26        	lda	$26                     ; 0x2026 <__putchar+0x43>
    1ce2: e5 1c        	sbc	$1c                     ; 0x201c <__putchar+0x39>
    1ce4: 85 27        	sta	$27                     ; 0x2027 <__putchar+0x44>
    1ce6: 86 13        	stx	$13                     ; 0x2013 <__putchar+0x30>
    1ce8: a6 28        	ldx	$28                     ; 0x2028 <__putchar+0x45>
    1cea: 86 1d        	stx	$1d                     ; 0x201d <__putchar+0x3a>
    1cec: a9 01        	lda	#$1
    1cee: 25 40        	and	$40                     ; 0x2040 <__putchar+0x5d>
    1cf0: 0a           	asl
    1cf1: 0a           	asl
    1cf2: aa           	tax
    1cf3: b4 34        	ldy	$34,x                   ; 0x2034 <__putchar+0x51>
    1cf5: 84 1a        	sty	$1a                     ; 0x201a <__putchar+0x37>
    1cf7: b4 35        	ldy	$35,x                   ; 0x2035 <__putchar+0x52>
    1cf9: 84 1b        	sty	$1b                     ; 0x201b <__putchar+0x38>
    1cfb: b5 36        	lda	$36,x                   ; 0x2036 <__putchar+0x53>
    1cfd: aa           	tax
    1cfe: 86 1c        	stx	$1c                     ; 0x201c <__putchar+0x39>
    1d00: a5 42        	lda	$42                     ; 0x2042 <__putchar+0x5f>
    1d02: 29 01        	and	#$1
    1d04: a2 40        	ldx	#$40
    1d06: a0 01        	ldy	#$1
    1d08: c9 00        	cmp	#$0
    1d0a: d0 04        	bne	$1d10 <bitmapLine+0x165>
    1d0c: a2 00        	ldx	#$0
    1d0e: a0 00        	ldy	#$0
    1d10: a5 24        	lda	$24                     ; 0x2024 <__putchar+0x41>
    1d12: 8d 00 de     	sta	$de00                   ; 0xde00 <end_block9+0xa6fc>
    1d15: a5 13        	lda	$13                     ; 0x2013 <__putchar+0x30>
    1d17: 8d 01 de     	sta	$de01                   ; 0xde01 <end_block9+0xa6fd>
    1d1a: 8e 02 de     	stx	$de02                   ; 0xde02 <end_block9+0xa6fe>
    1d1d: 8c 03 de     	sty	$de03                   ; 0xde03 <end_block9+0xa6ff>
    1d20: ae 10 de     	ldx	$de10                   ; 0xde10 <end_block9+0xa70c>
    1d23: 86 29        	stx	$29                     ; 0x2029 <__putchar+0x46>
    1d25: ac 11 de     	ldy	$de11                   ; 0xde11 <end_block9+0xa70d>
    1d28: ad 12 de     	lda	$de12                   ; 0xde12 <end_block9+0xa70e>
    1d2b: ae 13 de     	ldx	$de13                   ; 0xde13 <end_block9+0xa70f>
    1d2e: 86 28        	stx	$28                     ; 0x2028 <__putchar+0x45>
    1d30: a6 29        	ldx	$29                     ; 0x2029 <__putchar+0x46>
    1d32: 8e 08 de     	stx	$de08                   ; 0xde08 <end_block9+0xa704>
    1d35: 8c 09 de     	sty	$de09                   ; 0xde09 <end_block9+0xa705>
    1d38: 8d 0a de     	sta	$de0a                   ; 0xde0a <end_block9+0xa706>
    1d3b: a6 28        	ldx	$28                     ; 0x2028 <__putchar+0x45>
    1d3d: 8e 0b de     	stx	$de0b                   ; 0xde0b <end_block9+0xa707>
    1d40: a6 1d        	ldx	$1d                     ; 0x201d <__putchar+0x3a>
    1d42: 8e 0c de     	stx	$de0c                   ; 0xde0c <end_block9+0xa708>
    1d45: a6 22        	ldx	$22                     ; 0x2022 <__putchar+0x3f>
    1d47: 8e 0d de     	stx	$de0d                   ; 0xde0d <end_block9+0xa709>
    1d4a: 9c 0e de     	stz	$de0e                   ; 0xde0e <end_block9+0xa70a>
    1d4d: 9c 0f de     	stz	$de0f                   ; 0xde0f <end_block9+0xa70b>
    1d50: ad 18 de     	lda	$de18                   ; 0xde18 <end_block9+0xa714>
    1d53: ac 19 de     	ldy	$de19                   ; 0xde19 <end_block9+0xa715>
    1d56: ae 1a de     	ldx	$de1a                   ; 0xde1a <end_block9+0xa716>
    1d59: 86 28        	stx	$28                     ; 0x2028 <__putchar+0x45>
    1d5b: ae 1b de     	ldx	$de1b                   ; 0xde1b <end_block9+0xa717>
    1d5e: 18           	clc
    1d5f: 65 1a        	adc	$1a                     ; 0x201a <__putchar+0x37>
    1d61: aa           	tax
    1d62: 98           	tya
    1d63: 65 1b        	adc	$1b                     ; 0x201b <__putchar+0x38>
    1d65: a8           	tay
    1d66: a5 28        	lda	$28                     ; 0x2028 <__putchar+0x45>
    1d68: 65 1c        	adc	$1c                     ; 0x201c <__putchar+0x39>
    1d6a: 84 1b        	sty	$1b                     ; 0x201b <__putchar+0x38>
    1d6c: 84 1a        	sty	$1a                     ; 0x201a <__putchar+0x37>
    1d6e: 06 1a        	asl	$1a                     ; 0x201a <__putchar+0x37>
    1d70: 2a           	rol
    1d71: 06 1a        	asl	$1a                     ; 0x201a <__putchar+0x37>
    1d73: 2a           	rol
    1d74: 06 1a        	asl	$1a                     ; 0x201a <__putchar+0x37>
    1d76: 2a           	rol
    1d77: 85 0f        	sta	$f                      ; 0x200f <__putchar+0x2c>
    1d79: a5 41        	lda	$41                     ; 0x2041 <__putchar+0x5e>
    1d7b: 4a           	lsr
    1d7c: a9 00        	lda	#$0
    1d7e: 6a           	ror
    1d7f: 10 04        	bpl	$1d85 <bitmapLine+0x1da>
    1d81: a0 ff        	ldy	#$ff
    1d83: 80 02        	bra	$1d87 <bitmapLine+0x1dc>
    1d85: a0 00        	ldy	#$0
    1d87: 0a           	asl
    1d88: 98           	tya
    1d89: 2a           	rol
    1d8a: a8           	tay
    1d8b: a5 1b        	lda	$1b                     ; 0x201b <__putchar+0x38>
    1d8d: 09 e0        	ora	#$e0
    1d8f: 86 1a        	stx	$1a                     ; 0x201a <__putchar+0x37>
    1d91: 85 1b        	sta	$1b                     ; 0x201b <__putchar+0x38>
    1d93: 98           	tya
    1d94: 92 1a        	sta	($1a)                   ; 0x201a <__putchar+0x37>
    1d96: a6 27        	ldx	$27                     ; 0x2027 <__putchar+0x44>
    1d98: 30 1a        	bmi	$1db4 <bitmapLine+0x209>
    1d9a: a5 1d        	lda	$1d                     ; 0x201d <__putchar+0x3a>
    1d9c: 18           	clc
    1d9d: 65 12        	adc	$12                     ; 0x2012 <__putchar+0x2f>
    1d9f: 85 28        	sta	$28                     ; 0x2028 <__putchar+0x45>
    1da1: a5 22        	lda	$22                     ; 0x2022 <__putchar+0x3f>
    1da3: 65 23        	adc	$23                     ; 0x2023 <__putchar+0x40>
    1da5: 85 22        	sta	$22                     ; 0x2022 <__putchar+0x3f>
    1da7: 38           	sec
    1da8: a5 1f        	lda	$1f                     ; 0x201f <__putchar+0x3c>
    1daa: e5 18        	sbc	$18                     ; 0x2018 <__putchar+0x35>
    1dac: a8           	tay
    1dad: 8a           	txa
    1dae: e5 19        	sbc	$19                     ; 0x2019 <__putchar+0x36>
    1db0: aa           	tax
    1db1: 98           	tya
    1db2: 80 06        	bra	$1dba <bitmapLine+0x20f>
    1db4: a4 1d        	ldy	$1d                     ; 0x201d <__putchar+0x3a>
    1db6: 84 28        	sty	$28                     ; 0x2028 <__putchar+0x45>
    1db8: a5 1f        	lda	$1f                     ; 0x201f <__putchar+0x3c>
    1dba: 18           	clc
    1dbb: 65 25        	adc	$25                     ; 0x2025 <__putchar+0x42>
    1dbd: 85 1f        	sta	$1f                     ; 0x201f <__putchar+0x3c>
    1dbf: 8a           	txa
    1dc0: 65 26        	adc	$26                     ; 0x2026 <__putchar+0x43>
    1dc2: 85 27        	sta	$27                     ; 0x2027 <__putchar+0x44>
    1dc4: a5 24        	lda	$24                     ; 0x2024 <__putchar+0x41>
    1dc6: 18           	clc
    1dc7: 65 14        	adc	$14                     ; 0x2014 <__putchar+0x31>
    1dc9: 85 1a        	sta	$1a                     ; 0x201a <__putchar+0x37>
    1dcb: a5 13        	lda	$13                     ; 0x2013 <__putchar+0x30>
    1dcd: 65 15        	adc	$15                     ; 0x2015 <__putchar+0x32>
    1dcf: 85 1b        	sta	$1b                     ; 0x201b <__putchar+0x38>
    1dd1: a6 1a        	ldx	$1a                     ; 0x201a <__putchar+0x37>
    1dd3: 86 24        	stx	$24                     ; 0x2024 <__putchar+0x41>
    1dd5: aa           	tax
    1dd6: a4 17        	ldy	$17                     ; 0x2017 <__putchar+0x34>
    1dd8: c4 1b        	cpy	$1b                     ; 0x201b <__putchar+0x38>
    1dda: f0 03        	beq	$1ddf <bitmapLine+0x234>
    1ddc: 4c e6 1c     	jmp	$1ce6 <bitmapLine+0x13b>
    1ddf: a6 1a        	ldx	$1a                     ; 0x201a <__putchar+0x37>
    1de1: 86 24        	stx	$24                     ; 0x2024 <__putchar+0x41>
    1de3: aa           	tax
    1de4: a4 16        	ldy	$16                     ; 0x2016 <__putchar+0x33>
    1de6: c4 1a        	cpy	$1a                     ; 0x201a <__putchar+0x37>
    1de8: f0 03        	beq	$1ded <bitmapLine+0x242>
    1dea: 4c e6 1c     	jmp	$1ce6 <bitmapLine+0x13b>
    1ded: 4c 0a 1f     	jmp	$1f0a <bitmapLine+0x35f>
    1df0: a6 1f        	ldx	$1f                     ; 0x201f <__putchar+0x3c>
    1df2: 38           	sec
    1df3: a5 18        	lda	$18                     ; 0x2018 <__putchar+0x35>
    1df5: e5 1b        	sbc	$1b                     ; 0x201b <__putchar+0x38>
    1df7: 85 16        	sta	$16                     ; 0x2016 <__putchar+0x33>
    1df9: a5 19        	lda	$19                     ; 0x2019 <__putchar+0x36>
    1dfb: e5 1a        	sbc	$1a                     ; 0x201a <__putchar+0x37>
    1dfd: 85 17        	sta	$17                     ; 0x2017 <__putchar+0x34>
    1dff: 84 1f        	sty	$1f                     ; 0x201f <__putchar+0x3c>
    1e01: 86 1d        	stx	$1d                     ; 0x201d <__putchar+0x3a>
    1e03: a9 01        	lda	#$1
    1e05: 25 40        	and	$40                     ; 0x2040 <__putchar+0x5d>
    1e07: 0a           	asl
    1e08: 0a           	asl
    1e09: aa           	tax
    1e0a: b4 34        	ldy	$34,x                   ; 0x2034 <__putchar+0x51>
    1e0c: 84 1a        	sty	$1a                     ; 0x201a <__putchar+0x37>
    1e0e: b4 35        	ldy	$35,x                   ; 0x2035 <__putchar+0x52>
    1e10: 84 1b        	sty	$1b                     ; 0x201b <__putchar+0x38>
    1e12: b5 36        	lda	$36,x                   ; 0x2036 <__putchar+0x53>
    1e14: aa           	tax
    1e15: 86 1c        	stx	$1c                     ; 0x201c <__putchar+0x39>
    1e17: a5 42        	lda	$42                     ; 0x2042 <__putchar+0x5f>
    1e19: 29 01        	and	#$1
    1e1b: a2 40        	ldx	#$40
    1e1d: a0 01        	ldy	#$1
    1e1f: c9 00        	cmp	#$0
    1e21: d0 04        	bne	$1e27 <bitmapLine+0x27c>
    1e23: a2 00        	ldx	#$0
    1e25: a0 00        	ldy	#$0
    1e27: a5 24        	lda	$24                     ; 0x2024 <__putchar+0x41>
    1e29: 8d 00 de     	sta	$de00                   ; 0xde00 <end_block9+0xa6fc>
    1e2c: a5 13        	lda	$13                     ; 0x2013 <__putchar+0x30>
    1e2e: 8d 01 de     	sta	$de01                   ; 0xde01 <end_block9+0xa6fd>
    1e31: 8e 02 de     	stx	$de02                   ; 0xde02 <end_block9+0xa6fe>
    1e34: 8c 03 de     	sty	$de03                   ; 0xde03 <end_block9+0xa6ff>
    1e37: ae 10 de     	ldx	$de10                   ; 0xde10 <end_block9+0xa70c>
    1e3a: 86 29        	stx	$29                     ; 0x2029 <__putchar+0x46>
    1e3c: ac 11 de     	ldy	$de11                   ; 0xde11 <end_block9+0xa70d>
    1e3f: ad 12 de     	lda	$de12                   ; 0xde12 <end_block9+0xa70e>
    1e42: ae 13 de     	ldx	$de13                   ; 0xde13 <end_block9+0xa70f>
    1e45: 86 22        	stx	$22                     ; 0x2022 <__putchar+0x3f>
    1e47: a6 29        	ldx	$29                     ; 0x2029 <__putchar+0x46>
    1e49: 8e 08 de     	stx	$de08                   ; 0xde08 <end_block9+0xa704>
    1e4c: 8c 09 de     	sty	$de09                   ; 0xde09 <end_block9+0xa705>
    1e4f: 8d 0a de     	sta	$de0a                   ; 0xde0a <end_block9+0xa706>
    1e52: a6 22        	ldx	$22                     ; 0x2022 <__putchar+0x3f>
    1e54: 8e 0b de     	stx	$de0b                   ; 0xde0b <end_block9+0xa707>
    1e57: a6 1d        	ldx	$1d                     ; 0x201d <__putchar+0x3a>
    1e59: 8e 0c de     	stx	$de0c                   ; 0xde0c <end_block9+0xa708>
    1e5c: a6 1f        	ldx	$1f                     ; 0x201f <__putchar+0x3c>
    1e5e: 8e 0d de     	stx	$de0d                   ; 0xde0d <end_block9+0xa709>
    1e61: 9c 0e de     	stz	$de0e                   ; 0xde0e <end_block9+0xa70a>
    1e64: 9c 0f de     	stz	$de0f                   ; 0xde0f <end_block9+0xa70b>
    1e67: ad 18 de     	lda	$de18                   ; 0xde18 <end_block9+0xa714>
    1e6a: ae 19 de     	ldx	$de19                   ; 0xde19 <end_block9+0xa715>
    1e6d: 86 22        	stx	$22                     ; 0x2022 <__putchar+0x3f>
    1e6f: ae 1a de     	ldx	$de1a                   ; 0xde1a <end_block9+0xa716>
    1e72: 86 29        	stx	$29                     ; 0x2029 <__putchar+0x46>
    1e74: ae 1b de     	ldx	$de1b                   ; 0xde1b <end_block9+0xa717>
    1e77: 18           	clc
    1e78: 65 1a        	adc	$1a                     ; 0x201a <__putchar+0x37>
    1e7a: aa           	tax
    1e7b: a5 22        	lda	$22                     ; 0x2022 <__putchar+0x3f>
    1e7d: 65 1b        	adc	$1b                     ; 0x201b <__putchar+0x38>
    1e7f: a8           	tay
    1e80: a5 29        	lda	$29                     ; 0x2029 <__putchar+0x46>
    1e82: 65 1c        	adc	$1c                     ; 0x201c <__putchar+0x39>
    1e84: 84 1b        	sty	$1b                     ; 0x201b <__putchar+0x38>
    1e86: 84 1a        	sty	$1a                     ; 0x201a <__putchar+0x37>
    1e88: 06 1a        	asl	$1a                     ; 0x201a <__putchar+0x37>
    1e8a: 2a           	rol
    1e8b: 06 1a        	asl	$1a                     ; 0x201a <__putchar+0x37>
    1e8d: 2a           	rol
    1e8e: 06 1a        	asl	$1a                     ; 0x201a <__putchar+0x37>
    1e90: 2a           	rol
    1e91: 85 0f        	sta	$f                      ; 0x200f <__putchar+0x2c>
    1e93: a5 41        	lda	$41                     ; 0x2041 <__putchar+0x5e>
    1e95: 4a           	lsr
    1e96: a9 00        	lda	#$0
    1e98: 6a           	ror
    1e99: 10 04        	bpl	$1e9f <bitmapLine+0x2f4>
    1e9b: a0 ff        	ldy	#$ff
    1e9d: 80 02        	bra	$1ea1 <bitmapLine+0x2f6>
    1e9f: a0 00        	ldy	#$0
    1ea1: 0a           	asl
    1ea2: 98           	tya
    1ea3: 2a           	rol
    1ea4: a8           	tay
    1ea5: a5 1b        	lda	$1b                     ; 0x201b <__putchar+0x38>
    1ea7: 09 e0        	ora	#$e0
    1ea9: 86 1a        	stx	$1a                     ; 0x201a <__putchar+0x37>
    1eab: 85 1b        	sta	$1b                     ; 0x201b <__putchar+0x38>
    1ead: 98           	tya
    1eae: 92 1a        	sta	($1a)                   ; 0x201a <__putchar+0x37>
    1eb0: a6 17        	ldx	$17                     ; 0x2017 <__putchar+0x34>
    1eb2: 30 1a        	bmi	$1ece <bitmapLine+0x323>
    1eb4: a5 24        	lda	$24                     ; 0x2024 <__putchar+0x41>
    1eb6: 18           	clc
    1eb7: 65 14        	adc	$14                     ; 0x2014 <__putchar+0x31>
    1eb9: 85 24        	sta	$24                     ; 0x2024 <__putchar+0x41>
    1ebb: a5 13        	lda	$13                     ; 0x2013 <__putchar+0x30>
    1ebd: 65 15        	adc	$15                     ; 0x2015 <__putchar+0x32>
    1ebf: 85 13        	sta	$13                     ; 0x2013 <__putchar+0x30>
    1ec1: 38           	sec
    1ec2: a5 16        	lda	$16                     ; 0x2016 <__putchar+0x33>
    1ec4: e5 25        	sbc	$25                     ; 0x2025 <__putchar+0x42>
    1ec6: a8           	tay
    1ec7: 8a           	txa
    1ec8: e5 26        	sbc	$26                     ; 0x2026 <__putchar+0x43>
    1eca: aa           	tax
    1ecb: 98           	tya
    1ecc: 80 02        	bra	$1ed0 <bitmapLine+0x325>
    1ece: a5 16        	lda	$16                     ; 0x2016 <__putchar+0x33>
    1ed0: 18           	clc
    1ed1: 65 18        	adc	$18                     ; 0x2018 <__putchar+0x35>
    1ed3: 85 16        	sta	$16                     ; 0x2016 <__putchar+0x33>
    1ed5: 8a           	txa
    1ed6: 65 19        	adc	$19                     ; 0x2019 <__putchar+0x36>
    1ed8: 85 17        	sta	$17                     ; 0x2017 <__putchar+0x34>
    1eda: a5 1d        	lda	$1d                     ; 0x201d <__putchar+0x3a>
    1edc: 18           	clc
    1edd: 65 12        	adc	$12                     ; 0x2012 <__putchar+0x2f>
    1edf: 85 1a        	sta	$1a                     ; 0x201a <__putchar+0x37>
    1ee1: a5 1f        	lda	$1f                     ; 0x201f <__putchar+0x3c>
    1ee3: 65 23        	adc	$23                     ; 0x2023 <__putchar+0x40>
    1ee5: 85 1b        	sta	$1b                     ; 0x201b <__putchar+0x38>
    1ee7: a6 1a        	ldx	$1a                     ; 0x201a <__putchar+0x37>
    1ee9: a8           	tay
    1eea: a5 27        	lda	$27                     ; 0x2027 <__putchar+0x44>
    1eec: c5 1b        	cmp	$1b                     ; 0x201b <__putchar+0x38>
    1eee: f0 03        	beq	$1ef3 <bitmapLine+0x348>
    1ef0: 4c ff 1d     	jmp	$1dff <bitmapLine+0x254>
    1ef3: 85 22        	sta	$22                     ; 0x2022 <__putchar+0x3f>
    1ef5: a6 1a        	ldx	$1a                     ; 0x201a <__putchar+0x37>
    1ef7: a4 1b        	ldy	$1b                     ; 0x201b <__putchar+0x38>
    1ef9: a5 28        	lda	$28                     ; 0x2028 <__putchar+0x45>
    1efb: c5 1a        	cmp	$1a                     ; 0x201a <__putchar+0x37>
    1efd: f0 03        	beq	$1f02 <bitmapLine+0x357>
    1eff: 4c ff 1d     	jmp	$1dff <bitmapLine+0x254>
    1f02: a6 24        	ldx	$24                     ; 0x2024 <__putchar+0x41>
    1f04: 86 16        	stx	$16                     ; 0x2016 <__putchar+0x33>
    1f06: a6 13        	ldx	$13                     ; 0x2013 <__putchar+0x30>
    1f08: 86 17        	stx	$17                     ; 0x2017 <__putchar+0x34>
    1f0a: a6 28        	ldx	$28                     ; 0x2028 <__putchar+0x45>
    1f0c: 86 15        	stx	$15                     ; 0x2015 <__putchar+0x32>
    1f0e: a2 01        	ldx	#$1
    1f10: 8a           	txa
    1f11: 25 40        	and	$40                     ; 0x2040 <__putchar+0x5d>
    1f13: 0a           	asl
    1f14: 0a           	asl
    1f15: a8           	tay
    1f16: b9 34 00     	lda	$34,y                   ; 0x34 <_BITMAP_BASE>
    1f19: 85 12        	sta	$12                     ; 0x2012 <__putchar+0x2f>
    1f1b: b9 35 00     	lda	$35,y                   ; 0x35 <_BITMAP_BASE+0x1>
    1f1e: 85 13        	sta	$13                     ; 0x2013 <__putchar+0x30>
    1f20: b9 36 00     	lda	$36,y                   ; 0x36 <_BITMAP_BASE+0x2>
    1f23: a8           	tay
    1f24: 84 14        	sty	$14                     ; 0x2014 <__putchar+0x31>
    1f26: a5 42        	lda	$42                     ; 0x2042 <__putchar+0x5f>
    1f28: 29 01        	and	#$1
    1f2a: a0 40        	ldy	#$40
    1f2c: c9 00        	cmp	#$0
    1f2e: d0 04        	bne	$1f34 <bitmapLine+0x389>
    1f30: a0 00        	ldy	#$0
    1f32: a2 00        	ldx	#$0
    1f34: a5 16        	lda	$16                     ; 0x2016 <__putchar+0x33>
    1f36: 8d 00 de     	sta	$de00                   ; 0xde00 <end_block9+0xa6fc>
    1f39: a5 17        	lda	$17                     ; 0x2017 <__putchar+0x34>
    1f3b: 8d 01 de     	sta	$de01                   ; 0xde01 <end_block9+0xa6fd>
    1f3e: 8c 02 de     	sty	$de02                   ; 0xde02 <end_block9+0xa6fe>
    1f41: 8e 03 de     	stx	$de03                   ; 0xde03 <end_block9+0xa6ff>
    1f44: ae 10 de     	ldx	$de10                   ; 0xde10 <end_block9+0xa70c>
    1f47: ac 11 de     	ldy	$de11                   ; 0xde11 <end_block9+0xa70d>
    1f4a: 84 17        	sty	$17                     ; 0x2017 <__putchar+0x34>
    1f4c: ad 12 de     	lda	$de12                   ; 0xde12 <end_block9+0xa70e>
    1f4f: ac 13 de     	ldy	$de13                   ; 0xde13 <end_block9+0xa70f>
    1f52: 8e 08 de     	stx	$de08                   ; 0xde08 <end_block9+0xa704>
    1f55: a6 17        	ldx	$17                     ; 0x2017 <__putchar+0x34>
    1f57: 8e 09 de     	stx	$de09                   ; 0xde09 <end_block9+0xa705>
    1f5a: 8d 0a de     	sta	$de0a                   ; 0xde0a <end_block9+0xa706>
    1f5d: 8c 0b de     	sty	$de0b                   ; 0xde0b <end_block9+0xa707>
    1f60: a6 15        	ldx	$15                     ; 0x2015 <__putchar+0x32>
    1f62: 8e 0c de     	stx	$de0c                   ; 0xde0c <end_block9+0xa708>
    1f65: a6 22        	ldx	$22                     ; 0x2022 <__putchar+0x3f>
    1f67: 8e 0d de     	stx	$de0d                   ; 0xde0d <end_block9+0xa709>
    1f6a: 9c 0e de     	stz	$de0e                   ; 0xde0e <end_block9+0xa70a>
    1f6d: 9c 0f de     	stz	$de0f                   ; 0xde0f <end_block9+0xa70b>
    1f70: ad 18 de     	lda	$de18                   ; 0xde18 <end_block9+0xa714>
    1f73: ae 19 de     	ldx	$de19                   ; 0xde19 <end_block9+0xa715>
    1f76: 86 15        	stx	$15                     ; 0x2015 <__putchar+0x32>
    1f78: ae 1a de     	ldx	$de1a                   ; 0xde1a <end_block9+0xa716>
    1f7b: 86 16        	stx	$16                     ; 0x2016 <__putchar+0x33>
    1f7d: ae 1b de     	ldx	$de1b                   ; 0xde1b <end_block9+0xa717>
    1f80: 18           	clc
    1f81: 65 12        	adc	$12                     ; 0x2012 <__putchar+0x2f>
    1f83: aa           	tax
    1f84: a5 15        	lda	$15                     ; 0x2015 <__putchar+0x32>
    1f86: 65 13        	adc	$13                     ; 0x2013 <__putchar+0x30>
    1f88: a8           	tay
    1f89: a5 16        	lda	$16                     ; 0x2016 <__putchar+0x33>
    1f8b: 65 14        	adc	$14                     ; 0x2014 <__putchar+0x31>
    1f8d: 84 13        	sty	$13                     ; 0x2013 <__putchar+0x30>
    1f8f: 84 12        	sty	$12                     ; 0x2012 <__putchar+0x2f>
    1f91: 06 12        	asl	$12                     ; 0x2012 <__putchar+0x2f>
    1f93: 2a           	rol
    1f94: 06 12        	asl	$12                     ; 0x2012 <__putchar+0x2f>
    1f96: 2a           	rol
    1f97: 06 12        	asl	$12                     ; 0x2012 <__putchar+0x2f>
    1f99: 2a           	rol
    1f9a: 85 0f        	sta	$f                      ; 0x200f <__putchar+0x2c>
    1f9c: a5 41        	lda	$41                     ; 0x2041 <__putchar+0x5e>
    1f9e: 4a           	lsr
    1f9f: a9 00        	lda	#$0
    1fa1: 6a           	ror
    1fa2: 10 04        	bpl	$1fa8 <bitmapLine+0x3fd>
    1fa4: a0 ff        	ldy	#$ff
    1fa6: 80 02        	bra	$1faa <bitmapLine+0x3ff>
    1fa8: a0 00        	ldy	#$0
    1faa: 0a           	asl
    1fab: 98           	tya
    1fac: 2a           	rol
    1fad: a8           	tay
    1fae: a5 13        	lda	$13                     ; 0x2013 <__putchar+0x30>
    1fb0: 09 e0        	ora	#$e0
    1fb2: 86 12        	stx	$12                     ; 0x2012 <__putchar+0x2f>
    1fb4: 85 13        	sta	$13                     ; 0x2013 <__putchar+0x30>
    1fb6: 98           	tya
    1fb7: 92 12        	sta	($12)                   ; 0x2012 <__putchar+0x2f>
    1fb9: a6 1e        	ldx	$1e                     ; 0x201e <__putchar+0x3b>
    1fbb: 86 0f        	stx	$f                      ; 0x200f <__putchar+0x2c>
    1fbd: 58           	cli
    1fbe: a0 00        	ldy	#$0
    1fc0: b1 10        	lda	($10),y                 ; 0x2010 <__putchar+0x2d>
    1fc2: 85 29        	sta	$29                     ; 0x2029 <__putchar+0x46>
    1fc4: c8           	iny
    1fc5: b1 10        	lda	($10),y                 ; 0x2010 <__putchar+0x2d>
    1fc7: 85 28        	sta	$28                     ; 0x2028 <__putchar+0x45>
    1fc9: fa           	plx
    1fca: 86 27        	stx	$27                     ; 0x2027 <__putchar+0x44>
    1fcc: fa           	plx
    1fcd: 86 26        	stx	$26                     ; 0x2026 <__putchar+0x43>
    1fcf: fa           	plx
    1fd0: 86 25        	stx	$25                     ; 0x2025 <__putchar+0x42>
    1fd2: fa           	plx
    1fd3: 86 24        	stx	$24                     ; 0x2024 <__putchar+0x41>
    1fd5: 18           	clc
    1fd6: a5 10        	lda	$10                     ; 0x2010 <__putchar+0x2d>
    1fd8: 69 02        	adc	#$2
    1fda: 85 10        	sta	$10                     ; 0x2010 <__putchar+0x2d>
    1fdc: a5 11        	lda	$11                     ; 0x2011 <__putchar+0x2e>
    1fde: 69 00        	adc	#$0
    1fe0: 85 11        	sta	$11                     ; 0x2011 <__putchar+0x2e>
    1fe2: 60           	rts

00001fe3 <__putchar>:
    1fe3: 85 86        	sta	$86                     ; 0x2086 <__putchar+0xa3>
    1fe5: a6 01        	ldx	$1                      ; 0x2001 <__putchar+0x1e>
    1fe7: 86 22        	stx	$22                     ; 0x2022 <__putchar+0x3f>
    1fe9: a6 33        	ldx	$33                     ; 0x2033 <__putchar+0x50>
    1feb: a0 50        	ldy	#$50
    1fed: 8c 00 de     	sty	$de00                   ; 0xde00 <end_block9+0xa6fc>
    1ff0: 9c 01 de     	stz	$de01                   ; 0xde01 <end_block9+0xa6fd>
    1ff3: 8e 02 de     	stx	$de02                   ; 0xde02 <end_block9+0xa6fe>
    1ff6: 9c 03 de     	stz	$de03                   ; 0xde03 <end_block9+0xa6ff>
    1ff9: ae 10 de     	ldx	$de10                   ; 0xde10 <end_block9+0xa70c>
    1ffc: ac 11 de     	ldy	$de11                   ; 0xde11 <end_block9+0xa70d>
    1fff: 84 13        	sty	$13                     ; 0x2013 <__putchar+0x30>
    2001: ad 12 de     	lda	$de12                   ; 0xde12 <end_block9+0xa70e>
    2004: ac 13 de     	ldy	$de13                   ; 0xde13 <end_block9+0xa70f>
    2007: 84 1a        	sty	$1a                     ; 0x201a <__putchar+0x37>
    2009: 9c 08 de     	stz	$de08                   ; 0xde08 <end_block9+0xa704>
    200c: a0 c0        	ldy	#$c0
    200e: 8c 09 de     	sty	$de09                   ; 0xde09 <end_block9+0xa705>
    2011: 9c 0a de     	stz	$de0a                   ; 0xde0a <end_block9+0xa706>
    2014: 9c 0b de     	stz	$de0b                   ; 0xde0b <end_block9+0xa707>
    2017: 8e 0c de     	stx	$de0c                   ; 0xde0c <end_block9+0xa708>
    201a: 64 12        	stz	$12                     ; 0x2012 <__putchar+0x2f>
    201c: a2 00        	ldx	#$0
    201e: 86 14        	stx	$14                     ; 0x2014 <__putchar+0x31>
    2020: a2 c0        	ldx	#$c0
    2022: 86 15        	stx	$15                     ; 0x2015 <__putchar+0x32>
    2024: a2 11        	ldx	#$11
    2026: 86 16        	stx	$16                     ; 0x2016 <__putchar+0x33>
    2028: a2 c9        	ldx	#$c9
    202a: 86 17        	stx	$17                     ; 0x2017 <__putchar+0x34>
    202c: a2 10        	ldx	#$10
    202e: 86 18        	stx	$18                     ; 0x2018 <__putchar+0x35>
    2030: a2 c9        	ldx	#$c9
    2032: 86 19        	stx	$19                     ; 0x2019 <__putchar+0x36>
    2034: a6 13        	ldx	$13                     ; 0x2013 <__putchar+0x30>
    2036: 8e 0d de     	stx	$de0d                   ; 0xde0d <end_block9+0xa709>
    2039: 8d 0e de     	sta	$de0e                   ; 0xde0e <end_block9+0xa70a>
    203c: a6 1a        	ldx	$1a                     ; 0x201a <__putchar+0x37>
    203e: 8e 0f de     	stx	$de0f                   ; 0xde0f <end_block9+0xa70b>
    2041: ac 18 de     	ldy	$de18                   ; 0xde18 <end_block9+0xa714>
    2044: ad 19 de     	lda	$de19                   ; 0xde19 <end_block9+0xa715>
    2047: ae 1a de     	ldx	$de1a                   ; 0xde1a <end_block9+0xa716>
    204a: ae 1b de     	ldx	$de1b                   ; 0xde1b <end_block9+0xa717>
    204d: 84 1a        	sty	$1a                     ; 0x201a <__putchar+0x37>
    204f: 85 1b        	sta	$1b                     ; 0x201b <__putchar+0x38>
    2051: 64 13        	stz	$13                     ; 0x2013 <__putchar+0x30>
    2053: 80 13        	bra	$2068 <__putchar+0x85>
    2055: a5 1a        	lda	$1a                     ; 0x201a <__putchar+0x37>
    2057: 18           	clc
    2058: 69 50        	adc	#$50
    205a: 85 1a        	sta	$1a                     ; 0x201a <__putchar+0x37>
    205c: a5 1b        	lda	$1b                     ; 0x201b <__putchar+0x38>
    205e: 69 00        	adc	#$0
    2060: 85 1b        	sta	$1b                     ; 0x201b <__putchar+0x38>
    2062: e6 12        	inc	$12                     ; 0x2012 <__putchar+0x2f>
    2064: d0 02        	bne	$2068 <__putchar+0x85>
    2066: e6 13        	inc	$13                     ; 0x2013 <__putchar+0x30>
    2068: a9 86        	lda	#$86
    206a: 18           	clc
    206b: 65 12        	adc	$12                     ; 0x2012 <__putchar+0x2f>
    206d: 85 1c        	sta	$1c                     ; 0x201c <__putchar+0x39>
    206f: a9 00        	lda	#$0
    2071: 65 13        	adc	$13                     ; 0x2013 <__putchar+0x30>
    2073: 85 1d        	sta	$1d                     ; 0x201d <__putchar+0x3a>
    2075: b2 1c        	lda	($1c)                   ; 0x201c <__putchar+0x39>
    2077: c9 0a        	cmp	#$a
    2079: f0 26        	beq	$20a1 <__putchar+0xbe>
    207b: c9 0d        	cmp	#$d
    207d: f0 22        	beq	$20a1 <__putchar+0xbe>
    207f: aa           	tax
    2080: d0 03        	bne	$2085 <__putchar+0xa2>
    2082: 4c 86 21     	jmp	$2186 <__putchar+0x1a3>
    2085: a2 03        	ldx	#$3
    2087: 86 01        	stx	$1                      ; 0x2001 <__putchar+0x1e>
    2089: a4 32        	ldy	$32                     ; 0x2032 <__putchar+0x4f>
    208b: a9 f0        	lda	#$f0
    208d: 91 1a        	sta	($1a),y                 ; 0x201a <__putchar+0x37>
    208f: ca           	dex
    2090: 86 01        	stx	$1                      ; 0x2001 <__putchar+0x1e>
    2092: b2 1c        	lda	($1c)                   ; 0x201c <__putchar+0x39>
    2094: a4 32        	ldy	$32                     ; 0x2032 <__putchar+0x4f>
    2096: 91 1a        	sta	($1a),y                 ; 0x201a <__putchar+0x37>
    2098: a6 32        	ldx	$32                     ; 0x2032 <__putchar+0x4f>
    209a: e8           	inx
    209b: e6 32        	inc	$32                     ; 0x2032 <__putchar+0x4f>
    209d: e0 50        	cpx	#$50
    209f: d0 c1        	bne	$2062 <__putchar+0x7f>
    20a1: 64 32        	stz	$32                     ; 0x2032 <__putchar+0x4f>
    20a3: a6 33        	ldx	$33                     ; 0x2033 <__putchar+0x50>
    20a5: e8           	inx
    20a6: e6 33        	inc	$33                     ; 0x2033 <__putchar+0x50>
    20a8: e0 1e        	cpx	#$1e
    20aa: f0 03        	beq	$20af <__putchar+0xcc>
    20ac: 4c 55 20     	jmp	$2055 <__putchar+0x72>
    20af: a2 03        	ldx	#$3
    20b1: 86 01        	stx	$1                      ; 0x2001 <__putchar+0x1e>
    20b3: a2 01        	ldx	#$1
    20b5: 86 1a        	stx	$1a                     ; 0x201a <__putchar+0x37>
    20b7: a2 09        	ldx	#$9
    20b9: a0 10        	ldy	#$10
    20bb: a9 00        	lda	#$0
    20bd: 85 1c        	sta	$1c                     ; 0x201c <__putchar+0x39>
    20bf: a9 c0        	lda	#$c0
    20c1: 85 1d        	sta	$1d                     ; 0x201d <__putchar+0x3a>
    20c3: 84 1b        	sty	$1b                     ; 0x201b <__putchar+0x38>
    20c5: a0 50        	ldy	#$50
    20c7: b1 1c        	lda	($1c),y                 ; 0x201c <__putchar+0x39>
    20c9: 92 1c        	sta	($1c)                   ; 0x201c <__putchar+0x39>
    20cb: a9 ff        	lda	#$ff
    20cd: c6 1b        	dec	$1b                     ; 0x201b <__putchar+0x38>
    20cf: c5 1b        	cmp	$1b                     ; 0x201b <__putchar+0x38>
    20d1: d0 01        	bne	$20d4 <__putchar+0xf1>
    20d3: ca           	dex
    20d4: e6 1c        	inc	$1c                     ; 0x201c <__putchar+0x39>
    20d6: d0 02        	bne	$20da <__putchar+0xf7>
    20d8: e6 1d        	inc	$1d                     ; 0x201d <__putchar+0x3a>
    20da: 8a           	txa
    20db: d0 ea        	bne	$20c7 <__putchar+0xe4>
    20dd: a5 1b        	lda	$1b                     ; 0x201b <__putchar+0x38>
    20df: d0 e6        	bne	$20c7 <__putchar+0xe4>
    20e1: a2 02        	ldx	#$2
    20e3: 86 01        	stx	$1                      ; 0x2001 <__putchar+0x1e>
    20e5: a2 00        	ldx	#$0
    20e7: a5 1a        	lda	$1a                     ; 0x201a <__putchar+0x37>
    20e9: d0 ca        	bne	$20b5 <__putchar+0xd2>
    20eb: a2 03        	ldx	#$3
    20ed: 86 01        	stx	$1                      ; 0x2001 <__putchar+0x1e>
    20ef: a2 50        	ldx	#$50
    20f1: a0 11        	ldy	#$11
    20f3: 84 1a        	sty	$1a                     ; 0x201a <__putchar+0x37>
    20f5: a0 c9        	ldy	#$c9
    20f7: 84 1b        	sty	$1b                     ; 0x201b <__putchar+0x38>
    20f9: a0 10        	ldy	#$10
    20fb: 84 1c        	sty	$1c                     ; 0x201c <__putchar+0x39>
    20fd: a0 c9        	ldy	#$c9
    20ff: 84 1d        	sty	$1d                     ; 0x201d <__putchar+0x3a>
    2101: a9 f0        	lda	#$f0
    2103: a4 1a        	ldy	$1a                     ; 0x201a <__putchar+0x37>
    2105: 84 1e        	sty	$1e                     ; 0x201e <__putchar+0x3b>
    2107: a4 1b        	ldy	$1b                     ; 0x201b <__putchar+0x38>
    2109: 84 1f        	sty	$1f                     ; 0x201f <__putchar+0x3c>
    210b: 92 1c        	sta	($1c)                   ; 0x201c <__putchar+0x39>
    210d: e6 1a        	inc	$1a                     ; 0x201a <__putchar+0x37>
    210f: d0 02        	bne	$2113 <__putchar+0x130>
    2111: e6 1b        	inc	$1b                     ; 0x201b <__putchar+0x38>
    2113: ca           	dex
    2114: a4 1e        	ldy	$1e                     ; 0x201e <__putchar+0x3b>
    2116: 84 1c        	sty	$1c                     ; 0x201c <__putchar+0x39>
    2118: a4 1f        	ldy	$1f                     ; 0x201f <__putchar+0x3c>
    211a: 84 1d        	sty	$1d                     ; 0x201d <__putchar+0x3a>
    211c: e0 00        	cpx	#$0
    211e: d0 e3        	bne	$2103 <__putchar+0x120>
    2120: a2 02        	ldx	#$2
    2122: 86 01        	stx	$1                      ; 0x2001 <__putchar+0x1e>
    2124: a2 50        	ldx	#$50
    2126: a0 11        	ldy	#$11
    2128: 84 1a        	sty	$1a                     ; 0x201a <__putchar+0x37>
    212a: a0 c9        	ldy	#$c9
    212c: 84 1b        	sty	$1b                     ; 0x201b <__putchar+0x38>
    212e: a0 10        	ldy	#$10
    2130: 84 1c        	sty	$1c                     ; 0x201c <__putchar+0x39>
    2132: a0 c9        	ldy	#$c9
    2134: 84 1d        	sty	$1d                     ; 0x201d <__putchar+0x3a>
    2136: a9 20        	lda	#$20
    2138: a4 1a        	ldy	$1a                     ; 0x201a <__putchar+0x37>
    213a: 84 1e        	sty	$1e                     ; 0x201e <__putchar+0x3b>
    213c: a4 1b        	ldy	$1b                     ; 0x201b <__putchar+0x38>
    213e: 84 1f        	sty	$1f                     ; 0x201f <__putchar+0x3c>
    2140: 92 1c        	sta	($1c)                   ; 0x201c <__putchar+0x39>
    2142: e6 1a        	inc	$1a                     ; 0x201a <__putchar+0x37>
    2144: d0 02        	bne	$2148 <__putchar+0x165>
    2146: e6 1b        	inc	$1b                     ; 0x201b <__putchar+0x38>
    2148: ca           	dex
    2149: a4 1e        	ldy	$1e                     ; 0x201e <__putchar+0x3b>
    214b: 84 1c        	sty	$1c                     ; 0x201c <__putchar+0x39>
    214d: a4 1f        	ldy	$1f                     ; 0x201f <__putchar+0x3c>
    214f: 84 1d        	sty	$1d                     ; 0x201d <__putchar+0x3a>
    2151: e0 00        	cpx	#$0
    2153: d0 e3        	bne	$2138 <__putchar+0x155>
    2155: c6 33        	dec	$33                     ; 0x2033 <__putchar+0x50>
    2157: 9c 08 de     	stz	$de08                   ; 0xde08 <end_block9+0xa704>
    215a: a2 c0        	ldx	#$c0
    215c: 8e 09 de     	stx	$de09                   ; 0xde09 <end_block9+0xa705>
    215f: 9c 0a de     	stz	$de0a                   ; 0xde0a <end_block9+0xa706>
    2162: 9c 0b de     	stz	$de0b                   ; 0xde0b <end_block9+0xa707>
    2165: a2 1d        	ldx	#$1d
    2167: 8e 0c de     	stx	$de0c                   ; 0xde0c <end_block9+0xa708>
    216a: 9c 0d de     	stz	$de0d                   ; 0xde0d <end_block9+0xa709>
    216d: 9c 0e de     	stz	$de0e                   ; 0xde0e <end_block9+0xa70a>
    2170: 9c 0f de     	stz	$de0f                   ; 0xde0f <end_block9+0xa70b>
    2173: ae 18 de     	ldx	$de18                   ; 0xde18 <end_block9+0xa714>
    2176: ac 19 de     	ldy	$de19                   ; 0xde19 <end_block9+0xa715>
    2179: ad 1a de     	lda	$de1a                   ; 0xde1a <end_block9+0xa716>
    217c: ad 1b de     	lda	$de1b                   ; 0xde1b <end_block9+0xa717>
    217f: 86 1a        	stx	$1a                     ; 0x201a <__putchar+0x37>
    2181: 84 1b        	sty	$1b                     ; 0x201b <__putchar+0x38>
    2183: 4c 62 20     	jmp	$2062 <__putchar+0x7f>
    2186: a6 22        	ldx	$22                     ; 0x2022 <__putchar+0x3f>
    2188: 86 01        	stx	$1                      ; 0x2001 <__putchar+0x1e>
    218a: a6 32        	ldx	$32                     ; 0x2032 <__putchar+0x4f>
    218c: a4 33        	ldy	$33                     ; 0x2033 <__putchar+0x50>
    218e: 8e 14 d0     	stx	$d014                   ; 0xd014 <end_block9+0x9910>
    2191: 9c 15 d0     	stz	$d015                   ; 0xd015 <end_block9+0x9911>
    2194: 84 33        	sty	$33                     ; 0x2033 <__putchar+0x50>
    2196: 8c 16 d0     	sty	$d016                   ; 0xd016 <end_block9+0x9912>
    2199: 9c 17 d0     	stz	$d017                   ; 0xd017 <end_block9+0x9913>
    219c: 60           	rts

0000219d <exit>:
    219d: 20 19 03     	jsr	$319 <_fini>
    21a0: 80 fe        	bra	$21a0 <exit+0x3>

000021a2 <_ZN12_GLOBAL__N_13putEcP6Status>:
    21a2: 85 18        	sta	$18                     ; 0x2018 <__putchar+0x35>
    21a4: a6 13        	ldx	$13                     ; 0x2013 <__putchar+0x30>
    21a6: 18           	clc
    21a7: a5 12        	lda	$12                     ; 0x2012 <__putchar+0x2f>
    21a9: 69 05        	adc	#$5
    21ab: a8           	tay
    21ac: a5 13        	lda	$13                     ; 0x2013 <__putchar+0x30>
    21ae: 86 15        	stx	$15                     ; 0x2015 <__putchar+0x32>
    21b0: 69 00        	adc	#$0
    21b2: 18           	clc
    21b3: 84 16        	sty	$16                     ; 0x2016 <__putchar+0x33>
    21b5: a0 05        	ldy	#$5
    21b7: 85 17        	sta	$17                     ; 0x2017 <__putchar+0x34>
    21b9: b1 12        	lda	($12),y                 ; 0x2012 <__putchar+0x2f>
    21bb: aa           	tax
    21bc: a5 12        	lda	$12                     ; 0x2012 <__putchar+0x2f>
    21be: 69 03        	adc	#$3
    21c0: 85 14        	sta	$14                     ; 0x2014 <__putchar+0x31>
    21c2: a5 15        	lda	$15                     ; 0x2015 <__putchar+0x32>
    21c4: 69 00        	adc	#$0
    21c6: 85 15        	sta	$15                     ; 0x2015 <__putchar+0x32>
    21c8: a0 01        	ldy	#$1
    21ca: b1 16        	lda	($16),y                 ; 0x2016 <__putchar+0x33>
    21cc: d1 14        	cmp	($14),y                 ; 0x2014 <__putchar+0x31>
    21ce: d0 11        	bne	$21e1 <_ZN12_GLOBAL__N_13putEcP6Status+0x3f>
    21d0: a0 03        	ldy	#$3
    21d2: 85 17        	sta	$17                     ; 0x2017 <__putchar+0x34>
    21d4: b1 12        	lda	($12),y                 ; 0x2012 <__putchar+0x2f>
    21d6: 85 14        	sta	$14                     ; 0x2014 <__putchar+0x31>
    21d8: 86 16        	stx	$16                     ; 0x2016 <__putchar+0x33>
    21da: e4 14        	cpx	$14                     ; 0x2014 <__putchar+0x31>
    21dc: 90 0e        	bcc	$21ec <_ZN12_GLOBAL__N_13putEcP6Status+0x4a>
    21de: 4c 4b 22     	jmp	$224b <_ZN12_GLOBAL__N_13putEcP6Status+0xa9>
    21e1: 86 16        	stx	$16                     ; 0x2016 <__putchar+0x33>
    21e3: d1 14        	cmp	($14),y                 ; 0x2014 <__putchar+0x31>
    21e5: 85 17        	sta	$17                     ; 0x2017 <__putchar+0x34>
    21e7: 90 03        	bcc	$21ec <_ZN12_GLOBAL__N_13putEcP6Status+0x4a>
    21e9: 4c 4b 22     	jmp	$224b <_ZN12_GLOBAL__N_13putEcP6Status+0xa9>
    21ec: a5 12        	lda	$12                     ; 0x2012 <__putchar+0x2f>
    21ee: 18           	clc
    21ef: 69 0f        	adc	#$f
    21f1: 85 14        	sta	$14                     ; 0x2014 <__putchar+0x31>
    21f3: a5 13        	lda	$13                     ; 0x2013 <__putchar+0x30>
    21f5: 69 00        	adc	#$0
    21f7: 85 15        	sta	$15                     ; 0x2015 <__putchar+0x32>
    21f9: a0 01        	ldy	#$1
    21fb: b1 14        	lda	($14),y                 ; 0x2014 <__putchar+0x31>
    21fd: a2 00        	ldx	#$0
    21ff: 86 14        	stx	$14                     ; 0x2014 <__putchar+0x31>
    2201: a2 00        	ldx	#$0
    2203: 86 15        	stx	$15                     ; 0x2015 <__putchar+0x32>
    2205: c5 15        	cmp	$15                     ; 0x2015 <__putchar+0x32>
    2207: d0 2d        	bne	$2236 <_ZN12_GLOBAL__N_13putEcP6Status+0x94>
    2209: a0 0f        	ldy	#$f
    220b: b1 12        	lda	($12),y                 ; 0x2012 <__putchar+0x2f>
    220d: c5 14        	cmp	$14                     ; 0x2014 <__putchar+0x31>
    220f: d0 25        	bne	$2236 <_ZN12_GLOBAL__N_13putEcP6Status+0x94>
    2211: a5 12        	lda	$12                     ; 0x2012 <__putchar+0x2f>
    2213: 18           	clc
    2214: 69 09        	adc	#$9
    2216: 85 14        	sta	$14                     ; 0x2014 <__putchar+0x31>
    2218: a5 13        	lda	$13                     ; 0x2013 <__putchar+0x30>
    221a: 69 00        	adc	#$0
    221c: a0 09        	ldy	#$9
    221e: 85 15        	sta	$15                     ; 0x2015 <__putchar+0x32>
    2220: 18           	clc
    2221: a5 16        	lda	$16                     ; 0x2016 <__putchar+0x33>
    2223: 71 12        	adc	($12),y                 ; 0x2012 <__putchar+0x2f>
    2225: aa           	tax
    2226: a0 01        	ldy	#$1
    2228: a5 17        	lda	$17                     ; 0x2017 <__putchar+0x34>
    222a: 71 14        	adc	($14),y                 ; 0x2014 <__putchar+0x31>
    222c: 86 14        	stx	$14                     ; 0x2014 <__putchar+0x31>
    222e: 85 15        	sta	$15                     ; 0x2015 <__putchar+0x32>
    2230: a5 18        	lda	$18                     ; 0x2018 <__putchar+0x35>
    2232: 92 14        	sta	($14)                   ; 0x2014 <__putchar+0x31>
    2234: 80 15        	bra	$224b <_ZN12_GLOBAL__N_13putEcP6Status+0xa9>
    2236: a6 12        	ldx	$12                     ; 0x2012 <__putchar+0x2f>
    2238: 86 ed        	stx	$ed                     ; 0x20ed <__putchar+0x10a>
    223a: a6 13        	ldx	$13                     ; 0x2013 <__putchar+0x30>
    223c: 86 ee        	stx	$ee                     ; 0x20ee <__putchar+0x10b>
    223e: a5 18        	lda	$18                     ; 0x2018 <__putchar+0x35>
    2240: 20 e3 1f     	jsr	$1fe3 <__putchar>
    2243: a6 ed        	ldx	$ed                     ; 0x20ed <__putchar+0x10a>
    2245: 86 12        	stx	$12                     ; 0x2012 <__putchar+0x2f>
    2247: a6 ee        	ldx	$ee                     ; 0x20ee <__putchar+0x10b>
    2249: 86 13        	stx	$13                     ; 0x2013 <__putchar+0x30>
    224b: a0 05        	ldy	#$5
    224d: a5 12        	lda	$12                     ; 0x2012 <__putchar+0x2f>
    224f: 18           	clc
    2250: 69 05        	adc	#$5
    2252: 85 14        	sta	$14                     ; 0x2014 <__putchar+0x31>
    2254: a5 13        	lda	$13                     ; 0x2013 <__putchar+0x30>
    2256: 69 00        	adc	#$0
    2258: 85 15        	sta	$15                     ; 0x2015 <__putchar+0x32>
    225a: b1 12        	lda	($12),y                 ; 0x2012 <__putchar+0x2f>
    225c: aa           	tax
    225d: a0 01        	ldy	#$1
    225f: b1 14        	lda	($14),y                 ; 0x2014 <__putchar+0x31>
    2261: e8           	inx
    2262: d0 01        	bne	$2265 <_ZN12_GLOBAL__N_13putEcP6Status+0xc3>
    2264: 1a           	inc
    2265: 85 16        	sta	$16                     ; 0x2016 <__putchar+0x33>
    2267: 8a           	txa
    2268: a0 05        	ldy	#$5
    226a: 91 12        	sta	($12),y                 ; 0x2012 <__putchar+0x2f>
    226c: a0 01        	ldy	#$1
    226e: a5 16        	lda	$16                     ; 0x2016 <__putchar+0x33>
    2270: 91 14        	sta	($14),y                 ; 0x2014 <__putchar+0x31>
    2272: 60           	rts

00002273 <_ZN12_GLOBAL__N_112print_stringEPKcP6Status>:
    2273: a6 12        	ldx	$12                     ; 0x2012 <__putchar+0x2f>
    2275: 86 e5        	stx	$e5                     ; 0x20e5 <__putchar+0x102>
    2277: a6 13        	ldx	$13                     ; 0x2013 <__putchar+0x30>
    2279: 86 e6        	stx	$e6                     ; 0x20e6 <__putchar+0x103>
    227b: a6 14        	ldx	$14                     ; 0x2014 <__putchar+0x31>
    227d: 86 e7        	stx	$e7                     ; 0x20e7 <__putchar+0x104>
    227f: a6 15        	ldx	$15                     ; 0x2015 <__putchar+0x32>
    2281: 86 e8        	stx	$e8                     ; 0x20e8 <__putchar+0x105>
    2283: a5 e7        	lda	$e7                     ; 0x20e7 <__putchar+0x104>
    2285: 18           	clc
    2286: 69 0d        	adc	#$d
    2288: 85 12        	sta	$12                     ; 0x2012 <__putchar+0x2f>
    228a: a5 e8        	lda	$e8                     ; 0x20e8 <__putchar+0x105>
    228c: 69 00        	adc	#$0
    228e: 85 13        	sta	$13                     ; 0x2013 <__putchar+0x30>
    2290: a0 01        	ldy	#$1
    2292: b1 12        	lda	($12),y                 ; 0x2012 <__putchar+0x2f>
    2294: 30 16        	bmi	$22ac <_ZN12_GLOBAL__N_112print_stringEPKcP6Status+0x39>
    2296: a0 0d        	ldy	#$d
    2298: 85 12        	sta	$12                     ; 0x2012 <__putchar+0x2f>
    229a: b1 e7        	lda	($e7),y                 ; 0x20e7 <__putchar+0x104>
    229c: a6 12        	ldx	$12                     ; 0x2012 <__putchar+0x2f>
    229e: 86 ec        	stx	$ec                     ; 0x20ec <__putchar+0x109>
    22a0: d0 0f        	bne	$22b1 <_ZN12_GLOBAL__N_112print_stringEPKcP6Status+0x3e>
    22a2: aa           	tax
    22a3: d0 0c        	bne	$22b1 <_ZN12_GLOBAL__N_112print_stringEPKcP6Status+0x3e>
    22a5: 64 e9        	stz	$e9                     ; 0x20e9 <__putchar+0x106>
    22a7: a2 00        	ldx	#$0
    22a9: 4c 7b 23     	jmp	$237b <_ZN12_GLOBAL__N_112print_stringEPKcP6Status+0x108>
    22ac: a9 ff        	lda	#$ff
    22ae: aa           	tax
    22af: 86 ec        	stx	$ec                     ; 0x20ec <__putchar+0x109>
    22b1: 85 e9        	sta	$e9                     ; 0x20e9 <__putchar+0x106>
    22b3: 64 12        	stz	$12                     ; 0x2012 <__putchar+0x2f>
    22b5: a4 e5        	ldy	$e5                     ; 0x20e5 <__putchar+0x102>
    22b7: a6 e6        	ldx	$e6                     ; 0x20e6 <__putchar+0x103>
    22b9: 86 16        	stx	$16                     ; 0x2016 <__putchar+0x33>
    22bb: 64 13        	stz	$13                     ; 0x2013 <__putchar+0x30>
    22bd: 98           	tya
    22be: 18           	clc
    22bf: 65 12        	adc	$12                     ; 0x2012 <__putchar+0x2f>
    22c1: 85 14        	sta	$14                     ; 0x2014 <__putchar+0x31>
    22c3: a5 e6        	lda	$e6                     ; 0x20e6 <__putchar+0x103>
    22c5: 65 13        	adc	$13                     ; 0x2013 <__putchar+0x30>
    22c7: 85 15        	sta	$15                     ; 0x2015 <__putchar+0x32>
    22c9: b2 14        	lda	($14)                   ; 0x2014 <__putchar+0x31>
    22cb: d0 03        	bne	$22d0 <_ZN12_GLOBAL__N_112print_stringEPKcP6Status+0x5d>
    22cd: 4c 75 23     	jmp	$2375 <_ZN12_GLOBAL__N_112print_stringEPKcP6Status+0x102>
    22d0: e6 12        	inc	$12                     ; 0x2012 <__putchar+0x2f>
    22d2: d0 02        	bne	$22d6 <_ZN12_GLOBAL__N_112print_stringEPKcP6Status+0x63>
    22d4: e6 13        	inc	$13                     ; 0x2013 <__putchar+0x30>
    22d6: a6 ec        	ldx	$ec                     ; 0x20ec <__putchar+0x109>
    22d8: e4 13        	cpx	$13                     ; 0x2013 <__putchar+0x30>
    22da: d0 e1        	bne	$22bd <_ZN12_GLOBAL__N_112print_stringEPKcP6Status+0x4a>
    22dc: a6 e9        	ldx	$e9                     ; 0x20e9 <__putchar+0x106>
    22de: e4 12        	cpx	$12                     ; 0x2012 <__putchar+0x2f>
    22e0: d0 db        	bne	$22bd <_ZN12_GLOBAL__N_112print_stringEPKcP6Status+0x4a>
    22e2: a0 01        	ldy	#$1
    22e4: 98           	tya
    22e5: 31 e7        	and	($e7),y                 ; 0x20e7 <__putchar+0x104>
    22e7: 29 01        	and	#$1
    22e9: f0 03        	beq	$22ee <_ZN12_GLOBAL__N_112print_stringEPKcP6Status+0x7b>
    22eb: 4c 46 23     	jmp	$2346 <_ZN12_GLOBAL__N_112print_stringEPKcP6Status+0xd3>
    22ee: a0 0b        	ldy	#$b
    22f0: a5 e7        	lda	$e7                     ; 0x20e7 <__putchar+0x104>
    22f2: 18           	clc
    22f3: 69 0b        	adc	#$b
    22f5: 85 14        	sta	$14                     ; 0x2014 <__putchar+0x31>
    22f7: a5 e8        	lda	$e8                     ; 0x20e8 <__putchar+0x105>
    22f9: 69 00        	adc	#$0
    22fb: 85 15        	sta	$15                     ; 0x2015 <__putchar+0x32>
    22fd: b1 e7        	lda	($e7),y                 ; 0x20e7 <__putchar+0x104>
    22ff: 85 12        	sta	$12                     ; 0x2012 <__putchar+0x2f>
    2301: a0 01        	ldy	#$1
    2303: b1 14        	lda	($14),y                 ; 0x2014 <__putchar+0x31>
    2305: 85 13        	sta	$13                     ; 0x2013 <__putchar+0x30>
    2307: a6 ec        	ldx	$ec                     ; 0x20ec <__putchar+0x109>
    2309: e4 13        	cpx	$13                     ; 0x2013 <__putchar+0x30>
    230b: d0 08        	bne	$2315 <_ZN12_GLOBAL__N_112print_stringEPKcP6Status+0xa2>
    230d: a6 e9        	ldx	$e9                     ; 0x20e9 <__putchar+0x106>
    230f: e4 12        	cpx	$12                     ; 0x2012 <__putchar+0x2f>
    2311: 90 06        	bcc	$2319 <_ZN12_GLOBAL__N_112print_stringEPKcP6Status+0xa6>
    2313: 80 31        	bra	$2346 <_ZN12_GLOBAL__N_112print_stringEPKcP6Status+0xd3>
    2315: e4 13        	cpx	$13                     ; 0x2013 <__putchar+0x30>
    2317: b0 2d        	bcs	$2346 <_ZN12_GLOBAL__N_112print_stringEPKcP6Status+0xd3>
    2319: 38           	sec
    231a: a5 e9        	lda	$e9                     ; 0x20e9 <__putchar+0x106>
    231c: e5 12        	sbc	$12                     ; 0x2012 <__putchar+0x2f>
    231e: a8           	tay
    231f: a5 ec        	lda	$ec                     ; 0x20ec <__putchar+0x109>
    2321: e5 13        	sbc	$13                     ; 0x2013 <__putchar+0x30>
    2323: 85 eb        	sta	$eb                     ; 0x20eb <__putchar+0x108>
    2325: a6 e7        	ldx	$e7                     ; 0x20e7 <__putchar+0x104>
    2327: 86 12        	stx	$12                     ; 0x2012 <__putchar+0x2f>
    2329: a6 e8        	ldx	$e8                     ; 0x20e8 <__putchar+0x105>
    232b: 86 13        	stx	$13                     ; 0x2013 <__putchar+0x30>
    232d: 84 ea        	sty	$ea                     ; 0x20ea <__putchar+0x107>
    232f: a9 20        	lda	#$20
    2331: 20 a2 21     	jsr	$21a2 <_ZN12_GLOBAL__N_13putEcP6Status>
    2334: a6 eb        	ldx	$eb                     ; 0x20eb <__putchar+0x108>
    2336: e6 ea        	inc	$ea                     ; 0x20ea <__putchar+0x107>
    2338: d0 01        	bne	$233b <_ZN12_GLOBAL__N_112print_stringEPKcP6Status+0xc8>
    233a: e8           	inx
    233b: 86 eb        	stx	$eb                     ; 0x20eb <__putchar+0x108>
    233d: a4 ea        	ldy	$ea                     ; 0x20ea <__putchar+0x107>
    233f: 8a           	txa
    2340: d0 e3        	bne	$2325 <_ZN12_GLOBAL__N_112print_stringEPKcP6Status+0xb2>
    2342: a5 ea        	lda	$ea                     ; 0x20ea <__putchar+0x107>
    2344: d0 df        	bne	$2325 <_ZN12_GLOBAL__N_112print_stringEPKcP6Status+0xb2>
    2346: a4 ec        	ldy	$ec                     ; 0x20ec <__putchar+0x109>
    2348: d0 04        	bne	$234e <_ZN12_GLOBAL__N_112print_stringEPKcP6Status+0xdb>
    234a: a5 e9        	lda	$e9                     ; 0x20e9 <__putchar+0x106>
    234c: f0 26        	beq	$2374 <_ZN12_GLOBAL__N_112print_stringEPKcP6Status+0x101>
    234e: a2 ff        	ldx	#$ff
    2350: c6 e9        	dec	$e9                     ; 0x20e9 <__putchar+0x106>
    2352: e4 e9        	cpx	$e9                     ; 0x20e9 <__putchar+0x106>
    2354: d0 01        	bne	$2357 <_ZN12_GLOBAL__N_112print_stringEPKcP6Status+0xe4>
    2356: 88           	dey
    2357: 84 ea        	sty	$ea                     ; 0x20ea <__putchar+0x107>
    2359: b2 e5        	lda	($e5)                   ; 0x20e5 <__putchar+0x102>
    235b: e6 e5        	inc	$e5                     ; 0x20e5 <__putchar+0x102>
    235d: d0 02        	bne	$2361 <_ZN12_GLOBAL__N_112print_stringEPKcP6Status+0xee>
    235f: e6 e6        	inc	$e6                     ; 0x20e6 <__putchar+0x103>
    2361: a6 e7        	ldx	$e7                     ; 0x20e7 <__putchar+0x104>
    2363: 86 12        	stx	$12                     ; 0x2012 <__putchar+0x2f>
    2365: a6 e8        	ldx	$e8                     ; 0x20e8 <__putchar+0x105>
    2367: 86 13        	stx	$13                     ; 0x2013 <__putchar+0x30>
    2369: 20 a2 21     	jsr	$21a2 <_ZN12_GLOBAL__N_13putEcP6Status>
    236c: a4 ea        	ldy	$ea                     ; 0x20ea <__putchar+0x107>
    236e: d0 de        	bne	$234e <_ZN12_GLOBAL__N_112print_stringEPKcP6Status+0xdb>
    2370: a5 e9        	lda	$e9                     ; 0x20e9 <__putchar+0x106>
    2372: d0 da        	bne	$234e <_ZN12_GLOBAL__N_112print_stringEPKcP6Status+0xdb>
    2374: 60           	rts
    2375: a6 12        	ldx	$12                     ; 0x2012 <__putchar+0x2f>
    2377: 86 e9        	stx	$e9                     ; 0x20e9 <__putchar+0x106>
    2379: a6 13        	ldx	$13                     ; 0x2013 <__putchar+0x30>
    237b: 86 ec        	stx	$ec                     ; 0x20ec <__putchar+0x109>
    237d: 4c e2 22     	jmp	$22e2 <_ZN12_GLOBAL__N_112print_stringEPKcP6Status+0x6f>

00002380 <printf>:
    2380: a6 12        	ldx	$12                     ; 0x2012 <__putchar+0x2f>
    2382: 86 9a        	stx	$9a                     ; 0x209a <__putchar+0xb7>
    2384: a6 13        	ldx	$13                     ; 0x2013 <__putchar+0x30>
    2386: 86 9b        	stx	$9b                     ; 0x209b <__putchar+0xb8>
    2388: 18           	clc
    2389: a6 10        	ldx	$10                     ; 0x2010 <__putchar+0x2d>
    238b: a4 11        	ldy	$11                     ; 0x2011 <__putchar+0x2e>
    238d: 86 db        	stx	$db                     ; 0x20db <__putchar+0xf8>
    238f: 84 dc        	sty	$dc                     ; 0x20dc <__putchar+0xf9>
    2391: a6 db        	ldx	$db                     ; 0x20db <__putchar+0xf8>
    2393: a4 dc        	ldy	$dc                     ; 0x20dc <__putchar+0xf9>
    2395: 86 c6        	stx	$c6                     ; 0x20c6 <__putchar+0xe3>
    2397: 84 c7        	sty	$c7                     ; 0x20c7 <__putchar+0xe4>
    2399: a2 ff        	ldx	#$ff
    239b: 86 cb        	stx	$cb                     ; 0x20cb <__putchar+0xe8>
    239d: 86 cc        	stx	$cc                     ; 0x20cc <__putchar+0xe9>
    239f: 64 cd        	stz	$cd                     ; 0x20cd <__putchar+0xea>
    23a1: 64 ce        	stz	$ce                     ; 0x20ce <__putchar+0xeb>
    23a3: e8           	inx
    23a4: 86 9c        	stx	$9c                     ; 0x209c <__putchar+0xb9>
    23a6: a2 00        	ldx	#$0
    23a8: 86 9d        	stx	$9d                     ; 0x209d <__putchar+0xba>
    23aa: a6 9c        	ldx	$9c                     ; 0x209c <__putchar+0xb9>
    23ac: a4 9d        	ldy	$9d                     ; 0x209d <__putchar+0xba>
    23ae: 86 d1        	stx	$d1                     ; 0x20d1 <__putchar+0xee>
    23b0: 84 d2        	sty	$d2                     ; 0x20d2 <__putchar+0xef>
    23b2: a2 02        	ldx	#$2
    23b4: 86 d7        	stx	$d7                     ; 0x20d7 <__putchar+0xf4>
    23b6: 64 d8        	stz	$d8                     ; 0x20d8 <__putchar+0xf5>
    23b8: a6 c6        	ldx	$c6                     ; 0x20c6 <__putchar+0xe3>
    23ba: a4 c7        	ldy	$c7                     ; 0x20c7 <__putchar+0xe4>
    23bc: 86 d9        	stx	$d9                     ; 0x20d9 <__putchar+0xf6>
    23be: 84 da        	sty	$da                     ; 0x20da <__putchar+0xf7>
    23c0: a2 bd        	ldx	#$bd
    23c2: a0 00        	ldy	#$0
    23c4: 86 12        	stx	$12                     ; 0x2012 <__putchar+0x2f>
    23c6: 84 13        	sty	$13                     ; 0x2013 <__putchar+0x30>
    23c8: a0 01        	ldy	#$1
    23ca: a9 a4        	lda	#$a4
    23cc: 18           	clc
    23cd: 69 02        	adc	#$2
    23cf: 85 e3        	sta	$e3                     ; 0x20e3 <__putchar+0x100>
    23d1: a9 00        	lda	#$0
    23d3: 69 00        	adc	#$0
    23d5: 85 e4        	sta	$e4                     ; 0x20e4 <__putchar+0x101>
    23d7: e6 12        	inc	$12                     ; 0x2012 <__putchar+0x2f>
    23d9: d0 02        	bne	$23dd <printf+0x5d>
    23db: e6 13        	inc	$13                     ; 0x2013 <__putchar+0x30>
    23dd: a6 12        	ldx	$12                     ; 0x2012 <__putchar+0x2f>
    23df: 86 e0        	stx	$e0                     ; 0x20e0 <__putchar+0xfd>
    23e1: a6 13        	ldx	$13                     ; 0x2013 <__putchar+0x30>
    23e3: 86 e1        	stx	$e1                     ; 0x20e1 <__putchar+0xfe>
    23e5: a6 9a        	ldx	$9a                     ; 0x209a <__putchar+0xb7>
    23e7: 86 9e        	stx	$9e                     ; 0x209e <__putchar+0xbb>
    23e9: a6 9b        	ldx	$9b                     ; 0x209b <__putchar+0xb8>
    23eb: 86 9f        	stx	$9f                     ; 0x209f <__putchar+0xbc>
    23ed: b2 9a        	lda	($9a)                   ; 0x209a <__putchar+0xb7>
    23ef: c9 25        	cmp	#$25
    23f1: f0 21        	beq	$2414 <printf+0x94>
    23f3: aa           	tax
    23f4: d0 03        	bne	$23f9 <printf+0x79>
    23f6: 4c 2f 2f     	jmp	$2f2f <printf+0xbaf>
    23f9: 20 e3 1f     	jsr	$1fe3 <__putchar>
    23fc: a0 01        	ldy	#$1
    23fe: e6 9e        	inc	$9e                     ; 0x209e <__putchar+0xbb>
    2400: d0 02        	bne	$2404 <printf+0x84>
    2402: e6 9f        	inc	$9f                     ; 0x209f <__putchar+0xbc>
    2404: e6 cd        	inc	$cd                     ; 0x20cd <__putchar+0xea>
    2406: d0 02        	bne	$240a <printf+0x8a>
    2408: e6 ce        	inc	$ce                     ; 0x20ce <__putchar+0xeb>
    240a: a6 9e        	ldx	$9e                     ; 0x209e <__putchar+0xbb>
    240c: 86 9a        	stx	$9a                     ; 0x209a <__putchar+0xb7>
    240e: a6 9f        	ldx	$9f                     ; 0x209f <__putchar+0xbc>
    2410: 86 9b        	stx	$9b                     ; 0x209b <__putchar+0xb8>
    2412: 80 d1        	bra	$23e5 <printf+0x65>
    2414: a6 9a        	ldx	$9a                     ; 0x209a <__putchar+0xb7>
    2416: 86 12        	stx	$12                     ; 0x2012 <__putchar+0x2f>
    2418: a6 9b        	ldx	$9b                     ; 0x209b <__putchar+0xb8>
    241a: 86 13        	stx	$13                     ; 0x2013 <__putchar+0x30>
    241c: e6 12        	inc	$12                     ; 0x2012 <__putchar+0x2f>
    241e: d0 02        	bne	$2422 <printf+0xa2>
    2420: e6 13        	inc	$13                     ; 0x2013 <__putchar+0x30>
    2422: b1 9e        	lda	($9e),y                 ; 0x209e <__putchar+0xbb>
    2424: c9 25        	cmp	#$25
    2426: d0 16        	bne	$243e <printf+0xbe>
    2428: a4 cd        	ldy	$cd                     ; 0x20cd <__putchar+0xea>
    242a: a5 ce        	lda	$ce                     ; 0x20ce <__putchar+0xeb>
    242c: c5 cc        	cmp	$cc                     ; 0x20cc <__putchar+0xe9>
    242e: f0 03        	beq	$2433 <printf+0xb3>
    2430: 4c 44 25     	jmp	$2544 <printf+0x1c4>
    2433: a6 cb        	ldx	$cb                     ; 0x20cb <__putchar+0xe8>
    2435: 86 12        	stx	$12                     ; 0x2012 <__putchar+0x2f>
    2437: 84 13        	sty	$13                     ; 0x2013 <__putchar+0x30>
    2439: c4 12        	cpy	$12                     ; 0x2012 <__putchar+0x2f>
    243b: 4c 48 25     	jmp	$2548 <printf+0x1c8>
    243e: 64 c9        	stz	$c9                     ; 0x20c9 <__putchar+0xe6>
    2440: 64 ca        	stz	$ca                     ; 0x20ca <__putchar+0xe7>
    2442: 64 c8        	stz	$c8                     ; 0x20c8 <__putchar+0xe5>
    2444: 64 d3        	stz	$d3                     ; 0x20d3 <__putchar+0xf0>
    2446: 64 d4        	stz	$d4                     ; 0x20d4 <__putchar+0xf1>
    2448: a2 ff        	ldx	#$ff
    244a: 86 d5        	stx	$d5                     ; 0x20d5 <__putchar+0xf2>
    244c: 86 d6        	stx	$d6                     ; 0x20d6 <__putchar+0xf3>
    244e: 64 99        	stz	$99                     ; 0x2099 <__putchar+0xb6>
    2450: 80 33        	bra	$2485 <printf+0x105>
    2452: a2 02        	ldx	#$2
    2454: 80 15        	bra	$246b <printf+0xeb>
    2456: e0 20        	cpx	#$20
    2458: f0 15        	beq	$246f <printf+0xef>
    245a: 86 15        	stx	$15                     ; 0x2015 <__putchar+0x32>
    245c: e0 23        	cpx	#$23
    245e: f0 03        	beq	$2463 <printf+0xe3>
    2460: 4c e2 24     	jmp	$24e2 <printf+0x162>
    2463: a5 99        	lda	$99                     ; 0x2099 <__putchar+0xb6>
    2465: a2 04        	ldx	#$4
    2467: 80 02        	bra	$246b <printf+0xeb>
    2469: a2 10        	ldx	#$10
    246b: 86 14        	stx	$14                     ; 0x2014 <__putchar+0x31>
    246d: 80 06        	bra	$2475 <printf+0xf5>
    246f: a2 08        	ldx	#$8
    2471: 86 14        	stx	$14                     ; 0x2014 <__putchar+0x31>
    2473: a5 99        	lda	$99                     ; 0x2099 <__putchar+0xb6>
    2475: 05 14        	ora	$14                     ; 0x2014 <__putchar+0x31>
    2477: 85 99        	sta	$99                     ; 0x2099 <__putchar+0xb6>
    2479: 85 c9        	sta	$c9                     ; 0x20c9 <__putchar+0xe6>
    247b: a2 00        	ldx	#$0
    247d: 86 ca        	stx	$ca                     ; 0x20ca <__putchar+0xe7>
    247f: e6 12        	inc	$12                     ; 0x2012 <__putchar+0x2f>
    2481: d0 02        	bne	$2485 <printf+0x105>
    2483: e6 13        	inc	$13                     ; 0x2013 <__putchar+0x30>
    2485: b2 12        	lda	($12)                   ; 0x2012 <__putchar+0x2f>
    2487: aa           	tax
    2488: 38           	sec
    2489: e9 2a        	sbc	#$2a
    248b: c9 07        	cmp	#$7
    248d: b0 c7        	bcs	$2456 <printf+0xd6>
    248f: 86 15        	stx	$15                     ; 0x2015 <__putchar+0x32>
    2491: 0a           	asl
    2492: aa           	tax
    2493: a0 01        	ldy	#$1
    2495: 84 14        	sty	$14                     ; 0x2014 <__putchar+0x31>
    2497: a5 99        	lda	$99                     ; 0x2099 <__putchar+0xb6>
    2499: 7c 99 2f     	jmp	($2f99,x)               ; 0x2f99 <__set_v+0x11>
    249c: a5 d9        	lda	$d9                     ; 0x20d9 <__putchar+0xf6>
    249e: a6 da        	ldx	$da                     ; 0x20da <__putchar+0xf7>
    24a0: 85 16        	sta	$16                     ; 0x2016 <__putchar+0x33>
    24a2: 86 17        	stx	$17                     ; 0x2017 <__putchar+0x34>
    24a4: 18           	clc
    24a5: 69 02        	adc	#$2
    24a7: a8           	tay
    24a8: 8a           	txa
    24a9: 69 00        	adc	#$0
    24ab: 84 d9        	sty	$d9                     ; 0x20d9 <__putchar+0xf6>
    24ad: 85 da        	sta	$da                     ; 0x20da <__putchar+0xf7>
    24af: b2 16        	lda	($16)                   ; 0x2016 <__putchar+0x33>
    24b1: 85 15        	sta	$15                     ; 0x2015 <__putchar+0x32>
    24b3: a0 01        	ldy	#$1
    24b5: b1 16        	lda	($16),y                 ; 0x2016 <__putchar+0x33>
    24b7: 85 14        	sta	$14                     ; 0x2014 <__putchar+0x31>
    24b9: 10 15        	bpl	$24d0 <printf+0x150>
    24bb: a5 99        	lda	$99                     ; 0x2099 <__putchar+0xb6>
    24bd: 09 01        	ora	#$1
    24bf: 85 99        	sta	$99                     ; 0x2099 <__putchar+0xb6>
    24c1: 85 c9        	sta	$c9                     ; 0x20c9 <__putchar+0xe6>
    24c3: a2 00        	ldx	#$0
    24c5: 86 ca        	stx	$ca                     ; 0x20ca <__putchar+0xe7>
    24c7: 8a           	txa
    24c8: 38           	sec
    24c9: e5 15        	sbc	$15                     ; 0x2015 <__putchar+0x32>
    24cb: 85 15        	sta	$15                     ; 0x2015 <__putchar+0x32>
    24cd: 8a           	txa
    24ce: e5 14        	sbc	$14                     ; 0x2014 <__putchar+0x31>
    24d0: a6 15        	ldx	$15                     ; 0x2015 <__putchar+0x32>
    24d2: 86 d3        	stx	$d3                     ; 0x20d3 <__putchar+0xf0>
    24d4: 85 d4        	sta	$d4                     ; 0x20d4 <__putchar+0xf1>
    24d6: e6 12        	inc	$12                     ; 0x2012 <__putchar+0x2f>
    24d8: f0 03        	beq	$24dd <printf+0x15d>
    24da: 4c 96 25     	jmp	$2596 <printf+0x216>
    24dd: e6 13        	inc	$13                     ; 0x2013 <__putchar+0x30>
    24df: 4c 96 25     	jmp	$2596 <printf+0x216>
    24e2: a5 15        	lda	$15                     ; 0x2015 <__putchar+0x32>
    24e4: 18           	clc
    24e5: 69 d0        	adc	#$d0
    24e7: c9 0a        	cmp	#$a
    24e9: 90 03        	bcc	$24ee <printf+0x16e>
    24eb: 4c 88 25     	jmp	$2588 <printf+0x208>
    24ee: a6 15        	ldx	$15                     ; 0x2015 <__putchar+0x32>
    24f0: 86 14        	stx	$14                     ; 0x2014 <__putchar+0x31>
    24f2: 64 16        	stz	$16                     ; 0x2016 <__putchar+0x33>
    24f4: 64 15        	stz	$15                     ; 0x2015 <__putchar+0x32>
    24f6: 64 17        	stz	$17                     ; 0x2017 <__putchar+0x34>
    24f8: a0 01        	ldy	#$1
    24fa: 06 16        	asl	$16                     ; 0x2016 <__putchar+0x33>
    24fc: 26 17        	rol	$17                     ; 0x2017 <__putchar+0x34>
    24fe: a5 16        	lda	$16                     ; 0x2016 <__putchar+0x33>
    2500: 0a           	asl
    2501: aa           	tax
    2502: a5 17        	lda	$17                     ; 0x2017 <__putchar+0x34>
    2504: 2a           	rol
    2505: 86 18        	stx	$18                     ; 0x2018 <__putchar+0x35>
    2507: 06 18        	asl	$18                     ; 0x2018 <__putchar+0x35>
    2509: 2a           	rol
    250a: aa           	tax
    250b: a5 18        	lda	$18                     ; 0x2018 <__putchar+0x35>
    250d: 18           	clc
    250e: 65 16        	adc	$16                     ; 0x2016 <__putchar+0x33>
    2510: 85 16        	sta	$16                     ; 0x2016 <__putchar+0x33>
    2512: 8a           	txa
    2513: 65 17        	adc	$17                     ; 0x2017 <__putchar+0x34>
    2515: 85 17        	sta	$17                     ; 0x2017 <__putchar+0x34>
    2517: a5 16        	lda	$16                     ; 0x2016 <__putchar+0x33>
    2519: 18           	clc
    251a: 65 14        	adc	$14                     ; 0x2014 <__putchar+0x31>
    251c: 85 14        	sta	$14                     ; 0x2014 <__putchar+0x31>
    251e: a5 17        	lda	$17                     ; 0x2017 <__putchar+0x34>
    2520: 65 15        	adc	$15                     ; 0x2015 <__putchar+0x32>
    2522: aa           	tax
    2523: 18           	clc
    2524: a5 14        	lda	$14                     ; 0x2014 <__putchar+0x31>
    2526: 69 d0        	adc	#$d0
    2528: 85 16        	sta	$16                     ; 0x2016 <__putchar+0x33>
    252a: 8a           	txa
    252b: 69 ff        	adc	#$ff
    252d: 85 17        	sta	$17                     ; 0x2017 <__putchar+0x34>
    252f: b1 12        	lda	($12),y                 ; 0x2012 <__putchar+0x2f>
    2531: 85 14        	sta	$14                     ; 0x2014 <__putchar+0x31>
    2533: 18           	clc
    2534: 69 d0        	adc	#$d0
    2536: e6 12        	inc	$12                     ; 0x2012 <__putchar+0x2f>
    2538: d0 02        	bne	$253c <printf+0x1bc>
    253a: e6 13        	inc	$13                     ; 0x2013 <__putchar+0x30>
    253c: c9 0a        	cmp	#$a
    253e: 64 15        	stz	$15                     ; 0x2015 <__putchar+0x32>
    2540: 90 b8        	bcc	$24fa <printf+0x17a>
    2542: 80 4a        	bra	$258e <printf+0x20e>
    2544: 84 13        	sty	$13                     ; 0x2013 <__putchar+0x30>
    2546: c5 cc        	cmp	$cc                     ; 0x20cc <__putchar+0xe9>
    2548: a0 01        	ldy	#$1
    254a: b0 26        	bcs	$2572 <printf+0x1f2>
    254c: a6 d8        	ldx	$d8                     ; 0x20d8 <__putchar+0xf5>
    254e: e4 9d        	cpx	$9d                     ; 0x209d <__putchar+0xba>
    2550: d0 19        	bne	$256b <printf+0x1eb>
    2552: a6 d7        	ldx	$d7                     ; 0x20d7 <__putchar+0xf4>
    2554: e4 9c        	cpx	$9c                     ; 0x209c <__putchar+0xb9>
    2556: d0 13        	bne	$256b <printf+0x1eb>
    2558: 18           	clc
    2559: aa           	tax
    255a: a5 13        	lda	$13                     ; 0x2013 <__putchar+0x30>
    255c: 65 d1        	adc	$d1                     ; 0x20d1 <__putchar+0xee>
    255e: 85 12        	sta	$12                     ; 0x2012 <__putchar+0x2f>
    2560: 8a           	txa
    2561: 65 d2        	adc	$d2                     ; 0x20d2 <__putchar+0xef>
    2563: 85 13        	sta	$13                     ; 0x2013 <__putchar+0x30>
    2565: a9 25        	lda	#$25
    2567: 92 12        	sta	($12)                   ; 0x2012 <__putchar+0x2f>
    2569: 80 07        	bra	$2572 <printf+0x1f2>
    256b: a9 25        	lda	#$25
    256d: 20 e3 1f     	jsr	$1fe3 <__putchar>
    2570: a0 01        	ldy	#$1
    2572: e6 cd        	inc	$cd                     ; 0x20cd <__putchar+0xea>
    2574: d0 02        	bne	$2578 <printf+0x1f8>
    2576: e6 ce        	inc	$ce                     ; 0x20ce <__putchar+0xeb>
    2578: a5 9e        	lda	$9e                     ; 0x209e <__putchar+0xbb>
    257a: 18           	clc
    257b: 69 02        	adc	#$2
    257d: 85 9a        	sta	$9a                     ; 0x209a <__putchar+0xb7>
    257f: a5 9f        	lda	$9f                     ; 0x209f <__putchar+0xbc>
    2581: 69 00        	adc	#$0
    2583: 85 9b        	sta	$9b                     ; 0x209b <__putchar+0xb8>
    2585: 4c e5 23     	jmp	$23e5 <printf+0x65>
    2588: 64 16        	stz	$16                     ; 0x2016 <__putchar+0x33>
    258a: 64 17        	stz	$17                     ; 0x2017 <__putchar+0x34>
    258c: a0 01        	ldy	#$1
    258e: a6 16        	ldx	$16                     ; 0x2016 <__putchar+0x33>
    2590: 86 d3        	stx	$d3                     ; 0x20d3 <__putchar+0xf0>
    2592: a5 17        	lda	$17                     ; 0x2017 <__putchar+0x34>
    2594: 85 d4        	sta	$d4                     ; 0x20d4 <__putchar+0xf1>
    2596: 86 a2        	stx	$a2                     ; 0x20a2 <__putchar+0xbf>
    2598: 85 a0        	sta	$a0                     ; 0x20a0 <__putchar+0xbd>
    259a: b2 12        	lda	($12)                   ; 0x2012 <__putchar+0x2f>
    259c: a2 ff        	ldx	#$ff
    259e: c9 2e        	cmp	#$2e
    25a0: d0 39        	bne	$25db <printf+0x25b>
    25a2: b1 12        	lda	($12),y                 ; 0x2012 <__putchar+0x2f>
    25a4: c9 2a        	cmp	#$2a
    25a6: d0 38        	bne	$25e0 <printf+0x260>
    25a8: a5 d9        	lda	$d9                     ; 0x20d9 <__putchar+0xf6>
    25aa: a6 da        	ldx	$da                     ; 0x20da <__putchar+0xf7>
    25ac: 85 14        	sta	$14                     ; 0x2014 <__putchar+0x31>
    25ae: 86 15        	stx	$15                     ; 0x2015 <__putchar+0x32>
    25b0: 18           	clc
    25b1: 69 02        	adc	#$2
    25b3: 85 16        	sta	$16                     ; 0x2016 <__putchar+0x33>
    25b5: 8a           	txa
    25b6: 69 00        	adc	#$0
    25b8: a6 16        	ldx	$16                     ; 0x2016 <__putchar+0x33>
    25ba: 86 d9        	stx	$d9                     ; 0x20d9 <__putchar+0xf6>
    25bc: 85 da        	sta	$da                     ; 0x20da <__putchar+0xf7>
    25be: a5 12        	lda	$12                     ; 0x2012 <__putchar+0x2f>
    25c0: 18           	clc
    25c1: 69 02        	adc	#$2
    25c3: 85 12        	sta	$12                     ; 0x2012 <__putchar+0x2f>
    25c5: a5 13        	lda	$13                     ; 0x2013 <__putchar+0x30>
    25c7: 69 00        	adc	#$0
    25c9: 85 13        	sta	$13                     ; 0x2013 <__putchar+0x30>
    25cb: b2 14        	lda	($14)                   ; 0x2014 <__putchar+0x31>
    25cd: aa           	tax
    25ce: b1 14        	lda	($14),y                 ; 0x2014 <__putchar+0x31>
    25d0: 86 18        	stx	$18                     ; 0x2018 <__putchar+0x35>
    25d2: 86 d5        	stx	$d5                     ; 0x20d5 <__putchar+0xf2>
    25d4: 85 19        	sta	$19                     ; 0x2019 <__putchar+0x36>
    25d6: 85 d6        	sta	$d6                     ; 0x20d6 <__putchar+0xf3>
    25d8: 4c 8b 26     	jmp	$268b <printf+0x30b>
    25db: 86 18        	stx	$18                     ; 0x2018 <__putchar+0x35>
    25dd: 4c 9b 26     	jmp	$269b <printf+0x31b>
    25e0: 85 17        	sta	$17                     ; 0x2017 <__putchar+0x34>
    25e2: 18           	clc
    25e3: 69 d0        	adc	#$d0
    25e5: c9 0a        	cmp	#$a
    25e7: 90 03        	bcc	$25ec <printf+0x26c>
    25e9: 4c 7d 26     	jmp	$267d <printf+0x2fd>
    25ec: 64 16        	stz	$16                     ; 0x2016 <__putchar+0x33>
    25ee: a2 01        	ldx	#$1
    25f0: 64 18        	stz	$18                     ; 0x2018 <__putchar+0x35>
    25f2: 64 19        	stz	$19                     ; 0x2019 <__putchar+0x36>
    25f4: a0 01        	ldy	#$1
    25f6: 64 1a        	stz	$1a                     ; 0x201a <__putchar+0x37>
    25f8: 5a           	phy
    25f9: a4 1a        	ldy	$1a                     ; 0x201a <__putchar+0x37>
    25fb: 84 14        	sty	$14                     ; 0x2014 <__putchar+0x31>
    25fd: 86 15        	stx	$15                     ; 0x2015 <__putchar+0x32>
    25ff: 06 18        	asl	$18                     ; 0x2018 <__putchar+0x35>
    2601: 26 19        	rol	$19                     ; 0x2019 <__putchar+0x36>
    2603: a5 18        	lda	$18                     ; 0x2018 <__putchar+0x35>
    2605: 0a           	asl
    2606: 85 1d        	sta	$1d                     ; 0x201d <__putchar+0x3a>
    2608: a5 19        	lda	$19                     ; 0x2019 <__putchar+0x36>
    260a: 2a           	rol
    260b: 06 1d        	asl	$1d                     ; 0x201d <__putchar+0x3a>
    260d: 2a           	rol
    260e: 85 1e        	sta	$1e                     ; 0x201e <__putchar+0x3b>
    2610: a5 1d        	lda	$1d                     ; 0x201d <__putchar+0x3a>
    2612: 18           	clc
    2613: 65 18        	adc	$18                     ; 0x2018 <__putchar+0x35>
    2615: 85 18        	sta	$18                     ; 0x2018 <__putchar+0x35>
    2617: a5 1e        	lda	$1e                     ; 0x201e <__putchar+0x3b>
    2619: 65 19        	adc	$19                     ; 0x2019 <__putchar+0x36>
    261b: 85 19        	sta	$19                     ; 0x2019 <__putchar+0x36>
    261d: a5 18        	lda	$18                     ; 0x2018 <__putchar+0x35>
    261f: 18           	clc
    2620: 65 17        	adc	$17                     ; 0x2017 <__putchar+0x34>
    2622: 85 17        	sta	$17                     ; 0x2017 <__putchar+0x34>
    2624: a5 19        	lda	$19                     ; 0x2019 <__putchar+0x36>
    2626: 65 16        	adc	$16                     ; 0x2016 <__putchar+0x33>
    2628: 85 16        	sta	$16                     ; 0x2016 <__putchar+0x33>
    262a: 18           	clc
    262b: a5 17        	lda	$17                     ; 0x2017 <__putchar+0x34>
    262d: 69 d0        	adc	#$d0
    262f: 85 18        	sta	$18                     ; 0x2018 <__putchar+0x35>
    2631: a5 16        	lda	$16                     ; 0x2016 <__putchar+0x33>
    2633: 69 ff        	adc	#$ff
    2635: 85 19        	sta	$19                     ; 0x2019 <__putchar+0x36>
    2637: e8           	inx
    2638: d0 02        	bne	$263c <printf+0x2bc>
    263a: e6 1a        	inc	$1a                     ; 0x201a <__putchar+0x37>
    263c: a5 12        	lda	$12                     ; 0x2012 <__putchar+0x2f>
    263e: 18           	clc
    263f: 65 15        	adc	$15                     ; 0x2015 <__putchar+0x32>
    2641: 85 1d        	sta	$1d                     ; 0x201d <__putchar+0x3a>
    2643: a5 13        	lda	$13                     ; 0x2013 <__putchar+0x30>
    2645: 65 14        	adc	$14                     ; 0x2014 <__putchar+0x31>
    2647: a4 1d        	ldy	$1d                     ; 0x201d <__putchar+0x3a>
    2649: 84 16        	sty	$16                     ; 0x2016 <__putchar+0x33>
    264b: 7a           	ply
    264c: 85 17        	sta	$17                     ; 0x2017 <__putchar+0x34>
    264e: b1 16        	lda	($16),y                 ; 0x2016 <__putchar+0x33>
    2650: 85 17        	sta	$17                     ; 0x2017 <__putchar+0x34>
    2652: 18           	clc
    2653: 69 d0        	adc	#$d0
    2655: c9 0a        	cmp	#$a
    2657: 64 16        	stz	$16                     ; 0x2016 <__putchar+0x33>
    2659: b0 03        	bcs	$265e <printf+0x2de>
    265b: 4c f8 25     	jmp	$25f8 <printf+0x278>
    265e: a5 12        	lda	$12                     ; 0x2012 <__putchar+0x2f>
    2660: 18           	clc
    2661: 65 15        	adc	$15                     ; 0x2015 <__putchar+0x32>
    2663: 85 12        	sta	$12                     ; 0x2012 <__putchar+0x2f>
    2665: a5 13        	lda	$13                     ; 0x2013 <__putchar+0x30>
    2667: 65 14        	adc	$14                     ; 0x2014 <__putchar+0x31>
    2669: 85 13        	sta	$13                     ; 0x2013 <__putchar+0x30>
    266b: e6 12        	inc	$12                     ; 0x2012 <__putchar+0x2f>
    266d: d0 02        	bne	$2671 <printf+0x2f1>
    266f: e6 13        	inc	$13                     ; 0x2013 <__putchar+0x30>
    2671: a6 18        	ldx	$18                     ; 0x2018 <__putchar+0x35>
    2673: 86 d5        	stx	$d5                     ; 0x20d5 <__putchar+0xf2>
    2675: a6 19        	ldx	$19                     ; 0x2019 <__putchar+0x36>
    2677: 86 d6        	stx	$d6                     ; 0x20d6 <__putchar+0xf3>
    2679: a0 01        	ldy	#$1
    267b: 80 0e        	bra	$268b <printf+0x30b>
    267d: e6 12        	inc	$12                     ; 0x2012 <__putchar+0x2f>
    267f: d0 02        	bne	$2683 <printf+0x303>
    2681: e6 13        	inc	$13                     ; 0x2013 <__putchar+0x30>
    2683: 64 18        	stz	$18                     ; 0x2018 <__putchar+0x35>
    2685: 64 d5        	stz	$d5                     ; 0x20d5 <__putchar+0xf2>
    2687: 64 d6        	stz	$d6                     ; 0x20d6 <__putchar+0xf3>
    2689: 64 19        	stz	$19                     ; 0x2019 <__putchar+0x36>
    268b: a5 99        	lda	$99                     ; 0x2099 <__putchar+0xb6>
    268d: 29 ef        	and	#$ef
    268f: 85 99        	sta	$99                     ; 0x2099 <__putchar+0xb6>
    2691: 85 c9        	sta	$c9                     ; 0x20c9 <__putchar+0xe6>
    2693: a2 00        	ldx	#$0
    2695: 86 ca        	stx	$ca                     ; 0x20ca <__putchar+0xe7>
    2697: b2 12        	lda	($12)                   ; 0x2012 <__putchar+0x2f>
    2699: a6 19        	ldx	$19                     ; 0x2019 <__putchar+0x36>
    269b: 86 15        	stx	$15                     ; 0x2015 <__putchar+0x32>
    269d: a6 12        	ldx	$12                     ; 0x2012 <__putchar+0x2f>
    269f: 86 9a        	stx	$9a                     ; 0x209a <__putchar+0xb7>
    26a1: a6 13        	ldx	$13                     ; 0x2013 <__putchar+0x30>
    26a3: 86 9b        	stx	$9b                     ; 0x209b <__putchar+0xb8>
    26a5: e6 9a        	inc	$9a                     ; 0x209a <__putchar+0xb7>
    26a7: d0 02        	bne	$26ab <printf+0x32b>
    26a9: e6 9b        	inc	$9b                     ; 0x209b <__putchar+0xb8>
    26ab: 85 14        	sta	$14                     ; 0x2014 <__putchar+0x31>
    26ad: 38           	sec
    26ae: e9 6c        	sbc	#$6c
    26b0: 50 02        	bvc	$26b4 <printf+0x334>
    26b2: 49 80        	eor	#$80
    26b4: aa           	tax
    26b5: 10 1d        	bpl	$26d4 <printf+0x354>
    26b7: a5 14        	lda	$14                     ; 0x2014 <__putchar+0x31>
    26b9: c9 4c        	cmp	#$4c
    26bb: f0 27        	beq	$26e4 <printf+0x364>
    26bd: c9 68        	cmp	#$68
    26bf: d0 03        	bne	$26c4 <printf+0x344>
    26c1: 4c 4b 27     	jmp	$274b <printf+0x3cb>
    26c4: a2 08        	ldx	#$8
    26c6: c9 6a        	cmp	#$6a
    26c8: d0 2e        	bne	$26f8 <printf+0x378>
    26ca: a5 9a        	lda	$9a                     ; 0x209a <__putchar+0xb7>
    26cc: 85 12        	sta	$12                     ; 0x2012 <__putchar+0x2f>
    26ce: a5 9b        	lda	$9b                     ; 0x209b <__putchar+0xb8>
    26d0: 85 13        	sta	$13                     ; 0x2013 <__putchar+0x30>
    26d2: 80 43        	bra	$2717 <printf+0x397>
    26d4: a6 14        	ldx	$14                     ; 0x2014 <__putchar+0x31>
    26d6: e0 6c        	cpx	#$6c
    26d8: f0 23        	beq	$26fd <printf+0x37d>
    26da: e0 74        	cpx	#$74
    26dc: f0 12        	beq	$26f0 <printf+0x370>
    26de: e0 7a        	cpx	#$7a
    26e0: f0 0e        	beq	$26f0 <printf+0x370>
    26e2: 80 14        	bra	$26f8 <printf+0x378>
    26e4: a5 99        	lda	$99                     ; 0x2099 <__putchar+0xb6>
    26e6: 09 40        	ora	#$40
    26e8: 85 99        	sta	$99                     ; 0x2099 <__putchar+0xb6>
    26ea: 85 c9        	sta	$c9                     ; 0x20c9 <__putchar+0xe6>
    26ec: a2 00        	ldx	#$0
    26ee: 86 ca        	stx	$ca                     ; 0x20ca <__putchar+0xe7>
    26f0: a6 9a        	ldx	$9a                     ; 0x209a <__putchar+0xb7>
    26f2: 86 12        	stx	$12                     ; 0x2012 <__putchar+0x2f>
    26f4: a6 9b        	ldx	$9b                     ; 0x209b <__putchar+0xb8>
    26f6: 86 13        	stx	$13                     ; 0x2013 <__putchar+0x30>
    26f8: a2 02        	ldx	#$2
    26fa: 8a           	txa
    26fb: 80 1c        	bra	$2719 <printf+0x399>
    26fd: b1 12        	lda	($12),y                 ; 0x2012 <__putchar+0x2f>
    26ff: a2 04        	ldx	#$4
    2701: c9 6c        	cmp	#$6c
    2703: f0 03        	beq	$2708 <printf+0x388>
    2705: 4c 4a 2a     	jmp	$2a4a <printf+0x6ca>
    2708: a5 12        	lda	$12                     ; 0x2012 <__putchar+0x2f>
    270a: 18           	clc
    270b: 69 02        	adc	#$2
    270d: 85 12        	sta	$12                     ; 0x2012 <__putchar+0x2f>
    270f: a5 13        	lda	$13                     ; 0x2013 <__putchar+0x30>
    2711: 69 00        	adc	#$0
    2713: 85 13        	sta	$13                     ; 0x2013 <__putchar+0x30>
    2715: a2 08        	ldx	#$8
    2717: a9 08        	lda	#$8
    2719: 85 df        	sta	$df                     ; 0x20df <__putchar+0xfc>
    271b: b2 12        	lda	($12)                   ; 0x2012 <__putchar+0x2f>
    271d: 5a           	phy
    271e: a4 12        	ldy	$12                     ; 0x2012 <__putchar+0x2f>
    2720: 84 9a        	sty	$9a                     ; 0x209a <__putchar+0xb7>
    2722: a4 13        	ldy	$13                     ; 0x2013 <__putchar+0x30>
    2724: 84 9b        	sty	$9b                     ; 0x209b <__putchar+0xb8>
    2726: 7a           	ply
    2727: 86 9c        	stx	$9c                     ; 0x209c <__putchar+0xb9>
    2729: aa           	tax
    272a: 38           	sec
    272b: e9 63        	sbc	#$63
    272d: c9 16        	cmp	#$16
    272f: b0 39        	bcs	$276a <printf+0x3ea>
    2731: 0a           	asl
    2732: aa           	tax
    2733: 7c a7 2f     	jmp	($2fa7,x)               ; 0x2fa7 <__set_v+0x1f>
    2736: a6 15        	ldx	$15                     ; 0x2015 <__putchar+0x32>
    2738: 86 dd        	stx	$dd                     ; 0x20dd <__putchar+0xfa>
    273a: a6 18        	ldx	$18                     ; 0x2018 <__putchar+0x35>
    273c: 86 e2        	stx	$e2                     ; 0x20e2 <__putchar+0xff>
    273e: a0 0a        	ldy	#$a
    2740: a2 0a        	ldx	#$a
    2742: 86 de        	stx	$de                     ; 0x20de <__putchar+0xfb>
    2744: 84 c8        	sty	$c8                     ; 0x20c8 <__putchar+0xe5>
    2746: 64 a3        	stz	$a3                     ; 0x20a3 <__putchar+0xc0>
    2748: 4c 6a 28     	jmp	$286a <printf+0x4ea>
    274b: b1 12        	lda	($12),y                 ; 0x2012 <__putchar+0x2f>
    274d: a2 02        	ldx	#$2
    274f: c9 68        	cmp	#$68
    2751: f0 03        	beq	$2756 <printf+0x3d6>
    2753: 4c 50 2a     	jmp	$2a50 <printf+0x6d0>
    2756: a5 12        	lda	$12                     ; 0x2012 <__putchar+0x2f>
    2758: 18           	clc
    2759: 69 02        	adc	#$2
    275b: 85 12        	sta	$12                     ; 0x2012 <__putchar+0x2f>
    275d: a5 13        	lda	$13                     ; 0x2013 <__putchar+0x30>
    275f: 69 00        	adc	#$0
    2761: 85 13        	sta	$13                     ; 0x2013 <__putchar+0x30>
    2763: a2 01        	ldx	#$1
    2765: 86 df        	stx	$df                     ; 0x20df <__putchar+0xfc>
    2767: e8           	inx
    2768: 80 b1        	bra	$271b <printf+0x39b>
    276a: e0 58        	cpx	#$58
    276c: f0 03        	beq	$2771 <printf+0x3f1>
    276e: 4c eb 2e     	jmp	$2eeb <printf+0xb6b>
    2771: a6 15        	ldx	$15                     ; 0x2015 <__putchar+0x32>
    2773: 86 dd        	stx	$dd                     ; 0x20dd <__putchar+0xfa>
    2775: a6 18        	ldx	$18                     ; 0x2018 <__putchar+0x35>
    2777: 86 e2        	stx	$e2                     ; 0x20e2 <__putchar+0xff>
    2779: a2 10        	ldx	#$10
    277b: 86 c8        	stx	$c8                     ; 0x20c8 <__putchar+0xe5>
    277d: a9 00        	lda	#$0
    277f: 09 01        	ora	#$1
    2781: a6 99        	ldx	$99                     ; 0x2099 <__putchar+0xb6>
    2783: 80 29        	bra	$27ae <printf+0x42e>
    2785: a6 15        	ldx	$15                     ; 0x2015 <__putchar+0x32>
    2787: 86 dd        	stx	$dd                     ; 0x20dd <__putchar+0xfa>
    2789: a6 18        	ldx	$18                     ; 0x2018 <__putchar+0x35>
    278b: 86 e2        	stx	$e2                     ; 0x20e2 <__putchar+0xff>
    278d: a2 10        	ldx	#$10
    278f: 86 c8        	stx	$c8                     ; 0x20c8 <__putchar+0xe5>
    2791: a5 99        	lda	$99                     ; 0x2099 <__putchar+0xb6>
    2793: 09 84        	ora	#$84
    2795: 80 10        	bra	$27a7 <printf+0x427>
    2797: a6 15        	ldx	$15                     ; 0x2015 <__putchar+0x32>
    2799: 86 dd        	stx	$dd                     ; 0x20dd <__putchar+0xfa>
    279b: a6 18        	ldx	$18                     ; 0x2018 <__putchar+0x35>
    279d: 86 e2        	stx	$e2                     ; 0x20e2 <__putchar+0xff>
    279f: a2 10        	ldx	#$10
    27a1: 86 c8        	stx	$c8                     ; 0x20c8 <__putchar+0xe5>
    27a3: a5 99        	lda	$99                     ; 0x2099 <__putchar+0xb6>
    27a5: 09 80        	ora	#$80
    27a7: aa           	tax
    27a8: a9 00        	lda	#$0
    27aa: 09 01        	ora	#$1
    27ac: 86 99        	stx	$99                     ; 0x2099 <__putchar+0xb6>
    27ae: 86 c9        	stx	$c9                     ; 0x20c9 <__putchar+0xe6>
    27b0: 85 a3        	sta	$a3                     ; 0x20a3 <__putchar+0xc0>
    27b2: 85 ca        	sta	$ca                     ; 0x20ca <__putchar+0xe7>
    27b4: a2 10        	ldx	#$10
    27b6: 86 de        	stx	$de                     ; 0x20de <__putchar+0xfb>
    27b8: 4c 6a 28     	jmp	$286a <printf+0x4ea>
    27bb: a5 d9        	lda	$d9                     ; 0x20d9 <__putchar+0xf6>
    27bd: a6 da        	ldx	$da                     ; 0x20da <__putchar+0xf7>
    27bf: 85 12        	sta	$12                     ; 0x2012 <__putchar+0x2f>
    27c1: 86 13        	stx	$13                     ; 0x2013 <__putchar+0x30>
    27c3: 18           	clc
    27c4: 69 02        	adc	#$2
    27c6: 85 14        	sta	$14                     ; 0x2014 <__putchar+0x31>
    27c8: 8a           	txa
    27c9: 69 00        	adc	#$0
    27cb: a6 14        	ldx	$14                     ; 0x2014 <__putchar+0x31>
    27cd: 86 d9        	stx	$d9                     ; 0x20d9 <__putchar+0xf6>
    27cf: 85 da        	sta	$da                     ; 0x20da <__putchar+0xf7>
    27d1: b2 12        	lda	($12)                   ; 0x2012 <__putchar+0x2f>
    27d3: aa           	tax
    27d4: b1 12        	lda	($12),y                 ; 0x2012 <__putchar+0x2f>
    27d6: 86 12        	stx	$12                     ; 0x2012 <__putchar+0x2f>
    27d8: 85 13        	sta	$13                     ; 0x2013 <__putchar+0x30>
    27da: a5 cd        	lda	$cd                     ; 0x20cd <__putchar+0xea>
    27dc: a6 ce        	ldx	$ce                     ; 0x20ce <__putchar+0xeb>
    27de: 92 12        	sta	($12)                   ; 0x2012 <__putchar+0x2f>
    27e0: 8a           	txa
    27e1: 91 12        	sta	($12),y                 ; 0x2012 <__putchar+0x2f>
    27e3: 4c 43 28     	jmp	$2843 <printf+0x4c3>
    27e6: a5 d9        	lda	$d9                     ; 0x20d9 <__putchar+0xf6>
    27e8: a6 da        	ldx	$da                     ; 0x20da <__putchar+0xf7>
    27ea: 85 12        	sta	$12                     ; 0x2012 <__putchar+0x2f>
    27ec: 86 13        	stx	$13                     ; 0x2013 <__putchar+0x30>
    27ee: 18           	clc
    27ef: 69 02        	adc	#$2
    27f1: 85 14        	sta	$14                     ; 0x2014 <__putchar+0x31>
    27f3: 8a           	txa
    27f4: 69 00        	adc	#$0
    27f6: a6 14        	ldx	$14                     ; 0x2014 <__putchar+0x31>
    27f8: 86 d9        	stx	$d9                     ; 0x20d9 <__putchar+0xf6>
    27fa: 85 da        	sta	$da                     ; 0x20da <__putchar+0xf7>
    27fc: b2 12        	lda	($12)                   ; 0x2012 <__putchar+0x2f>
    27fe: aa           	tax
    27ff: b1 12        	lda	($12),y                 ; 0x2012 <__putchar+0x2f>
    2801: 86 12        	stx	$12                     ; 0x2012 <__putchar+0x2f>
    2803: 85 13        	sta	$13                     ; 0x2013 <__putchar+0x30>
    2805: 80 2f        	bra	$2836 <printf+0x4b6>
    2807: a6 15        	ldx	$15                     ; 0x2015 <__putchar+0x32>
    2809: 86 dd        	stx	$dd                     ; 0x20dd <__putchar+0xfa>
    280b: a6 18        	ldx	$18                     ; 0x2018 <__putchar+0x35>
    280d: 86 e2        	stx	$e2                     ; 0x20e2 <__putchar+0xff>
    280f: a0 08        	ldy	#$8
    2811: a2 08        	ldx	#$8
    2813: 80 45        	bra	$285a <printf+0x4da>
    2815: a5 d9        	lda	$d9                     ; 0x20d9 <__putchar+0xf6>
    2817: a6 da        	ldx	$da                     ; 0x20da <__putchar+0xf7>
    2819: 85 12        	sta	$12                     ; 0x2012 <__putchar+0x2f>
    281b: 86 13        	stx	$13                     ; 0x2013 <__putchar+0x30>
    281d: 18           	clc
    281e: 69 02        	adc	#$2
    2820: a8           	tay
    2821: 8a           	txa
    2822: 69 00        	adc	#$0
    2824: 84 d9        	sty	$d9                     ; 0x20d9 <__putchar+0xf6>
    2826: 85 da        	sta	$da                     ; 0x20da <__putchar+0xf7>
    2828: b2 12        	lda	($12)                   ; 0x2012 <__putchar+0x2f>
    282a: 85 bb        	sta	$bb                     ; 0x20bb <__putchar+0xd8>
    282c: 64 bc        	stz	$bc                     ; 0x20bc <__putchar+0xd9>
    282e: a2 bb        	ldx	#$bb
    2830: 86 12        	stx	$12                     ; 0x2012 <__putchar+0x2f>
    2832: a2 00        	ldx	#$0
    2834: 86 13        	stx	$13                     ; 0x2013 <__putchar+0x30>
    2836: a2 c8        	ldx	#$c8
    2838: 86 14        	stx	$14                     ; 0x2014 <__putchar+0x31>
    283a: a2 00        	ldx	#$0
    283c: 86 15        	stx	$15                     ; 0x2015 <__putchar+0x32>
    283e: 20 73 22     	jsr	$2273 <_ZN12_GLOBAL__N_112print_stringEPKcP6Status>
    2841: a0 01        	ldy	#$1
    2843: a2 00        	ldx	#$0
    2845: 86 9c        	stx	$9c                     ; 0x209c <__putchar+0xb9>
    2847: a2 00        	ldx	#$0
    2849: 86 9d        	stx	$9d                     ; 0x209d <__putchar+0xba>
    284b: 4c d3 2e     	jmp	$2ed3 <printf+0xb53>
    284e: a6 15        	ldx	$15                     ; 0x2015 <__putchar+0x32>
    2850: 86 dd        	stx	$dd                     ; 0x20dd <__putchar+0xfa>
    2852: a6 18        	ldx	$18                     ; 0x2018 <__putchar+0x35>
    2854: 86 e2        	stx	$e2                     ; 0x20e2 <__putchar+0xff>
    2856: a0 0a        	ldy	#$a
    2858: a2 0a        	ldx	#$a
    285a: 86 de        	stx	$de                     ; 0x20de <__putchar+0xfb>
    285c: 84 c8        	sty	$c8                     ; 0x20c8 <__putchar+0xe5>
    285e: a9 00        	lda	#$0
    2860: 09 01        	ora	#$1
    2862: a6 99        	ldx	$99                     ; 0x2099 <__putchar+0xb6>
    2864: 86 c9        	stx	$c9                     ; 0x20c9 <__putchar+0xe6>
    2866: 85 a3        	sta	$a3                     ; 0x20a3 <__putchar+0xc0>
    2868: 85 ca        	sta	$ca                     ; 0x20ca <__putchar+0xe7>
    286a: a5 df        	lda	$df                     ; 0x20df <__putchar+0xfc>
    286c: 85 bd        	sta	$bd                     ; 0x20bd <__putchar+0xda>
    286e: a4 d9        	ldy	$d9                     ; 0x20d9 <__putchar+0xf6>
    2870: a6 da        	ldx	$da                     ; 0x20da <__putchar+0xf7>
    2872: 86 a1        	stx	$a1                     ; 0x20a1 <__putchar+0xbe>
    2874: 84 14        	sty	$14                     ; 0x2014 <__putchar+0x31>
    2876: 84 98        	sty	$98                     ; 0x2098 <__putchar+0xb5>
    2878: 86 15        	stx	$15                     ; 0x2015 <__putchar+0x32>
    287a: a6 e0        	ldx	$e0                     ; 0x20e0 <__putchar+0xfd>
    287c: 86 12        	stx	$12                     ; 0x2012 <__putchar+0x2f>
    287e: a6 e1        	ldx	$e1                     ; 0x20e1 <__putchar+0xfe>
    2880: 86 13        	stx	$13                     ; 0x2013 <__putchar+0x30>
    2882: a2 00        	ldx	#$0
    2884: 85 9d        	sta	$9d                     ; 0x209d <__putchar+0xba>
    2886: 20 3c 2f     	jsr	$2f3c <memcpy>
    2889: 18           	clc
    288a: a5 98        	lda	$98                     ; 0x2098 <__putchar+0xb5>
    288c: 65 9c        	adc	$9c                     ; 0x209c <__putchar+0xb9>
    288e: aa           	tax
    288f: a5 a1        	lda	$a1                     ; 0x20a1 <__putchar+0xbe>
    2891: 69 00        	adc	#$0
    2893: 86 d9        	stx	$d9                     ; 0x20d9 <__putchar+0xf6>
    2895: 85 da        	sta	$da                     ; 0x20da <__putchar+0xf7>
    2897: a5 a3        	lda	$a3                     ; 0x20a3 <__putchar+0xc0>
    2899: 29 01        	and	#$1
    289b: b8           	clv
    289c: f0 03        	beq	$28a1 <printf+0x521>
    289e: 4c f5 28     	jmp	$28f5 <printf+0x575>
    28a1: a6 9d        	ldx	$9d                     ; 0x209d <__putchar+0xba>
    28a3: b5 bd        	lda	$bd,x                   ; 0x20bd <__putchar+0xda>
    28a5: aa           	tax
    28a6: a0 01        	ldy	#$1
    28a8: a5 a0        	lda	$a0                     ; 0x20a0 <__putchar+0xbd>
    28aa: 85 1a        	sta	$1a                     ; 0x201a <__putchar+0x37>
    28ac: a5 e2        	lda	$e2                     ; 0x20e2 <__putchar+0xff>
    28ae: 85 a0        	sta	$a0                     ; 0x20a0 <__putchar+0xbd>
    28b0: a9 00        	lda	#$0
    28b2: 85 9c        	sta	$9c                     ; 0x209c <__putchar+0xb9>
    28b4: a9 00        	lda	#$0
    28b6: 85 9d        	sta	$9d                     ; 0x209d <__putchar+0xba>
    28b8: a5 dd        	lda	$dd                     ; 0x20dd <__putchar+0xfa>
    28ba: 85 a1        	sta	$a1                     ; 0x20a1 <__putchar+0xbe>
    28bc: 8a           	txa
    28bd: 10 4c        	bpl	$290b <printf+0x58b>
    28bf: a2 00        	ldx	#$0
    28c1: 64 12        	stz	$12                     ; 0x2012 <__putchar+0x2f>
    28c3: a9 00        	lda	#$0
    28c5: 38           	sec
    28c6: f5 be        	sbc	$be,x                   ; 0x20be <__putchar+0xdb>
    28c8: a0 00        	ldy	#$0
    28ca: b0 02        	bcs	$28ce <printf+0x54e>
    28cc: a0 01        	ldy	#$1
    28ce: 38           	sec
    28cf: e5 12        	sbc	$12                     ; 0x2012 <__putchar+0x2f>
    28d1: 85 13        	sta	$13                     ; 0x2013 <__putchar+0x30>
    28d3: 64 12        	stz	$12                     ; 0x2012 <__putchar+0x2f>
    28d5: b0 04        	bcs	$28db <printf+0x55b>
    28d7: a9 01        	lda	#$1
    28d9: 85 12        	sta	$12                     ; 0x2012 <__putchar+0x2f>
    28db: 98           	tya
    28dc: 05 12        	ora	$12                     ; 0x2012 <__putchar+0x2f>
    28de: 85 12        	sta	$12                     ; 0x2012 <__putchar+0x2f>
    28e0: a5 13        	lda	$13                     ; 0x2013 <__putchar+0x30>
    28e2: 9d be 00     	sta	$be,x                   ; 0xbe <__zp_bss_size+0x58>
    28e5: e8           	inx
    28e6: 86 13        	stx	$13                     ; 0x2013 <__putchar+0x30>
    28e8: a4 df        	ldy	$df                     ; 0x20df <__putchar+0xfc>
    28ea: c4 13        	cpy	$13                     ; 0x2013 <__putchar+0x30>
    28ec: d0 d5        	bne	$28c3 <printf+0x543>
    28ee: 2c 88 2f     	bit	$2f88                   ; 0x2f88 <__set_v>
    28f1: a0 01        	ldy	#$1
    28f3: 80 16        	bra	$290b <printf+0x58b>
    28f5: a0 01        	ldy	#$1
    28f7: a6 a0        	ldx	$a0                     ; 0x20a0 <__putchar+0xbd>
    28f9: 86 1a        	stx	$1a                     ; 0x201a <__putchar+0x37>
    28fb: a6 e2        	ldx	$e2                     ; 0x20e2 <__putchar+0xff>
    28fd: 86 a0        	stx	$a0                     ; 0x20a0 <__putchar+0xbd>
    28ff: a2 00        	ldx	#$0
    2901: 86 9c        	stx	$9c                     ; 0x209c <__putchar+0xb9>
    2903: a2 00        	ldx	#$0
    2905: 86 9d        	stx	$9d                     ; 0x209d <__putchar+0xba>
    2907: a6 dd        	ldx	$dd                     ; 0x20dd <__putchar+0xfa>
    2909: 86 a1        	stx	$a1                     ; 0x20a1 <__putchar+0xbe>
    290b: a2 01        	ldx	#$1
    290d: 70 02        	bvs	$2911 <printf+0x591>
    290f: a2 00        	ldx	#$0
    2911: 86 16        	stx	$16                     ; 0x2016 <__putchar+0x33>
    2913: a5 df        	lda	$df                     ; 0x20df <__putchar+0xfc>
    2915: 0a           	asl
    2916: 0a           	asl
    2917: 0a           	asl
    2918: 85 12        	sta	$12                     ; 0x2012 <__putchar+0x2f>
    291a: a2 00        	ldx	#$0
    291c: 8a           	txa
    291d: 4c d1 29     	jmp	$29d1 <printf+0x651>
    2920: da           	phx
    2921: 7a           	ply
    2922: c8           	iny
    2923: 9d a6 00     	sta	$a6,x                   ; 0xa6 <__zp_bss_size+0x40>
    2926: 5a           	phy
    2927: fa           	plx
    2928: c4 98        	cpy	$98                     ; 0x2098 <__putchar+0xb5>
    292a: f0 30        	beq	$295c <printf+0x5dc>
    292c: b5 a6        	lda	$a6,x                   ; 0x20a6 <__putchar+0xc3>
    292e: 0a           	asl
    292f: a4 dd        	ldy	$dd                     ; 0x20dd <__putchar+0xfa>
    2931: f0 02        	beq	$2935 <printf+0x5b5>
    2933: 09 01        	ora	#$1
    2935: a4 de        	ldy	$de                     ; 0x20de <__putchar+0xfb>
    2937: 84 14        	sty	$14                     ; 0x2014 <__putchar+0x31>
    2939: c5 14        	cmp	$14                     ; 0x2014 <__putchar+0x31>
    293b: a0 01        	ldy	#$1
    293d: b0 02        	bcs	$2941 <printf+0x5c1>
    293f: a0 00        	ldy	#$0
    2941: 84 dd        	sty	$dd                     ; 0x20dd <__putchar+0xfa>
    2943: 90 db        	bcc	$2920 <printf+0x5a0>
    2945: 38           	sec
    2946: e5 14        	sbc	$14                     ; 0x2014 <__putchar+0x31>
    2948: 9d a6 00     	sta	$a6,x                   ; 0xa6 <__zp_bss_size+0x40>
    294b: e8           	inx
    294c: e4 98        	cpx	$98                     ; 0x2098 <__putchar+0xb5>
    294e: d0 dc        	bne	$292c <printf+0x5ac>
    2950: a4 98        	ldy	$98                     ; 0x2098 <__putchar+0xb5>
    2952: a6 98        	ldx	$98                     ; 0x2098 <__putchar+0xb5>
    2954: e8           	inx
    2955: a9 01        	lda	#$1
    2957: 99 a6 00     	sta	$a6,y                   ; 0xa6 <__zp_bss_size+0x40>
    295a: 86 98        	stx	$98                     ; 0x2098 <__putchar+0xb5>
    295c: a6 df        	ldx	$df                     ; 0x20df <__putchar+0xfc>
    295e: b5 bd        	lda	$bd,x                   ; 0x20bd <__putchar+0xda>
    2960: aa           	tax
    2961: 30 0f        	bmi	$2972 <printf+0x5f2>
    2963: a0 01        	ldy	#$1
    2965: 80 42        	bra	$29a9 <printf+0x629>
    2967: a6 df        	ldx	$df                     ; 0x20df <__putchar+0xfc>
    2969: b5 bd        	lda	$bd,x                   ; 0x20bd <__putchar+0xda>
    296b: aa           	tax
    296c: 64 98        	stz	$98                     ; 0x2098 <__putchar+0xb5>
    296e: 10 39        	bpl	$29a9 <printf+0x629>
    2970: 80 2a        	bra	$299c <printf+0x61c>
    2972: a5 98        	lda	$98                     ; 0x2098 <__putchar+0xb5>
    2974: f0 24        	beq	$299a <printf+0x61a>
    2976: a2 00        	ldx	#$0
    2978: a4 de        	ldy	$de                     ; 0x20de <__putchar+0xfb>
    297a: 84 14        	sty	$14                     ; 0x2014 <__putchar+0x31>
    297c: b5 a6        	lda	$a6,x                   ; 0x20a6 <__putchar+0xc3>
    297e: 1a           	inc
    297f: f6 a6        	inc	$a6,x                   ; 0x20a6 <__putchar+0xc3>
    2981: c5 14        	cmp	$14                     ; 0x2014 <__putchar+0x31>
    2983: 90 de        	bcc	$2963 <printf+0x5e3>
    2985: a4 14        	ldy	$14                     ; 0x2014 <__putchar+0x31>
    2987: 84 13        	sty	$13                     ; 0x2013 <__putchar+0x30>
    2989: 38           	sec
    298a: e5 13        	sbc	$13                     ; 0x2013 <__putchar+0x30>
    298c: 9d a6 00     	sta	$a6,x                   ; 0xa6 <__zp_bss_size+0x40>
    298f: e8           	inx
    2990: 86 13        	stx	$13                     ; 0x2013 <__putchar+0x30>
    2992: a4 98        	ldy	$98                     ; 0x2098 <__putchar+0xb5>
    2994: c4 13        	cpy	$13                     ; 0x2013 <__putchar+0x30>
    2996: d0 e4        	bne	$297c <printf+0x5fc>
    2998: 80 02        	bra	$299c <printf+0x61c>
    299a: 64 98        	stz	$98                     ; 0x2098 <__putchar+0xb5>
    299c: a4 98        	ldy	$98                     ; 0x2098 <__putchar+0xb5>
    299e: a6 98        	ldx	$98                     ; 0x2098 <__putchar+0xb5>
    29a0: e8           	inx
    29a1: a9 01        	lda	#$1
    29a3: 99 a6 00     	sta	$a6,y                   ; 0xa6 <__zp_bss_size+0x40>
    29a6: a8           	tay
    29a7: 86 98        	stx	$98                     ; 0x2098 <__putchar+0xb5>
    29a9: a2 01        	ldx	#$1
    29ab: 64 13        	stz	$13                     ; 0x2013 <__putchar+0x30>
    29ad: a5 df        	lda	$df                     ; 0x20df <__putchar+0xfc>
    29af: 85 14        	sta	$14                     ; 0x2014 <__putchar+0x31>
    29b1: b5 bd        	lda	$bd,x                   ; 0x20bd <__putchar+0xda>
    29b3: 0a           	asl
    29b4: 64 15        	stz	$15                     ; 0x2015 <__putchar+0x32>
    29b6: 26 15        	rol	$15                     ; 0x2015 <__putchar+0x32>
    29b8: 05 13        	ora	$13                     ; 0x2013 <__putchar+0x30>
    29ba: 9d bd 00     	sta	$bd,x                   ; 0xbd <__zp_bss_size+0x57>
    29bd: e8           	inx
    29be: c6 14        	dec	$14                     ; 0x2014 <__putchar+0x31>
    29c0: a5 15        	lda	$15                     ; 0x2015 <__putchar+0x32>
    29c2: 85 13        	sta	$13                     ; 0x2013 <__putchar+0x30>
    29c4: a5 14        	lda	$14                     ; 0x2014 <__putchar+0x31>
    29c6: d0 e9        	bne	$29b1 <printf+0x631>
    29c8: a5 17        	lda	$17                     ; 0x2017 <__putchar+0x34>
    29ca: 1a           	inc
    29cb: c5 12        	cmp	$12                     ; 0x2012 <__putchar+0x2f>
    29cd: a6 98        	ldx	$98                     ; 0x2098 <__putchar+0xb5>
    29cf: b0 13        	bcs	$29e4 <printf+0x664>
    29d1: 85 17        	sta	$17                     ; 0x2017 <__putchar+0x34>
    29d3: 8a           	txa
    29d4: d0 03        	bne	$29d9 <printf+0x659>
    29d6: 4c 67 29     	jmp	$2967 <printf+0x5e7>
    29d9: 86 98        	stx	$98                     ; 0x2098 <__putchar+0xb5>
    29db: a2 00        	ldx	#$0
    29dd: 86 dd        	stx	$dd                     ; 0x20dd <__putchar+0xfa>
    29df: a2 00        	ldx	#$0
    29e1: 4c 2c 29     	jmp	$292c <printf+0x5ac>
    29e4: a5 99        	lda	$99                     ; 0x2099 <__putchar+0xb6>
    29e6: e6 a1        	inc	$a1                     ; 0x20a1 <__putchar+0xbe>
    29e8: c6 a1        	dec	$a1                     ; 0x20a1 <__putchar+0xbe>
    29ea: 10 08        	bpl	$29f4 <printf+0x674>
    29ec: a2 01        	ldx	#$1
    29ee: 64 a1        	stz	$a1                     ; 0x20a1 <__putchar+0xbe>
    29f0: 86 a0        	stx	$a0                     ; 0x20a0 <__putchar+0xbd>
    29f2: a6 98        	ldx	$98                     ; 0x2098 <__putchar+0xb5>
    29f4: 29 04        	and	#$4
    29f6: f0 2b        	beq	$2a23 <printf+0x6a3>
    29f8: a5 de        	lda	$de                     ; 0x20de <__putchar+0xfb>
    29fa: c9 10        	cmp	#$10
    29fc: f0 14        	beq	$2a12 <printf+0x692>
    29fe: c9 08        	cmp	#$8
    2a00: d0 21        	bne	$2a23 <printf+0x6a3>
    2a02: a2 00        	ldx	#$0
    2a04: e4 a1        	cpx	$a1                     ; 0x20a1 <__putchar+0xbe>
    2a06: f0 03        	beq	$2a0b <printf+0x68b>
    2a08: 4c f8 2e     	jmp	$2ef8 <printf+0xb78>
    2a0b: a6 98        	ldx	$98                     ; 0x2098 <__putchar+0xb5>
    2a0d: e4 a0        	cpx	$a0                     ; 0x20a0 <__putchar+0xbd>
    2a0f: 4c fa 2e     	jmp	$2efa <printf+0xb7a>
    2a12: 8a           	txa
    2a13: f0 0e        	beq	$2a23 <printf+0x6a3>
    2a15: a5 99        	lda	$99                     ; 0x2099 <__putchar+0xb6>
    2a17: 29 80        	and	#$80
    2a19: d0 03        	bne	$2a1e <printf+0x69e>
    2a1b: 4c 13 2f     	jmp	$2f13 <printf+0xb93>
    2a1e: a2 78        	ldx	#$78
    2a20: 4c 15 2f     	jmp	$2f15 <printf+0xb95>
    2a23: a6 99        	ldx	$99                     ; 0x2099 <__putchar+0xb6>
    2a25: a9 2d        	lda	#$2d
    2a27: 85 df        	sta	$df                     ; 0x20df <__putchar+0xfc>
    2a29: a5 16        	lda	$16                     ; 0x2016 <__putchar+0x33>
    2a2b: d0 32        	bne	$2a5f <printf+0x6df>
    2a2d: 86 12        	stx	$12                     ; 0x2012 <__putchar+0x2f>
    2a2f: 8a           	txa
    2a30: 29 02        	and	#$2
    2a32: a2 2b        	ldx	#$2b
    2a34: 86 df        	stx	$df                     ; 0x20df <__putchar+0xfc>
    2a36: aa           	tax
    2a37: d0 26        	bne	$2a5f <printf+0x6df>
    2a39: a5 12        	lda	$12                     ; 0x2012 <__putchar+0x2f>
    2a3b: 29 08        	and	#$8
    2a3d: d0 1c        	bne	$2a5b <printf+0x6db>
    2a3f: a2 01        	ldx	#$1
    2a41: 86 de        	stx	$de                     ; 0x20de <__putchar+0xfb>
    2a43: a9 00        	lda	#$0
    2a45: aa           	tax
    2a46: 86 dd        	stx	$dd                     ; 0x20dd <__putchar+0xfa>
    2a48: 80 1c        	bra	$2a66 <printf+0x6e6>
    2a4a: 85 12        	sta	$12                     ; 0x2012 <__putchar+0x2f>
    2a4c: a9 04        	lda	#$4
    2a4e: 80 04        	bra	$2a54 <printf+0x6d4>
    2a50: 85 12        	sta	$12                     ; 0x2012 <__putchar+0x2f>
    2a52: a9 02        	lda	#$2
    2a54: 85 df        	sta	$df                     ; 0x20df <__putchar+0xfc>
    2a56: a5 12        	lda	$12                     ; 0x2012 <__putchar+0x2f>
    2a58: 4c 27 27     	jmp	$2727 <printf+0x3a7>
    2a5b: a2 20        	ldx	#$20
    2a5d: 86 df        	stx	$df                     ; 0x20df <__putchar+0xfc>
    2a5f: a2 00        	ldx	#$0
    2a61: 86 de        	stx	$de                     ; 0x20de <__putchar+0xfb>
    2a63: 86 dd        	stx	$dd                     ; 0x20dd <__putchar+0xfa>
    2a65: 98           	tya
    2a66: a6 a1        	ldx	$a1                     ; 0x20a1 <__putchar+0xbe>
    2a68: d0 35        	bne	$2a9f <printf+0x71f>
    2a6a: a6 a0        	ldx	$a0                     ; 0x20a0 <__putchar+0xbd>
    2a6c: a4 98        	ldy	$98                     ; 0x2098 <__putchar+0xb5>
    2a6e: 84 12        	sty	$12                     ; 0x2012 <__putchar+0x2f>
    2a70: e4 12        	cpx	$12                     ; 0x2012 <__putchar+0x2f>
    2a72: a6 a0        	ldx	$a0                     ; 0x20a0 <__putchar+0xbd>
    2a74: 86 12        	stx	$12                     ; 0x2012 <__putchar+0x2f>
    2a76: a6 a1        	ldx	$a1                     ; 0x20a1 <__putchar+0xbe>
    2a78: 86 13        	stx	$13                     ; 0x2013 <__putchar+0x30>
    2a7a: b0 04        	bcs	$2a80 <printf+0x700>
    2a7c: 84 12        	sty	$12                     ; 0x2012 <__putchar+0x2f>
    2a7e: 64 13        	stz	$13                     ; 0x2013 <__putchar+0x30>
    2a80: 85 18        	sta	$18                     ; 0x2018 <__putchar+0x35>
    2a82: 18           	clc
    2a83: 65 12        	adc	$12                     ; 0x2012 <__putchar+0x2f>
    2a85: 85 16        	sta	$16                     ; 0x2016 <__putchar+0x33>
    2a87: 85 14        	sta	$14                     ; 0x2014 <__putchar+0x31>
    2a89: a5 13        	lda	$13                     ; 0x2013 <__putchar+0x30>
    2a8b: 69 00        	adc	#$0
    2a8d: 85 15        	sta	$15                     ; 0x2015 <__putchar+0x32>
    2a8f: c5 1a        	cmp	$1a                     ; 0x201a <__putchar+0x37>
    2a91: d0 1e        	bne	$2ab1 <printf+0x731>
    2a93: a6 1a        	ldx	$1a                     ; 0x201a <__putchar+0x37>
    2a95: 86 17        	stx	$17                     ; 0x2017 <__putchar+0x34>
    2a97: a6 a2        	ldx	$a2                     ; 0x20a2 <__putchar+0xbf>
    2a99: a5 16        	lda	$16                     ; 0x2016 <__putchar+0x33>
    2a9b: c5 a2        	cmp	$a2                     ; 0x20a2 <__putchar+0xbf>
    2a9d: 80 1c        	bra	$2abb <printf+0x73b>
    2a9f: a6 a1        	ldx	$a1                     ; 0x20a1 <__putchar+0xbe>
    2aa1: e0 00        	cpx	#$0
    2aa3: a6 a0        	ldx	$a0                     ; 0x20a0 <__putchar+0xbd>
    2aa5: 86 12        	stx	$12                     ; 0x2012 <__putchar+0x2f>
    2aa7: a6 a1        	ldx	$a1                     ; 0x20a1 <__putchar+0xbe>
    2aa9: 86 13        	stx	$13                     ; 0x2013 <__putchar+0x30>
    2aab: a4 98        	ldy	$98                     ; 0x2098 <__putchar+0xb5>
    2aad: 90 cd        	bcc	$2a7c <printf+0x6fc>
    2aaf: 80 cf        	bra	$2a80 <printf+0x700>
    2ab1: a6 a2        	ldx	$a2                     ; 0x20a2 <__putchar+0xbf>
    2ab3: 5a           	phy
    2ab4: a4 1a        	ldy	$1a                     ; 0x201a <__putchar+0x37>
    2ab6: 84 17        	sty	$17                     ; 0x2017 <__putchar+0x34>
    2ab8: 7a           	ply
    2ab9: c5 1a        	cmp	$1a                     ; 0x201a <__putchar+0x37>
    2abb: 64 a3        	stz	$a3                     ; 0x20a3 <__putchar+0xc0>
    2abd: 64 a2        	stz	$a2                     ; 0x20a2 <__putchar+0xbf>
    2abf: 90 03        	bcc	$2ac4 <printf+0x744>
    2ac1: 4c 57 2b     	jmp	$2b57 <printf+0x7d7>
    2ac4: a5 99        	lda	$99                     ; 0x2099 <__putchar+0xb6>
    2ac6: 29 11        	and	#$11
    2ac8: 86 16        	stx	$16                     ; 0x2016 <__putchar+0x33>
    2aca: f0 0f        	beq	$2adb <printf+0x75b>
    2acc: 8a           	txa
    2acd: 38           	sec
    2ace: e5 14        	sbc	$14                     ; 0x2014 <__putchar+0x31>
    2ad0: 85 a3        	sta	$a3                     ; 0x20a3 <__putchar+0xc0>
    2ad2: a5 1a        	lda	$1a                     ; 0x201a <__putchar+0x37>
    2ad4: e5 15        	sbc	$15                     ; 0x2015 <__putchar+0x32>
    2ad6: 85 a2        	sta	$a2                     ; 0x20a2 <__putchar+0xbf>
    2ad8: 4c 57 2b     	jmp	$2b57 <printf+0x7d7>
    2adb: a6 cd        	ldx	$cd                     ; 0x20cd <__putchar+0xea>
    2add: 86 14        	stx	$14                     ; 0x2014 <__putchar+0x31>
    2adf: 38           	sec
    2ae0: a5 18        	lda	$18                     ; 0x2018 <__putchar+0x35>
    2ae2: e5 16        	sbc	$16                     ; 0x2016 <__putchar+0x33>
    2ae4: aa           	tax
    2ae5: a9 00        	lda	#$0
    2ae7: e5 17        	sbc	$17                     ; 0x2017 <__putchar+0x34>
    2ae9: a8           	tay
    2aea: 18           	clc
    2aeb: 8a           	txa
    2aec: 65 12        	adc	$12                     ; 0x2012 <__putchar+0x2f>
    2aee: 85 99        	sta	$99                     ; 0x2099 <__putchar+0xb6>
    2af0: 98           	tya
    2af1: 65 13        	adc	$13                     ; 0x2013 <__putchar+0x30>
    2af3: a4 ce        	ldy	$ce                     ; 0x20ce <__putchar+0xeb>
    2af5: 80 47        	bra	$2b3e <printf+0x7be>
    2af7: c4 cc        	cpy	$cc                     ; 0x20cc <__putchar+0xe9>
    2af9: b0 25        	bcs	$2b20 <printf+0x7a0>
    2afb: a6 d8        	ldx	$d8                     ; 0x20d8 <__putchar+0xf5>
    2afd: e4 9d        	cpx	$9d                     ; 0x209d <__putchar+0xba>
    2aff: d0 18        	bne	$2b19 <printf+0x799>
    2b01: a6 d7        	ldx	$d7                     ; 0x20d7 <__putchar+0xf4>
    2b03: e4 9c        	cpx	$9c                     ; 0x209c <__putchar+0xb9>
    2b05: d0 12        	bne	$2b19 <printf+0x799>
    2b07: 18           	clc
    2b08: a5 14        	lda	$14                     ; 0x2014 <__putchar+0x31>
    2b0a: 65 d1        	adc	$d1                     ; 0x20d1 <__putchar+0xee>
    2b0c: 85 12        	sta	$12                     ; 0x2012 <__putchar+0x2f>
    2b0e: 98           	tya
    2b0f: 65 d2        	adc	$d2                     ; 0x20d2 <__putchar+0xef>
    2b11: 85 13        	sta	$13                     ; 0x2013 <__putchar+0x30>
    2b13: a9 20        	lda	#$20
    2b15: 92 12        	sta	($12)                   ; 0x2012 <__putchar+0x2f>
    2b17: 80 05        	bra	$2b1e <printf+0x79e>
    2b19: a9 20        	lda	#$20
    2b1b: 20 e3 1f     	jsr	$1fe3 <__putchar>
    2b1e: a5 a2        	lda	$a2                     ; 0x20a2 <__putchar+0xbf>
    2b20: a6 cd        	ldx	$cd                     ; 0x20cd <__putchar+0xea>
    2b22: a4 ce        	ldy	$ce                     ; 0x20ce <__putchar+0xeb>
    2b24: e8           	inx
    2b25: d0 01        	bne	$2b28 <printf+0x7a8>
    2b27: c8           	iny
    2b28: 86 14        	stx	$14                     ; 0x2014 <__putchar+0x31>
    2b2a: 86 cd        	stx	$cd                     ; 0x20cd <__putchar+0xea>
    2b2c: 84 ce        	sty	$ce                     ; 0x20ce <__putchar+0xeb>
    2b2e: a6 99        	ldx	$99                     ; 0x2099 <__putchar+0xb6>
    2b30: e8           	inx
    2b31: d0 01        	bne	$2b34 <printf+0x7b4>
    2b33: 1a           	inc
    2b34: 86 99        	stx	$99                     ; 0x2099 <__putchar+0xb6>
    2b36: c9 00        	cmp	#$0
    2b38: d0 04        	bne	$2b3e <printf+0x7be>
    2b3a: e0 00        	cpx	#$0
    2b3c: f0 13        	beq	$2b51 <printf+0x7d1>
    2b3e: 85 a2        	sta	$a2                     ; 0x20a2 <__putchar+0xbf>
    2b40: c4 cc        	cpy	$cc                     ; 0x20cc <__putchar+0xe9>
    2b42: d0 b3        	bne	$2af7 <printf+0x777>
    2b44: a6 cb        	ldx	$cb                     ; 0x20cb <__putchar+0xe8>
    2b46: 86 12        	stx	$12                     ; 0x2012 <__putchar+0x2f>
    2b48: a6 14        	ldx	$14                     ; 0x2014 <__putchar+0x31>
    2b4a: e4 12        	cpx	$12                     ; 0x2012 <__putchar+0x2f>
    2b4c: b0 d2        	bcs	$2b20 <printf+0x7a0>
    2b4e: 4c fb 2a     	jmp	$2afb <printf+0x77b>
    2b51: 64 a3        	stz	$a3                     ; 0x20a3 <__putchar+0xc0>
    2b53: 64 a2        	stz	$a2                     ; 0x20a2 <__putchar+0xbf>
    2b55: a4 98        	ldy	$98                     ; 0x2098 <__putchar+0xb5>
    2b57: a6 de        	ldx	$de                     ; 0x20de <__putchar+0xfb>
    2b59: d0 4d        	bne	$2ba8 <printf+0x828>
    2b5b: a6 cd        	ldx	$cd                     ; 0x20cd <__putchar+0xea>
    2b5d: a5 ce        	lda	$ce                     ; 0x20ce <__putchar+0xeb>
    2b5f: c5 cc        	cmp	$cc                     ; 0x20cc <__putchar+0xe9>
    2b61: d0 10        	bne	$2b73 <printf+0x7f3>
    2b63: 86 13        	stx	$13                     ; 0x2013 <__putchar+0x30>
    2b65: a6 cb        	ldx	$cb                     ; 0x20cb <__putchar+0xe8>
    2b67: 86 12        	stx	$12                     ; 0x2012 <__putchar+0x2f>
    2b69: a4 98        	ldy	$98                     ; 0x2098 <__putchar+0xb5>
    2b6b: a6 13        	ldx	$13                     ; 0x2013 <__putchar+0x30>
    2b6d: e4 12        	cpx	$12                     ; 0x2012 <__putchar+0x2f>
    2b6f: 90 08        	bcc	$2b79 <printf+0x7f9>
    2b71: 80 2f        	bra	$2ba2 <printf+0x822>
    2b73: 86 13        	stx	$13                     ; 0x2013 <__putchar+0x30>
    2b75: c5 cc        	cmp	$cc                     ; 0x20cc <__putchar+0xe9>
    2b77: b0 29        	bcs	$2ba2 <printf+0x822>
    2b79: a6 d8        	ldx	$d8                     ; 0x20d8 <__putchar+0xf5>
    2b7b: e4 9d        	cpx	$9d                     ; 0x209d <__putchar+0xba>
    2b7d: d0 1c        	bne	$2b9b <printf+0x81b>
    2b7f: a6 d7        	ldx	$d7                     ; 0x20d7 <__putchar+0xf4>
    2b81: e4 9c        	cpx	$9c                     ; 0x209c <__putchar+0xb9>
    2b83: d0 16        	bne	$2b9b <printf+0x81b>
    2b85: 18           	clc
    2b86: 85 12        	sta	$12                     ; 0x2012 <__putchar+0x2f>
    2b88: a5 13        	lda	$13                     ; 0x2013 <__putchar+0x30>
    2b8a: 65 d1        	adc	$d1                     ; 0x20d1 <__putchar+0xee>
    2b8c: aa           	tax
    2b8d: a5 12        	lda	$12                     ; 0x2012 <__putchar+0x2f>
    2b8f: 65 d2        	adc	$d2                     ; 0x20d2 <__putchar+0xef>
    2b91: 86 12        	stx	$12                     ; 0x2012 <__putchar+0x2f>
    2b93: 85 13        	sta	$13                     ; 0x2013 <__putchar+0x30>
    2b95: a5 df        	lda	$df                     ; 0x20df <__putchar+0xfc>
    2b97: 92 12        	sta	($12)                   ; 0x2012 <__putchar+0x2f>
    2b99: 80 05        	bra	$2ba0 <printf+0x820>
    2b9b: a5 df        	lda	$df                     ; 0x20df <__putchar+0xfc>
    2b9d: 20 e3 1f     	jsr	$1fe3 <__putchar>
    2ba0: a4 98        	ldy	$98                     ; 0x2098 <__putchar+0xb5>
    2ba2: e6 cd        	inc	$cd                     ; 0x20cd <__putchar+0xea>
    2ba4: d0 02        	bne	$2ba8 <printf+0x828>
    2ba6: e6 ce        	inc	$ce                     ; 0x20ce <__putchar+0xeb>
    2ba8: a6 dd        	ldx	$dd                     ; 0x20dd <__putchar+0xfa>
    2baa: f0 4d        	beq	$2bf9 <printf+0x879>
    2bac: a6 cd        	ldx	$cd                     ; 0x20cd <__putchar+0xea>
    2bae: a5 ce        	lda	$ce                     ; 0x20ce <__putchar+0xeb>
    2bb0: c5 cc        	cmp	$cc                     ; 0x20cc <__putchar+0xe9>
    2bb2: d0 10        	bne	$2bc4 <printf+0x844>
    2bb4: 86 13        	stx	$13                     ; 0x2013 <__putchar+0x30>
    2bb6: a6 cb        	ldx	$cb                     ; 0x20cb <__putchar+0xe8>
    2bb8: 86 12        	stx	$12                     ; 0x2012 <__putchar+0x2f>
    2bba: a4 98        	ldy	$98                     ; 0x2098 <__putchar+0xb5>
    2bbc: a6 13        	ldx	$13                     ; 0x2013 <__putchar+0x30>
    2bbe: e4 12        	cpx	$12                     ; 0x2012 <__putchar+0x2f>
    2bc0: 90 08        	bcc	$2bca <printf+0x84a>
    2bc2: 80 2f        	bra	$2bf3 <printf+0x873>
    2bc4: 86 13        	stx	$13                     ; 0x2013 <__putchar+0x30>
    2bc6: c5 cc        	cmp	$cc                     ; 0x20cc <__putchar+0xe9>
    2bc8: b0 29        	bcs	$2bf3 <printf+0x873>
    2bca: a6 d8        	ldx	$d8                     ; 0x20d8 <__putchar+0xf5>
    2bcc: e4 9d        	cpx	$9d                     ; 0x209d <__putchar+0xba>
    2bce: d0 1c        	bne	$2bec <printf+0x86c>
    2bd0: a6 d7        	ldx	$d7                     ; 0x20d7 <__putchar+0xf4>
    2bd2: e4 9c        	cpx	$9c                     ; 0x209c <__putchar+0xb9>
    2bd4: d0 16        	bne	$2bec <printf+0x86c>
    2bd6: 18           	clc
    2bd7: 85 12        	sta	$12                     ; 0x2012 <__putchar+0x2f>
    2bd9: a5 13        	lda	$13                     ; 0x2013 <__putchar+0x30>
    2bdb: 65 d1        	adc	$d1                     ; 0x20d1 <__putchar+0xee>
    2bdd: aa           	tax
    2bde: a5 12        	lda	$12                     ; 0x2012 <__putchar+0x2f>
    2be0: 65 d2        	adc	$d2                     ; 0x20d2 <__putchar+0xef>
    2be2: 86 12        	stx	$12                     ; 0x2012 <__putchar+0x2f>
    2be4: 85 13        	sta	$13                     ; 0x2013 <__putchar+0x30>
    2be6: a5 e2        	lda	$e2                     ; 0x20e2 <__putchar+0xff>
    2be8: 92 12        	sta	($12)                   ; 0x2012 <__putchar+0x2f>
    2bea: 80 05        	bra	$2bf1 <printf+0x871>
    2bec: a5 e2        	lda	$e2                     ; 0x20e2 <__putchar+0xff>
    2bee: 20 e3 1f     	jsr	$1fe3 <__putchar>
    2bf1: a4 98        	ldy	$98                     ; 0x2098 <__putchar+0xb5>
    2bf3: e6 cd        	inc	$cd                     ; 0x20cd <__putchar+0xea>
    2bf5: d0 02        	bne	$2bf9 <printf+0x879>
    2bf7: e6 ce        	inc	$ce                     ; 0x20ce <__putchar+0xeb>
    2bf9: a9 10        	lda	#$10
    2bfb: 25 c9        	and	$c9                     ; 0x20c9 <__putchar+0xe6>
    2bfd: d0 03        	bne	$2c02 <printf+0x882>
    2bff: 4c 8a 2c     	jmp	$2c8a <printf+0x90a>
    2c02: a5 c9        	lda	$c9                     ; 0x20c9 <__putchar+0xe6>
    2c04: 29 01        	and	#$1
    2c06: 29 01        	and	#$1
    2c08: f0 03        	beq	$2c0d <printf+0x88d>
    2c0a: 4c 8a 2c     	jmp	$2c8a <printf+0x90a>
    2c0d: a6 a3        	ldx	$a3                     ; 0x20a3 <__putchar+0xc0>
    2c0f: a5 a2        	lda	$a2                     ; 0x20a2 <__putchar+0xbf>
    2c11: d0 06        	bne	$2c19 <printf+0x899>
    2c13: 8a           	txa
    2c14: d0 03        	bne	$2c19 <printf+0x899>
    2c16: 4c 28 2f     	jmp	$2f28 <printf+0xba8>
    2c19: a6 cd        	ldx	$cd                     ; 0x20cd <__putchar+0xea>
    2c1b: 86 13        	stx	$13                     ; 0x2013 <__putchar+0x30>
    2c1d: a5 ce        	lda	$ce                     ; 0x20ce <__putchar+0xeb>
    2c1f: 80 4f        	bra	$2c70 <printf+0x8f0>
    2c21: c5 cc        	cmp	$cc                     ; 0x20cc <__putchar+0xe9>
    2c23: b0 24        	bcs	$2c49 <printf+0x8c9>
    2c25: a6 d8        	ldx	$d8                     ; 0x20d8 <__putchar+0xf5>
    2c27: e4 9d        	cpx	$9d                     ; 0x209d <__putchar+0xba>
    2c29: d0 19        	bne	$2c44 <printf+0x8c4>
    2c2b: a6 d7        	ldx	$d7                     ; 0x20d7 <__putchar+0xf4>
    2c2d: e4 9c        	cpx	$9c                     ; 0x209c <__putchar+0xb9>
    2c2f: d0 13        	bne	$2c44 <printf+0x8c4>
    2c31: 18           	clc
    2c32: aa           	tax
    2c33: a5 13        	lda	$13                     ; 0x2013 <__putchar+0x30>
    2c35: 65 d1        	adc	$d1                     ; 0x20d1 <__putchar+0xee>
    2c37: 85 12        	sta	$12                     ; 0x2012 <__putchar+0x2f>
    2c39: 8a           	txa
    2c3a: 65 d2        	adc	$d2                     ; 0x20d2 <__putchar+0xef>
    2c3c: 85 13        	sta	$13                     ; 0x2013 <__putchar+0x30>
    2c3e: a9 30        	lda	#$30
    2c40: 92 12        	sta	($12)                   ; 0x2012 <__putchar+0x2f>
    2c42: 80 05        	bra	$2c49 <printf+0x8c9>
    2c44: a9 30        	lda	#$30
    2c46: 20 e3 1f     	jsr	$1fe3 <__putchar>
    2c49: a6 cd        	ldx	$cd                     ; 0x20cd <__putchar+0xea>
    2c4b: a5 ce        	lda	$ce                     ; 0x20ce <__putchar+0xeb>
    2c4d: e8           	inx
    2c4e: d0 01        	bne	$2c51 <printf+0x8d1>
    2c50: 1a           	inc
    2c51: 86 13        	stx	$13                     ; 0x2013 <__putchar+0x30>
    2c53: 86 cd        	stx	$cd                     ; 0x20cd <__putchar+0xea>
    2c55: 85 ce        	sta	$ce                     ; 0x20ce <__putchar+0xeb>
    2c57: a4 a3        	ldy	$a3                     ; 0x20a3 <__putchar+0xc0>
    2c59: a6 a2        	ldx	$a2                     ; 0x20a2 <__putchar+0xbf>
    2c5b: 86 12        	stx	$12                     ; 0x2012 <__putchar+0x2f>
    2c5d: 88           	dey
    2c5e: c0 ff        	cpy	#$ff
    2c60: d0 02        	bne	$2c64 <printf+0x8e4>
    2c62: c6 12        	dec	$12                     ; 0x2012 <__putchar+0x2f>
    2c64: 84 a3        	sty	$a3                     ; 0x20a3 <__putchar+0xc0>
    2c66: a6 12        	ldx	$12                     ; 0x2012 <__putchar+0x2f>
    2c68: 86 a2        	stx	$a2                     ; 0x20a2 <__putchar+0xbf>
    2c6a: d0 04        	bne	$2c70 <printf+0x8f0>
    2c6c: c0 00        	cpy	#$0
    2c6e: f0 14        	beq	$2c84 <printf+0x904>
    2c70: c5 cc        	cmp	$cc                     ; 0x20cc <__putchar+0xe9>
    2c72: f0 03        	beq	$2c77 <printf+0x8f7>
    2c74: 4c 21 2c     	jmp	$2c21 <printf+0x8a1>
    2c77: a6 cb        	ldx	$cb                     ; 0x20cb <__putchar+0xe8>
    2c79: 86 12        	stx	$12                     ; 0x2012 <__putchar+0x2f>
    2c7b: a6 13        	ldx	$13                     ; 0x2013 <__putchar+0x30>
    2c7d: e4 12        	cpx	$12                     ; 0x2012 <__putchar+0x2f>
    2c7f: b0 c8        	bcs	$2c49 <printf+0x8c9>
    2c81: 4c 25 2c     	jmp	$2c25 <printf+0x8a5>
    2c84: 64 a3        	stz	$a3                     ; 0x20a3 <__putchar+0xc0>
    2c86: 64 a2        	stz	$a2                     ; 0x20a2 <__putchar+0xbf>
    2c88: a4 98        	ldy	$98                     ; 0x2098 <__putchar+0xb5>
    2c8a: a2 00        	ldx	#$0
    2c8c: e4 a1        	cpx	$a1                     ; 0x20a1 <__putchar+0xbe>
    2c8e: d0 07        	bne	$2c97 <printf+0x917>
    2c90: c4 a0        	cpy	$a0                     ; 0x20a0 <__putchar+0xbd>
    2c92: 90 0a        	bcc	$2c9e <printf+0x91e>
    2c94: 4c 0c 2d     	jmp	$2d0c <printf+0x98c>
    2c97: e4 a1        	cpx	$a1                     ; 0x20a1 <__putchar+0xbe>
    2c99: 90 03        	bcc	$2c9e <printf+0x91e>
    2c9b: 4c 0c 2d     	jmp	$2d0c <printf+0x98c>
    2c9e: a6 cd        	ldx	$cd                     ; 0x20cd <__putchar+0xea>
    2ca0: 86 13        	stx	$13                     ; 0x2013 <__putchar+0x30>
    2ca2: a5 ce        	lda	$ce                     ; 0x20ce <__putchar+0xeb>
    2ca4: a2 ff        	ldx	#$ff
    2ca6: c6 a0        	dec	$a0                     ; 0x20a0 <__putchar+0xbd>
    2ca8: e4 a0        	cpx	$a0                     ; 0x20a0 <__putchar+0xbd>
    2caa: d0 02        	bne	$2cae <printf+0x92e>
    2cac: c6 a1        	dec	$a1                     ; 0x20a1 <__putchar+0xbe>
    2cae: c5 cc        	cmp	$cc                     ; 0x20cc <__putchar+0xe9>
    2cb0: d0 0c        	bne	$2cbe <printf+0x93e>
    2cb2: a6 cb        	ldx	$cb                     ; 0x20cb <__putchar+0xe8>
    2cb4: 86 12        	stx	$12                     ; 0x2012 <__putchar+0x2f>
    2cb6: a6 13        	ldx	$13                     ; 0x2013 <__putchar+0x30>
    2cb8: e4 12        	cpx	$12                     ; 0x2012 <__putchar+0x2f>
    2cba: 90 06        	bcc	$2cc2 <printf+0x942>
    2cbc: 80 28        	bra	$2ce6 <printf+0x966>
    2cbe: c5 cc        	cmp	$cc                     ; 0x20cc <__putchar+0xe9>
    2cc0: b0 24        	bcs	$2ce6 <printf+0x966>
    2cc2: a6 d8        	ldx	$d8                     ; 0x20d8 <__putchar+0xf5>
    2cc4: e4 9d        	cpx	$9d                     ; 0x209d <__putchar+0xba>
    2cc6: d0 19        	bne	$2ce1 <printf+0x961>
    2cc8: a6 d7        	ldx	$d7                     ; 0x20d7 <__putchar+0xf4>
    2cca: e4 9c        	cpx	$9c                     ; 0x209c <__putchar+0xb9>
    2ccc: d0 13        	bne	$2ce1 <printf+0x961>
    2cce: 18           	clc
    2ccf: aa           	tax
    2cd0: a5 13        	lda	$13                     ; 0x2013 <__putchar+0x30>
    2cd2: 65 d1        	adc	$d1                     ; 0x20d1 <__putchar+0xee>
    2cd4: 85 12        	sta	$12                     ; 0x2012 <__putchar+0x2f>
    2cd6: 8a           	txa
    2cd7: 65 d2        	adc	$d2                     ; 0x20d2 <__putchar+0xef>
    2cd9: 85 13        	sta	$13                     ; 0x2013 <__putchar+0x30>
    2cdb: a9 30        	lda	#$30
    2cdd: 92 12        	sta	($12)                   ; 0x2012 <__putchar+0x2f>
    2cdf: 80 05        	bra	$2ce6 <printf+0x966>
    2ce1: a9 30        	lda	#$30
    2ce3: 20 e3 1f     	jsr	$1fe3 <__putchar>
    2ce6: a6 cd        	ldx	$cd                     ; 0x20cd <__putchar+0xea>
    2ce8: a5 ce        	lda	$ce                     ; 0x20ce <__putchar+0xeb>
    2cea: e8           	inx
    2ceb: d0 01        	bne	$2cee <printf+0x96e>
    2ced: 1a           	inc
    2cee: 86 13        	stx	$13                     ; 0x2013 <__putchar+0x30>
    2cf0: 86 cd        	stx	$cd                     ; 0x20cd <__putchar+0xea>
    2cf2: 85 ce        	sta	$ce                     ; 0x20ce <__putchar+0xeb>
    2cf4: a2 00        	ldx	#$0
    2cf6: e4 a1        	cpx	$a1                     ; 0x20a1 <__putchar+0xbe>
    2cf8: d0 09        	bne	$2d03 <printf+0x983>
    2cfa: a4 98        	ldy	$98                     ; 0x2098 <__putchar+0xb5>
    2cfc: c4 a0        	cpy	$a0                     ; 0x20a0 <__putchar+0xbd>
    2cfe: b0 0c        	bcs	$2d0c <printf+0x98c>
    2d00: 4c a4 2c     	jmp	$2ca4 <printf+0x924>
    2d03: e4 a1        	cpx	$a1                     ; 0x20a1 <__putchar+0xbe>
    2d05: a4 98        	ldy	$98                     ; 0x2098 <__putchar+0xb5>
    2d07: b0 03        	bcs	$2d0c <printf+0x98c>
    2d09: 4c a4 2c     	jmp	$2ca4 <printf+0x924>
    2d0c: 98           	tya
    2d0d: d0 03        	bne	$2d12 <printf+0x992>
    2d0f: 4c 01 2e     	jmp	$2e01 <printf+0xa81>
    2d12: 88           	dey
    2d13: d0 03        	bne	$2d18 <printf+0x998>
    2d15: 4c a0 2d     	jmp	$2da0 <printf+0xa20>
    2d18: 84 a0        	sty	$a0                     ; 0x20a0 <__putchar+0xbd>
    2d1a: a6 e3        	ldx	$e3                     ; 0x20e3 <__putchar+0x100>
    2d1c: 8a           	txa
    2d1d: 18           	clc
    2d1e: 65 a0        	adc	$a0                     ; 0x20a0 <__putchar+0xbd>
    2d20: 85 98        	sta	$98                     ; 0x2098 <__putchar+0xb5>
    2d22: a5 e4        	lda	$e4                     ; 0x20e4 <__putchar+0x101>
    2d24: 69 00        	adc	#$0
    2d26: 85 99        	sta	$99                     ; 0x2099 <__putchar+0xb6>
    2d28: 4c 92 2d     	jmp	$2d92 <printf+0xa12>
    2d2b: a8           	tay
    2d2c: a9 80        	lda	#$80
    2d2e: 25 c9        	and	$c9                     ; 0x20c9 <__putchar+0xe6>
    2d30: f0 04        	beq	$2d36 <printf+0x9b6>
    2d32: a2 61        	ldx	#$61
    2d34: 80 02        	bra	$2d38 <printf+0x9b8>
    2d36: a2 41        	ldx	#$41
    2d38: 86 12        	stx	$12                     ; 0x2012 <__putchar+0x2f>
    2d3a: 18           	clc
    2d3b: 98           	tya
    2d3c: 65 12        	adc	$12                     ; 0x2012 <__putchar+0x2f>
    2d3e: 18           	clc
    2d3f: 69 f6        	adc	#$f6
    2d41: a4 cd        	ldy	$cd                     ; 0x20cd <__putchar+0xea>
    2d43: a6 ce        	ldx	$ce                     ; 0x20ce <__putchar+0xeb>
    2d45: e4 cc        	cpx	$cc                     ; 0x20cc <__putchar+0xe9>
    2d47: d0 0c        	bne	$2d55 <printf+0x9d5>
    2d49: 86 14        	stx	$14                     ; 0x2014 <__putchar+0x31>
    2d4b: a6 cb        	ldx	$cb                     ; 0x20cb <__putchar+0xe8>
    2d4d: 86 12        	stx	$12                     ; 0x2012 <__putchar+0x2f>
    2d4f: c4 12        	cpy	$12                     ; 0x2012 <__putchar+0x2f>
    2d51: 90 08        	bcc	$2d5b <printf+0x9db>
    2d53: 80 27        	bra	$2d7c <printf+0x9fc>
    2d55: 86 14        	stx	$14                     ; 0x2014 <__putchar+0x31>
    2d57: e4 cc        	cpx	$cc                     ; 0x20cc <__putchar+0xe9>
    2d59: b0 21        	bcs	$2d7c <printf+0x9fc>
    2d5b: a6 d8        	ldx	$d8                     ; 0x20d8 <__putchar+0xf5>
    2d5d: e4 9d        	cpx	$9d                     ; 0x209d <__putchar+0xba>
    2d5f: d0 18        	bne	$2d79 <printf+0x9f9>
    2d61: a6 d7        	ldx	$d7                     ; 0x20d7 <__putchar+0xf4>
    2d63: e4 9c        	cpx	$9c                     ; 0x209c <__putchar+0xb9>
    2d65: d0 12        	bne	$2d79 <printf+0x9f9>
    2d67: 18           	clc
    2d68: aa           	tax
    2d69: 98           	tya
    2d6a: 65 d1        	adc	$d1                     ; 0x20d1 <__putchar+0xee>
    2d6c: 85 12        	sta	$12                     ; 0x2012 <__putchar+0x2f>
    2d6e: a5 14        	lda	$14                     ; 0x2014 <__putchar+0x31>
    2d70: 65 d2        	adc	$d2                     ; 0x20d2 <__putchar+0xef>
    2d72: 85 13        	sta	$13                     ; 0x2013 <__putchar+0x30>
    2d74: 8a           	txa
    2d75: 92 12        	sta	($12)                   ; 0x2012 <__putchar+0x2f>
    2d77: 80 03        	bra	$2d7c <printf+0x9fc>
    2d79: 20 e3 1f     	jsr	$1fe3 <__putchar>
    2d7c: e6 cd        	inc	$cd                     ; 0x20cd <__putchar+0xea>
    2d7e: d0 02        	bne	$2d82 <printf+0xa02>
    2d80: e6 ce        	inc	$ce                     ; 0x20ce <__putchar+0xeb>
    2d82: c6 a0        	dec	$a0                     ; 0x20a0 <__putchar+0xbd>
    2d84: a2 ff        	ldx	#$ff
    2d86: c6 98        	dec	$98                     ; 0x2098 <__putchar+0xb5>
    2d88: e4 98        	cpx	$98                     ; 0x2098 <__putchar+0xb5>
    2d8a: d0 02        	bne	$2d8e <printf+0xa0e>
    2d8c: c6 99        	dec	$99                     ; 0x2099 <__putchar+0xb6>
    2d8e: a5 a0        	lda	$a0                     ; 0x20a0 <__putchar+0xbd>
    2d90: f0 0e        	beq	$2da0 <printf+0xa20>
    2d92: b2 98        	lda	($98)                   ; 0x2098 <__putchar+0xb5>
    2d94: c9 0a        	cmp	#$a
    2d96: 90 03        	bcc	$2d9b <printf+0xa1b>
    2d98: 4c 2b 2d     	jmp	$2d2b <printf+0x9ab>
    2d9b: 09 30        	ora	#$30
    2d9d: 4c 41 2d     	jmp	$2d41 <printf+0x9c1>
    2da0: a5 a6        	lda	$a6                     ; 0x20a6 <__putchar+0xc3>
    2da2: c9 0a        	cmp	#$a
    2da4: b0 04        	bcs	$2daa <printf+0xa2a>
    2da6: 09 30        	ora	#$30
    2da8: 80 16        	bra	$2dc0 <printf+0xa40>
    2daa: a8           	tay
    2dab: a9 80        	lda	#$80
    2dad: 25 c9        	and	$c9                     ; 0x20c9 <__putchar+0xe6>
    2daf: f0 04        	beq	$2db5 <printf+0xa35>
    2db1: a2 61        	ldx	#$61
    2db3: 80 02        	bra	$2db7 <printf+0xa37>
    2db5: a2 41        	ldx	#$41
    2db7: 86 12        	stx	$12                     ; 0x2012 <__putchar+0x2f>
    2db9: 18           	clc
    2dba: 98           	tya
    2dbb: 65 12        	adc	$12                     ; 0x2012 <__putchar+0x2f>
    2dbd: 18           	clc
    2dbe: 69 f6        	adc	#$f6
    2dc0: a4 cd        	ldy	$cd                     ; 0x20cd <__putchar+0xea>
    2dc2: a6 ce        	ldx	$ce                     ; 0x20ce <__putchar+0xeb>
    2dc4: e4 cc        	cpx	$cc                     ; 0x20cc <__putchar+0xe9>
    2dc6: d0 0c        	bne	$2dd4 <printf+0xa54>
    2dc8: 86 14        	stx	$14                     ; 0x2014 <__putchar+0x31>
    2dca: a6 cb        	ldx	$cb                     ; 0x20cb <__putchar+0xe8>
    2dcc: 86 12        	stx	$12                     ; 0x2012 <__putchar+0x2f>
    2dce: c4 12        	cpy	$12                     ; 0x2012 <__putchar+0x2f>
    2dd0: 90 08        	bcc	$2dda <printf+0xa5a>
    2dd2: 80 27        	bra	$2dfb <printf+0xa7b>
    2dd4: 86 14        	stx	$14                     ; 0x2014 <__putchar+0x31>
    2dd6: e4 cc        	cpx	$cc                     ; 0x20cc <__putchar+0xe9>
    2dd8: b0 21        	bcs	$2dfb <printf+0xa7b>
    2dda: a6 d8        	ldx	$d8                     ; 0x20d8 <__putchar+0xf5>
    2ddc: e4 9d        	cpx	$9d                     ; 0x209d <__putchar+0xba>
    2dde: d0 18        	bne	$2df8 <printf+0xa78>
    2de0: a6 d7        	ldx	$d7                     ; 0x20d7 <__putchar+0xf4>
    2de2: e4 9c        	cpx	$9c                     ; 0x209c <__putchar+0xb9>
    2de4: d0 12        	bne	$2df8 <printf+0xa78>
    2de6: 18           	clc
    2de7: aa           	tax
    2de8: 98           	tya
    2de9: 65 d1        	adc	$d1                     ; 0x20d1 <__putchar+0xee>
    2deb: 85 12        	sta	$12                     ; 0x2012 <__putchar+0x2f>
    2ded: a5 14        	lda	$14                     ; 0x2014 <__putchar+0x31>
    2def: 65 d2        	adc	$d2                     ; 0x20d2 <__putchar+0xef>
    2df1: 85 13        	sta	$13                     ; 0x2013 <__putchar+0x30>
    2df3: 8a           	txa
    2df4: 92 12        	sta	($12)                   ; 0x2012 <__putchar+0x2f>
    2df6: 80 03        	bra	$2dfb <printf+0xa7b>
    2df8: 20 e3 1f     	jsr	$1fe3 <__putchar>
    2dfb: e6 cd        	inc	$cd                     ; 0x20cd <__putchar+0xea>
    2dfd: d0 02        	bne	$2e01 <printf+0xa81>
    2dff: e6 ce        	inc	$ce                     ; 0x20ce <__putchar+0xeb>
    2e01: a9 01        	lda	#$1
    2e03: 25 c9        	and	$c9                     ; 0x20c9 <__putchar+0xe6>
    2e05: 29 01        	and	#$1
    2e07: d0 1e        	bne	$2e27 <printf+0xaa7>
    2e09: a6 cd        	ldx	$cd                     ; 0x20cd <__putchar+0xea>
    2e0b: 86 14        	stx	$14                     ; 0x2014 <__putchar+0x31>
    2e0d: a5 ce        	lda	$ce                     ; 0x20ce <__putchar+0xeb>
    2e0f: a4 cb        	ldy	$cb                     ; 0x20cb <__putchar+0xe8>
    2e11: a6 cc        	ldx	$cc                     ; 0x20cc <__putchar+0xe9>
    2e13: 86 12        	stx	$12                     ; 0x2012 <__putchar+0x2f>
    2e15: 86 13        	stx	$13                     ; 0x2013 <__putchar+0x30>
    2e17: c5 12        	cmp	$12                     ; 0x2012 <__putchar+0x2f>
    2e19: f0 03        	beq	$2e1e <printf+0xa9e>
    2e1b: 4c aa 2e     	jmp	$2eaa <printf+0xb2a>
    2e1e: 84 12        	sty	$12                     ; 0x2012 <__putchar+0x2f>
    2e20: a6 14        	ldx	$14                     ; 0x2014 <__putchar+0x31>
    2e22: e4 12        	cpx	$12                     ; 0x2012 <__putchar+0x2f>
    2e24: 4c ae 2e     	jmp	$2eae <printf+0xb2e>
    2e27: a6 cd        	ldx	$cd                     ; 0x20cd <__putchar+0xea>
    2e29: 86 14        	stx	$14                     ; 0x2014 <__putchar+0x31>
    2e2b: a5 ce        	lda	$ce                     ; 0x20ce <__putchar+0xeb>
    2e2d: a6 a3        	ldx	$a3                     ; 0x20a3 <__putchar+0xc0>
    2e2f: a4 a2        	ldy	$a2                     ; 0x20a2 <__putchar+0xbf>
    2e31: f0 03        	beq	$2e36 <printf+0xab6>
    2e33: 4c 96 2e     	jmp	$2e96 <printf+0xb16>
    2e36: e0 00        	cpx	#$0
    2e38: f0 d5        	beq	$2e0f <printf+0xa8f>
    2e3a: 4c 96 2e     	jmp	$2e96 <printf+0xb16>
    2e3d: c5 cc        	cmp	$cc                     ; 0x20cc <__putchar+0xe9>
    2e3f: b0 24        	bcs	$2e65 <printf+0xae5>
    2e41: a6 d8        	ldx	$d8                     ; 0x20d8 <__putchar+0xf5>
    2e43: e4 9d        	cpx	$9d                     ; 0x209d <__putchar+0xba>
    2e45: d0 19        	bne	$2e60 <printf+0xae0>
    2e47: a6 d7        	ldx	$d7                     ; 0x20d7 <__putchar+0xf4>
    2e49: e4 9c        	cpx	$9c                     ; 0x209c <__putchar+0xb9>
    2e4b: d0 13        	bne	$2e60 <printf+0xae0>
    2e4d: 18           	clc
    2e4e: aa           	tax
    2e4f: a5 14        	lda	$14                     ; 0x2014 <__putchar+0x31>
    2e51: 65 d1        	adc	$d1                     ; 0x20d1 <__putchar+0xee>
    2e53: 85 12        	sta	$12                     ; 0x2012 <__putchar+0x2f>
    2e55: 8a           	txa
    2e56: 65 d2        	adc	$d2                     ; 0x20d2 <__putchar+0xef>
    2e58: 85 13        	sta	$13                     ; 0x2013 <__putchar+0x30>
    2e5a: a9 20        	lda	#$20
    2e5c: 92 12        	sta	($12)                   ; 0x2012 <__putchar+0x2f>
    2e5e: 80 05        	bra	$2e65 <printf+0xae5>
    2e60: a9 20        	lda	#$20
    2e62: 20 e3 1f     	jsr	$1fe3 <__putchar>
    2e65: a6 cd        	ldx	$cd                     ; 0x20cd <__putchar+0xea>
    2e67: a5 ce        	lda	$ce                     ; 0x20ce <__putchar+0xeb>
    2e69: e8           	inx
    2e6a: d0 01        	bne	$2e6d <printf+0xaed>
    2e6c: 1a           	inc
    2e6d: 86 14        	stx	$14                     ; 0x2014 <__putchar+0x31>
    2e6f: 86 cd        	stx	$cd                     ; 0x20cd <__putchar+0xea>
    2e71: 85 ce        	sta	$ce                     ; 0x20ce <__putchar+0xeb>
    2e73: a6 a3        	ldx	$a3                     ; 0x20a3 <__putchar+0xc0>
    2e75: 86 12        	stx	$12                     ; 0x2012 <__putchar+0x2f>
    2e77: a6 a2        	ldx	$a2                     ; 0x20a2 <__putchar+0xbf>
    2e79: 86 13        	stx	$13                     ; 0x2013 <__putchar+0x30>
    2e7b: a2 ff        	ldx	#$ff
    2e7d: c6 12        	dec	$12                     ; 0x2012 <__putchar+0x2f>
    2e7f: e4 12        	cpx	$12                     ; 0x2012 <__putchar+0x2f>
    2e81: d0 02        	bne	$2e85 <printf+0xb05>
    2e83: c6 13        	dec	$13                     ; 0x2013 <__putchar+0x30>
    2e85: a6 12        	ldx	$12                     ; 0x2012 <__putchar+0x2f>
    2e87: 86 a3        	stx	$a3                     ; 0x20a3 <__putchar+0xc0>
    2e89: a6 13        	ldx	$13                     ; 0x2013 <__putchar+0x30>
    2e8b: 86 a2        	stx	$a2                     ; 0x20a2 <__putchar+0xbf>
    2e8d: d0 07        	bne	$2e96 <printf+0xb16>
    2e8f: a6 12        	ldx	$12                     ; 0x2012 <__putchar+0x2f>
    2e91: d0 03        	bne	$2e96 <printf+0xb16>
    2e93: 4c 0f 2e     	jmp	$2e0f <printf+0xa8f>
    2e96: c5 cc        	cmp	$cc                     ; 0x20cc <__putchar+0xe9>
    2e98: f0 03        	beq	$2e9d <printf+0xb1d>
    2e9a: 4c 3d 2e     	jmp	$2e3d <printf+0xabd>
    2e9d: a6 cb        	ldx	$cb                     ; 0x20cb <__putchar+0xe8>
    2e9f: 86 12        	stx	$12                     ; 0x2012 <__putchar+0x2f>
    2ea1: a6 14        	ldx	$14                     ; 0x2014 <__putchar+0x31>
    2ea3: e4 12        	cpx	$12                     ; 0x2012 <__putchar+0x2f>
    2ea5: b0 be        	bcs	$2e65 <printf+0xae5>
    2ea7: 4c 41 2e     	jmp	$2e41 <printf+0xac1>
    2eaa: 86 12        	stx	$12                     ; 0x2012 <__putchar+0x2f>
    2eac: c5 12        	cmp	$12                     ; 0x2012 <__putchar+0x2f>
    2eae: 98           	tya
    2eaf: a0 01        	ldy	#$1
    2eb1: 90 20        	bcc	$2ed3 <printf+0xb53>
    2eb3: a6 13        	ldx	$13                     ; 0x2013 <__putchar+0x30>
    2eb5: d0 03        	bne	$2eba <printf+0xb3a>
    2eb7: aa           	tax
    2eb8: f0 19        	beq	$2ed3 <printf+0xb53>
    2eba: 18           	clc
    2ebb: 65 d1        	adc	$d1                     ; 0x20d1 <__putchar+0xee>
    2ebd: 85 12        	sta	$12                     ; 0x2012 <__putchar+0x2f>
    2ebf: a5 13        	lda	$13                     ; 0x2013 <__putchar+0x30>
    2ec1: 65 d2        	adc	$d2                     ; 0x20d2 <__putchar+0xef>
    2ec3: 85 13        	sta	$13                     ; 0x2013 <__putchar+0x30>
    2ec5: a2 ff        	ldx	#$ff
    2ec7: c6 12        	dec	$12                     ; 0x2012 <__putchar+0x2f>
    2ec9: e4 12        	cpx	$12                     ; 0x2012 <__putchar+0x2f>
    2ecb: d0 02        	bne	$2ecf <printf+0xb4f>
    2ecd: c6 13        	dec	$13                     ; 0x2013 <__putchar+0x30>
    2ecf: a9 00        	lda	#$0
    2ed1: 92 12        	sta	($12)                   ; 0x2012 <__putchar+0x2f>
    2ed3: e6 9a        	inc	$9a                     ; 0x209a <__putchar+0xb7>
    2ed5: d0 02        	bne	$2ed9 <printf+0xb59>
    2ed7: e6 9b        	inc	$9b                     ; 0x209b <__putchar+0xb8>
    2ed9: a6 9b        	ldx	$9b                     ; 0x209b <__putchar+0xb8>
    2edb: e4 9f        	cpx	$9f                     ; 0x209f <__putchar+0xbc>
    2edd: f0 03        	beq	$2ee2 <printf+0xb62>
    2edf: 4c e5 23     	jmp	$23e5 <printf+0x65>
    2ee2: a6 9a        	ldx	$9a                     ; 0x209a <__putchar+0xb7>
    2ee4: e4 9e        	cpx	$9e                     ; 0x209e <__putchar+0xbb>
    2ee6: f0 03        	beq	$2eeb <printf+0xb6b>
    2ee8: 4c e5 23     	jmp	$23e5 <printf+0x65>
    2eeb: b2 9e        	lda	($9e)                   ; 0x209e <__putchar+0xbb>
    2eed: a2 00        	ldx	#$0
    2eef: 86 9c        	stx	$9c                     ; 0x209c <__putchar+0xb9>
    2ef1: a2 00        	ldx	#$0
    2ef3: 86 9d        	stx	$9d                     ; 0x209d <__putchar+0xba>
    2ef5: 4c f9 23     	jmp	$23f9 <printf+0x79>
    2ef8: e4 a1        	cpx	$a1                     ; 0x20a1 <__putchar+0xbe>
    2efa: a6 99        	ldx	$99                     ; 0x2099 <__putchar+0xb6>
    2efc: b0 03        	bcs	$2f01 <printf+0xb81>
    2efe: 4c 25 2a     	jmp	$2a25 <printf+0x6a5>
    2f01: a5 98        	lda	$98                     ; 0x2098 <__putchar+0xb5>
    2f03: 85 a0        	sta	$a0                     ; 0x20a0 <__putchar+0xbd>
    2f05: 64 a1        	stz	$a1                     ; 0x20a1 <__putchar+0xbe>
    2f07: e6 a0        	inc	$a0                     ; 0x20a0 <__putchar+0xbd>
    2f09: f0 03        	beq	$2f0e <printf+0xb8e>
    2f0b: 4c 25 2a     	jmp	$2a25 <printf+0x6a5>
    2f0e: e6 a1        	inc	$a1                     ; 0x20a1 <__putchar+0xbe>
    2f10: 4c 25 2a     	jmp	$2a25 <printf+0x6a5>
    2f13: a2 58        	ldx	#$58
    2f15: 86 e2        	stx	$e2                     ; 0x20e2 <__putchar+0xff>
    2f17: a2 01        	ldx	#$1
    2f19: 86 dd        	stx	$dd                     ; 0x20dd <__putchar+0xfa>
    2f1b: a2 30        	ldx	#$30
    2f1d: 86 df        	stx	$df                     ; 0x20df <__putchar+0xfc>
    2f1f: a9 02        	lda	#$2
    2f21: a2 00        	ldx	#$0
    2f23: 86 de        	stx	$de                     ; 0x20de <__putchar+0xfb>
    2f25: 4c 66 2a     	jmp	$2a66 <printf+0x6e6>
    2f28: 64 a3        	stz	$a3                     ; 0x20a3 <__putchar+0xc0>
    2f2a: 64 a2        	stz	$a2                     ; 0x20a2 <__putchar+0xbf>
    2f2c: 4c 8a 2c     	jmp	$2c8a <printf+0x90a>
    2f2f: 60           	rts

00002f30 <putchar>:
    2f30: 85 99        	sta	$99                     ; 0x2099 <__putchar+0xb6>
    2f32: 86 98        	stx	$98                     ; 0x2098 <__putchar+0xb5>
    2f34: 20 e3 1f     	jsr	$1fe3 <__putchar>
    2f37: a6 98        	ldx	$98                     ; 0x2098 <__putchar+0xb5>
    2f39: a5 99        	lda	$99                     ; 0x2099 <__putchar+0xb6>
    2f3b: 60           	rts

00002f3c <memcpy>:
    2f3c: a8           	tay
    2f3d: 8a           	txa
    2f3e: d0 03        	bne	$2f43 <memcpy+0x7>
    2f40: 98           	tya
    2f41: f0 24        	beq	$2f67 <memcpy+0x2b>
    2f43: a5 12        	lda	$12                     ; 0x2012 <__putchar+0x2f>
    2f45: 85 16        	sta	$16                     ; 0x2016 <__putchar+0x33>
    2f47: a5 13        	lda	$13                     ; 0x2013 <__putchar+0x30>
    2f49: 85 17        	sta	$17                     ; 0x2017 <__putchar+0x34>
    2f4b: b2 14        	lda	($14)                   ; 0x2014 <__putchar+0x31>
    2f4d: 92 16        	sta	($16)                   ; 0x2016 <__putchar+0x33>
    2f4f: e6 16        	inc	$16                     ; 0x2016 <__putchar+0x33>
    2f51: d0 02        	bne	$2f55 <memcpy+0x19>
    2f53: e6 17        	inc	$17                     ; 0x2017 <__putchar+0x34>
    2f55: e6 14        	inc	$14                     ; 0x2014 <__putchar+0x31>
    2f57: d0 02        	bne	$2f5b <memcpy+0x1f>
    2f59: e6 15        	inc	$15                     ; 0x2015 <__putchar+0x32>
    2f5b: 88           	dey
    2f5c: c0 ff        	cpy	#$ff
    2f5e: d0 01        	bne	$2f61 <memcpy+0x25>
    2f60: ca           	dex
    2f61: 8a           	txa
    2f62: d0 e7        	bne	$2f4b <memcpy+0xf>
    2f64: 98           	tya
    2f65: d0 e4        	bne	$2f4b <memcpy+0xf>
    2f67: 60           	rts

00002f68 <__memset>:
    2f68: a4 14        	ldy	$14                     ; 0x2014 <__putchar+0x31>
    2f6a: d0 04        	bne	$2f70 <__memset+0x8>
    2f6c: e0 00        	cpx	#$0
    2f6e: f0 17        	beq	$2f87 <__memset+0x1f>
    2f70: 92 12        	sta	($12)                   ; 0x2012 <__putchar+0x2f>
    2f72: e6 12        	inc	$12                     ; 0x2012 <__putchar+0x2f>
    2f74: d0 02        	bne	$2f78 <__memset+0x10>
    2f76: e6 13        	inc	$13                     ; 0x2013 <__putchar+0x30>
    2f78: ca           	dex
    2f79: e0 ff        	cpx	#$ff
    2f7b: d0 02        	bne	$2f7f <__memset+0x17>
    2f7d: c6 14        	dec	$14                     ; 0x2014 <__putchar+0x31>
    2f7f: a4 14        	ldy	$14                     ; 0x2014 <__putchar+0x31>
    2f81: d0 ed        	bne	$2f70 <__memset+0x8>
    2f83: e0 00        	cpx	#$0
    2f85: d0 e9        	bne	$2f70 <__memset+0x8>
    2f87: 60           	rts
