
BitLadder.elf:	file format elf32-mos

SYMBOL TABLE:
00000000 l    df *ABS*	00000000 zero-bss.c
00000000 l    df *ABS*	00000000 zero-zp-bss.c
00000000 l    df *ABS*	00000000 ld-temp.o
00000549 l     F .text	000003b3 f256Init
0000008a l     O .zp.bss	00000007 kernelEventData
00004279 l     O .rodata	00000030 textColors
00000030 l     O .zp.bss	00000001 _col
00000031 l     O .zp.bss	00000001 _row
00000036 l     O .zp.bss	00000001 _active
00000032 l     O .zp.bss	00000004 _BITMAP_BASE.2
00000037 l     O .zp.bss	00000003 _BITMAP_CLUT
000046a3 l     O .bss	00000040 _spriteCtl
000046e3 l     O .bss	00000001 kernelError
00000902 l     F .text	000012cd f256main
00003df0 l     F .text	000001cf malloc
00000086 l     O .zp.bss	00000001 planetScroll.1
00000087 l     O .zp.bss	00000001 shipExhaust.1
00000089 l     O .zp.bss	00000001 shipMT.1
00000066 l     O .zp.bss	00000002 theBeats
000027d1 l     F .text	000001c8 setupMem4ABeat
00003055 l     F .text	00000bd9 printf
00004491 l     O .rodata	00000020 beat60_notes
000044b1 l     O .rodata	00000020 beat60_delays
00002c2b l     F .text	00000246 setupMem4Track
000044d1 l     O .rodata	00000008 beat71_notes
000044d9 l     O .rodata	00000008 beat71_delays
000044e1 l     O .rodata	00000040 beat72_notes
00004521 l     O .rodata	00000040 beat72_delays
00004561 l     O .rodata	0000000d beat83_notes
0000456e l     O .rodata	0000000d beat83_delays
0000448d l     O .rodata	00000002 beat00_notes
0000448f l     O .rodata	00000002 beat00_delays
000025eb l     F .text	0000008a prepTempoLUT
0000457b l     O .rodata	00000036 sid_instrument_defs
00002749 l     F .text	00000088 sid_setInstrument
000045b1 l     O .rodata	000000f2 opl3_instrument_defs
00002675 l     F .text	000000d4 opl3_setInstrument
00000065 l     O .zp.bss	00000001 currentPal
0000438d l     O .rodata	00000008 eraLabels
00000088 l     O .zp.bss	00000001 shotT.1
00000064 l     O .zp.bss	00000001 needsToWaitExpiration
00000068 l     O .zp.bss	0000001e mainTempoLUT
00002999 l     F .text	00000292 getBeatTrackNoteInfo
00001bcf l     F .text	000003b6 dispatchNote
00001f85 l     F .text	00000666 launchBeat
0000003c l     O .zp.bss	00000001 chipAct.0
00000052 l     O .zp.bss	00000009 polyOPL3Buffer
00004159 l     F .text	000000db __udivmodhi4
00004395 l     O .rodata	00000018 opl3_fnums
00000040 l     O .zp.bss	00000006 polyPSGBuffer
0000003f l     O .zp.bss	00000001 chipAct.3
000042af l     O .rodata	00000006 sidChoiceToVoice
0000442d l     O .rodata	00000060 sidLow
00004304 l     O .rodata	00000060 sidHigh
0000003d l     O .zp.bss	00000001 chipAct.1
000042a9 l     O .rodata	00000006 polyPSGChanBits
000043ad l     O .rodata	00000040 psgLow
000043ed l     O .rodata	00000040 psgHigh
0000003e l     O .zp.bss	00000001 chipAct.2
00000046 l     O .zp.bss	00000006 reservedPSG
0000005b l     O .zp.bss	00000009 reservedOPL3
0000004c l     O .zp.bss	00000006 reservedSID
0000403d l     F .text	0000005c __udivqi3
0000400b l     F .text	00000032 __mulhi3
0000044c l     F .text	000000d7 _ZN12_GLOBAL__N_19FreeChunk6removeEv
00000092 l     O .zp.bss	00000001 _ZN12_GLOBAL__N_19last_freeE
00000316 l     F .text	00000135 _ZN12_GLOBAL__N_19FreeChunk6insertEPvj
00004099 l     F .text	000000c0 __udivhi3
00002e76 l     F .text	000000d3 _ZN12_GLOBAL__N_13putEcP6Status
00003c2e l     F .text	000001c2 putchar
00002f49 l     F .text	0000010c _ZN12_GLOBAL__N_112print_stringEPKcP6Status
0000003a l     O .zp.bss	00000002 __putchar.s
00000091 l     O .zp.bss	00000001 _ZN12_GLOBAL__N_111initializedE
00000095 l     O .zp.bss	00000002 _ZN12_GLOBAL__N_19free_listE
00000093 l     O .zp.bss	00000002 _ZN12_GLOBAL__N_19free_sizeE
000008fc g     F .text	00000006 main
00023000 g       .starsbm	00000000 starsbm_end
00010400 g       .starsbm	00000000 starsbm_start
00024800 g       .shotBM	00000000 shotBM_start
00010000 g       .starspal	00000000 starspal_start
00024000 g       .planetBM	00000000 planetBM_end
00024800 g       .shipSP	00000000 shipSP_end
00010400 g       .starspal	00000000 starspal_end
00024000 g       .shipSP	00000000 shipSP_start
00024840 g       .shotBM	00000000 shotBM_end
00023000 g       .planetBM	00000000 planetBM_start
00000311 g       .text	00000000 __after_main
00000300 g       .text	00000000 __do_init_stack
00000308 g       .text	00000000 __do_zero_bss
00000523 g     F .text	00000013 __zero_bss
0000030b g       .text	00000000 __do_zero_zp_bss
00000536 g     F .text	00000013 __zero_zp_bss
00002e71 g     F .text	00000005 exit
00000314 g       .text	00000000 _fini
00004234 g       .rodata	00000000 __set_v
00003feb  w    F .text	00000020 __memset
00001000  w      *ABS*	00000000 __heap_default_limit
000046e4 g       .noinit	00000000 __heap_start
00003fbf  w    F .text	0000002c memcpy
00000010 g       *ABS*	00000000 __rc0
00000012 g       *ABS*	00000000 __rc2
00000014 g       *ABS*	00000000 __rc4
00000016 g       *ABS*	00000000 __rc6
00000018 g       *ABS*	00000000 __rc8
0000001a g       *ABS*	00000000 __rc10
0000001c g       *ABS*	00000000 __rc12
0000001e g       *ABS*	00000000 __rc14
00000020 g       *ABS*	00000000 __rc16
00000022 g       *ABS*	00000000 __rc18
00000024 g       *ABS*	00000000 __rc20
00000026 g       *ABS*	00000000 __rc22
00000028 g       *ABS*	00000000 __rc24
0000002a g       *ABS*	00000000 __rc26
0000002c g       *ABS*	00000000 __rc28
0000002e g       *ABS*	00000000 __rc30
0000002f g       *ABS*	00000000 __rc31
00000300 g       *ABS*	00000000 __f256_start
0000c000 g       *ABS*	00000000 __stack
0000c000 g       *ABS*	00000000 __SLOT_ADDR
0800c000 g       *ABS*	00000000 __block8_lma
00002000 g       *ABS*	00000000 __BLOCK_SIZE
0900c000 g       *ABS*	00000000 __block9_lma
0a00c000 g       *ABS*	00000000 __block10_lma
0b00c000 g       *ABS*	00000000 __block11_lma
0c00c000 g       *ABS*	00000000 __block12_lma
0d00c000 g       *ABS*	00000000 __block13_lma
0e00c000 g       *ABS*	00000000 __block14_lma
0f00c000 g       *ABS*	00000000 __block15_lma
1000c000 g       *ABS*	00000000 __block16_lma
1100c000 g       *ABS*	00000000 __block17_lma
1200c000 g       *ABS*	00000000 __block18_lma
1300c000 g       *ABS*	00000000 __block19_lma
1400c000 g       *ABS*	00000000 __block20_lma
1500c000 g       *ABS*	00000000 __block21_lma
1600c000 g       *ABS*	00000000 __block22_lma
1700c000 g       *ABS*	00000000 __block23_lma
00010000 g       *ABS*	00000000 __starspal_lma
00000400 g       *ABS*	00000000 __starspal_size
00010400 g       *ABS*	00000000 __starsbm_lma
00012c00 g       *ABS*	00000000 __starsbm_size
00023000 g       *ABS*	00000000 __planetBM_lma
00001000 g       *ABS*	00000000 __planetBM_size
00024000 g       *ABS*	00000000 __shipSP_lma
00000800 g       *ABS*	00000000 __shipSP_size
00024800 g       *ABS*	00000000 __shotBM_lma
00000040 g       *ABS*	00000000 __shotBM_size
000046a3 g       .bss	00000000 __bss_start
00010400 g       .starspal	00000000 end_starspal
00023000 g       .starsbm	00000000 end_starsbm
00024000 g       .planetBM	00000000 end_planetBM
00024800 g       .shipSP	00000000 end_shipSP
00024840 g       .shotBM	00000000 end_shotBM
00000300 g       .text	00000000 _start
0000002d g       *ABS*	00000000 __rc29
0000002b g       *ABS*	00000000 __rc27
00000029 g       *ABS*	00000000 __rc25
00000027 g       *ABS*	00000000 __rc23
00000025 g       *ABS*	00000000 __rc21
00000023 g       *ABS*	00000000 __rc19
00000021 g       *ABS*	00000000 __rc17
0000001f g       *ABS*	00000000 __rc15
0000001d g       *ABS*	00000000 __rc13
0000001b g       *ABS*	00000000 __rc11
00000019 g       *ABS*	00000000 __rc9
00000017 g       *ABS*	00000000 __rc7
00000015 g       *ABS*	00000000 __rc5
00000013 g       *ABS*	00000000 __rc3
00000011 g       *ABS*	00000000 __rc1
00000030 g       .zp.data	00000000 __zp_data_start
00000300 g       *ABS*	00000000 __zp_data_load_start
00000000 g       *ABS*	00000000 __zp_data_size
00000030 g       .zp.bss	00000000 __zp_bss_start
00000067 g       *ABS*	00000000 __zp_bss_size
00000300 g       .text	00000000 _init
00004234 g       .text	00000000 __init_array_start
00004234 g       .text	00000000 __init_array_end
00004234 g       .text	00000000 __fini_array_start
00004234 g       .text	00000000 __fini_array_end
000046a3 g       .data	00000000 __data_start
000046a3 g       .data	00000000 __data_end
000046a3 g       *ABS*	00000000 __data_load_start
00000000 g       *ABS*	00000000 __data_size
000046e4 g       .bss	00000000 __bss_end
00000041 g       *ABS*	00000000 __bss_size
000046e4 g       .noinit	00000000 end_block8
000046e4 g       .noinit	00000000 end_block9
000046e4 g       .noinit	00000000 end_block10
000046e4 g       .noinit	00000000 end_block11
000046e4 g       .noinit	00000000 end_block12
000046e4 g       .noinit	00000000 end_block13
000046e4 g       .noinit	00000000 end_block14
000046e4 g       .noinit	00000000 end_block15
000046e4 g       .noinit	00000000 end_block16
000046e4 g       .noinit	00000000 end_block17
000046e4 g       .noinit	00000000 end_block18
000046e4 g       .noinit	00000000 end_block19
000046e4 g       .noinit	00000000 end_block20
000046e4 g       .noinit	00000000 end_block21
000046e4 g       .noinit	00000000 end_block22
000046e4 g       .noinit	00000000 end_block23

Disassembly of section .text:

00000300 <_start>:
     300: a9 00        	lda	#$0
     302: 85 10        	sta	$10                     ; 0x2010 <launchBeat+0x8b>
     304: a9 c0        	lda	#$c0
     306: 85 11        	sta	$11                     ; 0x2011 <launchBeat+0x8c>

00000308 <__do_zero_bss>:
     308: 20 23 05     	jsr	$523 <__zero_bss>

0000030b <__do_zero_zp_bss>:
     30b: 20 36 05     	jsr	$536 <__zero_zp_bss>
     30e: 20 fc 08     	jsr	$8fc <main>

00000311 <__after_main>:
     311: 4c 71 2e     	jmp	$2e71 <exit>

00000314 <_fini>:
     314: 60           	rts
     315: 00           	brk

00000316 <_ZN12_GLOBAL__N_19FreeChunk6insertEPvj>:
     316: 85 16        	sta	$16                     ; 0x2016 <launchBeat+0x91>
     318: 29 fe        	and	#$fe
     31a: 85 14        	sta	$14                     ; 0x2014 <launchBeat+0x8f>
     31c: a0 01        	ldy	#$1
     31e: 98           	tya
     31f: 32 12        	and	($12)                   ; 0x2012 <launchBeat+0x8d>
     321: 05 14        	ora	$14                     ; 0x2014 <launchBeat+0x8f>
     323: 92 12        	sta	($12)                   ; 0x2012 <launchBeat+0x8d>
     325: a5 12        	lda	$12                     ; 0x2012 <launchBeat+0x8d>
     327: 18           	clc
     328: 65 14        	adc	$14                     ; 0x2014 <launchBeat+0x8f>
     32a: 85 15        	sta	$15                     ; 0x2015 <launchBeat+0x90>
     32c: 8a           	txa
     32d: 65 13        	adc	$13                     ; 0x2013 <launchBeat+0x8e>
     32f: 85 14        	sta	$14                     ; 0x2014 <launchBeat+0x8f>
     331: 18           	clc
     332: a5 15        	lda	$15                     ; 0x2015 <launchBeat+0x90>
     334: 69 fe        	adc	#$fe
     336: 85 17        	sta	$17                     ; 0x2017 <launchBeat+0x92>
     338: a5 14        	lda	$14                     ; 0x2014 <launchBeat+0x8f>
     33a: 69 ff        	adc	#$ff
     33c: 85 15        	sta	$15                     ; 0x2015 <launchBeat+0x90>
     33e: a5 17        	lda	$17                     ; 0x2017 <launchBeat+0x92>
     340: 85 14        	sta	$14                     ; 0x2014 <launchBeat+0x8f>
     342: 8a           	txa
     343: 91 12        	sta	($12),y                 ; 0x2012 <launchBeat+0x8d>
     345: a5 16        	lda	$16                     ; 0x2016 <launchBeat+0x91>
     347: 92 14        	sta	($14)                   ; 0x2014 <launchBeat+0x8f>
     349: 8a           	txa
     34a: 91 14        	sta	($14),y                 ; 0x2014 <launchBeat+0x8f>
     34c: b1 12        	lda	($12),y                 ; 0x2012 <launchBeat+0x8d>
     34e: 85 14        	sta	$14                     ; 0x2014 <launchBeat+0x8f>
     350: a9 fe        	lda	#$fe
     352: 32 12        	and	($12)                   ; 0x2012 <launchBeat+0x8d>
     354: 18           	clc
     355: 65 93        	adc	$93                     ; 0x2093 <launchBeat+0x10e>
     357: aa           	tax
     358: a5 14        	lda	$14                     ; 0x2014 <launchBeat+0x8f>
     35a: 65 94        	adc	$94                     ; 0x2094 <launchBeat+0x10f>
     35c: a8           	tay
     35d: 18           	clc
     35e: 8a           	txa
     35f: 69 fe        	adc	#$fe
     361: aa           	tax
     362: 98           	tya
     363: 69 ff        	adc	#$ff
     365: 86 93        	stx	$93                     ; 0x2093 <launchBeat+0x10e>
     367: 85 94        	sta	$94                     ; 0x2094 <launchBeat+0x10f>
     369: a6 95        	ldx	$95                     ; 0x2095 <launchBeat+0x110>
     36b: 86 16        	stx	$16                     ; 0x2016 <launchBeat+0x91>
     36d: a4 96        	ldy	$96                     ; 0x2096 <launchBeat+0x111>
     36f: a2 00        	ldx	#$0
     371: 86 14        	stx	$14                     ; 0x2014 <launchBeat+0x8f>
     373: a2 00        	ldx	#$0
     375: 86 15        	stx	$15                     ; 0x2015 <launchBeat+0x90>
     377: c4 15        	cpy	$15                     ; 0x2015 <launchBeat+0x90>
     379: d0 3c        	bne	$3b7 <_ZN12_GLOBAL__N_19FreeChunk6insertEPvj+0xa1>
     37b: a6 16        	ldx	$16                     ; 0x2016 <launchBeat+0x91>
     37d: e4 14        	cpx	$14                     ; 0x2014 <launchBeat+0x8f>
     37f: d0 36        	bne	$3b7 <_ZN12_GLOBAL__N_19FreeChunk6insertEPvj+0xa1>
     381: a0 04        	ldy	#$4
     383: a5 12        	lda	$12                     ; 0x2012 <launchBeat+0x8d>
     385: 18           	clc
     386: 69 04        	adc	#$4
     388: 85 14        	sta	$14                     ; 0x2014 <launchBeat+0x8f>
     38a: a5 13        	lda	$13                     ; 0x2013 <launchBeat+0x8e>
     38c: 69 00        	adc	#$0
     38e: 18           	clc
     38f: 85 15        	sta	$15                     ; 0x2015 <launchBeat+0x90>
     391: a5 12        	lda	$12                     ; 0x2012 <launchBeat+0x8d>
     393: 91 12        	sta	($12),y                 ; 0x2012 <launchBeat+0x8d>
     395: a0 02        	ldy	#$2
     397: 85 17        	sta	$17                     ; 0x2017 <launchBeat+0x92>
     399: 69 02        	adc	#$2
     39b: 85 16        	sta	$16                     ; 0x2016 <launchBeat+0x91>
     39d: a5 17        	lda	$17                     ; 0x2017 <launchBeat+0x92>
     39f: 91 12        	sta	($12),y                 ; 0x2012 <launchBeat+0x8d>
     3a1: a5 13        	lda	$13                     ; 0x2013 <launchBeat+0x8e>
     3a3: 69 00        	adc	#$0
     3a5: 85 17        	sta	$17                     ; 0x2017 <launchBeat+0x92>
     3a7: 88           	dey
     3a8: a5 13        	lda	$13                     ; 0x2013 <launchBeat+0x8e>
     3aa: 91 14        	sta	($14),y                 ; 0x2014 <launchBeat+0x8f>
     3ac: 91 16        	sta	($16),y                 ; 0x2016 <launchBeat+0x91>
     3ae: a6 12        	ldx	$12                     ; 0x2012 <launchBeat+0x8d>
     3b0: 86 95        	stx	$95                     ; 0x2095 <launchBeat+0x110>
     3b2: a6 13        	ldx	$13                     ; 0x2013 <launchBeat+0x8e>
     3b4: 86 96        	stx	$96                     ; 0x2096 <launchBeat+0x111>
     3b6: 60           	rts
     3b7: a6 12        	ldx	$12                     ; 0x2012 <launchBeat+0x8d>
     3b9: a5 12        	lda	$12                     ; 0x2012 <launchBeat+0x8d>
     3bb: 18           	clc
     3bc: 69 02        	adc	#$2
     3be: 85 14        	sta	$14                     ; 0x2014 <launchBeat+0x8f>
     3c0: 84 18        	sty	$18                     ; 0x2018 <launchBeat+0x93>
     3c2: a5 13        	lda	$13                     ; 0x2013 <launchBeat+0x8e>
     3c4: 69 00        	adc	#$0
     3c6: 85 15        	sta	$15                     ; 0x2015 <launchBeat+0x90>
     3c8: a5 16        	lda	$16                     ; 0x2016 <launchBeat+0x91>
     3ca: 84 17        	sty	$17                     ; 0x2017 <launchBeat+0x92>
     3cc: a0 02        	ldy	#$2
     3ce: 91 12        	sta	($12),y                 ; 0x2012 <launchBeat+0x8d>
     3d0: 85 19        	sta	$19                     ; 0x2019 <launchBeat+0x94>
     3d2: 88           	dey
     3d3: a5 18        	lda	$18                     ; 0x2018 <launchBeat+0x93>
     3d5: 91 14        	sta	($14),y                 ; 0x2014 <launchBeat+0x8f>
     3d7: 18           	clc
     3d8: a5 19        	lda	$19                     ; 0x2019 <launchBeat+0x94>
     3da: 69 04        	adc	#$4
     3dc: a8           	tay
     3dd: a5 18        	lda	$18                     ; 0x2018 <launchBeat+0x93>
     3df: 69 00        	adc	#$0
     3e1: 85 19        	sta	$19                     ; 0x2019 <launchBeat+0x94>
     3e3: 84 18        	sty	$18                     ; 0x2018 <launchBeat+0x93>
     3e5: 8a           	txa
     3e6: 18           	clc
     3e7: 69 04        	adc	#$4
     3e9: 85 1a        	sta	$1a                     ; 0x201a <launchBeat+0x95>
     3eb: a5 13        	lda	$13                     ; 0x2013 <launchBeat+0x8e>
     3ed: 69 00        	adc	#$0
     3ef: 85 1b        	sta	$1b                     ; 0x201b <launchBeat+0x96>
     3f1: a0 04        	ldy	#$4
     3f3: b1 16        	lda	($16),y                 ; 0x2016 <launchBeat+0x91>
     3f5: 85 16        	sta	$16                     ; 0x2016 <launchBeat+0x91>
     3f7: 85 1d        	sta	$1d                     ; 0x201d <launchBeat+0x98>
     3f9: a0 01        	ldy	#$1
     3fb: b1 18        	lda	($18),y                 ; 0x2018 <launchBeat+0x93>
     3fd: 85 17        	sta	$17                     ; 0x2017 <launchBeat+0x92>
     3ff: 85 19        	sta	$19                     ; 0x2019 <launchBeat+0x94>
     401: a0 04        	ldy	#$4
     403: a5 1d        	lda	$1d                     ; 0x201d <launchBeat+0x98>
     405: 91 12        	sta	($12),y                 ; 0x2012 <launchBeat+0x8d>
     407: a5 19        	lda	$19                     ; 0x2019 <launchBeat+0x94>
     409: a0 01        	ldy	#$1
     40b: 91 1a        	sta	($1a),y                 ; 0x201a <launchBeat+0x95>
     40d: 18           	clc
     40e: a5 1d        	lda	$1d                     ; 0x201d <launchBeat+0x98>
     410: 69 02        	adc	#$2
     412: 85 18        	sta	$18                     ; 0x2018 <launchBeat+0x93>
     414: a5 19        	lda	$19                     ; 0x2019 <launchBeat+0x94>
     416: 69 00        	adc	#$0
     418: 85 19        	sta	$19                     ; 0x2019 <launchBeat+0x94>
     41a: 8a           	txa
     41b: c8           	iny
     41c: 91 16        	sta	($16),y                 ; 0x2016 <launchBeat+0x91>
     41e: a5 13        	lda	$13                     ; 0x2013 <launchBeat+0x8e>
     420: 88           	dey
     421: 91 18        	sta	($18),y                 ; 0x2018 <launchBeat+0x93>
     423: c8           	iny
     424: b1 12        	lda	($12),y                 ; 0x2012 <launchBeat+0x8d>
     426: 85 16        	sta	$16                     ; 0x2016 <launchBeat+0x91>
     428: 85 18        	sta	$18                     ; 0x2018 <launchBeat+0x93>
     42a: 88           	dey
     42b: b1 14        	lda	($14),y                 ; 0x2014 <launchBeat+0x8f>
     42d: 85 17        	sta	$17                     ; 0x2017 <launchBeat+0x92>
     42f: 85 14        	sta	$14                     ; 0x2014 <launchBeat+0x8f>
     431: 8a           	txa
     432: a0 04        	ldy	#$4
     434: 91 16        	sta	($16),y                 ; 0x2016 <launchBeat+0x91>
     436: 18           	clc
     437: a5 18        	lda	$18                     ; 0x2018 <launchBeat+0x93>
     439: 69 04        	adc	#$4
     43b: a8           	tay
     43c: a5 14        	lda	$14                     ; 0x2014 <launchBeat+0x8f>
     43e: 69 00        	adc	#$0
     440: 84 14        	sty	$14                     ; 0x2014 <launchBeat+0x8f>
     442: 85 15        	sta	$15                     ; 0x2015 <launchBeat+0x90>
     444: a5 13        	lda	$13                     ; 0x2013 <launchBeat+0x8e>
     446: a0 01        	ldy	#$1
     448: 91 14        	sta	($14),y                 ; 0x2014 <launchBeat+0x8f>
     44a: 60           	rts
     44b: 00           	brk

0000044c <_ZN12_GLOBAL__N_19FreeChunk6removeEv>:
     44c: a0 01        	ldy	#$1
     44e: a9 fe        	lda	#$fe
     450: 32 12        	and	($12)                   ; 0x2012 <launchBeat+0x8d>
     452: 85 14        	sta	$14                     ; 0x2014 <launchBeat+0x8f>
     454: a5 93        	lda	$93                     ; 0x2093 <launchBeat+0x10e>
     456: a6 94        	ldx	$94                     ; 0x2094 <launchBeat+0x10f>
     458: 86 15        	stx	$15                     ; 0x2015 <launchBeat+0x90>
     45a: 38           	sec
     45b: e5 14        	sbc	$14                     ; 0x2014 <launchBeat+0x8f>
     45d: aa           	tax
     45e: a5 15        	lda	$15                     ; 0x2015 <launchBeat+0x90>
     460: f1 12        	sbc	($12),y                 ; 0x2012 <launchBeat+0x8d>
     462: 85 14        	sta	$14                     ; 0x2014 <launchBeat+0x8f>
     464: 18           	clc
     465: 8a           	txa
     466: 69 02        	adc	#$2
     468: 85 15        	sta	$15                     ; 0x2015 <launchBeat+0x90>
     46a: a5 14        	lda	$14                     ; 0x2014 <launchBeat+0x8f>
     46c: 69 00        	adc	#$0
     46e: a6 15        	ldx	$15                     ; 0x2015 <launchBeat+0x90>
     470: 86 93        	stx	$93                     ; 0x2093 <launchBeat+0x10e>
     472: 85 94        	sta	$94                     ; 0x2094 <launchBeat+0x10f>
     474: a5 12        	lda	$12                     ; 0x2012 <launchBeat+0x8d>
     476: 18           	clc
     477: 69 02        	adc	#$2
     479: 85 14        	sta	$14                     ; 0x2014 <launchBeat+0x8f>
     47b: a5 13        	lda	$13                     ; 0x2013 <launchBeat+0x8e>
     47d: 69 00        	adc	#$0
     47f: c8           	iny
     480: 85 15        	sta	$15                     ; 0x2015 <launchBeat+0x90>
     482: b1 12        	lda	($12),y                 ; 0x2012 <launchBeat+0x8d>
     484: aa           	tax
     485: 88           	dey
     486: b1 14        	lda	($14),y                 ; 0x2014 <launchBeat+0x8f>
     488: 85 19        	sta	$19                     ; 0x2019 <launchBeat+0x94>
     48a: c5 13        	cmp	$13                     ; 0x2013 <launchBeat+0x8e>
     48c: d0 0f        	bne	$49d <_ZN12_GLOBAL__N_19FreeChunk6removeEv+0x51>
     48e: e4 12        	cpx	$12                     ; 0x2012 <launchBeat+0x8d>
     490: d0 0b        	bne	$49d <_ZN12_GLOBAL__N_19FreeChunk6removeEv+0x51>
     492: a2 00        	ldx	#$0
     494: 86 14        	stx	$14                     ; 0x2014 <launchBeat+0x8f>
     496: a2 00        	ldx	#$0
     498: 86 15        	stx	$15                     ; 0x2015 <launchBeat+0x90>
     49a: 4c 1a 05     	jmp	$51a <_ZN12_GLOBAL__N_19FreeChunk6removeEv+0xce>
     49d: 86 18        	stx	$18                     ; 0x2018 <launchBeat+0x93>
     49f: a6 12        	ldx	$12                     ; 0x2012 <launchBeat+0x8d>
     4a1: a5 12        	lda	$12                     ; 0x2012 <launchBeat+0x8d>
     4a3: 86 1b        	stx	$1b                     ; 0x201b <launchBeat+0x96>
     4a5: 18           	clc
     4a6: 69 04        	adc	#$4
     4a8: 85 14        	sta	$14                     ; 0x2014 <launchBeat+0x8f>
     4aa: a5 13        	lda	$13                     ; 0x2013 <launchBeat+0x8e>
     4ac: 69 00        	adc	#$0
     4ae: a0 04        	ldy	#$4
     4b0: 85 15        	sta	$15                     ; 0x2015 <launchBeat+0x90>
     4b2: b1 12        	lda	($12),y                 ; 0x2012 <launchBeat+0x8d>
     4b4: 85 1c        	sta	$1c                     ; 0x201c <launchBeat+0x97>
     4b6: 18           	clc
     4b7: 69 02        	adc	#$2
     4b9: 85 16        	sta	$16                     ; 0x2016 <launchBeat+0x91>
     4bb: a0 01        	ldy	#$1
     4bd: b1 14        	lda	($14),y                 ; 0x2014 <launchBeat+0x8f>
     4bf: aa           	tax
     4c0: 69 00        	adc	#$0
     4c2: a4 16        	ldy	$16                     ; 0x2016 <launchBeat+0x91>
     4c4: 84 14        	sty	$14                     ; 0x2014 <launchBeat+0x8f>
     4c6: 85 15        	sta	$15                     ; 0x2015 <launchBeat+0x90>
     4c8: a4 1c        	ldy	$1c                     ; 0x201c <launchBeat+0x97>
     4ca: 84 16        	sty	$16                     ; 0x2016 <launchBeat+0x91>
     4cc: 86 17        	stx	$17                     ; 0x2017 <launchBeat+0x92>
     4ce: a0 02        	ldy	#$2
     4d0: a5 18        	lda	$18                     ; 0x2018 <launchBeat+0x93>
     4d2: 91 16        	sta	($16),y                 ; 0x2016 <launchBeat+0x91>
     4d4: a5 19        	lda	$19                     ; 0x2019 <launchBeat+0x94>
     4d6: 88           	dey
     4d7: 91 14        	sta	($14),y                 ; 0x2014 <launchBeat+0x8f>
     4d9: 18           	clc
     4da: a5 1b        	lda	$1b                     ; 0x201b <launchBeat+0x96>
     4dc: 69 02        	adc	#$2
     4de: 85 14        	sta	$14                     ; 0x2014 <launchBeat+0x8f>
     4e0: a5 13        	lda	$13                     ; 0x2013 <launchBeat+0x8e>
     4e2: 69 00        	adc	#$0
     4e4: 85 15        	sta	$15                     ; 0x2015 <launchBeat+0x90>
     4e6: c8           	iny
     4e7: b1 12        	lda	($12),y                 ; 0x2012 <launchBeat+0x8d>
     4e9: 85 16        	sta	$16                     ; 0x2016 <launchBeat+0x91>
     4eb: 88           	dey
     4ec: b1 14        	lda	($14),y                 ; 0x2014 <launchBeat+0x8f>
     4ee: a4 16        	ldy	$16                     ; 0x2016 <launchBeat+0x91>
     4f0: 84 14        	sty	$14                     ; 0x2014 <launchBeat+0x8f>
     4f2: 85 15        	sta	$15                     ; 0x2015 <launchBeat+0x90>
     4f4: 85 17        	sta	$17                     ; 0x2017 <launchBeat+0x92>
     4f6: a0 04        	ldy	#$4
     4f8: a5 1c        	lda	$1c                     ; 0x201c <launchBeat+0x97>
     4fa: 91 14        	sta	($14),y                 ; 0x2014 <launchBeat+0x8f>
     4fc: 18           	clc
     4fd: a5 16        	lda	$16                     ; 0x2016 <launchBeat+0x91>
     4ff: 69 04        	adc	#$4
     501: 85 16        	sta	$16                     ; 0x2016 <launchBeat+0x91>
     503: a5 17        	lda	$17                     ; 0x2017 <launchBeat+0x92>
     505: 69 00        	adc	#$0
     507: 85 17        	sta	$17                     ; 0x2017 <launchBeat+0x92>
     509: 8a           	txa
     50a: a0 01        	ldy	#$1
     50c: 91 16        	sta	($16),y                 ; 0x2016 <launchBeat+0x91>
     50e: a6 96        	ldx	$96                     ; 0x2096 <launchBeat+0x111>
     510: e4 13        	cpx	$13                     ; 0x2013 <launchBeat+0x8e>
     512: d0 0e        	bne	$522 <_ZN12_GLOBAL__N_19FreeChunk6removeEv+0xd6>
     514: a6 95        	ldx	$95                     ; 0x2095 <launchBeat+0x110>
     516: e4 12        	cpx	$12                     ; 0x2012 <launchBeat+0x8d>
     518: d0 08        	bne	$522 <_ZN12_GLOBAL__N_19FreeChunk6removeEv+0xd6>
     51a: a6 14        	ldx	$14                     ; 0x2014 <launchBeat+0x8f>
     51c: a4 15        	ldy	$15                     ; 0x2015 <launchBeat+0x90>
     51e: 86 95        	stx	$95                     ; 0x2095 <launchBeat+0x110>
     520: 84 96        	sty	$96                     ; 0x2096 <launchBeat+0x111>
     522: 60           	rts

00000523 <__zero_bss>:
     523: a2 41        	ldx	#$41
     525: a0 00        	ldy	#$0
     527: a9 a3        	lda	#$a3
     529: 85 12        	sta	$12                     ; 0x2012 <launchBeat+0x8d>
     52b: a9 46        	lda	#$46
     52d: 85 13        	sta	$13                     ; 0x2013 <launchBeat+0x8e>
     52f: a9 00        	lda	#$0
     531: 84 14        	sty	$14                     ; 0x2014 <launchBeat+0x8f>
     533: 4c eb 3f     	jmp	$3feb <__memset>

00000536 <__zero_zp_bss>:
     536: a2 67        	ldx	#$67
     538: a0 00        	ldy	#$0
     53a: a9 30        	lda	#$30
     53c: 85 12        	sta	$12                     ; 0x2012 <launchBeat+0x8d>
     53e: a9 00        	lda	#$0
     540: 85 13        	sta	$13                     ; 0x2013 <launchBeat+0x8e>
     542: a9 00        	lda	#$0
     544: 84 14        	sty	$14                     ; 0x2014 <launchBeat+0x8f>
     546: 4c eb 3f     	jmp	$3feb <__memset>

00000549 <f256Init>:
     549: 64 14        	stz	$14                     ; 0x2014 <launchBeat+0x8f>
     54b: a2 00        	ldx	#$0
     54d: 86 12        	stx	$12                     ; 0x2012 <launchBeat+0x8d>
     54f: a2 c0        	ldx	#$c0
     551: 86 13        	stx	$13                     ; 0x2013 <launchBeat+0x8e>
     553: 64 01        	stz	$1                      ; 0x2001 <launchBeat+0x7c>
     555: a2 3f        	ldx	#$3f
     557: 8e 00 d0     	stx	$d000                   ; 0xd000 <end_block9+0x891c>
     55a: a2 b3        	ldx	#$b3
     55c: 86 00        	stx	$0                      ; 0x2000 <launchBeat+0x7b>
     55e: 64 08        	stz	$8                      ; 0x2008 <launchBeat+0x83>
     560: a2 01        	ldx	#$1
     562: 86 09        	stx	$9                      ; 0x2009 <launchBeat+0x84>
     564: e8           	inx
     565: 86 0a        	stx	$a                      ; 0x200a <launchBeat+0x85>
     567: e8           	inx
     568: 86 0b        	stx	$b                      ; 0x200b <launchBeat+0x86>
     56a: e8           	inx
     56b: 86 0c        	stx	$c                      ; 0x200c <launchBeat+0x87>
     56d: e8           	inx
     56e: 86 0d        	stx	$d                      ; 0x200d <launchBeat+0x88>
     570: a2 8a        	ldx	#$8a
     572: a0 00        	ldy	#$0
     574: 86 f0        	stx	$f0                     ; 0x20f0 <launchBeat+0x16b>
     576: 84 f1        	sty	$f1                     ; 0x20f1 <launchBeat+0x16c>
     578: a2 00        	ldx	#$0
     57a: 86 18        	stx	$18                     ; 0x2018 <launchBeat+0x93>
     57c: ca           	dex
     57d: 86 19        	stx	$19                     ; 0x2019 <launchBeat+0x94>
     57f: 8a           	txa
     580: 0a           	asl
     581: 0a           	asl
     582: 18           	clc
     583: 69 d4        	adc	#$d4
     585: 85 1a        	sta	$1a                     ; 0x201a <launchBeat+0x95>
     587: a0 00        	ldy	#$0
     589: 64 17        	stz	$17                     ; 0x2017 <launchBeat+0x92>
     58b: 64 16        	stz	$16                     ; 0x2016 <launchBeat+0x91>
     58d: a6 19        	ldx	$19                     ; 0x2019 <launchBeat+0x94>
     58f: e0 03        	cpx	#$3
     591: a6 01        	ldx	$1                      ; 0x2001 <launchBeat+0x7c>
     593: 86 1c        	stx	$1c                     ; 0x201c <launchBeat+0x97>
     595: a2 d0        	ldx	#$d0
     597: 84 1b        	sty	$1b                     ; 0x201b <launchBeat+0x96>
     599: b0 02        	bcs	$59d <f256Init+0x54>
     59b: a6 1a        	ldx	$1a                     ; 0x201a <launchBeat+0x95>
     59d: 86 15        	stx	$15                     ; 0x2015 <launchBeat+0x90>
     59f: a5 17        	lda	$17                     ; 0x2017 <launchBeat+0x92>
     5a1: 18           	clc
     5a2: 65 14        	adc	$14                     ; 0x2014 <launchBeat+0x8f>
     5a4: a8           	tay
     5a5: a6 17        	ldx	$17                     ; 0x2017 <launchBeat+0x92>
     5a7: a5 16        	lda	$16                     ; 0x2016 <launchBeat+0x91>
     5a9: 85 1d        	sta	$1d                     ; 0x201d <launchBeat+0x98>
     5ab: a5 16        	lda	$16                     ; 0x2016 <launchBeat+0x91>
     5ad: 65 15        	adc	$15                     ; 0x2015 <launchBeat+0x90>
     5af: 84 16        	sty	$16                     ; 0x2016 <launchBeat+0x91>
     5b1: a0 01        	ldy	#$1
     5b3: 84 01        	sty	$1                      ; 0x2001 <launchBeat+0x7c>
     5b5: 85 17        	sta	$17                     ; 0x2017 <launchBeat+0x92>
     5b7: a5 1b        	lda	$1b                     ; 0x201b <launchBeat+0x96>
     5b9: 92 16        	sta	($16)                   ; 0x2016 <launchBeat+0x91>
     5bb: 91 16        	sta	($16),y                 ; 0x2016 <launchBeat+0x91>
     5bd: c8           	iny
     5be: 91 16        	sta	($16),y                 ; 0x2016 <launchBeat+0x91>
     5c0: 85 15        	sta	$15                     ; 0x2015 <launchBeat+0x90>
     5c2: c8           	iny
     5c3: a9 ff        	lda	#$ff
     5c5: 91 16        	sta	($16),y                 ; 0x2016 <launchBeat+0x91>
     5c7: 8a           	txa
     5c8: a6 1c        	ldx	$1c                     ; 0x201c <launchBeat+0x97>
     5ca: 86 01        	stx	$1                      ; 0x2001 <launchBeat+0x7c>
     5cc: 18           	clc
     5cd: 69 04        	adc	#$4
     5cf: 85 17        	sta	$17                     ; 0x2017 <launchBeat+0x92>
     5d1: a5 1d        	lda	$1d                     ; 0x201d <launchBeat+0x98>
     5d3: 69 00        	adc	#$0
     5d5: e6 15        	inc	$15                     ; 0x2015 <launchBeat+0x90>
     5d7: a4 15        	ldy	$15                     ; 0x2015 <launchBeat+0x90>
     5d9: 85 16        	sta	$16                     ; 0x2016 <launchBeat+0x91>
     5db: c9 04        	cmp	#$4
     5dd: f0 03        	beq	$5e2 <f256Init+0x99>
     5df: 4c 8d 05     	jmp	$58d <f256Init+0x44>
     5e2: a5 17        	lda	$17                     ; 0x2017 <launchBeat+0x92>
     5e4: f0 03        	beq	$5e9 <f256Init+0xa0>
     5e6: 4c 8d 05     	jmp	$58d <f256Init+0x44>
     5e9: a6 18        	ldx	$18                     ; 0x2018 <launchBeat+0x93>
     5eb: e8           	inx
     5ec: e0 04        	cpx	#$4
     5ee: f0 03        	beq	$5f3 <f256Init+0xaa>
     5f0: 4c 7a 05     	jmp	$57a <f256Init+0x31>
     5f3: ad 02 d0     	lda	$d002                   ; 0xd002 <end_block9+0x891e>
     5f6: 29 f0        	and	#$f0
     5f8: 8d 02 d0     	sta	$d002                   ; 0xd002 <end_block9+0x891e>
     5fb: ad 02 d0     	lda	$d002                   ; 0xd002 <end_block9+0x891e>
     5fe: 29 0f        	and	#$f
     600: 09 10        	ora	#$10
     602: 8d 02 d0     	sta	$d002                   ; 0xd002 <end_block9+0x891e>
     605: a2 02        	ldx	#$2
     607: 8e 03 d0     	stx	$d003                   ; 0xd003 <end_block9+0x891f>
     60a: ad 01 d0     	lda	$d001                   ; 0xd001 <end_block9+0x891d>
     60d: 29 f9        	and	#$f9
     60f: 09 04        	ora	#$4
     611: 8d 01 d0     	sta	$d001                   ; 0xd001 <end_block9+0x891d>
     614: 64 14        	stz	$14                     ; 0x2014 <launchBeat+0x8f>
     616: 9c 10 d0     	stz	$d010                   ; 0xd010 <end_block9+0x892c>
     619: a2 00        	ldx	#$0
     61b: 64 15        	stz	$15                     ; 0x2015 <launchBeat+0x90>
     61d: 86 18        	stx	$18                     ; 0x2018 <launchBeat+0x93>
     61f: a4 18        	ldy	$18                     ; 0x2018 <launchBeat+0x93>
     621: be 79 42     	ldx	$4279,y                 ; 0x4279 <textColors>
     624: 86 19        	stx	$19                     ; 0x2019 <launchBeat+0x94>
     626: be 7a 42     	ldx	$427a,y                 ; 0x427a <textColors+0x1>
     629: 86 1a        	stx	$1a                     ; 0x201a <launchBeat+0x95>
     62b: be 7b 42     	ldx	$427b,y                 ; 0x427b <textColors+0x2>
     62e: 86 1b        	stx	$1b                     ; 0x201b <launchBeat+0x96>
     630: a6 15        	ldx	$15                     ; 0x2015 <launchBeat+0x90>
     632: 8e 00 de     	stx	$de00                   ; 0xde00 <end_block9+0x971c>
     635: 86 17        	stx	$17                     ; 0x2017 <launchBeat+0x92>
     637: 9c 01 de     	stz	$de01                   ; 0xde01 <end_block9+0x971d>
     63a: a2 04        	ldx	#$4
     63c: 8e 02 de     	stx	$de02                   ; 0xde02 <end_block9+0x971e>
     63f: 9c 03 de     	stz	$de03                   ; 0xde03 <end_block9+0x971f>
     642: ad 10 de     	lda	$de10                   ; 0xde10 <end_block9+0x972c>
     645: ac 11 de     	ldy	$de11                   ; 0xde11 <end_block9+0x972d>
     648: 84 15        	sty	$15                     ; 0x2015 <launchBeat+0x90>
     64a: ac 12 de     	ldy	$de12                   ; 0xde12 <end_block9+0x972e>
     64d: ac 13 de     	ldy	$de13                   ; 0xde13 <end_block9+0x972f>
     650: 18           	clc
     651: 65 14        	adc	$14                     ; 0x2014 <launchBeat+0x8f>
     653: 85 16        	sta	$16                     ; 0x2016 <launchBeat+0x91>
     655: a6 17        	ldx	$17                     ; 0x2017 <launchBeat+0x92>
     657: a9 d8        	lda	#$d8
     659: 65 15        	adc	$15                     ; 0x2015 <launchBeat+0x90>
     65b: 85 17        	sta	$17                     ; 0x2017 <launchBeat+0x92>
     65d: a5 1b        	lda	$1b                     ; 0x201b <launchBeat+0x96>
     65f: 92 16        	sta	($16)                   ; 0x2016 <launchBeat+0x91>
     661: a0 01        	ldy	#$1
     663: a5 1a        	lda	$1a                     ; 0x201a <launchBeat+0x95>
     665: 91 16        	sta	($16),y                 ; 0x2016 <launchBeat+0x91>
     667: c8           	iny
     668: a5 19        	lda	$19                     ; 0x2019 <launchBeat+0x94>
     66a: 91 16        	sta	($16),y                 ; 0x2016 <launchBeat+0x91>
     66c: c8           	iny
     66d: a9 ff        	lda	#$ff
     66f: 91 16        	sta	($16),y                 ; 0x2016 <launchBeat+0x91>
     671: 8e 00 de     	stx	$de00                   ; 0xde00 <end_block9+0x971c>
     674: 9c 01 de     	stz	$de01                   ; 0xde01 <end_block9+0x971d>
     677: c8           	iny
     678: 8c 02 de     	sty	$de02                   ; 0xde02 <end_block9+0x971e>
     67b: 9c 03 de     	stz	$de03                   ; 0xde03 <end_block9+0x971f>
     67e: ad 10 de     	lda	$de10                   ; 0xde10 <end_block9+0x972c>
     681: 85 15        	sta	$15                     ; 0x2015 <launchBeat+0x90>
     683: ad 11 de     	lda	$de11                   ; 0xde11 <end_block9+0x972d>
     686: 85 16        	sta	$16                     ; 0x2016 <launchBeat+0x91>
     688: a9 40        	lda	#$40
     68a: 18           	clc
     68b: 65 15        	adc	$15                     ; 0x2015 <launchBeat+0x90>
     68d: a8           	tay
     68e: a9 d8        	lda	#$d8
     690: 65 16        	adc	$16                     ; 0x2016 <launchBeat+0x91>
     692: 85 17        	sta	$17                     ; 0x2017 <launchBeat+0x92>
     694: 84 16        	sty	$16                     ; 0x2016 <launchBeat+0x91>
     696: ad 12 de     	lda	$de12                   ; 0xde12 <end_block9+0x972e>
     699: ad 13 de     	lda	$de13                   ; 0xde13 <end_block9+0x972f>
     69c: a5 1b        	lda	$1b                     ; 0x201b <launchBeat+0x96>
     69e: 92 16        	sta	($16)                   ; 0x2016 <launchBeat+0x91>
     6a0: a5 1a        	lda	$1a                     ; 0x201a <launchBeat+0x95>
     6a2: a0 01        	ldy	#$1
     6a4: 91 16        	sta	($16),y                 ; 0x2016 <launchBeat+0x91>
     6a6: a5 19        	lda	$19                     ; 0x2019 <launchBeat+0x94>
     6a8: c8           	iny
     6a9: 91 16        	sta	($16),y                 ; 0x2016 <launchBeat+0x91>
     6ab: c8           	iny
     6ac: a9 ff        	lda	#$ff
     6ae: 91 16        	sta	($16),y                 ; 0x2016 <launchBeat+0x91>
     6b0: e8           	inx
     6b1: 86 15        	stx	$15                     ; 0x2015 <launchBeat+0x90>
     6b3: 18           	clc
     6b4: a5 18        	lda	$18                     ; 0x2018 <launchBeat+0x93>
     6b6: 69 03        	adc	#$3
     6b8: aa           	tax
     6b9: c9 30        	cmp	#$30
     6bb: f0 03        	beq	$6c0 <f256Init+0x177>
     6bd: 4c 1d 06     	jmp	$61d <f256Init+0xd4>
     6c0: a6 01        	ldx	$1                      ; 0x2001 <launchBeat+0x7c>
     6c2: 86 18        	stx	$18                     ; 0x2018 <launchBeat+0x93>
     6c4: a2 50        	ldx	#$50
     6c6: 8e 00 de     	stx	$de00                   ; 0xde00 <end_block9+0x971c>
     6c9: 9c 01 de     	stz	$de01                   ; 0xde01 <end_block9+0x971d>
     6cc: a2 1e        	ldx	#$1e
     6ce: 8e 02 de     	stx	$de02                   ; 0xde02 <end_block9+0x971e>
     6d1: 9c 03 de     	stz	$de03                   ; 0xde03 <end_block9+0x971f>
     6d4: ae 10 de     	ldx	$de10                   ; 0xde10 <end_block9+0x972c>
     6d7: ac 11 de     	ldy	$de11                   ; 0xde11 <end_block9+0x972d>
     6da: ad 12 de     	lda	$de12                   ; 0xde12 <end_block9+0x972e>
     6dd: ad 13 de     	lda	$de13                   ; 0xde13 <end_block9+0x972f>
     6e0: a9 02        	lda	#$2
     6e2: 85 01        	sta	$1                      ; 0x2001 <launchBeat+0x7c>
     6e4: e0 01        	cpx	#$1
     6e6: 98           	tya
     6e7: e9 00        	sbc	#$0
     6e9: 50 02        	bvc	$6ed <f256Init+0x1a4>
     6eb: 49 80        	eor	#$80
     6ed: c9 00        	cmp	#$0
     6ef: 30 48        	bmi	$739 <f256Init+0x1f0>
     6f1: a9 20        	lda	#$20
     6f3: 86 19        	stx	$19                     ; 0x2019 <launchBeat+0x94>
     6f5: 86 14        	stx	$14                     ; 0x2014 <launchBeat+0x8f>
     6f7: 84 15        	sty	$15                     ; 0x2015 <launchBeat+0x90>
     6f9: a2 00        	ldx	#$0
     6fb: 86 16        	stx	$16                     ; 0x2016 <launchBeat+0x91>
     6fd: a2 c0        	ldx	#$c0
     6ff: 86 17        	stx	$17                     ; 0x2017 <launchBeat+0x92>
     701: 92 16        	sta	($16)                   ; 0x2016 <launchBeat+0x91>
     703: e6 16        	inc	$16                     ; 0x2016 <launchBeat+0x91>
     705: d0 02        	bne	$709 <f256Init+0x1c0>
     707: e6 17        	inc	$17                     ; 0x2017 <launchBeat+0x92>
     709: a2 ff        	ldx	#$ff
     70b: c6 14        	dec	$14                     ; 0x2014 <launchBeat+0x8f>
     70d: e4 14        	cpx	$14                     ; 0x2014 <launchBeat+0x8f>
     70f: d0 02        	bne	$713 <f256Init+0x1ca>
     711: c6 15        	dec	$15                     ; 0x2015 <launchBeat+0x90>
     713: a6 15        	ldx	$15                     ; 0x2015 <launchBeat+0x90>
     715: d0 ea        	bne	$701 <f256Init+0x1b8>
     717: a6 14        	ldx	$14                     ; 0x2014 <launchBeat+0x8f>
     719: d0 e6        	bne	$701 <f256Init+0x1b8>
     71b: a2 03        	ldx	#$3
     71d: 86 01        	stx	$1                      ; 0x2001 <launchBeat+0x7c>
     71f: a6 19        	ldx	$19                     ; 0x2019 <launchBeat+0x94>
     721: a9 f0        	lda	#$f0
     723: 92 12        	sta	($12)                   ; 0x2012 <launchBeat+0x8d>
     725: e6 12        	inc	$12                     ; 0x2012 <launchBeat+0x8d>
     727: d0 02        	bne	$72b <f256Init+0x1e2>
     729: e6 13        	inc	$13                     ; 0x2013 <launchBeat+0x8e>
     72b: ca           	dex
     72c: e0 ff        	cpx	#$ff
     72e: d0 01        	bne	$731 <f256Init+0x1e8>
     730: 88           	dey
     731: 98           	tya
     732: d0 ed        	bne	$721 <f256Init+0x1d8>
     734: 8a           	txa
     735: d0 ea        	bne	$721 <f256Init+0x1d8>
     737: 80 04        	bra	$73d <f256Init+0x1f4>
     739: a2 03        	ldx	#$3
     73b: 86 01        	stx	$1                      ; 0x2001 <launchBeat+0x7c>
     73d: a6 18        	ldx	$18                     ; 0x2018 <launchBeat+0x93>
     73f: 86 01        	stx	$1                      ; 0x2001 <launchBeat+0x7c>
     741: 64 30        	stz	$30                     ; 0x2030 <launchBeat+0xab>
     743: 9c 14 d0     	stz	$d014                   ; 0xd014 <end_block9+0x8930>
     746: 9c 15 d0     	stz	$d015                   ; 0xd015 <end_block9+0x8931>
     749: 64 31        	stz	$31                     ; 0x2031 <launchBeat+0xac>
     74b: 9c 16 d0     	stz	$d016                   ; 0xd016 <end_block9+0x8932>
     74e: 9c 17 d0     	stz	$d017                   ; 0xd017 <end_block9+0x8933>
     751: a2 40        	ldx	#$40
     753: 8e 00 de     	stx	$de00                   ; 0xde00 <end_block9+0x971c>
     756: a2 01        	ldx	#$1
     758: 8e 01 de     	stx	$de01                   ; 0xde01 <end_block9+0x971d>
     75b: a2 f0        	ldx	#$f0
     75d: 8e 02 de     	stx	$de02                   ; 0xde02 <end_block9+0x971e>
     760: 9c 03 de     	stz	$de03                   ; 0xde03 <end_block9+0x971f>
     763: ae 10 de     	ldx	$de10                   ; 0xde10 <end_block9+0x972c>
     766: 86 17        	stx	$17                     ; 0x2017 <launchBeat+0x92>
     768: ae 11 de     	ldx	$de11                   ; 0xde11 <end_block9+0x972d>
     76b: 86 12        	stx	$12                     ; 0x2012 <launchBeat+0x8d>
     76d: ae 12 de     	ldx	$de12                   ; 0xde12 <end_block9+0x972e>
     770: 86 13        	stx	$13                     ; 0x2013 <launchBeat+0x8e>
     772: ae 13 de     	ldx	$de13                   ; 0xde13 <end_block9+0x972f>
     775: 86 14        	stx	$14                     ; 0x2014 <launchBeat+0x8f>
     777: 64 36        	stz	$36                     ; 0x2036 <launchBeat+0xb1>
     779: a4 12        	ldy	$12                     ; 0x2012 <launchBeat+0x8d>
     77b: 84 15        	sty	$15                     ; 0x2015 <launchBeat+0x90>
     77d: 06 15        	asl	$15                     ; 0x2015 <launchBeat+0x90>
     77f: a5 13        	lda	$13                     ; 0x2013 <launchBeat+0x8e>
     781: 2a           	rol
     782: 86 16        	stx	$16                     ; 0x2016 <launchBeat+0x91>
     784: 26 16        	rol	$16                     ; 0x2016 <launchBeat+0x91>
     786: 06 15        	asl	$15                     ; 0x2015 <launchBeat+0x90>
     788: 2a           	rol
     789: 26 16        	rol	$16                     ; 0x2016 <launchBeat+0x91>
     78b: 06 15        	asl	$15                     ; 0x2015 <launchBeat+0x90>
     78d: 2a           	rol
     78e: 26 16        	rol	$16                     ; 0x2016 <launchBeat+0x91>
     790: 85 15        	sta	$15                     ; 0x2015 <launchBeat+0x90>
     792: 8d 00 de     	sta	$de00                   ; 0xde00 <end_block9+0x971c>
     795: a5 16        	lda	$16                     ; 0x2016 <launchBeat+0x91>
     797: 8d 01 de     	sta	$de01                   ; 0xde01 <end_block9+0x971d>
     79a: 9c 02 de     	stz	$de02                   ; 0xde02 <end_block9+0x971e>
     79d: a2 20        	ldx	#$20
     79f: 8e 03 de     	stx	$de03                   ; 0xde03 <end_block9+0x971f>
     7a2: ae 10 de     	ldx	$de10                   ; 0xde10 <end_block9+0x972c>
     7a5: 86 16        	stx	$16                     ; 0x2016 <launchBeat+0x91>
     7a7: ae 11 de     	ldx	$de11                   ; 0xde11 <end_block9+0x972d>
     7aa: 86 18        	stx	$18                     ; 0x2018 <launchBeat+0x93>
     7ac: ac 12 de     	ldy	$de12                   ; 0xde12 <end_block9+0x972e>
     7af: ae 13 de     	ldx	$de13                   ; 0xde13 <end_block9+0x972f>
     7b2: e4 14        	cpx	$14                     ; 0x2014 <launchBeat+0x8f>
     7b4: d0 14        	bne	$7ca <f256Init+0x281>
     7b6: c4 13        	cpy	$13                     ; 0x2013 <launchBeat+0x8e>
     7b8: d0 10        	bne	$7ca <f256Init+0x281>
     7ba: a6 18        	ldx	$18                     ; 0x2018 <launchBeat+0x93>
     7bc: e4 12        	cpx	$12                     ; 0x2012 <launchBeat+0x8d>
     7be: d0 0a        	bne	$7ca <f256Init+0x281>
     7c0: a6 16        	ldx	$16                     ; 0x2016 <launchBeat+0x91>
     7c2: e4 17        	cpx	$17                     ; 0x2017 <launchBeat+0x92>
     7c4: d0 04        	bne	$7ca <f256Init+0x281>
     7c6: a6 15        	ldx	$15                     ; 0x2015 <launchBeat+0x90>
     7c8: 80 06        	bra	$7d0 <f256Init+0x287>
     7ca: a6 15        	ldx	$15                     ; 0x2015 <launchBeat+0x90>
     7cc: e8           	inx
     7cd: d0 01        	bne	$7d0 <f256Init+0x287>
     7cf: 1a           	inc
     7d0: 8e 00 de     	stx	$de00                   ; 0xde00 <end_block9+0x971c>
     7d3: 8d 01 de     	sta	$de01                   ; 0xde01 <end_block9+0x971d>
     7d6: 9c 02 de     	stz	$de02                   ; 0xde02 <end_block9+0x971e>
     7d9: a2 20        	ldx	#$20
     7db: 8e 03 de     	stx	$de03                   ; 0xde03 <end_block9+0x971f>
     7de: ae 10 de     	ldx	$de10                   ; 0xde10 <end_block9+0x972c>
     7e1: 86 12        	stx	$12                     ; 0x2012 <launchBeat+0x8d>
     7e3: ae 11 de     	ldx	$de11                   ; 0xde11 <end_block9+0x972d>
     7e6: 86 13        	stx	$13                     ; 0x2013 <launchBeat+0x8e>
     7e8: ae 12 de     	ldx	$de12                   ; 0xde12 <end_block9+0x972e>
     7eb: 86 14        	stx	$14                     ; 0x2014 <launchBeat+0x8f>
     7ed: ae 13 de     	ldx	$de13                   ; 0xde13 <end_block9+0x972f>
     7f0: 86 15        	stx	$15                     ; 0x2015 <launchBeat+0x90>
     7f2: 38           	sec
     7f3: a9 00        	lda	#$0
     7f5: e5 12        	sbc	$12                     ; 0x2012 <launchBeat+0x8d>
     7f7: 85 16        	sta	$16                     ; 0x2016 <launchBeat+0x91>
     7f9: a9 00        	lda	#$0
     7fb: e5 13        	sbc	$13                     ; 0x2013 <launchBeat+0x8e>
     7fd: a8           	tay
     7fe: a9 08        	lda	#$8
     800: e5 14        	sbc	$14                     ; 0x2014 <launchBeat+0x8f>
     802: aa           	tax
     803: a9 00        	lda	#$0
     805: e5 15        	sbc	$15                     ; 0x2015 <launchBeat+0x90>
     807: 85 1a        	sta	$1a                     ; 0x201a <launchBeat+0x95>
     809: 38           	sec
     80a: a5 16        	lda	$16                     ; 0x2016 <launchBeat+0x91>
     80c: 5a           	phy
     80d: a4 16        	ldy	$16                     ; 0x2016 <launchBeat+0x91>
     80f: 84 18        	sty	$18                     ; 0x2018 <launchBeat+0x93>
     811: 7a           	ply
     812: e5 12        	sbc	$12                     ; 0x2012 <launchBeat+0x8d>
     814: 85 16        	sta	$16                     ; 0x2016 <launchBeat+0x91>
     816: 98           	tya
     817: 84 19        	sty	$19                     ; 0x2019 <launchBeat+0x94>
     819: e5 13        	sbc	$13                     ; 0x2013 <launchBeat+0x8e>
     81b: 85 17        	sta	$17                     ; 0x2017 <launchBeat+0x92>
     81d: 8a           	txa
     81e: 86 1b        	stx	$1b                     ; 0x201b <launchBeat+0x96>
     820: e5 14        	sbc	$14                     ; 0x2014 <launchBeat+0x8f>
     822: 85 1c        	sta	$1c                     ; 0x201c <launchBeat+0x97>
     824: a5 1a        	lda	$1a                     ; 0x201a <launchBeat+0x95>
     826: e5 15        	sbc	$15                     ; 0x2015 <launchBeat+0x90>
     828: aa           	tax
     829: 38           	sec
     82a: a5 16        	lda	$16                     ; 0x2016 <launchBeat+0x91>
     82c: e5 12        	sbc	$12                     ; 0x2012 <launchBeat+0x8d>
     82e: 85 12        	sta	$12                     ; 0x2012 <launchBeat+0x8d>
     830: a5 17        	lda	$17                     ; 0x2017 <launchBeat+0x92>
     832: e5 13        	sbc	$13                     ; 0x2013 <launchBeat+0x8e>
     834: 85 13        	sta	$13                     ; 0x2013 <launchBeat+0x8e>
     836: a5 1c        	lda	$1c                     ; 0x201c <launchBeat+0x97>
     838: e5 14        	sbc	$14                     ; 0x2014 <launchBeat+0x8f>
     83a: a8           	tay
     83b: 8a           	txa
     83c: e5 15        	sbc	$15                     ; 0x2015 <launchBeat+0x90>
     83e: a6 12        	ldx	$12                     ; 0x2012 <launchBeat+0x8d>
     840: 86 32        	stx	$32                     ; 0x2032 <launchBeat+0xad>
     842: a6 13        	ldx	$13                     ; 0x2013 <launchBeat+0x8e>
     844: 86 33        	stx	$33                     ; 0x2033 <launchBeat+0xae>
     846: 84 34        	sty	$34                     ; 0x2034 <launchBeat+0xaf>
     848: 85 35        	sta	$35                     ; 0x2035 <launchBeat+0xb0>
     84a: 64 37        	stz	$37                     ; 0x2037 <launchBeat+0xb2>
     84c: 64 38        	stz	$38                     ; 0x2038 <launchBeat+0xb3>
     84e: 64 39        	stz	$39                     ; 0x2039 <launchBeat+0xb4>
     850: a5 18        	lda	$18                     ; 0x2018 <launchBeat+0x93>
     852: 8d 01 d1     	sta	$d101                   ; 0xd101 <end_block9+0x8a1d>
     855: a5 19        	lda	$19                     ; 0x2019 <launchBeat+0x94>
     857: 8d 02 d1     	sta	$d102                   ; 0xd102 <end_block9+0x8a1e>
     85a: a6 1b        	ldx	$1b                     ; 0x201b <launchBeat+0x96>
     85c: 8e 03 d1     	stx	$d103                   ; 0xd103 <end_block9+0x8a1f>
     85f: a6 16        	ldx	$16                     ; 0x2016 <launchBeat+0x91>
     861: 8e 09 d1     	stx	$d109                   ; 0xd109 <end_block9+0x8a25>
     864: a6 17        	ldx	$17                     ; 0x2017 <launchBeat+0x92>
     866: 8e 0a d1     	stx	$d10a                   ; 0xd10a <end_block9+0x8a26>
     869: a6 1c        	ldx	$1c                     ; 0x201c <launchBeat+0x97>
     86b: 8e 0b d1     	stx	$d10b                   ; 0xd10b <end_block9+0x8a27>
     86e: a6 32        	ldx	$32                     ; 0x2032 <launchBeat+0xad>
     870: 8e 11 d1     	stx	$d111                   ; 0xd111 <end_block9+0x8a2d>
     873: a6 33        	ldx	$33                     ; 0x2033 <launchBeat+0xae>
     875: 8e 12 d1     	stx	$d112                   ; 0xd112 <end_block9+0x8a2e>
     878: a6 34        	ldx	$34                     ; 0x2034 <launchBeat+0xaf>
     87a: 8e 13 d1     	stx	$d113                   ; 0xd113 <end_block9+0x8a2f>
     87d: 9c 00 d1     	stz	$d100                   ; 0xd100 <end_block9+0x8a1c>
     880: 9c 08 d1     	stz	$d108                   ; 0xd108 <end_block9+0x8a24>
     883: 9c 10 d1     	stz	$d110                   ; 0xd110 <end_block9+0x8a2c>
     886: a2 10        	ldx	#$10
     888: 8e 00 d2     	stx	$d200                   ; 0xd200 <end_block9+0x8b1c>
     88b: 8e 0c d2     	stx	$d20c                   ; 0xd20c <end_block9+0x8b28>
     88e: 8e 18 d2     	stx	$d218                   ; 0xd218 <end_block9+0x8b34>
     891: a0 d9        	ldy	#$d9
     893: 64 12        	stz	$12                     ; 0x2012 <launchBeat+0x8d>
     895: a2 00        	ldx	#$0
     897: 84 13        	sty	$13                     ; 0x2013 <launchBeat+0x8e>
     899: bd a3 46     	lda	$46a3,x                 ; 0x46a3 <_spriteCtl>
     89c: 92 12        	sta	($12)                   ; 0x2012 <launchBeat+0x8d>
     89e: a5 12        	lda	$12                     ; 0x2012 <launchBeat+0x8d>
     8a0: e8           	inx
     8a1: 18           	clc
     8a2: 69 08        	adc	#$8
     8a4: 85 12        	sta	$12                     ; 0x2012 <launchBeat+0x8d>
     8a6: 98           	tya
     8a7: 69 00        	adc	#$0
     8a9: a8           	tay
     8aa: e0 40        	cpx	#$40
     8ac: d0 e9        	bne	$897 <f256Init+0x34e>
     8ae: a2 97        	ldx	#$97
     8b0: a0 00        	ldy	#$0
     8b2: 86 fb        	stx	$fb                     ; 0x20fb <launchBeat+0x176>
     8b4: 84 fc        	sty	$fc                     ; 0x20fc <launchBeat+0x177>
     8b6: a2 08        	ldx	#$8
     8b8: 86 fd        	stx	$fd                     ; 0x20fd <launchBeat+0x178>
     8ba: a2 9f        	ldx	#$9f
     8bc: a0 00        	ldy	#$0
     8be: 86 12        	stx	$12                     ; 0x2012 <launchBeat+0x8d>
     8c0: 84 13        	sty	$13                     ; 0x2013 <launchBeat+0x8e>
     8c2: a2 e3        	ldx	#$e3
     8c4: 86 14        	stx	$14                     ; 0x2014 <launchBeat+0x8f>
     8c6: a2 46        	ldx	#$46
     8c8: 86 15        	stx	$15                     ; 0x2015 <launchBeat+0x90>
     8ca: 20 dc ff     	jsr	$ffdc <end_block9+0xb8f8>
     8cd: 92 12        	sta	($12)                   ; 0x2012 <launchBeat+0x8d>
     8cf: a9 00        	lda	#$0
     8d1: 6a           	ror
     8d2: 85 14        	sta	$14                     ; 0x2014 <launchBeat+0x8f>
     8d4: a6 9d        	ldx	$9d                     ; 0x209d <launchBeat+0x118>
     8d6: a4 9e        	ldy	$9e                     ; 0x209e <launchBeat+0x119>
     8d8: 8e 00 de     	stx	$de00                   ; 0xde00 <end_block9+0x971c>
     8db: 9c 01 de     	stz	$de01                   ; 0xde01 <end_block9+0x971d>
     8de: 8c 02 de     	sty	$de02                   ; 0xde02 <end_block9+0x971e>
     8e1: 9c 03 de     	stz	$de03                   ; 0xde03 <end_block9+0x971f>
     8e4: ae 10 de     	ldx	$de10                   ; 0xde10 <end_block9+0x972c>
     8e7: ac 11 de     	ldy	$de11                   ; 0xde11 <end_block9+0x972d>
     8ea: ad 12 de     	lda	$de12                   ; 0xde12 <end_block9+0x972e>
     8ed: ad 13 de     	lda	$de13                   ; 0xde13 <end_block9+0x972f>
     8f0: 8e a4 d6     	stx	$d6a4                   ; 0xd6a4 <end_block9+0x8fc0>
     8f3: 8c a5 d6     	sty	$d6a5                   ; 0xd6a5 <end_block9+0x8fc1>
     8f6: a2 03        	ldx	#$3
     8f8: 8e a6 d6     	stx	$d6a6                   ; 0xd6a6 <end_block9+0x8fc2>
     8fb: 60           	rts

000008fc <main>:
     8fc: 20 49 05     	jsr	$549 <f256Init>
     8ff: 20 02 09     	jsr	$902 <f256main>

00000902 <f256main>:
     902: 18           	clc
     903: a5 10        	lda	$10                     ; 0x2010 <launchBeat+0x8b>
     905: 69 e3        	adc	#$e3
     907: 85 10        	sta	$10                     ; 0x2010 <launchBeat+0x8b>
     909: a5 11        	lda	$11                     ; 0x2011 <launchBeat+0x8c>
     90b: 69 ff        	adc	#$ff
     90d: 85 11        	sta	$11                     ; 0x2011 <launchBeat+0x8c>
     90f: a9 00        	lda	#$0
     911: 18           	clc
     912: 48           	pha
     913: a5 10        	lda	$10                     ; 0x2010 <launchBeat+0x8b>
     915: 69 18        	adc	#$18
     917: 85 14        	sta	$14                     ; 0x2014 <launchBeat+0x8f>
     919: a5 11        	lda	$11                     ; 0x2011 <launchBeat+0x8c>
     91b: 69 00        	adc	#$0
     91d: 85 15        	sta	$15                     ; 0x2015 <launchBeat+0x90>
     91f: a5 14        	lda	$14                     ; 0x2014 <launchBeat+0x8f>
     921: a0 0a        	ldy	#$a
     923: 91 10        	sta	($10),y                 ; 0x2010 <launchBeat+0x8b>
     925: a5 15        	lda	$15                     ; 0x2015 <launchBeat+0x90>
     927: c8           	iny
     928: 91 10        	sta	($10),y                 ; 0x2010 <launchBeat+0x8b>
     92a: 68           	pla
     92b: 92 14        	sta	($14)                   ; 0x2014 <launchBeat+0x8f>
     92d: 18           	clc
     92e: 48           	pha
     92f: a5 10        	lda	$10                     ; 0x2010 <launchBeat+0x8b>
     931: 69 17        	adc	#$17
     933: 85 2e        	sta	$2e                     ; 0x202e <launchBeat+0xa9>
     935: a5 11        	lda	$11                     ; 0x2011 <launchBeat+0x8c>
     937: 69 00        	adc	#$0
     939: 85 2f        	sta	$2f                     ; 0x202f <launchBeat+0xaa>
     93b: 68           	pla
     93c: 92 2e        	sta	($2e)                   ; 0x202e <launchBeat+0xa9>
     93e: aa           	tax
     93f: a9 04        	lda	#$4
     941: 20 f0 3d     	jsr	$3df0 <malloc>
     944: a5 12        	lda	$12                     ; 0x2012 <launchBeat+0x8d>
     946: a0 04        	ldy	#$4
     948: 91 10        	sta	($10),y                 ; 0x2010 <launchBeat+0x8b>
     94a: a5 13        	lda	$13                     ; 0x2013 <launchBeat+0x8e>
     94c: c8           	iny
     94d: 91 10        	sta	($10),y                 ; 0x2010 <launchBeat+0x8b>
     94f: 64 01        	stz	$1                      ; 0x2001 <launchBeat+0x7c>
     951: a2 3f        	ldx	#$3f
     953: 8e 00 d0     	stx	$d000                   ; 0xd000 <end_block9+0x891c>
     956: a2 04        	ldx	#$4
     958: 8e 01 d0     	stx	$d001                   ; 0xd001 <end_block9+0x891d>
     95b: a2 01        	ldx	#$1
     95d: 8e 02 d0     	stx	$d002                   ; 0xd002 <end_block9+0x891e>
     960: a0 02        	ldy	#$2
     962: 8c 03 d0     	sty	$d003                   ; 0xd003 <end_block9+0x891f>
     965: 9c 0d d0     	stz	$d00d                   ; 0xd00d <end_block9+0x8929>
     968: 9c 0e d0     	stz	$d00e                   ; 0xd00e <end_block9+0x892a>
     96b: 9c 0f d0     	stz	$d00f                   ; 0xd00f <end_block9+0x892b>
     96e: 86 01        	stx	$1                      ; 0x2001 <launchBeat+0x7c>
     970: a2 08        	ldx	#$8
     972: 64 12        	stz	$12                     ; 0x2012 <launchBeat+0x8d>
     974: a4 0f        	ldy	$f                      ; 0x200f <launchBeat+0x8a>
     976: 78           	sei
     977: 86 0f        	stx	$f                      ; 0x200f <launchBeat+0x8a>
     979: a9 e0        	lda	#$e0
     97b: 85 13        	sta	$13                     ; 0x2013 <launchBeat+0x8e>
     97d: b2 12        	lda	($12)                   ; 0x2012 <launchBeat+0x8d>
     97f: 84 0f        	sty	$f                      ; 0x200f <launchBeat+0x8a>
     981: 58           	cli
     982: a4 12        	ldy	$12                     ; 0x2012 <launchBeat+0x8d>
     984: 84 14        	sty	$14                     ; 0x2014 <launchBeat+0x8f>
     986: a0 d0        	ldy	#$d0
     988: 84 15        	sty	$15                     ; 0x2015 <launchBeat+0x90>
     98a: 92 14        	sta	($14)                   ; 0x2014 <launchBeat+0x8f>
     98c: a4 0f        	ldy	$f                      ; 0x200f <launchBeat+0x8a>
     98e: 78           	sei
     98f: 86 0f        	stx	$f                      ; 0x200f <launchBeat+0x8a>
     991: b2 12        	lda	($12)                   ; 0x2012 <launchBeat+0x8d>
     993: 84 0f        	sty	$f                      ; 0x200f <launchBeat+0x8a>
     995: 58           	cli
     996: a0 d1        	ldy	#$d1
     998: 84 15        	sty	$15                     ; 0x2015 <launchBeat+0x90>
     99a: 92 14        	sta	($14)                   ; 0x2014 <launchBeat+0x8f>
     99c: a4 0f        	ldy	$f                      ; 0x200f <launchBeat+0x8a>
     99e: 78           	sei
     99f: 86 0f        	stx	$f                      ; 0x200f <launchBeat+0x8a>
     9a1: b2 12        	lda	($12)                   ; 0x2012 <launchBeat+0x8d>
     9a3: 84 0f        	sty	$f                      ; 0x200f <launchBeat+0x8a>
     9a5: 58           	cli
     9a6: a0 d2        	ldy	#$d2
     9a8: 84 15        	sty	$15                     ; 0x2015 <launchBeat+0x90>
     9aa: 92 14        	sta	($14)                   ; 0x2014 <launchBeat+0x8f>
     9ac: a4 0f        	ldy	$f                      ; 0x200f <launchBeat+0x8a>
     9ae: 78           	sei
     9af: 86 0f        	stx	$f                      ; 0x200f <launchBeat+0x8a>
     9b1: b2 12        	lda	($12)                   ; 0x2012 <launchBeat+0x8d>
     9b3: 84 0f        	sty	$f                      ; 0x200f <launchBeat+0x8a>
     9b5: 58           	cli
     9b6: a0 d3        	ldy	#$d3
     9b8: 84 13        	sty	$13                     ; 0x2013 <launchBeat+0x8e>
     9ba: 92 12        	sta	($12)                   ; 0x2012 <launchBeat+0x8d>
     9bc: a4 12        	ldy	$12                     ; 0x2012 <launchBeat+0x8d>
     9be: c8           	iny
     9bf: 84 12        	sty	$12                     ; 0x2012 <launchBeat+0x8d>
     9c1: f0 03        	beq	$9c6 <f256main+0xc4>
     9c3: 4c 74 09     	jmp	$974 <f256main+0x72>
     9c6: 64 12        	stz	$12                     ; 0x2012 <launchBeat+0x8d>
     9c8: a2 08        	ldx	#$8
     9ca: a4 0f        	ldy	$f                      ; 0x200f <launchBeat+0x8a>
     9cc: 78           	sei
     9cd: 86 0f        	stx	$f                      ; 0x200f <launchBeat+0x8a>
     9cf: a9 e1        	lda	#$e1
     9d1: 85 13        	sta	$13                     ; 0x2013 <launchBeat+0x8e>
     9d3: b2 12        	lda	($12)                   ; 0x2012 <launchBeat+0x8d>
     9d5: 84 0f        	sty	$f                      ; 0x200f <launchBeat+0x8a>
     9d7: 58           	cli
     9d8: a4 12        	ldy	$12                     ; 0x2012 <launchBeat+0x8d>
     9da: 84 14        	sty	$14                     ; 0x2014 <launchBeat+0x8f>
     9dc: a0 d4        	ldy	#$d4
     9de: 84 15        	sty	$15                     ; 0x2015 <launchBeat+0x90>
     9e0: 92 14        	sta	($14)                   ; 0x2014 <launchBeat+0x8f>
     9e2: a4 0f        	ldy	$f                      ; 0x200f <launchBeat+0x8a>
     9e4: 78           	sei
     9e5: 86 0f        	stx	$f                      ; 0x200f <launchBeat+0x8a>
     9e7: b2 12        	lda	($12)                   ; 0x2012 <launchBeat+0x8d>
     9e9: 84 0f        	sty	$f                      ; 0x200f <launchBeat+0x8a>
     9eb: 58           	cli
     9ec: a0 d5        	ldy	#$d5
     9ee: 84 15        	sty	$15                     ; 0x2015 <launchBeat+0x90>
     9f0: 92 14        	sta	($14)                   ; 0x2014 <launchBeat+0x8f>
     9f2: a4 0f        	ldy	$f                      ; 0x200f <launchBeat+0x8a>
     9f4: 78           	sei
     9f5: 86 0f        	stx	$f                      ; 0x200f <launchBeat+0x8a>
     9f7: b2 12        	lda	($12)                   ; 0x2012 <launchBeat+0x8d>
     9f9: 84 0f        	sty	$f                      ; 0x200f <launchBeat+0x8a>
     9fb: 58           	cli
     9fc: a0 d6        	ldy	#$d6
     9fe: 84 15        	sty	$15                     ; 0x2015 <launchBeat+0x90>
     a00: 92 14        	sta	($14)                   ; 0x2014 <launchBeat+0x8f>
     a02: a4 0f        	ldy	$f                      ; 0x200f <launchBeat+0x8a>
     a04: 78           	sei
     a05: 86 0f        	stx	$f                      ; 0x200f <launchBeat+0x8a>
     a07: b2 12        	lda	($12)                   ; 0x2012 <launchBeat+0x8d>
     a09: 84 0f        	sty	$f                      ; 0x200f <launchBeat+0x8a>
     a0b: 58           	cli
     a0c: a0 d7        	ldy	#$d7
     a0e: 84 13        	sty	$13                     ; 0x2013 <launchBeat+0x8e>
     a10: 92 12        	sta	($12)                   ; 0x2012 <launchBeat+0x8d>
     a12: a4 12        	ldy	$12                     ; 0x2012 <launchBeat+0x8d>
     a14: c8           	iny
     a15: 84 12        	sty	$12                     ; 0x2012 <launchBeat+0x8d>
     a17: f0 03        	beq	$a1c <f256main+0x11a>
     a19: 4c ca 09     	jmp	$9ca <f256main+0xc8>
     a1c: 64 12        	stz	$12                     ; 0x2012 <launchBeat+0x8d>
     a1e: a2 08        	ldx	#$8
     a20: a4 0f        	ldy	$f                      ; 0x200f <launchBeat+0x8a>
     a22: 78           	sei
     a23: 86 0f        	stx	$f                      ; 0x200f <launchBeat+0x8a>
     a25: a9 e2        	lda	#$e2
     a27: 85 13        	sta	$13                     ; 0x2013 <launchBeat+0x8e>
     a29: b2 12        	lda	($12)                   ; 0x2012 <launchBeat+0x8d>
     a2b: 84 0f        	sty	$f                      ; 0x200f <launchBeat+0x8a>
     a2d: 58           	cli
     a2e: a4 12        	ldy	$12                     ; 0x2012 <launchBeat+0x8d>
     a30: 84 14        	sty	$14                     ; 0x2014 <launchBeat+0x8f>
     a32: a0 d8        	ldy	#$d8
     a34: 84 15        	sty	$15                     ; 0x2015 <launchBeat+0x90>
     a36: 92 14        	sta	($14)                   ; 0x2014 <launchBeat+0x8f>
     a38: a4 0f        	ldy	$f                      ; 0x200f <launchBeat+0x8a>
     a3a: 78           	sei
     a3b: 86 0f        	stx	$f                      ; 0x200f <launchBeat+0x8a>
     a3d: b2 12        	lda	($12)                   ; 0x2012 <launchBeat+0x8d>
     a3f: 84 0f        	sty	$f                      ; 0x200f <launchBeat+0x8a>
     a41: 58           	cli
     a42: a0 d9        	ldy	#$d9
     a44: 84 15        	sty	$15                     ; 0x2015 <launchBeat+0x90>
     a46: 92 14        	sta	($14)                   ; 0x2014 <launchBeat+0x8f>
     a48: a4 0f        	ldy	$f                      ; 0x200f <launchBeat+0x8a>
     a4a: 78           	sei
     a4b: 86 0f        	stx	$f                      ; 0x200f <launchBeat+0x8a>
     a4d: b2 12        	lda	($12)                   ; 0x2012 <launchBeat+0x8d>
     a4f: 84 0f        	sty	$f                      ; 0x200f <launchBeat+0x8a>
     a51: 58           	cli
     a52: a0 da        	ldy	#$da
     a54: 84 15        	sty	$15                     ; 0x2015 <launchBeat+0x90>
     a56: 92 14        	sta	($14)                   ; 0x2014 <launchBeat+0x8f>
     a58: a4 0f        	ldy	$f                      ; 0x200f <launchBeat+0x8a>
     a5a: 78           	sei
     a5b: 86 0f        	stx	$f                      ; 0x200f <launchBeat+0x8a>
     a5d: b2 12        	lda	($12)                   ; 0x2012 <launchBeat+0x8d>
     a5f: 84 0f        	sty	$f                      ; 0x200f <launchBeat+0x8a>
     a61: 58           	cli
     a62: a0 db        	ldy	#$db
     a64: 84 13        	sty	$13                     ; 0x2013 <launchBeat+0x8e>
     a66: 92 12        	sta	($12)                   ; 0x2012 <launchBeat+0x8d>
     a68: a4 12        	ldy	$12                     ; 0x2012 <launchBeat+0x8d>
     a6a: c8           	iny
     a6b: 84 12        	sty	$12                     ; 0x2012 <launchBeat+0x8d>
     a6d: f0 03        	beq	$a72 <f256main+0x170>
     a6f: 4c 20 0a     	jmp	$a20 <f256main+0x11e>
     a72: 64 12        	stz	$12                     ; 0x2012 <launchBeat+0x8d>
     a74: a2 08        	ldx	#$8
     a76: a4 0f        	ldy	$f                      ; 0x200f <launchBeat+0x8a>
     a78: 78           	sei
     a79: 86 0f        	stx	$f                      ; 0x200f <launchBeat+0x8a>
     a7b: a9 e3        	lda	#$e3
     a7d: 85 13        	sta	$13                     ; 0x2013 <launchBeat+0x8e>
     a7f: b2 12        	lda	($12)                   ; 0x2012 <launchBeat+0x8d>
     a81: 84 0f        	sty	$f                      ; 0x200f <launchBeat+0x8a>
     a83: 58           	cli
     a84: a4 12        	ldy	$12                     ; 0x2012 <launchBeat+0x8d>
     a86: 84 14        	sty	$14                     ; 0x2014 <launchBeat+0x8f>
     a88: a0 dc        	ldy	#$dc
     a8a: 84 15        	sty	$15                     ; 0x2015 <launchBeat+0x90>
     a8c: 92 14        	sta	($14)                   ; 0x2014 <launchBeat+0x8f>
     a8e: a4 0f        	ldy	$f                      ; 0x200f <launchBeat+0x8a>
     a90: 78           	sei
     a91: 86 0f        	stx	$f                      ; 0x200f <launchBeat+0x8a>
     a93: b2 12        	lda	($12)                   ; 0x2012 <launchBeat+0x8d>
     a95: 84 0f        	sty	$f                      ; 0x200f <launchBeat+0x8a>
     a97: 58           	cli
     a98: a0 dd        	ldy	#$dd
     a9a: 84 15        	sty	$15                     ; 0x2015 <launchBeat+0x90>
     a9c: 92 14        	sta	($14)                   ; 0x2014 <launchBeat+0x8f>
     a9e: a4 0f        	ldy	$f                      ; 0x200f <launchBeat+0x8a>
     aa0: 78           	sei
     aa1: 86 0f        	stx	$f                      ; 0x200f <launchBeat+0x8a>
     aa3: b2 12        	lda	($12)                   ; 0x2012 <launchBeat+0x8d>
     aa5: 84 0f        	sty	$f                      ; 0x200f <launchBeat+0x8a>
     aa7: 58           	cli
     aa8: a0 de        	ldy	#$de
     aaa: 84 15        	sty	$15                     ; 0x2015 <launchBeat+0x90>
     aac: 92 14        	sta	($14)                   ; 0x2014 <launchBeat+0x8f>
     aae: a4 0f        	ldy	$f                      ; 0x200f <launchBeat+0x8a>
     ab0: 78           	sei
     ab1: 86 0f        	stx	$f                      ; 0x200f <launchBeat+0x8a>
     ab3: b2 12        	lda	($12)                   ; 0x2012 <launchBeat+0x8d>
     ab5: 84 0f        	sty	$f                      ; 0x200f <launchBeat+0x8a>
     ab7: 58           	cli
     ab8: a0 df        	ldy	#$df
     aba: 84 13        	sty	$13                     ; 0x2013 <launchBeat+0x8e>
     abc: 92 12        	sta	($12)                   ; 0x2012 <launchBeat+0x8d>
     abe: a4 12        	ldy	$12                     ; 0x2012 <launchBeat+0x8d>
     ac0: c8           	iny
     ac1: 84 12        	sty	$12                     ; 0x2012 <launchBeat+0x8d>
     ac3: f0 03        	beq	$ac8 <f256main+0x1c6>
     ac5: 4c 76 0a     	jmp	$a76 <f256main+0x174>
     ac8: 64 01        	stz	$1                      ; 0x2001 <launchBeat+0x7c>
     aca: a0 10        	ldy	#$10
     acc: 8c a3 46     	sty	$46a3                   ; 0x46a3 <_spriteCtl>
     acf: 8c 00 d9     	sty	$d900                   ; 0xd900 <end_block9+0x921c>
     ad2: 9c 01 d9     	stz	$d901                   ; 0xd901 <end_block9+0x921d>
     ad5: a2 30        	ldx	#$30
     ad7: 8e 02 d9     	stx	$d902                   ; 0xd902 <end_block9+0x921e>
     ada: a2 02        	ldx	#$2
     adc: 8e 03 d9     	stx	$d903                   ; 0xd903 <end_block9+0x921f>
     adf: 8c a4 46     	sty	$46a4                   ; 0x46a4 <_spriteCtl+0x1>
     ae2: 8c 08 d9     	sty	$d908                   ; 0xd908 <end_block9+0x9224>
     ae5: 9c 09 d9     	stz	$d909                   ; 0xd909 <end_block9+0x9225>
     ae8: a9 34        	lda	#$34
     aea: 8d 0a d9     	sta	$d90a                   ; 0xd90a <end_block9+0x9226>
     aed: 8e 0b d9     	stx	$d90b                   ; 0xd90b <end_block9+0x9227>
     af0: 8c a5 46     	sty	$46a5                   ; 0x46a5 <_spriteCtl+0x2>
     af3: 8c 10 d9     	sty	$d910                   ; 0xd910 <end_block9+0x922c>
     af6: 9c 11 d9     	stz	$d911                   ; 0xd911 <end_block9+0x922d>
     af9: a9 38        	lda	#$38
     afb: 8d 12 d9     	sta	$d912                   ; 0xd912 <end_block9+0x922e>
     afe: 8e 13 d9     	stx	$d913                   ; 0xd913 <end_block9+0x922f>
     b01: 8c a6 46     	sty	$46a6                   ; 0x46a6 <_spriteCtl+0x3>
     b04: 8c 18 d9     	sty	$d918                   ; 0xd918 <end_block9+0x9234>
     b07: 9c 19 d9     	stz	$d919                   ; 0xd919 <end_block9+0x9235>
     b0a: a9 3c        	lda	#$3c
     b0c: 8d 1a d9     	sta	$d91a                   ; 0xd91a <end_block9+0x9236>
     b0f: 8e 1b d9     	stx	$d91b                   ; 0xd91b <end_block9+0x9237>
     b12: a9 40        	lda	#$40
     b14: 8d 04 d9     	sta	$d904                   ; 0xd904 <end_block9+0x9220>
     b17: a9 01        	lda	#$1
     b19: 8d 05 d9     	sta	$d905                   ; 0xd905 <end_block9+0x9221>
     b1c: a9 f0        	lda	#$f0
     b1e: 8d 06 d9     	sta	$d906                   ; 0xd906 <end_block9+0x9222>
     b21: 9c 07 d9     	stz	$d907                   ; 0xd907 <end_block9+0x9223>
     b24: a9 60        	lda	#$60
     b26: 8d 0c d9     	sta	$d90c                   ; 0xd90c <end_block9+0x9228>
     b29: a9 01        	lda	#$1
     b2b: 8d 0d d9     	sta	$d90d                   ; 0xd90d <end_block9+0x9229>
     b2e: a9 f0        	lda	#$f0
     b30: 8d 0e d9     	sta	$d90e                   ; 0xd90e <end_block9+0x922a>
     b33: 9c 0f d9     	stz	$d90f                   ; 0xd90f <end_block9+0x922b>
     b36: a9 80        	lda	#$80
     b38: 8d 14 d9     	sta	$d914                   ; 0xd914 <end_block9+0x9230>
     b3b: a9 01        	lda	#$1
     b3d: 8d 15 d9     	sta	$d915                   ; 0xd915 <end_block9+0x9231>
     b40: a9 f0        	lda	#$f0
     b42: 8d 16 d9     	sta	$d916                   ; 0xd916 <end_block9+0x9232>
     b45: 9c 17 d9     	stz	$d917                   ; 0xd917 <end_block9+0x9233>
     b48: a9 a0        	lda	#$a0
     b4a: 8d 1c d9     	sta	$d91c                   ; 0xd91c <end_block9+0x9238>
     b4d: a9 01        	lda	#$1
     b4f: 8d 1d d9     	sta	$d91d                   ; 0xd91d <end_block9+0x9239>
     b52: a9 f0        	lda	#$f0
     b54: 8d 1e d9     	sta	$d91e                   ; 0xd91e <end_block9+0x923a>
     b57: 9c 1f d9     	stz	$d91f                   ; 0xd91f <end_block9+0x923b>
     b5a: 8c a7 46     	sty	$46a7                   ; 0x46a7 <_spriteCtl+0x4>
     b5d: 8c 20 d9     	sty	$d920                   ; 0xd920 <end_block9+0x923c>
     b60: 9c 21 d9     	stz	$d921                   ; 0xd921 <end_block9+0x923d>
     b63: a0 40        	ldy	#$40
     b65: 8c 22 d9     	sty	$d922                   ; 0xd922 <end_block9+0x923e>
     b68: 8e 23 d9     	stx	$d923                   ; 0xd923 <end_block9+0x923f>
     b6b: a0 32        	ldy	#$32
     b6d: 8c 24 d9     	sty	$d924                   ; 0xd924 <end_block9+0x9240>
     b70: 9c 25 d9     	stz	$d925                   ; 0xd925 <end_block9+0x9241>
     b73: 8c 26 d9     	sty	$d926                   ; 0xd926 <end_block9+0x9242>
     b76: 9c 27 d9     	stz	$d927                   ; 0xd927 <end_block9+0x9243>
     b79: a0 70        	ldy	#$70
     b7b: 8c a8 46     	sty	$46a8                   ; 0x46a8 <_spriteCtl+0x5>
     b7e: 8c 28 d9     	sty	$d928                   ; 0xd928 <end_block9+0x9244>
     b81: 9c 29 d9     	stz	$d929                   ; 0xd929 <end_block9+0x9245>
     b84: a0 48        	ldy	#$48
     b86: 8c 2a d9     	sty	$d92a                   ; 0xd92a <end_block9+0x9246>
     b89: 8e 2b d9     	stx	$d92b                   ; 0xd92b <end_block9+0x9247>
     b8c: a9 01        	lda	#$1
     b8e: 0d a3 46     	ora	$46a3                   ; 0x46a3 <_spriteCtl>
     b91: 8d 00 d9     	sta	$d900                   ; 0xd900 <end_block9+0x921c>
     b94: a9 01        	lda	#$1
     b96: 0d a4 46     	ora	$46a4                   ; 0x46a4 <_spriteCtl+0x1>
     b99: 8d 08 d9     	sta	$d908                   ; 0xd908 <end_block9+0x9224>
     b9c: a9 01        	lda	#$1
     b9e: 0d a5 46     	ora	$46a5                   ; 0x46a5 <_spriteCtl+0x2>
     ba1: 8d 10 d9     	sta	$d910                   ; 0xd910 <end_block9+0x922c>
     ba4: a9 01        	lda	#$1
     ba6: 0d a6 46     	ora	$46a6                   ; 0x46a6 <_spriteCtl+0x3>
     ba9: 8d 18 d9     	sta	$d918                   ; 0xd918 <end_block9+0x9234>
     bac: a9 01        	lda	#$1
     bae: 0d a7 46     	ora	$46a7                   ; 0x46a7 <_spriteCtl+0x4>
     bb1: 8d 20 d9     	sta	$d920                   ; 0xd920 <end_block9+0x923c>
     bb4: ac a8 46     	ldy	$46a8                   ; 0x46a8 <_spriteCtl+0x5>
     bb7: 8c 28 d9     	sty	$d928                   ; 0xd928 <end_block9+0x9244>
     bba: a9 01        	lda	#$1
     bbc: 85 36        	sta	$36                     ; 0x2036 <launchBeat+0xb1>
     bbe: 64 32        	stz	$32                     ; 0x2032 <launchBeat+0xad>
     bc0: a0 04        	ldy	#$4
     bc2: 84 33        	sty	$33                     ; 0x2033 <launchBeat+0xae>
     bc4: 85 34        	sta	$34                     ; 0x2034 <launchBeat+0xaf>
     bc6: 64 35        	stz	$35                     ; 0x2035 <launchBeat+0xb0>
     bc8: 9c 11 d1     	stz	$d111                   ; 0xd111 <end_block9+0x8a2d>
     bcb: 8c 12 d1     	sty	$d112                   ; 0xd112 <end_block9+0x8a2e>
     bce: 8d 13 d1     	sta	$d113                   ; 0xd113 <end_block9+0x8a2f>
     bd1: a5 36        	lda	$36                     ; 0x2036 <launchBeat+0xb1>
     bd3: 29 01        	and	#$1
     bd5: d0 02        	bne	$bd9 <f256main+0x2d7>
     bd7: a2 00        	ldx	#$0
     bd9: 74 37        	stz	$37,x                   ; 0x2037 <launchBeat+0xb2>
     bdb: a2 00        	ldx	#$0
     bdd: 86 12        	stx	$12                     ; 0x2012 <launchBeat+0x8d>
     bdf: a2 d1        	ldx	#$d1
     be1: 86 13        	stx	$13                     ; 0x2013 <launchBeat+0x8e>
     be3: aa           	tax
     be4: f0 08        	beq	$bee <f256main+0x2ec>
     be6: a2 10        	ldx	#$10
     be8: 86 12        	stx	$12                     ; 0x2012 <launchBeat+0x8d>
     bea: a2 d1        	ldx	#$d1
     bec: 86 13        	stx	$13                     ; 0x2013 <launchBeat+0x8e>
     bee: b2 12        	lda	($12)                   ; 0x2012 <launchBeat+0x8d>
     bf0: 29 f9        	and	#$f9
     bf2: 92 12        	sta	($12)                   ; 0x2012 <launchBeat+0x8d>
     bf4: 9c 00 d1     	stz	$d100                   ; 0xd100 <end_block9+0x8a1c>
     bf7: 9c 08 d1     	stz	$d108                   ; 0xd108 <end_block9+0x8a24>
     bfa: a9 01        	lda	#$1
     bfc: 05 39        	ora	$39                     ; 0x2039 <launchBeat+0xb4>
     bfe: 8d 10 d1     	sta	$d110                   ; 0xd110 <end_block9+0x8a2c>
     c01: a2 80        	ldx	#$80
     c03: 86 f3        	stx	$f3                     ; 0x20f3 <launchBeat+0x16e>
     c05: 18           	clc
     c06: a5 10        	lda	$10                     ; 0x2010 <launchBeat+0x8b>
     c08: 69 19        	adc	#$19
     c0a: 85 2a        	sta	$2a                     ; 0x202a <launchBeat+0xa5>
     c0c: a5 11        	lda	$11                     ; 0x2011 <launchBeat+0x8c>
     c0e: 69 00        	adc	#$0
     c10: 85 2b        	sta	$2b                     ; 0x202b <launchBeat+0xa6>
     c12: a0 e3        	ldy	#$e3
     c14: 84 12        	sty	$12                     ; 0x2012 <launchBeat+0x8d>
     c16: a0 46        	ldy	#$46
     c18: 84 13        	sty	$13                     ; 0x2013 <launchBeat+0x8e>
     c1a: 20 f0 ff     	jsr	$fff0 <end_block9+0xb90c>
     c1d: 92 2a        	sta	($2a)                   ; 0x202a <launchBeat+0xa5>
     c1f: a9 00        	lda	#$0
     c21: 6a           	ror
     c22: 85 12        	sta	$12                     ; 0x2012 <launchBeat+0x8d>
     c24: a9 05        	lda	#$5
     c26: 18           	clc
     c27: 72 2a        	adc	($2a)                   ; 0x202a <launchBeat+0xa5>
     c29: 85 86        	sta	$86                     ; 0x2086 <launchBeat+0x101>
     c2b: 64 f3        	stz	$f3                     ; 0x20f3 <launchBeat+0x16e>
     c2d: a4 86        	ldy	$86                     ; 0x2086 <launchBeat+0x101>
     c2f: 84 f4        	sty	$f4                     ; 0x20f4 <launchBeat+0x16f>
     c31: a0 0a        	ldy	#$a
     c33: 84 f5        	sty	$f5                     ; 0x20f5 <launchBeat+0x170>
     c35: 20 f0 ff     	jsr	$fff0 <end_block9+0xb90c>
     c38: 92 2a        	sta	($2a)                   ; 0x202a <launchBeat+0xa5>
     c3a: a9 00        	lda	#$0
     c3c: 6a           	ror
     c3d: 85 12        	sta	$12                     ; 0x2012 <launchBeat+0x8d>
     c3f: 86 f3        	stx	$f3                     ; 0x20f3 <launchBeat+0x16e>
     c41: 20 f0 ff     	jsr	$fff0 <end_block9+0xb90c>
     c44: 92 2a        	sta	($2a)                   ; 0x202a <launchBeat+0xa5>
     c46: a9 00        	lda	#$0
     c48: 6a           	ror
     c49: 85 12        	sta	$12                     ; 0x2012 <launchBeat+0x8d>
     c4b: a9 02        	lda	#$2
     c4d: 18           	clc
     c4e: 72 2a        	adc	($2a)                   ; 0x202a <launchBeat+0xa5>
     c50: 85 87        	sta	$87                     ; 0x2087 <launchBeat+0x102>
     c52: 64 f3        	stz	$f3                     ; 0x20f3 <launchBeat+0x16e>
     c54: a4 87        	ldy	$87                     ; 0x2087 <launchBeat+0x102>
     c56: 84 f4        	sty	$f4                     ; 0x20f4 <launchBeat+0x16f>
     c58: a0 0b        	ldy	#$b
     c5a: 84 f5        	sty	$f5                     ; 0x20f5 <launchBeat+0x170>
     c5c: 20 f0 ff     	jsr	$fff0 <end_block9+0xb90c>
     c5f: 92 2a        	sta	($2a)                   ; 0x202a <launchBeat+0xa5>
     c61: a9 00        	lda	#$0
     c63: 6a           	ror
     c64: 85 12        	sta	$12                     ; 0x2012 <launchBeat+0x8d>
     c66: 86 f3        	stx	$f3                     ; 0x20f3 <launchBeat+0x16e>
     c68: 20 f0 ff     	jsr	$fff0 <end_block9+0xb90c>
     c6b: 92 2a        	sta	($2a)                   ; 0x202a <launchBeat+0xa5>
     c6d: a9 00        	lda	#$0
     c6f: 6a           	ror
     c70: 85 12        	sta	$12                     ; 0x2012 <launchBeat+0x8d>
     c72: 18           	clc
     c73: a9 03        	lda	#$3
     c75: 72 2a        	adc	($2a)                   ; 0x202a <launchBeat+0xa5>
     c77: 85 89        	sta	$89                     ; 0x2089 <launchBeat+0x104>
     c79: 64 f3        	stz	$f3                     ; 0x20f3 <launchBeat+0x16e>
     c7b: a6 89        	ldx	$89                     ; 0x2089 <launchBeat+0x104>
     c7d: 86 f4        	stx	$f4                     ; 0x20f4 <launchBeat+0x16f>
     c7f: a2 0c        	ldx	#$c
     c81: 86 f5        	stx	$f5                     ; 0x20f5 <launchBeat+0x170>
     c83: 20 f0 ff     	jsr	$fff0 <end_block9+0xb90c>
     c86: 92 2a        	sta	($2a)                   ; 0x202a <launchBeat+0xa5>
     c88: a9 00        	lda	#$0
     c8a: 6a           	ror
     c8b: 85 12        	sta	$12                     ; 0x2012 <launchBeat+0x8d>
     c8d: a9 3c        	lda	#$3c
     c8f: a2 00        	ldx	#$0
     c91: 20 f0 3d     	jsr	$3df0 <malloc>
     c94: a6 12        	ldx	$12                     ; 0x2012 <launchBeat+0x8d>
     c96: 86 2c        	stx	$2c                     ; 0x202c <launchBeat+0xa7>
     c98: a6 13        	ldx	$13                     ; 0x2013 <launchBeat+0x8e>
     c9a: 86 2d        	stx	$2d                     ; 0x202d <launchBeat+0xa8>
     c9c: a6 2c        	ldx	$2c                     ; 0x202c <launchBeat+0xa7>
     c9e: a4 2d        	ldy	$2d                     ; 0x202d <launchBeat+0xa8>
     ca0: 86 66        	stx	$66                     ; 0x2066 <launchBeat+0xe1>
     ca2: 84 67        	sty	$67                     ; 0x2067 <launchBeat+0xe2>
     ca4: a9 00        	lda	#$0
     ca6: 92 2a        	sta	($2a)                   ; 0x202a <launchBeat+0xa5>
     ca8: a0 01        	ldy	#$1
     caa: 91 2a        	sta	($2a),y                 ; 0x202a <launchBeat+0xa5>
     cac: c8           	iny
     cad: a9 04        	lda	#$4
     caf: 91 2a        	sta	($2a),y                 ; 0x202a <launchBeat+0xa5>
     cb1: c8           	iny
     cb2: a9 00        	lda	#$0
     cb4: 91 2a        	sta	($2a),y                 ; 0x202a <launchBeat+0xa5>
     cb6: a2 04        	ldx	#$4
     cb8: 64 14        	stz	$14                     ; 0x2014 <launchBeat+0x8f>
     cba: 64 15        	stz	$15                     ; 0x2015 <launchBeat+0x90>
     cbc: 86 16        	stx	$16                     ; 0x2016 <launchBeat+0x91>
     cbe: 64 17        	stz	$17                     ; 0x2017 <launchBeat+0x92>
     cc0: a2 01        	ldx	#$1
     cc2: 20 d1 27     	jsr	$27d1 <setupMem4ABeat>
     cc5: c9 ff        	cmp	#$ff
     cc7: d0 0b        	bne	$cd4 <f256main+0x3d2>
     cc9: a2 67        	ldx	#$67
     ccb: 86 12        	stx	$12                     ; 0x2012 <launchBeat+0x8d>
     ccd: a2 43        	ldx	#$43
     ccf: 86 13        	stx	$13                     ; 0x2013 <launchBeat+0x8e>
     cd1: 20 55 30     	jsr	$3055 <printf>
     cd4: a9 02        	lda	#$2
     cd6: a6 2a        	ldx	$2a                     ; 0x202a <launchBeat+0xa5>
     cd8: 86 14        	stx	$14                     ; 0x2014 <launchBeat+0x8f>
     cda: a6 2b        	ldx	$2b                     ; 0x202b <launchBeat+0xa6>
     cdc: 86 15        	stx	$15                     ; 0x2015 <launchBeat+0x90>
     cde: a2 91        	ldx	#$91
     ce0: 86 16        	stx	$16                     ; 0x2016 <launchBeat+0x91>
     ce2: a2 44        	ldx	#$44
     ce4: 86 17        	stx	$17                     ; 0x2017 <launchBeat+0x92>
     ce6: a2 b1        	ldx	#$b1
     ce8: 86 18        	stx	$18                     ; 0x2018 <launchBeat+0x93>
     cea: a2 44        	ldx	#$44
     cec: 86 19        	stx	$19                     ; 0x2019 <launchBeat+0x94>
     cee: a2 20        	ldx	#$20
     cf0: 64 12        	stz	$12                     ; 0x2012 <launchBeat+0x8d>
     cf2: 86 13        	stx	$13                     ; 0x2013 <launchBeat+0x8e>
     cf4: a2 00        	ldx	#$0
     cf6: 20 2b 2c     	jsr	$2c2b <setupMem4Track>
     cf9: b2 2a        	lda	($2a)                   ; 0x202a <launchBeat+0xa5>
     cfb: 85 14        	sta	$14                     ; 0x2014 <launchBeat+0x8f>
     cfd: a0 01        	ldy	#$1
     cff: b1 2a        	lda	($2a),y                 ; 0x202a <launchBeat+0xa5>
     d01: 85 15        	sta	$15                     ; 0x2015 <launchBeat+0x90>
     d03: c8           	iny
     d04: b1 2a        	lda	($2a),y                 ; 0x202a <launchBeat+0xa5>
     d06: 85 16        	sta	$16                     ; 0x2016 <launchBeat+0x91>
     d08: c8           	iny
     d09: b1 2a        	lda	($2a),y                 ; 0x202a <launchBeat+0xa5>
     d0b: 85 17        	sta	$17                     ; 0x2017 <launchBeat+0x92>
     d0d: a6 2c        	ldx	$2c                     ; 0x202c <launchBeat+0xa7>
     d0f: 86 12        	stx	$12                     ; 0x2012 <launchBeat+0x8d>
     d11: a6 2d        	ldx	$2d                     ; 0x202d <launchBeat+0xa8>
     d13: 86 13        	stx	$13                     ; 0x2013 <launchBeat+0x8e>
     d15: a9 01        	lda	#$1
     d17: a2 03        	ldx	#$3
     d19: 20 d1 27     	jsr	$27d1 <setupMem4ABeat>
     d1c: c9 ff        	cmp	#$ff
     d1e: d0 0b        	bne	$d2b <f256main+0x429>
     d20: a2 67        	ldx	#$67
     d22: 86 12        	stx	$12                     ; 0x2012 <launchBeat+0x8d>
     d24: a2 43        	ldx	#$43
     d26: 86 13        	stx	$13                     ; 0x2013 <launchBeat+0x8e>
     d28: 20 55 30     	jsr	$3055 <printf>
     d2b: a9 01        	lda	#$1
     d2d: a6 2a        	ldx	$2a                     ; 0x202a <launchBeat+0xa5>
     d2f: 86 14        	stx	$14                     ; 0x2014 <launchBeat+0x8f>
     d31: a6 2b        	ldx	$2b                     ; 0x202b <launchBeat+0xa6>
     d33: 86 15        	stx	$15                     ; 0x2015 <launchBeat+0x90>
     d35: a2 91        	ldx	#$91
     d37: 86 16        	stx	$16                     ; 0x2016 <launchBeat+0x91>
     d39: a2 44        	ldx	#$44
     d3b: 86 17        	stx	$17                     ; 0x2017 <launchBeat+0x92>
     d3d: a2 b1        	ldx	#$b1
     d3f: 86 18        	stx	$18                     ; 0x2018 <launchBeat+0x93>
     d41: a2 44        	ldx	#$44
     d43: 86 19        	stx	$19                     ; 0x2019 <launchBeat+0x94>
     d45: a2 20        	ldx	#$20
     d47: 64 12        	stz	$12                     ; 0x2012 <launchBeat+0x8d>
     d49: 86 13        	stx	$13                     ; 0x2013 <launchBeat+0x8e>
     d4b: a2 00        	ldx	#$0
     d4d: 20 2b 2c     	jsr	$2c2b <setupMem4Track>
     d50: a2 05        	ldx	#$5
     d52: a4 2a        	ldy	$2a                     ; 0x202a <launchBeat+0xa5>
     d54: 84 14        	sty	$14                     ; 0x2014 <launchBeat+0x8f>
     d56: a4 2b        	ldy	$2b                     ; 0x202b <launchBeat+0xa6>
     d58: 84 15        	sty	$15                     ; 0x2015 <launchBeat+0x90>
     d5a: a0 d1        	ldy	#$d1
     d5c: 84 16        	sty	$16                     ; 0x2016 <launchBeat+0x91>
     d5e: a0 44        	ldy	#$44
     d60: 84 17        	sty	$17                     ; 0x2017 <launchBeat+0x92>
     d62: a0 d9        	ldy	#$d9
     d64: 84 18        	sty	$18                     ; 0x2018 <launchBeat+0x93>
     d66: a0 44        	ldy	#$44
     d68: 84 19        	sty	$19                     ; 0x2019 <launchBeat+0x94>
     d6a: a0 08        	ldy	#$8
     d6c: 86 12        	stx	$12                     ; 0x2012 <launchBeat+0x8d>
     d6e: 84 13        	sty	$13                     ; 0x2013 <launchBeat+0x8e>
     d70: a2 01        	ldx	#$1
     d72: 8a           	txa
     d73: 20 2b 2c     	jsr	$2c2b <setupMem4Track>
     d76: a0 02        	ldy	#$2
     d78: a6 2a        	ldx	$2a                     ; 0x202a <launchBeat+0xa5>
     d7a: 86 14        	stx	$14                     ; 0x2014 <launchBeat+0x8f>
     d7c: a6 2b        	ldx	$2b                     ; 0x202b <launchBeat+0xa6>
     d7e: 86 15        	stx	$15                     ; 0x2015 <launchBeat+0x90>
     d80: a2 e1        	ldx	#$e1
     d82: 86 16        	stx	$16                     ; 0x2016 <launchBeat+0x91>
     d84: a2 44        	ldx	#$44
     d86: 86 17        	stx	$17                     ; 0x2017 <launchBeat+0x92>
     d88: a2 21        	ldx	#$21
     d8a: 86 18        	stx	$18                     ; 0x2018 <launchBeat+0x93>
     d8c: a2 45        	ldx	#$45
     d8e: 86 19        	stx	$19                     ; 0x2019 <launchBeat+0x94>
     d90: a2 40        	ldx	#$40
     d92: 84 12        	sty	$12                     ; 0x2012 <launchBeat+0x8d>
     d94: 86 13        	stx	$13                     ; 0x2013 <launchBeat+0x8e>
     d96: a2 03        	ldx	#$3
     d98: a9 01        	lda	#$1
     d9a: 20 2b 2c     	jsr	$2c2b <setupMem4Track>
     d9d: b2 2a        	lda	($2a)                   ; 0x202a <launchBeat+0xa5>
     d9f: 85 14        	sta	$14                     ; 0x2014 <launchBeat+0x8f>
     da1: a0 01        	ldy	#$1
     da3: b1 2a        	lda	($2a),y                 ; 0x202a <launchBeat+0xa5>
     da5: 85 15        	sta	$15                     ; 0x2015 <launchBeat+0x90>
     da7: c8           	iny
     da8: b1 2a        	lda	($2a),y                 ; 0x202a <launchBeat+0xa5>
     daa: 85 16        	sta	$16                     ; 0x2016 <launchBeat+0x91>
     dac: c8           	iny
     dad: b1 2a        	lda	($2a),y                 ; 0x202a <launchBeat+0xa5>
     daf: a6 2c        	ldx	$2c                     ; 0x202c <launchBeat+0xa7>
     db1: 86 12        	stx	$12                     ; 0x2012 <launchBeat+0x8d>
     db3: a6 2d        	ldx	$2d                     ; 0x202d <launchBeat+0xa8>
     db5: 86 13        	stx	$13                     ; 0x2013 <launchBeat+0x8e>
     db7: a2 04        	ldx	#$4
     db9: 85 17        	sta	$17                     ; 0x2017 <launchBeat+0x92>
     dbb: a9 02        	lda	#$2
     dbd: 20 d1 27     	jsr	$27d1 <setupMem4ABeat>
     dc0: c9 ff        	cmp	#$ff
     dc2: d0 0b        	bne	$dcf <f256main+0x4cd>
     dc4: a2 67        	ldx	#$67
     dc6: 86 12        	stx	$12                     ; 0x2012 <launchBeat+0x8d>
     dc8: a2 43        	ldx	#$43
     dca: 86 13        	stx	$13                     ; 0x2013 <launchBeat+0x8e>
     dcc: 20 55 30     	jsr	$3055 <printf>
     dcf: a2 00        	ldx	#$0
     dd1: a0 04        	ldy	#$4
     dd3: a5 2a        	lda	$2a                     ; 0x202a <launchBeat+0xa5>
     dd5: 85 14        	sta	$14                     ; 0x2014 <launchBeat+0x8f>
     dd7: a5 2b        	lda	$2b                     ; 0x202b <launchBeat+0xa6>
     dd9: 85 15        	sta	$15                     ; 0x2015 <launchBeat+0x90>
     ddb: a9 91        	lda	#$91
     ddd: 85 16        	sta	$16                     ; 0x2016 <launchBeat+0x91>
     ddf: a9 44        	lda	#$44
     de1: 85 17        	sta	$17                     ; 0x2017 <launchBeat+0x92>
     de3: a9 b1        	lda	#$b1
     de5: 85 18        	sta	$18                     ; 0x2018 <launchBeat+0x93>
     de7: a9 44        	lda	#$44
     de9: 85 19        	sta	$19                     ; 0x2019 <launchBeat+0x94>
     deb: a9 20        	lda	#$20
     ded: 84 12        	sty	$12                     ; 0x2012 <launchBeat+0x8d>
     def: 85 13        	sta	$13                     ; 0x2013 <launchBeat+0x8e>
     df1: a9 03        	lda	#$3
     df3: 20 2b 2c     	jsr	$2c2b <setupMem4Track>
     df6: a0 0d        	ldy	#$d
     df8: a6 2a        	ldx	$2a                     ; 0x202a <launchBeat+0xa5>
     dfa: 86 14        	stx	$14                     ; 0x2014 <launchBeat+0x8f>
     dfc: a6 2b        	ldx	$2b                     ; 0x202b <launchBeat+0xa6>
     dfe: 86 15        	stx	$15                     ; 0x2015 <launchBeat+0x90>
     e00: a2 d1        	ldx	#$d1
     e02: 86 16        	stx	$16                     ; 0x2016 <launchBeat+0x91>
     e04: a2 44        	ldx	#$44
     e06: 86 17        	stx	$17                     ; 0x2017 <launchBeat+0x92>
     e08: a2 d9        	ldx	#$d9
     e0a: 86 18        	stx	$18                     ; 0x2018 <launchBeat+0x93>
     e0c: a2 44        	ldx	#$44
     e0e: 86 19        	stx	$19                     ; 0x2019 <launchBeat+0x94>
     e10: a2 08        	ldx	#$8
     e12: 84 12        	sty	$12                     ; 0x2012 <launchBeat+0x8d>
     e14: 86 13        	stx	$13                     ; 0x2013 <launchBeat+0x8e>
     e16: a2 01        	ldx	#$1
     e18: a9 03        	lda	#$3
     e1a: 20 2b 2c     	jsr	$2c2b <setupMem4Track>
     e1d: a2 0a        	ldx	#$a
     e1f: a4 2a        	ldy	$2a                     ; 0x202a <launchBeat+0xa5>
     e21: 84 14        	sty	$14                     ; 0x2014 <launchBeat+0x8f>
     e23: a4 2b        	ldy	$2b                     ; 0x202b <launchBeat+0xa6>
     e25: 84 15        	sty	$15                     ; 0x2015 <launchBeat+0x90>
     e27: a0 e1        	ldy	#$e1
     e29: 84 16        	sty	$16                     ; 0x2016 <launchBeat+0x91>
     e2b: a0 44        	ldy	#$44
     e2d: 84 17        	sty	$17                     ; 0x2017 <launchBeat+0x92>
     e2f: a0 21        	ldy	#$21
     e31: 84 18        	sty	$18                     ; 0x2018 <launchBeat+0x93>
     e33: a0 45        	ldy	#$45
     e35: 84 19        	sty	$19                     ; 0x2019 <launchBeat+0x94>
     e37: a0 40        	ldy	#$40
     e39: 86 12        	stx	$12                     ; 0x2012 <launchBeat+0x8d>
     e3b: 84 13        	sty	$13                     ; 0x2013 <launchBeat+0x8e>
     e3d: a2 02        	ldx	#$2
     e3f: a9 03        	lda	#$3
     e41: 20 2b 2c     	jsr	$2c2b <setupMem4Track>
     e44: a2 10        	ldx	#$10
     e46: a4 2a        	ldy	$2a                     ; 0x202a <launchBeat+0xa5>
     e48: 84 14        	sty	$14                     ; 0x2014 <launchBeat+0x8f>
     e4a: a4 2b        	ldy	$2b                     ; 0x202b <launchBeat+0xa6>
     e4c: 84 15        	sty	$15                     ; 0x2015 <launchBeat+0x90>
     e4e: a0 61        	ldy	#$61
     e50: 84 16        	sty	$16                     ; 0x2016 <launchBeat+0x91>
     e52: a0 45        	ldy	#$45
     e54: 84 17        	sty	$17                     ; 0x2017 <launchBeat+0x92>
     e56: a0 6e        	ldy	#$6e
     e58: 84 18        	sty	$18                     ; 0x2018 <launchBeat+0x93>
     e5a: a0 45        	ldy	#$45
     e5c: 84 19        	sty	$19                     ; 0x2019 <launchBeat+0x94>
     e5e: 86 12        	stx	$12                     ; 0x2012 <launchBeat+0x8d>
     e60: a2 0d        	ldx	#$d
     e62: 86 13        	stx	$13                     ; 0x2013 <launchBeat+0x8e>
     e64: a2 03        	ldx	#$3
     e66: 8a           	txa
     e67: 20 2b 2c     	jsr	$2c2b <setupMem4Track>
     e6a: b2 2a        	lda	($2a)                   ; 0x202a <launchBeat+0xa5>
     e6c: 85 14        	sta	$14                     ; 0x2014 <launchBeat+0x8f>
     e6e: a0 01        	ldy	#$1
     e70: b1 2a        	lda	($2a),y                 ; 0x202a <launchBeat+0xa5>
     e72: 85 15        	sta	$15                     ; 0x2015 <launchBeat+0x90>
     e74: c8           	iny
     e75: b1 2a        	lda	($2a),y                 ; 0x202a <launchBeat+0xa5>
     e77: 85 16        	sta	$16                     ; 0x2016 <launchBeat+0x91>
     e79: c8           	iny
     e7a: b1 2a        	lda	($2a),y                 ; 0x202a <launchBeat+0xa5>
     e7c: a6 2c        	ldx	$2c                     ; 0x202c <launchBeat+0xa7>
     e7e: 86 12        	stx	$12                     ; 0x2012 <launchBeat+0x8d>
     e80: a6 2d        	ldx	$2d                     ; 0x202d <launchBeat+0xa8>
     e82: 86 13        	stx	$13                     ; 0x2013 <launchBeat+0x8e>
     e84: a2 05        	ldx	#$5
     e86: 85 17        	sta	$17                     ; 0x2017 <launchBeat+0x92>
     e88: 98           	tya
     e89: 20 d1 27     	jsr	$27d1 <setupMem4ABeat>
     e8c: c9 ff        	cmp	#$ff
     e8e: d0 0b        	bne	$e9b <f256main+0x599>
     e90: a2 67        	ldx	#$67
     e92: 86 12        	stx	$12                     ; 0x2012 <launchBeat+0x8d>
     e94: a2 43        	ldx	#$43
     e96: 86 13        	stx	$13                     ; 0x2013 <launchBeat+0x8e>
     e98: 20 55 30     	jsr	$3055 <printf>
     e9b: a2 5a        	ldx	#$5a
     e9d: a4 2a        	ldy	$2a                     ; 0x202a <launchBeat+0xa5>
     e9f: 84 14        	sty	$14                     ; 0x2014 <launchBeat+0x8f>
     ea1: a4 2b        	ldy	$2b                     ; 0x202b <launchBeat+0xa6>
     ea3: 84 15        	sty	$15                     ; 0x2015 <launchBeat+0x90>
     ea5: a0 91        	ldy	#$91
     ea7: 84 16        	sty	$16                     ; 0x2016 <launchBeat+0x91>
     ea9: a0 44        	ldy	#$44
     eab: 84 17        	sty	$17                     ; 0x2017 <launchBeat+0x92>
     ead: a0 b1        	ldy	#$b1
     eaf: 84 18        	sty	$18                     ; 0x2018 <launchBeat+0x93>
     eb1: a0 44        	ldy	#$44
     eb3: 84 19        	sty	$19                     ; 0x2019 <launchBeat+0x94>
     eb5: a0 20        	ldy	#$20
     eb7: 86 12        	stx	$12                     ; 0x2012 <launchBeat+0x8d>
     eb9: 84 13        	sty	$13                     ; 0x2013 <launchBeat+0x8e>
     ebb: a2 00        	ldx	#$0
     ebd: 8a           	txa
     ebe: 20 2b 2c     	jsr	$2c2b <setupMem4Track>
     ec1: a2 01        	ldx	#$1
     ec3: a0 71        	ldy	#$71
     ec5: a5 2a        	lda	$2a                     ; 0x202a <launchBeat+0xa5>
     ec7: 85 14        	sta	$14                     ; 0x2014 <launchBeat+0x8f>
     ec9: a5 2b        	lda	$2b                     ; 0x202b <launchBeat+0xa6>
     ecb: 85 15        	sta	$15                     ; 0x2015 <launchBeat+0x90>
     ecd: a9 d1        	lda	#$d1
     ecf: 85 16        	sta	$16                     ; 0x2016 <launchBeat+0x91>
     ed1: a9 44        	lda	#$44
     ed3: 85 17        	sta	$17                     ; 0x2017 <launchBeat+0x92>
     ed5: a9 d9        	lda	#$d9
     ed7: 85 18        	sta	$18                     ; 0x2018 <launchBeat+0x93>
     ed9: a9 44        	lda	#$44
     edb: 85 19        	sta	$19                     ; 0x2019 <launchBeat+0x94>
     edd: a9 08        	lda	#$8
     edf: 84 12        	sty	$12                     ; 0x2012 <launchBeat+0x8d>
     ee1: 85 13        	sta	$13                     ; 0x2013 <launchBeat+0x8e>
     ee3: a9 00        	lda	#$0
     ee5: 20 2b 2c     	jsr	$2c2b <setupMem4Track>
     ee8: a2 25        	ldx	#$25
     eea: a4 2a        	ldy	$2a                     ; 0x202a <launchBeat+0xa5>
     eec: 84 14        	sty	$14                     ; 0x2014 <launchBeat+0x8f>
     eee: a4 2b        	ldy	$2b                     ; 0x202b <launchBeat+0xa6>
     ef0: 84 15        	sty	$15                     ; 0x2015 <launchBeat+0x90>
     ef2: a0 e1        	ldy	#$e1
     ef4: 84 16        	sty	$16                     ; 0x2016 <launchBeat+0x91>
     ef6: a0 44        	ldy	#$44
     ef8: 84 17        	sty	$17                     ; 0x2017 <launchBeat+0x92>
     efa: a0 21        	ldy	#$21
     efc: 84 18        	sty	$18                     ; 0x2018 <launchBeat+0x93>
     efe: a0 45        	ldy	#$45
     f00: 84 19        	sty	$19                     ; 0x2019 <launchBeat+0x94>
     f02: a0 40        	ldy	#$40
     f04: 86 12        	stx	$12                     ; 0x2012 <launchBeat+0x8d>
     f06: 84 13        	sty	$13                     ; 0x2013 <launchBeat+0x8e>
     f08: a2 02        	ldx	#$2
     f0a: a9 00        	lda	#$0
     f0c: 20 2b 2c     	jsr	$2c2b <setupMem4Track>
     f0f: a2 03        	ldx	#$3
     f11: a0 5b        	ldy	#$5b
     f13: a5 2a        	lda	$2a                     ; 0x202a <launchBeat+0xa5>
     f15: 85 14        	sta	$14                     ; 0x2014 <launchBeat+0x8f>
     f17: a5 2b        	lda	$2b                     ; 0x202b <launchBeat+0xa6>
     f19: 85 15        	sta	$15                     ; 0x2015 <launchBeat+0x90>
     f1b: a9 61        	lda	#$61
     f1d: 85 16        	sta	$16                     ; 0x2016 <launchBeat+0x91>
     f1f: a9 45        	lda	#$45
     f21: 85 17        	sta	$17                     ; 0x2017 <launchBeat+0x92>
     f23: a9 6e        	lda	#$6e
     f25: 85 18        	sta	$18                     ; 0x2018 <launchBeat+0x93>
     f27: a9 45        	lda	#$45
     f29: 85 19        	sta	$19                     ; 0x2019 <launchBeat+0x94>
     f2b: a9 0d        	lda	#$d
     f2d: 84 12        	sty	$12                     ; 0x2012 <launchBeat+0x8d>
     f2f: 85 13        	sta	$13                     ; 0x2013 <launchBeat+0x8e>
     f31: a9 00        	lda	#$0
     f33: 20 2b 2c     	jsr	$2c2b <setupMem4Track>
     f36: a2 09        	ldx	#$9
     f38: a4 2a        	ldy	$2a                     ; 0x202a <launchBeat+0xa5>
     f3a: 84 14        	sty	$14                     ; 0x2014 <launchBeat+0x8f>
     f3c: a4 2b        	ldy	$2b                     ; 0x202b <launchBeat+0xa6>
     f3e: 84 15        	sty	$15                     ; 0x2015 <launchBeat+0x90>
     f40: a0 8d        	ldy	#$8d
     f42: 84 16        	sty	$16                     ; 0x2016 <launchBeat+0x91>
     f44: a0 44        	ldy	#$44
     f46: 84 17        	sty	$17                     ; 0x2017 <launchBeat+0x92>
     f48: a0 8f        	ldy	#$8f
     f4a: 84 18        	sty	$18                     ; 0x2018 <launchBeat+0x93>
     f4c: a0 44        	ldy	#$44
     f4e: 84 19        	sty	$19                     ; 0x2019 <launchBeat+0x94>
     f50: 64 12        	stz	$12                     ; 0x2012 <launchBeat+0x8d>
     f52: a0 02        	ldy	#$2
     f54: 84 13        	sty	$13                     ; 0x2013 <launchBeat+0x8e>
     f56: a9 00        	lda	#$0
     f58: 20 2b 2c     	jsr	$2c2b <setupMem4Track>
     f5b: a2 c0        	ldx	#$c0
     f5d: 8e b1 dd     	stx	$ddb1                   ; 0xddb1 <end_block9+0x96cd>
     f60: 9c b1 dd     	stz	$ddb1                   ; 0xddb1 <end_block9+0x96cd>
     f63: e8           	inx
     f64: e0 d0        	cpx	#$d0
     f66: d0 f5        	bne	$f5d <f256main+0x65b>
     f68: a0 ff        	ldy	#$ff
     f6a: a2 ff        	ldx	#$ff
     f6c: 8c b1 dd     	sty	$ddb1                   ; 0xddb1 <end_block9+0x96cd>
     f6f: ad 04 d4     	lda	$d404                   ; 0xd404 <end_block9+0x8d20>
     f72: 29 fe        	and	#$fe
     f74: 8d 04 d4     	sta	$d404                   ; 0xd404 <end_block9+0x8d20>
     f77: ad 0b d4     	lda	$d40b                   ; 0xd40b <end_block9+0x8d27>
     f7a: 29 fe        	and	#$fe
     f7c: 8d 0b d4     	sta	$d40b                   ; 0xd40b <end_block9+0x8d27>
     f7f: ad 12 d4     	lda	$d412                   ; 0xd412 <end_block9+0x8d2e>
     f82: 29 fe        	and	#$fe
     f84: 8d 12 d4     	sta	$d412                   ; 0xd412 <end_block9+0x8d2e>
     f87: ad 04 d5     	lda	$d504                   ; 0xd504 <end_block9+0x8e20>
     f8a: 29 fe        	and	#$fe
     f8c: 8d 04 d5     	sta	$d504                   ; 0xd504 <end_block9+0x8e20>
     f8f: ad 0b d5     	lda	$d50b                   ; 0xd50b <end_block9+0x8e27>
     f92: 29 fe        	and	#$fe
     f94: 8d 0b d5     	sta	$d50b                   ; 0xd50b <end_block9+0x8e27>
     f97: ad 12 d5     	lda	$d512                   ; 0xd512 <end_block9+0x8e2e>
     f9a: 29 fe        	and	#$fe
     f9c: 8d 12 d5     	sta	$d512                   ; 0xd512 <end_block9+0x8e2e>
     f9f: a0 10        	ldy	#$10
     fa1: 98           	tya
     fa2: 09 9f        	ora	#$9f
     fa4: 8d 00 d6     	sta	$d600                   ; 0xd600 <end_block9+0x8f1c>
     fa7: 8d 10 d6     	sta	$d610                   ; 0xd610 <end_block9+0x8f2c>
     faa: 18           	clc
     fab: 8a           	txa
     fac: 69 02        	adc	#$2
     fae: aa           	tax
     faf: 18           	clc
     fb0: 98           	tya
     fb1: 69 20        	adc	#$20
     fb3: a8           	tay
     fb4: e0 06        	cpx	#$6
     fb6: 90 e9        	bcc	$fa1 <f256main+0x69f>
     fb8: 20 eb 25     	jsr	$25eb <prepTempoLUT>
     fbb: a2 d4        	ldx	#$d4
     fbd: a0 00        	ldy	#$0
     fbf: 18           	clc
     fc0: 98           	tya
     fc1: 69 00        	adc	#$0
     fc3: 85 14        	sta	$14                     ; 0x2014 <launchBeat+0x8f>
     fc5: 8a           	txa
     fc6: 69 01        	adc	#$1
     fc8: 85 15        	sta	$15                     ; 0x2015 <launchBeat+0x90>
     fca: 84 12        	sty	$12                     ; 0x2012 <launchBeat+0x8d>
     fcc: 86 13        	stx	$13                     ; 0x2013 <launchBeat+0x8e>
     fce: a9 00        	lda	#$0
     fd0: 92 12        	sta	($12)                   ; 0x2012 <launchBeat+0x8d>
     fd2: 5a           	phy
     fd3: a4 14        	ldy	$14                     ; 0x2014 <launchBeat+0x8f>
     fd5: 84 12        	sty	$12                     ; 0x2012 <launchBeat+0x8d>
     fd7: a4 15        	ldy	$15                     ; 0x2015 <launchBeat+0x90>
     fd9: 84 13        	sty	$13                     ; 0x2013 <launchBeat+0x8e>
     fdb: 7a           	ply
     fdc: 92 12        	sta	($12)                   ; 0x2012 <launchBeat+0x8d>
     fde: c8           	iny
     fdf: d0 01        	bne	$fe2 <f256main+0x6e0>
     fe1: e8           	inx
     fe2: c0 19        	cpy	#$19
     fe4: d0 d9        	bne	$fbf <f256main+0x6bd>
     fe6: a2 00        	ldx	#$0
     fe8: a0 7b        	ldy	#$7b
     fea: 84 12        	sty	$12                     ; 0x2012 <launchBeat+0x8d>
     fec: a0 45        	ldy	#$45
     fee: 84 13        	sty	$13                     ; 0x2013 <launchBeat+0x8e>
     ff0: a5 12        	lda	$12                     ; 0x2012 <launchBeat+0x8d>
     ff2: a0 15        	ldy	#$15
     ff4: 91 10        	sta	($10),y                 ; 0x2010 <launchBeat+0x8b>
     ff6: a5 13        	lda	$13                     ; 0x2013 <launchBeat+0x8e>
     ff8: c8           	iny
     ff9: 91 10        	sta	($10),y                 ; 0x2010 <launchBeat+0x8b>
     ffb: 88           	dey
     ffc: b1 10        	lda	($10),y                 ; 0x2010 <launchBeat+0x8b>
     ffe: 85 12        	sta	$12                     ; 0x2012 <launchBeat+0x8d>
    1000: c8           	iny
    1001: b1 10        	lda	($10),y                 ; 0x2010 <launchBeat+0x8b>
    1003: 85 13        	sta	$13                     ; 0x2013 <launchBeat+0x8e>
    1005: 86 24        	stx	$24                     ; 0x2024 <launchBeat+0x9f>
    1007: a9 00        	lda	#$0
    1009: 20 49 27     	jsr	$2749 <sid_setInstrument>
    100c: a0 15        	ldy	#$15
    100e: b1 10        	lda	($10),y                 ; 0x2010 <launchBeat+0x8b>
    1010: 85 12        	sta	$12                     ; 0x2012 <launchBeat+0x8d>
    1012: c8           	iny
    1013: b1 10        	lda	($10),y                 ; 0x2010 <launchBeat+0x8b>
    1015: 85 13        	sta	$13                     ; 0x2013 <launchBeat+0x8e>
    1017: a6 24        	ldx	$24                     ; 0x2024 <launchBeat+0x9f>
    1019: a9 01        	lda	#$1
    101b: 20 49 27     	jsr	$2749 <sid_setInstrument>
    101e: a6 24        	ldx	$24                     ; 0x2024 <launchBeat+0x9f>
    1020: e8           	inx
    1021: e0 03        	cpx	#$3
    1023: d0 c3        	bne	$fe8 <f256main+0x6e6>
    1025: 9c 14 d4     	stz	$d414                   ; 0xd414 <end_block9+0x8d30>
    1028: 9c 15 d4     	stz	$d415                   ; 0xd415 <end_block9+0x8d31>
    102b: 9c 17 d4     	stz	$d417                   ; 0xd417 <end_block9+0x8d33>
    102e: a2 0f        	ldx	#$f
    1030: 8e 18 d4     	stx	$d418                   ; 0xd418 <end_block9+0x8d34>
    1033: 9c 14 d5     	stz	$d514                   ; 0xd514 <end_block9+0x8e30>
    1036: 9c 15 d5     	stz	$d515                   ; 0xd515 <end_block9+0x8e31>
    1039: 9c 17 d5     	stz	$d517                   ; 0xd517 <end_block9+0x8e33>
    103c: 8e 18 d5     	stx	$d518                   ; 0xd518 <end_block9+0x8e34>
    103f: ad a1 d6     	lda	$d6a1                   ; 0xd6a1 <end_block9+0x8fbd>
    1042: 29 f7        	and	#$f7
    1044: 8d a1 d6     	sta	$d6a1                   ; 0xd6a1 <end_block9+0x8fbd>
    1047: ad a1 d6     	lda	$d6a1                   ; 0xd6a1 <end_block9+0x8fbd>
    104a: 29 fb        	and	#$fb
    104c: 8d a1 d6     	sta	$d6a1                   ; 0xd6a1 <end_block9+0x8fbd>
    104f: a2 01        	ldx	#$1
    1051: 8e 80 d5     	stx	$d580                   ; 0xd580 <end_block9+0x8e9c>
    1054: a0 20        	ldy	#$20
    1056: 8c 81 d5     	sty	$d581                   ; 0xd581 <end_block9+0x8e9d>
    1059: a0 02        	ldy	#$2
    105b: 8c 80 d5     	sty	$d580                   ; 0xd580 <end_block9+0x8e9c>
    105e: 9c 81 d5     	stz	$d581                   ; 0xd581 <end_block9+0x8e9d>
    1061: c8           	iny
    1062: 8c 80 d5     	sty	$d580                   ; 0xd580 <end_block9+0x8e9c>
    1065: 9c 81 d5     	stz	$d581                   ; 0xd581 <end_block9+0x8e9d>
    1068: c8           	iny
    1069: 8c 82 d5     	sty	$d582                   ; 0xd582 <end_block9+0x8e9e>
    106c: 9c 81 d5     	stz	$d581                   ; 0xd581 <end_block9+0x8e9d>
    106f: c8           	iny
    1070: 8c 82 d5     	sty	$d582                   ; 0xd582 <end_block9+0x8e9e>
    1073: 8e 81 d5     	stx	$d581                   ; 0xd581 <end_block9+0x8e9d>
    1076: a2 08        	ldx	#$8
    1078: 8e 80 d5     	stx	$d580                   ; 0xd580 <end_block9+0x8e9c>
    107b: 9c 81 d5     	stz	$d581                   ; 0xd581 <end_block9+0x8e9d>
    107e: a2 c0        	ldx	#$c0
    1080: a0 30        	ldy	#$30
    1082: 8e 80 d5     	stx	$d580                   ; 0xd580 <end_block9+0x8e9c>
    1085: 8c 81 d5     	sty	$d581                   ; 0xd581 <end_block9+0x8e9d>
    1088: e8           	inx
    1089: e0 c9        	cpx	#$c9
    108b: d0 f5        	bne	$1082 <f256main+0x780>
    108d: a2 b0        	ldx	#$b0
    108f: 8e 80 d5     	stx	$d580                   ; 0xd580 <end_block9+0x8e9c>
    1092: 9c 81 d5     	stz	$d581                   ; 0xd581 <end_block9+0x8e9d>
    1095: e8           	inx
    1096: e0 b9        	cpx	#$b9
    1098: d0 f5        	bne	$108f <f256main+0x78d>
    109a: a0 00        	ldy	#$0
    109c: a2 b1        	ldx	#$b1
    109e: 86 12        	stx	$12                     ; 0x2012 <launchBeat+0x8d>
    10a0: a2 45        	ldx	#$45
    10a2: 86 13        	stx	$13                     ; 0x2013 <launchBeat+0x8e>
    10a4: 84 24        	sty	$24                     ; 0x2024 <launchBeat+0x9f>
    10a6: 98           	tya
    10a7: 20 75 26     	jsr	$2675 <opl3_setInstrument>
    10aa: 18           	clc
    10ab: a5 24        	lda	$24                     ; 0x2024 <launchBeat+0x9f>
    10ad: 69 c0        	adc	#$c0
    10af: 8d 80 d5     	sta	$d580                   ; 0xd580 <end_block9+0x8e9c>
    10b2: a4 24        	ldy	$24                     ; 0x2024 <launchBeat+0x9f>
    10b4: a2 30        	ldx	#$30
    10b6: 8e 81 d5     	stx	$d581                   ; 0xd581 <end_block9+0x8e9d>
    10b9: c8           	iny
    10ba: c0 09        	cpy	#$9
    10bc: d0 de        	bne	$109c <f256main+0x79a>
    10be: 64 30        	stz	$30                     ; 0x2030 <launchBeat+0xab>
    10c0: 9c 14 d0     	stz	$d014                   ; 0xd014 <end_block9+0x8930>
    10c3: 9c 15 d0     	stz	$d015                   ; 0xd015 <end_block9+0x8931>
    10c6: 64 31        	stz	$31                     ; 0x2031 <launchBeat+0xac>
    10c8: 9c 16 d0     	stz	$d016                   ; 0xd016 <end_block9+0x8932>
    10cb: 9c 17 d0     	stz	$d017                   ; 0xd017 <end_block9+0x8933>
    10ce: a5 65        	lda	$65                     ; 0x2065 <launchBeat+0xe0>
    10d0: 64 12        	stz	$12                     ; 0x2012 <launchBeat+0x8d>
    10d2: 0a           	asl
    10d3: 85 13        	sta	$13                     ; 0x2013 <launchBeat+0x8e>
    10d5: 26 12        	rol	$12                     ; 0x2012 <launchBeat+0x8d>
    10d7: a9 8d        	lda	#$8d
    10d9: 18           	clc
    10da: 65 13        	adc	$13                     ; 0x2013 <launchBeat+0x8e>
    10dc: aa           	tax
    10dd: a9 43        	lda	#$43
    10df: 65 12        	adc	$12                     ; 0x2012 <launchBeat+0x8d>
    10e1: a0 01        	ldy	#$1
    10e3: 86 12        	stx	$12                     ; 0x2012 <launchBeat+0x8d>
    10e5: 85 13        	sta	$13                     ; 0x2013 <launchBeat+0x8e>
    10e7: b2 12        	lda	($12)                   ; 0x2012 <launchBeat+0x8d>
    10e9: 85 14        	sta	$14                     ; 0x2014 <launchBeat+0x8f>
    10eb: b1 12        	lda	($12),y                 ; 0x2012 <launchBeat+0x8d>
    10ed: 85 12        	sta	$12                     ; 0x2012 <launchBeat+0x8d>
    10ef: a5 14        	lda	$14                     ; 0x2014 <launchBeat+0x8f>
    10f1: 92 10        	sta	($10)                   ; 0x2010 <launchBeat+0x8b>
    10f3: a5 12        	lda	$12                     ; 0x2012 <launchBeat+0x8d>
    10f5: 91 10        	sta	($10),y                 ; 0x2010 <launchBeat+0x8b>
    10f7: a2 64        	ldx	#$64
    10f9: 86 12        	stx	$12                     ; 0x2012 <launchBeat+0x8d>
    10fb: a2 43        	ldx	#$43
    10fd: 86 13        	stx	$13                     ; 0x2013 <launchBeat+0x8e>
    10ff: 20 55 30     	jsr	$3055 <printf>
    1102: a0 01        	ldy	#$1
    1104: a2 32        	ldx	#$32
    1106: 5a           	phy
    1107: 8a           	txa
    1108: a0 11        	ldy	#$11
    110a: 91 10        	sta	($10),y                 ; 0x2010 <launchBeat+0x8b>
    110c: a2 40        	ldx	#$40
    110e: 8a           	txa
    110f: 88           	dey
    1110: 91 10        	sta	($10),y                 ; 0x2010 <launchBeat+0x8b>
    1112: a2 e3        	ldx	#$e3
    1114: 86 2c        	stx	$2c                     ; 0x202c <launchBeat+0xa7>
    1116: a2 46        	ldx	#$46
    1118: 86 2d        	stx	$2d                     ; 0x202d <launchBeat+0xa8>
    111a: 64 28        	stz	$28                     ; 0x2028 <launchBeat+0xa3>
    111c: 64 29        	stz	$29                     ; 0x2029 <launchBeat+0xa4>
    111e: 64 14        	stz	$14                     ; 0x2014 <launchBeat+0x8f>
    1120: 64 12        	stz	$12                     ; 0x2012 <launchBeat+0x8d>
    1122: a9 00        	lda	#$0
    1124: a0 12        	ldy	#$12
    1126: 91 10        	sta	($10),y                 ; 0x2010 <launchBeat+0x8b>
    1128: c8           	iny
    1129: 91 10        	sta	($10),y                 ; 0x2010 <launchBeat+0x8b>
    112b: a0 0d        	ldy	#$d
    112d: 91 10        	sta	($10),y                 ; 0x2010 <launchBeat+0x8b>
    112f: 88           	dey
    1130: 91 10        	sta	($10),y                 ; 0x2010 <launchBeat+0x8b>
    1132: a0 0e        	ldy	#$e
    1134: 91 10        	sta	($10),y                 ; 0x2010 <launchBeat+0x8b>
    1136: a2 32        	ldx	#$32
    1138: 8a           	txa
    1139: a0 15        	ldy	#$15
    113b: 91 10        	sta	($10),y                 ; 0x2010 <launchBeat+0x8b>
    113d: a9 00        	lda	#$0
    113f: 88           	dey
    1140: 91 10        	sta	($10),y                 ; 0x2010 <launchBeat+0x8b>
    1142: 7a           	ply
    1143: 98           	tya
    1144: a0 0f        	ldy	#$f
    1146: 91 10        	sta	($10),y                 ; 0x2010 <launchBeat+0x8b>
    1148: 4c 36 1b     	jmp	$1b36 <f256main+0x1234>
    114b: a5 8e        	lda	$8e                     ; 0x208e <launchBeat+0x109>
    114d: aa           	tax
    114e: 38           	sec
    114f: e9 64        	sbc	#$64
    1151: 50 02        	bvc	$1155 <f256main+0x853>
    1153: 49 80        	eor	#$80
    1155: a8           	tay
    1156: 30 03        	bmi	$115b <f256main+0x859>
    1158: 4c 7b 12     	jmp	$127b <f256main+0x979>
    115b: 8a           	txa
    115c: 38           	sec
    115d: e9 20        	sbc	#$20
    115f: 50 02        	bvc	$1163 <f256main+0x861>
    1161: 49 80        	eor	#$80
    1163: a8           	tay
    1164: 30 03        	bmi	$1169 <f256main+0x867>
    1166: 4c 99 12     	jmp	$1299 <f256main+0x997>
    1169: e0 87        	cpx	#$87
    116b: d0 03        	bne	$1170 <f256main+0x86e>
    116d: 4c ee 17     	jmp	$17ee <f256main+0xeec>
    1170: e0 05        	cpx	#$5
    1172: f0 03        	beq	$1177 <f256main+0x875>
    1174: 4c 8c 13     	jmp	$138c <f256main+0xa8a>
    1177: a0 11        	ldy	#$11
    1179: b1 10        	lda	($10),y                 ; 0x2010 <launchBeat+0x8b>
    117b: 18           	clc
    117c: 69 0d        	adc	#$d
    117e: aa           	tax
    117f: a0 0e        	ldy	#$e
    1181: b1 10        	lda	($10),y                 ; 0x2010 <launchBeat+0x8b>
    1183: 69 00        	adc	#$0
    1185: 85 14        	sta	$14                     ; 0x2014 <launchBeat+0x8f>
    1187: a0 15        	ldy	#$15
    1189: b1 10        	lda	($10),y                 ; 0x2010 <launchBeat+0x8b>
    118b: 18           	clc
    118c: 69 1c        	adc	#$1c
    118e: a8           	tay
    118f: 5a           	phy
    1190: a0 14        	ldy	#$14
    1192: b1 10        	lda	($10),y                 ; 0x2010 <launchBeat+0x8b>
    1194: 7a           	ply
    1195: 69 00        	adc	#$0
    1197: 48           	pha
    1198: 98           	tya
    1199: 5a           	phy
    119a: a0 12        	ldy	#$12
    119c: 91 10        	sta	($10),y                 ; 0x2010 <launchBeat+0x8b>
    119e: 7a           	ply
    119f: 68           	pla
    11a0: 8c 2c d9     	sty	$d92c                   ; 0xd92c <end_block9+0x9248>
    11a3: a0 13        	ldy	#$13
    11a5: 91 10        	sta	($10),y                 ; 0x2010 <launchBeat+0x8b>
    11a7: 8d 2d d9     	sta	$d92d                   ; 0xd92d <end_block9+0x9249>
    11aa: 8a           	txa
    11ab: a0 0d        	ldy	#$d
    11ad: 91 10        	sta	($10),y                 ; 0x2010 <launchBeat+0x8b>
    11af: 8e 2e d9     	stx	$d92e                   ; 0xd92e <end_block9+0x924a>
    11b2: a6 14        	ldx	$14                     ; 0x2014 <launchBeat+0x8f>
    11b4: 8a           	txa
    11b5: 88           	dey
    11b6: 91 10        	sta	($10),y                 ; 0x2010 <launchBeat+0x8b>
    11b8: 8e 2f d9     	stx	$d92f                   ; 0xd92f <end_block9+0x924b>
    11bb: a9 01        	lda	#$1
    11bd: 0d a8 46     	ora	$46a8                   ; 0x46a8 <_spriteCtl+0x5>
    11c0: 8d 28 d9     	sta	$d928                   ; 0xd928 <end_block9+0x9244>
    11c3: a5 65        	lda	$65                     ; 0x2065 <launchBeat+0xe0>
    11c5: 0a           	asl
    11c6: 09 71        	ora	#$71
    11c8: 8d 28 d9     	sta	$d928                   ; 0xd928 <end_block9+0x9244>
    11cb: a2 80        	ldx	#$80
    11cd: 86 f3        	stx	$f3                     ; 0x20f3 <launchBeat+0x16e>
    11cf: 20 f0 ff     	jsr	$fff0 <end_block9+0xb90c>
    11d2: 92 2a        	sta	($2a)                   ; 0x202a <launchBeat+0xa5>
    11d4: a9 00        	lda	#$0
    11d6: 6a           	ror
    11d7: 85 2c        	sta	$2c                     ; 0x202c <launchBeat+0xa7>
    11d9: b2 2a        	lda	($2a)                   ; 0x202a <launchBeat+0xa5>
    11db: 1a           	inc
    11dc: 85 88        	sta	$88                     ; 0x2088 <launchBeat+0x103>
    11de: 64 f3        	stz	$f3                     ; 0x20f3 <launchBeat+0x16e>
    11e0: a6 88        	ldx	$88                     ; 0x2088 <launchBeat+0x103>
    11e2: 86 f4        	stx	$f4                     ; 0x20f4 <launchBeat+0x16f>
    11e4: a2 14        	ldx	#$14
    11e6: 86 f5        	stx	$f5                     ; 0x20f5 <launchBeat+0x170>
    11e8: a6 24        	ldx	$24                     ; 0x2024 <launchBeat+0x9f>
    11ea: 86 14        	stx	$14                     ; 0x2014 <launchBeat+0x8f>
    11ec: 20 f0 ff     	jsr	$fff0 <end_block9+0xb90c>
    11ef: 92 2a        	sta	($2a)                   ; 0x202a <launchBeat+0xa5>
    11f1: a9 00        	lda	#$0
    11f3: 6a           	ror
    11f4: 85 2c        	sta	$2c                     ; 0x202c <launchBeat+0xa7>
    11f6: 4c 36 1b     	jmp	$1b36 <f256main+0x1234>
    11f9: a6 27        	ldx	$27                     ; 0x2027 <launchBeat+0xa2>
    11fb: e0 0c        	cpx	#$c
    11fd: d0 03        	bne	$1202 <f256main+0x900>
    11ff: 4c 05 13     	jmp	$1305 <f256main+0xa03>
    1202: e0 14        	cpx	#$14
    1204: f0 03        	beq	$1209 <f256main+0x907>
    1206: 4c c4 12     	jmp	$12c4 <f256main+0x9c2>
    1209: a0 12        	ldy	#$12
    120b: b1 10        	lda	($10),y                 ; 0x2010 <launchBeat+0x8b>
    120d: c9 43        	cmp	#$43
    120f: c8           	iny
    1210: b1 10        	lda	($10),y                 ; 0x2010 <launchBeat+0x8b>
    1212: e9 01        	sbc	#$1
    1214: 50 02        	bvc	$1218 <f256main+0x916>
    1216: 49 80        	eor	#$80
    1218: aa           	tax
    1219: 18           	clc
    121a: a0 12        	ldy	#$12
    121c: b1 10        	lda	($10),y                 ; 0x2010 <launchBeat+0x8b>
    121e: 69 05        	adc	#$5
    1220: 85 14        	sta	$14                     ; 0x2014 <launchBeat+0x8f>
    1222: c8           	iny
    1223: b1 10        	lda	($10),y                 ; 0x2010 <launchBeat+0x8b>
    1225: 69 00        	adc	#$0
    1227: e0 00        	cpx	#$0
    1229: 30 03        	bmi	$122e <f256main+0x92c>
    122b: 4c 8b 15     	jmp	$158b <f256main+0xc89>
    122e: a6 14        	ldx	$14                     ; 0x2014 <launchBeat+0x8f>
    1230: 48           	pha
    1231: 8a           	txa
    1232: a0 12        	ldy	#$12
    1234: 91 10        	sta	($10),y                 ; 0x2010 <launchBeat+0x8b>
    1236: 68           	pla
    1237: 8e 2c d9     	stx	$d92c                   ; 0xd92c <end_block9+0x9248>
    123a: c8           	iny
    123b: 91 10        	sta	($10),y                 ; 0x2010 <launchBeat+0x8b>
    123d: 8d 2d d9     	sta	$d92d                   ; 0xd92d <end_block9+0x9249>
    1240: a0 0d        	ldy	#$d
    1242: b1 10        	lda	($10),y                 ; 0x2010 <launchBeat+0x8b>
    1244: 8d 2e d9     	sta	$d92e                   ; 0xd92e <end_block9+0x924a>
    1247: 88           	dey
    1248: b1 10        	lda	($10),y                 ; 0x2010 <launchBeat+0x8b>
    124a: 8d 2f d9     	sta	$d92f                   ; 0xd92f <end_block9+0x924b>
    124d: a2 80        	ldx	#$80
    124f: 86 f3        	stx	$f3                     ; 0x20f3 <launchBeat+0x16e>
    1251: 20 f0 ff     	jsr	$fff0 <end_block9+0xb90c>
    1254: 92 2a        	sta	($2a)                   ; 0x202a <launchBeat+0xa5>
    1256: a9 00        	lda	#$0
    1258: 6a           	ror
    1259: 85 2c        	sta	$2c                     ; 0x202c <launchBeat+0xa7>
    125b: b2 2a        	lda	($2a)                   ; 0x202a <launchBeat+0xa5>
    125d: 1a           	inc
    125e: 85 88        	sta	$88                     ; 0x2088 <launchBeat+0x103>
    1260: 64 f3        	stz	$f3                     ; 0x20f3 <launchBeat+0x16e>
    1262: a6 88        	ldx	$88                     ; 0x2088 <launchBeat+0x103>
    1264: 86 f4        	stx	$f4                     ; 0x20f4 <launchBeat+0x16f>
    1266: a2 14        	ldx	#$14
    1268: 86 f5        	stx	$f5                     ; 0x20f5 <launchBeat+0x170>
    126a: a6 24        	ldx	$24                     ; 0x2024 <launchBeat+0x9f>
    126c: 86 14        	stx	$14                     ; 0x2014 <launchBeat+0x8f>
    126e: 20 f0 ff     	jsr	$fff0 <end_block9+0xb90c>
    1271: 92 2a        	sta	($2a)                   ; 0x202a <launchBeat+0xa5>
    1273: a9 00        	lda	#$0
    1275: 6a           	ror
    1276: 85 2c        	sta	$2c                     ; 0x202c <launchBeat+0xa7>
    1278: 4c 36 1b     	jmp	$1b36 <f256main+0x1234>
    127b: 8a           	txa
    127c: 38           	sec
    127d: e9 77        	sbc	#$77
    127f: 50 02        	bvc	$1283 <f256main+0x981>
    1281: 49 80        	eor	#$80
    1283: a8           	tay
    1284: 10 29        	bpl	$12af <f256main+0x9ad>
    1286: e0 64        	cpx	#$64
    1288: d0 03        	bne	$128d <f256main+0x98b>
    128a: 4c 3f 13     	jmp	$133f <f256main+0xa3d>
    128d: e0 73        	cpx	#$73
    128f: f0 03        	beq	$1294 <f256main+0x992>
    1291: 4c 8c 13     	jmp	$138c <f256main+0xa8a>
    1294: a2 02        	ldx	#$2
    1296: 4c 87 13     	jmp	$1387 <f256main+0xa85>
    1299: e0 20        	cpx	#$20
    129b: d0 03        	bne	$12a0 <f256main+0x99e>
    129d: 4c 46 13     	jmp	$1346 <f256main+0xa44>
    12a0: 8a           	txa
    12a1: a2 fc        	ldx	#$fc
    12a3: 86 14        	stx	$14                     ; 0x2014 <launchBeat+0x8f>
    12a5: c9 61        	cmp	#$61
    12a7: d0 03        	bne	$12ac <f256main+0x9aa>
    12a9: 4c 36 1b     	jmp	$1b36 <f256main+0x1234>
    12ac: 4c 8c 13     	jmp	$138c <f256main+0xa8a>
    12af: e0 77        	cpx	#$77
    12b1: d0 03        	bne	$12b6 <f256main+0x9b4>
    12b3: 4c 85 13     	jmp	$1385 <f256main+0xa83>
    12b6: e0 78        	cpx	#$78
    12b8: f0 03        	beq	$12bd <f256main+0x9bb>
    12ba: 4c 8c 13     	jmp	$138c <f256main+0xa8a>
    12bd: 64 28        	stz	$28                     ; 0x2028 <launchBeat+0xa3>
    12bf: 64 14        	stz	$14                     ; 0x2014 <launchBeat+0x8f>
    12c1: 4c 36 1b     	jmp	$1b36 <f256main+0x1234>
    12c4: 18           	clc
    12c5: 8a           	txa
    12c6: 69 e2        	adc	#$e2
    12c8: aa           	tax
    12c9: 85 25        	sta	$25                     ; 0x2025 <launchBeat+0xa0>
    12cb: a9 00        	lda	#$0
    12cd: 69 ff        	adc	#$ff
    12cf: 85 26        	sta	$26                     ; 0x2026 <launchBeat+0xa1>
    12d1: f0 03        	beq	$12d6 <f256main+0x9d4>
    12d3: 4c ba 13     	jmp	$13ba <f256main+0xab8>
    12d6: e0 e2        	cpx	#$e2
    12d8: 90 03        	bcc	$12dd <f256main+0x9db>
    12da: 4c 36 1b     	jmp	$1b36 <f256main+0x1234>
    12dd: 4c c1 13     	jmp	$13c1 <f256main+0xabf>
    12e0: a0 10        	ldy	#$10
    12e2: b1 10        	lda	($10),y                 ; 0x2010 <launchBeat+0x8b>
    12e4: c9 c2        	cmp	#$c2
    12e6: 88           	dey
    12e7: b1 10        	lda	($10),y                 ; 0x2010 <launchBeat+0x8b>
    12e9: e9 ff        	sbc	#$ff
    12eb: 50 02        	bvc	$12ef <f256main+0x9ed>
    12ed: 49 80        	eor	#$80
    12ef: aa           	tax
    12f0: 10 03        	bpl	$12f5 <f256main+0x9f3>
    12f2: 4c a0 15     	jmp	$15a0 <f256main+0xc9e>
    12f5: 18           	clc
    12f6: a0 10        	ldy	#$10
    12f8: b1 10        	lda	($10),y                 ; 0x2010 <launchBeat+0x8b>
    12fa: 69 fe        	adc	#$fe
    12fc: aa           	tax
    12fd: 88           	dey
    12fe: b1 10        	lda	($10),y                 ; 0x2010 <launchBeat+0x8b>
    1300: 69 ff        	adc	#$ff
    1302: 4c a4 15     	jmp	$15a4 <f256main+0xca2>
    1305: a0 15        	ldy	#$15
    1307: b1 10        	lda	($10),y                 ; 0x2010 <launchBeat+0x8b>
    1309: c9 40        	cmp	#$40
    130b: 88           	dey
    130c: b1 10        	lda	($10),y                 ; 0x2010 <launchBeat+0x8b>
    130e: e9 01        	sbc	#$1
    1310: 50 02        	bvc	$1314 <f256main+0xa12>
    1312: 49 80        	eor	#$80
    1314: aa           	tax
    1315: 10 20        	bpl	$1337 <f256main+0xa35>
    1317: a0 15        	ldy	#$15
    1319: b1 10        	lda	($10),y                 ; 0x2010 <launchBeat+0x8b>
    131b: c9 21        	cmp	#$21
    131d: 88           	dey
    131e: b1 10        	lda	($10),y                 ; 0x2010 <launchBeat+0x8b>
    1320: e9 00        	sbc	#$0
    1322: 50 02        	bvc	$1326 <f256main+0xa24>
    1324: 49 80        	eor	#$80
    1326: aa           	tax
    1327: 30 0e        	bmi	$1337 <f256main+0xa35>
    1329: a5 24        	lda	$24                     ; 0x2024 <launchBeat+0x9f>
    132b: 30 03        	bmi	$1330 <f256main+0xa2e>
    132d: 4c f8 17     	jmp	$17f8 <f256main+0xef6>
    1330: a2 ff        	ldx	#$ff
    1332: 86 12        	stx	$12                     ; 0x2012 <launchBeat+0x8d>
    1334: 4c fa 17     	jmp	$17fa <f256main+0xef8>
    1337: a0 0e        	ldy	#$e
    1339: b1 10        	lda	($10),y                 ; 0x2010 <launchBeat+0x8b>
    133b: a8           	tay
    133c: 4c 11 18     	jmp	$1811 <f256main+0xf0f>
    133f: a2 04        	ldx	#$4
    1341: 86 14        	stx	$14                     ; 0x2014 <launchBeat+0x8f>
    1343: 4c 36 1b     	jmp	$1b36 <f256main+0x1234>
    1346: a6 65        	ldx	$65                     ; 0x2065 <launchBeat+0xe0>
    1348: 86 12        	stx	$12                     ; 0x2012 <launchBeat+0x8d>
    134a: 8a           	txa
    134b: 0a           	asl
    134c: aa           	tax
    134d: a9 00        	lda	#$0
    134f: 2a           	rol
    1350: 86 13        	stx	$13                     ; 0x2013 <launchBeat+0x8e>
    1352: 06 13        	asl	$13                     ; 0x2013 <launchBeat+0x8e>
    1354: 2a           	rol
    1355: 06 13        	asl	$13                     ; 0x2013 <launchBeat+0x8e>
    1357: 2a           	rol
    1358: 06 13        	asl	$13                     ; 0x2013 <launchBeat+0x8e>
    135a: 2a           	rol
    135b: aa           	tax
    135c: 38           	sec
    135d: a5 13        	lda	$13                     ; 0x2013 <launchBeat+0x8e>
    135f: e5 12        	sbc	$12                     ; 0x2012 <launchBeat+0x8d>
    1361: 85 13        	sta	$13                     ; 0x2013 <launchBeat+0x8e>
    1363: 8a           	txa
    1364: e9 00        	sbc	#$0
    1366: aa           	tax
    1367: 18           	clc
    1368: a5 13        	lda	$13                     ; 0x2013 <launchBeat+0x8e>
    136a: 65 66        	adc	$66                     ; 0x2066 <launchBeat+0xe1>
    136c: 85 14        	sta	$14                     ; 0x2014 <launchBeat+0x8f>
    136e: 8a           	txa
    136f: 65 67        	adc	$67                     ; 0x2067 <launchBeat+0xe2>
    1371: 85 15        	sta	$15                     ; 0x2015 <launchBeat+0x90>
    1373: b2 14        	lda	($14)                   ; 0x2014 <launchBeat+0x8f>
    1375: d0 03        	bne	$137a <f256main+0xa78>
    1377: 4c 2f 16     	jmp	$162f <f256main+0xd2d>
    137a: a2 01        	ldx	#$1
    137c: 86 64        	stx	$64                     ; 0x2064 <launchBeat+0xdf>
    137e: a6 24        	ldx	$24                     ; 0x2024 <launchBeat+0x9f>
    1380: 86 14        	stx	$14                     ; 0x2014 <launchBeat+0x8f>
    1382: 4c 36 1b     	jmp	$1b36 <f256main+0x1234>
    1385: a2 fe        	ldx	#$fe
    1387: 86 28        	stx	$28                     ; 0x2028 <launchBeat+0xa3>
    1389: 4c 36 1b     	jmp	$1b36 <f256main+0x1234>
    138c: 64 30        	stz	$30                     ; 0x2030 <launchBeat+0xab>
    138e: 9c 14 d0     	stz	$d014                   ; 0xd014 <end_block9+0x8930>
    1391: 9c 15 d0     	stz	$d015                   ; 0xd015 <end_block9+0x8931>
    1394: a2 0a        	ldx	#$a
    1396: 86 31        	stx	$31                     ; 0x2031 <launchBeat+0xac>
    1398: 8e 16 d0     	stx	$d016                   ; 0xd016 <end_block9+0x8932>
    139b: 9c 17 d0     	stz	$d017                   ; 0xd017 <end_block9+0x8933>
    139e: a5 8e        	lda	$8e                     ; 0x208e <launchBeat+0x109>
    13a0: 92 10        	sta	($10)                   ; 0x2010 <launchBeat+0x8b>
    13a2: a9 00        	lda	#$0
    13a4: a0 01        	ldy	#$1
    13a6: 91 10        	sta	($10),y                 ; 0x2010 <launchBeat+0x8b>
    13a8: a2 88        	ldx	#$88
    13aa: 86 12        	stx	$12                     ; 0x2012 <launchBeat+0x8d>
    13ac: a2 43        	ldx	#$43
    13ae: 86 13        	stx	$13                     ; 0x2013 <launchBeat+0x8e>
    13b0: 20 55 30     	jsr	$3055 <printf>
    13b3: a6 24        	ldx	$24                     ; 0x2024 <launchBeat+0x9f>
    13b5: 86 14        	stx	$14                     ; 0x2014 <launchBeat+0x8f>
    13b7: 4c 36 1b     	jmp	$1b36 <f256main+0x1234>
    13ba: c9 00        	cmp	#$0
    13bc: 90 03        	bcc	$13c1 <f256main+0xabf>
    13be: 4c 36 1b     	jmp	$1b36 <f256main+0x1234>
    13c1: a4 66        	ldy	$66                     ; 0x2066 <launchBeat+0xe1>
    13c3: a6 67        	ldx	$67                     ; 0x2067 <launchBeat+0xe2>
    13c5: 86 14        	stx	$14                     ; 0x2014 <launchBeat+0x8f>
    13c7: a6 65        	ldx	$65                     ; 0x2065 <launchBeat+0xe0>
    13c9: 86 1a        	stx	$1a                     ; 0x201a <launchBeat+0x95>
    13cb: 8a           	txa
    13cc: 0a           	asl
    13cd: 64 13        	stz	$13                     ; 0x2013 <launchBeat+0x8e>
    13cf: 26 13        	rol	$13                     ; 0x2013 <launchBeat+0x8e>
    13d1: 0a           	asl
    13d2: 26 13        	rol	$13                     ; 0x2013 <launchBeat+0x8e>
    13d4: 0a           	asl
    13d5: 26 13        	rol	$13                     ; 0x2013 <launchBeat+0x8e>
    13d7: 0a           	asl
    13d8: 26 13        	rol	$13                     ; 0x2013 <launchBeat+0x8e>
    13da: 38           	sec
    13db: e5 1a        	sbc	$1a                     ; 0x201a <launchBeat+0x95>
    13dd: aa           	tax
    13de: 85 12        	sta	$12                     ; 0x2012 <launchBeat+0x8d>
    13e0: a5 13        	lda	$13                     ; 0x2013 <launchBeat+0x8e>
    13e2: e9 00        	sbc	#$0
    13e4: 85 1b        	sta	$1b                     ; 0x201b <launchBeat+0x96>
    13e6: 85 13        	sta	$13                     ; 0x2013 <launchBeat+0x8e>
    13e8: 98           	tya
    13e9: 18           	clc
    13ea: 65 12        	adc	$12                     ; 0x2012 <launchBeat+0x8d>
    13ec: 85 16        	sta	$16                     ; 0x2016 <launchBeat+0x91>
    13ee: a5 14        	lda	$14                     ; 0x2014 <launchBeat+0x8f>
    13f0: 65 13        	adc	$13                     ; 0x2013 <launchBeat+0x8e>
    13f2: 5a           	phy
    13f3: a4 14        	ldy	$14                     ; 0x2014 <launchBeat+0x8f>
    13f5: 84 19        	sty	$19                     ; 0x2019 <launchBeat+0x94>
    13f7: a4 14        	ldy	$14                     ; 0x2014 <launchBeat+0x8f>
    13f9: 84 13        	sty	$13                     ; 0x2013 <launchBeat+0x8e>
    13fb: 7a           	ply
    13fc: 85 15        	sta	$15                     ; 0x2015 <launchBeat+0x90>
    13fe: 85 17        	sta	$17                     ; 0x2017 <launchBeat+0x92>
    1400: a5 24        	lda	$24                     ; 0x2024 <launchBeat+0x9f>
    1402: 85 14        	sta	$14                     ; 0x2014 <launchBeat+0x8f>
    1404: b2 16        	lda	($16)                   ; 0x2016 <launchBeat+0x91>
    1406: d0 03        	bne	$140b <f256main+0xb09>
    1408: 4c 36 1b     	jmp	$1b36 <f256main+0x1234>
    140b: 84 18        	sty	$18                     ; 0x2018 <launchBeat+0x93>
    140d: 84 12        	sty	$12                     ; 0x2012 <launchBeat+0x8d>
    140f: 18           	clc
    1410: a5 16        	lda	$16                     ; 0x2016 <launchBeat+0x91>
    1412: 69 0b        	adc	#$b
    1414: 85 14        	sta	$14                     ; 0x2014 <launchBeat+0x8f>
    1416: a5 15        	lda	$15                     ; 0x2015 <launchBeat+0x90>
    1418: 69 00        	adc	#$0
    141a: 85 15        	sta	$15                     ; 0x2015 <launchBeat+0x90>
    141c: a0 01        	ldy	#$1
    141e: b1 14        	lda	($14),y                 ; 0x2014 <launchBeat+0x8f>
    1420: 85 14        	sta	$14                     ; 0x2014 <launchBeat+0x8f>
    1422: 18           	clc
    1423: a5 27        	lda	$27                     ; 0x2027 <launchBeat+0xa2>
    1425: a0 0b        	ldy	#$b
    1427: 71 16        	adc	($16),y                 ; 0x2016 <launchBeat+0x91>
    1429: a8           	tay
    142a: a5 14        	lda	$14                     ; 0x2014 <launchBeat+0x8f>
    142c: 69 00        	adc	#$0
    142e: 85 14        	sta	$14                     ; 0x2014 <launchBeat+0x8f>
    1430: 18           	clc
    1431: 98           	tya
    1432: 69 e2        	adc	#$e2
    1434: a8           	tay
    1435: a5 14        	lda	$14                     ; 0x2014 <launchBeat+0x8f>
    1437: 69 ff        	adc	#$ff
    1439: 85 15        	sta	$15                     ; 0x2015 <launchBeat+0x90>
    143b: 84 14        	sty	$14                     ; 0x2014 <launchBeat+0x8f>
    143d: b2 14        	lda	($14)                   ; 0x2014 <launchBeat+0x8f>
    143f: c9 02        	cmp	#$2
    1441: d0 43        	bne	$1486 <f256main+0xb84>
    1443: a9 00        	lda	#$0
    1445: 92 14        	sta	($14)                   ; 0x2014 <launchBeat+0x8f>
    1447: 86 14        	stx	$14                     ; 0x2014 <launchBeat+0x8f>
    1449: 18           	clc
    144a: a5 18        	lda	$18                     ; 0x2018 <launchBeat+0x93>
    144c: 65 14        	adc	$14                     ; 0x2014 <launchBeat+0x8f>
    144e: aa           	tax
    144f: a5 19        	lda	$19                     ; 0x2019 <launchBeat+0x94>
    1451: 65 1b        	adc	$1b                     ; 0x201b <launchBeat+0x96>
    1453: 86 14        	stx	$14                     ; 0x2014 <launchBeat+0x8f>
    1455: 85 15        	sta	$15                     ; 0x2015 <launchBeat+0x90>
    1457: a8           	tay
    1458: 18           	clc
    1459: 8a           	txa
    145a: 69 0b        	adc	#$b
    145c: 85 16        	sta	$16                     ; 0x2016 <launchBeat+0x91>
    145e: 98           	tya
    145f: 69 00        	adc	#$0
    1461: 85 17        	sta	$17                     ; 0x2017 <launchBeat+0x92>
    1463: a0 01        	ldy	#$1
    1465: b1 16        	lda	($16),y                 ; 0x2016 <launchBeat+0x91>
    1467: 85 16        	sta	$16                     ; 0x2016 <launchBeat+0x91>
    1469: 18           	clc
    146a: a5 27        	lda	$27                     ; 0x2027 <launchBeat+0xa2>
    146c: a0 0b        	ldy	#$b
    146e: 71 14        	adc	($14),y                 ; 0x2014 <launchBeat+0x8f>
    1470: aa           	tax
    1471: a5 16        	lda	$16                     ; 0x2016 <launchBeat+0x91>
    1473: 69 00        	adc	#$0
    1475: 85 14        	sta	$14                     ; 0x2014 <launchBeat+0x8f>
    1477: 18           	clc
    1478: 8a           	txa
    1479: 69 e2        	adc	#$e2
    147b: aa           	tax
    147c: a5 14        	lda	$14                     ; 0x2014 <launchBeat+0x8f>
    147e: 69 ff        	adc	#$ff
    1480: 85 15        	sta	$15                     ; 0x2015 <launchBeat+0x90>
    1482: 86 14        	stx	$14                     ; 0x2014 <launchBeat+0x8f>
    1484: b2 14        	lda	($14)                   ; 0x2014 <launchBeat+0x8f>
    1486: aa           	tax
    1487: a5 25        	lda	$25                     ; 0x2025 <launchBeat+0xa0>
    1489: 0a           	asl
    148a: a4 26        	ldy	$26                     ; 0x2026 <launchBeat+0xa1>
    148c: 84 14        	sty	$14                     ; 0x2014 <launchBeat+0x8f>
    148e: 26 14        	rol	$14                     ; 0x2014 <launchBeat+0x8f>
    1490: a4 14        	ldy	$14                     ; 0x2014 <launchBeat+0x8f>
    1492: e0 01        	cpx	#$1
    1494: f0 03        	beq	$1499 <f256main+0xb97>
    1496: 4c da 16     	jmp	$16da <f256main+0xdd8>
    1499: a2 80        	ldx	#$80
    149b: 86 f3        	stx	$f3                     ; 0x20f3 <launchBeat+0x16e>
    149d: 85 17        	sta	$17                     ; 0x2017 <launchBeat+0x92>
    149f: 20 f0 ff     	jsr	$fff0 <end_block9+0xb90c>
    14a2: 92 2a        	sta	($2a)                   ; 0x202a <launchBeat+0xa5>
    14a4: a9 00        	lda	#$0
    14a6: 6a           	ror
    14a7: 85 2c        	sta	$2c                     ; 0x202c <launchBeat+0xa7>
    14a9: b2 2a        	lda	($2a)                   ; 0x202a <launchBeat+0xa5>
    14ab: 85 12        	sta	$12                     ; 0x2012 <launchBeat+0x8d>
    14ad: b2 2e        	lda	($2e)                   ; 0x202e <launchBeat+0xa9>
    14af: aa           	tax
    14b0: 18           	clc
    14b1: a5 12        	lda	$12                     ; 0x2012 <launchBeat+0x8d>
    14b3: 75 68        	adc	$68,x                   ; 0x2068 <launchBeat+0xe3>
    14b5: 85 16        	sta	$16                     ; 0x2016 <launchBeat+0x91>
    14b7: a5 65        	lda	$65                     ; 0x2065 <launchBeat+0xe0>
    14b9: 0a           	asl
    14ba: aa           	tax
    14bb: a9 00        	lda	#$0
    14bd: 2a           	rol
    14be: 86 12        	stx	$12                     ; 0x2012 <launchBeat+0x8d>
    14c0: 06 12        	asl	$12                     ; 0x2012 <launchBeat+0x8d>
    14c2: 2a           	rol
    14c3: 06 12        	asl	$12                     ; 0x2012 <launchBeat+0x8d>
    14c5: 2a           	rol
    14c6: 06 12        	asl	$12                     ; 0x2012 <launchBeat+0x8d>
    14c8: 2a           	rol
    14c9: aa           	tax
    14ca: 38           	sec
    14cb: a5 12        	lda	$12                     ; 0x2012 <launchBeat+0x8d>
    14cd: e5 65        	sbc	$65                     ; 0x2065 <launchBeat+0xe0>
    14cf: 85 12        	sta	$12                     ; 0x2012 <launchBeat+0x8d>
    14d1: 8a           	txa
    14d2: e9 00        	sbc	#$0
    14d4: 85 13        	sta	$13                     ; 0x2013 <launchBeat+0x8e>
    14d6: 18           	clc
    14d7: a5 12        	lda	$12                     ; 0x2012 <launchBeat+0x8d>
    14d9: 65 66        	adc	$66                     ; 0x2066 <launchBeat+0xe1>
    14db: aa           	tax
    14dc: a5 13        	lda	$13                     ; 0x2013 <launchBeat+0x8e>
    14de: 65 67        	adc	$67                     ; 0x2067 <launchBeat+0xe2>
    14e0: 86 12        	stx	$12                     ; 0x2012 <launchBeat+0x8d>
    14e2: 85 13        	sta	$13                     ; 0x2013 <launchBeat+0x8e>
    14e4: 85 15        	sta	$15                     ; 0x2015 <launchBeat+0x90>
    14e6: 18           	clc
    14e7: 8a           	txa
    14e8: 69 0d        	adc	#$d
    14ea: 85 14        	sta	$14                     ; 0x2014 <launchBeat+0x8f>
    14ec: a5 15        	lda	$15                     ; 0x2015 <launchBeat+0x90>
    14ee: 69 00        	adc	#$0
    14f0: 85 15        	sta	$15                     ; 0x2015 <launchBeat+0x90>
    14f2: 18           	clc
    14f3: a5 17        	lda	$17                     ; 0x2017 <launchBeat+0x92>
    14f5: 65 25        	adc	$25                     ; 0x2025 <launchBeat+0xa0>
    14f7: 85 17        	sta	$17                     ; 0x2017 <launchBeat+0x92>
    14f9: 98           	tya
    14fa: 65 26        	adc	$26                     ; 0x2026 <launchBeat+0xa1>
    14fc: aa           	tax
    14fd: 18           	clc
    14fe: a0 0d        	ldy	#$d
    1500: a5 17        	lda	$17                     ; 0x2017 <launchBeat+0x92>
    1502: 71 12        	adc	($12),y                 ; 0x2012 <launchBeat+0x8d>
    1504: 85 12        	sta	$12                     ; 0x2012 <launchBeat+0x8d>
    1506: a0 01        	ldy	#$1
    1508: 8a           	txa
    1509: 71 14        	adc	($14),y                 ; 0x2014 <launchBeat+0x8f>
    150b: 85 13        	sta	$13                     ; 0x2013 <launchBeat+0x8e>
    150d: a5 16        	lda	$16                     ; 0x2016 <launchBeat+0x91>
    150f: 91 12        	sta	($12),y                 ; 0x2012 <launchBeat+0x8d>
    1511: b2 12        	lda	($12)                   ; 0x2012 <launchBeat+0x8d>
    1513: 85 f3        	sta	$f3                     ; 0x20f3 <launchBeat+0x16e>
    1515: b1 12        	lda	($12),y                 ; 0x2012 <launchBeat+0x8d>
    1517: 85 f4        	sta	$f4                     ; 0x20f4 <launchBeat+0x16f>
    1519: c8           	iny
    151a: b1 12        	lda	($12),y                 ; 0x2012 <launchBeat+0x8d>
    151c: 85 f5        	sta	$f5                     ; 0x20f5 <launchBeat+0x170>
    151e: 20 f0 ff     	jsr	$fff0 <end_block9+0xb90c>
    1521: 92 2a        	sta	($2a)                   ; 0x202a <launchBeat+0xa5>
    1523: a9 00        	lda	#$0
    1525: 6a           	ror
    1526: 85 2c        	sta	$2c                     ; 0x202c <launchBeat+0xa7>
    1528: a5 65        	lda	$65                     ; 0x2065 <launchBeat+0xe0>
    152a: 0a           	asl
    152b: aa           	tax
    152c: a9 00        	lda	#$0
    152e: 2a           	rol
    152f: 86 12        	stx	$12                     ; 0x2012 <launchBeat+0x8d>
    1531: 06 12        	asl	$12                     ; 0x2012 <launchBeat+0x8d>
    1533: 2a           	rol
    1534: 06 12        	asl	$12                     ; 0x2012 <launchBeat+0x8d>
    1536: 2a           	rol
    1537: 06 12        	asl	$12                     ; 0x2012 <launchBeat+0x8d>
    1539: 2a           	rol
    153a: aa           	tax
    153b: 38           	sec
    153c: a5 12        	lda	$12                     ; 0x2012 <launchBeat+0x8d>
    153e: e5 65        	sbc	$65                     ; 0x2065 <launchBeat+0xe0>
    1540: 85 12        	sta	$12                     ; 0x2012 <launchBeat+0x8d>
    1542: 8a           	txa
    1543: e9 00        	sbc	#$0
    1545: a8           	tay
    1546: 18           	clc
    1547: a5 12        	lda	$12                     ; 0x2012 <launchBeat+0x8d>
    1549: 65 66        	adc	$66                     ; 0x2066 <launchBeat+0xe1>
    154b: aa           	tax
    154c: 98           	tya
    154d: 65 67        	adc	$67                     ; 0x2067 <launchBeat+0xe2>
    154f: 86 12        	stx	$12                     ; 0x2012 <launchBeat+0x8d>
    1551: 85 13        	sta	$13                     ; 0x2013 <launchBeat+0x8e>
    1553: a8           	tay
    1554: 18           	clc
    1555: 8a           	txa
    1556: 69 0b        	adc	#$b
    1558: 85 14        	sta	$14                     ; 0x2014 <launchBeat+0x8f>
    155a: 98           	tya
    155b: 69 00        	adc	#$0
    155d: 85 15        	sta	$15                     ; 0x2015 <launchBeat+0x90>
    155f: a0 01        	ldy	#$1
    1561: b1 14        	lda	($14),y                 ; 0x2014 <launchBeat+0x8f>
    1563: 85 14        	sta	$14                     ; 0x2014 <launchBeat+0x8f>
    1565: 18           	clc
    1566: a0 0b        	ldy	#$b
    1568: a5 27        	lda	$27                     ; 0x2027 <launchBeat+0xa2>
    156a: 71 12        	adc	($12),y                 ; 0x2012 <launchBeat+0x8d>
    156c: aa           	tax
    156d: a5 14        	lda	$14                     ; 0x2014 <launchBeat+0x8f>
    156f: 69 00        	adc	#$0
    1571: 85 12        	sta	$12                     ; 0x2012 <launchBeat+0x8d>
    1573: 18           	clc
    1574: 8a           	txa
    1575: 69 e2        	adc	#$e2
    1577: aa           	tax
    1578: a5 12        	lda	$12                     ; 0x2012 <launchBeat+0x8d>
    157a: 69 ff        	adc	#$ff
    157c: 85 13        	sta	$13                     ; 0x2013 <launchBeat+0x8e>
    157e: 86 12        	stx	$12                     ; 0x2012 <launchBeat+0x8d>
    1580: a9 02        	lda	#$2
    1582: 92 12        	sta	($12)                   ; 0x2012 <launchBeat+0x8d>
    1584: a6 24        	ldx	$24                     ; 0x2024 <launchBeat+0x9f>
    1586: 86 14        	stx	$14                     ; 0x2014 <launchBeat+0x8f>
    1588: 4c 36 1b     	jmp	$1b36 <f256main+0x1234>
    158b: 91 10        	sta	($10),y                 ; 0x2010 <launchBeat+0x8b>
    158d: a5 14        	lda	$14                     ; 0x2014 <launchBeat+0x8f>
    158f: a0 12        	ldy	#$12
    1591: 91 10        	sta	($10),y                 ; 0x2010 <launchBeat+0x8b>
    1593: ae a8 46     	ldx	$46a8                   ; 0x46a8 <_spriteCtl+0x5>
    1596: 8e 28 d9     	stx	$d928                   ; 0xd928 <end_block9+0x9244>
    1599: a6 24        	ldx	$24                     ; 0x2024 <launchBeat+0x9f>
    159b: 86 14        	stx	$14                     ; 0x2014 <launchBeat+0x8f>
    159d: 4c 36 1b     	jmp	$1b36 <f256main+0x1234>
    15a0: a2 6a        	ldx	#$6a
    15a2: a9 01        	lda	#$1
    15a4: 8e 04 d9     	stx	$d904                   ; 0xd904 <end_block9+0x9220>
    15a7: 8d 05 d9     	sta	$d905                   ; 0xd905 <end_block9+0x9221>
    15aa: 85 16        	sta	$16                     ; 0x2016 <launchBeat+0x91>
    15ac: a0 f0        	ldy	#$f0
    15ae: 8c 06 d9     	sty	$d906                   ; 0xd906 <end_block9+0x9222>
    15b1: 9c 07 d9     	stz	$d907                   ; 0xd907 <end_block9+0x9223>
    15b4: 18           	clc
    15b5: 8a           	txa
    15b6: 69 20        	adc	#$20
    15b8: a8           	tay
    15b9: a5 16        	lda	$16                     ; 0x2016 <launchBeat+0x91>
    15bb: 69 00        	adc	#$0
    15bd: 8c 0c d9     	sty	$d90c                   ; 0xd90c <end_block9+0x9228>
    15c0: 8d 0d d9     	sta	$d90d                   ; 0xd90d <end_block9+0x9229>
    15c3: a0 f0        	ldy	#$f0
    15c5: 8c 0e d9     	sty	$d90e                   ; 0xd90e <end_block9+0x922a>
    15c8: 9c 0f d9     	stz	$d90f                   ; 0xd90f <end_block9+0x922b>
    15cb: 18           	clc
    15cc: 8a           	txa
    15cd: 69 40        	adc	#$40
    15cf: a8           	tay
    15d0: a5 16        	lda	$16                     ; 0x2016 <launchBeat+0x91>
    15d2: 69 00        	adc	#$0
    15d4: 8c 14 d9     	sty	$d914                   ; 0xd914 <end_block9+0x9230>
    15d7: 8d 15 d9     	sta	$d915                   ; 0xd915 <end_block9+0x9231>
    15da: a0 f0        	ldy	#$f0
    15dc: 8c 16 d9     	sty	$d916                   ; 0xd916 <end_block9+0x9232>
    15df: 9c 17 d9     	stz	$d917                   ; 0xd917 <end_block9+0x9233>
    15e2: 18           	clc
    15e3: 8a           	txa
    15e4: a0 10        	ldy	#$10
    15e6: 91 10        	sta	($10),y                 ; 0x2010 <launchBeat+0x8b>
    15e8: 69 60        	adc	#$60
    15ea: a8           	tay
    15eb: a5 16        	lda	$16                     ; 0x2016 <launchBeat+0x91>
    15ed: 5a           	phy
    15ee: a0 0f        	ldy	#$f
    15f0: 91 10        	sta	($10),y                 ; 0x2010 <launchBeat+0x8b>
    15f2: 7a           	ply
    15f3: 69 00        	adc	#$0
    15f5: 8c 1c d9     	sty	$d91c                   ; 0xd91c <end_block9+0x9238>
    15f8: 8d 1d d9     	sta	$d91d                   ; 0xd91d <end_block9+0x9239>
    15fb: a2 f0        	ldx	#$f0
    15fd: 8e 1e d9     	stx	$d91e                   ; 0xd91e <end_block9+0x923a>
    1600: 9c 1f d9     	stz	$d91f                   ; 0xd91f <end_block9+0x923b>
    1603: a2 80        	ldx	#$80
    1605: 86 f3        	stx	$f3                     ; 0x20f3 <launchBeat+0x16e>
    1607: 20 f0 ff     	jsr	$fff0 <end_block9+0xb90c>
    160a: 92 2a        	sta	($2a)                   ; 0x202a <launchBeat+0xa5>
    160c: a9 00        	lda	#$0
    160e: 6a           	ror
    160f: 85 2c        	sta	$2c                     ; 0x202c <launchBeat+0xa7>
    1611: a9 05        	lda	#$5
    1613: 18           	clc
    1614: 72 2a        	adc	($2a)                   ; 0x202a <launchBeat+0xa5>
    1616: 85 86        	sta	$86                     ; 0x2086 <launchBeat+0x101>
    1618: 64 f3        	stz	$f3                     ; 0x20f3 <launchBeat+0x16e>
    161a: a6 86        	ldx	$86                     ; 0x2086 <launchBeat+0x101>
    161c: 86 f4        	stx	$f4                     ; 0x20f4 <launchBeat+0x16f>
    161e: a2 0a        	ldx	#$a
    1620: 86 f5        	stx	$f5                     ; 0x20f5 <launchBeat+0x170>
    1622: 20 f0 ff     	jsr	$fff0 <end_block9+0xb90c>
    1625: 92 2a        	sta	($2a)                   ; 0x202a <launchBeat+0xa5>
    1627: a9 00        	lda	#$0
    1629: 6a           	ror
    162a: 85 2c        	sta	$2c                     ; 0x202c <launchBeat+0xa7>
    162c: 4c 36 1b     	jmp	$1b36 <f256main+0x1234>
    162f: a5 64        	lda	$64                     ; 0x2064 <launchBeat+0xdf>
    1631: 29 01        	and	#$1
    1633: a6 24        	ldx	$24                     ; 0x2024 <launchBeat+0x9f>
    1635: 86 14        	stx	$14                     ; 0x2014 <launchBeat+0x8f>
    1637: aa           	tax
    1638: f0 03        	beq	$163d <f256main+0xd3b>
    163a: 4c 36 1b     	jmp	$1b36 <f256main+0x1234>
    163d: a5 12        	lda	$12                     ; 0x2012 <launchBeat+0x8d>
    163f: 1a           	inc
    1640: c9 04        	cmp	#$4
    1642: 90 02        	bcc	$1646 <f256main+0xd44>
    1644: a9 00        	lda	#$0
    1646: 85 65        	sta	$65                     ; 0x2065 <launchBeat+0xe0>
    1648: 0a           	asl
    1649: 85 12        	sta	$12                     ; 0x2012 <launchBeat+0x8d>
    164b: aa           	tax
    164c: 09 11        	ora	#$11
    164e: 8d 00 d9     	sta	$d900                   ; 0xd900 <end_block9+0x921c>
    1651: 8d 08 d9     	sta	$d908                   ; 0xd908 <end_block9+0x9224>
    1654: 8d 10 d9     	sta	$d910                   ; 0xd910 <end_block9+0x922c>
    1657: 8d 18 d9     	sta	$d918                   ; 0xd918 <end_block9+0x9234>
    165a: 8d 20 d9     	sta	$d920                   ; 0xd920 <end_block9+0x923c>
    165d: 8a           	txa
    165e: 09 71        	ora	#$71
    1660: 8d 28 d9     	sta	$d928                   ; 0xd928 <end_block9+0x9244>
    1663: a5 36        	lda	$36                     ; 0x2036 <launchBeat+0xb1>
    1665: 29 01        	and	#$1
    1667: a2 02        	ldx	#$2
    1669: 85 13        	sta	$13                     ; 0x2013 <launchBeat+0x8e>
    166b: a8           	tay
    166c: d0 02        	bne	$1670 <f256main+0xd6e>
    166e: a2 00        	ldx	#$0
    1670: a5 12        	lda	$12                     ; 0x2012 <launchBeat+0x8d>
    1672: 9d 37 00     	sta	$37,x                   ; 0x37 <_BITMAP_CLUT>
    1675: a2 00        	ldx	#$0
    1677: 86 14        	stx	$14                     ; 0x2014 <launchBeat+0x8f>
    1679: a2 d1        	ldx	#$d1
    167b: 86 15        	stx	$15                     ; 0x2015 <launchBeat+0x90>
    167d: a5 13        	lda	$13                     ; 0x2013 <launchBeat+0x8e>
    167f: f0 08        	beq	$1689 <f256main+0xd87>
    1681: a2 10        	ldx	#$10
    1683: 86 14        	stx	$14                     ; 0x2014 <launchBeat+0x8f>
    1685: a2 d1        	ldx	#$d1
    1687: 86 15        	stx	$15                     ; 0x2015 <launchBeat+0x90>
    1689: b2 14        	lda	($14)                   ; 0x2014 <launchBeat+0x8f>
    168b: 29 f9        	and	#$f9
    168d: 05 12        	ora	$12                     ; 0x2012 <launchBeat+0x8d>
    168f: 92 14        	sta	($14)                   ; 0x2014 <launchBeat+0x8f>
    1691: a9 01        	lda	#$1
    1693: 05 39        	ora	$39                     ; 0x2039 <launchBeat+0xb4>
    1695: 8d 10 d1     	sta	$d110                   ; 0xd110 <end_block9+0x8a2c>
    1698: 64 30        	stz	$30                     ; 0x2030 <launchBeat+0xab>
    169a: 9c 14 d0     	stz	$d014                   ; 0xd014 <end_block9+0x8930>
    169d: 9c 15 d0     	stz	$d015                   ; 0xd015 <end_block9+0x8931>
    16a0: 64 31        	stz	$31                     ; 0x2031 <launchBeat+0xac>
    16a2: 9c 16 d0     	stz	$d016                   ; 0xd016 <end_block9+0x8932>
    16a5: 9c 17 d0     	stz	$d017                   ; 0xd017 <end_block9+0x8933>
    16a8: a5 65        	lda	$65                     ; 0x2065 <launchBeat+0xe0>
    16aa: 0a           	asl
    16ab: 85 12        	sta	$12                     ; 0x2012 <launchBeat+0x8d>
    16ad: a9 00        	lda	#$0
    16af: 2a           	rol
    16b0: 85 13        	sta	$13                     ; 0x2013 <launchBeat+0x8e>
    16b2: a9 8d        	lda	#$8d
    16b4: 18           	clc
    16b5: 65 12        	adc	$12                     ; 0x2012 <launchBeat+0x8d>
    16b7: 85 12        	sta	$12                     ; 0x2012 <launchBeat+0x8d>
    16b9: a9 43        	lda	#$43
    16bb: 65 13        	adc	$13                     ; 0x2013 <launchBeat+0x8e>
    16bd: 85 13        	sta	$13                     ; 0x2013 <launchBeat+0x8e>
    16bf: b2 12        	lda	($12)                   ; 0x2012 <launchBeat+0x8d>
    16c1: 85 14        	sta	$14                     ; 0x2014 <launchBeat+0x8f>
    16c3: a0 01        	ldy	#$1
    16c5: b1 12        	lda	($12),y                 ; 0x2012 <launchBeat+0x8d>
    16c7: 85 12        	sta	$12                     ; 0x2012 <launchBeat+0x8d>
    16c9: a5 14        	lda	$14                     ; 0x2014 <launchBeat+0x8f>
    16cb: 92 10        	sta	($10)                   ; 0x2010 <launchBeat+0x8b>
    16cd: a5 12        	lda	$12                     ; 0x2012 <launchBeat+0x8d>
    16cf: 91 10        	sta	($10),y                 ; 0x2010 <launchBeat+0x8b>
    16d1: a2 64        	ldx	#$64
    16d3: 86 12        	stx	$12                     ; 0x2012 <launchBeat+0x8d>
    16d5: a2 43        	ldx	#$43
    16d7: 4c ae 13     	jmp	$13ae <f256main+0xaac>
    16da: 48           	pha
    16db: 98           	tya
    16dc: a0 02        	ldy	#$2
    16de: 91 10        	sta	($10),y                 ; 0x2010 <launchBeat+0x8b>
    16e0: 68           	pla
    16e1: c8           	iny
    16e2: 91 10        	sta	($10),y                 ; 0x2010 <launchBeat+0x8b>
    16e4: a5 29        	lda	$29                     ; 0x2029 <launchBeat+0xa4>
    16e6: a0 06        	ldy	#$6
    16e8: 91 10        	sta	($10),y                 ; 0x2010 <launchBeat+0x8b>
    16ea: a5 28        	lda	$28                     ; 0x2028 <launchBeat+0xa3>
    16ec: c8           	iny
    16ed: 91 10        	sta	($10),y                 ; 0x2010 <launchBeat+0x8b>
    16ef: a6 2e        	ldx	$2e                     ; 0x202e <launchBeat+0xa9>
    16f1: 86 16        	stx	$16                     ; 0x2016 <launchBeat+0x91>
    16f3: a6 2f        	ldx	$2f                     ; 0x202f <launchBeat+0xaa>
    16f5: 86 17        	stx	$17                     ; 0x2017 <launchBeat+0x92>
    16f7: a0 0a        	ldy	#$a
    16f9: b1 10        	lda	($10),y                 ; 0x2010 <launchBeat+0x8b>
    16fb: 85 2e        	sta	$2e                     ; 0x202e <launchBeat+0xa9>
    16fd: c8           	iny
    16fe: b1 10        	lda	($10),y                 ; 0x2010 <launchBeat+0x8b>
    1700: 85 2f        	sta	$2f                     ; 0x202f <launchBeat+0xaa>
    1702: a6 2e        	ldx	$2e                     ; 0x202e <launchBeat+0xa9>
    1704: 86 14        	stx	$14                     ; 0x2014 <launchBeat+0x8f>
    1706: 85 15        	sta	$15                     ; 0x2015 <launchBeat+0x90>
    1708: a5 16        	lda	$16                     ; 0x2016 <launchBeat+0x91>
    170a: a0 08        	ldy	#$8
    170c: 91 10        	sta	($10),y                 ; 0x2010 <launchBeat+0x8b>
    170e: a5 17        	lda	$17                     ; 0x2017 <launchBeat+0x92>
    1710: c8           	iny
    1711: 91 10        	sta	($10),y                 ; 0x2010 <launchBeat+0x8b>
    1713: a0 04        	ldy	#$4
    1715: b1 10        	lda	($10),y                 ; 0x2010 <launchBeat+0x8b>
    1717: 85 28        	sta	$28                     ; 0x2028 <launchBeat+0xa3>
    1719: c8           	iny
    171a: b1 10        	lda	($10),y                 ; 0x2010 <launchBeat+0x8b>
    171c: 85 29        	sta	$29                     ; 0x2029 <launchBeat+0xa4>
    171e: a6 28        	ldx	$28                     ; 0x2028 <launchBeat+0xa3>
    1720: 86 18        	stx	$18                     ; 0x2018 <launchBeat+0x93>
    1722: 85 19        	sta	$19                     ; 0x2019 <launchBeat+0x94>
    1724: a6 25        	ldx	$25                     ; 0x2025 <launchBeat+0xa0>
    1726: a5 1a        	lda	$1a                     ; 0x201a <launchBeat+0x95>
    1728: 20 99 29     	jsr	$2999 <getBeatTrackNoteInfo>
    172b: a0 01        	ldy	#$1
    172d: b1 28        	lda	($28),y                 ; 0x2028 <launchBeat+0xa3>
    172f: 85 16        	sta	$16                     ; 0x2016 <launchBeat+0x91>
    1731: a9 7f        	lda	#$7f
    1733: 48           	pha
    1734: a5 2e        	lda	$2e                     ; 0x202e <launchBeat+0xa9>
    1736: a0 0a        	ldy	#$a
    1738: 91 10        	sta	($10),y                 ; 0x2010 <launchBeat+0x8b>
    173a: a5 2f        	lda	$2f                     ; 0x202f <launchBeat+0xaa>
    173c: c8           	iny
    173d: 91 10        	sta	($10),y                 ; 0x2010 <launchBeat+0x8b>
    173f: 68           	pla
    1740: 32 2e        	and	($2e)                   ; 0x202e <launchBeat+0xa9>
    1742: 85 12        	sta	$12                     ; 0x2012 <launchBeat+0x8d>
    1744: b2 28        	lda	($28)                   ; 0x2028 <launchBeat+0xa3>
    1746: 85 14        	sta	$14                     ; 0x2014 <launchBeat+0x8f>
    1748: a0 02        	ldy	#$2
    174a: b1 28        	lda	($28),y                 ; 0x2028 <launchBeat+0xa3>
    174c: a2 7f        	ldx	#$7f
    174e: 86 13        	stx	$13                     ; 0x2013 <launchBeat+0x8e>
    1750: 85 15        	sta	$15                     ; 0x2015 <launchBeat+0x90>
    1752: a6 16        	ldx	$16                     ; 0x2016 <launchBeat+0x91>
    1754: a9 00        	lda	#$0
    1756: 20 cf 1b     	jsr	$1bcf <dispatchNote>
    1759: a4 66        	ldy	$66                     ; 0x2066 <launchBeat+0xe1>
    175b: a6 67        	ldx	$67                     ; 0x2067 <launchBeat+0xe2>
    175d: 86 14        	stx	$14                     ; 0x2014 <launchBeat+0x8f>
    175f: a6 65        	ldx	$65                     ; 0x2065 <launchBeat+0xe0>
    1761: 86 1a        	stx	$1a                     ; 0x201a <launchBeat+0x95>
    1763: 8a           	txa
    1764: 0a           	asl
    1765: 64 13        	stz	$13                     ; 0x2013 <launchBeat+0x8e>
    1767: 26 13        	rol	$13                     ; 0x2013 <launchBeat+0x8e>
    1769: 0a           	asl
    176a: 26 13        	rol	$13                     ; 0x2013 <launchBeat+0x8e>
    176c: 0a           	asl
    176d: 26 13        	rol	$13                     ; 0x2013 <launchBeat+0x8e>
    176f: 0a           	asl
    1770: 26 13        	rol	$13                     ; 0x2013 <launchBeat+0x8e>
    1772: 38           	sec
    1773: e5 1a        	sbc	$1a                     ; 0x201a <launchBeat+0x95>
    1775: aa           	tax
    1776: 85 12        	sta	$12                     ; 0x2012 <launchBeat+0x8d>
    1778: a5 13        	lda	$13                     ; 0x2013 <launchBeat+0x8e>
    177a: e9 00        	sbc	#$0
    177c: 85 17        	sta	$17                     ; 0x2017 <launchBeat+0x92>
    177e: 85 13        	sta	$13                     ; 0x2013 <launchBeat+0x8e>
    1780: 84 16        	sty	$16                     ; 0x2016 <launchBeat+0x91>
    1782: 98           	tya
    1783: 18           	clc
    1784: 65 12        	adc	$12                     ; 0x2012 <launchBeat+0x8d>
    1786: 85 12        	sta	$12                     ; 0x2012 <launchBeat+0x8d>
    1788: a5 14        	lda	$14                     ; 0x2014 <launchBeat+0x8f>
    178a: 85 15        	sta	$15                     ; 0x2015 <launchBeat+0x90>
    178c: 65 13        	adc	$13                     ; 0x2013 <launchBeat+0x8e>
    178e: 85 13        	sta	$13                     ; 0x2013 <launchBeat+0x8e>
    1790: a0 02        	ldy	#$2
    1792: b1 12        	lda	($12),y                 ; 0x2012 <launchBeat+0x8d>
    1794: 3a           	dec
    1795: 85 18        	sta	$18                     ; 0x2018 <launchBeat+0x93>
    1797: 91 12        	sta	($12),y                 ; 0x2012 <launchBeat+0x8d>
    1799: a5 64        	lda	$64                     ; 0x2064 <launchBeat+0xdf>
    179b: 29 01        	and	#$1
    179d: d0 03        	bne	$17a2 <f256main+0xea0>
    179f: 4c 98 18     	jmp	$1898 <f256main+0xf96>
    17a2: a4 24        	ldy	$24                     ; 0x2024 <launchBeat+0x9f>
    17a4: 84 14        	sty	$14                     ; 0x2014 <launchBeat+0x8f>
    17a6: a0 08        	ldy	#$8
    17a8: b1 10        	lda	($10),y                 ; 0x2010 <launchBeat+0x8b>
    17aa: 85 2e        	sta	$2e                     ; 0x202e <launchBeat+0xa9>
    17ac: c8           	iny
    17ad: b1 10        	lda	($10),y                 ; 0x2010 <launchBeat+0x8b>
    17af: 85 2f        	sta	$2f                     ; 0x202f <launchBeat+0xaa>
    17b1: a0 07        	ldy	#$7
    17b3: b1 10        	lda	($10),y                 ; 0x2010 <launchBeat+0x8b>
    17b5: 85 28        	sta	$28                     ; 0x2028 <launchBeat+0xa3>
    17b7: 88           	dey
    17b8: b1 10        	lda	($10),y                 ; 0x2010 <launchBeat+0x8b>
    17ba: 85 29        	sta	$29                     ; 0x2029 <launchBeat+0xa4>
    17bc: a5 18        	lda	$18                     ; 0x2018 <launchBeat+0x93>
    17be: f0 03        	beq	$17c3 <f256main+0xec1>
    17c0: 4c 36 1b     	jmp	$1b36 <f256main+0x1234>
    17c3: a4 17        	ldy	$17                     ; 0x2017 <launchBeat+0x92>
    17c5: 86 12        	stx	$12                     ; 0x2012 <launchBeat+0x8d>
    17c7: 84 13        	sty	$13                     ; 0x2013 <launchBeat+0x8e>
    17c9: 18           	clc
    17ca: a5 16        	lda	$16                     ; 0x2016 <launchBeat+0x91>
    17cc: 65 12        	adc	$12                     ; 0x2012 <launchBeat+0x8d>
    17ce: 85 12        	sta	$12                     ; 0x2012 <launchBeat+0x8d>
    17d0: a5 15        	lda	$15                     ; 0x2015 <launchBeat+0x90>
    17d2: 65 13        	adc	$13                     ; 0x2013 <launchBeat+0x8e>
    17d4: 64 64        	stz	$64                     ; 0x2064 <launchBeat+0xdf>
    17d6: 85 13        	sta	$13                     ; 0x2013 <launchBeat+0x8e>
    17d8: a9 00        	lda	#$0
    17da: 92 12        	sta	($12)                   ; 0x2012 <launchBeat+0x8d>
    17dc: a0 01        	ldy	#$1
    17de: b1 12        	lda	($12),y                 ; 0x2012 <launchBeat+0x8d>
    17e0: a6 24        	ldx	$24                     ; 0x2024 <launchBeat+0x9f>
    17e2: 86 14        	stx	$14                     ; 0x2014 <launchBeat+0x8f>
    17e4: aa           	tax
    17e5: d0 03        	bne	$17ea <f256main+0xee8>
    17e7: 4c 36 1b     	jmp	$1b36 <f256main+0x1234>
    17ea: a9 00        	lda	#$0
    17ec: 91 12        	sta	($12),y                 ; 0x2012 <launchBeat+0x8d>
    17ee: 20 85 1f     	jsr	$1f85 <launchBeat>
    17f1: a6 24        	ldx	$24                     ; 0x2024 <launchBeat+0x9f>
    17f3: 86 14        	stx	$14                     ; 0x2014 <launchBeat+0x8f>
    17f5: 4c 36 1b     	jmp	$1b36 <f256main+0x1234>
    17f8: 64 12        	stz	$12                     ; 0x2012 <launchBeat+0x8d>
    17fa: a0 0e        	ldy	#$e
    17fc: b1 10        	lda	($10),y                 ; 0x2010 <launchBeat+0x8b>
    17fe: a8           	tay
    17ff: 18           	clc
    1800: 5a           	phy
    1801: a0 15        	ldy	#$15
    1803: b1 10        	lda	($10),y                 ; 0x2010 <launchBeat+0x8b>
    1805: 65 24        	adc	$24                     ; 0x2024 <launchBeat+0x9f>
    1807: 91 10        	sta	($10),y                 ; 0x2010 <launchBeat+0x8b>
    1809: 88           	dey
    180a: b1 10        	lda	($10),y                 ; 0x2010 <launchBeat+0x8b>
    180c: 65 12        	adc	$12                     ; 0x2012 <launchBeat+0x8d>
    180e: 91 10        	sta	($10),y                 ; 0x2010 <launchBeat+0x8b>
    1810: 7a           	ply
    1811: 5a           	phy
    1812: a0 11        	ldy	#$11
    1814: b1 10        	lda	($10),y                 ; 0x2010 <launchBeat+0x8b>
    1816: 7a           	ply
    1817: c9 21        	cmp	#$21
    1819: 98           	tya
    181a: e9 00        	sbc	#$0
    181c: 50 02        	bvc	$1820 <f256main+0xf1e>
    181e: 49 80        	eor	#$80
    1820: aa           	tax
    1821: 30 32        	bmi	$1855 <f256main+0xf53>
    1823: a0 0e        	ldy	#$e
    1825: b1 10        	lda	($10),y                 ; 0x2010 <launchBeat+0x8b>
    1827: aa           	tax
    1828: d0 0a        	bne	$1834 <f256main+0xf32>
    182a: a0 11        	ldy	#$11
    182c: b1 10        	lda	($10),y                 ; 0x2010 <launchBeat+0x8b>
    182e: c9 f8        	cmp	#$f8
    1830: 90 06        	bcc	$1838 <f256main+0xf36>
    1832: 80 21        	bra	$1855 <f256main+0xf53>
    1834: e0 00        	cpx	#$0
    1836: b0 1d        	bcs	$1855 <f256main+0xf53>
    1838: a5 28        	lda	$28                     ; 0x2028 <launchBeat+0xa3>
    183a: 10 06        	bpl	$1842 <f256main+0xf40>
    183c: a2 ff        	ldx	#$ff
    183e: 86 12        	stx	$12                     ; 0x2012 <launchBeat+0x8d>
    1840: 80 02        	bra	$1844 <f256main+0xf42>
    1842: 64 12        	stz	$12                     ; 0x2012 <launchBeat+0x8d>
    1844: 18           	clc
    1845: a0 11        	ldy	#$11
    1847: b1 10        	lda	($10),y                 ; 0x2010 <launchBeat+0x8b>
    1849: 65 28        	adc	$28                     ; 0x2028 <launchBeat+0xa3>
    184b: 91 10        	sta	($10),y                 ; 0x2010 <launchBeat+0x8b>
    184d: a0 0e        	ldy	#$e
    184f: b1 10        	lda	($10),y                 ; 0x2010 <launchBeat+0x8b>
    1851: 65 12        	adc	$12                     ; 0x2012 <launchBeat+0x8d>
    1853: 91 10        	sta	($10),y                 ; 0x2010 <launchBeat+0x8b>
    1855: a0 15        	ldy	#$15
    1857: b1 10        	lda	($10),y                 ; 0x2010 <launchBeat+0x8b>
    1859: 8d 24 d9     	sta	$d924                   ; 0xd924 <end_block9+0x9240>
    185c: 88           	dey
    185d: b1 10        	lda	($10),y                 ; 0x2010 <launchBeat+0x8b>
    185f: 8d 25 d9     	sta	$d925                   ; 0xd925 <end_block9+0x9241>
    1862: a0 11        	ldy	#$11
    1864: b1 10        	lda	($10),y                 ; 0x2010 <launchBeat+0x8b>
    1866: 8d 26 d9     	sta	$d926                   ; 0xd926 <end_block9+0x9242>
    1869: 9c 27 d9     	stz	$d927                   ; 0xd927 <end_block9+0x9243>
    186c: a2 80        	ldx	#$80
    186e: 86 f3        	stx	$f3                     ; 0x20f3 <launchBeat+0x16e>
    1870: 20 f0 ff     	jsr	$fff0 <end_block9+0xb90c>
    1873: 92 2a        	sta	($2a)                   ; 0x202a <launchBeat+0xa5>
    1875: a9 00        	lda	#$0
    1877: 6a           	ror
    1878: 85 2c        	sta	$2c                     ; 0x202c <launchBeat+0xa7>
    187a: 18           	clc
    187b: a9 03        	lda	#$3
    187d: 72 2a        	adc	($2a)                   ; 0x202a <launchBeat+0xa5>
    187f: 85 89        	sta	$89                     ; 0x2089 <launchBeat+0x104>
    1881: 64 f3        	stz	$f3                     ; 0x20f3 <launchBeat+0x16e>
    1883: a6 89        	ldx	$89                     ; 0x2089 <launchBeat+0x104>
    1885: 86 f4        	stx	$f4                     ; 0x20f4 <launchBeat+0x16f>
    1887: a2 0c        	ldx	#$c
    1889: 86 f5        	stx	$f5                     ; 0x20f5 <launchBeat+0x170>
    188b: 20 f0 ff     	jsr	$fff0 <end_block9+0xb90c>
    188e: 92 2a        	sta	($2a)                   ; 0x202a <launchBeat+0xa5>
    1890: a9 00        	lda	#$0
    1892: 6a           	ror
    1893: 85 2c        	sta	$2c                     ; 0x202c <launchBeat+0xa7>
    1895: 4c 36 1b     	jmp	$1b36 <f256main+0x1234>
    1898: a5 16        	lda	$16                     ; 0x2016 <launchBeat+0x91>
    189a: 85 12        	sta	$12                     ; 0x2012 <launchBeat+0x8d>
    189c: a4 15        	ldy	$15                     ; 0x2015 <launchBeat+0x90>
    189e: 84 13        	sty	$13                     ; 0x2013 <launchBeat+0x8e>
    18a0: 86 14        	stx	$14                     ; 0x2014 <launchBeat+0x8f>
    18a2: 18           	clc
    18a3: 65 14        	adc	$14                     ; 0x2014 <launchBeat+0x8f>
    18a5: 85 14        	sta	$14                     ; 0x2014 <launchBeat+0x8f>
    18a7: a5 15        	lda	$15                     ; 0x2015 <launchBeat+0x90>
    18a9: 65 17        	adc	$17                     ; 0x2017 <launchBeat+0x92>
    18ab: aa           	tax
    18ac: a5 14        	lda	$14                     ; 0x2014 <launchBeat+0x8f>
    18ae: 86 15        	stx	$15                     ; 0x2015 <launchBeat+0x90>
    18b0: 18           	clc
    18b1: 69 09        	adc	#$9
    18b3: 85 16        	sta	$16                     ; 0x2016 <launchBeat+0x91>
    18b5: 8a           	txa
    18b6: 69 00        	adc	#$0
    18b8: 85 17        	sta	$17                     ; 0x2017 <launchBeat+0x92>
    18ba: a0 01        	ldy	#$1
    18bc: b1 16        	lda	($16),y                 ; 0x2016 <launchBeat+0x91>
    18be: 85 16        	sta	$16                     ; 0x2016 <launchBeat+0x91>
    18c0: 18           	clc
    18c1: a5 27        	lda	$27                     ; 0x2027 <launchBeat+0xa2>
    18c3: a0 09        	ldy	#$9
    18c5: 71 14        	adc	($14),y                 ; 0x2014 <launchBeat+0x8f>
    18c7: aa           	tax
    18c8: a5 16        	lda	$16                     ; 0x2016 <launchBeat+0x91>
    18ca: 69 00        	adc	#$0
    18cc: 85 14        	sta	$14                     ; 0x2014 <launchBeat+0x8f>
    18ce: 18           	clc
    18cf: 8a           	txa
    18d0: 69 e2        	adc	#$e2
    18d2: aa           	tax
    18d3: a5 14        	lda	$14                     ; 0x2014 <launchBeat+0x8f>
    18d5: 69 ff        	adc	#$ff
    18d7: 85 15        	sta	$15                     ; 0x2015 <launchBeat+0x90>
    18d9: 86 14        	stx	$14                     ; 0x2014 <launchBeat+0x8f>
    18db: b2 14        	lda	($14)                   ; 0x2014 <launchBeat+0x8f>
    18dd: 1a           	inc
    18de: 92 14        	sta	($14)                   ; 0x2014 <launchBeat+0x8f>
    18e0: c8           	iny
    18e1: b1 10        	lda	($10),y                 ; 0x2010 <launchBeat+0x8b>
    18e3: 85 14        	sta	$14                     ; 0x2014 <launchBeat+0x8f>
    18e5: c8           	iny
    18e6: b1 10        	lda	($10),y                 ; 0x2010 <launchBeat+0x8b>
    18e8: 85 15        	sta	$15                     ; 0x2015 <launchBeat+0x90>
    18ea: a0 08        	ldy	#$8
    18ec: b1 10        	lda	($10),y                 ; 0x2010 <launchBeat+0x8b>
    18ee: 85 16        	sta	$16                     ; 0x2016 <launchBeat+0x91>
    18f0: c8           	iny
    18f1: b1 10        	lda	($10),y                 ; 0x2010 <launchBeat+0x8b>
    18f3: 85 17        	sta	$17                     ; 0x2017 <launchBeat+0x92>
    18f5: a6 28        	ldx	$28                     ; 0x2028 <launchBeat+0xa3>
    18f7: 86 18        	stx	$18                     ; 0x2018 <launchBeat+0x93>
    18f9: a6 29        	ldx	$29                     ; 0x2029 <launchBeat+0xa4>
    18fb: 86 19        	stx	$19                     ; 0x2019 <launchBeat+0x94>
    18fd: a6 25        	ldx	$25                     ; 0x2025 <launchBeat+0xa0>
    18ff: a5 1a        	lda	$1a                     ; 0x201a <launchBeat+0x95>
    1901: 20 99 29     	jsr	$2999 <getBeatTrackNoteInfo>
    1904: a6 66        	ldx	$66                     ; 0x2066 <launchBeat+0xe1>
    1906: a4 67        	ldy	$67                     ; 0x2067 <launchBeat+0xe2>
    1908: 84 16        	sty	$16                     ; 0x2016 <launchBeat+0x91>
    190a: a5 65        	lda	$65                     ; 0x2065 <launchBeat+0xe0>
    190c: 85 1a        	sta	$1a                     ; 0x201a <launchBeat+0x95>
    190e: 0a           	asl
    190f: a8           	tay
    1910: a9 00        	lda	#$0
    1912: 2a           	rol
    1913: 84 12        	sty	$12                     ; 0x2012 <launchBeat+0x8d>
    1915: 06 12        	asl	$12                     ; 0x2012 <launchBeat+0x8d>
    1917: 2a           	rol
    1918: 06 12        	asl	$12                     ; 0x2012 <launchBeat+0x8d>
    191a: 2a           	rol
    191b: 06 12        	asl	$12                     ; 0x2012 <launchBeat+0x8d>
    191d: 2a           	rol
    191e: a8           	tay
    191f: 38           	sec
    1920: a5 12        	lda	$12                     ; 0x2012 <launchBeat+0x8d>
    1922: e5 1a        	sbc	$1a                     ; 0x201a <launchBeat+0x95>
    1924: 85 12        	sta	$12                     ; 0x2012 <launchBeat+0x8d>
    1926: 98           	tya
    1927: e9 00        	sbc	#$0
    1929: 85 13        	sta	$13                     ; 0x2013 <launchBeat+0x8e>
    192b: 18           	clc
    192c: a5 12        	lda	$12                     ; 0x2012 <launchBeat+0x8d>
    192e: 65 66        	adc	$66                     ; 0x2066 <launchBeat+0xe1>
    1930: a8           	tay
    1931: a5 13        	lda	$13                     ; 0x2013 <launchBeat+0x8e>
    1933: 65 67        	adc	$67                     ; 0x2067 <launchBeat+0xe2>
    1935: 84 12        	sty	$12                     ; 0x2012 <launchBeat+0x8d>
    1937: 85 13        	sta	$13                     ; 0x2013 <launchBeat+0x8e>
    1939: 85 15        	sta	$15                     ; 0x2015 <launchBeat+0x90>
    193b: 18           	clc
    193c: 98           	tya
    193d: 69 09        	adc	#$9
    193f: 85 14        	sta	$14                     ; 0x2014 <launchBeat+0x8f>
    1941: a5 15        	lda	$15                     ; 0x2015 <launchBeat+0x90>
    1943: 69 00        	adc	#$0
    1945: 85 15        	sta	$15                     ; 0x2015 <launchBeat+0x90>
    1947: a0 01        	ldy	#$1
    1949: b1 14        	lda	($14),y                 ; 0x2014 <launchBeat+0x8f>
    194b: 85 14        	sta	$14                     ; 0x2014 <launchBeat+0x8f>
    194d: 18           	clc
    194e: a5 27        	lda	$27                     ; 0x2027 <launchBeat+0xa2>
    1950: a0 09        	ldy	#$9
    1952: 71 12        	adc	($12),y                 ; 0x2012 <launchBeat+0x8d>
    1954: a8           	tay
    1955: a5 14        	lda	$14                     ; 0x2014 <launchBeat+0x8f>
    1957: 69 00        	adc	#$0
    1959: 85 12        	sta	$12                     ; 0x2012 <launchBeat+0x8d>
    195b: 18           	clc
    195c: 98           	tya
    195d: 69 e2        	adc	#$e2
    195f: 85 14        	sta	$14                     ; 0x2014 <launchBeat+0x8f>
    1961: a5 12        	lda	$12                     ; 0x2012 <launchBeat+0x8d>
    1963: 69 ff        	adc	#$ff
    1965: 85 15        	sta	$15                     ; 0x2015 <launchBeat+0x90>
    1967: b2 14        	lda	($14)                   ; 0x2014 <launchBeat+0x8f>
    1969: a0 03        	ldy	#$3
    196b: d1 28        	cmp	($28),y                 ; 0x2028 <launchBeat+0xa3>
    196d: d0 2f        	bne	$199e <f256main+0x109c>
    196f: 86 12        	stx	$12                     ; 0x2012 <launchBeat+0x8d>
    1971: a6 16        	ldx	$16                     ; 0x2016 <launchBeat+0x91>
    1973: 86 13        	stx	$13                     ; 0x2013 <launchBeat+0x8e>
    1975: a9 00        	lda	#$0
    1977: 92 14        	sta	($14)                   ; 0x2014 <launchBeat+0x8f>
    1979: a0 0a        	ldy	#$a
    197b: b1 10        	lda	($10),y                 ; 0x2010 <launchBeat+0x8b>
    197d: 85 14        	sta	$14                     ; 0x2014 <launchBeat+0x8f>
    197f: c8           	iny
    1980: b1 10        	lda	($10),y                 ; 0x2010 <launchBeat+0x8b>
    1982: 85 15        	sta	$15                     ; 0x2015 <launchBeat+0x90>
    1984: a0 08        	ldy	#$8
    1986: b1 10        	lda	($10),y                 ; 0x2010 <launchBeat+0x8b>
    1988: 85 16        	sta	$16                     ; 0x2016 <launchBeat+0x91>
    198a: c8           	iny
    198b: b1 10        	lda	($10),y                 ; 0x2010 <launchBeat+0x8b>
    198d: 85 17        	sta	$17                     ; 0x2017 <launchBeat+0x92>
    198f: a6 28        	ldx	$28                     ; 0x2028 <launchBeat+0xa3>
    1991: 86 18        	stx	$18                     ; 0x2018 <launchBeat+0x93>
    1993: a6 29        	ldx	$29                     ; 0x2029 <launchBeat+0xa4>
    1995: 86 19        	stx	$19                     ; 0x2019 <launchBeat+0x94>
    1997: a6 25        	ldx	$25                     ; 0x2025 <launchBeat+0xa0>
    1999: a5 1a        	lda	$1a                     ; 0x201a <launchBeat+0x95>
    199b: 20 99 29     	jsr	$2999 <getBeatTrackNoteInfo>
    199e: a0 0a        	ldy	#$a
    19a0: b1 10        	lda	($10),y                 ; 0x2010 <launchBeat+0x8b>
    19a2: 85 12        	sta	$12                     ; 0x2012 <launchBeat+0x8d>
    19a4: c8           	iny
    19a5: b1 10        	lda	($10),y                 ; 0x2010 <launchBeat+0x8b>
    19a7: 85 13        	sta	$13                     ; 0x2013 <launchBeat+0x8e>
    19a9: b2 12        	lda	($12)                   ; 0x2012 <launchBeat+0x8d>
    19ab: a0 01        	ldy	#$1
    19ad: aa           	tax
    19ae: 30 03        	bmi	$19b3 <f256main+0x10b1>
    19b0: 4c 25 1a     	jmp	$1a25 <f256main+0x1123>
    19b3: a5 65        	lda	$65                     ; 0x2065 <launchBeat+0xe0>
    19b5: 0a           	asl
    19b6: 85 12        	sta	$12                     ; 0x2012 <launchBeat+0x8d>
    19b8: a9 00        	lda	#$0
    19ba: 2a           	rol
    19bb: 06 12        	asl	$12                     ; 0x2012 <launchBeat+0x8d>
    19bd: 2a           	rol
    19be: 06 12        	asl	$12                     ; 0x2012 <launchBeat+0x8d>
    19c0: 2a           	rol
    19c1: 06 12        	asl	$12                     ; 0x2012 <launchBeat+0x8d>
    19c3: 2a           	rol
    19c4: 85 13        	sta	$13                     ; 0x2013 <launchBeat+0x8e>
    19c6: 38           	sec
    19c7: a5 12        	lda	$12                     ; 0x2012 <launchBeat+0x8d>
    19c9: e5 65        	sbc	$65                     ; 0x2065 <launchBeat+0xe0>
    19cb: 85 12        	sta	$12                     ; 0x2012 <launchBeat+0x8d>
    19cd: a5 13        	lda	$13                     ; 0x2013 <launchBeat+0x8e>
    19cf: e9 00        	sbc	#$0
    19d1: 85 13        	sta	$13                     ; 0x2013 <launchBeat+0x8e>
    19d3: 18           	clc
    19d4: a5 12        	lda	$12                     ; 0x2012 <launchBeat+0x8d>
    19d6: 65 66        	adc	$66                     ; 0x2066 <launchBeat+0xe1>
    19d8: 85 14        	sta	$14                     ; 0x2014 <launchBeat+0x8f>
    19da: a5 13        	lda	$13                     ; 0x2013 <launchBeat+0x8e>
    19dc: 65 67        	adc	$67                     ; 0x2067 <launchBeat+0xe2>
    19de: 5a           	phy
    19df: a4 14        	ldy	$14                     ; 0x2014 <launchBeat+0x8f>
    19e1: 84 12        	sty	$12                     ; 0x2012 <launchBeat+0x8d>
    19e3: 7a           	ply
    19e4: 85 13        	sta	$13                     ; 0x2013 <launchBeat+0x8e>
    19e6: 85 15        	sta	$15                     ; 0x2015 <launchBeat+0x90>
    19e8: 18           	clc
    19e9: a5 14        	lda	$14                     ; 0x2014 <launchBeat+0x8f>
    19eb: 69 0b        	adc	#$b
    19ed: 85 14        	sta	$14                     ; 0x2014 <launchBeat+0x8f>
    19ef: a5 15        	lda	$15                     ; 0x2015 <launchBeat+0x90>
    19f1: 69 00        	adc	#$0
    19f3: 85 15        	sta	$15                     ; 0x2015 <launchBeat+0x90>
    19f5: b1 14        	lda	($14),y                 ; 0x2014 <launchBeat+0x8f>
    19f7: 85 14        	sta	$14                     ; 0x2014 <launchBeat+0x8f>
    19f9: 18           	clc
    19fa: a0 0b        	ldy	#$b
    19fc: a5 27        	lda	$27                     ; 0x2027 <launchBeat+0xa2>
    19fe: 71 12        	adc	($12),y                 ; 0x2012 <launchBeat+0x8d>
    1a00: 85 13        	sta	$13                     ; 0x2013 <launchBeat+0x8e>
    1a02: a0 01        	ldy	#$1
    1a04: a5 14        	lda	$14                     ; 0x2014 <launchBeat+0x8f>
    1a06: 69 00        	adc	#$0
    1a08: 85 12        	sta	$12                     ; 0x2012 <launchBeat+0x8d>
    1a0a: 18           	clc
    1a0b: a5 13        	lda	$13                     ; 0x2013 <launchBeat+0x8e>
    1a0d: 69 e2        	adc	#$e2
    1a0f: 85 14        	sta	$14                     ; 0x2014 <launchBeat+0x8f>
    1a11: a5 12        	lda	$12                     ; 0x2012 <launchBeat+0x8d>
    1a13: 69 ff        	adc	#$ff
    1a15: 5a           	phy
    1a16: a4 14        	ldy	$14                     ; 0x2014 <launchBeat+0x8f>
    1a18: 84 12        	sty	$12                     ; 0x2012 <launchBeat+0x8d>
    1a1a: 7a           	ply
    1a1b: 85 13        	sta	$13                     ; 0x2013 <launchBeat+0x8e>
    1a1d: b2 12        	lda	($12)                   ; 0x2012 <launchBeat+0x8d>
    1a1f: d0 04        	bne	$1a25 <f256main+0x1123>
    1a21: a9 01        	lda	#$1
    1a23: 92 12        	sta	($12)                   ; 0x2012 <launchBeat+0x8d>
    1a25: b1 28        	lda	($28),y                 ; 0x2028 <launchBeat+0xa3>
    1a27: 85 17        	sta	$17                     ; 0x2017 <launchBeat+0x92>
    1a29: 8a           	txa
    1a2a: 29 7f        	and	#$7f
    1a2c: 85 16        	sta	$16                     ; 0x2016 <launchBeat+0x91>
    1a2e: b2 28        	lda	($28)                   ; 0x2028 <launchBeat+0xa3>
    1a30: a2 4c        	ldx	#$4c
    1a32: 48           	pha
    1a33: a0 08        	ldy	#$8
    1a35: b1 10        	lda	($10),y                 ; 0x2010 <launchBeat+0x8b>
    1a37: 85 2e        	sta	$2e                     ; 0x202e <launchBeat+0xa9>
    1a39: c8           	iny
    1a3a: b1 10        	lda	($10),y                 ; 0x2010 <launchBeat+0x8b>
    1a3c: 85 2f        	sta	$2f                     ; 0x202f <launchBeat+0xaa>
    1a3e: 68           	pla
    1a3f: 85 18        	sta	$18                     ; 0x2018 <launchBeat+0x93>
    1a41: c9 02        	cmp	#$2
    1a43: f0 02        	beq	$1a47 <f256main+0x1145>
    1a45: a2 7f        	ldx	#$7f
    1a47: a0 04        	ldy	#$4
    1a49: b1 10        	lda	($10),y                 ; 0x2010 <launchBeat+0x8b>
    1a4b: 85 12        	sta	$12                     ; 0x2012 <launchBeat+0x8d>
    1a4d: c8           	iny
    1a4e: b1 10        	lda	($10),y                 ; 0x2010 <launchBeat+0x8b>
    1a50: 85 13        	sta	$13                     ; 0x2013 <launchBeat+0x8e>
    1a52: a0 02        	ldy	#$2
    1a54: b1 12        	lda	($12),y                 ; 0x2012 <launchBeat+0x8d>
    1a56: a4 16        	ldy	$16                     ; 0x2016 <launchBeat+0x91>
    1a58: 84 12        	sty	$12                     ; 0x2012 <launchBeat+0x8d>
    1a5a: 86 13        	stx	$13                     ; 0x2013 <launchBeat+0x8e>
    1a5c: a6 18        	ldx	$18                     ; 0x2018 <launchBeat+0x93>
    1a5e: 86 14        	stx	$14                     ; 0x2014 <launchBeat+0x8f>
    1a60: 85 15        	sta	$15                     ; 0x2015 <launchBeat+0x90>
    1a62: a6 17        	ldx	$17                     ; 0x2017 <launchBeat+0x92>
    1a64: a9 01        	lda	#$1
    1a66: 20 cf 1b     	jsr	$1bcf <dispatchNote>
    1a69: a5 65        	lda	$65                     ; 0x2065 <launchBeat+0xe0>
    1a6b: 0a           	asl
    1a6c: aa           	tax
    1a6d: a9 00        	lda	#$0
    1a6f: 2a           	rol
    1a70: 86 12        	stx	$12                     ; 0x2012 <launchBeat+0x8d>
    1a72: 06 12        	asl	$12                     ; 0x2012 <launchBeat+0x8d>
    1a74: 2a           	rol
    1a75: 06 12        	asl	$12                     ; 0x2012 <launchBeat+0x8d>
    1a77: 2a           	rol
    1a78: 06 12        	asl	$12                     ; 0x2012 <launchBeat+0x8d>
    1a7a: 2a           	rol
    1a7b: aa           	tax
    1a7c: 38           	sec
    1a7d: a5 12        	lda	$12                     ; 0x2012 <launchBeat+0x8d>
    1a7f: e5 65        	sbc	$65                     ; 0x2065 <launchBeat+0xe0>
    1a81: 85 12        	sta	$12                     ; 0x2012 <launchBeat+0x8d>
    1a83: 8a           	txa
    1a84: e9 00        	sbc	#$0
    1a86: aa           	tax
    1a87: 18           	clc
    1a88: a5 12        	lda	$12                     ; 0x2012 <launchBeat+0x8d>
    1a8a: 65 66        	adc	$66                     ; 0x2066 <launchBeat+0xe1>
    1a8c: 85 12        	sta	$12                     ; 0x2012 <launchBeat+0x8d>
    1a8e: 8a           	txa
    1a8f: 65 67        	adc	$67                     ; 0x2067 <launchBeat+0xe2>
    1a91: 85 13        	sta	$13                     ; 0x2013 <launchBeat+0x8e>
    1a93: a0 02        	ldy	#$2
    1a95: b1 12        	lda	($12),y                 ; 0x2012 <launchBeat+0x8d>
    1a97: 1a           	inc
    1a98: 91 12        	sta	($12),y                 ; 0x2012 <launchBeat+0x8d>
    1a9a: a2 80        	ldx	#$80
    1a9c: 86 f3        	stx	$f3                     ; 0x20f3 <launchBeat+0x16e>
    1a9e: 20 f0 ff     	jsr	$fff0 <end_block9+0xb90c>
    1aa1: 92 2a        	sta	($2a)                   ; 0x202a <launchBeat+0xa5>
    1aa3: a9 00        	lda	#$0
    1aa5: 6a           	ror
    1aa6: 85 2c        	sta	$2c                     ; 0x202c <launchBeat+0xa7>
    1aa8: b2 2a        	lda	($2a)                   ; 0x202a <launchBeat+0xa5>
    1aaa: 85 12        	sta	$12                     ; 0x2012 <launchBeat+0x8d>
    1aac: b2 2e        	lda	($2e)                   ; 0x202e <launchBeat+0xa9>
    1aae: aa           	tax
    1aaf: 18           	clc
    1ab0: a5 12        	lda	$12                     ; 0x2012 <launchBeat+0x8d>
    1ab2: 75 68        	adc	$68,x                   ; 0x2068 <launchBeat+0xe3>
    1ab4: 85 18        	sta	$18                     ; 0x2018 <launchBeat+0x93>
    1ab6: a5 65        	lda	$65                     ; 0x2065 <launchBeat+0xe0>
    1ab8: 0a           	asl
    1ab9: aa           	tax
    1aba: a9 00        	lda	#$0
    1abc: 2a           	rol
    1abd: 86 12        	stx	$12                     ; 0x2012 <launchBeat+0x8d>
    1abf: 06 12        	asl	$12                     ; 0x2012 <launchBeat+0x8d>
    1ac1: 2a           	rol
    1ac2: 06 12        	asl	$12                     ; 0x2012 <launchBeat+0x8d>
    1ac4: 2a           	rol
    1ac5: 06 12        	asl	$12                     ; 0x2012 <launchBeat+0x8d>
    1ac7: 2a           	rol
    1ac8: aa           	tax
    1ac9: 38           	sec
    1aca: a5 12        	lda	$12                     ; 0x2012 <launchBeat+0x8d>
    1acc: e5 65        	sbc	$65                     ; 0x2065 <launchBeat+0xe0>
    1ace: 85 12        	sta	$12                     ; 0x2012 <launchBeat+0x8d>
    1ad0: 8a           	txa
    1ad1: e9 00        	sbc	#$0
    1ad3: a8           	tay
    1ad4: 18           	clc
    1ad5: a5 12        	lda	$12                     ; 0x2012 <launchBeat+0x8d>
    1ad7: 65 66        	adc	$66                     ; 0x2066 <launchBeat+0xe1>
    1ad9: aa           	tax
    1ada: 98           	tya
    1adb: 65 67        	adc	$67                     ; 0x2067 <launchBeat+0xe2>
    1add: 86 12        	stx	$12                     ; 0x2012 <launchBeat+0x8d>
    1adf: 85 13        	sta	$13                     ; 0x2013 <launchBeat+0x8e>
    1ae1: a8           	tay
    1ae2: 18           	clc
    1ae3: 8a           	txa
    1ae4: 69 0d        	adc	#$d
    1ae6: 85 14        	sta	$14                     ; 0x2014 <launchBeat+0x8f>
    1ae8: 98           	tya
    1ae9: 69 00        	adc	#$0
    1aeb: 85 15        	sta	$15                     ; 0x2015 <launchBeat+0x90>
    1aed: 18           	clc
    1aee: a0 03        	ldy	#$3
    1af0: b1 10        	lda	($10),y                 ; 0x2010 <launchBeat+0x8b>
    1af2: 65 25        	adc	$25                     ; 0x2025 <launchBeat+0xa0>
    1af4: aa           	tax
    1af5: 88           	dey
    1af6: b1 10        	lda	($10),y                 ; 0x2010 <launchBeat+0x8b>
    1af8: 65 26        	adc	$26                     ; 0x2026 <launchBeat+0xa1>
    1afa: 85 16        	sta	$16                     ; 0x2016 <launchBeat+0x91>
    1afc: 18           	clc
    1afd: a0 0d        	ldy	#$d
    1aff: 8a           	txa
    1b00: 71 12        	adc	($12),y                 ; 0x2012 <launchBeat+0x8d>
    1b02: 85 12        	sta	$12                     ; 0x2012 <launchBeat+0x8d>
    1b04: a0 01        	ldy	#$1
    1b06: a5 16        	lda	$16                     ; 0x2016 <launchBeat+0x91>
    1b08: 71 14        	adc	($14),y                 ; 0x2014 <launchBeat+0x8f>
    1b0a: 85 13        	sta	$13                     ; 0x2013 <launchBeat+0x8e>
    1b0c: a5 18        	lda	$18                     ; 0x2018 <launchBeat+0x93>
    1b0e: 91 12        	sta	($12),y                 ; 0x2012 <launchBeat+0x8d>
    1b10: b2 12        	lda	($12)                   ; 0x2012 <launchBeat+0x8d>
    1b12: 85 f3        	sta	$f3                     ; 0x20f3 <launchBeat+0x16e>
    1b14: b1 12        	lda	($12),y                 ; 0x2012 <launchBeat+0x8d>
    1b16: 85 f4        	sta	$f4                     ; 0x20f4 <launchBeat+0x16f>
    1b18: c8           	iny
    1b19: b1 12        	lda	($12),y                 ; 0x2012 <launchBeat+0x8d>
    1b1b: 85 f5        	sta	$f5                     ; 0x20f5 <launchBeat+0x170>
    1b1d: a6 24        	ldx	$24                     ; 0x2024 <launchBeat+0x9f>
    1b1f: 86 14        	stx	$14                     ; 0x2014 <launchBeat+0x8f>
    1b21: 20 f0 ff     	jsr	$fff0 <end_block9+0xb90c>
    1b24: 92 2a        	sta	($2a)                   ; 0x202a <launchBeat+0xa5>
    1b26: a9 00        	lda	#$0
    1b28: 6a           	ror
    1b29: 85 2c        	sta	$2c                     ; 0x202c <launchBeat+0xa7>
    1b2b: a0 07        	ldy	#$7
    1b2d: b1 10        	lda	($10),y                 ; 0x2010 <launchBeat+0x8b>
    1b2f: 85 28        	sta	$28                     ; 0x2028 <launchBeat+0xa3>
    1b31: 88           	dey
    1b32: b1 10        	lda	($10),y                 ; 0x2010 <launchBeat+0x8b>
    1b34: 85 29        	sta	$29                     ; 0x2029 <launchBeat+0xa4>
    1b36: a6 14        	ldx	$14                     ; 0x2014 <launchBeat+0x8f>
    1b38: 86 24        	stx	$24                     ; 0x2024 <launchBeat+0x9f>
    1b3a: 64 8a        	stz	$8a                     ; 0x208a <launchBeat+0x105>
    1b3c: 20 00 ff     	jsr	$ff00 <end_block9+0xb81c>
    1b3f: 92 2a        	sta	($2a)                   ; 0x202a <launchBeat+0xa5>
    1b41: a9 00        	lda	#$0
    1b43: 6a           	ror
    1b44: 85 2c        	sta	$2c                     ; 0x202c <launchBeat+0xa7>
    1b46: a6 8a        	ldx	$8a                     ; 0x208a <launchBeat+0x105>
    1b48: e0 08        	cpx	#$8
    1b4a: d0 03        	bne	$1b4f <f256main+0x124d>
    1b4c: 4c 4b 11     	jmp	$114b <f256main+0x849>
    1b4f: e0 52        	cpx	#$52
    1b51: d0 e3        	bne	$1b36 <f256main+0x1234>
    1b53: a5 8e        	lda	$8e                     ; 0x208e <launchBeat+0x109>
    1b55: 38           	sec
    1b56: 85 27        	sta	$27                     ; 0x2027 <launchBeat+0xa2>
    1b58: e9 0c        	sbc	#$c
    1b5a: 50 02        	bvc	$1b5e <f256main+0x125c>
    1b5c: 49 80        	eor	#$80
    1b5e: aa           	tax
    1b5f: 30 03        	bmi	$1b64 <f256main+0x1262>
    1b61: 4c f9 11     	jmp	$11f9 <f256main+0x8f7>
    1b64: a6 27        	ldx	$27                     ; 0x2027 <launchBeat+0xa2>
    1b66: e0 0a        	cpx	#$a
    1b68: d0 03        	bne	$1b6d <f256main+0x126b>
    1b6a: 4c e0 12     	jmp	$12e0 <f256main+0x9de>
    1b6d: e0 0b        	cpx	#$b
    1b6f: f0 03        	beq	$1b74 <f256main+0x1272>
    1b71: 4c c4 12     	jmp	$12c4 <f256main+0x9c2>
    1b74: a2 01        	ldx	#$1
    1b76: a5 29        	lda	$29                     ; 0x2029 <launchBeat+0xa4>
    1b78: f0 02        	beq	$1b7c <f256main+0x127a>
    1b7a: a2 00        	ldx	#$0
    1b7c: 8a           	txa
    1b7d: 0a           	asl
    1b7e: 0a           	asl
    1b7f: a8           	tay
    1b80: a5 65        	lda	$65                     ; 0x2065 <launchBeat+0xe0>
    1b82: 0a           	asl
    1b83: 09 10        	ora	#$10
    1b85: 8d a7 46     	sta	$46a7                   ; 0x46a7 <_spriteCtl+0x4>
    1b88: 8d 20 d9     	sta	$d920                   ; 0xd920 <end_block9+0x923c>
    1b8b: 9c 21 d9     	stz	$d921                   ; 0xd921 <end_block9+0x923d>
    1b8e: 98           	tya
    1b8f: 09 40        	ora	#$40
    1b91: 8d 22 d9     	sta	$d922                   ; 0xd922 <end_block9+0x923e>
    1b94: a0 02        	ldy	#$2
    1b96: 8c 23 d9     	sty	$d923                   ; 0xd923 <end_block9+0x923f>
    1b99: a9 01        	lda	#$1
    1b9b: 0d a7 46     	ora	$46a7                   ; 0x46a7 <_spriteCtl+0x4>
    1b9e: 8d 20 d9     	sta	$d920                   ; 0xd920 <end_block9+0x923c>
    1ba1: a0 80        	ldy	#$80
    1ba3: 84 f3        	sty	$f3                     ; 0x20f3 <launchBeat+0x16e>
    1ba5: 20 f0 ff     	jsr	$fff0 <end_block9+0xb90c>
    1ba8: 92 2a        	sta	($2a)                   ; 0x202a <launchBeat+0xa5>
    1baa: a9 00        	lda	#$0
    1bac: 6a           	ror
    1bad: 85 2c        	sta	$2c                     ; 0x202c <launchBeat+0xa7>
    1baf: 18           	clc
    1bb0: a9 02        	lda	#$2
    1bb2: 72 2a        	adc	($2a)                   ; 0x202a <launchBeat+0xa5>
    1bb4: 85 87        	sta	$87                     ; 0x2087 <launchBeat+0x102>
    1bb6: 64 f3        	stz	$f3                     ; 0x20f3 <launchBeat+0x16e>
    1bb8: a4 87        	ldy	$87                     ; 0x2087 <launchBeat+0x102>
    1bba: 84 f4        	sty	$f4                     ; 0x20f4 <launchBeat+0x16f>
    1bbc: a0 0b        	ldy	#$b
    1bbe: 84 f5        	sty	$f5                     ; 0x20f5 <launchBeat+0x170>
    1bc0: 86 29        	stx	$29                     ; 0x2029 <launchBeat+0xa4>
    1bc2: 20 f0 ff     	jsr	$fff0 <end_block9+0xb90c>
    1bc5: 92 2a        	sta	($2a)                   ; 0x202a <launchBeat+0xa5>
    1bc7: a9 00        	lda	#$0
    1bc9: 6a           	ror
    1bca: 85 2c        	sta	$2c                     ; 0x202c <launchBeat+0xa7>
    1bcc: 4c 36 1b     	jmp	$1b36 <f256main+0x1234>

00001bcf <dispatchNote>:
    1bcf: 85 16        	sta	$16                     ; 0x2016 <launchBeat+0x91>
    1bd1: 86 97        	stx	$97                     ; 0x2097 <launchBeat+0x112>
    1bd3: a4 12        	ldy	$12                     ; 0x2012 <launchBeat+0x8d>
    1bd5: a5 14        	lda	$14                     ; 0x2014 <launchBeat+0x8f>
    1bd7: a6 16        	ldx	$16                     ; 0x2016 <launchBeat+0x91>
    1bd9: f0 07        	beq	$1be2 <dispatchNote+0x13>
    1bdb: c0 00        	cpy	#$0
    1bdd: d0 03        	bne	$1be2 <dispatchNote+0x13>
    1bdf: 4c f1 1e     	jmp	$1ef1 <dispatchNote+0x322>
    1be2: c9 05        	cmp	#$5
    1be4: 90 03        	bcc	$1be9 <dispatchNote+0x1a>
    1be6: 4c f1 1e     	jmp	$1ef1 <dispatchNote+0x322>
    1be9: 0a           	asl
    1bea: aa           	tax
    1beb: 7c 35 42     	jmp	($4235,x)               ; 0x4235 <__set_v+0x1>
    1bee: a5 16        	lda	$16                     ; 0x2016 <launchBeat+0x91>
    1bf0: d0 03        	bne	$1bf5 <dispatchNote+0x26>
    1bf2: 4c 61 1c     	jmp	$1c61 <dispatchNote+0x92>
    1bf5: a5 97        	lda	$97                     ; 0x2097 <launchBeat+0x112>
    1bf7: 09 90        	ora	#$90
    1bf9: 8d a1 dd     	sta	$dda1                   ; 0xdda1 <end_block9+0x96bd>
    1bfc: 8c a1 dd     	sty	$dda1                   ; 0xdda1 <end_block9+0x96bd>
    1bff: a6 13        	ldx	$13                     ; 0x2013 <launchBeat+0x8e>
    1c01: 8e a1 dd     	stx	$dda1                   ; 0xdda1 <end_block9+0x96bd>
    1c04: e6 3c        	inc	$3c                     ; 0x203c <launchBeat+0xb7>
    1c06: 60           	rts
    1c07: a5 16        	lda	$16                     ; 0x2016 <launchBeat+0x91>
    1c09: d0 03        	bne	$1c0e <dispatchNote+0x3f>
    1c0b: 4c 7b 1c     	jmp	$1c7b <dispatchNote+0xac>
    1c0e: a6 97        	ldx	$97                     ; 0x2097 <launchBeat+0x112>
    1c10: e0 ff        	cpx	#$ff
    1c12: d0 03        	bne	$1c17 <dispatchNote+0x48>
    1c14: 4c f1 1e     	jmp	$1ef1 <dispatchNote+0x322>
    1c17: 64 12        	stz	$12                     ; 0x2012 <launchBeat+0x8d>
    1c19: a5 97        	lda	$97                     ; 0x2097 <launchBeat+0x112>
    1c1b: 30 03        	bmi	$1c20 <dispatchNote+0x51>
    1c1d: 4c 2c 1d     	jmp	$1d2c <dispatchNote+0x15d>
    1c20: a2 ff        	ldx	#$ff
    1c22: 4c 2e 1d     	jmp	$1d2e <dispatchNote+0x15f>
    1c25: a5 16        	lda	$16                     ; 0x2016 <launchBeat+0x91>
    1c27: d0 03        	bne	$1c2c <dispatchNote+0x5d>
    1c29: 4c 07 1d     	jmp	$1d07 <dispatchNote+0x138>
    1c2c: a6 97        	ldx	$97                     ; 0x2097 <launchBeat+0x112>
    1c2e: e0 ff        	cpx	#$ff
    1c30: d0 03        	bne	$1c35 <dispatchNote+0x66>
    1c32: 4c f1 1e     	jmp	$1ef1 <dispatchNote+0x322>
    1c35: a5 97        	lda	$97                     ; 0x2097 <launchBeat+0x112>
    1c37: 30 03        	bmi	$1c3c <dispatchNote+0x6d>
    1c39: 4c ba 1d     	jmp	$1dba <dispatchNote+0x1eb>
    1c3c: a2 ff        	ldx	#$ff
    1c3e: 86 12        	stx	$12                     ; 0x2012 <launchBeat+0x8d>
    1c40: 4c bc 1d     	jmp	$1dbc <dispatchNote+0x1ed>
    1c43: a5 16        	lda	$16                     ; 0x2016 <launchBeat+0x91>
    1c45: d0 03        	bne	$1c4a <dispatchNote+0x7b>
    1c47: 4c 15 1d     	jmp	$1d15 <dispatchNote+0x146>
    1c4a: a6 97        	ldx	$97                     ; 0x2097 <launchBeat+0x112>
    1c4c: e0 ff        	cpx	#$ff
    1c4e: d0 03        	bne	$1c53 <dispatchNote+0x84>
    1c50: 4c f1 1e     	jmp	$1ef1 <dispatchNote+0x322>
    1c53: a5 97        	lda	$97                     ; 0x2097 <launchBeat+0x112>
    1c55: 30 03        	bmi	$1c5a <dispatchNote+0x8b>
    1c57: 4c 45 1e     	jmp	$1e45 <dispatchNote+0x276>
    1c5a: a2 ff        	ldx	#$ff
    1c5c: 86 12        	stx	$12                     ; 0x2012 <launchBeat+0x8d>
    1c5e: 4c 47 1e     	jmp	$1e47 <dispatchNote+0x278>
    1c61: a5 97        	lda	$97                     ; 0x2097 <launchBeat+0x112>
    1c63: 09 80        	ora	#$80
    1c65: 8d a1 dd     	sta	$dda1                   ; 0xdda1 <end_block9+0x96bd>
    1c68: 8c a1 dd     	sty	$dda1                   ; 0xdda1 <end_block9+0x96bd>
    1c6b: a6 13        	ldx	$13                     ; 0x2013 <launchBeat+0x8e>
    1c6d: 8e a1 dd     	stx	$dda1                   ; 0xdda1 <end_block9+0x96bd>
    1c70: a6 3c        	ldx	$3c                     ; 0x203c <launchBeat+0xb7>
    1c72: d0 03        	bne	$1c77 <dispatchNote+0xa8>
    1c74: 4c f1 1e     	jmp	$1ef1 <dispatchNote+0x322>
    1c77: ca           	dex
    1c78: 86 3c        	stx	$3c                     ; 0x203c <launchBeat+0xb7>
    1c7a: 60           	rts
    1c7b: a2 00        	ldx	#$0
    1c7d: b5 52        	lda	$52,x                   ; 0x2052 <launchBeat+0xcd>
    1c7f: c5 12        	cmp	$12                     ; 0x2012 <launchBeat+0x8d>
    1c81: f0 07        	beq	$1c8a <dispatchNote+0xbb>
    1c83: e8           	inx
    1c84: e0 09        	cpx	#$9
    1c86: d0 f5        	bne	$1c7d <dispatchNote+0xae>
    1c88: a2 ff        	ldx	#$ff
    1c8a: 86 9c        	stx	$9c                     ; 0x209c <launchBeat+0x117>
    1c8c: 98           	tya
    1c8d: 18           	clc
    1c8e: 69 05        	adc	#$5
    1c90: 85 16        	sta	$16                     ; 0x2016 <launchBeat+0x91>
    1c92: 64 13        	stz	$13                     ; 0x2013 <launchBeat+0x8e>
    1c94: a9 00        	lda	#$0
    1c96: 69 00        	adc	#$0
    1c98: a2 98        	ldx	#$98
    1c9a: a0 00        	ldy	#$0
    1c9c: 86 14        	stx	$14                     ; 0x2014 <launchBeat+0x8f>
    1c9e: 84 15        	sty	$15                     ; 0x2015 <launchBeat+0x90>
    1ca0: a2 0c        	ldx	#$c
    1ca2: 86 12        	stx	$12                     ; 0x2012 <launchBeat+0x8d>
    1ca4: aa           	tax
    1ca5: a5 16        	lda	$16                     ; 0x2016 <launchBeat+0x91>
    1ca7: 20 59 41     	jsr	$4159 <__udivmodhi4>
    1caa: aa           	tax
    1cab: a4 98        	ldy	$98                     ; 0x2098 <launchBeat+0x113>
    1cad: 84 12        	sty	$12                     ; 0x2012 <launchBeat+0x8d>
    1caf: a5 99        	lda	$99                     ; 0x2099 <launchBeat+0x114>
    1cb1: a0 01        	ldy	#$1
    1cb3: 06 12        	asl	$12                     ; 0x2012 <launchBeat+0x8d>
    1cb5: 2a           	rol
    1cb6: 85 13        	sta	$13                     ; 0x2013 <launchBeat+0x8e>
    1cb8: a9 95        	lda	#$95
    1cba: 18           	clc
    1cbb: 65 12        	adc	$12                     ; 0x2012 <launchBeat+0x8d>
    1cbd: 85 12        	sta	$12                     ; 0x2012 <launchBeat+0x8d>
    1cbf: a9 43        	lda	#$43
    1cc1: 65 13        	adc	$13                     ; 0x2013 <launchBeat+0x8e>
    1cc3: 85 13        	sta	$13                     ; 0x2013 <launchBeat+0x8e>
    1cc5: b2 12        	lda	($12)                   ; 0x2012 <launchBeat+0x8d>
    1cc7: 85 14        	sta	$14                     ; 0x2014 <launchBeat+0x8f>
    1cc9: b1 12        	lda	($12),y                 ; 0x2012 <launchBeat+0x8d>
    1ccb: 85 13        	sta	$13                     ; 0x2013 <launchBeat+0x8e>
    1ccd: 18           	clc
    1cce: 8a           	txa
    1ccf: 69 3e        	adc	#$3e
    1cd1: a8           	tay
    1cd2: a6 9c        	ldx	$9c                     ; 0x209c <launchBeat+0x117>
    1cd4: 86 12        	stx	$12                     ; 0x2012 <launchBeat+0x8d>
    1cd6: 8a           	txa
    1cd7: 09 a0        	ora	#$a0
    1cd9: 8d 80 d5     	sta	$d580                   ; 0xd580 <end_block9+0x8e9c>
    1cdc: a5 14        	lda	$14                     ; 0x2014 <launchBeat+0x8f>
    1cde: 8d 81 d5     	sta	$d581                   ; 0xd581 <end_block9+0x8e9d>
    1ce1: 8a           	txa
    1ce2: 09 b0        	ora	#$b0
    1ce4: 85 14        	sta	$14                     ; 0x2014 <launchBeat+0x8f>
    1ce6: a5 13        	lda	$13                     ; 0x2013 <launchBeat+0x8e>
    1ce8: 29 03        	and	#$3
    1cea: 85 13        	sta	$13                     ; 0x2013 <launchBeat+0x8e>
    1cec: 98           	tya
    1ced: 0a           	asl
    1cee: a6 14        	ldx	$14                     ; 0x2014 <launchBeat+0x8f>
    1cf0: 8e 80 d5     	stx	$d580                   ; 0xd580 <end_block9+0x8e9c>
    1cf3: 0a           	asl
    1cf4: 05 13        	ora	$13                     ; 0x2013 <launchBeat+0x8e>
    1cf6: 8d 81 d5     	sta	$d581                   ; 0xd581 <end_block9+0x8e9d>
    1cf9: a5 12        	lda	$12                     ; 0x2012 <launchBeat+0x8d>
    1cfb: 30 03        	bmi	$1d00 <dispatchNote+0x131>
    1cfd: 4c d7 1e     	jmp	$1ed7 <dispatchNote+0x308>
    1d00: a2 ff        	ldx	#$ff
    1d02: 86 13        	stx	$13                     ; 0x2013 <launchBeat+0x8e>
    1d04: 4c d9 1e     	jmp	$1ed9 <dispatchNote+0x30a>
    1d07: a5 97        	lda	$97                     ; 0x2097 <launchBeat+0x112>
    1d09: 30 03        	bmi	$1d0e <dispatchNote+0x13f>
    1d0b: 4c f2 1e     	jmp	$1ef2 <dispatchNote+0x323>
    1d0e: a2 ff        	ldx	#$ff
    1d10: 86 12        	stx	$12                     ; 0x2012 <launchBeat+0x8d>
    1d12: 4c f4 1e     	jmp	$1ef4 <dispatchNote+0x325>
    1d15: a2 00        	ldx	#$0
    1d17: b4 40        	ldy	$40,x                   ; 0x2040 <launchBeat+0xbb>
    1d19: c4 12        	cpy	$12                     ; 0x2012 <launchBeat+0x8d>
    1d1b: d0 03        	bne	$1d20 <dispatchNote+0x151>
    1d1d: 4c b8 1e     	jmp	$1eb8 <dispatchNote+0x2e9>
    1d20: e8           	inx
    1d21: e0 06        	cpx	#$6
    1d23: d0 f2        	bne	$1d17 <dispatchNote+0x148>
    1d25: 64 12        	stz	$12                     ; 0x2012 <launchBeat+0x8d>
    1d27: 64 3f        	stz	$3f                     ; 0x203f <launchBeat+0xba>
    1d29: 4c c7 1e     	jmp	$1ec7 <dispatchNote+0x2f8>
    1d2c: a2 00        	ldx	#$0
    1d2e: 86 9c        	stx	$9c                     ; 0x209c <launchBeat+0x117>
    1d30: 98           	tya
    1d31: 84 9d        	sty	$9d                     ; 0x209d <launchBeat+0x118>
    1d33: 18           	clc
    1d34: 69 05        	adc	#$5
    1d36: 85 16        	sta	$16                     ; 0x2016 <launchBeat+0x91>
    1d38: 64 13        	stz	$13                     ; 0x2013 <launchBeat+0x8e>
    1d3a: a9 00        	lda	#$0
    1d3c: 69 00        	adc	#$0
    1d3e: a2 9a        	ldx	#$9a
    1d40: a0 00        	ldy	#$0
    1d42: 86 14        	stx	$14                     ; 0x2014 <launchBeat+0x8f>
    1d44: 84 15        	sty	$15                     ; 0x2015 <launchBeat+0x90>
    1d46: a2 0c        	ldx	#$c
    1d48: 86 12        	stx	$12                     ; 0x2012 <launchBeat+0x8d>
    1d4a: aa           	tax
    1d4b: a5 16        	lda	$16                     ; 0x2016 <launchBeat+0x91>
    1d4d: 20 59 41     	jsr	$4159 <__udivmodhi4>
    1d50: aa           	tax
    1d51: a5 9a        	lda	$9a                     ; 0x209a <launchBeat+0x115>
    1d53: 0a           	asl
    1d54: 85 12        	sta	$12                     ; 0x2012 <launchBeat+0x8d>
    1d56: a5 9b        	lda	$9b                     ; 0x209b <launchBeat+0x116>
    1d58: 2a           	rol
    1d59: 85 13        	sta	$13                     ; 0x2013 <launchBeat+0x8e>
    1d5b: 18           	clc
    1d5c: a9 95        	lda	#$95
    1d5e: 65 12        	adc	$12                     ; 0x2012 <launchBeat+0x8d>
    1d60: 85 12        	sta	$12                     ; 0x2012 <launchBeat+0x8d>
    1d62: a9 43        	lda	#$43
    1d64: 65 13        	adc	$13                     ; 0x2013 <launchBeat+0x8e>
    1d66: a0 01        	ldy	#$1
    1d68: 85 13        	sta	$13                     ; 0x2013 <launchBeat+0x8e>
    1d6a: b1 12        	lda	($12),y                 ; 0x2012 <launchBeat+0x8d>
    1d6c: 85 14        	sta	$14                     ; 0x2014 <launchBeat+0x8f>
    1d6e: 18           	clc
    1d6f: 8a           	txa
    1d70: 69 3e        	adc	#$3e
    1d72: 85 15        	sta	$15                     ; 0x2015 <launchBeat+0x90>
    1d74: a6 97        	ldx	$97                     ; 0x2097 <launchBeat+0x112>
    1d76: a5 97        	lda	$97                     ; 0x2097 <launchBeat+0x112>
    1d78: 09 a0        	ora	#$a0
    1d7a: a8           	tay
    1d7b: b2 12        	lda	($12)                   ; 0x2012 <launchBeat+0x8d>
    1d7d: 8c 80 d5     	sty	$d580                   ; 0xd580 <end_block9+0x8e9c>
    1d80: 8d 81 d5     	sta	$d581                   ; 0xd581 <end_block9+0x8e9d>
    1d83: a5 97        	lda	$97                     ; 0x2097 <launchBeat+0x112>
    1d85: 09 b0        	ora	#$b0
    1d87: 85 13        	sta	$13                     ; 0x2013 <launchBeat+0x8e>
    1d89: a5 14        	lda	$14                     ; 0x2014 <launchBeat+0x8f>
    1d8b: 29 03        	and	#$3
    1d8d: 85 12        	sta	$12                     ; 0x2012 <launchBeat+0x8d>
    1d8f: a5 15        	lda	$15                     ; 0x2015 <launchBeat+0x90>
    1d91: 0a           	asl
    1d92: 0a           	asl
    1d93: 05 12        	ora	$12                     ; 0x2012 <launchBeat+0x8d>
    1d95: 09 20        	ora	#$20
    1d97: a4 13        	ldy	$13                     ; 0x2013 <launchBeat+0x8e>
    1d99: 8c 80 d5     	sty	$d580                   ; 0xd580 <end_block9+0x8e9c>
    1d9c: 8d 81 d5     	sta	$d581                   ; 0xd581 <end_block9+0x8e9d>
    1d9f: a9 52        	lda	#$52
    1da1: 86 12        	stx	$12                     ; 0x2012 <launchBeat+0x8d>
    1da3: 18           	clc
    1da4: 65 12        	adc	$12                     ; 0x2012 <launchBeat+0x8d>
    1da6: a8           	tay
    1da7: a6 9c        	ldx	$9c                     ; 0x209c <launchBeat+0x117>
    1da9: 86 12        	stx	$12                     ; 0x2012 <launchBeat+0x8d>
    1dab: a9 00        	lda	#$0
    1dad: 65 12        	adc	$12                     ; 0x2012 <launchBeat+0x8d>
    1daf: 84 12        	sty	$12                     ; 0x2012 <launchBeat+0x8d>
    1db1: 85 13        	sta	$13                     ; 0x2013 <launchBeat+0x8e>
    1db3: a5 9d        	lda	$9d                     ; 0x209d <launchBeat+0x118>
    1db5: 92 12        	sta	($12)                   ; 0x2012 <launchBeat+0x8d>
    1db7: e6 3f        	inc	$3f                     ; 0x203f <launchBeat+0xba>
    1db9: 60           	rts
    1dba: 64 12        	stz	$12                     ; 0x2012 <launchBeat+0x8d>
    1dbc: a5 97        	lda	$97                     ; 0x2097 <launchBeat+0x112>
    1dbe: 38           	sec
    1dbf: e9 03        	sbc	#$3
    1dc1: 50 02        	bvc	$1dc5 <dispatchNote+0x1f6>
    1dc3: 49 80        	eor	#$80
    1dc5: a2 d5        	ldx	#$d5
    1dc7: 86 9c        	stx	$9c                     ; 0x209c <launchBeat+0x117>
    1dc9: aa           	tax
    1dca: 10 04        	bpl	$1dd0 <dispatchNote+0x201>
    1dcc: a2 d4        	ldx	#$d4
    1dce: 86 9c        	stx	$9c                     ; 0x209c <launchBeat+0x117>
    1dd0: a9 af        	lda	#$af
    1dd2: 18           	clc
    1dd3: 65 97        	adc	$97                     ; 0x2097 <launchBeat+0x112>
    1dd5: 85 14        	sta	$14                     ; 0x2014 <launchBeat+0x8f>
    1dd7: a9 42        	lda	#$42
    1dd9: 65 12        	adc	$12                     ; 0x2012 <launchBeat+0x8d>
    1ddb: a6 14        	ldx	$14                     ; 0x2014 <launchBeat+0x8f>
    1ddd: 86 12        	stx	$12                     ; 0x2012 <launchBeat+0x8d>
    1ddf: 85 13        	sta	$13                     ; 0x2013 <launchBeat+0x8e>
    1de1: b2 12        	lda	($12)                   ; 0x2012 <launchBeat+0x8d>
    1de3: 64 16        	stz	$16                     ; 0x2016 <launchBeat+0x91>
    1de5: be 22 44     	ldx	$4422,y                 ; 0x4422 <psgHigh+0x35>
    1de8: 85 12        	sta	$12                     ; 0x2012 <launchBeat+0x8d>
    1dea: 85 14        	sta	$14                     ; 0x2014 <launchBeat+0x8f>
    1dec: a5 9c        	lda	$9c                     ; 0x209c <launchBeat+0x117>
    1dee: 85 19        	sta	$19                     ; 0x2019 <launchBeat+0x94>
    1df0: 85 13        	sta	$13                     ; 0x2013 <launchBeat+0x8e>
    1df2: 8a           	txa
    1df3: 92 12        	sta	($12)                   ; 0x2012 <launchBeat+0x8d>
    1df5: be f9 42     	ldx	$42f9,y                 ; 0x42f9 <sidChoiceToVoice+0x4a>
    1df8: 86 18        	stx	$18                     ; 0x2018 <launchBeat+0x93>
    1dfa: a6 14        	ldx	$14                     ; 0x2014 <launchBeat+0x8f>
    1dfc: a4 19        	ldy	$19                     ; 0x2019 <launchBeat+0x94>
    1dfe: e8           	inx
    1dff: d0 01        	bne	$1e02 <dispatchNote+0x233>
    1e01: c8           	iny
    1e02: 86 12        	stx	$12                     ; 0x2012 <launchBeat+0x8d>
    1e04: 84 13        	sty	$13                     ; 0x2013 <launchBeat+0x8e>
    1e06: a5 18        	lda	$18                     ; 0x2018 <launchBeat+0x93>
    1e08: 92 12        	sta	($12)                   ; 0x2012 <launchBeat+0x8d>
    1e0a: 18           	clc
    1e0b: a5 14        	lda	$14                     ; 0x2014 <launchBeat+0x8f>
    1e0d: 69 04        	adc	#$4
    1e0f: 85 12        	sta	$12                     ; 0x2012 <launchBeat+0x8d>
    1e11: a5 19        	lda	$19                     ; 0x2019 <launchBeat+0x94>
    1e13: 69 00        	adc	#$0
    1e15: 85 13        	sta	$13                     ; 0x2013 <launchBeat+0x8e>
    1e17: a5 15        	lda	$15                     ; 0x2015 <launchBeat+0x90>
    1e19: 0a           	asl
    1e1a: 26 16        	rol	$16                     ; 0x2016 <launchBeat+0x91>
    1e1c: 0a           	asl
    1e1d: 26 16        	rol	$16                     ; 0x2016 <launchBeat+0x91>
    1e1f: 0a           	asl
    1e20: 26 16        	rol	$16                     ; 0x2016 <launchBeat+0x91>
    1e22: 18           	clc
    1e23: 65 15        	adc	$15                     ; 0x2015 <launchBeat+0x90>
    1e25: 85 14        	sta	$14                     ; 0x2014 <launchBeat+0x8f>
    1e27: a5 16        	lda	$16                     ; 0x2016 <launchBeat+0x91>
    1e29: 69 00        	adc	#$0
    1e2b: 85 15        	sta	$15                     ; 0x2015 <launchBeat+0x90>
    1e2d: a9 7b        	lda	#$7b
    1e2f: 18           	clc
    1e30: 65 14        	adc	$14                     ; 0x2014 <launchBeat+0x8f>
    1e32: 85 14        	sta	$14                     ; 0x2014 <launchBeat+0x8f>
    1e34: a9 45        	lda	#$45
    1e36: 65 15        	adc	$15                     ; 0x2015 <launchBeat+0x90>
    1e38: 85 15        	sta	$15                     ; 0x2015 <launchBeat+0x90>
    1e3a: a0 05        	ldy	#$5
    1e3c: a9 01        	lda	#$1
    1e3e: 11 14        	ora	($14),y                 ; 0x2014 <launchBeat+0x8f>
    1e40: 92 12        	sta	($12)                   ; 0x2012 <launchBeat+0x8d>
    1e42: e6 3d        	inc	$3d                     ; 0x203d <launchBeat+0xb8>
    1e44: 60           	rts
    1e45: 64 12        	stz	$12                     ; 0x2012 <launchBeat+0x8d>
    1e47: a9 a9        	lda	#$a9
    1e49: 18           	clc
    1e4a: a6 97        	ldx	$97                     ; 0x2097 <launchBeat+0x112>
    1e4c: 86 14        	stx	$14                     ; 0x2014 <launchBeat+0x8f>
    1e4e: 65 14        	adc	$14                     ; 0x2014 <launchBeat+0x8f>
    1e50: 85 14        	sta	$14                     ; 0x2014 <launchBeat+0x8f>
    1e52: a9 42        	lda	#$42
    1e54: 65 12        	adc	$12                     ; 0x2012 <launchBeat+0x8d>
    1e56: 85 15        	sta	$15                     ; 0x2015 <launchBeat+0x90>
    1e58: b2 14        	lda	($14)                   ; 0x2014 <launchBeat+0x8f>
    1e5a: 85 18        	sta	$18                     ; 0x2018 <launchBeat+0x93>
    1e5c: 85 17        	sta	$17                     ; 0x2017 <launchBeat+0x92>
    1e5e: a5 97        	lda	$97                     ; 0x2097 <launchBeat+0x112>
    1e60: 38           	sec
    1e61: e9 03        	sbc	#$3
    1e63: 85 19        	sta	$19                     ; 0x2019 <launchBeat+0x94>
    1e65: 50 04        	bvc	$1e6b <dispatchNote+0x29c>
    1e67: 49 80        	eor	#$80
    1e69: 85 19        	sta	$19                     ; 0x2019 <launchBeat+0x94>
    1e6b: a2 10        	ldx	#$10
    1e6d: 86 14        	stx	$14                     ; 0x2014 <launchBeat+0x8f>
    1e6f: a2 d6        	ldx	#$d6
    1e71: 86 15        	stx	$15                     ; 0x2015 <launchBeat+0x90>
    1e73: be 80 43     	ldx	$4380,y                 ; 0x4380 <sidHigh+0x7c>
    1e76: 86 1a        	stx	$1a                     ; 0x201a <launchBeat+0x95>
    1e78: a5 13        	lda	$13                     ; 0x2013 <launchBeat+0x8e>
    1e7a: 4a           	lsr
    1e7b: 4a           	lsr
    1e7c: 4a           	lsr
    1e7d: 49 0f        	eor	#$f
    1e7f: 85 16        	sta	$16                     ; 0x2016 <launchBeat+0x91>
    1e81: be c0 43     	ldx	$43c0,y                 ; 0x43c0 <psgLow+0x13>
    1e84: 86 13        	stx	$13                     ; 0x2013 <launchBeat+0x8e>
    1e86: a5 18        	lda	$18                     ; 0x2018 <launchBeat+0x93>
    1e88: 05 16        	ora	$16                     ; 0x2016 <launchBeat+0x91>
    1e8a: 09 90        	ora	#$90
    1e8c: a6 19        	ldx	$19                     ; 0x2019 <launchBeat+0x94>
    1e8e: 10 08        	bpl	$1e98 <dispatchNote+0x2c9>
    1e90: a2 00        	ldx	#$0
    1e92: 86 14        	stx	$14                     ; 0x2014 <launchBeat+0x8f>
    1e94: a2 d6        	ldx	#$d6
    1e96: 86 15        	stx	$15                     ; 0x2015 <launchBeat+0x90>
    1e98: 92 14        	sta	($14)                   ; 0x2014 <launchBeat+0x8f>
    1e9a: a5 1a        	lda	$1a                     ; 0x201a <launchBeat+0x95>
    1e9c: 05 17        	ora	$17                     ; 0x2017 <launchBeat+0x92>
    1e9e: 92 14        	sta	($14)                   ; 0x2014 <launchBeat+0x8f>
    1ea0: a5 13        	lda	$13                     ; 0x2013 <launchBeat+0x8e>
    1ea2: 92 14        	sta	($14)                   ; 0x2014 <launchBeat+0x8f>
    1ea4: a9 40        	lda	#$40
    1ea6: 18           	clc
    1ea7: 65 97        	adc	$97                     ; 0x2097 <launchBeat+0x112>
    1ea9: aa           	tax
    1eaa: a9 00        	lda	#$0
    1eac: 65 12        	adc	$12                     ; 0x2012 <launchBeat+0x8d>
    1eae: 86 12        	stx	$12                     ; 0x2012 <launchBeat+0x8d>
    1eb0: 85 13        	sta	$13                     ; 0x2013 <launchBeat+0x8e>
    1eb2: 98           	tya
    1eb3: 92 12        	sta	($12)                   ; 0x2012 <launchBeat+0x8d>
    1eb5: e6 3e        	inc	$3e                     ; 0x203e <launchBeat+0xb9>
    1eb7: 60           	rts
    1eb8: 64 12        	stz	$12                     ; 0x2012 <launchBeat+0x8d>
    1eba: 74 40        	stz	$40,x                   ; 0x2040 <launchBeat+0xbb>
    1ebc: bd a9 42     	lda	$42a9,x                 ; 0x42a9 <polyPSGChanBits>
    1ebf: e0 03        	cpx	#$3
    1ec1: 90 04        	bcc	$1ec7 <dispatchNote+0x2f8>
    1ec3: a2 10        	ldx	#$10
    1ec5: 86 12        	stx	$12                     ; 0x2012 <launchBeat+0x8d>
    1ec7: a2 d6        	ldx	#$d6
    1ec9: 86 13        	stx	$13                     ; 0x2013 <launchBeat+0x8e>
    1ecb: 09 9f        	ora	#$9f
    1ecd: 92 12        	sta	($12)                   ; 0x2012 <launchBeat+0x8d>
    1ecf: a6 3e        	ldx	$3e                     ; 0x203e <launchBeat+0xb9>
    1ed1: f0 1e        	beq	$1ef1 <dispatchNote+0x322>
    1ed3: ca           	dex
    1ed4: 86 3e        	stx	$3e                     ; 0x203e <launchBeat+0xb9>
    1ed6: 60           	rts
    1ed7: 64 13        	stz	$13                     ; 0x2013 <launchBeat+0x8e>
    1ed9: a9 52        	lda	#$52
    1edb: 18           	clc
    1edc: 65 12        	adc	$12                     ; 0x2012 <launchBeat+0x8d>
    1ede: 85 12        	sta	$12                     ; 0x2012 <launchBeat+0x8d>
    1ee0: a9 00        	lda	#$0
    1ee2: 65 13        	adc	$13                     ; 0x2013 <launchBeat+0x8e>
    1ee4: 85 13        	sta	$13                     ; 0x2013 <launchBeat+0x8e>
    1ee6: a9 00        	lda	#$0
    1ee8: 92 12        	sta	($12)                   ; 0x2012 <launchBeat+0x8d>
    1eea: a6 3f        	ldx	$3f                     ; 0x203f <launchBeat+0xba>
    1eec: f0 03        	beq	$1ef1 <dispatchNote+0x322>
    1eee: ca           	dex
    1eef: 86 3f        	stx	$3f                     ; 0x203f <launchBeat+0xba>
    1ef1: 60           	rts
    1ef2: 64 12        	stz	$12                     ; 0x2012 <launchBeat+0x8d>
    1ef4: a5 97        	lda	$97                     ; 0x2097 <launchBeat+0x112>
    1ef6: 38           	sec
    1ef7: e9 03        	sbc	#$3
    1ef9: 50 02        	bvc	$1efd <dispatchNote+0x32e>
    1efb: 49 80        	eor	#$80
    1efd: a2 d4        	ldx	#$d4
    1eff: 86 9c        	stx	$9c                     ; 0x209c <launchBeat+0x117>
    1f01: aa           	tax
    1f02: 30 04        	bmi	$1f08 <dispatchNote+0x339>
    1f04: a2 d5        	ldx	#$d5
    1f06: 86 9c        	stx	$9c                     ; 0x209c <launchBeat+0x117>
    1f08: a9 af        	lda	#$af
    1f0a: 18           	clc
    1f0b: 65 97        	adc	$97                     ; 0x2097 <launchBeat+0x112>
    1f0d: 85 14        	sta	$14                     ; 0x2014 <launchBeat+0x8f>
    1f0f: a9 42        	lda	#$42
    1f11: 65 12        	adc	$12                     ; 0x2012 <launchBeat+0x8d>
    1f13: a6 14        	ldx	$14                     ; 0x2014 <launchBeat+0x8f>
    1f15: 86 12        	stx	$12                     ; 0x2012 <launchBeat+0x8d>
    1f17: 85 13        	sta	$13                     ; 0x2013 <launchBeat+0x8e>
    1f19: b2 12        	lda	($12)                   ; 0x2012 <launchBeat+0x8d>
    1f1b: 64 16        	stz	$16                     ; 0x2016 <launchBeat+0x91>
    1f1d: be 22 44     	ldx	$4422,y                 ; 0x4422 <psgHigh+0x35>
    1f20: 85 12        	sta	$12                     ; 0x2012 <launchBeat+0x8d>
    1f22: 85 14        	sta	$14                     ; 0x2014 <launchBeat+0x8f>
    1f24: a5 9c        	lda	$9c                     ; 0x209c <launchBeat+0x117>
    1f26: 85 19        	sta	$19                     ; 0x2019 <launchBeat+0x94>
    1f28: 85 13        	sta	$13                     ; 0x2013 <launchBeat+0x8e>
    1f2a: 8a           	txa
    1f2b: 92 12        	sta	($12)                   ; 0x2012 <launchBeat+0x8d>
    1f2d: be f9 42     	ldx	$42f9,y                 ; 0x42f9 <sidChoiceToVoice+0x4a>
    1f30: 86 18        	stx	$18                     ; 0x2018 <launchBeat+0x93>
    1f32: a6 14        	ldx	$14                     ; 0x2014 <launchBeat+0x8f>
    1f34: a4 19        	ldy	$19                     ; 0x2019 <launchBeat+0x94>
    1f36: e8           	inx
    1f37: d0 01        	bne	$1f3a <dispatchNote+0x36b>
    1f39: c8           	iny
    1f3a: 86 12        	stx	$12                     ; 0x2012 <launchBeat+0x8d>
    1f3c: 84 13        	sty	$13                     ; 0x2013 <launchBeat+0x8e>
    1f3e: a5 18        	lda	$18                     ; 0x2018 <launchBeat+0x93>
    1f40: 92 12        	sta	($12)                   ; 0x2012 <launchBeat+0x8d>
    1f42: 18           	clc
    1f43: a5 14        	lda	$14                     ; 0x2014 <launchBeat+0x8f>
    1f45: 69 04        	adc	#$4
    1f47: 85 12        	sta	$12                     ; 0x2012 <launchBeat+0x8d>
    1f49: a5 19        	lda	$19                     ; 0x2019 <launchBeat+0x94>
    1f4b: 69 00        	adc	#$0
    1f4d: 85 13        	sta	$13                     ; 0x2013 <launchBeat+0x8e>
    1f4f: a5 15        	lda	$15                     ; 0x2015 <launchBeat+0x90>
    1f51: 0a           	asl
    1f52: 26 16        	rol	$16                     ; 0x2016 <launchBeat+0x91>
    1f54: 0a           	asl
    1f55: 26 16        	rol	$16                     ; 0x2016 <launchBeat+0x91>
    1f57: 0a           	asl
    1f58: 26 16        	rol	$16                     ; 0x2016 <launchBeat+0x91>
    1f5a: 18           	clc
    1f5b: 65 15        	adc	$15                     ; 0x2015 <launchBeat+0x90>
    1f5d: 85 14        	sta	$14                     ; 0x2014 <launchBeat+0x8f>
    1f5f: a5 16        	lda	$16                     ; 0x2016 <launchBeat+0x91>
    1f61: 69 00        	adc	#$0
    1f63: 85 15        	sta	$15                     ; 0x2015 <launchBeat+0x90>
    1f65: a9 7b        	lda	#$7b
    1f67: 18           	clc
    1f68: 65 14        	adc	$14                     ; 0x2014 <launchBeat+0x8f>
    1f6a: 85 14        	sta	$14                     ; 0x2014 <launchBeat+0x8f>
    1f6c: a9 45        	lda	#$45
    1f6e: 65 15        	adc	$15                     ; 0x2015 <launchBeat+0x90>
    1f70: 85 15        	sta	$15                     ; 0x2015 <launchBeat+0x90>
    1f72: a0 05        	ldy	#$5
    1f74: a9 fe        	lda	#$fe
    1f76: 31 14        	and	($14),y                 ; 0x2014 <launchBeat+0x8f>
    1f78: 92 12        	sta	($12)                   ; 0x2012 <launchBeat+0x8d>
    1f7a: a6 3d        	ldx	$3d                     ; 0x203d <launchBeat+0xb8>
    1f7c: d0 03        	bne	$1f81 <dispatchNote+0x3b2>
    1f7e: 4c f1 1e     	jmp	$1ef1 <dispatchNote+0x322>
    1f81: ca           	dex
    1f82: 86 3d        	stx	$3d                     ; 0x203d <launchBeat+0xb8>
    1f84: 60           	rts

00001f85 <launchBeat>:
    1f85: 18           	clc
    1f86: a5 10        	lda	$10                     ; 0x2010 <launchBeat+0x8b>
    1f88: 69 f4        	adc	#$f4
    1f8a: 85 10        	sta	$10                     ; 0x2010 <launchBeat+0x8b>
    1f8c: a5 11        	lda	$11                     ; 0x2011 <launchBeat+0x8c>
    1f8e: 69 ff        	adc	#$ff
    1f90: 85 11        	sta	$11                     ; 0x2011 <launchBeat+0x8c>
    1f92: a6 24        	ldx	$24                     ; 0x2024 <launchBeat+0x9f>
    1f94: da           	phx
    1f95: a6 25        	ldx	$25                     ; 0x2025 <launchBeat+0xa0>
    1f97: da           	phx
    1f98: a6 26        	ldx	$26                     ; 0x2026 <launchBeat+0xa1>
    1f9a: da           	phx
    1f9b: a6 27        	ldx	$27                     ; 0x2027 <launchBeat+0xa2>
    1f9d: da           	phx
    1f9e: a5 28        	lda	$28                     ; 0x2028 <launchBeat+0xa3>
    1fa0: a0 07        	ldy	#$7
    1fa2: 91 10        	sta	($10),y                 ; 0x2010 <launchBeat+0x8b>
    1fa4: a5 29        	lda	$29                     ; 0x2029 <launchBeat+0xa4>
    1fa6: 88           	dey
    1fa7: 91 10        	sta	($10),y                 ; 0x2010 <launchBeat+0x8b>
    1fa9: a5 2a        	lda	$2a                     ; 0x202a <launchBeat+0xa5>
    1fab: 88           	dey
    1fac: 91 10        	sta	($10),y                 ; 0x2010 <launchBeat+0x8b>
    1fae: a5 2b        	lda	$2b                     ; 0x202b <launchBeat+0xa6>
    1fb0: 88           	dey
    1fb1: 91 10        	sta	($10),y                 ; 0x2010 <launchBeat+0x8b>
    1fb3: a5 2c        	lda	$2c                     ; 0x202c <launchBeat+0xa7>
    1fb5: 88           	dey
    1fb6: 91 10        	sta	($10),y                 ; 0x2010 <launchBeat+0x8b>
    1fb8: a5 2d        	lda	$2d                     ; 0x202d <launchBeat+0xa8>
    1fba: 88           	dey
    1fbb: 91 10        	sta	($10),y                 ; 0x2010 <launchBeat+0x8b>
    1fbd: a5 2e        	lda	$2e                     ; 0x202e <launchBeat+0xa9>
    1fbf: 88           	dey
    1fc0: 91 10        	sta	($10),y                 ; 0x2010 <launchBeat+0x8b>
    1fc2: a5 2f        	lda	$2f                     ; 0x202f <launchBeat+0xaa>
    1fc4: 88           	dey
    1fc5: 91 10        	sta	($10),y                 ; 0x2010 <launchBeat+0x8b>
    1fc7: 18           	clc
    1fc8: a5 10        	lda	$10                     ; 0x2010 <launchBeat+0x8b>
    1fca: 69 09        	adc	#$9
    1fcc: 85 26        	sta	$26                     ; 0x2026 <launchBeat+0xa1>
    1fce: a5 11        	lda	$11                     ; 0x2011 <launchBeat+0x8c>
    1fd0: 69 00        	adc	#$0
    1fd2: 85 27        	sta	$27                     ; 0x2027 <launchBeat+0xa2>
    1fd4: 98           	tya
    1fd5: 92 26        	sta	($26)                   ; 0x2026 <launchBeat+0xa1>
    1fd7: 18           	clc
    1fd8: 48           	pha
    1fd9: a5 10        	lda	$10                     ; 0x2010 <launchBeat+0x8b>
    1fdb: 69 08        	adc	#$8
    1fdd: 85 28        	sta	$28                     ; 0x2028 <launchBeat+0xa3>
    1fdf: a5 11        	lda	$11                     ; 0x2011 <launchBeat+0x8c>
    1fe1: 69 00        	adc	#$0
    1fe3: 85 29        	sta	$29                     ; 0x2029 <launchBeat+0xa4>
    1fe5: 68           	pla
    1fe6: 92 28        	sta	($28)                   ; 0x2028 <launchBeat+0xa3>
    1fe8: 64 2a        	stz	$2a                     ; 0x202a <launchBeat+0xa5>
    1fea: a9 04        	lda	#$4
    1fec: a2 00        	ldx	#$0
    1fee: 20 f0 3d     	jsr	$3df0 <malloc>
    1ff1: a6 12        	ldx	$12                     ; 0x2012 <launchBeat+0x8d>
    1ff3: 86 24        	stx	$24                     ; 0x2024 <launchBeat+0x9f>
    1ff5: a6 13        	ldx	$13                     ; 0x2013 <launchBeat+0x8e>
    1ff7: 86 25        	stx	$25                     ; 0x2025 <launchBeat+0xa0>
    1ff9: a4 66        	ldy	$66                     ; 0x2066 <launchBeat+0xe1>
    1ffb: a6 67        	ldx	$67                     ; 0x2067 <launchBeat+0xe2>
    1ffd: 86 16        	stx	$16                     ; 0x2016 <launchBeat+0x91>
    1fff: a6 65        	ldx	$65                     ; 0x2065 <launchBeat+0xe0>
    2001: 86 2c        	stx	$2c                     ; 0x202c <launchBeat+0xa7>
    2003: 8a           	txa
    2004: 0a           	asl
    2005: 26 2a        	rol	$2a                     ; 0x202a <launchBeat+0xa5>
    2007: 0a           	asl
    2008: 26 2a        	rol	$2a                     ; 0x202a <launchBeat+0xa5>
    200a: 0a           	asl
    200b: 26 2a        	rol	$2a                     ; 0x202a <launchBeat+0xa5>
    200d: 0a           	asl
    200e: 26 2a        	rol	$2a                     ; 0x202a <launchBeat+0xa5>
    2010: 38           	sec
    2011: 85 14        	sta	$14                     ; 0x2014 <launchBeat+0x8f>
    2013: e5 2c        	sbc	$2c                     ; 0x202c <launchBeat+0xa7>
    2015: 85 12        	sta	$12                     ; 0x2012 <launchBeat+0x8d>
    2017: a6 2a        	ldx	$2a                     ; 0x202a <launchBeat+0xa5>
    2019: 86 15        	stx	$15                     ; 0x2015 <launchBeat+0x90>
    201b: a5 2a        	lda	$2a                     ; 0x202a <launchBeat+0xa5>
    201d: e9 00        	sbc	#$0
    201f: 85 13        	sta	$13                     ; 0x2013 <launchBeat+0x8e>
    2021: 98           	tya
    2022: 18           	clc
    2023: 65 12        	adc	$12                     ; 0x2012 <launchBeat+0x8d>
    2025: 85 2a        	sta	$2a                     ; 0x202a <launchBeat+0xa5>
    2027: a6 16        	ldx	$16                     ; 0x2016 <launchBeat+0x91>
    2029: a5 16        	lda	$16                     ; 0x2016 <launchBeat+0x91>
    202b: 65 13        	adc	$13                     ; 0x2013 <launchBeat+0x8e>
    202d: 84 12        	sty	$12                     ; 0x2012 <launchBeat+0x8d>
    202f: 86 17        	stx	$17                     ; 0x2017 <launchBeat+0x92>
    2031: 86 13        	stx	$13                     ; 0x2013 <launchBeat+0x8e>
    2033: 85 2b        	sta	$2b                     ; 0x202b <launchBeat+0xa6>
    2035: b2 2a        	lda	($2a)                   ; 0x202a <launchBeat+0xa5>
    2037: f0 06        	beq	$203f <launchBeat+0xba>
    2039: a2 01        	ldx	#$1
    203b: 86 64        	stx	$64                     ; 0x2064 <launchBeat+0xdf>
    203d: 80 09        	bra	$2048 <launchBeat+0xc3>
    203f: a5 64        	lda	$64                     ; 0x2064 <launchBeat+0xdf>
    2041: 29 01        	and	#$1
    2043: d0 03        	bne	$2048 <launchBeat+0xc3>
    2045: 4c 2a 21     	jmp	$212a <launchBeat+0x1a5>
    2048: 38           	sec
    2049: a5 14        	lda	$14                     ; 0x2014 <launchBeat+0x8f>
    204b: e5 2c        	sbc	$2c                     ; 0x202c <launchBeat+0xa7>
    204d: 85 14        	sta	$14                     ; 0x2014 <launchBeat+0x8f>
    204f: a5 15        	lda	$15                     ; 0x2015 <launchBeat+0x90>
    2051: e9 00        	sbc	#$0
    2053: 18           	clc
    2054: 85 15        	sta	$15                     ; 0x2015 <launchBeat+0x90>
    2056: 98           	tya
    2057: 65 14        	adc	$14                     ; 0x2014 <launchBeat+0x8f>
    2059: 85 14        	sta	$14                     ; 0x2014 <launchBeat+0x8f>
    205b: a5 17        	lda	$17                     ; 0x2017 <launchBeat+0x92>
    205d: 65 15        	adc	$15                     ; 0x2015 <launchBeat+0x90>
    205f: 85 15        	sta	$15                     ; 0x2015 <launchBeat+0x90>
    2061: a0 04        	ldy	#$4
    2063: b1 14        	lda	($14),y                 ; 0x2014 <launchBeat+0x8f>
    2065: d0 03        	bne	$206a <launchBeat+0xe5>
    2067: 4c 5c 24     	jmp	$245c <launchBeat+0x4d7>
    206a: a9 00        	lda	#$0
    206c: 4c d3 20     	jmp	$20d3 <launchBeat+0x14e>
    206f: a2 00        	ldx	#$0
    2071: b4 46        	ldy	$46,x                   ; 0x2046 <launchBeat+0xc1>
    2073: c0 01        	cpy	#$1
    2075: d0 02        	bne	$2079 <launchBeat+0xf4>
    2077: 74 46        	stz	$46,x                   ; 0x2046 <launchBeat+0xc1>
    2079: e8           	inx
    207a: e0 06        	cpx	#$6
    207c: d0 f3        	bne	$2071 <launchBeat+0xec>
    207e: c9 03        	cmp	#$3
    2080: d0 0f        	bne	$2091 <launchBeat+0x10c>
    2082: a2 00        	ldx	#$0
    2084: b4 5b        	ldy	$5b,x                   ; 0x205b <launchBeat+0xd6>
    2086: c0 01        	cpy	#$1
    2088: d0 02        	bne	$208c <launchBeat+0x107>
    208a: 74 5b        	stz	$5b,x                   ; 0x205b <launchBeat+0xd6>
    208c: e8           	inx
    208d: e0 09        	cpx	#$9
    208f: d0 f3        	bne	$2084 <launchBeat+0xff>
    2091: e6 2a        	inc	$2a                     ; 0x202a <launchBeat+0xa5>
    2093: a6 66        	ldx	$66                     ; 0x2066 <launchBeat+0xe1>
    2095: a4 67        	ldy	$67                     ; 0x2067 <launchBeat+0xe2>
    2097: 86 12        	stx	$12                     ; 0x2012 <launchBeat+0x8d>
    2099: 84 13        	sty	$13                     ; 0x2013 <launchBeat+0x8e>
    209b: a6 65        	ldx	$65                     ; 0x2065 <launchBeat+0xe0>
    209d: 86 2c        	stx	$2c                     ; 0x202c <launchBeat+0xa7>
    209f: 8a           	txa
    20a0: 0a           	asl
    20a1: aa           	tax
    20a2: a9 00        	lda	#$0
    20a4: 2a           	rol
    20a5: 86 14        	stx	$14                     ; 0x2014 <launchBeat+0x8f>
    20a7: 06 14        	asl	$14                     ; 0x2014 <launchBeat+0x8f>
    20a9: 2a           	rol
    20aa: 06 14        	asl	$14                     ; 0x2014 <launchBeat+0x8f>
    20ac: 2a           	rol
    20ad: 06 14        	asl	$14                     ; 0x2014 <launchBeat+0x8f>
    20af: 2a           	rol
    20b0: aa           	tax
    20b1: 38           	sec
    20b2: a5 14        	lda	$14                     ; 0x2014 <launchBeat+0x8f>
    20b4: e5 2c        	sbc	$2c                     ; 0x202c <launchBeat+0xa7>
    20b6: 85 14        	sta	$14                     ; 0x2014 <launchBeat+0x8f>
    20b8: 8a           	txa
    20b9: e9 00        	sbc	#$0
    20bb: aa           	tax
    20bc: 18           	clc
    20bd: a5 14        	lda	$14                     ; 0x2014 <launchBeat+0x8f>
    20bf: 65 66        	adc	$66                     ; 0x2066 <launchBeat+0xe1>
    20c1: 85 14        	sta	$14                     ; 0x2014 <launchBeat+0x8f>
    20c3: 8a           	txa
    20c4: 65 67        	adc	$67                     ; 0x2067 <launchBeat+0xe2>
    20c6: 85 15        	sta	$15                     ; 0x2015 <launchBeat+0x90>
    20c8: a5 2a        	lda	$2a                     ; 0x202a <launchBeat+0xa5>
    20ca: a0 04        	ldy	#$4
    20cc: d1 14        	cmp	($14),y                 ; 0x2014 <launchBeat+0x8f>
    20ce: 90 03        	bcc	$20d3 <launchBeat+0x14e>
    20d0: 4c 5c 24     	jmp	$245c <launchBeat+0x4d7>
    20d3: a6 26        	ldx	$26                     ; 0x2026 <launchBeat+0xa1>
    20d5: 86 14        	stx	$14                     ; 0x2014 <launchBeat+0x8f>
    20d7: a6 27        	ldx	$27                     ; 0x2027 <launchBeat+0xa2>
    20d9: 86 15        	stx	$15                     ; 0x2015 <launchBeat+0x90>
    20db: a6 28        	ldx	$28                     ; 0x2028 <launchBeat+0xa3>
    20dd: 86 16        	stx	$16                     ; 0x2016 <launchBeat+0x91>
    20df: a6 29        	ldx	$29                     ; 0x2029 <launchBeat+0xa4>
    20e1: 86 17        	stx	$17                     ; 0x2017 <launchBeat+0x92>
    20e3: a6 24        	ldx	$24                     ; 0x2024 <launchBeat+0x9f>
    20e5: 86 18        	stx	$18                     ; 0x2018 <launchBeat+0x93>
    20e7: a6 25        	ldx	$25                     ; 0x2025 <launchBeat+0xa0>
    20e9: 86 19        	stx	$19                     ; 0x2019 <launchBeat+0x94>
    20eb: 85 2a        	sta	$2a                     ; 0x202a <launchBeat+0xa5>
    20ed: aa           	tax
    20ee: a5 2c        	lda	$2c                     ; 0x202c <launchBeat+0xa7>
    20f0: 20 99 29     	jsr	$2999 <getBeatTrackNoteInfo>
    20f3: b2 24        	lda	($24)                   ; 0x2024 <launchBeat+0x9f>
    20f5: c9 03        	cmp	#$3
    20f7: d0 03        	bne	$20fc <launchBeat+0x177>
    20f9: 4c 82 20     	jmp	$2082 <launchBeat+0xfd>
    20fc: c9 02        	cmp	#$2
    20fe: d0 03        	bne	$2103 <launchBeat+0x17e>
    2100: 4c 6f 20     	jmp	$206f <launchBeat+0xea>
    2103: c9 01        	cmp	#$1
    2105: f0 03        	beq	$210a <launchBeat+0x185>
    2107: 4c 91 20     	jmp	$2091 <launchBeat+0x10c>
    210a: a2 00        	ldx	#$0
    210c: b4 4c        	ldy	$4c,x                   ; 0x204c <launchBeat+0xc7>
    210e: c0 01        	cpy	#$1
    2110: d0 02        	bne	$2114 <launchBeat+0x18f>
    2112: 74 4c        	stz	$4c,x                   ; 0x204c <launchBeat+0xc7>
    2114: e8           	inx
    2115: e0 06        	cpx	#$6
    2117: d0 f3        	bne	$210c <launchBeat+0x187>
    2119: c9 03        	cmp	#$3
    211b: d0 03        	bne	$2120 <launchBeat+0x19b>
    211d: 4c 82 20     	jmp	$2082 <launchBeat+0xfd>
    2120: c9 02        	cmp	#$2
    2122: d0 03        	bne	$2127 <launchBeat+0x1a2>
    2124: 4c 6f 20     	jmp	$206f <launchBeat+0xea>
    2127: 4c 91 20     	jmp	$2091 <launchBeat+0x10c>
    212a: a9 01        	lda	#$1
    212c: 92 2a        	sta	($2a)                   ; 0x202a <launchBeat+0xa5>
    212e: a6 12        	ldx	$12                     ; 0x2012 <launchBeat+0x8d>
    2130: 86 2e        	stx	$2e                     ; 0x202e <launchBeat+0xa9>
    2132: a6 13        	ldx	$13                     ; 0x2013 <launchBeat+0x8e>
    2134: 86 2f        	stx	$2f                     ; 0x202f <launchBeat+0xaa>
    2136: 20 eb 25     	jsr	$25eb <prepTempoLUT>
    2139: a0 04        	ldy	#$4
    213b: b1 2a        	lda	($2a),y                 ; 0x202a <launchBeat+0xa5>
    213d: d0 03        	bne	$2142 <launchBeat+0x1bd>
    213f: 4c 5c 24     	jmp	$245c <launchBeat+0x4d7>
    2142: a6 2e        	ldx	$2e                     ; 0x202e <launchBeat+0xa9>
    2144: 86 12        	stx	$12                     ; 0x2012 <launchBeat+0x8d>
    2146: a6 2f        	ldx	$2f                     ; 0x202f <launchBeat+0xaa>
    2148: 86 13        	stx	$13                     ; 0x2013 <launchBeat+0x8e>
    214a: a0 02        	ldy	#$2
    214c: a2 00        	ldx	#$0
    214e: 64 2e        	stz	$2e                     ; 0x202e <launchBeat+0xa9>
    2150: 4c d5 23     	jmp	$23d5 <launchBeat+0x450>
    2153: a0 01        	ldy	#$1
    2155: b1 24        	lda	($24),y                 ; 0x2024 <launchBeat+0x9f>
    2157: 85 2b        	sta	$2b                     ; 0x202b <launchBeat+0xa6>
    2159: a2 03        	ldx	#$3
    215b: 20 3d 40     	jsr	$403d <__udivqi3>
    215e: 85 14        	sta	$14                     ; 0x2014 <launchBeat+0x8f>
    2160: 0a           	asl
    2161: 18           	clc
    2162: 65 14        	adc	$14                     ; 0x2014 <launchBeat+0x8f>
    2164: 85 12        	sta	$12                     ; 0x2012 <launchBeat+0x8d>
    2166: 38           	sec
    2167: a5 2b        	lda	$2b                     ; 0x202b <launchBeat+0xa6>
    2169: e5 12        	sbc	$12                     ; 0x2012 <launchBeat+0x8d>
    216b: aa           	tax
    216c: a0 02        	ldy	#$2
    216e: b1 24        	lda	($24),y                 ; 0x2024 <launchBeat+0x9f>
    2170: 85 12        	sta	$12                     ; 0x2012 <launchBeat+0x8d>
    2172: 0a           	asl
    2173: 64 13        	stz	$13                     ; 0x2013 <launchBeat+0x8e>
    2175: 26 13        	rol	$13                     ; 0x2013 <launchBeat+0x8e>
    2177: 0a           	asl
    2178: 26 13        	rol	$13                     ; 0x2013 <launchBeat+0x8e>
    217a: 0a           	asl
    217b: 26 13        	rol	$13                     ; 0x2013 <launchBeat+0x8e>
    217d: 18           	clc
    217e: 65 12        	adc	$12                     ; 0x2012 <launchBeat+0x8d>
    2180: 85 12        	sta	$12                     ; 0x2012 <launchBeat+0x8d>
    2182: a5 13        	lda	$13                     ; 0x2013 <launchBeat+0x8e>
    2184: 69 00        	adc	#$0
    2186: 85 13        	sta	$13                     ; 0x2013 <launchBeat+0x8e>
    2188: a9 7b        	lda	#$7b
    218a: 18           	clc
    218b: 65 12        	adc	$12                     ; 0x2012 <launchBeat+0x8d>
    218d: 85 12        	sta	$12                     ; 0x2012 <launchBeat+0x8d>
    218f: a9 45        	lda	#$45
    2191: 65 13        	adc	$13                     ; 0x2013 <launchBeat+0x8e>
    2193: 85 13        	sta	$13                     ; 0x2013 <launchBeat+0x8e>
    2195: a5 14        	lda	$14                     ; 0x2014 <launchBeat+0x8f>
    2197: 20 49 27     	jsr	$2749 <sid_setInstrument>
    219a: a0 02        	ldy	#$2
    219c: b1 24        	lda	($24),y                 ; 0x2024 <launchBeat+0x9f>
    219e: 88           	dey
    219f: 85 12        	sta	$12                     ; 0x2012 <launchBeat+0x8d>
    21a1: 0a           	asl
    21a2: 64 13        	stz	$13                     ; 0x2013 <launchBeat+0x8e>
    21a4: 26 13        	rol	$13                     ; 0x2013 <launchBeat+0x8e>
    21a6: 0a           	asl
    21a7: 26 13        	rol	$13                     ; 0x2013 <launchBeat+0x8e>
    21a9: 0a           	asl
    21aa: 26 13        	rol	$13                     ; 0x2013 <launchBeat+0x8e>
    21ac: 18           	clc
    21ad: 65 12        	adc	$12                     ; 0x2012 <launchBeat+0x8d>
    21af: 85 12        	sta	$12                     ; 0x2012 <launchBeat+0x8d>
    21b1: a5 13        	lda	$13                     ; 0x2013 <launchBeat+0x8e>
    21b3: 69 00        	adc	#$0
    21b5: 85 13        	sta	$13                     ; 0x2013 <launchBeat+0x8e>
    21b7: a9 7b        	lda	#$7b
    21b9: 18           	clc
    21ba: 65 12        	adc	$12                     ; 0x2012 <launchBeat+0x8d>
    21bc: 85 12        	sta	$12                     ; 0x2012 <launchBeat+0x8d>
    21be: a9 45        	lda	#$45
    21c0: 65 13        	adc	$13                     ; 0x2013 <launchBeat+0x8e>
    21c2: 85 13        	sta	$13                     ; 0x2013 <launchBeat+0x8e>
    21c4: 9c 14 d4     	stz	$d414                   ; 0xd414 <end_block9+0x8d30>
    21c7: 9c 15 d4     	stz	$d415                   ; 0xd415 <end_block9+0x8d31>
    21ca: 9c 17 d4     	stz	$d417                   ; 0xd417 <end_block9+0x8d33>
    21cd: b2 12        	lda	($12)                   ; 0x2012 <launchBeat+0x8d>
    21cf: 8d 18 d4     	sta	$d418                   ; 0xd418 <end_block9+0x8d34>
    21d2: 9c 14 d5     	stz	$d514                   ; 0xd514 <end_block9+0x8e30>
    21d5: 9c 15 d5     	stz	$d515                   ; 0xd515 <end_block9+0x8e31>
    21d8: 9c 17 d5     	stz	$d517                   ; 0xd517 <end_block9+0x8e33>
    21db: 8d 18 d5     	sta	$d518                   ; 0xd518 <end_block9+0x8e34>
    21de: 4c 59 22     	jmp	$2259 <launchBeat+0x2d4>
    21e1: a0 02        	ldy	#$2
    21e3: b1 24        	lda	($24),y                 ; 0x2024 <launchBeat+0x9f>
    21e5: a2 0b        	ldx	#$b
    21e7: 86 12        	stx	$12                     ; 0x2012 <launchBeat+0x8d>
    21e9: 64 13        	stz	$13                     ; 0x2013 <launchBeat+0x8e>
    21eb: a2 00        	ldx	#$0
    21ed: 20 0b 40     	jsr	$400b <__mulhi3>
    21f0: 85 12        	sta	$12                     ; 0x2012 <launchBeat+0x8d>
    21f2: 86 13        	stx	$13                     ; 0x2013 <launchBeat+0x8e>
    21f4: a9 b1        	lda	#$b1
    21f6: 18           	clc
    21f7: 65 12        	adc	$12                     ; 0x2012 <launchBeat+0x8d>
    21f9: 85 12        	sta	$12                     ; 0x2012 <launchBeat+0x8d>
    21fb: a9 45        	lda	#$45
    21fd: 65 13        	adc	$13                     ; 0x2013 <launchBeat+0x8e>
    21ff: 85 13        	sta	$13                     ; 0x2013 <launchBeat+0x8e>
    2201: a0 01        	ldy	#$1
    2203: b1 24        	lda	($24),y                 ; 0x2024 <launchBeat+0x9f>
    2205: 20 75 26     	jsr	$2675 <opl3_setInstrument>
    2208: a0 01        	ldy	#$1
    220a: b1 24        	lda	($24),y                 ; 0x2024 <launchBeat+0x9f>
    220c: 85 2b        	sta	$2b                     ; 0x202b <launchBeat+0xa6>
    220e: c8           	iny
    220f: b1 24        	lda	($24),y                 ; 0x2024 <launchBeat+0x9f>
    2211: a2 0b        	ldx	#$b
    2213: 86 12        	stx	$12                     ; 0x2012 <launchBeat+0x8d>
    2215: 64 13        	stz	$13                     ; 0x2013 <launchBeat+0x8e>
    2217: a2 00        	ldx	#$0
    2219: 20 0b 40     	jsr	$400b <__mulhi3>
    221c: 85 13        	sta	$13                     ; 0x2013 <launchBeat+0x8e>
    221e: 86 12        	stx	$12                     ; 0x2012 <launchBeat+0x8d>
    2220: a6 2b        	ldx	$2b                     ; 0x202b <launchBeat+0xa6>
    2222: e0 40        	cpx	#$40
    2224: a0 80        	ldy	#$80
    2226: 84 14        	sty	$14                     ; 0x2014 <launchBeat+0x8f>
    2228: a0 d5        	ldy	#$d5
    222a: 84 15        	sty	$15                     ; 0x2015 <launchBeat+0x90>
    222c: 90 08        	bcc	$2236 <launchBeat+0x2b1>
    222e: a0 82        	ldy	#$82
    2230: 84 14        	sty	$14                     ; 0x2014 <launchBeat+0x8f>
    2232: a0 d5        	ldy	#$d5
    2234: 84 15        	sty	$15                     ; 0x2015 <launchBeat+0x90>
    2236: 18           	clc
    2237: 8a           	txa
    2238: 69 c0        	adc	#$c0
    223a: aa           	tax
    223b: a9 b1        	lda	#$b1
    223d: 18           	clc
    223e: 65 13        	adc	$13                     ; 0x2013 <launchBeat+0x8e>
    2240: a8           	tay
    2241: a9 45        	lda	#$45
    2243: 65 12        	adc	$12                     ; 0x2012 <launchBeat+0x8d>
    2245: 84 12        	sty	$12                     ; 0x2012 <launchBeat+0x8d>
    2247: 85 13        	sta	$13                     ; 0x2013 <launchBeat+0x8e>
    2249: a0 0a        	ldy	#$a
    224b: b1 12        	lda	($12),y                 ; 0x2012 <launchBeat+0x8d>
    224d: 85 12        	sta	$12                     ; 0x2012 <launchBeat+0x8d>
    224f: 8a           	txa
    2250: 92 14        	sta	($14)                   ; 0x2014 <launchBeat+0x8f>
    2252: a6 12        	ldx	$12                     ; 0x2012 <launchBeat+0x8d>
    2254: 8e 81 d5     	stx	$d581                   ; 0xd581 <end_block9+0x8e9d>
    2257: a0 01        	ldy	#$1
    2259: b1 24        	lda	($24),y                 ; 0x2024 <launchBeat+0x9f>
    225b: 85 16        	sta	$16                     ; 0x2016 <launchBeat+0x91>
    225d: b2 26        	lda	($26)                   ; 0x2026 <launchBeat+0xa1>
    225f: 85 12        	sta	$12                     ; 0x2012 <launchBeat+0x8d>
    2261: b2 24        	lda	($24)                   ; 0x2024 <launchBeat+0x9f>
    2263: a2 4c        	ldx	#$4c
    2265: 85 14        	sta	$14                     ; 0x2014 <launchBeat+0x8f>
    2267: c9 02        	cmp	#$2
    2269: f0 02        	beq	$226d <launchBeat+0x2e8>
    226b: a2 7f        	ldx	#$7f
    226d: a0 02        	ldy	#$2
    226f: b1 24        	lda	($24),y                 ; 0x2024 <launchBeat+0x9f>
    2271: 86 13        	stx	$13                     ; 0x2013 <launchBeat+0x8e>
    2273: 85 15        	sta	$15                     ; 0x2015 <launchBeat+0x90>
    2275: a6 16        	ldx	$16                     ; 0x2016 <launchBeat+0x91>
    2277: a9 01        	lda	#$1
    2279: 20 cf 1b     	jsr	$1bcf <dispatchNote>
    227c: b2 24        	lda	($24)                   ; 0x2024 <launchBeat+0x9f>
    227e: c9 01        	cmp	#$1
    2280: d0 09        	bne	$228b <launchBeat+0x306>
    2282: a0 01        	ldy	#$1
    2284: b1 24        	lda	($24),y                 ; 0x2024 <launchBeat+0x9f>
    2286: aa           	tax
    2287: 98           	tya
    2288: 9d 4c 00     	sta	$4c,x                   ; 0x4c <reservedSID>
    228b: a5 65        	lda	$65                     ; 0x2065 <launchBeat+0xe0>
    228d: 0a           	asl
    228e: aa           	tax
    228f: a9 00        	lda	#$0
    2291: 2a           	rol
    2292: 86 12        	stx	$12                     ; 0x2012 <launchBeat+0x8d>
    2294: 06 12        	asl	$12                     ; 0x2012 <launchBeat+0x8d>
    2296: 2a           	rol
    2297: 06 12        	asl	$12                     ; 0x2012 <launchBeat+0x8d>
    2299: 2a           	rol
    229a: 06 12        	asl	$12                     ; 0x2012 <launchBeat+0x8d>
    229c: 2a           	rol
    229d: aa           	tax
    229e: 38           	sec
    229f: a5 12        	lda	$12                     ; 0x2012 <launchBeat+0x8d>
    22a1: e5 65        	sbc	$65                     ; 0x2065 <launchBeat+0xe0>
    22a3: 85 12        	sta	$12                     ; 0x2012 <launchBeat+0x8d>
    22a5: 8a           	txa
    22a6: e9 00        	sbc	#$0
    22a8: aa           	tax
    22a9: 18           	clc
    22aa: a5 12        	lda	$12                     ; 0x2012 <launchBeat+0x8d>
    22ac: 65 66        	adc	$66                     ; 0x2066 <launchBeat+0xe1>
    22ae: 85 12        	sta	$12                     ; 0x2012 <launchBeat+0x8d>
    22b0: 8a           	txa
    22b1: 65 67        	adc	$67                     ; 0x2067 <launchBeat+0xe2>
    22b3: 85 13        	sta	$13                     ; 0x2013 <launchBeat+0x8e>
    22b5: a0 02        	ldy	#$2
    22b7: b1 12        	lda	($12),y                 ; 0x2012 <launchBeat+0x8d>
    22b9: 1a           	inc
    22ba: 91 12        	sta	($12),y                 ; 0x2012 <launchBeat+0x8d>
    22bc: a2 80        	ldx	#$80
    22be: 86 f3        	stx	$f3                     ; 0x20f3 <launchBeat+0x16e>
    22c0: 18           	clc
    22c1: a5 10        	lda	$10                     ; 0x2010 <launchBeat+0x8b>
    22c3: 69 0a        	adc	#$a
    22c5: 85 12        	sta	$12                     ; 0x2012 <launchBeat+0x8d>
    22c7: a5 11        	lda	$11                     ; 0x2011 <launchBeat+0x8c>
    22c9: 69 00        	adc	#$0
    22cb: 85 13        	sta	$13                     ; 0x2013 <launchBeat+0x8e>
    22cd: a2 e3        	ldx	#$e3
    22cf: 86 18        	stx	$18                     ; 0x2018 <launchBeat+0x93>
    22d1: a2 46        	ldx	#$46
    22d3: 86 19        	stx	$19                     ; 0x2019 <launchBeat+0x94>
    22d5: 20 f0 ff     	jsr	$fff0 <end_block9+0xb90c>
    22d8: 92 12        	sta	($12)                   ; 0x2012 <launchBeat+0x8d>
    22da: a9 00        	lda	#$0
    22dc: 6a           	ror
    22dd: 85 18        	sta	$18                     ; 0x2018 <launchBeat+0x93>
    22df: b2 12        	lda	($12)                   ; 0x2012 <launchBeat+0x8d>
    22e1: 85 12        	sta	$12                     ; 0x2012 <launchBeat+0x8d>
    22e3: b2 28        	lda	($28)                   ; 0x2028 <launchBeat+0xa3>
    22e5: aa           	tax
    22e6: 18           	clc
    22e7: a5 12        	lda	$12                     ; 0x2012 <launchBeat+0x8d>
    22e9: 75 68        	adc	$68,x                   ; 0x2068 <launchBeat+0xe3>
    22eb: 85 16        	sta	$16                     ; 0x2016 <launchBeat+0x91>
    22ed: a5 65        	lda	$65                     ; 0x2065 <launchBeat+0xe0>
    22ef: 0a           	asl
    22f0: aa           	tax
    22f1: a9 00        	lda	#$0
    22f3: 2a           	rol
    22f4: 86 12        	stx	$12                     ; 0x2012 <launchBeat+0x8d>
    22f6: 06 12        	asl	$12                     ; 0x2012 <launchBeat+0x8d>
    22f8: 2a           	rol
    22f9: 06 12        	asl	$12                     ; 0x2012 <launchBeat+0x8d>
    22fb: 2a           	rol
    22fc: 06 12        	asl	$12                     ; 0x2012 <launchBeat+0x8d>
    22fe: 2a           	rol
    22ff: aa           	tax
    2300: 38           	sec
    2301: a5 12        	lda	$12                     ; 0x2012 <launchBeat+0x8d>
    2303: e5 65        	sbc	$65                     ; 0x2065 <launchBeat+0xe0>
    2305: 85 12        	sta	$12                     ; 0x2012 <launchBeat+0x8d>
    2307: 8a           	txa
    2308: e9 00        	sbc	#$0
    230a: a8           	tay
    230b: 18           	clc
    230c: a5 12        	lda	$12                     ; 0x2012 <launchBeat+0x8d>
    230e: 65 66        	adc	$66                     ; 0x2066 <launchBeat+0xe1>
    2310: aa           	tax
    2311: 98           	tya
    2312: 65 67        	adc	$67                     ; 0x2067 <launchBeat+0xe2>
    2314: 86 12        	stx	$12                     ; 0x2012 <launchBeat+0x8d>
    2316: 85 13        	sta	$13                     ; 0x2013 <launchBeat+0x8e>
    2318: a8           	tay
    2319: 18           	clc
    231a: 8a           	txa
    231b: 69 0d        	adc	#$d
    231d: 85 14        	sta	$14                     ; 0x2014 <launchBeat+0x8f>
    231f: 98           	tya
    2320: 69 00        	adc	#$0
    2322: 85 15        	sta	$15                     ; 0x2015 <launchBeat+0x90>
    2324: 18           	clc
    2325: a5 2d        	lda	$2d                     ; 0x202d <launchBeat+0xa8>
    2327: a0 0d        	ldy	#$d
    2329: 71 12        	adc	($12),y                 ; 0x2012 <launchBeat+0x8d>
    232b: 85 12        	sta	$12                     ; 0x2012 <launchBeat+0x8d>
    232d: a5 2e        	lda	$2e                     ; 0x202e <launchBeat+0xa9>
    232f: a0 01        	ldy	#$1
    2331: 71 14        	adc	($14),y                 ; 0x2014 <launchBeat+0x8f>
    2333: a8           	tay
    2334: a6 12        	ldx	$12                     ; 0x2012 <launchBeat+0x8d>
    2336: 86 17        	stx	$17                     ; 0x2017 <launchBeat+0x92>
    2338: 85 13        	sta	$13                     ; 0x2013 <launchBeat+0x8e>
    233a: a6 12        	ldx	$12                     ; 0x2012 <launchBeat+0x8d>
    233c: 86 14        	stx	$14                     ; 0x2014 <launchBeat+0x8f>
    233e: 85 15        	sta	$15                     ; 0x2015 <launchBeat+0x90>
    2340: a2 ff        	ldx	#$ff
    2342: c6 14        	dec	$14                     ; 0x2014 <launchBeat+0x8f>
    2344: e4 14        	cpx	$14                     ; 0x2014 <launchBeat+0x8f>
    2346: d0 02        	bne	$234a <launchBeat+0x3c5>
    2348: c6 15        	dec	$15                     ; 0x2015 <launchBeat+0x90>
    234a: a5 16        	lda	$16                     ; 0x2016 <launchBeat+0x91>
    234c: 92 14        	sta	($14)                   ; 0x2014 <launchBeat+0x8f>
    234e: 18           	clc
    234f: a5 17        	lda	$17                     ; 0x2017 <launchBeat+0x92>
    2351: 69 fe        	adc	#$fe
    2353: 85 16        	sta	$16                     ; 0x2016 <launchBeat+0x91>
    2355: 98           	tya
    2356: 69 ff        	adc	#$ff
    2358: 85 17        	sta	$17                     ; 0x2017 <launchBeat+0x92>
    235a: b2 16        	lda	($16)                   ; 0x2016 <launchBeat+0x91>
    235c: 85 f3        	sta	$f3                     ; 0x20f3 <launchBeat+0x16e>
    235e: b2 14        	lda	($14)                   ; 0x2014 <launchBeat+0x8f>
    2360: 85 f4        	sta	$f4                     ; 0x20f4 <launchBeat+0x16f>
    2362: b2 12        	lda	($12)                   ; 0x2012 <launchBeat+0x8d>
    2364: 85 f5        	sta	$f5                     ; 0x20f5 <launchBeat+0x170>
    2366: 18           	clc
    2367: a5 10        	lda	$10                     ; 0x2010 <launchBeat+0x8b>
    2369: 69 0b        	adc	#$b
    236b: 85 12        	sta	$12                     ; 0x2012 <launchBeat+0x8d>
    236d: a5 11        	lda	$11                     ; 0x2011 <launchBeat+0x8c>
    236f: 69 00        	adc	#$0
    2371: 85 13        	sta	$13                     ; 0x2013 <launchBeat+0x8e>
    2373: 20 f0 ff     	jsr	$fff0 <end_block9+0xb90c>
    2376: 92 12        	sta	($12)                   ; 0x2012 <launchBeat+0x8d>
    2378: a9 00        	lda	#$0
    237a: 6a           	ror
    237b: 85 18        	sta	$18                     ; 0x2018 <launchBeat+0x93>
    237d: a6 66        	ldx	$66                     ; 0x2066 <launchBeat+0xe1>
    237f: a4 67        	ldy	$67                     ; 0x2067 <launchBeat+0xe2>
    2381: 86 12        	stx	$12                     ; 0x2012 <launchBeat+0x8d>
    2383: 84 13        	sty	$13                     ; 0x2013 <launchBeat+0x8e>
    2385: a6 65        	ldx	$65                     ; 0x2065 <launchBeat+0xe0>
    2387: 86 2c        	stx	$2c                     ; 0x202c <launchBeat+0xa7>
    2389: 8a           	txa
    238a: 0a           	asl
    238b: aa           	tax
    238c: a9 00        	lda	#$0
    238e: 2a           	rol
    238f: 86 14        	stx	$14                     ; 0x2014 <launchBeat+0x8f>
    2391: 06 14        	asl	$14                     ; 0x2014 <launchBeat+0x8f>
    2393: 2a           	rol
    2394: 06 14        	asl	$14                     ; 0x2014 <launchBeat+0x8f>
    2396: 2a           	rol
    2397: 06 14        	asl	$14                     ; 0x2014 <launchBeat+0x8f>
    2399: 2a           	rol
    239a: aa           	tax
    239b: 38           	sec
    239c: a5 14        	lda	$14                     ; 0x2014 <launchBeat+0x8f>
    239e: e5 2c        	sbc	$2c                     ; 0x202c <launchBeat+0xa7>
    23a0: 85 14        	sta	$14                     ; 0x2014 <launchBeat+0x8f>
    23a2: 8a           	txa
    23a3: e9 00        	sbc	#$0
    23a5: a8           	tay
    23a6: 18           	clc
    23a7: a5 14        	lda	$14                     ; 0x2014 <launchBeat+0x8f>
    23a9: 65 66        	adc	$66                     ; 0x2066 <launchBeat+0xe1>
    23ab: aa           	tax
    23ac: 98           	tya
    23ad: 65 67        	adc	$67                     ; 0x2067 <launchBeat+0xe2>
    23af: e6 2a        	inc	$2a                     ; 0x202a <launchBeat+0xa5>
    23b1: a4 2a        	ldy	$2a                     ; 0x202a <launchBeat+0xa5>
    23b3: 84 15        	sty	$15                     ; 0x2015 <launchBeat+0x90>
    23b5: 86 2a        	stx	$2a                     ; 0x202a <launchBeat+0xa5>
    23b7: 85 2b        	sta	$2b                     ; 0x202b <launchBeat+0xa6>
    23b9: 18           	clc
    23ba: a5 2d        	lda	$2d                     ; 0x202d <launchBeat+0xa8>
    23bc: 69 03        	adc	#$3
    23be: 85 14        	sta	$14                     ; 0x2014 <launchBeat+0x8f>
    23c0: a5 2e        	lda	$2e                     ; 0x202e <launchBeat+0xa9>
    23c2: 69 00        	adc	#$0
    23c4: 85 2e        	sta	$2e                     ; 0x202e <launchBeat+0xa9>
    23c6: a0 04        	ldy	#$4
    23c8: a5 15        	lda	$15                     ; 0x2015 <launchBeat+0x90>
    23ca: d1 2a        	cmp	($2a),y                 ; 0x202a <launchBeat+0xa5>
    23cc: a6 15        	ldx	$15                     ; 0x2015 <launchBeat+0x90>
    23ce: a4 14        	ldy	$14                     ; 0x2014 <launchBeat+0x8f>
    23d0: 90 03        	bcc	$23d5 <launchBeat+0x450>
    23d2: 4c 73 24     	jmp	$2473 <launchBeat+0x4ee>
    23d5: 84 2d        	sty	$2d                     ; 0x202d <launchBeat+0xa8>
    23d7: a5 2a        	lda	$2a                     ; 0x202a <launchBeat+0xa5>
    23d9: 18           	clc
    23da: 69 09        	adc	#$9
    23dc: 85 14        	sta	$14                     ; 0x2014 <launchBeat+0x8f>
    23de: a5 2b        	lda	$2b                     ; 0x202b <launchBeat+0xa6>
    23e0: 69 00        	adc	#$0
    23e2: 85 15        	sta	$15                     ; 0x2015 <launchBeat+0x90>
    23e4: a0 09        	ldy	#$9
    23e6: b1 2a        	lda	($2a),y                 ; 0x202a <launchBeat+0xa5>
    23e8: 85 16        	sta	$16                     ; 0x2016 <launchBeat+0x91>
    23ea: a0 01        	ldy	#$1
    23ec: b1 14        	lda	($14),y                 ; 0x2014 <launchBeat+0x8f>
    23ee: 85 17        	sta	$17                     ; 0x2017 <launchBeat+0x92>
    23f0: a9 00        	lda	#$0
    23f2: da           	phx
    23f3: 7a           	ply
    23f4: 91 16        	sta	($16),y                 ; 0x2016 <launchBeat+0x91>
    23f6: a4 26        	ldy	$26                     ; 0x2026 <launchBeat+0xa1>
    23f8: 84 14        	sty	$14                     ; 0x2014 <launchBeat+0x8f>
    23fa: a4 27        	ldy	$27                     ; 0x2027 <launchBeat+0xa2>
    23fc: 84 15        	sty	$15                     ; 0x2015 <launchBeat+0x90>
    23fe: a4 28        	ldy	$28                     ; 0x2028 <launchBeat+0xa3>
    2400: 84 16        	sty	$16                     ; 0x2016 <launchBeat+0x91>
    2402: a4 29        	ldy	$29                     ; 0x2029 <launchBeat+0xa4>
    2404: 84 17        	sty	$17                     ; 0x2017 <launchBeat+0x92>
    2406: a4 24        	ldy	$24                     ; 0x2024 <launchBeat+0x9f>
    2408: 84 18        	sty	$18                     ; 0x2018 <launchBeat+0x93>
    240a: a4 25        	ldy	$25                     ; 0x2025 <launchBeat+0xa0>
    240c: 84 19        	sty	$19                     ; 0x2019 <launchBeat+0x94>
    240e: 86 2a        	stx	$2a                     ; 0x202a <launchBeat+0xa5>
    2410: a5 2c        	lda	$2c                     ; 0x202c <launchBeat+0xa7>
    2412: 20 99 29     	jsr	$2999 <getBeatTrackNoteInfo>
    2415: b2 24        	lda	($24)                   ; 0x2024 <launchBeat+0x9f>
    2417: c9 03        	cmp	#$3
    2419: d0 03        	bne	$241e <launchBeat+0x499>
    241b: 4c e1 21     	jmp	$21e1 <launchBeat+0x25c>
    241e: c9 01        	cmp	#$1
    2420: d0 03        	bne	$2425 <launchBeat+0x4a0>
    2422: 4c 53 21     	jmp	$2153 <launchBeat+0x1ce>
    2425: a0 01        	ldy	#$1
    2427: aa           	tax
    2428: f0 03        	beq	$242d <launchBeat+0x4a8>
    242a: 4c 59 22     	jmp	$2259 <launchBeat+0x2d4>
    242d: b1 24        	lda	($24),y                 ; 0x2024 <launchBeat+0x9f>
    242f: c9 09        	cmp	#$9
    2431: d0 03        	bne	$2436 <launchBeat+0x4b1>
    2433: 4c 59 22     	jmp	$2259 <launchBeat+0x2d4>
    2436: a0 02        	ldy	#$2
    2438: aa           	tax
    2439: b1 24        	lda	($24),y                 ; 0x2024 <launchBeat+0x9f>
    243b: 85 12        	sta	$12                     ; 0x2012 <launchBeat+0x8d>
    243d: 8a           	txa
    243e: 09 c0        	ora	#$c0
    2440: 8d b1 dd     	sta	$ddb1                   ; 0xddb1 <end_block9+0x96cd>
    2443: a6 12        	ldx	$12                     ; 0x2012 <launchBeat+0x8d>
    2445: 8e b1 dd     	stx	$ddb1                   ; 0xddb1 <end_block9+0x96cd>
    2448: b1 24        	lda	($24),y                 ; 0x2024 <launchBeat+0x9f>
    244a: 85 12        	sta	$12                     ; 0x2012 <launchBeat+0x8d>
    244c: 88           	dey
    244d: a9 c0        	lda	#$c0
    244f: 11 24        	ora	($24),y                 ; 0x2024 <launchBeat+0x9f>
    2451: 8d a1 dd     	sta	$dda1                   ; 0xdda1 <end_block9+0x96bd>
    2454: a6 12        	ldx	$12                     ; 0x2012 <launchBeat+0x8d>
    2456: 8e a1 dd     	stx	$dda1                   ; 0xdda1 <end_block9+0x96bd>
    2459: 4c 59 22     	jmp	$2259 <launchBeat+0x2d4>
    245c: a2 00        	ldx	#$0
    245e: 86 12        	stx	$12                     ; 0x2012 <launchBeat+0x8d>
    2460: a2 00        	ldx	#$0
    2462: 86 13        	stx	$13                     ; 0x2013 <launchBeat+0x8e>
    2464: a6 25        	ldx	$25                     ; 0x2025 <launchBeat+0xa0>
    2466: e4 13        	cpx	$13                     ; 0x2013 <launchBeat+0x8e>
    2468: d0 09        	bne	$2473 <launchBeat+0x4ee>
    246a: a6 24        	ldx	$24                     ; 0x2024 <launchBeat+0x9f>
    246c: e4 12        	cpx	$12                     ; 0x2012 <launchBeat+0x8d>
    246e: d0 03        	bne	$2473 <launchBeat+0x4ee>
    2470: 4c 9b 25     	jmp	$259b <launchBeat+0x616>
    2473: a2 00        	ldx	#$0
    2475: a0 10        	ldy	#$10
    2477: a9 e4        	lda	#$e4
    2479: 86 12        	stx	$12                     ; 0x2012 <launchBeat+0x8d>
    247b: 84 13        	sty	$13                     ; 0x2013 <launchBeat+0x8e>
    247d: 18           	clc
    247e: 65 12        	adc	$12                     ; 0x2012 <launchBeat+0x8d>
    2480: 85 2c        	sta	$2c                     ; 0x202c <launchBeat+0xa7>
    2482: a9 46        	lda	#$46
    2484: 65 13        	adc	$13                     ; 0x2013 <launchBeat+0x8e>
    2486: 85 2d        	sta	$2d                     ; 0x202d <launchBeat+0xa8>
    2488: a5 24        	lda	$24                     ; 0x2024 <launchBeat+0x9f>
    248a: 18           	clc
    248b: 69 fe        	adc	#$fe
    248d: 85 13        	sta	$13                     ; 0x2013 <launchBeat+0x8e>
    248f: a5 25        	lda	$25                     ; 0x2025 <launchBeat+0xa0>
    2491: 69 ff        	adc	#$ff
    2493: a6 13        	ldx	$13                     ; 0x2013 <launchBeat+0x8e>
    2495: 86 26        	stx	$26                     ; 0x2026 <launchBeat+0xa1>
    2497: aa           	tax
    2498: 85 27        	sta	$27                     ; 0x2027 <launchBeat+0xa2>
    249a: b2 26        	lda	($26)                   ; 0x2026 <launchBeat+0xa1>
    249c: 85 12        	sta	$12                     ; 0x2012 <launchBeat+0x8d>
    249e: a0 01        	ldy	#$1
    24a0: b1 26        	lda	($26),y                 ; 0x2026 <launchBeat+0xa1>
    24a2: 85 2a        	sta	$2a                     ; 0x202a <launchBeat+0xa5>
    24a4: a9 fe        	lda	#$fe
    24a6: 32 26        	and	($26)                   ; 0x2026 <launchBeat+0xa1>
    24a8: 85 2b        	sta	$2b                     ; 0x202b <launchBeat+0xa6>
    24aa: a4 13        	ldy	$13                     ; 0x2013 <launchBeat+0x8e>
    24ac: 84 15        	sty	$15                     ; 0x2015 <launchBeat+0x90>
    24ae: a5 13        	lda	$13                     ; 0x2013 <launchBeat+0x8e>
    24b0: 18           	clc
    24b1: 65 2b        	adc	$2b                     ; 0x202b <launchBeat+0xa6>
    24b3: 85 28        	sta	$28                     ; 0x2028 <launchBeat+0xa3>
    24b5: 8a           	txa
    24b6: 86 16        	stx	$16                     ; 0x2016 <launchBeat+0x91>
    24b8: 65 2a        	adc	$2a                     ; 0x202a <launchBeat+0xa5>
    24ba: c5 2d        	cmp	$2d                     ; 0x202d <launchBeat+0xa8>
    24bc: d0 10        	bne	$24ce <launchBeat+0x549>
    24be: a6 28        	ldx	$28                     ; 0x2028 <launchBeat+0xa3>
    24c0: e4 2c        	cpx	$2c                     ; 0x202c <launchBeat+0xa7>
    24c2: d0 0a        	bne	$24ce <launchBeat+0x549>
    24c4: a2 00        	ldx	#$0
    24c6: 86 28        	stx	$28                     ; 0x2028 <launchBeat+0xa3>
    24c8: a2 00        	ldx	#$0
    24ca: 86 29        	stx	$29                     ; 0x2029 <launchBeat+0xa4>
    24cc: 80 02        	bra	$24d0 <launchBeat+0x54b>
    24ce: 85 29        	sta	$29                     ; 0x2029 <launchBeat+0xa4>
    24d0: a5 12        	lda	$12                     ; 0x2012 <launchBeat+0x8d>
    24d2: 29 01        	and	#$1
    24d4: f0 4b        	beq	$2521 <launchBeat+0x59c>
    24d6: a5 24        	lda	$24                     ; 0x2024 <launchBeat+0x9f>
    24d8: 18           	clc
    24d9: 69 fc        	adc	#$fc
    24db: 85 12        	sta	$12                     ; 0x2012 <launchBeat+0x8d>
    24dd: a5 25        	lda	$25                     ; 0x2025 <launchBeat+0xa0>
    24df: 69 ff        	adc	#$ff
    24e1: 85 13        	sta	$13                     ; 0x2013 <launchBeat+0x8e>
    24e3: a0 01        	ldy	#$1
    24e5: 38           	sec
    24e6: a9 00        	lda	#$0
    24e8: f2 12        	sbc	($12)                   ; 0x2012 <launchBeat+0x8d>
    24ea: 85 14        	sta	$14                     ; 0x2014 <launchBeat+0x8f>
    24ec: a9 00        	lda	#$0
    24ee: f1 12        	sbc	($12),y                 ; 0x2012 <launchBeat+0x8d>
    24f0: 85 12        	sta	$12                     ; 0x2012 <launchBeat+0x8d>
    24f2: a5 15        	lda	$15                     ; 0x2015 <launchBeat+0x90>
    24f4: 18           	clc
    24f5: 65 14        	adc	$14                     ; 0x2014 <launchBeat+0x8f>
    24f7: 85 26        	sta	$26                     ; 0x2026 <launchBeat+0xa1>
    24f9: a5 16        	lda	$16                     ; 0x2016 <launchBeat+0x91>
    24fb: 65 12        	adc	$12                     ; 0x2012 <launchBeat+0x8d>
    24fd: 85 27        	sta	$27                     ; 0x2027 <launchBeat+0xa2>
    24ff: b1 26        	lda	($26),y                 ; 0x2026 <launchBeat+0xa1>
    2501: 85 24        	sta	$24                     ; 0x2024 <launchBeat+0x9f>
    2503: a9 fe        	lda	#$fe
    2505: 32 26        	and	($26)                   ; 0x2026 <launchBeat+0xa1>
    2507: 85 25        	sta	$25                     ; 0x2025 <launchBeat+0xa0>
    2509: a6 26        	ldx	$26                     ; 0x2026 <launchBeat+0xa1>
    250b: 86 12        	stx	$12                     ; 0x2012 <launchBeat+0x8d>
    250d: a6 27        	ldx	$27                     ; 0x2027 <launchBeat+0xa2>
    250f: 86 13        	stx	$13                     ; 0x2013 <launchBeat+0x8e>
    2511: 20 4c 04     	jsr	$44c <_ZN12_GLOBAL__N_19FreeChunk6removeEv>
    2514: 18           	clc
    2515: a5 25        	lda	$25                     ; 0x2025 <launchBeat+0xa0>
    2517: 65 2b        	adc	$2b                     ; 0x202b <launchBeat+0xa6>
    2519: 85 2b        	sta	$2b                     ; 0x202b <launchBeat+0xa6>
    251b: a5 24        	lda	$24                     ; 0x2024 <launchBeat+0x9f>
    251d: 65 2a        	adc	$2a                     ; 0x202a <launchBeat+0xa5>
    251f: 85 2a        	sta	$2a                     ; 0x202a <launchBeat+0xa5>
    2521: a2 00        	ldx	#$0
    2523: 86 12        	stx	$12                     ; 0x2012 <launchBeat+0x8d>
    2525: a2 00        	ldx	#$0
    2527: 86 13        	stx	$13                     ; 0x2013 <launchBeat+0x8e>
    2529: a6 29        	ldx	$29                     ; 0x2029 <launchBeat+0xa4>
    252b: e4 13        	cpx	$13                     ; 0x2013 <launchBeat+0x8e>
    252d: d0 0c        	bne	$253b <launchBeat+0x5b6>
    252f: a6 28        	ldx	$28                     ; 0x2028 <launchBeat+0xa3>
    2531: e4 12        	cpx	$12                     ; 0x2012 <launchBeat+0x8d>
    2533: d0 06        	bne	$253b <launchBeat+0x5b6>
    2535: a2 01        	ldx	#$1
    2537: 86 92        	stx	$92                     ; 0x2092 <launchBeat+0x10d>
    2539: 80 51        	bra	$258c <launchBeat+0x607>
    253b: a0 01        	ldy	#$1
    253d: b1 28        	lda	($28),y                 ; 0x2028 <launchBeat+0xa3>
    253f: aa           	tax
    2540: a9 fe        	lda	#$fe
    2542: 32 28        	and	($28)                   ; 0x2028 <launchBeat+0xa3>
    2544: 18           	clc
    2545: 85 25        	sta	$25                     ; 0x2025 <launchBeat+0xa0>
    2547: 65 28        	adc	$28                     ; 0x2028 <launchBeat+0xa3>
    2549: 85 12        	sta	$12                     ; 0x2012 <launchBeat+0x8d>
    254b: 8a           	txa
    254c: 86 24        	stx	$24                     ; 0x2024 <launchBeat+0x9f>
    254e: 65 29        	adc	$29                     ; 0x2029 <launchBeat+0xa4>
    2550: c5 2d        	cmp	$2d                     ; 0x202d <launchBeat+0xa8>
    2552: d0 0e        	bne	$2562 <launchBeat+0x5dd>
    2554: a6 12        	ldx	$12                     ; 0x2012 <launchBeat+0x8d>
    2556: e4 2c        	cpx	$2c                     ; 0x202c <launchBeat+0xa7>
    2558: d0 08        	bne	$2562 <launchBeat+0x5dd>
    255a: a9 01        	lda	#$1
    255c: 64 12        	stz	$12                     ; 0x2012 <launchBeat+0x8d>
    255e: 25 92        	and	$92                     ; 0x2092 <launchBeat+0x10d>
    2560: 80 08        	bra	$256a <launchBeat+0x5e5>
    2562: 85 13        	sta	$13                     ; 0x2013 <launchBeat+0x8e>
    2564: a9 01        	lda	#$1
    2566: 32 12        	and	($12)                   ; 0x2012 <launchBeat+0x8d>
    2568: 64 12        	stz	$12                     ; 0x2012 <launchBeat+0x8d>
    256a: a6 12        	ldx	$12                     ; 0x2012 <launchBeat+0x8d>
    256c: d0 06        	bne	$2574 <launchBeat+0x5ef>
    256e: aa           	tax
    256f: d0 03        	bne	$2574 <launchBeat+0x5ef>
    2571: 4c de 25     	jmp	$25de <launchBeat+0x659>
    2574: a6 28        	ldx	$28                     ; 0x2028 <launchBeat+0xa3>
    2576: 86 12        	stx	$12                     ; 0x2012 <launchBeat+0x8d>
    2578: a6 29        	ldx	$29                     ; 0x2029 <launchBeat+0xa4>
    257a: 86 13        	stx	$13                     ; 0x2013 <launchBeat+0x8e>
    257c: 20 4c 04     	jsr	$44c <_ZN12_GLOBAL__N_19FreeChunk6removeEv>
    257f: 18           	clc
    2580: a5 25        	lda	$25                     ; 0x2025 <launchBeat+0xa0>
    2582: 65 2b        	adc	$2b                     ; 0x202b <launchBeat+0xa6>
    2584: 85 2b        	sta	$2b                     ; 0x202b <launchBeat+0xa6>
    2586: a5 24        	lda	$24                     ; 0x2024 <launchBeat+0x9f>
    2588: 65 2a        	adc	$2a                     ; 0x202a <launchBeat+0xa5>
    258a: 85 2a        	sta	$2a                     ; 0x202a <launchBeat+0xa5>
    258c: a6 26        	ldx	$26                     ; 0x2026 <launchBeat+0xa1>
    258e: 86 12        	stx	$12                     ; 0x2012 <launchBeat+0x8d>
    2590: a6 27        	ldx	$27                     ; 0x2027 <launchBeat+0xa2>
    2592: 86 13        	stx	$13                     ; 0x2013 <launchBeat+0x8e>
    2594: a6 2a        	ldx	$2a                     ; 0x202a <launchBeat+0xa5>
    2596: a5 2b        	lda	$2b                     ; 0x202b <launchBeat+0xa6>
    2598: 20 16 03     	jsr	$316 <_ZN12_GLOBAL__N_19FreeChunk6insertEPvj>
    259b: a0 00        	ldy	#$0
    259d: b1 10        	lda	($10),y                 ; 0x2010 <launchBeat+0x8b>
    259f: 85 2f        	sta	$2f                     ; 0x202f <launchBeat+0xaa>
    25a1: c8           	iny
    25a2: b1 10        	lda	($10),y                 ; 0x2010 <launchBeat+0x8b>
    25a4: 85 2e        	sta	$2e                     ; 0x202e <launchBeat+0xa9>
    25a6: c8           	iny
    25a7: b1 10        	lda	($10),y                 ; 0x2010 <launchBeat+0x8b>
    25a9: 85 2d        	sta	$2d                     ; 0x202d <launchBeat+0xa8>
    25ab: c8           	iny
    25ac: b1 10        	lda	($10),y                 ; 0x2010 <launchBeat+0x8b>
    25ae: 85 2c        	sta	$2c                     ; 0x202c <launchBeat+0xa7>
    25b0: c8           	iny
    25b1: b1 10        	lda	($10),y                 ; 0x2010 <launchBeat+0x8b>
    25b3: 85 2b        	sta	$2b                     ; 0x202b <launchBeat+0xa6>
    25b5: c8           	iny
    25b6: b1 10        	lda	($10),y                 ; 0x2010 <launchBeat+0x8b>
    25b8: 85 2a        	sta	$2a                     ; 0x202a <launchBeat+0xa5>
    25ba: c8           	iny
    25bb: b1 10        	lda	($10),y                 ; 0x2010 <launchBeat+0x8b>
    25bd: 85 29        	sta	$29                     ; 0x2029 <launchBeat+0xa4>
    25bf: c8           	iny
    25c0: b1 10        	lda	($10),y                 ; 0x2010 <launchBeat+0x8b>
    25c2: 85 28        	sta	$28                     ; 0x2028 <launchBeat+0xa3>
    25c4: fa           	plx
    25c5: 86 27        	stx	$27                     ; 0x2027 <launchBeat+0xa2>
    25c7: fa           	plx
    25c8: 86 26        	stx	$26                     ; 0x2026 <launchBeat+0xa1>
    25ca: fa           	plx
    25cb: 86 25        	stx	$25                     ; 0x2025 <launchBeat+0xa0>
    25cd: fa           	plx
    25ce: 86 24        	stx	$24                     ; 0x2024 <launchBeat+0x9f>
    25d0: 18           	clc
    25d1: a5 10        	lda	$10                     ; 0x2010 <launchBeat+0x8b>
    25d3: 69 0c        	adc	#$c
    25d5: 85 10        	sta	$10                     ; 0x2010 <launchBeat+0x8b>
    25d7: a5 11        	lda	$11                     ; 0x2011 <launchBeat+0x8c>
    25d9: 69 00        	adc	#$0
    25db: 85 11        	sta	$11                     ; 0x2011 <launchBeat+0x8c>
    25dd: 60           	rts
    25de: b2 28        	lda	($28)                   ; 0x2028 <launchBeat+0xa3>
    25e0: 09 01        	ora	#$1
    25e2: 92 28        	sta	($28)                   ; 0x2028 <launchBeat+0xa3>
    25e4: a5 24        	lda	$24                     ; 0x2024 <launchBeat+0x9f>
    25e6: 91 28        	sta	($28),y                 ; 0x2028 <launchBeat+0xa3>
    25e8: 4c 8c 25     	jmp	$258c <launchBeat+0x607>

000025eb <prepTempoLUT>:
    25eb: a2 03        	ldx	#$3
    25ed: 86 68        	stx	$68                     ; 0x2068 <launchBeat+0xe3>
    25ef: a2 00        	ldx	#$0
    25f1: a0 01        	ldy	#$1
    25f3: 84 12        	sty	$12                     ; 0x2012 <launchBeat+0x8d>
    25f5: a9 03        	lda	#$3
    25f7: 0a           	asl
    25f8: c6 12        	dec	$12                     ; 0x2012 <launchBeat+0x8d>
    25fa: d0 fb        	bne	$25f7 <prepTempoLUT+0xc>
    25fc: 9d 69 00     	sta	$69,x                   ; 0x69 <mainTempoLUT+0x1>
    25ff: c8           	iny
    2600: e8           	inx
    2601: c0 06        	cpy	#$6
    2603: d0 ee        	bne	$25f3 <prepTempoLUT+0x8>
    2605: 64 97        	stz	$97                     ; 0x2097 <launchBeat+0x112>
    2607: a2 00        	ldx	#$0
    2609: b5 68        	lda	$68,x                   ; 0x2068 <launchBeat+0xe3>
    260b: 0a           	asl
    260c: 64 14        	stz	$14                     ; 0x2014 <launchBeat+0x8f>
    260e: 26 14        	rol	$14                     ; 0x2014 <launchBeat+0x8f>
    2610: 86 98        	stx	$98                     ; 0x2098 <launchBeat+0x113>
    2612: a2 03        	ldx	#$3
    2614: 86 12        	stx	$12                     ; 0x2012 <launchBeat+0x8d>
    2616: 64 13        	stz	$13                     ; 0x2013 <launchBeat+0x8e>
    2618: a6 14        	ldx	$14                     ; 0x2014 <launchBeat+0x8f>
    261a: 20 99 40     	jsr	$4099 <__udivhi3>
    261d: a6 98        	ldx	$98                     ; 0x2098 <launchBeat+0x113>
    261f: 9d 6e 00     	sta	$6e,x                   ; 0x6e <mainTempoLUT+0x6>
    2622: e8           	inx
    2623: e0 06        	cpx	#$6
    2625: d0 e2        	bne	$2609 <prepTempoLUT+0x1e>
    2627: a2 00        	ldx	#$0
    2629: b5 68        	lda	$68,x                   ; 0x2068 <launchBeat+0xe3>
    262b: 86 97        	stx	$97                     ; 0x2097 <launchBeat+0x112>
    262d: a2 03        	ldx	#$3
    262f: 20 3d 40     	jsr	$403d <__udivqi3>
    2632: a6 97        	ldx	$97                     ; 0x2097 <launchBeat+0x112>
    2634: 9d 74 00     	sta	$74,x                   ; 0x74 <mainTempoLUT+0xc>
    2637: e8           	inx
    2638: e0 06        	cpx	#$6
    263a: d0 ed        	bne	$2629 <prepTempoLUT+0x3e>
    263c: 64 97        	stz	$97                     ; 0x2097 <launchBeat+0x112>
    263e: a2 00        	ldx	#$0
    2640: b5 68        	lda	$68,x                   ; 0x2068 <launchBeat+0xe3>
    2642: 0a           	asl
    2643: 64 14        	stz	$14                     ; 0x2014 <launchBeat+0x8f>
    2645: 26 14        	rol	$14                     ; 0x2014 <launchBeat+0x8f>
    2647: 0a           	asl
    2648: 26 14        	rol	$14                     ; 0x2014 <launchBeat+0x8f>
    264a: 86 98        	stx	$98                     ; 0x2098 <launchBeat+0x113>
    264c: a2 03        	ldx	#$3
    264e: 86 12        	stx	$12                     ; 0x2012 <launchBeat+0x8d>
    2650: 64 13        	stz	$13                     ; 0x2013 <launchBeat+0x8e>
    2652: a6 14        	ldx	$14                     ; 0x2014 <launchBeat+0x8f>
    2654: 20 99 40     	jsr	$4099 <__udivhi3>
    2657: a6 98        	ldx	$98                     ; 0x2098 <launchBeat+0x113>
    2659: 9d 7a 00     	sta	$7a,x                   ; 0x7a <mainTempoLUT+0x12>
    265c: e8           	inx
    265d: e0 06        	cpx	#$6
    265f: d0 df        	bne	$2640 <prepTempoLUT+0x55>
    2661: a2 00        	ldx	#$0
    2663: b4 68        	ldy	$68,x                   ; 0x2068 <launchBeat+0xe3>
    2665: 84 12        	sty	$12                     ; 0x2012 <launchBeat+0x8d>
    2667: 98           	tya
    2668: 0a           	asl
    2669: 18           	clc
    266a: 65 12        	adc	$12                     ; 0x2012 <launchBeat+0x8d>
    266c: 9d 80 00     	sta	$80,x                   ; 0x80 <mainTempoLUT+0x18>
    266f: e8           	inx
    2670: e0 06        	cpx	#$6
    2672: d0 ef        	bne	$2663 <prepTempoLUT+0x78>
    2674: 60           	rts

00002675 <opl3_setInstrument>:
    2675: c9 03        	cmp	#$3
    2677: 90 0c        	bcc	$2685 <opl3_setInstrument+0x10>
    2679: c9 06        	cmp	#$6
    267b: 90 05        	bcc	$2682 <opl3_setInstrument+0xd>
    267d: 18           	clc
    267e: 69 0a        	adc	#$a
    2680: 80 03        	bra	$2685 <opl3_setInstrument+0x10>
    2682: 18           	clc
    2683: 69 05        	adc	#$5
    2685: a2 80        	ldx	#$80
    2687: 86 14        	stx	$14                     ; 0x2014 <launchBeat+0x8f>
    2689: a2 d5        	ldx	#$d5
    268b: 86 15        	stx	$15                     ; 0x2015 <launchBeat+0x90>
    268d: aa           	tax
    268e: 09 20        	ora	#$20
    2690: 85 17        	sta	$17                     ; 0x2017 <launchBeat+0x92>
    2692: a0 01        	ldy	#$1
    2694: b1 12        	lda	($12),y                 ; 0x2012 <launchBeat+0x8d>
    2696: a4 17        	ldy	$17                     ; 0x2017 <launchBeat+0x92>
    2698: 8c 80 d5     	sty	$d580                   ; 0xd580 <end_block9+0x8e9c>
    269b: 8d 81 d5     	sta	$d581                   ; 0xd581 <end_block9+0x8e9d>
    269e: 18           	clc
    269f: 8a           	txa
    26a0: 69 03        	adc	#$3
    26a2: a8           	tay
    26a3: b2 12        	lda	($12)                   ; 0x2012 <launchBeat+0x8d>
    26a5: 85 18        	sta	$18                     ; 0x2018 <launchBeat+0x93>
    26a7: 86 16        	stx	$16                     ; 0x2016 <launchBeat+0x91>
    26a9: e0 fd        	cpx	#$fd
    26ab: 98           	tya
    26ac: 84 17        	sty	$17                     ; 0x2017 <launchBeat+0x92>
    26ae: 09 20        	ora	#$20
    26b0: 90 08        	bcc	$26ba <opl3_setInstrument+0x45>
    26b2: a2 82        	ldx	#$82
    26b4: 86 14        	stx	$14                     ; 0x2014 <launchBeat+0x8f>
    26b6: a2 d5        	ldx	#$d5
    26b8: 86 15        	stx	$15                     ; 0x2015 <launchBeat+0x90>
    26ba: 92 14        	sta	($14)                   ; 0x2014 <launchBeat+0x8f>
    26bc: a6 18        	ldx	$18                     ; 0x2018 <launchBeat+0x93>
    26be: 8e 81 d5     	stx	$d581                   ; 0xd581 <end_block9+0x8e9d>
    26c1: a6 16        	ldx	$16                     ; 0x2016 <launchBeat+0x91>
    26c3: a5 16        	lda	$16                     ; 0x2016 <launchBeat+0x91>
    26c5: 09 40        	ora	#$40
    26c7: 85 18        	sta	$18                     ; 0x2018 <launchBeat+0x93>
    26c9: a0 03        	ldy	#$3
    26cb: b1 12        	lda	($12),y                 ; 0x2012 <launchBeat+0x8d>
    26cd: a4 18        	ldy	$18                     ; 0x2018 <launchBeat+0x93>
    26cf: 8c 80 d5     	sty	$d580                   ; 0xd580 <end_block9+0x8e9c>
    26d2: 8d 81 d5     	sta	$d581                   ; 0xd581 <end_block9+0x8e9d>
    26d5: a0 02        	ldy	#$2
    26d7: b1 12        	lda	($12),y                 ; 0x2012 <launchBeat+0x8d>
    26d9: 85 16        	sta	$16                     ; 0x2016 <launchBeat+0x91>
    26db: a5 17        	lda	$17                     ; 0x2017 <launchBeat+0x92>
    26dd: 09 40        	ora	#$40
    26df: 92 14        	sta	($14)                   ; 0x2014 <launchBeat+0x8f>
    26e1: a4 16        	ldy	$16                     ; 0x2016 <launchBeat+0x91>
    26e3: 8c 81 d5     	sty	$d581                   ; 0xd581 <end_block9+0x8e9d>
    26e6: 8a           	txa
    26e7: 09 60        	ora	#$60
    26e9: 85 18        	sta	$18                     ; 0x2018 <launchBeat+0x93>
    26eb: a0 05        	ldy	#$5
    26ed: b1 12        	lda	($12),y                 ; 0x2012 <launchBeat+0x8d>
    26ef: a4 18        	ldy	$18                     ; 0x2018 <launchBeat+0x93>
    26f1: 8c 80 d5     	sty	$d580                   ; 0xd580 <end_block9+0x8e9c>
    26f4: 8d 81 d5     	sta	$d581                   ; 0xd581 <end_block9+0x8e9d>
    26f7: a0 04        	ldy	#$4
    26f9: b1 12        	lda	($12),y                 ; 0x2012 <launchBeat+0x8d>
    26fb: 85 16        	sta	$16                     ; 0x2016 <launchBeat+0x91>
    26fd: a5 17        	lda	$17                     ; 0x2017 <launchBeat+0x92>
    26ff: 09 60        	ora	#$60
    2701: 92 14        	sta	($14)                   ; 0x2014 <launchBeat+0x8f>
    2703: a4 16        	ldy	$16                     ; 0x2016 <launchBeat+0x91>
    2705: 8c 81 d5     	sty	$d581                   ; 0xd581 <end_block9+0x8e9d>
    2708: 8a           	txa
    2709: 09 80        	ora	#$80
    270b: 85 18        	sta	$18                     ; 0x2018 <launchBeat+0x93>
    270d: a0 07        	ldy	#$7
    270f: b1 12        	lda	($12),y                 ; 0x2012 <launchBeat+0x8d>
    2711: a4 18        	ldy	$18                     ; 0x2018 <launchBeat+0x93>
    2713: 8c 80 d5     	sty	$d580                   ; 0xd580 <end_block9+0x8e9c>
    2716: 8d 81 d5     	sta	$d581                   ; 0xd581 <end_block9+0x8e9d>
    2719: a0 06        	ldy	#$6
    271b: b1 12        	lda	($12),y                 ; 0x2012 <launchBeat+0x8d>
    271d: 85 16        	sta	$16                     ; 0x2016 <launchBeat+0x91>
    271f: a5 17        	lda	$17                     ; 0x2017 <launchBeat+0x92>
    2721: 09 80        	ora	#$80
    2723: 92 14        	sta	($14)                   ; 0x2014 <launchBeat+0x8f>
    2725: a4 16        	ldy	$16                     ; 0x2016 <launchBeat+0x91>
    2727: 8c 81 d5     	sty	$d581                   ; 0xd581 <end_block9+0x8e9d>
    272a: 8a           	txa
    272b: 09 e0        	ora	#$e0
    272d: aa           	tax
    272e: a0 09        	ldy	#$9
    2730: b1 12        	lda	($12),y                 ; 0x2012 <launchBeat+0x8d>
    2732: 8e 80 d5     	stx	$d580                   ; 0xd580 <end_block9+0x8e9c>
    2735: 8d 81 d5     	sta	$d581                   ; 0xd581 <end_block9+0x8e9d>
    2738: 88           	dey
    2739: b1 12        	lda	($12),y                 ; 0x2012 <launchBeat+0x8d>
    273b: 85 12        	sta	$12                     ; 0x2012 <launchBeat+0x8d>
    273d: a5 17        	lda	$17                     ; 0x2017 <launchBeat+0x92>
    273f: 09 e0        	ora	#$e0
    2741: 92 14        	sta	($14)                   ; 0x2014 <launchBeat+0x8f>
    2743: a6 12        	ldx	$12                     ; 0x2012 <launchBeat+0x8d>
    2745: 8e 81 d5     	stx	$d581                   ; 0xd581 <end_block9+0x8e9d>
    2748: 60           	rts

00002749 <sid_setInstrument>:
    2749: a8           	tay
    274a: a9 00        	lda	#$0
    274c: 85 97        	sta	$97                     ; 0x2097 <launchBeat+0x112>
    274e: 98           	tya
    274f: f0 04        	beq	$2755 <sid_setInstrument+0xc>
    2751: a0 d5        	ldy	#$d5
    2753: 80 02        	bra	$2757 <sid_setInstrument+0xe>
    2755: a0 d4        	ldy	#$d4
    2757: 84 98        	sty	$98                     ; 0x2098 <launchBeat+0x113>
    2759: e0 02        	cpx	#$2
    275b: f0 08        	beq	$2765 <sid_setInstrument+0x1c>
    275d: e0 01        	cpx	#$1
    275f: d0 08        	bne	$2769 <sid_setInstrument+0x20>
    2761: a2 07        	ldx	#$7
    2763: 80 02        	bra	$2767 <sid_setInstrument+0x1e>
    2765: a2 0e        	ldx	#$e
    2767: 86 97        	stx	$97                     ; 0x2097 <launchBeat+0x112>
    2769: a0 01        	ldy	#$1
    276b: b1 12        	lda	($12),y                 ; 0x2012 <launchBeat+0x8d>
    276d: 85 17        	sta	$17                     ; 0x2017 <launchBeat+0x92>
    276f: a6 97        	ldx	$97                     ; 0x2097 <launchBeat+0x112>
    2771: 86 16        	stx	$16                     ; 0x2016 <launchBeat+0x91>
    2773: 8a           	txa
    2774: 18           	clc
    2775: 69 02        	adc	#$2
    2777: 85 14        	sta	$14                     ; 0x2014 <launchBeat+0x8f>
    2779: a6 98        	ldx	$98                     ; 0x2098 <launchBeat+0x113>
    277b: 8a           	txa
    277c: 69 00        	adc	#$0
    277e: 85 15        	sta	$15                     ; 0x2015 <launchBeat+0x90>
    2780: a5 17        	lda	$17                     ; 0x2017 <launchBeat+0x92>
    2782: 92 14        	sta	($14)                   ; 0x2014 <launchBeat+0x8f>
    2784: c8           	iny
    2785: b1 12        	lda	($12),y                 ; 0x2012 <launchBeat+0x8d>
    2787: 85 17        	sta	$17                     ; 0x2017 <launchBeat+0x92>
    2789: a5 16        	lda	$16                     ; 0x2016 <launchBeat+0x91>
    278b: 18           	clc
    278c: 69 03        	adc	#$3
    278e: 85 14        	sta	$14                     ; 0x2014 <launchBeat+0x8f>
    2790: 8a           	txa
    2791: 69 00        	adc	#$0
    2793: 85 15        	sta	$15                     ; 0x2015 <launchBeat+0x90>
    2795: a5 17        	lda	$17                     ; 0x2017 <launchBeat+0x92>
    2797: 92 14        	sta	($14)                   ; 0x2014 <launchBeat+0x8f>
    2799: c8           	iny
    279a: b1 12        	lda	($12),y                 ; 0x2012 <launchBeat+0x8d>
    279c: 85 17        	sta	$17                     ; 0x2017 <launchBeat+0x92>
    279e: a5 16        	lda	$16                     ; 0x2016 <launchBeat+0x91>
    27a0: 18           	clc
    27a1: 69 05        	adc	#$5
    27a3: 85 14        	sta	$14                     ; 0x2014 <launchBeat+0x8f>
    27a5: 8a           	txa
    27a6: 69 00        	adc	#$0
    27a8: 85 15        	sta	$15                     ; 0x2015 <launchBeat+0x90>
    27aa: a5 17        	lda	$17                     ; 0x2017 <launchBeat+0x92>
    27ac: 92 14        	sta	($14)                   ; 0x2014 <launchBeat+0x8f>
    27ae: a5 16        	lda	$16                     ; 0x2016 <launchBeat+0x91>
    27b0: 18           	clc
    27b1: 69 06        	adc	#$6
    27b3: 85 14        	sta	$14                     ; 0x2014 <launchBeat+0x8f>
    27b5: 8a           	txa
    27b6: 69 00        	adc	#$0
    27b8: 18           	clc
    27b9: 85 15        	sta	$15                     ; 0x2015 <launchBeat+0x90>
    27bb: c8           	iny
    27bc: b1 12        	lda	($12),y                 ; 0x2012 <launchBeat+0x8d>
    27be: 92 14        	sta	($14)                   ; 0x2014 <launchBeat+0x8f>
    27c0: a5 16        	lda	$16                     ; 0x2016 <launchBeat+0x91>
    27c2: 69 04        	adc	#$4
    27c4: 85 14        	sta	$14                     ; 0x2014 <launchBeat+0x8f>
    27c6: 8a           	txa
    27c7: 69 00        	adc	#$0
    27c9: 85 15        	sta	$15                     ; 0x2015 <launchBeat+0x90>
    27cb: c8           	iny
    27cc: b1 12        	lda	($12),y                 ; 0x2012 <launchBeat+0x8d>
    27ce: 92 14        	sta	($14)                   ; 0x2014 <launchBeat+0x8f>
    27d0: 60           	rts

000027d1 <setupMem4ABeat>:
    27d1: 85 18        	sta	$18                     ; 0x2018 <launchBeat+0x93>
    27d3: 0a           	asl
    27d4: a8           	tay
    27d5: a9 00        	lda	#$0
    27d7: 2a           	rol
    27d8: 84 19        	sty	$19                     ; 0x2019 <launchBeat+0x94>
    27da: 06 19        	asl	$19                     ; 0x2019 <launchBeat+0x94>
    27dc: 2a           	rol
    27dd: 06 19        	asl	$19                     ; 0x2019 <launchBeat+0x94>
    27df: 2a           	rol
    27e0: 06 19        	asl	$19                     ; 0x2019 <launchBeat+0x94>
    27e2: 2a           	rol
    27e3: a8           	tay
    27e4: 38           	sec
    27e5: a5 19        	lda	$19                     ; 0x2019 <launchBeat+0x94>
    27e7: e5 18        	sbc	$18                     ; 0x2018 <launchBeat+0x93>
    27e9: 85 19        	sta	$19                     ; 0x2019 <launchBeat+0x94>
    27eb: 98           	tya
    27ec: e9 00        	sbc	#$0
    27ee: 85 18        	sta	$18                     ; 0x2018 <launchBeat+0x93>
    27f0: 18           	clc
    27f1: a5 19        	lda	$19                     ; 0x2019 <launchBeat+0x94>
    27f3: 65 12        	adc	$12                     ; 0x2012 <launchBeat+0x8d>
    27f5: a8           	tay
    27f6: a5 13        	lda	$13                     ; 0x2013 <launchBeat+0x8e>
    27f8: 65 18        	adc	$18                     ; 0x2018 <launchBeat+0x93>
    27fa: 85 99        	sta	$99                     ; 0x2099 <launchBeat+0x114>
    27fc: 84 97        	sty	$97                     ; 0x2097 <launchBeat+0x112>
    27fe: 84 9b        	sty	$9b                     ; 0x209b <launchBeat+0x116>
    2800: 85 98        	sta	$98                     ; 0x2098 <launchBeat+0x113>
    2802: a0 05        	ldy	#$5
    2804: a5 14        	lda	$14                     ; 0x2014 <launchBeat+0x8f>
    2806: 91 97        	sta	($97),y                 ; 0x2097 <launchBeat+0x112>
    2808: a0 03        	ldy	#$3
    280a: a9 78        	lda	#$78
    280c: 91 97        	sta	($97),y                 ; 0x2097 <launchBeat+0x112>
    280e: 18           	clc
    280f: a5 9b        	lda	$9b                     ; 0x209b <launchBeat+0x116>
    2811: 69 05        	adc	#$5
    2813: 85 12        	sta	$12                     ; 0x2012 <launchBeat+0x8d>
    2815: a5 99        	lda	$99                     ; 0x2099 <launchBeat+0x114>
    2817: 69 00        	adc	#$0
    2819: 85 13        	sta	$13                     ; 0x2013 <launchBeat+0x8e>
    281b: a5 17        	lda	$17                     ; 0x2017 <launchBeat+0x92>
    281d: 91 12        	sta	($12),y                 ; 0x2012 <launchBeat+0x8d>
    281f: 88           	dey
    2820: a5 16        	lda	$16                     ; 0x2016 <launchBeat+0x91>
    2822: 91 12        	sta	($12),y                 ; 0x2012 <launchBeat+0x8d>
    2824: a9 00        	lda	#$0
    2826: 91 97        	sta	($97),y                 ; 0x2097 <launchBeat+0x112>
    2828: a0 04        	ldy	#$4
    282a: 8a           	txa
    282b: 91 97        	sta	($97),y                 ; 0x2097 <launchBeat+0x112>
    282d: 86 14        	stx	$14                     ; 0x2014 <launchBeat+0x8f>
    282f: a0 01        	ldy	#$1
    2831: a5 15        	lda	$15                     ; 0x2015 <launchBeat+0x90>
    2833: 91 12        	sta	($12),y                 ; 0x2012 <launchBeat+0x8d>
    2835: a9 00        	lda	#$0
    2837: 92 97        	sta	($97)                   ; 0x2097 <launchBeat+0x112>
    2839: 91 97        	sta	($97),y                 ; 0x2097 <launchBeat+0x112>
    283b: aa           	tax
    283c: a5 14        	lda	$14                     ; 0x2014 <launchBeat+0x8f>
    283e: 85 9c        	sta	$9c                     ; 0x209c <launchBeat+0x117>
    2840: 20 f0 3d     	jsr	$3df0 <malloc>
    2843: a0 09        	ldy	#$9
    2845: a6 9b        	ldx	$9b                     ; 0x209b <launchBeat+0x116>
    2847: 86 9a        	stx	$9a                     ; 0x209a <launchBeat+0x115>
    2849: a5 9b        	lda	$9b                     ; 0x209b <launchBeat+0x116>
    284b: 18           	clc
    284c: 69 09        	adc	#$9
    284e: 85 14        	sta	$14                     ; 0x2014 <launchBeat+0x8f>
    2850: a5 12        	lda	$12                     ; 0x2012 <launchBeat+0x8d>
    2852: 91 97        	sta	($97),y                 ; 0x2097 <launchBeat+0x112>
    2854: a6 99        	ldx	$99                     ; 0x2099 <launchBeat+0x114>
    2856: 86 9b        	stx	$9b                     ; 0x209b <launchBeat+0x116>
    2858: a5 99        	lda	$99                     ; 0x2099 <launchBeat+0x114>
    285a: 69 00        	adc	#$0
    285c: 85 15        	sta	$15                     ; 0x2015 <launchBeat+0x90>
    285e: a5 13        	lda	$13                     ; 0x2013 <launchBeat+0x8e>
    2860: a0 01        	ldy	#$1
    2862: 91 14        	sta	($14),y                 ; 0x2014 <launchBeat+0x8f>
    2864: a2 00        	ldx	#$0
    2866: 86 14        	stx	$14                     ; 0x2014 <launchBeat+0x8f>
    2868: a2 00        	ldx	#$0
    286a: 86 15        	stx	$15                     ; 0x2015 <launchBeat+0x90>
    286c: a6 13        	ldx	$13                     ; 0x2013 <launchBeat+0x8e>
    286e: e4 15        	cpx	$15                     ; 0x2015 <launchBeat+0x90>
    2870: d0 09        	bne	$287b <setupMem4ABeat+0xaa>
    2872: a6 12        	ldx	$12                     ; 0x2012 <launchBeat+0x8d>
    2874: e4 14        	cpx	$14                     ; 0x2014 <launchBeat+0x8f>
    2876: d0 03        	bne	$287b <setupMem4ABeat+0xaa>
    2878: a9 ff        	lda	#$ff
    287a: 60           	rts
    287b: a2 00        	ldx	#$0
    287d: a5 9c        	lda	$9c                     ; 0x209c <launchBeat+0x117>
    287f: 20 f0 3d     	jsr	$3df0 <malloc>
    2882: 18           	clc
    2883: a5 9a        	lda	$9a                     ; 0x209a <launchBeat+0x115>
    2885: 69 0b        	adc	#$b
    2887: 85 14        	sta	$14                     ; 0x2014 <launchBeat+0x8f>
    2889: a5 99        	lda	$99                     ; 0x2099 <launchBeat+0x114>
    288b: 69 00        	adc	#$0
    288d: a0 0b        	ldy	#$b
    288f: 85 15        	sta	$15                     ; 0x2015 <launchBeat+0x90>
    2891: a5 12        	lda	$12                     ; 0x2012 <launchBeat+0x8d>
    2893: 91 97        	sta	($97),y                 ; 0x2097 <launchBeat+0x112>
    2895: a5 13        	lda	$13                     ; 0x2013 <launchBeat+0x8e>
    2897: a0 01        	ldy	#$1
    2899: 91 14        	sta	($14),y                 ; 0x2014 <launchBeat+0x8f>
    289b: a2 00        	ldx	#$0
    289d: 86 14        	stx	$14                     ; 0x2014 <launchBeat+0x8f>
    289f: a2 00        	ldx	#$0
    28a1: 86 15        	stx	$15                     ; 0x2015 <launchBeat+0x90>
    28a3: a6 13        	ldx	$13                     ; 0x2013 <launchBeat+0x8e>
    28a5: e4 15        	cpx	$15                     ; 0x2015 <launchBeat+0x90>
    28a7: d0 0b        	bne	$28b4 <setupMem4ABeat+0xe3>
    28a9: a6 12        	ldx	$12                     ; 0x2012 <launchBeat+0x8d>
    28ab: a9 ff        	lda	#$ff
    28ad: e4 14        	cpx	$14                     ; 0x2014 <launchBeat+0x8f>
    28af: d0 03        	bne	$28b4 <setupMem4ABeat+0xe3>
    28b1: 4c 98 29     	jmp	$2998 <setupMem4ABeat+0x1c7>
    28b4: a5 9c        	lda	$9c                     ; 0x209c <launchBeat+0x117>
    28b6: 0a           	asl
    28b7: 85 12        	sta	$12                     ; 0x2012 <launchBeat+0x8d>
    28b9: a9 00        	lda	#$0
    28bb: 2a           	rol
    28bc: 85 13        	sta	$13                     ; 0x2013 <launchBeat+0x8e>
    28be: a5 9c        	lda	$9c                     ; 0x209c <launchBeat+0x117>
    28c0: 18           	clc
    28c1: 65 12        	adc	$12                     ; 0x2012 <launchBeat+0x8d>
    28c3: a8           	tay
    28c4: a5 13        	lda	$13                     ; 0x2013 <launchBeat+0x8e>
    28c6: 69 00        	adc	#$0
    28c8: aa           	tax
    28c9: 98           	tya
    28ca: 20 f0 3d     	jsr	$3df0 <malloc>
    28cd: a0 0d        	ldy	#$d
    28cf: a5 9a        	lda	$9a                     ; 0x209a <launchBeat+0x115>
    28d1: 18           	clc
    28d2: 69 0d        	adc	#$d
    28d4: 85 14        	sta	$14                     ; 0x2014 <launchBeat+0x8f>
    28d6: a5 12        	lda	$12                     ; 0x2012 <launchBeat+0x8d>
    28d8: 91 97        	sta	($97),y                 ; 0x2097 <launchBeat+0x112>
    28da: a5 99        	lda	$99                     ; 0x2099 <launchBeat+0x114>
    28dc: 69 00        	adc	#$0
    28de: 85 15        	sta	$15                     ; 0x2015 <launchBeat+0x90>
    28e0: a5 13        	lda	$13                     ; 0x2013 <launchBeat+0x8e>
    28e2: a0 01        	ldy	#$1
    28e4: 91 14        	sta	($14),y                 ; 0x2014 <launchBeat+0x8f>
    28e6: a2 00        	ldx	#$0
    28e8: 86 14        	stx	$14                     ; 0x2014 <launchBeat+0x8f>
    28ea: a2 00        	ldx	#$0
    28ec: 86 15        	stx	$15                     ; 0x2015 <launchBeat+0x90>
    28ee: a6 13        	ldx	$13                     ; 0x2013 <launchBeat+0x8e>
    28f0: e4 15        	cpx	$15                     ; 0x2015 <launchBeat+0x90>
    28f2: d0 0b        	bne	$28ff <setupMem4ABeat+0x12e>
    28f4: a6 12        	ldx	$12                     ; 0x2012 <launchBeat+0x8d>
    28f6: a9 ff        	lda	#$ff
    28f8: e4 14        	cpx	$14                     ; 0x2014 <launchBeat+0x8f>
    28fa: d0 03        	bne	$28ff <setupMem4ABeat+0x12e>
    28fc: 4c 98 29     	jmp	$2998 <setupMem4ABeat+0x1c7>
    28ff: a2 02        	ldx	#$2
    2901: 64 15        	stz	$15                     ; 0x2015 <launchBeat+0x90>
    2903: 64 16        	stz	$16                     ; 0x2016 <launchBeat+0x91>
    2905: a5 9a        	lda	$9a                     ; 0x209a <launchBeat+0x115>
    2907: 18           	clc
    2908: 69 09        	adc	#$9
    290a: 85 12        	sta	$12                     ; 0x2012 <launchBeat+0x8d>
    290c: a5 99        	lda	$99                     ; 0x2099 <launchBeat+0x114>
    290e: 69 00        	adc	#$0
    2910: 85 13        	sta	$13                     ; 0x2013 <launchBeat+0x8e>
    2912: a0 09        	ldy	#$9
    2914: b1 97        	lda	($97),y                 ; 0x2097 <launchBeat+0x112>
    2916: 85 17        	sta	$17                     ; 0x2017 <launchBeat+0x92>
    2918: a0 01        	ldy	#$1
    291a: b1 12        	lda	($12),y                 ; 0x2012 <launchBeat+0x8d>
    291c: a4 17        	ldy	$17                     ; 0x2017 <launchBeat+0x92>
    291e: 84 12        	sty	$12                     ; 0x2012 <launchBeat+0x8d>
    2920: 85 13        	sta	$13                     ; 0x2013 <launchBeat+0x8e>
    2922: a9 00        	lda	#$0
    2924: a4 16        	ldy	$16                     ; 0x2016 <launchBeat+0x91>
    2926: 91 12        	sta	($12),y                 ; 0x2012 <launchBeat+0x8d>
    2928: a5 9a        	lda	$9a                     ; 0x209a <launchBeat+0x115>
    292a: 18           	clc
    292b: 69 0b        	adc	#$b
    292d: 85 12        	sta	$12                     ; 0x2012 <launchBeat+0x8d>
    292f: a5 99        	lda	$99                     ; 0x2099 <launchBeat+0x114>
    2931: 69 00        	adc	#$0
    2933: 85 13        	sta	$13                     ; 0x2013 <launchBeat+0x8e>
    2935: a0 0b        	ldy	#$b
    2937: b1 97        	lda	($97),y                 ; 0x2097 <launchBeat+0x112>
    2939: 85 17        	sta	$17                     ; 0x2017 <launchBeat+0x92>
    293b: a0 01        	ldy	#$1
    293d: b1 12        	lda	($12),y                 ; 0x2012 <launchBeat+0x8d>
    293f: a4 17        	ldy	$17                     ; 0x2017 <launchBeat+0x92>
    2941: 84 12        	sty	$12                     ; 0x2012 <launchBeat+0x8d>
    2943: 85 13        	sta	$13                     ; 0x2013 <launchBeat+0x8e>
    2945: a4 16        	ldy	$16                     ; 0x2016 <launchBeat+0x91>
    2947: a9 00        	lda	#$0
    2949: 91 12        	sta	($12),y                 ; 0x2012 <launchBeat+0x8d>
    294b: a5 9a        	lda	$9a                     ; 0x209a <launchBeat+0x115>
    294d: 18           	clc
    294e: 69 0d        	adc	#$d
    2950: 85 12        	sta	$12                     ; 0x2012 <launchBeat+0x8d>
    2952: a5 99        	lda	$99                     ; 0x2099 <launchBeat+0x114>
    2954: 69 00        	adc	#$0
    2956: 85 13        	sta	$13                     ; 0x2013 <launchBeat+0x8e>
    2958: a0 0d        	ldy	#$d
    295a: b1 97        	lda	($97),y                 ; 0x2097 <launchBeat+0x112>
    295c: 85 17        	sta	$17                     ; 0x2017 <launchBeat+0x92>
    295e: a0 01        	ldy	#$1
    2960: b1 12        	lda	($12),y                 ; 0x2012 <launchBeat+0x8d>
    2962: a4 17        	ldy	$17                     ; 0x2017 <launchBeat+0x92>
    2964: 84 12        	sty	$12                     ; 0x2012 <launchBeat+0x8d>
    2966: 85 13        	sta	$13                     ; 0x2013 <launchBeat+0x8e>
    2968: a4 15        	ldy	$15                     ; 0x2015 <launchBeat+0x90>
    296a: a9 00        	lda	#$0
    296c: 91 12        	sta	($12),y                 ; 0x2012 <launchBeat+0x8d>
    296e: 18           	clc
    296f: a5 16        	lda	$16                     ; 0x2016 <launchBeat+0x91>
    2971: 69 1e        	adc	#$1e
    2973: da           	phx
    2974: 7a           	ply
    2975: 91 12        	sta	($12),y                 ; 0x2012 <launchBeat+0x8d>
    2977: a4 16        	ldy	$16                     ; 0x2016 <launchBeat+0x91>
    2979: 84 12        	sty	$12                     ; 0x2012 <launchBeat+0x8d>
    297b: e6 12        	inc	$12                     ; 0x2012 <launchBeat+0x8d>
    297d: 18           	clc
    297e: 8a           	txa
    297f: 69 03        	adc	#$3
    2981: aa           	tax
    2982: 18           	clc
    2983: a5 15        	lda	$15                     ; 0x2015 <launchBeat+0x90>
    2985: 69 03        	adc	#$3
    2987: 85 15        	sta	$15                     ; 0x2015 <launchBeat+0x90>
    2989: a4 12        	ldy	$12                     ; 0x2012 <launchBeat+0x8d>
    298b: 84 16        	sty	$16                     ; 0x2016 <launchBeat+0x91>
    298d: a4 9c        	ldy	$9c                     ; 0x209c <launchBeat+0x117>
    298f: c4 12        	cpy	$12                     ; 0x2012 <launchBeat+0x8d>
    2991: f0 03        	beq	$2996 <setupMem4ABeat+0x1c5>
    2993: 4c 05 29     	jmp	$2905 <setupMem4ABeat+0x134>
    2996: a9 00        	lda	#$0
    2998: 60           	rts

00002999 <getBeatTrackNoteInfo>:
    2999: 48           	pha
    299a: 18           	clc
    299b: a5 10        	lda	$10                     ; 0x2010 <launchBeat+0x8b>
    299d: 69 fb        	adc	#$fb
    299f: 85 10        	sta	$10                     ; 0x2010 <launchBeat+0x8b>
    29a1: a5 11        	lda	$11                     ; 0x2011 <launchBeat+0x8c>
    29a3: 69 ff        	adc	#$ff
    29a5: 85 11        	sta	$11                     ; 0x2011 <launchBeat+0x8c>
    29a7: 68           	pla
    29a8: a4 24        	ldy	$24                     ; 0x2024 <launchBeat+0x9f>
    29aa: 5a           	phy
    29ab: a4 25        	ldy	$25                     ; 0x2025 <launchBeat+0xa0>
    29ad: 5a           	phy
    29ae: a4 26        	ldy	$26                     ; 0x2026 <launchBeat+0xa1>
    29b0: 5a           	phy
    29b1: a4 27        	ldy	$27                     ; 0x2027 <launchBeat+0xa2>
    29b3: 5a           	phy
    29b4: 48           	pha
    29b5: a5 28        	lda	$28                     ; 0x2028 <launchBeat+0xa3>
    29b7: a0 04        	ldy	#$4
    29b9: 91 10        	sta	($10),y                 ; 0x2010 <launchBeat+0x8b>
    29bb: a5 29        	lda	$29                     ; 0x2029 <launchBeat+0xa4>
    29bd: 88           	dey
    29be: 91 10        	sta	($10),y                 ; 0x2010 <launchBeat+0x8b>
    29c0: a5 2a        	lda	$2a                     ; 0x202a <launchBeat+0xa5>
    29c2: 88           	dey
    29c3: 91 10        	sta	($10),y                 ; 0x2010 <launchBeat+0x8b>
    29c5: a5 2b        	lda	$2b                     ; 0x202b <launchBeat+0xa6>
    29c7: 88           	dey
    29c8: 91 10        	sta	($10),y                 ; 0x2010 <launchBeat+0x8b>
    29ca: a5 2c        	lda	$2c                     ; 0x202c <launchBeat+0xa7>
    29cc: 88           	dey
    29cd: 91 10        	sta	($10),y                 ; 0x2010 <launchBeat+0x8b>
    29cf: 68           	pla
    29d0: 85 1b        	sta	$1b                     ; 0x201b <launchBeat+0x96>
    29d2: 86 24        	stx	$24                     ; 0x2024 <launchBeat+0x9f>
    29d4: 0a           	asl
    29d5: 64 1a        	stz	$1a                     ; 0x201a <launchBeat+0x95>
    29d7: a2 00        	ldx	#$0
    29d9: 64 1c        	stz	$1c                     ; 0x201c <launchBeat+0x97>
    29db: 26 1c        	rol	$1c                     ; 0x201c <launchBeat+0x97>
    29dd: 0a           	asl
    29de: 26 1c        	rol	$1c                     ; 0x201c <launchBeat+0x97>
    29e0: 0a           	asl
    29e1: 26 1c        	rol	$1c                     ; 0x201c <launchBeat+0x97>
    29e3: 0a           	asl
    29e4: 26 1c        	rol	$1c                     ; 0x201c <launchBeat+0x97>
    29e6: 38           	sec
    29e7: e5 1b        	sbc	$1b                     ; 0x201b <launchBeat+0x96>
    29e9: aa           	tax
    29ea: a5 1c        	lda	$1c                     ; 0x201c <launchBeat+0x97>
    29ec: e9 00        	sbc	#$0
    29ee: 85 1b        	sta	$1b                     ; 0x201b <launchBeat+0x96>
    29f0: 18           	clc
    29f1: 8a           	txa
    29f2: 65 12        	adc	$12                     ; 0x2012 <launchBeat+0x8d>
    29f4: a8           	tay
    29f5: a5 13        	lda	$13                     ; 0x2013 <launchBeat+0x8e>
    29f7: 65 1b        	adc	$1b                     ; 0x201b <launchBeat+0x96>
    29f9: 84 22        	sty	$22                     ; 0x2022 <launchBeat+0x9d>
    29fb: 84 12        	sty	$12                     ; 0x2012 <launchBeat+0x8d>
    29fd: 85 23        	sta	$23                     ; 0x2023 <launchBeat+0x9e>
    29ff: 85 13        	sta	$13                     ; 0x2013 <launchBeat+0x8e>
    2a01: a0 04        	ldy	#$4
    2a03: b1 12        	lda	($12),y                 ; 0x2012 <launchBeat+0x8d>
    2a05: d0 03        	bne	$2a0a <getBeatTrackNoteInfo+0x71>
    2a07: 4c f7 2b     	jmp	$2bf7 <getBeatTrackNoteInfo+0x25e>
    2a0a: a0 05        	ldy	#$5
    2a0c: a5 22        	lda	$22                     ; 0x2022 <launchBeat+0x9d>
    2a0e: 18           	clc
    2a0f: 69 05        	adc	#$5
    2a11: 85 1c        	sta	$1c                     ; 0x201c <launchBeat+0x97>
    2a13: a5 23        	lda	$23                     ; 0x2023 <launchBeat+0x9e>
    2a15: 69 00        	adc	#$0
    2a17: 85 1d        	sta	$1d                     ; 0x201d <launchBeat+0x98>
    2a19: b1 12        	lda	($12),y                 ; 0x2012 <launchBeat+0x8d>
    2a1b: 85 25        	sta	$25                     ; 0x2025 <launchBeat+0xa0>
    2a1d: a0 01        	ldy	#$1
    2a1f: b1 1c        	lda	($1c),y                 ; 0x201c <launchBeat+0x97>
    2a21: 85 26        	sta	$26                     ; 0x2026 <launchBeat+0xa1>
    2a23: c8           	iny
    2a24: b1 1c        	lda	($1c),y                 ; 0x201c <launchBeat+0x97>
    2a26: 85 27        	sta	$27                     ; 0x2027 <launchBeat+0xa2>
    2a28: c8           	iny
    2a29: b1 1c        	lda	($1c),y                 ; 0x201c <launchBeat+0x97>
    2a2b: 85 28        	sta	$28                     ; 0x2028 <launchBeat+0xa3>
    2a2d: 80 37        	bra	$2a66 <getBeatTrackNoteInfo+0xcd>
    2a2f: 0a           	asl
    2a30: 64 1c        	stz	$1c                     ; 0x201c <launchBeat+0x97>
    2a32: 26 1c        	rol	$1c                     ; 0x201c <launchBeat+0x97>
    2a34: 18           	clc
    2a35: 69 04        	adc	#$4
    2a37: 85 1b        	sta	$1b                     ; 0x201b <launchBeat+0x96>
    2a39: a5 1c        	lda	$1c                     ; 0x201c <launchBeat+0x97>
    2a3b: 69 00        	adc	#$0
    2a3d: 85 1c        	sta	$1c                     ; 0x201c <launchBeat+0x97>
    2a3f: 18           	clc
    2a40: a5 2b        	lda	$2b                     ; 0x202b <launchBeat+0xa6>
    2a42: 65 1b        	adc	$1b                     ; 0x201b <launchBeat+0x96>
    2a44: 85 25        	sta	$25                     ; 0x2025 <launchBeat+0xa0>
    2a46: a5 2a        	lda	$2a                     ; 0x202a <launchBeat+0xa5>
    2a48: 65 1c        	adc	$1c                     ; 0x201c <launchBeat+0x97>
    2a4a: 85 26        	sta	$26                     ; 0x2026 <launchBeat+0xa1>
    2a4c: a5 29        	lda	$29                     ; 0x2029 <launchBeat+0xa4>
    2a4e: 69 00        	adc	#$0
    2a50: 85 27        	sta	$27                     ; 0x2027 <launchBeat+0xa2>
    2a52: a5 28        	lda	$28                     ; 0x2028 <launchBeat+0xa3>
    2a54: 69 00        	adc	#$0
    2a56: 85 28        	sta	$28                     ; 0x2028 <launchBeat+0xa3>
    2a58: a5 1a        	lda	$1a                     ; 0x201a <launchBeat+0x95>
    2a5a: 1a           	inc
    2a5b: a0 04        	ldy	#$4
    2a5d: d1 12        	cmp	($12),y                 ; 0x2012 <launchBeat+0x8d>
    2a5f: 85 1a        	sta	$1a                     ; 0x201a <launchBeat+0x95>
    2a61: 90 03        	bcc	$2a66 <getBeatTrackNoteInfo+0xcd>
    2a63: 4c f7 2b     	jmp	$2bf7 <getBeatTrackNoteInfo+0x25e>
    2a66: 18           	clc
    2a67: a6 25        	ldx	$25                     ; 0x2025 <launchBeat+0xa0>
    2a69: a5 25        	lda	$25                     ; 0x2025 <launchBeat+0xa0>
    2a6b: 69 03        	adc	#$3
    2a6d: 85 1c        	sta	$1c                     ; 0x201c <launchBeat+0x97>
    2a6f: 86 2b        	stx	$2b                     ; 0x202b <launchBeat+0xa6>
    2a71: a5 26        	lda	$26                     ; 0x2026 <launchBeat+0xa1>
    2a73: 85 2a        	sta	$2a                     ; 0x202a <launchBeat+0xa5>
    2a75: 69 00        	adc	#$0
    2a77: a8           	tay
    2a78: a5 27        	lda	$27                     ; 0x2027 <launchBeat+0xa2>
    2a7a: 85 29        	sta	$29                     ; 0x2029 <launchBeat+0xa4>
    2a7c: 69 00        	adc	#$0
    2a7e: 84 1b        	sty	$1b                     ; 0x201b <launchBeat+0x96>
    2a80: 06 1b        	asl	$1b                     ; 0x201b <launchBeat+0x96>
    2a82: 2a           	rol
    2a83: 06 1b        	asl	$1b                     ; 0x201b <launchBeat+0x96>
    2a85: 2a           	rol
    2a86: 06 1b        	asl	$1b                     ; 0x201b <launchBeat+0x96>
    2a88: 2a           	rol
    2a89: a6 0f        	ldx	$f                      ; 0x200f <launchBeat+0x8a>
    2a8b: 78           	sei
    2a8c: 85 25        	sta	$25                     ; 0x2025 <launchBeat+0xa0>
    2a8e: 85 0f        	sta	$f                      ; 0x200f <launchBeat+0x8a>
    2a90: 98           	tya
    2a91: 09 e0        	ora	#$e0
    2a93: 85 1d        	sta	$1d                     ; 0x201d <launchBeat+0x98>
    2a95: b2 1c        	lda	($1c)                   ; 0x201c <launchBeat+0x97>
    2a97: 85 1b        	sta	$1b                     ; 0x201b <launchBeat+0x96>
    2a99: 86 0f        	stx	$f                      ; 0x200f <launchBeat+0x8a>
    2a9b: 58           	cli
    2a9c: a6 24        	ldx	$24                     ; 0x2024 <launchBeat+0x9f>
    2a9e: e4 1a        	cpx	$1a                     ; 0x201a <launchBeat+0x95>
    2aa0: f0 03        	beq	$2aa5 <getBeatTrackNoteInfo+0x10c>
    2aa2: 4c 2f 2a     	jmp	$2a2f <getBeatTrackNoteInfo+0x96>
    2aa5: 86 2c        	stx	$2c                     ; 0x202c <launchBeat+0xa7>
    2aa7: a6 0f        	ldx	$f                      ; 0x200f <launchBeat+0x8a>
    2aa9: 78           	sei
    2aaa: a4 2a        	ldy	$2a                     ; 0x202a <launchBeat+0xa5>
    2aac: 84 1e        	sty	$1e                     ; 0x201e <launchBeat+0x99>
    2aae: 06 1e        	asl	$1e                     ; 0x201e <launchBeat+0x99>
    2ab0: a5 29        	lda	$29                     ; 0x2029 <launchBeat+0xa4>
    2ab2: 2a           	rol
    2ab3: 06 1e        	asl	$1e                     ; 0x201e <launchBeat+0x99>
    2ab5: 2a           	rol
    2ab6: 06 1e        	asl	$1e                     ; 0x201e <launchBeat+0x99>
    2ab8: 2a           	rol
    2ab9: 85 0f        	sta	$f                      ; 0x200f <launchBeat+0x8a>
    2abb: a5 2a        	lda	$2a                     ; 0x202a <launchBeat+0xa5>
    2abd: 09 e0        	ora	#$e0
    2abf: a4 2b        	ldy	$2b                     ; 0x202b <launchBeat+0xa6>
    2ac1: 84 1e        	sty	$1e                     ; 0x201e <launchBeat+0x99>
    2ac3: 85 1f        	sta	$1f                     ; 0x201f <launchBeat+0x9a>
    2ac5: b2 1e        	lda	($1e)                   ; 0x201e <launchBeat+0x99>
    2ac7: 86 0f        	stx	$f                      ; 0x200f <launchBeat+0x8a>
    2ac9: 58           	cli
    2aca: 92 18        	sta	($18)                   ; 0x2018 <launchBeat+0x93>
    2acc: a4 2a        	ldy	$2a                     ; 0x202a <launchBeat+0xa5>
    2ace: a5 29        	lda	$29                     ; 0x2029 <launchBeat+0xa4>
    2ad0: a6 28        	ldx	$28                     ; 0x2028 <launchBeat+0xa3>
    2ad2: e6 1e        	inc	$1e                     ; 0x201e <launchBeat+0x99>
    2ad4: d0 07        	bne	$2add <getBeatTrackNoteInfo+0x144>
    2ad6: c8           	iny
    2ad7: d0 04        	bne	$2add <getBeatTrackNoteInfo+0x144>
    2ad9: 1a           	inc
    2ada: d0 01        	bne	$2add <getBeatTrackNoteInfo+0x144>
    2adc: e8           	inx
    2add: a6 0f        	ldx	$f                      ; 0x200f <launchBeat+0x8a>
    2adf: 78           	sei
    2ae0: 84 1f        	sty	$1f                     ; 0x201f <launchBeat+0x9a>
    2ae2: 06 1f        	asl	$1f                     ; 0x201f <launchBeat+0x9a>
    2ae4: 2a           	rol
    2ae5: 06 1f        	asl	$1f                     ; 0x201f <launchBeat+0x9a>
    2ae7: 2a           	rol
    2ae8: 06 1f        	asl	$1f                     ; 0x201f <launchBeat+0x9a>
    2aea: 2a           	rol
    2aeb: 85 0f        	sta	$f                      ; 0x200f <launchBeat+0x8a>
    2aed: 98           	tya
    2aee: 09 e0        	ora	#$e0
    2af0: 85 1f        	sta	$1f                     ; 0x201f <launchBeat+0x9a>
    2af2: b2 1e        	lda	($1e)                   ; 0x201e <launchBeat+0x99>
    2af4: 86 0f        	stx	$f                      ; 0x200f <launchBeat+0x8a>
    2af6: 58           	cli
    2af7: a0 01        	ldy	#$1
    2af9: 91 18        	sta	($18),y                 ; 0x2018 <launchBeat+0x93>
    2afb: a5 2b        	lda	$2b                     ; 0x202b <launchBeat+0xa6>
    2afd: 18           	clc
    2afe: 69 02        	adc	#$2
    2b00: a8           	tay
    2b01: a5 2a        	lda	$2a                     ; 0x202a <launchBeat+0xa5>
    2b03: 69 00        	adc	#$0
    2b05: 85 1f        	sta	$1f                     ; 0x201f <launchBeat+0x9a>
    2b07: a5 29        	lda	$29                     ; 0x2029 <launchBeat+0xa4>
    2b09: 69 00        	adc	#$0
    2b0b: a6 0f        	ldx	$f                      ; 0x200f <launchBeat+0x8a>
    2b0d: 78           	sei
    2b0e: 5a           	phy
    2b0f: a4 1f        	ldy	$1f                     ; 0x201f <launchBeat+0x9a>
    2b11: 84 1e        	sty	$1e                     ; 0x201e <launchBeat+0x99>
    2b13: 7a           	ply
    2b14: 06 1e        	asl	$1e                     ; 0x201e <launchBeat+0x99>
    2b16: 2a           	rol
    2b17: 06 1e        	asl	$1e                     ; 0x201e <launchBeat+0x99>
    2b19: 2a           	rol
    2b1a: 06 1e        	asl	$1e                     ; 0x201e <launchBeat+0x99>
    2b1c: 2a           	rol
    2b1d: 85 0f        	sta	$f                      ; 0x200f <launchBeat+0x8a>
    2b1f: a5 1f        	lda	$1f                     ; 0x201f <launchBeat+0x9a>
    2b21: 09 e0        	ora	#$e0
    2b23: 84 1e        	sty	$1e                     ; 0x201e <launchBeat+0x99>
    2b25: 85 1f        	sta	$1f                     ; 0x201f <launchBeat+0x9a>
    2b27: b2 1e        	lda	($1e)                   ; 0x201e <launchBeat+0x99>
    2b29: 86 0f        	stx	$f                      ; 0x200f <launchBeat+0x8a>
    2b2b: 58           	cli
    2b2c: a0 02        	ldy	#$2
    2b2e: 91 18        	sta	($18),y                 ; 0x2018 <launchBeat+0x93>
    2b30: a6 0f        	ldx	$f                      ; 0x200f <launchBeat+0x8a>
    2b32: 78           	sei
    2b33: a4 25        	ldy	$25                     ; 0x2025 <launchBeat+0xa0>
    2b35: 84 0f        	sty	$f                      ; 0x200f <launchBeat+0x8a>
    2b37: b2 1c        	lda	($1c)                   ; 0x201c <launchBeat+0x97>
    2b39: 86 0f        	stx	$f                      ; 0x200f <launchBeat+0x8a>
    2b3b: 58           	cli
    2b3c: a0 03        	ldy	#$3
    2b3e: 91 18        	sta	($18),y                 ; 0x2018 <launchBeat+0x93>
    2b40: a6 2b        	ldx	$2b                     ; 0x202b <launchBeat+0xa6>
    2b42: 86 25        	stx	$25                     ; 0x2025 <launchBeat+0xa0>
    2b44: a5 2b        	lda	$2b                     ; 0x202b <launchBeat+0xa6>
    2b46: 18           	clc
    2b47: 69 04        	adc	#$4
    2b49: 85 2b        	sta	$2b                     ; 0x202b <launchBeat+0xa6>
    2b4b: a5 2a        	lda	$2a                     ; 0x202a <launchBeat+0xa5>
    2b4d: 69 00        	adc	#$0
    2b4f: 85 2a        	sta	$2a                     ; 0x202a <launchBeat+0xa5>
    2b51: a5 29        	lda	$29                     ; 0x2029 <launchBeat+0xa4>
    2b53: 69 00        	adc	#$0
    2b55: 85 29        	sta	$29                     ; 0x2029 <launchBeat+0xa4>
    2b57: a5 22        	lda	$22                     ; 0x2022 <launchBeat+0x9d>
    2b59: 18           	clc
    2b5a: 69 09        	adc	#$9
    2b5c: 85 1c        	sta	$1c                     ; 0x201c <launchBeat+0x97>
    2b5e: a5 23        	lda	$23                     ; 0x2023 <launchBeat+0x9e>
    2b60: 69 00        	adc	#$0
    2b62: 85 1d        	sta	$1d                     ; 0x201d <launchBeat+0x98>
    2b64: a0 09        	ldy	#$9
    2b66: b1 12        	lda	($12),y                 ; 0x2012 <launchBeat+0x8d>
    2b68: 85 1e        	sta	$1e                     ; 0x201e <launchBeat+0x99>
    2b6a: a0 01        	ldy	#$1
    2b6c: b1 1c        	lda	($1c),y                 ; 0x201c <launchBeat+0x97>
    2b6e: 85 1f        	sta	$1f                     ; 0x201f <launchBeat+0x9a>
    2b70: 18           	clc
    2b71: a5 2b        	lda	$2b                     ; 0x202b <launchBeat+0xa6>
    2b73: a4 2c        	ldy	$2c                     ; 0x202c <launchBeat+0xa7>
    2b75: 71 1e        	adc	($1e),y                 ; 0x201e <launchBeat+0x99>
    2b77: a8           	tay
    2b78: a5 2a        	lda	$2a                     ; 0x202a <launchBeat+0xa5>
    2b7a: 69 00        	adc	#$0
    2b7c: 85 1f        	sta	$1f                     ; 0x201f <launchBeat+0x9a>
    2b7e: a5 29        	lda	$29                     ; 0x2029 <launchBeat+0xa4>
    2b80: 69 00        	adc	#$0
    2b82: a6 1f        	ldx	$1f                     ; 0x201f <launchBeat+0x9a>
    2b84: 86 1e        	stx	$1e                     ; 0x201e <launchBeat+0x99>
    2b86: 06 1e        	asl	$1e                     ; 0x201e <launchBeat+0x99>
    2b88: 2a           	rol
    2b89: 06 1e        	asl	$1e                     ; 0x201e <launchBeat+0x99>
    2b8b: 2a           	rol
    2b8c: 06 1e        	asl	$1e                     ; 0x201e <launchBeat+0x99>
    2b8e: 2a           	rol
    2b8f: a6 0f        	ldx	$f                      ; 0x200f <launchBeat+0x8a>
    2b91: 78           	sei
    2b92: 85 0f        	sta	$f                      ; 0x200f <launchBeat+0x8a>
    2b94: 84 1e        	sty	$1e                     ; 0x201e <launchBeat+0x99>
    2b96: a5 1f        	lda	$1f                     ; 0x201f <launchBeat+0x9a>
    2b98: 09 e0        	ora	#$e0
    2b9a: 85 1f        	sta	$1f                     ; 0x201f <launchBeat+0x9a>
    2b9c: b2 1e        	lda	($1e)                   ; 0x201e <launchBeat+0x99>
    2b9e: 86 0f        	stx	$f                      ; 0x200f <launchBeat+0x8a>
    2ba0: 58           	cli
    2ba1: 92 14        	sta	($14)                   ; 0x2014 <launchBeat+0x8f>
    2ba3: 18           	clc
    2ba4: a5 2b        	lda	$2b                     ; 0x202b <launchBeat+0xa6>
    2ba6: 65 1b        	adc	$1b                     ; 0x201b <launchBeat+0x96>
    2ba8: aa           	tax
    2ba9: a5 2a        	lda	$2a                     ; 0x202a <launchBeat+0xa5>
    2bab: 69 00        	adc	#$0
    2bad: 85 1b        	sta	$1b                     ; 0x201b <launchBeat+0x96>
    2baf: a5 29        	lda	$29                     ; 0x2029 <launchBeat+0xa4>
    2bb1: 69 00        	adc	#$0
    2bb3: 85 1e        	sta	$1e                     ; 0x201e <launchBeat+0x99>
    2bb5: a0 09        	ldy	#$9
    2bb7: b1 12        	lda	($12),y                 ; 0x2012 <launchBeat+0x8d>
    2bb9: 85 1f        	sta	$1f                     ; 0x201f <launchBeat+0x9a>
    2bbb: a0 01        	ldy	#$1
    2bbd: b1 1c        	lda	($1c),y                 ; 0x201c <launchBeat+0x97>
    2bbf: a4 1f        	ldy	$1f                     ; 0x201f <launchBeat+0x9a>
    2bc1: 84 1c        	sty	$1c                     ; 0x201c <launchBeat+0x97>
    2bc3: 85 1d        	sta	$1d                     ; 0x201d <launchBeat+0x98>
    2bc5: 18           	clc
    2bc6: a4 2c        	ldy	$2c                     ; 0x202c <launchBeat+0xa7>
    2bc8: 8a           	txa
    2bc9: 71 1c        	adc	($1c),y                 ; 0x201c <launchBeat+0x97>
    2bcb: 85 1c        	sta	$1c                     ; 0x201c <launchBeat+0x97>
    2bcd: a5 1b        	lda	$1b                     ; 0x201b <launchBeat+0x96>
    2bcf: 69 00        	adc	#$0
    2bd1: a8           	tay
    2bd2: a5 1e        	lda	$1e                     ; 0x201e <launchBeat+0x99>
    2bd4: 69 00        	adc	#$0
    2bd6: 85 1b        	sta	$1b                     ; 0x201b <launchBeat+0x96>
    2bd8: 98           	tya
    2bd9: 0a           	asl
    2bda: 26 1b        	rol	$1b                     ; 0x201b <launchBeat+0x96>
    2bdc: 0a           	asl
    2bdd: 26 1b        	rol	$1b                     ; 0x201b <launchBeat+0x96>
    2bdf: 0a           	asl
    2be0: a5 1b        	lda	$1b                     ; 0x201b <launchBeat+0x96>
    2be2: 2a           	rol
    2be3: a6 0f        	ldx	$f                      ; 0x200f <launchBeat+0x8a>
    2be5: 78           	sei
    2be6: 85 0f        	sta	$f                      ; 0x200f <launchBeat+0x8a>
    2be8: 98           	tya
    2be9: 09 e0        	ora	#$e0
    2beb: 85 1d        	sta	$1d                     ; 0x201d <launchBeat+0x98>
    2bed: b2 1c        	lda	($1c)                   ; 0x201c <launchBeat+0x97>
    2bef: 86 0f        	stx	$f                      ; 0x200f <launchBeat+0x8a>
    2bf1: 58           	cli
    2bf2: 92 16        	sta	($16)                   ; 0x2016 <launchBeat+0x91>
    2bf4: 4c 58 2a     	jmp	$2a58 <getBeatTrackNoteInfo+0xbf>
    2bf7: a0 00        	ldy	#$0
    2bf9: b1 10        	lda	($10),y                 ; 0x2010 <launchBeat+0x8b>
    2bfb: 85 2c        	sta	$2c                     ; 0x202c <launchBeat+0xa7>
    2bfd: c8           	iny
    2bfe: b1 10        	lda	($10),y                 ; 0x2010 <launchBeat+0x8b>
    2c00: 85 2b        	sta	$2b                     ; 0x202b <launchBeat+0xa6>
    2c02: c8           	iny
    2c03: b1 10        	lda	($10),y                 ; 0x2010 <launchBeat+0x8b>
    2c05: 85 2a        	sta	$2a                     ; 0x202a <launchBeat+0xa5>
    2c07: c8           	iny
    2c08: b1 10        	lda	($10),y                 ; 0x2010 <launchBeat+0x8b>
    2c0a: 85 29        	sta	$29                     ; 0x2029 <launchBeat+0xa4>
    2c0c: c8           	iny
    2c0d: b1 10        	lda	($10),y                 ; 0x2010 <launchBeat+0x8b>
    2c0f: 85 28        	sta	$28                     ; 0x2028 <launchBeat+0xa3>
    2c11: fa           	plx
    2c12: 86 27        	stx	$27                     ; 0x2027 <launchBeat+0xa2>
    2c14: fa           	plx
    2c15: 86 26        	stx	$26                     ; 0x2026 <launchBeat+0xa1>
    2c17: fa           	plx
    2c18: 86 25        	stx	$25                     ; 0x2025 <launchBeat+0xa0>
    2c1a: fa           	plx
    2c1b: 86 24        	stx	$24                     ; 0x2024 <launchBeat+0x9f>
    2c1d: 18           	clc
    2c1e: a5 10        	lda	$10                     ; 0x2010 <launchBeat+0x8b>
    2c20: 69 05        	adc	#$5
    2c22: 85 10        	sta	$10                     ; 0x2010 <launchBeat+0x8b>
    2c24: a5 11        	lda	$11                     ; 0x2011 <launchBeat+0x8c>
    2c26: 69 00        	adc	#$0
    2c28: 85 11        	sta	$11                     ; 0x2011 <launchBeat+0x8c>
    2c2a: 60           	rts

00002c2b <setupMem4Track>:
    2c2b: 85 1d        	sta	$1d                     ; 0x201d <launchBeat+0x98>
    2c2d: 86 1c        	stx	$1c                     ; 0x201c <launchBeat+0x97>
    2c2f: a0 01        	ldy	#$1
    2c31: b1 14        	lda	($14),y                 ; 0x2014 <launchBeat+0x8f>
    2c33: 85 1a        	sta	$1a                     ; 0x201a <launchBeat+0x95>
    2c35: 85 1b        	sta	$1b                     ; 0x201b <launchBeat+0x96>
    2c37: c8           	iny
    2c38: b1 14        	lda	($14),y                 ; 0x2014 <launchBeat+0x8f>
    2c3a: 06 1a        	asl	$1a                     ; 0x201a <launchBeat+0x95>
    2c3c: 2a           	rol
    2c3d: 06 1a        	asl	$1a                     ; 0x201a <launchBeat+0x95>
    2c3f: 2a           	rol
    2c40: 06 1a        	asl	$1a                     ; 0x201a <launchBeat+0x95>
    2c42: 2a           	rol
    2c43: a8           	tay
    2c44: b2 14        	lda	($14)                   ; 0x2014 <launchBeat+0x8f>
    2c46: a6 0f        	ldx	$f                      ; 0x200f <launchBeat+0x8a>
    2c48: 78           	sei
    2c49: 84 0f        	sty	$f                      ; 0x200f <launchBeat+0x8a>
    2c4b: 85 1a        	sta	$1a                     ; 0x201a <launchBeat+0x95>
    2c4d: a5 1b        	lda	$1b                     ; 0x201b <launchBeat+0x96>
    2c4f: 09 e0        	ora	#$e0
    2c51: 85 1b        	sta	$1b                     ; 0x201b <launchBeat+0x96>
    2c53: a5 1d        	lda	$1d                     ; 0x201d <launchBeat+0x98>
    2c55: 92 1a        	sta	($1a)                   ; 0x201a <launchBeat+0x95>
    2c57: 86 0f        	stx	$f                      ; 0x200f <launchBeat+0x8a>
    2c59: 58           	cli
    2c5a: b2 14        	lda	($14)                   ; 0x2014 <launchBeat+0x8f>
    2c5c: 85 1a        	sta	$1a                     ; 0x201a <launchBeat+0x95>
    2c5e: a0 01        	ldy	#$1
    2c60: b1 14        	lda	($14),y                 ; 0x2014 <launchBeat+0x8f>
    2c62: 85 1d        	sta	$1d                     ; 0x201d <launchBeat+0x98>
    2c64: c8           	iny
    2c65: b1 14        	lda	($14),y                 ; 0x2014 <launchBeat+0x8f>
    2c67: aa           	tax
    2c68: c8           	iny
    2c69: b1 14        	lda	($14),y                 ; 0x2014 <launchBeat+0x8f>
    2c6b: e6 1a        	inc	$1a                     ; 0x201a <launchBeat+0x95>
    2c6d: d0 08        	bne	$2c77 <setupMem4Track+0x4c>
    2c6f: e6 1d        	inc	$1d                     ; 0x201d <launchBeat+0x98>
    2c71: d0 04        	bne	$2c77 <setupMem4Track+0x4c>
    2c73: e8           	inx
    2c74: d0 01        	bne	$2c77 <setupMem4Track+0x4c>
    2c76: 1a           	inc
    2c77: 91 14        	sta	($14),y                 ; 0x2014 <launchBeat+0x8f>
    2c79: 8a           	txa
    2c7a: a0 02        	ldy	#$2
    2c7c: 91 14        	sta	($14),y                 ; 0x2014 <launchBeat+0x8f>
    2c7e: a5 1d        	lda	$1d                     ; 0x201d <launchBeat+0x98>
    2c80: 0a           	asl
    2c81: 86 1b        	stx	$1b                     ; 0x201b <launchBeat+0x96>
    2c83: 26 1b        	rol	$1b                     ; 0x201b <launchBeat+0x96>
    2c85: 0a           	asl
    2c86: 26 1b        	rol	$1b                     ; 0x201b <launchBeat+0x96>
    2c88: 0a           	asl
    2c89: 26 1b        	rol	$1b                     ; 0x201b <launchBeat+0x96>
    2c8b: a5 1a        	lda	$1a                     ; 0x201a <launchBeat+0x95>
    2c8d: 92 14        	sta	($14)                   ; 0x2014 <launchBeat+0x8f>
    2c8f: a5 1d        	lda	$1d                     ; 0x201d <launchBeat+0x98>
    2c91: 88           	dey
    2c92: 91 14        	sta	($14),y                 ; 0x2014 <launchBeat+0x8f>
    2c94: a6 0f        	ldx	$f                      ; 0x200f <launchBeat+0x8a>
    2c96: 78           	sei
    2c97: a4 1b        	ldy	$1b                     ; 0x201b <launchBeat+0x96>
    2c99: 84 0f        	sty	$f                      ; 0x200f <launchBeat+0x8a>
    2c9b: 09 e0        	ora	#$e0
    2c9d: 85 1b        	sta	$1b                     ; 0x201b <launchBeat+0x96>
    2c9f: a5 1c        	lda	$1c                     ; 0x201c <launchBeat+0x97>
    2ca1: 92 1a        	sta	($1a)                   ; 0x201a <launchBeat+0x95>
    2ca3: 86 0f        	stx	$f                      ; 0x200f <launchBeat+0x8a>
    2ca5: 58           	cli
    2ca6: b2 14        	lda	($14)                   ; 0x2014 <launchBeat+0x8f>
    2ca8: 85 1a        	sta	$1a                     ; 0x201a <launchBeat+0x95>
    2caa: a0 01        	ldy	#$1
    2cac: b1 14        	lda	($14),y                 ; 0x2014 <launchBeat+0x8f>
    2cae: 85 1c        	sta	$1c                     ; 0x201c <launchBeat+0x97>
    2cb0: c8           	iny
    2cb1: b1 14        	lda	($14),y                 ; 0x2014 <launchBeat+0x8f>
    2cb3: aa           	tax
    2cb4: c8           	iny
    2cb5: b1 14        	lda	($14),y                 ; 0x2014 <launchBeat+0x8f>
    2cb7: e6 1a        	inc	$1a                     ; 0x201a <launchBeat+0x95>
    2cb9: d0 08        	bne	$2cc3 <setupMem4Track+0x98>
    2cbb: e6 1c        	inc	$1c                     ; 0x201c <launchBeat+0x97>
    2cbd: d0 04        	bne	$2cc3 <setupMem4Track+0x98>
    2cbf: e8           	inx
    2cc0: d0 01        	bne	$2cc3 <setupMem4Track+0x98>
    2cc2: 1a           	inc
    2cc3: 91 14        	sta	($14),y                 ; 0x2014 <launchBeat+0x8f>
    2cc5: 8a           	txa
    2cc6: a0 02        	ldy	#$2
    2cc8: 91 14        	sta	($14),y                 ; 0x2014 <launchBeat+0x8f>
    2cca: a5 1c        	lda	$1c                     ; 0x201c <launchBeat+0x97>
    2ccc: 0a           	asl
    2ccd: 86 1b        	stx	$1b                     ; 0x201b <launchBeat+0x96>
    2ccf: 26 1b        	rol	$1b                     ; 0x201b <launchBeat+0x96>
    2cd1: 0a           	asl
    2cd2: 26 1b        	rol	$1b                     ; 0x201b <launchBeat+0x96>
    2cd4: 0a           	asl
    2cd5: 26 1b        	rol	$1b                     ; 0x201b <launchBeat+0x96>
    2cd7: a5 1a        	lda	$1a                     ; 0x201a <launchBeat+0x95>
    2cd9: 92 14        	sta	($14)                   ; 0x2014 <launchBeat+0x8f>
    2cdb: a5 1c        	lda	$1c                     ; 0x201c <launchBeat+0x97>
    2cdd: 88           	dey
    2cde: 91 14        	sta	($14),y                 ; 0x2014 <launchBeat+0x8f>
    2ce0: a6 0f        	ldx	$f                      ; 0x200f <launchBeat+0x8a>
    2ce2: 78           	sei
    2ce3: a4 1b        	ldy	$1b                     ; 0x201b <launchBeat+0x96>
    2ce5: 84 0f        	sty	$f                      ; 0x200f <launchBeat+0x8a>
    2ce7: 09 e0        	ora	#$e0
    2ce9: 85 1b        	sta	$1b                     ; 0x201b <launchBeat+0x96>
    2ceb: a5 12        	lda	$12                     ; 0x2012 <launchBeat+0x8d>
    2ced: 92 1a        	sta	($1a)                   ; 0x201a <launchBeat+0x95>
    2cef: 86 0f        	stx	$f                      ; 0x200f <launchBeat+0x8a>
    2cf1: 58           	cli
    2cf2: b2 14        	lda	($14)                   ; 0x2014 <launchBeat+0x8f>
    2cf4: 85 1c        	sta	$1c                     ; 0x201c <launchBeat+0x97>
    2cf6: a0 01        	ldy	#$1
    2cf8: b1 14        	lda	($14),y                 ; 0x2014 <launchBeat+0x8f>
    2cfa: 85 1a        	sta	$1a                     ; 0x201a <launchBeat+0x95>
    2cfc: c8           	iny
    2cfd: b1 14        	lda	($14),y                 ; 0x2014 <launchBeat+0x8f>
    2cff: aa           	tax
    2d00: c8           	iny
    2d01: b1 14        	lda	($14),y                 ; 0x2014 <launchBeat+0x8f>
    2d03: e6 1c        	inc	$1c                     ; 0x201c <launchBeat+0x97>
    2d05: d0 08        	bne	$2d0f <setupMem4Track+0xe4>
    2d07: e6 1a        	inc	$1a                     ; 0x201a <launchBeat+0x95>
    2d09: d0 04        	bne	$2d0f <setupMem4Track+0xe4>
    2d0b: e8           	inx
    2d0c: d0 01        	bne	$2d0f <setupMem4Track+0xe4>
    2d0e: 1a           	inc
    2d0f: 91 14        	sta	($14),y                 ; 0x2014 <launchBeat+0x8f>
    2d11: 8a           	txa
    2d12: a0 02        	ldy	#$2
    2d14: 91 14        	sta	($14),y                 ; 0x2014 <launchBeat+0x8f>
    2d16: a5 1a        	lda	$1a                     ; 0x201a <launchBeat+0x95>
    2d18: 0a           	asl
    2d19: 86 12        	stx	$12                     ; 0x2012 <launchBeat+0x8d>
    2d1b: 26 12        	rol	$12                     ; 0x2012 <launchBeat+0x8d>
    2d1d: 0a           	asl
    2d1e: 26 12        	rol	$12                     ; 0x2012 <launchBeat+0x8d>
    2d20: 0a           	asl
    2d21: 26 12        	rol	$12                     ; 0x2012 <launchBeat+0x8d>
    2d23: a5 1c        	lda	$1c                     ; 0x201c <launchBeat+0x97>
    2d25: 92 14        	sta	($14)                   ; 0x2014 <launchBeat+0x8f>
    2d27: 88           	dey
    2d28: a5 1a        	lda	$1a                     ; 0x201a <launchBeat+0x95>
    2d2a: 91 14        	sta	($14),y                 ; 0x2014 <launchBeat+0x8f>
    2d2c: a6 0f        	ldx	$f                      ; 0x200f <launchBeat+0x8a>
    2d2e: 78           	sei
    2d2f: a4 12        	ldy	$12                     ; 0x2012 <launchBeat+0x8d>
    2d31: 84 0f        	sty	$f                      ; 0x200f <launchBeat+0x8a>
    2d33: 09 e0        	ora	#$e0
    2d35: 85 1d        	sta	$1d                     ; 0x201d <launchBeat+0x98>
    2d37: a5 13        	lda	$13                     ; 0x2013 <launchBeat+0x8e>
    2d39: 85 1a        	sta	$1a                     ; 0x201a <launchBeat+0x95>
    2d3b: 92 1c        	sta	($1c)                   ; 0x201c <launchBeat+0x97>
    2d3d: 86 0f        	stx	$f                      ; 0x200f <launchBeat+0x8a>
    2d3f: 58           	cli
    2d40: b2 14        	lda	($14)                   ; 0x2014 <launchBeat+0x8f>
    2d42: 85 1b        	sta	$1b                     ; 0x201b <launchBeat+0x96>
    2d44: a0 01        	ldy	#$1
    2d46: b1 14        	lda	($14),y                 ; 0x2014 <launchBeat+0x8f>
    2d48: 85 12        	sta	$12                     ; 0x2012 <launchBeat+0x8d>
    2d4a: c8           	iny
    2d4b: b1 14        	lda	($14),y                 ; 0x2014 <launchBeat+0x8f>
    2d4d: 85 13        	sta	$13                     ; 0x2013 <launchBeat+0x8e>
    2d4f: c8           	iny
    2d50: b1 14        	lda	($14),y                 ; 0x2014 <launchBeat+0x8f>
    2d52: aa           	tax
    2d53: a5 1b        	lda	$1b                     ; 0x201b <launchBeat+0x96>
    2d55: 1a           	inc
    2d56: d0 09        	bne	$2d61 <setupMem4Track+0x136>
    2d58: e6 12        	inc	$12                     ; 0x2012 <launchBeat+0x8d>
    2d5a: d0 05        	bne	$2d61 <setupMem4Track+0x136>
    2d5c: e6 13        	inc	$13                     ; 0x2013 <launchBeat+0x8e>
    2d5e: d0 01        	bne	$2d61 <setupMem4Track+0x136>
    2d60: e8           	inx
    2d61: 92 14        	sta	($14)                   ; 0x2014 <launchBeat+0x8f>
    2d63: a5 12        	lda	$12                     ; 0x2012 <launchBeat+0x8d>
    2d65: a0 01        	ldy	#$1
    2d67: 91 14        	sta	($14),y                 ; 0x2014 <launchBeat+0x8f>
    2d69: c8           	iny
    2d6a: a5 13        	lda	$13                     ; 0x2013 <launchBeat+0x8e>
    2d6c: 91 14        	sta	($14),y                 ; 0x2014 <launchBeat+0x8f>
    2d6e: 8a           	txa
    2d6f: c8           	iny
    2d70: 91 14        	sta	($14),y                 ; 0x2014 <launchBeat+0x8f>
    2d72: a0 00        	ldy	#$0
    2d74: 80 47        	bra	$2dbd <setupMem4Track+0x192>
    2d76: e6 1c        	inc	$1c                     ; 0x201c <launchBeat+0x97>
    2d78: 92 14        	sta	($14)                   ; 0x2014 <launchBeat+0x8f>
    2d7a: a0 01        	ldy	#$1
    2d7c: a5 1d        	lda	$1d                     ; 0x201d <launchBeat+0x98>
    2d7e: 91 14        	sta	($14),y                 ; 0x2014 <launchBeat+0x8f>
    2d80: c8           	iny
    2d81: a5 1e        	lda	$1e                     ; 0x201e <launchBeat+0x99>
    2d83: 91 14        	sta	($14),y                 ; 0x2014 <launchBeat+0x8f>
    2d85: c8           	iny
    2d86: a5 1c        	lda	$1c                     ; 0x201c <launchBeat+0x97>
    2d88: 91 14        	sta	($14),y                 ; 0x2014 <launchBeat+0x8f>
    2d8a: a4 12        	ldy	$12                     ; 0x2012 <launchBeat+0x8d>
    2d8c: b1 16        	lda	($16),y                 ; 0x2016 <launchBeat+0x91>
    2d8e: 85 1c        	sta	$1c                     ; 0x201c <launchBeat+0x97>
    2d90: a5 1b        	lda	$1b                     ; 0x201b <launchBeat+0x96>
    2d92: 85 12        	sta	$12                     ; 0x2012 <launchBeat+0x8d>
    2d94: 06 12        	asl	$12                     ; 0x2012 <launchBeat+0x8d>
    2d96: 8a           	txa
    2d97: 2a           	rol
    2d98: 06 12        	asl	$12                     ; 0x2012 <launchBeat+0x8d>
    2d9a: 2a           	rol
    2d9b: 06 12        	asl	$12                     ; 0x2012 <launchBeat+0x8d>
    2d9d: 2a           	rol
    2d9e: a6 0f        	ldx	$f                      ; 0x200f <launchBeat+0x8a>
    2da0: 78           	sei
    2da1: 85 0f        	sta	$f                      ; 0x200f <launchBeat+0x8a>
    2da3: a5 13        	lda	$13                     ; 0x2013 <launchBeat+0x8e>
    2da5: 85 12        	sta	$12                     ; 0x2012 <launchBeat+0x8d>
    2da7: a5 1b        	lda	$1b                     ; 0x201b <launchBeat+0x96>
    2da9: 09 e0        	ora	#$e0
    2dab: 85 13        	sta	$13                     ; 0x2013 <launchBeat+0x8e>
    2dad: a5 1c        	lda	$1c                     ; 0x201c <launchBeat+0x97>
    2daf: 92 12        	sta	($12)                   ; 0x2012 <launchBeat+0x8d>
    2db1: 86 0f        	stx	$f                      ; 0x200f <launchBeat+0x8a>
    2db3: 58           	cli
    2db4: c8           	iny
    2db5: 84 12        	sty	$12                     ; 0x2012 <launchBeat+0x8d>
    2db7: a6 1a        	ldx	$1a                     ; 0x201a <launchBeat+0x95>
    2db9: e4 12        	cpx	$12                     ; 0x2012 <launchBeat+0x8d>
    2dbb: f0 34        	beq	$2df1 <setupMem4Track+0x1c6>
    2dbd: b2 14        	lda	($14)                   ; 0x2014 <launchBeat+0x8f>
    2dbf: 85 13        	sta	$13                     ; 0x2013 <launchBeat+0x8e>
    2dc1: 84 12        	sty	$12                     ; 0x2012 <launchBeat+0x8d>
    2dc3: a0 01        	ldy	#$1
    2dc5: b1 14        	lda	($14),y                 ; 0x2014 <launchBeat+0x8f>
    2dc7: 85 1b        	sta	$1b                     ; 0x201b <launchBeat+0x96>
    2dc9: c8           	iny
    2dca: b1 14        	lda	($14),y                 ; 0x2014 <launchBeat+0x8f>
    2dcc: aa           	tax
    2dcd: c8           	iny
    2dce: b1 14        	lda	($14),y                 ; 0x2014 <launchBeat+0x8f>
    2dd0: 85 1c        	sta	$1c                     ; 0x201c <launchBeat+0x97>
    2dd2: a5 13        	lda	$13                     ; 0x2013 <launchBeat+0x8e>
    2dd4: a4 1b        	ldy	$1b                     ; 0x201b <launchBeat+0x96>
    2dd6: 84 1d        	sty	$1d                     ; 0x201d <launchBeat+0x98>
    2dd8: 86 1e        	stx	$1e                     ; 0x201e <launchBeat+0x99>
    2dda: 1a           	inc
    2ddb: f0 03        	beq	$2de0 <setupMem4Track+0x1b5>
    2ddd: 4c 78 2d     	jmp	$2d78 <setupMem4Track+0x14d>
    2de0: e6 1d        	inc	$1d                     ; 0x201d <launchBeat+0x98>
    2de2: f0 03        	beq	$2de7 <setupMem4Track+0x1bc>
    2de4: 4c 78 2d     	jmp	$2d78 <setupMem4Track+0x14d>
    2de7: e6 1e        	inc	$1e                     ; 0x201e <launchBeat+0x99>
    2de9: d0 03        	bne	$2dee <setupMem4Track+0x1c3>
    2deb: 4c 76 2d     	jmp	$2d76 <setupMem4Track+0x14b>
    2dee: 4c 78 2d     	jmp	$2d78 <setupMem4Track+0x14d>
    2df1: a0 00        	ldy	#$0
    2df3: 80 47        	bra	$2e3c <setupMem4Track+0x211>
    2df5: e6 1b        	inc	$1b                     ; 0x201b <launchBeat+0x96>
    2df7: 92 14        	sta	($14)                   ; 0x2014 <launchBeat+0x8f>
    2df9: a0 01        	ldy	#$1
    2dfb: a5 1c        	lda	$1c                     ; 0x201c <launchBeat+0x97>
    2dfd: 91 14        	sta	($14),y                 ; 0x2014 <launchBeat+0x8f>
    2dff: c8           	iny
    2e00: a5 17        	lda	$17                     ; 0x2017 <launchBeat+0x92>
    2e02: 91 14        	sta	($14),y                 ; 0x2014 <launchBeat+0x8f>
    2e04: c8           	iny
    2e05: a5 1b        	lda	$1b                     ; 0x201b <launchBeat+0x96>
    2e07: 91 14        	sta	($14),y                 ; 0x2014 <launchBeat+0x8f>
    2e09: a4 12        	ldy	$12                     ; 0x2012 <launchBeat+0x8d>
    2e0b: b1 18        	lda	($18),y                 ; 0x2018 <launchBeat+0x93>
    2e0d: 85 17        	sta	$17                     ; 0x2017 <launchBeat+0x92>
    2e0f: a5 16        	lda	$16                     ; 0x2016 <launchBeat+0x91>
    2e11: 85 12        	sta	$12                     ; 0x2012 <launchBeat+0x8d>
    2e13: 06 12        	asl	$12                     ; 0x2012 <launchBeat+0x8d>
    2e15: 8a           	txa
    2e16: 2a           	rol
    2e17: 06 12        	asl	$12                     ; 0x2012 <launchBeat+0x8d>
    2e19: 2a           	rol
    2e1a: 06 12        	asl	$12                     ; 0x2012 <launchBeat+0x8d>
    2e1c: 2a           	rol
    2e1d: a6 0f        	ldx	$f                      ; 0x200f <launchBeat+0x8a>
    2e1f: 78           	sei
    2e20: 85 0f        	sta	$f                      ; 0x200f <launchBeat+0x8a>
    2e22: a5 13        	lda	$13                     ; 0x2013 <launchBeat+0x8e>
    2e24: 85 12        	sta	$12                     ; 0x2012 <launchBeat+0x8d>
    2e26: a5 16        	lda	$16                     ; 0x2016 <launchBeat+0x91>
    2e28: 09 e0        	ora	#$e0
    2e2a: 85 13        	sta	$13                     ; 0x2013 <launchBeat+0x8e>
    2e2c: a5 17        	lda	$17                     ; 0x2017 <launchBeat+0x92>
    2e2e: 92 12        	sta	($12)                   ; 0x2012 <launchBeat+0x8d>
    2e30: 86 0f        	stx	$f                      ; 0x200f <launchBeat+0x8a>
    2e32: 58           	cli
    2e33: c8           	iny
    2e34: 84 12        	sty	$12                     ; 0x2012 <launchBeat+0x8d>
    2e36: a6 1a        	ldx	$1a                     ; 0x201a <launchBeat+0x95>
    2e38: e4 12        	cpx	$12                     ; 0x2012 <launchBeat+0x8d>
    2e3a: f0 34        	beq	$2e70 <setupMem4Track+0x245>
    2e3c: b2 14        	lda	($14)                   ; 0x2014 <launchBeat+0x8f>
    2e3e: 85 13        	sta	$13                     ; 0x2013 <launchBeat+0x8e>
    2e40: 84 12        	sty	$12                     ; 0x2012 <launchBeat+0x8d>
    2e42: a0 01        	ldy	#$1
    2e44: b1 14        	lda	($14),y                 ; 0x2014 <launchBeat+0x8f>
    2e46: 85 16        	sta	$16                     ; 0x2016 <launchBeat+0x91>
    2e48: c8           	iny
    2e49: b1 14        	lda	($14),y                 ; 0x2014 <launchBeat+0x8f>
    2e4b: aa           	tax
    2e4c: c8           	iny
    2e4d: b1 14        	lda	($14),y                 ; 0x2014 <launchBeat+0x8f>
    2e4f: 85 1b        	sta	$1b                     ; 0x201b <launchBeat+0x96>
    2e51: 86 17        	stx	$17                     ; 0x2017 <launchBeat+0x92>
    2e53: a5 13        	lda	$13                     ; 0x2013 <launchBeat+0x8e>
    2e55: a4 16        	ldy	$16                     ; 0x2016 <launchBeat+0x91>
    2e57: 84 1c        	sty	$1c                     ; 0x201c <launchBeat+0x97>
    2e59: 1a           	inc
    2e5a: f0 03        	beq	$2e5f <setupMem4Track+0x234>
    2e5c: 4c f7 2d     	jmp	$2df7 <setupMem4Track+0x1cc>
    2e5f: e6 1c        	inc	$1c                     ; 0x201c <launchBeat+0x97>
    2e61: f0 03        	beq	$2e66 <setupMem4Track+0x23b>
    2e63: 4c f7 2d     	jmp	$2df7 <setupMem4Track+0x1cc>
    2e66: e6 17        	inc	$17                     ; 0x2017 <launchBeat+0x92>
    2e68: d0 03        	bne	$2e6d <setupMem4Track+0x242>
    2e6a: 4c f5 2d     	jmp	$2df5 <setupMem4Track+0x1ca>
    2e6d: 4c f7 2d     	jmp	$2df7 <setupMem4Track+0x1cc>
    2e70: 60           	rts

00002e71 <exit>:
    2e71: 20 14 03     	jsr	$314 <_fini>
    2e74: 80 fe        	bra	$2e74 <exit+0x3>

00002e76 <_ZN12_GLOBAL__N_13putEcP6Status>:
    2e76: 85 18        	sta	$18                     ; 0x2018 <launchBeat+0x93>
    2e78: a6 13        	ldx	$13                     ; 0x2013 <launchBeat+0x8e>
    2e7a: 18           	clc
    2e7b: a5 12        	lda	$12                     ; 0x2012 <launchBeat+0x8d>
    2e7d: 69 05        	adc	#$5
    2e7f: a8           	tay
    2e80: a5 13        	lda	$13                     ; 0x2013 <launchBeat+0x8e>
    2e82: 86 15        	stx	$15                     ; 0x2015 <launchBeat+0x90>
    2e84: 69 00        	adc	#$0
    2e86: 18           	clc
    2e87: 84 16        	sty	$16                     ; 0x2016 <launchBeat+0x91>
    2e89: a0 05        	ldy	#$5
    2e8b: 85 17        	sta	$17                     ; 0x2017 <launchBeat+0x92>
    2e8d: b1 12        	lda	($12),y                 ; 0x2012 <launchBeat+0x8d>
    2e8f: aa           	tax
    2e90: a5 12        	lda	$12                     ; 0x2012 <launchBeat+0x8d>
    2e92: 69 03        	adc	#$3
    2e94: 85 14        	sta	$14                     ; 0x2014 <launchBeat+0x8f>
    2e96: a5 15        	lda	$15                     ; 0x2015 <launchBeat+0x90>
    2e98: 69 00        	adc	#$0
    2e9a: 85 15        	sta	$15                     ; 0x2015 <launchBeat+0x90>
    2e9c: a0 01        	ldy	#$1
    2e9e: b1 16        	lda	($16),y                 ; 0x2016 <launchBeat+0x91>
    2ea0: d1 14        	cmp	($14),y                 ; 0x2014 <launchBeat+0x8f>
    2ea2: d0 11        	bne	$2eb5 <_ZN12_GLOBAL__N_13putEcP6Status+0x3f>
    2ea4: a0 03        	ldy	#$3
    2ea6: 85 17        	sta	$17                     ; 0x2017 <launchBeat+0x92>
    2ea8: b1 12        	lda	($12),y                 ; 0x2012 <launchBeat+0x8d>
    2eaa: 85 14        	sta	$14                     ; 0x2014 <launchBeat+0x8f>
    2eac: 86 16        	stx	$16                     ; 0x2016 <launchBeat+0x91>
    2eae: e4 14        	cpx	$14                     ; 0x2014 <launchBeat+0x8f>
    2eb0: 90 0e        	bcc	$2ec0 <_ZN12_GLOBAL__N_13putEcP6Status+0x4a>
    2eb2: 4c 21 2f     	jmp	$2f21 <_ZN12_GLOBAL__N_13putEcP6Status+0xab>
    2eb5: 86 16        	stx	$16                     ; 0x2016 <launchBeat+0x91>
    2eb7: d1 14        	cmp	($14),y                 ; 0x2014 <launchBeat+0x8f>
    2eb9: 85 17        	sta	$17                     ; 0x2017 <launchBeat+0x92>
    2ebb: 90 03        	bcc	$2ec0 <_ZN12_GLOBAL__N_13putEcP6Status+0x4a>
    2ebd: 4c 21 2f     	jmp	$2f21 <_ZN12_GLOBAL__N_13putEcP6Status+0xab>
    2ec0: a5 12        	lda	$12                     ; 0x2012 <launchBeat+0x8d>
    2ec2: 18           	clc
    2ec3: 69 0f        	adc	#$f
    2ec5: 85 14        	sta	$14                     ; 0x2014 <launchBeat+0x8f>
    2ec7: a5 13        	lda	$13                     ; 0x2013 <launchBeat+0x8e>
    2ec9: 69 00        	adc	#$0
    2ecb: 85 15        	sta	$15                     ; 0x2015 <launchBeat+0x90>
    2ecd: a0 01        	ldy	#$1
    2ecf: b1 14        	lda	($14),y                 ; 0x2014 <launchBeat+0x8f>
    2ed1: a2 00        	ldx	#$0
    2ed3: 86 14        	stx	$14                     ; 0x2014 <launchBeat+0x8f>
    2ed5: a2 00        	ldx	#$0
    2ed7: 86 15        	stx	$15                     ; 0x2015 <launchBeat+0x90>
    2ed9: c5 15        	cmp	$15                     ; 0x2015 <launchBeat+0x90>
    2edb: d0 2d        	bne	$2f0a <_ZN12_GLOBAL__N_13putEcP6Status+0x94>
    2edd: a0 0f        	ldy	#$f
    2edf: b1 12        	lda	($12),y                 ; 0x2012 <launchBeat+0x8d>
    2ee1: c5 14        	cmp	$14                     ; 0x2014 <launchBeat+0x8f>
    2ee3: d0 25        	bne	$2f0a <_ZN12_GLOBAL__N_13putEcP6Status+0x94>
    2ee5: a5 12        	lda	$12                     ; 0x2012 <launchBeat+0x8d>
    2ee7: 18           	clc
    2ee8: 69 09        	adc	#$9
    2eea: 85 14        	sta	$14                     ; 0x2014 <launchBeat+0x8f>
    2eec: a5 13        	lda	$13                     ; 0x2013 <launchBeat+0x8e>
    2eee: 69 00        	adc	#$0
    2ef0: a0 09        	ldy	#$9
    2ef2: 85 15        	sta	$15                     ; 0x2015 <launchBeat+0x90>
    2ef4: 18           	clc
    2ef5: a5 16        	lda	$16                     ; 0x2016 <launchBeat+0x91>
    2ef7: 71 12        	adc	($12),y                 ; 0x2012 <launchBeat+0x8d>
    2ef9: aa           	tax
    2efa: a0 01        	ldy	#$1
    2efc: a5 17        	lda	$17                     ; 0x2017 <launchBeat+0x92>
    2efe: 71 14        	adc	($14),y                 ; 0x2014 <launchBeat+0x8f>
    2f00: 86 14        	stx	$14                     ; 0x2014 <launchBeat+0x8f>
    2f02: 85 15        	sta	$15                     ; 0x2015 <launchBeat+0x90>
    2f04: a5 18        	lda	$18                     ; 0x2018 <launchBeat+0x93>
    2f06: 92 14        	sta	($14)                   ; 0x2014 <launchBeat+0x8f>
    2f08: 80 17        	bra	$2f21 <_ZN12_GLOBAL__N_13putEcP6Status+0xab>
    2f0a: a6 12        	ldx	$12                     ; 0x2012 <launchBeat+0x8d>
    2f0c: 86 ec        	stx	$ec                     ; 0x20ec <launchBeat+0x167>
    2f0e: a6 13        	ldx	$13                     ; 0x2013 <launchBeat+0x8e>
    2f10: 86 ed        	stx	$ed                     ; 0x20ed <launchBeat+0x168>
    2f12: a2 00        	ldx	#$0
    2f14: a5 18        	lda	$18                     ; 0x2018 <launchBeat+0x93>
    2f16: 20 2e 3c     	jsr	$3c2e <putchar>
    2f19: a6 ec        	ldx	$ec                     ; 0x20ec <launchBeat+0x167>
    2f1b: 86 12        	stx	$12                     ; 0x2012 <launchBeat+0x8d>
    2f1d: a6 ed        	ldx	$ed                     ; 0x20ed <launchBeat+0x168>
    2f1f: 86 13        	stx	$13                     ; 0x2013 <launchBeat+0x8e>
    2f21: a0 05        	ldy	#$5
    2f23: a5 12        	lda	$12                     ; 0x2012 <launchBeat+0x8d>
    2f25: 18           	clc
    2f26: 69 05        	adc	#$5
    2f28: 85 14        	sta	$14                     ; 0x2014 <launchBeat+0x8f>
    2f2a: a5 13        	lda	$13                     ; 0x2013 <launchBeat+0x8e>
    2f2c: 69 00        	adc	#$0
    2f2e: 85 15        	sta	$15                     ; 0x2015 <launchBeat+0x90>
    2f30: b1 12        	lda	($12),y                 ; 0x2012 <launchBeat+0x8d>
    2f32: aa           	tax
    2f33: a0 01        	ldy	#$1
    2f35: b1 14        	lda	($14),y                 ; 0x2014 <launchBeat+0x8f>
    2f37: e8           	inx
    2f38: d0 01        	bne	$2f3b <_ZN12_GLOBAL__N_13putEcP6Status+0xc5>
    2f3a: 1a           	inc
    2f3b: 85 16        	sta	$16                     ; 0x2016 <launchBeat+0x91>
    2f3d: 8a           	txa
    2f3e: a0 05        	ldy	#$5
    2f40: 91 12        	sta	($12),y                 ; 0x2012 <launchBeat+0x8d>
    2f42: a0 01        	ldy	#$1
    2f44: a5 16        	lda	$16                     ; 0x2016 <launchBeat+0x91>
    2f46: 91 14        	sta	($14),y                 ; 0x2014 <launchBeat+0x8f>
    2f48: 60           	rts

00002f49 <_ZN12_GLOBAL__N_112print_stringEPKcP6Status>:
    2f49: a6 12        	ldx	$12                     ; 0x2012 <launchBeat+0x8d>
    2f4b: 86 e4        	stx	$e4                     ; 0x20e4 <launchBeat+0x15f>
    2f4d: a6 13        	ldx	$13                     ; 0x2013 <launchBeat+0x8e>
    2f4f: 86 e5        	stx	$e5                     ; 0x20e5 <launchBeat+0x160>
    2f51: a6 14        	ldx	$14                     ; 0x2014 <launchBeat+0x8f>
    2f53: 86 e6        	stx	$e6                     ; 0x20e6 <launchBeat+0x161>
    2f55: a6 15        	ldx	$15                     ; 0x2015 <launchBeat+0x90>
    2f57: 86 e7        	stx	$e7                     ; 0x20e7 <launchBeat+0x162>
    2f59: a5 e6        	lda	$e6                     ; 0x20e6 <launchBeat+0x161>
    2f5b: 18           	clc
    2f5c: 69 0d        	adc	#$d
    2f5e: 85 12        	sta	$12                     ; 0x2012 <launchBeat+0x8d>
    2f60: a5 e7        	lda	$e7                     ; 0x20e7 <launchBeat+0x162>
    2f62: 69 00        	adc	#$0
    2f64: 85 13        	sta	$13                     ; 0x2013 <launchBeat+0x8e>
    2f66: a0 01        	ldy	#$1
    2f68: b1 12        	lda	($12),y                 ; 0x2012 <launchBeat+0x8d>
    2f6a: 30 16        	bmi	$2f82 <_ZN12_GLOBAL__N_112print_stringEPKcP6Status+0x39>
    2f6c: a0 0d        	ldy	#$d
    2f6e: 85 12        	sta	$12                     ; 0x2012 <launchBeat+0x8d>
    2f70: b1 e6        	lda	($e6),y                 ; 0x20e6 <launchBeat+0x161>
    2f72: a6 12        	ldx	$12                     ; 0x2012 <launchBeat+0x8d>
    2f74: 86 eb        	stx	$eb                     ; 0x20eb <launchBeat+0x166>
    2f76: d0 0f        	bne	$2f87 <_ZN12_GLOBAL__N_112print_stringEPKcP6Status+0x3e>
    2f78: aa           	tax
    2f79: d0 0c        	bne	$2f87 <_ZN12_GLOBAL__N_112print_stringEPKcP6Status+0x3e>
    2f7b: 64 e8        	stz	$e8                     ; 0x20e8 <launchBeat+0x163>
    2f7d: a2 00        	ldx	#$0
    2f7f: 4c 50 30     	jmp	$3050 <_ZN12_GLOBAL__N_112print_stringEPKcP6Status+0x107>
    2f82: a9 ff        	lda	#$ff
    2f84: aa           	tax
    2f85: 86 eb        	stx	$eb                     ; 0x20eb <launchBeat+0x166>
    2f87: 85 e8        	sta	$e8                     ; 0x20e8 <launchBeat+0x163>
    2f89: 64 12        	stz	$12                     ; 0x2012 <launchBeat+0x8d>
    2f8b: a4 e4        	ldy	$e4                     ; 0x20e4 <launchBeat+0x15f>
    2f8d: a6 e5        	ldx	$e5                     ; 0x20e5 <launchBeat+0x160>
    2f8f: 86 16        	stx	$16                     ; 0x2016 <launchBeat+0x91>
    2f91: 64 13        	stz	$13                     ; 0x2013 <launchBeat+0x8e>
    2f93: 98           	tya
    2f94: 18           	clc
    2f95: 65 12        	adc	$12                     ; 0x2012 <launchBeat+0x8d>
    2f97: 85 14        	sta	$14                     ; 0x2014 <launchBeat+0x8f>
    2f99: a5 e5        	lda	$e5                     ; 0x20e5 <launchBeat+0x160>
    2f9b: 65 13        	adc	$13                     ; 0x2013 <launchBeat+0x8e>
    2f9d: 85 15        	sta	$15                     ; 0x2015 <launchBeat+0x90>
    2f9f: b2 14        	lda	($14)                   ; 0x2014 <launchBeat+0x8f>
    2fa1: d0 03        	bne	$2fa6 <_ZN12_GLOBAL__N_112print_stringEPKcP6Status+0x5d>
    2fa3: 4c 4a 30     	jmp	$304a <_ZN12_GLOBAL__N_112print_stringEPKcP6Status+0x101>
    2fa6: e6 12        	inc	$12                     ; 0x2012 <launchBeat+0x8d>
    2fa8: d0 02        	bne	$2fac <_ZN12_GLOBAL__N_112print_stringEPKcP6Status+0x63>
    2faa: e6 13        	inc	$13                     ; 0x2013 <launchBeat+0x8e>
    2fac: a6 eb        	ldx	$eb                     ; 0x20eb <launchBeat+0x166>
    2fae: e4 13        	cpx	$13                     ; 0x2013 <launchBeat+0x8e>
    2fb0: d0 e1        	bne	$2f93 <_ZN12_GLOBAL__N_112print_stringEPKcP6Status+0x4a>
    2fb2: a6 e8        	ldx	$e8                     ; 0x20e8 <launchBeat+0x163>
    2fb4: e4 12        	cpx	$12                     ; 0x2012 <launchBeat+0x8d>
    2fb6: d0 db        	bne	$2f93 <_ZN12_GLOBAL__N_112print_stringEPKcP6Status+0x4a>
    2fb8: a0 01        	ldy	#$1
    2fba: b1 e6        	lda	($e6),y                 ; 0x20e6 <launchBeat+0x161>
    2fbc: 29 01        	and	#$1
    2fbe: f0 03        	beq	$2fc3 <_ZN12_GLOBAL__N_112print_stringEPKcP6Status+0x7a>
    2fc0: 4c 1b 30     	jmp	$301b <_ZN12_GLOBAL__N_112print_stringEPKcP6Status+0xd2>
    2fc3: a5 e6        	lda	$e6                     ; 0x20e6 <launchBeat+0x161>
    2fc5: 18           	clc
    2fc6: 69 0b        	adc	#$b
    2fc8: 85 14        	sta	$14                     ; 0x2014 <launchBeat+0x8f>
    2fca: a5 e7        	lda	$e7                     ; 0x20e7 <launchBeat+0x162>
    2fcc: 69 00        	adc	#$0
    2fce: 85 15        	sta	$15                     ; 0x2015 <launchBeat+0x90>
    2fd0: a0 0b        	ldy	#$b
    2fd2: b1 e6        	lda	($e6),y                 ; 0x20e6 <launchBeat+0x161>
    2fd4: 85 13        	sta	$13                     ; 0x2013 <launchBeat+0x8e>
    2fd6: a0 01        	ldy	#$1
    2fd8: b1 14        	lda	($14),y                 ; 0x2014 <launchBeat+0x8f>
    2fda: 85 12        	sta	$12                     ; 0x2012 <launchBeat+0x8d>
    2fdc: a6 eb        	ldx	$eb                     ; 0x20eb <launchBeat+0x166>
    2fde: e4 12        	cpx	$12                     ; 0x2012 <launchBeat+0x8d>
    2fe0: d0 08        	bne	$2fea <_ZN12_GLOBAL__N_112print_stringEPKcP6Status+0xa1>
    2fe2: a6 e8        	ldx	$e8                     ; 0x20e8 <launchBeat+0x163>
    2fe4: e4 13        	cpx	$13                     ; 0x2013 <launchBeat+0x8e>
    2fe6: 90 06        	bcc	$2fee <_ZN12_GLOBAL__N_112print_stringEPKcP6Status+0xa5>
    2fe8: 80 31        	bra	$301b <_ZN12_GLOBAL__N_112print_stringEPKcP6Status+0xd2>
    2fea: e4 12        	cpx	$12                     ; 0x2012 <launchBeat+0x8d>
    2fec: b0 2d        	bcs	$301b <_ZN12_GLOBAL__N_112print_stringEPKcP6Status+0xd2>
    2fee: 38           	sec
    2fef: a5 e8        	lda	$e8                     ; 0x20e8 <launchBeat+0x163>
    2ff1: e5 13        	sbc	$13                     ; 0x2013 <launchBeat+0x8e>
    2ff3: a8           	tay
    2ff4: a5 eb        	lda	$eb                     ; 0x20eb <launchBeat+0x166>
    2ff6: e5 12        	sbc	$12                     ; 0x2012 <launchBeat+0x8d>
    2ff8: 85 ea        	sta	$ea                     ; 0x20ea <launchBeat+0x165>
    2ffa: a6 e6        	ldx	$e6                     ; 0x20e6 <launchBeat+0x161>
    2ffc: 86 12        	stx	$12                     ; 0x2012 <launchBeat+0x8d>
    2ffe: a6 e7        	ldx	$e7                     ; 0x20e7 <launchBeat+0x162>
    3000: 86 13        	stx	$13                     ; 0x2013 <launchBeat+0x8e>
    3002: 84 e9        	sty	$e9                     ; 0x20e9 <launchBeat+0x164>
    3004: a9 20        	lda	#$20
    3006: 20 76 2e     	jsr	$2e76 <_ZN12_GLOBAL__N_13putEcP6Status>
    3009: a6 ea        	ldx	$ea                     ; 0x20ea <launchBeat+0x165>
    300b: e6 e9        	inc	$e9                     ; 0x20e9 <launchBeat+0x164>
    300d: d0 01        	bne	$3010 <_ZN12_GLOBAL__N_112print_stringEPKcP6Status+0xc7>
    300f: e8           	inx
    3010: 86 ea        	stx	$ea                     ; 0x20ea <launchBeat+0x165>
    3012: a4 e9        	ldy	$e9                     ; 0x20e9 <launchBeat+0x164>
    3014: 8a           	txa
    3015: d0 e3        	bne	$2ffa <_ZN12_GLOBAL__N_112print_stringEPKcP6Status+0xb1>
    3017: a5 e9        	lda	$e9                     ; 0x20e9 <launchBeat+0x164>
    3019: d0 df        	bne	$2ffa <_ZN12_GLOBAL__N_112print_stringEPKcP6Status+0xb1>
    301b: a4 eb        	ldy	$eb                     ; 0x20eb <launchBeat+0x166>
    301d: d0 04        	bne	$3023 <_ZN12_GLOBAL__N_112print_stringEPKcP6Status+0xda>
    301f: a5 e8        	lda	$e8                     ; 0x20e8 <launchBeat+0x163>
    3021: f0 26        	beq	$3049 <_ZN12_GLOBAL__N_112print_stringEPKcP6Status+0x100>
    3023: a2 ff        	ldx	#$ff
    3025: c6 e8        	dec	$e8                     ; 0x20e8 <launchBeat+0x163>
    3027: e4 e8        	cpx	$e8                     ; 0x20e8 <launchBeat+0x163>
    3029: d0 01        	bne	$302c <_ZN12_GLOBAL__N_112print_stringEPKcP6Status+0xe3>
    302b: 88           	dey
    302c: 84 e9        	sty	$e9                     ; 0x20e9 <launchBeat+0x164>
    302e: b2 e4        	lda	($e4)                   ; 0x20e4 <launchBeat+0x15f>
    3030: e6 e4        	inc	$e4                     ; 0x20e4 <launchBeat+0x15f>
    3032: d0 02        	bne	$3036 <_ZN12_GLOBAL__N_112print_stringEPKcP6Status+0xed>
    3034: e6 e5        	inc	$e5                     ; 0x20e5 <launchBeat+0x160>
    3036: a6 e6        	ldx	$e6                     ; 0x20e6 <launchBeat+0x161>
    3038: 86 12        	stx	$12                     ; 0x2012 <launchBeat+0x8d>
    303a: a6 e7        	ldx	$e7                     ; 0x20e7 <launchBeat+0x162>
    303c: 86 13        	stx	$13                     ; 0x2013 <launchBeat+0x8e>
    303e: 20 76 2e     	jsr	$2e76 <_ZN12_GLOBAL__N_13putEcP6Status>
    3041: a4 e9        	ldy	$e9                     ; 0x20e9 <launchBeat+0x164>
    3043: d0 de        	bne	$3023 <_ZN12_GLOBAL__N_112print_stringEPKcP6Status+0xda>
    3045: a5 e8        	lda	$e8                     ; 0x20e8 <launchBeat+0x163>
    3047: d0 da        	bne	$3023 <_ZN12_GLOBAL__N_112print_stringEPKcP6Status+0xda>
    3049: 60           	rts
    304a: a6 12        	ldx	$12                     ; 0x2012 <launchBeat+0x8d>
    304c: 86 e8        	stx	$e8                     ; 0x20e8 <launchBeat+0x163>
    304e: a6 13        	ldx	$13                     ; 0x2013 <launchBeat+0x8e>
    3050: 86 eb        	stx	$eb                     ; 0x20eb <launchBeat+0x166>
    3052: 4c b8 2f     	jmp	$2fb8 <_ZN12_GLOBAL__N_112print_stringEPKcP6Status+0x6f>

00003055 <printf>:
    3055: a6 12        	ldx	$12                     ; 0x2012 <launchBeat+0x8d>
    3057: 86 99        	stx	$99                     ; 0x2099 <launchBeat+0x114>
    3059: a6 13        	ldx	$13                     ; 0x2013 <launchBeat+0x8e>
    305b: 86 9a        	stx	$9a                     ; 0x209a <launchBeat+0x115>
    305d: 18           	clc
    305e: a6 10        	ldx	$10                     ; 0x2010 <launchBeat+0x8b>
    3060: a4 11        	ldy	$11                     ; 0x2011 <launchBeat+0x8c>
    3062: 86 da        	stx	$da                     ; 0x20da <launchBeat+0x155>
    3064: 84 db        	sty	$db                     ; 0x20db <launchBeat+0x156>
    3066: a6 da        	ldx	$da                     ; 0x20da <launchBeat+0x155>
    3068: a4 db        	ldy	$db                     ; 0x20db <launchBeat+0x156>
    306a: 86 c5        	stx	$c5                     ; 0x20c5 <launchBeat+0x140>
    306c: 84 c6        	sty	$c6                     ; 0x20c6 <launchBeat+0x141>
    306e: a2 ff        	ldx	#$ff
    3070: 86 ca        	stx	$ca                     ; 0x20ca <launchBeat+0x145>
    3072: 86 cb        	stx	$cb                     ; 0x20cb <launchBeat+0x146>
    3074: 64 cc        	stz	$cc                     ; 0x20cc <launchBeat+0x147>
    3076: 64 cd        	stz	$cd                     ; 0x20cd <launchBeat+0x148>
    3078: e8           	inx
    3079: 86 9b        	stx	$9b                     ; 0x209b <launchBeat+0x116>
    307b: a2 00        	ldx	#$0
    307d: 86 9c        	stx	$9c                     ; 0x209c <launchBeat+0x117>
    307f: a6 9b        	ldx	$9b                     ; 0x209b <launchBeat+0x116>
    3081: a4 9c        	ldy	$9c                     ; 0x209c <launchBeat+0x117>
    3083: 86 d0        	stx	$d0                     ; 0x20d0 <launchBeat+0x14b>
    3085: 84 d1        	sty	$d1                     ; 0x20d1 <launchBeat+0x14c>
    3087: a2 02        	ldx	#$2
    3089: 86 d6        	stx	$d6                     ; 0x20d6 <launchBeat+0x151>
    308b: 64 d7        	stz	$d7                     ; 0x20d7 <launchBeat+0x152>
    308d: a6 c5        	ldx	$c5                     ; 0x20c5 <launchBeat+0x140>
    308f: a4 c6        	ldy	$c6                     ; 0x20c6 <launchBeat+0x141>
    3091: 86 d8        	stx	$d8                     ; 0x20d8 <launchBeat+0x153>
    3093: 84 d9        	sty	$d9                     ; 0x20d9 <launchBeat+0x154>
    3095: a2 bc        	ldx	#$bc
    3097: a0 00        	ldy	#$0
    3099: 86 12        	stx	$12                     ; 0x2012 <launchBeat+0x8d>
    309b: 84 13        	sty	$13                     ; 0x2013 <launchBeat+0x8e>
    309d: a0 01        	ldy	#$1
    309f: a9 a3        	lda	#$a3
    30a1: 18           	clc
    30a2: 69 02        	adc	#$2
    30a4: 85 e2        	sta	$e2                     ; 0x20e2 <launchBeat+0x15d>
    30a6: a9 00        	lda	#$0
    30a8: 69 00        	adc	#$0
    30aa: 85 e3        	sta	$e3                     ; 0x20e3 <launchBeat+0x15e>
    30ac: e6 12        	inc	$12                     ; 0x2012 <launchBeat+0x8d>
    30ae: d0 02        	bne	$30b2 <printf+0x5d>
    30b0: e6 13        	inc	$13                     ; 0x2013 <launchBeat+0x8e>
    30b2: a6 12        	ldx	$12                     ; 0x2012 <launchBeat+0x8d>
    30b4: 86 de        	stx	$de                     ; 0x20de <launchBeat+0x159>
    30b6: a6 13        	ldx	$13                     ; 0x2013 <launchBeat+0x8e>
    30b8: 86 df        	stx	$df                     ; 0x20df <launchBeat+0x15a>
    30ba: a6 99        	ldx	$99                     ; 0x2099 <launchBeat+0x114>
    30bc: 86 9d        	stx	$9d                     ; 0x209d <launchBeat+0x118>
    30be: a6 9a        	ldx	$9a                     ; 0x209a <launchBeat+0x115>
    30c0: 86 9e        	stx	$9e                     ; 0x209e <launchBeat+0x119>
    30c2: b2 99        	lda	($99)                   ; 0x2099 <launchBeat+0x114>
    30c4: c9 25        	cmp	#$25
    30c6: f0 23        	beq	$30eb <printf+0x96>
    30c8: a2 00        	ldx	#$0
    30ca: a8           	tay
    30cb: d0 03        	bne	$30d0 <printf+0x7b>
    30cd: 4c 2d 3c     	jmp	$3c2d <printf+0xbd8>
    30d0: 20 2e 3c     	jsr	$3c2e <putchar>
    30d3: a0 01        	ldy	#$1
    30d5: e6 9d        	inc	$9d                     ; 0x209d <launchBeat+0x118>
    30d7: d0 02        	bne	$30db <printf+0x86>
    30d9: e6 9e        	inc	$9e                     ; 0x209e <launchBeat+0x119>
    30db: e6 cc        	inc	$cc                     ; 0x20cc <launchBeat+0x147>
    30dd: d0 02        	bne	$30e1 <printf+0x8c>
    30df: e6 cd        	inc	$cd                     ; 0x20cd <launchBeat+0x148>
    30e1: a6 9d        	ldx	$9d                     ; 0x209d <launchBeat+0x118>
    30e3: 86 99        	stx	$99                     ; 0x2099 <launchBeat+0x114>
    30e5: a6 9e        	ldx	$9e                     ; 0x209e <launchBeat+0x119>
    30e7: 86 9a        	stx	$9a                     ; 0x209a <launchBeat+0x115>
    30e9: 80 cf        	bra	$30ba <printf+0x65>
    30eb: a6 99        	ldx	$99                     ; 0x2099 <launchBeat+0x114>
    30ed: 86 12        	stx	$12                     ; 0x2012 <launchBeat+0x8d>
    30ef: a6 9a        	ldx	$9a                     ; 0x209a <launchBeat+0x115>
    30f1: 86 13        	stx	$13                     ; 0x2013 <launchBeat+0x8e>
    30f3: e6 12        	inc	$12                     ; 0x2012 <launchBeat+0x8d>
    30f5: d0 02        	bne	$30f9 <printf+0xa4>
    30f7: e6 13        	inc	$13                     ; 0x2013 <launchBeat+0x8e>
    30f9: b1 9d        	lda	($9d),y                 ; 0x209d <launchBeat+0x118>
    30fb: c9 25        	cmp	#$25
    30fd: d0 16        	bne	$3115 <printf+0xc0>
    30ff: a4 cc        	ldy	$cc                     ; 0x20cc <launchBeat+0x147>
    3101: a5 cd        	lda	$cd                     ; 0x20cd <launchBeat+0x148>
    3103: c5 cb        	cmp	$cb                     ; 0x20cb <launchBeat+0x146>
    3105: f0 03        	beq	$310a <printf+0xb5>
    3107: 4c 1b 32     	jmp	$321b <printf+0x1c6>
    310a: a6 ca        	ldx	$ca                     ; 0x20ca <launchBeat+0x145>
    310c: 86 12        	stx	$12                     ; 0x2012 <launchBeat+0x8d>
    310e: 84 13        	sty	$13                     ; 0x2013 <launchBeat+0x8e>
    3110: c4 12        	cpy	$12                     ; 0x2012 <launchBeat+0x8d>
    3112: 4c 1f 32     	jmp	$321f <printf+0x1ca>
    3115: 64 c8        	stz	$c8                     ; 0x20c8 <launchBeat+0x143>
    3117: 64 c9        	stz	$c9                     ; 0x20c9 <launchBeat+0x144>
    3119: 64 c7        	stz	$c7                     ; 0x20c7 <launchBeat+0x142>
    311b: 64 d2        	stz	$d2                     ; 0x20d2 <launchBeat+0x14d>
    311d: 64 d3        	stz	$d3                     ; 0x20d3 <launchBeat+0x14e>
    311f: a2 ff        	ldx	#$ff
    3121: 86 d4        	stx	$d4                     ; 0x20d4 <launchBeat+0x14f>
    3123: 86 d5        	stx	$d5                     ; 0x20d5 <launchBeat+0x150>
    3125: 64 98        	stz	$98                     ; 0x2098 <launchBeat+0x113>
    3127: 80 33        	bra	$315c <printf+0x107>
    3129: a2 02        	ldx	#$2
    312b: 80 15        	bra	$3142 <printf+0xed>
    312d: e0 20        	cpx	#$20
    312f: f0 15        	beq	$3146 <printf+0xf1>
    3131: 86 15        	stx	$15                     ; 0x2015 <launchBeat+0x90>
    3133: e0 23        	cpx	#$23
    3135: f0 03        	beq	$313a <printf+0xe5>
    3137: 4c b9 31     	jmp	$31b9 <printf+0x164>
    313a: a5 98        	lda	$98                     ; 0x2098 <launchBeat+0x113>
    313c: a2 04        	ldx	#$4
    313e: 80 02        	bra	$3142 <printf+0xed>
    3140: a2 10        	ldx	#$10
    3142: 86 14        	stx	$14                     ; 0x2014 <launchBeat+0x8f>
    3144: 80 06        	bra	$314c <printf+0xf7>
    3146: a2 08        	ldx	#$8
    3148: 86 14        	stx	$14                     ; 0x2014 <launchBeat+0x8f>
    314a: a5 98        	lda	$98                     ; 0x2098 <launchBeat+0x113>
    314c: 05 14        	ora	$14                     ; 0x2014 <launchBeat+0x8f>
    314e: 85 98        	sta	$98                     ; 0x2098 <launchBeat+0x113>
    3150: 85 c8        	sta	$c8                     ; 0x20c8 <launchBeat+0x143>
    3152: a2 00        	ldx	#$0
    3154: 86 c9        	stx	$c9                     ; 0x20c9 <launchBeat+0x144>
    3156: e6 12        	inc	$12                     ; 0x2012 <launchBeat+0x8d>
    3158: d0 02        	bne	$315c <printf+0x107>
    315a: e6 13        	inc	$13                     ; 0x2013 <launchBeat+0x8e>
    315c: b2 12        	lda	($12)                   ; 0x2012 <launchBeat+0x8d>
    315e: aa           	tax
    315f: 18           	clc
    3160: 69 d6        	adc	#$d6
    3162: c9 07        	cmp	#$7
    3164: b0 c7        	bcs	$312d <printf+0xd8>
    3166: 86 15        	stx	$15                     ; 0x2015 <launchBeat+0x90>
    3168: 0a           	asl
    3169: aa           	tax
    316a: a0 01        	ldy	#$1
    316c: 84 14        	sty	$14                     ; 0x2014 <launchBeat+0x8f>
    316e: a5 98        	lda	$98                     ; 0x2098 <launchBeat+0x113>
    3170: 7c 3f 42     	jmp	($423f,x)               ; 0x423f <__set_v+0xb>
    3173: a5 d8        	lda	$d8                     ; 0x20d8 <launchBeat+0x153>
    3175: a6 d9        	ldx	$d9                     ; 0x20d9 <launchBeat+0x154>
    3177: 85 16        	sta	$16                     ; 0x2016 <launchBeat+0x91>
    3179: 86 17        	stx	$17                     ; 0x2017 <launchBeat+0x92>
    317b: 18           	clc
    317c: 69 02        	adc	#$2
    317e: a8           	tay
    317f: 8a           	txa
    3180: 69 00        	adc	#$0
    3182: 84 d8        	sty	$d8                     ; 0x20d8 <launchBeat+0x153>
    3184: 85 d9        	sta	$d9                     ; 0x20d9 <launchBeat+0x154>
    3186: b2 16        	lda	($16)                   ; 0x2016 <launchBeat+0x91>
    3188: 85 15        	sta	$15                     ; 0x2015 <launchBeat+0x90>
    318a: a0 01        	ldy	#$1
    318c: b1 16        	lda	($16),y                 ; 0x2016 <launchBeat+0x91>
    318e: 85 14        	sta	$14                     ; 0x2014 <launchBeat+0x8f>
    3190: 10 15        	bpl	$31a7 <printf+0x152>
    3192: a5 98        	lda	$98                     ; 0x2098 <launchBeat+0x113>
    3194: 09 01        	ora	#$1
    3196: 85 98        	sta	$98                     ; 0x2098 <launchBeat+0x113>
    3198: 85 c8        	sta	$c8                     ; 0x20c8 <launchBeat+0x143>
    319a: a2 00        	ldx	#$0
    319c: 86 c9        	stx	$c9                     ; 0x20c9 <launchBeat+0x144>
    319e: 8a           	txa
    319f: 38           	sec
    31a0: e5 15        	sbc	$15                     ; 0x2015 <launchBeat+0x90>
    31a2: 85 15        	sta	$15                     ; 0x2015 <launchBeat+0x90>
    31a4: 8a           	txa
    31a5: e5 14        	sbc	$14                     ; 0x2014 <launchBeat+0x8f>
    31a7: a6 15        	ldx	$15                     ; 0x2015 <launchBeat+0x90>
    31a9: 86 d2        	stx	$d2                     ; 0x20d2 <launchBeat+0x14d>
    31ab: 85 d3        	sta	$d3                     ; 0x20d3 <launchBeat+0x14e>
    31ad: e6 12        	inc	$12                     ; 0x2012 <launchBeat+0x8d>
    31af: f0 03        	beq	$31b4 <printf+0x15f>
    31b1: 4c 6f 32     	jmp	$326f <printf+0x21a>
    31b4: e6 13        	inc	$13                     ; 0x2013 <launchBeat+0x8e>
    31b6: 4c 6f 32     	jmp	$326f <printf+0x21a>
    31b9: a5 15        	lda	$15                     ; 0x2015 <launchBeat+0x90>
    31bb: 18           	clc
    31bc: 69 d0        	adc	#$d0
    31be: c9 0a        	cmp	#$a
    31c0: 90 03        	bcc	$31c5 <printf+0x170>
    31c2: 4c 61 32     	jmp	$3261 <printf+0x20c>
    31c5: a6 15        	ldx	$15                     ; 0x2015 <launchBeat+0x90>
    31c7: 86 14        	stx	$14                     ; 0x2014 <launchBeat+0x8f>
    31c9: 64 16        	stz	$16                     ; 0x2016 <launchBeat+0x91>
    31cb: 64 15        	stz	$15                     ; 0x2015 <launchBeat+0x90>
    31cd: 64 17        	stz	$17                     ; 0x2017 <launchBeat+0x92>
    31cf: a0 01        	ldy	#$1
    31d1: 06 16        	asl	$16                     ; 0x2016 <launchBeat+0x91>
    31d3: 26 17        	rol	$17                     ; 0x2017 <launchBeat+0x92>
    31d5: a5 16        	lda	$16                     ; 0x2016 <launchBeat+0x91>
    31d7: 0a           	asl
    31d8: aa           	tax
    31d9: a5 17        	lda	$17                     ; 0x2017 <launchBeat+0x92>
    31db: 2a           	rol
    31dc: 86 18        	stx	$18                     ; 0x2018 <launchBeat+0x93>
    31de: 06 18        	asl	$18                     ; 0x2018 <launchBeat+0x93>
    31e0: 2a           	rol
    31e1: aa           	tax
    31e2: a5 18        	lda	$18                     ; 0x2018 <launchBeat+0x93>
    31e4: 18           	clc
    31e5: 65 16        	adc	$16                     ; 0x2016 <launchBeat+0x91>
    31e7: 85 16        	sta	$16                     ; 0x2016 <launchBeat+0x91>
    31e9: 8a           	txa
    31ea: 65 17        	adc	$17                     ; 0x2017 <launchBeat+0x92>
    31ec: 85 17        	sta	$17                     ; 0x2017 <launchBeat+0x92>
    31ee: a5 16        	lda	$16                     ; 0x2016 <launchBeat+0x91>
    31f0: 18           	clc
    31f1: 65 14        	adc	$14                     ; 0x2014 <launchBeat+0x8f>
    31f3: 85 14        	sta	$14                     ; 0x2014 <launchBeat+0x8f>
    31f5: a5 17        	lda	$17                     ; 0x2017 <launchBeat+0x92>
    31f7: 65 15        	adc	$15                     ; 0x2015 <launchBeat+0x90>
    31f9: aa           	tax
    31fa: 18           	clc
    31fb: a5 14        	lda	$14                     ; 0x2014 <launchBeat+0x8f>
    31fd: 69 d0        	adc	#$d0
    31ff: 85 16        	sta	$16                     ; 0x2016 <launchBeat+0x91>
    3201: 8a           	txa
    3202: 69 ff        	adc	#$ff
    3204: 85 17        	sta	$17                     ; 0x2017 <launchBeat+0x92>
    3206: b1 12        	lda	($12),y                 ; 0x2012 <launchBeat+0x8d>
    3208: 85 14        	sta	$14                     ; 0x2014 <launchBeat+0x8f>
    320a: 18           	clc
    320b: 69 d0        	adc	#$d0
    320d: e6 12        	inc	$12                     ; 0x2012 <launchBeat+0x8d>
    320f: d0 02        	bne	$3213 <printf+0x1be>
    3211: e6 13        	inc	$13                     ; 0x2013 <launchBeat+0x8e>
    3213: c9 0a        	cmp	#$a
    3215: 64 15        	stz	$15                     ; 0x2015 <launchBeat+0x90>
    3217: 90 b8        	bcc	$31d1 <printf+0x17c>
    3219: 80 4c        	bra	$3267 <printf+0x212>
    321b: 84 13        	sty	$13                     ; 0x2013 <launchBeat+0x8e>
    321d: c5 cb        	cmp	$cb                     ; 0x20cb <launchBeat+0x146>
    321f: a0 01        	ldy	#$1
    3221: b0 28        	bcs	$324b <printf+0x1f6>
    3223: a6 d7        	ldx	$d7                     ; 0x20d7 <launchBeat+0x152>
    3225: e4 9c        	cpx	$9c                     ; 0x209c <launchBeat+0x117>
    3227: d0 19        	bne	$3242 <printf+0x1ed>
    3229: a6 d6        	ldx	$d6                     ; 0x20d6 <launchBeat+0x151>
    322b: e4 9b        	cpx	$9b                     ; 0x209b <launchBeat+0x116>
    322d: d0 13        	bne	$3242 <printf+0x1ed>
    322f: 18           	clc
    3230: aa           	tax
    3231: a5 13        	lda	$13                     ; 0x2013 <launchBeat+0x8e>
    3233: 65 d0        	adc	$d0                     ; 0x20d0 <launchBeat+0x14b>
    3235: 85 12        	sta	$12                     ; 0x2012 <launchBeat+0x8d>
    3237: 8a           	txa
    3238: 65 d1        	adc	$d1                     ; 0x20d1 <launchBeat+0x14c>
    323a: 85 13        	sta	$13                     ; 0x2013 <launchBeat+0x8e>
    323c: a9 25        	lda	#$25
    323e: 92 12        	sta	($12)                   ; 0x2012 <launchBeat+0x8d>
    3240: 80 09        	bra	$324b <printf+0x1f6>
    3242: a2 00        	ldx	#$0
    3244: a9 25        	lda	#$25
    3246: 20 2e 3c     	jsr	$3c2e <putchar>
    3249: a0 01        	ldy	#$1
    324b: e6 cc        	inc	$cc                     ; 0x20cc <launchBeat+0x147>
    324d: d0 02        	bne	$3251 <printf+0x1fc>
    324f: e6 cd        	inc	$cd                     ; 0x20cd <launchBeat+0x148>
    3251: a5 9d        	lda	$9d                     ; 0x209d <launchBeat+0x118>
    3253: 18           	clc
    3254: 69 02        	adc	#$2
    3256: 85 99        	sta	$99                     ; 0x2099 <launchBeat+0x114>
    3258: a5 9e        	lda	$9e                     ; 0x209e <launchBeat+0x119>
    325a: 69 00        	adc	#$0
    325c: 85 9a        	sta	$9a                     ; 0x209a <launchBeat+0x115>
    325e: 4c ba 30     	jmp	$30ba <printf+0x65>
    3261: 64 16        	stz	$16                     ; 0x2016 <launchBeat+0x91>
    3263: 64 17        	stz	$17                     ; 0x2017 <launchBeat+0x92>
    3265: a0 01        	ldy	#$1
    3267: a6 16        	ldx	$16                     ; 0x2016 <launchBeat+0x91>
    3269: 86 d2        	stx	$d2                     ; 0x20d2 <launchBeat+0x14d>
    326b: a5 17        	lda	$17                     ; 0x2017 <launchBeat+0x92>
    326d: 85 d3        	sta	$d3                     ; 0x20d3 <launchBeat+0x14e>
    326f: 86 a1        	stx	$a1                     ; 0x20a1 <launchBeat+0x11c>
    3271: 85 9f        	sta	$9f                     ; 0x209f <launchBeat+0x11a>
    3273: b2 12        	lda	($12)                   ; 0x2012 <launchBeat+0x8d>
    3275: a2 ff        	ldx	#$ff
    3277: c9 2e        	cmp	#$2e
    3279: d0 39        	bne	$32b4 <printf+0x25f>
    327b: b1 12        	lda	($12),y                 ; 0x2012 <launchBeat+0x8d>
    327d: c9 2a        	cmp	#$2a
    327f: d0 38        	bne	$32b9 <printf+0x264>
    3281: a5 d8        	lda	$d8                     ; 0x20d8 <launchBeat+0x153>
    3283: a6 d9        	ldx	$d9                     ; 0x20d9 <launchBeat+0x154>
    3285: 85 14        	sta	$14                     ; 0x2014 <launchBeat+0x8f>
    3287: 86 15        	stx	$15                     ; 0x2015 <launchBeat+0x90>
    3289: 18           	clc
    328a: 69 02        	adc	#$2
    328c: 85 16        	sta	$16                     ; 0x2016 <launchBeat+0x91>
    328e: 8a           	txa
    328f: 69 00        	adc	#$0
    3291: a6 16        	ldx	$16                     ; 0x2016 <launchBeat+0x91>
    3293: 86 d8        	stx	$d8                     ; 0x20d8 <launchBeat+0x153>
    3295: 85 d9        	sta	$d9                     ; 0x20d9 <launchBeat+0x154>
    3297: a5 12        	lda	$12                     ; 0x2012 <launchBeat+0x8d>
    3299: 18           	clc
    329a: 69 02        	adc	#$2
    329c: 85 12        	sta	$12                     ; 0x2012 <launchBeat+0x8d>
    329e: a5 13        	lda	$13                     ; 0x2013 <launchBeat+0x8e>
    32a0: 69 00        	adc	#$0
    32a2: 85 13        	sta	$13                     ; 0x2013 <launchBeat+0x8e>
    32a4: b2 14        	lda	($14)                   ; 0x2014 <launchBeat+0x8f>
    32a6: aa           	tax
    32a7: b1 14        	lda	($14),y                 ; 0x2014 <launchBeat+0x8f>
    32a9: 86 18        	stx	$18                     ; 0x2018 <launchBeat+0x93>
    32ab: 86 d4        	stx	$d4                     ; 0x20d4 <launchBeat+0x14f>
    32ad: 85 19        	sta	$19                     ; 0x2019 <launchBeat+0x94>
    32af: 85 d5        	sta	$d5                     ; 0x20d5 <launchBeat+0x150>
    32b1: 4c 64 33     	jmp	$3364 <printf+0x30f>
    32b4: 86 18        	stx	$18                     ; 0x2018 <launchBeat+0x93>
    32b6: 4c 74 33     	jmp	$3374 <printf+0x31f>
    32b9: 85 17        	sta	$17                     ; 0x2017 <launchBeat+0x92>
    32bb: 18           	clc
    32bc: 69 d0        	adc	#$d0
    32be: c9 0a        	cmp	#$a
    32c0: 90 03        	bcc	$32c5 <printf+0x270>
    32c2: 4c 56 33     	jmp	$3356 <printf+0x301>
    32c5: 64 16        	stz	$16                     ; 0x2016 <launchBeat+0x91>
    32c7: a2 01        	ldx	#$1
    32c9: 64 18        	stz	$18                     ; 0x2018 <launchBeat+0x93>
    32cb: 64 19        	stz	$19                     ; 0x2019 <launchBeat+0x94>
    32cd: a0 01        	ldy	#$1
    32cf: 64 1a        	stz	$1a                     ; 0x201a <launchBeat+0x95>
    32d1: 5a           	phy
    32d2: a4 1a        	ldy	$1a                     ; 0x201a <launchBeat+0x95>
    32d4: 84 14        	sty	$14                     ; 0x2014 <launchBeat+0x8f>
    32d6: 86 15        	stx	$15                     ; 0x2015 <launchBeat+0x90>
    32d8: 06 18        	asl	$18                     ; 0x2018 <launchBeat+0x93>
    32da: 26 19        	rol	$19                     ; 0x2019 <launchBeat+0x94>
    32dc: a5 18        	lda	$18                     ; 0x2018 <launchBeat+0x93>
    32de: 0a           	asl
    32df: 85 1d        	sta	$1d                     ; 0x201d <launchBeat+0x98>
    32e1: a5 19        	lda	$19                     ; 0x2019 <launchBeat+0x94>
    32e3: 2a           	rol
    32e4: 06 1d        	asl	$1d                     ; 0x201d <launchBeat+0x98>
    32e6: 2a           	rol
    32e7: 85 1e        	sta	$1e                     ; 0x201e <launchBeat+0x99>
    32e9: a5 1d        	lda	$1d                     ; 0x201d <launchBeat+0x98>
    32eb: 18           	clc
    32ec: 65 18        	adc	$18                     ; 0x2018 <launchBeat+0x93>
    32ee: 85 18        	sta	$18                     ; 0x2018 <launchBeat+0x93>
    32f0: a5 1e        	lda	$1e                     ; 0x201e <launchBeat+0x99>
    32f2: 65 19        	adc	$19                     ; 0x2019 <launchBeat+0x94>
    32f4: 85 19        	sta	$19                     ; 0x2019 <launchBeat+0x94>
    32f6: a5 18        	lda	$18                     ; 0x2018 <launchBeat+0x93>
    32f8: 18           	clc
    32f9: 65 17        	adc	$17                     ; 0x2017 <launchBeat+0x92>
    32fb: 85 17        	sta	$17                     ; 0x2017 <launchBeat+0x92>
    32fd: a5 19        	lda	$19                     ; 0x2019 <launchBeat+0x94>
    32ff: 65 16        	adc	$16                     ; 0x2016 <launchBeat+0x91>
    3301: 85 16        	sta	$16                     ; 0x2016 <launchBeat+0x91>
    3303: 18           	clc
    3304: a5 17        	lda	$17                     ; 0x2017 <launchBeat+0x92>
    3306: 69 d0        	adc	#$d0
    3308: 85 18        	sta	$18                     ; 0x2018 <launchBeat+0x93>
    330a: a5 16        	lda	$16                     ; 0x2016 <launchBeat+0x91>
    330c: 69 ff        	adc	#$ff
    330e: 85 19        	sta	$19                     ; 0x2019 <launchBeat+0x94>
    3310: e8           	inx
    3311: d0 02        	bne	$3315 <printf+0x2c0>
    3313: e6 1a        	inc	$1a                     ; 0x201a <launchBeat+0x95>
    3315: a5 12        	lda	$12                     ; 0x2012 <launchBeat+0x8d>
    3317: 18           	clc
    3318: 65 15        	adc	$15                     ; 0x2015 <launchBeat+0x90>
    331a: 85 1d        	sta	$1d                     ; 0x201d <launchBeat+0x98>
    331c: a5 13        	lda	$13                     ; 0x2013 <launchBeat+0x8e>
    331e: 65 14        	adc	$14                     ; 0x2014 <launchBeat+0x8f>
    3320: a4 1d        	ldy	$1d                     ; 0x201d <launchBeat+0x98>
    3322: 84 16        	sty	$16                     ; 0x2016 <launchBeat+0x91>
    3324: 7a           	ply
    3325: 85 17        	sta	$17                     ; 0x2017 <launchBeat+0x92>
    3327: b1 16        	lda	($16),y                 ; 0x2016 <launchBeat+0x91>
    3329: 85 17        	sta	$17                     ; 0x2017 <launchBeat+0x92>
    332b: 18           	clc
    332c: 69 d0        	adc	#$d0
    332e: c9 0a        	cmp	#$a
    3330: 64 16        	stz	$16                     ; 0x2016 <launchBeat+0x91>
    3332: b0 03        	bcs	$3337 <printf+0x2e2>
    3334: 4c d1 32     	jmp	$32d1 <printf+0x27c>
    3337: a5 12        	lda	$12                     ; 0x2012 <launchBeat+0x8d>
    3339: 18           	clc
    333a: 65 15        	adc	$15                     ; 0x2015 <launchBeat+0x90>
    333c: 85 12        	sta	$12                     ; 0x2012 <launchBeat+0x8d>
    333e: a5 13        	lda	$13                     ; 0x2013 <launchBeat+0x8e>
    3340: 65 14        	adc	$14                     ; 0x2014 <launchBeat+0x8f>
    3342: 85 13        	sta	$13                     ; 0x2013 <launchBeat+0x8e>
    3344: e6 12        	inc	$12                     ; 0x2012 <launchBeat+0x8d>
    3346: d0 02        	bne	$334a <printf+0x2f5>
    3348: e6 13        	inc	$13                     ; 0x2013 <launchBeat+0x8e>
    334a: a6 18        	ldx	$18                     ; 0x2018 <launchBeat+0x93>
    334c: 86 d4        	stx	$d4                     ; 0x20d4 <launchBeat+0x14f>
    334e: a6 19        	ldx	$19                     ; 0x2019 <launchBeat+0x94>
    3350: 86 d5        	stx	$d5                     ; 0x20d5 <launchBeat+0x150>
    3352: a0 01        	ldy	#$1
    3354: 80 0e        	bra	$3364 <printf+0x30f>
    3356: e6 12        	inc	$12                     ; 0x2012 <launchBeat+0x8d>
    3358: d0 02        	bne	$335c <printf+0x307>
    335a: e6 13        	inc	$13                     ; 0x2013 <launchBeat+0x8e>
    335c: 64 18        	stz	$18                     ; 0x2018 <launchBeat+0x93>
    335e: 64 d4        	stz	$d4                     ; 0x20d4 <launchBeat+0x14f>
    3360: 64 d5        	stz	$d5                     ; 0x20d5 <launchBeat+0x150>
    3362: 64 19        	stz	$19                     ; 0x2019 <launchBeat+0x94>
    3364: a5 98        	lda	$98                     ; 0x2098 <launchBeat+0x113>
    3366: 29 ef        	and	#$ef
    3368: 85 98        	sta	$98                     ; 0x2098 <launchBeat+0x113>
    336a: 85 c8        	sta	$c8                     ; 0x20c8 <launchBeat+0x143>
    336c: a2 00        	ldx	#$0
    336e: 86 c9        	stx	$c9                     ; 0x20c9 <launchBeat+0x144>
    3370: b2 12        	lda	($12)                   ; 0x2012 <launchBeat+0x8d>
    3372: a6 19        	ldx	$19                     ; 0x2019 <launchBeat+0x94>
    3374: 86 15        	stx	$15                     ; 0x2015 <launchBeat+0x90>
    3376: a6 12        	ldx	$12                     ; 0x2012 <launchBeat+0x8d>
    3378: 86 99        	stx	$99                     ; 0x2099 <launchBeat+0x114>
    337a: a6 13        	ldx	$13                     ; 0x2013 <launchBeat+0x8e>
    337c: 86 9a        	stx	$9a                     ; 0x209a <launchBeat+0x115>
    337e: e6 99        	inc	$99                     ; 0x2099 <launchBeat+0x114>
    3380: d0 02        	bne	$3384 <printf+0x32f>
    3382: e6 9a        	inc	$9a                     ; 0x209a <launchBeat+0x115>
    3384: 85 14        	sta	$14                     ; 0x2014 <launchBeat+0x8f>
    3386: 38           	sec
    3387: e9 6c        	sbc	#$6c
    3389: 50 02        	bvc	$338d <printf+0x338>
    338b: 49 80        	eor	#$80
    338d: aa           	tax
    338e: 10 1d        	bpl	$33ad <printf+0x358>
    3390: a5 14        	lda	$14                     ; 0x2014 <launchBeat+0x8f>
    3392: c9 4c        	cmp	#$4c
    3394: f0 27        	beq	$33bd <printf+0x368>
    3396: c9 68        	cmp	#$68
    3398: d0 03        	bne	$339d <printf+0x348>
    339a: 4c 24 34     	jmp	$3424 <printf+0x3cf>
    339d: a2 08        	ldx	#$8
    339f: c9 6a        	cmp	#$6a
    33a1: d0 2e        	bne	$33d1 <printf+0x37c>
    33a3: a5 99        	lda	$99                     ; 0x2099 <launchBeat+0x114>
    33a5: 85 12        	sta	$12                     ; 0x2012 <launchBeat+0x8d>
    33a7: a5 9a        	lda	$9a                     ; 0x209a <launchBeat+0x115>
    33a9: 85 13        	sta	$13                     ; 0x2013 <launchBeat+0x8e>
    33ab: 80 43        	bra	$33f0 <printf+0x39b>
    33ad: a6 14        	ldx	$14                     ; 0x2014 <launchBeat+0x8f>
    33af: e0 6c        	cpx	#$6c
    33b1: f0 23        	beq	$33d6 <printf+0x381>
    33b3: e0 74        	cpx	#$74
    33b5: f0 12        	beq	$33c9 <printf+0x374>
    33b7: e0 7a        	cpx	#$7a
    33b9: f0 0e        	beq	$33c9 <printf+0x374>
    33bb: 80 14        	bra	$33d1 <printf+0x37c>
    33bd: a5 98        	lda	$98                     ; 0x2098 <launchBeat+0x113>
    33bf: 09 40        	ora	#$40
    33c1: 85 98        	sta	$98                     ; 0x2098 <launchBeat+0x113>
    33c3: 85 c8        	sta	$c8                     ; 0x20c8 <launchBeat+0x143>
    33c5: a2 00        	ldx	#$0
    33c7: 86 c9        	stx	$c9                     ; 0x20c9 <launchBeat+0x144>
    33c9: a6 99        	ldx	$99                     ; 0x2099 <launchBeat+0x114>
    33cb: 86 12        	stx	$12                     ; 0x2012 <launchBeat+0x8d>
    33cd: a6 9a        	ldx	$9a                     ; 0x209a <launchBeat+0x115>
    33cf: 86 13        	stx	$13                     ; 0x2013 <launchBeat+0x8e>
    33d1: a2 02        	ldx	#$2
    33d3: 8a           	txa
    33d4: 80 1c        	bra	$33f2 <printf+0x39d>
    33d6: b1 12        	lda	($12),y                 ; 0x2012 <launchBeat+0x8d>
    33d8: a2 04        	ldx	#$4
    33da: c9 6c        	cmp	#$6c
    33dc: f0 03        	beq	$33e1 <printf+0x38c>
    33de: 4c 33 37     	jmp	$3733 <printf+0x6de>
    33e1: a5 12        	lda	$12                     ; 0x2012 <launchBeat+0x8d>
    33e3: 18           	clc
    33e4: 69 02        	adc	#$2
    33e6: 85 12        	sta	$12                     ; 0x2012 <launchBeat+0x8d>
    33e8: a5 13        	lda	$13                     ; 0x2013 <launchBeat+0x8e>
    33ea: 69 00        	adc	#$0
    33ec: 85 13        	sta	$13                     ; 0x2013 <launchBeat+0x8e>
    33ee: a2 08        	ldx	#$8
    33f0: a9 08        	lda	#$8
    33f2: 85 dd        	sta	$dd                     ; 0x20dd <launchBeat+0x158>
    33f4: b2 12        	lda	($12)                   ; 0x2012 <launchBeat+0x8d>
    33f6: 5a           	phy
    33f7: a4 12        	ldy	$12                     ; 0x2012 <launchBeat+0x8d>
    33f9: 84 99        	sty	$99                     ; 0x2099 <launchBeat+0x114>
    33fb: a4 13        	ldy	$13                     ; 0x2013 <launchBeat+0x8e>
    33fd: 84 9a        	sty	$9a                     ; 0x209a <launchBeat+0x115>
    33ff: 7a           	ply
    3400: 86 9b        	stx	$9b                     ; 0x209b <launchBeat+0x116>
    3402: aa           	tax
    3403: 18           	clc
    3404: 69 9d        	adc	#$9d
    3406: c9 16        	cmp	#$16
    3408: b0 39        	bcs	$3443 <printf+0x3ee>
    340a: 0a           	asl
    340b: aa           	tax
    340c: 7c 4d 42     	jmp	($424d,x)               ; 0x424d <__set_v+0x19>
    340f: a6 15        	ldx	$15                     ; 0x2015 <launchBeat+0x90>
    3411: 86 e0        	stx	$e0                     ; 0x20e0 <launchBeat+0x15b>
    3413: a6 18        	ldx	$18                     ; 0x2018 <launchBeat+0x93>
    3415: 86 e1        	stx	$e1                     ; 0x20e1 <launchBeat+0x15c>
    3417: a0 0a        	ldy	#$a
    3419: a2 0a        	ldx	#$a
    341b: 86 dc        	stx	$dc                     ; 0x20dc <launchBeat+0x157>
    341d: 84 c7        	sty	$c7                     ; 0x20c7 <launchBeat+0x142>
    341f: 64 a2        	stz	$a2                     ; 0x20a2 <launchBeat+0x11d>
    3421: 4c 43 35     	jmp	$3543 <printf+0x4ee>
    3424: b1 12        	lda	($12),y                 ; 0x2012 <launchBeat+0x8d>
    3426: a2 02        	ldx	#$2
    3428: c9 68        	cmp	#$68
    342a: f0 03        	beq	$342f <printf+0x3da>
    342c: 4c 39 37     	jmp	$3739 <printf+0x6e4>
    342f: a5 12        	lda	$12                     ; 0x2012 <launchBeat+0x8d>
    3431: 18           	clc
    3432: 69 02        	adc	#$2
    3434: 85 12        	sta	$12                     ; 0x2012 <launchBeat+0x8d>
    3436: a5 13        	lda	$13                     ; 0x2013 <launchBeat+0x8e>
    3438: 69 00        	adc	#$0
    343a: 85 13        	sta	$13                     ; 0x2013 <launchBeat+0x8e>
    343c: a2 01        	ldx	#$1
    343e: 86 dd        	stx	$dd                     ; 0x20dd <launchBeat+0x158>
    3440: e8           	inx
    3441: 80 b1        	bra	$33f4 <printf+0x39f>
    3443: e0 58        	cpx	#$58
    3445: f0 03        	beq	$344a <printf+0x3f5>
    3447: 4c e7 3b     	jmp	$3be7 <printf+0xb92>
    344a: a6 15        	ldx	$15                     ; 0x2015 <launchBeat+0x90>
    344c: 86 e0        	stx	$e0                     ; 0x20e0 <launchBeat+0x15b>
    344e: a6 18        	ldx	$18                     ; 0x2018 <launchBeat+0x93>
    3450: 86 e1        	stx	$e1                     ; 0x20e1 <launchBeat+0x15c>
    3452: a2 10        	ldx	#$10
    3454: 86 c7        	stx	$c7                     ; 0x20c7 <launchBeat+0x142>
    3456: a9 00        	lda	#$0
    3458: 09 01        	ora	#$1
    345a: a6 98        	ldx	$98                     ; 0x2098 <launchBeat+0x113>
    345c: 80 29        	bra	$3487 <printf+0x432>
    345e: a6 15        	ldx	$15                     ; 0x2015 <launchBeat+0x90>
    3460: 86 e0        	stx	$e0                     ; 0x20e0 <launchBeat+0x15b>
    3462: a6 18        	ldx	$18                     ; 0x2018 <launchBeat+0x93>
    3464: 86 e1        	stx	$e1                     ; 0x20e1 <launchBeat+0x15c>
    3466: a2 10        	ldx	#$10
    3468: 86 c7        	stx	$c7                     ; 0x20c7 <launchBeat+0x142>
    346a: a5 98        	lda	$98                     ; 0x2098 <launchBeat+0x113>
    346c: 09 84        	ora	#$84
    346e: 80 10        	bra	$3480 <printf+0x42b>
    3470: a6 15        	ldx	$15                     ; 0x2015 <launchBeat+0x90>
    3472: 86 e0        	stx	$e0                     ; 0x20e0 <launchBeat+0x15b>
    3474: a6 18        	ldx	$18                     ; 0x2018 <launchBeat+0x93>
    3476: 86 e1        	stx	$e1                     ; 0x20e1 <launchBeat+0x15c>
    3478: a2 10        	ldx	#$10
    347a: 86 c7        	stx	$c7                     ; 0x20c7 <launchBeat+0x142>
    347c: a5 98        	lda	$98                     ; 0x2098 <launchBeat+0x113>
    347e: 09 80        	ora	#$80
    3480: aa           	tax
    3481: a9 00        	lda	#$0
    3483: 09 01        	ora	#$1
    3485: 86 98        	stx	$98                     ; 0x2098 <launchBeat+0x113>
    3487: 86 c8        	stx	$c8                     ; 0x20c8 <launchBeat+0x143>
    3489: 85 a2        	sta	$a2                     ; 0x20a2 <launchBeat+0x11d>
    348b: 85 c9        	sta	$c9                     ; 0x20c9 <launchBeat+0x144>
    348d: a2 10        	ldx	#$10
    348f: 86 dc        	stx	$dc                     ; 0x20dc <launchBeat+0x157>
    3491: 4c 43 35     	jmp	$3543 <printf+0x4ee>
    3494: a5 d8        	lda	$d8                     ; 0x20d8 <launchBeat+0x153>
    3496: a6 d9        	ldx	$d9                     ; 0x20d9 <launchBeat+0x154>
    3498: 85 12        	sta	$12                     ; 0x2012 <launchBeat+0x8d>
    349a: 86 13        	stx	$13                     ; 0x2013 <launchBeat+0x8e>
    349c: 18           	clc
    349d: 69 02        	adc	#$2
    349f: 85 14        	sta	$14                     ; 0x2014 <launchBeat+0x8f>
    34a1: 8a           	txa
    34a2: 69 00        	adc	#$0
    34a4: a6 14        	ldx	$14                     ; 0x2014 <launchBeat+0x8f>
    34a6: 86 d8        	stx	$d8                     ; 0x20d8 <launchBeat+0x153>
    34a8: 85 d9        	sta	$d9                     ; 0x20d9 <launchBeat+0x154>
    34aa: b2 12        	lda	($12)                   ; 0x2012 <launchBeat+0x8d>
    34ac: aa           	tax
    34ad: b1 12        	lda	($12),y                 ; 0x2012 <launchBeat+0x8d>
    34af: 86 12        	stx	$12                     ; 0x2012 <launchBeat+0x8d>
    34b1: 85 13        	sta	$13                     ; 0x2013 <launchBeat+0x8e>
    34b3: a5 cc        	lda	$cc                     ; 0x20cc <launchBeat+0x147>
    34b5: a6 cd        	ldx	$cd                     ; 0x20cd <launchBeat+0x148>
    34b7: 92 12        	sta	($12)                   ; 0x2012 <launchBeat+0x8d>
    34b9: 8a           	txa
    34ba: 91 12        	sta	($12),y                 ; 0x2012 <launchBeat+0x8d>
    34bc: 4c 1c 35     	jmp	$351c <printf+0x4c7>
    34bf: a5 d8        	lda	$d8                     ; 0x20d8 <launchBeat+0x153>
    34c1: a6 d9        	ldx	$d9                     ; 0x20d9 <launchBeat+0x154>
    34c3: 85 12        	sta	$12                     ; 0x2012 <launchBeat+0x8d>
    34c5: 86 13        	stx	$13                     ; 0x2013 <launchBeat+0x8e>
    34c7: 18           	clc
    34c8: 69 02        	adc	#$2
    34ca: 85 14        	sta	$14                     ; 0x2014 <launchBeat+0x8f>
    34cc: 8a           	txa
    34cd: 69 00        	adc	#$0
    34cf: a6 14        	ldx	$14                     ; 0x2014 <launchBeat+0x8f>
    34d1: 86 d8        	stx	$d8                     ; 0x20d8 <launchBeat+0x153>
    34d3: 85 d9        	sta	$d9                     ; 0x20d9 <launchBeat+0x154>
    34d5: b2 12        	lda	($12)                   ; 0x2012 <launchBeat+0x8d>
    34d7: aa           	tax
    34d8: b1 12        	lda	($12),y                 ; 0x2012 <launchBeat+0x8d>
    34da: 86 12        	stx	$12                     ; 0x2012 <launchBeat+0x8d>
    34dc: 85 13        	sta	$13                     ; 0x2013 <launchBeat+0x8e>
    34de: 80 2f        	bra	$350f <printf+0x4ba>
    34e0: a6 15        	ldx	$15                     ; 0x2015 <launchBeat+0x90>
    34e2: 86 e0        	stx	$e0                     ; 0x20e0 <launchBeat+0x15b>
    34e4: a6 18        	ldx	$18                     ; 0x2018 <launchBeat+0x93>
    34e6: 86 e1        	stx	$e1                     ; 0x20e1 <launchBeat+0x15c>
    34e8: a0 08        	ldy	#$8
    34ea: a2 08        	ldx	#$8
    34ec: 80 45        	bra	$3533 <printf+0x4de>
    34ee: a5 d8        	lda	$d8                     ; 0x20d8 <launchBeat+0x153>
    34f0: a6 d9        	ldx	$d9                     ; 0x20d9 <launchBeat+0x154>
    34f2: 85 12        	sta	$12                     ; 0x2012 <launchBeat+0x8d>
    34f4: 86 13        	stx	$13                     ; 0x2013 <launchBeat+0x8e>
    34f6: 18           	clc
    34f7: 69 02        	adc	#$2
    34f9: a8           	tay
    34fa: 8a           	txa
    34fb: 69 00        	adc	#$0
    34fd: 84 d8        	sty	$d8                     ; 0x20d8 <launchBeat+0x153>
    34ff: 85 d9        	sta	$d9                     ; 0x20d9 <launchBeat+0x154>
    3501: b2 12        	lda	($12)                   ; 0x2012 <launchBeat+0x8d>
    3503: 85 ba        	sta	$ba                     ; 0x20ba <launchBeat+0x135>
    3505: 64 bb        	stz	$bb                     ; 0x20bb <launchBeat+0x136>
    3507: a2 ba        	ldx	#$ba
    3509: 86 12        	stx	$12                     ; 0x2012 <launchBeat+0x8d>
    350b: a2 00        	ldx	#$0
    350d: 86 13        	stx	$13                     ; 0x2013 <launchBeat+0x8e>
    350f: a2 c7        	ldx	#$c7
    3511: 86 14        	stx	$14                     ; 0x2014 <launchBeat+0x8f>
    3513: a2 00        	ldx	#$0
    3515: 86 15        	stx	$15                     ; 0x2015 <launchBeat+0x90>
    3517: 20 49 2f     	jsr	$2f49 <_ZN12_GLOBAL__N_112print_stringEPKcP6Status>
    351a: a0 01        	ldy	#$1
    351c: a2 00        	ldx	#$0
    351e: 86 9b        	stx	$9b                     ; 0x209b <launchBeat+0x116>
    3520: a2 00        	ldx	#$0
    3522: 86 9c        	stx	$9c                     ; 0x209c <launchBeat+0x117>
    3524: 4c cf 3b     	jmp	$3bcf <printf+0xb7a>
    3527: a6 15        	ldx	$15                     ; 0x2015 <launchBeat+0x90>
    3529: 86 e0        	stx	$e0                     ; 0x20e0 <launchBeat+0x15b>
    352b: a6 18        	ldx	$18                     ; 0x2018 <launchBeat+0x93>
    352d: 86 e1        	stx	$e1                     ; 0x20e1 <launchBeat+0x15c>
    352f: a0 0a        	ldy	#$a
    3531: a2 0a        	ldx	#$a
    3533: 86 dc        	stx	$dc                     ; 0x20dc <launchBeat+0x157>
    3535: 84 c7        	sty	$c7                     ; 0x20c7 <launchBeat+0x142>
    3537: a9 00        	lda	#$0
    3539: 09 01        	ora	#$1
    353b: a6 98        	ldx	$98                     ; 0x2098 <launchBeat+0x113>
    353d: 86 c8        	stx	$c8                     ; 0x20c8 <launchBeat+0x143>
    353f: 85 a2        	sta	$a2                     ; 0x20a2 <launchBeat+0x11d>
    3541: 85 c9        	sta	$c9                     ; 0x20c9 <launchBeat+0x144>
    3543: a5 dd        	lda	$dd                     ; 0x20dd <launchBeat+0x158>
    3545: 85 bc        	sta	$bc                     ; 0x20bc <launchBeat+0x137>
    3547: a4 d8        	ldy	$d8                     ; 0x20d8 <launchBeat+0x153>
    3549: a6 d9        	ldx	$d9                     ; 0x20d9 <launchBeat+0x154>
    354b: 86 a0        	stx	$a0                     ; 0x20a0 <launchBeat+0x11b>
    354d: 84 14        	sty	$14                     ; 0x2014 <launchBeat+0x8f>
    354f: 84 97        	sty	$97                     ; 0x2097 <launchBeat+0x112>
    3551: 86 15        	stx	$15                     ; 0x2015 <launchBeat+0x90>
    3553: a6 de        	ldx	$de                     ; 0x20de <launchBeat+0x159>
    3555: 86 12        	stx	$12                     ; 0x2012 <launchBeat+0x8d>
    3557: a6 df        	ldx	$df                     ; 0x20df <launchBeat+0x15a>
    3559: 86 13        	stx	$13                     ; 0x2013 <launchBeat+0x8e>
    355b: a2 00        	ldx	#$0
    355d: 85 9c        	sta	$9c                     ; 0x209c <launchBeat+0x117>
    355f: 20 bf 3f     	jsr	$3fbf <memcpy>
    3562: 18           	clc
    3563: a5 97        	lda	$97                     ; 0x2097 <launchBeat+0x112>
    3565: 65 9b        	adc	$9b                     ; 0x209b <launchBeat+0x116>
    3567: aa           	tax
    3568: a5 a0        	lda	$a0                     ; 0x20a0 <launchBeat+0x11b>
    356a: 69 00        	adc	#$0
    356c: 86 d8        	stx	$d8                     ; 0x20d8 <launchBeat+0x153>
    356e: 85 d9        	sta	$d9                     ; 0x20d9 <launchBeat+0x154>
    3570: a5 a2        	lda	$a2                     ; 0x20a2 <launchBeat+0x11d>
    3572: 29 01        	and	#$1
    3574: b8           	clv
    3575: f0 03        	beq	$357a <printf+0x525>
    3577: 4c ce 35     	jmp	$35ce <printf+0x579>
    357a: a6 9c        	ldx	$9c                     ; 0x209c <launchBeat+0x117>
    357c: b5 bc        	lda	$bc,x                   ; 0x20bc <launchBeat+0x137>
    357e: aa           	tax
    357f: a0 01        	ldy	#$1
    3581: a5 9f        	lda	$9f                     ; 0x209f <launchBeat+0x11a>
    3583: 85 1a        	sta	$1a                     ; 0x201a <launchBeat+0x95>
    3585: a5 e1        	lda	$e1                     ; 0x20e1 <launchBeat+0x15c>
    3587: 85 9f        	sta	$9f                     ; 0x209f <launchBeat+0x11a>
    3589: a9 00        	lda	#$0
    358b: 85 9b        	sta	$9b                     ; 0x209b <launchBeat+0x116>
    358d: a9 00        	lda	#$0
    358f: 85 9c        	sta	$9c                     ; 0x209c <launchBeat+0x117>
    3591: a5 e0        	lda	$e0                     ; 0x20e0 <launchBeat+0x15b>
    3593: 85 a0        	sta	$a0                     ; 0x20a0 <launchBeat+0x11b>
    3595: 8a           	txa
    3596: 10 4c        	bpl	$35e4 <printf+0x58f>
    3598: a2 00        	ldx	#$0
    359a: 64 12        	stz	$12                     ; 0x2012 <launchBeat+0x8d>
    359c: a9 00        	lda	#$0
    359e: 38           	sec
    359f: f5 bd        	sbc	$bd,x                   ; 0x20bd <launchBeat+0x138>
    35a1: a0 00        	ldy	#$0
    35a3: b0 02        	bcs	$35a7 <printf+0x552>
    35a5: a0 01        	ldy	#$1
    35a7: 38           	sec
    35a8: e5 12        	sbc	$12                     ; 0x2012 <launchBeat+0x8d>
    35aa: 85 13        	sta	$13                     ; 0x2013 <launchBeat+0x8e>
    35ac: 64 12        	stz	$12                     ; 0x2012 <launchBeat+0x8d>
    35ae: b0 04        	bcs	$35b4 <printf+0x55f>
    35b0: a9 01        	lda	#$1
    35b2: 85 12        	sta	$12                     ; 0x2012 <launchBeat+0x8d>
    35b4: 98           	tya
    35b5: 05 12        	ora	$12                     ; 0x2012 <launchBeat+0x8d>
    35b7: 85 12        	sta	$12                     ; 0x2012 <launchBeat+0x8d>
    35b9: a5 13        	lda	$13                     ; 0x2013 <launchBeat+0x8e>
    35bb: 9d bd 00     	sta	$bd,x                   ; 0xbd <__zp_bss_size+0x56>
    35be: e8           	inx
    35bf: 86 13        	stx	$13                     ; 0x2013 <launchBeat+0x8e>
    35c1: a4 dd        	ldy	$dd                     ; 0x20dd <launchBeat+0x158>
    35c3: c4 13        	cpy	$13                     ; 0x2013 <launchBeat+0x8e>
    35c5: d0 d5        	bne	$359c <printf+0x547>
    35c7: 2c 34 42     	bit	$4234                   ; 0x4234 <__set_v>
    35ca: a0 01        	ldy	#$1
    35cc: 80 16        	bra	$35e4 <printf+0x58f>
    35ce: a0 01        	ldy	#$1
    35d0: a6 9f        	ldx	$9f                     ; 0x209f <launchBeat+0x11a>
    35d2: 86 1a        	stx	$1a                     ; 0x201a <launchBeat+0x95>
    35d4: a6 e1        	ldx	$e1                     ; 0x20e1 <launchBeat+0x15c>
    35d6: 86 9f        	stx	$9f                     ; 0x209f <launchBeat+0x11a>
    35d8: a2 00        	ldx	#$0
    35da: 86 9b        	stx	$9b                     ; 0x209b <launchBeat+0x116>
    35dc: a2 00        	ldx	#$0
    35de: 86 9c        	stx	$9c                     ; 0x209c <launchBeat+0x117>
    35e0: a6 e0        	ldx	$e0                     ; 0x20e0 <launchBeat+0x15b>
    35e2: 86 a0        	stx	$a0                     ; 0x20a0 <launchBeat+0x11b>
    35e4: a2 01        	ldx	#$1
    35e6: 70 02        	bvs	$35ea <printf+0x595>
    35e8: a2 00        	ldx	#$0
    35ea: 86 16        	stx	$16                     ; 0x2016 <launchBeat+0x91>
    35ec: a5 dd        	lda	$dd                     ; 0x20dd <launchBeat+0x158>
    35ee: 0a           	asl
    35ef: 0a           	asl
    35f0: 0a           	asl
    35f1: 85 12        	sta	$12                     ; 0x2012 <launchBeat+0x8d>
    35f3: a2 00        	ldx	#$0
    35f5: 8a           	txa
    35f6: e0 00        	cpx	#$0
    35f8: d0 03        	bne	$35fd <printf+0x5a8>
    35fa: 4c 82 36     	jmp	$3682 <printf+0x62d>
    35fd: 85 17        	sta	$17                     ; 0x2017 <launchBeat+0x92>
    35ff: 86 97        	stx	$97                     ; 0x2097 <launchBeat+0x112>
    3601: ca           	dex
    3602: 86 15        	stx	$15                     ; 0x2015 <launchBeat+0x90>
    3604: a2 00        	ldx	#$0
    3606: 64 13        	stz	$13                     ; 0x2013 <launchBeat+0x8e>
    3608: 80 0d        	bra	$3617 <printf+0x5c2>
    360a: a4 13        	ldy	$13                     ; 0x2013 <launchBeat+0x8e>
    360c: 99 a5 00     	sta	$a5,y                   ; 0xa5 <__zp_bss_size+0x3e>
    360f: a4 15        	ldy	$15                     ; 0x2015 <launchBeat+0x90>
    3611: c4 13        	cpy	$13                     ; 0x2013 <launchBeat+0x8e>
    3613: f0 38        	beq	$364d <printf+0x5f8>
    3615: e6 13        	inc	$13                     ; 0x2013 <launchBeat+0x8e>
    3617: a4 13        	ldy	$13                     ; 0x2013 <launchBeat+0x8e>
    3619: b9 a5 00     	lda	$a5,y                   ; 0xa5 <__zp_bss_size+0x3e>
    361c: 0a           	asl
    361d: e0 00        	cpx	#$0
    361f: f0 02        	beq	$3623 <printf+0x5ce>
    3621: 09 01        	ora	#$1
    3623: a4 dc        	ldy	$dc                     ; 0x20dc <launchBeat+0x157>
    3625: 84 14        	sty	$14                     ; 0x2014 <launchBeat+0x8f>
    3627: c5 14        	cmp	$14                     ; 0x2014 <launchBeat+0x8f>
    3629: a2 01        	ldx	#$1
    362b: b0 02        	bcs	$362f <printf+0x5da>
    362d: a2 00        	ldx	#$0
    362f: 90 d9        	bcc	$360a <printf+0x5b5>
    3631: 84 14        	sty	$14                     ; 0x2014 <launchBeat+0x8f>
    3633: 38           	sec
    3634: e5 14        	sbc	$14                     ; 0x2014 <launchBeat+0x8f>
    3636: a4 13        	ldy	$13                     ; 0x2013 <launchBeat+0x8e>
    3638: 99 a5 00     	sta	$a5,y                   ; 0xa5 <__zp_bss_size+0x3e>
    363b: a4 15        	ldy	$15                     ; 0x2015 <launchBeat+0x90>
    363d: c4 13        	cpy	$13                     ; 0x2013 <launchBeat+0x8e>
    363f: d0 d4        	bne	$3615 <printf+0x5c0>
    3641: a4 97        	ldy	$97                     ; 0x2097 <launchBeat+0x112>
    3643: a6 97        	ldx	$97                     ; 0x2097 <launchBeat+0x112>
    3645: e8           	inx
    3646: a9 01        	lda	#$1
    3648: 99 a5 00     	sta	$a5,y                   ; 0xa5 <__zp_bss_size+0x3e>
    364b: 86 97        	stx	$97                     ; 0x2097 <launchBeat+0x112>
    364d: a6 dd        	ldx	$dd                     ; 0x20dd <launchBeat+0x158>
    364f: b5 bc        	lda	$bc,x                   ; 0x20bc <launchBeat+0x137>
    3651: aa           	tax
    3652: a0 01        	ldy	#$1
    3654: 8a           	txa
    3655: 10 47        	bpl	$369e <printf+0x649>
    3657: a5 97        	lda	$97                     ; 0x2097 <launchBeat+0x112>
    3659: f0 34        	beq	$368f <printf+0x63a>
    365b: a2 00        	ldx	#$0
    365d: a4 dc        	ldy	$dc                     ; 0x20dc <launchBeat+0x157>
    365f: 84 14        	sty	$14                     ; 0x2014 <launchBeat+0x8f>
    3661: b5 a5        	lda	$a5,x                   ; 0x20a5 <launchBeat+0x120>
    3663: 1a           	inc
    3664: f6 a5        	inc	$a5,x                   ; 0x20a5 <launchBeat+0x120>
    3666: c5 14        	cmp	$14                     ; 0x2014 <launchBeat+0x8f>
    3668: b0 03        	bcs	$366d <printf+0x618>
    366a: 4c c9 36     	jmp	$36c9 <printf+0x674>
    366d: a4 14        	ldy	$14                     ; 0x2014 <launchBeat+0x8f>
    366f: 84 13        	sty	$13                     ; 0x2013 <launchBeat+0x8e>
    3671: 38           	sec
    3672: e5 13        	sbc	$13                     ; 0x2013 <launchBeat+0x8e>
    3674: 9d a5 00     	sta	$a5,x                   ; 0xa5 <__zp_bss_size+0x3e>
    3677: e8           	inx
    3678: 86 13        	stx	$13                     ; 0x2013 <launchBeat+0x8e>
    367a: a4 97        	ldy	$97                     ; 0x2097 <launchBeat+0x112>
    367c: c4 13        	cpy	$13                     ; 0x2013 <launchBeat+0x8e>
    367e: d0 e1        	bne	$3661 <printf+0x60c>
    3680: 80 0f        	bra	$3691 <printf+0x63c>
    3682: 85 17        	sta	$17                     ; 0x2017 <launchBeat+0x92>
    3684: a6 dd        	ldx	$dd                     ; 0x20dd <launchBeat+0x158>
    3686: b5 bc        	lda	$bc,x                   ; 0x20bc <launchBeat+0x137>
    3688: aa           	tax
    3689: 64 97        	stz	$97                     ; 0x2097 <launchBeat+0x112>
    368b: 30 04        	bmi	$3691 <printf+0x63c>
    368d: 80 0f        	bra	$369e <printf+0x649>
    368f: 64 97        	stz	$97                     ; 0x2097 <launchBeat+0x112>
    3691: a4 97        	ldy	$97                     ; 0x2097 <launchBeat+0x112>
    3693: a6 97        	ldx	$97                     ; 0x2097 <launchBeat+0x112>
    3695: e8           	inx
    3696: a9 01        	lda	#$1
    3698: 99 a5 00     	sta	$a5,y                   ; 0xa5 <__zp_bss_size+0x3e>
    369b: a8           	tay
    369c: 86 97        	stx	$97                     ; 0x2097 <launchBeat+0x112>
    369e: a2 01        	ldx	#$1
    36a0: 64 13        	stz	$13                     ; 0x2013 <launchBeat+0x8e>
    36a2: a5 dd        	lda	$dd                     ; 0x20dd <launchBeat+0x158>
    36a4: 85 14        	sta	$14                     ; 0x2014 <launchBeat+0x8f>
    36a6: b5 bc        	lda	$bc,x                   ; 0x20bc <launchBeat+0x137>
    36a8: 0a           	asl
    36a9: 64 15        	stz	$15                     ; 0x2015 <launchBeat+0x90>
    36ab: 26 15        	rol	$15                     ; 0x2015 <launchBeat+0x90>
    36ad: 05 13        	ora	$13                     ; 0x2013 <launchBeat+0x8e>
    36af: 9d bc 00     	sta	$bc,x                   ; 0xbc <__zp_bss_size+0x55>
    36b2: e8           	inx
    36b3: c6 14        	dec	$14                     ; 0x2014 <launchBeat+0x8f>
    36b5: a5 15        	lda	$15                     ; 0x2015 <launchBeat+0x90>
    36b7: 85 13        	sta	$13                     ; 0x2013 <launchBeat+0x8e>
    36b9: a5 14        	lda	$14                     ; 0x2014 <launchBeat+0x8f>
    36bb: d0 e9        	bne	$36a6 <printf+0x651>
    36bd: a5 17        	lda	$17                     ; 0x2017 <launchBeat+0x92>
    36bf: 1a           	inc
    36c0: c5 12        	cmp	$12                     ; 0x2012 <launchBeat+0x8d>
    36c2: a6 97        	ldx	$97                     ; 0x2097 <launchBeat+0x112>
    36c4: b0 07        	bcs	$36cd <printf+0x678>
    36c6: 4c f6 35     	jmp	$35f6 <printf+0x5a1>
    36c9: a0 01        	ldy	#$1
    36cb: 80 d1        	bra	$369e <printf+0x649>
    36cd: a5 98        	lda	$98                     ; 0x2098 <launchBeat+0x113>
    36cf: e6 a0        	inc	$a0                     ; 0x20a0 <launchBeat+0x11b>
    36d1: c6 a0        	dec	$a0                     ; 0x20a0 <launchBeat+0x11b>
    36d3: 10 08        	bpl	$36dd <printf+0x688>
    36d5: a2 01        	ldx	#$1
    36d7: 64 a0        	stz	$a0                     ; 0x20a0 <launchBeat+0x11b>
    36d9: 86 9f        	stx	$9f                     ; 0x209f <launchBeat+0x11a>
    36db: a6 97        	ldx	$97                     ; 0x2097 <launchBeat+0x112>
    36dd: 29 04        	and	#$4
    36df: f0 2b        	beq	$370c <printf+0x6b7>
    36e1: a5 dc        	lda	$dc                     ; 0x20dc <launchBeat+0x157>
    36e3: c9 10        	cmp	#$10
    36e5: f0 14        	beq	$36fb <printf+0x6a6>
    36e7: c9 08        	cmp	#$8
    36e9: d0 21        	bne	$370c <printf+0x6b7>
    36eb: a2 00        	ldx	#$0
    36ed: e4 a0        	cpx	$a0                     ; 0x20a0 <launchBeat+0x11b>
    36ef: f0 03        	beq	$36f4 <printf+0x69f>
    36f1: 4c f6 3b     	jmp	$3bf6 <printf+0xba1>
    36f4: a6 97        	ldx	$97                     ; 0x2097 <launchBeat+0x112>
    36f6: e4 9f        	cpx	$9f                     ; 0x209f <launchBeat+0x11a>
    36f8: 4c f8 3b     	jmp	$3bf8 <printf+0xba3>
    36fb: 8a           	txa
    36fc: f0 0e        	beq	$370c <printf+0x6b7>
    36fe: a5 98        	lda	$98                     ; 0x2098 <launchBeat+0x113>
    3700: 29 80        	and	#$80
    3702: d0 03        	bne	$3707 <printf+0x6b2>
    3704: 4c 11 3c     	jmp	$3c11 <printf+0xbbc>
    3707: a2 78        	ldx	#$78
    3709: 4c 13 3c     	jmp	$3c13 <printf+0xbbe>
    370c: a6 98        	ldx	$98                     ; 0x2098 <launchBeat+0x113>
    370e: a9 2d        	lda	#$2d
    3710: 85 e0        	sta	$e0                     ; 0x20e0 <launchBeat+0x15b>
    3712: a5 16        	lda	$16                     ; 0x2016 <launchBeat+0x91>
    3714: d0 32        	bne	$3748 <printf+0x6f3>
    3716: 86 12        	stx	$12                     ; 0x2012 <launchBeat+0x8d>
    3718: 8a           	txa
    3719: 29 02        	and	#$2
    371b: a2 2b        	ldx	#$2b
    371d: 86 e0        	stx	$e0                     ; 0x20e0 <launchBeat+0x15b>
    371f: aa           	tax
    3720: d0 26        	bne	$3748 <printf+0x6f3>
    3722: a5 12        	lda	$12                     ; 0x2012 <launchBeat+0x8d>
    3724: 29 08        	and	#$8
    3726: d0 1c        	bne	$3744 <printf+0x6ef>
    3728: a2 01        	ldx	#$1
    372a: 86 dd        	stx	$dd                     ; 0x20dd <launchBeat+0x158>
    372c: a9 00        	lda	#$0
    372e: aa           	tax
    372f: 86 dc        	stx	$dc                     ; 0x20dc <launchBeat+0x157>
    3731: 80 1c        	bra	$374f <printf+0x6fa>
    3733: 85 12        	sta	$12                     ; 0x2012 <launchBeat+0x8d>
    3735: a9 04        	lda	#$4
    3737: 80 04        	bra	$373d <printf+0x6e8>
    3739: 85 12        	sta	$12                     ; 0x2012 <launchBeat+0x8d>
    373b: a9 02        	lda	#$2
    373d: 85 dd        	sta	$dd                     ; 0x20dd <launchBeat+0x158>
    373f: a5 12        	lda	$12                     ; 0x2012 <launchBeat+0x8d>
    3741: 4c 00 34     	jmp	$3400 <printf+0x3ab>
    3744: a2 20        	ldx	#$20
    3746: 86 e0        	stx	$e0                     ; 0x20e0 <launchBeat+0x15b>
    3748: a2 00        	ldx	#$0
    374a: 86 dd        	stx	$dd                     ; 0x20dd <launchBeat+0x158>
    374c: 86 dc        	stx	$dc                     ; 0x20dc <launchBeat+0x157>
    374e: 98           	tya
    374f: a6 a0        	ldx	$a0                     ; 0x20a0 <launchBeat+0x11b>
    3751: d0 35        	bne	$3788 <printf+0x733>
    3753: a6 9f        	ldx	$9f                     ; 0x209f <launchBeat+0x11a>
    3755: a4 97        	ldy	$97                     ; 0x2097 <launchBeat+0x112>
    3757: 84 12        	sty	$12                     ; 0x2012 <launchBeat+0x8d>
    3759: e4 12        	cpx	$12                     ; 0x2012 <launchBeat+0x8d>
    375b: a6 9f        	ldx	$9f                     ; 0x209f <launchBeat+0x11a>
    375d: 86 12        	stx	$12                     ; 0x2012 <launchBeat+0x8d>
    375f: a6 a0        	ldx	$a0                     ; 0x20a0 <launchBeat+0x11b>
    3761: 86 13        	stx	$13                     ; 0x2013 <launchBeat+0x8e>
    3763: b0 04        	bcs	$3769 <printf+0x714>
    3765: 84 12        	sty	$12                     ; 0x2012 <launchBeat+0x8d>
    3767: 64 13        	stz	$13                     ; 0x2013 <launchBeat+0x8e>
    3769: 85 18        	sta	$18                     ; 0x2018 <launchBeat+0x93>
    376b: 18           	clc
    376c: 65 12        	adc	$12                     ; 0x2012 <launchBeat+0x8d>
    376e: 85 16        	sta	$16                     ; 0x2016 <launchBeat+0x91>
    3770: 85 14        	sta	$14                     ; 0x2014 <launchBeat+0x8f>
    3772: a5 13        	lda	$13                     ; 0x2013 <launchBeat+0x8e>
    3774: 69 00        	adc	#$0
    3776: 85 15        	sta	$15                     ; 0x2015 <launchBeat+0x90>
    3778: c5 1a        	cmp	$1a                     ; 0x201a <launchBeat+0x95>
    377a: d0 1e        	bne	$379a <printf+0x745>
    377c: a6 1a        	ldx	$1a                     ; 0x201a <launchBeat+0x95>
    377e: 86 17        	stx	$17                     ; 0x2017 <launchBeat+0x92>
    3780: a6 a1        	ldx	$a1                     ; 0x20a1 <launchBeat+0x11c>
    3782: a5 16        	lda	$16                     ; 0x2016 <launchBeat+0x91>
    3784: c5 a1        	cmp	$a1                     ; 0x20a1 <launchBeat+0x11c>
    3786: 80 1c        	bra	$37a4 <printf+0x74f>
    3788: a6 a0        	ldx	$a0                     ; 0x20a0 <launchBeat+0x11b>
    378a: e0 00        	cpx	#$0
    378c: a6 9f        	ldx	$9f                     ; 0x209f <launchBeat+0x11a>
    378e: 86 12        	stx	$12                     ; 0x2012 <launchBeat+0x8d>
    3790: a6 a0        	ldx	$a0                     ; 0x20a0 <launchBeat+0x11b>
    3792: 86 13        	stx	$13                     ; 0x2013 <launchBeat+0x8e>
    3794: a4 97        	ldy	$97                     ; 0x2097 <launchBeat+0x112>
    3796: 90 cd        	bcc	$3765 <printf+0x710>
    3798: 80 cf        	bra	$3769 <printf+0x714>
    379a: a6 a1        	ldx	$a1                     ; 0x20a1 <launchBeat+0x11c>
    379c: 5a           	phy
    379d: a4 1a        	ldy	$1a                     ; 0x201a <launchBeat+0x95>
    379f: 84 17        	sty	$17                     ; 0x2017 <launchBeat+0x92>
    37a1: 7a           	ply
    37a2: c5 1a        	cmp	$1a                     ; 0x201a <launchBeat+0x95>
    37a4: 64 a2        	stz	$a2                     ; 0x20a2 <launchBeat+0x11d>
    37a6: 64 a1        	stz	$a1                     ; 0x20a1 <launchBeat+0x11c>
    37a8: 90 03        	bcc	$37ad <printf+0x758>
    37aa: 4c 48 38     	jmp	$3848 <printf+0x7f3>
    37ad: a5 98        	lda	$98                     ; 0x2098 <launchBeat+0x113>
    37af: 29 11        	and	#$11
    37b1: 86 16        	stx	$16                     ; 0x2016 <launchBeat+0x91>
    37b3: f0 0f        	beq	$37c4 <printf+0x76f>
    37b5: 8a           	txa
    37b6: 38           	sec
    37b7: e5 14        	sbc	$14                     ; 0x2014 <launchBeat+0x8f>
    37b9: 85 a2        	sta	$a2                     ; 0x20a2 <launchBeat+0x11d>
    37bb: a5 1a        	lda	$1a                     ; 0x201a <launchBeat+0x95>
    37bd: e5 15        	sbc	$15                     ; 0x2015 <launchBeat+0x90>
    37bf: 85 a1        	sta	$a1                     ; 0x20a1 <launchBeat+0x11c>
    37c1: 4c 48 38     	jmp	$3848 <printf+0x7f3>
    37c4: a6 cc        	ldx	$cc                     ; 0x20cc <launchBeat+0x147>
    37c6: 86 14        	stx	$14                     ; 0x2014 <launchBeat+0x8f>
    37c8: 38           	sec
    37c9: a5 18        	lda	$18                     ; 0x2018 <launchBeat+0x93>
    37cb: e5 16        	sbc	$16                     ; 0x2016 <launchBeat+0x91>
    37cd: a8           	tay
    37ce: a9 00        	lda	#$0
    37d0: e5 17        	sbc	$17                     ; 0x2017 <launchBeat+0x92>
    37d2: aa           	tax
    37d3: 18           	clc
    37d4: 98           	tya
    37d5: 65 12        	adc	$12                     ; 0x2012 <launchBeat+0x8d>
    37d7: 85 98        	sta	$98                     ; 0x2098 <launchBeat+0x113>
    37d9: 8a           	txa
    37da: 65 13        	adc	$13                     ; 0x2013 <launchBeat+0x8e>
    37dc: 85 a1        	sta	$a1                     ; 0x20a1 <launchBeat+0x11c>
    37de: a5 cd        	lda	$cd                     ; 0x20cd <launchBeat+0x148>
    37e0: 80 4e        	bra	$3830 <printf+0x7db>
    37e2: c5 cb        	cmp	$cb                     ; 0x20cb <launchBeat+0x146>
    37e4: a4 a1        	ldy	$a1                     ; 0x20a1 <launchBeat+0x11c>
    37e6: b0 28        	bcs	$3810 <printf+0x7bb>
    37e8: a6 d7        	ldx	$d7                     ; 0x20d7 <launchBeat+0x152>
    37ea: e4 9c        	cpx	$9c                     ; 0x209c <launchBeat+0x117>
    37ec: d0 19        	bne	$3807 <printf+0x7b2>
    37ee: a6 d6        	ldx	$d6                     ; 0x20d6 <launchBeat+0x151>
    37f0: e4 9b        	cpx	$9b                     ; 0x209b <launchBeat+0x116>
    37f2: d0 13        	bne	$3807 <printf+0x7b2>
    37f4: 18           	clc
    37f5: aa           	tax
    37f6: a5 14        	lda	$14                     ; 0x2014 <launchBeat+0x8f>
    37f8: 65 d0        	adc	$d0                     ; 0x20d0 <launchBeat+0x14b>
    37fa: 85 12        	sta	$12                     ; 0x2012 <launchBeat+0x8d>
    37fc: 8a           	txa
    37fd: 65 d1        	adc	$d1                     ; 0x20d1 <launchBeat+0x14c>
    37ff: 85 13        	sta	$13                     ; 0x2013 <launchBeat+0x8e>
    3801: a9 20        	lda	#$20
    3803: 92 12        	sta	($12)                   ; 0x2012 <launchBeat+0x8d>
    3805: 80 07        	bra	$380e <printf+0x7b9>
    3807: a2 00        	ldx	#$0
    3809: a9 20        	lda	#$20
    380b: 20 2e 3c     	jsr	$3c2e <putchar>
    380e: a4 a1        	ldy	$a1                     ; 0x20a1 <launchBeat+0x11c>
    3810: a6 cc        	ldx	$cc                     ; 0x20cc <launchBeat+0x147>
    3812: a5 cd        	lda	$cd                     ; 0x20cd <launchBeat+0x148>
    3814: e8           	inx
    3815: d0 01        	bne	$3818 <printf+0x7c3>
    3817: 1a           	inc
    3818: 86 14        	stx	$14                     ; 0x2014 <launchBeat+0x8f>
    381a: 86 cc        	stx	$cc                     ; 0x20cc <launchBeat+0x147>
    381c: 85 cd        	sta	$cd                     ; 0x20cd <launchBeat+0x148>
    381e: a6 98        	ldx	$98                     ; 0x2098 <launchBeat+0x113>
    3820: e8           	inx
    3821: d0 01        	bne	$3824 <printf+0x7cf>
    3823: c8           	iny
    3824: 86 98        	stx	$98                     ; 0x2098 <launchBeat+0x113>
    3826: 84 a1        	sty	$a1                     ; 0x20a1 <launchBeat+0x11c>
    3828: c0 00        	cpy	#$0
    382a: d0 04        	bne	$3830 <printf+0x7db>
    382c: e0 00        	cpx	#$0
    382e: f0 12        	beq	$3842 <printf+0x7ed>
    3830: c5 cb        	cmp	$cb                     ; 0x20cb <launchBeat+0x146>
    3832: f0 03        	beq	$3837 <printf+0x7e2>
    3834: 4c e2 37     	jmp	$37e2 <printf+0x78d>
    3837: a6 ca        	ldx	$ca                     ; 0x20ca <launchBeat+0x145>
    3839: 86 12        	stx	$12                     ; 0x2012 <launchBeat+0x8d>
    383b: a6 14        	ldx	$14                     ; 0x2014 <launchBeat+0x8f>
    383d: e4 12        	cpx	$12                     ; 0x2012 <launchBeat+0x8d>
    383f: 4c e4 37     	jmp	$37e4 <printf+0x78f>
    3842: 64 a2        	stz	$a2                     ; 0x20a2 <launchBeat+0x11d>
    3844: 64 a1        	stz	$a1                     ; 0x20a1 <launchBeat+0x11c>
    3846: a4 97        	ldy	$97                     ; 0x2097 <launchBeat+0x112>
    3848: a6 dd        	ldx	$dd                     ; 0x20dd <launchBeat+0x158>
    384a: d0 4f        	bne	$389b <printf+0x846>
    384c: a6 cc        	ldx	$cc                     ; 0x20cc <launchBeat+0x147>
    384e: a5 cd        	lda	$cd                     ; 0x20cd <launchBeat+0x148>
    3850: c5 cb        	cmp	$cb                     ; 0x20cb <launchBeat+0x146>
    3852: d0 10        	bne	$3864 <printf+0x80f>
    3854: 86 13        	stx	$13                     ; 0x2013 <launchBeat+0x8e>
    3856: a6 ca        	ldx	$ca                     ; 0x20ca <launchBeat+0x145>
    3858: 86 12        	stx	$12                     ; 0x2012 <launchBeat+0x8d>
    385a: a4 97        	ldy	$97                     ; 0x2097 <launchBeat+0x112>
    385c: a6 13        	ldx	$13                     ; 0x2013 <launchBeat+0x8e>
    385e: e4 12        	cpx	$12                     ; 0x2012 <launchBeat+0x8d>
    3860: 90 08        	bcc	$386a <printf+0x815>
    3862: 80 31        	bra	$3895 <printf+0x840>
    3864: 86 13        	stx	$13                     ; 0x2013 <launchBeat+0x8e>
    3866: c5 cb        	cmp	$cb                     ; 0x20cb <launchBeat+0x146>
    3868: b0 2b        	bcs	$3895 <printf+0x840>
    386a: a6 d7        	ldx	$d7                     ; 0x20d7 <launchBeat+0x152>
    386c: e4 9c        	cpx	$9c                     ; 0x209c <launchBeat+0x117>
    386e: d0 1c        	bne	$388c <printf+0x837>
    3870: a6 d6        	ldx	$d6                     ; 0x20d6 <launchBeat+0x151>
    3872: e4 9b        	cpx	$9b                     ; 0x209b <launchBeat+0x116>
    3874: d0 16        	bne	$388c <printf+0x837>
    3876: 18           	clc
    3877: 85 12        	sta	$12                     ; 0x2012 <launchBeat+0x8d>
    3879: a5 13        	lda	$13                     ; 0x2013 <launchBeat+0x8e>
    387b: 65 d0        	adc	$d0                     ; 0x20d0 <launchBeat+0x14b>
    387d: aa           	tax
    387e: a5 12        	lda	$12                     ; 0x2012 <launchBeat+0x8d>
    3880: 65 d1        	adc	$d1                     ; 0x20d1 <launchBeat+0x14c>
    3882: 86 12        	stx	$12                     ; 0x2012 <launchBeat+0x8d>
    3884: 85 13        	sta	$13                     ; 0x2013 <launchBeat+0x8e>
    3886: a5 e0        	lda	$e0                     ; 0x20e0 <launchBeat+0x15b>
    3888: 92 12        	sta	($12)                   ; 0x2012 <launchBeat+0x8d>
    388a: 80 07        	bra	$3893 <printf+0x83e>
    388c: a2 00        	ldx	#$0
    388e: a5 e0        	lda	$e0                     ; 0x20e0 <launchBeat+0x15b>
    3890: 20 2e 3c     	jsr	$3c2e <putchar>
    3893: a4 97        	ldy	$97                     ; 0x2097 <launchBeat+0x112>
    3895: e6 cc        	inc	$cc                     ; 0x20cc <launchBeat+0x147>
    3897: d0 02        	bne	$389b <printf+0x846>
    3899: e6 cd        	inc	$cd                     ; 0x20cd <launchBeat+0x148>
    389b: a6 dc        	ldx	$dc                     ; 0x20dc <launchBeat+0x157>
    389d: f0 4f        	beq	$38ee <printf+0x899>
    389f: a6 cc        	ldx	$cc                     ; 0x20cc <launchBeat+0x147>
    38a1: a5 cd        	lda	$cd                     ; 0x20cd <launchBeat+0x148>
    38a3: c5 cb        	cmp	$cb                     ; 0x20cb <launchBeat+0x146>
    38a5: d0 10        	bne	$38b7 <printf+0x862>
    38a7: 86 13        	stx	$13                     ; 0x2013 <launchBeat+0x8e>
    38a9: a6 ca        	ldx	$ca                     ; 0x20ca <launchBeat+0x145>
    38ab: 86 12        	stx	$12                     ; 0x2012 <launchBeat+0x8d>
    38ad: a4 97        	ldy	$97                     ; 0x2097 <launchBeat+0x112>
    38af: a6 13        	ldx	$13                     ; 0x2013 <launchBeat+0x8e>
    38b1: e4 12        	cpx	$12                     ; 0x2012 <launchBeat+0x8d>
    38b3: 90 08        	bcc	$38bd <printf+0x868>
    38b5: 80 31        	bra	$38e8 <printf+0x893>
    38b7: 86 13        	stx	$13                     ; 0x2013 <launchBeat+0x8e>
    38b9: c5 cb        	cmp	$cb                     ; 0x20cb <launchBeat+0x146>
    38bb: b0 2b        	bcs	$38e8 <printf+0x893>
    38bd: a6 d7        	ldx	$d7                     ; 0x20d7 <launchBeat+0x152>
    38bf: e4 9c        	cpx	$9c                     ; 0x209c <launchBeat+0x117>
    38c1: d0 1c        	bne	$38df <printf+0x88a>
    38c3: a6 d6        	ldx	$d6                     ; 0x20d6 <launchBeat+0x151>
    38c5: e4 9b        	cpx	$9b                     ; 0x209b <launchBeat+0x116>
    38c7: d0 16        	bne	$38df <printf+0x88a>
    38c9: 18           	clc
    38ca: 85 12        	sta	$12                     ; 0x2012 <launchBeat+0x8d>
    38cc: a5 13        	lda	$13                     ; 0x2013 <launchBeat+0x8e>
    38ce: 65 d0        	adc	$d0                     ; 0x20d0 <launchBeat+0x14b>
    38d0: aa           	tax
    38d1: a5 12        	lda	$12                     ; 0x2012 <launchBeat+0x8d>
    38d3: 65 d1        	adc	$d1                     ; 0x20d1 <launchBeat+0x14c>
    38d5: 86 12        	stx	$12                     ; 0x2012 <launchBeat+0x8d>
    38d7: 85 13        	sta	$13                     ; 0x2013 <launchBeat+0x8e>
    38d9: a5 e1        	lda	$e1                     ; 0x20e1 <launchBeat+0x15c>
    38db: 92 12        	sta	($12)                   ; 0x2012 <launchBeat+0x8d>
    38dd: 80 07        	bra	$38e6 <printf+0x891>
    38df: a2 00        	ldx	#$0
    38e1: a5 e1        	lda	$e1                     ; 0x20e1 <launchBeat+0x15c>
    38e3: 20 2e 3c     	jsr	$3c2e <putchar>
    38e6: a4 97        	ldy	$97                     ; 0x2097 <launchBeat+0x112>
    38e8: e6 cc        	inc	$cc                     ; 0x20cc <launchBeat+0x147>
    38ea: d0 02        	bne	$38ee <printf+0x899>
    38ec: e6 cd        	inc	$cd                     ; 0x20cd <launchBeat+0x148>
    38ee: a9 10        	lda	#$10
    38f0: 25 c8        	and	$c8                     ; 0x20c8 <launchBeat+0x143>
    38f2: d0 03        	bne	$38f7 <printf+0x8a2>
    38f4: 4c 80 39     	jmp	$3980 <printf+0x92b>
    38f7: a5 c8        	lda	$c8                     ; 0x20c8 <launchBeat+0x143>
    38f9: 29 01        	and	#$1
    38fb: f0 03        	beq	$3900 <printf+0x8ab>
    38fd: 4c 80 39     	jmp	$3980 <printf+0x92b>
    3900: a6 a2        	ldx	$a2                     ; 0x20a2 <launchBeat+0x11d>
    3902: a5 a1        	lda	$a1                     ; 0x20a1 <launchBeat+0x11c>
    3904: d0 06        	bne	$390c <printf+0x8b7>
    3906: 8a           	txa
    3907: d0 03        	bne	$390c <printf+0x8b7>
    3909: 4c 26 3c     	jmp	$3c26 <printf+0xbd1>
    390c: a6 cc        	ldx	$cc                     ; 0x20cc <launchBeat+0x147>
    390e: 86 13        	stx	$13                     ; 0x2013 <launchBeat+0x8e>
    3910: a5 cd        	lda	$cd                     ; 0x20cd <launchBeat+0x148>
    3912: 4c 66 39     	jmp	$3966 <printf+0x911>
    3915: c5 cb        	cmp	$cb                     ; 0x20cb <launchBeat+0x146>
    3917: b0 26        	bcs	$393f <printf+0x8ea>
    3919: a6 d7        	ldx	$d7                     ; 0x20d7 <launchBeat+0x152>
    391b: e4 9c        	cpx	$9c                     ; 0x209c <launchBeat+0x117>
    391d: d0 19        	bne	$3938 <printf+0x8e3>
    391f: a6 d6        	ldx	$d6                     ; 0x20d6 <launchBeat+0x151>
    3921: e4 9b        	cpx	$9b                     ; 0x209b <launchBeat+0x116>
    3923: d0 13        	bne	$3938 <printf+0x8e3>
    3925: 18           	clc
    3926: aa           	tax
    3927: a5 13        	lda	$13                     ; 0x2013 <launchBeat+0x8e>
    3929: 65 d0        	adc	$d0                     ; 0x20d0 <launchBeat+0x14b>
    392b: 85 12        	sta	$12                     ; 0x2012 <launchBeat+0x8d>
    392d: 8a           	txa
    392e: 65 d1        	adc	$d1                     ; 0x20d1 <launchBeat+0x14c>
    3930: 85 13        	sta	$13                     ; 0x2013 <launchBeat+0x8e>
    3932: a9 30        	lda	#$30
    3934: 92 12        	sta	($12)                   ; 0x2012 <launchBeat+0x8d>
    3936: 80 07        	bra	$393f <printf+0x8ea>
    3938: a2 00        	ldx	#$0
    393a: a9 30        	lda	#$30
    393c: 20 2e 3c     	jsr	$3c2e <putchar>
    393f: a6 cc        	ldx	$cc                     ; 0x20cc <launchBeat+0x147>
    3941: a5 cd        	lda	$cd                     ; 0x20cd <launchBeat+0x148>
    3943: e8           	inx
    3944: d0 01        	bne	$3947 <printf+0x8f2>
    3946: 1a           	inc
    3947: 86 13        	stx	$13                     ; 0x2013 <launchBeat+0x8e>
    3949: 86 cc        	stx	$cc                     ; 0x20cc <launchBeat+0x147>
    394b: 85 cd        	sta	$cd                     ; 0x20cd <launchBeat+0x148>
    394d: a4 a2        	ldy	$a2                     ; 0x20a2 <launchBeat+0x11d>
    394f: a6 a1        	ldx	$a1                     ; 0x20a1 <launchBeat+0x11c>
    3951: 86 12        	stx	$12                     ; 0x2012 <launchBeat+0x8d>
    3953: 88           	dey
    3954: c0 ff        	cpy	#$ff
    3956: d0 02        	bne	$395a <printf+0x905>
    3958: c6 12        	dec	$12                     ; 0x2012 <launchBeat+0x8d>
    395a: 84 a2        	sty	$a2                     ; 0x20a2 <launchBeat+0x11d>
    395c: a6 12        	ldx	$12                     ; 0x2012 <launchBeat+0x8d>
    395e: 86 a1        	stx	$a1                     ; 0x20a1 <launchBeat+0x11c>
    3960: d0 04        	bne	$3966 <printf+0x911>
    3962: c0 00        	cpy	#$0
    3964: f0 14        	beq	$397a <printf+0x925>
    3966: c5 cb        	cmp	$cb                     ; 0x20cb <launchBeat+0x146>
    3968: f0 03        	beq	$396d <printf+0x918>
    396a: 4c 15 39     	jmp	$3915 <printf+0x8c0>
    396d: a6 ca        	ldx	$ca                     ; 0x20ca <launchBeat+0x145>
    396f: 86 12        	stx	$12                     ; 0x2012 <launchBeat+0x8d>
    3971: a6 13        	ldx	$13                     ; 0x2013 <launchBeat+0x8e>
    3973: e4 12        	cpx	$12                     ; 0x2012 <launchBeat+0x8d>
    3975: b0 c8        	bcs	$393f <printf+0x8ea>
    3977: 4c 19 39     	jmp	$3919 <printf+0x8c4>
    397a: 64 a2        	stz	$a2                     ; 0x20a2 <launchBeat+0x11d>
    397c: 64 a1        	stz	$a1                     ; 0x20a1 <launchBeat+0x11c>
    397e: a4 97        	ldy	$97                     ; 0x2097 <launchBeat+0x112>
    3980: a2 00        	ldx	#$0
    3982: e4 a0        	cpx	$a0                     ; 0x20a0 <launchBeat+0x11b>
    3984: d0 07        	bne	$398d <printf+0x938>
    3986: c4 9f        	cpy	$9f                     ; 0x209f <launchBeat+0x11a>
    3988: 90 0a        	bcc	$3994 <printf+0x93f>
    398a: 4c 04 3a     	jmp	$3a04 <printf+0x9af>
    398d: e4 a0        	cpx	$a0                     ; 0x20a0 <launchBeat+0x11b>
    398f: 90 03        	bcc	$3994 <printf+0x93f>
    3991: 4c 04 3a     	jmp	$3a04 <printf+0x9af>
    3994: a6 cc        	ldx	$cc                     ; 0x20cc <launchBeat+0x147>
    3996: 86 13        	stx	$13                     ; 0x2013 <launchBeat+0x8e>
    3998: a5 cd        	lda	$cd                     ; 0x20cd <launchBeat+0x148>
    399a: a2 ff        	ldx	#$ff
    399c: c6 9f        	dec	$9f                     ; 0x209f <launchBeat+0x11a>
    399e: e4 9f        	cpx	$9f                     ; 0x209f <launchBeat+0x11a>
    39a0: d0 02        	bne	$39a4 <printf+0x94f>
    39a2: c6 a0        	dec	$a0                     ; 0x20a0 <launchBeat+0x11b>
    39a4: c5 cb        	cmp	$cb                     ; 0x20cb <launchBeat+0x146>
    39a6: d0 0c        	bne	$39b4 <printf+0x95f>
    39a8: a6 ca        	ldx	$ca                     ; 0x20ca <launchBeat+0x145>
    39aa: 86 12        	stx	$12                     ; 0x2012 <launchBeat+0x8d>
    39ac: a6 13        	ldx	$13                     ; 0x2013 <launchBeat+0x8e>
    39ae: e4 12        	cpx	$12                     ; 0x2012 <launchBeat+0x8d>
    39b0: 90 06        	bcc	$39b8 <printf+0x963>
    39b2: 80 2a        	bra	$39de <printf+0x989>
    39b4: c5 cb        	cmp	$cb                     ; 0x20cb <launchBeat+0x146>
    39b6: b0 26        	bcs	$39de <printf+0x989>
    39b8: a6 d7        	ldx	$d7                     ; 0x20d7 <launchBeat+0x152>
    39ba: e4 9c        	cpx	$9c                     ; 0x209c <launchBeat+0x117>
    39bc: d0 19        	bne	$39d7 <printf+0x982>
    39be: a6 d6        	ldx	$d6                     ; 0x20d6 <launchBeat+0x151>
    39c0: e4 9b        	cpx	$9b                     ; 0x209b <launchBeat+0x116>
    39c2: d0 13        	bne	$39d7 <printf+0x982>
    39c4: 18           	clc
    39c5: aa           	tax
    39c6: a5 13        	lda	$13                     ; 0x2013 <launchBeat+0x8e>
    39c8: 65 d0        	adc	$d0                     ; 0x20d0 <launchBeat+0x14b>
    39ca: 85 12        	sta	$12                     ; 0x2012 <launchBeat+0x8d>
    39cc: 8a           	txa
    39cd: 65 d1        	adc	$d1                     ; 0x20d1 <launchBeat+0x14c>
    39cf: 85 13        	sta	$13                     ; 0x2013 <launchBeat+0x8e>
    39d1: a9 30        	lda	#$30
    39d3: 92 12        	sta	($12)                   ; 0x2012 <launchBeat+0x8d>
    39d5: 80 07        	bra	$39de <printf+0x989>
    39d7: a2 00        	ldx	#$0
    39d9: a9 30        	lda	#$30
    39db: 20 2e 3c     	jsr	$3c2e <putchar>
    39de: a6 cc        	ldx	$cc                     ; 0x20cc <launchBeat+0x147>
    39e0: a5 cd        	lda	$cd                     ; 0x20cd <launchBeat+0x148>
    39e2: e8           	inx
    39e3: d0 01        	bne	$39e6 <printf+0x991>
    39e5: 1a           	inc
    39e6: 86 13        	stx	$13                     ; 0x2013 <launchBeat+0x8e>
    39e8: 86 cc        	stx	$cc                     ; 0x20cc <launchBeat+0x147>
    39ea: 85 cd        	sta	$cd                     ; 0x20cd <launchBeat+0x148>
    39ec: a2 00        	ldx	#$0
    39ee: e4 a0        	cpx	$a0                     ; 0x20a0 <launchBeat+0x11b>
    39f0: d0 09        	bne	$39fb <printf+0x9a6>
    39f2: a4 97        	ldy	$97                     ; 0x2097 <launchBeat+0x112>
    39f4: c4 9f        	cpy	$9f                     ; 0x209f <launchBeat+0x11a>
    39f6: b0 0c        	bcs	$3a04 <printf+0x9af>
    39f8: 4c 9a 39     	jmp	$399a <printf+0x945>
    39fb: e4 a0        	cpx	$a0                     ; 0x20a0 <launchBeat+0x11b>
    39fd: a4 97        	ldy	$97                     ; 0x2097 <launchBeat+0x112>
    39ff: b0 03        	bcs	$3a04 <printf+0x9af>
    3a01: 4c 9a 39     	jmp	$399a <printf+0x945>
    3a04: 98           	tya
    3a05: d0 03        	bne	$3a0a <printf+0x9b5>
    3a07: 4c fd 3a     	jmp	$3afd <printf+0xaa8>
    3a0a: 88           	dey
    3a0b: d0 03        	bne	$3a10 <printf+0x9bb>
    3a0d: 4c 9a 3a     	jmp	$3a9a <printf+0xa45>
    3a10: 84 9f        	sty	$9f                     ; 0x209f <launchBeat+0x11a>
    3a12: a6 e2        	ldx	$e2                     ; 0x20e2 <launchBeat+0x15d>
    3a14: 8a           	txa
    3a15: 18           	clc
    3a16: 65 9f        	adc	$9f                     ; 0x209f <launchBeat+0x11a>
    3a18: 85 97        	sta	$97                     ; 0x2097 <launchBeat+0x112>
    3a1a: a5 e3        	lda	$e3                     ; 0x20e3 <launchBeat+0x15e>
    3a1c: 69 00        	adc	#$0
    3a1e: 85 98        	sta	$98                     ; 0x2098 <launchBeat+0x113>
    3a20: 4c 8c 3a     	jmp	$3a8c <printf+0xa37>
    3a23: a8           	tay
    3a24: a9 80        	lda	#$80
    3a26: 25 c8        	and	$c8                     ; 0x20c8 <launchBeat+0x143>
    3a28: f0 04        	beq	$3a2e <printf+0x9d9>
    3a2a: a2 61        	ldx	#$61
    3a2c: 80 02        	bra	$3a30 <printf+0x9db>
    3a2e: a2 41        	ldx	#$41
    3a30: 86 12        	stx	$12                     ; 0x2012 <launchBeat+0x8d>
    3a32: 18           	clc
    3a33: 98           	tya
    3a34: 65 12        	adc	$12                     ; 0x2012 <launchBeat+0x8d>
    3a36: 18           	clc
    3a37: 69 f6        	adc	#$f6
    3a39: a4 cc        	ldy	$cc                     ; 0x20cc <launchBeat+0x147>
    3a3b: a6 cd        	ldx	$cd                     ; 0x20cd <launchBeat+0x148>
    3a3d: e4 cb        	cpx	$cb                     ; 0x20cb <launchBeat+0x146>
    3a3f: d0 0c        	bne	$3a4d <printf+0x9f8>
    3a41: 86 14        	stx	$14                     ; 0x2014 <launchBeat+0x8f>
    3a43: a6 ca        	ldx	$ca                     ; 0x20ca <launchBeat+0x145>
    3a45: 86 12        	stx	$12                     ; 0x2012 <launchBeat+0x8d>
    3a47: c4 12        	cpy	$12                     ; 0x2012 <launchBeat+0x8d>
    3a49: 90 08        	bcc	$3a53 <printf+0x9fe>
    3a4b: 80 29        	bra	$3a76 <printf+0xa21>
    3a4d: 86 14        	stx	$14                     ; 0x2014 <launchBeat+0x8f>
    3a4f: e4 cb        	cpx	$cb                     ; 0x20cb <launchBeat+0x146>
    3a51: b0 23        	bcs	$3a76 <printf+0xa21>
    3a53: a6 d7        	ldx	$d7                     ; 0x20d7 <launchBeat+0x152>
    3a55: e4 9c        	cpx	$9c                     ; 0x209c <launchBeat+0x117>
    3a57: d0 18        	bne	$3a71 <printf+0xa1c>
    3a59: a6 d6        	ldx	$d6                     ; 0x20d6 <launchBeat+0x151>
    3a5b: e4 9b        	cpx	$9b                     ; 0x209b <launchBeat+0x116>
    3a5d: d0 12        	bne	$3a71 <printf+0xa1c>
    3a5f: 18           	clc
    3a60: aa           	tax
    3a61: 98           	tya
    3a62: 65 d0        	adc	$d0                     ; 0x20d0 <launchBeat+0x14b>
    3a64: 85 12        	sta	$12                     ; 0x2012 <launchBeat+0x8d>
    3a66: a5 14        	lda	$14                     ; 0x2014 <launchBeat+0x8f>
    3a68: 65 d1        	adc	$d1                     ; 0x20d1 <launchBeat+0x14c>
    3a6a: 85 13        	sta	$13                     ; 0x2013 <launchBeat+0x8e>
    3a6c: 8a           	txa
    3a6d: 92 12        	sta	($12)                   ; 0x2012 <launchBeat+0x8d>
    3a6f: 80 05        	bra	$3a76 <printf+0xa21>
    3a71: a2 00        	ldx	#$0
    3a73: 20 2e 3c     	jsr	$3c2e <putchar>
    3a76: e6 cc        	inc	$cc                     ; 0x20cc <launchBeat+0x147>
    3a78: d0 02        	bne	$3a7c <printf+0xa27>
    3a7a: e6 cd        	inc	$cd                     ; 0x20cd <launchBeat+0x148>
    3a7c: c6 9f        	dec	$9f                     ; 0x209f <launchBeat+0x11a>
    3a7e: a2 ff        	ldx	#$ff
    3a80: c6 97        	dec	$97                     ; 0x2097 <launchBeat+0x112>
    3a82: e4 97        	cpx	$97                     ; 0x2097 <launchBeat+0x112>
    3a84: d0 02        	bne	$3a88 <printf+0xa33>
    3a86: c6 98        	dec	$98                     ; 0x2098 <launchBeat+0x113>
    3a88: a5 9f        	lda	$9f                     ; 0x209f <launchBeat+0x11a>
    3a8a: f0 0e        	beq	$3a9a <printf+0xa45>
    3a8c: b2 97        	lda	($97)                   ; 0x2097 <launchBeat+0x112>
    3a8e: c9 0a        	cmp	#$a
    3a90: 90 03        	bcc	$3a95 <printf+0xa40>
    3a92: 4c 23 3a     	jmp	$3a23 <printf+0x9ce>
    3a95: 09 30        	ora	#$30
    3a97: 4c 39 3a     	jmp	$3a39 <printf+0x9e4>
    3a9a: a5 a5        	lda	$a5                     ; 0x20a5 <launchBeat+0x120>
    3a9c: c9 0a        	cmp	#$a
    3a9e: b0 04        	bcs	$3aa4 <printf+0xa4f>
    3aa0: 09 30        	ora	#$30
    3aa2: 80 16        	bra	$3aba <printf+0xa65>
    3aa4: a8           	tay
    3aa5: a9 80        	lda	#$80
    3aa7: 25 c8        	and	$c8                     ; 0x20c8 <launchBeat+0x143>
    3aa9: f0 04        	beq	$3aaf <printf+0xa5a>
    3aab: a2 61        	ldx	#$61
    3aad: 80 02        	bra	$3ab1 <printf+0xa5c>
    3aaf: a2 41        	ldx	#$41
    3ab1: 86 12        	stx	$12                     ; 0x2012 <launchBeat+0x8d>
    3ab3: 18           	clc
    3ab4: 98           	tya
    3ab5: 65 12        	adc	$12                     ; 0x2012 <launchBeat+0x8d>
    3ab7: 18           	clc
    3ab8: 69 f6        	adc	#$f6
    3aba: a4 cc        	ldy	$cc                     ; 0x20cc <launchBeat+0x147>
    3abc: a6 cd        	ldx	$cd                     ; 0x20cd <launchBeat+0x148>
    3abe: e4 cb        	cpx	$cb                     ; 0x20cb <launchBeat+0x146>
    3ac0: d0 0c        	bne	$3ace <printf+0xa79>
    3ac2: 86 14        	stx	$14                     ; 0x2014 <launchBeat+0x8f>
    3ac4: a6 ca        	ldx	$ca                     ; 0x20ca <launchBeat+0x145>
    3ac6: 86 12        	stx	$12                     ; 0x2012 <launchBeat+0x8d>
    3ac8: c4 12        	cpy	$12                     ; 0x2012 <launchBeat+0x8d>
    3aca: 90 08        	bcc	$3ad4 <printf+0xa7f>
    3acc: 80 29        	bra	$3af7 <printf+0xaa2>
    3ace: 86 14        	stx	$14                     ; 0x2014 <launchBeat+0x8f>
    3ad0: e4 cb        	cpx	$cb                     ; 0x20cb <launchBeat+0x146>
    3ad2: b0 23        	bcs	$3af7 <printf+0xaa2>
    3ad4: a6 d7        	ldx	$d7                     ; 0x20d7 <launchBeat+0x152>
    3ad6: e4 9c        	cpx	$9c                     ; 0x209c <launchBeat+0x117>
    3ad8: d0 18        	bne	$3af2 <printf+0xa9d>
    3ada: a6 d6        	ldx	$d6                     ; 0x20d6 <launchBeat+0x151>
    3adc: e4 9b        	cpx	$9b                     ; 0x209b <launchBeat+0x116>
    3ade: d0 12        	bne	$3af2 <printf+0xa9d>
    3ae0: 18           	clc
    3ae1: aa           	tax
    3ae2: 98           	tya
    3ae3: 65 d0        	adc	$d0                     ; 0x20d0 <launchBeat+0x14b>
    3ae5: 85 12        	sta	$12                     ; 0x2012 <launchBeat+0x8d>
    3ae7: a5 14        	lda	$14                     ; 0x2014 <launchBeat+0x8f>
    3ae9: 65 d1        	adc	$d1                     ; 0x20d1 <launchBeat+0x14c>
    3aeb: 85 13        	sta	$13                     ; 0x2013 <launchBeat+0x8e>
    3aed: 8a           	txa
    3aee: 92 12        	sta	($12)                   ; 0x2012 <launchBeat+0x8d>
    3af0: 80 05        	bra	$3af7 <printf+0xaa2>
    3af2: a2 00        	ldx	#$0
    3af4: 20 2e 3c     	jsr	$3c2e <putchar>
    3af7: e6 cc        	inc	$cc                     ; 0x20cc <launchBeat+0x147>
    3af9: d0 02        	bne	$3afd <printf+0xaa8>
    3afb: e6 cd        	inc	$cd                     ; 0x20cd <launchBeat+0x148>
    3afd: a5 c8        	lda	$c8                     ; 0x20c8 <launchBeat+0x143>
    3aff: 29 01        	and	#$1
    3b01: d0 1e        	bne	$3b21 <printf+0xacc>
    3b03: a6 cc        	ldx	$cc                     ; 0x20cc <launchBeat+0x147>
    3b05: 86 14        	stx	$14                     ; 0x2014 <launchBeat+0x8f>
    3b07: a5 cd        	lda	$cd                     ; 0x20cd <launchBeat+0x148>
    3b09: a4 ca        	ldy	$ca                     ; 0x20ca <launchBeat+0x145>
    3b0b: a6 cb        	ldx	$cb                     ; 0x20cb <launchBeat+0x146>
    3b0d: 86 12        	stx	$12                     ; 0x2012 <launchBeat+0x8d>
    3b0f: 86 13        	stx	$13                     ; 0x2013 <launchBeat+0x8e>
    3b11: c5 12        	cmp	$12                     ; 0x2012 <launchBeat+0x8d>
    3b13: f0 03        	beq	$3b18 <printf+0xac3>
    3b15: 4c a6 3b     	jmp	$3ba6 <printf+0xb51>
    3b18: 84 12        	sty	$12                     ; 0x2012 <launchBeat+0x8d>
    3b1a: a6 14        	ldx	$14                     ; 0x2014 <launchBeat+0x8f>
    3b1c: e4 12        	cpx	$12                     ; 0x2012 <launchBeat+0x8d>
    3b1e: 4c aa 3b     	jmp	$3baa <printf+0xb55>
    3b21: a6 cc        	ldx	$cc                     ; 0x20cc <launchBeat+0x147>
    3b23: 86 14        	stx	$14                     ; 0x2014 <launchBeat+0x8f>
    3b25: a5 cd        	lda	$cd                     ; 0x20cd <launchBeat+0x148>
    3b27: a6 a2        	ldx	$a2                     ; 0x20a2 <launchBeat+0x11d>
    3b29: a4 a1        	ldy	$a1                     ; 0x20a1 <launchBeat+0x11c>
    3b2b: f0 03        	beq	$3b30 <printf+0xadb>
    3b2d: 4c 92 3b     	jmp	$3b92 <printf+0xb3d>
    3b30: e0 00        	cpx	#$0
    3b32: f0 d5        	beq	$3b09 <printf+0xab4>
    3b34: 4c 92 3b     	jmp	$3b92 <printf+0xb3d>
    3b37: c5 cb        	cmp	$cb                     ; 0x20cb <launchBeat+0x146>
    3b39: b0 26        	bcs	$3b61 <printf+0xb0c>
    3b3b: a6 d7        	ldx	$d7                     ; 0x20d7 <launchBeat+0x152>
    3b3d: e4 9c        	cpx	$9c                     ; 0x209c <launchBeat+0x117>
    3b3f: d0 19        	bne	$3b5a <printf+0xb05>
    3b41: a6 d6        	ldx	$d6                     ; 0x20d6 <launchBeat+0x151>
    3b43: e4 9b        	cpx	$9b                     ; 0x209b <launchBeat+0x116>
    3b45: d0 13        	bne	$3b5a <printf+0xb05>
    3b47: 18           	clc
    3b48: aa           	tax
    3b49: a5 14        	lda	$14                     ; 0x2014 <launchBeat+0x8f>
    3b4b: 65 d0        	adc	$d0                     ; 0x20d0 <launchBeat+0x14b>
    3b4d: 85 12        	sta	$12                     ; 0x2012 <launchBeat+0x8d>
    3b4f: 8a           	txa
    3b50: 65 d1        	adc	$d1                     ; 0x20d1 <launchBeat+0x14c>
    3b52: 85 13        	sta	$13                     ; 0x2013 <launchBeat+0x8e>
    3b54: a9 20        	lda	#$20
    3b56: 92 12        	sta	($12)                   ; 0x2012 <launchBeat+0x8d>
    3b58: 80 07        	bra	$3b61 <printf+0xb0c>
    3b5a: a2 00        	ldx	#$0
    3b5c: a9 20        	lda	#$20
    3b5e: 20 2e 3c     	jsr	$3c2e <putchar>
    3b61: a6 cc        	ldx	$cc                     ; 0x20cc <launchBeat+0x147>
    3b63: a5 cd        	lda	$cd                     ; 0x20cd <launchBeat+0x148>
    3b65: e8           	inx
    3b66: d0 01        	bne	$3b69 <printf+0xb14>
    3b68: 1a           	inc
    3b69: 86 14        	stx	$14                     ; 0x2014 <launchBeat+0x8f>
    3b6b: 86 cc        	stx	$cc                     ; 0x20cc <launchBeat+0x147>
    3b6d: 85 cd        	sta	$cd                     ; 0x20cd <launchBeat+0x148>
    3b6f: a6 a2        	ldx	$a2                     ; 0x20a2 <launchBeat+0x11d>
    3b71: 86 12        	stx	$12                     ; 0x2012 <launchBeat+0x8d>
    3b73: a6 a1        	ldx	$a1                     ; 0x20a1 <launchBeat+0x11c>
    3b75: 86 13        	stx	$13                     ; 0x2013 <launchBeat+0x8e>
    3b77: a2 ff        	ldx	#$ff
    3b79: c6 12        	dec	$12                     ; 0x2012 <launchBeat+0x8d>
    3b7b: e4 12        	cpx	$12                     ; 0x2012 <launchBeat+0x8d>
    3b7d: d0 02        	bne	$3b81 <printf+0xb2c>
    3b7f: c6 13        	dec	$13                     ; 0x2013 <launchBeat+0x8e>
    3b81: a6 12        	ldx	$12                     ; 0x2012 <launchBeat+0x8d>
    3b83: 86 a2        	stx	$a2                     ; 0x20a2 <launchBeat+0x11d>
    3b85: a6 13        	ldx	$13                     ; 0x2013 <launchBeat+0x8e>
    3b87: 86 a1        	stx	$a1                     ; 0x20a1 <launchBeat+0x11c>
    3b89: d0 07        	bne	$3b92 <printf+0xb3d>
    3b8b: a6 12        	ldx	$12                     ; 0x2012 <launchBeat+0x8d>
    3b8d: d0 03        	bne	$3b92 <printf+0xb3d>
    3b8f: 4c 09 3b     	jmp	$3b09 <printf+0xab4>
    3b92: c5 cb        	cmp	$cb                     ; 0x20cb <launchBeat+0x146>
    3b94: f0 03        	beq	$3b99 <printf+0xb44>
    3b96: 4c 37 3b     	jmp	$3b37 <printf+0xae2>
    3b99: a6 ca        	ldx	$ca                     ; 0x20ca <launchBeat+0x145>
    3b9b: 86 12        	stx	$12                     ; 0x2012 <launchBeat+0x8d>
    3b9d: a6 14        	ldx	$14                     ; 0x2014 <launchBeat+0x8f>
    3b9f: e4 12        	cpx	$12                     ; 0x2012 <launchBeat+0x8d>
    3ba1: b0 be        	bcs	$3b61 <printf+0xb0c>
    3ba3: 4c 3b 3b     	jmp	$3b3b <printf+0xae6>
    3ba6: 86 12        	stx	$12                     ; 0x2012 <launchBeat+0x8d>
    3ba8: c5 12        	cmp	$12                     ; 0x2012 <launchBeat+0x8d>
    3baa: 98           	tya
    3bab: a0 01        	ldy	#$1
    3bad: 90 20        	bcc	$3bcf <printf+0xb7a>
    3baf: a6 13        	ldx	$13                     ; 0x2013 <launchBeat+0x8e>
    3bb1: d0 03        	bne	$3bb6 <printf+0xb61>
    3bb3: aa           	tax
    3bb4: f0 19        	beq	$3bcf <printf+0xb7a>
    3bb6: 18           	clc
    3bb7: 65 d0        	adc	$d0                     ; 0x20d0 <launchBeat+0x14b>
    3bb9: 85 12        	sta	$12                     ; 0x2012 <launchBeat+0x8d>
    3bbb: a5 13        	lda	$13                     ; 0x2013 <launchBeat+0x8e>
    3bbd: 65 d1        	adc	$d1                     ; 0x20d1 <launchBeat+0x14c>
    3bbf: 85 13        	sta	$13                     ; 0x2013 <launchBeat+0x8e>
    3bc1: a2 ff        	ldx	#$ff
    3bc3: c6 12        	dec	$12                     ; 0x2012 <launchBeat+0x8d>
    3bc5: e4 12        	cpx	$12                     ; 0x2012 <launchBeat+0x8d>
    3bc7: d0 02        	bne	$3bcb <printf+0xb76>
    3bc9: c6 13        	dec	$13                     ; 0x2013 <launchBeat+0x8e>
    3bcb: a9 00        	lda	#$0
    3bcd: 92 12        	sta	($12)                   ; 0x2012 <launchBeat+0x8d>
    3bcf: e6 99        	inc	$99                     ; 0x2099 <launchBeat+0x114>
    3bd1: d0 02        	bne	$3bd5 <printf+0xb80>
    3bd3: e6 9a        	inc	$9a                     ; 0x209a <launchBeat+0x115>
    3bd5: a6 9a        	ldx	$9a                     ; 0x209a <launchBeat+0x115>
    3bd7: e4 9e        	cpx	$9e                     ; 0x209e <launchBeat+0x119>
    3bd9: f0 03        	beq	$3bde <printf+0xb89>
    3bdb: 4c ba 30     	jmp	$30ba <printf+0x65>
    3bde: a6 99        	ldx	$99                     ; 0x2099 <launchBeat+0x114>
    3be0: e4 9d        	cpx	$9d                     ; 0x209d <launchBeat+0x118>
    3be2: f0 03        	beq	$3be7 <printf+0xb92>
    3be4: 4c ba 30     	jmp	$30ba <printf+0x65>
    3be7: b2 9d        	lda	($9d)                   ; 0x209d <launchBeat+0x118>
    3be9: a2 00        	ldx	#$0
    3beb: a0 00        	ldy	#$0
    3bed: 84 9b        	sty	$9b                     ; 0x209b <launchBeat+0x116>
    3bef: a0 00        	ldy	#$0
    3bf1: 84 9c        	sty	$9c                     ; 0x209c <launchBeat+0x117>
    3bf3: 4c d0 30     	jmp	$30d0 <printf+0x7b>
    3bf6: e4 a0        	cpx	$a0                     ; 0x20a0 <launchBeat+0x11b>
    3bf8: a6 98        	ldx	$98                     ; 0x2098 <launchBeat+0x113>
    3bfa: b0 03        	bcs	$3bff <printf+0xbaa>
    3bfc: 4c 0e 37     	jmp	$370e <printf+0x6b9>
    3bff: a5 97        	lda	$97                     ; 0x2097 <launchBeat+0x112>
    3c01: 85 9f        	sta	$9f                     ; 0x209f <launchBeat+0x11a>
    3c03: 64 a0        	stz	$a0                     ; 0x20a0 <launchBeat+0x11b>
    3c05: e6 9f        	inc	$9f                     ; 0x209f <launchBeat+0x11a>
    3c07: f0 03        	beq	$3c0c <printf+0xbb7>
    3c09: 4c 0e 37     	jmp	$370e <printf+0x6b9>
    3c0c: e6 a0        	inc	$a0                     ; 0x20a0 <launchBeat+0x11b>
    3c0e: 4c 0e 37     	jmp	$370e <printf+0x6b9>
    3c11: a2 58        	ldx	#$58
    3c13: 86 e1        	stx	$e1                     ; 0x20e1 <launchBeat+0x15c>
    3c15: a2 01        	ldx	#$1
    3c17: 86 dc        	stx	$dc                     ; 0x20dc <launchBeat+0x157>
    3c19: a2 30        	ldx	#$30
    3c1b: 86 e0        	stx	$e0                     ; 0x20e0 <launchBeat+0x15b>
    3c1d: a9 02        	lda	#$2
    3c1f: a2 00        	ldx	#$0
    3c21: 86 dd        	stx	$dd                     ; 0x20dd <launchBeat+0x158>
    3c23: 4c 4f 37     	jmp	$374f <printf+0x6fa>
    3c26: 64 a2        	stz	$a2                     ; 0x20a2 <launchBeat+0x11d>
    3c28: 64 a1        	stz	$a1                     ; 0x20a1 <launchBeat+0x11c>
    3c2a: 4c 80 39     	jmp	$3980 <printf+0x92b>
    3c2d: 60           	rts

00003c2e <putchar>:
    3c2e: 86 12        	stx	$12                     ; 0x2012 <launchBeat+0x8d>
    3c30: 85 ef        	sta	$ef                     ; 0x20ef <launchBeat+0x16a>
    3c32: 85 3a        	sta	$3a                     ; 0x203a <launchBeat+0xb5>
    3c34: a6 01        	ldx	$1                      ; 0x2001 <launchBeat+0x7c>
    3c36: 86 ee        	stx	$ee                     ; 0x20ee <launchBeat+0x169>
    3c38: a6 31        	ldx	$31                     ; 0x2031 <launchBeat+0xac>
    3c3a: a0 50        	ldy	#$50
    3c3c: 8c 00 de     	sty	$de00                   ; 0xde00 <end_block9+0x971c>
    3c3f: 9c 01 de     	stz	$de01                   ; 0xde01 <end_block9+0x971d>
    3c42: 8e 02 de     	stx	$de02                   ; 0xde02 <end_block9+0x971e>
    3c45: 9c 03 de     	stz	$de03                   ; 0xde03 <end_block9+0x971f>
    3c48: ad 10 de     	lda	$de10                   ; 0xde10 <end_block9+0x972c>
    3c4b: ac 11 de     	ldy	$de11                   ; 0xde11 <end_block9+0x972d>
    3c4e: ae 12 de     	ldx	$de12                   ; 0xde12 <end_block9+0x972e>
    3c51: 86 1a        	stx	$1a                     ; 0x201a <launchBeat+0x95>
    3c53: ae 13 de     	ldx	$de13                   ; 0xde13 <end_block9+0x972f>
    3c56: 86 1b        	stx	$1b                     ; 0x201b <launchBeat+0x96>
    3c58: 9c 08 de     	stz	$de08                   ; 0xde08 <end_block9+0x9724>
    3c5b: a2 c0        	ldx	#$c0
    3c5d: 8e 09 de     	stx	$de09                   ; 0xde09 <end_block9+0x9725>
    3c60: 9c 0a de     	stz	$de0a                   ; 0xde0a <end_block9+0x9726>
    3c63: 9c 0b de     	stz	$de0b                   ; 0xde0b <end_block9+0x9727>
    3c66: 8d 0c de     	sta	$de0c                   ; 0xde0c <end_block9+0x9728>
    3c69: 8c 0d de     	sty	$de0d                   ; 0xde0d <end_block9+0x9729>
    3c6c: 64 13        	stz	$13                     ; 0x2013 <launchBeat+0x8e>
    3c6e: a2 00        	ldx	#$0
    3c70: 86 14        	stx	$14                     ; 0x2014 <launchBeat+0x8f>
    3c72: a2 c0        	ldx	#$c0
    3c74: 86 15        	stx	$15                     ; 0x2015 <launchBeat+0x90>
    3c76: a2 11        	ldx	#$11
    3c78: 86 16        	stx	$16                     ; 0x2016 <launchBeat+0x91>
    3c7a: a2 c9        	ldx	#$c9
    3c7c: 86 17        	stx	$17                     ; 0x2017 <launchBeat+0x92>
    3c7e: a2 10        	ldx	#$10
    3c80: 86 18        	stx	$18                     ; 0x2018 <launchBeat+0x93>
    3c82: a2 c9        	ldx	#$c9
    3c84: 86 19        	stx	$19                     ; 0x2019 <launchBeat+0x94>
    3c86: a6 1a        	ldx	$1a                     ; 0x201a <launchBeat+0x95>
    3c88: 8e 0e de     	stx	$de0e                   ; 0xde0e <end_block9+0x972a>
    3c8b: a6 1b        	ldx	$1b                     ; 0x201b <launchBeat+0x96>
    3c8d: 8e 0f de     	stx	$de0f                   ; 0xde0f <end_block9+0x972b>
    3c90: ad 18 de     	lda	$de18                   ; 0xde18 <end_block9+0x9734>
    3c93: ac 19 de     	ldy	$de19                   ; 0xde19 <end_block9+0x9735>
    3c96: ae 1a de     	ldx	$de1a                   ; 0xde1a <end_block9+0x9736>
    3c99: ae 1b de     	ldx	$de1b                   ; 0xde1b <end_block9+0x9737>
    3c9c: 85 1c        	sta	$1c                     ; 0x201c <launchBeat+0x97>
    3c9e: 84 1d        	sty	$1d                     ; 0x201d <launchBeat+0x98>
    3ca0: 64 1a        	stz	$1a                     ; 0x201a <launchBeat+0x95>
    3ca2: 80 13        	bra	$3cb7 <putchar+0x89>
    3ca4: a5 1c        	lda	$1c                     ; 0x201c <launchBeat+0x97>
    3ca6: 18           	clc
    3ca7: 69 50        	adc	#$50
    3ca9: 85 1c        	sta	$1c                     ; 0x201c <launchBeat+0x97>
    3cab: a5 1d        	lda	$1d                     ; 0x201d <launchBeat+0x98>
    3cad: 69 00        	adc	#$0
    3caf: 85 1d        	sta	$1d                     ; 0x201d <launchBeat+0x98>
    3cb1: e6 13        	inc	$13                     ; 0x2013 <launchBeat+0x8e>
    3cb3: d0 02        	bne	$3cb7 <putchar+0x89>
    3cb5: e6 1a        	inc	$1a                     ; 0x201a <launchBeat+0x95>
    3cb7: a9 3a        	lda	#$3a
    3cb9: 18           	clc
    3cba: 65 13        	adc	$13                     ; 0x2013 <launchBeat+0x8e>
    3cbc: 85 1e        	sta	$1e                     ; 0x201e <launchBeat+0x99>
    3cbe: a9 00        	lda	#$0
    3cc0: 65 1a        	adc	$1a                     ; 0x201a <launchBeat+0x95>
    3cc2: 85 1f        	sta	$1f                     ; 0x201f <launchBeat+0x9a>
    3cc4: b2 1e        	lda	($1e)                   ; 0x201e <launchBeat+0x99>
    3cc6: c9 0a        	cmp	#$a
    3cc8: f0 26        	beq	$3cf0 <putchar+0xc2>
    3cca: c9 0d        	cmp	#$d
    3ccc: f0 22        	beq	$3cf0 <putchar+0xc2>
    3cce: aa           	tax
    3ccf: d0 03        	bne	$3cd4 <putchar+0xa6>
    3cd1: 4c d5 3d     	jmp	$3dd5 <putchar+0x1a7>
    3cd4: a2 03        	ldx	#$3
    3cd6: 86 01        	stx	$1                      ; 0x2001 <launchBeat+0x7c>
    3cd8: a4 30        	ldy	$30                     ; 0x2030 <launchBeat+0xab>
    3cda: a9 f0        	lda	#$f0
    3cdc: 91 1c        	sta	($1c),y                 ; 0x201c <launchBeat+0x97>
    3cde: ca           	dex
    3cdf: 86 01        	stx	$1                      ; 0x2001 <launchBeat+0x7c>
    3ce1: b2 1e        	lda	($1e)                   ; 0x201e <launchBeat+0x99>
    3ce3: a4 30        	ldy	$30                     ; 0x2030 <launchBeat+0xab>
    3ce5: 91 1c        	sta	($1c),y                 ; 0x201c <launchBeat+0x97>
    3ce7: a6 30        	ldx	$30                     ; 0x2030 <launchBeat+0xab>
    3ce9: e8           	inx
    3cea: e6 30        	inc	$30                     ; 0x2030 <launchBeat+0xab>
    3cec: e0 50        	cpx	#$50
    3cee: d0 c1        	bne	$3cb1 <putchar+0x83>
    3cf0: 64 30        	stz	$30                     ; 0x2030 <launchBeat+0xab>
    3cf2: a6 31        	ldx	$31                     ; 0x2031 <launchBeat+0xac>
    3cf4: e8           	inx
    3cf5: e6 31        	inc	$31                     ; 0x2031 <launchBeat+0xac>
    3cf7: e0 1e        	cpx	#$1e
    3cf9: f0 03        	beq	$3cfe <putchar+0xd0>
    3cfb: 4c a4 3c     	jmp	$3ca4 <putchar+0x76>
    3cfe: a2 03        	ldx	#$3
    3d00: 86 01        	stx	$1                      ; 0x2001 <launchBeat+0x7c>
    3d02: a2 01        	ldx	#$1
    3d04: 86 1b        	stx	$1b                     ; 0x201b <launchBeat+0x96>
    3d06: a2 09        	ldx	#$9
    3d08: a0 10        	ldy	#$10
    3d0a: a9 00        	lda	#$0
    3d0c: 85 1c        	sta	$1c                     ; 0x201c <launchBeat+0x97>
    3d0e: a9 c0        	lda	#$c0
    3d10: 85 1d        	sta	$1d                     ; 0x201d <launchBeat+0x98>
    3d12: 84 1e        	sty	$1e                     ; 0x201e <launchBeat+0x99>
    3d14: a0 50        	ldy	#$50
    3d16: b1 1c        	lda	($1c),y                 ; 0x201c <launchBeat+0x97>
    3d18: 92 1c        	sta	($1c)                   ; 0x201c <launchBeat+0x97>
    3d1a: a0 ff        	ldy	#$ff
    3d1c: c6 1e        	dec	$1e                     ; 0x201e <launchBeat+0x99>
    3d1e: c4 1e        	cpy	$1e                     ; 0x201e <launchBeat+0x99>
    3d20: d0 01        	bne	$3d23 <putchar+0xf5>
    3d22: ca           	dex
    3d23: e6 1c        	inc	$1c                     ; 0x201c <launchBeat+0x97>
    3d25: d0 02        	bne	$3d29 <putchar+0xfb>
    3d27: e6 1d        	inc	$1d                     ; 0x201d <launchBeat+0x98>
    3d29: 8a           	txa
    3d2a: d0 e8        	bne	$3d14 <putchar+0xe6>
    3d2c: a5 1e        	lda	$1e                     ; 0x201e <launchBeat+0x99>
    3d2e: d0 e4        	bne	$3d14 <putchar+0xe6>
    3d30: a2 02        	ldx	#$2
    3d32: 86 01        	stx	$1                      ; 0x2001 <launchBeat+0x7c>
    3d34: a2 00        	ldx	#$0
    3d36: a5 1b        	lda	$1b                     ; 0x201b <launchBeat+0x96>
    3d38: d0 ca        	bne	$3d04 <putchar+0xd6>
    3d3a: a2 03        	ldx	#$3
    3d3c: 86 01        	stx	$1                      ; 0x2001 <launchBeat+0x7c>
    3d3e: a2 50        	ldx	#$50
    3d40: a0 11        	ldy	#$11
    3d42: 84 1c        	sty	$1c                     ; 0x201c <launchBeat+0x97>
    3d44: a0 c9        	ldy	#$c9
    3d46: 84 1d        	sty	$1d                     ; 0x201d <launchBeat+0x98>
    3d48: a0 10        	ldy	#$10
    3d4a: 84 1e        	sty	$1e                     ; 0x201e <launchBeat+0x99>
    3d4c: a0 c9        	ldy	#$c9
    3d4e: 84 1f        	sty	$1f                     ; 0x201f <launchBeat+0x9a>
    3d50: a9 f0        	lda	#$f0
    3d52: a4 1c        	ldy	$1c                     ; 0x201c <launchBeat+0x97>
    3d54: 84 22        	sty	$22                     ; 0x2022 <launchBeat+0x9d>
    3d56: a4 1d        	ldy	$1d                     ; 0x201d <launchBeat+0x98>
    3d58: 84 23        	sty	$23                     ; 0x2023 <launchBeat+0x9e>
    3d5a: 92 1e        	sta	($1e)                   ; 0x201e <launchBeat+0x99>
    3d5c: e6 1c        	inc	$1c                     ; 0x201c <launchBeat+0x97>
    3d5e: d0 02        	bne	$3d62 <putchar+0x134>
    3d60: e6 1d        	inc	$1d                     ; 0x201d <launchBeat+0x98>
    3d62: ca           	dex
    3d63: a4 22        	ldy	$22                     ; 0x2022 <launchBeat+0x9d>
    3d65: 84 1e        	sty	$1e                     ; 0x201e <launchBeat+0x99>
    3d67: a4 23        	ldy	$23                     ; 0x2023 <launchBeat+0x9e>
    3d69: 84 1f        	sty	$1f                     ; 0x201f <launchBeat+0x9a>
    3d6b: e0 00        	cpx	#$0
    3d6d: d0 e3        	bne	$3d52 <putchar+0x124>
    3d6f: a2 02        	ldx	#$2
    3d71: 86 01        	stx	$1                      ; 0x2001 <launchBeat+0x7c>
    3d73: a2 50        	ldx	#$50
    3d75: a0 11        	ldy	#$11
    3d77: 84 1c        	sty	$1c                     ; 0x201c <launchBeat+0x97>
    3d79: a0 c9        	ldy	#$c9
    3d7b: 84 1d        	sty	$1d                     ; 0x201d <launchBeat+0x98>
    3d7d: a0 10        	ldy	#$10
    3d7f: 84 1e        	sty	$1e                     ; 0x201e <launchBeat+0x99>
    3d81: a0 c9        	ldy	#$c9
    3d83: 84 1f        	sty	$1f                     ; 0x201f <launchBeat+0x9a>
    3d85: a9 20        	lda	#$20
    3d87: a4 1c        	ldy	$1c                     ; 0x201c <launchBeat+0x97>
    3d89: 84 22        	sty	$22                     ; 0x2022 <launchBeat+0x9d>
    3d8b: a4 1d        	ldy	$1d                     ; 0x201d <launchBeat+0x98>
    3d8d: 84 23        	sty	$23                     ; 0x2023 <launchBeat+0x9e>
    3d8f: 92 1e        	sta	($1e)                   ; 0x201e <launchBeat+0x99>
    3d91: e6 1c        	inc	$1c                     ; 0x201c <launchBeat+0x97>
    3d93: d0 02        	bne	$3d97 <putchar+0x169>
    3d95: e6 1d        	inc	$1d                     ; 0x201d <launchBeat+0x98>
    3d97: ca           	dex
    3d98: a4 22        	ldy	$22                     ; 0x2022 <launchBeat+0x9d>
    3d9a: 84 1e        	sty	$1e                     ; 0x201e <launchBeat+0x99>
    3d9c: a4 23        	ldy	$23                     ; 0x2023 <launchBeat+0x9e>
    3d9e: 84 1f        	sty	$1f                     ; 0x201f <launchBeat+0x9a>
    3da0: e0 00        	cpx	#$0
    3da2: d0 e3        	bne	$3d87 <putchar+0x159>
    3da4: c6 31        	dec	$31                     ; 0x2031 <launchBeat+0xac>
    3da6: 9c 08 de     	stz	$de08                   ; 0xde08 <end_block9+0x9724>
    3da9: a2 c0        	ldx	#$c0
    3dab: 8e 09 de     	stx	$de09                   ; 0xde09 <end_block9+0x9725>
    3dae: 9c 0a de     	stz	$de0a                   ; 0xde0a <end_block9+0x9726>
    3db1: 9c 0b de     	stz	$de0b                   ; 0xde0b <end_block9+0x9727>
    3db4: a2 1d        	ldx	#$1d
    3db6: 8e 0c de     	stx	$de0c                   ; 0xde0c <end_block9+0x9728>
    3db9: 9c 0d de     	stz	$de0d                   ; 0xde0d <end_block9+0x9729>
    3dbc: 9c 0e de     	stz	$de0e                   ; 0xde0e <end_block9+0x972a>
    3dbf: 9c 0f de     	stz	$de0f                   ; 0xde0f <end_block9+0x972b>
    3dc2: ad 18 de     	lda	$de18                   ; 0xde18 <end_block9+0x9734>
    3dc5: ac 19 de     	ldy	$de19                   ; 0xde19 <end_block9+0x9735>
    3dc8: ae 1a de     	ldx	$de1a                   ; 0xde1a <end_block9+0x9736>
    3dcb: ae 1b de     	ldx	$de1b                   ; 0xde1b <end_block9+0x9737>
    3dce: 85 1c        	sta	$1c                     ; 0x201c <launchBeat+0x97>
    3dd0: 84 1d        	sty	$1d                     ; 0x201d <launchBeat+0x98>
    3dd2: 4c b1 3c     	jmp	$3cb1 <putchar+0x83>
    3dd5: a6 ee        	ldx	$ee                     ; 0x20ee <launchBeat+0x169>
    3dd7: 86 01        	stx	$1                      ; 0x2001 <launchBeat+0x7c>
    3dd9: a6 30        	ldx	$30                     ; 0x2030 <launchBeat+0xab>
    3ddb: a4 31        	ldy	$31                     ; 0x2031 <launchBeat+0xac>
    3ddd: 8e 14 d0     	stx	$d014                   ; 0xd014 <end_block9+0x8930>
    3de0: 9c 15 d0     	stz	$d015                   ; 0xd015 <end_block9+0x8931>
    3de3: 84 31        	sty	$31                     ; 0x2031 <launchBeat+0xac>
    3de5: 8c 16 d0     	sty	$d016                   ; 0xd016 <end_block9+0x8932>
    3de8: 9c 17 d0     	stz	$d017                   ; 0xd017 <end_block9+0x8933>
    3deb: a6 12        	ldx	$12                     ; 0x2012 <launchBeat+0x8d>
    3ded: a5 ef        	lda	$ef                     ; 0x20ef <launchBeat+0x16a>
    3def: 60           	rts

00003df0 <malloc>:
    3df0: a8           	tay
    3df1: 8a           	txa
    3df2: a2 00        	ldx	#$0
    3df4: 86 12        	stx	$12                     ; 0x2012 <launchBeat+0x8d>
    3df6: a2 00        	ldx	#$0
    3df8: 86 13        	stx	$13                     ; 0x2013 <launchBeat+0x8e>
    3dfa: aa           	tax
    3dfb: d0 07        	bne	$3e04 <malloc+0x14>
    3dfd: c0 00        	cpy	#$0
    3dff: d0 03        	bne	$3e04 <malloc+0x14>
    3e01: 4c f1 3e     	jmp	$3ef1 <malloc+0x101>
    3e04: 84 16        	sty	$16                     ; 0x2016 <launchBeat+0x91>
    3e06: aa           	tax
    3e07: d0 0e        	bne	$3e17 <malloc+0x27>
    3e09: a6 16        	ldx	$16                     ; 0x2016 <launchBeat+0x91>
    3e0b: e0 07        	cpx	#$7
    3e0d: b0 0c        	bcs	$3e1b <malloc+0x2b>
    3e0f: a2 08        	ldx	#$8
    3e11: 86 9e        	stx	$9e                     ; 0x209e <launchBeat+0x119>
    3e13: a9 00        	lda	#$0
    3e15: 80 2f        	bra	$3e46 <malloc+0x56>
    3e17: c9 00        	cmp	#$0
    3e19: 90 f4        	bcc	$3e0f <malloc+0x1f>
    3e1b: a8           	tay
    3e1c: a5 16        	lda	$16                     ; 0x2016 <launchBeat+0x91>
    3e1e: 29 01        	and	#$1
    3e20: a2 02        	ldx	#$2
    3e22: 64 14        	stz	$14                     ; 0x2014 <launchBeat+0x8f>
    3e24: c9 00        	cmp	#$0
    3e26: f0 02        	beq	$3e2a <malloc+0x3a>
    3e28: a2 03        	ldx	#$3
    3e2a: 86 15        	stx	$15                     ; 0x2015 <launchBeat+0x90>
    3e2c: 18           	clc
    3e2d: a5 16        	lda	$16                     ; 0x2016 <launchBeat+0x91>
    3e2f: 65 15        	adc	$15                     ; 0x2015 <launchBeat+0x90>
    3e31: aa           	tax
    3e32: 98           	tya
    3e33: 65 14        	adc	$14                     ; 0x2014 <launchBeat+0x8f>
    3e35: 90 03        	bcc	$3e3a <malloc+0x4a>
    3e37: 4c f1 3e     	jmp	$3ef1 <malloc+0x101>
    3e3a: 86 9e        	stx	$9e                     ; 0x209e <launchBeat+0x119>
    3e3c: a8           	tay
    3e3d: d0 07        	bne	$3e46 <malloc+0x56>
    3e3f: e0 00        	cpx	#$0
    3e41: d0 03        	bne	$3e46 <malloc+0x56>
    3e43: 4c f1 3e     	jmp	$3ef1 <malloc+0x101>
    3e46: 85 9d        	sta	$9d                     ; 0x209d <launchBeat+0x118>
    3e48: a5 91        	lda	$91                     ; 0x2091 <launchBeat+0x10c>
    3e4a: 29 01        	and	#$1
    3e4c: d0 2b        	bne	$3e79 <malloc+0x89>
    3e4e: a9 00        	lda	#$0
    3e50: a2 10        	ldx	#$10
    3e52: a0 e4        	ldy	#$e4
    3e54: 84 12        	sty	$12                     ; 0x2012 <launchBeat+0x8d>
    3e56: a0 46        	ldy	#$46
    3e58: 84 13        	sty	$13                     ; 0x2013 <launchBeat+0x8e>
    3e5a: 20 16 03     	jsr	$316 <_ZN12_GLOBAL__N_19FreeChunk6insertEPvj>
    3e5d: a2 00        	ldx	#$0
    3e5f: 86 12        	stx	$12                     ; 0x2012 <launchBeat+0x8d>
    3e61: a2 00        	ldx	#$0
    3e63: 86 13        	stx	$13                     ; 0x2013 <launchBeat+0x8e>
    3e65: ae e5 46     	ldx	$46e5                   ; 0x46e5 <end_block9+0x1>
    3e68: a9 fe        	lda	#$fe
    3e6a: 2d e4 46     	and	$46e4                   ; 0x46e4 <end_block9>
    3e6d: 8d e4 46     	sta	$46e4                   ; 0x46e4 <end_block9>
    3e70: 8e e5 46     	stx	$46e5                   ; 0x46e5 <end_block9+0x1>
    3e73: a2 01        	ldx	#$1
    3e75: 86 92        	stx	$92                     ; 0x2092 <launchBeat+0x10d>
    3e77: 86 91        	stx	$91                     ; 0x2091 <launchBeat+0x10c>
    3e79: a6 95        	ldx	$95                     ; 0x2095 <launchBeat+0x110>
    3e7b: 86 16        	stx	$16                     ; 0x2016 <launchBeat+0x91>
    3e7d: a4 96        	ldy	$96                     ; 0x2096 <launchBeat+0x111>
    3e7f: 84 17        	sty	$17                     ; 0x2017 <launchBeat+0x92>
    3e81: a9 00        	lda	#$0
    3e83: 85 14        	sta	$14                     ; 0x2014 <launchBeat+0x8f>
    3e85: a9 00        	lda	#$0
    3e87: 85 15        	sta	$15                     ; 0x2015 <launchBeat+0x90>
    3e89: c4 15        	cpy	$15                     ; 0x2015 <launchBeat+0x90>
    3e8b: d0 07        	bne	$3e94 <malloc+0xa4>
    3e8d: e4 14        	cpx	$14                     ; 0x2014 <launchBeat+0x8f>
    3e8f: d0 03        	bne	$3e94 <malloc+0xa4>
    3e91: 4c f1 3e     	jmp	$3ef1 <malloc+0x101>
    3e94: a2 00        	ldx	#$0
    3e96: a0 10        	ldy	#$10
    3e98: 86 14        	stx	$14                     ; 0x2014 <launchBeat+0x8f>
    3e9a: 84 15        	sty	$15                     ; 0x2015 <launchBeat+0x90>
    3e9c: 18           	clc
    3e9d: a9 e4        	lda	#$e4
    3e9f: 65 14        	adc	$14                     ; 0x2014 <launchBeat+0x8f>
    3ea1: 85 18        	sta	$18                     ; 0x2018 <launchBeat+0x93>
    3ea3: a9 46        	lda	#$46
    3ea5: 65 15        	adc	$15                     ; 0x2015 <launchBeat+0x90>
    3ea7: 85 a1        	sta	$a1                     ; 0x20a1 <launchBeat+0x11c>
    3ea9: a0 01        	ldy	#$1
    3eab: a6 9d        	ldx	$9d                     ; 0x209d <launchBeat+0x118>
    3ead: 86 19        	stx	$19                     ; 0x2019 <launchBeat+0x94>
    3eaf: a6 16        	ldx	$16                     ; 0x2016 <launchBeat+0x91>
    3eb1: 86 14        	stx	$14                     ; 0x2014 <launchBeat+0x8f>
    3eb3: a6 17        	ldx	$17                     ; 0x2017 <launchBeat+0x92>
    3eb5: 86 15        	stx	$15                     ; 0x2015 <launchBeat+0x90>
    3eb7: b1 14        	lda	($14),y                 ; 0x2014 <launchBeat+0x8f>
    3eb9: c5 19        	cmp	$19                     ; 0x2019 <launchBeat+0x94>
    3ebb: d0 0e        	bne	$3ecb <malloc+0xdb>
    3ebd: b2 14        	lda	($14)                   ; 0x2014 <launchBeat+0x8f>
    3ebf: 29 fe        	and	#$fe
    3ec1: a6 9e        	ldx	$9e                     ; 0x209e <launchBeat+0x119>
    3ec3: 86 1a        	stx	$1a                     ; 0x201a <launchBeat+0x95>
    3ec5: c5 1a        	cmp	$1a                     ; 0x201a <launchBeat+0x95>
    3ec7: b0 29        	bcs	$3ef2 <malloc+0x102>
    3ec9: 80 04        	bra	$3ecf <malloc+0xdf>
    3ecb: c5 19        	cmp	$19                     ; 0x2019 <launchBeat+0x94>
    3ecd: b0 23        	bcs	$3ef2 <malloc+0x102>
    3ecf: a5 14        	lda	$14                     ; 0x2014 <launchBeat+0x8f>
    3ed1: 18           	clc
    3ed2: 69 02        	adc	#$2
    3ed4: 85 1a        	sta	$1a                     ; 0x201a <launchBeat+0x95>
    3ed6: a5 15        	lda	$15                     ; 0x2015 <launchBeat+0x90>
    3ed8: 69 00        	adc	#$0
    3eda: 85 1b        	sta	$1b                     ; 0x201b <launchBeat+0x96>
    3edc: a0 02        	ldy	#$2
    3ede: b1 14        	lda	($14),y                 ; 0x2014 <launchBeat+0x8f>
    3ee0: 85 14        	sta	$14                     ; 0x2014 <launchBeat+0x8f>
    3ee2: 88           	dey
    3ee3: b1 1a        	lda	($1a),y                 ; 0x201a <launchBeat+0x95>
    3ee5: 85 15        	sta	$15                     ; 0x2015 <launchBeat+0x90>
    3ee7: c5 17        	cmp	$17                     ; 0x2017 <launchBeat+0x92>
    3ee9: d0 cc        	bne	$3eb7 <malloc+0xc7>
    3eeb: a5 14        	lda	$14                     ; 0x2014 <launchBeat+0x8f>
    3eed: c5 16        	cmp	$16                     ; 0x2016 <launchBeat+0x91>
    3eef: d0 c6        	bne	$3eb7 <malloc+0xc7>
    3ef1: 60           	rts
    3ef2: a6 18        	ldx	$18                     ; 0x2018 <launchBeat+0x93>
    3ef4: 86 a2        	stx	$a2                     ; 0x20a2 <launchBeat+0x11d>
    3ef6: a6 14        	ldx	$14                     ; 0x2014 <launchBeat+0x8f>
    3ef8: 86 12        	stx	$12                     ; 0x2012 <launchBeat+0x8d>
    3efa: a6 15        	ldx	$15                     ; 0x2015 <launchBeat+0x90>
    3efc: 86 13        	stx	$13                     ; 0x2013 <launchBeat+0x8e>
    3efe: a6 14        	ldx	$14                     ; 0x2014 <launchBeat+0x8f>
    3f00: 86 9f        	stx	$9f                     ; 0x209f <launchBeat+0x11a>
    3f02: a6 15        	ldx	$15                     ; 0x2015 <launchBeat+0x90>
    3f04: 86 a0        	stx	$a0                     ; 0x20a0 <launchBeat+0x11b>
    3f06: 20 4c 04     	jsr	$44c <_ZN12_GLOBAL__N_19FreeChunk6removeEv>
    3f09: a6 9f        	ldx	$9f                     ; 0x209f <launchBeat+0x11a>
    3f0b: 86 12        	stx	$12                     ; 0x2012 <launchBeat+0x8d>
    3f0d: a6 a0        	ldx	$a0                     ; 0x20a0 <launchBeat+0x11b>
    3f0f: 86 13        	stx	$13                     ; 0x2013 <launchBeat+0x8e>
    3f11: a0 01        	ldy	#$1
    3f13: b1 12        	lda	($12),y                 ; 0x2012 <launchBeat+0x8d>
    3f15: 85 15        	sta	$15                     ; 0x2015 <launchBeat+0x90>
    3f17: a9 fe        	lda	#$fe
    3f19: 32 12        	and	($12)                   ; 0x2012 <launchBeat+0x8d>
    3f1b: 38           	sec
    3f1c: a6 9e        	ldx	$9e                     ; 0x209e <launchBeat+0x119>
    3f1e: 86 14        	stx	$14                     ; 0x2014 <launchBeat+0x8f>
    3f20: 85 17        	sta	$17                     ; 0x2017 <launchBeat+0x92>
    3f22: e5 14        	sbc	$14                     ; 0x2014 <launchBeat+0x8f>
    3f24: a8           	tay
    3f25: a6 9d        	ldx	$9d                     ; 0x209d <launchBeat+0x118>
    3f27: 86 14        	stx	$14                     ; 0x2014 <launchBeat+0x8f>
    3f29: a5 15        	lda	$15                     ; 0x2015 <launchBeat+0x90>
    3f2b: 85 16        	sta	$16                     ; 0x2016 <launchBeat+0x91>
    3f2d: e5 14        	sbc	$14                     ; 0x2014 <launchBeat+0x8f>
    3f2f: d0 06        	bne	$3f37 <malloc+0x147>
    3f31: 85 18        	sta	$18                     ; 0x2018 <launchBeat+0x93>
    3f33: c0 08        	cpy	#$8
    3f35: 80 04        	bra	$3f3b <malloc+0x14b>
    3f37: 85 18        	sta	$18                     ; 0x2018 <launchBeat+0x93>
    3f39: c9 00        	cmp	#$0
    3f3b: a6 a2        	ldx	$a2                     ; 0x20a2 <launchBeat+0x11d>
    3f3d: 86 14        	stx	$14                     ; 0x2014 <launchBeat+0x8f>
    3f3f: a6 a1        	ldx	$a1                     ; 0x20a1 <launchBeat+0x11c>
    3f41: 86 15        	stx	$15                     ; 0x2015 <launchBeat+0x90>
    3f43: a5 17        	lda	$17                     ; 0x2017 <launchBeat+0x92>
    3f45: 90 42        	bcc	$3f89 <malloc+0x199>
    3f47: 18           	clc
    3f48: a5 9e        	lda	$9e                     ; 0x209e <launchBeat+0x119>
    3f4a: 85 9e        	sta	$9e                     ; 0x209e <launchBeat+0x119>
    3f4c: 65 12        	adc	$12                     ; 0x2012 <launchBeat+0x8d>
    3f4e: 85 12        	sta	$12                     ; 0x2012 <launchBeat+0x8d>
    3f50: a6 9d        	ldx	$9d                     ; 0x209d <launchBeat+0x118>
    3f52: 86 9d        	stx	$9d                     ; 0x209d <launchBeat+0x118>
    3f54: a5 9d        	lda	$9d                     ; 0x209d <launchBeat+0x118>
    3f56: 65 13        	adc	$13                     ; 0x2013 <launchBeat+0x8e>
    3f58: 85 13        	sta	$13                     ; 0x2013 <launchBeat+0x8e>
    3f5a: a6 18        	ldx	$18                     ; 0x2018 <launchBeat+0x93>
    3f5c: 98           	tya
    3f5d: 20 16 03     	jsr	$316 <_ZN12_GLOBAL__N_19FreeChunk6insertEPvj>
    3f60: a6 9f        	ldx	$9f                     ; 0x209f <launchBeat+0x11a>
    3f62: 86 12        	stx	$12                     ; 0x2012 <launchBeat+0x8d>
    3f64: a6 a0        	ldx	$a0                     ; 0x20a0 <launchBeat+0x11b>
    3f66: 86 13        	stx	$13                     ; 0x2013 <launchBeat+0x8e>
    3f68: a5 9e        	lda	$9e                     ; 0x209e <launchBeat+0x119>
    3f6a: 29 fe        	and	#$fe
    3f6c: 85 14        	sta	$14                     ; 0x2014 <launchBeat+0x8f>
    3f6e: a0 01        	ldy	#$1
    3f70: 98           	tya
    3f71: 32 12        	and	($12)                   ; 0x2012 <launchBeat+0x8d>
    3f73: 05 14        	ora	$14                     ; 0x2014 <launchBeat+0x8f>
    3f75: 92 12        	sta	($12)                   ; 0x2012 <launchBeat+0x8d>
    3f77: a5 9d        	lda	$9d                     ; 0x209d <launchBeat+0x118>
    3f79: 91 12        	sta	($12),y                 ; 0x2012 <launchBeat+0x8d>
    3f7b: a5 14        	lda	$14                     ; 0x2014 <launchBeat+0x8f>
    3f7d: a6 9d        	ldx	$9d                     ; 0x209d <launchBeat+0x118>
    3f7f: 86 16        	stx	$16                     ; 0x2016 <launchBeat+0x91>
    3f81: a6 a2        	ldx	$a2                     ; 0x20a2 <launchBeat+0x11d>
    3f83: 86 14        	stx	$14                     ; 0x2014 <launchBeat+0x8f>
    3f85: a6 a1        	ldx	$a1                     ; 0x20a1 <launchBeat+0x11c>
    3f87: 86 15        	stx	$15                     ; 0x2015 <launchBeat+0x90>
    3f89: 18           	clc
    3f8a: 65 12        	adc	$12                     ; 0x2012 <launchBeat+0x8d>
    3f8c: a8           	tay
    3f8d: a5 16        	lda	$16                     ; 0x2016 <launchBeat+0x91>
    3f8f: 65 13        	adc	$13                     ; 0x2013 <launchBeat+0x8e>
    3f91: c5 15        	cmp	$15                     ; 0x2015 <launchBeat+0x90>
    3f93: d0 08        	bne	$3f9d <malloc+0x1ad>
    3f95: c4 14        	cpy	$14                     ; 0x2014 <launchBeat+0x8f>
    3f97: d0 04        	bne	$3f9d <malloc+0x1ad>
    3f99: 64 92        	stz	$92                     ; 0x2092 <launchBeat+0x10d>
    3f9b: 80 14        	bra	$3fb1 <malloc+0x1c1>
    3f9d: 84 14        	sty	$14                     ; 0x2014 <launchBeat+0x8f>
    3f9f: 85 15        	sta	$15                     ; 0x2015 <launchBeat+0x90>
    3fa1: a0 01        	ldy	#$1
    3fa3: b1 14        	lda	($14),y                 ; 0x2014 <launchBeat+0x8f>
    3fa5: 85 16        	sta	$16                     ; 0x2016 <launchBeat+0x91>
    3fa7: a9 fe        	lda	#$fe
    3fa9: 32 14        	and	($14)                   ; 0x2014 <launchBeat+0x8f>
    3fab: 92 14        	sta	($14)                   ; 0x2014 <launchBeat+0x8f>
    3fad: a5 16        	lda	$16                     ; 0x2016 <launchBeat+0x91>
    3faf: 91 14        	sta	($14),y                 ; 0x2014 <launchBeat+0x8f>
    3fb1: a5 12        	lda	$12                     ; 0x2012 <launchBeat+0x8d>
    3fb3: 18           	clc
    3fb4: 69 02        	adc	#$2
    3fb6: 85 12        	sta	$12                     ; 0x2012 <launchBeat+0x8d>
    3fb8: a5 13        	lda	$13                     ; 0x2013 <launchBeat+0x8e>
    3fba: 69 00        	adc	#$0
    3fbc: 85 13        	sta	$13                     ; 0x2013 <launchBeat+0x8e>
    3fbe: 60           	rts

00003fbf <memcpy>:
    3fbf: a8           	tay
    3fc0: 8a           	txa
    3fc1: d0 03        	bne	$3fc6 <memcpy+0x7>
    3fc3: 98           	tya
    3fc4: f0 24        	beq	$3fea <memcpy+0x2b>
    3fc6: a5 12        	lda	$12                     ; 0x2012 <launchBeat+0x8d>
    3fc8: 85 16        	sta	$16                     ; 0x2016 <launchBeat+0x91>
    3fca: a5 13        	lda	$13                     ; 0x2013 <launchBeat+0x8e>
    3fcc: 85 17        	sta	$17                     ; 0x2017 <launchBeat+0x92>
    3fce: b2 14        	lda	($14)                   ; 0x2014 <launchBeat+0x8f>
    3fd0: 92 16        	sta	($16)                   ; 0x2016 <launchBeat+0x91>
    3fd2: e6 16        	inc	$16                     ; 0x2016 <launchBeat+0x91>
    3fd4: d0 02        	bne	$3fd8 <memcpy+0x19>
    3fd6: e6 17        	inc	$17                     ; 0x2017 <launchBeat+0x92>
    3fd8: e6 14        	inc	$14                     ; 0x2014 <launchBeat+0x8f>
    3fda: d0 02        	bne	$3fde <memcpy+0x1f>
    3fdc: e6 15        	inc	$15                     ; 0x2015 <launchBeat+0x90>
    3fde: 88           	dey
    3fdf: c0 ff        	cpy	#$ff
    3fe1: d0 01        	bne	$3fe4 <memcpy+0x25>
    3fe3: ca           	dex
    3fe4: 8a           	txa
    3fe5: d0 e7        	bne	$3fce <memcpy+0xf>
    3fe7: 98           	tya
    3fe8: d0 e4        	bne	$3fce <memcpy+0xf>
    3fea: 60           	rts

00003feb <__memset>:
    3feb: a4 14        	ldy	$14                     ; 0x2014 <launchBeat+0x8f>
    3fed: d0 04        	bne	$3ff3 <__memset+0x8>
    3fef: e0 00        	cpx	#$0
    3ff1: f0 17        	beq	$400a <__memset+0x1f>
    3ff3: 92 12        	sta	($12)                   ; 0x2012 <launchBeat+0x8d>
    3ff5: e6 12        	inc	$12                     ; 0x2012 <launchBeat+0x8d>
    3ff7: d0 02        	bne	$3ffb <__memset+0x10>
    3ff9: e6 13        	inc	$13                     ; 0x2013 <launchBeat+0x8e>
    3ffb: ca           	dex
    3ffc: e0 ff        	cpx	#$ff
    3ffe: d0 02        	bne	$4002 <__memset+0x17>
    4000: c6 14        	dec	$14                     ; 0x2014 <launchBeat+0x8f>
    4002: a4 14        	ldy	$14                     ; 0x2014 <launchBeat+0x8f>
    4004: d0 ed        	bne	$3ff3 <__memset+0x8>
    4006: e0 00        	cpx	#$0
    4008: d0 e9        	bne	$3ff3 <__memset+0x8>
    400a: 60           	rts

0000400b <__mulhi3>:
    400b: a4 13        	ldy	$13                     ; 0x2013 <launchBeat+0x8e>
    400d: d0 04        	bne	$4013 <__mulhi3+0x8>
    400f: a4 12        	ldy	$12                     ; 0x2012 <launchBeat+0x8d>
    4011: f0 25        	beq	$4038 <__mulhi3+0x2d>
    4013: 85 14        	sta	$14                     ; 0x2014 <launchBeat+0x8f>
    4015: 86 15        	stx	$15                     ; 0x2015 <launchBeat+0x90>
    4017: a0 00        	ldy	#$0
    4019: 98           	tya
    401a: 46 13        	lsr	$13                     ; 0x2013 <launchBeat+0x8e>
    401c: 66 12        	ror	$12                     ; 0x2012 <launchBeat+0x8d>
    401e: 90 09        	bcc	$4029 <__mulhi3+0x1e>
    4020: aa           	tax
    4021: 98           	tya
    4022: 18           	clc
    4023: 65 14        	adc	$14                     ; 0x2014 <launchBeat+0x8f>
    4025: a8           	tay
    4026: 8a           	txa
    4027: 65 15        	adc	$15                     ; 0x2015 <launchBeat+0x90>
    4029: 06 14        	asl	$14                     ; 0x2014 <launchBeat+0x8f>
    402b: 26 15        	rol	$15                     ; 0x2015 <launchBeat+0x90>
    402d: a6 13        	ldx	$13                     ; 0x2013 <launchBeat+0x8e>
    402f: d0 e9        	bne	$401a <__mulhi3+0xf>
    4031: a6 12        	ldx	$12                     ; 0x2012 <launchBeat+0x8d>
    4033: d0 e5        	bne	$401a <__mulhi3+0xf>
    4035: aa           	tax
    4036: 98           	tya
    4037: 60           	rts
    4038: a0 00        	ldy	#$0
    403a: 98           	tya
    403b: 80 f8        	bra	$4035 <__mulhi3+0x2a>

0000403d <__udivqi3>:
    403d: a8           	tay
    403e: a9 00        	lda	#$0
    4040: e0 00        	cpx	#$0
    4042: d0 03        	bne	$4047 <__udivqi3+0xa>
    4044: 4c 98 40     	jmp	$4098 <__udivqi3+0x5b>
    4047: 86 13        	stx	$13                     ; 0x2013 <launchBeat+0x8e>
    4049: c4 13        	cpy	$13                     ; 0x2013 <launchBeat+0x8e>
    404b: 90 4b        	bcc	$4098 <__udivqi3+0x5b>
    404d: a9 01        	lda	#$1
    404f: a6 13        	ldx	$13                     ; 0x2013 <launchBeat+0x8e>
    4051: 30 45        	bmi	$4098 <__udivqi3+0x5b>
    4053: 84 14        	sty	$14                     ; 0x2014 <launchBeat+0x8f>
    4055: a2 00        	ldx	#$0
    4057: a4 13        	ldy	$13                     ; 0x2013 <launchBeat+0x8e>
    4059: 84 12        	sty	$12                     ; 0x2012 <launchBeat+0x8d>
    405b: 06 12        	asl	$12                     ; 0x2012 <launchBeat+0x8d>
    405d: a4 14        	ldy	$14                     ; 0x2014 <launchBeat+0x8f>
    405f: c4 12        	cpy	$12                     ; 0x2012 <launchBeat+0x8d>
    4061: 90 09        	bcc	$406c <__udivqi3+0x2f>
    4063: e8           	inx
    4064: a4 12        	ldy	$12                     ; 0x2012 <launchBeat+0x8d>
    4066: 84 13        	sty	$13                     ; 0x2013 <launchBeat+0x8e>
    4068: 10 f1        	bpl	$405b <__udivqi3+0x1e>
    406a: 80 04        	bra	$4070 <__udivqi3+0x33>
    406c: a4 13        	ldy	$13                     ; 0x2013 <launchBeat+0x8e>
    406e: 84 12        	sty	$12                     ; 0x2012 <launchBeat+0x8d>
    4070: e0 00        	cpx	#$0
    4072: f0 24        	beq	$4098 <__udivqi3+0x5b>
    4074: 38           	sec
    4075: a5 14        	lda	$14                     ; 0x2014 <launchBeat+0x8f>
    4077: e5 12        	sbc	$12                     ; 0x2012 <launchBeat+0x8d>
    4079: 85 13        	sta	$13                     ; 0x2013 <launchBeat+0x8e>
    407b: a9 01        	lda	#$1
    407d: 46 12        	lsr	$12                     ; 0x2012 <launchBeat+0x8d>
    407f: 0a           	asl
    4080: a8           	tay
    4081: a5 13        	lda	$13                     ; 0x2013 <launchBeat+0x8e>
    4083: c5 12        	cmp	$12                     ; 0x2012 <launchBeat+0x8d>
    4085: 90 0b        	bcc	$4092 <__udivqi3+0x55>
    4087: 98           	tya
    4088: 09 01        	ora	#$1
    408a: a8           	tay
    408b: 38           	sec
    408c: a5 13        	lda	$13                     ; 0x2013 <launchBeat+0x8e>
    408e: e5 12        	sbc	$12                     ; 0x2012 <launchBeat+0x8d>
    4090: 85 13        	sta	$13                     ; 0x2013 <launchBeat+0x8e>
    4092: ca           	dex
    4093: 98           	tya
    4094: e0 00        	cpx	#$0
    4096: d0 e5        	bne	$407d <__udivqi3+0x40>
    4098: 60           	rts

00004099 <__udivhi3>:
    4099: 64 14        	stz	$14                     ; 0x2014 <launchBeat+0x8f>
    409b: a4 13        	ldy	$13                     ; 0x2013 <launchBeat+0x8e>
    409d: d0 04        	bne	$40a3 <__udivhi3+0xa>
    409f: a4 12        	ldy	$12                     ; 0x2012 <launchBeat+0x8d>
    40a1: f0 0e        	beq	$40b1 <__udivhi3+0x18>
    40a3: 85 17        	sta	$17                     ; 0x2017 <launchBeat+0x92>
    40a5: 8a           	txa
    40a6: e4 13        	cpx	$13                     ; 0x2013 <launchBeat+0x8e>
    40a8: d0 0e        	bne	$40b8 <__udivhi3+0x1f>
    40aa: a5 17        	lda	$17                     ; 0x2017 <launchBeat+0x92>
    40ac: c5 12        	cmp	$12                     ; 0x2012 <launchBeat+0x8d>
    40ae: 8a           	txa
    40af: b0 0b        	bcs	$40bc <__udivhi3+0x23>
    40b1: a2 00        	ldx	#$0
    40b3: 86 99        	stx	$99                     ; 0x2099 <launchBeat+0x114>
    40b5: 4c 54 41     	jmp	$4154 <__udivhi3+0xbb>
    40b8: c5 13        	cmp	$13                     ; 0x2013 <launchBeat+0x8e>
    40ba: 90 f5        	bcc	$40b1 <__udivhi3+0x18>
    40bc: a2 01        	ldx	#$1
    40be: 86 99        	stx	$99                     ; 0x2099 <launchBeat+0x114>
    40c0: a6 13        	ldx	$13                     ; 0x2013 <launchBeat+0x8e>
    40c2: 10 03        	bpl	$40c7 <__udivhi3+0x2e>
    40c4: 4c 54 41     	jmp	$4154 <__udivhi3+0xbb>
    40c7: a2 00        	ldx	#$0
    40c9: a4 12        	ldy	$12                     ; 0x2012 <launchBeat+0x8d>
    40cb: 84 15        	sty	$15                     ; 0x2015 <launchBeat+0x90>
    40cd: a4 13        	ldy	$13                     ; 0x2013 <launchBeat+0x8e>
    40cf: 84 16        	sty	$16                     ; 0x2016 <launchBeat+0x91>
    40d1: 06 15        	asl	$15                     ; 0x2015 <launchBeat+0x90>
    40d3: 26 16        	rol	$16                     ; 0x2016 <launchBeat+0x91>
    40d5: c5 16        	cmp	$16                     ; 0x2016 <launchBeat+0x91>
    40d7: d0 08        	bne	$40e1 <__udivhi3+0x48>
    40d9: a4 17        	ldy	$17                     ; 0x2017 <launchBeat+0x92>
    40db: c4 15        	cpy	$15                     ; 0x2015 <launchBeat+0x90>
    40dd: 90 13        	bcc	$40f2 <__udivhi3+0x59>
    40df: 80 04        	bra	$40e5 <__udivhi3+0x4c>
    40e1: c5 16        	cmp	$16                     ; 0x2016 <launchBeat+0x91>
    40e3: 90 0d        	bcc	$40f2 <__udivhi3+0x59>
    40e5: e8           	inx
    40e6: a4 15        	ldy	$15                     ; 0x2015 <launchBeat+0x90>
    40e8: 84 12        	sty	$12                     ; 0x2012 <launchBeat+0x8d>
    40ea: a4 16        	ldy	$16                     ; 0x2016 <launchBeat+0x91>
    40ec: 84 13        	sty	$13                     ; 0x2013 <launchBeat+0x8e>
    40ee: 10 e1        	bpl	$40d1 <__udivhi3+0x38>
    40f0: 80 08        	bra	$40fa <__udivhi3+0x61>
    40f2: a4 12        	ldy	$12                     ; 0x2012 <launchBeat+0x8d>
    40f4: 84 15        	sty	$15                     ; 0x2015 <launchBeat+0x90>
    40f6: a4 13        	ldy	$13                     ; 0x2013 <launchBeat+0x8e>
    40f8: 84 16        	sty	$16                     ; 0x2016 <launchBeat+0x91>
    40fa: e0 00        	cpx	#$0
    40fc: d0 03        	bne	$4101 <__udivhi3+0x68>
    40fe: 4c 54 41     	jmp	$4154 <__udivhi3+0xbb>
    4101: 38           	sec
    4102: a8           	tay
    4103: a5 17        	lda	$17                     ; 0x2017 <launchBeat+0x92>
    4105: e5 15        	sbc	$15                     ; 0x2015 <launchBeat+0x90>
    4107: 85 12        	sta	$12                     ; 0x2012 <launchBeat+0x8d>
    4109: 98           	tya
    410a: e5 16        	sbc	$16                     ; 0x2016 <launchBeat+0x91>
    410c: a0 01        	ldy	#$1
    410e: 84 99        	sty	$99                     ; 0x2099 <launchBeat+0x114>
    4110: 64 14        	stz	$14                     ; 0x2014 <launchBeat+0x8f>
    4112: 46 16        	lsr	$16                     ; 0x2016 <launchBeat+0x91>
    4114: 66 15        	ror	$15                     ; 0x2015 <launchBeat+0x90>
    4116: a4 99        	ldy	$99                     ; 0x2099 <launchBeat+0x114>
    4118: 84 13        	sty	$13                     ; 0x2013 <launchBeat+0x8e>
    411a: 06 13        	asl	$13                     ; 0x2013 <launchBeat+0x8e>
    411c: a0 01        	ldy	#$1
    411e: b0 02        	bcs	$4122 <__udivhi3+0x89>
    4120: a0 00        	ldy	#$0
    4122: 84 17        	sty	$17                     ; 0x2017 <launchBeat+0x92>
    4124: a4 13        	ldy	$13                     ; 0x2013 <launchBeat+0x8e>
    4126: 84 99        	sty	$99                     ; 0x2099 <launchBeat+0x114>
    4128: c5 16        	cmp	$16                     ; 0x2016 <launchBeat+0x91>
    412a: d0 22        	bne	$414e <__udivhi3+0xb5>
    412c: a4 12        	ldy	$12                     ; 0x2012 <launchBeat+0x8d>
    412e: c4 15        	cpy	$15                     ; 0x2015 <launchBeat+0x90>
    4130: 90 11        	bcc	$4143 <__udivhi3+0xaa>
    4132: a8           	tay
    4133: a5 99        	lda	$99                     ; 0x2099 <launchBeat+0x114>
    4135: 09 01        	ora	#$1
    4137: 85 99        	sta	$99                     ; 0x2099 <launchBeat+0x114>
    4139: 38           	sec
    413a: a5 12        	lda	$12                     ; 0x2012 <launchBeat+0x8d>
    413c: e5 15        	sbc	$15                     ; 0x2015 <launchBeat+0x90>
    413e: 85 12        	sta	$12                     ; 0x2012 <launchBeat+0x8d>
    4140: 98           	tya
    4141: e5 16        	sbc	$16                     ; 0x2016 <launchBeat+0x91>
    4143: a4 17        	ldy	$17                     ; 0x2017 <launchBeat+0x92>
    4145: c0 01        	cpy	#$1
    4147: 26 14        	rol	$14                     ; 0x2014 <launchBeat+0x8f>
    4149: ca           	dex
    414a: d0 c6        	bne	$4112 <__udivhi3+0x79>
    414c: 80 06        	bra	$4154 <__udivhi3+0xbb>
    414e: c5 16        	cmp	$16                     ; 0x2016 <launchBeat+0x91>
    4150: b0 e0        	bcs	$4132 <__udivhi3+0x99>
    4152: 80 ef        	bra	$4143 <__udivhi3+0xaa>
    4154: a6 14        	ldx	$14                     ; 0x2014 <launchBeat+0x8f>
    4156: a5 99        	lda	$99                     ; 0x2099 <launchBeat+0x114>
    4158: 60           	rts

00004159 <__udivmodhi4>:
    4159: 86 1a        	stx	$1a                     ; 0x201a <launchBeat+0x95>
    415b: 64 16        	stz	$16                     ; 0x2016 <launchBeat+0x91>
    415d: a4 13        	ldy	$13                     ; 0x2013 <launchBeat+0x8e>
    415f: d0 04        	bne	$4165 <__udivmodhi4+0xc>
    4161: a4 12        	ldy	$12                     ; 0x2012 <launchBeat+0x8d>
    4163: f0 08        	beq	$416d <__udivmodhi4+0x14>
    4165: e4 13        	cpx	$13                     ; 0x2013 <launchBeat+0x8e>
    4167: d0 0d        	bne	$4176 <__udivmodhi4+0x1d>
    4169: c5 12        	cmp	$12                     ; 0x2012 <launchBeat+0x8d>
    416b: b0 0d        	bcs	$417a <__udivmodhi4+0x21>
    416d: a6 1a        	ldx	$1a                     ; 0x201a <launchBeat+0x95>
    416f: 86 12        	stx	$12                     ; 0x2012 <launchBeat+0x8d>
    4171: a2 00        	ldx	#$0
    4173: 4c 1e 42     	jmp	$421e <__udivmodhi4+0xc5>
    4176: e4 13        	cpx	$13                     ; 0x2013 <launchBeat+0x8e>
    4178: 90 f3        	bcc	$416d <__udivmodhi4+0x14>
    417a: a6 13        	ldx	$13                     ; 0x2013 <launchBeat+0x8e>
    417c: 10 03        	bpl	$4181 <__udivmodhi4+0x28>
    417e: 4c 11 42     	jmp	$4211 <__udivmodhi4+0xb8>
    4181: a2 00        	ldx	#$0
    4183: a4 12        	ldy	$12                     ; 0x2012 <launchBeat+0x8d>
    4185: 84 17        	sty	$17                     ; 0x2017 <launchBeat+0x92>
    4187: a4 13        	ldy	$13                     ; 0x2013 <launchBeat+0x8e>
    4189: 84 18        	sty	$18                     ; 0x2018 <launchBeat+0x93>
    418b: 06 17        	asl	$17                     ; 0x2017 <launchBeat+0x92>
    418d: 26 18        	rol	$18                     ; 0x2018 <launchBeat+0x93>
    418f: a4 1a        	ldy	$1a                     ; 0x201a <launchBeat+0x95>
    4191: c4 18        	cpy	$18                     ; 0x2018 <launchBeat+0x93>
    4193: d0 06        	bne	$419b <__udivmodhi4+0x42>
    4195: c5 17        	cmp	$17                     ; 0x2017 <launchBeat+0x92>
    4197: b0 08        	bcs	$41a1 <__udivmodhi4+0x48>
    4199: 80 13        	bra	$41ae <__udivmodhi4+0x55>
    419b: a4 1a        	ldy	$1a                     ; 0x201a <launchBeat+0x95>
    419d: c4 18        	cpy	$18                     ; 0x2018 <launchBeat+0x93>
    419f: 90 0d        	bcc	$41ae <__udivmodhi4+0x55>
    41a1: e8           	inx
    41a2: a4 17        	ldy	$17                     ; 0x2017 <launchBeat+0x92>
    41a4: 84 12        	sty	$12                     ; 0x2012 <launchBeat+0x8d>
    41a6: a4 18        	ldy	$18                     ; 0x2018 <launchBeat+0x93>
    41a8: 84 13        	sty	$13                     ; 0x2013 <launchBeat+0x8e>
    41aa: 10 df        	bpl	$418b <__udivmodhi4+0x32>
    41ac: 80 08        	bra	$41b6 <__udivmodhi4+0x5d>
    41ae: a4 12        	ldy	$12                     ; 0x2012 <launchBeat+0x8d>
    41b0: 84 17        	sty	$17                     ; 0x2017 <launchBeat+0x92>
    41b2: a4 13        	ldy	$13                     ; 0x2013 <launchBeat+0x8e>
    41b4: 84 18        	sty	$18                     ; 0x2018 <launchBeat+0x93>
    41b6: 38           	sec
    41b7: e5 17        	sbc	$17                     ; 0x2017 <launchBeat+0x92>
    41b9: a8           	tay
    41ba: a5 1a        	lda	$1a                     ; 0x201a <launchBeat+0x95>
    41bc: e5 18        	sbc	$18                     ; 0x2018 <launchBeat+0x93>
    41be: 85 12        	sta	$12                     ; 0x2012 <launchBeat+0x8d>
    41c0: 8a           	txa
    41c1: d0 03        	bne	$41c6 <__udivmodhi4+0x6d>
    41c3: 4c 2d 42     	jmp	$422d <__udivmodhi4+0xd4>
    41c6: a9 01        	lda	#$1
    41c8: 85 9e        	sta	$9e                     ; 0x209e <launchBeat+0x119>
    41ca: 64 16        	stz	$16                     ; 0x2016 <launchBeat+0x91>
    41cc: 98           	tya
    41cd: 46 18        	lsr	$18                     ; 0x2018 <launchBeat+0x93>
    41cf: 66 17        	ror	$17                     ; 0x2017 <launchBeat+0x92>
    41d1: a4 9e        	ldy	$9e                     ; 0x209e <launchBeat+0x119>
    41d3: 84 13        	sty	$13                     ; 0x2013 <launchBeat+0x8e>
    41d5: 06 13        	asl	$13                     ; 0x2013 <launchBeat+0x8e>
    41d7: a0 01        	ldy	#$1
    41d9: b0 02        	bcs	$41dd <__udivmodhi4+0x84>
    41db: a0 00        	ldy	#$0
    41dd: 84 19        	sty	$19                     ; 0x2019 <launchBeat+0x94>
    41df: a4 13        	ldy	$13                     ; 0x2013 <launchBeat+0x8e>
    41e1: 84 9e        	sty	$9e                     ; 0x209e <launchBeat+0x119>
    41e3: a4 12        	ldy	$12                     ; 0x2012 <launchBeat+0x8d>
    41e5: c4 18        	cpy	$18                     ; 0x2018 <launchBeat+0x93>
    41e7: d0 22        	bne	$420b <__udivmodhi4+0xb2>
    41e9: c5 17        	cmp	$17                     ; 0x2017 <launchBeat+0x92>
    41eb: 90 13        	bcc	$4200 <__udivmodhi4+0xa7>
    41ed: a8           	tay
    41ee: a5 9e        	lda	$9e                     ; 0x209e <launchBeat+0x119>
    41f0: 09 01        	ora	#$1
    41f2: 85 9e        	sta	$9e                     ; 0x209e <launchBeat+0x119>
    41f4: 38           	sec
    41f5: 98           	tya
    41f6: e5 17        	sbc	$17                     ; 0x2017 <launchBeat+0x92>
    41f8: a8           	tay
    41f9: a5 12        	lda	$12                     ; 0x2012 <launchBeat+0x8d>
    41fb: e5 18        	sbc	$18                     ; 0x2018 <launchBeat+0x93>
    41fd: 85 12        	sta	$12                     ; 0x2012 <launchBeat+0x8d>
    41ff: 98           	tya
    4200: a4 19        	ldy	$19                     ; 0x2019 <launchBeat+0x94>
    4202: c0 01        	cpy	#$1
    4204: 26 16        	rol	$16                     ; 0x2016 <launchBeat+0x91>
    4206: ca           	dex
    4207: d0 c4        	bne	$41cd <__udivmodhi4+0x74>
    4209: 80 15        	bra	$4220 <__udivmodhi4+0xc7>
    420b: c4 18        	cpy	$18                     ; 0x2018 <launchBeat+0x93>
    420d: b0 de        	bcs	$41ed <__udivmodhi4+0x94>
    420f: 80 ef        	bra	$4200 <__udivmodhi4+0xa7>
    4211: 38           	sec
    4212: e5 12        	sbc	$12                     ; 0x2012 <launchBeat+0x8d>
    4214: aa           	tax
    4215: a5 1a        	lda	$1a                     ; 0x201a <launchBeat+0x95>
    4217: e5 13        	sbc	$13                     ; 0x2013 <launchBeat+0x8e>
    4219: 85 12        	sta	$12                     ; 0x2012 <launchBeat+0x8d>
    421b: 8a           	txa
    421c: a2 01        	ldx	#$1
    421e: 86 9e        	stx	$9e                     ; 0x209e <launchBeat+0x119>
    4220: 92 14        	sta	($14)                   ; 0x2014 <launchBeat+0x8f>
    4222: a0 01        	ldy	#$1
    4224: a5 12        	lda	$12                     ; 0x2012 <launchBeat+0x8d>
    4226: 91 14        	sta	($14),y                 ; 0x2014 <launchBeat+0x8f>
    4228: a6 16        	ldx	$16                     ; 0x2016 <launchBeat+0x91>
    422a: a5 9e        	lda	$9e                     ; 0x209e <launchBeat+0x119>
    422c: 60           	rts
    422d: a2 01        	ldx	#$1
    422f: 86 9e        	stx	$9e                     ; 0x209e <launchBeat+0x119>
    4231: 98           	tya
    4232: 80 ec        	bra	$4220 <__udivmodhi4+0xc7>
