
BitLadder.elf:	file format elf32-mos

SYMBOL TABLE:
00000000 l    df *ABS*	00000000 zero-bss.c
00000000 l    df *ABS*	00000000 zero-zp-bss.c
00000000 l    df *ABS*	00000000 copy-zp-data.c
00000000 l    df *ABS*	00000000 ld-temp.o
000005b5 l     F .text	00000445 f256Init
00000083 l     O .zp.bss	00000007 kernelEventData
00008841 l     O .rodata	00000030 textColors
0000005c l     O .zp.bss	00000001 _col
0000005d l     O .zp.bss	00000001 _row
0000005e l     O .zp.bss	00000001 _active
00008a76 l     O .bss	00000004 _BITMAP_BASE.0
00008a7a l     O .bss	00000004 _BITMAP_BASE.1
00008a7e l     O .bss	00000004 _BITMAP_BASE.2
0000005f l     O .zp.bss	00000003 _BITMAP_CLUT
00008a82 l     O .bss	00000040 _spriteCtl
00000082 l     O .zp.bss	00000001 kernelError
00000a00 l     F .text	000052e9 f256main
00008ac2 l     O .bss	00000002 myRecord.0
0000008d l     O .zp.bss	00000002 _ZN12_GLOBAL__N_19free_listE
0000008b l     O .zp.bss	00000002 _ZN12_GLOBAL__N_19free_sizeE
00008afa l     O .bss	00000001 _ZN12_GLOBAL__N_19last_freeE
0000008a l     O .zp.bss	00000001 _ZN12_GLOBAL__N_111initializedE
00000068 l     O .zp.bss	00000002 myRecord.2
00000064 l     O .zp.bss	00000001 currentPal
0000898e l     O .rodata	00000008 eraLabels
00007580 l     F .text	00000d40 printf
00000344 l     F .text	0000014b _ZN12_GLOBAL__N_19FreeChunk6insertEPvj
0000006f l     O .zp.bss	00000002 theOne.0
0000864f l     F .text	00000032 __mulhi3
000082c0 l     F .text	000001e4 malloc
00000080 l     O .zp.bss	00000002 theOne.8
00000077 l     O .zp.bss	00000001 theOne.4
00000073 l     O .zp.bss	00000004 theOne.2
00000071 l     O .zp.bss	00000002 theOne.1
00006ebd l     F .text	000004d0 resetTrack
00008ac4 l     O .bss	00000036 sidInstruments
0000004c l     O .zp.data	00000010 chipXChannel
0000006a l     O .zp.bss	00000001 planetScroll.1
0000006b l     O .zp.bss	00000001 shipExhaust.1
0000006d l     O .zp.bss	00000001 shipMT.1
0000006e l     O .zp.bss	00000001 padTimer.1
000066e2 l     F .text	000005c5 readMIDICmd
0000605f l     F .text	000001c2 sendAME
000084f0 l     F .text	0000015f __udivsi3
0000007e l     O .zp.bss	00000002 theOne.7
00000067 l     O .zp.bss	00000001 controllerMode
00000065 l     O .zp.bss	00000001 ship_SX
00000030 l     O .zp.data	00000002 ship_X
0000006c l     O .zp.bss	00000001 shotT.1
00000066 l     O .zp.bss	00000001 ship_SY
00000078 l     O .zp.bss	00000004 theOne.5
0000007c l     O .zp.bss	00000002 theOne.6
00008681 l     F .text	00000070 __mulsi3
00000032 l     O .zp.data	00000002 ship_Y
00005ce9 l     F .text	00000376 textPrint
0000003a l     O .zp.data	0000000c psgChoiceToVoice
00000046 l     O .zp.data	00000006 polyPSGChanBits
00008996 l     O .rodata	00000040 psgLow
000089d6 l     O .rodata	00000040 psgHigh
00000034 l     O .zp.data	00000006 sidChoiceToVoice
00008a16 l     O .rodata	00000060 sidLow
000088c0 l     O .rodata	00000060 sidHigh
00006221 l     F .text	000004c1 readDelta
00006ca7 l     F .text	00000216 skipWhenFFCmd
00007392 l     F .text	000000df _ZN12_GLOBAL__N_13putEcP6Status
00000062 l     O .zp.bss	00000002 __putchar.s
00007471 l     F .text	0000010f _ZN12_GLOBAL__N_112print_stringEPKcP6Status
00000490 l     F .text	000000e8 _ZN12_GLOBAL__N_19FreeChunk6removeEv
000009fa g     F .text	00000006 main
00023000 g       .starsbm	00000000 starsbm_end
00010400 g       .starsbm	00000000 starsbm_start
00024800 g       .shotBM	00000000 shotBM_start
00010000 g       .starspal	00000000 starspal_start
00024000 g       .planetBM	00000000 planetBM_end
00024800 g       .shipSP	00000000 shipSP_end
00010400 g       .starspal	00000000 starspal_end
00024000 g       .shipSP	00000000 shipSP_start
00024840 g       .shotBM	00000000 shotBM_end
00023000 g       .planetBM	00000000 planetBM_start
00000340 g       .text	00000000 __after_main
0000032c g       .text	00000000 __do_init_stack
0000033a g       .text	00000000 __do_copy_zp_data
0000059e g     F .text	00000017 __copy_zp_data
00000334 g       .text	00000000 __do_zero_bss
00000578 g     F .text	00000013 __zero_bss
00000337 g       .text	00000000 __do_zero_zp_bss
0000058b g     F .text	00000013 __zero_zp_bss
0000738d g     F .text	00000005 exit
00000343 g       .text	00000000 _fini
000084d0  w    F .text	00000020 __memset
00001000  w      *ABS*	00000000 __heap_default_limit
00008afc g       .noinit	00000000 __heap_start
000084a4  w    F .text	0000002c memcpy
00000010 g       *ABS*	00000000 __rc0
00000012 g       *ABS*	00000000 __rc2
00000014 g       *ABS*	00000000 __rc4
00000016 g       *ABS*	00000000 __rc6
00000018 g       *ABS*	00000000 __rc8
0000001a g       *ABS*	00000000 __rc10
0000001c g       *ABS*	00000000 __rc12
0000001e g       *ABS*	00000000 __rc14
00000020 g       *ABS*	00000000 __rc16
00000022 g       *ABS*	00000000 __rc18
00000024 g       *ABS*	00000000 __rc20
00000026 g       *ABS*	00000000 __rc22
00000028 g       *ABS*	00000000 __rc24
0000002a g       *ABS*	00000000 __rc26
0000002c g       *ABS*	00000000 __rc28
0000002e g       *ABS*	00000000 __rc30
0000002f g       *ABS*	00000000 __rc31
00000300 g       *ABS*	00000000 __f256_start
0000a000 g       *ABS*	00000000 __stack
0000a000 g       *ABS*	00000000 __SLOT_ADDR
0800a000 g       *ABS*	00000000 __block8_lma
00002000 g       *ABS*	00000000 __BLOCK_SIZE
0900a000 g       *ABS*	00000000 __block9_lma
0a00a000 g       *ABS*	00000000 __block10_lma
0b00a000 g       *ABS*	00000000 __block11_lma
0c00a000 g       *ABS*	00000000 __block12_lma
0d00a000 g       *ABS*	00000000 __block13_lma
0e00a000 g       *ABS*	00000000 __block14_lma
0f00a000 g       *ABS*	00000000 __block15_lma
1000a000 g       *ABS*	00000000 __block16_lma
1100a000 g       *ABS*	00000000 __block17_lma
1200a000 g       *ABS*	00000000 __block18_lma
1300a000 g       *ABS*	00000000 __block19_lma
1400a000 g       *ABS*	00000000 __block20_lma
1500a000 g       *ABS*	00000000 __block21_lma
1600a000 g       *ABS*	00000000 __block22_lma
1700a000 g       *ABS*	00000000 __block23_lma
00010000 g       *ABS*	00000000 __starspal_lma
00000400 g       *ABS*	00000000 __starspal_size
00010400 g       *ABS*	00000000 __starsbm_lma
00012c00 g       *ABS*	00000000 __starsbm_size
00023000 g       *ABS*	00000000 __planetBM_lma
00001000 g       *ABS*	00000000 __planetBM_size
00024000 g       *ABS*	00000000 __shipSP_lma
00000800 g       *ABS*	00000000 __shipSP_size
00024800 g       *ABS*	00000000 __shotBM_lma
00000040 g       *ABS*	00000000 __shotBM_size
00008a76 g       .bss	00000000 __bss_start
00010400 g       .starspal	00000000 end_starspal
00023000 g       .starsbm	00000000 end_starsbm
00024000 g       .planetBM	00000000 end_planetBM
00024800 g       .shipSP	00000000 end_shipSP
00024840 g       .shotBM	00000000 end_shotBM
0000032c g       .text	00000000 _start
0000002d g       *ABS*	00000000 __rc29
0000002b g       *ABS*	00000000 __rc27
00000029 g       *ABS*	00000000 __rc25
00000027 g       *ABS*	00000000 __rc23
00000025 g       *ABS*	00000000 __rc21
00000023 g       *ABS*	00000000 __rc19
00000021 g       *ABS*	00000000 __rc17
0000001f g       *ABS*	00000000 __rc15
0000001d g       *ABS*	00000000 __rc13
0000001b g       *ABS*	00000000 __rc11
00000019 g       *ABS*	00000000 __rc9
00000017 g       *ABS*	00000000 __rc7
00000015 g       *ABS*	00000000 __rc5
00000013 g       *ABS*	00000000 __rc3
00000011 g       *ABS*	00000000 __rc1
00000030 g       .zp.data	00000000 __zp_data_start
00000300 g       *ABS*	00000000 __zp_data_load_start
0000002c g       *ABS*	00000000 __zp_data_size
0000005c g       .zp.bss	00000000 __zp_bss_start
00000033 g       *ABS*	00000000 __zp_bss_size
0000032c g       .text	00000000 _init
000086f1 g       .text	00000000 __init_array_start
000086f1 g       .text	00000000 __init_array_end
000086f1 g       .text	00000000 __fini_array_start
000086f1 g       .text	00000000 __fini_array_end
00008a76 g       .data	00000000 __data_start
00008a76 g       .data	00000000 __data_end
00008a76 g       *ABS*	00000000 __data_load_start
00000000 g       *ABS*	00000000 __data_size
00008afb g       .bss	00000000 __bss_end
00000085 g       *ABS*	00000000 __bss_size
00008afb g       .noinit	00000000 end_block8
00008afb g       .noinit	00000000 end_block9
00008afb g       .noinit	00000000 end_block10
00008afb g       .noinit	00000000 end_block11
00008afb g       .noinit	00000000 end_block12
00008afb g       .noinit	00000000 end_block13
00008afb g       .noinit	00000000 end_block14
00008afb g       .noinit	00000000 end_block15
00008afb g       .noinit	00000000 end_block16
00008afb g       .noinit	00000000 end_block17
00008afb g       .noinit	00000000 end_block18
00008afb g       .noinit	00000000 end_block19
00008afb g       .noinit	00000000 end_block20
00008afb g       .noinit	00000000 end_block21
00008afb g       .noinit	00000000 end_block22
00008afb g       .noinit	00000000 end_block23

Disassembly of section .text:

0000032c <_start>:
     32c: a9 00        	lda	#$0
     32e: 85 10        	sta	$10                     ; 0x10 <__rc0>
     330: a9 a0        	lda	#$a0
     332: 85 11        	sta	$11                     ; 0x11 <__rc1>

00000334 <__do_zero_bss>:
     334: 20 78 05     	jsr	$578 <__zero_bss>

00000337 <__do_zero_zp_bss>:
     337: 20 8b 05     	jsr	$58b <__zero_zp_bss>

0000033a <__do_copy_zp_data>:
     33a: 20 9e 05     	jsr	$59e <__copy_zp_data>
     33d: 20 fa 09     	jsr	$9fa <main>

00000340 <__after_main>:
     340: 4c 8d 73     	jmp	$738d <exit>

00000343 <_fini>:
     343: 60           	rts

00000344 <_ZN12_GLOBAL__N_19FreeChunk6insertEPvj>:
     344: 85 16        	sta	$16                     ; 0x16 <__rc6>
     346: 29 fe        	and	#$fe
     348: 85 14        	sta	$14                     ; 0x14 <__rc4>
     34a: a0 01        	ldy	#$1
     34c: 98           	tya
     34d: 32 12        	and	($12)                   ; 0x12 <__rc2>
     34f: 05 14        	ora	$14                     ; 0x14 <__rc4>
     351: 92 12        	sta	($12)                   ; 0x12 <__rc2>
     353: a5 12        	lda	$12                     ; 0x12 <__rc2>
     355: 18           	clc
     356: 65 14        	adc	$14                     ; 0x14 <__rc4>
     358: 85 15        	sta	$15                     ; 0x15 <__rc5>
     35a: 8a           	txa
     35b: 65 13        	adc	$13                     ; 0x13 <__rc3>
     35d: 85 14        	sta	$14                     ; 0x14 <__rc4>
     35f: 18           	clc
     360: a5 15        	lda	$15                     ; 0x15 <__rc5>
     362: 69 fe        	adc	#$fe
     364: 85 17        	sta	$17                     ; 0x17 <__rc7>
     366: a5 14        	lda	$14                     ; 0x14 <__rc4>
     368: 69 ff        	adc	#$ff
     36a: 85 15        	sta	$15                     ; 0x15 <__rc5>
     36c: a5 17        	lda	$17                     ; 0x17 <__rc7>
     36e: 85 14        	sta	$14                     ; 0x14 <__rc4>
     370: 8a           	txa
     371: 91 12        	sta	($12),y                 ; 0x12 <__rc2>
     373: a5 16        	lda	$16                     ; 0x16 <__rc6>
     375: 92 14        	sta	($14)                   ; 0x14 <__rc4>
     377: 8a           	txa
     378: 91 14        	sta	($14),y                 ; 0x14 <__rc4>
     37a: a2 01        	ldx	#$1
     37c: 86 18        	stx	$18                     ; 0x18 <__rc8>
     37e: b1 12        	lda	($12),y                 ; 0x12 <__rc2>
     380: 85 14        	sta	$14                     ; 0x14 <__rc4>
     382: a9 fe        	lda	#$fe
     384: 32 12        	and	($12)                   ; 0x12 <__rc2>
     386: 18           	clc
     387: 65 8b        	adc	$8b                     ; 0x8b <_ZN12_GLOBAL__N_19free_sizeE>
     389: aa           	tax
     38a: a5 14        	lda	$14                     ; 0x14 <__rc4>
     38c: 65 8c        	adc	$8c                     ; 0x8c <_ZN12_GLOBAL__N_19free_sizeE+0x1>
     38e: a8           	tay
     38f: 18           	clc
     390: 8a           	txa
     391: 69 fe        	adc	#$fe
     393: aa           	tax
     394: 98           	tya
     395: 69 ff        	adc	#$ff
     397: 86 8b        	stx	$8b                     ; 0x8b <_ZN12_GLOBAL__N_19free_sizeE>
     399: 85 8c        	sta	$8c                     ; 0x8c <_ZN12_GLOBAL__N_19free_sizeE+0x1>
     39b: a6 8d        	ldx	$8d                     ; 0x8d <_ZN12_GLOBAL__N_19free_listE>
     39d: 86 16        	stx	$16                     ; 0x16 <__rc6>
     39f: a4 8e        	ldy	$8e                     ; 0x8e <_ZN12_GLOBAL__N_19free_listE+0x1>
     3a1: a2 00        	ldx	#$0
     3a3: 86 14        	stx	$14                     ; 0x14 <__rc4>
     3a5: a2 00        	ldx	#$0
     3a7: 86 15        	stx	$15                     ; 0x15 <__rc5>
     3a9: 84 17        	sty	$17                     ; 0x17 <__rc7>
     3ab: c4 15        	cpy	$15                     ; 0x15 <__rc5>
     3ad: d0 3c        	bne	$3eb <_ZN12_GLOBAL__N_19FreeChunk6insertEPvj+0xa7>
     3af: a6 16        	ldx	$16                     ; 0x16 <__rc6>
     3b1: e4 14        	cpx	$14                     ; 0x14 <__rc4>
     3b3: d0 36        	bne	$3eb <_ZN12_GLOBAL__N_19FreeChunk6insertEPvj+0xa7>
     3b5: a0 04        	ldy	#$4
     3b7: a5 12        	lda	$12                     ; 0x12 <__rc2>
     3b9: 18           	clc
     3ba: 69 04        	adc	#$4
     3bc: 85 14        	sta	$14                     ; 0x14 <__rc4>
     3be: a5 13        	lda	$13                     ; 0x13 <__rc3>
     3c0: 69 00        	adc	#$0
     3c2: 18           	clc
     3c3: 85 15        	sta	$15                     ; 0x15 <__rc5>
     3c5: a5 12        	lda	$12                     ; 0x12 <__rc2>
     3c7: 91 12        	sta	($12),y                 ; 0x12 <__rc2>
     3c9: a0 02        	ldy	#$2
     3cb: 85 17        	sta	$17                     ; 0x17 <__rc7>
     3cd: 69 02        	adc	#$2
     3cf: 85 16        	sta	$16                     ; 0x16 <__rc6>
     3d1: a5 17        	lda	$17                     ; 0x17 <__rc7>
     3d3: 91 12        	sta	($12),y                 ; 0x12 <__rc2>
     3d5: a5 13        	lda	$13                     ; 0x13 <__rc3>
     3d7: 69 00        	adc	#$0
     3d9: 85 17        	sta	$17                     ; 0x17 <__rc7>
     3db: 88           	dey
     3dc: a5 13        	lda	$13                     ; 0x13 <__rc3>
     3de: 91 14        	sta	($14),y                 ; 0x14 <__rc4>
     3e0: 91 16        	sta	($16),y                 ; 0x16 <__rc6>
     3e2: a6 12        	ldx	$12                     ; 0x12 <__rc2>
     3e4: 86 8d        	stx	$8d                     ; 0x8d <_ZN12_GLOBAL__N_19free_listE>
     3e6: a6 13        	ldx	$13                     ; 0x13 <__rc3>
     3e8: 86 8e        	stx	$8e                     ; 0x8e <_ZN12_GLOBAL__N_19free_listE+0x1>
     3ea: 60           	rts
     3eb: a6 12        	ldx	$12                     ; 0x12 <__rc2>
     3ed: a5 12        	lda	$12                     ; 0x12 <__rc2>
     3ef: 18           	clc
     3f0: 69 02        	adc	#$2
     3f2: 85 14        	sta	$14                     ; 0x14 <__rc4>
     3f4: a4 16        	ldy	$16                     ; 0x16 <__rc6>
     3f6: a5 13        	lda	$13                     ; 0x13 <__rc3>
     3f8: 69 00        	adc	#$0
     3fa: 85 15        	sta	$15                     ; 0x15 <__rc5>
     3fc: 84 19        	sty	$19                     ; 0x19 <__rc9>
     3fe: a4 17        	ldy	$17                     ; 0x17 <__rc7>
     400: 84 1a        	sty	$1a                     ; 0x1a <__rc10>
     402: a0 02        	ldy	#$2
     404: a5 19        	lda	$19                     ; 0x19 <__rc9>
     406: 91 12        	sta	($12),y                 ; 0x12 <__rc2>
     408: 84 1d        	sty	$1d                     ; 0x1d <__rc13>
     40a: a4 18        	ldy	$18                     ; 0x18 <__rc8>
     40c: a5 1a        	lda	$1a                     ; 0x1a <__rc10>
     40e: 91 14        	sta	($14),y                 ; 0x14 <__rc4>
     410: 84 1e        	sty	$1e                     ; 0x1e <__rc14>
     412: 18           	clc
     413: a5 19        	lda	$19                     ; 0x19 <__rc9>
     415: 69 04        	adc	#$4
     417: 85 18        	sta	$18                     ; 0x18 <__rc8>
     419: a5 1a        	lda	$1a                     ; 0x1a <__rc10>
     41b: 69 00        	adc	#$0
     41d: 85 19        	sta	$19                     ; 0x19 <__rc9>
     41f: 8a           	txa
     420: 18           	clc
     421: 69 04        	adc	#$4
     423: 85 1a        	sta	$1a                     ; 0x1a <__rc10>
     425: a5 13        	lda	$13                     ; 0x13 <__rc3>
     427: 69 00        	adc	#$0
     429: 85 1b        	sta	$1b                     ; 0x1b <__rc11>
     42b: a0 04        	ldy	#$4
     42d: b1 16        	lda	($16),y                 ; 0x16 <__rc6>
     42f: 85 16        	sta	$16                     ; 0x16 <__rc6>
     431: 85 22        	sta	$22                     ; 0x22 <__rc18>
     433: a4 1e        	ldy	$1e                     ; 0x1e <__rc14>
     435: b1 18        	lda	($18),y                 ; 0x18 <__rc8>
     437: 85 17        	sta	$17                     ; 0x17 <__rc7>
     439: 85 19        	sta	$19                     ; 0x19 <__rc9>
     43b: a0 04        	ldy	#$4
     43d: a5 22        	lda	$22                     ; 0x22 <__rc18>
     43f: 91 12        	sta	($12),y                 ; 0x12 <__rc2>
     441: 84 1f        	sty	$1f                     ; 0x1f <__rc15>
     443: a4 1e        	ldy	$1e                     ; 0x1e <__rc14>
     445: a5 19        	lda	$19                     ; 0x19 <__rc9>
     447: 91 1a        	sta	($1a),y                 ; 0x1a <__rc10>
     449: 84 1a        	sty	$1a                     ; 0x1a <__rc10>
     44b: 18           	clc
     44c: a5 22        	lda	$22                     ; 0x22 <__rc18>
     44e: 69 02        	adc	#$2
     450: 85 18        	sta	$18                     ; 0x18 <__rc8>
     452: a5 19        	lda	$19                     ; 0x19 <__rc9>
     454: 69 00        	adc	#$0
     456: 85 19        	sta	$19                     ; 0x19 <__rc9>
     458: 8a           	txa
     459: a4 1d        	ldy	$1d                     ; 0x1d <__rc13>
     45b: 91 16        	sta	($16),y                 ; 0x16 <__rc6>
     45d: a5 13        	lda	$13                     ; 0x13 <__rc3>
     45f: a4 1a        	ldy	$1a                     ; 0x1a <__rc10>
     461: 91 18        	sta	($18),y                 ; 0x18 <__rc8>
     463: a4 1d        	ldy	$1d                     ; 0x1d <__rc13>
     465: b1 12        	lda	($12),y                 ; 0x12 <__rc2>
     467: 85 16        	sta	$16                     ; 0x16 <__rc6>
     469: 85 19        	sta	$19                     ; 0x19 <__rc9>
     46b: a4 1a        	ldy	$1a                     ; 0x1a <__rc10>
     46d: b1 14        	lda	($14),y                 ; 0x14 <__rc4>
     46f: 84 18        	sty	$18                     ; 0x18 <__rc8>
     471: 85 17        	sta	$17                     ; 0x17 <__rc7>
     473: 85 14        	sta	$14                     ; 0x14 <__rc4>
     475: 8a           	txa
     476: a4 1f        	ldy	$1f                     ; 0x1f <__rc15>
     478: 91 16        	sta	($16),y                 ; 0x16 <__rc6>
     47a: 18           	clc
     47b: a5 19        	lda	$19                     ; 0x19 <__rc9>
     47d: 69 04        	adc	#$4
     47f: a8           	tay
     480: a5 14        	lda	$14                     ; 0x14 <__rc4>
     482: 69 00        	adc	#$0
     484: 84 14        	sty	$14                     ; 0x14 <__rc4>
     486: 85 15        	sta	$15                     ; 0x15 <__rc5>
     488: a5 13        	lda	$13                     ; 0x13 <__rc3>
     48a: a4 18        	ldy	$18                     ; 0x18 <__rc8>
     48c: 91 14        	sta	($14),y                 ; 0x14 <__rc4>
     48e: 60           	rts
     48f: 00           	brk

00000490 <_ZN12_GLOBAL__N_19FreeChunk6removeEv>:
     490: a0 01        	ldy	#$1
     492: a9 fe        	lda	#$fe
     494: 32 12        	and	($12)                   ; 0x12 <__rc2>
     496: 85 14        	sta	$14                     ; 0x14 <__rc4>
     498: a5 8b        	lda	$8b                     ; 0x8b <_ZN12_GLOBAL__N_19free_sizeE>
     49a: a6 8c        	ldx	$8c                     ; 0x8c <_ZN12_GLOBAL__N_19free_sizeE+0x1>
     49c: 38           	sec
     49d: e5 14        	sbc	$14                     ; 0x14 <__rc4>
     49f: 85 17        	sta	$17                     ; 0x17 <__rc7>
     4a1: 8a           	txa
     4a2: f1 12        	sbc	($12),y                 ; 0x12 <__rc2>
     4a4: 85 14        	sta	$14                     ; 0x14 <__rc4>
     4a6: a2 01        	ldx	#$1
     4a8: 86 16        	stx	$16                     ; 0x16 <__rc6>
     4aa: 18           	clc
     4ab: a5 17        	lda	$17                     ; 0x17 <__rc7>
     4ad: 69 02        	adc	#$2
     4af: 85 15        	sta	$15                     ; 0x15 <__rc5>
     4b1: a5 14        	lda	$14                     ; 0x14 <__rc4>
     4b3: 69 00        	adc	#$0
     4b5: a6 15        	ldx	$15                     ; 0x15 <__rc5>
     4b7: 86 8b        	stx	$8b                     ; 0x8b <_ZN12_GLOBAL__N_19free_sizeE>
     4b9: 85 8c        	sta	$8c                     ; 0x8c <_ZN12_GLOBAL__N_19free_sizeE+0x1>
     4bb: a5 12        	lda	$12                     ; 0x12 <__rc2>
     4bd: 18           	clc
     4be: 69 02        	adc	#$2
     4c0: 85 14        	sta	$14                     ; 0x14 <__rc4>
     4c2: a5 13        	lda	$13                     ; 0x13 <__rc3>
     4c4: 69 00        	adc	#$0
     4c6: c8           	iny
     4c7: 85 15        	sta	$15                     ; 0x15 <__rc5>
     4c9: b1 12        	lda	($12),y                 ; 0x12 <__rc2>
     4cb: aa           	tax
     4cc: a4 16        	ldy	$16                     ; 0x16 <__rc6>
     4ce: b1 14        	lda	($14),y                 ; 0x14 <__rc4>
     4d0: 85 19        	sta	$19                     ; 0x19 <__rc9>
     4d2: c5 13        	cmp	$13                     ; 0x13 <__rc3>
     4d4: d0 0f        	bne	$4e5 <_ZN12_GLOBAL__N_19FreeChunk6removeEv+0x55>
     4d6: e4 12        	cpx	$12                     ; 0x12 <__rc2>
     4d8: d0 0b        	bne	$4e5 <_ZN12_GLOBAL__N_19FreeChunk6removeEv+0x55>
     4da: a2 00        	ldx	#$0
     4dc: 86 14        	stx	$14                     ; 0x14 <__rc4>
     4de: a2 00        	ldx	#$0
     4e0: 86 15        	stx	$15                     ; 0x15 <__rc5>
     4e2: 4c 6f 05     	jmp	$56f <_ZN12_GLOBAL__N_19FreeChunk6removeEv+0xdf>
     4e5: 86 18        	stx	$18                     ; 0x18 <__rc8>
     4e7: a6 12        	ldx	$12                     ; 0x12 <__rc2>
     4e9: a5 12        	lda	$12                     ; 0x12 <__rc2>
     4eb: 86 1c        	stx	$1c                     ; 0x1c <__rc12>
     4ed: 18           	clc
     4ee: 69 04        	adc	#$4
     4f0: 85 14        	sta	$14                     ; 0x14 <__rc4>
     4f2: a5 13        	lda	$13                     ; 0x13 <__rc3>
     4f4: 69 00        	adc	#$0
     4f6: a0 04        	ldy	#$4
     4f8: 85 15        	sta	$15                     ; 0x15 <__rc5>
     4fa: b1 12        	lda	($12),y                 ; 0x12 <__rc2>
     4fc: 85 1d        	sta	$1d                     ; 0x1d <__rc13>
     4fe: a2 04        	ldx	#$4
     500: 86 1a        	stx	$1a                     ; 0x1a <__rc10>
     502: 18           	clc
     503: 69 02        	adc	#$2
     505: 85 16        	sta	$16                     ; 0x16 <__rc6>
     507: a0 01        	ldy	#$1
     509: b1 14        	lda	($14),y                 ; 0x14 <__rc4>
     50b: aa           	tax
     50c: 84 1e        	sty	$1e                     ; 0x1e <__rc14>
     50e: 69 00        	adc	#$0
     510: a4 16        	ldy	$16                     ; 0x16 <__rc6>
     512: 84 14        	sty	$14                     ; 0x14 <__rc4>
     514: 85 15        	sta	$15                     ; 0x15 <__rc5>
     516: a4 1d        	ldy	$1d                     ; 0x1d <__rc13>
     518: 84 16        	sty	$16                     ; 0x16 <__rc6>
     51a: 86 17        	stx	$17                     ; 0x17 <__rc7>
     51c: a5 18        	lda	$18                     ; 0x18 <__rc8>
     51e: a0 02        	ldy	#$2
     520: 91 16        	sta	($16),y                 ; 0x16 <__rc6>
     522: 84 16        	sty	$16                     ; 0x16 <__rc6>
     524: a5 19        	lda	$19                     ; 0x19 <__rc9>
     526: a4 1e        	ldy	$1e                     ; 0x1e <__rc14>
     528: 91 14        	sta	($14),y                 ; 0x14 <__rc4>
     52a: 18           	clc
     52b: a5 1c        	lda	$1c                     ; 0x1c <__rc12>
     52d: 69 02        	adc	#$2
     52f: 85 14        	sta	$14                     ; 0x14 <__rc4>
     531: a5 13        	lda	$13                     ; 0x13 <__rc3>
     533: 69 00        	adc	#$0
     535: 85 15        	sta	$15                     ; 0x15 <__rc5>
     537: a4 16        	ldy	$16                     ; 0x16 <__rc6>
     539: b1 12        	lda	($12),y                 ; 0x12 <__rc2>
     53b: 85 16        	sta	$16                     ; 0x16 <__rc6>
     53d: a4 1e        	ldy	$1e                     ; 0x1e <__rc14>
     53f: b1 14        	lda	($14),y                 ; 0x14 <__rc4>
     541: 84 18        	sty	$18                     ; 0x18 <__rc8>
     543: a4 16        	ldy	$16                     ; 0x16 <__rc6>
     545: 84 14        	sty	$14                     ; 0x14 <__rc4>
     547: 85 15        	sta	$15                     ; 0x15 <__rc5>
     549: 85 17        	sta	$17                     ; 0x17 <__rc7>
     54b: a4 1a        	ldy	$1a                     ; 0x1a <__rc10>
     54d: a5 1d        	lda	$1d                     ; 0x1d <__rc13>
     54f: 91 14        	sta	($14),y                 ; 0x14 <__rc4>
     551: 18           	clc
     552: a5 16        	lda	$16                     ; 0x16 <__rc6>
     554: 69 04        	adc	#$4
     556: 85 16        	sta	$16                     ; 0x16 <__rc6>
     558: a5 17        	lda	$17                     ; 0x17 <__rc7>
     55a: 69 00        	adc	#$0
     55c: 85 17        	sta	$17                     ; 0x17 <__rc7>
     55e: 8a           	txa
     55f: a4 18        	ldy	$18                     ; 0x18 <__rc8>
     561: 91 16        	sta	($16),y                 ; 0x16 <__rc6>
     563: a6 8e        	ldx	$8e                     ; 0x8e <_ZN12_GLOBAL__N_19free_listE+0x1>
     565: e4 13        	cpx	$13                     ; 0x13 <__rc3>
     567: d0 0e        	bne	$577 <_ZN12_GLOBAL__N_19FreeChunk6removeEv+0xe7>
     569: a6 8d        	ldx	$8d                     ; 0x8d <_ZN12_GLOBAL__N_19free_listE>
     56b: e4 12        	cpx	$12                     ; 0x12 <__rc2>
     56d: d0 08        	bne	$577 <_ZN12_GLOBAL__N_19FreeChunk6removeEv+0xe7>
     56f: a6 14        	ldx	$14                     ; 0x14 <__rc4>
     571: a4 15        	ldy	$15                     ; 0x15 <__rc5>
     573: 86 8d        	stx	$8d                     ; 0x8d <_ZN12_GLOBAL__N_19free_listE>
     575: 84 8e        	sty	$8e                     ; 0x8e <_ZN12_GLOBAL__N_19free_listE+0x1>
     577: 60           	rts

00000578 <__zero_bss>:
     578: a2 85        	ldx	#$85
     57a: a0 00        	ldy	#$0
     57c: a9 76        	lda	#$76
     57e: 85 12        	sta	$12                     ; 0x12 <__rc2>
     580: a9 8a        	lda	#$8a
     582: 85 13        	sta	$13                     ; 0x13 <__rc3>
     584: a9 00        	lda	#$0
     586: 84 14        	sty	$14                     ; 0x14 <__rc4>
     588: 4c d0 84     	jmp	$84d0 <__memset>

0000058b <__zero_zp_bss>:
     58b: a2 33        	ldx	#$33
     58d: a0 00        	ldy	#$0
     58f: a9 5c        	lda	#$5c
     591: 85 12        	sta	$12                     ; 0x12 <__rc2>
     593: a9 00        	lda	#$0
     595: 85 13        	sta	$13                     ; 0x13 <__rc3>
     597: a9 00        	lda	#$0
     599: 84 14        	sty	$14                     ; 0x14 <__rc4>
     59b: 4c d0 84     	jmp	$84d0 <__memset>

0000059e <__copy_zp_data>:
     59e: a9 2c        	lda	#$2c
     5a0: a2 00        	ldx	#$0
     5a2: a0 30        	ldy	#$30
     5a4: 84 12        	sty	$12                     ; 0x12 <__rc2>
     5a6: a0 00        	ldy	#$0
     5a8: 84 13        	sty	$13                     ; 0x13 <__rc3>
     5aa: a0 00        	ldy	#$0
     5ac: 84 14        	sty	$14                     ; 0x14 <__rc4>
     5ae: a0 03        	ldy	#$3
     5b0: 84 15        	sty	$15                     ; 0x15 <__rc5>
     5b2: 4c a4 84     	jmp	$84a4 <memcpy>

000005b5 <f256Init>:
     5b5: 64 1c        	stz	$1c                     ; 0x1c <__rc12>
     5b7: a2 00        	ldx	#$0
     5b9: 86 1a        	stx	$1a                     ; 0x1a <__rc10>
     5bb: a2 d0        	ldx	#$d0
     5bd: 86 1b        	stx	$1b                     ; 0x1b <__rc11>
     5bf: a2 00        	ldx	#$0
     5c1: 86 16        	stx	$16                     ; 0x16 <__rc6>
     5c3: a2 d8        	ldx	#$d8
     5c5: 86 17        	stx	$17                     ; 0x17 <__rc7>
     5c7: a2 00        	ldx	#$0
     5c9: 86 18        	stx	$18                     ; 0x18 <__rc8>
     5cb: a2 d4        	ldx	#$d4
     5cd: 86 19        	stx	$19                     ; 0x19 <__rc9>
     5cf: a2 00        	ldx	#$0
     5d1: 86 14        	stx	$14                     ; 0x14 <__rc4>
     5d3: a2 dc        	ldx	#$dc
     5d5: 86 15        	stx	$15                     ; 0x15 <__rc5>
     5d7: a2 00        	ldx	#$0
     5d9: 86 12        	stx	$12                     ; 0x12 <__rc2>
     5db: a2 c0        	ldx	#$c0
     5dd: 86 13        	stx	$13                     ; 0x13 <__rc3>
     5df: 64 01        	stz	$1                      ; 0x1 <__data_size+0x1>
     5e1: a2 3f        	ldx	#$3f
     5e3: 8e 00 d0     	stx	$d000                   ; 0xd000 <__heap_start+0x4504>
     5e6: a2 b3        	ldx	#$b3
     5e8: 86 00        	stx	$0                      ; 0x0 <__data_size>
     5ea: 64 08        	stz	$8                      ; 0x8 <__data_size+0x8>
     5ec: a2 01        	ldx	#$1
     5ee: 86 09        	stx	$9                      ; 0x9 <__data_size+0x9>
     5f0: e8           	inx
     5f1: 86 0a        	stx	$a                      ; 0xa <__data_size+0xa>
     5f3: e8           	inx
     5f4: 86 0b        	stx	$b                      ; 0xb <__data_size+0xb>
     5f6: e8           	inx
     5f7: 86 0c        	stx	$c                      ; 0xc <__data_size+0xc>
     5f9: e8           	inx
     5fa: 86 0d        	stx	$d                      ; 0xd <__data_size+0xd>
     5fc: a2 83        	ldx	#$83
     5fe: a9 00        	lda	#$0
     600: 86 f0        	stx	$f0                     ; 0xf0 <__bss_size+0x6b>
     602: 85 f1        	sta	$f1                     ; 0xf1 <__bss_size+0x6c>
     604: a6 01        	ldx	$1                      ; 0x1 <__data_size+0x1>
     606: a0 01        	ldy	#$1
     608: 84 01        	sty	$1                      ; 0x1 <__data_size+0x1>
     60a: a5 1c        	lda	$1c                     ; 0x1c <__rc12>
     60c: 92 1a        	sta	($1a)                   ; 0x1a <__rc10>
     60e: 91 1a        	sta	($1a),y                 ; 0x1a <__rc10>
     610: c8           	iny
     611: 91 1a        	sta	($1a),y                 ; 0x1a <__rc10>
     613: c8           	iny
     614: a9 ff        	lda	#$ff
     616: 91 1a        	sta	($1a),y                 ; 0x1a <__rc10>
     618: 86 01        	stx	$1                      ; 0x1 <__data_size+0x1>
     61a: a5 1a        	lda	$1a                     ; 0x1a <__rc10>
     61c: 18           	clc
     61d: 69 04        	adc	#$4
     61f: 85 1a        	sta	$1a                     ; 0x1a <__rc10>
     621: a5 1b        	lda	$1b                     ; 0x1b <__rc11>
     623: 69 00        	adc	#$0
     625: e6 1c        	inc	$1c                     ; 0x1c <__rc12>
     627: 85 1b        	sta	$1b                     ; 0x1b <__rc11>
     629: d0 d9        	bne	$604 <f256Init+0x4f>
     62b: a9 00        	lda	#$0
     62d: a6 01        	ldx	$1                      ; 0x1 <__data_size+0x1>
     62f: a0 01        	ldy	#$1
     631: 84 01        	sty	$1                      ; 0x1 <__data_size+0x1>
     633: 92 18        	sta	($18)                   ; 0x18 <__rc8>
     635: 91 18        	sta	($18),y                 ; 0x18 <__rc8>
     637: c8           	iny
     638: 91 18        	sta	($18),y                 ; 0x18 <__rc8>
     63a: c8           	iny
     63b: 85 1a        	sta	$1a                     ; 0x1a <__rc10>
     63d: a9 ff        	lda	#$ff
     63f: 91 18        	sta	($18),y                 ; 0x18 <__rc8>
     641: 86 01        	stx	$1                      ; 0x1 <__data_size+0x1>
     643: a5 18        	lda	$18                     ; 0x18 <__rc8>
     645: 18           	clc
     646: 69 04        	adc	#$4
     648: 85 18        	sta	$18                     ; 0x18 <__rc8>
     64a: a5 19        	lda	$19                     ; 0x19 <__rc9>
     64c: 69 00        	adc	#$0
     64e: e6 1a        	inc	$1a                     ; 0x1a <__rc10>
     650: 85 19        	sta	$19                     ; 0x19 <__rc9>
     652: a5 1a        	lda	$1a                     ; 0x1a <__rc10>
     654: d0 d7        	bne	$62d <f256Init+0x78>
     656: a9 00        	lda	#$0
     658: a6 01        	ldx	$1                      ; 0x1 <__data_size+0x1>
     65a: a0 01        	ldy	#$1
     65c: 84 01        	sty	$1                      ; 0x1 <__data_size+0x1>
     65e: 92 16        	sta	($16)                   ; 0x16 <__rc6>
     660: 91 16        	sta	($16),y                 ; 0x16 <__rc6>
     662: c8           	iny
     663: 91 16        	sta	($16),y                 ; 0x16 <__rc6>
     665: c8           	iny
     666: 85 18        	sta	$18                     ; 0x18 <__rc8>
     668: a9 ff        	lda	#$ff
     66a: 91 16        	sta	($16),y                 ; 0x16 <__rc6>
     66c: 86 01        	stx	$1                      ; 0x1 <__data_size+0x1>
     66e: a5 16        	lda	$16                     ; 0x16 <__rc6>
     670: 18           	clc
     671: 69 04        	adc	#$4
     673: 85 16        	sta	$16                     ; 0x16 <__rc6>
     675: a5 17        	lda	$17                     ; 0x17 <__rc7>
     677: 69 00        	adc	#$0
     679: e6 18        	inc	$18                     ; 0x18 <__rc8>
     67b: 85 17        	sta	$17                     ; 0x17 <__rc7>
     67d: a5 18        	lda	$18                     ; 0x18 <__rc8>
     67f: d0 d7        	bne	$658 <f256Init+0xa3>
     681: a9 00        	lda	#$0
     683: a6 01        	ldx	$1                      ; 0x1 <__data_size+0x1>
     685: a0 01        	ldy	#$1
     687: 84 01        	sty	$1                      ; 0x1 <__data_size+0x1>
     689: 92 14        	sta	($14)                   ; 0x14 <__rc4>
     68b: 91 14        	sta	($14),y                 ; 0x14 <__rc4>
     68d: c8           	iny
     68e: 91 14        	sta	($14),y                 ; 0x14 <__rc4>
     690: c8           	iny
     691: 85 16        	sta	$16                     ; 0x16 <__rc6>
     693: a9 ff        	lda	#$ff
     695: 91 14        	sta	($14),y                 ; 0x14 <__rc4>
     697: 86 01        	stx	$1                      ; 0x1 <__data_size+0x1>
     699: a5 14        	lda	$14                     ; 0x14 <__rc4>
     69b: 18           	clc
     69c: 69 04        	adc	#$4
     69e: 85 14        	sta	$14                     ; 0x14 <__rc4>
     6a0: a5 15        	lda	$15                     ; 0x15 <__rc5>
     6a2: 69 00        	adc	#$0
     6a4: e6 16        	inc	$16                     ; 0x16 <__rc6>
     6a6: 85 15        	sta	$15                     ; 0x15 <__rc5>
     6a8: a5 16        	lda	$16                     ; 0x16 <__rc6>
     6aa: d0 d7        	bne	$683 <f256Init+0xce>
     6ac: ad 02 d0     	lda	$d002                   ; 0xd002 <__heap_start+0x4506>
     6af: 29 f0        	and	#$f0
     6b1: 8d 02 d0     	sta	$d002                   ; 0xd002 <__heap_start+0x4506>
     6b4: ad 02 d0     	lda	$d002                   ; 0xd002 <__heap_start+0x4506>
     6b7: 29 0f        	and	#$f
     6b9: 09 10        	ora	#$10
     6bb: 8d 02 d0     	sta	$d002                   ; 0xd002 <__heap_start+0x4506>
     6be: a2 02        	ldx	#$2
     6c0: 8e 03 d0     	stx	$d003                   ; 0xd003 <__heap_start+0x4507>
     6c3: ad 01 d0     	lda	$d001                   ; 0xd001 <__heap_start+0x4505>
     6c6: 29 f9        	and	#$f9
     6c8: 09 04        	ora	#$4
     6ca: 8d 01 d0     	sta	$d001                   ; 0xd001 <__heap_start+0x4505>
     6cd: 64 14        	stz	$14                     ; 0x14 <__rc4>
     6cf: 9c 10 d0     	stz	$d010                   ; 0xd010 <__heap_start+0x4514>
     6d2: a2 00        	ldx	#$0
     6d4: 64 15        	stz	$15                     ; 0x15 <__rc5>
     6d6: 86 18        	stx	$18                     ; 0x18 <__rc8>
     6d8: a4 18        	ldy	$18                     ; 0x18 <__rc8>
     6da: be 41 88     	ldx	$8841,y                 ; 0x8841 <textColors>
     6dd: 86 19        	stx	$19                     ; 0x19 <__rc9>
     6df: be 42 88     	ldx	$8842,y                 ; 0x8842 <textColors+0x1>
     6e2: 86 1a        	stx	$1a                     ; 0x1a <__rc10>
     6e4: be 43 88     	ldx	$8843,y                 ; 0x8843 <textColors+0x2>
     6e7: 86 1b        	stx	$1b                     ; 0x1b <__rc11>
     6e9: a6 15        	ldx	$15                     ; 0x15 <__rc5>
     6eb: 8e 00 de     	stx	$de00                   ; 0xde00 <__heap_start+0x5304>
     6ee: 86 17        	stx	$17                     ; 0x17 <__rc7>
     6f0: 9c 01 de     	stz	$de01                   ; 0xde01 <__heap_start+0x5305>
     6f3: a2 04        	ldx	#$4
     6f5: 8e 02 de     	stx	$de02                   ; 0xde02 <__heap_start+0x5306>
     6f8: 86 1d        	stx	$1d                     ; 0x1d <__rc13>
     6fa: 9c 03 de     	stz	$de03                   ; 0xde03 <__heap_start+0x5307>
     6fd: ad 10 de     	lda	$de10                   ; 0xde10 <__heap_start+0x5314>
     700: ac 11 de     	ldy	$de11                   ; 0xde11 <__heap_start+0x5315>
     703: 84 15        	sty	$15                     ; 0x15 <__rc5>
     705: ac 12 de     	ldy	$de12                   ; 0xde12 <__heap_start+0x5316>
     708: ac 13 de     	ldy	$de13                   ; 0xde13 <__heap_start+0x5317>
     70b: a2 00        	ldx	#$0
     70d: 18           	clc
     70e: 65 14        	adc	$14                     ; 0x14 <__rc4>
     710: a8           	tay
     711: 86 1f        	stx	$1f                     ; 0x1f <__rc15>
     713: a6 17        	ldx	$17                     ; 0x17 <__rc7>
     715: a9 d8        	lda	#$d8
     717: 65 15        	adc	$15                     ; 0x15 <__rc5>
     719: 84 16        	sty	$16                     ; 0x16 <__rc6>
     71b: 85 17        	sta	$17                     ; 0x17 <__rc7>
     71d: a5 1b        	lda	$1b                     ; 0x1b <__rc11>
     71f: 92 16        	sta	($16)                   ; 0x16 <__rc6>
     721: a0 01        	ldy	#$1
     723: a5 1a        	lda	$1a                     ; 0x1a <__rc10>
     725: 91 16        	sta	($16),y                 ; 0x16 <__rc6>
     727: 84 1c        	sty	$1c                     ; 0x1c <__rc12>
     729: c8           	iny
     72a: a5 19        	lda	$19                     ; 0x19 <__rc9>
     72c: 91 16        	sta	($16),y                 ; 0x16 <__rc6>
     72e: 84 1e        	sty	$1e                     ; 0x1e <__rc14>
     730: c8           	iny
     731: a9 ff        	lda	#$ff
     733: 91 16        	sta	($16),y                 ; 0x16 <__rc6>
     735: 85 23        	sta	$23                     ; 0x23 <__rc19>
     737: 84 22        	sty	$22                     ; 0x22 <__rc18>
     739: 8e 00 de     	stx	$de00                   ; 0xde00 <__heap_start+0x5304>
     73c: 9c 01 de     	stz	$de01                   ; 0xde01 <__heap_start+0x5305>
     73f: a4 1d        	ldy	$1d                     ; 0x1d <__rc13>
     741: 8c 02 de     	sty	$de02                   ; 0xde02 <__heap_start+0x5306>
     744: 9c 03 de     	stz	$de03                   ; 0xde03 <__heap_start+0x5307>
     747: ad 10 de     	lda	$de10                   ; 0xde10 <__heap_start+0x5314>
     74a: 85 15        	sta	$15                     ; 0x15 <__rc5>
     74c: ad 11 de     	lda	$de11                   ; 0xde11 <__heap_start+0x5315>
     74f: 85 16        	sta	$16                     ; 0x16 <__rc6>
     751: a9 40        	lda	#$40
     753: a4 1f        	ldy	$1f                     ; 0x1f <__rc15>
     755: c0 01        	cpy	#$1
     757: 65 15        	adc	$15                     ; 0x15 <__rc5>
     759: a8           	tay
     75a: a9 d8        	lda	#$d8
     75c: 65 16        	adc	$16                     ; 0x16 <__rc6>
     75e: 85 17        	sta	$17                     ; 0x17 <__rc7>
     760: 84 16        	sty	$16                     ; 0x16 <__rc6>
     762: ad 12 de     	lda	$de12                   ; 0xde12 <__heap_start+0x5316>
     765: ad 13 de     	lda	$de13                   ; 0xde13 <__heap_start+0x5317>
     768: a5 1b        	lda	$1b                     ; 0x1b <__rc11>
     76a: 92 16        	sta	($16)                   ; 0x16 <__rc6>
     76c: a5 1a        	lda	$1a                     ; 0x1a <__rc10>
     76e: a4 1c        	ldy	$1c                     ; 0x1c <__rc12>
     770: 91 16        	sta	($16),y                 ; 0x16 <__rc6>
     772: a5 19        	lda	$19                     ; 0x19 <__rc9>
     774: a4 1e        	ldy	$1e                     ; 0x1e <__rc14>
     776: 91 16        	sta	($16),y                 ; 0x16 <__rc6>
     778: a4 22        	ldy	$22                     ; 0x22 <__rc18>
     77a: a5 23        	lda	$23                     ; 0x23 <__rc19>
     77c: 91 16        	sta	($16),y                 ; 0x16 <__rc6>
     77e: e8           	inx
     77f: 86 15        	stx	$15                     ; 0x15 <__rc5>
     781: 18           	clc
     782: a5 18        	lda	$18                     ; 0x18 <__rc8>
     784: 69 03        	adc	#$3
     786: aa           	tax
     787: c9 30        	cmp	#$30
     789: f0 03        	beq	$78e <f256Init+0x1d9>
     78b: 4c d6 06     	jmp	$6d6 <f256Init+0x121>
     78e: a6 01        	ldx	$1                      ; 0x1 <__data_size+0x1>
     790: 86 18        	stx	$18                     ; 0x18 <__rc8>
     792: a2 50        	ldx	#$50
     794: 8e 00 de     	stx	$de00                   ; 0xde00 <__heap_start+0x5304>
     797: 9c 01 de     	stz	$de01                   ; 0xde01 <__heap_start+0x5305>
     79a: a2 1e        	ldx	#$1e
     79c: 8e 02 de     	stx	$de02                   ; 0xde02 <__heap_start+0x5306>
     79f: 9c 03 de     	stz	$de03                   ; 0xde03 <__heap_start+0x5307>
     7a2: ae 10 de     	ldx	$de10                   ; 0xde10 <__heap_start+0x5314>
     7a5: ac 11 de     	ldy	$de11                   ; 0xde11 <__heap_start+0x5315>
     7a8: ad 12 de     	lda	$de12                   ; 0xde12 <__heap_start+0x5316>
     7ab: ad 13 de     	lda	$de13                   ; 0xde13 <__heap_start+0x5317>
     7ae: a9 02        	lda	#$2
     7b0: 85 01        	sta	$1                      ; 0x1 <__data_size+0x1>
     7b2: e0 01        	cpx	#$1
     7b4: 98           	tya
     7b5: e9 00        	sbc	#$0
     7b7: 50 02        	bvc	$7bb <f256Init+0x206>
     7b9: 49 80        	eor	#$80
     7bb: c9 00        	cmp	#$0
     7bd: 10 03        	bpl	$7c2 <f256Init+0x20d>
     7bf: 4c 19 08     	jmp	$819 <f256Init+0x264>
     7c2: a9 20        	lda	#$20
     7c4: 86 19        	stx	$19                     ; 0x19 <__rc9>
     7c6: 86 14        	stx	$14                     ; 0x14 <__rc4>
     7c8: 84 15        	sty	$15                     ; 0x15 <__rc5>
     7ca: a2 00        	ldx	#$0
     7cc: 86 16        	stx	$16                     ; 0x16 <__rc6>
     7ce: a2 c0        	ldx	#$c0
     7d0: 86 17        	stx	$17                     ; 0x17 <__rc7>
     7d2: 80 04        	bra	$7d8 <f256Init+0x223>
     7d4: a6 15        	ldx	$15                     ; 0x15 <__rc5>
     7d6: f0 14        	beq	$7ec <f256Init+0x237>
     7d8: 92 16        	sta	($16)                   ; 0x16 <__rc6>
     7da: e6 16        	inc	$16                     ; 0x16 <__rc6>
     7dc: d0 02        	bne	$7e0 <f256Init+0x22b>
     7de: e6 17        	inc	$17                     ; 0x17 <__rc7>
     7e0: a2 ff        	ldx	#$ff
     7e2: c6 14        	dec	$14                     ; 0x14 <__rc4>
     7e4: e4 14        	cpx	$14                     ; 0x14 <__rc4>
     7e6: d0 ec        	bne	$7d4 <f256Init+0x21f>
     7e8: c6 15        	dec	$15                     ; 0x15 <__rc5>
     7ea: 80 e8        	bra	$7d4 <f256Init+0x21f>
     7ec: a6 14        	ldx	$14                     ; 0x14 <__rc4>
     7ee: d0 e8        	bne	$7d8 <f256Init+0x223>
     7f0: a2 03        	ldx	#$3
     7f2: 86 01        	stx	$1                      ; 0x1 <__data_size+0x1>
     7f4: a6 19        	ldx	$19                     ; 0x19 <__rc9>
     7f6: 80 03        	bra	$7fb <f256Init+0x246>
     7f8: 98           	tya
     7f9: f0 19        	beq	$814 <f256Init+0x25f>
     7fb: a9 f0        	lda	#$f0
     7fd: 92 12        	sta	($12)                   ; 0x12 <__rc2>
     7ff: e6 12        	inc	$12                     ; 0x12 <__rc2>
     801: f0 07        	beq	$80a <f256Init+0x255>
     803: ca           	dex
     804: e0 ff        	cpx	#$ff
     806: d0 f0        	bne	$7f8 <f256Init+0x243>
     808: 80 07        	bra	$811 <f256Init+0x25c>
     80a: e6 13        	inc	$13                     ; 0x13 <__rc3>
     80c: ca           	dex
     80d: e0 ff        	cpx	#$ff
     80f: d0 e7        	bne	$7f8 <f256Init+0x243>
     811: 88           	dey
     812: 80 e4        	bra	$7f8 <f256Init+0x243>
     814: 8a           	txa
     815: d0 e4        	bne	$7fb <f256Init+0x246>
     817: 80 04        	bra	$81d <f256Init+0x268>
     819: a2 03        	ldx	#$3
     81b: 86 01        	stx	$1                      ; 0x1 <__data_size+0x1>
     81d: a6 18        	ldx	$18                     ; 0x18 <__rc8>
     81f: 86 01        	stx	$1                      ; 0x1 <__data_size+0x1>
     821: 64 5c        	stz	$5c                     ; 0x5c <_col>
     823: 9c 14 d0     	stz	$d014                   ; 0xd014 <__heap_start+0x4518>
     826: 9c 15 d0     	stz	$d015                   ; 0xd015 <__heap_start+0x4519>
     829: 64 5d        	stz	$5d                     ; 0x5d <_row>
     82b: 9c 16 d0     	stz	$d016                   ; 0xd016 <__heap_start+0x451a>
     82e: 9c 17 d0     	stz	$d017                   ; 0xd017 <__heap_start+0x451b>
     831: a2 40        	ldx	#$40
     833: 8e 00 de     	stx	$de00                   ; 0xde00 <__heap_start+0x5304>
     836: a2 01        	ldx	#$1
     838: 8e 01 de     	stx	$de01                   ; 0xde01 <__heap_start+0x5305>
     83b: a2 f0        	ldx	#$f0
     83d: 8e 02 de     	stx	$de02                   ; 0xde02 <__heap_start+0x5306>
     840: 9c 03 de     	stz	$de03                   ; 0xde03 <__heap_start+0x5307>
     843: ae 10 de     	ldx	$de10                   ; 0xde10 <__heap_start+0x5314>
     846: 86 17        	stx	$17                     ; 0x17 <__rc7>
     848: ae 11 de     	ldx	$de11                   ; 0xde11 <__heap_start+0x5315>
     84b: 86 12        	stx	$12                     ; 0x12 <__rc2>
     84d: ae 12 de     	ldx	$de12                   ; 0xde12 <__heap_start+0x5316>
     850: 86 13        	stx	$13                     ; 0x13 <__rc3>
     852: ae 13 de     	ldx	$de13                   ; 0xde13 <__heap_start+0x5317>
     855: 86 14        	stx	$14                     ; 0x14 <__rc4>
     857: 64 5e        	stz	$5e                     ; 0x5e <_active>
     859: a4 12        	ldy	$12                     ; 0x12 <__rc2>
     85b: 84 15        	sty	$15                     ; 0x15 <__rc5>
     85d: 06 15        	asl	$15                     ; 0x15 <__rc5>
     85f: a5 13        	lda	$13                     ; 0x13 <__rc3>
     861: 2a           	rol
     862: 86 16        	stx	$16                     ; 0x16 <__rc6>
     864: 26 16        	rol	$16                     ; 0x16 <__rc6>
     866: 06 15        	asl	$15                     ; 0x15 <__rc5>
     868: 2a           	rol
     869: 26 16        	rol	$16                     ; 0x16 <__rc6>
     86b: 06 15        	asl	$15                     ; 0x15 <__rc5>
     86d: 2a           	rol
     86e: 26 16        	rol	$16                     ; 0x16 <__rc6>
     870: 85 15        	sta	$15                     ; 0x15 <__rc5>
     872: 8d 00 de     	sta	$de00                   ; 0xde00 <__heap_start+0x5304>
     875: a5 16        	lda	$16                     ; 0x16 <__rc6>
     877: 8d 01 de     	sta	$de01                   ; 0xde01 <__heap_start+0x5305>
     87a: 9c 02 de     	stz	$de02                   ; 0xde02 <__heap_start+0x5306>
     87d: a2 20        	ldx	#$20
     87f: 8e 03 de     	stx	$de03                   ; 0xde03 <__heap_start+0x5307>
     882: ae 10 de     	ldx	$de10                   ; 0xde10 <__heap_start+0x5314>
     885: 86 16        	stx	$16                     ; 0x16 <__rc6>
     887: ae 11 de     	ldx	$de11                   ; 0xde11 <__heap_start+0x5315>
     88a: 86 18        	stx	$18                     ; 0x18 <__rc8>
     88c: ac 12 de     	ldy	$de12                   ; 0xde12 <__heap_start+0x5316>
     88f: ae 13 de     	ldx	$de13                   ; 0xde13 <__heap_start+0x5317>
     892: e4 14        	cpx	$14                     ; 0x14 <__rc4>
     894: d0 14        	bne	$8aa <f256Init+0x2f5>
     896: c4 13        	cpy	$13                     ; 0x13 <__rc3>
     898: d0 10        	bne	$8aa <f256Init+0x2f5>
     89a: a6 18        	ldx	$18                     ; 0x18 <__rc8>
     89c: e4 12        	cpx	$12                     ; 0x12 <__rc2>
     89e: d0 0a        	bne	$8aa <f256Init+0x2f5>
     8a0: a6 16        	ldx	$16                     ; 0x16 <__rc6>
     8a2: e4 17        	cpx	$17                     ; 0x17 <__rc7>
     8a4: d0 04        	bne	$8aa <f256Init+0x2f5>
     8a6: a6 15        	ldx	$15                     ; 0x15 <__rc5>
     8a8: 80 06        	bra	$8b0 <f256Init+0x2fb>
     8aa: a6 15        	ldx	$15                     ; 0x15 <__rc5>
     8ac: e8           	inx
     8ad: d0 01        	bne	$8b0 <f256Init+0x2fb>
     8af: 1a           	inc
     8b0: 8e 00 de     	stx	$de00                   ; 0xde00 <__heap_start+0x5304>
     8b3: 8d 01 de     	sta	$de01                   ; 0xde01 <__heap_start+0x5305>
     8b6: 9c 02 de     	stz	$de02                   ; 0xde02 <__heap_start+0x5306>
     8b9: a2 20        	ldx	#$20
     8bb: 8e 03 de     	stx	$de03                   ; 0xde03 <__heap_start+0x5307>
     8be: ae 10 de     	ldx	$de10                   ; 0xde10 <__heap_start+0x5314>
     8c1: 86 12        	stx	$12                     ; 0x12 <__rc2>
     8c3: ae 11 de     	ldx	$de11                   ; 0xde11 <__heap_start+0x5315>
     8c6: 86 13        	stx	$13                     ; 0x13 <__rc3>
     8c8: ae 12 de     	ldx	$de12                   ; 0xde12 <__heap_start+0x5316>
     8cb: 86 14        	stx	$14                     ; 0x14 <__rc4>
     8cd: ae 13 de     	ldx	$de13                   ; 0xde13 <__heap_start+0x5317>
     8d0: 86 15        	stx	$15                     ; 0x15 <__rc5>
     8d2: a9 00        	lda	#$0
     8d4: 38           	sec
     8d5: e5 12        	sbc	$12                     ; 0x12 <__rc2>
     8d7: 85 18        	sta	$18                     ; 0x18 <__rc8>
     8d9: a9 00        	lda	#$0
     8db: e5 13        	sbc	$13                     ; 0x13 <__rc3>
     8dd: a8           	tay
     8de: a9 08        	lda	#$8
     8e0: e5 14        	sbc	$14                     ; 0x14 <__rc4>
     8e2: aa           	tax
     8e3: a9 00        	lda	#$0
     8e5: e5 15        	sbc	$15                     ; 0x15 <__rc5>
     8e7: 85 17        	sta	$17                     ; 0x17 <__rc7>
     8e9: 8c 77 8a     	sty	$8a77                   ; 0x8a77 <__bss_start+0x1>
     8ec: 8e 78 8a     	stx	$8a78                   ; 0x8a78 <__bss_start+0x2>
     8ef: 8d 79 8a     	sta	$8a79                   ; 0x8a79 <__bss_start+0x3>
     8f2: a5 18        	lda	$18                     ; 0x18 <__rc8>
     8f4: 38           	sec
     8f5: e5 12        	sbc	$12                     ; 0x12 <__rc2>
     8f7: 85 19        	sta	$19                     ; 0x19 <__rc9>
     8f9: 98           	tya
     8fa: e5 13        	sbc	$13                     ; 0x13 <__rc3>
     8fc: 85 16        	sta	$16                     ; 0x16 <__rc6>
     8fe: 8a           	txa
     8ff: e5 14        	sbc	$14                     ; 0x14 <__rc4>
     901: aa           	tax
     902: a5 17        	lda	$17                     ; 0x17 <__rc7>
     904: e5 15        	sbc	$15                     ; 0x15 <__rc5>
     906: 85 17        	sta	$17                     ; 0x17 <__rc7>
     908: 38           	sec
     909: a5 19        	lda	$19                     ; 0x19 <__rc9>
     90b: 8d 7a 8a     	sta	$8a7a                   ; 0x8a7a <_BITMAP_BASE.1>
     90e: a4 16        	ldy	$16                     ; 0x16 <__rc6>
     910: 8c 7b 8a     	sty	$8a7b                   ; 0x8a7b <_BITMAP_BASE.1+0x1>
     913: 8e 7c 8a     	stx	$8a7c                   ; 0x8a7c <_BITMAP_BASE.1+0x2>
     916: a4 17        	ldy	$17                     ; 0x17 <__rc7>
     918: 8c 7d 8a     	sty	$8a7d                   ; 0x8a7d <_BITMAP_BASE.1+0x3>
     91b: e5 12        	sbc	$12                     ; 0x12 <__rc2>
     91d: a8           	tay
     91e: a5 16        	lda	$16                     ; 0x16 <__rc6>
     920: e5 13        	sbc	$13                     ; 0x13 <__rc3>
     922: 85 12        	sta	$12                     ; 0x12 <__rc2>
     924: 8a           	txa
     925: e5 14        	sbc	$14                     ; 0x14 <__rc4>
     927: 85 14        	sta	$14                     ; 0x14 <__rc4>
     929: a5 17        	lda	$17                     ; 0x17 <__rc7>
     92b: e5 15        	sbc	$15                     ; 0x15 <__rc5>
     92d: 8c 7e 8a     	sty	$8a7e                   ; 0x8a7e <_BITMAP_BASE.2>
     930: a4 12        	ldy	$12                     ; 0x12 <__rc2>
     932: 8c 7f 8a     	sty	$8a7f                   ; 0x8a7f <_BITMAP_BASE.2+0x1>
     935: a6 14        	ldx	$14                     ; 0x14 <__rc4>
     937: 8e 80 8a     	stx	$8a80                   ; 0x8a80 <_BITMAP_BASE.2+0x2>
     93a: a6 18        	ldx	$18                     ; 0x18 <__rc8>
     93c: 8e 76 8a     	stx	$8a76                   ; 0x8a76 <__bss_start>
     93f: 8d 81 8a     	sta	$8a81                   ; 0x8a81 <_BITMAP_BASE.2+0x3>
     942: 64 5f        	stz	$5f                     ; 0x5f <_BITMAP_CLUT>
     944: 64 60        	stz	$60                     ; 0x60 <_BITMAP_CLUT+0x1>
     946: 64 61        	stz	$61                     ; 0x61 <_BITMAP_CLUT+0x2>
     948: 8e 01 d1     	stx	$d101                   ; 0xd101 <__heap_start+0x4605>
     94b: ae 77 8a     	ldx	$8a77                   ; 0x8a77 <__bss_start+0x1>
     94e: 8e 02 d1     	stx	$d102                   ; 0xd102 <__heap_start+0x4606>
     951: ae 78 8a     	ldx	$8a78                   ; 0x8a78 <__bss_start+0x2>
     954: 8e 03 d1     	stx	$d103                   ; 0xd103 <__heap_start+0x4607>
     957: ae 7a 8a     	ldx	$8a7a                   ; 0x8a7a <_BITMAP_BASE.1>
     95a: 8e 09 d1     	stx	$d109                   ; 0xd109 <__heap_start+0x460d>
     95d: ae 7b 8a     	ldx	$8a7b                   ; 0x8a7b <_BITMAP_BASE.1+0x1>
     960: 8e 0a d1     	stx	$d10a                   ; 0xd10a <__heap_start+0x460e>
     963: ae 7c 8a     	ldx	$8a7c                   ; 0x8a7c <_BITMAP_BASE.1+0x2>
     966: 8e 0b d1     	stx	$d10b                   ; 0xd10b <__heap_start+0x460f>
     969: ae 7e 8a     	ldx	$8a7e                   ; 0x8a7e <_BITMAP_BASE.2>
     96c: 8e 11 d1     	stx	$d111                   ; 0xd111 <__heap_start+0x4615>
     96f: ae 7f 8a     	ldx	$8a7f                   ; 0x8a7f <_BITMAP_BASE.2+0x1>
     972: 8e 12 d1     	stx	$d112                   ; 0xd112 <__heap_start+0x4616>
     975: ae 80 8a     	ldx	$8a80                   ; 0x8a80 <_BITMAP_BASE.2+0x2>
     978: 8e 13 d1     	stx	$d113                   ; 0xd113 <__heap_start+0x4617>
     97b: 9c 00 d1     	stz	$d100                   ; 0xd100 <__heap_start+0x4604>
     97e: 9c 08 d1     	stz	$d108                   ; 0xd108 <__heap_start+0x460c>
     981: 9c 10 d1     	stz	$d110                   ; 0xd110 <__heap_start+0x4614>
     984: a2 10        	ldx	#$10
     986: 8e 00 d2     	stx	$d200                   ; 0xd200 <__heap_start+0x4704>
     989: 8e 0c d2     	stx	$d20c                   ; 0xd20c <__heap_start+0x4710>
     98c: 8e 18 d2     	stx	$d218                   ; 0xd218 <__heap_start+0x471c>
     98f: a0 d9        	ldy	#$d9
     991: 64 12        	stz	$12                     ; 0x12 <__rc2>
     993: a2 00        	ldx	#$0
     995: 84 13        	sty	$13                     ; 0x13 <__rc3>
     997: bd 82 8a     	lda	$8a82,x                 ; 0x8a82 <_spriteCtl>
     99a: 92 12        	sta	($12)                   ; 0x12 <__rc2>
     99c: a5 12        	lda	$12                     ; 0x12 <__rc2>
     99e: e8           	inx
     99f: 18           	clc
     9a0: 69 08        	adc	#$8
     9a2: 85 12        	sta	$12                     ; 0x12 <__rc2>
     9a4: 98           	tya
     9a5: 69 00        	adc	#$0
     9a7: a8           	tay
     9a8: e0 40        	cpx	#$40
     9aa: d0 e9        	bne	$995 <f256Init+0x3e0>
     9ac: a2 8f        	ldx	#$8f
     9ae: a0 00        	ldy	#$0
     9b0: 86 fb        	stx	$fb                     ; 0xfb <__bss_size+0x76>
     9b2: 84 fc        	sty	$fc                     ; 0xfc <__bss_size+0x77>
     9b4: a2 08        	ldx	#$8
     9b6: 86 fd        	stx	$fd                     ; 0xfd <__bss_size+0x78>
     9b8: a2 97        	ldx	#$97
     9ba: a0 00        	ldy	#$0
     9bc: 86 12        	stx	$12                     ; 0x12 <__rc2>
     9be: 84 13        	sty	$13                     ; 0x13 <__rc3>
     9c0: a2 82        	ldx	#$82
     9c2: 86 14        	stx	$14                     ; 0x14 <__rc4>
     9c4: a2 00        	ldx	#$0
     9c6: 86 15        	stx	$15                     ; 0x15 <__rc5>
     9c8: 20 dc ff     	jsr	$ffdc <__heap_start+0x74e0>
     9cb: 92 12        	sta	($12)                   ; 0x12 <__rc2>
     9cd: a9 00        	lda	#$0
     9cf: 6a           	ror
     9d0: 85 14        	sta	$14                     ; 0x14 <__rc4>
     9d2: a6 95        	ldx	$95                     ; 0x95 <__bss_size+0x10>
     9d4: a4 96        	ldy	$96                     ; 0x96 <__bss_size+0x11>
     9d6: 8e 00 de     	stx	$de00                   ; 0xde00 <__heap_start+0x5304>
     9d9: 9c 01 de     	stz	$de01                   ; 0xde01 <__heap_start+0x5305>
     9dc: 8c 02 de     	sty	$de02                   ; 0xde02 <__heap_start+0x5306>
     9df: 9c 03 de     	stz	$de03                   ; 0xde03 <__heap_start+0x5307>
     9e2: ae 10 de     	ldx	$de10                   ; 0xde10 <__heap_start+0x5314>
     9e5: ac 11 de     	ldy	$de11                   ; 0xde11 <__heap_start+0x5315>
     9e8: ad 12 de     	lda	$de12                   ; 0xde12 <__heap_start+0x5316>
     9eb: ad 13 de     	lda	$de13                   ; 0xde13 <__heap_start+0x5317>
     9ee: 8e a4 d6     	stx	$d6a4                   ; 0xd6a4 <__heap_start+0x4ba8>
     9f1: 8c a5 d6     	sty	$d6a5                   ; 0xd6a5 <__heap_start+0x4ba9>
     9f4: a2 03        	ldx	#$3
     9f6: 8e a6 d6     	stx	$d6a6                   ; 0xd6a6 <__heap_start+0x4baa>
     9f9: 60           	rts

000009fa <main>:
     9fa: 20 b5 05     	jsr	$5b5 <f256Init>
     9fd: 20 00 0a     	jsr	$a00 <f256main>

00000a00 <f256main>:
     a00: 18           	clc
     a01: a5 10        	lda	$10                     ; 0x10 <__rc0>
     a03: 69 eb        	adc	#$eb
     a05: 85 10        	sta	$10                     ; 0x10 <__rc0>
     a07: a5 11        	lda	$11                     ; 0x11 <__rc1>
     a09: 69 fe        	adc	#$fe
     a0b: 85 11        	sta	$11                     ; 0x11 <__rc1>
     a0d: 64 12        	stz	$12                     ; 0x12 <__rc2>
     a0f: a2 00        	ldx	#$0
     a11: 86 14        	stx	$14                     ; 0x14 <__rc4>
     a13: a2 d1        	ldx	#$d1
     a15: 86 15        	stx	$15                     ; 0x15 <__rc5>
     a17: a5 14        	lda	$14                     ; 0x14 <__rc4>
     a19: a0 09        	ldy	#$9
     a1b: 91 10        	sta	($10),y                 ; 0x10 <__rc0>
     a1d: a5 15        	lda	$15                     ; 0x15 <__rc5>
     a1f: c8           	iny
     a20: 91 10        	sta	($10),y                 ; 0x10 <__rc0>
     a22: a2 10        	ldx	#$10
     a24: 86 14        	stx	$14                     ; 0x14 <__rc4>
     a26: a2 d1        	ldx	#$d1
     a28: 86 15        	stx	$15                     ; 0x15 <__rc5>
     a2a: a5 14        	lda	$14                     ; 0x14 <__rc4>
     a2c: a0 06        	ldy	#$6
     a2e: 91 10        	sta	($10),y                 ; 0x10 <__rc0>
     a30: a5 15        	lda	$15                     ; 0x15 <__rc5>
     a32: c8           	iny
     a33: 91 10        	sta	($10),y                 ; 0x10 <__rc0>
     a35: a2 00        	ldx	#$0
     a37: a0 10        	ldy	#$10
     a39: 86 13        	stx	$13                     ; 0x13 <__rc3>
     a3b: a9 fc        	lda	#$fc
     a3d: 84 14        	sty	$14                     ; 0x14 <__rc4>
     a3f: 18           	clc
     a40: 65 13        	adc	$13                     ; 0x13 <__rc3>
     a42: 85 26        	sta	$26                     ; 0x26 <__rc22>
     a44: a9 8a        	lda	#$8a
     a46: 65 14        	adc	$14                     ; 0x14 <__rc4>
     a48: 85 2b        	sta	$2b                     ; 0x2b <__rc27>
     a4a: 64 01        	stz	$1                      ; 0x1 <__data_size+0x1>
     a4c: a2 3f        	ldx	#$3f
     a4e: 8e 00 d0     	stx	$d000                   ; 0xd000 <__heap_start+0x4504>
     a51: a2 04        	ldx	#$4
     a53: 8e 01 d0     	stx	$d001                   ; 0xd001 <__heap_start+0x4505>
     a56: a2 01        	ldx	#$1
     a58: 8e 02 d0     	stx	$d002                   ; 0xd002 <__heap_start+0x4506>
     a5b: a0 02        	ldy	#$2
     a5d: 8c 03 d0     	sty	$d003                   ; 0xd003 <__heap_start+0x4507>
     a60: 9c 0d d0     	stz	$d00d                   ; 0xd00d <__heap_start+0x4511>
     a63: 9c 0e d0     	stz	$d00e                   ; 0xd00e <__heap_start+0x4512>
     a66: 9c 0f d0     	stz	$d00f                   ; 0xd00f <__heap_start+0x4513>
     a69: 86 01        	stx	$1                      ; 0x1 <__data_size+0x1>
     a6b: ca           	dex
     a6c: 86 14        	stx	$14                     ; 0x14 <__rc4>
     a6e: a2 c0        	ldx	#$c0
     a70: 86 15        	stx	$15                     ; 0x15 <__rc5>
     a72: a5 14        	lda	$14                     ; 0x14 <__rc4>
     a74: a0 0d        	ldy	#$d
     a76: 91 10        	sta	($10),y                 ; 0x10 <__rc0>
     a78: a5 15        	lda	$15                     ; 0x15 <__rc5>
     a7a: c8           	iny
     a7b: 91 10        	sta	($10),y                 ; 0x10 <__rc0>
     a7d: a2 e0        	ldx	#$e0
     a7f: 86 16        	stx	$16                     ; 0x16 <__rc6>
     a81: a2 d0        	ldx	#$d0
     a83: 86 17        	stx	$17                     ; 0x17 <__rc7>
     a85: e8           	inx
     a86: 86 1a        	stx	$1a                     ; 0x1a <__rc10>
     a88: e8           	inx
     a89: 86 1b        	stx	$1b                     ; 0x1b <__rc11>
     a8b: e8           	inx
     a8c: a4 0f        	ldy	$f                      ; 0xf <__data_size+0xf>
     a8e: 78           	sei
     a8f: a9 08        	lda	#$8
     a91: 85 0f        	sta	$f                      ; 0xf <__data_size+0xf>
     a93: 85 1c        	sta	$1c                     ; 0x1c <__rc12>
     a95: a5 16        	lda	$16                     ; 0x16 <__rc6>
     a97: 85 13        	sta	$13                     ; 0x13 <__rc3>
     a99: b2 12        	lda	($12)                   ; 0x12 <__rc2>
     a9b: 84 0f        	sty	$f                      ; 0xf <__data_size+0xf>
     a9d: 58           	cli
     a9e: a4 12        	ldy	$12                     ; 0x12 <__rc2>
     aa0: 84 14        	sty	$14                     ; 0x14 <__rc4>
     aa2: a4 17        	ldy	$17                     ; 0x17 <__rc7>
     aa4: 84 15        	sty	$15                     ; 0x15 <__rc5>
     aa6: 92 14        	sta	($14)                   ; 0x14 <__rc4>
     aa8: a4 0f        	ldy	$f                      ; 0xf <__data_size+0xf>
     aaa: 78           	sei
     aab: a5 1c        	lda	$1c                     ; 0x1c <__rc12>
     aad: 85 0f        	sta	$f                      ; 0xf <__data_size+0xf>
     aaf: b2 12        	lda	($12)                   ; 0x12 <__rc2>
     ab1: 84 0f        	sty	$f                      ; 0xf <__data_size+0xf>
     ab3: 58           	cli
     ab4: a4 1a        	ldy	$1a                     ; 0x1a <__rc10>
     ab6: 84 15        	sty	$15                     ; 0x15 <__rc5>
     ab8: 92 14        	sta	($14)                   ; 0x14 <__rc4>
     aba: a4 0f        	ldy	$f                      ; 0xf <__data_size+0xf>
     abc: 78           	sei
     abd: a5 1c        	lda	$1c                     ; 0x1c <__rc12>
     abf: 85 0f        	sta	$f                      ; 0xf <__data_size+0xf>
     ac1: b2 12        	lda	($12)                   ; 0x12 <__rc2>
     ac3: 84 0f        	sty	$f                      ; 0xf <__data_size+0xf>
     ac5: 58           	cli
     ac6: a4 1b        	ldy	$1b                     ; 0x1b <__rc11>
     ac8: 84 15        	sty	$15                     ; 0x15 <__rc5>
     aca: 92 14        	sta	($14)                   ; 0x14 <__rc4>
     acc: a4 0f        	ldy	$f                      ; 0xf <__data_size+0xf>
     ace: 78           	sei
     acf: a5 1c        	lda	$1c                     ; 0x1c <__rc12>
     ad1: 85 0f        	sta	$f                      ; 0xf <__data_size+0xf>
     ad3: b2 12        	lda	($12)                   ; 0x12 <__rc2>
     ad5: 84 0f        	sty	$f                      ; 0xf <__data_size+0xf>
     ad7: 58           	cli
     ad8: 86 13        	stx	$13                     ; 0x13 <__rc3>
     ada: 92 12        	sta	($12)                   ; 0x12 <__rc2>
     adc: a4 12        	ldy	$12                     ; 0x12 <__rc2>
     ade: c8           	iny
     adf: 84 12        	sty	$12                     ; 0x12 <__rc2>
     ae1: f0 03        	beq	$ae6 <f256main+0xe6>
     ae3: 4c 8c 0a     	jmp	$a8c <f256main+0x8c>
     ae6: 64 12        	stz	$12                     ; 0x12 <__rc2>
     ae8: a2 e1        	ldx	#$e1
     aea: 86 16        	stx	$16                     ; 0x16 <__rc6>
     aec: a2 d4        	ldx	#$d4
     aee: 86 17        	stx	$17                     ; 0x17 <__rc7>
     af0: e8           	inx
     af1: 86 1a        	stx	$1a                     ; 0x1a <__rc10>
     af3: e8           	inx
     af4: 86 1b        	stx	$1b                     ; 0x1b <__rc11>
     af6: e8           	inx
     af7: a4 0f        	ldy	$f                      ; 0xf <__data_size+0xf>
     af9: 78           	sei
     afa: a9 08        	lda	#$8
     afc: 85 0f        	sta	$f                      ; 0xf <__data_size+0xf>
     afe: 85 1c        	sta	$1c                     ; 0x1c <__rc12>
     b00: a5 16        	lda	$16                     ; 0x16 <__rc6>
     b02: 85 13        	sta	$13                     ; 0x13 <__rc3>
     b04: b2 12        	lda	($12)                   ; 0x12 <__rc2>
     b06: 84 0f        	sty	$f                      ; 0xf <__data_size+0xf>
     b08: 58           	cli
     b09: a4 12        	ldy	$12                     ; 0x12 <__rc2>
     b0b: 84 14        	sty	$14                     ; 0x14 <__rc4>
     b0d: a4 17        	ldy	$17                     ; 0x17 <__rc7>
     b0f: 84 15        	sty	$15                     ; 0x15 <__rc5>
     b11: 92 14        	sta	($14)                   ; 0x14 <__rc4>
     b13: a4 0f        	ldy	$f                      ; 0xf <__data_size+0xf>
     b15: 78           	sei
     b16: a5 1c        	lda	$1c                     ; 0x1c <__rc12>
     b18: 85 0f        	sta	$f                      ; 0xf <__data_size+0xf>
     b1a: b2 12        	lda	($12)                   ; 0x12 <__rc2>
     b1c: 84 0f        	sty	$f                      ; 0xf <__data_size+0xf>
     b1e: 58           	cli
     b1f: a4 1a        	ldy	$1a                     ; 0x1a <__rc10>
     b21: 84 15        	sty	$15                     ; 0x15 <__rc5>
     b23: 92 14        	sta	($14)                   ; 0x14 <__rc4>
     b25: a4 0f        	ldy	$f                      ; 0xf <__data_size+0xf>
     b27: 78           	sei
     b28: a5 1c        	lda	$1c                     ; 0x1c <__rc12>
     b2a: 85 0f        	sta	$f                      ; 0xf <__data_size+0xf>
     b2c: b2 12        	lda	($12)                   ; 0x12 <__rc2>
     b2e: 84 0f        	sty	$f                      ; 0xf <__data_size+0xf>
     b30: 58           	cli
     b31: a4 1b        	ldy	$1b                     ; 0x1b <__rc11>
     b33: 84 15        	sty	$15                     ; 0x15 <__rc5>
     b35: 92 14        	sta	($14)                   ; 0x14 <__rc4>
     b37: a4 0f        	ldy	$f                      ; 0xf <__data_size+0xf>
     b39: 78           	sei
     b3a: a5 1c        	lda	$1c                     ; 0x1c <__rc12>
     b3c: 85 0f        	sta	$f                      ; 0xf <__data_size+0xf>
     b3e: b2 12        	lda	($12)                   ; 0x12 <__rc2>
     b40: 84 0f        	sty	$f                      ; 0xf <__data_size+0xf>
     b42: 58           	cli
     b43: 86 13        	stx	$13                     ; 0x13 <__rc3>
     b45: 92 12        	sta	($12)                   ; 0x12 <__rc2>
     b47: a4 12        	ldy	$12                     ; 0x12 <__rc2>
     b49: c8           	iny
     b4a: 84 12        	sty	$12                     ; 0x12 <__rc2>
     b4c: f0 03        	beq	$b51 <f256main+0x151>
     b4e: 4c f7 0a     	jmp	$af7 <f256main+0xf7>
     b51: 64 12        	stz	$12                     ; 0x12 <__rc2>
     b53: a2 e2        	ldx	#$e2
     b55: 86 16        	stx	$16                     ; 0x16 <__rc6>
     b57: a2 d8        	ldx	#$d8
     b59: 86 17        	stx	$17                     ; 0x17 <__rc7>
     b5b: e8           	inx
     b5c: 86 1a        	stx	$1a                     ; 0x1a <__rc10>
     b5e: e8           	inx
     b5f: 86 1b        	stx	$1b                     ; 0x1b <__rc11>
     b61: e8           	inx
     b62: a4 0f        	ldy	$f                      ; 0xf <__data_size+0xf>
     b64: 78           	sei
     b65: a9 08        	lda	#$8
     b67: 85 0f        	sta	$f                      ; 0xf <__data_size+0xf>
     b69: 85 1c        	sta	$1c                     ; 0x1c <__rc12>
     b6b: a5 16        	lda	$16                     ; 0x16 <__rc6>
     b6d: 85 13        	sta	$13                     ; 0x13 <__rc3>
     b6f: b2 12        	lda	($12)                   ; 0x12 <__rc2>
     b71: 84 0f        	sty	$f                      ; 0xf <__data_size+0xf>
     b73: 58           	cli
     b74: a4 12        	ldy	$12                     ; 0x12 <__rc2>
     b76: 84 14        	sty	$14                     ; 0x14 <__rc4>
     b78: a4 17        	ldy	$17                     ; 0x17 <__rc7>
     b7a: 84 15        	sty	$15                     ; 0x15 <__rc5>
     b7c: 92 14        	sta	($14)                   ; 0x14 <__rc4>
     b7e: a4 0f        	ldy	$f                      ; 0xf <__data_size+0xf>
     b80: 78           	sei
     b81: a5 1c        	lda	$1c                     ; 0x1c <__rc12>
     b83: 85 0f        	sta	$f                      ; 0xf <__data_size+0xf>
     b85: b2 12        	lda	($12)                   ; 0x12 <__rc2>
     b87: 84 0f        	sty	$f                      ; 0xf <__data_size+0xf>
     b89: 58           	cli
     b8a: a4 1a        	ldy	$1a                     ; 0x1a <__rc10>
     b8c: 84 15        	sty	$15                     ; 0x15 <__rc5>
     b8e: 92 14        	sta	($14)                   ; 0x14 <__rc4>
     b90: a4 0f        	ldy	$f                      ; 0xf <__data_size+0xf>
     b92: 78           	sei
     b93: a5 1c        	lda	$1c                     ; 0x1c <__rc12>
     b95: 85 0f        	sta	$f                      ; 0xf <__data_size+0xf>
     b97: b2 12        	lda	($12)                   ; 0x12 <__rc2>
     b99: 84 0f        	sty	$f                      ; 0xf <__data_size+0xf>
     b9b: 58           	cli
     b9c: a4 1b        	ldy	$1b                     ; 0x1b <__rc11>
     b9e: 84 15        	sty	$15                     ; 0x15 <__rc5>
     ba0: 92 14        	sta	($14)                   ; 0x14 <__rc4>
     ba2: a4 0f        	ldy	$f                      ; 0xf <__data_size+0xf>
     ba4: 78           	sei
     ba5: a5 1c        	lda	$1c                     ; 0x1c <__rc12>
     ba7: 85 0f        	sta	$f                      ; 0xf <__data_size+0xf>
     ba9: b2 12        	lda	($12)                   ; 0x12 <__rc2>
     bab: 84 0f        	sty	$f                      ; 0xf <__data_size+0xf>
     bad: 58           	cli
     bae: 86 13        	stx	$13                     ; 0x13 <__rc3>
     bb0: 92 12        	sta	($12)                   ; 0x12 <__rc2>
     bb2: a4 12        	ldy	$12                     ; 0x12 <__rc2>
     bb4: c8           	iny
     bb5: 84 12        	sty	$12                     ; 0x12 <__rc2>
     bb7: f0 03        	beq	$bbc <f256main+0x1bc>
     bb9: 4c 62 0b     	jmp	$b62 <f256main+0x162>
     bbc: 64 12        	stz	$12                     ; 0x12 <__rc2>
     bbe: a2 e3        	ldx	#$e3
     bc0: 86 16        	stx	$16                     ; 0x16 <__rc6>
     bc2: a2 dc        	ldx	#$dc
     bc4: 86 17        	stx	$17                     ; 0x17 <__rc7>
     bc6: e8           	inx
     bc7: 86 1a        	stx	$1a                     ; 0x1a <__rc10>
     bc9: e8           	inx
     bca: 86 1b        	stx	$1b                     ; 0x1b <__rc11>
     bcc: e8           	inx
     bcd: a4 0f        	ldy	$f                      ; 0xf <__data_size+0xf>
     bcf: 78           	sei
     bd0: a9 08        	lda	#$8
     bd2: 85 0f        	sta	$f                      ; 0xf <__data_size+0xf>
     bd4: 85 1c        	sta	$1c                     ; 0x1c <__rc12>
     bd6: a5 16        	lda	$16                     ; 0x16 <__rc6>
     bd8: 85 13        	sta	$13                     ; 0x13 <__rc3>
     bda: b2 12        	lda	($12)                   ; 0x12 <__rc2>
     bdc: 84 0f        	sty	$f                      ; 0xf <__data_size+0xf>
     bde: 58           	cli
     bdf: a4 12        	ldy	$12                     ; 0x12 <__rc2>
     be1: 84 14        	sty	$14                     ; 0x14 <__rc4>
     be3: a4 17        	ldy	$17                     ; 0x17 <__rc7>
     be5: 84 15        	sty	$15                     ; 0x15 <__rc5>
     be7: 92 14        	sta	($14)                   ; 0x14 <__rc4>
     be9: a4 0f        	ldy	$f                      ; 0xf <__data_size+0xf>
     beb: 78           	sei
     bec: a5 1c        	lda	$1c                     ; 0x1c <__rc12>
     bee: 85 0f        	sta	$f                      ; 0xf <__data_size+0xf>
     bf0: b2 12        	lda	($12)                   ; 0x12 <__rc2>
     bf2: 84 0f        	sty	$f                      ; 0xf <__data_size+0xf>
     bf4: 58           	cli
     bf5: a4 1a        	ldy	$1a                     ; 0x1a <__rc10>
     bf7: 84 15        	sty	$15                     ; 0x15 <__rc5>
     bf9: 92 14        	sta	($14)                   ; 0x14 <__rc4>
     bfb: a4 0f        	ldy	$f                      ; 0xf <__data_size+0xf>
     bfd: 78           	sei
     bfe: a5 1c        	lda	$1c                     ; 0x1c <__rc12>
     c00: 85 0f        	sta	$f                      ; 0xf <__data_size+0xf>
     c02: b2 12        	lda	($12)                   ; 0x12 <__rc2>
     c04: 84 0f        	sty	$f                      ; 0xf <__data_size+0xf>
     c06: 58           	cli
     c07: a4 1b        	ldy	$1b                     ; 0x1b <__rc11>
     c09: 84 15        	sty	$15                     ; 0x15 <__rc5>
     c0b: 92 14        	sta	($14)                   ; 0x14 <__rc4>
     c0d: a4 0f        	ldy	$f                      ; 0xf <__data_size+0xf>
     c0f: 78           	sei
     c10: a5 1c        	lda	$1c                     ; 0x1c <__rc12>
     c12: 85 0f        	sta	$f                      ; 0xf <__data_size+0xf>
     c14: b2 12        	lda	($12)                   ; 0x12 <__rc2>
     c16: 84 0f        	sty	$f                      ; 0xf <__data_size+0xf>
     c18: 58           	cli
     c19: 86 13        	stx	$13                     ; 0x13 <__rc3>
     c1b: 92 12        	sta	($12)                   ; 0x12 <__rc2>
     c1d: a4 12        	ldy	$12                     ; 0x12 <__rc2>
     c1f: c8           	iny
     c20: 84 12        	sty	$12                     ; 0x12 <__rc2>
     c22: f0 03        	beq	$c27 <f256main+0x227>
     c24: 4c cd 0b     	jmp	$bcd <f256main+0x1cd>
     c27: 64 01        	stz	$1                      ; 0x1 <__data_size+0x1>
     c29: a0 10        	ldy	#$10
     c2b: 8c 82 8a     	sty	$8a82                   ; 0x8a82 <_spriteCtl>
     c2e: 8c 00 d9     	sty	$d900                   ; 0xd900 <__heap_start+0x4e04>
     c31: 9c 01 d9     	stz	$d901                   ; 0xd901 <__heap_start+0x4e05>
     c34: a2 30        	ldx	#$30
     c36: 8e 02 d9     	stx	$d902                   ; 0xd902 <__heap_start+0x4e06>
     c39: a2 02        	ldx	#$2
     c3b: 8e 03 d9     	stx	$d903                   ; 0xd903 <__heap_start+0x4e07>
     c3e: 8c 83 8a     	sty	$8a83                   ; 0x8a83 <_spriteCtl+0x1>
     c41: 8c 08 d9     	sty	$d908                   ; 0xd908 <__heap_start+0x4e0c>
     c44: 9c 09 d9     	stz	$d909                   ; 0xd909 <__heap_start+0x4e0d>
     c47: a9 34        	lda	#$34
     c49: 8d 0a d9     	sta	$d90a                   ; 0xd90a <__heap_start+0x4e0e>
     c4c: 8e 0b d9     	stx	$d90b                   ; 0xd90b <__heap_start+0x4e0f>
     c4f: 8c 84 8a     	sty	$8a84                   ; 0x8a84 <_spriteCtl+0x2>
     c52: 8c 10 d9     	sty	$d910                   ; 0xd910 <__heap_start+0x4e14>
     c55: 9c 11 d9     	stz	$d911                   ; 0xd911 <__heap_start+0x4e15>
     c58: a9 38        	lda	#$38
     c5a: 8d 12 d9     	sta	$d912                   ; 0xd912 <__heap_start+0x4e16>
     c5d: 8e 13 d9     	stx	$d913                   ; 0xd913 <__heap_start+0x4e17>
     c60: 8c 85 8a     	sty	$8a85                   ; 0x8a85 <_spriteCtl+0x3>
     c63: 8c 18 d9     	sty	$d918                   ; 0xd918 <__heap_start+0x4e1c>
     c66: 9c 19 d9     	stz	$d919                   ; 0xd919 <__heap_start+0x4e1d>
     c69: a9 3c        	lda	#$3c
     c6b: 8d 1a d9     	sta	$d91a                   ; 0xd91a <__heap_start+0x4e1e>
     c6e: 8e 1b d9     	stx	$d91b                   ; 0xd91b <__heap_start+0x4e1f>
     c71: a9 40        	lda	#$40
     c73: 8d 04 d9     	sta	$d904                   ; 0xd904 <__heap_start+0x4e08>
     c76: 85 12        	sta	$12                     ; 0x12 <__rc2>
     c78: a9 01        	lda	#$1
     c7a: 8d 05 d9     	sta	$d905                   ; 0xd905 <__heap_start+0x4e09>
     c7d: 85 13        	sta	$13                     ; 0x13 <__rc3>
     c7f: a9 f0        	lda	#$f0
     c81: 8d 06 d9     	sta	$d906                   ; 0xd906 <__heap_start+0x4e0a>
     c84: 85 14        	sta	$14                     ; 0x14 <__rc4>
     c86: 9c 07 d9     	stz	$d907                   ; 0xd907 <__heap_start+0x4e0b>
     c89: a9 60        	lda	#$60
     c8b: 8d 0c d9     	sta	$d90c                   ; 0xd90c <__heap_start+0x4e10>
     c8e: a5 13        	lda	$13                     ; 0x13 <__rc3>
     c90: 8d 0d d9     	sta	$d90d                   ; 0xd90d <__heap_start+0x4e11>
     c93: a5 14        	lda	$14                     ; 0x14 <__rc4>
     c95: 8d 0e d9     	sta	$d90e                   ; 0xd90e <__heap_start+0x4e12>
     c98: 9c 0f d9     	stz	$d90f                   ; 0xd90f <__heap_start+0x4e13>
     c9b: a9 80        	lda	#$80
     c9d: 8d 14 d9     	sta	$d914                   ; 0xd914 <__heap_start+0x4e18>
     ca0: a5 13        	lda	$13                     ; 0x13 <__rc3>
     ca2: 8d 15 d9     	sta	$d915                   ; 0xd915 <__heap_start+0x4e19>
     ca5: a5 14        	lda	$14                     ; 0x14 <__rc4>
     ca7: 8d 16 d9     	sta	$d916                   ; 0xd916 <__heap_start+0x4e1a>
     caa: 9c 17 d9     	stz	$d917                   ; 0xd917 <__heap_start+0x4e1b>
     cad: a9 a0        	lda	#$a0
     caf: 8d 1c d9     	sta	$d91c                   ; 0xd91c <__heap_start+0x4e20>
     cb2: a5 13        	lda	$13                     ; 0x13 <__rc3>
     cb4: 8d 1d d9     	sta	$d91d                   ; 0xd91d <__heap_start+0x4e21>
     cb7: a5 14        	lda	$14                     ; 0x14 <__rc4>
     cb9: 8d 1e d9     	sta	$d91e                   ; 0xd91e <__heap_start+0x4e22>
     cbc: 9c 1f d9     	stz	$d91f                   ; 0xd91f <__heap_start+0x4e23>
     cbf: 8c 86 8a     	sty	$8a86                   ; 0x8a86 <_spriteCtl+0x4>
     cc2: 8c 20 d9     	sty	$d920                   ; 0xd920 <__heap_start+0x4e24>
     cc5: 9c 21 d9     	stz	$d921                   ; 0xd921 <__heap_start+0x4e25>
     cc8: a4 12        	ldy	$12                     ; 0x12 <__rc2>
     cca: 8c 22 d9     	sty	$d922                   ; 0xd922 <__heap_start+0x4e26>
     ccd: 8e 23 d9     	stx	$d923                   ; 0xd923 <__heap_start+0x4e27>
     cd0: a0 32        	ldy	#$32
     cd2: 8c 24 d9     	sty	$d924                   ; 0xd924 <__heap_start+0x4e28>
     cd5: 9c 25 d9     	stz	$d925                   ; 0xd925 <__heap_start+0x4e29>
     cd8: 8c 26 d9     	sty	$d926                   ; 0xd926 <__heap_start+0x4e2a>
     cdb: 9c 27 d9     	stz	$d927                   ; 0xd927 <__heap_start+0x4e2b>
     cde: a0 70        	ldy	#$70
     ce0: 8c 87 8a     	sty	$8a87                   ; 0x8a87 <_spriteCtl+0x5>
     ce3: 8c 28 d9     	sty	$d928                   ; 0xd928 <__heap_start+0x4e2c>
     ce6: 9c 29 d9     	stz	$d929                   ; 0xd929 <__heap_start+0x4e2d>
     ce9: a0 48        	ldy	#$48
     ceb: 8c 2a d9     	sty	$d92a                   ; 0xd92a <__heap_start+0x4e2e>
     cee: 8e 2b d9     	stx	$d92b                   ; 0xd92b <__heap_start+0x4e2f>
     cf1: a9 01        	lda	#$1
     cf3: 0d 82 8a     	ora	$8a82                   ; 0x8a82 <_spriteCtl>
     cf6: 8d 00 d9     	sta	$d900                   ; 0xd900 <__heap_start+0x4e04>
     cf9: a9 01        	lda	#$1
     cfb: 0d 83 8a     	ora	$8a83                   ; 0x8a83 <_spriteCtl+0x1>
     cfe: 8d 08 d9     	sta	$d908                   ; 0xd908 <__heap_start+0x4e0c>
     d01: a9 01        	lda	#$1
     d03: 0d 84 8a     	ora	$8a84                   ; 0x8a84 <_spriteCtl+0x2>
     d06: 8d 10 d9     	sta	$d910                   ; 0xd910 <__heap_start+0x4e14>
     d09: a9 01        	lda	#$1
     d0b: 0d 85 8a     	ora	$8a85                   ; 0x8a85 <_spriteCtl+0x3>
     d0e: 8d 18 d9     	sta	$d918                   ; 0xd918 <__heap_start+0x4e1c>
     d11: a9 01        	lda	#$1
     d13: 0d 86 8a     	ora	$8a86                   ; 0x8a86 <_spriteCtl+0x4>
     d16: 8d 20 d9     	sta	$d920                   ; 0xd920 <__heap_start+0x4e24>
     d19: ac 87 8a     	ldy	$8a87                   ; 0x8a87 <_spriteCtl+0x5>
     d1c: 8c 28 d9     	sty	$d928                   ; 0xd928 <__heap_start+0x4e2c>
     d1f: a9 01        	lda	#$1
     d21: 85 5e        	sta	$5e                     ; 0x5e <_active>
     d23: 9c 7e 8a     	stz	$8a7e                   ; 0x8a7e <_BITMAP_BASE.2>
     d26: a0 04        	ldy	#$4
     d28: 8c 7f 8a     	sty	$8a7f                   ; 0x8a7f <_BITMAP_BASE.2+0x1>
     d2b: 8d 80 8a     	sta	$8a80                   ; 0x8a80 <_BITMAP_BASE.2+0x2>
     d2e: 9c 81 8a     	stz	$8a81                   ; 0x8a81 <_BITMAP_BASE.2+0x3>
     d31: 9c 11 d1     	stz	$d111                   ; 0xd111 <__heap_start+0x4615>
     d34: 8c 12 d1     	sty	$d112                   ; 0xd112 <__heap_start+0x4616>
     d37: 8d 13 d1     	sta	$d113                   ; 0xd113 <__heap_start+0x4617>
     d3a: a5 5e        	lda	$5e                     ; 0x5e <_active>
     d3c: 29 01        	and	#$1
     d3e: d0 02        	bne	$d42 <f256main+0x342>
     d40: a2 00        	ldx	#$0
     d42: 74 5f        	stz	$5f,x                   ; 0x5f <_BITMAP_CLUT>
     d44: 48           	pha
     d45: a0 09        	ldy	#$9
     d47: b1 10        	lda	($10),y                 ; 0x10 <__rc0>
     d49: 85 12        	sta	$12                     ; 0x12 <__rc2>
     d4b: c8           	iny
     d4c: b1 10        	lda	($10),y                 ; 0x10 <__rc0>
     d4e: 85 13        	sta	$13                     ; 0x13 <__rc3>
     d50: 68           	pla
     d51: f0 0b        	beq	$d5e <f256main+0x35e>
     d53: a0 06        	ldy	#$6
     d55: b1 10        	lda	($10),y                 ; 0x10 <__rc0>
     d57: 85 12        	sta	$12                     ; 0x12 <__rc2>
     d59: c8           	iny
     d5a: b1 10        	lda	($10),y                 ; 0x10 <__rc0>
     d5c: 85 13        	sta	$13                     ; 0x13 <__rc3>
     d5e: b2 12        	lda	($12)                   ; 0x12 <__rc2>
     d60: 29 f9        	and	#$f9
     d62: 92 12        	sta	($12)                   ; 0x12 <__rc2>
     d64: 9c 00 d1     	stz	$d100                   ; 0xd100 <__heap_start+0x4604>
     d67: 9c 08 d1     	stz	$d108                   ; 0xd108 <__heap_start+0x460c>
     d6a: a9 01        	lda	#$1
     d6c: 05 61        	ora	$61                     ; 0x61 <_BITMAP_CLUT+0x2>
     d6e: 8d 10 d1     	sta	$d110                   ; 0xd110 <__heap_start+0x4614>
     d71: a2 c0        	ldx	#$c0
     d73: 8e b1 dd     	stx	$ddb1                   ; 0xddb1 <__heap_start+0x52b5>
     d76: 86 28        	stx	$28                     ; 0x28 <__rc24>
     d78: 9c b1 dd     	stz	$ddb1                   ; 0xddb1 <__heap_start+0x52b5>
     d7b: a2 b0        	ldx	#$b0
     d7d: 8e b1 dd     	stx	$ddb1                   ; 0xddb1 <__heap_start+0x52b5>
     d80: a0 79        	ldy	#$79
     d82: 8c b1 dd     	sty	$ddb1                   ; 0xddb1 <__heap_start+0x52b5>
     d85: 9c b1 dd     	stz	$ddb1                   ; 0xddb1 <__heap_start+0x52b5>
     d88: a2 c1        	ldx	#$c1
     d8a: 8e b1 dd     	stx	$ddb1                   ; 0xddb1 <__heap_start+0x52b5>
     d8d: 86 16        	stx	$16                     ; 0x16 <__rc6>
     d8f: 9c b1 dd     	stz	$ddb1                   ; 0xddb1 <__heap_start+0x52b5>
     d92: a2 b1        	ldx	#$b1
     d94: 8e b1 dd     	stx	$ddb1                   ; 0xddb1 <__heap_start+0x52b5>
     d97: 8c b1 dd     	sty	$ddb1                   ; 0xddb1 <__heap_start+0x52b5>
     d9a: 9c b1 dd     	stz	$ddb1                   ; 0xddb1 <__heap_start+0x52b5>
     d9d: a2 c2        	ldx	#$c2
     d9f: 8e b1 dd     	stx	$ddb1                   ; 0xddb1 <__heap_start+0x52b5>
     da2: 86 15        	stx	$15                     ; 0x15 <__rc5>
     da4: 9c b1 dd     	stz	$ddb1                   ; 0xddb1 <__heap_start+0x52b5>
     da7: a2 b2        	ldx	#$b2
     da9: 8e b1 dd     	stx	$ddb1                   ; 0xddb1 <__heap_start+0x52b5>
     dac: 8c b1 dd     	sty	$ddb1                   ; 0xddb1 <__heap_start+0x52b5>
     daf: 9c b1 dd     	stz	$ddb1                   ; 0xddb1 <__heap_start+0x52b5>
     db2: a2 c3        	ldx	#$c3
     db4: 8e b1 dd     	stx	$ddb1                   ; 0xddb1 <__heap_start+0x52b5>
     db7: 86 14        	stx	$14                     ; 0x14 <__rc4>
     db9: 9c b1 dd     	stz	$ddb1                   ; 0xddb1 <__heap_start+0x52b5>
     dbc: a2 b3        	ldx	#$b3
     dbe: 8e b1 dd     	stx	$ddb1                   ; 0xddb1 <__heap_start+0x52b5>
     dc1: 86 23        	stx	$23                     ; 0x23 <__rc19>
     dc3: 8c b1 dd     	sty	$ddb1                   ; 0xddb1 <__heap_start+0x52b5>
     dc6: 9c b1 dd     	stz	$ddb1                   ; 0xddb1 <__heap_start+0x52b5>
     dc9: a2 c4        	ldx	#$c4
     dcb: 8e b1 dd     	stx	$ddb1                   ; 0xddb1 <__heap_start+0x52b5>
     dce: 86 13        	stx	$13                     ; 0x13 <__rc3>
     dd0: 9c b1 dd     	stz	$ddb1                   ; 0xddb1 <__heap_start+0x52b5>
     dd3: a2 b4        	ldx	#$b4
     dd5: 8e b1 dd     	stx	$ddb1                   ; 0xddb1 <__heap_start+0x52b5>
     dd8: 86 22        	stx	$22                     ; 0x22 <__rc18>
     dda: 8c b1 dd     	sty	$ddb1                   ; 0xddb1 <__heap_start+0x52b5>
     ddd: 9c b1 dd     	stz	$ddb1                   ; 0xddb1 <__heap_start+0x52b5>
     de0: a2 c5        	ldx	#$c5
     de2: 8e b1 dd     	stx	$ddb1                   ; 0xddb1 <__heap_start+0x52b5>
     de5: 86 1e        	stx	$1e                     ; 0x1e <__rc14>
     de7: 9c b1 dd     	stz	$ddb1                   ; 0xddb1 <__heap_start+0x52b5>
     dea: a2 b5        	ldx	#$b5
     dec: 8e b1 dd     	stx	$ddb1                   ; 0xddb1 <__heap_start+0x52b5>
     def: 8c b1 dd     	sty	$ddb1                   ; 0xddb1 <__heap_start+0x52b5>
     df2: 9c b1 dd     	stz	$ddb1                   ; 0xddb1 <__heap_start+0x52b5>
     df5: a2 c6        	ldx	#$c6
     df7: 8e b1 dd     	stx	$ddb1                   ; 0xddb1 <__heap_start+0x52b5>
     dfa: 86 1d        	stx	$1d                     ; 0x1d <__rc13>
     dfc: 9c b1 dd     	stz	$ddb1                   ; 0xddb1 <__heap_start+0x52b5>
     dff: a2 b6        	ldx	#$b6
     e01: 8e b1 dd     	stx	$ddb1                   ; 0xddb1 <__heap_start+0x52b5>
     e04: 86 29        	stx	$29                     ; 0x29 <__rc25>
     e06: 8c b1 dd     	sty	$ddb1                   ; 0xddb1 <__heap_start+0x52b5>
     e09: 9c b1 dd     	stz	$ddb1                   ; 0xddb1 <__heap_start+0x52b5>
     e0c: a2 c7        	ldx	#$c7
     e0e: 8e b1 dd     	stx	$ddb1                   ; 0xddb1 <__heap_start+0x52b5>
     e11: 86 1f        	stx	$1f                     ; 0x1f <__rc15>
     e13: 9c b1 dd     	stz	$ddb1                   ; 0xddb1 <__heap_start+0x52b5>
     e16: a2 b7        	ldx	#$b7
     e18: 8e b1 dd     	stx	$ddb1                   ; 0xddb1 <__heap_start+0x52b5>
     e1b: 86 25        	stx	$25                     ; 0x25 <__rc21>
     e1d: 8c b1 dd     	sty	$ddb1                   ; 0xddb1 <__heap_start+0x52b5>
     e20: 9c b1 dd     	stz	$ddb1                   ; 0xddb1 <__heap_start+0x52b5>
     e23: a2 c8        	ldx	#$c8
     e25: 8e b1 dd     	stx	$ddb1                   ; 0xddb1 <__heap_start+0x52b5>
     e28: 86 27        	stx	$27                     ; 0x27 <__rc23>
     e2a: 9c b1 dd     	stz	$ddb1                   ; 0xddb1 <__heap_start+0x52b5>
     e2d: a2 b8        	ldx	#$b8
     e2f: 8e b1 dd     	stx	$ddb1                   ; 0xddb1 <__heap_start+0x52b5>
     e32: 86 24        	stx	$24                     ; 0x24 <__rc20>
     e34: 8c b1 dd     	sty	$ddb1                   ; 0xddb1 <__heap_start+0x52b5>
     e37: 9c b1 dd     	stz	$ddb1                   ; 0xddb1 <__heap_start+0x52b5>
     e3a: a2 c9        	ldx	#$c9
     e3c: 8e b1 dd     	stx	$ddb1                   ; 0xddb1 <__heap_start+0x52b5>
     e3f: 9c b1 dd     	stz	$ddb1                   ; 0xddb1 <__heap_start+0x52b5>
     e42: a2 b9        	ldx	#$b9
     e44: 8e b1 dd     	stx	$ddb1                   ; 0xddb1 <__heap_start+0x52b5>
     e47: 8c b1 dd     	sty	$ddb1                   ; 0xddb1 <__heap_start+0x52b5>
     e4a: 9c b1 dd     	stz	$ddb1                   ; 0xddb1 <__heap_start+0x52b5>
     e4d: a2 ca        	ldx	#$ca
     e4f: 8e b1 dd     	stx	$ddb1                   ; 0xddb1 <__heap_start+0x52b5>
     e52: 9c b1 dd     	stz	$ddb1                   ; 0xddb1 <__heap_start+0x52b5>
     e55: a2 ba        	ldx	#$ba
     e57: 8e b1 dd     	stx	$ddb1                   ; 0xddb1 <__heap_start+0x52b5>
     e5a: 8c b1 dd     	sty	$ddb1                   ; 0xddb1 <__heap_start+0x52b5>
     e5d: 9c b1 dd     	stz	$ddb1                   ; 0xddb1 <__heap_start+0x52b5>
     e60: a2 cb        	ldx	#$cb
     e62: 8e b1 dd     	stx	$ddb1                   ; 0xddb1 <__heap_start+0x52b5>
     e65: 9c b1 dd     	stz	$ddb1                   ; 0xddb1 <__heap_start+0x52b5>
     e68: a2 bb        	ldx	#$bb
     e6a: 8e b1 dd     	stx	$ddb1                   ; 0xddb1 <__heap_start+0x52b5>
     e6d: 8c b1 dd     	sty	$ddb1                   ; 0xddb1 <__heap_start+0x52b5>
     e70: 9c b1 dd     	stz	$ddb1                   ; 0xddb1 <__heap_start+0x52b5>
     e73: a2 cc        	ldx	#$cc
     e75: 8e b1 dd     	stx	$ddb1                   ; 0xddb1 <__heap_start+0x52b5>
     e78: 9c b1 dd     	stz	$ddb1                   ; 0xddb1 <__heap_start+0x52b5>
     e7b: a2 bc        	ldx	#$bc
     e7d: 8e b1 dd     	stx	$ddb1                   ; 0xddb1 <__heap_start+0x52b5>
     e80: 8c b1 dd     	sty	$ddb1                   ; 0xddb1 <__heap_start+0x52b5>
     e83: 9c b1 dd     	stz	$ddb1                   ; 0xddb1 <__heap_start+0x52b5>
     e86: a2 cd        	ldx	#$cd
     e88: 8e b1 dd     	stx	$ddb1                   ; 0xddb1 <__heap_start+0x52b5>
     e8b: 9c b1 dd     	stz	$ddb1                   ; 0xddb1 <__heap_start+0x52b5>
     e8e: a2 bd        	ldx	#$bd
     e90: 8e b1 dd     	stx	$ddb1                   ; 0xddb1 <__heap_start+0x52b5>
     e93: 8c b1 dd     	sty	$ddb1                   ; 0xddb1 <__heap_start+0x52b5>
     e96: 9c b1 dd     	stz	$ddb1                   ; 0xddb1 <__heap_start+0x52b5>
     e99: a2 ce        	ldx	#$ce
     e9b: 8e b1 dd     	stx	$ddb1                   ; 0xddb1 <__heap_start+0x52b5>
     e9e: 9c b1 dd     	stz	$ddb1                   ; 0xddb1 <__heap_start+0x52b5>
     ea1: a2 be        	ldx	#$be
     ea3: 8e b1 dd     	stx	$ddb1                   ; 0xddb1 <__heap_start+0x52b5>
     ea6: 8c b1 dd     	sty	$ddb1                   ; 0xddb1 <__heap_start+0x52b5>
     ea9: 9c b1 dd     	stz	$ddb1                   ; 0xddb1 <__heap_start+0x52b5>
     eac: a2 cf        	ldx	#$cf
     eae: 8e b1 dd     	stx	$ddb1                   ; 0xddb1 <__heap_start+0x52b5>
     eb1: 9c b1 dd     	stz	$ddb1                   ; 0xddb1 <__heap_start+0x52b5>
     eb4: a2 bf        	ldx	#$bf
     eb6: 8e b1 dd     	stx	$ddb1                   ; 0xddb1 <__heap_start+0x52b5>
     eb9: 8c b1 dd     	sty	$ddb1                   ; 0xddb1 <__heap_start+0x52b5>
     ebc: 9c b1 dd     	stz	$ddb1                   ; 0xddb1 <__heap_start+0x52b5>
     ebf: a2 ff        	ldx	#$ff
     ec1: 8e b1 dd     	stx	$ddb1                   ; 0xddb1 <__heap_start+0x52b5>
     ec4: ad 04 d4     	lda	$d404                   ; 0xd404 <__heap_start+0x4908>
     ec7: 29 fe        	and	#$fe
     ec9: 8d 04 d4     	sta	$d404                   ; 0xd404 <__heap_start+0x4908>
     ecc: ad 0b d4     	lda	$d40b                   ; 0xd40b <__heap_start+0x490f>
     ecf: 29 fe        	and	#$fe
     ed1: 8d 0b d4     	sta	$d40b                   ; 0xd40b <__heap_start+0x490f>
     ed4: ad 12 d4     	lda	$d412                   ; 0xd412 <__heap_start+0x4916>
     ed7: 29 fe        	and	#$fe
     ed9: 8d 12 d4     	sta	$d412                   ; 0xd412 <__heap_start+0x4916>
     edc: ad 04 d5     	lda	$d504                   ; 0xd504 <__heap_start+0x4a08>
     edf: 29 fe        	and	#$fe
     ee1: 8d 04 d5     	sta	$d504                   ; 0xd504 <__heap_start+0x4a08>
     ee4: ad 0b d5     	lda	$d50b                   ; 0xd50b <__heap_start+0x4a0f>
     ee7: 29 fe        	and	#$fe
     ee9: 8d 0b d5     	sta	$d50b                   ; 0xd50b <__heap_start+0x4a0f>
     eec: ad 12 d5     	lda	$d512                   ; 0xd512 <__heap_start+0x4a16>
     eef: 29 fe        	and	#$fe
     ef1: 8d 12 d5     	sta	$d512                   ; 0xd512 <__heap_start+0x4a16>
     ef4: a2 9f        	ldx	#$9f
     ef6: 8e 00 d6     	stx	$d600                   ; 0xd600 <__heap_start+0x4b04>
     ef9: 8e 10 d6     	stx	$d610                   ; 0xd610 <__heap_start+0x4b14>
     efc: a2 bf        	ldx	#$bf
     efe: 8e 00 d6     	stx	$d600                   ; 0xd600 <__heap_start+0x4b04>
     f01: 8e 10 d6     	stx	$d610                   ; 0xd610 <__heap_start+0x4b14>
     f04: a2 df        	ldx	#$df
     f06: 8e 00 d6     	stx	$d600                   ; 0xd600 <__heap_start+0x4b04>
     f09: 8e 10 d6     	stx	$d610                   ; 0xd610 <__heap_start+0x4b14>
     f0c: a2 ff        	ldx	#$ff
     f0e: 8e 00 d6     	stx	$d600                   ; 0xd600 <__heap_start+0x4b04>
     f11: 8e 10 d6     	stx	$d610                   ; 0xd610 <__heap_start+0x4b14>
     f14: 9c 00 d4     	stz	$d400                   ; 0xd400 <__heap_start+0x4904>
     f17: 9c 00 d5     	stz	$d500                   ; 0xd500 <__heap_start+0x4a04>
     f1a: 9c 01 d4     	stz	$d401                   ; 0xd401 <__heap_start+0x4905>
     f1d: 9c 01 d5     	stz	$d501                   ; 0xd501 <__heap_start+0x4a05>
     f20: 9c 02 d4     	stz	$d402                   ; 0xd402 <__heap_start+0x4906>
     f23: 9c 02 d5     	stz	$d502                   ; 0xd502 <__heap_start+0x4a06>
     f26: 9c 03 d4     	stz	$d403                   ; 0xd403 <__heap_start+0x4907>
     f29: 9c 03 d5     	stz	$d503                   ; 0xd503 <__heap_start+0x4a07>
     f2c: 9c 04 d4     	stz	$d404                   ; 0xd404 <__heap_start+0x4908>
     f2f: 9c 04 d5     	stz	$d504                   ; 0xd504 <__heap_start+0x4a08>
     f32: 9c 05 d4     	stz	$d405                   ; 0xd405 <__heap_start+0x4909>
     f35: 9c 05 d5     	stz	$d505                   ; 0xd505 <__heap_start+0x4a09>
     f38: 9c 06 d4     	stz	$d406                   ; 0xd406 <__heap_start+0x490a>
     f3b: 9c 06 d5     	stz	$d506                   ; 0xd506 <__heap_start+0x4a0a>
     f3e: 9c 07 d4     	stz	$d407                   ; 0xd407 <__heap_start+0x490b>
     f41: 9c 07 d5     	stz	$d507                   ; 0xd507 <__heap_start+0x4a0b>
     f44: 9c 08 d4     	stz	$d408                   ; 0xd408 <__heap_start+0x490c>
     f47: 9c 08 d5     	stz	$d508                   ; 0xd508 <__heap_start+0x4a0c>
     f4a: 9c 09 d4     	stz	$d409                   ; 0xd409 <__heap_start+0x490d>
     f4d: 9c 09 d5     	stz	$d509                   ; 0xd509 <__heap_start+0x4a0d>
     f50: 9c 0a d4     	stz	$d40a                   ; 0xd40a <__heap_start+0x490e>
     f53: 9c 0a d5     	stz	$d50a                   ; 0xd50a <__heap_start+0x4a0e>
     f56: 9c 0b d4     	stz	$d40b                   ; 0xd40b <__heap_start+0x490f>
     f59: 9c 0b d5     	stz	$d50b                   ; 0xd50b <__heap_start+0x4a0f>
     f5c: 9c 0c d4     	stz	$d40c                   ; 0xd40c <__heap_start+0x4910>
     f5f: 9c 0c d5     	stz	$d50c                   ; 0xd50c <__heap_start+0x4a10>
     f62: 9c 0d d4     	stz	$d40d                   ; 0xd40d <__heap_start+0x4911>
     f65: 9c 0d d5     	stz	$d50d                   ; 0xd50d <__heap_start+0x4a11>
     f68: 9c 0e d4     	stz	$d40e                   ; 0xd40e <__heap_start+0x4912>
     f6b: 9c 0e d5     	stz	$d50e                   ; 0xd50e <__heap_start+0x4a12>
     f6e: 9c 0f d4     	stz	$d40f                   ; 0xd40f <__heap_start+0x4913>
     f71: 9c 0f d5     	stz	$d50f                   ; 0xd50f <__heap_start+0x4a13>
     f74: 9c 10 d4     	stz	$d410                   ; 0xd410 <__heap_start+0x4914>
     f77: 9c 10 d5     	stz	$d510                   ; 0xd510 <__heap_start+0x4a14>
     f7a: 9c 11 d4     	stz	$d411                   ; 0xd411 <__heap_start+0x4915>
     f7d: 9c 11 d5     	stz	$d511                   ; 0xd511 <__heap_start+0x4a15>
     f80: 9c 12 d4     	stz	$d412                   ; 0xd412 <__heap_start+0x4916>
     f83: 9c 12 d5     	stz	$d512                   ; 0xd512 <__heap_start+0x4a16>
     f86: 9c 13 d4     	stz	$d413                   ; 0xd413 <__heap_start+0x4917>
     f89: 9c 13 d5     	stz	$d513                   ; 0xd513 <__heap_start+0x4a17>
     f8c: 9c 14 d4     	stz	$d414                   ; 0xd414 <__heap_start+0x4918>
     f8f: 9c 14 d5     	stz	$d514                   ; 0xd514 <__heap_start+0x4a18>
     f92: 9c 15 d4     	stz	$d415                   ; 0xd415 <__heap_start+0x4919>
     f95: 9c 15 d5     	stz	$d515                   ; 0xd515 <__heap_start+0x4a19>
     f98: 9c 16 d4     	stz	$d416                   ; 0xd416 <__heap_start+0x491a>
     f9b: 9c 16 d5     	stz	$d516                   ; 0xd516 <__heap_start+0x4a1a>
     f9e: 9c 17 d4     	stz	$d417                   ; 0xd417 <__heap_start+0x491b>
     fa1: 9c 17 d5     	stz	$d517                   ; 0xd517 <__heap_start+0x4a1b>
     fa4: 9c 18 d4     	stz	$d418                   ; 0xd418 <__heap_start+0x491c>
     fa7: 9c 18 d5     	stz	$d518                   ; 0xd518 <__heap_start+0x4a1c>
     faa: a2 44        	ldx	#$44
     fac: 8e 02 d4     	stx	$d402                   ; 0xd402 <__heap_start+0x4906>
     faf: 86 17        	stx	$17                     ; 0x17 <__rc7>
     fb1: 9c 03 d4     	stz	$d403                   ; 0xd403 <__heap_start+0x4907>
     fb4: a2 27        	ldx	#$27
     fb6: 8e 05 d4     	stx	$d405                   ; 0xd405 <__heap_start+0x4909>
     fb9: 86 12        	stx	$12                     ; 0x12 <__rc2>
     fbb: a9 5b        	lda	#$5b
     fbd: 8d 06 d4     	sta	$d406                   ; 0xd406 <__heap_start+0x490a>
     fc0: a0 10        	ldy	#$10
     fc2: 8c 04 d4     	sty	$d404                   ; 0xd404 <__heap_start+0x4908>
     fc5: a6 17        	ldx	$17                     ; 0x17 <__rc7>
     fc7: 8e 02 d5     	stx	$d502                   ; 0xd502 <__heap_start+0x4a06>
     fca: 9c 03 d5     	stz	$d503                   ; 0xd503 <__heap_start+0x4a07>
     fcd: a6 12        	ldx	$12                     ; 0x12 <__rc2>
     fcf: 8e 05 d5     	stx	$d505                   ; 0xd505 <__heap_start+0x4a09>
     fd2: 8d 06 d5     	sta	$d506                   ; 0xd506 <__heap_start+0x4a0a>
     fd5: 8c 04 d5     	sty	$d504                   ; 0xd504 <__heap_start+0x4a08>
     fd8: a6 17        	ldx	$17                     ; 0x17 <__rc7>
     fda: 8e 09 d4     	stx	$d409                   ; 0xd409 <__heap_start+0x490d>
     fdd: 9c 0a d4     	stz	$d40a                   ; 0xd40a <__heap_start+0x490e>
     fe0: a6 12        	ldx	$12                     ; 0x12 <__rc2>
     fe2: 8e 0c d4     	stx	$d40c                   ; 0xd40c <__heap_start+0x4910>
     fe5: 8d 0d d4     	sta	$d40d                   ; 0xd40d <__heap_start+0x4911>
     fe8: 85 12        	sta	$12                     ; 0x12 <__rc2>
     fea: 8c 0b d4     	sty	$d40b                   ; 0xd40b <__heap_start+0x490f>
     fed: a5 17        	lda	$17                     ; 0x17 <__rc7>
     fef: 8d 09 d5     	sta	$d509                   ; 0xd509 <__heap_start+0x4a0d>
     ff2: 9c 0a d5     	stz	$d50a                   ; 0xd50a <__heap_start+0x4a0e>
     ff5: 8e 0c d5     	stx	$d50c                   ; 0xd50c <__heap_start+0x4a10>
     ff8: a5 12        	lda	$12                     ; 0x12 <__rc2>
     ffa: 8d 0d d5     	sta	$d50d                   ; 0xd50d <__heap_start+0x4a11>
     ffd: 85 18        	sta	$18                     ; 0x18 <__rc8>
     fff: 8c 0b d5     	sty	$d50b                   ; 0xd50b <__heap_start+0x4a0f>
    1002: a5 17        	lda	$17                     ; 0x17 <__rc7>
    1004: 8d 10 d4     	sta	$d410                   ; 0xd410 <__heap_start+0x4914>
    1007: 9c 11 d4     	stz	$d411                   ; 0xd411 <__heap_start+0x4915>
    100a: 8e 13 d4     	stx	$d413                   ; 0xd413 <__heap_start+0x4917>
    100d: 86 12        	stx	$12                     ; 0x12 <__rc2>
    100f: a5 18        	lda	$18                     ; 0x18 <__rc8>
    1011: 8d 14 d4     	sta	$d414                   ; 0xd414 <__heap_start+0x4918>
    1014: 8c 12 d4     	sty	$d412                   ; 0xd412 <__heap_start+0x4916>
    1017: a6 17        	ldx	$17                     ; 0x17 <__rc7>
    1019: 8e 10 d5     	stx	$d510                   ; 0xd510 <__heap_start+0x4a14>
    101c: 86 2f        	stx	$2f                     ; 0x2f <__rc31>
    101e: 9c 11 d5     	stz	$d511                   ; 0xd511 <__heap_start+0x4a15>
    1021: a6 12        	ldx	$12                     ; 0x12 <__rc2>
    1023: 8e 13 d5     	stx	$d513                   ; 0xd513 <__heap_start+0x4a17>
    1026: 8d 14 d5     	sta	$d514                   ; 0xd514 <__heap_start+0x4a18>
    1029: 8c 12 d5     	sty	$d512                   ; 0xd512 <__heap_start+0x4a16>
    102c: 9c 14 d4     	stz	$d414                   ; 0xd414 <__heap_start+0x4918>
    102f: 9c 15 d4     	stz	$d415                   ; 0xd415 <__heap_start+0x4919>
    1032: 9c 17 d4     	stz	$d417                   ; 0xd417 <__heap_start+0x491b>
    1035: a2 0f        	ldx	#$f
    1037: 8e 18 d4     	stx	$d418                   ; 0xd418 <__heap_start+0x491c>
    103a: 9c 14 d5     	stz	$d514                   ; 0xd514 <__heap_start+0x4a18>
    103d: 9c 15 d5     	stz	$d515                   ; 0xd515 <__heap_start+0x4a19>
    1040: 9c 17 d5     	stz	$d517                   ; 0xd517 <__heap_start+0x4a1b>
    1043: 8e 18 d5     	stx	$d518                   ; 0xd518 <__heap_start+0x4a1c>
    1046: ad a1 d6     	lda	$d6a1                   ; 0xd6a1 <__heap_start+0x4ba5>
    1049: 29 f7        	and	#$f7
    104b: 8d a1 d6     	sta	$d6a1                   ; 0xd6a1 <__heap_start+0x4ba5>
    104e: ad a1 d6     	lda	$d6a1                   ; 0xd6a1 <__heap_start+0x4ba5>
    1051: 29 fb        	and	#$fb
    1053: 8d a1 d6     	sta	$d6a1                   ; 0xd6a1 <__heap_start+0x4ba5>
    1056: a2 01        	ldx	#$1
    1058: 8e 80 d5     	stx	$d580                   ; 0xd580 <__heap_start+0x4a84>
    105b: a0 01        	ldy	#$1
    105d: a2 20        	ldx	#$20
    105f: 8e 81 d5     	stx	$d581                   ; 0xd581 <__heap_start+0x4a85>
    1062: 86 19        	stx	$19                     ; 0x19 <__rc9>
    1064: a2 02        	ldx	#$2
    1066: 8e 80 d5     	stx	$d580                   ; 0xd580 <__heap_start+0x4a84>
    1069: 9c 81 d5     	stz	$d581                   ; 0xd581 <__heap_start+0x4a85>
    106c: e8           	inx
    106d: 8e 80 d5     	stx	$d580                   ; 0xd580 <__heap_start+0x4a84>
    1070: 9c 81 d5     	stz	$d581                   ; 0xd581 <__heap_start+0x4a85>
    1073: e8           	inx
    1074: 8e 82 d5     	stx	$d582                   ; 0xd582 <__heap_start+0x4a86>
    1077: 86 2a        	stx	$2a                     ; 0x2a <__rc26>
    1079: 9c 81 d5     	stz	$d581                   ; 0xd581 <__heap_start+0x4a85>
    107c: e8           	inx
    107d: 8e 82 d5     	stx	$d582                   ; 0xd582 <__heap_start+0x4a86>
    1080: 8c 81 d5     	sty	$d581                   ; 0xd581 <__heap_start+0x4a85>
    1083: 84 12        	sty	$12                     ; 0x12 <__rc2>
    1085: a2 08        	ldx	#$8
    1087: 8e 80 d5     	stx	$d580                   ; 0xd580 <__heap_start+0x4a84>
    108a: 9c 81 d5     	stz	$d581                   ; 0xd581 <__heap_start+0x4a85>
    108d: a5 28        	lda	$28                     ; 0x28 <__rc24>
    108f: 8d 80 d5     	sta	$d580                   ; 0xd580 <__heap_start+0x4a84>
    1092: a2 30        	ldx	#$30
    1094: 8e 81 d5     	stx	$d581                   ; 0xd581 <__heap_start+0x4a85>
    1097: a4 16        	ldy	$16                     ; 0x16 <__rc6>
    1099: 8c 80 d5     	sty	$d580                   ; 0xd580 <__heap_start+0x4a84>
    109c: 8e 81 d5     	stx	$d581                   ; 0xd581 <__heap_start+0x4a85>
    109f: a4 15        	ldy	$15                     ; 0x15 <__rc5>
    10a1: 8c 80 d5     	sty	$d580                   ; 0xd580 <__heap_start+0x4a84>
    10a4: 84 17        	sty	$17                     ; 0x17 <__rc7>
    10a6: 8e 81 d5     	stx	$d581                   ; 0xd581 <__heap_start+0x4a85>
    10a9: a4 14        	ldy	$14                     ; 0x14 <__rc4>
    10ab: 8c 80 d5     	sty	$d580                   ; 0xd580 <__heap_start+0x4a84>
    10ae: 84 28        	sty	$28                     ; 0x28 <__rc24>
    10b0: 8e 81 d5     	stx	$d581                   ; 0xd581 <__heap_start+0x4a85>
    10b3: a4 13        	ldy	$13                     ; 0x13 <__rc3>
    10b5: 8c 80 d5     	sty	$d580                   ; 0xd580 <__heap_start+0x4a84>
    10b8: 84 1b        	sty	$1b                     ; 0x1b <__rc11>
    10ba: 8e 81 d5     	stx	$d581                   ; 0xd581 <__heap_start+0x4a85>
    10bd: a4 1e        	ldy	$1e                     ; 0x1e <__rc14>
    10bf: 8c 80 d5     	sty	$d580                   ; 0xd580 <__heap_start+0x4a84>
    10c2: 8e 81 d5     	stx	$d581                   ; 0xd581 <__heap_start+0x4a85>
    10c5: a4 1d        	ldy	$1d                     ; 0x1d <__rc13>
    10c7: 8c 80 d5     	sty	$d580                   ; 0xd580 <__heap_start+0x4a84>
    10ca: 8e 81 d5     	stx	$d581                   ; 0xd581 <__heap_start+0x4a85>
    10cd: a4 1f        	ldy	$1f                     ; 0x1f <__rc15>
    10cf: 8c 80 d5     	sty	$d580                   ; 0xd580 <__heap_start+0x4a84>
    10d2: 8e 81 d5     	stx	$d581                   ; 0xd581 <__heap_start+0x4a85>
    10d5: a4 27        	ldy	$27                     ; 0x27 <__rc23>
    10d7: 8c 80 d5     	sty	$d580                   ; 0xd580 <__heap_start+0x4a84>
    10da: 8e 81 d5     	stx	$d581                   ; 0xd581 <__heap_start+0x4a85>
    10dd: 86 13        	stx	$13                     ; 0x13 <__rc3>
    10df: a2 b0        	ldx	#$b0
    10e1: 8e 80 d5     	stx	$d580                   ; 0xd580 <__heap_start+0x4a84>
    10e4: 9c 81 d5     	stz	$d581                   ; 0xd581 <__heap_start+0x4a85>
    10e7: e8           	inx
    10e8: 8e 80 d5     	stx	$d580                   ; 0xd580 <__heap_start+0x4a84>
    10eb: 9c 81 d5     	stz	$d581                   ; 0xd581 <__heap_start+0x4a85>
    10ee: e8           	inx
    10ef: 8e 80 d5     	stx	$d580                   ; 0xd580 <__heap_start+0x4a84>
    10f2: 9c 81 d5     	stz	$d581                   ; 0xd581 <__heap_start+0x4a85>
    10f5: a4 23        	ldy	$23                     ; 0x23 <__rc19>
    10f7: 8c 80 d5     	sty	$d580                   ; 0xd580 <__heap_start+0x4a84>
    10fa: 9c 81 d5     	stz	$d581                   ; 0xd581 <__heap_start+0x4a85>
    10fd: a4 22        	ldy	$22                     ; 0x22 <__rc18>
    10ff: 8c 80 d5     	sty	$d580                   ; 0xd580 <__heap_start+0x4a84>
    1102: 9c 81 d5     	stz	$d581                   ; 0xd581 <__heap_start+0x4a85>
    1105: a2 b5        	ldx	#$b5
    1107: 8e 80 d5     	stx	$d580                   ; 0xd580 <__heap_start+0x4a84>
    110a: 9c 81 d5     	stz	$d581                   ; 0xd581 <__heap_start+0x4a85>
    110d: a4 29        	ldy	$29                     ; 0x29 <__rc25>
    110f: 8c 80 d5     	sty	$d580                   ; 0xd580 <__heap_start+0x4a84>
    1112: 9c 81 d5     	stz	$d581                   ; 0xd581 <__heap_start+0x4a85>
    1115: a4 25        	ldy	$25                     ; 0x25 <__rc21>
    1117: 8c 80 d5     	sty	$d580                   ; 0xd580 <__heap_start+0x4a84>
    111a: 9c 81 d5     	stz	$d581                   ; 0xd581 <__heap_start+0x4a85>
    111d: a4 24        	ldy	$24                     ; 0x24 <__rc20>
    111f: 8c 80 d5     	sty	$d580                   ; 0xd580 <__heap_start+0x4a84>
    1122: 9c 81 d5     	stz	$d581                   ; 0xd581 <__heap_start+0x4a85>
    1125: a6 19        	ldx	$19                     ; 0x19 <__rc9>
    1127: 8e 80 d5     	stx	$d580                   ; 0xd580 <__heap_start+0x4a84>
    112a: 8d 81 d5     	sta	$d581                   ; 0xd581 <__heap_start+0x4a85>
    112d: a0 23        	ldy	#$23
    112f: 8c 80 d5     	sty	$d580                   ; 0xd580 <__heap_start+0x4a84>
    1132: a2 21        	ldx	#$21
    1134: 8e 81 d5     	stx	$d581                   ; 0xd581 <__heap_start+0x4a85>
    1137: 86 15        	stx	$15                     ; 0x15 <__rc5>
    1139: a2 40        	ldx	#$40
    113b: 8e 80 d5     	stx	$d580                   ; 0xd580 <__heap_start+0x4a84>
    113e: 8a           	txa
    113f: a2 15        	ldx	#$15
    1141: 8e 81 d5     	stx	$d581                   ; 0xd581 <__heap_start+0x4a85>
    1144: 86 2c        	stx	$2c                     ; 0x2c <__zp_data_size>
    1146: a0 43        	ldy	#$43
    1148: 8c 80 d5     	sty	$d580                   ; 0xd580 <__heap_start+0x4a84>
    114b: a6 12        	ldx	$12                     ; 0x12 <__rc2>
    114d: 8e 81 d5     	stx	$d581                   ; 0xd581 <__heap_start+0x4a85>
    1150: 86 2d        	stx	$2d                     ; 0x2d <__rc29>
    1152: a0 60        	ldy	#$60
    1154: 8c 80 d5     	sty	$d580                   ; 0xd580 <__heap_start+0x4a84>
    1157: a0 f2        	ldy	#$f2
    1159: 8c 81 d5     	sty	$d581                   ; 0xd581 <__heap_start+0x4a85>
    115c: a2 f2        	ldx	#$f2
    115e: 86 12        	stx	$12                     ; 0x12 <__rc2>
    1160: a0 63        	ldy	#$63
    1162: 8c 80 d5     	sty	$d580                   ; 0xd580 <__heap_start+0x4a84>
    1165: a2 f4        	ldx	#$f4
    1167: 8e 81 d5     	stx	$d581                   ; 0xd581 <__heap_start+0x4a85>
    116a: 86 19        	stx	$19                     ; 0x19 <__rc9>
    116c: a0 80        	ldy	#$80
    116e: 8c 80 d5     	sty	$d580                   ; 0xd580 <__heap_start+0x4a84>
    1171: 8d 81 d5     	sta	$d581                   ; 0xd581 <__heap_start+0x4a85>
    1174: 85 14        	sta	$14                     ; 0x14 <__rc4>
    1176: a0 83        	ldy	#$83
    1178: 8c 80 d5     	sty	$d580                   ; 0xd580 <__heap_start+0x4a84>
    117b: a2 25        	ldx	#$25
    117d: 8e 81 d5     	stx	$d581                   ; 0xd581 <__heap_start+0x4a85>
    1180: 86 1c        	stx	$1c                     ; 0x1c <__rc12>
    1182: a0 e0        	ldy	#$e0
    1184: 8c 80 d5     	sty	$d580                   ; 0xd580 <__heap_start+0x4a84>
    1187: a2 07        	ldx	#$7
    1189: 8e 81 d5     	stx	$d581                   ; 0xd581 <__heap_start+0x4a85>
    118c: 86 1a        	stx	$1a                     ; 0x1a <__rc10>
    118e: a0 e3        	ldy	#$e3
    1190: 8c 80 d5     	sty	$d580                   ; 0xd580 <__heap_start+0x4a84>
    1193: a5 2a        	lda	$2a                     ; 0x2a <__rc26>
    1195: 8d 81 d5     	sta	$d581                   ; 0xd581 <__heap_start+0x4a85>
    1198: a0 c0        	ldy	#$c0
    119a: 8c 80 d5     	sty	$d580                   ; 0xd580 <__heap_start+0x4a84>
    119d: a6 13        	ldx	$13                     ; 0x13 <__rc3>
    119f: 8e 81 d5     	stx	$d581                   ; 0xd581 <__heap_start+0x4a85>
    11a2: 86 18        	stx	$18                     ; 0x18 <__rc8>
    11a4: a6 15        	ldx	$15                     ; 0x15 <__rc5>
    11a6: 8e 80 d5     	stx	$d580                   ; 0xd580 <__heap_start+0x4a84>
    11a9: 8c 81 d5     	sty	$d581                   ; 0xd581 <__heap_start+0x4a85>
    11ac: 84 2e        	sty	$2e                     ; 0x2e <__rc30>
    11ae: a0 24        	ldy	#$24
    11b0: 8c 80 d5     	sty	$d580                   ; 0xd580 <__heap_start+0x4a84>
    11b3: 8e 81 d5     	stx	$d581                   ; 0xd581 <__heap_start+0x4a85>
    11b6: a0 41        	ldy	#$41
    11b8: 8c 80 d5     	sty	$d580                   ; 0xd580 <__heap_start+0x4a84>
    11bb: a6 2c        	ldx	$2c                     ; 0x2c <__zp_data_size>
    11bd: 8e 81 d5     	stx	$d581                   ; 0xd581 <__heap_start+0x4a85>
    11c0: a6 2f        	ldx	$2f                     ; 0x2f <__rc31>
    11c2: 8e 80 d5     	stx	$d580                   ; 0xd580 <__heap_start+0x4a84>
    11c5: a6 2d        	ldx	$2d                     ; 0x2d <__rc29>
    11c7: 8e 81 d5     	stx	$d581                   ; 0xd581 <__heap_start+0x4a85>
    11ca: 86 13        	stx	$13                     ; 0x13 <__rc3>
    11cc: a0 61        	ldy	#$61
    11ce: 8c 80 d5     	sty	$d580                   ; 0xd580 <__heap_start+0x4a84>
    11d1: a6 12        	ldx	$12                     ; 0x12 <__rc2>
    11d3: 8e 81 d5     	stx	$d581                   ; 0xd581 <__heap_start+0x4a85>
    11d6: a6 12        	ldx	$12                     ; 0x12 <__rc2>
    11d8: 86 2a        	stx	$2a                     ; 0x2a <__rc26>
    11da: a0 64        	ldy	#$64
    11dc: 8c 80 d5     	sty	$d580                   ; 0xd580 <__heap_start+0x4a84>
    11df: a6 19        	ldx	$19                     ; 0x19 <__rc9>
    11e1: 8e 81 d5     	stx	$d581                   ; 0xd581 <__heap_start+0x4a85>
    11e4: a6 19        	ldx	$19                     ; 0x19 <__rc9>
    11e6: 86 12        	stx	$12                     ; 0x12 <__rc2>
    11e8: a0 81        	ldy	#$81
    11ea: 8c 80 d5     	sty	$d580                   ; 0xd580 <__heap_start+0x4a84>
    11ed: a6 14        	ldx	$14                     ; 0x14 <__rc4>
    11ef: 8e 81 d5     	stx	$d581                   ; 0xd581 <__heap_start+0x4a85>
    11f2: a6 14        	ldx	$14                     ; 0x14 <__rc4>
    11f4: 86 2f        	stx	$2f                     ; 0x2f <__rc31>
    11f6: a0 84        	ldy	#$84
    11f8: 8c 80 d5     	sty	$d580                   ; 0xd580 <__heap_start+0x4a84>
    11fb: a6 1c        	ldx	$1c                     ; 0x1c <__rc12>
    11fd: 8e 81 d5     	stx	$d581                   ; 0xd581 <__heap_start+0x4a85>
    1200: a0 e1        	ldy	#$e1
    1202: 8c 80 d5     	sty	$d580                   ; 0xd580 <__heap_start+0x4a84>
    1205: a4 1a        	ldy	$1a                     ; 0x1a <__rc10>
    1207: 8c 81 d5     	sty	$d581                   ; 0xd581 <__heap_start+0x4a85>
    120a: a4 1a        	ldy	$1a                     ; 0x1a <__rc10>
    120c: 84 19        	sty	$19                     ; 0x19 <__rc9>
    120e: a0 e4        	ldy	#$e4
    1210: 8c 80 d5     	sty	$d580                   ; 0xd580 <__heap_start+0x4a84>
    1213: 8d 81 d5     	sta	$d581                   ; 0xd581 <__heap_start+0x4a85>
    1216: 85 14        	sta	$14                     ; 0x14 <__rc4>
    1218: a4 16        	ldy	$16                     ; 0x16 <__rc6>
    121a: 8c 80 d5     	sty	$d580                   ; 0xd580 <__heap_start+0x4a84>
    121d: 84 1c        	sty	$1c                     ; 0x1c <__rc12>
    121f: a4 18        	ldy	$18                     ; 0x18 <__rc8>
    1221: 8c 81 d5     	sty	$d581                   ; 0xd581 <__heap_start+0x4a85>
    1224: 84 16        	sty	$16                     ; 0x16 <__rc6>
    1226: a0 22        	ldy	#$22
    1228: 8c 80 d5     	sty	$d580                   ; 0xd580 <__heap_start+0x4a84>
    122b: a4 2e        	ldy	$2e                     ; 0x2e <__rc30>
    122d: 8c 81 d5     	sty	$d581                   ; 0xd581 <__heap_start+0x4a85>
    1230: 84 18        	sty	$18                     ; 0x18 <__rc8>
    1232: 8e 80 d5     	stx	$d580                   ; 0xd580 <__heap_start+0x4a84>
    1235: 86 1a        	stx	$1a                     ; 0x1a <__rc10>
    1237: a6 15        	ldx	$15                     ; 0x15 <__rc5>
    1239: 8e 81 d5     	stx	$d581                   ; 0xd581 <__heap_start+0x4a85>
    123c: a0 42        	ldy	#$42
    123e: 8c 80 d5     	sty	$d580                   ; 0xd580 <__heap_start+0x4a84>
    1241: a4 2c        	ldy	$2c                     ; 0x2c <__zp_data_size>
    1243: 8c 81 d5     	sty	$d581                   ; 0xd581 <__heap_start+0x4a85>
    1246: a0 45        	ldy	#$45
    1248: 8c 80 d5     	sty	$d580                   ; 0xd580 <__heap_start+0x4a84>
    124b: a5 13        	lda	$13                     ; 0x13 <__rc3>
    124d: 8d 81 d5     	sta	$d581                   ; 0xd581 <__heap_start+0x4a85>
    1250: a0 62        	ldy	#$62
    1252: 8c 80 d5     	sty	$d580                   ; 0xd580 <__heap_start+0x4a84>
    1255: a4 2a        	ldy	$2a                     ; 0x2a <__rc26>
    1257: 8c 81 d5     	sty	$d581                   ; 0xd581 <__heap_start+0x4a85>
    125a: a0 65        	ldy	#$65
    125c: 8c 80 d5     	sty	$d580                   ; 0xd580 <__heap_start+0x4a84>
    125f: a4 12        	ldy	$12                     ; 0x12 <__rc2>
    1261: 8c 81 d5     	sty	$d581                   ; 0xd581 <__heap_start+0x4a85>
    1264: a0 82        	ldy	#$82
    1266: 8c 80 d5     	sty	$d580                   ; 0xd580 <__heap_start+0x4a84>
    1269: a4 2f        	ldy	$2f                     ; 0x2f <__rc31>
    126b: 8c 81 d5     	sty	$d581                   ; 0xd581 <__heap_start+0x4a85>
    126e: a0 85        	ldy	#$85
    1270: 8c 80 d5     	sty	$d580                   ; 0xd580 <__heap_start+0x4a84>
    1273: a4 1a        	ldy	$1a                     ; 0x1a <__rc10>
    1275: 8c 81 d5     	sty	$d581                   ; 0xd581 <__heap_start+0x4a85>
    1278: 84 2d        	sty	$2d                     ; 0x2d <__rc29>
    127a: a0 e2        	ldy	#$e2
    127c: 8c 80 d5     	sty	$d580                   ; 0xd580 <__heap_start+0x4a84>
    127f: a4 19        	ldy	$19                     ; 0x19 <__rc9>
    1281: 8c 81 d5     	sty	$d581                   ; 0xd581 <__heap_start+0x4a85>
    1284: 84 15        	sty	$15                     ; 0x15 <__rc5>
    1286: a0 e5        	ldy	#$e5
    1288: 8c 80 d5     	sty	$d580                   ; 0xd580 <__heap_start+0x4a84>
    128b: a4 14        	ldy	$14                     ; 0x14 <__rc4>
    128d: 8c 81 d5     	sty	$d581                   ; 0xd581 <__heap_start+0x4a85>
    1290: 84 19        	sty	$19                     ; 0x19 <__rc9>
    1292: a4 17        	ldy	$17                     ; 0x17 <__rc7>
    1294: 8c 80 d5     	sty	$d580                   ; 0xd580 <__heap_start+0x4a84>
    1297: 84 1a        	sty	$1a                     ; 0x1a <__rc10>
    1299: a4 16        	ldy	$16                     ; 0x16 <__rc6>
    129b: 8c 81 d5     	sty	$d581                   ; 0xd581 <__heap_start+0x4a85>
    129e: a0 28        	ldy	#$28
    12a0: 8c 80 d5     	sty	$d580                   ; 0xd580 <__heap_start+0x4a84>
    12a3: a4 18        	ldy	$18                     ; 0x18 <__rc8>
    12a5: 8c 81 d5     	sty	$d581                   ; 0xd581 <__heap_start+0x4a85>
    12a8: 84 14        	sty	$14                     ; 0x14 <__rc4>
    12aa: a0 2b        	ldy	#$2b
    12ac: 8c 80 d5     	sty	$d580                   ; 0xd580 <__heap_start+0x4a84>
    12af: 8e 81 d5     	stx	$d581                   ; 0xd581 <__heap_start+0x4a85>
    12b2: 86 2e        	stx	$2e                     ; 0x2e <__rc30>
    12b4: a0 48        	ldy	#$48
    12b6: 8c 80 d5     	sty	$d580                   ; 0xd580 <__heap_start+0x4a84>
    12b9: a6 2c        	ldx	$2c                     ; 0x2c <__zp_data_size>
    12bb: 8e 81 d5     	stx	$d581                   ; 0xd581 <__heap_start+0x4a85>
    12be: 86 18        	stx	$18                     ; 0x18 <__rc8>
    12c0: a0 4b        	ldy	#$4b
    12c2: 8c 80 d5     	sty	$d580                   ; 0xd580 <__heap_start+0x4a84>
    12c5: 8d 81 d5     	sta	$d581                   ; 0xd581 <__heap_start+0x4a85>
    12c8: a0 68        	ldy	#$68
    12ca: 8c 80 d5     	sty	$d580                   ; 0xd580 <__heap_start+0x4a84>
    12cd: a6 2a        	ldx	$2a                     ; 0x2a <__rc26>
    12cf: 8e 81 d5     	stx	$d581                   ; 0xd581 <__heap_start+0x4a85>
    12d2: a0 6b        	ldy	#$6b
    12d4: 8c 80 d5     	sty	$d580                   ; 0xd580 <__heap_start+0x4a84>
    12d7: a6 12        	ldx	$12                     ; 0x12 <__rc2>
    12d9: 8e 81 d5     	stx	$d581                   ; 0xd581 <__heap_start+0x4a85>
    12dc: a0 88        	ldy	#$88
    12de: 8c 80 d5     	sty	$d580                   ; 0xd580 <__heap_start+0x4a84>
    12e1: a6 2f        	ldx	$2f                     ; 0x2f <__rc31>
    12e3: 8e 81 d5     	stx	$d581                   ; 0xd581 <__heap_start+0x4a85>
    12e6: a0 8b        	ldy	#$8b
    12e8: 8c 80 d5     	sty	$d580                   ; 0xd580 <__heap_start+0x4a84>
    12eb: a6 2d        	ldx	$2d                     ; 0x2d <__rc29>
    12ed: 8e 81 d5     	stx	$d581                   ; 0xd581 <__heap_start+0x4a85>
    12f0: a0 e8        	ldy	#$e8
    12f2: 8c 80 d5     	sty	$d580                   ; 0xd580 <__heap_start+0x4a84>
    12f5: a6 15        	ldx	$15                     ; 0x15 <__rc5>
    12f7: 8e 81 d5     	stx	$d581                   ; 0xd581 <__heap_start+0x4a85>
    12fa: a0 eb        	ldy	#$eb
    12fc: 8c 80 d5     	sty	$d580                   ; 0xd580 <__heap_start+0x4a84>
    12ff: a5 19        	lda	$19                     ; 0x19 <__rc9>
    1301: 8d 81 d5     	sta	$d581                   ; 0xd581 <__heap_start+0x4a85>
    1304: a6 28        	ldx	$28                     ; 0x28 <__rc24>
    1306: 8e 80 d5     	stx	$d580                   ; 0xd580 <__heap_start+0x4a84>
    1309: 86 19        	stx	$19                     ; 0x19 <__rc9>
    130b: a6 16        	ldx	$16                     ; 0x16 <__rc6>
    130d: 8e 81 d5     	stx	$d581                   ; 0xd581 <__heap_start+0x4a85>
    1310: a0 29        	ldy	#$29
    1312: 8c 80 d5     	sty	$d580                   ; 0xd580 <__heap_start+0x4a84>
    1315: a6 14        	ldx	$14                     ; 0x14 <__rc4>
    1317: 8e 81 d5     	stx	$d581                   ; 0xd581 <__heap_start+0x4a85>
    131a: 86 17        	stx	$17                     ; 0x17 <__rc7>
    131c: a0 2c        	ldy	#$2c
    131e: 8c 80 d5     	sty	$d580                   ; 0xd580 <__heap_start+0x4a84>
    1321: a6 2e        	ldx	$2e                     ; 0x2e <__rc30>
    1323: 8e 81 d5     	stx	$d581                   ; 0xd581 <__heap_start+0x4a85>
    1326: 86 2c        	stx	$2c                     ; 0x2c <__zp_data_size>
    1328: a0 49        	ldy	#$49
    132a: 8c 80 d5     	sty	$d580                   ; 0xd580 <__heap_start+0x4a84>
    132d: a6 18        	ldx	$18                     ; 0x18 <__rc8>
    132f: 8e 81 d5     	stx	$d581                   ; 0xd581 <__heap_start+0x4a85>
    1332: 86 2e        	stx	$2e                     ; 0x2e <__rc30>
    1334: a0 4c        	ldy	#$4c
    1336: 8c 80 d5     	sty	$d580                   ; 0xd580 <__heap_start+0x4a84>
    1339: a6 13        	ldx	$13                     ; 0x13 <__rc3>
    133b: 8e 81 d5     	stx	$d581                   ; 0xd581 <__heap_start+0x4a85>
    133e: 86 14        	stx	$14                     ; 0x14 <__rc4>
    1340: a0 69        	ldy	#$69
    1342: 8c 80 d5     	sty	$d580                   ; 0xd580 <__heap_start+0x4a84>
    1345: a6 2a        	ldx	$2a                     ; 0x2a <__rc26>
    1347: 8e 81 d5     	stx	$d581                   ; 0xd581 <__heap_start+0x4a85>
    134a: 86 28        	stx	$28                     ; 0x28 <__rc24>
    134c: a0 6c        	ldy	#$6c
    134e: 8c 80 d5     	sty	$d580                   ; 0xd580 <__heap_start+0x4a84>
    1351: a6 12        	ldx	$12                     ; 0x12 <__rc2>
    1353: 8e 81 d5     	stx	$d581                   ; 0xd581 <__heap_start+0x4a85>
    1356: 86 13        	stx	$13                     ; 0x13 <__rc3>
    1358: a0 89        	ldy	#$89
    135a: 8c 80 d5     	sty	$d580                   ; 0xd580 <__heap_start+0x4a84>
    135d: a6 2f        	ldx	$2f                     ; 0x2f <__rc31>
    135f: 8e 81 d5     	stx	$d581                   ; 0xd581 <__heap_start+0x4a85>
    1362: 86 2a        	stx	$2a                     ; 0x2a <__rc26>
    1364: a0 8c        	ldy	#$8c
    1366: 8c 80 d5     	sty	$d580                   ; 0xd580 <__heap_start+0x4a84>
    1369: a6 2d        	ldx	$2d                     ; 0x2d <__rc29>
    136b: 8e 81 d5     	stx	$d581                   ; 0xd581 <__heap_start+0x4a85>
    136e: a0 e9        	ldy	#$e9
    1370: 8c 80 d5     	sty	$d580                   ; 0xd580 <__heap_start+0x4a84>
    1373: a6 15        	ldx	$15                     ; 0x15 <__rc5>
    1375: 8e 81 d5     	stx	$d581                   ; 0xd581 <__heap_start+0x4a85>
    1378: 86 2f        	stx	$2f                     ; 0x2f <__rc31>
    137a: a0 ec        	ldy	#$ec
    137c: 8c 80 d5     	sty	$d580                   ; 0xd580 <__heap_start+0x4a84>
    137f: 8d 81 d5     	sta	$d581                   ; 0xd581 <__heap_start+0x4a85>
    1382: 85 12        	sta	$12                     ; 0x12 <__rc2>
    1384: a6 1b        	ldx	$1b                     ; 0x1b <__rc11>
    1386: 8e 80 d5     	stx	$d580                   ; 0xd580 <__heap_start+0x4a84>
    1389: 86 15        	stx	$15                     ; 0x15 <__rc5>
    138b: a6 16        	ldx	$16                     ; 0x16 <__rc6>
    138d: 8e 81 d5     	stx	$d581                   ; 0xd581 <__heap_start+0x4a85>
    1390: a0 2a        	ldy	#$2a
    1392: 8c 80 d5     	sty	$d580                   ; 0xd580 <__heap_start+0x4a84>
    1395: a4 17        	ldy	$17                     ; 0x17 <__rc7>
    1397: 8c 81 d5     	sty	$d581                   ; 0xd581 <__heap_start+0x4a85>
    139a: a0 2d        	ldy	#$2d
    139c: 8c 80 d5     	sty	$d580                   ; 0xd580 <__heap_start+0x4a84>
    139f: a4 2c        	ldy	$2c                     ; 0x2c <__zp_data_size>
    13a1: 8c 81 d5     	sty	$d581                   ; 0xd581 <__heap_start+0x4a85>
    13a4: a0 4a        	ldy	#$4a
    13a6: 8c 80 d5     	sty	$d580                   ; 0xd580 <__heap_start+0x4a84>
    13a9: a4 2e        	ldy	$2e                     ; 0x2e <__rc30>
    13ab: 8c 81 d5     	sty	$d581                   ; 0xd581 <__heap_start+0x4a85>
    13ae: a0 4d        	ldy	#$4d
    13b0: 8c 80 d5     	sty	$d580                   ; 0xd580 <__heap_start+0x4a84>
    13b3: a5 14        	lda	$14                     ; 0x14 <__rc4>
    13b5: 8d 81 d5     	sta	$d581                   ; 0xd581 <__heap_start+0x4a85>
    13b8: a0 6a        	ldy	#$6a
    13ba: 8c 80 d5     	sty	$d580                   ; 0xd580 <__heap_start+0x4a84>
    13bd: a4 28        	ldy	$28                     ; 0x28 <__rc24>
    13bf: 8c 81 d5     	sty	$d581                   ; 0xd581 <__heap_start+0x4a85>
    13c2: a0 6d        	ldy	#$6d
    13c4: 8c 80 d5     	sty	$d580                   ; 0xd580 <__heap_start+0x4a84>
    13c7: a4 13        	ldy	$13                     ; 0x13 <__rc3>
    13c9: 8c 81 d5     	sty	$d581                   ; 0xd581 <__heap_start+0x4a85>
    13cc: a4 13        	ldy	$13                     ; 0x13 <__rc3>
    13ce: 84 18        	sty	$18                     ; 0x18 <__rc8>
    13d0: a0 8a        	ldy	#$8a
    13d2: 8c 80 d5     	sty	$d580                   ; 0xd580 <__heap_start+0x4a84>
    13d5: a4 2a        	ldy	$2a                     ; 0x2a <__rc26>
    13d7: 8c 81 d5     	sty	$d581                   ; 0xd581 <__heap_start+0x4a85>
    13da: a0 8d        	ldy	#$8d
    13dc: 8c 80 d5     	sty	$d580                   ; 0xd580 <__heap_start+0x4a84>
    13df: a4 2d        	ldy	$2d                     ; 0x2d <__rc29>
    13e1: 8c 81 d5     	sty	$d581                   ; 0xd581 <__heap_start+0x4a85>
    13e4: a0 ea        	ldy	#$ea
    13e6: 8c 80 d5     	sty	$d580                   ; 0xd580 <__heap_start+0x4a84>
    13e9: a4 2f        	ldy	$2f                     ; 0x2f <__rc31>
    13eb: 8c 81 d5     	sty	$d581                   ; 0xd581 <__heap_start+0x4a85>
    13ee: a0 ed        	ldy	#$ed
    13f0: 8c 80 d5     	sty	$d580                   ; 0xd580 <__heap_start+0x4a84>
    13f3: a4 12        	ldy	$12                     ; 0x12 <__rc2>
    13f5: 8c 81 d5     	sty	$d581                   ; 0xd581 <__heap_start+0x4a85>
    13f8: a4 12        	ldy	$12                     ; 0x12 <__rc2>
    13fa: 84 16        	sty	$16                     ; 0x16 <__rc6>
    13fc: a4 1e        	ldy	$1e                     ; 0x1e <__rc14>
    13fe: 8c 80 d5     	sty	$d580                   ; 0xd580 <__heap_start+0x4a84>
    1401: 8e 81 d5     	stx	$d581                   ; 0xd581 <__heap_start+0x4a85>
    1404: 8e 80 d5     	stx	$d580                   ; 0xd580 <__heap_start+0x4a84>
    1407: 86 13        	stx	$13                     ; 0x13 <__rc3>
    1409: a6 17        	ldx	$17                     ; 0x17 <__rc7>
    140b: 8e 81 d5     	stx	$d581                   ; 0xd581 <__heap_start+0x4a85>
    140e: a0 33        	ldy	#$33
    1410: 8c 80 d5     	sty	$d580                   ; 0xd580 <__heap_start+0x4a84>
    1413: a6 2c        	ldx	$2c                     ; 0x2c <__zp_data_size>
    1415: 8e 81 d5     	stx	$d581                   ; 0xd581 <__heap_start+0x4a85>
    1418: a0 50        	ldy	#$50
    141a: 8c 80 d5     	sty	$d580                   ; 0xd580 <__heap_start+0x4a84>
    141d: a6 2e        	ldx	$2e                     ; 0x2e <__rc30>
    141f: 8e 81 d5     	stx	$d581                   ; 0xd581 <__heap_start+0x4a85>
    1422: 86 1b        	stx	$1b                     ; 0x1b <__rc11>
    1424: a0 53        	ldy	#$53
    1426: 8c 80 d5     	sty	$d580                   ; 0xd580 <__heap_start+0x4a84>
    1429: 8d 81 d5     	sta	$d581                   ; 0xd581 <__heap_start+0x4a85>
    142c: 85 12        	sta	$12                     ; 0x12 <__rc2>
    142e: a0 70        	ldy	#$70
    1430: 8c 80 d5     	sty	$d580                   ; 0xd580 <__heap_start+0x4a84>
    1433: a6 28        	ldx	$28                     ; 0x28 <__rc24>
    1435: 8e 81 d5     	stx	$d581                   ; 0xd581 <__heap_start+0x4a85>
    1438: 86 14        	stx	$14                     ; 0x14 <__rc4>
    143a: a0 73        	ldy	#$73
    143c: 8c 80 d5     	sty	$d580                   ; 0xd580 <__heap_start+0x4a84>
    143f: a6 18        	ldx	$18                     ; 0x18 <__rc8>
    1441: 8e 81 d5     	stx	$d581                   ; 0xd581 <__heap_start+0x4a85>
    1444: a0 90        	ldy	#$90
    1446: 8c 80 d5     	sty	$d580                   ; 0xd580 <__heap_start+0x4a84>
    1449: a4 2a        	ldy	$2a                     ; 0x2a <__rc26>
    144b: 8c 81 d5     	sty	$d581                   ; 0xd581 <__heap_start+0x4a85>
    144e: 84 18        	sty	$18                     ; 0x18 <__rc8>
    1450: a0 93        	ldy	#$93
    1452: 8c 80 d5     	sty	$d580                   ; 0xd580 <__heap_start+0x4a84>
    1455: a4 2d        	ldy	$2d                     ; 0x2d <__rc29>
    1457: 8c 81 d5     	sty	$d581                   ; 0xd581 <__heap_start+0x4a85>
    145a: 84 28        	sty	$28                     ; 0x28 <__rc24>
    145c: a0 f0        	ldy	#$f0
    145e: 8c 80 d5     	sty	$d580                   ; 0xd580 <__heap_start+0x4a84>
    1461: a4 2f        	ldy	$2f                     ; 0x2f <__rc31>
    1463: 8c 81 d5     	sty	$d581                   ; 0xd581 <__heap_start+0x4a85>
    1466: 84 2a        	sty	$2a                     ; 0x2a <__rc26>
    1468: a0 f3        	ldy	#$f3
    146a: 8c 80 d5     	sty	$d580                   ; 0xd580 <__heap_start+0x4a84>
    146d: a5 16        	lda	$16                     ; 0x16 <__rc6>
    146f: 8d 81 d5     	sta	$d581                   ; 0xd581 <__heap_start+0x4a85>
    1472: a4 1d        	ldy	$1d                     ; 0x1d <__rc13>
    1474: 8c 80 d5     	sty	$d580                   ; 0xd580 <__heap_start+0x4a84>
    1477: a4 13        	ldy	$13                     ; 0x13 <__rc3>
    1479: 8c 81 d5     	sty	$d581                   ; 0xd581 <__heap_start+0x4a85>
    147c: a0 31        	ldy	#$31
    147e: 8c 80 d5     	sty	$d580                   ; 0xd580 <__heap_start+0x4a84>
    1481: a4 17        	ldy	$17                     ; 0x17 <__rc7>
    1483: 8c 81 d5     	sty	$d581                   ; 0xd581 <__heap_start+0x4a85>
    1486: a0 34        	ldy	#$34
    1488: 8c 80 d5     	sty	$d580                   ; 0xd580 <__heap_start+0x4a84>
    148b: a4 2c        	ldy	$2c                     ; 0x2c <__zp_data_size>
    148d: 8c 81 d5     	sty	$d581                   ; 0xd581 <__heap_start+0x4a85>
    1490: a0 51        	ldy	#$51
    1492: 8c 80 d5     	sty	$d580                   ; 0xd580 <__heap_start+0x4a84>
    1495: a4 1b        	ldy	$1b                     ; 0x1b <__rc11>
    1497: 8c 81 d5     	sty	$d581                   ; 0xd581 <__heap_start+0x4a85>
    149a: a0 54        	ldy	#$54
    149c: 8c 80 d5     	sty	$d580                   ; 0xd580 <__heap_start+0x4a84>
    149f: a4 12        	ldy	$12                     ; 0x12 <__rc2>
    14a1: 8c 81 d5     	sty	$d581                   ; 0xd581 <__heap_start+0x4a85>
    14a4: a4 12        	ldy	$12                     ; 0x12 <__rc2>
    14a6: 84 2d        	sty	$2d                     ; 0x2d <__rc29>
    14a8: a0 71        	ldy	#$71
    14aa: 8c 80 d5     	sty	$d580                   ; 0xd580 <__heap_start+0x4a84>
    14ad: a4 14        	ldy	$14                     ; 0x14 <__rc4>
    14af: 8c 81 d5     	sty	$d581                   ; 0xd581 <__heap_start+0x4a85>
    14b2: 84 12        	sty	$12                     ; 0x12 <__rc2>
    14b4: a0 74        	ldy	#$74
    14b6: 8c 80 d5     	sty	$d580                   ; 0xd580 <__heap_start+0x4a84>
    14b9: 8e 81 d5     	stx	$d581                   ; 0xd581 <__heap_start+0x4a85>
    14bc: a0 91        	ldy	#$91
    14be: 8c 80 d5     	sty	$d580                   ; 0xd580 <__heap_start+0x4a84>
    14c1: a4 18        	ldy	$18                     ; 0x18 <__rc8>
    14c3: 8c 81 d5     	sty	$d581                   ; 0xd581 <__heap_start+0x4a85>
    14c6: a0 94        	ldy	#$94
    14c8: 8c 80 d5     	sty	$d580                   ; 0xd580 <__heap_start+0x4a84>
    14cb: a4 28        	ldy	$28                     ; 0x28 <__rc24>
    14cd: 8c 81 d5     	sty	$d581                   ; 0xd581 <__heap_start+0x4a85>
    14d0: a0 f1        	ldy	#$f1
    14d2: 8c 80 d5     	sty	$d580                   ; 0xd580 <__heap_start+0x4a84>
    14d5: a4 2a        	ldy	$2a                     ; 0x2a <__rc26>
    14d7: 8c 81 d5     	sty	$d581                   ; 0xd581 <__heap_start+0x4a85>
    14da: 8e 80 d5     	stx	$d580                   ; 0xd580 <__heap_start+0x4a84>
    14dd: 86 2e        	stx	$2e                     ; 0x2e <__rc30>
    14df: 8d 81 d5     	sta	$d581                   ; 0xd581 <__heap_start+0x4a85>
    14e2: 85 14        	sta	$14                     ; 0x14 <__rc4>
    14e4: a4 1f        	ldy	$1f                     ; 0x1f <__rc15>
    14e6: 8c 80 d5     	sty	$d580                   ; 0xd580 <__heap_start+0x4a84>
    14e9: 84 16        	sty	$16                     ; 0x16 <__rc6>
    14eb: a4 13        	ldy	$13                     ; 0x13 <__rc3>
    14ed: 8c 81 d5     	sty	$d581                   ; 0xd581 <__heap_start+0x4a85>
    14f0: a0 32        	ldy	#$32
    14f2: 8c 80 d5     	sty	$d580                   ; 0xd580 <__heap_start+0x4a84>
    14f5: a4 17        	ldy	$17                     ; 0x17 <__rc7>
    14f7: 8c 81 d5     	sty	$d581                   ; 0xd581 <__heap_start+0x4a85>
    14fa: a5 17        	lda	$17                     ; 0x17 <__rc7>
    14fc: a0 35        	ldy	#$35
    14fe: 8c 80 d5     	sty	$d580                   ; 0xd580 <__heap_start+0x4a84>
    1501: a6 2c        	ldx	$2c                     ; 0x2c <__zp_data_size>
    1503: 8e 81 d5     	stx	$d581                   ; 0xd581 <__heap_start+0x4a85>
    1506: a0 52        	ldy	#$52
    1508: 8c 80 d5     	sty	$d580                   ; 0xd580 <__heap_start+0x4a84>
    150b: a6 1b        	ldx	$1b                     ; 0x1b <__rc11>
    150d: 8e 81 d5     	stx	$d581                   ; 0xd581 <__heap_start+0x4a85>
    1510: a0 55        	ldy	#$55
    1512: 8c 80 d5     	sty	$d580                   ; 0xd580 <__heap_start+0x4a84>
    1515: a6 2d        	ldx	$2d                     ; 0x2d <__rc29>
    1517: 8e 81 d5     	stx	$d581                   ; 0xd581 <__heap_start+0x4a85>
    151a: a0 72        	ldy	#$72
    151c: 8c 80 d5     	sty	$d580                   ; 0xd580 <__heap_start+0x4a84>
    151f: a6 12        	ldx	$12                     ; 0x12 <__rc2>
    1521: 8e 81 d5     	stx	$d581                   ; 0xd581 <__heap_start+0x4a85>
    1524: a0 75        	ldy	#$75
    1526: 8c 80 d5     	sty	$d580                   ; 0xd580 <__heap_start+0x4a84>
    1529: a4 2e        	ldy	$2e                     ; 0x2e <__rc30>
    152b: 8c 81 d5     	sty	$d581                   ; 0xd581 <__heap_start+0x4a85>
    152e: a0 92        	ldy	#$92
    1530: 8c 80 d5     	sty	$d580                   ; 0xd580 <__heap_start+0x4a84>
    1533: a4 18        	ldy	$18                     ; 0x18 <__rc8>
    1535: 8c 81 d5     	sty	$d581                   ; 0xd581 <__heap_start+0x4a85>
    1538: a0 95        	ldy	#$95
    153a: 8c 80 d5     	sty	$d580                   ; 0xd580 <__heap_start+0x4a84>
    153d: a4 28        	ldy	$28                     ; 0x28 <__rc24>
    153f: 8c 81 d5     	sty	$d581                   ; 0xd581 <__heap_start+0x4a85>
    1542: 8e 80 d5     	stx	$d580                   ; 0xd580 <__heap_start+0x4a84>
    1545: a6 2a        	ldx	$2a                     ; 0x2a <__rc26>
    1547: 8e 81 d5     	stx	$d581                   ; 0xd581 <__heap_start+0x4a85>
    154a: a0 f5        	ldy	#$f5
    154c: 8c 80 d5     	sty	$d580                   ; 0xd580 <__heap_start+0x4a84>
    154f: a6 14        	ldx	$14                     ; 0x14 <__rc4>
    1551: 8e 81 d5     	stx	$d581                   ; 0xd581 <__heap_start+0x4a85>
    1554: a6 27        	ldx	$27                     ; 0x27 <__rc23>
    1556: 8e 80 d5     	stx	$d580                   ; 0xd580 <__heap_start+0x4a84>
    1559: 86 12        	stx	$12                     ; 0x12 <__rc2>
    155b: a6 13        	ldx	$13                     ; 0x13 <__rc3>
    155d: 8e 81 d5     	stx	$d581                   ; 0xd581 <__heap_start+0x4a85>
    1560: 8d a1 dd     	sta	$dda1                   ; 0xdda1 <__heap_start+0x52a5>
    1563: 9c a1 dd     	stz	$dda1                   ; 0xdda1 <__heap_start+0x52a5>
    1566: a2 b0        	ldx	#$b0
    1568: 8e a1 dd     	stx	$dda1                   ; 0xdda1 <__heap_start+0x52a5>
    156b: a9 79        	lda	#$79
    156d: 8d a1 dd     	sta	$dda1                   ; 0xdda1 <__heap_start+0x52a5>
    1570: 9c a1 dd     	stz	$dda1                   ; 0xdda1 <__heap_start+0x52a5>
    1573: a4 1c        	ldy	$1c                     ; 0x1c <__rc12>
    1575: 8c a1 dd     	sty	$dda1                   ; 0xdda1 <__heap_start+0x52a5>
    1578: 9c a1 dd     	stz	$dda1                   ; 0xdda1 <__heap_start+0x52a5>
    157b: a0 b1        	ldy	#$b1
    157d: 8c a1 dd     	sty	$dda1                   ; 0xdda1 <__heap_start+0x52a5>
    1580: 84 18        	sty	$18                     ; 0x18 <__rc8>
    1582: 8d a1 dd     	sta	$dda1                   ; 0xdda1 <__heap_start+0x52a5>
    1585: 9c a1 dd     	stz	$dda1                   ; 0xdda1 <__heap_start+0x52a5>
    1588: a4 1a        	ldy	$1a                     ; 0x1a <__rc10>
    158a: 8c a1 dd     	sty	$dda1                   ; 0xdda1 <__heap_start+0x52a5>
    158d: 9c a1 dd     	stz	$dda1                   ; 0xdda1 <__heap_start+0x52a5>
    1590: a0 b2        	ldy	#$b2
    1592: 8c a1 dd     	sty	$dda1                   ; 0xdda1 <__heap_start+0x52a5>
    1595: 84 1b        	sty	$1b                     ; 0x1b <__rc11>
    1597: 8d a1 dd     	sta	$dda1                   ; 0xdda1 <__heap_start+0x52a5>
    159a: 9c a1 dd     	stz	$dda1                   ; 0xdda1 <__heap_start+0x52a5>
    159d: a4 19        	ldy	$19                     ; 0x19 <__rc9>
    159f: 8c a1 dd     	sty	$dda1                   ; 0xdda1 <__heap_start+0x52a5>
    15a2: 9c a1 dd     	stz	$dda1                   ; 0xdda1 <__heap_start+0x52a5>
    15a5: a4 23        	ldy	$23                     ; 0x23 <__rc19>
    15a7: 8c a1 dd     	sty	$dda1                   ; 0xdda1 <__heap_start+0x52a5>
    15aa: 8d a1 dd     	sta	$dda1                   ; 0xdda1 <__heap_start+0x52a5>
    15ad: 9c a1 dd     	stz	$dda1                   ; 0xdda1 <__heap_start+0x52a5>
    15b0: a4 15        	ldy	$15                     ; 0x15 <__rc5>
    15b2: 8c a1 dd     	sty	$dda1                   ; 0xdda1 <__heap_start+0x52a5>
    15b5: 9c a1 dd     	stz	$dda1                   ; 0xdda1 <__heap_start+0x52a5>
    15b8: a4 22        	ldy	$22                     ; 0x22 <__rc18>
    15ba: 8c a1 dd     	sty	$dda1                   ; 0xdda1 <__heap_start+0x52a5>
    15bd: 8d a1 dd     	sta	$dda1                   ; 0xdda1 <__heap_start+0x52a5>
    15c0: 9c a1 dd     	stz	$dda1                   ; 0xdda1 <__heap_start+0x52a5>
    15c3: a4 1e        	ldy	$1e                     ; 0x1e <__rc14>
    15c5: 8c a1 dd     	sty	$dda1                   ; 0xdda1 <__heap_start+0x52a5>
    15c8: 9c a1 dd     	stz	$dda1                   ; 0xdda1 <__heap_start+0x52a5>
    15cb: a0 b5        	ldy	#$b5
    15cd: 8c a1 dd     	sty	$dda1                   ; 0xdda1 <__heap_start+0x52a5>
    15d0: 84 1a        	sty	$1a                     ; 0x1a <__rc10>
    15d2: 8d a1 dd     	sta	$dda1                   ; 0xdda1 <__heap_start+0x52a5>
    15d5: 9c a1 dd     	stz	$dda1                   ; 0xdda1 <__heap_start+0x52a5>
    15d8: a4 1d        	ldy	$1d                     ; 0x1d <__rc13>
    15da: 8c a1 dd     	sty	$dda1                   ; 0xdda1 <__heap_start+0x52a5>
    15dd: 9c a1 dd     	stz	$dda1                   ; 0xdda1 <__heap_start+0x52a5>
    15e0: a4 29        	ldy	$29                     ; 0x29 <__rc25>
    15e2: 8c a1 dd     	sty	$dda1                   ; 0xdda1 <__heap_start+0x52a5>
    15e5: 84 19        	sty	$19                     ; 0x19 <__rc9>
    15e7: 8d a1 dd     	sta	$dda1                   ; 0xdda1 <__heap_start+0x52a5>
    15ea: 9c a1 dd     	stz	$dda1                   ; 0xdda1 <__heap_start+0x52a5>
    15ed: a4 16        	ldy	$16                     ; 0x16 <__rc6>
    15ef: 8c a1 dd     	sty	$dda1                   ; 0xdda1 <__heap_start+0x52a5>
    15f2: 9c a1 dd     	stz	$dda1                   ; 0xdda1 <__heap_start+0x52a5>
    15f5: a4 25        	ldy	$25                     ; 0x25 <__rc21>
    15f7: 8c a1 dd     	sty	$dda1                   ; 0xdda1 <__heap_start+0x52a5>
    15fa: 84 1d        	sty	$1d                     ; 0x1d <__rc13>
    15fc: 8d a1 dd     	sta	$dda1                   ; 0xdda1 <__heap_start+0x52a5>
    15ff: 9c a1 dd     	stz	$dda1                   ; 0xdda1 <__heap_start+0x52a5>
    1602: a4 12        	ldy	$12                     ; 0x12 <__rc2>
    1604: 8c a1 dd     	sty	$dda1                   ; 0xdda1 <__heap_start+0x52a5>
    1607: 9c a1 dd     	stz	$dda1                   ; 0xdda1 <__heap_start+0x52a5>
    160a: a4 24        	ldy	$24                     ; 0x24 <__rc20>
    160c: 8c a1 dd     	sty	$dda1                   ; 0xdda1 <__heap_start+0x52a5>
    160f: 84 1c        	sty	$1c                     ; 0x1c <__rc12>
    1611: 8d a1 dd     	sta	$dda1                   ; 0xdda1 <__heap_start+0x52a5>
    1614: 9c a1 dd     	stz	$dda1                   ; 0xdda1 <__heap_start+0x52a5>
    1617: a0 c9        	ldy	#$c9
    1619: 8c a1 dd     	sty	$dda1                   ; 0xdda1 <__heap_start+0x52a5>
    161c: 9c a1 dd     	stz	$dda1                   ; 0xdda1 <__heap_start+0x52a5>
    161f: a0 b9        	ldy	#$b9
    1621: 84 12        	sty	$12                     ; 0x12 <__rc2>
    1623: 8c a1 dd     	sty	$dda1                   ; 0xdda1 <__heap_start+0x52a5>
    1626: 8d a1 dd     	sta	$dda1                   ; 0xdda1 <__heap_start+0x52a5>
    1629: 9c a1 dd     	stz	$dda1                   ; 0xdda1 <__heap_start+0x52a5>
    162c: a0 ca        	ldy	#$ca
    162e: 8c a1 dd     	sty	$dda1                   ; 0xdda1 <__heap_start+0x52a5>
    1631: 9c a1 dd     	stz	$dda1                   ; 0xdda1 <__heap_start+0x52a5>
    1634: a0 ba        	ldy	#$ba
    1636: 84 13        	sty	$13                     ; 0x13 <__rc3>
    1638: 8c a1 dd     	sty	$dda1                   ; 0xdda1 <__heap_start+0x52a5>
    163b: 8d a1 dd     	sta	$dda1                   ; 0xdda1 <__heap_start+0x52a5>
    163e: 9c a1 dd     	stz	$dda1                   ; 0xdda1 <__heap_start+0x52a5>
    1641: a0 cb        	ldy	#$cb
    1643: 8c a1 dd     	sty	$dda1                   ; 0xdda1 <__heap_start+0x52a5>
    1646: 9c a1 dd     	stz	$dda1                   ; 0xdda1 <__heap_start+0x52a5>
    1649: a0 bb        	ldy	#$bb
    164b: 84 14        	sty	$14                     ; 0x14 <__rc4>
    164d: 8c a1 dd     	sty	$dda1                   ; 0xdda1 <__heap_start+0x52a5>
    1650: 8d a1 dd     	sta	$dda1                   ; 0xdda1 <__heap_start+0x52a5>
    1653: 9c a1 dd     	stz	$dda1                   ; 0xdda1 <__heap_start+0x52a5>
    1656: a0 cc        	ldy	#$cc
    1658: 8c a1 dd     	sty	$dda1                   ; 0xdda1 <__heap_start+0x52a5>
    165b: 9c a1 dd     	stz	$dda1                   ; 0xdda1 <__heap_start+0x52a5>
    165e: a0 bc        	ldy	#$bc
    1660: 84 15        	sty	$15                     ; 0x15 <__rc5>
    1662: 8c a1 dd     	sty	$dda1                   ; 0xdda1 <__heap_start+0x52a5>
    1665: 8d a1 dd     	sta	$dda1                   ; 0xdda1 <__heap_start+0x52a5>
    1668: 9c a1 dd     	stz	$dda1                   ; 0xdda1 <__heap_start+0x52a5>
    166b: a0 cd        	ldy	#$cd
    166d: 8c a1 dd     	sty	$dda1                   ; 0xdda1 <__heap_start+0x52a5>
    1670: 9c a1 dd     	stz	$dda1                   ; 0xdda1 <__heap_start+0x52a5>
    1673: a0 bd        	ldy	#$bd
    1675: 84 16        	sty	$16                     ; 0x16 <__rc6>
    1677: 8c a1 dd     	sty	$dda1                   ; 0xdda1 <__heap_start+0x52a5>
    167a: 8d a1 dd     	sta	$dda1                   ; 0xdda1 <__heap_start+0x52a5>
    167d: 9c a1 dd     	stz	$dda1                   ; 0xdda1 <__heap_start+0x52a5>
    1680: a0 ce        	ldy	#$ce
    1682: 8c a1 dd     	sty	$dda1                   ; 0xdda1 <__heap_start+0x52a5>
    1685: 9c a1 dd     	stz	$dda1                   ; 0xdda1 <__heap_start+0x52a5>
    1688: a0 be        	ldy	#$be
    168a: 84 17        	sty	$17                     ; 0x17 <__rc7>
    168c: 8c a1 dd     	sty	$dda1                   ; 0xdda1 <__heap_start+0x52a5>
    168f: 8d a1 dd     	sta	$dda1                   ; 0xdda1 <__heap_start+0x52a5>
    1692: 9c a1 dd     	stz	$dda1                   ; 0xdda1 <__heap_start+0x52a5>
    1695: a0 cf        	ldy	#$cf
    1697: 8c a1 dd     	sty	$dda1                   ; 0xdda1 <__heap_start+0x52a5>
    169a: 9c a1 dd     	stz	$dda1                   ; 0xdda1 <__heap_start+0x52a5>
    169d: a0 bf        	ldy	#$bf
    169f: 8c a1 dd     	sty	$dda1                   ; 0xdda1 <__heap_start+0x52a5>
    16a2: 8d a1 dd     	sta	$dda1                   ; 0xdda1 <__heap_start+0x52a5>
    16a5: 9c a1 dd     	stz	$dda1                   ; 0xdda1 <__heap_start+0x52a5>
    16a8: a9 ff        	lda	#$ff
    16aa: 8d a1 dd     	sta	$dda1                   ; 0xdda1 <__heap_start+0x52a5>
    16ad: 8d a1 dd     	sta	$dda1                   ; 0xdda1 <__heap_start+0x52a5>
    16b0: 8e a1 dd     	stx	$dda1                   ; 0xdda1 <__heap_start+0x52a5>
    16b3: a2 7b        	ldx	#$7b
    16b5: 8e a1 dd     	stx	$dda1                   ; 0xdda1 <__heap_start+0x52a5>
    16b8: 9c a1 dd     	stz	$dda1                   ; 0xdda1 <__heap_start+0x52a5>
    16bb: a5 18        	lda	$18                     ; 0x18 <__rc8>
    16bd: 8d a1 dd     	sta	$dda1                   ; 0xdda1 <__heap_start+0x52a5>
    16c0: 8e a1 dd     	stx	$dda1                   ; 0xdda1 <__heap_start+0x52a5>
    16c3: 9c a1 dd     	stz	$dda1                   ; 0xdda1 <__heap_start+0x52a5>
    16c6: a5 1b        	lda	$1b                     ; 0x1b <__rc11>
    16c8: 8d a1 dd     	sta	$dda1                   ; 0xdda1 <__heap_start+0x52a5>
    16cb: 8e a1 dd     	stx	$dda1                   ; 0xdda1 <__heap_start+0x52a5>
    16ce: 9c a1 dd     	stz	$dda1                   ; 0xdda1 <__heap_start+0x52a5>
    16d1: a5 23        	lda	$23                     ; 0x23 <__rc19>
    16d3: 8d a1 dd     	sta	$dda1                   ; 0xdda1 <__heap_start+0x52a5>
    16d6: 8e a1 dd     	stx	$dda1                   ; 0xdda1 <__heap_start+0x52a5>
    16d9: 9c a1 dd     	stz	$dda1                   ; 0xdda1 <__heap_start+0x52a5>
    16dc: a5 22        	lda	$22                     ; 0x22 <__rc18>
    16de: 8d a1 dd     	sta	$dda1                   ; 0xdda1 <__heap_start+0x52a5>
    16e1: 8e a1 dd     	stx	$dda1                   ; 0xdda1 <__heap_start+0x52a5>
    16e4: 9c a1 dd     	stz	$dda1                   ; 0xdda1 <__heap_start+0x52a5>
    16e7: a5 1a        	lda	$1a                     ; 0x1a <__rc10>
    16e9: 8d a1 dd     	sta	$dda1                   ; 0xdda1 <__heap_start+0x52a5>
    16ec: 8e a1 dd     	stx	$dda1                   ; 0xdda1 <__heap_start+0x52a5>
    16ef: 9c a1 dd     	stz	$dda1                   ; 0xdda1 <__heap_start+0x52a5>
    16f2: a5 19        	lda	$19                     ; 0x19 <__rc9>
    16f4: 8d a1 dd     	sta	$dda1                   ; 0xdda1 <__heap_start+0x52a5>
    16f7: 8e a1 dd     	stx	$dda1                   ; 0xdda1 <__heap_start+0x52a5>
    16fa: 9c a1 dd     	stz	$dda1                   ; 0xdda1 <__heap_start+0x52a5>
    16fd: a5 1d        	lda	$1d                     ; 0x1d <__rc13>
    16ff: 8d a1 dd     	sta	$dda1                   ; 0xdda1 <__heap_start+0x52a5>
    1702: 8e a1 dd     	stx	$dda1                   ; 0xdda1 <__heap_start+0x52a5>
    1705: 9c a1 dd     	stz	$dda1                   ; 0xdda1 <__heap_start+0x52a5>
    1708: a5 1c        	lda	$1c                     ; 0x1c <__rc12>
    170a: 8d a1 dd     	sta	$dda1                   ; 0xdda1 <__heap_start+0x52a5>
    170d: 8e a1 dd     	stx	$dda1                   ; 0xdda1 <__heap_start+0x52a5>
    1710: 9c a1 dd     	stz	$dda1                   ; 0xdda1 <__heap_start+0x52a5>
    1713: a5 12        	lda	$12                     ; 0x12 <__rc2>
    1715: 8d a1 dd     	sta	$dda1                   ; 0xdda1 <__heap_start+0x52a5>
    1718: 8e a1 dd     	stx	$dda1                   ; 0xdda1 <__heap_start+0x52a5>
    171b: 9c a1 dd     	stz	$dda1                   ; 0xdda1 <__heap_start+0x52a5>
    171e: a5 13        	lda	$13                     ; 0x13 <__rc3>
    1720: 8d a1 dd     	sta	$dda1                   ; 0xdda1 <__heap_start+0x52a5>
    1723: 8e a1 dd     	stx	$dda1                   ; 0xdda1 <__heap_start+0x52a5>
    1726: 9c a1 dd     	stz	$dda1                   ; 0xdda1 <__heap_start+0x52a5>
    1729: a5 14        	lda	$14                     ; 0x14 <__rc4>
    172b: 8d a1 dd     	sta	$dda1                   ; 0xdda1 <__heap_start+0x52a5>
    172e: 8e a1 dd     	stx	$dda1                   ; 0xdda1 <__heap_start+0x52a5>
    1731: 9c a1 dd     	stz	$dda1                   ; 0xdda1 <__heap_start+0x52a5>
    1734: a5 15        	lda	$15                     ; 0x15 <__rc5>
    1736: 8d a1 dd     	sta	$dda1                   ; 0xdda1 <__heap_start+0x52a5>
    1739: 8e a1 dd     	stx	$dda1                   ; 0xdda1 <__heap_start+0x52a5>
    173c: 9c a1 dd     	stz	$dda1                   ; 0xdda1 <__heap_start+0x52a5>
    173f: a5 16        	lda	$16                     ; 0x16 <__rc6>
    1741: 8d a1 dd     	sta	$dda1                   ; 0xdda1 <__heap_start+0x52a5>
    1744: 8e a1 dd     	stx	$dda1                   ; 0xdda1 <__heap_start+0x52a5>
    1747: 9c a1 dd     	stz	$dda1                   ; 0xdda1 <__heap_start+0x52a5>
    174a: a5 17        	lda	$17                     ; 0x17 <__rc7>
    174c: 8d a1 dd     	sta	$dda1                   ; 0xdda1 <__heap_start+0x52a5>
    174f: 8e a1 dd     	stx	$dda1                   ; 0xdda1 <__heap_start+0x52a5>
    1752: 9c a1 dd     	stz	$dda1                   ; 0xdda1 <__heap_start+0x52a5>
    1755: 8c a1 dd     	sty	$dda1                   ; 0xdda1 <__heap_start+0x52a5>
    1758: 8e a1 dd     	stx	$dda1                   ; 0xdda1 <__heap_start+0x52a5>
    175b: 9c a1 dd     	stz	$dda1                   ; 0xdda1 <__heap_start+0x52a5>
    175e: ad c2 8a     	lda	$8ac2                   ; 0x8ac2 <myRecord.0>
    1761: ac c3 8a     	ldy	$8ac3                   ; 0x8ac3 <myRecord.0+0x1>
    1764: a2 00        	ldx	#$0
    1766: 86 12        	stx	$12                     ; 0x12 <__rc2>
    1768: a2 00        	ldx	#$0
    176a: 86 13        	stx	$13                     ; 0x13 <__rc3>
    176c: c4 13        	cpy	$13                     ; 0x13 <__rc3>
    176e: d0 17        	bne	$1787 <f256main+0xd87>
    1770: c5 12        	cmp	$12                     ; 0x12 <__rc2>
    1772: d0 13        	bne	$1787 <f256main+0xd87>
    1774: a6 26        	ldx	$26                     ; 0x26 <__rc22>
    1776: 86 27        	stx	$27                     ; 0x27 <__rc23>
    1778: a6 2b        	ldx	$2b                     ; 0x2b <__rc27>
    177a: 86 28        	stx	$28                     ; 0x28 <__rc24>
    177c: a6 8d        	ldx	$8d                     ; 0x8d <_ZN12_GLOBAL__N_19free_listE>
    177e: a4 8e        	ldy	$8e                     ; 0x8e <_ZN12_GLOBAL__N_19free_listE+0x1>
    1780: 86 12        	stx	$12                     ; 0x12 <__rc2>
    1782: 84 13        	sty	$13                     ; 0x13 <__rc3>
    1784: 4c bb 1b     	jmp	$1bbb <f256main+0x11bb>
    1787: 85 18        	sta	$18                     ; 0x18 <__rc8>
    1789: 18           	clc
    178a: 69 fe        	adc	#$fe
    178c: aa           	tax
    178d: 84 1b        	sty	$1b                     ; 0x1b <__rc11>
    178f: 98           	tya
    1790: 69 ff        	adc	#$ff
    1792: 85 16        	sta	$16                     ; 0x16 <__rc6>
    1794: 86 12        	stx	$12                     ; 0x12 <__rc2>
    1796: 85 13        	sta	$13                     ; 0x13 <__rc3>
    1798: b2 12        	lda	($12)                   ; 0x12 <__rc2>
    179a: 85 1c        	sta	$1c                     ; 0x1c <__rc12>
    179c: a0 01        	ldy	#$1
    179e: b1 12        	lda	($12),y                 ; 0x12 <__rc2>
    17a0: 85 14        	sta	$14                     ; 0x14 <__rc4>
    17a2: a9 fe        	lda	#$fe
    17a4: 32 12        	and	($12)                   ; 0x12 <__rc2>
    17a6: 85 15        	sta	$15                     ; 0x15 <__rc5>
    17a8: 86 19        	stx	$19                     ; 0x19 <__rc9>
    17aa: 8a           	txa
    17ab: 18           	clc
    17ac: 65 15        	adc	$15                     ; 0x15 <__rc5>
    17ae: aa           	tax
    17af: a5 16        	lda	$16                     ; 0x16 <__rc6>
    17b1: 85 1a        	sta	$1a                     ; 0x1a <__rc10>
    17b3: 65 14        	adc	$14                     ; 0x14 <__rc4>
    17b5: 5a           	phy
    17b6: a4 26        	ldy	$26                     ; 0x26 <__rc22>
    17b8: 84 27        	sty	$27                     ; 0x27 <__rc23>
    17ba: a4 2b        	ldy	$2b                     ; 0x2b <__rc27>
    17bc: 84 28        	sty	$28                     ; 0x28 <__rc24>
    17be: 7a           	ply
    17bf: c5 2b        	cmp	$2b                     ; 0x2b <__rc27>
    17c1: d0 15        	bne	$17d8 <f256main+0xdd8>
    17c3: e4 27        	cpx	$27                     ; 0x27 <__rc23>
    17c5: d0 11        	bne	$17d8 <f256main+0xdd8>
    17c7: a2 00        	ldx	#$0
    17c9: 86 16        	stx	$16                     ; 0x16 <__rc6>
    17cb: a2 00        	ldx	#$0
    17cd: 86 17        	stx	$17                     ; 0x17 <__rc7>
    17cf: a5 1c        	lda	$1c                     ; 0x1c <__rc12>
    17d1: 29 01        	and	#$1
    17d3: d0 10        	bne	$17e5 <f256main+0xde5>
    17d5: 4c 19 19     	jmp	$1919 <f256main+0xf19>
    17d8: 86 16        	stx	$16                     ; 0x16 <__rc6>
    17da: 85 17        	sta	$17                     ; 0x17 <__rc7>
    17dc: a5 1c        	lda	$1c                     ; 0x1c <__rc12>
    17de: 29 01        	and	#$1
    17e0: d0 03        	bne	$17e5 <f256main+0xde5>
    17e2: 4c 19 19     	jmp	$1919 <f256main+0xf19>
    17e5: 18           	clc
    17e6: a5 18        	lda	$18                     ; 0x18 <__rc8>
    17e8: 69 fc        	adc	#$fc
    17ea: 85 12        	sta	$12                     ; 0x12 <__rc2>
    17ec: a5 1b        	lda	$1b                     ; 0x1b <__rc11>
    17ee: 69 ff        	adc	#$ff
    17f0: 85 13        	sta	$13                     ; 0x13 <__rc3>
    17f2: a9 00        	lda	#$0
    17f4: 38           	sec
    17f5: f2 12        	sbc	($12)                   ; 0x12 <__rc2>
    17f7: 85 18        	sta	$18                     ; 0x18 <__rc8>
    17f9: a9 00        	lda	#$0
    17fb: f1 12        	sbc	($12),y                 ; 0x12 <__rc2>
    17fd: 85 13        	sta	$13                     ; 0x13 <__rc3>
    17ff: a5 19        	lda	$19                     ; 0x19 <__rc9>
    1801: 18           	clc
    1802: 65 18        	adc	$18                     ; 0x18 <__rc8>
    1804: 85 12        	sta	$12                     ; 0x12 <__rc2>
    1806: 85 19        	sta	$19                     ; 0x19 <__rc9>
    1808: a5 1a        	lda	$1a                     ; 0x1a <__rc10>
    180a: 65 13        	adc	$13                     ; 0x13 <__rc3>
    180c: 85 13        	sta	$13                     ; 0x13 <__rc3>
    180e: 85 1f        	sta	$1f                     ; 0x1f <__rc15>
    1810: b1 12        	lda	($12),y                 ; 0x12 <__rc2>
    1812: 85 1b        	sta	$1b                     ; 0x1b <__rc11>
    1814: a2 01        	ldx	#$1
    1816: 86 1e        	stx	$1e                     ; 0x1e <__rc14>
    1818: a9 fe        	lda	#$fe
    181a: 32 12        	and	($12)                   ; 0x12 <__rc2>
    181c: a6 8b        	ldx	$8b                     ; 0x8b <_ZN12_GLOBAL__N_19free_sizeE>
    181e: 85 1d        	sta	$1d                     ; 0x1d <__rc13>
    1820: 85 18        	sta	$18                     ; 0x18 <__rc8>
    1822: 38           	sec
    1823: 8a           	txa
    1824: e5 18        	sbc	$18                     ; 0x18 <__rc8>
    1826: 85 1a        	sta	$1a                     ; 0x1a <__rc10>
    1828: a6 1b        	ldx	$1b                     ; 0x1b <__rc11>
    182a: 86 1c        	stx	$1c                     ; 0x1c <__rc12>
    182c: 86 18        	stx	$18                     ; 0x18 <__rc8>
    182e: a5 8c        	lda	$8c                     ; 0x8c <_ZN12_GLOBAL__N_19free_sizeE+0x1>
    1830: e5 18        	sbc	$18                     ; 0x18 <__rc8>
    1832: aa           	tax
    1833: 18           	clc
    1834: a5 1a        	lda	$1a                     ; 0x1a <__rc10>
    1836: 69 02        	adc	#$2
    1838: 85 18        	sta	$18                     ; 0x18 <__rc8>
    183a: 8a           	txa
    183b: 69 00        	adc	#$0
    183d: a6 18        	ldx	$18                     ; 0x18 <__rc8>
    183f: 86 8b        	stx	$8b                     ; 0x8b <_ZN12_GLOBAL__N_19free_sizeE>
    1841: 85 8c        	sta	$8c                     ; 0x8c <_ZN12_GLOBAL__N_19free_sizeE+0x1>
    1843: a6 19        	ldx	$19                     ; 0x19 <__rc9>
    1845: 86 1a        	stx	$1a                     ; 0x1a <__rc10>
    1847: a5 19        	lda	$19                     ; 0x19 <__rc9>
    1849: 18           	clc
    184a: 69 02        	adc	#$2
    184c: 85 18        	sta	$18                     ; 0x18 <__rc8>
    184e: a6 1f        	ldx	$1f                     ; 0x1f <__rc15>
    1850: 86 1b        	stx	$1b                     ; 0x1b <__rc11>
    1852: a5 1f        	lda	$1f                     ; 0x1f <__rc15>
    1854: 69 00        	adc	#$0
    1856: a0 02        	ldy	#$2
    1858: 85 19        	sta	$19                     ; 0x19 <__rc9>
    185a: b1 12        	lda	($12),y                 ; 0x12 <__rc2>
    185c: aa           	tax
    185d: a4 1e        	ldy	$1e                     ; 0x1e <__rc14>
    185f: b1 18        	lda	($18),y                 ; 0x18 <__rc8>
    1861: 85 1f        	sta	$1f                     ; 0x1f <__rc15>
    1863: c5 13        	cmp	$13                     ; 0x13 <__rc3>
    1865: d0 0f        	bne	$1876 <f256main+0xe76>
    1867: e4 12        	cpx	$12                     ; 0x12 <__rc2>
    1869: d0 0b        	bne	$1876 <f256main+0xe76>
    186b: a2 00        	ldx	#$0
    186d: 86 18        	stx	$18                     ; 0x18 <__rc8>
    186f: a2 00        	ldx	#$0
    1871: 86 19        	stx	$19                     ; 0x19 <__rc9>
    1873: 4c 04 19     	jmp	$1904 <f256main+0xf04>
    1876: 86 1e        	stx	$1e                     ; 0x1e <__rc14>
    1878: 18           	clc
    1879: a5 1a        	lda	$1a                     ; 0x1a <__rc10>
    187b: a6 1a        	ldx	$1a                     ; 0x1a <__rc10>
    187d: 86 23        	stx	$23                     ; 0x23 <__rc19>
    187f: 69 04        	adc	#$4
    1881: 85 18        	sta	$18                     ; 0x18 <__rc8>
    1883: a6 1b        	ldx	$1b                     ; 0x1b <__rc11>
    1885: 86 24        	stx	$24                     ; 0x24 <__rc20>
    1887: a5 1b        	lda	$1b                     ; 0x1b <__rc11>
    1889: 69 00        	adc	#$0
    188b: a0 04        	ldy	#$4
    188d: 85 19        	sta	$19                     ; 0x19 <__rc9>
    188f: b1 12        	lda	($12),y                 ; 0x12 <__rc2>
    1891: 85 25        	sta	$25                     ; 0x25 <__rc21>
    1893: a2 04        	ldx	#$4
    1895: 86 22        	stx	$22                     ; 0x22 <__rc18>
    1897: 18           	clc
    1898: 69 02        	adc	#$2
    189a: 85 1a        	sta	$1a                     ; 0x1a <__rc10>
    189c: a0 01        	ldy	#$1
    189e: b1 18        	lda	($18),y                 ; 0x18 <__rc8>
    18a0: aa           	tax
    18a1: 84 26        	sty	$26                     ; 0x26 <__rc22>
    18a3: 69 00        	adc	#$0
    18a5: a4 1a        	ldy	$1a                     ; 0x1a <__rc10>
    18a7: 84 18        	sty	$18                     ; 0x18 <__rc8>
    18a9: 85 19        	sta	$19                     ; 0x19 <__rc9>
    18ab: a4 25        	ldy	$25                     ; 0x25 <__rc21>
    18ad: 84 1a        	sty	$1a                     ; 0x1a <__rc10>
    18af: 86 1b        	stx	$1b                     ; 0x1b <__rc11>
    18b1: a5 1e        	lda	$1e                     ; 0x1e <__rc14>
    18b3: a0 02        	ldy	#$2
    18b5: 91 1a        	sta	($1a),y                 ; 0x1a <__rc10>
    18b7: 84 1a        	sty	$1a                     ; 0x1a <__rc10>
    18b9: a5 1f        	lda	$1f                     ; 0x1f <__rc15>
    18bb: a4 26        	ldy	$26                     ; 0x26 <__rc22>
    18bd: 91 18        	sta	($18),y                 ; 0x18 <__rc8>
    18bf: 18           	clc
    18c0: a5 23        	lda	$23                     ; 0x23 <__rc19>
    18c2: 69 02        	adc	#$2
    18c4: 85 18        	sta	$18                     ; 0x18 <__rc8>
    18c6: a5 24        	lda	$24                     ; 0x24 <__rc20>
    18c8: 69 00        	adc	#$0
    18ca: 85 19        	sta	$19                     ; 0x19 <__rc9>
    18cc: a4 1a        	ldy	$1a                     ; 0x1a <__rc10>
    18ce: b1 12        	lda	($12),y                 ; 0x12 <__rc2>
    18d0: 85 1a        	sta	$1a                     ; 0x1a <__rc10>
    18d2: a4 26        	ldy	$26                     ; 0x26 <__rc22>
    18d4: b1 18        	lda	($18),y                 ; 0x18 <__rc8>
    18d6: 84 1e        	sty	$1e                     ; 0x1e <__rc14>
    18d8: a4 1a        	ldy	$1a                     ; 0x1a <__rc10>
    18da: 84 18        	sty	$18                     ; 0x18 <__rc8>
    18dc: 85 19        	sta	$19                     ; 0x19 <__rc9>
    18de: 85 1b        	sta	$1b                     ; 0x1b <__rc11>
    18e0: a4 22        	ldy	$22                     ; 0x22 <__rc18>
    18e2: a5 25        	lda	$25                     ; 0x25 <__rc21>
    18e4: 91 18        	sta	($18),y                 ; 0x18 <__rc8>
    18e6: 18           	clc
    18e7: a5 1a        	lda	$1a                     ; 0x1a <__rc10>
    18e9: 69 04        	adc	#$4
    18eb: 85 1a        	sta	$1a                     ; 0x1a <__rc10>
    18ed: a5 1b        	lda	$1b                     ; 0x1b <__rc11>
    18ef: 69 00        	adc	#$0
    18f1: 85 1b        	sta	$1b                     ; 0x1b <__rc11>
    18f3: 8a           	txa
    18f4: a4 1e        	ldy	$1e                     ; 0x1e <__rc14>
    18f6: 91 1a        	sta	($1a),y                 ; 0x1a <__rc10>
    18f8: a6 8e        	ldx	$8e                     ; 0x8e <_ZN12_GLOBAL__N_19free_listE+0x1>
    18fa: e4 13        	cpx	$13                     ; 0x13 <__rc3>
    18fc: d0 0e        	bne	$190c <f256main+0xf0c>
    18fe: a6 8d        	ldx	$8d                     ; 0x8d <_ZN12_GLOBAL__N_19free_listE>
    1900: e4 12        	cpx	$12                     ; 0x12 <__rc2>
    1902: d0 08        	bne	$190c <f256main+0xf0c>
    1904: a6 18        	ldx	$18                     ; 0x18 <__rc8>
    1906: a4 19        	ldy	$19                     ; 0x19 <__rc9>
    1908: 86 8d        	stx	$8d                     ; 0x8d <_ZN12_GLOBAL__N_19free_listE>
    190a: 84 8e        	sty	$8e                     ; 0x8e <_ZN12_GLOBAL__N_19free_listE+0x1>
    190c: 18           	clc
    190d: a5 1d        	lda	$1d                     ; 0x1d <__rc13>
    190f: 65 15        	adc	$15                     ; 0x15 <__rc5>
    1911: 85 15        	sta	$15                     ; 0x15 <__rc5>
    1913: a5 1c        	lda	$1c                     ; 0x1c <__rc12>
    1915: 65 14        	adc	$14                     ; 0x14 <__rc4>
    1917: 85 14        	sta	$14                     ; 0x14 <__rc4>
    1919: a2 00        	ldx	#$0
    191b: 86 18        	stx	$18                     ; 0x18 <__rc8>
    191d: a2 00        	ldx	#$0
    191f: 86 19        	stx	$19                     ; 0x19 <__rc9>
    1921: a6 17        	ldx	$17                     ; 0x17 <__rc7>
    1923: e4 19        	cpx	$19                     ; 0x19 <__rc9>
    1925: d0 0d        	bne	$1934 <f256main+0xf34>
    1927: a6 16        	ldx	$16                     ; 0x16 <__rc6>
    1929: e4 18        	cpx	$18                     ; 0x18 <__rc8>
    192b: d0 07        	bne	$1934 <f256main+0xf34>
    192d: a2 01        	ldx	#$1
    192f: 8e fa 8a     	stx	$8afa                   ; 0x8afa <_ZN12_GLOBAL__N_19last_freeE>
    1932: 80 34        	bra	$1968 <f256main+0xf68>
    1934: b2 16        	lda	($16)                   ; 0x16 <__rc6>
    1936: 85 1a        	sta	$1a                     ; 0x1a <__rc10>
    1938: a0 01        	ldy	#$1
    193a: b1 16        	lda	($16),y                 ; 0x16 <__rc6>
    193c: aa           	tax
    193d: a9 fe        	lda	#$fe
    193f: 32 16        	and	($16)                   ; 0x16 <__rc6>
    1941: 18           	clc
    1942: 85 1d        	sta	$1d                     ; 0x1d <__rc13>
    1944: 65 16        	adc	$16                     ; 0x16 <__rc6>
    1946: 85 18        	sta	$18                     ; 0x18 <__rc8>
    1948: 8a           	txa
    1949: 86 1c        	stx	$1c                     ; 0x1c <__rc12>
    194b: 65 17        	adc	$17                     ; 0x17 <__rc7>
    194d: c5 28        	cmp	$28                     ; 0x28 <__rc24>
    194f: d0 1c        	bne	$196d <f256main+0xf6d>
    1951: a6 18        	ldx	$18                     ; 0x18 <__rc8>
    1953: e4 27        	cpx	$27                     ; 0x27 <__rc23>
    1955: d0 16        	bne	$196d <f256main+0xf6d>
    1957: ad fa 8a     	lda	$8afa                   ; 0x8afa <_ZN12_GLOBAL__N_19last_freeE>
    195a: 29 01        	and	#$1
    195c: d0 17        	bne	$1975 <f256main+0xf75>
    195e: a5 1a        	lda	$1a                     ; 0x1a <__rc10>
    1960: 09 01        	ora	#$1
    1962: 92 16        	sta	($16)                   ; 0x16 <__rc6>
    1964: a5 1c        	lda	$1c                     ; 0x1c <__rc12>
    1966: 91 16        	sta	($16),y                 ; 0x16 <__rc6>
    1968: a6 14        	ldx	$14                     ; 0x14 <__rc4>
    196a: 4c 5d 1a     	jmp	$1a5d <f256main+0x105d>
    196d: 85 19        	sta	$19                     ; 0x19 <__rc9>
    196f: a9 01        	lda	#$1
    1971: 32 18        	and	($18)                   ; 0x18 <__rc8>
    1973: f0 e9        	beq	$195e <f256main+0xf5e>
    1975: a5 8b        	lda	$8b                     ; 0x8b <_ZN12_GLOBAL__N_19free_sizeE>
    1977: a6 8c        	ldx	$8c                     ; 0x8c <_ZN12_GLOBAL__N_19free_sizeE+0x1>
    1979: 86 19        	stx	$19                     ; 0x19 <__rc9>
    197b: 38           	sec
    197c: e5 1d        	sbc	$1d                     ; 0x1d <__rc13>
    197e: aa           	tax
    197f: a5 19        	lda	$19                     ; 0x19 <__rc9>
    1981: e5 1c        	sbc	$1c                     ; 0x1c <__rc12>
    1983: 85 18        	sta	$18                     ; 0x18 <__rc8>
    1985: 18           	clc
    1986: 8a           	txa
    1987: 69 02        	adc	#$2
    1989: 85 19        	sta	$19                     ; 0x19 <__rc9>
    198b: a5 18        	lda	$18                     ; 0x18 <__rc8>
    198d: 69 00        	adc	#$0
    198f: a6 19        	ldx	$19                     ; 0x19 <__rc9>
    1991: 86 8b        	stx	$8b                     ; 0x8b <_ZN12_GLOBAL__N_19free_sizeE>
    1993: 85 8c        	sta	$8c                     ; 0x8c <_ZN12_GLOBAL__N_19free_sizeE+0x1>
    1995: a5 16        	lda	$16                     ; 0x16 <__rc6>
    1997: 18           	clc
    1998: 69 02        	adc	#$2
    199a: 85 18        	sta	$18                     ; 0x18 <__rc8>
    199c: a5 17        	lda	$17                     ; 0x17 <__rc7>
    199e: 69 00        	adc	#$0
    19a0: a0 02        	ldy	#$2
    19a2: 85 19        	sta	$19                     ; 0x19 <__rc9>
    19a4: b1 16        	lda	($16),y                 ; 0x16 <__rc6>
    19a6: aa           	tax
    19a7: 88           	dey
    19a8: b1 18        	lda	($18),y                 ; 0x18 <__rc8>
    19aa: 85 1f        	sta	$1f                     ; 0x1f <__rc15>
    19ac: c5 17        	cmp	$17                     ; 0x17 <__rc7>
    19ae: d0 0f        	bne	$19bf <f256main+0xfbf>
    19b0: e4 16        	cpx	$16                     ; 0x16 <__rc6>
    19b2: d0 0b        	bne	$19bf <f256main+0xfbf>
    19b4: a2 00        	ldx	#$0
    19b6: 86 18        	stx	$18                     ; 0x18 <__rc8>
    19b8: a2 00        	ldx	#$0
    19ba: 86 19        	stx	$19                     ; 0x19 <__rc9>
    19bc: 4c 49 1a     	jmp	$1a49 <f256main+0x1049>
    19bf: 86 1e        	stx	$1e                     ; 0x1e <__rc14>
    19c1: a6 16        	ldx	$16                     ; 0x16 <__rc6>
    19c3: a5 16        	lda	$16                     ; 0x16 <__rc6>
    19c5: 86 24        	stx	$24                     ; 0x24 <__rc20>
    19c7: 18           	clc
    19c8: 69 04        	adc	#$4
    19ca: 85 18        	sta	$18                     ; 0x18 <__rc8>
    19cc: a5 17        	lda	$17                     ; 0x17 <__rc7>
    19ce: 69 00        	adc	#$0
    19d0: a0 04        	ldy	#$4
    19d2: 85 19        	sta	$19                     ; 0x19 <__rc9>
    19d4: b1 16        	lda	($16),y                 ; 0x16 <__rc6>
    19d6: 85 25        	sta	$25                     ; 0x25 <__rc21>
    19d8: a2 04        	ldx	#$4
    19da: 86 22        	stx	$22                     ; 0x22 <__rc18>
    19dc: 18           	clc
    19dd: 69 02        	adc	#$2
    19df: 85 1a        	sta	$1a                     ; 0x1a <__rc10>
    19e1: a0 01        	ldy	#$1
    19e3: b1 18        	lda	($18),y                 ; 0x18 <__rc8>
    19e5: aa           	tax
    19e6: 84 26        	sty	$26                     ; 0x26 <__rc22>
    19e8: 69 00        	adc	#$0
    19ea: a4 1a        	ldy	$1a                     ; 0x1a <__rc10>
    19ec: 84 18        	sty	$18                     ; 0x18 <__rc8>
    19ee: 85 19        	sta	$19                     ; 0x19 <__rc9>
    19f0: a4 25        	ldy	$25                     ; 0x25 <__rc21>
    19f2: 84 1a        	sty	$1a                     ; 0x1a <__rc10>
    19f4: 86 1b        	stx	$1b                     ; 0x1b <__rc11>
    19f6: a5 1e        	lda	$1e                     ; 0x1e <__rc14>
    19f8: a0 02        	ldy	#$2
    19fa: 91 1a        	sta	($1a),y                 ; 0x1a <__rc10>
    19fc: 84 1a        	sty	$1a                     ; 0x1a <__rc10>
    19fe: a5 1f        	lda	$1f                     ; 0x1f <__rc15>
    1a00: a4 26        	ldy	$26                     ; 0x26 <__rc22>
    1a02: 91 18        	sta	($18),y                 ; 0x18 <__rc8>
    1a04: 18           	clc
    1a05: a5 24        	lda	$24                     ; 0x24 <__rc20>
    1a07: 69 02        	adc	#$2
    1a09: 85 18        	sta	$18                     ; 0x18 <__rc8>
    1a0b: a5 17        	lda	$17                     ; 0x17 <__rc7>
    1a0d: 69 00        	adc	#$0
    1a0f: 85 19        	sta	$19                     ; 0x19 <__rc9>
    1a11: a4 1a        	ldy	$1a                     ; 0x1a <__rc10>
    1a13: b1 16        	lda	($16),y                 ; 0x16 <__rc6>
    1a15: 85 1a        	sta	$1a                     ; 0x1a <__rc10>
    1a17: a4 26        	ldy	$26                     ; 0x26 <__rc22>
    1a19: b1 18        	lda	($18),y                 ; 0x18 <__rc8>
    1a1b: 84 1e        	sty	$1e                     ; 0x1e <__rc14>
    1a1d: a4 1a        	ldy	$1a                     ; 0x1a <__rc10>
    1a1f: 84 18        	sty	$18                     ; 0x18 <__rc8>
    1a21: 85 19        	sta	$19                     ; 0x19 <__rc9>
    1a23: 85 1b        	sta	$1b                     ; 0x1b <__rc11>
    1a25: a4 22        	ldy	$22                     ; 0x22 <__rc18>
    1a27: a5 25        	lda	$25                     ; 0x25 <__rc21>
    1a29: 91 18        	sta	($18),y                 ; 0x18 <__rc8>
    1a2b: 18           	clc
    1a2c: a5 1a        	lda	$1a                     ; 0x1a <__rc10>
    1a2e: 69 04        	adc	#$4
    1a30: 85 1a        	sta	$1a                     ; 0x1a <__rc10>
    1a32: a5 1b        	lda	$1b                     ; 0x1b <__rc11>
    1a34: 69 00        	adc	#$0
    1a36: 85 1b        	sta	$1b                     ; 0x1b <__rc11>
    1a38: 8a           	txa
    1a39: a4 1e        	ldy	$1e                     ; 0x1e <__rc14>
    1a3b: 91 1a        	sta	($1a),y                 ; 0x1a <__rc10>
    1a3d: a6 8e        	ldx	$8e                     ; 0x8e <_ZN12_GLOBAL__N_19free_listE+0x1>
    1a3f: e4 17        	cpx	$17                     ; 0x17 <__rc7>
    1a41: d0 0e        	bne	$1a51 <f256main+0x1051>
    1a43: a6 8d        	ldx	$8d                     ; 0x8d <_ZN12_GLOBAL__N_19free_listE>
    1a45: e4 16        	cpx	$16                     ; 0x16 <__rc6>
    1a47: d0 08        	bne	$1a51 <f256main+0x1051>
    1a49: a6 18        	ldx	$18                     ; 0x18 <__rc8>
    1a4b: a4 19        	ldy	$19                     ; 0x19 <__rc9>
    1a4d: 86 8d        	stx	$8d                     ; 0x8d <_ZN12_GLOBAL__N_19free_listE>
    1a4f: 84 8e        	sty	$8e                     ; 0x8e <_ZN12_GLOBAL__N_19free_listE+0x1>
    1a51: 18           	clc
    1a52: a5 1d        	lda	$1d                     ; 0x1d <__rc13>
    1a54: 65 15        	adc	$15                     ; 0x15 <__rc5>
    1a56: 85 15        	sta	$15                     ; 0x15 <__rc5>
    1a58: a5 1c        	lda	$1c                     ; 0x1c <__rc12>
    1a5a: 65 14        	adc	$14                     ; 0x14 <__rc4>
    1a5c: aa           	tax
    1a5d: a9 01        	lda	#$1
    1a5f: 32 12        	and	($12)                   ; 0x12 <__rc2>
    1a61: a4 15        	ldy	$15                     ; 0x15 <__rc5>
    1a63: 84 16        	sty	$16                     ; 0x16 <__rc6>
    1a65: 05 15        	ora	$15                     ; 0x15 <__rc5>
    1a67: 92 12        	sta	($12)                   ; 0x12 <__rc2>
    1a69: a5 12        	lda	$12                     ; 0x12 <__rc2>
    1a6b: 18           	clc
    1a6c: 65 15        	adc	$15                     ; 0x15 <__rc5>
    1a6e: a8           	tay
    1a6f: 8a           	txa
    1a70: 65 13        	adc	$13                     ; 0x13 <__rc3>
    1a72: 85 15        	sta	$15                     ; 0x15 <__rc5>
    1a74: 18           	clc
    1a75: 98           	tya
    1a76: 69 fe        	adc	#$fe
    1a78: 85 14        	sta	$14                     ; 0x14 <__rc4>
    1a7a: a5 15        	lda	$15                     ; 0x15 <__rc5>
    1a7c: 69 ff        	adc	#$ff
    1a7e: 85 15        	sta	$15                     ; 0x15 <__rc5>
    1a80: a0 01        	ldy	#$1
    1a82: 8a           	txa
    1a83: 91 12        	sta	($12),y                 ; 0x12 <__rc2>
    1a85: a5 16        	lda	$16                     ; 0x16 <__rc6>
    1a87: 92 14        	sta	($14)                   ; 0x14 <__rc4>
    1a89: 8a           	txa
    1a8a: 91 14        	sta	($14),y                 ; 0x14 <__rc4>
    1a8c: b1 12        	lda	($12),y                 ; 0x12 <__rc2>
    1a8e: 85 14        	sta	$14                     ; 0x14 <__rc4>
    1a90: a9 fe        	lda	#$fe
    1a92: 32 12        	and	($12)                   ; 0x12 <__rc2>
    1a94: 18           	clc
    1a95: 65 8b        	adc	$8b                     ; 0x8b <_ZN12_GLOBAL__N_19free_sizeE>
    1a97: aa           	tax
    1a98: a5 14        	lda	$14                     ; 0x14 <__rc4>
    1a9a: 65 8c        	adc	$8c                     ; 0x8c <_ZN12_GLOBAL__N_19free_sizeE+0x1>
    1a9c: 85 14        	sta	$14                     ; 0x14 <__rc4>
    1a9e: 18           	clc
    1a9f: 8a           	txa
    1aa0: 69 fe        	adc	#$fe
    1aa2: 85 15        	sta	$15                     ; 0x15 <__rc5>
    1aa4: a5 14        	lda	$14                     ; 0x14 <__rc4>
    1aa6: 69 ff        	adc	#$ff
    1aa8: a6 15        	ldx	$15                     ; 0x15 <__rc5>
    1aaa: 86 8b        	stx	$8b                     ; 0x8b <_ZN12_GLOBAL__N_19free_sizeE>
    1aac: 85 8c        	sta	$8c                     ; 0x8c <_ZN12_GLOBAL__N_19free_sizeE+0x1>
    1aae: a6 8d        	ldx	$8d                     ; 0x8d <_ZN12_GLOBAL__N_19free_listE>
    1ab0: 86 16        	stx	$16                     ; 0x16 <__rc6>
    1ab2: a4 8e        	ldy	$8e                     ; 0x8e <_ZN12_GLOBAL__N_19free_listE+0x1>
    1ab4: a2 00        	ldx	#$0
    1ab6: 86 14        	stx	$14                     ; 0x14 <__rc4>
    1ab8: a2 00        	ldx	#$0
    1aba: 86 15        	stx	$15                     ; 0x15 <__rc5>
    1abc: c4 15        	cpy	$15                     ; 0x15 <__rc5>
    1abe: d0 3e        	bne	$1afe <f256main+0x10fe>
    1ac0: a6 16        	ldx	$16                     ; 0x16 <__rc6>
    1ac2: e4 14        	cpx	$14                     ; 0x14 <__rc4>
    1ac4: d0 38        	bne	$1afe <f256main+0x10fe>
    1ac6: a0 04        	ldy	#$4
    1ac8: 18           	clc
    1ac9: a5 12        	lda	$12                     ; 0x12 <__rc2>
    1acb: 69 04        	adc	#$4
    1acd: 85 14        	sta	$14                     ; 0x14 <__rc4>
    1acf: a5 13        	lda	$13                     ; 0x13 <__rc3>
    1ad1: 69 00        	adc	#$0
    1ad3: 18           	clc
    1ad4: 85 15        	sta	$15                     ; 0x15 <__rc5>
    1ad6: a5 12        	lda	$12                     ; 0x12 <__rc2>
    1ad8: 91 12        	sta	($12),y                 ; 0x12 <__rc2>
    1ada: a0 02        	ldy	#$2
    1adc: 85 17        	sta	$17                     ; 0x17 <__rc7>
    1ade: 69 02        	adc	#$2
    1ae0: 85 16        	sta	$16                     ; 0x16 <__rc6>
    1ae2: a5 17        	lda	$17                     ; 0x17 <__rc7>
    1ae4: 91 12        	sta	($12),y                 ; 0x12 <__rc2>
    1ae6: a5 13        	lda	$13                     ; 0x13 <__rc3>
    1ae8: 69 00        	adc	#$0
    1aea: 85 17        	sta	$17                     ; 0x17 <__rc7>
    1aec: 88           	dey
    1aed: a5 13        	lda	$13                     ; 0x13 <__rc3>
    1aef: 91 14        	sta	($14),y                 ; 0x14 <__rc4>
    1af1: 91 16        	sta	($16),y                 ; 0x16 <__rc6>
    1af3: a6 12        	ldx	$12                     ; 0x12 <__rc2>
    1af5: 86 8d        	stx	$8d                     ; 0x8d <_ZN12_GLOBAL__N_19free_listE>
    1af7: a6 13        	ldx	$13                     ; 0x13 <__rc3>
    1af9: 86 8e        	stx	$8e                     ; 0x8e <_ZN12_GLOBAL__N_19free_listE+0x1>
    1afb: 4c bb 1b     	jmp	$1bbb <f256main+0x11bb>
    1afe: a6 12        	ldx	$12                     ; 0x12 <__rc2>
    1b00: a5 12        	lda	$12                     ; 0x12 <__rc2>
    1b02: 86 1e        	stx	$1e                     ; 0x1e <__rc14>
    1b04: 18           	clc
    1b05: 69 02        	adc	#$2
    1b07: 85 14        	sta	$14                     ; 0x14 <__rc4>
    1b09: a6 13        	ldx	$13                     ; 0x13 <__rc3>
    1b0b: 84 18        	sty	$18                     ; 0x18 <__rc8>
    1b0d: a4 16        	ldy	$16                     ; 0x16 <__rc6>
    1b0f: a5 13        	lda	$13                     ; 0x13 <__rc3>
    1b11: 69 00        	adc	#$0
    1b13: 85 17        	sta	$17                     ; 0x17 <__rc7>
    1b15: a5 14        	lda	$14                     ; 0x14 <__rc4>
    1b17: 85 16        	sta	$16                     ; 0x16 <__rc6>
    1b19: 98           	tya
    1b1a: 84 14        	sty	$14                     ; 0x14 <__rc4>
    1b1c: a4 18        	ldy	$18                     ; 0x18 <__rc8>
    1b1e: 84 15        	sty	$15                     ; 0x15 <__rc5>
    1b20: a0 02        	ldy	#$2
    1b22: 91 12        	sta	($12),y                 ; 0x12 <__rc2>
    1b24: 85 19        	sta	$19                     ; 0x19 <__rc9>
    1b26: 84 1f        	sty	$1f                     ; 0x1f <__rc15>
    1b28: 88           	dey
    1b29: a5 18        	lda	$18                     ; 0x18 <__rc8>
    1b2b: 91 16        	sta	($16),y                 ; 0x16 <__rc6>
    1b2d: 84 1d        	sty	$1d                     ; 0x1d <__rc13>
    1b2f: 18           	clc
    1b30: a5 19        	lda	$19                     ; 0x19 <__rc9>
    1b32: 69 04        	adc	#$4
    1b34: a8           	tay
    1b35: a5 18        	lda	$18                     ; 0x18 <__rc8>
    1b37: 69 00        	adc	#$0
    1b39: 84 18        	sty	$18                     ; 0x18 <__rc8>
    1b3b: 85 19        	sta	$19                     ; 0x19 <__rc9>
    1b3d: a5 1e        	lda	$1e                     ; 0x1e <__rc14>
    1b3f: 18           	clc
    1b40: 69 04        	adc	#$4
    1b42: 85 1a        	sta	$1a                     ; 0x1a <__rc10>
    1b44: a5 13        	lda	$13                     ; 0x13 <__rc3>
    1b46: 69 00        	adc	#$0
    1b48: 85 1b        	sta	$1b                     ; 0x1b <__rc11>
    1b4a: a0 04        	ldy	#$4
    1b4c: b1 14        	lda	($14),y                 ; 0x14 <__rc4>
    1b4e: 85 1c        	sta	$1c                     ; 0x1c <__rc12>
    1b50: 85 23        	sta	$23                     ; 0x23 <__rc19>
    1b52: a4 1d        	ldy	$1d                     ; 0x1d <__rc13>
    1b54: b1 18        	lda	($18),y                 ; 0x18 <__rc8>
    1b56: a4 1d        	ldy	$1d                     ; 0x1d <__rc13>
    1b58: 84 18        	sty	$18                     ; 0x18 <__rc8>
    1b5a: 85 1d        	sta	$1d                     ; 0x1d <__rc13>
    1b5c: 85 19        	sta	$19                     ; 0x19 <__rc9>
    1b5e: a0 04        	ldy	#$4
    1b60: a5 23        	lda	$23                     ; 0x23 <__rc19>
    1b62: 91 12        	sta	($12),y                 ; 0x12 <__rc2>
    1b64: 84 22        	sty	$22                     ; 0x22 <__rc18>
    1b66: a4 18        	ldy	$18                     ; 0x18 <__rc8>
    1b68: a5 19        	lda	$19                     ; 0x19 <__rc9>
    1b6a: 91 1a        	sta	($1a),y                 ; 0x1a <__rc10>
    1b6c: 84 1a        	sty	$1a                     ; 0x1a <__rc10>
    1b6e: 18           	clc
    1b6f: a5 23        	lda	$23                     ; 0x23 <__rc19>
    1b71: 69 02        	adc	#$2
    1b73: 85 18        	sta	$18                     ; 0x18 <__rc8>
    1b75: a5 19        	lda	$19                     ; 0x19 <__rc9>
    1b77: 69 00        	adc	#$0
    1b79: 85 19        	sta	$19                     ; 0x19 <__rc9>
    1b7b: a5 1e        	lda	$1e                     ; 0x1e <__rc14>
    1b7d: a4 1f        	ldy	$1f                     ; 0x1f <__rc15>
    1b7f: 91 1c        	sta	($1c),y                 ; 0x1c <__rc12>
    1b81: a5 13        	lda	$13                     ; 0x13 <__rc3>
    1b83: a4 1a        	ldy	$1a                     ; 0x1a <__rc10>
    1b85: 91 18        	sta	($18),y                 ; 0x18 <__rc8>
    1b87: 84 19        	sty	$19                     ; 0x19 <__rc9>
    1b89: a4 1f        	ldy	$1f                     ; 0x1f <__rc15>
    1b8b: b1 12        	lda	($12),y                 ; 0x12 <__rc2>
    1b8d: 85 12        	sta	$12                     ; 0x12 <__rc2>
    1b8f: 85 18        	sta	$18                     ; 0x18 <__rc8>
    1b91: a4 19        	ldy	$19                     ; 0x19 <__rc9>
    1b93: b1 16        	lda	($16),y                 ; 0x16 <__rc6>
    1b95: 84 16        	sty	$16                     ; 0x16 <__rc6>
    1b97: 85 13        	sta	$13                     ; 0x13 <__rc3>
    1b99: 85 17        	sta	$17                     ; 0x17 <__rc7>
    1b9b: a5 1e        	lda	$1e                     ; 0x1e <__rc14>
    1b9d: a4 22        	ldy	$22                     ; 0x22 <__rc18>
    1b9f: 91 12        	sta	($12),y                 ; 0x12 <__rc2>
    1ba1: 18           	clc
    1ba2: a5 18        	lda	$18                     ; 0x18 <__rc8>
    1ba4: 69 04        	adc	#$4
    1ba6: 85 12        	sta	$12                     ; 0x12 <__rc2>
    1ba8: a5 17        	lda	$17                     ; 0x17 <__rc7>
    1baa: 69 00        	adc	#$0
    1bac: 85 13        	sta	$13                     ; 0x13 <__rc3>
    1bae: 8a           	txa
    1baf: a4 16        	ldy	$16                     ; 0x16 <__rc6>
    1bb1: 91 12        	sta	($12),y                 ; 0x12 <__rc2>
    1bb3: a6 14        	ldx	$14                     ; 0x14 <__rc4>
    1bb5: 86 12        	stx	$12                     ; 0x12 <__rc2>
    1bb7: a6 15        	ldx	$15                     ; 0x15 <__rc5>
    1bb9: 86 13        	stx	$13                     ; 0x13 <__rc3>
    1bbb: a2 00        	ldx	#$0
    1bbd: 86 14        	stx	$14                     ; 0x14 <__rc4>
    1bbf: a2 00        	ldx	#$0
    1bc1: 86 15        	stx	$15                     ; 0x15 <__rc5>
    1bc3: a6 14        	ldx	$14                     ; 0x14 <__rc4>
    1bc5: a4 15        	ldy	$15                     ; 0x15 <__rc5>
    1bc7: 8e c2 8a     	stx	$8ac2                   ; 0x8ac2 <myRecord.0>
    1bca: 8c c3 8a     	sty	$8ac3                   ; 0x8ac3 <myRecord.0+0x1>
    1bcd: a5 8a        	lda	$8a                     ; 0x8a <_ZN12_GLOBAL__N_111initializedE>
    1bcf: 29 01        	and	#$1
    1bd1: f0 1d        	beq	$1bf0 <f256main+0x11f0>
    1bd3: a2 00        	ldx	#$0
    1bd5: 86 14        	stx	$14                     ; 0x14 <__rc4>
    1bd7: a2 00        	ldx	#$0
    1bd9: 86 15        	stx	$15                     ; 0x15 <__rc5>
    1bdb: a6 13        	ldx	$13                     ; 0x13 <__rc3>
    1bdd: e4 15        	cpx	$15                     ; 0x15 <__rc5>
    1bdf: f0 03        	beq	$1be4 <f256main+0x11e4>
    1be1: 4c 08 1d     	jmp	$1d08 <f256main+0x1308>
    1be4: a6 12        	ldx	$12                     ; 0x12 <__rc2>
    1be6: e4 14        	cpx	$14                     ; 0x14 <__rc4>
    1be8: f0 03        	beq	$1bed <f256main+0x11ed>
    1bea: 4c 08 1d     	jmp	$1d08 <f256main+0x1308>
    1bed: 4c 49 1d     	jmp	$1d49 <f256main+0x1349>
    1bf0: a2 10        	ldx	#$10
    1bf2: 86 14        	stx	$14                     ; 0x14 <__rc4>
    1bf4: a9 00        	lda	#$0
    1bf6: 29 fe        	and	#$fe
    1bf8: 85 15        	sta	$15                     ; 0x15 <__rc5>
    1bfa: a9 01        	lda	#$1
    1bfc: 2d fc 8a     	and	$8afc                   ; 0x8afc <__heap_start>
    1bff: 05 15        	ora	$15                     ; 0x15 <__rc5>
    1c01: 8d fc 8a     	sta	$8afc                   ; 0x8afc <__heap_start>
    1c04: 8e fd 8a     	stx	$8afd                   ; 0x8afd <__heap_start+0x1>
    1c07: a9 fc        	lda	#$fc
    1c09: 18           	clc
    1c0a: 65 15        	adc	$15                     ; 0x15 <__rc5>
    1c0c: aa           	tax
    1c0d: a9 8a        	lda	#$8a
    1c0f: 65 14        	adc	$14                     ; 0x14 <__rc4>
    1c11: 85 14        	sta	$14                     ; 0x14 <__rc4>
    1c13: 18           	clc
    1c14: 8a           	txa
    1c15: 69 fe        	adc	#$fe
    1c17: aa           	tax
    1c18: a5 14        	lda	$14                     ; 0x14 <__rc4>
    1c1a: 69 ff        	adc	#$ff
    1c1c: 85 15        	sta	$15                     ; 0x15 <__rc5>
    1c1e: 86 14        	stx	$14                     ; 0x14 <__rc4>
    1c20: a9 00        	lda	#$0
    1c22: 92 14        	sta	($14)                   ; 0x14 <__rc4>
    1c24: a0 01        	ldy	#$1
    1c26: a9 10        	lda	#$10
    1c28: 91 14        	sta	($14),y                 ; 0x14 <__rc4>
    1c2a: ae fd 8a     	ldx	$8afd                   ; 0x8afd <__heap_start+0x1>
    1c2d: a9 fe        	lda	#$fe
    1c2f: 2d fc 8a     	and	$8afc                   ; 0x8afc <__heap_start>
    1c32: a4 8c        	ldy	$8c                     ; 0x8c <_ZN12_GLOBAL__N_19free_sizeE+0x1>
    1c34: 84 14        	sty	$14                     ; 0x14 <__rc4>
    1c36: 85 18        	sta	$18                     ; 0x18 <__rc8>
    1c38: 18           	clc
    1c39: 65 8b        	adc	$8b                     ; 0x8b <_ZN12_GLOBAL__N_19free_sizeE>
    1c3b: a8           	tay
    1c3c: a5 14        	lda	$14                     ; 0x14 <__rc4>
    1c3e: 6d fd 8a     	adc	$8afd                   ; 0x8afd <__heap_start+0x1>
    1c41: 85 14        	sta	$14                     ; 0x14 <__rc4>
    1c43: 18           	clc
    1c44: 98           	tya
    1c45: 69 fe        	adc	#$fe
    1c47: 85 15        	sta	$15                     ; 0x15 <__rc5>
    1c49: a5 14        	lda	$14                     ; 0x14 <__rc4>
    1c4b: 69 ff        	adc	#$ff
    1c4d: a4 15        	ldy	$15                     ; 0x15 <__rc5>
    1c4f: 84 8b        	sty	$8b                     ; 0x8b <_ZN12_GLOBAL__N_19free_sizeE>
    1c51: 85 8c        	sta	$8c                     ; 0x8c <_ZN12_GLOBAL__N_19free_sizeE+0x1>
    1c53: a0 00        	ldy	#$0
    1c55: 84 14        	sty	$14                     ; 0x14 <__rc4>
    1c57: a0 00        	ldy	#$0
    1c59: 84 15        	sty	$15                     ; 0x15 <__rc5>
    1c5b: a4 13        	ldy	$13                     ; 0x13 <__rc3>
    1c5d: c4 15        	cpy	$15                     ; 0x15 <__rc5>
    1c5f: d0 27        	bne	$1c88 <f256main+0x1288>
    1c61: a4 12        	ldy	$12                     ; 0x12 <__rc2>
    1c63: c4 14        	cpy	$14                     ; 0x14 <__rc4>
    1c65: d0 21        	bne	$1c88 <f256main+0x1288>
    1c67: 86 19        	stx	$19                     ; 0x19 <__rc9>
    1c69: a0 fc        	ldy	#$fc
    1c6b: a9 8a        	lda	#$8a
    1c6d: a2 fc        	ldx	#$fc
    1c6f: 86 12        	stx	$12                     ; 0x12 <__rc2>
    1c71: a2 8a        	ldx	#$8a
    1c73: 86 13        	stx	$13                     ; 0x13 <__rc3>
    1c75: 8c 00 8b     	sty	$8b00                   ; 0x8b00 <__heap_start+0x4>
    1c78: 8d 01 8b     	sta	$8b01                   ; 0x8b01 <__heap_start+0x5>
    1c7b: 8c fe 8a     	sty	$8afe                   ; 0x8afe <__heap_start+0x2>
    1c7e: 8d ff 8a     	sta	$8aff                   ; 0x8aff <__heap_start+0x3>
    1c81: 84 8d        	sty	$8d                     ; 0x8d <_ZN12_GLOBAL__N_19free_listE>
    1c83: 85 8e        	sta	$8e                     ; 0x8e <_ZN12_GLOBAL__N_19free_listE+0x1>
    1c85: 4c f7 1c     	jmp	$1cf7 <f256main+0x12f7>
    1c88: 86 19        	stx	$19                     ; 0x19 <__rc9>
    1c8a: a6 12        	ldx	$12                     ; 0x12 <__rc2>
    1c8c: a4 13        	ldy	$13                     ; 0x13 <__rc3>
    1c8e: 8e fe 8a     	stx	$8afe                   ; 0x8afe <__heap_start+0x2>
    1c91: 8c ff 8a     	sty	$8aff                   ; 0x8aff <__heap_start+0x3>
    1c94: a0 04        	ldy	#$4
    1c96: a5 12        	lda	$12                     ; 0x12 <__rc2>
    1c98: 18           	clc
    1c99: 69 04        	adc	#$4
    1c9b: 85 14        	sta	$14                     ; 0x14 <__rc4>
    1c9d: a5 13        	lda	$13                     ; 0x13 <__rc3>
    1c9f: 69 00        	adc	#$0
    1ca1: 85 15        	sta	$15                     ; 0x15 <__rc5>
    1ca3: b1 12        	lda	($12),y                 ; 0x12 <__rc2>
    1ca5: 85 16        	sta	$16                     ; 0x16 <__rc6>
    1ca7: a2 04        	ldx	#$4
    1ca9: 86 1a        	stx	$1a                     ; 0x1a <__rc10>
    1cab: a0 01        	ldy	#$1
    1cad: b1 14        	lda	($14),y                 ; 0x14 <__rc4>
    1caf: aa           	tax
    1cb0: 84 1b        	sty	$1b                     ; 0x1b <__rc11>
    1cb2: a5 16        	lda	$16                     ; 0x16 <__rc6>
    1cb4: 85 14        	sta	$14                     ; 0x14 <__rc4>
    1cb6: 86 15        	stx	$15                     ; 0x15 <__rc5>
    1cb8: 8d 00 8b     	sta	$8b00                   ; 0x8b00 <__heap_start+0x4>
    1cbb: 8e 01 8b     	stx	$8b01                   ; 0x8b01 <__heap_start+0x5>
    1cbe: 18           	clc
    1cbf: 69 02        	adc	#$2
    1cc1: 85 16        	sta	$16                     ; 0x16 <__rc6>
    1cc3: 8a           	txa
    1cc4: 69 00        	adc	#$0
    1cc6: 85 17        	sta	$17                     ; 0x17 <__rc7>
    1cc8: a9 fc        	lda	#$fc
    1cca: c8           	iny
    1ccb: 91 14        	sta	($14),y                 ; 0x14 <__rc4>
    1ccd: a9 8a        	lda	#$8a
    1ccf: a4 1b        	ldy	$1b                     ; 0x1b <__rc11>
    1cd1: 91 16        	sta	($16),y                 ; 0x16 <__rc6>
    1cd3: ae fe 8a     	ldx	$8afe                   ; 0x8afe <__heap_start+0x2>
    1cd6: ac ff 8a     	ldy	$8aff                   ; 0x8aff <__heap_start+0x3>
    1cd9: 86 14        	stx	$14                     ; 0x14 <__rc4>
    1cdb: 84 15        	sty	$15                     ; 0x15 <__rc5>
    1cdd: 84 17        	sty	$17                     ; 0x17 <__rc7>
    1cdf: a4 1a        	ldy	$1a                     ; 0x1a <__rc10>
    1ce1: a9 fc        	lda	#$fc
    1ce3: 91 14        	sta	($14),y                 ; 0x14 <__rc4>
    1ce5: 18           	clc
    1ce6: 8a           	txa
    1ce7: 69 04        	adc	#$4
    1ce9: 85 14        	sta	$14                     ; 0x14 <__rc4>
    1ceb: a5 17        	lda	$17                     ; 0x17 <__rc7>
    1ced: 69 00        	adc	#$0
    1cef: 85 15        	sta	$15                     ; 0x15 <__rc5>
    1cf1: a9 8a        	lda	#$8a
    1cf3: a4 1b        	ldy	$1b                     ; 0x1b <__rc11>
    1cf5: 91 14        	sta	($14),y                 ; 0x14 <__rc4>
    1cf7: a6 18        	ldx	$18                     ; 0x18 <__rc8>
    1cf9: 8e fc 8a     	stx	$8afc                   ; 0x8afc <__heap_start>
    1cfc: a6 19        	ldx	$19                     ; 0x19 <__rc9>
    1cfe: 8e fd 8a     	stx	$8afd                   ; 0x8afd <__heap_start+0x1>
    1d01: a2 01        	ldx	#$1
    1d03: 8e fa 8a     	stx	$8afa                   ; 0x8afa <_ZN12_GLOBAL__N_19last_freeE>
    1d06: 86 8a        	stx	$8a                     ; 0x8a <_ZN12_GLOBAL__N_111initializedE>
    1d08: a0 01        	ldy	#$1
    1d0a: a6 12        	ldx	$12                     ; 0x12 <__rc2>
    1d0c: 86 14        	stx	$14                     ; 0x14 <__rc4>
    1d0e: a6 13        	ldx	$13                     ; 0x13 <__rc3>
    1d10: 86 15        	stx	$15                     ; 0x15 <__rc5>
    1d12: b2 14        	lda	($14)                   ; 0x14 <__rc4>
    1d14: aa           	tax
    1d15: b1 14        	lda	($14),y                 ; 0x14 <__rc4>
    1d17: 85 16        	sta	$16                     ; 0x16 <__rc6>
    1d19: d0 07        	bne	$1d22 <f256main+0x1322>
    1d1b: 8a           	txa
    1d1c: e0 42        	cpx	#$42
    1d1e: 90 07        	bcc	$1d27 <f256main+0x1327>
    1d20: 80 32        	bra	$1d54 <f256main+0x1354>
    1d22: c9 00        	cmp	#$0
    1d24: 8a           	txa
    1d25: b0 2d        	bcs	$1d54 <f256main+0x1354>
    1d27: a5 14        	lda	$14                     ; 0x14 <__rc4>
    1d29: 18           	clc
    1d2a: 69 02        	adc	#$2
    1d2c: 85 16        	sta	$16                     ; 0x16 <__rc6>
    1d2e: a5 15        	lda	$15                     ; 0x15 <__rc5>
    1d30: 69 00        	adc	#$0
    1d32: 85 17        	sta	$17                     ; 0x17 <__rc7>
    1d34: a0 02        	ldy	#$2
    1d36: b1 14        	lda	($14),y                 ; 0x14 <__rc4>
    1d38: 85 14        	sta	$14                     ; 0x14 <__rc4>
    1d3a: 88           	dey
    1d3b: b1 16        	lda	($16),y                 ; 0x16 <__rc6>
    1d3d: 85 15        	sta	$15                     ; 0x15 <__rc5>
    1d3f: c5 13        	cmp	$13                     ; 0x13 <__rc3>
    1d41: d0 cf        	bne	$1d12 <f256main+0x1312>
    1d43: a5 14        	lda	$14                     ; 0x14 <__rc4>
    1d45: c5 12        	cmp	$12                     ; 0x12 <__rc2>
    1d47: d0 c9        	bne	$1d12 <f256main+0x1312>
    1d49: a2 00        	ldx	#$0
    1d4b: 86 16        	stx	$16                     ; 0x16 <__rc6>
    1d4d: a2 00        	ldx	#$0
    1d4f: 86 17        	stx	$17                     ; 0x17 <__rc7>
    1d51: 4c 08 20     	jmp	$2008 <f256main+0x1608>
    1d54: 29 fe        	and	#$fe
    1d56: 85 17        	sta	$17                     ; 0x17 <__rc7>
    1d58: a5 8b        	lda	$8b                     ; 0x8b <_ZN12_GLOBAL__N_19free_sizeE>
    1d5a: a6 8c        	ldx	$8c                     ; 0x8c <_ZN12_GLOBAL__N_19free_sizeE+0x1>
    1d5c: 86 18        	stx	$18                     ; 0x18 <__rc8>
    1d5e: 38           	sec
    1d5f: e5 17        	sbc	$17                     ; 0x17 <__rc7>
    1d61: aa           	tax
    1d62: a5 18        	lda	$18                     ; 0x18 <__rc8>
    1d64: e5 16        	sbc	$16                     ; 0x16 <__rc6>
    1d66: 85 16        	sta	$16                     ; 0x16 <__rc6>
    1d68: 18           	clc
    1d69: 8a           	txa
    1d6a: 69 02        	adc	#$2
    1d6c: 85 17        	sta	$17                     ; 0x17 <__rc7>
    1d6e: a5 16        	lda	$16                     ; 0x16 <__rc6>
    1d70: 69 00        	adc	#$0
    1d72: a6 17        	ldx	$17                     ; 0x17 <__rc7>
    1d74: 86 8b        	stx	$8b                     ; 0x8b <_ZN12_GLOBAL__N_19free_sizeE>
    1d76: 85 8c        	sta	$8c                     ; 0x8c <_ZN12_GLOBAL__N_19free_sizeE+0x1>
    1d78: a0 02        	ldy	#$2
    1d7a: a5 14        	lda	$14                     ; 0x14 <__rc4>
    1d7c: 18           	clc
    1d7d: 69 02        	adc	#$2
    1d7f: 85 16        	sta	$16                     ; 0x16 <__rc6>
    1d81: a5 15        	lda	$15                     ; 0x15 <__rc5>
    1d83: 69 00        	adc	#$0
    1d85: 85 17        	sta	$17                     ; 0x17 <__rc7>
    1d87: b1 14        	lda	($14),y                 ; 0x14 <__rc4>
    1d89: aa           	tax
    1d8a: 88           	dey
    1d8b: b1 16        	lda	($16),y                 ; 0x16 <__rc6>
    1d8d: 85 1d        	sta	$1d                     ; 0x1d <__rc13>
    1d8f: c5 15        	cmp	$15                     ; 0x15 <__rc5>
    1d91: d0 0f        	bne	$1da2 <f256main+0x13a2>
    1d93: e4 14        	cpx	$14                     ; 0x14 <__rc4>
    1d95: d0 0b        	bne	$1da2 <f256main+0x13a2>
    1d97: a2 00        	ldx	#$0
    1d99: 86 18        	stx	$18                     ; 0x18 <__rc8>
    1d9b: a2 00        	ldx	#$0
    1d9d: 86 19        	stx	$19                     ; 0x19 <__rc9>
    1d9f: 4c 2c 1e     	jmp	$1e2c <f256main+0x142c>
    1da2: 86 1c        	stx	$1c                     ; 0x1c <__rc12>
    1da4: a6 14        	ldx	$14                     ; 0x14 <__rc4>
    1da6: a5 14        	lda	$14                     ; 0x14 <__rc4>
    1da8: 86 22        	stx	$22                     ; 0x22 <__rc18>
    1daa: 18           	clc
    1dab: 69 04        	adc	#$4
    1dad: 85 18        	sta	$18                     ; 0x18 <__rc8>
    1daf: a5 15        	lda	$15                     ; 0x15 <__rc5>
    1db1: 69 00        	adc	#$0
    1db3: a0 04        	ldy	#$4
    1db5: 85 19        	sta	$19                     ; 0x19 <__rc9>
    1db7: b1 14        	lda	($14),y                 ; 0x14 <__rc4>
    1db9: 85 23        	sta	$23                     ; 0x23 <__rc19>
    1dbb: a2 04        	ldx	#$4
    1dbd: 86 1e        	stx	$1e                     ; 0x1e <__rc14>
    1dbf: 18           	clc
    1dc0: 69 02        	adc	#$2
    1dc2: 85 1a        	sta	$1a                     ; 0x1a <__rc10>
    1dc4: a0 01        	ldy	#$1
    1dc6: b1 18        	lda	($18),y                 ; 0x18 <__rc8>
    1dc8: aa           	tax
    1dc9: 84 24        	sty	$24                     ; 0x24 <__rc20>
    1dcb: 69 00        	adc	#$0
    1dcd: a4 1a        	ldy	$1a                     ; 0x1a <__rc10>
    1dcf: 84 18        	sty	$18                     ; 0x18 <__rc8>
    1dd1: 85 19        	sta	$19                     ; 0x19 <__rc9>
    1dd3: a4 23        	ldy	$23                     ; 0x23 <__rc19>
    1dd5: 84 1a        	sty	$1a                     ; 0x1a <__rc10>
    1dd7: 86 1b        	stx	$1b                     ; 0x1b <__rc11>
    1dd9: a5 1c        	lda	$1c                     ; 0x1c <__rc12>
    1ddb: a0 02        	ldy	#$2
    1ddd: 91 1a        	sta	($1a),y                 ; 0x1a <__rc10>
    1ddf: 84 1a        	sty	$1a                     ; 0x1a <__rc10>
    1de1: a5 1d        	lda	$1d                     ; 0x1d <__rc13>
    1de3: a4 24        	ldy	$24                     ; 0x24 <__rc20>
    1de5: 91 18        	sta	($18),y                 ; 0x18 <__rc8>
    1de7: 18           	clc
    1de8: a5 22        	lda	$22                     ; 0x22 <__rc18>
    1dea: 69 02        	adc	#$2
    1dec: 85 18        	sta	$18                     ; 0x18 <__rc8>
    1dee: a5 15        	lda	$15                     ; 0x15 <__rc5>
    1df0: 69 00        	adc	#$0
    1df2: 85 19        	sta	$19                     ; 0x19 <__rc9>
    1df4: a4 1a        	ldy	$1a                     ; 0x1a <__rc10>
    1df6: b1 14        	lda	($14),y                 ; 0x14 <__rc4>
    1df8: 85 1a        	sta	$1a                     ; 0x1a <__rc10>
    1dfa: a4 24        	ldy	$24                     ; 0x24 <__rc20>
    1dfc: b1 18        	lda	($18),y                 ; 0x18 <__rc8>
    1dfe: 84 1c        	sty	$1c                     ; 0x1c <__rc12>
    1e00: a4 1a        	ldy	$1a                     ; 0x1a <__rc10>
    1e02: 84 18        	sty	$18                     ; 0x18 <__rc8>
    1e04: 85 19        	sta	$19                     ; 0x19 <__rc9>
    1e06: 85 1b        	sta	$1b                     ; 0x1b <__rc11>
    1e08: a4 1e        	ldy	$1e                     ; 0x1e <__rc14>
    1e0a: a5 23        	lda	$23                     ; 0x23 <__rc19>
    1e0c: 91 18        	sta	($18),y                 ; 0x18 <__rc8>
    1e0e: 18           	clc
    1e0f: a5 1a        	lda	$1a                     ; 0x1a <__rc10>
    1e11: 69 04        	adc	#$4
    1e13: 85 1a        	sta	$1a                     ; 0x1a <__rc10>
    1e15: a5 1b        	lda	$1b                     ; 0x1b <__rc11>
    1e17: 69 00        	adc	#$0
    1e19: 85 1b        	sta	$1b                     ; 0x1b <__rc11>
    1e1b: 8a           	txa
    1e1c: a4 1c        	ldy	$1c                     ; 0x1c <__rc12>
    1e1e: 91 1a        	sta	($1a),y                 ; 0x1a <__rc10>
    1e20: a6 13        	ldx	$13                     ; 0x13 <__rc3>
    1e22: e4 15        	cpx	$15                     ; 0x15 <__rc5>
    1e24: d0 16        	bne	$1e3c <f256main+0x143c>
    1e26: a6 12        	ldx	$12                     ; 0x12 <__rc2>
    1e28: e4 14        	cpx	$14                     ; 0x14 <__rc4>
    1e2a: d0 10        	bne	$1e3c <f256main+0x143c>
    1e2c: a6 18        	ldx	$18                     ; 0x18 <__rc8>
    1e2e: a4 19        	ldy	$19                     ; 0x19 <__rc9>
    1e30: 86 8d        	stx	$8d                     ; 0x8d <_ZN12_GLOBAL__N_19free_listE>
    1e32: 84 8e        	sty	$8e                     ; 0x8e <_ZN12_GLOBAL__N_19free_listE+0x1>
    1e34: a6 18        	ldx	$18                     ; 0x18 <__rc8>
    1e36: 86 12        	stx	$12                     ; 0x12 <__rc2>
    1e38: a6 19        	ldx	$19                     ; 0x19 <__rc9>
    1e3a: 86 13        	stx	$13                     ; 0x13 <__rc3>
    1e3c: a0 01        	ldy	#$1
    1e3e: b1 14        	lda	($14),y                 ; 0x14 <__rc4>
    1e40: 85 18        	sta	$18                     ; 0x18 <__rc8>
    1e42: a9 fe        	lda	#$fe
    1e44: 32 14        	and	($14)                   ; 0x14 <__rc4>
    1e46: 18           	clc
    1e47: aa           	tax
    1e48: 69 be        	adc	#$be
    1e4a: a8           	tay
    1e4b: a5 18        	lda	$18                     ; 0x18 <__rc8>
    1e4d: 85 19        	sta	$19                     ; 0x19 <__rc9>
    1e4f: 69 ff        	adc	#$ff
    1e51: d0 0d        	bne	$1e60 <f256main+0x1460>
    1e53: 85 1e        	sta	$1e                     ; 0x1e <__rc14>
    1e55: 84 18        	sty	$18                     ; 0x18 <__rc8>
    1e57: c0 08        	cpy	#$8
    1e59: b0 0d        	bcs	$1e68 <f256main+0x1468>
    1e5b: a5 19        	lda	$19                     ; 0x19 <__rc9>
    1e5d: 4c dc 1f     	jmp	$1fdc <f256main+0x15dc>
    1e60: 84 18        	sty	$18                     ; 0x18 <__rc8>
    1e62: 85 1e        	sta	$1e                     ; 0x1e <__rc14>
    1e64: c9 00        	cmp	#$0
    1e66: 90 f3        	bcc	$1e5b <f256main+0x145b>
    1e68: a5 14        	lda	$14                     ; 0x14 <__rc4>
    1e6a: 18           	clc
    1e6b: 69 42        	adc	#$42
    1e6d: 85 1a        	sta	$1a                     ; 0x1a <__rc10>
    1e6f: a5 15        	lda	$15                     ; 0x15 <__rc5>
    1e71: 69 00        	adc	#$0
    1e73: 85 1b        	sta	$1b                     ; 0x1b <__rc11>
    1e75: a0 42        	ldy	#$42
    1e77: a9 01        	lda	#$1
    1e79: 31 14        	and	($14),y                 ; 0x14 <__rc4>
    1e7b: 5a           	phy
    1e7c: a4 18        	ldy	$18                     ; 0x18 <__rc8>
    1e7e: 84 22        	sty	$22                     ; 0x22 <__rc18>
    1e80: 7a           	ply
    1e81: 05 18        	ora	$18                     ; 0x18 <__rc8>
    1e83: 91 14        	sta	($14),y                 ; 0x14 <__rc4>
    1e85: 84 1f        	sty	$1f                     ; 0x1f <__rc15>
    1e87: 18           	clc
    1e88: 8a           	txa
    1e89: 65 14        	adc	$14                     ; 0x14 <__rc4>
    1e8b: aa           	tax
    1e8c: a5 19        	lda	$19                     ; 0x19 <__rc9>
    1e8e: 65 15        	adc	$15                     ; 0x15 <__rc5>
    1e90: a8           	tay
    1e91: 18           	clc
    1e92: 8a           	txa
    1e93: 69 fe        	adc	#$fe
    1e95: 85 18        	sta	$18                     ; 0x18 <__rc8>
    1e97: 98           	tya
    1e98: 69 ff        	adc	#$ff
    1e9a: 85 19        	sta	$19                     ; 0x19 <__rc9>
    1e9c: a6 1a        	ldx	$1a                     ; 0x1a <__rc10>
    1e9e: 86 1d        	stx	$1d                     ; 0x1d <__rc13>
    1ea0: a6 1b        	ldx	$1b                     ; 0x1b <__rc11>
    1ea2: 86 1c        	stx	$1c                     ; 0x1c <__rc12>
    1ea4: a0 01        	ldy	#$1
    1ea6: a5 1e        	lda	$1e                     ; 0x1e <__rc14>
    1ea8: 91 1a        	sta	($1a),y                 ; 0x1a <__rc10>
    1eaa: a5 22        	lda	$22                     ; 0x22 <__rc18>
    1eac: 92 18        	sta	($18)                   ; 0x18 <__rc8>
    1eae: a5 1e        	lda	$1e                     ; 0x1e <__rc14>
    1eb0: 91 18        	sta	($18),y                 ; 0x18 <__rc8>
    1eb2: b1 1a        	lda	($1a),y                 ; 0x1a <__rc10>
    1eb4: 85 18        	sta	$18                     ; 0x18 <__rc8>
    1eb6: a9 fe        	lda	#$fe
    1eb8: a4 1f        	ldy	$1f                     ; 0x1f <__rc15>
    1eba: 31 14        	and	($14),y                 ; 0x14 <__rc4>
    1ebc: 18           	clc
    1ebd: 65 8b        	adc	$8b                     ; 0x8b <_ZN12_GLOBAL__N_19free_sizeE>
    1ebf: aa           	tax
    1ec0: a5 18        	lda	$18                     ; 0x18 <__rc8>
    1ec2: 65 8c        	adc	$8c                     ; 0x8c <_ZN12_GLOBAL__N_19free_sizeE+0x1>
    1ec4: 85 18        	sta	$18                     ; 0x18 <__rc8>
    1ec6: 18           	clc
    1ec7: 8a           	txa
    1ec8: 69 fe        	adc	#$fe
    1eca: 85 19        	sta	$19                     ; 0x19 <__rc9>
    1ecc: a5 18        	lda	$18                     ; 0x18 <__rc8>
    1ece: 69 ff        	adc	#$ff
    1ed0: a6 19        	ldx	$19                     ; 0x19 <__rc9>
    1ed2: 86 8b        	stx	$8b                     ; 0x8b <_ZN12_GLOBAL__N_19free_sizeE>
    1ed4: 85 8c        	sta	$8c                     ; 0x8c <_ZN12_GLOBAL__N_19free_sizeE+0x1>
    1ed6: a2 00        	ldx	#$0
    1ed8: 86 18        	stx	$18                     ; 0x18 <__rc8>
    1eda: a2 00        	ldx	#$0
    1edc: 86 19        	stx	$19                     ; 0x19 <__rc9>
    1ede: a6 13        	ldx	$13                     ; 0x13 <__rc3>
    1ee0: e4 19        	cpx	$19                     ; 0x19 <__rc9>
    1ee2: d0 40        	bne	$1f24 <f256main+0x1524>
    1ee4: a6 12        	ldx	$12                     ; 0x12 <__rc2>
    1ee6: e4 18        	cpx	$18                     ; 0x18 <__rc8>
    1ee8: d0 3a        	bne	$1f24 <f256main+0x1524>
    1eea: 18           	clc
    1eeb: a5 14        	lda	$14                     ; 0x14 <__rc4>
    1eed: 69 46        	adc	#$46
    1eef: 85 12        	sta	$12                     ; 0x12 <__rc2>
    1ef1: a5 15        	lda	$15                     ; 0x15 <__rc5>
    1ef3: 69 00        	adc	#$0
    1ef5: a0 46        	ldy	#$46
    1ef7: 85 13        	sta	$13                     ; 0x13 <__rc3>
    1ef9: 18           	clc
    1efa: a5 1d        	lda	$1d                     ; 0x1d <__rc13>
    1efc: 91 14        	sta	($14),y                 ; 0x14 <__rc4>
    1efe: 85 1a        	sta	$1a                     ; 0x1a <__rc10>
    1f00: a5 14        	lda	$14                     ; 0x14 <__rc4>
    1f02: 69 44        	adc	#$44
    1f04: aa           	tax
    1f05: a5 15        	lda	$15                     ; 0x15 <__rc5>
    1f07: 69 00        	adc	#$0
    1f09: 86 18        	stx	$18                     ; 0x18 <__rc8>
    1f0b: 85 19        	sta	$19                     ; 0x19 <__rc9>
    1f0d: a0 44        	ldy	#$44
    1f0f: a5 1a        	lda	$1a                     ; 0x1a <__rc10>
    1f11: 91 14        	sta	($14),y                 ; 0x14 <__rc4>
    1f13: a0 01        	ldy	#$1
    1f15: a5 1c        	lda	$1c                     ; 0x1c <__rc12>
    1f17: 91 12        	sta	($12),y                 ; 0x12 <__rc2>
    1f19: 91 18        	sta	($18),y                 ; 0x18 <__rc8>
    1f1b: a6 1a        	ldx	$1a                     ; 0x1a <__rc10>
    1f1d: 86 8d        	stx	$8d                     ; 0x8d <_ZN12_GLOBAL__N_19free_listE>
    1f1f: 85 8e        	sta	$8e                     ; 0x8e <_ZN12_GLOBAL__N_19free_listE+0x1>
    1f21: 4c cd 1f     	jmp	$1fcd <f256main+0x15cd>
    1f24: a6 14        	ldx	$14                     ; 0x14 <__rc4>
    1f26: a5 14        	lda	$14                     ; 0x14 <__rc4>
    1f28: 86 22        	stx	$22                     ; 0x22 <__rc18>
    1f2a: 18           	clc
    1f2b: 69 44        	adc	#$44
    1f2d: 85 18        	sta	$18                     ; 0x18 <__rc8>
    1f2f: a5 15        	lda	$15                     ; 0x15 <__rc5>
    1f31: 69 00        	adc	#$0
    1f33: 85 19        	sta	$19                     ; 0x19 <__rc9>
    1f35: a0 44        	ldy	#$44
    1f37: a5 12        	lda	$12                     ; 0x12 <__rc2>
    1f39: 91 14        	sta	($14),y                 ; 0x14 <__rc4>
    1f3b: 85 1a        	sta	$1a                     ; 0x1a <__rc10>
    1f3d: a2 44        	ldx	#$44
    1f3f: 86 1e        	stx	$1e                     ; 0x1e <__rc14>
    1f41: a5 13        	lda	$13                     ; 0x13 <__rc3>
    1f43: a0 01        	ldy	#$1
    1f45: 91 18        	sta	($18),y                 ; 0x18 <__rc8>
    1f47: a2 01        	ldx	#$1
    1f49: 86 24        	stx	$24                     ; 0x24 <__rc20>
    1f4b: 18           	clc
    1f4c: a5 1a        	lda	$1a                     ; 0x1a <__rc10>
    1f4e: 69 04        	adc	#$4
    1f50: 85 1a        	sta	$1a                     ; 0x1a <__rc10>
    1f52: a5 13        	lda	$13                     ; 0x13 <__rc3>
    1f54: 69 00        	adc	#$0
    1f56: 85 1b        	sta	$1b                     ; 0x1b <__rc11>
    1f58: a0 04        	ldy	#$4
    1f5a: b1 12        	lda	($12),y                 ; 0x12 <__rc2>
    1f5c: 85 12        	sta	$12                     ; 0x12 <__rc2>
    1f5e: a2 04        	ldx	#$4
    1f60: 86 1f        	stx	$1f                     ; 0x1f <__rc15>
    1f62: a4 24        	ldy	$24                     ; 0x24 <__rc20>
    1f64: b1 1a        	lda	($1a),y                 ; 0x1a <__rc10>
    1f66: 85 1b        	sta	$1b                     ; 0x1b <__rc11>
    1f68: a0 46        	ldy	#$46
    1f6a: a5 12        	lda	$12                     ; 0x12 <__rc2>
    1f6c: 91 14        	sta	($14),y                 ; 0x14 <__rc4>
    1f6e: a6 12        	ldx	$12                     ; 0x12 <__rc2>
    1f70: 18           	clc
    1f71: a5 22        	lda	$22                     ; 0x22 <__rc18>
    1f73: 69 46        	adc	#$46
    1f75: 85 12        	sta	$12                     ; 0x12 <__rc2>
    1f77: a5 15        	lda	$15                     ; 0x15 <__rc5>
    1f79: 69 00        	adc	#$0
    1f7b: 85 13        	sta	$13                     ; 0x13 <__rc3>
    1f7d: 86 1a        	stx	$1a                     ; 0x1a <__rc10>
    1f7f: a5 1b        	lda	$1b                     ; 0x1b <__rc11>
    1f81: a4 24        	ldy	$24                     ; 0x24 <__rc20>
    1f83: 91 12        	sta	($12),y                 ; 0x12 <__rc2>
    1f85: a0 02        	ldy	#$2
    1f87: a5 1d        	lda	$1d                     ; 0x1d <__rc13>
    1f89: 91 1a        	sta	($1a),y                 ; 0x1a <__rc10>
    1f8b: 85 1a        	sta	$1a                     ; 0x1a <__rc10>
    1f8d: 18           	clc
    1f8e: 8a           	txa
    1f8f: 69 02        	adc	#$2
    1f91: 85 12        	sta	$12                     ; 0x12 <__rc2>
    1f93: a5 1b        	lda	$1b                     ; 0x1b <__rc11>
    1f95: 69 00        	adc	#$0
    1f97: 85 13        	sta	$13                     ; 0x13 <__rc3>
    1f99: a5 1c        	lda	$1c                     ; 0x1c <__rc12>
    1f9b: 88           	dey
    1f9c: 91 12        	sta	($12),y                 ; 0x12 <__rc2>
    1f9e: 84 13        	sty	$13                     ; 0x13 <__rc3>
    1fa0: a4 1e        	ldy	$1e                     ; 0x1e <__rc14>
    1fa2: b1 14        	lda	($14),y                 ; 0x14 <__rc4>
    1fa4: 85 12        	sta	$12                     ; 0x12 <__rc2>
    1fa6: 85 1b        	sta	$1b                     ; 0x1b <__rc11>
    1fa8: a4 13        	ldy	$13                     ; 0x13 <__rc3>
    1faa: b1 18        	lda	($18),y                 ; 0x18 <__rc8>
    1fac: a0 01        	ldy	#$1
    1fae: 84 18        	sty	$18                     ; 0x18 <__rc8>
    1fb0: 85 13        	sta	$13                     ; 0x13 <__rc3>
    1fb2: 85 19        	sta	$19                     ; 0x19 <__rc9>
    1fb4: a4 1f        	ldy	$1f                     ; 0x1f <__rc15>
    1fb6: a5 1a        	lda	$1a                     ; 0x1a <__rc10>
    1fb8: 91 12        	sta	($12),y                 ; 0x12 <__rc2>
    1fba: 18           	clc
    1fbb: a5 1b        	lda	$1b                     ; 0x1b <__rc11>
    1fbd: 69 04        	adc	#$4
    1fbf: 85 12        	sta	$12                     ; 0x12 <__rc2>
    1fc1: a5 19        	lda	$19                     ; 0x19 <__rc9>
    1fc3: 69 00        	adc	#$0
    1fc5: 85 13        	sta	$13                     ; 0x13 <__rc3>
    1fc7: a5 1c        	lda	$1c                     ; 0x1c <__rc12>
    1fc9: a4 18        	ldy	$18                     ; 0x18 <__rc8>
    1fcb: 91 12        	sta	($12),y                 ; 0x12 <__rc2>
    1fcd: a0 01        	ldy	#$1
    1fcf: 98           	tya
    1fd0: 32 14        	and	($14)                   ; 0x14 <__rc4>
    1fd2: a2 42        	ldx	#$42
    1fd4: 09 42        	ora	#$42
    1fd6: 92 14        	sta	($14)                   ; 0x14 <__rc4>
    1fd8: a9 00        	lda	#$0
    1fda: 91 14        	sta	($14),y                 ; 0x14 <__rc4>
    1fdc: 85 12        	sta	$12                     ; 0x12 <__rc2>
    1fde: 18           	clc
    1fdf: 8a           	txa
    1fe0: 65 14        	adc	$14                     ; 0x14 <__rc4>
    1fe2: aa           	tax
    1fe3: a5 15        	lda	$15                     ; 0x15 <__rc5>
    1fe5: 65 12        	adc	$12                     ; 0x12 <__rc2>
    1fe7: 85 13        	sta	$13                     ; 0x13 <__rc3>
    1fe9: c5 28        	cmp	$28                     ; 0x28 <__rc24>
    1feb: d0 09        	bne	$1ff6 <f256main+0x15f6>
    1fed: e4 27        	cpx	$27                     ; 0x27 <__rc23>
    1fef: d0 05        	bne	$1ff6 <f256main+0x15f6>
    1ff1: 9c fa 8a     	stz	$8afa                   ; 0x8afa <_ZN12_GLOBAL__N_19last_freeE>
    1ff4: 80 12        	bra	$2008 <f256main+0x1608>
    1ff6: 86 12        	stx	$12                     ; 0x12 <__rc2>
    1ff8: a0 01        	ldy	#$1
    1ffa: b1 12        	lda	($12),y                 ; 0x12 <__rc2>
    1ffc: 85 14        	sta	$14                     ; 0x14 <__rc4>
    1ffe: a9 fe        	lda	#$fe
    2000: 32 12        	and	($12)                   ; 0x12 <__rc2>
    2002: 92 12        	sta	($12)                   ; 0x12 <__rc2>
    2004: a5 14        	lda	$14                     ; 0x14 <__rc4>
    2006: 91 12        	sta	($12),y                 ; 0x12 <__rc2>
    2008: a6 16        	ldx	$16                     ; 0x16 <__rc6>
    200a: a4 17        	ldy	$17                     ; 0x17 <__rc7>
    200c: 8e c2 8a     	stx	$8ac2                   ; 0x8ac2 <myRecord.0>
    200f: 8c c3 8a     	sty	$8ac3                   ; 0x8ac3 <myRecord.0+0x1>
    2012: 64 26        	stz	$26                     ; 0x26 <__rc22>
    2014: 64 68        	stz	$68                     ; 0x68 <myRecord.2>
    2016: 64 69        	stz	$69                     ; 0x69 <myRecord.2+0x1>
    2018: 64 5c        	stz	$5c                     ; 0x5c <_col>
    201a: 9c 14 d0     	stz	$d014                   ; 0xd014 <__heap_start+0x4518>
    201d: 9c 15 d0     	stz	$d015                   ; 0xd015 <__heap_start+0x4519>
    2020: 64 5d        	stz	$5d                     ; 0x5d <_row>
    2022: 9c 16 d0     	stz	$d016                   ; 0xd016 <__heap_start+0x451a>
    2025: 9c 17 d0     	stz	$d017                   ; 0xd017 <__heap_start+0x451b>
    2028: a5 64        	lda	$64                     ; 0x64 <currentPal>
    202a: a0 01        	ldy	#$1
    202c: 0a           	asl
    202d: 85 12        	sta	$12                     ; 0x12 <__rc2>
    202f: a9 00        	lda	#$0
    2031: 2a           	rol
    2032: 85 13        	sta	$13                     ; 0x13 <__rc3>
    2034: a9 8e        	lda	#$8e
    2036: 18           	clc
    2037: 65 12        	adc	$12                     ; 0x12 <__rc2>
    2039: 85 12        	sta	$12                     ; 0x12 <__rc2>
    203b: a9 89        	lda	#$89
    203d: 65 13        	adc	$13                     ; 0x13 <__rc3>
    203f: 85 13        	sta	$13                     ; 0x13 <__rc3>
    2041: b2 12        	lda	($12)                   ; 0x12 <__rc2>
    2043: 85 14        	sta	$14                     ; 0x14 <__rc4>
    2045: b1 12        	lda	($12),y                 ; 0x12 <__rc2>
    2047: 85 12        	sta	$12                     ; 0x12 <__rc2>
    2049: a5 14        	lda	$14                     ; 0x14 <__rc4>
    204b: 92 10        	sta	($10)                   ; 0x10 <__rc0>
    204d: a5 12        	lda	$12                     ; 0x12 <__rc2>
    204f: 91 10        	sta	($10),y                 ; 0x10 <__rc0>
    2051: a2 01        	ldx	#$1
    2053: 86 2b        	stx	$2b                     ; 0x2b <__rc27>
    2055: a2 26        	ldx	#$26
    2057: 86 12        	stx	$12                     ; 0x12 <__rc2>
    2059: a2 89        	ldx	#$89
    205b: 86 13        	stx	$13                     ; 0x13 <__rc3>
    205d: 20 80 75     	jsr	$7580 <printf>
    2060: ae c2 8a     	ldx	$8ac2                   ; 0x8ac2 <myRecord.0>
    2063: ac c3 8a     	ldy	$8ac3                   ; 0x8ac3 <myRecord.0+0x1>
    2066: 86 29        	stx	$29                     ; 0x29 <__rc25>
    2068: 86 24        	stx	$24                     ; 0x24 <__rc20>
    206a: 84 2a        	sty	$2a                     ; 0x2a <__rc26>
    206c: 84 25        	sty	$25                     ; 0x25 <__rc21>
    206e: 86 12        	stx	$12                     ; 0x12 <__rc2>
    2070: 84 13        	sty	$13                     ; 0x13 <__rc3>
    2072: a2 52        	ldx	#$52
    2074: 86 14        	stx	$14                     ; 0x14 <__rc4>
    2076: a2 89        	ldx	#$89
    2078: 86 15        	stx	$15                     ; 0x15 <__rc5>
    207a: a9 11        	lda	#$11
    207c: a2 00        	ldx	#$0
    207e: 20 a4 84     	jsr	$84a4 <memcpy>
    2081: a4 2b        	ldy	$2b                     ; 0x2b <__rc27>
    2083: a6 24        	ldx	$24                     ; 0x24 <__rc20>
    2085: 86 12        	stx	$12                     ; 0x12 <__rc2>
    2087: a6 25        	ldx	$25                     ; 0x25 <__rc21>
    2089: 86 13        	stx	$13                     ; 0x13 <__rc3>
    208b: b1 12        	lda	($12),y                 ; 0x12 <__rc2>
    208d: e6 12        	inc	$12                     ; 0x12 <__rc2>
    208f: d0 02        	bne	$2093 <f256main+0x1693>
    2091: e6 13        	inc	$13                     ; 0x13 <__rc3>
    2093: aa           	tax
    2094: d0 f5        	bne	$208b <f256main+0x168b>
    2096: a2 2f        	ldx	#$2f
    2098: 86 12        	stx	$12                     ; 0x12 <__rc2>
    209a: a2 89        	ldx	#$89
    209c: 86 13        	stx	$13                     ; 0x13 <__rc3>
    209e: a2 00        	ldx	#$0
    20a0: 80 0a        	bra	$20ac <f256main+0x16ac>
    20a2: a0 02        	ldy	#$2
    20a4: e6 12        	inc	$12                     ; 0x12 <__rc2>
    20a6: d0 02        	bne	$20aa <f256main+0x16aa>
    20a8: e6 13        	inc	$13                     ; 0x13 <__rc3>
    20aa: 5a           	phy
    20ab: fa           	plx
    20ac: b2 12        	lda	($12)                   ; 0x12 <__rc2>
    20ae: c9 61        	cmp	#$61
    20b0: f0 f0        	beq	$20a2 <f256main+0x16a2>
    20b2: a0 01        	ldy	#$1
    20b4: c9 77        	cmp	#$77
    20b6: f0 05        	beq	$20bd <f256main+0x16bd>
    20b8: a8           	tay
    20b9: f0 08        	beq	$20c3 <f256main+0x16c3>
    20bb: da           	phx
    20bc: 7a           	ply
    20bd: e6 12        	inc	$12                     ; 0x12 <__rc2>
    20bf: f0 e7        	beq	$20a8 <f256main+0x16a8>
    20c1: 80 e7        	bra	$20aa <f256main+0x16aa>
    20c3: a4 29        	ldy	$29                     ; 0x29 <__rc25>
    20c5: 84 fb        	sty	$fb                     ; 0xfb <__bss_size+0x76>
    20c7: a4 2a        	ldy	$2a                     ; 0x2a <__rc26>
    20c9: 84 fc        	sty	$fc                     ; 0xfc <__bss_size+0x77>
    20cb: b2 24        	lda	($24)                   ; 0x24 <__rc20>
    20cd: f0 39        	beq	$2108 <f256main+0x1708>
    20cf: 64 12        	stz	$12                     ; 0x12 <__rc2>
    20d1: a0 01        	ldy	#$1
    20d3: 64 14        	stz	$14                     ; 0x14 <__rc4>
    20d5: 64 16        	stz	$16                     ; 0x16 <__rc6>
    20d7: 5a           	phy
    20d8: a4 12        	ldy	$12                     ; 0x12 <__rc2>
    20da: 84 13        	sty	$13                     ; 0x13 <__rc3>
    20dc: a5 29        	lda	$29                     ; 0x29 <__rc25>
    20de: 18           	clc
    20df: 65 12        	adc	$12                     ; 0x12 <__rc2>
    20e1: 85 12        	sta	$12                     ; 0x12 <__rc2>
    20e3: a5 2a        	lda	$2a                     ; 0x2a <__rc26>
    20e5: 65 14        	adc	$14                     ; 0x14 <__rc4>
    20e7: a4 12        	ldy	$12                     ; 0x12 <__rc2>
    20e9: 84 14        	sty	$14                     ; 0x14 <__rc4>
    20eb: 7a           	ply
    20ec: e6 13        	inc	$13                     ; 0x13 <__rc3>
    20ee: d0 02        	bne	$20f2 <f256main+0x16f2>
    20f0: e6 16        	inc	$16                     ; 0x16 <__rc6>
    20f2: 85 15        	sta	$15                     ; 0x15 <__rc5>
    20f4: b1 14        	lda	($14),y                 ; 0x14 <__rc4>
    20f6: 5a           	phy
    20f7: a4 13        	ldy	$13                     ; 0x13 <__rc3>
    20f9: 84 12        	sty	$12                     ; 0x12 <__rc2>
    20fb: a4 16        	ldy	$16                     ; 0x16 <__rc6>
    20fd: 84 14        	sty	$14                     ; 0x14 <__rc4>
    20ff: 7a           	ply
    2100: c9 00        	cmp	#$0
    2102: d0 d3        	bne	$20d7 <f256main+0x16d7>
    2104: a4 13        	ldy	$13                     ; 0x13 <__rc3>
    2106: 80 02        	bra	$210a <f256main+0x170a>
    2108: a0 00        	ldy	#$0
    210a: 84 fd        	sty	$fd                     ; 0xfd <__bss_size+0x78>
    210c: 64 f3        	stz	$f3                     ; 0xf3 <__bss_size+0x6e>
    210e: 86 f5        	stx	$f5                     ; 0xf5 <__bss_size+0x70>
    2110: 18           	clc
    2111: a5 10        	lda	$10                     ; 0x10 <__rc0>
    2113: 69 15        	adc	#$15
    2115: 85 2c        	sta	$2c                     ; 0x2c <__zp_data_size>
    2117: a5 11        	lda	$11                     ; 0x11 <__rc1>
    2119: 69 00        	adc	#$0
    211b: 85 2d        	sta	$2d                     ; 0x2d <__rc29>
    211d: a2 82        	ldx	#$82
    211f: 86 12        	stx	$12                     ; 0x12 <__rc2>
    2121: a2 00        	ldx	#$0
    2123: 86 13        	stx	$13                     ; 0x13 <__rc3>
    2125: 20 5c ff     	jsr	$ff5c <__heap_start+0x7460>
    2128: 92 2c        	sta	($2c)                   ; 0x2c <__zp_data_size>
    212a: a9 00        	lda	#$0
    212c: 6a           	ror
    212d: 85 12        	sta	$12                     ; 0x12 <__rc2>
    212f: a6 82        	ldx	$82                     ; 0x82 <kernelError>
    2131: f0 03        	beq	$2136 <f256main+0x1736>
    2133: 4c 5c 2a     	jmp	$2a5c <f256main+0x205c>
    2136: b2 2c        	lda	($2c)                   ; 0x2c <__zp_data_size>
    2138: 85 26        	sta	$26                     ; 0x26 <__rc22>
    213a: a2 82        	ldx	#$82
    213c: 86 12        	stx	$12                     ; 0x12 <__rc2>
    213e: a2 00        	ldx	#$0
    2140: 86 13        	stx	$13                     ; 0x13 <__rc3>
    2142: 64 83        	stz	$83                     ; 0x83 <kernelEventData>
    2144: 20 00 ff     	jsr	$ff00 <__heap_start+0x7404>
    2147: 92 2c        	sta	($2c)                   ; 0x2c <__zp_data_size>
    2149: a9 00        	lda	#$0
    214b: 6a           	ror
    214c: 85 12        	sta	$12                     ; 0x12 <__rc2>
    214e: a6 83        	ldx	$83                     ; 0x83 <kernelEventData>
    2150: e0 2a        	cpx	#$2a
    2152: f0 0e        	beq	$2162 <f256main+0x1762>
    2154: e0 28        	cpx	#$28
    2156: d0 03        	bne	$215b <f256main+0x175b>
    2158: 4c 5c 2a     	jmp	$2a5c <f256main+0x205c>
    215b: e0 38        	cpx	#$38
    215d: d0 e3        	bne	$2142 <f256main+0x1742>
    215f: 4c 5c 2a     	jmp	$2a5c <f256main+0x205c>
    2162: a5 8a        	lda	$8a                     ; 0x8a <_ZN12_GLOBAL__N_111initializedE>
    2164: 29 01        	and	#$1
    2166: a6 8d        	ldx	$8d                     ; 0x8d <_ZN12_GLOBAL__N_19free_listE>
    2168: a4 8e        	ldy	$8e                     ; 0x8e <_ZN12_GLOBAL__N_19free_listE+0x1>
    216a: 86 12        	stx	$12                     ; 0x12 <__rc2>
    216c: 84 13        	sty	$13                     ; 0x13 <__rc3>
    216e: c9 00        	cmp	#$0
    2170: f0 03        	beq	$2175 <f256main+0x1775>
    2172: 4c 8e 22     	jmp	$228e <f256main+0x188e>
    2175: 86 16        	stx	$16                     ; 0x16 <__rc6>
    2177: a2 10        	ldx	#$10
    2179: 86 14        	stx	$14                     ; 0x14 <__rc4>
    217b: a9 00        	lda	#$0
    217d: 29 fe        	and	#$fe
    217f: 85 15        	sta	$15                     ; 0x15 <__rc5>
    2181: a9 01        	lda	#$1
    2183: 2d fc 8a     	and	$8afc                   ; 0x8afc <__heap_start>
    2186: 05 15        	ora	$15                     ; 0x15 <__rc5>
    2188: 8d fc 8a     	sta	$8afc                   ; 0x8afc <__heap_start>
    218b: 8e fd 8a     	stx	$8afd                   ; 0x8afd <__heap_start+0x1>
    218e: a9 fc        	lda	#$fc
    2190: 18           	clc
    2191: 65 15        	adc	$15                     ; 0x15 <__rc5>
    2193: aa           	tax
    2194: a9 8a        	lda	#$8a
    2196: 65 14        	adc	$14                     ; 0x14 <__rc4>
    2198: 85 14        	sta	$14                     ; 0x14 <__rc4>
    219a: 18           	clc
    219b: 8a           	txa
    219c: 69 fe        	adc	#$fe
    219e: aa           	tax
    219f: a5 14        	lda	$14                     ; 0x14 <__rc4>
    21a1: 69 ff        	adc	#$ff
    21a3: 85 15        	sta	$15                     ; 0x15 <__rc5>
    21a5: 86 14        	stx	$14                     ; 0x14 <__rc4>
    21a7: a9 00        	lda	#$0
    21a9: 92 14        	sta	($14)                   ; 0x14 <__rc4>
    21ab: 5a           	phy
    21ac: fa           	plx
    21ad: a0 01        	ldy	#$1
    21af: a9 10        	lda	#$10
    21b1: 91 14        	sta	($14),y                 ; 0x14 <__rc4>
    21b3: ac fd 8a     	ldy	$8afd                   ; 0x8afd <__heap_start+0x1>
    21b6: 84 19        	sty	$19                     ; 0x19 <__rc9>
    21b8: a9 fe        	lda	#$fe
    21ba: 2d fc 8a     	and	$8afc                   ; 0x8afc <__heap_start>
    21bd: a4 8c        	ldy	$8c                     ; 0x8c <_ZN12_GLOBAL__N_19free_sizeE+0x1>
    21bf: 84 14        	sty	$14                     ; 0x14 <__rc4>
    21c1: 85 18        	sta	$18                     ; 0x18 <__rc8>
    21c3: 18           	clc
    21c4: 65 8b        	adc	$8b                     ; 0x8b <_ZN12_GLOBAL__N_19free_sizeE>
    21c6: a8           	tay
    21c7: a5 14        	lda	$14                     ; 0x14 <__rc4>
    21c9: 6d fd 8a     	adc	$8afd                   ; 0x8afd <__heap_start+0x1>
    21cc: 85 14        	sta	$14                     ; 0x14 <__rc4>
    21ce: 18           	clc
    21cf: 98           	tya
    21d0: 69 fe        	adc	#$fe
    21d2: 85 15        	sta	$15                     ; 0x15 <__rc5>
    21d4: a5 14        	lda	$14                     ; 0x14 <__rc4>
    21d6: 69 ff        	adc	#$ff
    21d8: a4 15        	ldy	$15                     ; 0x15 <__rc5>
    21da: 84 8b        	sty	$8b                     ; 0x8b <_ZN12_GLOBAL__N_19free_sizeE>
    21dc: 85 8c        	sta	$8c                     ; 0x8c <_ZN12_GLOBAL__N_19free_sizeE+0x1>
    21de: a0 00        	ldy	#$0
    21e0: 84 14        	sty	$14                     ; 0x14 <__rc4>
    21e2: a0 00        	ldy	#$0
    21e4: 84 15        	sty	$15                     ; 0x15 <__rc5>
    21e6: 8a           	txa
    21e7: e4 15        	cpx	$15                     ; 0x15 <__rc5>
    21e9: d0 25        	bne	$2210 <f256main+0x1810>
    21eb: a6 16        	ldx	$16                     ; 0x16 <__rc6>
    21ed: e4 14        	cpx	$14                     ; 0x14 <__rc4>
    21ef: d0 1f        	bne	$2210 <f256main+0x1810>
    21f1: a2 fc        	ldx	#$fc
    21f3: a9 8a        	lda	#$8a
    21f5: a0 fc        	ldy	#$fc
    21f7: 84 12        	sty	$12                     ; 0x12 <__rc2>
    21f9: a0 8a        	ldy	#$8a
    21fb: 84 13        	sty	$13                     ; 0x13 <__rc3>
    21fd: 8e 00 8b     	stx	$8b00                   ; 0x8b00 <__heap_start+0x4>
    2200: 8d 01 8b     	sta	$8b01                   ; 0x8b01 <__heap_start+0x5>
    2203: 8e fe 8a     	stx	$8afe                   ; 0x8afe <__heap_start+0x2>
    2206: 8d ff 8a     	sta	$8aff                   ; 0x8aff <__heap_start+0x3>
    2209: 86 8d        	stx	$8d                     ; 0x8d <_ZN12_GLOBAL__N_19free_listE>
    220b: 85 8e        	sta	$8e                     ; 0x8e <_ZN12_GLOBAL__N_19free_listE+0x1>
    220d: 4c 7d 22     	jmp	$227d <f256main+0x187d>
    2210: a6 16        	ldx	$16                     ; 0x16 <__rc6>
    2212: 8e fe 8a     	stx	$8afe                   ; 0x8afe <__heap_start+0x2>
    2215: 8d ff 8a     	sta	$8aff                   ; 0x8aff <__heap_start+0x3>
    2218: 85 15        	sta	$15                     ; 0x15 <__rc5>
    221a: a0 04        	ldy	#$4
    221c: 18           	clc
    221d: a5 16        	lda	$16                     ; 0x16 <__rc6>
    221f: 69 04        	adc	#$4
    2221: 85 14        	sta	$14                     ; 0x14 <__rc4>
    2223: a5 15        	lda	$15                     ; 0x15 <__rc5>
    2225: 69 00        	adc	#$0
    2227: 85 15        	sta	$15                     ; 0x15 <__rc5>
    2229: b1 12        	lda	($12),y                 ; 0x12 <__rc2>
    222b: 85 16        	sta	$16                     ; 0x16 <__rc6>
    222d: a2 04        	ldx	#$4
    222f: 86 1a        	stx	$1a                     ; 0x1a <__rc10>
    2231: a0 01        	ldy	#$1
    2233: b1 14        	lda	($14),y                 ; 0x14 <__rc4>
    2235: aa           	tax
    2236: 84 1b        	sty	$1b                     ; 0x1b <__rc11>
    2238: a5 16        	lda	$16                     ; 0x16 <__rc6>
    223a: 85 14        	sta	$14                     ; 0x14 <__rc4>
    223c: 86 15        	stx	$15                     ; 0x15 <__rc5>
    223e: 8d 00 8b     	sta	$8b00                   ; 0x8b00 <__heap_start+0x4>
    2241: 8e 01 8b     	stx	$8b01                   ; 0x8b01 <__heap_start+0x5>
    2244: 18           	clc
    2245: 69 02        	adc	#$2
    2247: 85 16        	sta	$16                     ; 0x16 <__rc6>
    2249: 8a           	txa
    224a: 69 00        	adc	#$0
    224c: 85 17        	sta	$17                     ; 0x17 <__rc7>
    224e: a9 fc        	lda	#$fc
    2250: c8           	iny
    2251: 91 14        	sta	($14),y                 ; 0x14 <__rc4>
    2253: a9 8a        	lda	#$8a
    2255: a4 1b        	ldy	$1b                     ; 0x1b <__rc11>
    2257: 91 16        	sta	($16),y                 ; 0x16 <__rc6>
    2259: ae fe 8a     	ldx	$8afe                   ; 0x8afe <__heap_start+0x2>
    225c: ac ff 8a     	ldy	$8aff                   ; 0x8aff <__heap_start+0x3>
    225f: 86 14        	stx	$14                     ; 0x14 <__rc4>
    2261: 84 15        	sty	$15                     ; 0x15 <__rc5>
    2263: 84 17        	sty	$17                     ; 0x17 <__rc7>
    2265: a4 1a        	ldy	$1a                     ; 0x1a <__rc10>
    2267: a9 fc        	lda	#$fc
    2269: 91 14        	sta	($14),y                 ; 0x14 <__rc4>
    226b: 18           	clc
    226c: 8a           	txa
    226d: 69 04        	adc	#$4
    226f: 85 14        	sta	$14                     ; 0x14 <__rc4>
    2271: a5 17        	lda	$17                     ; 0x17 <__rc7>
    2273: 69 00        	adc	#$0
    2275: 85 15        	sta	$15                     ; 0x15 <__rc5>
    2277: a9 8a        	lda	#$8a
    2279: a4 1b        	ldy	$1b                     ; 0x1b <__rc11>
    227b: 91 14        	sta	($14),y                 ; 0x14 <__rc4>
    227d: a6 19        	ldx	$19                     ; 0x19 <__rc9>
    227f: a4 18        	ldy	$18                     ; 0x18 <__rc8>
    2281: 8c fc 8a     	sty	$8afc                   ; 0x8afc <__heap_start>
    2284: 8e fd 8a     	stx	$8afd                   ; 0x8afd <__heap_start+0x1>
    2287: a2 01        	ldx	#$1
    2289: 8e fa 8a     	stx	$8afa                   ; 0x8afa <_ZN12_GLOBAL__N_19last_freeE>
    228c: 86 8a        	stx	$8a                     ; 0x8a <_ZN12_GLOBAL__N_111initializedE>
    228e: a0 01        	ldy	#$1
    2290: a6 12        	ldx	$12                     ; 0x12 <__rc2>
    2292: 86 24        	stx	$24                     ; 0x24 <__rc20>
    2294: a6 13        	ldx	$13                     ; 0x13 <__rc3>
    2296: 86 25        	stx	$25                     ; 0x25 <__rc21>
    2298: 80 1d        	bra	$22b7 <f256main+0x18b7>
    229a: c9 00        	cmp	#$0
    229c: 8a           	txa
    229d: b0 26        	bcs	$22c5 <f256main+0x18c5>
    229f: a5 24        	lda	$24                     ; 0x24 <__rc20>
    22a1: 18           	clc
    22a2: 69 02        	adc	#$2
    22a4: 85 14        	sta	$14                     ; 0x14 <__rc4>
    22a6: a5 25        	lda	$25                     ; 0x25 <__rc21>
    22a8: 69 00        	adc	#$0
    22aa: 85 15        	sta	$15                     ; 0x15 <__rc5>
    22ac: a0 02        	ldy	#$2
    22ae: b1 24        	lda	($24),y                 ; 0x24 <__rc20>
    22b0: 85 24        	sta	$24                     ; 0x24 <__rc20>
    22b2: 88           	dey
    22b3: b1 14        	lda	($14),y                 ; 0x14 <__rc4>
    22b5: 85 25        	sta	$25                     ; 0x25 <__rc21>
    22b7: b2 24        	lda	($24)                   ; 0x24 <__rc20>
    22b9: aa           	tax
    22ba: b1 24        	lda	($24),y                 ; 0x24 <__rc20>
    22bc: 85 14        	sta	$14                     ; 0x14 <__rc4>
    22be: d0 da        	bne	$229a <f256main+0x189a>
    22c0: 8a           	txa
    22c1: e0 08        	cpx	#$8
    22c3: 90 da        	bcc	$229f <f256main+0x189f>
    22c5: 29 fe        	and	#$fe
    22c7: 85 15        	sta	$15                     ; 0x15 <__rc5>
    22c9: a5 8b        	lda	$8b                     ; 0x8b <_ZN12_GLOBAL__N_19free_sizeE>
    22cb: a6 8c        	ldx	$8c                     ; 0x8c <_ZN12_GLOBAL__N_19free_sizeE+0x1>
    22cd: 86 16        	stx	$16                     ; 0x16 <__rc6>
    22cf: 38           	sec
    22d0: e5 15        	sbc	$15                     ; 0x15 <__rc5>
    22d2: aa           	tax
    22d3: a5 16        	lda	$16                     ; 0x16 <__rc6>
    22d5: e5 14        	sbc	$14                     ; 0x14 <__rc4>
    22d7: 85 14        	sta	$14                     ; 0x14 <__rc4>
    22d9: 18           	clc
    22da: 8a           	txa
    22db: 69 02        	adc	#$2
    22dd: 85 15        	sta	$15                     ; 0x15 <__rc5>
    22df: a5 14        	lda	$14                     ; 0x14 <__rc4>
    22e1: 69 00        	adc	#$0
    22e3: a6 15        	ldx	$15                     ; 0x15 <__rc5>
    22e5: 86 8b        	stx	$8b                     ; 0x8b <_ZN12_GLOBAL__N_19free_sizeE>
    22e7: 85 8c        	sta	$8c                     ; 0x8c <_ZN12_GLOBAL__N_19free_sizeE+0x1>
    22e9: a0 02        	ldy	#$2
    22eb: a5 24        	lda	$24                     ; 0x24 <__rc20>
    22ed: 18           	clc
    22ee: 69 02        	adc	#$2
    22f0: 85 14        	sta	$14                     ; 0x14 <__rc4>
    22f2: a5 25        	lda	$25                     ; 0x25 <__rc21>
    22f4: 69 00        	adc	#$0
    22f6: 85 15        	sta	$15                     ; 0x15 <__rc5>
    22f8: b1 24        	lda	($24),y                 ; 0x24 <__rc20>
    22fa: aa           	tax
    22fb: 88           	dey
    22fc: b1 14        	lda	($14),y                 ; 0x14 <__rc4>
    22fe: 85 19        	sta	$19                     ; 0x19 <__rc9>
    2300: c5 25        	cmp	$25                     ; 0x25 <__rc21>
    2302: d0 0f        	bne	$2313 <f256main+0x1913>
    2304: e4 24        	cpx	$24                     ; 0x24 <__rc20>
    2306: d0 0b        	bne	$2313 <f256main+0x1913>
    2308: a2 00        	ldx	#$0
    230a: 86 14        	stx	$14                     ; 0x14 <__rc4>
    230c: a2 00        	ldx	#$0
    230e: 86 15        	stx	$15                     ; 0x15 <__rc5>
    2310: 4c 9d 23     	jmp	$239d <f256main+0x199d>
    2313: 86 18        	stx	$18                     ; 0x18 <__rc8>
    2315: a6 24        	ldx	$24                     ; 0x24 <__rc20>
    2317: a5 24        	lda	$24                     ; 0x24 <__rc20>
    2319: 86 1c        	stx	$1c                     ; 0x1c <__rc12>
    231b: 18           	clc
    231c: 69 04        	adc	#$4
    231e: 85 14        	sta	$14                     ; 0x14 <__rc4>
    2320: a5 25        	lda	$25                     ; 0x25 <__rc21>
    2322: 69 00        	adc	#$0
    2324: a0 04        	ldy	#$4
    2326: 85 15        	sta	$15                     ; 0x15 <__rc5>
    2328: b1 24        	lda	($24),y                 ; 0x24 <__rc20>
    232a: 85 1d        	sta	$1d                     ; 0x1d <__rc13>
    232c: a2 04        	ldx	#$4
    232e: 86 1a        	stx	$1a                     ; 0x1a <__rc10>
    2330: 18           	clc
    2331: 69 02        	adc	#$2
    2333: 85 16        	sta	$16                     ; 0x16 <__rc6>
    2335: a0 01        	ldy	#$1
    2337: b1 14        	lda	($14),y                 ; 0x14 <__rc4>
    2339: aa           	tax
    233a: 84 1e        	sty	$1e                     ; 0x1e <__rc14>
    233c: 69 00        	adc	#$0
    233e: a4 16        	ldy	$16                     ; 0x16 <__rc6>
    2340: 84 14        	sty	$14                     ; 0x14 <__rc4>
    2342: 85 15        	sta	$15                     ; 0x15 <__rc5>
    2344: a4 1d        	ldy	$1d                     ; 0x1d <__rc13>
    2346: 84 16        	sty	$16                     ; 0x16 <__rc6>
    2348: 86 17        	stx	$17                     ; 0x17 <__rc7>
    234a: a5 18        	lda	$18                     ; 0x18 <__rc8>
    234c: a0 02        	ldy	#$2
    234e: 91 16        	sta	($16),y                 ; 0x16 <__rc6>
    2350: 84 16        	sty	$16                     ; 0x16 <__rc6>
    2352: a5 19        	lda	$19                     ; 0x19 <__rc9>
    2354: a4 1e        	ldy	$1e                     ; 0x1e <__rc14>
    2356: 91 14        	sta	($14),y                 ; 0x14 <__rc4>
    2358: 18           	clc
    2359: a5 1c        	lda	$1c                     ; 0x1c <__rc12>
    235b: 69 02        	adc	#$2
    235d: 85 14        	sta	$14                     ; 0x14 <__rc4>
    235f: a5 25        	lda	$25                     ; 0x25 <__rc21>
    2361: 69 00        	adc	#$0
    2363: 85 15        	sta	$15                     ; 0x15 <__rc5>
    2365: a4 16        	ldy	$16                     ; 0x16 <__rc6>
    2367: b1 24        	lda	($24),y                 ; 0x24 <__rc20>
    2369: 85 16        	sta	$16                     ; 0x16 <__rc6>
    236b: a4 1e        	ldy	$1e                     ; 0x1e <__rc14>
    236d: b1 14        	lda	($14),y                 ; 0x14 <__rc4>
    236f: 84 18        	sty	$18                     ; 0x18 <__rc8>
    2371: a4 16        	ldy	$16                     ; 0x16 <__rc6>
    2373: 84 14        	sty	$14                     ; 0x14 <__rc4>
    2375: 85 15        	sta	$15                     ; 0x15 <__rc5>
    2377: 85 17        	sta	$17                     ; 0x17 <__rc7>
    2379: a4 1a        	ldy	$1a                     ; 0x1a <__rc10>
    237b: a5 1d        	lda	$1d                     ; 0x1d <__rc13>
    237d: 91 14        	sta	($14),y                 ; 0x14 <__rc4>
    237f: 18           	clc
    2380: a5 16        	lda	$16                     ; 0x16 <__rc6>
    2382: 69 04        	adc	#$4
    2384: 85 16        	sta	$16                     ; 0x16 <__rc6>
    2386: a5 17        	lda	$17                     ; 0x17 <__rc7>
    2388: 69 00        	adc	#$0
    238a: 85 17        	sta	$17                     ; 0x17 <__rc7>
    238c: 8a           	txa
    238d: a4 18        	ldy	$18                     ; 0x18 <__rc8>
    238f: 91 16        	sta	($16),y                 ; 0x16 <__rc6>
    2391: a6 13        	ldx	$13                     ; 0x13 <__rc3>
    2393: e4 25        	cpx	$25                     ; 0x25 <__rc21>
    2395: d0 0e        	bne	$23a5 <f256main+0x19a5>
    2397: a6 12        	ldx	$12                     ; 0x12 <__rc2>
    2399: e4 24        	cpx	$24                     ; 0x24 <__rc20>
    239b: d0 08        	bne	$23a5 <f256main+0x19a5>
    239d: a6 14        	ldx	$14                     ; 0x14 <__rc4>
    239f: a4 15        	ldy	$15                     ; 0x15 <__rc5>
    23a1: 86 8d        	stx	$8d                     ; 0x8d <_ZN12_GLOBAL__N_19free_listE>
    23a3: 84 8e        	sty	$8e                     ; 0x8e <_ZN12_GLOBAL__N_19free_listE+0x1>
    23a5: a0 01        	ldy	#$1
    23a7: b1 24        	lda	($24),y                 ; 0x24 <__rc20>
    23a9: 85 12        	sta	$12                     ; 0x12 <__rc2>
    23ab: a9 fe        	lda	#$fe
    23ad: 32 24        	and	($24)                   ; 0x24 <__rc20>
    23af: 18           	clc
    23b0: aa           	tax
    23b1: 69 f8        	adc	#$f8
    23b3: a8           	tay
    23b4: a5 12        	lda	$12                     ; 0x12 <__rc2>
    23b6: 69 ff        	adc	#$ff
    23b8: f0 03        	beq	$23bd <f256main+0x19bd>
    23ba: 4c 0a 26     	jmp	$260a <f256main+0x1c0a>
    23bd: 85 14        	sta	$14                     ; 0x14 <__rc4>
    23bf: c0 08        	cpy	#$8
    23c1: 90 24        	bcc	$23e7 <f256main+0x19e7>
    23c3: a5 24        	lda	$24                     ; 0x24 <__rc20>
    23c5: 18           	clc
    23c6: 69 08        	adc	#$8
    23c8: 85 12        	sta	$12                     ; 0x12 <__rc2>
    23ca: a5 25        	lda	$25                     ; 0x25 <__rc21>
    23cc: 69 00        	adc	#$0
    23ce: 85 13        	sta	$13                     ; 0x13 <__rc3>
    23d0: a6 14        	ldx	$14                     ; 0x14 <__rc4>
    23d2: 98           	tya
    23d3: 20 44 03     	jsr	$344 <_ZN12_GLOBAL__N_19FreeChunk6insertEPvj>
    23d6: a0 01        	ldy	#$1
    23d8: 98           	tya
    23d9: 32 24        	and	($24)                   ; 0x24 <__rc20>
    23db: 09 08        	ora	#$8
    23dd: 92 24        	sta	($24)                   ; 0x24 <__rc20>
    23df: a2 08        	ldx	#$8
    23e1: 64 12        	stz	$12                     ; 0x12 <__rc2>
    23e3: a9 00        	lda	#$0
    23e5: 91 24        	sta	($24),y                 ; 0x24 <__rc20>
    23e7: 18           	clc
    23e8: 8a           	txa
    23e9: 65 24        	adc	$24                     ; 0x24 <__rc20>
    23eb: aa           	tax
    23ec: a5 12        	lda	$12                     ; 0x12 <__rc2>
    23ee: 65 25        	adc	$25                     ; 0x25 <__rc21>
    23f0: 85 13        	sta	$13                     ; 0x13 <__rc3>
    23f2: c5 28        	cmp	$28                     ; 0x28 <__rc24>
    23f4: d0 09        	bne	$23ff <f256main+0x19ff>
    23f6: e4 27        	cpx	$27                     ; 0x27 <__rc23>
    23f8: d0 05        	bne	$23ff <f256main+0x19ff>
    23fa: 9c fa 8a     	stz	$8afa                   ; 0x8afa <_ZN12_GLOBAL__N_19last_freeE>
    23fd: 80 12        	bra	$2411 <f256main+0x1a11>
    23ff: 86 12        	stx	$12                     ; 0x12 <__rc2>
    2401: a0 01        	ldy	#$1
    2403: b1 12        	lda	($12),y                 ; 0x12 <__rc2>
    2405: 85 14        	sta	$14                     ; 0x14 <__rc4>
    2407: a9 fe        	lda	#$fe
    2409: 32 12        	and	($12)                   ; 0x12 <__rc2>
    240b: 92 12        	sta	($12)                   ; 0x12 <__rc2>
    240d: a5 14        	lda	$14                     ; 0x14 <__rc4>
    240f: 91 12        	sta	($12),y                 ; 0x12 <__rc2>
    2411: a0 02        	ldy	#$2
    2413: a5 26        	lda	$26                     ; 0x26 <__rc22>
    2415: 91 24        	sta	($24),y                 ; 0x24 <__rc20>
    2417: 64 1a        	stz	$1a                     ; 0x1a <__rc10>
    2419: 64 1b        	stz	$1b                     ; 0x1b <__rc11>
    241b: 64 1c        	stz	$1c                     ; 0x1c <__rc12>
    241d: 64 1d        	stz	$1d                     ; 0x1d <__rc13>
    241f: 64 12        	stz	$12                     ; 0x12 <__rc2>
    2421: 64 13        	stz	$13                     ; 0x13 <__rc3>
    2423: a0 02        	ldy	#$2
    2425: b1 24        	lda	($24),y                 ; 0x24 <__rc20>
    2427: aa           	tax
    2428: 18           	clc
    2429: a5 10        	lda	$10                     ; 0x10 <__rc0>
    242b: 69 15        	adc	#$15
    242d: 48           	pha
    242e: a5 11        	lda	$11                     ; 0x11 <__rc1>
    2430: 69 00        	adc	#$0
    2432: a8           	tay
    2433: 68           	pla
    2434: 18           	clc
    2435: 65 12        	adc	$12                     ; 0x12 <__rc2>
    2437: 85 14        	sta	$14                     ; 0x14 <__rc4>
    2439: 98           	tya
    243a: 65 13        	adc	$13                     ; 0x13 <__rc3>
    243c: e0 00        	cpx	#$0
    243e: d0 03        	bne	$2443 <f256main+0x1a43>
    2440: 4c cc 24     	jmp	$24cc <f256main+0x1acc>
    2443: a4 14        	ldy	$14                     ; 0x14 <__rc4>
    2445: 84 1e        	sty	$1e                     ; 0x1e <__rc14>
    2447: 85 19        	sta	$19                     ; 0x19 <__rc9>
    2449: a9 fa        	lda	#$fa
    244b: 38           	sec
    244c: e5 12        	sbc	$12                     ; 0x12 <__rc2>
    244e: 86 f3        	stx	$f3                     ; 0xf3 <__bss_size+0x6e>
    2450: 85 f4        	sta	$f4                     ; 0xf4 <__bss_size+0x6f>
    2452: 18           	clc
    2453: a5 10        	lda	$10                     ; 0x10 <__rc0>
    2455: 69 14        	adc	#$14
    2457: 85 14        	sta	$14                     ; 0x14 <__rc4>
    2459: a5 11        	lda	$11                     ; 0x11 <__rc1>
    245b: 69 01        	adc	#$1
    245d: 85 15        	sta	$15                     ; 0x15 <__rc5>
    245f: a2 82        	ldx	#$82
    2461: 86 16        	stx	$16                     ; 0x16 <__rc6>
    2463: a2 00        	ldx	#$0
    2465: 86 17        	stx	$17                     ; 0x17 <__rc7>
    2467: 20 60 ff     	jsr	$ff60 <__heap_start+0x7464>
    246a: 92 14        	sta	($14)                   ; 0x14 <__rc4>
    246c: a9 00        	lda	#$0
    246e: 6a           	ror
    246f: 85 16        	sta	$16                     ; 0x16 <__rc6>
    2471: a6 82        	ldx	$82                     ; 0x82 <kernelError>
    2473: a0 ff        	ldy	#$ff
    2475: 8a           	txa
    2476: f0 03        	beq	$247b <f256main+0x1a7b>
    2478: 4c 16 26     	jmp	$2616 <f256main+0x1c16>
    247b: a2 ff        	ldx	#$ff
    247d: 86 18        	stx	$18                     ; 0x18 <__rc8>
    247f: 64 83        	stz	$83                     ; 0x83 <kernelEventData>
    2481: a2 82        	ldx	#$82
    2483: 86 16        	stx	$16                     ; 0x16 <__rc6>
    2485: a2 00        	ldx	#$0
    2487: 86 17        	stx	$17                     ; 0x17 <__rc7>
    2489: 20 00 ff     	jsr	$ff00 <__heap_start+0x7404>
    248c: 92 14        	sta	($14)                   ; 0x14 <__rc4>
    248e: a9 00        	lda	#$0
    2490: 6a           	ror
    2491: 85 16        	sta	$16                     ; 0x16 <__rc6>
    2493: a6 83        	ldx	$83                     ; 0x83 <kernelEventData>
    2495: e0 38        	cpx	#$38
    2497: d0 03        	bne	$249c <f256main+0x1a9c>
    2499: 4c 2b 25     	jmp	$252b <f256main+0x1b2b>
    249c: e0 30        	cpx	#$30
    249e: d0 03        	bne	$24a3 <f256main+0x1aa3>
    24a0: 4c 33 25     	jmp	$2533 <f256main+0x1b33>
    24a3: e0 2c        	cpx	#$2c
    24a5: d0 d4        	bne	$247b <f256main+0x1a7b>
    24a7: a6 1e        	ldx	$1e                     ; 0x1e <__rc14>
    24a9: 86 fb        	stx	$fb                     ; 0xfb <__bss_size+0x76>
    24ab: a6 19        	ldx	$19                     ; 0x19 <__rc9>
    24ad: 86 fc        	stx	$fc                     ; 0xfc <__bss_size+0x77>
    24af: a6 89        	ldx	$89                     ; 0x89 <kernelEventData+0x6>
    24b1: 86 fd        	stx	$fd                     ; 0xfd <__bss_size+0x78>
    24b3: a2 82        	ldx	#$82
    24b5: 86 16        	stx	$16                     ; 0x16 <__rc6>
    24b7: a2 00        	ldx	#$0
    24b9: 86 17        	stx	$17                     ; 0x17 <__rc7>
    24bb: 20 04 ff     	jsr	$ff04 <__heap_start+0x7408>
    24be: 92 14        	sta	($14)                   ; 0x14 <__rc4>
    24c0: a9 00        	lda	#$0
    24c2: 6a           	ror
    24c3: 85 16        	sta	$16                     ; 0x16 <__rc6>
    24c5: a5 89        	lda	$89                     ; 0x89 <kernelEventData+0x6>
    24c7: d0 46        	bne	$250f <f256main+0x1b0f>
    24c9: 4c 03 26     	jmp	$2603 <f256main+0x1c03>
    24cc: 85 15        	sta	$15                     ; 0x15 <__rc5>
    24ce: 80 0a        	bra	$24da <f256main+0x1ada>
    24d0: 20 0c ff     	jsr	$ff0c <__heap_start+0x7410>
    24d3: 92 16        	sta	($16)                   ; 0x16 <__rc6>
    24d5: a9 00        	lda	#$0
    24d7: 6a           	ror
    24d8: 85 18        	sta	$18                     ; 0x18 <__rc8>
    24da: 64 83        	stz	$83                     ; 0x83 <kernelEventData>
    24dc: 18           	clc
    24dd: a5 10        	lda	$10                     ; 0x10 <__rc0>
    24df: 69 14        	adc	#$14
    24e1: 85 16        	sta	$16                     ; 0x16 <__rc6>
    24e3: a5 11        	lda	$11                     ; 0x11 <__rc1>
    24e5: 69 01        	adc	#$1
    24e7: 85 17        	sta	$17                     ; 0x17 <__rc7>
    24e9: a2 82        	ldx	#$82
    24eb: 86 18        	stx	$18                     ; 0x18 <__rc8>
    24ed: a2 00        	ldx	#$0
    24ef: 86 19        	stx	$19                     ; 0x19 <__rc9>
    24f1: 20 00 ff     	jsr	$ff00 <__heap_start+0x7404>
    24f4: 92 16        	sta	($16)                   ; 0x16 <__rc6>
    24f6: a9 00        	lda	#$0
    24f8: 6a           	ror
    24f9: 85 18        	sta	$18                     ; 0x18 <__rc8>
    24fb: a6 82        	ldx	$82                     ; 0x82 <kernelError>
    24fd: d0 d1        	bne	$24d0 <f256main+0x1ad0>
    24ff: a6 83        	ldx	$83                     ; 0x83 <kernelEventData>
    2501: e0 08        	cpx	#$8
    2503: d0 d5        	bne	$24da <f256main+0x1ada>
    2505: a6 89        	ldx	$89                     ; 0x89 <kernelEventData+0x6>
    2507: d0 d1        	bne	$24da <f256main+0x1ada>
    2509: a5 88        	lda	$88                     ; 0x88 <kernelEventData+0x5>
    250b: 92 14        	sta	($14)                   ; 0x14 <__rc4>
    250d: a9 01        	lda	#$1
    250f: a2 00        	ldx	#$0
    2511: 18           	clc
    2512: 65 12        	adc	$12                     ; 0x12 <__rc2>
    2514: a8           	tay
    2515: 8a           	txa
    2516: 65 13        	adc	$13                     ; 0x13 <__rc3>
    2518: d0 04        	bne	$251e <f256main+0x1b1e>
    251a: c0 fa        	cpy	#$fa
    251c: 80 02        	bra	$2520 <f256main+0x1b20>
    251e: c9 00        	cmp	#$0
    2520: 84 12        	sty	$12                     ; 0x12 <__rc2>
    2522: 85 19        	sta	$19                     ; 0x19 <__rc9>
    2524: 85 13        	sta	$13                     ; 0x13 <__rc3>
    2526: b0 16        	bcs	$253e <f256main+0x1b3e>
    2528: 4c 23 24     	jmp	$2423 <f256main+0x1a23>
    252b: a2 ff        	ldx	#$ff
    252d: 86 19        	stx	$19                     ; 0x19 <__rc9>
    252f: a4 18        	ldy	$18                     ; 0x18 <__rc8>
    2531: 80 0b        	bra	$253e <f256main+0x1b3e>
    2533: a4 12        	ldy	$12                     ; 0x12 <__rc2>
    2535: a6 13        	ldx	$13                     ; 0x13 <__rc3>
    2537: 86 19        	stx	$19                     ; 0x19 <__rc9>
    2539: d0 03        	bne	$253e <f256main+0x1b3e>
    253b: 4c 1d 26     	jmp	$261d <f256main+0x1c1d>
    253e: 84 16        	sty	$16                     ; 0x16 <__rc6>
    2540: 64 12        	stz	$12                     ; 0x12 <__rc2>
    2542: 64 13        	stz	$13                     ; 0x13 <__rc3>
    2544: a5 1a        	lda	$1a                     ; 0x1a <__rc10>
    2546: a2 00        	ldx	#$0
    2548: 18           	clc
    2549: 65 12        	adc	$12                     ; 0x12 <__rc2>
    254b: 86 15        	stx	$15                     ; 0x15 <__rc5>
    254d: 85 14        	sta	$14                     ; 0x14 <__rc4>
    254f: a5 1b        	lda	$1b                     ; 0x1b <__rc11>
    2551: 65 13        	adc	$13                     ; 0x13 <__rc3>
    2553: aa           	tax
    2554: a5 1c        	lda	$1c                     ; 0x1c <__rc12>
    2556: 69 00        	adc	#$0
    2558: a8           	tay
    2559: 18           	clc
    255a: a5 14        	lda	$14                     ; 0x14 <__rc4>
    255c: 69 00        	adc	#$0
    255e: 85 17        	sta	$17                     ; 0x17 <__rc7>
    2560: 8a           	txa
    2561: 69 00        	adc	#$0
    2563: 85 1e        	sta	$1e                     ; 0x1e <__rc14>
    2565: 98           	tya
    2566: 69 05        	adc	#$5
    2568: aa           	tax
    2569: 18           	clc
    256a: a5 10        	lda	$10                     ; 0x10 <__rc0>
    256c: 69 15        	adc	#$15
    256e: 48           	pha
    256f: a5 11        	lda	$11                     ; 0x11 <__rc1>
    2571: 69 00        	adc	#$0
    2573: 85 14        	sta	$14                     ; 0x14 <__rc4>
    2575: 68           	pla
    2576: a4 15        	ldy	$15                     ; 0x15 <__rc5>
    2578: c0 01        	cpy	#$1
    257a: 65 12        	adc	$12                     ; 0x12 <__rc2>
    257c: a8           	tay
    257d: a5 14        	lda	$14                     ; 0x14 <__rc4>
    257f: 65 13        	adc	$13                     ; 0x13 <__rc3>
    2581: 84 14        	sty	$14                     ; 0x14 <__rc4>
    2583: 85 15        	sta	$15                     ; 0x15 <__rc5>
    2585: b2 14        	lda	($14)                   ; 0x14 <__rc4>
    2587: 85 18        	sta	$18                     ; 0x18 <__rc8>
    2589: a5 1e        	lda	$1e                     ; 0x1e <__rc14>
    258b: 85 14        	sta	$14                     ; 0x14 <__rc4>
    258d: 06 14        	asl	$14                     ; 0x14 <__rc4>
    258f: 86 15        	stx	$15                     ; 0x15 <__rc5>
    2591: 26 15        	rol	$15                     ; 0x15 <__rc5>
    2593: 06 14        	asl	$14                     ; 0x14 <__rc4>
    2595: 26 15        	rol	$15                     ; 0x15 <__rc5>
    2597: 06 14        	asl	$14                     ; 0x14 <__rc4>
    2599: 26 15        	rol	$15                     ; 0x15 <__rc5>
    259b: a4 15        	ldy	$15                     ; 0x15 <__rc5>
    259d: a6 0f        	ldx	$f                      ; 0xf <__data_size+0xf>
    259f: 78           	sei
    25a0: 84 0f        	sty	$f                      ; 0xf <__data_size+0xf>
    25a2: a4 17        	ldy	$17                     ; 0x17 <__rc7>
    25a4: 84 14        	sty	$14                     ; 0x14 <__rc4>
    25a6: 09 e0        	ora	#$e0
    25a8: 85 15        	sta	$15                     ; 0x15 <__rc5>
    25aa: a5 18        	lda	$18                     ; 0x18 <__rc8>
    25ac: 92 14        	sta	($14)                   ; 0x14 <__rc4>
    25ae: 86 0f        	stx	$f                      ; 0xf <__data_size+0xf>
    25b0: 58           	cli
    25b1: e6 12        	inc	$12                     ; 0x12 <__rc2>
    25b3: f0 09        	beq	$25be <f256main+0x1bbe>
    25b5: a5 19        	lda	$19                     ; 0x19 <__rc9>
    25b7: c5 13        	cmp	$13                     ; 0x13 <__rc3>
    25b9: f0 0e        	beq	$25c9 <f256main+0x1bc9>
    25bb: 4c 44 25     	jmp	$2544 <f256main+0x1b44>
    25be: e6 13        	inc	$13                     ; 0x13 <__rc3>
    25c0: a5 19        	lda	$19                     ; 0x19 <__rc9>
    25c2: c5 13        	cmp	$13                     ; 0x13 <__rc3>
    25c4: f0 03        	beq	$25c9 <f256main+0x1bc9>
    25c6: 4c 44 25     	jmp	$2544 <f256main+0x1b44>
    25c9: a6 16        	ldx	$16                     ; 0x16 <__rc6>
    25cb: e4 12        	cpx	$12                     ; 0x12 <__rc2>
    25cd: f0 03        	beq	$25d2 <f256main+0x1bd2>
    25cf: 4c 44 25     	jmp	$2544 <f256main+0x1b44>
    25d2: a6 16        	ldx	$16                     ; 0x16 <__rc6>
    25d4: 86 12        	stx	$12                     ; 0x12 <__rc2>
    25d6: a5 1a        	lda	$1a                     ; 0x1a <__rc10>
    25d8: 18           	clc
    25d9: 65 12        	adc	$12                     ; 0x12 <__rc2>
    25db: 85 1a        	sta	$1a                     ; 0x1a <__rc10>
    25dd: a5 1b        	lda	$1b                     ; 0x1b <__rc11>
    25df: 65 19        	adc	$19                     ; 0x19 <__rc9>
    25e1: 85 1b        	sta	$1b                     ; 0x1b <__rc11>
    25e3: a5 1c        	lda	$1c                     ; 0x1c <__rc12>
    25e5: 69 00        	adc	#$0
    25e7: 85 1c        	sta	$1c                     ; 0x1c <__rc12>
    25e9: a5 1d        	lda	$1d                     ; 0x1d <__rc13>
    25eb: 69 00        	adc	#$0
    25ed: 85 1d        	sta	$1d                     ; 0x1d <__rc13>
    25ef: a5 19        	lda	$19                     ; 0x19 <__rc9>
    25f1: d0 07        	bne	$25fa <f256main+0x1bfa>
    25f3: e0 fa        	cpx	#$fa
    25f5: 90 2d        	bcc	$2624 <f256main+0x1c24>
    25f7: 4c 1f 24     	jmp	$241f <f256main+0x1a1f>
    25fa: a4 19        	ldy	$19                     ; 0x19 <__rc9>
    25fc: c0 00        	cpy	#$0
    25fe: 90 24        	bcc	$2624 <f256main+0x1c24>
    2600: 4c 1f 24     	jmp	$241f <f256main+0x1a1f>
    2603: a9 00        	lda	#$0
    2605: a2 01        	ldx	#$1
    2607: 4c 11 25     	jmp	$2511 <f256main+0x1b11>
    260a: 85 14        	sta	$14                     ; 0x14 <__rc4>
    260c: c9 00        	cmp	#$0
    260e: 90 03        	bcc	$2613 <f256main+0x1c13>
    2610: 4c c3 23     	jmp	$23c3 <f256main+0x19c3>
    2613: 4c e7 23     	jmp	$23e7 <f256main+0x19e7>
    2616: a2 ff        	ldx	#$ff
    2618: 86 19        	stx	$19                     ; 0x19 <__rc9>
    261a: 4c 3e 25     	jmp	$253e <f256main+0x1b3e>
    261d: a5 12        	lda	$12                     ; 0x12 <__rc2>
    261f: f0 03        	beq	$2624 <f256main+0x1c24>
    2621: 4c 3e 25     	jmp	$253e <f256main+0x1b3e>
    2624: a0 02        	ldy	#$2
    2626: b1 24        	lda	($24),y                 ; 0x24 <__rc20>
    2628: 85 f3        	sta	$f3                     ; 0xf3 <__bss_size+0x6e>
    262a: 18           	clc
    262b: a5 10        	lda	$10                     ; 0x10 <__rc0>
    262d: 69 14        	adc	#$14
    262f: 85 12        	sta	$12                     ; 0x12 <__rc2>
    2631: a5 11        	lda	$11                     ; 0x11 <__rc1>
    2633: 69 01        	adc	#$1
    2635: 85 13        	sta	$13                     ; 0x13 <__rc3>
    2637: a2 82        	ldx	#$82
    2639: 86 14        	stx	$14                     ; 0x14 <__rc4>
    263b: a2 00        	ldx	#$0
    263d: 86 15        	stx	$15                     ; 0x15 <__rc5>
    263f: 20 68 ff     	jsr	$ff68 <__heap_start+0x746c>
    2642: 92 12        	sta	($12)                   ; 0x12 <__rc2>
    2644: a9 00        	lda	#$0
    2646: 6a           	ror
    2647: 85 14        	sta	$14                     ; 0x14 <__rc4>
    2649: b2 24        	lda	($24)                   ; 0x24 <__rc20>
    264b: 85 18        	sta	$18                     ; 0x18 <__rc8>
    264d: 88           	dey
    264e: b1 24        	lda	($24),y                 ; 0x24 <__rc20>
    2650: 85 14        	sta	$14                     ; 0x14 <__rc4>
    2652: a9 fe        	lda	#$fe
    2654: 32 24        	and	($24)                   ; 0x24 <__rc20>
    2656: 85 15        	sta	$15                     ; 0x15 <__rc5>
    2658: a5 24        	lda	$24                     ; 0x24 <__rc20>
    265a: 18           	clc
    265b: 65 15        	adc	$15                     ; 0x15 <__rc5>
    265d: 85 16        	sta	$16                     ; 0x16 <__rc6>
    265f: a5 25        	lda	$25                     ; 0x25 <__rc21>
    2661: 65 14        	adc	$14                     ; 0x14 <__rc4>
    2663: c5 28        	cmp	$28                     ; 0x28 <__rc24>
    2665: d0 17        	bne	$267e <f256main+0x1c7e>
    2667: a6 16        	ldx	$16                     ; 0x16 <__rc6>
    2669: e4 27        	cpx	$27                     ; 0x27 <__rc23>
    266b: d0 11        	bne	$267e <f256main+0x1c7e>
    266d: a2 00        	ldx	#$0
    266f: 86 16        	stx	$16                     ; 0x16 <__rc6>
    2671: a2 00        	ldx	#$0
    2673: 86 17        	stx	$17                     ; 0x17 <__rc7>
    2675: a5 18        	lda	$18                     ; 0x18 <__rc8>
    2677: 29 01        	and	#$1
    2679: d0 0e        	bne	$2689 <f256main+0x1c89>
    267b: 4c b2 27     	jmp	$27b2 <f256main+0x1db2>
    267e: 85 17        	sta	$17                     ; 0x17 <__rc7>
    2680: a5 18        	lda	$18                     ; 0x18 <__rc8>
    2682: 29 01        	and	#$1
    2684: d0 03        	bne	$2689 <f256main+0x1c89>
    2686: 4c b2 27     	jmp	$27b2 <f256main+0x1db2>
    2689: 18           	clc
    268a: a5 24        	lda	$24                     ; 0x24 <__rc20>
    268c: 69 fe        	adc	#$fe
    268e: 85 18        	sta	$18                     ; 0x18 <__rc8>
    2690: a5 25        	lda	$25                     ; 0x25 <__rc21>
    2692: 69 ff        	adc	#$ff
    2694: 85 19        	sta	$19                     ; 0x19 <__rc9>
    2696: 38           	sec
    2697: a9 00        	lda	#$0
    2699: f2 18        	sbc	($18)                   ; 0x18 <__rc8>
    269b: 85 1a        	sta	$1a                     ; 0x1a <__rc10>
    269d: a9 00        	lda	#$0
    269f: f1 18        	sbc	($18),y                 ; 0x18 <__rc8>
    26a1: aa           	tax
    26a2: a5 1a        	lda	$1a                     ; 0x1a <__rc10>
    26a4: 18           	clc
    26a5: 65 24        	adc	$24                     ; 0x24 <__rc20>
    26a7: 85 19        	sta	$19                     ; 0x19 <__rc9>
    26a9: 85 24        	sta	$24                     ; 0x24 <__rc20>
    26ab: 8a           	txa
    26ac: 65 25        	adc	$25                     ; 0x25 <__rc21>
    26ae: 85 25        	sta	$25                     ; 0x25 <__rc21>
    26b0: aa           	tax
    26b1: a9 fe        	lda	#$fe
    26b3: 32 24        	and	($24)                   ; 0x24 <__rc20>
    26b5: 85 1c        	sta	$1c                     ; 0x1c <__rc12>
    26b7: 85 18        	sta	$18                     ; 0x18 <__rc8>
    26b9: a5 8b        	lda	$8b                     ; 0x8b <_ZN12_GLOBAL__N_19free_sizeE>
    26bb: 38           	sec
    26bc: e5 18        	sbc	$18                     ; 0x18 <__rc8>
    26be: 85 1a        	sta	$1a                     ; 0x1a <__rc10>
    26c0: b1 24        	lda	($24),y                 ; 0x24 <__rc20>
    26c2: 84 1e        	sty	$1e                     ; 0x1e <__rc14>
    26c4: 85 1d        	sta	$1d                     ; 0x1d <__rc13>
    26c6: 85 18        	sta	$18                     ; 0x18 <__rc8>
    26c8: a5 8c        	lda	$8c                     ; 0x8c <_ZN12_GLOBAL__N_19free_sizeE+0x1>
    26ca: e5 18        	sbc	$18                     ; 0x18 <__rc8>
    26cc: a8           	tay
    26cd: 18           	clc
    26ce: a5 1a        	lda	$1a                     ; 0x1a <__rc10>
    26d0: 69 02        	adc	#$2
    26d2: 85 18        	sta	$18                     ; 0x18 <__rc8>
    26d4: 98           	tya
    26d5: 69 00        	adc	#$0
    26d7: a4 18        	ldy	$18                     ; 0x18 <__rc8>
    26d9: 84 8b        	sty	$8b                     ; 0x8b <_ZN12_GLOBAL__N_19free_sizeE>
    26db: 85 8c        	sta	$8c                     ; 0x8c <_ZN12_GLOBAL__N_19free_sizeE+0x1>
    26dd: a4 19        	ldy	$19                     ; 0x19 <__rc9>
    26df: 84 1b        	sty	$1b                     ; 0x1b <__rc11>
    26e1: a5 19        	lda	$19                     ; 0x19 <__rc9>
    26e3: 18           	clc
    26e4: 69 02        	adc	#$2
    26e6: 85 18        	sta	$18                     ; 0x18 <__rc8>
    26e8: 86 1a        	stx	$1a                     ; 0x1a <__rc10>
    26ea: 8a           	txa
    26eb: 69 00        	adc	#$0
    26ed: 85 19        	sta	$19                     ; 0x19 <__rc9>
    26ef: a0 02        	ldy	#$2
    26f1: b1 24        	lda	($24),y                 ; 0x24 <__rc20>
    26f3: aa           	tax
    26f4: a4 1e        	ldy	$1e                     ; 0x1e <__rc14>
    26f6: b1 18        	lda	($18),y                 ; 0x18 <__rc8>
    26f8: 85 1f        	sta	$1f                     ; 0x1f <__rc15>
    26fa: c5 25        	cmp	$25                     ; 0x25 <__rc21>
    26fc: d0 11        	bne	$270f <f256main+0x1d0f>
    26fe: e4 24        	cpx	$24                     ; 0x24 <__rc20>
    2700: d0 0d        	bne	$270f <f256main+0x1d0f>
    2702: a2 00        	ldx	#$0
    2704: 86 18        	stx	$18                     ; 0x18 <__rc8>
    2706: a2 00        	ldx	#$0
    2708: 86 19        	stx	$19                     ; 0x19 <__rc9>
    270a: a5 1c        	lda	$1c                     ; 0x1c <__rc12>
    270c: 4c 9f 27     	jmp	$279f <f256main+0x1d9f>
    270f: 86 1e        	stx	$1e                     ; 0x1e <__rc14>
    2711: 18           	clc
    2712: a5 1b        	lda	$1b                     ; 0x1b <__rc11>
    2714: a6 1b        	ldx	$1b                     ; 0x1b <__rc11>
    2716: 86 23        	stx	$23                     ; 0x23 <__rc19>
    2718: 69 04        	adc	#$4
    271a: 85 18        	sta	$18                     ; 0x18 <__rc8>
    271c: a6 1a        	ldx	$1a                     ; 0x1a <__rc10>
    271e: 86 26        	stx	$26                     ; 0x26 <__rc22>
    2720: a5 1a        	lda	$1a                     ; 0x1a <__rc10>
    2722: 69 00        	adc	#$0
    2724: a0 04        	ldy	#$4
    2726: 85 19        	sta	$19                     ; 0x19 <__rc9>
    2728: b1 24        	lda	($24),y                 ; 0x24 <__rc20>
    272a: 85 29        	sta	$29                     ; 0x29 <__rc25>
    272c: a2 04        	ldx	#$4
    272e: 86 22        	stx	$22                     ; 0x22 <__rc18>
    2730: 18           	clc
    2731: 69 02        	adc	#$2
    2733: 85 1a        	sta	$1a                     ; 0x1a <__rc10>
    2735: a0 01        	ldy	#$1
    2737: b1 18        	lda	($18),y                 ; 0x18 <__rc8>
    2739: aa           	tax
    273a: 84 2a        	sty	$2a                     ; 0x2a <__rc26>
    273c: 69 00        	adc	#$0
    273e: a4 1a        	ldy	$1a                     ; 0x1a <__rc10>
    2740: 84 18        	sty	$18                     ; 0x18 <__rc8>
    2742: 85 19        	sta	$19                     ; 0x19 <__rc9>
    2744: a4 29        	ldy	$29                     ; 0x29 <__rc25>
    2746: 84 1a        	sty	$1a                     ; 0x1a <__rc10>
    2748: 86 1b        	stx	$1b                     ; 0x1b <__rc11>
    274a: a5 1e        	lda	$1e                     ; 0x1e <__rc14>
    274c: a0 02        	ldy	#$2
    274e: 91 1a        	sta	($1a),y                 ; 0x1a <__rc10>
    2750: 84 1a        	sty	$1a                     ; 0x1a <__rc10>
    2752: a5 1f        	lda	$1f                     ; 0x1f <__rc15>
    2754: a4 2a        	ldy	$2a                     ; 0x2a <__rc26>
    2756: 91 18        	sta	($18),y                 ; 0x18 <__rc8>
    2758: 18           	clc
    2759: a5 23        	lda	$23                     ; 0x23 <__rc19>
    275b: 69 02        	adc	#$2
    275d: 85 18        	sta	$18                     ; 0x18 <__rc8>
    275f: a5 26        	lda	$26                     ; 0x26 <__rc22>
    2761: 69 00        	adc	#$0
    2763: 85 19        	sta	$19                     ; 0x19 <__rc9>
    2765: a4 1a        	ldy	$1a                     ; 0x1a <__rc10>
    2767: b1 24        	lda	($24),y                 ; 0x24 <__rc20>
    2769: 85 1a        	sta	$1a                     ; 0x1a <__rc10>
    276b: a4 2a        	ldy	$2a                     ; 0x2a <__rc26>
    276d: b1 18        	lda	($18),y                 ; 0x18 <__rc8>
    276f: 84 1e        	sty	$1e                     ; 0x1e <__rc14>
    2771: a4 1a        	ldy	$1a                     ; 0x1a <__rc10>
    2773: 84 18        	sty	$18                     ; 0x18 <__rc8>
    2775: 85 19        	sta	$19                     ; 0x19 <__rc9>
    2777: 85 1b        	sta	$1b                     ; 0x1b <__rc11>
    2779: a4 22        	ldy	$22                     ; 0x22 <__rc18>
    277b: a5 29        	lda	$29                     ; 0x29 <__rc25>
    277d: 91 18        	sta	($18),y                 ; 0x18 <__rc8>
    277f: 18           	clc
    2780: a5 1a        	lda	$1a                     ; 0x1a <__rc10>
    2782: 69 04        	adc	#$4
    2784: 85 1a        	sta	$1a                     ; 0x1a <__rc10>
    2786: a5 1b        	lda	$1b                     ; 0x1b <__rc11>
    2788: 69 00        	adc	#$0
    278a: 85 1b        	sta	$1b                     ; 0x1b <__rc11>
    278c: 8a           	txa
    278d: a4 1e        	ldy	$1e                     ; 0x1e <__rc14>
    278f: 91 1a        	sta	($1a),y                 ; 0x1a <__rc10>
    2791: a6 8e        	ldx	$8e                     ; 0x8e <_ZN12_GLOBAL__N_19free_listE+0x1>
    2793: a5 1c        	lda	$1c                     ; 0x1c <__rc12>
    2795: e4 25        	cpx	$25                     ; 0x25 <__rc21>
    2797: d0 0e        	bne	$27a7 <f256main+0x1da7>
    2799: a6 8d        	ldx	$8d                     ; 0x8d <_ZN12_GLOBAL__N_19free_listE>
    279b: e4 24        	cpx	$24                     ; 0x24 <__rc20>
    279d: d0 08        	bne	$27a7 <f256main+0x1da7>
    279f: a6 18        	ldx	$18                     ; 0x18 <__rc8>
    27a1: a4 19        	ldy	$19                     ; 0x19 <__rc9>
    27a3: 86 8d        	stx	$8d                     ; 0x8d <_ZN12_GLOBAL__N_19free_listE>
    27a5: 84 8e        	sty	$8e                     ; 0x8e <_ZN12_GLOBAL__N_19free_listE+0x1>
    27a7: 18           	clc
    27a8: 65 15        	adc	$15                     ; 0x15 <__rc5>
    27aa: 85 15        	sta	$15                     ; 0x15 <__rc5>
    27ac: a5 1d        	lda	$1d                     ; 0x1d <__rc13>
    27ae: 65 14        	adc	$14                     ; 0x14 <__rc4>
    27b0: 85 14        	sta	$14                     ; 0x14 <__rc4>
    27b2: a2 00        	ldx	#$0
    27b4: 86 18        	stx	$18                     ; 0x18 <__rc8>
    27b6: a2 00        	ldx	#$0
    27b8: 86 19        	stx	$19                     ; 0x19 <__rc9>
    27ba: a6 17        	ldx	$17                     ; 0x17 <__rc7>
    27bc: e4 19        	cpx	$19                     ; 0x19 <__rc9>
    27be: d0 0d        	bne	$27cd <f256main+0x1dcd>
    27c0: a6 16        	ldx	$16                     ; 0x16 <__rc6>
    27c2: e4 18        	cpx	$18                     ; 0x18 <__rc8>
    27c4: d0 07        	bne	$27cd <f256main+0x1dcd>
    27c6: a2 01        	ldx	#$1
    27c8: 8e fa 8a     	stx	$8afa                   ; 0x8afa <_ZN12_GLOBAL__N_19last_freeE>
    27cb: 80 34        	bra	$2801 <f256main+0x1e01>
    27cd: b2 16        	lda	($16)                   ; 0x16 <__rc6>
    27cf: 85 1a        	sta	$1a                     ; 0x1a <__rc10>
    27d1: a0 01        	ldy	#$1
    27d3: b1 16        	lda	($16),y                 ; 0x16 <__rc6>
    27d5: aa           	tax
    27d6: a9 fe        	lda	#$fe
    27d8: 32 16        	and	($16)                   ; 0x16 <__rc6>
    27da: 18           	clc
    27db: 85 1d        	sta	$1d                     ; 0x1d <__rc13>
    27dd: 65 16        	adc	$16                     ; 0x16 <__rc6>
    27df: 85 18        	sta	$18                     ; 0x18 <__rc8>
    27e1: 8a           	txa
    27e2: 86 1c        	stx	$1c                     ; 0x1c <__rc12>
    27e4: 65 17        	adc	$17                     ; 0x17 <__rc7>
    27e6: c5 28        	cmp	$28                     ; 0x28 <__rc24>
    27e8: d0 1c        	bne	$2806 <f256main+0x1e06>
    27ea: a6 18        	ldx	$18                     ; 0x18 <__rc8>
    27ec: e4 27        	cpx	$27                     ; 0x27 <__rc23>
    27ee: d0 16        	bne	$2806 <f256main+0x1e06>
    27f0: ad fa 8a     	lda	$8afa                   ; 0x8afa <_ZN12_GLOBAL__N_19last_freeE>
    27f3: 29 01        	and	#$1
    27f5: d0 17        	bne	$280e <f256main+0x1e0e>
    27f7: a5 1a        	lda	$1a                     ; 0x1a <__rc10>
    27f9: 09 01        	ora	#$1
    27fb: 92 16        	sta	($16)                   ; 0x16 <__rc6>
    27fd: a5 1c        	lda	$1c                     ; 0x1c <__rc12>
    27ff: 91 16        	sta	($16),y                 ; 0x16 <__rc6>
    2801: a6 14        	ldx	$14                     ; 0x14 <__rc4>
    2803: 4c f6 28     	jmp	$28f6 <f256main+0x1ef6>
    2806: 85 19        	sta	$19                     ; 0x19 <__rc9>
    2808: a9 01        	lda	#$1
    280a: 32 18        	and	($18)                   ; 0x18 <__rc8>
    280c: f0 e9        	beq	$27f7 <f256main+0x1df7>
    280e: a5 8b        	lda	$8b                     ; 0x8b <_ZN12_GLOBAL__N_19free_sizeE>
    2810: a6 8c        	ldx	$8c                     ; 0x8c <_ZN12_GLOBAL__N_19free_sizeE+0x1>
    2812: 86 19        	stx	$19                     ; 0x19 <__rc9>
    2814: 38           	sec
    2815: e5 1d        	sbc	$1d                     ; 0x1d <__rc13>
    2817: aa           	tax
    2818: a5 19        	lda	$19                     ; 0x19 <__rc9>
    281a: e5 1c        	sbc	$1c                     ; 0x1c <__rc12>
    281c: 85 18        	sta	$18                     ; 0x18 <__rc8>
    281e: 18           	clc
    281f: 8a           	txa
    2820: 69 02        	adc	#$2
    2822: 85 19        	sta	$19                     ; 0x19 <__rc9>
    2824: a5 18        	lda	$18                     ; 0x18 <__rc8>
    2826: 69 00        	adc	#$0
    2828: a6 19        	ldx	$19                     ; 0x19 <__rc9>
    282a: 86 8b        	stx	$8b                     ; 0x8b <_ZN12_GLOBAL__N_19free_sizeE>
    282c: 85 8c        	sta	$8c                     ; 0x8c <_ZN12_GLOBAL__N_19free_sizeE+0x1>
    282e: a5 16        	lda	$16                     ; 0x16 <__rc6>
    2830: 18           	clc
    2831: 69 02        	adc	#$2
    2833: 85 18        	sta	$18                     ; 0x18 <__rc8>
    2835: a5 17        	lda	$17                     ; 0x17 <__rc7>
    2837: 69 00        	adc	#$0
    2839: a0 02        	ldy	#$2
    283b: 85 19        	sta	$19                     ; 0x19 <__rc9>
    283d: b1 16        	lda	($16),y                 ; 0x16 <__rc6>
    283f: aa           	tax
    2840: 88           	dey
    2841: b1 18        	lda	($18),y                 ; 0x18 <__rc8>
    2843: 85 1f        	sta	$1f                     ; 0x1f <__rc15>
    2845: c5 17        	cmp	$17                     ; 0x17 <__rc7>
    2847: d0 0f        	bne	$2858 <f256main+0x1e58>
    2849: e4 16        	cpx	$16                     ; 0x16 <__rc6>
    284b: d0 0b        	bne	$2858 <f256main+0x1e58>
    284d: a2 00        	ldx	#$0
    284f: 86 18        	stx	$18                     ; 0x18 <__rc8>
    2851: a2 00        	ldx	#$0
    2853: 86 19        	stx	$19                     ; 0x19 <__rc9>
    2855: 4c e2 28     	jmp	$28e2 <f256main+0x1ee2>
    2858: 86 1e        	stx	$1e                     ; 0x1e <__rc14>
    285a: a6 16        	ldx	$16                     ; 0x16 <__rc6>
    285c: a5 16        	lda	$16                     ; 0x16 <__rc6>
    285e: 86 26        	stx	$26                     ; 0x26 <__rc22>
    2860: 18           	clc
    2861: 69 04        	adc	#$4
    2863: 85 18        	sta	$18                     ; 0x18 <__rc8>
    2865: a5 17        	lda	$17                     ; 0x17 <__rc7>
    2867: 69 00        	adc	#$0
    2869: a0 04        	ldy	#$4
    286b: 85 19        	sta	$19                     ; 0x19 <__rc9>
    286d: b1 16        	lda	($16),y                 ; 0x16 <__rc6>
    286f: 85 27        	sta	$27                     ; 0x27 <__rc23>
    2871: a2 04        	ldx	#$4
    2873: 86 22        	stx	$22                     ; 0x22 <__rc18>
    2875: 18           	clc
    2876: 69 02        	adc	#$2
    2878: 85 1a        	sta	$1a                     ; 0x1a <__rc10>
    287a: a0 01        	ldy	#$1
    287c: b1 18        	lda	($18),y                 ; 0x18 <__rc8>
    287e: aa           	tax
    287f: 84 28        	sty	$28                     ; 0x28 <__rc24>
    2881: 69 00        	adc	#$0
    2883: a4 1a        	ldy	$1a                     ; 0x1a <__rc10>
    2885: 84 18        	sty	$18                     ; 0x18 <__rc8>
    2887: 85 19        	sta	$19                     ; 0x19 <__rc9>
    2889: a4 27        	ldy	$27                     ; 0x27 <__rc23>
    288b: 84 1a        	sty	$1a                     ; 0x1a <__rc10>
    288d: 86 1b        	stx	$1b                     ; 0x1b <__rc11>
    288f: a5 1e        	lda	$1e                     ; 0x1e <__rc14>
    2891: a0 02        	ldy	#$2
    2893: 91 1a        	sta	($1a),y                 ; 0x1a <__rc10>
    2895: 84 1a        	sty	$1a                     ; 0x1a <__rc10>
    2897: a5 1f        	lda	$1f                     ; 0x1f <__rc15>
    2899: a4 28        	ldy	$28                     ; 0x28 <__rc24>
    289b: 91 18        	sta	($18),y                 ; 0x18 <__rc8>
    289d: 18           	clc
    289e: a5 26        	lda	$26                     ; 0x26 <__rc22>
    28a0: 69 02        	adc	#$2
    28a2: 85 18        	sta	$18                     ; 0x18 <__rc8>
    28a4: a5 17        	lda	$17                     ; 0x17 <__rc7>
    28a6: 69 00        	adc	#$0
    28a8: 85 19        	sta	$19                     ; 0x19 <__rc9>
    28aa: a4 1a        	ldy	$1a                     ; 0x1a <__rc10>
    28ac: b1 16        	lda	($16),y                 ; 0x16 <__rc6>
    28ae: 85 1a        	sta	$1a                     ; 0x1a <__rc10>
    28b0: a4 28        	ldy	$28                     ; 0x28 <__rc24>
    28b2: b1 18        	lda	($18),y                 ; 0x18 <__rc8>
    28b4: 84 1e        	sty	$1e                     ; 0x1e <__rc14>
    28b6: a4 1a        	ldy	$1a                     ; 0x1a <__rc10>
    28b8: 84 18        	sty	$18                     ; 0x18 <__rc8>
    28ba: 85 19        	sta	$19                     ; 0x19 <__rc9>
    28bc: 85 1b        	sta	$1b                     ; 0x1b <__rc11>
    28be: a4 22        	ldy	$22                     ; 0x22 <__rc18>
    28c0: a5 27        	lda	$27                     ; 0x27 <__rc23>
    28c2: 91 18        	sta	($18),y                 ; 0x18 <__rc8>
    28c4: 18           	clc
    28c5: a5 1a        	lda	$1a                     ; 0x1a <__rc10>
    28c7: 69 04        	adc	#$4
    28c9: 85 1a        	sta	$1a                     ; 0x1a <__rc10>
    28cb: a5 1b        	lda	$1b                     ; 0x1b <__rc11>
    28cd: 69 00        	adc	#$0
    28cf: 85 1b        	sta	$1b                     ; 0x1b <__rc11>
    28d1: 8a           	txa
    28d2: a4 1e        	ldy	$1e                     ; 0x1e <__rc14>
    28d4: 91 1a        	sta	($1a),y                 ; 0x1a <__rc10>
    28d6: a6 8e        	ldx	$8e                     ; 0x8e <_ZN12_GLOBAL__N_19free_listE+0x1>
    28d8: e4 17        	cpx	$17                     ; 0x17 <__rc7>
    28da: d0 0e        	bne	$28ea <f256main+0x1eea>
    28dc: a6 8d        	ldx	$8d                     ; 0x8d <_ZN12_GLOBAL__N_19free_listE>
    28de: e4 16        	cpx	$16                     ; 0x16 <__rc6>
    28e0: d0 08        	bne	$28ea <f256main+0x1eea>
    28e2: a6 18        	ldx	$18                     ; 0x18 <__rc8>
    28e4: a4 19        	ldy	$19                     ; 0x19 <__rc9>
    28e6: 86 8d        	stx	$8d                     ; 0x8d <_ZN12_GLOBAL__N_19free_listE>
    28e8: 84 8e        	sty	$8e                     ; 0x8e <_ZN12_GLOBAL__N_19free_listE+0x1>
    28ea: 18           	clc
    28eb: a5 1d        	lda	$1d                     ; 0x1d <__rc13>
    28ed: 65 15        	adc	$15                     ; 0x15 <__rc5>
    28ef: 85 15        	sta	$15                     ; 0x15 <__rc5>
    28f1: a5 1c        	lda	$1c                     ; 0x1c <__rc12>
    28f3: 65 14        	adc	$14                     ; 0x14 <__rc4>
    28f5: aa           	tax
    28f6: a9 01        	lda	#$1
    28f8: 32 24        	and	($24)                   ; 0x24 <__rc20>
    28fa: a4 15        	ldy	$15                     ; 0x15 <__rc5>
    28fc: 84 16        	sty	$16                     ; 0x16 <__rc6>
    28fe: 05 15        	ora	$15                     ; 0x15 <__rc5>
    2900: 92 24        	sta	($24)                   ; 0x24 <__rc20>
    2902: a5 24        	lda	$24                     ; 0x24 <__rc20>
    2904: 18           	clc
    2905: 65 15        	adc	$15                     ; 0x15 <__rc5>
    2907: a8           	tay
    2908: 8a           	txa
    2909: 65 25        	adc	$25                     ; 0x25 <__rc21>
    290b: 85 15        	sta	$15                     ; 0x15 <__rc5>
    290d: 18           	clc
    290e: 98           	tya
    290f: 69 fe        	adc	#$fe
    2911: 85 14        	sta	$14                     ; 0x14 <__rc4>
    2913: a5 15        	lda	$15                     ; 0x15 <__rc5>
    2915: 69 ff        	adc	#$ff
    2917: 85 15        	sta	$15                     ; 0x15 <__rc5>
    2919: a0 01        	ldy	#$1
    291b: 8a           	txa
    291c: 91 24        	sta	($24),y                 ; 0x24 <__rc20>
    291e: a5 16        	lda	$16                     ; 0x16 <__rc6>
    2920: 92 14        	sta	($14)                   ; 0x14 <__rc4>
    2922: 8a           	txa
    2923: 91 14        	sta	($14),y                 ; 0x14 <__rc4>
    2925: b1 24        	lda	($24),y                 ; 0x24 <__rc20>
    2927: 85 14        	sta	$14                     ; 0x14 <__rc4>
    2929: a9 fe        	lda	#$fe
    292b: 32 24        	and	($24)                   ; 0x24 <__rc20>
    292d: 18           	clc
    292e: 65 8b        	adc	$8b                     ; 0x8b <_ZN12_GLOBAL__N_19free_sizeE>
    2930: aa           	tax
    2931: a5 14        	lda	$14                     ; 0x14 <__rc4>
    2933: 65 8c        	adc	$8c                     ; 0x8c <_ZN12_GLOBAL__N_19free_sizeE+0x1>
    2935: 85 14        	sta	$14                     ; 0x14 <__rc4>
    2937: 18           	clc
    2938: 8a           	txa
    2939: 69 fe        	adc	#$fe
    293b: 85 15        	sta	$15                     ; 0x15 <__rc5>
    293d: a5 14        	lda	$14                     ; 0x14 <__rc4>
    293f: 69 ff        	adc	#$ff
    2941: a6 15        	ldx	$15                     ; 0x15 <__rc5>
    2943: 86 8b        	stx	$8b                     ; 0x8b <_ZN12_GLOBAL__N_19free_sizeE>
    2945: 85 8c        	sta	$8c                     ; 0x8c <_ZN12_GLOBAL__N_19free_sizeE+0x1>
    2947: a6 8d        	ldx	$8d                     ; 0x8d <_ZN12_GLOBAL__N_19free_listE>
    2949: 86 16        	stx	$16                     ; 0x16 <__rc6>
    294b: a4 8e        	ldy	$8e                     ; 0x8e <_ZN12_GLOBAL__N_19free_listE+0x1>
    294d: a2 00        	ldx	#$0
    294f: 86 14        	stx	$14                     ; 0x14 <__rc4>
    2951: a2 00        	ldx	#$0
    2953: 86 15        	stx	$15                     ; 0x15 <__rc5>
    2955: c4 15        	cpy	$15                     ; 0x15 <__rc5>
    2957: d0 3e        	bne	$2997 <f256main+0x1f97>
    2959: a6 16        	ldx	$16                     ; 0x16 <__rc6>
    295b: e4 14        	cpx	$14                     ; 0x14 <__rc4>
    295d: d0 38        	bne	$2997 <f256main+0x1f97>
    295f: a0 04        	ldy	#$4
    2961: a5 24        	lda	$24                     ; 0x24 <__rc20>
    2963: 18           	clc
    2964: 69 04        	adc	#$4
    2966: 85 14        	sta	$14                     ; 0x14 <__rc4>
    2968: a5 25        	lda	$25                     ; 0x25 <__rc21>
    296a: 69 00        	adc	#$0
    296c: 18           	clc
    296d: 85 15        	sta	$15                     ; 0x15 <__rc5>
    296f: a5 24        	lda	$24                     ; 0x24 <__rc20>
    2971: 91 24        	sta	($24),y                 ; 0x24 <__rc20>
    2973: a0 02        	ldy	#$2
    2975: 85 17        	sta	$17                     ; 0x17 <__rc7>
    2977: 69 02        	adc	#$2
    2979: 85 16        	sta	$16                     ; 0x16 <__rc6>
    297b: a5 17        	lda	$17                     ; 0x17 <__rc7>
    297d: 91 24        	sta	($24),y                 ; 0x24 <__rc20>
    297f: a5 25        	lda	$25                     ; 0x25 <__rc21>
    2981: 69 00        	adc	#$0
    2983: 85 17        	sta	$17                     ; 0x17 <__rc7>
    2985: 88           	dey
    2986: a5 25        	lda	$25                     ; 0x25 <__rc21>
    2988: 91 14        	sta	($14),y                 ; 0x14 <__rc4>
    298a: 91 16        	sta	($16),y                 ; 0x16 <__rc6>
    298c: a6 24        	ldx	$24                     ; 0x24 <__rc20>
    298e: 86 8d        	stx	$8d                     ; 0x8d <_ZN12_GLOBAL__N_19free_listE>
    2990: a6 25        	ldx	$25                     ; 0x25 <__rc21>
    2992: 86 8e        	stx	$8e                     ; 0x8e <_ZN12_GLOBAL__N_19free_listE+0x1>
    2994: 4c 3e 2a     	jmp	$2a3e <f256main+0x203e>
    2997: a6 24        	ldx	$24                     ; 0x24 <__rc20>
    2999: a5 24        	lda	$24                     ; 0x24 <__rc20>
    299b: 18           	clc
    299c: 69 02        	adc	#$2
    299e: 85 14        	sta	$14                     ; 0x14 <__rc4>
    29a0: 84 18        	sty	$18                     ; 0x18 <__rc8>
    29a2: a5 25        	lda	$25                     ; 0x25 <__rc21>
    29a4: 69 00        	adc	#$0
    29a6: 85 15        	sta	$15                     ; 0x15 <__rc5>
    29a8: a5 16        	lda	$16                     ; 0x16 <__rc6>
    29aa: 84 17        	sty	$17                     ; 0x17 <__rc7>
    29ac: a0 02        	ldy	#$2
    29ae: 91 24        	sta	($24),y                 ; 0x24 <__rc20>
    29b0: 85 19        	sta	$19                     ; 0x19 <__rc9>
    29b2: 84 1d        	sty	$1d                     ; 0x1d <__rc13>
    29b4: 88           	dey
    29b5: a5 18        	lda	$18                     ; 0x18 <__rc8>
    29b7: 91 14        	sta	($14),y                 ; 0x14 <__rc4>
    29b9: 84 1e        	sty	$1e                     ; 0x1e <__rc14>
    29bb: 18           	clc
    29bc: a5 19        	lda	$19                     ; 0x19 <__rc9>
    29be: 69 04        	adc	#$4
    29c0: a8           	tay
    29c1: a5 18        	lda	$18                     ; 0x18 <__rc8>
    29c3: 69 00        	adc	#$0
    29c5: 84 18        	sty	$18                     ; 0x18 <__rc8>
    29c7: 85 19        	sta	$19                     ; 0x19 <__rc9>
    29c9: 8a           	txa
    29ca: 18           	clc
    29cb: 69 04        	adc	#$4
    29cd: 85 1a        	sta	$1a                     ; 0x1a <__rc10>
    29cf: a5 25        	lda	$25                     ; 0x25 <__rc21>
    29d1: 69 00        	adc	#$0
    29d3: 85 1b        	sta	$1b                     ; 0x1b <__rc11>
    29d5: a0 04        	ldy	#$4
    29d7: b1 16        	lda	($16),y                 ; 0x16 <__rc6>
    29d9: 85 16        	sta	$16                     ; 0x16 <__rc6>
    29db: 85 1f        	sta	$1f                     ; 0x1f <__rc15>
    29dd: a4 1e        	ldy	$1e                     ; 0x1e <__rc14>
    29df: b1 18        	lda	($18),y                 ; 0x18 <__rc8>
    29e1: a4 1e        	ldy	$1e                     ; 0x1e <__rc14>
    29e3: 84 18        	sty	$18                     ; 0x18 <__rc8>
    29e5: 85 17        	sta	$17                     ; 0x17 <__rc7>
    29e7: 85 19        	sta	$19                     ; 0x19 <__rc9>
    29e9: a0 04        	ldy	#$4
    29eb: a5 1f        	lda	$1f                     ; 0x1f <__rc15>
    29ed: 91 24        	sta	($24),y                 ; 0x24 <__rc20>
    29ef: 84 1e        	sty	$1e                     ; 0x1e <__rc14>
    29f1: a4 18        	ldy	$18                     ; 0x18 <__rc8>
    29f3: a5 19        	lda	$19                     ; 0x19 <__rc9>
    29f5: 91 1a        	sta	($1a),y                 ; 0x1a <__rc10>
    29f7: 84 1a        	sty	$1a                     ; 0x1a <__rc10>
    29f9: 18           	clc
    29fa: a5 1f        	lda	$1f                     ; 0x1f <__rc15>
    29fc: 69 02        	adc	#$2
    29fe: 85 18        	sta	$18                     ; 0x18 <__rc8>
    2a00: a5 19        	lda	$19                     ; 0x19 <__rc9>
    2a02: 69 00        	adc	#$0
    2a04: 85 19        	sta	$19                     ; 0x19 <__rc9>
    2a06: 8a           	txa
    2a07: a4 1d        	ldy	$1d                     ; 0x1d <__rc13>
    2a09: 91 16        	sta	($16),y                 ; 0x16 <__rc6>
    2a0b: a5 25        	lda	$25                     ; 0x25 <__rc21>
    2a0d: a4 1a        	ldy	$1a                     ; 0x1a <__rc10>
    2a0f: 91 18        	sta	($18),y                 ; 0x18 <__rc8>
    2a11: 84 17        	sty	$17                     ; 0x17 <__rc7>
    2a13: a4 1d        	ldy	$1d                     ; 0x1d <__rc13>
    2a15: b1 24        	lda	($24),y                 ; 0x24 <__rc20>
    2a17: 85 16        	sta	$16                     ; 0x16 <__rc6>
    2a19: 85 19        	sta	$19                     ; 0x19 <__rc9>
    2a1b: a4 17        	ldy	$17                     ; 0x17 <__rc7>
    2a1d: b1 14        	lda	($14),y                 ; 0x14 <__rc4>
    2a1f: 84 18        	sty	$18                     ; 0x18 <__rc8>
    2a21: 85 17        	sta	$17                     ; 0x17 <__rc7>
    2a23: 85 14        	sta	$14                     ; 0x14 <__rc4>
    2a25: 8a           	txa
    2a26: a4 1e        	ldy	$1e                     ; 0x1e <__rc14>
    2a28: 91 16        	sta	($16),y                 ; 0x16 <__rc6>
    2a2a: 18           	clc
    2a2b: a5 19        	lda	$19                     ; 0x19 <__rc9>
    2a2d: 69 04        	adc	#$4
    2a2f: a8           	tay
    2a30: a5 14        	lda	$14                     ; 0x14 <__rc4>
    2a32: 69 00        	adc	#$0
    2a34: 84 14        	sty	$14                     ; 0x14 <__rc4>
    2a36: 85 15        	sta	$15                     ; 0x15 <__rc5>
    2a38: a5 25        	lda	$25                     ; 0x25 <__rc21>
    2a3a: a4 18        	ldy	$18                     ; 0x18 <__rc8>
    2a3c: 91 14        	sta	($14),y                 ; 0x14 <__rc4>
    2a3e: a2 82        	ldx	#$82
    2a40: 86 14        	stx	$14                     ; 0x14 <__rc4>
    2a42: a2 00        	ldx	#$0
    2a44: 86 15        	stx	$15                     ; 0x15 <__rc5>
    2a46: 64 83        	stz	$83                     ; 0x83 <kernelEventData>
    2a48: 20 00 ff     	jsr	$ff00 <__heap_start+0x7404>
    2a4b: 92 12        	sta	($12)                   ; 0x12 <__rc2>
    2a4d: a9 00        	lda	#$0
    2a4f: 6a           	ror
    2a50: 85 14        	sta	$14                     ; 0x14 <__rc4>
    2a52: a6 83        	ldx	$83                     ; 0x83 <kernelEventData>
    2a54: e0 38        	cpx	#$38
    2a56: f0 04        	beq	$2a5c <f256main+0x205c>
    2a58: e0 32        	cpx	#$32
    2a5a: d0 ea        	bne	$2a46 <f256main+0x2046>
    2a5c: a6 0f        	ldx	$f                      ; 0xf <__data_size+0xf>
    2a5e: 78           	sei
    2a5f: a9 28        	lda	#$28
    2a61: 85 0f        	sta	$f                      ; 0xf <__data_size+0xf>
    2a63: ac 09 e0     	ldy	$e009                   ; 0xe009 <__heap_start+0x550d>
    2a66: 86 0f        	stx	$f                      ; 0xf <__data_size+0xf>
    2a68: 58           	cli
    2a69: a6 0f        	ldx	$f                      ; 0xf <__data_size+0xf>
    2a6b: 78           	sei
    2a6c: 85 0f        	sta	$f                      ; 0xf <__data_size+0xf>
    2a6e: ac 08 e0     	ldy	$e008                   ; 0xe008 <__heap_start+0x550c>
    2a71: 86 0f        	stx	$f                      ; 0xf <__data_size+0xf>
    2a73: 58           	cli
    2a74: a4 0f        	ldy	$f                      ; 0xf <__data_size+0xf>
    2a76: 78           	sei
    2a77: 85 0f        	sta	$f                      ; 0xf <__data_size+0xf>
    2a79: ae 0b e0     	ldx	$e00b                   ; 0xe00b <__heap_start+0x550f>
    2a7c: 84 0f        	sty	$f                      ; 0xf <__data_size+0xf>
    2a7e: 58           	cli
    2a7f: a4 0f        	ldy	$f                      ; 0xf <__data_size+0xf>
    2a81: 78           	sei
    2a82: 85 0f        	sta	$f                      ; 0xf <__data_size+0xf>
    2a84: 85 12        	sta	$12                     ; 0x12 <__rc2>
    2a86: ad 0a e0     	lda	$e00a                   ; 0xe00a <__heap_start+0x550e>
    2a89: 84 0f        	sty	$f                      ; 0xf <__data_size+0xf>
    2a8b: 58           	cli
    2a8c: 86 68        	stx	$68                     ; 0x68 <myRecord.2>
    2a8e: 85 69        	sta	$69                     ; 0x69 <myRecord.2+0x1>
    2a90: a6 0f        	ldx	$f                      ; 0xf <__data_size+0xf>
    2a92: 78           	sei
    2a93: a4 12        	ldy	$12                     ; 0x12 <__rc2>
    2a95: 84 0f        	sty	$f                      ; 0xf <__data_size+0xf>
    2a97: a5 12        	lda	$12                     ; 0x12 <__rc2>
    2a99: ac 0d e0     	ldy	$e00d                   ; 0xe00d <__heap_start+0x5511>
    2a9c: 86 0f        	stx	$f                      ; 0xf <__data_size+0xf>
    2a9e: 58           	cli
    2a9f: a6 0f        	ldx	$f                      ; 0xf <__data_size+0xf>
    2aa1: 78           	sei
    2aa2: 85 0f        	sta	$f                      ; 0xf <__data_size+0xf>
    2aa4: ac 0c e0     	ldy	$e00c                   ; 0xe00c <__heap_start+0x5510>
    2aa7: 86 0f        	stx	$f                      ; 0xf <__data_size+0xf>
    2aa9: 58           	cli
    2aaa: a6 68        	ldx	$68                     ; 0x68 <myRecord.2>
    2aac: a4 69        	ldy	$69                     ; 0x69 <myRecord.2+0x1>
    2aae: d0 03        	bne	$2ab3 <f256main+0x20b3>
    2ab0: 4c 6b 2f     	jmp	$2f6b <f256main+0x256b>
    2ab3: a2 0e        	ldx	#$e
    2ab5: 86 15        	stx	$15                     ; 0x15 <__rc5>
    2ab7: 64 18        	stz	$18                     ; 0x18 <__rc8>
    2ab9: a0 00        	ldy	#$0
    2abb: 64 13        	stz	$13                     ; 0x13 <__rc3>
    2abd: 64 14        	stz	$14                     ; 0x14 <__rc4>
    2abf: 64 1a        	stz	$1a                     ; 0x1a <__rc10>
    2ac1: a6 14        	ldx	$14                     ; 0x14 <__rc4>
    2ac3: 86 12        	stx	$12                     ; 0x12 <__rc2>
    2ac5: 84 14        	sty	$14                     ; 0x14 <__rc4>
    2ac7: e6 18        	inc	$18                     ; 0x18 <__rc8>
    2ac9: d0 02        	bne	$2acd <f256main+0x20cd>
    2acb: e6 14        	inc	$14                     ; 0x14 <__rc4>
    2acd: 18           	clc
    2ace: a6 15        	ldx	$15                     ; 0x15 <__rc5>
    2ad0: a5 15        	lda	$15                     ; 0x15 <__rc5>
    2ad2: 69 04        	adc	#$4
    2ad4: 85 16        	sta	$16                     ; 0x16 <__rc6>
    2ad6: a5 13        	lda	$13                     ; 0x13 <__rc3>
    2ad8: a4 13        	ldy	$13                     ; 0x13 <__rc3>
    2ada: 84 1b        	sty	$1b                     ; 0x1b <__rc11>
    2adc: 69 00        	adc	#$0
    2ade: a8           	tay
    2adf: 86 19        	stx	$19                     ; 0x19 <__rc9>
    2ae1: a5 12        	lda	$12                     ; 0x12 <__rc2>
    2ae3: 69 05        	adc	#$5
    2ae5: a6 0f        	ldx	$f                      ; 0xf <__data_size+0xf>
    2ae7: 78           	sei
    2ae8: 84 13        	sty	$13                     ; 0x13 <__rc3>
    2aea: 06 13        	asl	$13                     ; 0x13 <__rc3>
    2aec: 2a           	rol
    2aed: 06 13        	asl	$13                     ; 0x13 <__rc3>
    2aef: 2a           	rol
    2af0: 06 13        	asl	$13                     ; 0x13 <__rc3>
    2af2: 2a           	rol
    2af3: 85 0f        	sta	$f                      ; 0xf <__data_size+0xf>
    2af5: 98           	tya
    2af6: 09 e0        	ora	#$e0
    2af8: 85 17        	sta	$17                     ; 0x17 <__rc7>
    2afa: b2 16        	lda	($16)                   ; 0x16 <__rc6>
    2afc: 86 0f        	stx	$f                      ; 0xf <__data_size+0xf>
    2afe: 58           	cli
    2aff: 18           	clc
    2b00: a5 19        	lda	$19                     ; 0x19 <__rc9>
    2b02: 69 05        	adc	#$5
    2b04: 85 16        	sta	$16                     ; 0x16 <__rc6>
    2b06: a5 1b        	lda	$1b                     ; 0x1b <__rc11>
    2b08: 69 00        	adc	#$0
    2b0a: a8           	tay
    2b0b: a5 12        	lda	$12                     ; 0x12 <__rc2>
    2b0d: 69 05        	adc	#$5
    2b0f: a6 0f        	ldx	$f                      ; 0xf <__data_size+0xf>
    2b11: 78           	sei
    2b12: 84 13        	sty	$13                     ; 0x13 <__rc3>
    2b14: 06 13        	asl	$13                     ; 0x13 <__rc3>
    2b16: 2a           	rol
    2b17: 06 13        	asl	$13                     ; 0x13 <__rc3>
    2b19: 2a           	rol
    2b1a: 06 13        	asl	$13                     ; 0x13 <__rc3>
    2b1c: 2a           	rol
    2b1d: 85 0f        	sta	$f                      ; 0xf <__data_size+0xf>
    2b1f: 98           	tya
    2b20: 09 e0        	ora	#$e0
    2b22: 85 17        	sta	$17                     ; 0x17 <__rc7>
    2b24: b2 16        	lda	($16)                   ; 0x16 <__rc6>
    2b26: 85 1c        	sta	$1c                     ; 0x1c <__rc12>
    2b28: 86 0f        	stx	$f                      ; 0xf <__data_size+0xf>
    2b2a: 58           	cli
    2b2b: 18           	clc
    2b2c: a5 19        	lda	$19                     ; 0x19 <__rc9>
    2b2e: 69 06        	adc	#$6
    2b30: 85 16        	sta	$16                     ; 0x16 <__rc6>
    2b32: a5 1b        	lda	$1b                     ; 0x1b <__rc11>
    2b34: 69 00        	adc	#$0
    2b36: a8           	tay
    2b37: a5 12        	lda	$12                     ; 0x12 <__rc2>
    2b39: 69 05        	adc	#$5
    2b3b: a6 0f        	ldx	$f                      ; 0xf <__data_size+0xf>
    2b3d: 78           	sei
    2b3e: 84 13        	sty	$13                     ; 0x13 <__rc3>
    2b40: 06 13        	asl	$13                     ; 0x13 <__rc3>
    2b42: 2a           	rol
    2b43: 06 13        	asl	$13                     ; 0x13 <__rc3>
    2b45: 2a           	rol
    2b46: 06 13        	asl	$13                     ; 0x13 <__rc3>
    2b48: 2a           	rol
    2b49: 85 0f        	sta	$f                      ; 0xf <__data_size+0xf>
    2b4b: 98           	tya
    2b4c: 09 e0        	ora	#$e0
    2b4e: 85 17        	sta	$17                     ; 0x17 <__rc7>
    2b50: b2 16        	lda	($16)                   ; 0x16 <__rc6>
    2b52: 85 13        	sta	$13                     ; 0x13 <__rc3>
    2b54: 86 0f        	stx	$f                      ; 0xf <__data_size+0xf>
    2b56: 58           	cli
    2b57: 18           	clc
    2b58: a5 19        	lda	$19                     ; 0x19 <__rc9>
    2b5a: 69 07        	adc	#$7
    2b5c: 85 16        	sta	$16                     ; 0x16 <__rc6>
    2b5e: a5 1b        	lda	$1b                     ; 0x1b <__rc11>
    2b60: 69 00        	adc	#$0
    2b62: 85 17        	sta	$17                     ; 0x17 <__rc7>
    2b64: a5 12        	lda	$12                     ; 0x12 <__rc2>
    2b66: 69 05        	adc	#$5
    2b68: a6 17        	ldx	$17                     ; 0x17 <__rc7>
    2b6a: 86 15        	stx	$15                     ; 0x15 <__rc5>
    2b6c: 06 15        	asl	$15                     ; 0x15 <__rc5>
    2b6e: 2a           	rol
    2b6f: 06 15        	asl	$15                     ; 0x15 <__rc5>
    2b71: 2a           	rol
    2b72: 06 15        	asl	$15                     ; 0x15 <__rc5>
    2b74: 2a           	rol
    2b75: a6 0f        	ldx	$f                      ; 0xf <__data_size+0xf>
    2b77: 78           	sei
    2b78: 85 0f        	sta	$f                      ; 0xf <__data_size+0xf>
    2b7a: a4 14        	ldy	$14                     ; 0x14 <__rc4>
    2b7c: a5 17        	lda	$17                     ; 0x17 <__rc7>
    2b7e: 09 e0        	ora	#$e0
    2b80: 85 17        	sta	$17                     ; 0x17 <__rc7>
    2b82: b2 16        	lda	($16)                   ; 0x16 <__rc6>
    2b84: 85 14        	sta	$14                     ; 0x14 <__rc4>
    2b86: a5 19        	lda	$19                     ; 0x19 <__rc9>
    2b88: 86 0f        	stx	$f                      ; 0xf <__data_size+0xf>
    2b8a: 58           	cli
    2b8b: 18           	clc
    2b8c: 69 00        	adc	#$0
    2b8e: 85 17        	sta	$17                     ; 0x17 <__rc7>
    2b90: a5 1b        	lda	$1b                     ; 0x1b <__rc11>
    2b92: 69 00        	adc	#$0
    2b94: 85 15        	sta	$15                     ; 0x15 <__rc5>
    2b96: a5 1c        	lda	$1c                     ; 0x1c <__rc12>
    2b98: 65 12        	adc	$12                     ; 0x12 <__rc2>
    2b9a: 85 16        	sta	$16                     ; 0x16 <__rc6>
    2b9c: a5 1a        	lda	$1a                     ; 0x1a <__rc10>
    2b9e: 69 00        	adc	#$0
    2ba0: aa           	tax
    2ba1: 18           	clc
    2ba2: a5 17        	lda	$17                     ; 0x17 <__rc7>
    2ba4: 69 00        	adc	#$0
    2ba6: 85 17        	sta	$17                     ; 0x17 <__rc7>
    2ba8: a5 15        	lda	$15                     ; 0x15 <__rc5>
    2baa: 65 13        	adc	$13                     ; 0x13 <__rc3>
    2bac: 85 12        	sta	$12                     ; 0x12 <__rc2>
    2bae: a5 16        	lda	$16                     ; 0x16 <__rc6>
    2bb0: 69 00        	adc	#$0
    2bb2: 85 13        	sta	$13                     ; 0x13 <__rc3>
    2bb4: 8a           	txa
    2bb5: 69 00        	adc	#$0
    2bb7: 85 15        	sta	$15                     ; 0x15 <__rc5>
    2bb9: 18           	clc
    2bba: a5 17        	lda	$17                     ; 0x17 <__rc7>
    2bbc: 65 14        	adc	$14                     ; 0x14 <__rc4>
    2bbe: 85 14        	sta	$14                     ; 0x14 <__rc4>
    2bc0: a5 12        	lda	$12                     ; 0x12 <__rc2>
    2bc2: 69 00        	adc	#$0
    2bc4: 85 12        	sta	$12                     ; 0x12 <__rc2>
    2bc6: a5 13        	lda	$13                     ; 0x13 <__rc3>
    2bc8: 69 00        	adc	#$0
    2bca: aa           	tax
    2bcb: a5 15        	lda	$15                     ; 0x15 <__rc5>
    2bcd: 69 00        	adc	#$0
    2bcf: 85 16        	sta	$16                     ; 0x16 <__rc6>
    2bd1: 18           	clc
    2bd2: a5 14        	lda	$14                     ; 0x14 <__rc4>
    2bd4: 69 08        	adc	#$8
    2bd6: 85 15        	sta	$15                     ; 0x15 <__rc5>
    2bd8: a5 12        	lda	$12                     ; 0x12 <__rc2>
    2bda: 69 00        	adc	#$0
    2bdc: 85 13        	sta	$13                     ; 0x13 <__rc3>
    2bde: 8a           	txa
    2bdf: 69 00        	adc	#$0
    2be1: 85 14        	sta	$14                     ; 0x14 <__rc4>
    2be3: a5 16        	lda	$16                     ; 0x16 <__rc6>
    2be5: 69 00        	adc	#$0
    2be7: 85 1a        	sta	$1a                     ; 0x1a <__rc10>
    2be9: c4 69        	cpy	$69                     ; 0x69 <myRecord.2+0x1>
    2beb: d0 0d        	bne	$2bfa <f256main+0x21fa>
    2bed: a6 68        	ldx	$68                     ; 0x68 <myRecord.2>
    2bef: 86 12        	stx	$12                     ; 0x12 <__rc2>
    2bf1: a6 18        	ldx	$18                     ; 0x18 <__rc8>
    2bf3: e4 12        	cpx	$12                     ; 0x12 <__rc2>
    2bf5: b0 0a        	bcs	$2c01 <f256main+0x2201>
    2bf7: 4c c1 2a     	jmp	$2ac1 <f256main+0x20c1>
    2bfa: c4 69        	cpy	$69                     ; 0x69 <myRecord.2+0x1>
    2bfc: b0 03        	bcs	$2c01 <f256main+0x2201>
    2bfe: 4c c1 2a     	jmp	$2ac1 <f256main+0x20c1>
    2c01: a4 0f        	ldy	$f                      ; 0xf <__data_size+0xf>
    2c03: 78           	sei
    2c04: a9 28        	lda	#$28
    2c06: 85 0f        	sta	$f                      ; 0xf <__data_size+0xf>
    2c08: ae 0a e0     	ldx	$e00a                   ; 0xe00a <__heap_start+0x550e>
    2c0b: 84 0f        	sty	$f                      ; 0xf <__data_size+0xf>
    2c0d: 58           	cli
    2c0e: a4 0f        	ldy	$f                      ; 0xf <__data_size+0xf>
    2c10: 78           	sei
    2c11: 85 0f        	sta	$f                      ; 0xf <__data_size+0xf>
    2c13: 85 26        	sta	$26                     ; 0x26 <__rc22>
    2c15: ad 0b e0     	lda	$e00b                   ; 0xe00b <__heap_start+0x550f>
    2c18: 84 0f        	sty	$f                      ; 0xf <__data_size+0xf>
    2c1a: 58           	cli
    2c1b: 85 6f        	sta	$6f                     ; 0x6f <theOne.0>
    2c1d: 86 70        	stx	$70                     ; 0x70 <theOne.0+0x1>
    2c1f: a0 19        	ldy	#$19
    2c21: 64 24        	stz	$24                     ; 0x24 <__rc20>
    2c23: 84 12        	sty	$12                     ; 0x12 <__rc2>
    2c25: 64 13        	stz	$13                     ; 0x13 <__rc3>
    2c27: 20 4f 86     	jsr	$864f <__mulhi3>
    2c2a: 20 c0 82     	jsr	$82c0 <malloc>
    2c2d: a6 12        	ldx	$12                     ; 0x12 <__rc2>
    2c2f: a4 13        	ldy	$13                     ; 0x13 <__rc3>
    2c31: 86 80        	stx	$80                     ; 0x80 <theOne.8>
    2c33: 84 81        	sty	$81                     ; 0x81 <theOne.8+0x1>
    2c35: 64 77        	stz	$77                     ; 0x77 <theOne.4>
    2c37: a2 20        	ldx	#$20
    2c39: 86 73        	stx	$73                     ; 0x73 <theOne.2>
    2c3b: 86 25        	stx	$25                     ; 0x25 <__rc21>
    2c3d: a2 a1        	ldx	#$a1
    2c3f: 86 74        	stx	$74                     ; 0x74 <theOne.2+0x1>
    2c41: a2 07        	ldx	#$7
    2c43: 86 75        	stx	$75                     ; 0x75 <theOne.2+0x2>
    2c45: 64 76        	stz	$76                     ; 0x76 <theOne.2+0x3>
    2c47: a2 30        	ldx	#$30
    2c49: 86 71        	stx	$71                     ; 0x71 <theOne.1>
    2c4b: 64 72        	stz	$72                     ; 0x72 <theOne.1+0x1>
    2c4d: a4 0f        	ldy	$f                      ; 0xf <__data_size+0xf>
    2c4f: 78           	sei
    2c50: a5 26        	lda	$26                     ; 0x26 <__rc22>
    2c52: 85 0f        	sta	$f                      ; 0xf <__data_size+0xf>
    2c54: ae 0c e0     	ldx	$e00c                   ; 0xe00c <__heap_start+0x5510>
    2c57: 84 0f        	sty	$f                      ; 0xf <__data_size+0xf>
    2c59: 58           	cli
    2c5a: a4 0f        	ldy	$f                      ; 0xf <__data_size+0xf>
    2c5c: 78           	sei
    2c5d: 85 0f        	sta	$f                      ; 0xf <__data_size+0xf>
    2c5f: ad 0d e0     	lda	$e00d                   ; 0xe00d <__heap_start+0x5511>
    2c62: 84 0f        	sty	$f                      ; 0xf <__data_size+0xf>
    2c64: 58           	cli
    2c65: 85 71        	sta	$71                     ; 0x71 <theOne.1>
    2c67: 86 72        	stx	$72                     ; 0x72 <theOne.1+0x1>
    2c69: 20 bd 6e     	jsr	$6ebd <resetTrack>
    2c6c: a2 0f        	ldx	#$f
    2c6e: 8e c4 8a     	stx	$8ac4                   ; 0x8ac4 <sidInstruments>
    2c71: 86 14        	stx	$14                     ; 0x14 <__rc4>
    2c73: a2 44        	ldx	#$44
    2c75: 8e c5 8a     	stx	$8ac5                   ; 0x8ac5 <sidInstruments+0x1>
    2c78: 8a           	txa
    2c79: 9c c6 8a     	stz	$8ac6                   ; 0x8ac6 <sidInstruments+0x2>
    2c7c: a2 27        	ldx	#$27
    2c7e: 8e c7 8a     	stx	$8ac7                   ; 0x8ac7 <sidInstruments+0x3>
    2c81: 86 13        	stx	$13                     ; 0x13 <__rc3>
    2c83: a2 5b        	ldx	#$5b
    2c85: 8e c8 8a     	stx	$8ac8                   ; 0x8ac8 <sidInstruments+0x4>
    2c88: a0 10        	ldy	#$10
    2c8a: 8c c9 8a     	sty	$8ac9                   ; 0x8ac9 <sidInstruments+0x5>
    2c8d: 9c ca 8a     	stz	$8aca                   ; 0x8aca <sidInstruments+0x6>
    2c90: 9c cb 8a     	stz	$8acb                   ; 0x8acb <sidInstruments+0x7>
    2c93: 9c cc 8a     	stz	$8acc                   ; 0x8acc <sidInstruments+0x8>
    2c96: 8d 02 d4     	sta	$d402                   ; 0xd402 <__heap_start+0x4906>
    2c99: 85 12        	sta	$12                     ; 0x12 <__rc2>
    2c9b: 9c 03 d4     	stz	$d403                   ; 0xd403 <__heap_start+0x4907>
    2c9e: a5 13        	lda	$13                     ; 0x13 <__rc3>
    2ca0: 8d 05 d4     	sta	$d405                   ; 0xd405 <__heap_start+0x4909>
    2ca3: 8e 06 d4     	stx	$d406                   ; 0xd406 <__heap_start+0x490a>
    2ca6: 8c 04 d4     	sty	$d404                   ; 0xd404 <__heap_start+0x4908>
    2ca9: a2 0a        	ldx	#$a
    2cab: 8e cd 8a     	stx	$8acd                   ; 0x8acd <sidInstruments+0x9>
    2cae: 86 13        	stx	$13                     ; 0x13 <__rc3>
    2cb0: a2 88        	ldx	#$88
    2cb2: 8e ce 8a     	stx	$8ace                   ; 0x8ace <sidInstruments+0xa>
    2cb5: 8a           	txa
    2cb6: 9c cf 8a     	stz	$8acf                   ; 0x8acf <sidInstruments+0xb>
    2cb9: a2 09        	ldx	#$9
    2cbb: 8e d0 8a     	stx	$8ad0                   ; 0x8ad0 <sidInstruments+0xc>
    2cbe: 86 16        	stx	$16                     ; 0x16 <__rc6>
    2cc0: a0 82        	ldy	#$82
    2cc2: 8c d1 8a     	sty	$8ad1                   ; 0x8ad1 <sidInstruments+0xd>
    2cc5: a6 25        	ldx	$25                     ; 0x25 <__rc21>
    2cc7: 8e d2 8a     	stx	$8ad2                   ; 0x8ad2 <sidInstruments+0xe>
    2cca: 9c d3 8a     	stz	$8ad3                   ; 0x8ad3 <sidInstruments+0xf>
    2ccd: 9c d4 8a     	stz	$8ad4                   ; 0x8ad4 <sidInstruments+0x10>
    2cd0: 9c d5 8a     	stz	$8ad5                   ; 0x8ad5 <sidInstruments+0x11>
    2cd3: 8d 09 d4     	sta	$d409                   ; 0xd409 <__heap_start+0x490d>
    2cd6: 9c 0a d4     	stz	$d40a                   ; 0xd40a <__heap_start+0x490e>
    2cd9: a5 16        	lda	$16                     ; 0x16 <__rc6>
    2cdb: 8d 0c d4     	sta	$d40c                   ; 0xd40c <__heap_start+0x4910>
    2cde: 8c 0d d4     	sty	$d40d                   ; 0xd40d <__heap_start+0x4911>
    2ce1: 8e 0b d4     	stx	$d40b                   ; 0xd40b <__heap_start+0x490f>
    2ce4: a4 14        	ldy	$14                     ; 0x14 <__rc4>
    2ce6: 8c d6 8a     	sty	$8ad6                   ; 0x8ad6 <sidInstruments+0x12>
    2ce9: 9c d7 8a     	stz	$8ad7                   ; 0x8ad7 <sidInstruments+0x13>
    2cec: a9 08        	lda	#$8
    2cee: 8d d8 8a     	sta	$8ad8                   ; 0x8ad8 <sidInstruments+0x14>
    2cf1: 9c d9 8a     	stz	$8ad9                   ; 0x8ad9 <sidInstruments+0x15>
    2cf4: a2 40        	ldx	#$40
    2cf6: 8e da 8a     	stx	$8ada                   ; 0x8ada <sidInstruments+0x16>
    2cf9: 8e db 8a     	stx	$8adb                   ; 0x8adb <sidInstruments+0x17>
    2cfc: 9c dc 8a     	stz	$8adc                   ; 0x8adc <sidInstruments+0x18>
    2cff: 9c dd 8a     	stz	$8add                   ; 0x8add <sidInstruments+0x19>
    2d02: 9c de 8a     	stz	$8ade                   ; 0x8ade <sidInstruments+0x1a>
    2d05: 9c 10 d4     	stz	$d410                   ; 0xd410 <__heap_start+0x4914>
    2d08: 8d 11 d4     	sta	$d411                   ; 0xd411 <__heap_start+0x4915>
    2d0b: 9c 13 d4     	stz	$d413                   ; 0xd413 <__heap_start+0x4917>
    2d0e: 8e 14 d4     	stx	$d414                   ; 0xd414 <__heap_start+0x4918>
    2d11: 8e 12 d4     	stx	$d412                   ; 0xd412 <__heap_start+0x4916>
    2d14: 86 16        	stx	$16                     ; 0x16 <__rc6>
    2d16: 8c df 8a     	sty	$8adf                   ; 0x8adf <sidInstruments+0x1b>
    2d19: a6 12        	ldx	$12                     ; 0x12 <__rc2>
    2d1b: 8e e0 8a     	stx	$8ae0                   ; 0x8ae0 <sidInstruments+0x1c>
    2d1e: 9c e1 8a     	stz	$8ae1                   ; 0x8ae1 <sidInstruments+0x1d>
    2d21: a0 70        	ldy	#$70
    2d23: 8c e2 8a     	sty	$8ae2                   ; 0x8ae2 <sidInstruments+0x1e>
    2d26: 9c e3 8a     	stz	$8ae3                   ; 0x8ae3 <sidInstruments+0x1f>
    2d29: a9 80        	lda	#$80
    2d2b: 8d e4 8a     	sta	$8ae4                   ; 0x8ae4 <sidInstruments+0x20>
    2d2e: 9c e5 8a     	stz	$8ae5                   ; 0x8ae5 <sidInstruments+0x21>
    2d31: 9c e6 8a     	stz	$8ae6                   ; 0x8ae6 <sidInstruments+0x22>
    2d34: 9c e7 8a     	stz	$8ae7                   ; 0x8ae7 <sidInstruments+0x23>
    2d37: 8e 02 d5     	stx	$d502                   ; 0xd502 <__heap_start+0x4a06>
    2d3a: 86 15        	stx	$15                     ; 0x15 <__rc5>
    2d3c: 9c 03 d5     	stz	$d503                   ; 0xd503 <__heap_start+0x4a07>
    2d3f: 8c 05 d5     	sty	$d505                   ; 0xd505 <__heap_start+0x4a09>
    2d42: 9c 06 d5     	stz	$d506                   ; 0xd506 <__heap_start+0x4a0a>
    2d45: 8d 04 d5     	sta	$d504                   ; 0xd504 <__heap_start+0x4a08>
    2d48: a6 13        	ldx	$13                     ; 0x13 <__rc3>
    2d4a: 8e e8 8a     	stx	$8ae8                   ; 0x8ae8 <sidInstruments+0x24>
    2d4d: a9 90        	lda	#$90
    2d4f: 8d e9 8a     	sta	$8ae9                   ; 0x8ae9 <sidInstruments+0x25>
    2d52: a2 04        	ldx	#$4
    2d54: 8e ea 8a     	stx	$8aea                   ; 0x8aea <sidInstruments+0x26>
    2d57: 86 12        	stx	$12                     ; 0x12 <__rc2>
    2d59: a2 d6        	ldx	#$d6
    2d5b: 8e eb 8a     	stx	$8aeb                   ; 0x8aeb <sidInstruments+0x27>
    2d5e: 86 13        	stx	$13                     ; 0x13 <__rc3>
    2d60: a0 ba        	ldy	#$ba
    2d62: 8c ec 8a     	sty	$8aec                   ; 0x8aec <sidInstruments+0x28>
    2d65: a6 16        	ldx	$16                     ; 0x16 <__rc6>
    2d67: 8e ed 8a     	stx	$8aed                   ; 0x8aed <sidInstruments+0x29>
    2d6a: 9c ee 8a     	stz	$8aee                   ; 0x8aee <sidInstruments+0x2a>
    2d6d: 9c ef 8a     	stz	$8aef                   ; 0x8aef <sidInstruments+0x2b>
    2d70: 9c f0 8a     	stz	$8af0                   ; 0x8af0 <sidInstruments+0x2c>
    2d73: 8d 09 d5     	sta	$d509                   ; 0xd509 <__heap_start+0x4a0d>
    2d76: a5 12        	lda	$12                     ; 0x12 <__rc2>
    2d78: 8d 0a d5     	sta	$d50a                   ; 0xd50a <__heap_start+0x4a0e>
    2d7b: a5 13        	lda	$13                     ; 0x13 <__rc3>
    2d7d: 8d 0c d5     	sta	$d50c                   ; 0xd50c <__heap_start+0x4a10>
    2d80: 8c 0d d5     	sty	$d50d                   ; 0xd50d <__heap_start+0x4a11>
    2d83: a0 40        	ldy	#$40
    2d85: 98           	tya
    2d86: a0 11        	ldy	#$11
    2d88: 91 10        	sta	($10),y                 ; 0x10 <__rc0>
    2d8a: 8e 0b d5     	stx	$d50b                   ; 0xd50b <__heap_start+0x4a0f>
    2d8d: a6 14        	ldx	$14                     ; 0x14 <__rc4>
    2d8f: 8e f1 8a     	stx	$8af1                   ; 0x8af1 <sidInstruments+0x2d>
    2d92: a6 15        	ldx	$15                     ; 0x15 <__rc5>
    2d94: 8e f2 8a     	stx	$8af2                   ; 0x8af2 <sidInstruments+0x2e>
    2d97: 9c f3 8a     	stz	$8af3                   ; 0x8af3 <sidInstruments+0x2f>
    2d9a: a0 32        	ldy	#$32
    2d9c: 8c f4 8a     	sty	$8af4                   ; 0x8af4 <sidInstruments+0x30>
    2d9f: 84 12        	sty	$12                     ; 0x12 <__rc2>
    2da1: a0 23        	ldy	#$23
    2da3: 8c f5 8a     	sty	$8af5                   ; 0x8af5 <sidInstruments+0x31>
    2da6: a9 80        	lda	#$80
    2da8: 8d f6 8a     	sta	$8af6                   ; 0x8af6 <sidInstruments+0x32>
    2dab: 9c f7 8a     	stz	$8af7                   ; 0x8af7 <sidInstruments+0x33>
    2dae: 9c f8 8a     	stz	$8af8                   ; 0x8af8 <sidInstruments+0x34>
    2db1: 9c f9 8a     	stz	$8af9                   ; 0x8af9 <sidInstruments+0x35>
    2db4: 8e 10 d5     	stx	$d510                   ; 0xd510 <__heap_start+0x4a14>
    2db7: 9c 11 d5     	stz	$d511                   ; 0xd511 <__heap_start+0x4a15>
    2dba: a6 12        	ldx	$12                     ; 0x12 <__rc2>
    2dbc: 8e 13 d5     	stx	$d513                   ; 0xd513 <__heap_start+0x4a17>
    2dbf: 8c 14 d5     	sty	$d514                   ; 0xd514 <__heap_start+0x4a18>
    2dc2: 8d 12 d5     	sta	$d512                   ; 0xd512 <__heap_start+0x4a16>
    2dc5: a8           	tay
    2dc6: 9c 14 d4     	stz	$d414                   ; 0xd414 <__heap_start+0x4918>
    2dc9: 9c 15 d4     	stz	$d415                   ; 0xd415 <__heap_start+0x4919>
    2dcc: 9c 17 d4     	stz	$d417                   ; 0xd417 <__heap_start+0x491b>
    2dcf: a2 0a        	ldx	#$a
    2dd1: 8e 18 d4     	stx	$d418                   ; 0xd418 <__heap_start+0x491c>
    2dd4: 9c 14 d5     	stz	$d514                   ; 0xd514 <__heap_start+0x4a18>
    2dd7: 9c 15 d5     	stz	$d515                   ; 0xd515 <__heap_start+0x4a19>
    2dda: 9c 17 d5     	stz	$d517                   ; 0xd517 <__heap_start+0x4a1b>
    2ddd: 8e 18 d5     	stx	$d518                   ; 0xd518 <__heap_start+0x4a1c>
    2de0: 86 14        	stx	$14                     ; 0x14 <__rc4>
    2de2: a2 11        	ldx	#$11
    2de4: 86 4c        	stx	$4c                     ; 0x4c <chipXChannel>
    2de6: 84 f3        	sty	$f3                     ; 0xf3 <__bss_size+0x6e>
    2de8: a2 82        	ldx	#$82
    2dea: 86 12        	stx	$12                     ; 0x12 <__rc2>
    2dec: a2 00        	ldx	#$0
    2dee: 86 13        	stx	$13                     ; 0x13 <__rc3>
    2df0: 20 f0 ff     	jsr	$fff0 <__heap_start+0x74f4>
    2df3: 92 2c        	sta	($2c)                   ; 0x2c <__zp_data_size>
    2df5: a9 00        	lda	#$0
    2df7: 6a           	ror
    2df8: 85 12        	sta	$12                     ; 0x12 <__rc2>
    2dfa: 18           	clc
    2dfb: a9 05        	lda	#$5
    2dfd: 72 2c        	adc	($2c)                   ; 0x2c <__zp_data_size>
    2dff: 85 6a        	sta	$6a                     ; 0x6a <planetScroll.1>
    2e01: 64 f3        	stz	$f3                     ; 0xf3 <__bss_size+0x6e>
    2e03: a6 6a        	ldx	$6a                     ; 0x6a <planetScroll.1>
    2e05: 86 f4        	stx	$f4                     ; 0xf4 <__bss_size+0x6f>
    2e07: a6 14        	ldx	$14                     ; 0x14 <__rc4>
    2e09: 86 f5        	stx	$f5                     ; 0xf5 <__bss_size+0x70>
    2e0b: 20 f0 ff     	jsr	$fff0 <__heap_start+0x74f4>
    2e0e: 92 2c        	sta	($2c)                   ; 0x2c <__zp_data_size>
    2e10: a9 00        	lda	#$0
    2e12: 6a           	ror
    2e13: 85 12        	sta	$12                     ; 0x12 <__rc2>
    2e15: 84 f3        	sty	$f3                     ; 0xf3 <__bss_size+0x6e>
    2e17: 20 f0 ff     	jsr	$fff0 <__heap_start+0x74f4>
    2e1a: 92 2c        	sta	($2c)                   ; 0x2c <__zp_data_size>
    2e1c: a9 00        	lda	#$0
    2e1e: 6a           	ror
    2e1f: 85 12        	sta	$12                     ; 0x12 <__rc2>
    2e21: a9 02        	lda	#$2
    2e23: 18           	clc
    2e24: 72 2c        	adc	($2c)                   ; 0x2c <__zp_data_size>
    2e26: 85 6b        	sta	$6b                     ; 0x6b <shipExhaust.1>
    2e28: 64 f3        	stz	$f3                     ; 0xf3 <__bss_size+0x6e>
    2e2a: a6 6b        	ldx	$6b                     ; 0x6b <shipExhaust.1>
    2e2c: 86 f4        	stx	$f4                     ; 0xf4 <__bss_size+0x6f>
    2e2e: a2 0b        	ldx	#$b
    2e30: 86 f5        	stx	$f5                     ; 0xf5 <__bss_size+0x70>
    2e32: 20 f0 ff     	jsr	$fff0 <__heap_start+0x74f4>
    2e35: 92 2c        	sta	($2c)                   ; 0x2c <__zp_data_size>
    2e37: a9 00        	lda	#$0
    2e39: 6a           	ror
    2e3a: 85 12        	sta	$12                     ; 0x12 <__rc2>
    2e3c: 84 f3        	sty	$f3                     ; 0xf3 <__bss_size+0x6e>
    2e3e: 20 f0 ff     	jsr	$fff0 <__heap_start+0x74f4>
    2e41: 92 2c        	sta	($2c)                   ; 0x2c <__zp_data_size>
    2e43: a9 00        	lda	#$0
    2e45: 6a           	ror
    2e46: 85 12        	sta	$12                     ; 0x12 <__rc2>
    2e48: a9 03        	lda	#$3
    2e4a: 18           	clc
    2e4b: 72 2c        	adc	($2c)                   ; 0x2c <__zp_data_size>
    2e4d: 85 6d        	sta	$6d                     ; 0x6d <shipMT.1>
    2e4f: 64 f3        	stz	$f3                     ; 0xf3 <__bss_size+0x6e>
    2e51: a6 6d        	ldx	$6d                     ; 0x6d <shipMT.1>
    2e53: 86 f4        	stx	$f4                     ; 0xf4 <__bss_size+0x6f>
    2e55: a2 0c        	ldx	#$c
    2e57: 86 f5        	stx	$f5                     ; 0xf5 <__bss_size+0x70>
    2e59: 20 f0 ff     	jsr	$fff0 <__heap_start+0x74f4>
    2e5c: 92 2c        	sta	($2c)                   ; 0x2c <__zp_data_size>
    2e5e: a9 00        	lda	#$0
    2e60: 6a           	ror
    2e61: 85 12        	sta	$12                     ; 0x12 <__rc2>
    2e63: 84 f3        	sty	$f3                     ; 0xf3 <__bss_size+0x6e>
    2e65: 20 f0 ff     	jsr	$fff0 <__heap_start+0x74f4>
    2e68: 92 2c        	sta	($2c)                   ; 0x2c <__zp_data_size>
    2e6a: a9 00        	lda	#$0
    2e6c: 6a           	ror
    2e6d: 85 12        	sta	$12                     ; 0x12 <__rc2>
    2e6f: 18           	clc
    2e70: a9 02        	lda	#$2
    2e72: 72 2c        	adc	($2c)                   ; 0x2c <__zp_data_size>
    2e74: 85 6e        	sta	$6e                     ; 0x6e <padTimer.1>
    2e76: 64 f3        	stz	$f3                     ; 0xf3 <__bss_size+0x6e>
    2e78: a6 6e        	ldx	$6e                     ; 0x6e <padTimer.1>
    2e7a: 86 f4        	stx	$f4                     ; 0xf4 <__bss_size+0x6f>
    2e7c: a2 1d        	ldx	#$1d
    2e7e: 86 f5        	stx	$f5                     ; 0xf5 <__bss_size+0x70>
    2e80: 20 f0 ff     	jsr	$fff0 <__heap_start+0x74f4>
    2e83: 92 2c        	sta	($2c)                   ; 0x2c <__zp_data_size>
    2e85: a9 00        	lda	#$0
    2e87: 6a           	ror
    2e88: 85 12        	sta	$12                     ; 0x12 <__rc2>
    2e8a: a6 6f        	ldx	$6f                     ; 0x6f <theOne.0>
    2e8c: a4 70        	ldy	$70                     ; 0x70 <theOne.0+0x1>
    2e8e: d0 03        	bne	$2e93 <f256main+0x2493>
    2e90: 4c 74 2f     	jmp	$2f74 <f256main+0x2574>
    2e93: a6 80        	ldx	$80                     ; 0x80 <theOne.8>
    2e95: a4 81        	ldy	$81                     ; 0x81 <theOne.8+0x1>
    2e97: 86 2e        	stx	$2e                     ; 0x2e <__rc30>
    2e99: 84 27        	sty	$27                     ; 0x27 <__rc23>
    2e9b: a2 19        	ldx	#$19
    2e9d: a9 00        	lda	#$0
    2e9f: a8           	tay
    2ea0: 48           	pha
    2ea1: 98           	tya
    2ea2: a0 13        	ldy	#$13
    2ea4: 91 10        	sta	($10),y                 ; 0x10 <__rc0>
    2ea6: 68           	pla
    2ea7: 86 29        	stx	$29                     ; 0x29 <__rc25>
    2ea9: 86 12        	stx	$12                     ; 0x12 <__rc2>
    2eab: 64 13        	stz	$13                     ; 0x13 <__rc3>
    2ead: a2 00        	ldx	#$0
    2eaf: c8           	iny
    2eb0: 91 10        	sta	($10),y                 ; 0x10 <__rc0>
    2eb2: 20 4f 86     	jsr	$864f <__mulhi3>
    2eb5: 18           	clc
    2eb6: 65 2e        	adc	$2e                     ; 0x2e <__rc30>
    2eb8: 85 12        	sta	$12                     ; 0x12 <__rc2>
    2eba: 8a           	txa
    2ebb: 65 27        	adc	$27                     ; 0x27 <__rc23>
    2ebd: 85 14        	sta	$14                     ; 0x14 <__rc4>
    2ebf: 85 13        	sta	$13                     ; 0x13 <__rc3>
    2ec1: a0 18        	ldy	#$18
    2ec3: b1 12        	lda	($12),y                 ; 0x12 <__rc2>
    2ec5: d0 2b        	bne	$2ef2 <f256main+0x24f2>
    2ec7: 18           	clc
    2ec8: a5 12        	lda	$12                     ; 0x12 <__rc2>
    2eca: 69 0c        	adc	#$c
    2ecc: aa           	tax
    2ecd: a5 14        	lda	$14                     ; 0x14 <__rc4>
    2ecf: 69 00        	adc	#$0
    2ed1: 86 14        	stx	$14                     ; 0x14 <__rc4>
    2ed3: 85 15        	sta	$15                     ; 0x15 <__rc5>
    2ed5: a0 0c        	ldy	#$c
    2ed7: b1 12        	lda	($12),y                 ; 0x12 <__rc2>
    2ed9: 85 12        	sta	$12                     ; 0x12 <__rc2>
    2edb: a0 01        	ldy	#$1
    2edd: b1 14        	lda	($14),y                 ; 0x14 <__rc4>
    2edf: 85 13        	sta	$13                     ; 0x13 <__rc3>
    2ee1: c8           	iny
    2ee2: b1 14        	lda	($14),y                 ; 0x14 <__rc4>
    2ee4: 85 16        	sta	$16                     ; 0x16 <__rc6>
    2ee6: c8           	iny
    2ee7: b1 14        	lda	($14),y                 ; 0x14 <__rc4>
    2ee9: d0 07        	bne	$2ef2 <f256main+0x24f2>
    2eeb: a5 16        	lda	$16                     ; 0x16 <__rc6>
    2eed: d0 03        	bne	$2ef2 <f256main+0x24f2>
    2eef: 4c 5a 2f     	jmp	$2f5a <f256main+0x255a>
    2ef2: a0 14        	ldy	#$14
    2ef4: b1 10        	lda	($10),y                 ; 0x10 <__rc0>
    2ef6: aa           	tax
    2ef7: 88           	dey
    2ef8: b1 10        	lda	($10),y                 ; 0x10 <__rc0>
    2efa: a8           	tay
    2efb: e8           	inx
    2efc: d0 01        	bne	$2eff <f256main+0x24ff>
    2efe: c8           	iny
    2eff: 8a           	txa
    2f00: c4 70        	cpy	$70                     ; 0x70 <theOne.0+0x1>
    2f02: d0 0d        	bne	$2f11 <f256main+0x2511>
    2f04: a6 6f        	ldx	$6f                     ; 0x6f <theOne.0>
    2f06: 86 12        	stx	$12                     ; 0x12 <__rc2>
    2f08: c5 12        	cmp	$12                     ; 0x12 <__rc2>
    2f0a: a6 29        	ldx	$29                     ; 0x29 <__rc25>
    2f0c: b0 0c        	bcs	$2f1a <f256main+0x251a>
    2f0e: 4c a0 2e     	jmp	$2ea0 <f256main+0x24a0>
    2f11: c4 70        	cpy	$70                     ; 0x70 <theOne.0+0x1>
    2f13: a6 29        	ldx	$29                     ; 0x29 <__rc25>
    2f15: b0 03        	bcs	$2f1a <f256main+0x251a>
    2f17: 4c a0 2e     	jmp	$2ea0 <f256main+0x24a0>
    2f1a: 9c 54 d6     	stz	$d654                   ; 0xd654 <__heap_start+0x4b58>
    2f1d: a2 02        	ldx	#$2
    2f1f: 8e 50 d6     	stx	$d650                   ; 0xd650 <__heap_start+0x4b54>
    2f22: a2 89        	ldx	#$89
    2f24: 8e 50 d6     	stx	$d650                   ; 0xd650 <__heap_start+0x4b54>
    2f27: 64 12        	stz	$12                     ; 0x12 <__rc2>
    2f29: a9 00        	lda	#$0
    2f2b: a0 0f        	ldy	#$f
    2f2d: 91 10        	sta	($10),y                 ; 0x10 <__rc0>
    2f2f: a0 0c        	ldy	#$c
    2f31: 91 10        	sta	($10),y                 ; 0x10 <__rc0>
    2f33: 88           	dey
    2f34: 91 10        	sta	($10),y                 ; 0x10 <__rc0>
    2f36: a0 13        	ldy	#$13
    2f38: 91 10        	sta	($10),y                 ; 0x10 <__rc0>
    2f3a: 88           	dey
    2f3b: 91 10        	sta	($10),y                 ; 0x10 <__rc0>
    2f3d: a2 01        	ldx	#$1
    2f3f: 8a           	txa
    2f40: a0 10        	ldy	#$10
    2f42: 91 10        	sta	($10),y                 ; 0x10 <__rc0>
    2f44: a2 03        	ldx	#$3
    2f46: 86 27        	stx	$27                     ; 0x27 <__rc23>
    2f48: a0 04        	ldy	#$4
    2f4a: 5a           	phy
    2f4b: a0 0d        	ldy	#$d
    2f4d: b1 10        	lda	($10),y                 ; 0x10 <__rc0>
    2f4f: 85 2a        	sta	$2a                     ; 0x2a <__rc26>
    2f51: c8           	iny
    2f52: b1 10        	lda	($10),y                 ; 0x10 <__rc0>
    2f54: 7a           	ply
    2f55: 85 2b        	sta	$2b                     ; 0x2b <__rc27>
    2f57: 4c c4 37     	jmp	$37c4 <f256main+0x2dc4>
    2f5a: a5 13        	lda	$13                     ; 0x13 <__rc3>
    2f5c: f0 03        	beq	$2f61 <f256main+0x2561>
    2f5e: 4c f2 2e     	jmp	$2ef2 <f256main+0x24f2>
    2f61: a5 12        	lda	$12                     ; 0x12 <__rc2>
    2f63: f0 03        	beq	$2f68 <f256main+0x2568>
    2f65: 4c f2 2e     	jmp	$2ef2 <f256main+0x24f2>
    2f68: 4c 38 32     	jmp	$3238 <f256main+0x2838>
    2f6b: 8a           	txa
    2f6c: f0 03        	beq	$2f71 <f256main+0x2571>
    2f6e: 4c b3 2a     	jmp	$2ab3 <f256main+0x20b3>
    2f71: 4c 01 2c     	jmp	$2c01 <f256main+0x2201>
    2f74: 8a           	txa
    2f75: f0 03        	beq	$2f7a <f256main+0x257a>
    2f77: 4c 93 2e     	jmp	$2e93 <f256main+0x2493>
    2f7a: 4c 1a 2f     	jmp	$2f1a <f256main+0x251a>
    2f7d: a2 08        	ldx	#$8
    2f7f: 86 1f        	stx	$1f                     ; 0x1f <__rc15>
    2f81: c4 14        	cpy	$14                     ; 0x14 <__rc4>
    2f83: a6 15        	ldx	$15                     ; 0x15 <__rc5>
    2f85: 90 0e        	bcc	$2f95 <f256main+0x2595>
    2f87: 4c 93 33     	jmp	$3393 <f256main+0x2993>
    2f8a: c4 14        	cpy	$14                     ; 0x14 <__rc4>
    2f8c: a6 15        	ldx	$15                     ; 0x15 <__rc5>
    2f8e: a4 1d        	ldy	$1d                     ; 0x1d <__rc13>
    2f90: 90 03        	bcc	$2f95 <f256main+0x2595>
    2f92: 4c 93 33     	jmp	$3393 <f256main+0x2993>
    2f95: a5 17        	lda	$17                     ; 0x17 <__rc7>
    2f97: 85 16        	sta	$16                     ; 0x16 <__rc6>
    2f99: a5 1c        	lda	$1c                     ; 0x1c <__rc12>
    2f9b: 85 17        	sta	$17                     ; 0x17 <__rc7>
    2f9d: 18           	clc
    2f9e: a5 19        	lda	$19                     ; 0x19 <__rc9>
    2fa0: 69 08        	adc	#$8
    2fa2: 85 14        	sta	$14                     ; 0x14 <__rc4>
    2fa4: a5 1a        	lda	$1a                     ; 0x1a <__rc10>
    2fa6: 69 00        	adc	#$0
    2fa8: 85 15        	sta	$15                     ; 0x15 <__rc5>
    2faa: a5 18        	lda	$18                     ; 0x18 <__rc8>
    2fac: 85 1c        	sta	$1c                     ; 0x1c <__rc12>
    2fae: 84 1a        	sty	$1a                     ; 0x1a <__rc10>
    2fb0: 8a           	txa
    2fb1: 1a           	inc
    2fb2: d0 0b        	bne	$2fbf <f256main+0x25bf>
    2fb4: e6 1c        	inc	$1c                     ; 0x1c <__rc12>
    2fb6: d0 07        	bne	$2fbf <f256main+0x25bf>
    2fb8: e6 1d        	inc	$1d                     ; 0x1d <__rc13>
    2fba: d0 03        	bne	$2fbf <f256main+0x25bf>
    2fbc: 4c c1 34     	jmp	$34c1 <f256main+0x2ac1>
    2fbf: a0 04        	ldy	#$4
    2fc1: 91 12        	sta	($12),y                 ; 0x12 <__rc2>
    2fc3: a0 01        	ldy	#$1
    2fc5: a5 1c        	lda	$1c                     ; 0x1c <__rc12>
    2fc7: 91 16        	sta	($16),y                 ; 0x16 <__rc6>
    2fc9: 84 1e        	sty	$1e                     ; 0x1e <__rc14>
    2fcb: c8           	iny
    2fcc: a5 1d        	lda	$1d                     ; 0x1d <__rc13>
    2fce: 91 16        	sta	($16),y                 ; 0x16 <__rc6>
    2fd0: 84 1c        	sty	$1c                     ; 0x1c <__rc12>
    2fd2: c8           	iny
    2fd3: a5 1b        	lda	$1b                     ; 0x1b <__rc11>
    2fd5: 91 16        	sta	($16),y                 ; 0x16 <__rc6>
    2fd7: 18           	clc
    2fd8: a4 1f        	ldy	$1f                     ; 0x1f <__rc15>
    2fda: 84 26        	sty	$26                     ; 0x26 <__rc22>
    2fdc: 8a           	txa
    2fdd: 71 12        	adc	($12),y                 ; 0x12 <__rc2>
    2fdf: 85 13        	sta	$13                     ; 0x13 <__rc3>
    2fe1: a4 1e        	ldy	$1e                     ; 0x1e <__rc14>
    2fe3: 84 28        	sty	$28                     ; 0x28 <__rc24>
    2fe5: a5 18        	lda	$18                     ; 0x18 <__rc8>
    2fe7: 71 14        	adc	($14),y                 ; 0x14 <__rc4>
    2fe9: 85 12        	sta	$12                     ; 0x12 <__rc2>
    2feb: a4 1c        	ldy	$1c                     ; 0x1c <__rc12>
    2fed: a5 1a        	lda	$1a                     ; 0x1a <__rc10>
    2fef: 71 14        	adc	($14),y                 ; 0x14 <__rc4>
    2ff1: 85 14        	sta	$14                     ; 0x14 <__rc4>
    2ff3: a6 0f        	ldx	$f                      ; 0xf <__data_size+0xf>
    2ff5: 78           	sei
    2ff6: a5 12        	lda	$12                     ; 0x12 <__rc2>
    2ff8: 0a           	asl
    2ff9: 26 14        	rol	$14                     ; 0x14 <__rc4>
    2ffb: 0a           	asl
    2ffc: 26 14        	rol	$14                     ; 0x14 <__rc4>
    2ffe: 0a           	asl
    2fff: a5 14        	lda	$14                     ; 0x14 <__rc4>
    3001: 2a           	rol
    3002: 85 0f        	sta	$f                      ; 0xf <__data_size+0xf>
    3004: a5 12        	lda	$12                     ; 0x12 <__rc2>
    3006: 09 e0        	ora	#$e0
    3008: 5a           	phy
    3009: a4 13        	ldy	$13                     ; 0x13 <__rc3>
    300b: 84 12        	sty	$12                     ; 0x12 <__rc2>
    300d: 7a           	ply
    300e: 85 13        	sta	$13                     ; 0x13 <__rc3>
    3010: b2 12        	lda	($12)                   ; 0x12 <__rc2>
    3012: 86 0f        	stx	$f                      ; 0xf <__data_size+0xf>
    3014: 58           	cli
    3015: aa           	tax
    3016: 30 26        	bmi	$303e <f256main+0x263e>
    3018: 64 2e        	stz	$2e                     ; 0x2e <__rc30>
    301a: 64 12        	stz	$12                     ; 0x12 <__rc2>
    301c: 48           	pha
    301d: a9 00        	lda	#$0
    301f: a0 12        	ldy	#$12
    3021: 91 10        	sta	($10),y                 ; 0x10 <__rc0>
    3023: 64 27        	stz	$27                     ; 0x27 <__rc23>
    3025: a0 10        	ldy	#$10
    3027: 91 10        	sta	($10),y                 ; 0x10 <__rc0>
    3029: 64 26        	stz	$26                     ; 0x26 <__rc22>
    302b: 64 2f        	stz	$2f                     ; 0x2f <__rc31>
    302d: 64 13        	stz	$13                     ; 0x13 <__rc3>
    302f: 64 14        	stz	$14                     ; 0x14 <__rc4>
    3031: a6 29        	ldx	$29                     ; 0x29 <__rc25>
    3033: 86 25        	stx	$25                     ; 0x25 <__rc21>
    3035: a0 14        	ldy	#$14
    3037: b1 10        	lda	($10),y                 ; 0x10 <__rc0>
    3039: a8           	tay
    303a: 68           	pla
    303b: 4c 4d 31     	jmp	$314d <f256main+0x274d>
    303e: 4a           	lsr
    303f: aa           	tax
    3040: a9 00        	lda	#$0
    3042: 6a           	ror
    3043: 29 80        	and	#$80
    3045: 5a           	phy
    3046: a0 0f        	ldy	#$f
    3048: 91 10        	sta	($10),y                 ; 0x10 <__rc0>
    304a: 8a           	txa
    304b: 29 3f        	and	#$3f
    304d: 85 2e        	sta	$2e                     ; 0x2e <__rc30>
    304f: a6 80        	ldx	$80                     ; 0x80 <theOne.8>
    3051: 86 2b        	stx	$2b                     ; 0x2b <__rc27>
    3053: a6 81        	ldx	$81                     ; 0x81 <theOne.8+0x1>
    3055: 86 2a        	stx	$2a                     ; 0x2a <__rc26>
    3057: a6 29        	ldx	$29                     ; 0x29 <__rc25>
    3059: 86 25        	stx	$25                     ; 0x25 <__rc21>
    305b: a6 29        	ldx	$29                     ; 0x29 <__rc25>
    305d: 86 12        	stx	$12                     ; 0x12 <__rc2>
    305f: 64 13        	stz	$13                     ; 0x13 <__rc3>
    3061: a2 00        	ldx	#$0
    3063: a0 14        	ldy	#$14
    3065: b1 10        	lda	($10),y                 ; 0x10 <__rc0>
    3067: 7a           	ply
    3068: 85 29        	sta	$29                     ; 0x29 <__rc25>
    306a: 84 27        	sty	$27                     ; 0x27 <__rc23>
    306c: 20 4f 86     	jsr	$864f <__mulhi3>
    306f: 85 12        	sta	$12                     ; 0x12 <__rc2>
    3071: 86 13        	stx	$13                     ; 0x13 <__rc3>
    3073: 18           	clc
    3074: a5 2b        	lda	$2b                     ; 0x2b <__rc27>
    3076: 65 12        	adc	$12                     ; 0x12 <__rc2>
    3078: a8           	tay
    3079: a5 2a        	lda	$2a                     ; 0x2a <__rc26>
    307b: 65 13        	adc	$13                     ; 0x13 <__rc3>
    307d: aa           	tax
    307e: 84 12        	sty	$12                     ; 0x12 <__rc2>
    3080: 85 13        	sta	$13                     ; 0x13 <__rc3>
    3082: 18           	clc
    3083: 98           	tya
    3084: 69 08        	adc	#$8
    3086: 85 14        	sta	$14                     ; 0x14 <__rc4>
    3088: 8a           	txa
    3089: 69 00        	adc	#$0
    308b: 85 15        	sta	$15                     ; 0x15 <__rc5>
    308d: 18           	clc
    308e: 98           	tya
    308f: 69 04        	adc	#$4
    3091: 85 16        	sta	$16                     ; 0x16 <__rc6>
    3093: 8a           	txa
    3094: 69 00        	adc	#$0
    3096: 85 17        	sta	$17                     ; 0x17 <__rc7>
    3098: a0 04        	ldy	#$4
    309a: b1 12        	lda	($12),y                 ; 0x12 <__rc2>
    309c: 84 1c        	sty	$1c                     ; 0x1c <__rc12>
    309e: 85 18        	sta	$18                     ; 0x18 <__rc8>
    30a0: a4 28        	ldy	$28                     ; 0x28 <__rc24>
    30a2: b1 16        	lda	($16),y                 ; 0x16 <__rc6>
    30a4: 85 1a        	sta	$1a                     ; 0x1a <__rc10>
    30a6: 84 19        	sty	$19                     ; 0x19 <__rc9>
    30a8: a4 27        	ldy	$27                     ; 0x27 <__rc23>
    30aa: b1 16        	lda	($16),y                 ; 0x16 <__rc6>
    30ac: 85 23        	sta	$23                     ; 0x23 <__rc19>
    30ae: 84 1b        	sty	$1b                     ; 0x1b <__rc11>
    30b0: a0 03        	ldy	#$3
    30b2: b1 16        	lda	($16),y                 ; 0x16 <__rc6>
    30b4: 84 1d        	sty	$1d                     ; 0x1d <__rc13>
    30b6: a6 18        	ldx	$18                     ; 0x18 <__rc8>
    30b8: 86 1e        	stx	$1e                     ; 0x1e <__rc14>
    30ba: a6 1a        	ldx	$1a                     ; 0x1a <__rc10>
    30bc: 86 1f        	stx	$1f                     ; 0x1f <__rc15>
    30be: a6 23        	ldx	$23                     ; 0x23 <__rc19>
    30c0: 86 22        	stx	$22                     ; 0x22 <__rc18>
    30c2: a6 23        	ldx	$23                     ; 0x23 <__rc19>
    30c4: e6 1e        	inc	$1e                     ; 0x1e <__rc14>
    30c6: d0 03        	bne	$30cb <f256main+0x26cb>
    30c8: 4c a5 33     	jmp	$33a5 <f256main+0x29a5>
    30cb: 85 23        	sta	$23                     ; 0x23 <__rc19>
    30cd: a4 1c        	ldy	$1c                     ; 0x1c <__rc12>
    30cf: a5 1e        	lda	$1e                     ; 0x1e <__rc14>
    30d1: 91 12        	sta	($12),y                 ; 0x12 <__rc2>
    30d3: a4 19        	ldy	$19                     ; 0x19 <__rc9>
    30d5: a5 1f        	lda	$1f                     ; 0x1f <__rc15>
    30d7: 91 16        	sta	($16),y                 ; 0x16 <__rc6>
    30d9: a4 19        	ldy	$19                     ; 0x19 <__rc9>
    30db: 84 1c        	sty	$1c                     ; 0x1c <__rc12>
    30dd: a4 1b        	ldy	$1b                     ; 0x1b <__rc11>
    30df: a5 22        	lda	$22                     ; 0x22 <__rc18>
    30e1: 91 16        	sta	($16),y                 ; 0x16 <__rc6>
    30e3: 84 19        	sty	$19                     ; 0x19 <__rc9>
    30e5: a4 1d        	ldy	$1d                     ; 0x1d <__rc13>
    30e7: a5 23        	lda	$23                     ; 0x23 <__rc19>
    30e9: 91 16        	sta	($16),y                 ; 0x16 <__rc6>
    30eb: 18           	clc
    30ec: a4 26        	ldy	$26                     ; 0x26 <__rc22>
    30ee: a5 18        	lda	$18                     ; 0x18 <__rc8>
    30f0: 71 12        	adc	($12),y                 ; 0x12 <__rc2>
    30f2: 85 13        	sta	$13                     ; 0x13 <__rc3>
    30f4: a5 1a        	lda	$1a                     ; 0x1a <__rc10>
    30f6: a4 1c        	ldy	$1c                     ; 0x1c <__rc12>
    30f8: 71 14        	adc	($14),y                 ; 0x14 <__rc4>
    30fa: 85 12        	sta	$12                     ; 0x12 <__rc2>
    30fc: 8a           	txa
    30fd: a4 19        	ldy	$19                     ; 0x19 <__rc9>
    30ff: 71 14        	adc	($14),y                 ; 0x14 <__rc4>
    3101: 85 14        	sta	$14                     ; 0x14 <__rc4>
    3103: a5 12        	lda	$12                     ; 0x12 <__rc2>
    3105: 06 12        	asl	$12                     ; 0x12 <__rc2>
    3107: 26 14        	rol	$14                     ; 0x14 <__rc4>
    3109: 06 12        	asl	$12                     ; 0x12 <__rc2>
    310b: 26 14        	rol	$14                     ; 0x14 <__rc4>
    310d: 06 12        	asl	$12                     ; 0x12 <__rc2>
    310f: 26 14        	rol	$14                     ; 0x14 <__rc4>
    3111: a4 14        	ldy	$14                     ; 0x14 <__rc4>
    3113: a6 0f        	ldx	$f                      ; 0xf <__data_size+0xf>
    3115: 78           	sei
    3116: 84 0f        	sty	$f                      ; 0xf <__data_size+0xf>
    3118: a4 13        	ldy	$13                     ; 0x13 <__rc3>
    311a: 84 12        	sty	$12                     ; 0x12 <__rc2>
    311c: 09 e0        	ora	#$e0
    311e: 85 13        	sta	$13                     ; 0x13 <__rc3>
    3120: b2 12        	lda	($12)                   ; 0x12 <__rc2>
    3122: 86 0f        	stx	$f                      ; 0xf <__data_size+0xf>
    3124: 58           	cli
    3125: aa           	tax
    3126: 10 03        	bpl	$312b <f256main+0x272b>
    3128: 4c b7 33     	jmp	$33b7 <f256main+0x29b7>
    312b: 64 27        	stz	$27                     ; 0x27 <__rc23>
    312d: 64 12        	stz	$12                     ; 0x12 <__rc2>
    312f: 48           	pha
    3130: a9 00        	lda	#$0
    3132: a0 10        	ldy	#$10
    3134: 91 10        	sta	($10),y                 ; 0x10 <__rc0>
    3136: 64 26        	stz	$26                     ; 0x26 <__rc22>
    3138: 64 13        	stz	$13                     ; 0x13 <__rc3>
    313a: a9 00        	lda	#$0
    313c: a0 12        	ldy	#$12
    313e: 91 10        	sta	($10),y                 ; 0x10 <__rc0>
    3140: 68           	pla
    3141: 64 14        	stz	$14                     ; 0x14 <__rc4>
    3143: a4 29        	ldy	$29                     ; 0x29 <__rc25>
    3145: 85 2f        	sta	$2f                     ; 0x2f <__rc31>
    3147: 5a           	phy
    3148: a0 0f        	ldy	#$f
    314a: b1 10        	lda	($10),y                 ; 0x10 <__rc0>
    314c: 7a           	ply
    314d: 5a           	phy
    314e: 48           	pha
    314f: a0 10        	ldy	#$10
    3151: b1 10        	lda	($10),y                 ; 0x10 <__rc0>
    3153: 85 15        	sta	$15                     ; 0x15 <__rc5>
    3155: 68           	pla
    3156: 05 2f        	ora	$2f                     ; 0x2f <__rc31>
    3158: aa           	tax
    3159: a5 2e        	lda	$2e                     ; 0x2e <__rc30>
    315b: 05 15        	ora	$15                     ; 0x15 <__rc5>
    315d: 85 15        	sta	$15                     ; 0x15 <__rc5>
    315f: a0 12        	ldy	#$12
    3161: b1 10        	lda	($10),y                 ; 0x10 <__rc0>
    3163: 7a           	ply
    3164: 05 26        	ora	$26                     ; 0x26 <__rc22>
    3166: 85 2e        	sta	$2e                     ; 0x2e <__rc30>
    3168: 8a           	txa
    3169: 05 12        	ora	$12                     ; 0x12 <__rc2>
    316b: aa           	tax
    316c: a5 15        	lda	$15                     ; 0x15 <__rc5>
    316e: 05 13        	ora	$13                     ; 0x13 <__rc3>
    3170: 85 26        	sta	$26                     ; 0x26 <__rc22>
    3172: 8a           	txa
    3173: 05 14        	ora	$14                     ; 0x14 <__rc4>
    3175: a6 80        	ldx	$80                     ; 0x80 <theOne.8>
    3177: 86 2b        	stx	$2b                     ; 0x2b <__rc27>
    3179: a6 81        	ldx	$81                     ; 0x81 <theOne.8+0x1>
    317b: 86 28        	stx	$28                     ; 0x28 <__rc24>
    317d: a6 25        	ldx	$25                     ; 0x25 <__rc21>
    317f: 86 29        	stx	$29                     ; 0x29 <__rc25>
    3181: a6 25        	ldx	$25                     ; 0x25 <__rc21>
    3183: 86 12        	stx	$12                     ; 0x12 <__rc2>
    3185: 64 13        	stz	$13                     ; 0x13 <__rc3>
    3187: a2 00        	ldx	#$0
    3189: 84 25        	sty	$25                     ; 0x25 <__rc21>
    318b: 85 2a        	sta	$2a                     ; 0x2a <__rc26>
    318d: 98           	tya
    318e: 20 4f 86     	jsr	$864f <__mulhi3>
    3191: 85 2f        	sta	$2f                     ; 0x2f <__rc31>
    3193: 86 24        	stx	$24                     ; 0x24 <__rc20>
    3195: 85 12        	sta	$12                     ; 0x12 <__rc2>
    3197: 86 13        	stx	$13                     ; 0x13 <__rc3>
    3199: 18           	clc
    319a: a5 2b        	lda	$2b                     ; 0x2b <__rc27>
    319c: 65 12        	adc	$12                     ; 0x12 <__rc2>
    319e: a8           	tay
    319f: a5 28        	lda	$28                     ; 0x28 <__rc24>
    31a1: 65 13        	adc	$13                     ; 0x13 <__rc3>
    31a3: aa           	tax
    31a4: 98           	tya
    31a5: 84 12        	sty	$12                     ; 0x12 <__rc2>
    31a7: 86 13        	stx	$13                     ; 0x13 <__rc3>
    31a9: 18           	clc
    31aa: 69 0c        	adc	#$c
    31ac: 85 14        	sta	$14                     ; 0x14 <__rc4>
    31ae: 8a           	txa
    31af: 69 00        	adc	#$0
    31b1: 85 15        	sta	$15                     ; 0x15 <__rc5>
    31b3: a0 0c        	ldy	#$c
    31b5: 84 2b        	sty	$2b                     ; 0x2b <__rc27>
    31b7: a5 2a        	lda	$2a                     ; 0x2a <__rc26>
    31b9: 91 12        	sta	($12),y                 ; 0x12 <__rc2>
    31bb: a0 01        	ldy	#$1
    31bd: a5 26        	lda	$26                     ; 0x26 <__rc22>
    31bf: 84 26        	sty	$26                     ; 0x26 <__rc22>
    31c1: 91 14        	sta	($14),y                 ; 0x14 <__rc4>
    31c3: c8           	iny
    31c4: a5 2e        	lda	$2e                     ; 0x2e <__rc30>
    31c6: 84 28        	sty	$28                     ; 0x28 <__rc24>
    31c8: 91 14        	sta	($14),y                 ; 0x14 <__rc4>
    31ca: c8           	iny
    31cb: a5 27        	lda	$27                     ; 0x27 <__rc23>
    31cd: 84 2a        	sty	$2a                     ; 0x2a <__rc26>
    31cf: 91 14        	sta	($14),y                 ; 0x14 <__rc4>
    31d1: a5 25        	lda	$25                     ; 0x25 <__rc21>
    31d3: 20 e2 66     	jsr	$66e2 <readMIDICmd>
    31d6: a6 80        	ldx	$80                     ; 0x80 <theOne.8>
    31d8: a4 81        	ldy	$81                     ; 0x81 <theOne.8+0x1>
    31da: 86 2e        	stx	$2e                     ; 0x2e <__rc30>
    31dc: 84 27        	sty	$27                     ; 0x27 <__rc23>
    31de: 18           	clc
    31df: a5 2f        	lda	$2f                     ; 0x2f <__rc31>
    31e1: 65 80        	adc	$80                     ; 0x80 <theOne.8>
    31e3: a8           	tay
    31e4: a5 24        	lda	$24                     ; 0x24 <__rc20>
    31e6: 65 81        	adc	$81                     ; 0x81 <theOne.8+0x1>
    31e8: 84 14        	sty	$14                     ; 0x14 <__rc4>
    31ea: 84 12        	sty	$12                     ; 0x12 <__rc2>
    31ec: 85 15        	sta	$15                     ; 0x15 <__rc5>
    31ee: 85 13        	sta	$13                     ; 0x13 <__rc3>
    31f0: a0 18        	ldy	#$18
    31f2: b1 12        	lda	($12),y                 ; 0x12 <__rc2>
    31f4: f0 03        	beq	$31f9 <f256main+0x27f9>
    31f6: 4c f4 35     	jmp	$35f4 <f256main+0x2bf4>
    31f9: 18           	clc
    31fa: a5 14        	lda	$14                     ; 0x14 <__rc4>
    31fc: 69 0c        	adc	#$c
    31fe: 85 14        	sta	$14                     ; 0x14 <__rc4>
    3200: a5 15        	lda	$15                     ; 0x15 <__rc5>
    3202: 69 00        	adc	#$0
    3204: 85 15        	sta	$15                     ; 0x15 <__rc5>
    3206: a4 2b        	ldy	$2b                     ; 0x2b <__rc27>
    3208: b1 12        	lda	($12),y                 ; 0x12 <__rc2>
    320a: 85 12        	sta	$12                     ; 0x12 <__rc2>
    320c: a4 26        	ldy	$26                     ; 0x26 <__rc22>
    320e: b1 14        	lda	($14),y                 ; 0x14 <__rc4>
    3210: 85 13        	sta	$13                     ; 0x13 <__rc3>
    3212: a4 28        	ldy	$28                     ; 0x28 <__rc24>
    3214: b1 14        	lda	($14),y                 ; 0x14 <__rc4>
    3216: 85 16        	sta	$16                     ; 0x16 <__rc6>
    3218: a4 2a        	ldy	$2a                     ; 0x2a <__rc26>
    321a: b1 14        	lda	($14),y                 ; 0x14 <__rc4>
    321c: 64 24        	stz	$24                     ; 0x24 <__rc20>
    321e: f0 03        	beq	$3223 <f256main+0x2823>
    3220: 4c f2 2e     	jmp	$2ef2 <f256main+0x24f2>
    3223: a5 16        	lda	$16                     ; 0x16 <__rc6>
    3225: f0 03        	beq	$322a <f256main+0x282a>
    3227: 4c f2 2e     	jmp	$2ef2 <f256main+0x24f2>
    322a: a5 13        	lda	$13                     ; 0x13 <__rc3>
    322c: f0 03        	beq	$3231 <f256main+0x2831>
    322e: 4c f2 2e     	jmp	$2ef2 <f256main+0x24f2>
    3231: a5 12        	lda	$12                     ; 0x12 <__rc2>
    3233: f0 03        	beq	$3238 <f256main+0x2838>
    3235: 4c f2 2e     	jmp	$2ef2 <f256main+0x24f2>
    3238: a6 29        	ldx	$29                     ; 0x29 <__rc25>
    323a: 86 12        	stx	$12                     ; 0x12 <__rc2>
    323c: 64 13        	stz	$13                     ; 0x13 <__rc3>
    323e: a2 00        	ldx	#$0
    3240: a0 14        	ldy	#$14
    3242: b1 10        	lda	($10),y                 ; 0x10 <__rc0>
    3244: 20 4f 86     	jsr	$864f <__mulhi3>
    3247: 18           	clc
    3248: 65 2e        	adc	$2e                     ; 0x2e <__rc30>
    324a: 85 12        	sta	$12                     ; 0x12 <__rc2>
    324c: 8a           	txa
    324d: 65 27        	adc	$27                     ; 0x27 <__rc23>
    324f: a6 12        	ldx	$12                     ; 0x12 <__rc2>
    3251: 86 16        	stx	$16                     ; 0x16 <__rc6>
    3253: 85 17        	sta	$17                     ; 0x17 <__rc7>
    3255: a0 10        	ldy	#$10
    3257: b1 16        	lda	($16),y                 ; 0x16 <__rc6>
    3259: aa           	tax
    325a: c8           	iny
    325b: b1 16        	lda	($16),y                 ; 0x16 <__rc6>
    325d: e0 ff        	cpx	#$ff
    325f: f0 0e        	beq	$326f <f256main+0x286f>
    3261: 86 15        	stx	$15                     ; 0x15 <__rc5>
    3263: 85 14        	sta	$14                     ; 0x14 <__rc4>
    3265: a0 17        	ldy	#$17
    3267: b1 16        	lda	($16),y                 ; 0x16 <__rc6>
    3269: f0 1a        	beq	$3285 <f256main+0x2885>
    326b: a2 02        	ldx	#$2
    326d: 80 18        	bra	$3287 <f256main+0x2887>
    326f: c9 51        	cmp	#$51
    3271: f0 30        	beq	$32a3 <f256main+0x28a3>
    3273: c9 2f        	cmp	#$2f
    3275: f0 03        	beq	$327a <f256main+0x287a>
    3277: 4c 09 33     	jmp	$3309 <f256main+0x2909>
    327a: a0 18        	ldy	#$18
    327c: a9 01        	lda	#$1
    327e: 91 16        	sta	($16),y                 ; 0x16 <__rc6>
    3280: a6 29        	ldx	$29                     ; 0x29 <__rc25>
    3282: 4c 0b 33     	jmp	$330b <f256main+0x290b>
    3285: a2 03        	ldx	#$3
    3287: a0 12        	ldy	#$12
    3289: b1 16        	lda	($16),y                 ; 0x16 <__rc6>
    328b: 85 12        	sta	$12                     ; 0x12 <__rc2>
    328d: 86 13        	stx	$13                     ; 0x13 <__rc3>
    328f: a6 14        	ldx	$14                     ; 0x14 <__rc4>
    3291: a5 15        	lda	$15                     ; 0x15 <__rc5>
    3293: 20 5f 60     	jsr	$605f <sendAME>
    3296: a6 80        	ldx	$80                     ; 0x80 <theOne.8>
    3298: a4 81        	ldy	$81                     ; 0x81 <theOne.8+0x1>
    329a: 86 2e        	stx	$2e                     ; 0x2e <__rc30>
    329c: 84 27        	sty	$27                     ; 0x27 <__rc23>
    329e: a2 19        	ldx	#$19
    32a0: 4c 0b 33     	jmp	$330b <f256main+0x290b>
    32a3: a0 13        	ldy	#$13
    32a5: b1 16        	lda	($16),y                 ; 0x16 <__rc6>
    32a7: 85 12        	sta	$12                     ; 0x12 <__rc2>
    32a9: c8           	iny
    32aa: b1 16        	lda	($16),y                 ; 0x16 <__rc6>
    32ac: 85 19        	sta	$19                     ; 0x19 <__rc9>
    32ae: c8           	iny
    32af: b1 16        	lda	($16),y                 ; 0x16 <__rc6>
    32b1: a6 71        	ldx	$71                     ; 0x71 <theOne.1>
    32b3: a4 72        	ldy	$72                     ; 0x72 <theOne.1+0x1>
    32b5: 64 13        	stz	$13                     ; 0x13 <__rc3>
    32b7: 86 14        	stx	$14                     ; 0x14 <__rc4>
    32b9: 84 15        	sty	$15                     ; 0x15 <__rc5>
    32bb: 64 16        	stz	$16                     ; 0x16 <__rc6>
    32bd: 64 17        	stz	$17                     ; 0x17 <__rc7>
    32bf: a6 19        	ldx	$19                     ; 0x19 <__rc9>
    32c1: 20 f0 84     	jsr	$84f0 <__udivsi3>
    32c4: 86 14        	stx	$14                     ; 0x14 <__rc4>
    32c6: 0a           	asl
    32c7: 26 14        	rol	$14                     ; 0x14 <__rc4>
    32c9: 26 12        	rol	$12                     ; 0x12 <__rc2>
    32cb: 26 13        	rol	$13                     ; 0x13 <__rc3>
    32cd: 0a           	asl
    32ce: 85 15        	sta	$15                     ; 0x15 <__rc5>
    32d0: 26 14        	rol	$14                     ; 0x14 <__rc4>
    32d2: 26 12        	rol	$12                     ; 0x12 <__rc2>
    32d4: 26 13        	rol	$13                     ; 0x13 <__rc3>
    32d6: 0a           	asl
    32d7: aa           	tax
    32d8: a5 14        	lda	$14                     ; 0x14 <__rc4>
    32da: 2a           	rol
    32db: a8           	tay
    32dc: a5 12        	lda	$12                     ; 0x12 <__rc2>
    32de: 2a           	rol
    32df: 85 16        	sta	$16                     ; 0x16 <__rc6>
    32e1: a5 13        	lda	$13                     ; 0x13 <__rc3>
    32e3: 2a           	rol
    32e4: 85 17        	sta	$17                     ; 0x17 <__rc7>
    32e6: 18           	clc
    32e7: 8a           	txa
    32e8: 65 15        	adc	$15                     ; 0x15 <__rc5>
    32ea: 85 15        	sta	$15                     ; 0x15 <__rc5>
    32ec: 98           	tya
    32ed: 65 14        	adc	$14                     ; 0x14 <__rc4>
    32ef: 85 14        	sta	$14                     ; 0x14 <__rc4>
    32f1: a5 16        	lda	$16                     ; 0x16 <__rc6>
    32f3: 65 12        	adc	$12                     ; 0x12 <__rc2>
    32f5: 85 12        	sta	$12                     ; 0x12 <__rc2>
    32f7: a5 17        	lda	$17                     ; 0x17 <__rc7>
    32f9: 65 13        	adc	$13                     ; 0x13 <__rc3>
    32fb: a6 15        	ldx	$15                     ; 0x15 <__rc5>
    32fd: 86 73        	stx	$73                     ; 0x73 <theOne.2>
    32ff: a6 14        	ldx	$14                     ; 0x14 <__rc4>
    3301: 86 74        	stx	$74                     ; 0x74 <theOne.2+0x1>
    3303: a6 12        	ldx	$12                     ; 0x12 <__rc2>
    3305: 86 75        	stx	$75                     ; 0x75 <theOne.2+0x2>
    3307: 85 76        	sta	$76                     ; 0x76 <theOne.2+0x3>
    3309: a6 29        	ldx	$29                     ; 0x29 <__rc25>
    330b: a0 14        	ldy	#$14
    330d: b1 10        	lda	($10),y                 ; 0x10 <__rc0>
    330f: 86 29        	stx	$29                     ; 0x29 <__rc25>
    3311: 86 12        	stx	$12                     ; 0x12 <__rc2>
    3313: 64 13        	stz	$13                     ; 0x13 <__rc3>
    3315: a2 00        	ldx	#$0
    3317: 20 4f 86     	jsr	$864f <__mulhi3>
    331a: 18           	clc
    331b: 65 2e        	adc	$2e                     ; 0x2e <__rc30>
    331d: a8           	tay
    331e: 8a           	txa
    331f: 65 27        	adc	$27                     ; 0x27 <__rc23>
    3321: aa           	tax
    3322: 84 12        	sty	$12                     ; 0x12 <__rc2>
    3324: 85 13        	sta	$13                     ; 0x13 <__rc3>
    3326: 84 19        	sty	$19                     ; 0x19 <__rc9>
    3328: 98           	tya
    3329: 18           	clc
    332a: 69 04        	adc	#$4
    332c: a8           	tay
    332d: 8a           	txa
    332e: 86 1a        	stx	$1a                     ; 0x1a <__rc10>
    3330: 69 00        	adc	#$0
    3332: 84 17        	sty	$17                     ; 0x17 <__rc7>
    3334: 84 14        	sty	$14                     ; 0x14 <__rc4>
    3336: 85 1c        	sta	$1c                     ; 0x1c <__rc12>
    3338: 85 15        	sta	$15                     ; 0x15 <__rc5>
    333a: a0 04        	ldy	#$4
    333c: b1 12        	lda	($12),y                 ; 0x12 <__rc2>
    333e: aa           	tax
    333f: a0 01        	ldy	#$1
    3341: b1 14        	lda	($14),y                 ; 0x14 <__rc4>
    3343: 85 18        	sta	$18                     ; 0x18 <__rc8>
    3345: c8           	iny
    3346: 84 1e        	sty	$1e                     ; 0x1e <__rc14>
    3348: b1 14        	lda	($14),y                 ; 0x14 <__rc4>
    334a: 85 1d        	sta	$1d                     ; 0x1d <__rc13>
    334c: c8           	iny
    334d: b1 14        	lda	($14),y                 ; 0x14 <__rc4>
    334f: d1 12        	cmp	($12),y                 ; 0x12 <__rc2>
    3351: d0 31        	bne	$3384 <f256main+0x2984>
    3353: 85 1b        	sta	$1b                     ; 0x1b <__rc11>
    3355: 86 15        	stx	$15                     ; 0x15 <__rc5>
    3357: a4 1e        	ldy	$1e                     ; 0x1e <__rc14>
    3359: b1 12        	lda	($12),y                 ; 0x12 <__rc2>
    335b: 85 14        	sta	$14                     ; 0x14 <__rc4>
    335d: a4 1d        	ldy	$1d                     ; 0x1d <__rc13>
    335f: c4 14        	cpy	$14                     ; 0x14 <__rc4>
    3361: f0 03        	beq	$3366 <f256main+0x2966>
    3363: 4c 7d 2f     	jmp	$2f7d <f256main+0x257d>
    3366: a2 08        	ldx	#$8
    3368: 86 1f        	stx	$1f                     ; 0x1f <__rc15>
    336a: a0 01        	ldy	#$1
    336c: b1 12        	lda	($12),y                 ; 0x12 <__rc2>
    336e: 85 14        	sta	$14                     ; 0x14 <__rc4>
    3370: a4 18        	ldy	$18                     ; 0x18 <__rc8>
    3372: c4 14        	cpy	$14                     ; 0x14 <__rc4>
    3374: f0 03        	beq	$3379 <f256main+0x2979>
    3376: 4c 8a 2f     	jmp	$2f8a <f256main+0x258a>
    3379: b2 12        	lda	($12)                   ; 0x12 <__rc2>
    337b: 85 14        	sta	$14                     ; 0x14 <__rc4>
    337d: a6 15        	ldx	$15                     ; 0x15 <__rc5>
    337f: e4 14        	cpx	$14                     ; 0x14 <__rc4>
    3381: 4c 8e 2f     	jmp	$2f8e <f256main+0x258e>
    3384: 85 1b        	sta	$1b                     ; 0x1b <__rc11>
    3386: d1 12        	cmp	($12),y                 ; 0x12 <__rc2>
    3388: a0 08        	ldy	#$8
    338a: 84 1f        	sty	$1f                     ; 0x1f <__rc15>
    338c: a4 1d        	ldy	$1d                     ; 0x1d <__rc13>
    338e: b0 03        	bcs	$3393 <f256main+0x2993>
    3390: 4c 95 2f     	jmp	$2f95 <f256main+0x2595>
    3393: a0 18        	ldy	#$18
    3395: a9 01        	lda	#$1
    3397: 91 12        	sta	($12),y                 ; 0x12 <__rc2>
    3399: e6 7e        	inc	$7e                     ; 0x7e <theOne.7>
    339b: f0 03        	beq	$33a0 <f256main+0x29a0>
    339d: 4c f2 2e     	jmp	$2ef2 <f256main+0x24f2>
    33a0: e6 7f        	inc	$7f                     ; 0x7f <theOne.7+0x1>
    33a2: 4c f2 2e     	jmp	$2ef2 <f256main+0x24f2>
    33a5: e6 1f        	inc	$1f                     ; 0x1f <__rc15>
    33a7: f0 03        	beq	$33ac <f256main+0x29ac>
    33a9: 4c cb 30     	jmp	$30cb <f256main+0x26cb>
    33ac: e6 22        	inc	$22                     ; 0x22 <__rc18>
    33ae: f0 03        	beq	$33b3 <f256main+0x29b3>
    33b0: 4c cb 30     	jmp	$30cb <f256main+0x26cb>
    33b3: 1a           	inc
    33b4: 4c cb 30     	jmp	$30cb <f256main+0x26cb>
    33b7: 4a           	lsr
    33b8: aa           	tax
    33b9: a9 00        	lda	#$0
    33bb: 6a           	ror
    33bc: 46 2e        	lsr	$2e                     ; 0x2e <__rc30>
    33be: 48           	pha
    33bf: a5 2e        	lda	$2e                     ; 0x2e <__rc30>
    33c1: a0 12        	ldy	#$12
    33c3: 91 10        	sta	($10),y                 ; 0x10 <__rc0>
    33c5: a0 0f        	ldy	#$f
    33c7: b1 10        	lda	($10),y                 ; 0x10 <__rc0>
    33c9: 85 2e        	sta	$2e                     ; 0x2e <__rc30>
    33cb: 68           	pla
    33cc: 66 2e        	ror	$2e                     ; 0x2e <__rc30>
    33ce: a4 29        	ldy	$29                     ; 0x29 <__rc25>
    33d0: 64 29        	stz	$29                     ; 0x29 <__rc25>
    33d2: 66 29        	ror	$29                     ; 0x29 <__rc25>
    33d4: 64 13        	stz	$13                     ; 0x13 <__rc3>
    33d6: 29 80        	and	#$80
    33d8: 85 2f        	sta	$2f                     ; 0x2f <__rc31>
    33da: 8a           	txa
    33db: 29 3f        	and	#$3f
    33dd: 5a           	phy
    33de: a0 10        	ldy	#$10
    33e0: 91 10        	sta	($10),y                 ; 0x10 <__rc0>
    33e2: 7a           	ply
    33e3: a6 80        	ldx	$80                     ; 0x80 <theOne.8>
    33e5: 86 2a        	stx	$2a                     ; 0x2a <__rc26>
    33e7: a6 81        	ldx	$81                     ; 0x81 <theOne.8+0x1>
    33e9: 86 27        	stx	$27                     ; 0x27 <__rc23>
    33eb: a6 25        	ldx	$25                     ; 0x25 <__rc21>
    33ed: 86 12        	stx	$12                     ; 0x12 <__rc2>
    33ef: a2 00        	ldx	#$0
    33f1: 98           	tya
    33f2: 20 4f 86     	jsr	$864f <__mulhi3>
    33f5: 85 12        	sta	$12                     ; 0x12 <__rc2>
    33f7: 86 13        	stx	$13                     ; 0x13 <__rc3>
    33f9: 18           	clc
    33fa: a5 2a        	lda	$2a                     ; 0x2a <__rc26>
    33fc: 65 12        	adc	$12                     ; 0x12 <__rc2>
    33fe: a8           	tay
    33ff: a5 27        	lda	$27                     ; 0x27 <__rc23>
    3401: 65 13        	adc	$13                     ; 0x13 <__rc3>
    3403: aa           	tax
    3404: 84 12        	sty	$12                     ; 0x12 <__rc2>
    3406: 85 13        	sta	$13                     ; 0x13 <__rc3>
    3408: 18           	clc
    3409: 98           	tya
    340a: 69 08        	adc	#$8
    340c: 85 14        	sta	$14                     ; 0x14 <__rc4>
    340e: 8a           	txa
    340f: 69 00        	adc	#$0
    3411: 85 15        	sta	$15                     ; 0x15 <__rc5>
    3413: 18           	clc
    3414: 98           	tya
    3415: 69 04        	adc	#$4
    3417: 85 16        	sta	$16                     ; 0x16 <__rc6>
    3419: 8a           	txa
    341a: 69 00        	adc	#$0
    341c: 85 17        	sta	$17                     ; 0x17 <__rc7>
    341e: a0 04        	ldy	#$4
    3420: b1 12        	lda	($12),y                 ; 0x12 <__rc2>
    3422: 84 1c        	sty	$1c                     ; 0x1c <__rc12>
    3424: 85 18        	sta	$18                     ; 0x18 <__rc8>
    3426: a4 28        	ldy	$28                     ; 0x28 <__rc24>
    3428: b1 16        	lda	($16),y                 ; 0x16 <__rc6>
    342a: 85 19        	sta	$19                     ; 0x19 <__rc9>
    342c: 84 1a        	sty	$1a                     ; 0x1a <__rc10>
    342e: a0 02        	ldy	#$2
    3430: b1 16        	lda	($16),y                 ; 0x16 <__rc6>
    3432: 85 23        	sta	$23                     ; 0x23 <__rc19>
    3434: 84 1b        	sty	$1b                     ; 0x1b <__rc11>
    3436: c8           	iny
    3437: b1 16        	lda	($16),y                 ; 0x16 <__rc6>
    3439: 84 1d        	sty	$1d                     ; 0x1d <__rc13>
    343b: a6 18        	ldx	$18                     ; 0x18 <__rc8>
    343d: 86 1e        	stx	$1e                     ; 0x1e <__rc14>
    343f: a6 19        	ldx	$19                     ; 0x19 <__rc9>
    3441: 86 1f        	stx	$1f                     ; 0x1f <__rc15>
    3443: a6 23        	ldx	$23                     ; 0x23 <__rc19>
    3445: 86 22        	stx	$22                     ; 0x22 <__rc18>
    3447: a6 23        	ldx	$23                     ; 0x23 <__rc19>
    3449: e6 1e        	inc	$1e                     ; 0x1e <__rc14>
    344b: d0 09        	bne	$3456 <f256main+0x2a56>
    344d: e6 1f        	inc	$1f                     ; 0x1f <__rc15>
    344f: d0 05        	bne	$3456 <f256main+0x2a56>
    3451: e6 22        	inc	$22                     ; 0x22 <__rc18>
    3453: d0 01        	bne	$3456 <f256main+0x2a56>
    3455: 1a           	inc
    3456: 85 23        	sta	$23                     ; 0x23 <__rc19>
    3458: a4 1c        	ldy	$1c                     ; 0x1c <__rc12>
    345a: a5 1e        	lda	$1e                     ; 0x1e <__rc14>
    345c: 91 12        	sta	($12),y                 ; 0x12 <__rc2>
    345e: a4 1a        	ldy	$1a                     ; 0x1a <__rc10>
    3460: a5 1f        	lda	$1f                     ; 0x1f <__rc15>
    3462: 91 16        	sta	($16),y                 ; 0x16 <__rc6>
    3464: a4 1b        	ldy	$1b                     ; 0x1b <__rc11>
    3466: a5 22        	lda	$22                     ; 0x22 <__rc18>
    3468: 91 16        	sta	($16),y                 ; 0x16 <__rc6>
    346a: a4 1d        	ldy	$1d                     ; 0x1d <__rc13>
    346c: a5 23        	lda	$23                     ; 0x23 <__rc19>
    346e: 91 16        	sta	($16),y                 ; 0x16 <__rc6>
    3470: 18           	clc
    3471: a4 26        	ldy	$26                     ; 0x26 <__rc22>
    3473: a5 18        	lda	$18                     ; 0x18 <__rc8>
    3475: 71 12        	adc	($12),y                 ; 0x12 <__rc2>
    3477: 85 13        	sta	$13                     ; 0x13 <__rc3>
    3479: a5 19        	lda	$19                     ; 0x19 <__rc9>
    347b: a4 1a        	ldy	$1a                     ; 0x1a <__rc10>
    347d: 71 14        	adc	($14),y                 ; 0x14 <__rc4>
    347f: 85 12        	sta	$12                     ; 0x12 <__rc2>
    3481: 8a           	txa
    3482: a4 1b        	ldy	$1b                     ; 0x1b <__rc11>
    3484: 71 14        	adc	($14),y                 ; 0x14 <__rc4>
    3486: 85 14        	sta	$14                     ; 0x14 <__rc4>
    3488: a5 12        	lda	$12                     ; 0x12 <__rc2>
    348a: 06 12        	asl	$12                     ; 0x12 <__rc2>
    348c: 26 14        	rol	$14                     ; 0x14 <__rc4>
    348e: 06 12        	asl	$12                     ; 0x12 <__rc2>
    3490: 26 14        	rol	$14                     ; 0x14 <__rc4>
    3492: 06 12        	asl	$12                     ; 0x12 <__rc2>
    3494: 26 14        	rol	$14                     ; 0x14 <__rc4>
    3496: a4 14        	ldy	$14                     ; 0x14 <__rc4>
    3498: a6 0f        	ldx	$f                      ; 0xf <__data_size+0xf>
    349a: 78           	sei
    349b: 84 0f        	sty	$f                      ; 0xf <__data_size+0xf>
    349d: a4 13        	ldy	$13                     ; 0x13 <__rc3>
    349f: 84 12        	sty	$12                     ; 0x12 <__rc2>
    34a1: 09 e0        	ora	#$e0
    34a3: 85 13        	sta	$13                     ; 0x13 <__rc3>
    34a5: b2 12        	lda	($12)                   ; 0x12 <__rc2>
    34a7: 86 0f        	stx	$f                      ; 0xf <__data_size+0xf>
    34a9: 58           	cli
    34aa: aa           	tax
    34ab: 30 19        	bmi	$34c6 <f256main+0x2ac6>
    34ad: 64 26        	stz	$26                     ; 0x26 <__rc22>
    34af: 85 12        	sta	$12                     ; 0x12 <__rc2>
    34b1: 64 13        	stz	$13                     ; 0x13 <__rc3>
    34b3: 64 27        	stz	$27                     ; 0x27 <__rc23>
    34b5: 64 14        	stz	$14                     ; 0x14 <__rc4>
    34b7: a0 14        	ldy	#$14
    34b9: b1 10        	lda	($10),y                 ; 0x10 <__rc0>
    34bb: a8           	tay
    34bc: a5 29        	lda	$29                     ; 0x29 <__rc25>
    34be: 4c 4d 31     	jmp	$314d <f256main+0x274d>
    34c1: e6 1b        	inc	$1b                     ; 0x1b <__rc11>
    34c3: 4c bf 2f     	jmp	$2fbf <f256main+0x25bf>
    34c6: 85 15        	sta	$15                     ; 0x15 <__rc5>
    34c8: 46 15        	lsr	$15                     ; 0x15 <__rc5>
    34ca: 64 14        	stz	$14                     ; 0x14 <__rc4>
    34cc: 66 14        	ror	$14                     ; 0x14 <__rc4>
    34ce: a0 10        	ldy	#$10
    34d0: b1 10        	lda	($10),y                 ; 0x10 <__rc0>
    34d2: 4a           	lsr
    34d3: a0 0b        	ldy	#$b
    34d5: 91 10        	sta	($10),y                 ; 0x10 <__rc0>
    34d7: 66 2f        	ror	$2f                     ; 0x2f <__rc31>
    34d9: a5 2f        	lda	$2f                     ; 0x2f <__rc31>
    34db: a0 10        	ldy	#$10
    34dd: 91 10        	sta	($10),y                 ; 0x10 <__rc0>
    34df: 64 2f        	stz	$2f                     ; 0x2f <__rc31>
    34e1: 66 2f        	ror	$2f                     ; 0x2f <__rc31>
    34e3: a0 12        	ldy	#$12
    34e5: b1 10        	lda	($10),y                 ; 0x10 <__rc0>
    34e7: 85 27        	sta	$27                     ; 0x27 <__rc23>
    34e9: 46 27        	lsr	$27                     ; 0x27 <__rc23>
    34eb: 66 2e        	ror	$2e                     ; 0x2e <__rc30>
    34ed: a5 2e        	lda	$2e                     ; 0x2e <__rc30>
    34ef: 91 10        	sta	($10),y                 ; 0x10 <__rc0>
    34f1: 66 29        	ror	$29                     ; 0x29 <__rc25>
    34f3: a6 29        	ldx	$29                     ; 0x29 <__rc25>
    34f5: 86 2e        	stx	$2e                     ; 0x2e <__rc30>
    34f7: 64 29        	stz	$29                     ; 0x29 <__rc25>
    34f9: 66 29        	ror	$29                     ; 0x29 <__rc25>
    34fb: a5 14        	lda	$14                     ; 0x14 <__rc4>
    34fd: 29 80        	and	#$80
    34ff: a0 0f        	ldy	#$f
    3501: 91 10        	sta	($10),y                 ; 0x10 <__rc0>
    3503: a5 15        	lda	$15                     ; 0x15 <__rc5>
    3505: 29 3f        	and	#$3f
    3507: a0 0c        	ldy	#$c
    3509: 91 10        	sta	($10),y                 ; 0x10 <__rc0>
    350b: a6 80        	ldx	$80                     ; 0x80 <theOne.8>
    350d: 86 2a        	stx	$2a                     ; 0x2a <__rc26>
    350f: a6 81        	ldx	$81                     ; 0x81 <theOne.8+0x1>
    3511: 86 26        	stx	$26                     ; 0x26 <__rc22>
    3513: a6 25        	ldx	$25                     ; 0x25 <__rc21>
    3515: 86 12        	stx	$12                     ; 0x12 <__rc2>
    3517: 64 13        	stz	$13                     ; 0x13 <__rc3>
    3519: a2 00        	ldx	#$0
    351b: a0 14        	ldy	#$14
    351d: b1 10        	lda	($10),y                 ; 0x10 <__rc0>
    351f: 20 4f 86     	jsr	$864f <__mulhi3>
    3522: 85 12        	sta	$12                     ; 0x12 <__rc2>
    3524: 86 13        	stx	$13                     ; 0x13 <__rc3>
    3526: 18           	clc
    3527: a5 2a        	lda	$2a                     ; 0x2a <__rc26>
    3529: 65 12        	adc	$12                     ; 0x12 <__rc2>
    352b: a8           	tay
    352c: a5 26        	lda	$26                     ; 0x26 <__rc22>
    352e: 65 13        	adc	$13                     ; 0x13 <__rc3>
    3530: aa           	tax
    3531: 18           	clc
    3532: 98           	tya
    3533: 69 08        	adc	#$8
    3535: 85 12        	sta	$12                     ; 0x12 <__rc2>
    3537: 8a           	txa
    3538: 69 00        	adc	#$0
    353a: 84 14        	sty	$14                     ; 0x14 <__rc4>
    353c: 86 15        	stx	$15                     ; 0x15 <__rc5>
    353e: 85 13        	sta	$13                     ; 0x13 <__rc3>
    3540: 18           	clc
    3541: 98           	tya
    3542: 69 04        	adc	#$4
    3544: 85 16        	sta	$16                     ; 0x16 <__rc6>
    3546: 8a           	txa
    3547: 69 00        	adc	#$0
    3549: 85 17        	sta	$17                     ; 0x17 <__rc7>
    354b: a0 04        	ldy	#$4
    354d: b1 14        	lda	($14),y                 ; 0x14 <__rc4>
    354f: 84 1c        	sty	$1c                     ; 0x1c <__rc12>
    3551: 85 18        	sta	$18                     ; 0x18 <__rc8>
    3553: a4 28        	ldy	$28                     ; 0x28 <__rc24>
    3555: b1 16        	lda	($16),y                 ; 0x16 <__rc6>
    3557: 85 1b        	sta	$1b                     ; 0x1b <__rc11>
    3559: 84 19        	sty	$19                     ; 0x19 <__rc9>
    355b: a0 02        	ldy	#$2
    355d: b1 16        	lda	($16),y                 ; 0x16 <__rc6>
    355f: 85 23        	sta	$23                     ; 0x23 <__rc19>
    3561: 84 1a        	sty	$1a                     ; 0x1a <__rc10>
    3563: c8           	iny
    3564: b1 16        	lda	($16),y                 ; 0x16 <__rc6>
    3566: 84 1d        	sty	$1d                     ; 0x1d <__rc13>
    3568: a6 18        	ldx	$18                     ; 0x18 <__rc8>
    356a: 86 1e        	stx	$1e                     ; 0x1e <__rc14>
    356c: a6 1b        	ldx	$1b                     ; 0x1b <__rc11>
    356e: 86 1f        	stx	$1f                     ; 0x1f <__rc15>
    3570: a6 23        	ldx	$23                     ; 0x23 <__rc19>
    3572: 86 22        	stx	$22                     ; 0x22 <__rc18>
    3574: a6 23        	ldx	$23                     ; 0x23 <__rc19>
    3576: e6 1e        	inc	$1e                     ; 0x1e <__rc14>
    3578: d0 09        	bne	$3583 <f256main+0x2b83>
    357a: e6 1f        	inc	$1f                     ; 0x1f <__rc15>
    357c: d0 05        	bne	$3583 <f256main+0x2b83>
    357e: e6 22        	inc	$22                     ; 0x22 <__rc18>
    3580: d0 01        	bne	$3583 <f256main+0x2b83>
    3582: 1a           	inc
    3583: 85 23        	sta	$23                     ; 0x23 <__rc19>
    3585: a4 1c        	ldy	$1c                     ; 0x1c <__rc12>
    3587: a5 1e        	lda	$1e                     ; 0x1e <__rc14>
    3589: 91 14        	sta	($14),y                 ; 0x14 <__rc4>
    358b: a4 19        	ldy	$19                     ; 0x19 <__rc9>
    358d: a5 1f        	lda	$1f                     ; 0x1f <__rc15>
    358f: 91 16        	sta	($16),y                 ; 0x16 <__rc6>
    3591: a4 1a        	ldy	$1a                     ; 0x1a <__rc10>
    3593: a5 22        	lda	$22                     ; 0x22 <__rc18>
    3595: 91 16        	sta	($16),y                 ; 0x16 <__rc6>
    3597: a4 1d        	ldy	$1d                     ; 0x1d <__rc13>
    3599: a5 23        	lda	$23                     ; 0x23 <__rc19>
    359b: 91 16        	sta	($16),y                 ; 0x16 <__rc6>
    359d: 18           	clc
    359e: a5 18        	lda	$18                     ; 0x18 <__rc8>
    35a0: a0 08        	ldy	#$8
    35a2: 71 14        	adc	($14),y                 ; 0x14 <__rc4>
    35a4: 85 14        	sta	$14                     ; 0x14 <__rc4>
    35a6: a5 1b        	lda	$1b                     ; 0x1b <__rc11>
    35a8: a4 19        	ldy	$19                     ; 0x19 <__rc9>
    35aa: 71 12        	adc	($12),y                 ; 0x12 <__rc2>
    35ac: 85 15        	sta	$15                     ; 0x15 <__rc5>
    35ae: 8a           	txa
    35af: a4 1a        	ldy	$1a                     ; 0x1a <__rc10>
    35b1: 71 12        	adc	($12),y                 ; 0x12 <__rc2>
    35b3: 85 13        	sta	$13                     ; 0x13 <__rc3>
    35b5: a5 15        	lda	$15                     ; 0x15 <__rc5>
    35b7: 85 12        	sta	$12                     ; 0x12 <__rc2>
    35b9: 06 12        	asl	$12                     ; 0x12 <__rc2>
    35bb: 26 13        	rol	$13                     ; 0x13 <__rc3>
    35bd: 06 12        	asl	$12                     ; 0x12 <__rc2>
    35bf: 26 13        	rol	$13                     ; 0x13 <__rc3>
    35c1: 06 12        	asl	$12                     ; 0x12 <__rc2>
    35c3: 26 13        	rol	$13                     ; 0x13 <__rc3>
    35c5: a4 13        	ldy	$13                     ; 0x13 <__rc3>
    35c7: a6 0f        	ldx	$f                      ; 0xf <__data_size+0xf>
    35c9: 78           	sei
    35ca: 84 0f        	sty	$f                      ; 0xf <__data_size+0xf>
    35cc: a4 14        	ldy	$14                     ; 0x14 <__rc4>
    35ce: 84 12        	sty	$12                     ; 0x12 <__rc2>
    35d0: 09 e0        	ora	#$e0
    35d2: 85 13        	sta	$13                     ; 0x13 <__rc3>
    35d4: b2 12        	lda	($12)                   ; 0x12 <__rc2>
    35d6: 86 0f        	stx	$f                      ; 0xf <__data_size+0xf>
    35d8: 48           	pha
    35d9: a0 0f        	ldy	#$f
    35db: b1 10        	lda	($10),y                 ; 0x10 <__rc0>
    35dd: 85 12        	sta	$12                     ; 0x12 <__rc2>
    35df: a0 0c        	ldy	#$c
    35e1: b1 10        	lda	($10),y                 ; 0x10 <__rc0>
    35e3: 85 13        	sta	$13                     ; 0x13 <__rc3>
    35e5: 68           	pla
    35e6: 85 14        	sta	$14                     ; 0x14 <__rc4>
    35e8: a5 29        	lda	$29                     ; 0x29 <__rc25>
    35ea: 58           	cli
    35eb: 48           	pha
    35ec: 88           	dey
    35ed: b1 10        	lda	($10),y                 ; 0x10 <__rc0>
    35ef: 85 26        	sta	$26                     ; 0x26 <__rc22>
    35f1: 4c 35 30     	jmp	$3035 <f256main+0x2635>
    35f4: 64 24        	stz	$24                     ; 0x24 <__rc20>
    35f6: 4c f2 2e     	jmp	$2ef2 <f256main+0x24f2>
    35f9: 86 1e        	stx	$1e                     ; 0x1e <__rc14>
    35fb: a6 16        	ldx	$16                     ; 0x16 <__rc6>
    35fd: 86 1d        	stx	$1d                     ; 0x1d <__rc13>
    35ff: a2 03        	ldx	#$3
    3601: 86 27        	stx	$27                     ; 0x27 <__rc23>
    3603: 85 1a        	sta	$1a                     ; 0x1a <__rc10>
    3605: d1 12        	cmp	($12),y                 ; 0x12 <__rc2>
    3607: a0 08        	ldy	#$8
    3609: 84 1f        	sty	$1f                     ; 0x1f <__rc15>
    360b: 90 03        	bcc	$3610 <f256main+0x2c10>
    360d: 4c 6b 37     	jmp	$376b <f256main+0x2d6b>
    3610: a5 2a        	lda	$2a                     ; 0x2a <__rc26>
    3612: a0 08        	ldy	#$8
    3614: 91 10        	sta	($10),y                 ; 0x10 <__rc0>
    3616: a6 17        	ldx	$17                     ; 0x17 <__rc7>
    3618: 86 16        	stx	$16                     ; 0x16 <__rc6>
    361a: a6 1c        	ldx	$1c                     ; 0x1c <__rc12>
    361c: 86 17        	stx	$17                     ; 0x17 <__rc7>
    361e: 18           	clc
    361f: a5 19        	lda	$19                     ; 0x19 <__rc9>
    3621: 69 08        	adc	#$8
    3623: 85 14        	sta	$14                     ; 0x14 <__rc4>
    3625: a5 1b        	lda	$1b                     ; 0x1b <__rc11>
    3627: 69 00        	adc	#$0
    3629: 85 15        	sta	$15                     ; 0x15 <__rc5>
    362b: a6 18        	ldx	$18                     ; 0x18 <__rc8>
    362d: 86 1b        	stx	$1b                     ; 0x1b <__rc11>
    362f: a5 1d        	lda	$1d                     ; 0x1d <__rc13>
    3631: 85 1c        	sta	$1c                     ; 0x1c <__rc12>
    3633: 85 19        	sta	$19                     ; 0x19 <__rc9>
    3635: a5 1e        	lda	$1e                     ; 0x1e <__rc14>
    3637: a6 1a        	ldx	$1a                     ; 0x1a <__rc10>
    3639: 86 1d        	stx	$1d                     ; 0x1d <__rc13>
    363b: 1a           	inc
    363c: d0 03        	bne	$3641 <f256main+0x2c41>
    363e: 4c ec 52     	jmp	$52ec <f256main+0x48ec>
    3641: a0 04        	ldy	#$4
    3643: 91 12        	sta	($12),y                 ; 0x12 <__rc2>
    3645: a0 01        	ldy	#$1
    3647: a5 1b        	lda	$1b                     ; 0x1b <__rc11>
    3649: 91 16        	sta	($16),y                 ; 0x16 <__rc6>
    364b: 84 1b        	sty	$1b                     ; 0x1b <__rc11>
    364d: c8           	iny
    364e: 84 1a        	sty	$1a                     ; 0x1a <__rc10>
    3650: a5 1c        	lda	$1c                     ; 0x1c <__rc12>
    3652: 91 16        	sta	($16),y                 ; 0x16 <__rc6>
    3654: c8           	iny
    3655: a5 1d        	lda	$1d                     ; 0x1d <__rc13>
    3657: 91 16        	sta	($16),y                 ; 0x16 <__rc6>
    3659: 18           	clc
    365a: a4 1f        	ldy	$1f                     ; 0x1f <__rc15>
    365c: 84 26        	sty	$26                     ; 0x26 <__rc22>
    365e: a5 1e        	lda	$1e                     ; 0x1e <__rc14>
    3660: 71 12        	adc	($12),y                 ; 0x12 <__rc2>
    3662: 85 12        	sta	$12                     ; 0x12 <__rc2>
    3664: a5 18        	lda	$18                     ; 0x18 <__rc8>
    3666: a4 1b        	ldy	$1b                     ; 0x1b <__rc11>
    3668: 71 14        	adc	($14),y                 ; 0x14 <__rc4>
    366a: 85 16        	sta	$16                     ; 0x16 <__rc6>
    366c: a5 19        	lda	$19                     ; 0x19 <__rc9>
    366e: a4 1a        	ldy	$1a                     ; 0x1a <__rc10>
    3670: 71 14        	adc	($14),y                 ; 0x14 <__rc4>
    3672: 85 13        	sta	$13                     ; 0x13 <__rc3>
    3674: a6 0f        	ldx	$f                      ; 0xf <__data_size+0xf>
    3676: 78           	sei
    3677: a5 16        	lda	$16                     ; 0x16 <__rc6>
    3679: 0a           	asl
    367a: 26 13        	rol	$13                     ; 0x13 <__rc3>
    367c: 0a           	asl
    367d: 26 13        	rol	$13                     ; 0x13 <__rc3>
    367f: 0a           	asl
    3680: a5 13        	lda	$13                     ; 0x13 <__rc3>
    3682: 2a           	rol
    3683: 85 0f        	sta	$f                      ; 0xf <__data_size+0xf>
    3685: a5 16        	lda	$16                     ; 0x16 <__rc6>
    3687: 09 e0        	ora	#$e0
    3689: 85 13        	sta	$13                     ; 0x13 <__rc3>
    368b: b2 12        	lda	($12)                   ; 0x12 <__rc2>
    368d: 86 0f        	stx	$f                      ; 0xf <__data_size+0xf>
    368f: 58           	cli
    3690: aa           	tax
    3691: 10 03        	bpl	$3696 <f256main+0x2c96>
    3693: 4c 32 53     	jmp	$5332 <f256main+0x4932>
    3696: 64 2a        	stz	$2a                     ; 0x2a <__rc26>
    3698: 64 2f        	stz	$2f                     ; 0x2f <__rc31>
    369a: 64 2b        	stz	$2b                     ; 0x2b <__rc27>
    369c: 64 24        	stz	$24                     ; 0x24 <__rc20>
    369e: 64 28        	stz	$28                     ; 0x28 <__rc24>
    36a0: 64 12        	stz	$12                     ; 0x12 <__rc2>
    36a2: 64 2e        	stz	$2e                     ; 0x2e <__rc30>
    36a4: 64 13        	stz	$13                     ; 0x13 <__rc3>
    36a6: 64 14        	stz	$14                     ; 0x14 <__rc4>
    36a8: a2 00        	ldx	#$0
    36aa: a0 19        	ldy	#$19
    36ac: 84 27        	sty	$27                     ; 0x27 <__rc23>
    36ae: 48           	pha
    36af: a0 14        	ldy	#$14
    36b1: b1 10        	lda	($10),y                 ; 0x10 <__rc0>
    36b3: 85 26        	sta	$26                     ; 0x26 <__rc22>
    36b5: 68           	pla
    36b6: 05 2e        	ora	$2e                     ; 0x2e <__rc30>
    36b8: 85 16        	sta	$16                     ; 0x16 <__rc6>
    36ba: a5 2a        	lda	$2a                     ; 0x2a <__rc26>
    36bc: 05 24        	ora	$24                     ; 0x24 <__rc20>
    36be: 85 15        	sta	$15                     ; 0x15 <__rc5>
    36c0: a5 2f        	lda	$2f                     ; 0x2f <__rc31>
    36c2: 05 28        	ora	$28                     ; 0x28 <__rc24>
    36c4: 85 28        	sta	$28                     ; 0x28 <__rc24>
    36c6: a5 16        	lda	$16                     ; 0x16 <__rc6>
    36c8: 05 12        	ora	$12                     ; 0x12 <__rc2>
    36ca: 85 12        	sta	$12                     ; 0x12 <__rc2>
    36cc: a5 15        	lda	$15                     ; 0x15 <__rc5>
    36ce: 05 13        	ora	$13                     ; 0x13 <__rc3>
    36d0: 85 24        	sta	$24                     ; 0x24 <__rc20>
    36d2: a5 12        	lda	$12                     ; 0x12 <__rc2>
    36d4: 05 14        	ora	$14                     ; 0x14 <__rc4>
    36d6: 85 16        	sta	$16                     ; 0x16 <__rc6>
    36d8: a5 80        	lda	$80                     ; 0x80 <theOne.8>
    36da: 85 25        	sta	$25                     ; 0x25 <__rc21>
    36dc: a5 81        	lda	$81                     ; 0x81 <theOne.8+0x1>
    36de: 85 2f        	sta	$2f                     ; 0x2f <__rc31>
    36e0: a6 27        	ldx	$27                     ; 0x27 <__rc23>
    36e2: 86 12        	stx	$12                     ; 0x12 <__rc2>
    36e4: 64 13        	stz	$13                     ; 0x13 <__rc3>
    36e6: a0 08        	ldy	#$8
    36e8: b1 10        	lda	($10),y                 ; 0x10 <__rc0>
    36ea: 85 2a        	sta	$2a                     ; 0x2a <__rc26>
    36ec: aa           	tax
    36ed: a4 16        	ldy	$16                     ; 0x16 <__rc6>
    36ef: 84 27        	sty	$27                     ; 0x27 <__rc23>
    36f1: a5 26        	lda	$26                     ; 0x26 <__rc22>
    36f3: 20 4f 86     	jsr	$864f <__mulhi3>
    36f6: 85 29        	sta	$29                     ; 0x29 <__rc25>
    36f8: 85 12        	sta	$12                     ; 0x12 <__rc2>
    36fa: 86 13        	stx	$13                     ; 0x13 <__rc3>
    36fc: 86 2e        	stx	$2e                     ; 0x2e <__rc30>
    36fe: 18           	clc
    36ff: a5 25        	lda	$25                     ; 0x25 <__rc21>
    3701: 65 12        	adc	$12                     ; 0x12 <__rc2>
    3703: a8           	tay
    3704: a5 2f        	lda	$2f                     ; 0x2f <__rc31>
    3706: 65 13        	adc	$13                     ; 0x13 <__rc3>
    3708: aa           	tax
    3709: 98           	tya
    370a: 84 12        	sty	$12                     ; 0x12 <__rc2>
    370c: 86 13        	stx	$13                     ; 0x13 <__rc3>
    370e: 18           	clc
    370f: 69 0c        	adc	#$c
    3711: 85 14        	sta	$14                     ; 0x14 <__rc4>
    3713: 8a           	txa
    3714: 69 00        	adc	#$0
    3716: 85 15        	sta	$15                     ; 0x15 <__rc5>
    3718: a0 0c        	ldy	#$c
    371a: a5 27        	lda	$27                     ; 0x27 <__rc23>
    371c: 91 12        	sta	($12),y                 ; 0x12 <__rc2>
    371e: a0 01        	ldy	#$1
    3720: a5 24        	lda	$24                     ; 0x24 <__rc20>
    3722: 91 14        	sta	($14),y                 ; 0x14 <__rc4>
    3724: c8           	iny
    3725: a5 28        	lda	$28                     ; 0x28 <__rc24>
    3727: 91 14        	sta	($14),y                 ; 0x14 <__rc4>
    3729: c8           	iny
    372a: a2 03        	ldx	#$3
    372c: 86 27        	stx	$27                     ; 0x27 <__rc23>
    372e: a5 2b        	lda	$2b                     ; 0x2b <__rc27>
    3730: 91 14        	sta	($14),y                 ; 0x14 <__rc4>
    3732: a5 26        	lda	$26                     ; 0x26 <__rc22>
    3734: 20 e2 66     	jsr	$66e2 <readMIDICmd>
    3737: a6 80        	ldx	$80                     ; 0x80 <theOne.8>
    3739: a4 81        	ldy	$81                     ; 0x81 <theOne.8+0x1>
    373b: 84 2f        	sty	$2f                     ; 0x2f <__rc31>
    373d: 18           	clc
    373e: a5 29        	lda	$29                     ; 0x29 <__rc25>
    3740: 65 80        	adc	$80                     ; 0x80 <theOne.8>
    3742: 85 12        	sta	$12                     ; 0x12 <__rc2>
    3744: a5 2e        	lda	$2e                     ; 0x2e <__rc30>
    3746: 65 81        	adc	$81                     ; 0x81 <theOne.8+0x1>
    3748: 85 13        	sta	$13                     ; 0x13 <__rc3>
    374a: a5 12        	lda	$12                     ; 0x12 <__rc2>
    374c: 85 14        	sta	$14                     ; 0x14 <__rc4>
    374e: a5 13        	lda	$13                     ; 0x13 <__rc3>
    3750: 85 15        	sta	$15                     ; 0x15 <__rc5>
    3752: a0 18        	ldy	#$18
    3754: b1 12        	lda	($12),y                 ; 0x12 <__rc2>
    3756: f0 03        	beq	$375b <f256main+0x2d5b>
    3758: 4c c0 51     	jmp	$51c0 <f256main+0x47c0>
    375b: 86 2e        	stx	$2e                     ; 0x2e <__rc30>
    375d: 18           	clc
    375e: a5 14        	lda	$14                     ; 0x14 <__rc4>
    3760: 69 0c        	adc	#$c
    3762: 85 14        	sta	$14                     ; 0x14 <__rc4>
    3764: a5 15        	lda	$15                     ; 0x15 <__rc5>
    3766: 69 00        	adc	#$0
    3768: 4c e5 51     	jmp	$51e5 <f256main+0x47e5>
    376b: a9 01        	lda	#$1
    376d: a0 18        	ldy	#$18
    376f: 91 12        	sta	($12),y                 ; 0x12 <__rc2>
    3771: e6 7e        	inc	$7e                     ; 0x7e <theOne.7>
    3773: f0 03        	beq	$3778 <f256main+0x2d78>
    3775: 4c c0 51     	jmp	$51c0 <f256main+0x47c0>
    3778: 4c ff 52     	jmp	$52ff <f256main+0x48ff>
    377b: 18           	clc
    377c: a5 12        	lda	$12                     ; 0x12 <__rc2>
    377e: 69 0c        	adc	#$c
    3780: aa           	tax
    3781: a5 14        	lda	$14                     ; 0x14 <__rc4>
    3783: 69 00        	adc	#$0
    3785: 86 14        	stx	$14                     ; 0x14 <__rc4>
    3787: 85 15        	sta	$15                     ; 0x15 <__rc5>
    3789: a0 0c        	ldy	#$c
    378b: b1 12        	lda	($12),y                 ; 0x12 <__rc2>
    378d: 85 12        	sta	$12                     ; 0x12 <__rc2>
    378f: a0 01        	ldy	#$1
    3791: b1 14        	lda	($14),y                 ; 0x14 <__rc4>
    3793: 85 13        	sta	$13                     ; 0x13 <__rc3>
    3795: c8           	iny
    3796: b1 14        	lda	($14),y                 ; 0x14 <__rc4>
    3798: 85 16        	sta	$16                     ; 0x16 <__rc6>
    379a: c8           	iny
    379b: b1 14        	lda	($14),y                 ; 0x14 <__rc4>
    379d: f0 03        	beq	$37a2 <f256main+0x2da2>
    379f: 4c 62 4c     	jmp	$4c62 <f256main+0x4262>
    37a2: a5 16        	lda	$16                     ; 0x16 <__rc6>
    37a4: f0 03        	beq	$37a9 <f256main+0x2da9>
    37a6: 4c 62 4c     	jmp	$4c62 <f256main+0x4262>
    37a9: a5 13        	lda	$13                     ; 0x13 <__rc3>
    37ab: d0 03        	bne	$37b0 <f256main+0x2db0>
    37ad: 4c b4 55     	jmp	$55b4 <f256main+0x4bb4>
    37b0: 4c 62 4c     	jmp	$4c62 <f256main+0x4262>
    37b3: a0 18        	ldy	#$18
    37b5: c9 51        	cmp	#$51
    37b7: f0 03        	beq	$37bc <f256main+0x2dbc>
    37b9: 4c 04 53     	jmp	$5304 <f256main+0x4904>
    37bc: 4c 30 54     	jmp	$5430 <f256main+0x4a30>
    37bf: 20 bd 6e     	jsr	$6ebd <resetTrack>
    37c2: a0 04        	ldy	#$4
    37c4: 64 83        	stz	$83                     ; 0x83 <kernelEventData>
    37c6: a2 82        	ldx	#$82
    37c8: 86 12        	stx	$12                     ; 0x12 <__rc2>
    37ca: a2 00        	ldx	#$0
    37cc: 86 13        	stx	$13                     ; 0x13 <__rc3>
    37ce: 20 00 ff     	jsr	$ff00 <__heap_start+0x7404>
    37d1: 92 2c        	sta	($2c)                   ; 0x2c <__zp_data_size>
    37d3: a9 00        	lda	#$0
    37d5: 6a           	ror
    37d6: 85 12        	sta	$12                     ; 0x12 <__rc2>
    37d8: a6 83        	ldx	$83                     ; 0x83 <kernelEventData>
    37da: e0 08        	cpx	#$8
    37dc: f0 42        	beq	$3820 <f256main+0x2e20>
    37de: e0 52        	cpx	#$52
    37e0: f0 03        	beq	$37e5 <f256main+0x2de5>
    37e2: 4c dc 3a     	jmp	$3adc <f256main+0x30dc>
    37e5: 18           	clc
    37e6: a9 f6        	lda	#$f6
    37e8: 65 87        	adc	$87                     ; 0x87 <kernelEventData+0x4>
    37ea: c9 14        	cmp	#$14
    37ec: 90 03        	bcc	$37f1 <f256main+0x2df1>
    37ee: 4c dc 3a     	jmp	$3adc <f256main+0x30dc>
    37f1: 0a           	asl
    37f2: aa           	tax
    37f3: 7c 21 87     	jmp	($8721,x)               ; 0x8721 <__BLOCK_SIZE+0x6721>
    37f6: a0 11        	ldy	#$11
    37f8: b1 10        	lda	($10),y                 ; 0x10 <__rc0>
    37fa: c9 c2        	cmp	#$c2
    37fc: 88           	dey
    37fd: b1 10        	lda	($10),y                 ; 0x10 <__rc0>
    37ff: e9 ff        	sbc	#$ff
    3801: 50 02        	bvc	$3805 <f256main+0x2e05>
    3803: 49 80        	eor	#$80
    3805: a2 04        	ldx	#$4
    3807: 86 14        	stx	$14                     ; 0x14 <__rc4>
    3809: aa           	tax
    380a: 10 03        	bpl	$380f <f256main+0x2e0f>
    380c: 4c f9 3d     	jmp	$3df9 <f256main+0x33f9>
    380f: 18           	clc
    3810: a0 11        	ldy	#$11
    3812: b1 10        	lda	($10),y                 ; 0x10 <__rc0>
    3814: 69 fe        	adc	#$fe
    3816: aa           	tax
    3817: 88           	dey
    3818: b1 10        	lda	($10),y                 ; 0x10 <__rc0>
    381a: 69 ff        	adc	#$ff
    381c: a8           	tay
    381d: 4c fd 3d     	jmp	$3dfd <f256main+0x33fd>
    3820: a5 87        	lda	$87                     ; 0x87 <kernelEventData+0x4>
    3822: aa           	tax
    3823: 38           	sec
    3824: e9 61        	sbc	#$61
    3826: 50 02        	bvc	$382a <f256main+0x2e2a>
    3828: 49 80        	eor	#$80
    382a: c9 00        	cmp	#$0
    382c: 30 28        	bmi	$3856 <f256main+0x2e56>
    382e: 18           	clc
    382f: 8a           	txa
    3830: 69 9f        	adc	#$9f
    3832: c9 18        	cmp	#$18
    3834: 90 03        	bcc	$3839 <f256main+0x2e39>
    3836: 4c 1f 3d     	jmp	$3d1f <f256main+0x331f>
    3839: 0a           	asl
    383a: aa           	tax
    383b: 7c f1 86     	jmp	($86f1,x)               ; 0x86f1 <__BLOCK_SIZE+0x66f1>
    383e: a6 67        	ldx	$67                     ; 0x67 <controllerMode>
    3840: f0 03        	beq	$3845 <f256main+0x2e45>
    3842: 4c dc 3a     	jmp	$3adc <f256main+0x30dc>
    3845: a2 fc        	ldx	#$fc
    3847: 86 65        	stx	$65                     ; 0x65 <ship_SX>
    3849: ad 60 d6     	lda	$d660                   ; 0xd660 <__heap_start+0x4b64>
    384c: 29 10        	and	#$10
    384e: f0 03        	beq	$3853 <f256main+0x2e53>
    3850: 4c e6 3a     	jmp	$3ae6 <f256main+0x30e6>
    3853: 4c a4 3b     	jmp	$3ba4 <f256main+0x31a4>
    3856: e0 87        	cpx	#$87
    3858: d0 03        	bne	$385d <f256main+0x2e5d>
    385a: 4c dc 3a     	jmp	$3adc <f256main+0x30dc>
    385d: e0 05        	cpx	#$5
    385f: d0 03        	bne	$3864 <f256main+0x2e64>
    3861: 4c d5 3a     	jmp	$3ad5 <f256main+0x30d5>
    3864: e0 20        	cpx	#$20
    3866: f0 03        	beq	$386b <f256main+0x2e6b>
    3868: 4c 1f 3d     	jmp	$3d1f <f256main+0x331f>
    386b: a5 64        	lda	$64                     ; 0x64 <currentPal>
    386d: 1a           	inc
    386e: c9 04        	cmp	#$4
    3870: 90 02        	bcc	$3874 <f256main+0x2e74>
    3872: a9 00        	lda	#$0
    3874: 85 64        	sta	$64                     ; 0x64 <currentPal>
    3876: 0a           	asl
    3877: 85 12        	sta	$12                     ; 0x12 <__rc2>
    3879: aa           	tax
    387a: 09 11        	ora	#$11
    387c: 8d 00 d9     	sta	$d900                   ; 0xd900 <__heap_start+0x4e04>
    387f: 8d 08 d9     	sta	$d908                   ; 0xd908 <__heap_start+0x4e0c>
    3882: 8d 10 d9     	sta	$d910                   ; 0xd910 <__heap_start+0x4e14>
    3885: 8d 18 d9     	sta	$d918                   ; 0xd918 <__heap_start+0x4e1c>
    3888: 8d 20 d9     	sta	$d920                   ; 0xd920 <__heap_start+0x4e24>
    388b: 8a           	txa
    388c: 09 71        	ora	#$71
    388e: 8d 28 d9     	sta	$d928                   ; 0xd928 <__heap_start+0x4e2c>
    3891: a5 5e        	lda	$5e                     ; 0x5e <_active>
    3893: 29 01        	and	#$1
    3895: a2 02        	ldx	#$2
    3897: a0 01        	ldy	#$1
    3899: 85 13        	sta	$13                     ; 0x13 <__rc3>
    389b: c9 00        	cmp	#$0
    389d: d0 02        	bne	$38a1 <f256main+0x2ea1>
    389f: a2 00        	ldx	#$0
    38a1: a5 12        	lda	$12                     ; 0x12 <__rc2>
    38a3: 9d 5f 00     	sta	$5f,x                   ; 0x5f <_BITMAP_CLUT>
    38a6: 5a           	phy
    38a7: a0 09        	ldy	#$9
    38a9: b1 10        	lda	($10),y                 ; 0x10 <__rc0>
    38ab: 85 14        	sta	$14                     ; 0x14 <__rc4>
    38ad: c8           	iny
    38ae: b1 10        	lda	($10),y                 ; 0x10 <__rc0>
    38b0: 7a           	ply
    38b1: 85 15        	sta	$15                     ; 0x15 <__rc5>
    38b3: a5 13        	lda	$13                     ; 0x13 <__rc3>
    38b5: f0 0d        	beq	$38c4 <f256main+0x2ec4>
    38b7: 5a           	phy
    38b8: a0 06        	ldy	#$6
    38ba: b1 10        	lda	($10),y                 ; 0x10 <__rc0>
    38bc: 85 14        	sta	$14                     ; 0x14 <__rc4>
    38be: c8           	iny
    38bf: b1 10        	lda	($10),y                 ; 0x10 <__rc0>
    38c1: 7a           	ply
    38c2: 85 15        	sta	$15                     ; 0x15 <__rc5>
    38c4: b2 14        	lda	($14)                   ; 0x14 <__rc4>
    38c6: 29 f9        	and	#$f9
    38c8: 05 12        	ora	$12                     ; 0x12 <__rc2>
    38ca: 92 14        	sta	($14)                   ; 0x14 <__rc4>
    38cc: a9 01        	lda	#$1
    38ce: 05 61        	ora	$61                     ; 0x61 <_BITMAP_CLUT+0x2>
    38d0: 8d 10 d1     	sta	$d110                   ; 0xd110 <__heap_start+0x4614>
    38d3: 64 5c        	stz	$5c                     ; 0x5c <_col>
    38d5: 9c 14 d0     	stz	$d014                   ; 0xd014 <__heap_start+0x4518>
    38d8: 9c 15 d0     	stz	$d015                   ; 0xd015 <__heap_start+0x4519>
    38db: 64 5d        	stz	$5d                     ; 0x5d <_row>
    38dd: 9c 16 d0     	stz	$d016                   ; 0xd016 <__heap_start+0x451a>
    38e0: 9c 17 d0     	stz	$d017                   ; 0xd017 <__heap_start+0x451b>
    38e3: a5 64        	lda	$64                     ; 0x64 <currentPal>
    38e5: 0a           	asl
    38e6: 85 12        	sta	$12                     ; 0x12 <__rc2>
    38e8: a9 00        	lda	#$0
    38ea: 2a           	rol
    38eb: 85 13        	sta	$13                     ; 0x13 <__rc3>
    38ed: a9 8e        	lda	#$8e
    38ef: 18           	clc
    38f0: 65 12        	adc	$12                     ; 0x12 <__rc2>
    38f2: 85 12        	sta	$12                     ; 0x12 <__rc2>
    38f4: a9 89        	lda	#$89
    38f6: 65 13        	adc	$13                     ; 0x13 <__rc3>
    38f8: 85 13        	sta	$13                     ; 0x13 <__rc3>
    38fa: b2 12        	lda	($12)                   ; 0x12 <__rc2>
    38fc: 85 14        	sta	$14                     ; 0x14 <__rc4>
    38fe: b1 12        	lda	($12),y                 ; 0x12 <__rc2>
    3900: 85 12        	sta	$12                     ; 0x12 <__rc2>
    3902: a5 14        	lda	$14                     ; 0x14 <__rc4>
    3904: 92 10        	sta	($10)                   ; 0x10 <__rc0>
    3906: a5 12        	lda	$12                     ; 0x12 <__rc2>
    3908: 91 10        	sta	($10),y                 ; 0x10 <__rc0>
    390a: a2 26        	ldx	#$26
    390c: 86 12        	stx	$12                     ; 0x12 <__rc2>
    390e: a2 89        	ldx	#$89
    3910: 86 13        	stx	$13                     ; 0x13 <__rc3>
    3912: 20 80 75     	jsr	$7580 <printf>
    3915: a0 04        	ldy	#$4
    3917: ad 60 d6     	lda	$d660                   ; 0xd660 <__heap_start+0x4b64>
    391a: 29 10        	and	#$10
    391c: f0 03        	beq	$3921 <f256main+0x2f21>
    391e: 4c e6 3a     	jmp	$3ae6 <f256main+0x30e6>
    3921: 4c a4 3b     	jmp	$3ba4 <f256main+0x31a4>
    3924: a2 01        	ldx	#$1
    3926: a0 0f        	ldy	#$f
    3928: b1 10        	lda	($10),y                 ; 0x10 <__rc0>
    392a: f0 02        	beq	$392e <f256main+0x2f2e>
    392c: a2 00        	ldx	#$0
    392e: 8a           	txa
    392f: 0a           	asl
    3930: 0a           	asl
    3931: a8           	tay
    3932: a5 64        	lda	$64                     ; 0x64 <currentPal>
    3934: 0a           	asl
    3935: 09 10        	ora	#$10
    3937: 8d 86 8a     	sta	$8a86                   ; 0x8a86 <_spriteCtl+0x4>
    393a: 8d 20 d9     	sta	$d920                   ; 0xd920 <__heap_start+0x4e24>
    393d: 9c 21 d9     	stz	$d921                   ; 0xd921 <__heap_start+0x4e25>
    3940: 98           	tya
    3941: 09 40        	ora	#$40
    3943: 8d 22 d9     	sta	$d922                   ; 0xd922 <__heap_start+0x4e26>
    3946: a0 02        	ldy	#$2
    3948: 8c 23 d9     	sty	$d923                   ; 0xd923 <__heap_start+0x4e27>
    394b: a9 01        	lda	#$1
    394d: 0d 86 8a     	ora	$8a86                   ; 0x8a86 <_spriteCtl+0x4>
    3950: 8d 20 d9     	sta	$d920                   ; 0xd920 <__heap_start+0x4e24>
    3953: a0 80        	ldy	#$80
    3955: 84 f3        	sty	$f3                     ; 0xf3 <__bss_size+0x6e>
    3957: a0 82        	ldy	#$82
    3959: 84 12        	sty	$12                     ; 0x12 <__rc2>
    395b: a0 00        	ldy	#$0
    395d: 84 13        	sty	$13                     ; 0x13 <__rc3>
    395f: 20 f0 ff     	jsr	$fff0 <__heap_start+0x74f4>
    3962: 92 2c        	sta	($2c)                   ; 0x2c <__zp_data_size>
    3964: a9 00        	lda	#$0
    3966: 6a           	ror
    3967: 85 12        	sta	$12                     ; 0x12 <__rc2>
    3969: 18           	clc
    396a: a9 02        	lda	#$2
    396c: 72 2c        	adc	($2c)                   ; 0x2c <__zp_data_size>
    396e: 85 6b        	sta	$6b                     ; 0x6b <shipExhaust.1>
    3970: 64 f3        	stz	$f3                     ; 0xf3 <__bss_size+0x6e>
    3972: a4 6b        	ldy	$6b                     ; 0x6b <shipExhaust.1>
    3974: 84 f4        	sty	$f4                     ; 0xf4 <__bss_size+0x6f>
    3976: a0 0b        	ldy	#$b
    3978: 84 f5        	sty	$f5                     ; 0xf5 <__bss_size+0x70>
    397a: 8a           	txa
    397b: a0 0f        	ldy	#$f
    397d: 91 10        	sta	($10),y                 ; 0x10 <__rc0>
    397f: 20 f0 ff     	jsr	$fff0 <__heap_start+0x74f4>
    3982: 92 2c        	sta	($2c)                   ; 0x2c <__zp_data_size>
    3984: a9 00        	lda	#$0
    3986: 6a           	ror
    3987: 85 12        	sta	$12                     ; 0x12 <__rc2>
    3989: a0 04        	ldy	#$4
    398b: ad 60 d6     	lda	$d660                   ; 0xd660 <__heap_start+0x4b64>
    398e: 29 10        	and	#$10
    3990: f0 03        	beq	$3995 <f256main+0x2f95>
    3992: 4c e6 3a     	jmp	$3ae6 <f256main+0x30e6>
    3995: 4c a4 3b     	jmp	$3ba4 <f256main+0x31a4>
    3998: a6 30        	ldx	$30                     ; 0x30 <ship_X>
    399a: a5 31        	lda	$31                     ; 0x31 <ship_X+0x1>
    399c: 86 14        	stx	$14                     ; 0x14 <__rc4>
    399e: e0 41        	cpx	#$41
    39a0: 85 15        	sta	$15                     ; 0x15 <__rc5>
    39a2: e9 01        	sbc	#$1
    39a4: 50 02        	bvc	$39a8 <f256main+0x2fa8>
    39a6: 49 80        	eor	#$80
    39a8: a8           	tay
    39a9: 30 03        	bmi	$39ae <f256main+0x2fae>
    39ab: 4c 05 49     	jmp	$4905 <f256main+0x3f05>
    39ae: e0 20        	cpx	#$20
    39b0: a5 15        	lda	$15                     ; 0x15 <__rc5>
    39b2: e9 00        	sbc	#$0
    39b4: 50 02        	bvc	$39b8 <f256main+0x2fb8>
    39b6: 49 80        	eor	#$80
    39b8: aa           	tax
    39b9: 10 03        	bpl	$39be <f256main+0x2fbe>
    39bb: 4c 05 49     	jmp	$4905 <f256main+0x3f05>
    39be: a6 65        	ldx	$65                     ; 0x65 <ship_SX>
    39c0: 86 12        	stx	$12                     ; 0x12 <__rc2>
    39c2: a5 14        	lda	$14                     ; 0x14 <__rc4>
    39c4: e0 00        	cpx	#$0
    39c6: 30 03        	bmi	$39cb <f256main+0x2fcb>
    39c8: 4c f3 48     	jmp	$48f3 <f256main+0x3ef3>
    39cb: a2 ff        	ldx	#$ff
    39cd: 86 13        	stx	$13                     ; 0x13 <__rc3>
    39cf: 4c f5 48     	jmp	$48f5 <f256main+0x3ef5>
    39d2: 5a           	phy
    39d3: a0 13        	ldy	#$13
    39d5: b1 10        	lda	($10),y                 ; 0x10 <__rc0>
    39d7: c9 43        	cmp	#$43
    39d9: 88           	dey
    39da: b1 10        	lda	($10),y                 ; 0x10 <__rc0>
    39dc: 7a           	ply
    39dd: e9 01        	sbc	#$1
    39df: 50 02        	bvc	$39e3 <f256main+0x2fe3>
    39e1: 49 80        	eor	#$80
    39e3: aa           	tax
    39e4: 18           	clc
    39e5: 5a           	phy
    39e6: a0 13        	ldy	#$13
    39e8: b1 10        	lda	($10),y                 ; 0x10 <__rc0>
    39ea: 69 05        	adc	#$5
    39ec: 85 14        	sta	$14                     ; 0x14 <__rc4>
    39ee: 88           	dey
    39ef: b1 10        	lda	($10),y                 ; 0x10 <__rc0>
    39f1: 7a           	ply
    39f2: 69 00        	adc	#$0
    39f4: e0 00        	cpx	#$0
    39f6: 30 03        	bmi	$39fb <f256main+0x2ffb>
    39f8: 4c 5b 3d     	jmp	$3d5b <f256main+0x335b>
    39fb: a6 14        	ldx	$14                     ; 0x14 <__rc4>
    39fd: 5a           	phy
    39fe: 48           	pha
    39ff: 8a           	txa
    3a00: a0 13        	ldy	#$13
    3a02: 91 10        	sta	($10),y                 ; 0x10 <__rc0>
    3a04: 68           	pla
    3a05: 8e 2c d9     	stx	$d92c                   ; 0xd92c <__heap_start+0x4e30>
    3a08: 88           	dey
    3a09: 91 10        	sta	($10),y                 ; 0x10 <__rc0>
    3a0b: 8d 2d d9     	sta	$d92d                   ; 0xd92d <__heap_start+0x4e31>
    3a0e: a0 0c        	ldy	#$c
    3a10: b1 10        	lda	($10),y                 ; 0x10 <__rc0>
    3a12: 8d 2e d9     	sta	$d92e                   ; 0xd92e <__heap_start+0x4e32>
    3a15: 88           	dey
    3a16: b1 10        	lda	($10),y                 ; 0x10 <__rc0>
    3a18: 7a           	ply
    3a19: 8d 2f d9     	sta	$d92f                   ; 0xd92f <__heap_start+0x4e33>
    3a1c: a2 80        	ldx	#$80
    3a1e: 86 f3        	stx	$f3                     ; 0xf3 <__bss_size+0x6e>
    3a20: a2 82        	ldx	#$82
    3a22: 86 12        	stx	$12                     ; 0x12 <__rc2>
    3a24: a2 00        	ldx	#$0
    3a26: 86 13        	stx	$13                     ; 0x13 <__rc3>
    3a28: 20 f0 ff     	jsr	$fff0 <__heap_start+0x74f4>
    3a2b: 92 2c        	sta	($2c)                   ; 0x2c <__zp_data_size>
    3a2d: a9 00        	lda	#$0
    3a2f: 6a           	ror
    3a30: 85 12        	sta	$12                     ; 0x12 <__rc2>
    3a32: b2 2c        	lda	($2c)                   ; 0x2c <__zp_data_size>
    3a34: 1a           	inc
    3a35: 85 6c        	sta	$6c                     ; 0x6c <shotT.1>
    3a37: 64 f3        	stz	$f3                     ; 0xf3 <__bss_size+0x6e>
    3a39: a6 6c        	ldx	$6c                     ; 0x6c <shotT.1>
    3a3b: 86 f4        	stx	$f4                     ; 0xf4 <__bss_size+0x6f>
    3a3d: a2 14        	ldx	#$14
    3a3f: 86 f5        	stx	$f5                     ; 0xf5 <__bss_size+0x70>
    3a41: 20 f0 ff     	jsr	$fff0 <__heap_start+0x74f4>
    3a44: 92 2c        	sta	($2c)                   ; 0x2c <__zp_data_size>
    3a46: a9 00        	lda	#$0
    3a48: 6a           	ror
    3a49: 85 12        	sta	$12                     ; 0x12 <__rc2>
    3a4b: ad 60 d6     	lda	$d660                   ; 0xd660 <__heap_start+0x4b64>
    3a4e: 29 10        	and	#$10
    3a50: f0 03        	beq	$3a55 <f256main+0x3055>
    3a52: 4c e6 3a     	jmp	$3ae6 <f256main+0x30e6>
    3a55: 4c a4 3b     	jmp	$3ba4 <f256main+0x31a4>
    3a58: a6 67        	ldx	$67                     ; 0x67 <controllerMode>
    3a5a: e0 02        	cpx	#$2
    3a5c: d0 03        	bne	$3a61 <f256main+0x3061>
    3a5e: 4c 79 3d     	jmp	$3d79 <f256main+0x3379>
    3a61: e0 01        	cpx	#$1
    3a63: f0 03        	beq	$3a68 <f256main+0x3068>
    3a65: 4c bb 3d     	jmp	$3dbb <f256main+0x33bb>
    3a68: a2 81        	ldx	#$81
    3a6a: 8e 80 d8     	stx	$d880                   ; 0xd880 <__heap_start+0x4d84>
    3a6d: ea           	nop
    3a6e: ea           	nop
    3a6f: a2 01        	ldx	#$1
    3a71: 8e 80 d8     	stx	$d880                   ; 0xd880 <__heap_start+0x4d84>
    3a74: 80 01        	bra	$3a77 <f256main+0x3077>
    3a76: ea           	nop
    3a77: ad 80 d8     	lda	$d880                   ; 0xd880 <__heap_start+0x4d84>
    3a7a: 29 40        	and	#$40
    3a7c: f0 f8        	beq	$3a76 <f256main+0x3076>
    3a7e: 4c 8f 3d     	jmp	$3d8f <f256main+0x338f>
    3a81: a6 67        	ldx	$67                     ; 0x67 <controllerMode>
    3a83: e0 02        	cpx	#$2
    3a85: b0 03        	bcs	$3a8a <f256main+0x308a>
    3a87: 4c a5 3e     	jmp	$3ea5 <f256main+0x34a5>
    3a8a: a2 00        	ldx	#$0
    3a8c: a0 03        	ldy	#$3
    3a8e: 4c a8 3e     	jmp	$3ea8 <f256main+0x34a8>
    3a91: a6 67        	ldx	$67                     ; 0x67 <controllerMode>
    3a93: d0 47        	bne	$3adc <f256main+0x30dc>
    3a95: 84 65        	sty	$65                     ; 0x65 <ship_SX>
    3a97: ad 60 d6     	lda	$d660                   ; 0xd660 <__heap_start+0x4b64>
    3a9a: 29 10        	and	#$10
    3a9c: d0 48        	bne	$3ae6 <f256main+0x30e6>
    3a9e: 4c a4 3b     	jmp	$3ba4 <f256main+0x31a4>
    3aa1: a6 67        	ldx	$67                     ; 0x67 <controllerMode>
    3aa3: d0 37        	bne	$3adc <f256main+0x30dc>
    3aa5: a2 fc        	ldx	#$fc
    3aa7: 86 66        	stx	$66                     ; 0x66 <ship_SY>
    3aa9: ad 60 d6     	lda	$d660                   ; 0xd660 <__heap_start+0x4b64>
    3aac: 29 10        	and	#$10
    3aae: d0 36        	bne	$3ae6 <f256main+0x30e6>
    3ab0: 4c a4 3b     	jmp	$3ba4 <f256main+0x31a4>
    3ab3: a6 67        	ldx	$67                     ; 0x67 <controllerMode>
    3ab5: d0 25        	bne	$3adc <f256main+0x30dc>
    3ab7: 64 65        	stz	$65                     ; 0x65 <ship_SX>
    3ab9: 64 66        	stz	$66                     ; 0x66 <ship_SY>
    3abb: ad 60 d6     	lda	$d660                   ; 0xd660 <__heap_start+0x4b64>
    3abe: 29 10        	and	#$10
    3ac0: d0 24        	bne	$3ae6 <f256main+0x30e6>
    3ac2: 4c a4 3b     	jmp	$3ba4 <f256main+0x31a4>
    3ac5: a6 67        	ldx	$67                     ; 0x67 <controllerMode>
    3ac7: d0 13        	bne	$3adc <f256main+0x30dc>
    3ac9: 84 66        	sty	$66                     ; 0x66 <ship_SY>
    3acb: ad 60 d6     	lda	$d660                   ; 0xd660 <__heap_start+0x4b64>
    3ace: 29 10        	and	#$10
    3ad0: d0 14        	bne	$3ae6 <f256main+0x30e6>
    3ad2: 4c a4 3b     	jmp	$3ba4 <f256main+0x31a4>
    3ad5: a6 67        	ldx	$67                     ; 0x67 <controllerMode>
    3ad7: d0 03        	bne	$3adc <f256main+0x30dc>
    3ad9: 4c 2b 42     	jmp	$422b <f256main+0x382b>
    3adc: ad 60 d6     	lda	$d660                   ; 0xd660 <__heap_start+0x4b64>
    3adf: 29 10        	and	#$10
    3ae1: d0 03        	bne	$3ae6 <f256main+0x30e6>
    3ae3: 4c a4 3b     	jmp	$3ba4 <f256main+0x31a4>
    3ae6: a2 10        	ldx	#$10
    3ae8: 8e 60 d6     	stx	$d660                   ; 0xd660 <__heap_start+0x4b64>
    3aeb: a6 78        	ldx	$78                     ; 0x78 <theOne.5>
    3aed: 86 14        	stx	$14                     ; 0x14 <__rc4>
    3aef: a5 79        	lda	$79                     ; 0x79 <theOne.5+0x1>
    3af1: a6 7a        	ldx	$7a                     ; 0x7a <theOne.5+0x2>
    3af3: a4 7b        	ldy	$7b                     ; 0x7b <theOne.5+0x3>
    3af5: c0 01        	cpy	#$1
    3af7: d0 16        	bne	$3b0f <f256main+0x310f>
    3af9: 84 15        	sty	$15                     ; 0x15 <__rc5>
    3afb: e0 00        	cpx	#$0
    3afd: d0 55        	bne	$3b54 <f256main+0x3154>
    3aff: 86 12        	stx	$12                     ; 0x12 <__rc2>
    3b01: aa           	tax
    3b02: f0 03        	beq	$3b07 <f256main+0x3107>
    3b04: 4c 15 3d     	jmp	$3d15 <f256main+0x3315>
    3b07: a6 14        	ldx	$14                     ; 0x14 <__rc4>
    3b09: e0 00        	cpx	#$0
    3b0b: 90 0a        	bcc	$3b17 <f256main+0x3117>
    3b0d: 80 4b        	bra	$3b5a <f256main+0x315a>
    3b0f: 86 12        	stx	$12                     ; 0x12 <__rc2>
    3b11: 84 15        	sty	$15                     ; 0x15 <__rc5>
    3b13: c0 01        	cpy	#$1
    3b15: b0 43        	bcs	$3b5a <f256main+0x315a>
    3b17: a2 04        	ldx	#$4
    3b19: 86 13        	stx	$13                     ; 0x13 <__rc3>
    3b1b: a8           	tay
    3b1c: a6 14        	ldx	$14                     ; 0x14 <__rc4>
    3b1e: a5 15        	lda	$15                     ; 0x15 <__rc5>
    3b20: d0 0d        	bne	$3b2f <f256main+0x312f>
    3b22: a5 12        	lda	$12                     ; 0x12 <__rc2>
    3b24: d0 09        	bne	$3b2f <f256main+0x312f>
    3b26: 98           	tya
    3b27: d0 06        	bne	$3b2f <f256main+0x312f>
    3b29: 8a           	txa
    3b2a: d0 03        	bne	$3b2f <f256main+0x312f>
    3b2c: 4c 05 4a     	jmp	$4a05 <f256main+0x4005>
    3b2f: a9 02        	lda	#$2
    3b31: 8d 50 d6     	sta	$d650                   ; 0xd650 <__heap_start+0x4b54>
    3b34: 8e 55 d6     	stx	$d655                   ; 0xd655 <__heap_start+0x4b59>
    3b37: 8c 56 d6     	sty	$d656                   ; 0xd656 <__heap_start+0x4b5a>
    3b3a: a6 12        	ldx	$12                     ; 0x12 <__rc2>
    3b3c: 8e 57 d6     	stx	$d657                   ; 0xd657 <__heap_start+0x4b5b>
    3b3f: 9c 54 d6     	stz	$d654                   ; 0xd654 <__heap_start+0x4b58>
    3b42: 8d 50 d6     	sta	$d650                   ; 0xd650 <__heap_start+0x4b54>
    3b45: a2 89        	ldx	#$89
    3b47: 8e 50 d6     	stx	$d650                   ; 0xd650 <__heap_start+0x4b54>
    3b4a: 64 78        	stz	$78                     ; 0x78 <theOne.5>
    3b4c: 64 79        	stz	$79                     ; 0x79 <theOne.5+0x1>
    3b4e: 64 7a        	stz	$7a                     ; 0x7a <theOne.5+0x2>
    3b50: 64 7b        	stz	$7b                     ; 0x7b <theOne.5+0x3>
    3b52: 80 4e        	bra	$3ba2 <f256main+0x31a2>
    3b54: 86 12        	stx	$12                     ; 0x12 <__rc2>
    3b56: e0 00        	cpx	#$0
    3b58: 90 bd        	bcc	$3b17 <f256main+0x3117>
    3b5a: a2 04        	ldx	#$4
    3b5c: a8           	tay
    3b5d: 86 13        	stx	$13                     ; 0x13 <__rc3>
    3b5f: 18           	clc
    3b60: a5 14        	lda	$14                     ; 0x14 <__rc4>
    3b62: 69 01        	adc	#$1
    3b64: aa           	tax
    3b65: 98           	tya
    3b66: 69 00        	adc	#$0
    3b68: 85 16        	sta	$16                     ; 0x16 <__rc6>
    3b6a: a5 12        	lda	$12                     ; 0x12 <__rc2>
    3b6c: 69 00        	adc	#$0
    3b6e: a8           	tay
    3b6f: a5 15        	lda	$15                     ; 0x15 <__rc5>
    3b71: 69 ff        	adc	#$ff
    3b73: 85 12        	sta	$12                     ; 0x12 <__rc2>
    3b75: 86 78        	stx	$78                     ; 0x78 <theOne.5>
    3b77: 86 14        	stx	$14                     ; 0x14 <__rc4>
    3b79: a5 16        	lda	$16                     ; 0x16 <__rc6>
    3b7b: 85 79        	sta	$79                     ; 0x79 <theOne.5+0x1>
    3b7d: 84 7a        	sty	$7a                     ; 0x7a <theOne.5+0x2>
    3b7f: a6 12        	ldx	$12                     ; 0x12 <__rc2>
    3b81: 86 7b        	stx	$7b                     ; 0x7b <theOne.5+0x3>
    3b83: a2 02        	ldx	#$2
    3b85: 86 12        	stx	$12                     ; 0x12 <__rc2>
    3b87: 8e 50 d6     	stx	$d650                   ; 0xd650 <__heap_start+0x4b54>
    3b8a: a6 14        	ldx	$14                     ; 0x14 <__rc4>
    3b8c: 8e 55 d6     	stx	$d655                   ; 0xd655 <__heap_start+0x4b59>
    3b8f: 8d 56 d6     	sta	$d656                   ; 0xd656 <__heap_start+0x4b5a>
    3b92: 8c 57 d6     	sty	$d657                   ; 0xd657 <__heap_start+0x4b5b>
    3b95: 9c 54 d6     	stz	$d654                   ; 0xd654 <__heap_start+0x4b58>
    3b98: a6 12        	ldx	$12                     ; 0x12 <__rc2>
    3b9a: 8e 50 d6     	stx	$d650                   ; 0xd650 <__heap_start+0x4b54>
    3b9d: a2 89        	ldx	#$89
    3b9f: 8e 50 d6     	stx	$d650                   ; 0xd650 <__heap_start+0x4b54>
    3ba2: a4 13        	ldy	$13                     ; 0x13 <__rc3>
    3ba4: a5 77        	lda	$77                     ; 0x77 <theOne.4>
    3ba6: 29 01        	and	#$1
    3ba8: f0 03        	beq	$3bad <f256main+0x31ad>
    3baa: 4c f3 3c     	jmp	$3cf3 <f256main+0x32f3>
    3bad: a6 6f        	ldx	$6f                     ; 0x6f <theOne.0>
    3baf: a4 70        	ldy	$70                     ; 0x70 <theOne.0+0x1>
    3bb1: d0 06        	bne	$3bb9 <f256main+0x31b9>
    3bb3: 8a           	txa
    3bb4: d0 03        	bne	$3bb9 <f256main+0x31b9>
    3bb6: 4c 8a 3c     	jmp	$3c8a <f256main+0x328a>
    3bb9: 86 1a        	stx	$1a                     ; 0x1a <__rc10>
    3bbb: 84 1b        	sty	$1b                     ; 0x1b <__rc11>
    3bbd: a5 80        	lda	$80                     ; 0x80 <theOne.8>
    3bbf: a6 81        	ldx	$81                     ; 0x81 <theOne.8+0x1>
    3bc1: 86 12        	stx	$12                     ; 0x12 <__rc2>
    3bc3: 18           	clc
    3bc4: 69 0c        	adc	#$c
    3bc6: aa           	tax
    3bc7: a5 12        	lda	$12                     ; 0x12 <__rc2>
    3bc9: 69 00        	adc	#$0
    3bcb: 86 12        	stx	$12                     ; 0x12 <__rc2>
    3bcd: 85 13        	sta	$13                     ; 0x13 <__rc3>
    3bcf: a9 ff        	lda	#$ff
    3bd1: a2 00        	ldx	#$0
    3bd3: 85 14        	sta	$14                     ; 0x14 <__rc4>
    3bd5: 85 15        	sta	$15                     ; 0x15 <__rc5>
    3bd7: 85 16        	sta	$16                     ; 0x16 <__rc6>
    3bd9: 85 17        	sta	$17                     ; 0x17 <__rc7>
    3bdb: 8a           	txa
    3bdc: 85 18        	sta	$18                     ; 0x18 <__rc8>
    3bde: a0 0c        	ldy	#$c
    3be0: b1 12        	lda	($12),y                 ; 0x12 <__rc2>
    3be2: f0 05        	beq	$3be9 <f256main+0x31e9>
    3be4: a5 18        	lda	$18                     ; 0x18 <__rc8>
    3be6: 4c 4b 3c     	jmp	$3c4b <f256main+0x324b>
    3be9: b2 12        	lda	($12)                   ; 0x12 <__rc2>
    3beb: 85 1e        	sta	$1e                     ; 0x1e <__rc14>
    3bed: a0 01        	ldy	#$1
    3bef: b1 12        	lda	($12),y                 ; 0x12 <__rc2>
    3bf1: 85 1d        	sta	$1d                     ; 0x1d <__rc13>
    3bf3: c8           	iny
    3bf4: b1 12        	lda	($12),y                 ; 0x12 <__rc2>
    3bf6: 85 1c        	sta	$1c                     ; 0x1c <__rc12>
    3bf8: c8           	iny
    3bf9: b1 12        	lda	($12),y                 ; 0x12 <__rc2>
    3bfb: c5 17        	cmp	$17                     ; 0x17 <__rc7>
    3bfd: d0 22        	bne	$3c21 <f256main+0x3221>
    3bff: 85 19        	sta	$19                     ; 0x19 <__rc9>
    3c01: a5 18        	lda	$18                     ; 0x18 <__rc8>
    3c03: a4 1c        	ldy	$1c                     ; 0x1c <__rc12>
    3c05: c4 16        	cpy	$16                     ; 0x16 <__rc6>
    3c07: f0 03        	beq	$3c0c <f256main+0x320c>
    3c09: 4c 76 3c     	jmp	$3c76 <f256main+0x3276>
    3c0c: a0 03        	ldy	#$3
    3c0e: 84 27        	sty	$27                     ; 0x27 <__rc23>
    3c10: a4 1d        	ldy	$1d                     ; 0x1d <__rc13>
    3c12: c4 15        	cpy	$15                     ; 0x15 <__rc5>
    3c14: f0 03        	beq	$3c19 <f256main+0x3219>
    3c16: 4c 83 3c     	jmp	$3c83 <f256main+0x3283>
    3c19: a4 1e        	ldy	$1e                     ; 0x1e <__rc14>
    3c1b: c4 14        	cpy	$14                     ; 0x14 <__rc4>
    3c1d: 90 0c        	bcc	$3c2b <f256main+0x322b>
    3c1f: 80 2a        	bra	$3c4b <f256main+0x324b>
    3c21: 84 27        	sty	$27                     ; 0x27 <__rc23>
    3c23: 85 19        	sta	$19                     ; 0x19 <__rc9>
    3c25: c5 17        	cmp	$17                     ; 0x17 <__rc7>
    3c27: a5 18        	lda	$18                     ; 0x18 <__rc8>
    3c29: b0 20        	bcs	$3c4b <f256main+0x324b>
    3c2b: a4 1e        	ldy	$1e                     ; 0x1e <__rc14>
    3c2d: 84 78        	sty	$78                     ; 0x78 <theOne.5>
    3c2f: 84 14        	sty	$14                     ; 0x14 <__rc4>
    3c31: a4 1d        	ldy	$1d                     ; 0x1d <__rc13>
    3c33: 84 79        	sty	$79                     ; 0x79 <theOne.5+0x1>
    3c35: 84 15        	sty	$15                     ; 0x15 <__rc5>
    3c37: a4 1c        	ldy	$1c                     ; 0x1c <__rc12>
    3c39: 84 7a        	sty	$7a                     ; 0x7a <theOne.5+0x2>
    3c3b: 84 16        	sty	$16                     ; 0x16 <__rc6>
    3c3d: a4 19        	ldy	$19                     ; 0x19 <__rc9>
    3c3f: 84 7b        	sty	$7b                     ; 0x7b <theOne.5+0x3>
    3c41: 84 17        	sty	$17                     ; 0x17 <__rc7>
    3c43: a0 01        	ldy	#$1
    3c45: 84 77        	sty	$77                     ; 0x77 <theOne.4>
    3c47: 85 7c        	sta	$7c                     ; 0x7c <theOne.6>
    3c49: 86 7d        	stx	$7d                     ; 0x7d <theOne.6+0x1>
    3c4b: a8           	tay
    3c4c: c8           	iny
    3c4d: d0 01        	bne	$3c50 <f256main+0x3250>
    3c4f: e8           	inx
    3c50: 84 18        	sty	$18                     ; 0x18 <__rc8>
    3c52: 86 19        	stx	$19                     ; 0x19 <__rc9>
    3c54: a5 12        	lda	$12                     ; 0x12 <__rc2>
    3c56: 18           	clc
    3c57: 69 19        	adc	#$19
    3c59: 85 12        	sta	$12                     ; 0x12 <__rc2>
    3c5b: a5 13        	lda	$13                     ; 0x13 <__rc3>
    3c5d: 69 00        	adc	#$0
    3c5f: 85 13        	sta	$13                     ; 0x13 <__rc3>
    3c61: 98           	tya
    3c62: a4 1b        	ldy	$1b                     ; 0x1b <__rc11>
    3c64: c4 19        	cpy	$19                     ; 0x19 <__rc9>
    3c66: f0 03        	beq	$3c6b <f256main+0x326b>
    3c68: 4c dc 3b     	jmp	$3bdc <f256main+0x31dc>
    3c6b: a5 18        	lda	$18                     ; 0x18 <__rc8>
    3c6d: a4 1a        	ldy	$1a                     ; 0x1a <__rc10>
    3c6f: c4 18        	cpy	$18                     ; 0x18 <__rc8>
    3c71: f0 17        	beq	$3c8a <f256main+0x328a>
    3c73: 4c dc 3b     	jmp	$3bdc <f256main+0x31dc>
    3c76: a0 03        	ldy	#$3
    3c78: 84 27        	sty	$27                     ; 0x27 <__rc23>
    3c7a: a4 1c        	ldy	$1c                     ; 0x1c <__rc12>
    3c7c: c4 16        	cpy	$16                     ; 0x16 <__rc6>
    3c7e: b0 cb        	bcs	$3c4b <f256main+0x324b>
    3c80: 4c 2b 3c     	jmp	$3c2b <f256main+0x322b>
    3c83: c4 15        	cpy	$15                     ; 0x15 <__rc5>
    3c85: b0 c4        	bcs	$3c4b <f256main+0x324b>
    3c87: 4c 2b 3c     	jmp	$3c2b <f256main+0x322b>
    3c8a: a6 78        	ldx	$78                     ; 0x78 <theOne.5>
    3c8c: 86 12        	stx	$12                     ; 0x12 <__rc2>
    3c8e: a5 79        	lda	$79                     ; 0x79 <theOne.5+0x1>
    3c90: a4 7a        	ldy	$7a                     ; 0x7a <theOne.5+0x2>
    3c92: a6 7b        	ldx	$7b                     ; 0x7b <theOne.5+0x3>
    3c94: d0 11        	bne	$3ca7 <f256main+0x32a7>
    3c96: c0 00        	cpy	#$0
    3c98: d0 0d        	bne	$3ca7 <f256main+0x32a7>
    3c9a: c9 00        	cmp	#$0
    3c9c: d0 09        	bne	$3ca7 <f256main+0x32a7>
    3c9e: e6 12        	inc	$12                     ; 0x12 <__rc2>
    3ca0: c6 12        	dec	$12                     ; 0x12 <__rc2>
    3ca2: d0 03        	bne	$3ca7 <f256main+0x32a7>
    3ca4: 4c ea 48     	jmp	$48ea <f256main+0x3eea>
    3ca7: 86 17        	stx	$17                     ; 0x17 <__rc7>
    3ca9: 84 16        	sty	$16                     ; 0x16 <__rc6>
    3cab: a6 12        	ldx	$12                     ; 0x12 <__rc2>
    3cad: 86 14        	stx	$14                     ; 0x14 <__rc4>
    3caf: 85 15        	sta	$15                     ; 0x15 <__rc5>
    3cb1: a5 73        	lda	$73                     ; 0x73 <theOne.2>
    3cb3: a6 74        	ldx	$74                     ; 0x74 <theOne.2+0x1>
    3cb5: a4 75        	ldy	$75                     ; 0x75 <theOne.2+0x2>
    3cb7: 84 12        	sty	$12                     ; 0x12 <__rc2>
    3cb9: a4 76        	ldy	$76                     ; 0x76 <theOne.2+0x3>
    3cbb: 84 13        	sty	$13                     ; 0x13 <__rc3>
    3cbd: 20 81 86     	jsr	$8681 <__mulsi3>
    3cc0: a4 12        	ldy	$12                     ; 0x12 <__rc2>
    3cc2: 85 12        	sta	$12                     ; 0x12 <__rc2>
    3cc4: 85 78        	sta	$78                     ; 0x78 <theOne.5>
    3cc6: 86 15        	stx	$15                     ; 0x15 <__rc5>
    3cc8: 86 79        	stx	$79                     ; 0x79 <theOne.5+0x1>
    3cca: 84 14        	sty	$14                     ; 0x14 <__rc4>
    3ccc: 84 7a        	sty	$7a                     ; 0x7a <theOne.5+0x2>
    3cce: a6 13        	ldx	$13                     ; 0x13 <__rc3>
    3cd0: 86 7b        	stx	$7b                     ; 0x7b <theOne.5+0x3>
    3cd2: a9 02        	lda	#$2
    3cd4: 8d 50 d6     	sta	$d650                   ; 0xd650 <__heap_start+0x4b54>
    3cd7: a4 12        	ldy	$12                     ; 0x12 <__rc2>
    3cd9: 8c 55 d6     	sty	$d655                   ; 0xd655 <__heap_start+0x4b59>
    3cdc: a6 15        	ldx	$15                     ; 0x15 <__rc5>
    3cde: 8e 56 d6     	stx	$d656                   ; 0xd656 <__heap_start+0x4b5a>
    3ce1: a6 14        	ldx	$14                     ; 0x14 <__rc4>
    3ce3: 8e 57 d6     	stx	$d657                   ; 0xd657 <__heap_start+0x4b5b>
    3ce6: 9c 54 d6     	stz	$d654                   ; 0xd654 <__heap_start+0x4b58>
    3ce9: 8d 50 d6     	sta	$d650                   ; 0xd650 <__heap_start+0x4b54>
    3cec: a2 89        	ldx	#$89
    3cee: 8e 50 d6     	stx	$d650                   ; 0xd650 <__heap_start+0x4b54>
    3cf1: a0 04        	ldy	#$4
    3cf3: a6 7f        	ldx	$7f                     ; 0x7f <theOne.7+0x1>
    3cf5: e4 70        	cpx	$70                     ; 0x70 <theOne.0+0x1>
    3cf7: d0 12        	bne	$3d0b <f256main+0x330b>
    3cf9: a6 7e        	ldx	$7e                     ; 0x7e <theOne.7>
    3cfb: 98           	tya
    3cfc: a4 6f        	ldy	$6f                     ; 0x6f <theOne.0>
    3cfe: 84 12        	sty	$12                     ; 0x12 <__rc2>
    3d00: a8           	tay
    3d01: e4 12        	cpx	$12                     ; 0x12 <__rc2>
    3d03: b0 03        	bcs	$3d08 <f256main+0x3308>
    3d05: 4c c4 37     	jmp	$37c4 <f256main+0x2dc4>
    3d08: 4c bf 37     	jmp	$37bf <f256main+0x2dbf>
    3d0b: e4 70        	cpx	$70                     ; 0x70 <theOne.0+0x1>
    3d0d: b0 03        	bcs	$3d12 <f256main+0x3312>
    3d0f: 4c c4 37     	jmp	$37c4 <f256main+0x2dc4>
    3d12: 4c bf 37     	jmp	$37bf <f256main+0x2dbf>
    3d15: c9 00        	cmp	#$0
    3d17: b0 03        	bcs	$3d1c <f256main+0x331c>
    3d19: 4c 17 3b     	jmp	$3b17 <f256main+0x3117>
    3d1c: 4c 5a 3b     	jmp	$3b5a <f256main+0x315a>
    3d1f: 64 5c        	stz	$5c                     ; 0x5c <_col>
    3d21: 9c 14 d0     	stz	$d014                   ; 0xd014 <__heap_start+0x4518>
    3d24: 9c 15 d0     	stz	$d015                   ; 0xd015 <__heap_start+0x4519>
    3d27: a2 0a        	ldx	#$a
    3d29: 86 5d        	stx	$5d                     ; 0x5d <_row>
    3d2b: 8e 16 d0     	stx	$d016                   ; 0xd016 <__heap_start+0x451a>
    3d2e: 9c 17 d0     	stz	$d017                   ; 0xd017 <__heap_start+0x451b>
    3d31: a5 87        	lda	$87                     ; 0x87 <kernelEventData+0x4>
    3d33: 92 10        	sta	($10)                   ; 0x10 <__rc0>
    3d35: a9 00        	lda	#$0
    3d37: a2 01        	ldx	#$1
    3d39: 86 12        	stx	$12                     ; 0x12 <__rc2>
    3d3b: 84 24        	sty	$24                     ; 0x24 <__rc20>
    3d3d: a4 12        	ldy	$12                     ; 0x12 <__rc2>
    3d3f: 91 10        	sta	($10),y                 ; 0x10 <__rc0>
    3d41: a2 89        	ldx	#$89
    3d43: 86 12        	stx	$12                     ; 0x12 <__rc2>
    3d45: a2 89        	ldx	#$89
    3d47: 86 13        	stx	$13                     ; 0x13 <__rc3>
    3d49: 20 80 75     	jsr	$7580 <printf>
    3d4c: a4 24        	ldy	$24                     ; 0x24 <__rc20>
    3d4e: ad 60 d6     	lda	$d660                   ; 0xd660 <__heap_start+0x4b64>
    3d51: 29 10        	and	#$10
    3d53: f0 03        	beq	$3d58 <f256main+0x3358>
    3d55: 4c e6 3a     	jmp	$3ae6 <f256main+0x30e6>
    3d58: 4c a4 3b     	jmp	$3ba4 <f256main+0x31a4>
    3d5b: 5a           	phy
    3d5c: a0 12        	ldy	#$12
    3d5e: 91 10        	sta	($10),y                 ; 0x10 <__rc0>
    3d60: a5 14        	lda	$14                     ; 0x14 <__rc4>
    3d62: c8           	iny
    3d63: 91 10        	sta	($10),y                 ; 0x10 <__rc0>
    3d65: 7a           	ply
    3d66: ae 87 8a     	ldx	$8a87                   ; 0x8a87 <_spriteCtl+0x5>
    3d69: 8e 28 d9     	stx	$d928                   ; 0xd928 <__heap_start+0x4e2c>
    3d6c: ad 60 d6     	lda	$d660                   ; 0xd660 <__heap_start+0x4b64>
    3d6f: 29 10        	and	#$10
    3d71: f0 03        	beq	$3d76 <f256main+0x3376>
    3d73: 4c e6 3a     	jmp	$3ae6 <f256main+0x30e6>
    3d76: 4c a4 3b     	jmp	$3ba4 <f256main+0x31a4>
    3d79: a2 85        	ldx	#$85
    3d7b: 8e 80 d8     	stx	$d880                   ; 0xd880 <__heap_start+0x4d84>
    3d7e: ea           	nop
    3d7f: ea           	nop
    3d80: a2 05        	ldx	#$5
    3d82: 8e 80 d8     	stx	$d880                   ; 0xd880 <__heap_start+0x4d84>
    3d85: 80 01        	bra	$3d88 <f256main+0x3388>
    3d87: ea           	nop
    3d88: ad 80 d8     	lda	$d880                   ; 0xd880 <__heap_start+0x4d84>
    3d8b: 29 40        	and	#$40
    3d8d: f0 f8        	beq	$3d87 <f256main+0x3387>
    3d8f: ad 84 d8     	lda	$d884                   ; 0xd884 <__heap_start+0x4d88>
    3d92: 29 02        	and	#$2
    3d94: 85 12        	sta	$12                     ; 0x12 <__rc2>
    3d96: a2 fc        	ldx	#$fc
    3d98: 8a           	txa
    3d99: e6 12        	inc	$12                     ; 0x12 <__rc2>
    3d9b: c6 12        	dec	$12                     ; 0x12 <__rc2>
    3d9d: f0 09        	beq	$3da8 <f256main+0x33a8>
    3d9f: ad 84 d8     	lda	$d884                   ; 0xd884 <__heap_start+0x4d88>
    3da2: 0a           	asl
    3da3: 0a           	asl
    3da4: 49 ff        	eor	#$ff
    3da6: 29 04        	and	#$4
    3da8: 85 65        	sta	$65                     ; 0x65 <ship_SX>
    3daa: ad 84 d8     	lda	$d884                   ; 0xd884 <__heap_start+0x4d88>
    3dad: 29 08        	and	#$8
    3daf: f0 08        	beq	$3db9 <f256main+0x33b9>
    3db1: ad 84 d8     	lda	$d884                   ; 0xd884 <__heap_start+0x4d88>
    3db4: 49 ff        	eor	#$ff
    3db6: 29 04        	and	#$4
    3db8: aa           	tax
    3db9: 86 66        	stx	$66                     ; 0x66 <ship_SY>
    3dbb: a2 80        	ldx	#$80
    3dbd: 86 f3        	stx	$f3                     ; 0xf3 <__bss_size+0x6e>
    3dbf: a2 82        	ldx	#$82
    3dc1: 86 12        	stx	$12                     ; 0x12 <__rc2>
    3dc3: a2 00        	ldx	#$0
    3dc5: 86 13        	stx	$13                     ; 0x13 <__rc3>
    3dc7: 20 f0 ff     	jsr	$fff0 <__heap_start+0x74f4>
    3dca: 92 2c        	sta	($2c)                   ; 0x2c <__zp_data_size>
    3dcc: a9 00        	lda	#$0
    3dce: 6a           	ror
    3dcf: 85 12        	sta	$12                     ; 0x12 <__rc2>
    3dd1: 18           	clc
    3dd2: a9 02        	lda	#$2
    3dd4: 72 2c        	adc	($2c)                   ; 0x2c <__zp_data_size>
    3dd6: 85 6e        	sta	$6e                     ; 0x6e <padTimer.1>
    3dd8: 64 f3        	stz	$f3                     ; 0xf3 <__bss_size+0x6e>
    3dda: a6 6e        	ldx	$6e                     ; 0x6e <padTimer.1>
    3ddc: 86 f4        	stx	$f4                     ; 0xf4 <__bss_size+0x6f>
    3dde: a2 1d        	ldx	#$1d
    3de0: 86 f5        	stx	$f5                     ; 0xf5 <__bss_size+0x70>
    3de2: 20 f0 ff     	jsr	$fff0 <__heap_start+0x74f4>
    3de5: 92 2c        	sta	($2c)                   ; 0x2c <__zp_data_size>
    3de7: a9 00        	lda	#$0
    3de9: 6a           	ror
    3dea: 85 12        	sta	$12                     ; 0x12 <__rc2>
    3dec: ad 60 d6     	lda	$d660                   ; 0xd660 <__heap_start+0x4b64>
    3def: 29 10        	and	#$10
    3df1: f0 03        	beq	$3df6 <f256main+0x33f6>
    3df3: 4c e6 3a     	jmp	$3ae6 <f256main+0x30e6>
    3df6: 4c a4 3b     	jmp	$3ba4 <f256main+0x31a4>
    3df9: a2 6a        	ldx	#$6a
    3dfb: a0 01        	ldy	#$1
    3dfd: 8e 04 d9     	stx	$d904                   ; 0xd904 <__heap_start+0x4e08>
    3e00: 8c 05 d9     	sty	$d905                   ; 0xd905 <__heap_start+0x4e09>
    3e03: a9 f0        	lda	#$f0
    3e05: 8d 06 d9     	sta	$d906                   ; 0xd906 <__heap_start+0x4e0a>
    3e08: 85 12        	sta	$12                     ; 0x12 <__rc2>
    3e0a: 9c 07 d9     	stz	$d907                   ; 0xd907 <__heap_start+0x4e0b>
    3e0d: 18           	clc
    3e0e: 8a           	txa
    3e0f: 69 20        	adc	#$20
    3e11: 85 13        	sta	$13                     ; 0x13 <__rc3>
    3e13: 86 16        	stx	$16                     ; 0x16 <__rc6>
    3e15: 98           	tya
    3e16: 69 00        	adc	#$0
    3e18: a6 13        	ldx	$13                     ; 0x13 <__rc3>
    3e1a: 8e 0c d9     	stx	$d90c                   ; 0xd90c <__heap_start+0x4e10>
    3e1d: 8d 0d d9     	sta	$d90d                   ; 0xd90d <__heap_start+0x4e11>
    3e20: a5 12        	lda	$12                     ; 0x12 <__rc2>
    3e22: 8d 0e d9     	sta	$d90e                   ; 0xd90e <__heap_start+0x4e12>
    3e25: 9c 0f d9     	stz	$d90f                   ; 0xd90f <__heap_start+0x4e13>
    3e28: 18           	clc
    3e29: a5 16        	lda	$16                     ; 0x16 <__rc6>
    3e2b: 69 40        	adc	#$40
    3e2d: aa           	tax
    3e2e: 98           	tya
    3e2f: 69 00        	adc	#$0
    3e31: 8e 14 d9     	stx	$d914                   ; 0xd914 <__heap_start+0x4e18>
    3e34: 8d 15 d9     	sta	$d915                   ; 0xd915 <__heap_start+0x4e19>
    3e37: a5 12        	lda	$12                     ; 0x12 <__rc2>
    3e39: 8d 16 d9     	sta	$d916                   ; 0xd916 <__heap_start+0x4e1a>
    3e3c: 85 15        	sta	$15                     ; 0x15 <__rc5>
    3e3e: 9c 17 d9     	stz	$d917                   ; 0xd917 <__heap_start+0x4e1b>
    3e41: 18           	clc
    3e42: a5 16        	lda	$16                     ; 0x16 <__rc6>
    3e44: 5a           	phy
    3e45: a0 11        	ldy	#$11
    3e47: 91 10        	sta	($10),y                 ; 0x10 <__rc0>
    3e49: 7a           	ply
    3e4a: 69 60        	adc	#$60
    3e4c: aa           	tax
    3e4d: 98           	tya
    3e4e: 5a           	phy
    3e4f: a0 10        	ldy	#$10
    3e51: 91 10        	sta	($10),y                 ; 0x10 <__rc0>
    3e53: 7a           	ply
    3e54: 98           	tya
    3e55: 69 00        	adc	#$0
    3e57: 8e 1c d9     	stx	$d91c                   ; 0xd91c <__heap_start+0x4e20>
    3e5a: 8d 1d d9     	sta	$d91d                   ; 0xd91d <__heap_start+0x4e21>
    3e5d: a6 15        	ldx	$15                     ; 0x15 <__rc5>
    3e5f: 8e 1e d9     	stx	$d91e                   ; 0xd91e <__heap_start+0x4e22>
    3e62: 9c 1f d9     	stz	$d91f                   ; 0xd91f <__heap_start+0x4e23>
    3e65: a2 80        	ldx	#$80
    3e67: 86 f3        	stx	$f3                     ; 0xf3 <__bss_size+0x6e>
    3e69: a2 82        	ldx	#$82
    3e6b: 86 12        	stx	$12                     ; 0x12 <__rc2>
    3e6d: a2 00        	ldx	#$0
    3e6f: 86 13        	stx	$13                     ; 0x13 <__rc3>
    3e71: 20 f0 ff     	jsr	$fff0 <__heap_start+0x74f4>
    3e74: 92 2c        	sta	($2c)                   ; 0x2c <__zp_data_size>
    3e76: a9 00        	lda	#$0
    3e78: 6a           	ror
    3e79: 85 12        	sta	$12                     ; 0x12 <__rc2>
    3e7b: 18           	clc
    3e7c: a9 05        	lda	#$5
    3e7e: 72 2c        	adc	($2c)                   ; 0x2c <__zp_data_size>
    3e80: 85 6a        	sta	$6a                     ; 0x6a <planetScroll.1>
    3e82: 64 f3        	stz	$f3                     ; 0xf3 <__bss_size+0x6e>
    3e84: a6 6a        	ldx	$6a                     ; 0x6a <planetScroll.1>
    3e86: 86 f4        	stx	$f4                     ; 0xf4 <__bss_size+0x6f>
    3e88: a2 0a        	ldx	#$a
    3e8a: 86 f5        	stx	$f5                     ; 0xf5 <__bss_size+0x70>
    3e8c: 20 f0 ff     	jsr	$fff0 <__heap_start+0x74f4>
    3e8f: 92 2c        	sta	($2c)                   ; 0x2c <__zp_data_size>
    3e91: a9 00        	lda	#$0
    3e93: 6a           	ror
    3e94: 85 12        	sta	$12                     ; 0x12 <__rc2>
    3e96: a4 14        	ldy	$14                     ; 0x14 <__rc4>
    3e98: ad 60 d6     	lda	$d660                   ; 0xd660 <__heap_start+0x4b64>
    3e9b: 29 10        	and	#$10
    3e9d: f0 03        	beq	$3ea2 <f256main+0x34a2>
    3e9f: 4c e6 3a     	jmp	$3ae6 <f256main+0x30e6>
    3ea2: 4c a4 3b     	jmp	$3ba4 <f256main+0x31a4>
    3ea5: e8           	inx
    3ea6: a4 27        	ldy	$27                     ; 0x27 <__rc23>
    3ea8: 86 67        	stx	$67                     ; 0x67 <controllerMode>
    3eaa: 64 5c        	stz	$5c                     ; 0x5c <_col>
    3eac: 9c 14 d0     	stz	$d014                   ; 0xd014 <__heap_start+0x4518>
    3eaf: 9c 15 d0     	stz	$d015                   ; 0xd015 <__heap_start+0x4519>
    3eb2: 84 5d        	sty	$5d                     ; 0x5d <_row>
    3eb4: a2 03        	ldx	#$3
    3eb6: 86 27        	stx	$27                     ; 0x27 <__rc23>
    3eb8: 8c 16 d0     	sty	$d016                   ; 0xd016 <__heap_start+0x451a>
    3ebb: 9c 17 d0     	stz	$d017                   ; 0xd017 <__heap_start+0x451b>
    3ebe: a6 67        	ldx	$67                     ; 0x67 <controllerMode>
    3ec0: 86 12        	stx	$12                     ; 0x12 <__rc2>
    3ec2: a6 01        	ldx	$1                      ; 0x1 <__data_size+0x1>
    3ec4: 86 19        	stx	$19                     ; 0x19 <__rc9>
    3ec6: a6 5d        	ldx	$5d                     ; 0x5d <_row>
    3ec8: a9 50        	lda	#$50
    3eca: a8           	tay
    3ecb: 84 18        	sty	$18                     ; 0x18 <__rc8>
    3ecd: 8d 00 de     	sta	$de00                   ; 0xde00 <__heap_start+0x5304>
    3ed0: 9c 01 de     	stz	$de01                   ; 0xde01 <__heap_start+0x5305>
    3ed3: 8e 02 de     	stx	$de02                   ; 0xde02 <__heap_start+0x5306>
    3ed6: 9c 03 de     	stz	$de03                   ; 0xde03 <__heap_start+0x5307>
    3ed9: ad 10 de     	lda	$de10                   ; 0xde10 <__heap_start+0x5314>
    3edc: ae 11 de     	ldx	$de11                   ; 0xde11 <__heap_start+0x5315>
    3edf: 86 13        	stx	$13                     ; 0x13 <__rc3>
    3ee1: ac 12 de     	ldy	$de12                   ; 0xde12 <__heap_start+0x5316>
    3ee4: ae 13 de     	ldx	$de13                   ; 0xde13 <__heap_start+0x5317>
    3ee7: 86 14        	stx	$14                     ; 0x14 <__rc4>
    3ee9: 9c 08 de     	stz	$de08                   ; 0xde08 <__heap_start+0x530c>
    3eec: a2 c0        	ldx	#$c0
    3eee: 8e 09 de     	stx	$de09                   ; 0xde09 <__heap_start+0x530d>
    3ef1: 9c 0a de     	stz	$de0a                   ; 0xde0a <__heap_start+0x530e>
    3ef4: 9c 0b de     	stz	$de0b                   ; 0xde0b <__heap_start+0x530f>
    3ef7: 8d 0c de     	sta	$de0c                   ; 0xde0c <__heap_start+0x5310>
    3efa: a6 13        	ldx	$13                     ; 0x13 <__rc3>
    3efc: 8e 0d de     	stx	$de0d                   ; 0xde0d <__heap_start+0x5311>
    3eff: 8c 0e de     	sty	$de0e                   ; 0xde0e <__heap_start+0x5312>
    3f02: a6 14        	ldx	$14                     ; 0x14 <__rc4>
    3f04: 8e 0f de     	stx	$de0f                   ; 0xde0f <__heap_start+0x5313>
    3f07: ae 18 de     	ldx	$de18                   ; 0xde18 <__heap_start+0x531c>
    3f0a: ac 19 de     	ldy	$de19                   ; 0xde19 <__heap_start+0x531d>
    3f0d: ad 1a de     	lda	$de1a                   ; 0xde1a <__heap_start+0x531e>
    3f10: 86 14        	stx	$14                     ; 0x14 <__rc4>
    3f12: ae 1b de     	ldx	$de1b                   ; 0xde1b <__heap_start+0x531f>
    3f15: 84 15        	sty	$15                     ; 0x15 <__rc5>
    3f17: a5 12        	lda	$12                     ; 0x12 <__rc2>
    3f19: d0 03        	bne	$3f1e <f256main+0x351e>
    3f1b: 4c c0 42     	jmp	$42c0 <f256main+0x38c0>
    3f1e: a6 12        	ldx	$12                     ; 0x12 <__rc2>
    3f20: e0 01        	cpx	#$1
    3f22: f0 03        	beq	$3f27 <f256main+0x3527>
    3f24: 4c c4 45     	jmp	$45c4 <f256main+0x3bc4>
    3f27: 64 12        	stz	$12                     ; 0x12 <__rc2>
    3f29: 64 13        	stz	$13                     ; 0x13 <__rc3>
    3f2b: 4c c7 41     	jmp	$41c7 <f256main+0x37c7>
    3f2e: 8a           	txa
    3f2f: f0 1b        	beq	$3f4c <f256main+0x354c>
    3f31: b1 14        	lda	($14),y                 ; 0x14 <__rc4>
    3f33: 92 14        	sta	($14)                   ; 0x14 <__rc4>
    3f35: a9 ff        	lda	#$ff
    3f37: c6 16        	dec	$16                     ; 0x16 <__rc6>
    3f39: c5 16        	cmp	$16                     ; 0x16 <__rc6>
    3f3b: f0 06        	beq	$3f43 <f256main+0x3543>
    3f3d: e6 14        	inc	$14                     ; 0x14 <__rc4>
    3f3f: d0 ed        	bne	$3f2e <f256main+0x352e>
    3f41: 80 05        	bra	$3f48 <f256main+0x3548>
    3f43: ca           	dex
    3f44: e6 14        	inc	$14                     ; 0x14 <__rc4>
    3f46: d0 e6        	bne	$3f2e <f256main+0x352e>
    3f48: e6 15        	inc	$15                     ; 0x15 <__rc5>
    3f4a: 80 e2        	bra	$3f2e <f256main+0x352e>
    3f4c: a5 16        	lda	$16                     ; 0x16 <__rc6>
    3f4e: d0 e1        	bne	$3f31 <f256main+0x3531>
    3f50: a2 02        	ldx	#$2
    3f52: 86 01        	stx	$1                      ; 0x1 <__data_size+0x1>
    3f54: a9 09        	lda	#$9
    3f56: a2 10        	ldx	#$10
    3f58: 5a           	phy
    3f59: a4 2a        	ldy	$2a                     ; 0x2a <__rc26>
    3f5b: 84 14        	sty	$14                     ; 0x14 <__rc4>
    3f5d: a4 2b        	ldy	$2b                     ; 0x2b <__rc27>
    3f5f: 84 15        	sty	$15                     ; 0x15 <__rc5>
    3f61: 7a           	ply
    3f62: 86 16        	stx	$16                     ; 0x16 <__rc6>
    3f64: aa           	tax
    3f65: 80 03        	bra	$3f6a <f256main+0x356a>
    3f67: 8a           	txa
    3f68: f0 1b        	beq	$3f85 <f256main+0x3585>
    3f6a: b1 14        	lda	($14),y                 ; 0x14 <__rc4>
    3f6c: 92 14        	sta	($14)                   ; 0x14 <__rc4>
    3f6e: a9 ff        	lda	#$ff
    3f70: c6 16        	dec	$16                     ; 0x16 <__rc6>
    3f72: c5 16        	cmp	$16                     ; 0x16 <__rc6>
    3f74: f0 06        	beq	$3f7c <f256main+0x357c>
    3f76: e6 14        	inc	$14                     ; 0x14 <__rc4>
    3f78: d0 ed        	bne	$3f67 <f256main+0x3567>
    3f7a: 80 05        	bra	$3f81 <f256main+0x3581>
    3f7c: ca           	dex
    3f7d: e6 14        	inc	$14                     ; 0x14 <__rc4>
    3f7f: d0 e6        	bne	$3f67 <f256main+0x3567>
    3f81: e6 15        	inc	$15                     ; 0x15 <__rc5>
    3f83: 80 e2        	bra	$3f67 <f256main+0x3567>
    3f85: a5 16        	lda	$16                     ; 0x16 <__rc6>
    3f87: d0 e1        	bne	$3f6a <f256main+0x356a>
    3f89: a2 50        	ldx	#$50
    3f8b: 86 18        	stx	$18                     ; 0x18 <__rc8>
    3f8d: a2 02        	ldx	#$2
    3f8f: 86 01        	stx	$1                      ; 0x1 <__data_size+0x1>
    3f91: a9 03        	lda	#$3
    3f93: a8           	tay
    3f94: 84 27        	sty	$27                     ; 0x27 <__rc23>
    3f96: 85 01        	sta	$1                      ; 0x1 <__data_size+0x1>
    3f98: a0 f0        	ldy	#$f0
    3f9a: 8c 10 c9     	sty	$c910                   ; 0xc910 <__heap_start+0x3e14>
    3f9d: 8c 11 c9     	sty	$c911                   ; 0xc911 <__heap_start+0x3e15>
    3fa0: 8c 12 c9     	sty	$c912                   ; 0xc912 <__heap_start+0x3e16>
    3fa3: 8c 13 c9     	sty	$c913                   ; 0xc913 <__heap_start+0x3e17>
    3fa6: 8c 14 c9     	sty	$c914                   ; 0xc914 <__heap_start+0x3e18>
    3fa9: 8c 15 c9     	sty	$c915                   ; 0xc915 <__heap_start+0x3e19>
    3fac: 8c 16 c9     	sty	$c916                   ; 0xc916 <__heap_start+0x3e1a>
    3faf: 8c 17 c9     	sty	$c917                   ; 0xc917 <__heap_start+0x3e1b>
    3fb2: 8c 18 c9     	sty	$c918                   ; 0xc918 <__heap_start+0x3e1c>
    3fb5: 8c 19 c9     	sty	$c919                   ; 0xc919 <__heap_start+0x3e1d>
    3fb8: 8c 1a c9     	sty	$c91a                   ; 0xc91a <__heap_start+0x3e1e>
    3fbb: 8c 1b c9     	sty	$c91b                   ; 0xc91b <__heap_start+0x3e1f>
    3fbe: 8c 1c c9     	sty	$c91c                   ; 0xc91c <__heap_start+0x3e20>
    3fc1: 8c 1d c9     	sty	$c91d                   ; 0xc91d <__heap_start+0x3e21>
    3fc4: 8c 1e c9     	sty	$c91e                   ; 0xc91e <__heap_start+0x3e22>
    3fc7: 8c 1f c9     	sty	$c91f                   ; 0xc91f <__heap_start+0x3e23>
    3fca: 8c 20 c9     	sty	$c920                   ; 0xc920 <__heap_start+0x3e24>
    3fcd: 8c 21 c9     	sty	$c921                   ; 0xc921 <__heap_start+0x3e25>
    3fd0: 8c 22 c9     	sty	$c922                   ; 0xc922 <__heap_start+0x3e26>
    3fd3: 8c 23 c9     	sty	$c923                   ; 0xc923 <__heap_start+0x3e27>
    3fd6: 8c 24 c9     	sty	$c924                   ; 0xc924 <__heap_start+0x3e28>
    3fd9: 8c 25 c9     	sty	$c925                   ; 0xc925 <__heap_start+0x3e29>
    3fdc: 8c 26 c9     	sty	$c926                   ; 0xc926 <__heap_start+0x3e2a>
    3fdf: 8c 27 c9     	sty	$c927                   ; 0xc927 <__heap_start+0x3e2b>
    3fe2: 8c 28 c9     	sty	$c928                   ; 0xc928 <__heap_start+0x3e2c>
    3fe5: 8c 29 c9     	sty	$c929                   ; 0xc929 <__heap_start+0x3e2d>
    3fe8: 8c 2a c9     	sty	$c92a                   ; 0xc92a <__heap_start+0x3e2e>
    3feb: 8c 2b c9     	sty	$c92b                   ; 0xc92b <__heap_start+0x3e2f>
    3fee: 8c 2c c9     	sty	$c92c                   ; 0xc92c <__heap_start+0x3e30>
    3ff1: 8c 2d c9     	sty	$c92d                   ; 0xc92d <__heap_start+0x3e31>
    3ff4: 8c 2e c9     	sty	$c92e                   ; 0xc92e <__heap_start+0x3e32>
    3ff7: 8c 2f c9     	sty	$c92f                   ; 0xc92f <__heap_start+0x3e33>
    3ffa: 8c 30 c9     	sty	$c930                   ; 0xc930 <__heap_start+0x3e34>
    3ffd: 8c 31 c9     	sty	$c931                   ; 0xc931 <__heap_start+0x3e35>
    4000: 8c 32 c9     	sty	$c932                   ; 0xc932 <__heap_start+0x3e36>
    4003: 8c 33 c9     	sty	$c933                   ; 0xc933 <__heap_start+0x3e37>
    4006: 8c 34 c9     	sty	$c934                   ; 0xc934 <__heap_start+0x3e38>
    4009: 8c 35 c9     	sty	$c935                   ; 0xc935 <__heap_start+0x3e39>
    400c: 8c 36 c9     	sty	$c936                   ; 0xc936 <__heap_start+0x3e3a>
    400f: 8c 37 c9     	sty	$c937                   ; 0xc937 <__heap_start+0x3e3b>
    4012: 8c 38 c9     	sty	$c938                   ; 0xc938 <__heap_start+0x3e3c>
    4015: 8c 39 c9     	sty	$c939                   ; 0xc939 <__heap_start+0x3e3d>
    4018: 8c 3a c9     	sty	$c93a                   ; 0xc93a <__heap_start+0x3e3e>
    401b: 8c 3b c9     	sty	$c93b                   ; 0xc93b <__heap_start+0x3e3f>
    401e: 8c 3c c9     	sty	$c93c                   ; 0xc93c <__heap_start+0x3e40>
    4021: 8c 3d c9     	sty	$c93d                   ; 0xc93d <__heap_start+0x3e41>
    4024: 8c 3e c9     	sty	$c93e                   ; 0xc93e <__heap_start+0x3e42>
    4027: 8c 3f c9     	sty	$c93f                   ; 0xc93f <__heap_start+0x3e43>
    402a: 8c 40 c9     	sty	$c940                   ; 0xc940 <__heap_start+0x3e44>
    402d: 8c 41 c9     	sty	$c941                   ; 0xc941 <__heap_start+0x3e45>
    4030: 8c 42 c9     	sty	$c942                   ; 0xc942 <__heap_start+0x3e46>
    4033: 8c 43 c9     	sty	$c943                   ; 0xc943 <__heap_start+0x3e47>
    4036: 8c 44 c9     	sty	$c944                   ; 0xc944 <__heap_start+0x3e48>
    4039: 8c 45 c9     	sty	$c945                   ; 0xc945 <__heap_start+0x3e49>
    403c: 8c 46 c9     	sty	$c946                   ; 0xc946 <__heap_start+0x3e4a>
    403f: 8c 47 c9     	sty	$c947                   ; 0xc947 <__heap_start+0x3e4b>
    4042: 8c 48 c9     	sty	$c948                   ; 0xc948 <__heap_start+0x3e4c>
    4045: 8c 49 c9     	sty	$c949                   ; 0xc949 <__heap_start+0x3e4d>
    4048: 8c 4a c9     	sty	$c94a                   ; 0xc94a <__heap_start+0x3e4e>
    404b: 8c 4b c9     	sty	$c94b                   ; 0xc94b <__heap_start+0x3e4f>
    404e: 8c 4c c9     	sty	$c94c                   ; 0xc94c <__heap_start+0x3e50>
    4051: 8c 4d c9     	sty	$c94d                   ; 0xc94d <__heap_start+0x3e51>
    4054: 8c 4e c9     	sty	$c94e                   ; 0xc94e <__heap_start+0x3e52>
    4057: 8c 4f c9     	sty	$c94f                   ; 0xc94f <__heap_start+0x3e53>
    405a: 8c 50 c9     	sty	$c950                   ; 0xc950 <__heap_start+0x3e54>
    405d: 8c 51 c9     	sty	$c951                   ; 0xc951 <__heap_start+0x3e55>
    4060: 8c 52 c9     	sty	$c952                   ; 0xc952 <__heap_start+0x3e56>
    4063: 8c 53 c9     	sty	$c953                   ; 0xc953 <__heap_start+0x3e57>
    4066: 8c 54 c9     	sty	$c954                   ; 0xc954 <__heap_start+0x3e58>
    4069: 8c 55 c9     	sty	$c955                   ; 0xc955 <__heap_start+0x3e59>
    406c: 8c 56 c9     	sty	$c956                   ; 0xc956 <__heap_start+0x3e5a>
    406f: 8c 57 c9     	sty	$c957                   ; 0xc957 <__heap_start+0x3e5b>
    4072: 8c 58 c9     	sty	$c958                   ; 0xc958 <__heap_start+0x3e5c>
    4075: 8c 59 c9     	sty	$c959                   ; 0xc959 <__heap_start+0x3e5d>
    4078: 8c 5a c9     	sty	$c95a                   ; 0xc95a <__heap_start+0x3e5e>
    407b: 8c 5b c9     	sty	$c95b                   ; 0xc95b <__heap_start+0x3e5f>
    407e: 8c 5c c9     	sty	$c95c                   ; 0xc95c <__heap_start+0x3e60>
    4081: 8c 5d c9     	sty	$c95d                   ; 0xc95d <__heap_start+0x3e61>
    4084: 8c 5e c9     	sty	$c95e                   ; 0xc95e <__heap_start+0x3e62>
    4087: 8c 5f c9     	sty	$c95f                   ; 0xc95f <__heap_start+0x3e63>
    408a: 86 01        	stx	$1                      ; 0x1 <__data_size+0x1>
    408c: a2 20        	ldx	#$20
    408e: 8e 10 c9     	stx	$c910                   ; 0xc910 <__heap_start+0x3e14>
    4091: 8e 11 c9     	stx	$c911                   ; 0xc911 <__heap_start+0x3e15>
    4094: 8e 12 c9     	stx	$c912                   ; 0xc912 <__heap_start+0x3e16>
    4097: 8e 13 c9     	stx	$c913                   ; 0xc913 <__heap_start+0x3e17>
    409a: 8e 14 c9     	stx	$c914                   ; 0xc914 <__heap_start+0x3e18>
    409d: 8e 15 c9     	stx	$c915                   ; 0xc915 <__heap_start+0x3e19>
    40a0: 8e 16 c9     	stx	$c916                   ; 0xc916 <__heap_start+0x3e1a>
    40a3: 8e 17 c9     	stx	$c917                   ; 0xc917 <__heap_start+0x3e1b>
    40a6: 8e 18 c9     	stx	$c918                   ; 0xc918 <__heap_start+0x3e1c>
    40a9: 8e 19 c9     	stx	$c919                   ; 0xc919 <__heap_start+0x3e1d>
    40ac: 8e 1a c9     	stx	$c91a                   ; 0xc91a <__heap_start+0x3e1e>
    40af: 8e 1b c9     	stx	$c91b                   ; 0xc91b <__heap_start+0x3e1f>
    40b2: 8e 1c c9     	stx	$c91c                   ; 0xc91c <__heap_start+0x3e20>
    40b5: 8e 1d c9     	stx	$c91d                   ; 0xc91d <__heap_start+0x3e21>
    40b8: 8e 1e c9     	stx	$c91e                   ; 0xc91e <__heap_start+0x3e22>
    40bb: 8e 1f c9     	stx	$c91f                   ; 0xc91f <__heap_start+0x3e23>
    40be: 8e 20 c9     	stx	$c920                   ; 0xc920 <__heap_start+0x3e24>
    40c1: 8e 21 c9     	stx	$c921                   ; 0xc921 <__heap_start+0x3e25>
    40c4: 8e 22 c9     	stx	$c922                   ; 0xc922 <__heap_start+0x3e26>
    40c7: 8e 23 c9     	stx	$c923                   ; 0xc923 <__heap_start+0x3e27>
    40ca: 8e 24 c9     	stx	$c924                   ; 0xc924 <__heap_start+0x3e28>
    40cd: 8e 25 c9     	stx	$c925                   ; 0xc925 <__heap_start+0x3e29>
    40d0: 8e 26 c9     	stx	$c926                   ; 0xc926 <__heap_start+0x3e2a>
    40d3: 8e 27 c9     	stx	$c927                   ; 0xc927 <__heap_start+0x3e2b>
    40d6: 8e 28 c9     	stx	$c928                   ; 0xc928 <__heap_start+0x3e2c>
    40d9: 8e 29 c9     	stx	$c929                   ; 0xc929 <__heap_start+0x3e2d>
    40dc: 8e 2a c9     	stx	$c92a                   ; 0xc92a <__heap_start+0x3e2e>
    40df: 8e 2b c9     	stx	$c92b                   ; 0xc92b <__heap_start+0x3e2f>
    40e2: 8e 2c c9     	stx	$c92c                   ; 0xc92c <__heap_start+0x3e30>
    40e5: 8e 2d c9     	stx	$c92d                   ; 0xc92d <__heap_start+0x3e31>
    40e8: 8e 2e c9     	stx	$c92e                   ; 0xc92e <__heap_start+0x3e32>
    40eb: 8e 2f c9     	stx	$c92f                   ; 0xc92f <__heap_start+0x3e33>
    40ee: 8e 30 c9     	stx	$c930                   ; 0xc930 <__heap_start+0x3e34>
    40f1: 8e 31 c9     	stx	$c931                   ; 0xc931 <__heap_start+0x3e35>
    40f4: 8e 32 c9     	stx	$c932                   ; 0xc932 <__heap_start+0x3e36>
    40f7: 8e 33 c9     	stx	$c933                   ; 0xc933 <__heap_start+0x3e37>
    40fa: 8e 34 c9     	stx	$c934                   ; 0xc934 <__heap_start+0x3e38>
    40fd: 8e 35 c9     	stx	$c935                   ; 0xc935 <__heap_start+0x3e39>
    4100: 8e 36 c9     	stx	$c936                   ; 0xc936 <__heap_start+0x3e3a>
    4103: 8e 37 c9     	stx	$c937                   ; 0xc937 <__heap_start+0x3e3b>
    4106: 8e 38 c9     	stx	$c938                   ; 0xc938 <__heap_start+0x3e3c>
    4109: 8e 39 c9     	stx	$c939                   ; 0xc939 <__heap_start+0x3e3d>
    410c: 8e 3a c9     	stx	$c93a                   ; 0xc93a <__heap_start+0x3e3e>
    410f: 8e 3b c9     	stx	$c93b                   ; 0xc93b <__heap_start+0x3e3f>
    4112: 8e 3c c9     	stx	$c93c                   ; 0xc93c <__heap_start+0x3e40>
    4115: 8e 3d c9     	stx	$c93d                   ; 0xc93d <__heap_start+0x3e41>
    4118: 8e 3e c9     	stx	$c93e                   ; 0xc93e <__heap_start+0x3e42>
    411b: 8e 3f c9     	stx	$c93f                   ; 0xc93f <__heap_start+0x3e43>
    411e: 8e 40 c9     	stx	$c940                   ; 0xc940 <__heap_start+0x3e44>
    4121: 8e 41 c9     	stx	$c941                   ; 0xc941 <__heap_start+0x3e45>
    4124: 8e 42 c9     	stx	$c942                   ; 0xc942 <__heap_start+0x3e46>
    4127: 8e 43 c9     	stx	$c943                   ; 0xc943 <__heap_start+0x3e47>
    412a: 8e 44 c9     	stx	$c944                   ; 0xc944 <__heap_start+0x3e48>
    412d: 8e 45 c9     	stx	$c945                   ; 0xc945 <__heap_start+0x3e49>
    4130: 8e 46 c9     	stx	$c946                   ; 0xc946 <__heap_start+0x3e4a>
    4133: 8e 47 c9     	stx	$c947                   ; 0xc947 <__heap_start+0x3e4b>
    4136: 8e 48 c9     	stx	$c948                   ; 0xc948 <__heap_start+0x3e4c>
    4139: 8e 49 c9     	stx	$c949                   ; 0xc949 <__heap_start+0x3e4d>
    413c: 8e 4a c9     	stx	$c94a                   ; 0xc94a <__heap_start+0x3e4e>
    413f: 8e 4b c9     	stx	$c94b                   ; 0xc94b <__heap_start+0x3e4f>
    4142: 8e 4c c9     	stx	$c94c                   ; 0xc94c <__heap_start+0x3e50>
    4145: 8e 4d c9     	stx	$c94d                   ; 0xc94d <__heap_start+0x3e51>
    4148: 8e 4e c9     	stx	$c94e                   ; 0xc94e <__heap_start+0x3e52>
    414b: 8e 4f c9     	stx	$c94f                   ; 0xc94f <__heap_start+0x3e53>
    414e: 8e 50 c9     	stx	$c950                   ; 0xc950 <__heap_start+0x3e54>
    4151: 8e 51 c9     	stx	$c951                   ; 0xc951 <__heap_start+0x3e55>
    4154: 8e 52 c9     	stx	$c952                   ; 0xc952 <__heap_start+0x3e56>
    4157: 8e 53 c9     	stx	$c953                   ; 0xc953 <__heap_start+0x3e57>
    415a: 8e 54 c9     	stx	$c954                   ; 0xc954 <__heap_start+0x3e58>
    415d: 8e 55 c9     	stx	$c955                   ; 0xc955 <__heap_start+0x3e59>
    4160: 8e 56 c9     	stx	$c956                   ; 0xc956 <__heap_start+0x3e5a>
    4163: 8e 57 c9     	stx	$c957                   ; 0xc957 <__heap_start+0x3e5b>
    4166: 8e 58 c9     	stx	$c958                   ; 0xc958 <__heap_start+0x3e5c>
    4169: 8e 59 c9     	stx	$c959                   ; 0xc959 <__heap_start+0x3e5d>
    416c: 8e 5a c9     	stx	$c95a                   ; 0xc95a <__heap_start+0x3e5e>
    416f: 8e 5b c9     	stx	$c95b                   ; 0xc95b <__heap_start+0x3e5f>
    4172: 8e 5c c9     	stx	$c95c                   ; 0xc95c <__heap_start+0x3e60>
    4175: 8e 5d c9     	stx	$c95d                   ; 0xc95d <__heap_start+0x3e61>
    4178: 8e 5e c9     	stx	$c95e                   ; 0xc95e <__heap_start+0x3e62>
    417b: 8e 5f c9     	stx	$c95f                   ; 0xc95f <__heap_start+0x3e63>
    417e: c6 5d        	dec	$5d                     ; 0x5d <_row>
    4180: 9c 08 de     	stz	$de08                   ; 0xde08 <__heap_start+0x530c>
    4183: a2 c0        	ldx	#$c0
    4185: 8e 09 de     	stx	$de09                   ; 0xde09 <__heap_start+0x530d>
    4188: 9c 0a de     	stz	$de0a                   ; 0xde0a <__heap_start+0x530e>
    418b: 9c 0b de     	stz	$de0b                   ; 0xde0b <__heap_start+0x530f>
    418e: a2 1d        	ldx	#$1d
    4190: 8e 0c de     	stx	$de0c                   ; 0xde0c <__heap_start+0x5310>
    4193: 9c 0d de     	stz	$de0d                   ; 0xde0d <__heap_start+0x5311>
    4196: 9c 0e de     	stz	$de0e                   ; 0xde0e <__heap_start+0x5312>
    4199: 9c 0f de     	stz	$de0f                   ; 0xde0f <__heap_start+0x5313>
    419c: ae 18 de     	ldx	$de18                   ; 0xde18 <__heap_start+0x531c>
    419f: ac 19 de     	ldy	$de19                   ; 0xde19 <__heap_start+0x531d>
    41a2: ad 1a de     	lda	$de1a                   ; 0xde1a <__heap_start+0x531e>
    41a5: 86 14        	stx	$14                     ; 0x14 <__rc4>
    41a7: ae 1b de     	ldx	$de1b                   ; 0xde1b <__heap_start+0x531f>
    41aa: 84 15        	sty	$15                     ; 0x15 <__rc5>
    41ac: e6 12        	inc	$12                     ; 0x12 <__rc2>
    41ae: d0 17        	bne	$41c7 <f256main+0x37c7>
    41b0: e6 13        	inc	$13                     ; 0x13 <__rc3>
    41b2: 80 13        	bra	$41c7 <f256main+0x37c7>
    41b4: a5 14        	lda	$14                     ; 0x14 <__rc4>
    41b6: 18           	clc
    41b7: 69 50        	adc	#$50
    41b9: 85 14        	sta	$14                     ; 0x14 <__rc4>
    41bb: a5 15        	lda	$15                     ; 0x15 <__rc5>
    41bd: 69 00        	adc	#$0
    41bf: 85 15        	sta	$15                     ; 0x15 <__rc5>
    41c1: e6 12        	inc	$12                     ; 0x12 <__rc2>
    41c3: d0 02        	bne	$41c7 <f256main+0x37c7>
    41c5: e6 13        	inc	$13                     ; 0x13 <__rc3>
    41c7: a9 20        	lda	#$20
    41c9: 18           	clc
    41ca: 65 12        	adc	$12                     ; 0x12 <__rc2>
    41cc: 85 16        	sta	$16                     ; 0x16 <__rc6>
    41ce: a9 89        	lda	#$89
    41d0: 65 13        	adc	$13                     ; 0x13 <__rc3>
    41d2: 85 17        	sta	$17                     ; 0x17 <__rc7>
    41d4: b2 16        	lda	($16)                   ; 0x16 <__rc6>
    41d6: c9 0a        	cmp	#$a
    41d8: f0 2c        	beq	$4206 <f256main+0x3806>
    41da: c9 0d        	cmp	#$d
    41dc: f0 28        	beq	$4206 <f256main+0x3806>
    41de: aa           	tax
    41df: d0 03        	bne	$41e4 <f256main+0x37e4>
    41e1: 4c c5 48     	jmp	$48c5 <f256main+0x3ec5>
    41e4: a0 03        	ldy	#$3
    41e6: a2 03        	ldx	#$3
    41e8: 86 27        	stx	$27                     ; 0x27 <__rc23>
    41ea: 84 01        	sty	$1                      ; 0x1 <__data_size+0x1>
    41ec: a4 5c        	ldy	$5c                     ; 0x5c <_col>
    41ee: 85 16        	sta	$16                     ; 0x16 <__rc6>
    41f0: a9 f0        	lda	#$f0
    41f2: 91 14        	sta	($14),y                 ; 0x14 <__rc4>
    41f4: ca           	dex
    41f5: 86 01        	stx	$1                      ; 0x1 <__data_size+0x1>
    41f7: a4 5c        	ldy	$5c                     ; 0x5c <_col>
    41f9: a5 16        	lda	$16                     ; 0x16 <__rc6>
    41fb: 91 14        	sta	($14),y                 ; 0x14 <__rc4>
    41fd: a6 5c        	ldx	$5c                     ; 0x5c <_col>
    41ff: e8           	inx
    4200: e6 5c        	inc	$5c                     ; 0x5c <_col>
    4202: e0 50        	cpx	#$50
    4204: d0 bb        	bne	$41c1 <f256main+0x37c1>
    4206: 64 5c        	stz	$5c                     ; 0x5c <_col>
    4208: a6 5d        	ldx	$5d                     ; 0x5d <_row>
    420a: e8           	inx
    420b: e6 5d        	inc	$5d                     ; 0x5d <_row>
    420d: e0 1e        	cpx	#$1e
    420f: f0 03        	beq	$4214 <f256main+0x3814>
    4211: 4c b4 41     	jmp	$41b4 <f256main+0x37b4>
    4214: a2 03        	ldx	#$3
    4216: 86 01        	stx	$1                      ; 0x1 <__data_size+0x1>
    4218: a2 09        	ldx	#$9
    421a: a0 10        	ldy	#$10
    421c: a5 2a        	lda	$2a                     ; 0x2a <__rc26>
    421e: 85 14        	sta	$14                     ; 0x14 <__rc4>
    4220: a5 2b        	lda	$2b                     ; 0x2b <__rc27>
    4222: 85 15        	sta	$15                     ; 0x15 <__rc5>
    4224: 84 16        	sty	$16                     ; 0x16 <__rc6>
    4226: a4 18        	ldy	$18                     ; 0x18 <__rc8>
    4228: 4c 31 3f     	jmp	$3f31 <f256main+0x3531>
    422b: a5 32        	lda	$32                     ; 0x32 <ship_Y>
    422d: a6 33        	ldx	$33                     ; 0x33 <ship_Y+0x1>
    422f: 86 12        	stx	$12                     ; 0x12 <__rc2>
    4231: 18           	clc
    4232: 69 0d        	adc	#$d
    4234: aa           	tax
    4235: a5 12        	lda	$12                     ; 0x12 <__rc2>
    4237: 69 00        	adc	#$0
    4239: 85 14        	sta	$14                     ; 0x14 <__rc4>
    423b: a5 30        	lda	$30                     ; 0x30 <ship_X>
    423d: 85 13        	sta	$13                     ; 0x13 <__rc3>
    423f: a5 31        	lda	$31                     ; 0x31 <ship_X+0x1>
    4241: 85 12        	sta	$12                     ; 0x12 <__rc2>
    4243: 18           	clc
    4244: a5 13        	lda	$13                     ; 0x13 <__rc3>
    4246: 69 1c        	adc	#$1c
    4248: 85 13        	sta	$13                     ; 0x13 <__rc3>
    424a: a5 12        	lda	$12                     ; 0x12 <__rc2>
    424c: 69 00        	adc	#$0
    424e: 85 15        	sta	$15                     ; 0x15 <__rc5>
    4250: a5 13        	lda	$13                     ; 0x13 <__rc3>
    4252: 5a           	phy
    4253: a0 13        	ldy	#$13
    4255: 91 10        	sta	($10),y                 ; 0x10 <__rc0>
    4257: 8d 2c d9     	sta	$d92c                   ; 0xd92c <__heap_start+0x4e30>
    425a: a5 15        	lda	$15                     ; 0x15 <__rc5>
    425c: 88           	dey
    425d: 91 10        	sta	($10),y                 ; 0x10 <__rc0>
    425f: 8d 2d d9     	sta	$d92d                   ; 0xd92d <__heap_start+0x4e31>
    4262: 8a           	txa
    4263: a0 0c        	ldy	#$c
    4265: 91 10        	sta	($10),y                 ; 0x10 <__rc0>
    4267: 8e 2e d9     	stx	$d92e                   ; 0xd92e <__heap_start+0x4e32>
    426a: a6 14        	ldx	$14                     ; 0x14 <__rc4>
    426c: 8a           	txa
    426d: 88           	dey
    426e: 91 10        	sta	($10),y                 ; 0x10 <__rc0>
    4270: 7a           	ply
    4271: 8e 2f d9     	stx	$d92f                   ; 0xd92f <__heap_start+0x4e33>
    4274: a9 01        	lda	#$1
    4276: 0d 87 8a     	ora	$8a87                   ; 0x8a87 <_spriteCtl+0x5>
    4279: 8d 28 d9     	sta	$d928                   ; 0xd928 <__heap_start+0x4e2c>
    427c: a5 64        	lda	$64                     ; 0x64 <currentPal>
    427e: 0a           	asl
    427f: 09 71        	ora	#$71
    4281: 8d 28 d9     	sta	$d928                   ; 0xd928 <__heap_start+0x4e2c>
    4284: a2 80        	ldx	#$80
    4286: 86 f3        	stx	$f3                     ; 0xf3 <__bss_size+0x6e>
    4288: a2 82        	ldx	#$82
    428a: 86 12        	stx	$12                     ; 0x12 <__rc2>
    428c: a2 00        	ldx	#$0
    428e: 86 13        	stx	$13                     ; 0x13 <__rc3>
    4290: 20 f0 ff     	jsr	$fff0 <__heap_start+0x74f4>
    4293: 92 2c        	sta	($2c)                   ; 0x2c <__zp_data_size>
    4295: a9 00        	lda	#$0
    4297: 6a           	ror
    4298: 85 12        	sta	$12                     ; 0x12 <__rc2>
    429a: b2 2c        	lda	($2c)                   ; 0x2c <__zp_data_size>
    429c: 1a           	inc
    429d: 85 6c        	sta	$6c                     ; 0x6c <shotT.1>
    429f: 64 f3        	stz	$f3                     ; 0xf3 <__bss_size+0x6e>
    42a1: a6 6c        	ldx	$6c                     ; 0x6c <shotT.1>
    42a3: 86 f4        	stx	$f4                     ; 0xf4 <__bss_size+0x6f>
    42a5: a2 14        	ldx	#$14
    42a7: 86 f5        	stx	$f5                     ; 0xf5 <__bss_size+0x70>
    42a9: 20 f0 ff     	jsr	$fff0 <__heap_start+0x74f4>
    42ac: 92 2c        	sta	($2c)                   ; 0x2c <__zp_data_size>
    42ae: a9 00        	lda	#$0
    42b0: 6a           	ror
    42b1: 85 12        	sta	$12                     ; 0x12 <__rc2>
    42b3: ad 60 d6     	lda	$d660                   ; 0xd660 <__heap_start+0x4b64>
    42b6: 29 10        	and	#$10
    42b8: f0 03        	beq	$42bd <f256main+0x38bd>
    42ba: 4c e6 3a     	jmp	$3ae6 <f256main+0x30e6>
    42bd: 4c a4 3b     	jmp	$3ba4 <f256main+0x31a4>
    42c0: 64 12        	stz	$12                     ; 0x12 <__rc2>
    42c2: 64 13        	stz	$13                     ; 0x13 <__rc3>
    42c4: 4c 60 45     	jmp	$4560 <f256main+0x3b60>
    42c7: 8a           	txa
    42c8: f0 1b        	beq	$42e5 <f256main+0x38e5>
    42ca: b1 14        	lda	($14),y                 ; 0x14 <__rc4>
    42cc: 92 14        	sta	($14)                   ; 0x14 <__rc4>
    42ce: a9 ff        	lda	#$ff
    42d0: c6 16        	dec	$16                     ; 0x16 <__rc6>
    42d2: c5 16        	cmp	$16                     ; 0x16 <__rc6>
    42d4: f0 06        	beq	$42dc <f256main+0x38dc>
    42d6: e6 14        	inc	$14                     ; 0x14 <__rc4>
    42d8: d0 ed        	bne	$42c7 <f256main+0x38c7>
    42da: 80 05        	bra	$42e1 <f256main+0x38e1>
    42dc: ca           	dex
    42dd: e6 14        	inc	$14                     ; 0x14 <__rc4>
    42df: d0 e6        	bne	$42c7 <f256main+0x38c7>
    42e1: e6 15        	inc	$15                     ; 0x15 <__rc5>
    42e3: 80 e2        	bra	$42c7 <f256main+0x38c7>
    42e5: a5 16        	lda	$16                     ; 0x16 <__rc6>
    42e7: d0 e1        	bne	$42ca <f256main+0x38ca>
    42e9: a2 02        	ldx	#$2
    42eb: 86 01        	stx	$1                      ; 0x1 <__data_size+0x1>
    42ed: a9 09        	lda	#$9
    42ef: a2 10        	ldx	#$10
    42f1: 5a           	phy
    42f2: a4 2a        	ldy	$2a                     ; 0x2a <__rc26>
    42f4: 84 14        	sty	$14                     ; 0x14 <__rc4>
    42f6: a4 2b        	ldy	$2b                     ; 0x2b <__rc27>
    42f8: 84 15        	sty	$15                     ; 0x15 <__rc5>
    42fa: 7a           	ply
    42fb: 86 16        	stx	$16                     ; 0x16 <__rc6>
    42fd: aa           	tax
    42fe: 80 03        	bra	$4303 <f256main+0x3903>
    4300: 8a           	txa
    4301: f0 1b        	beq	$431e <f256main+0x391e>
    4303: b1 14        	lda	($14),y                 ; 0x14 <__rc4>
    4305: 92 14        	sta	($14)                   ; 0x14 <__rc4>
    4307: a9 ff        	lda	#$ff
    4309: c6 16        	dec	$16                     ; 0x16 <__rc6>
    430b: c5 16        	cmp	$16                     ; 0x16 <__rc6>
    430d: f0 06        	beq	$4315 <f256main+0x3915>
    430f: e6 14        	inc	$14                     ; 0x14 <__rc4>
    4311: d0 ed        	bne	$4300 <f256main+0x3900>
    4313: 80 05        	bra	$431a <f256main+0x391a>
    4315: ca           	dex
    4316: e6 14        	inc	$14                     ; 0x14 <__rc4>
    4318: d0 e6        	bne	$4300 <f256main+0x3900>
    431a: e6 15        	inc	$15                     ; 0x15 <__rc5>
    431c: 80 e2        	bra	$4300 <f256main+0x3900>
    431e: a5 16        	lda	$16                     ; 0x16 <__rc6>
    4320: d0 e1        	bne	$4303 <f256main+0x3903>
    4322: a2 50        	ldx	#$50
    4324: 86 18        	stx	$18                     ; 0x18 <__rc8>
    4326: a2 02        	ldx	#$2
    4328: 86 01        	stx	$1                      ; 0x1 <__data_size+0x1>
    432a: a9 03        	lda	#$3
    432c: a8           	tay
    432d: 84 27        	sty	$27                     ; 0x27 <__rc23>
    432f: 85 01        	sta	$1                      ; 0x1 <__data_size+0x1>
    4331: a0 f0        	ldy	#$f0
    4333: 8c 10 c9     	sty	$c910                   ; 0xc910 <__heap_start+0x3e14>
    4336: 8c 11 c9     	sty	$c911                   ; 0xc911 <__heap_start+0x3e15>
    4339: 8c 12 c9     	sty	$c912                   ; 0xc912 <__heap_start+0x3e16>
    433c: 8c 13 c9     	sty	$c913                   ; 0xc913 <__heap_start+0x3e17>
    433f: 8c 14 c9     	sty	$c914                   ; 0xc914 <__heap_start+0x3e18>
    4342: 8c 15 c9     	sty	$c915                   ; 0xc915 <__heap_start+0x3e19>
    4345: 8c 16 c9     	sty	$c916                   ; 0xc916 <__heap_start+0x3e1a>
    4348: 8c 17 c9     	sty	$c917                   ; 0xc917 <__heap_start+0x3e1b>
    434b: 8c 18 c9     	sty	$c918                   ; 0xc918 <__heap_start+0x3e1c>
    434e: 8c 19 c9     	sty	$c919                   ; 0xc919 <__heap_start+0x3e1d>
    4351: 8c 1a c9     	sty	$c91a                   ; 0xc91a <__heap_start+0x3e1e>
    4354: 8c 1b c9     	sty	$c91b                   ; 0xc91b <__heap_start+0x3e1f>
    4357: 8c 1c c9     	sty	$c91c                   ; 0xc91c <__heap_start+0x3e20>
    435a: 8c 1d c9     	sty	$c91d                   ; 0xc91d <__heap_start+0x3e21>
    435d: 8c 1e c9     	sty	$c91e                   ; 0xc91e <__heap_start+0x3e22>
    4360: 8c 1f c9     	sty	$c91f                   ; 0xc91f <__heap_start+0x3e23>
    4363: 8c 20 c9     	sty	$c920                   ; 0xc920 <__heap_start+0x3e24>
    4366: 8c 21 c9     	sty	$c921                   ; 0xc921 <__heap_start+0x3e25>
    4369: 8c 22 c9     	sty	$c922                   ; 0xc922 <__heap_start+0x3e26>
    436c: 8c 23 c9     	sty	$c923                   ; 0xc923 <__heap_start+0x3e27>
    436f: 8c 24 c9     	sty	$c924                   ; 0xc924 <__heap_start+0x3e28>
    4372: 8c 25 c9     	sty	$c925                   ; 0xc925 <__heap_start+0x3e29>
    4375: 8c 26 c9     	sty	$c926                   ; 0xc926 <__heap_start+0x3e2a>
    4378: 8c 27 c9     	sty	$c927                   ; 0xc927 <__heap_start+0x3e2b>
    437b: 8c 28 c9     	sty	$c928                   ; 0xc928 <__heap_start+0x3e2c>
    437e: 8c 29 c9     	sty	$c929                   ; 0xc929 <__heap_start+0x3e2d>
    4381: 8c 2a c9     	sty	$c92a                   ; 0xc92a <__heap_start+0x3e2e>
    4384: 8c 2b c9     	sty	$c92b                   ; 0xc92b <__heap_start+0x3e2f>
    4387: 8c 2c c9     	sty	$c92c                   ; 0xc92c <__heap_start+0x3e30>
    438a: 8c 2d c9     	sty	$c92d                   ; 0xc92d <__heap_start+0x3e31>
    438d: 8c 2e c9     	sty	$c92e                   ; 0xc92e <__heap_start+0x3e32>
    4390: 8c 2f c9     	sty	$c92f                   ; 0xc92f <__heap_start+0x3e33>
    4393: 8c 30 c9     	sty	$c930                   ; 0xc930 <__heap_start+0x3e34>
    4396: 8c 31 c9     	sty	$c931                   ; 0xc931 <__heap_start+0x3e35>
    4399: 8c 32 c9     	sty	$c932                   ; 0xc932 <__heap_start+0x3e36>
    439c: 8c 33 c9     	sty	$c933                   ; 0xc933 <__heap_start+0x3e37>
    439f: 8c 34 c9     	sty	$c934                   ; 0xc934 <__heap_start+0x3e38>
    43a2: 8c 35 c9     	sty	$c935                   ; 0xc935 <__heap_start+0x3e39>
    43a5: 8c 36 c9     	sty	$c936                   ; 0xc936 <__heap_start+0x3e3a>
    43a8: 8c 37 c9     	sty	$c937                   ; 0xc937 <__heap_start+0x3e3b>
    43ab: 8c 38 c9     	sty	$c938                   ; 0xc938 <__heap_start+0x3e3c>
    43ae: 8c 39 c9     	sty	$c939                   ; 0xc939 <__heap_start+0x3e3d>
    43b1: 8c 3a c9     	sty	$c93a                   ; 0xc93a <__heap_start+0x3e3e>
    43b4: 8c 3b c9     	sty	$c93b                   ; 0xc93b <__heap_start+0x3e3f>
    43b7: 8c 3c c9     	sty	$c93c                   ; 0xc93c <__heap_start+0x3e40>
    43ba: 8c 3d c9     	sty	$c93d                   ; 0xc93d <__heap_start+0x3e41>
    43bd: 8c 3e c9     	sty	$c93e                   ; 0xc93e <__heap_start+0x3e42>
    43c0: 8c 3f c9     	sty	$c93f                   ; 0xc93f <__heap_start+0x3e43>
    43c3: 8c 40 c9     	sty	$c940                   ; 0xc940 <__heap_start+0x3e44>
    43c6: 8c 41 c9     	sty	$c941                   ; 0xc941 <__heap_start+0x3e45>
    43c9: 8c 42 c9     	sty	$c942                   ; 0xc942 <__heap_start+0x3e46>
    43cc: 8c 43 c9     	sty	$c943                   ; 0xc943 <__heap_start+0x3e47>
    43cf: 8c 44 c9     	sty	$c944                   ; 0xc944 <__heap_start+0x3e48>
    43d2: 8c 45 c9     	sty	$c945                   ; 0xc945 <__heap_start+0x3e49>
    43d5: 8c 46 c9     	sty	$c946                   ; 0xc946 <__heap_start+0x3e4a>
    43d8: 8c 47 c9     	sty	$c947                   ; 0xc947 <__heap_start+0x3e4b>
    43db: 8c 48 c9     	sty	$c948                   ; 0xc948 <__heap_start+0x3e4c>
    43de: 8c 49 c9     	sty	$c949                   ; 0xc949 <__heap_start+0x3e4d>
    43e1: 8c 4a c9     	sty	$c94a                   ; 0xc94a <__heap_start+0x3e4e>
    43e4: 8c 4b c9     	sty	$c94b                   ; 0xc94b <__heap_start+0x3e4f>
    43e7: 8c 4c c9     	sty	$c94c                   ; 0xc94c <__heap_start+0x3e50>
    43ea: 8c 4d c9     	sty	$c94d                   ; 0xc94d <__heap_start+0x3e51>
    43ed: 8c 4e c9     	sty	$c94e                   ; 0xc94e <__heap_start+0x3e52>
    43f0: 8c 4f c9     	sty	$c94f                   ; 0xc94f <__heap_start+0x3e53>
    43f3: 8c 50 c9     	sty	$c950                   ; 0xc950 <__heap_start+0x3e54>
    43f6: 8c 51 c9     	sty	$c951                   ; 0xc951 <__heap_start+0x3e55>
    43f9: 8c 52 c9     	sty	$c952                   ; 0xc952 <__heap_start+0x3e56>
    43fc: 8c 53 c9     	sty	$c953                   ; 0xc953 <__heap_start+0x3e57>
    43ff: 8c 54 c9     	sty	$c954                   ; 0xc954 <__heap_start+0x3e58>
    4402: 8c 55 c9     	sty	$c955                   ; 0xc955 <__heap_start+0x3e59>
    4405: 8c 56 c9     	sty	$c956                   ; 0xc956 <__heap_start+0x3e5a>
    4408: 8c 57 c9     	sty	$c957                   ; 0xc957 <__heap_start+0x3e5b>
    440b: 8c 58 c9     	sty	$c958                   ; 0xc958 <__heap_start+0x3e5c>
    440e: 8c 59 c9     	sty	$c959                   ; 0xc959 <__heap_start+0x3e5d>
    4411: 8c 5a c9     	sty	$c95a                   ; 0xc95a <__heap_start+0x3e5e>
    4414: 8c 5b c9     	sty	$c95b                   ; 0xc95b <__heap_start+0x3e5f>
    4417: 8c 5c c9     	sty	$c95c                   ; 0xc95c <__heap_start+0x3e60>
    441a: 8c 5d c9     	sty	$c95d                   ; 0xc95d <__heap_start+0x3e61>
    441d: 8c 5e c9     	sty	$c95e                   ; 0xc95e <__heap_start+0x3e62>
    4420: 8c 5f c9     	sty	$c95f                   ; 0xc95f <__heap_start+0x3e63>
    4423: 86 01        	stx	$1                      ; 0x1 <__data_size+0x1>
    4425: a2 20        	ldx	#$20
    4427: 8e 10 c9     	stx	$c910                   ; 0xc910 <__heap_start+0x3e14>
    442a: 8e 11 c9     	stx	$c911                   ; 0xc911 <__heap_start+0x3e15>
    442d: 8e 12 c9     	stx	$c912                   ; 0xc912 <__heap_start+0x3e16>
    4430: 8e 13 c9     	stx	$c913                   ; 0xc913 <__heap_start+0x3e17>
    4433: 8e 14 c9     	stx	$c914                   ; 0xc914 <__heap_start+0x3e18>
    4436: 8e 15 c9     	stx	$c915                   ; 0xc915 <__heap_start+0x3e19>
    4439: 8e 16 c9     	stx	$c916                   ; 0xc916 <__heap_start+0x3e1a>
    443c: 8e 17 c9     	stx	$c917                   ; 0xc917 <__heap_start+0x3e1b>
    443f: 8e 18 c9     	stx	$c918                   ; 0xc918 <__heap_start+0x3e1c>
    4442: 8e 19 c9     	stx	$c919                   ; 0xc919 <__heap_start+0x3e1d>
    4445: 8e 1a c9     	stx	$c91a                   ; 0xc91a <__heap_start+0x3e1e>
    4448: 8e 1b c9     	stx	$c91b                   ; 0xc91b <__heap_start+0x3e1f>
    444b: 8e 1c c9     	stx	$c91c                   ; 0xc91c <__heap_start+0x3e20>
    444e: 8e 1d c9     	stx	$c91d                   ; 0xc91d <__heap_start+0x3e21>
    4451: 8e 1e c9     	stx	$c91e                   ; 0xc91e <__heap_start+0x3e22>
    4454: 8e 1f c9     	stx	$c91f                   ; 0xc91f <__heap_start+0x3e23>
    4457: 8e 20 c9     	stx	$c920                   ; 0xc920 <__heap_start+0x3e24>
    445a: 8e 21 c9     	stx	$c921                   ; 0xc921 <__heap_start+0x3e25>
    445d: 8e 22 c9     	stx	$c922                   ; 0xc922 <__heap_start+0x3e26>
    4460: 8e 23 c9     	stx	$c923                   ; 0xc923 <__heap_start+0x3e27>
    4463: 8e 24 c9     	stx	$c924                   ; 0xc924 <__heap_start+0x3e28>
    4466: 8e 25 c9     	stx	$c925                   ; 0xc925 <__heap_start+0x3e29>
    4469: 8e 26 c9     	stx	$c926                   ; 0xc926 <__heap_start+0x3e2a>
    446c: 8e 27 c9     	stx	$c927                   ; 0xc927 <__heap_start+0x3e2b>
    446f: 8e 28 c9     	stx	$c928                   ; 0xc928 <__heap_start+0x3e2c>
    4472: 8e 29 c9     	stx	$c929                   ; 0xc929 <__heap_start+0x3e2d>
    4475: 8e 2a c9     	stx	$c92a                   ; 0xc92a <__heap_start+0x3e2e>
    4478: 8e 2b c9     	stx	$c92b                   ; 0xc92b <__heap_start+0x3e2f>
    447b: 8e 2c c9     	stx	$c92c                   ; 0xc92c <__heap_start+0x3e30>
    447e: 8e 2d c9     	stx	$c92d                   ; 0xc92d <__heap_start+0x3e31>
    4481: 8e 2e c9     	stx	$c92e                   ; 0xc92e <__heap_start+0x3e32>
    4484: 8e 2f c9     	stx	$c92f                   ; 0xc92f <__heap_start+0x3e33>
    4487: 8e 30 c9     	stx	$c930                   ; 0xc930 <__heap_start+0x3e34>
    448a: 8e 31 c9     	stx	$c931                   ; 0xc931 <__heap_start+0x3e35>
    448d: 8e 32 c9     	stx	$c932                   ; 0xc932 <__heap_start+0x3e36>
    4490: 8e 33 c9     	stx	$c933                   ; 0xc933 <__heap_start+0x3e37>
    4493: 8e 34 c9     	stx	$c934                   ; 0xc934 <__heap_start+0x3e38>
    4496: 8e 35 c9     	stx	$c935                   ; 0xc935 <__heap_start+0x3e39>
    4499: 8e 36 c9     	stx	$c936                   ; 0xc936 <__heap_start+0x3e3a>
    449c: 8e 37 c9     	stx	$c937                   ; 0xc937 <__heap_start+0x3e3b>
    449f: 8e 38 c9     	stx	$c938                   ; 0xc938 <__heap_start+0x3e3c>
    44a2: 8e 39 c9     	stx	$c939                   ; 0xc939 <__heap_start+0x3e3d>
    44a5: 8e 3a c9     	stx	$c93a                   ; 0xc93a <__heap_start+0x3e3e>
    44a8: 8e 3b c9     	stx	$c93b                   ; 0xc93b <__heap_start+0x3e3f>
    44ab: 8e 3c c9     	stx	$c93c                   ; 0xc93c <__heap_start+0x3e40>
    44ae: 8e 3d c9     	stx	$c93d                   ; 0xc93d <__heap_start+0x3e41>
    44b1: 8e 3e c9     	stx	$c93e                   ; 0xc93e <__heap_start+0x3e42>
    44b4: 8e 3f c9     	stx	$c93f                   ; 0xc93f <__heap_start+0x3e43>
    44b7: 8e 40 c9     	stx	$c940                   ; 0xc940 <__heap_start+0x3e44>
    44ba: 8e 41 c9     	stx	$c941                   ; 0xc941 <__heap_start+0x3e45>
    44bd: 8e 42 c9     	stx	$c942                   ; 0xc942 <__heap_start+0x3e46>
    44c0: 8e 43 c9     	stx	$c943                   ; 0xc943 <__heap_start+0x3e47>
    44c3: 8e 44 c9     	stx	$c944                   ; 0xc944 <__heap_start+0x3e48>
    44c6: 8e 45 c9     	stx	$c945                   ; 0xc945 <__heap_start+0x3e49>
    44c9: 8e 46 c9     	stx	$c946                   ; 0xc946 <__heap_start+0x3e4a>
    44cc: 8e 47 c9     	stx	$c947                   ; 0xc947 <__heap_start+0x3e4b>
    44cf: 8e 48 c9     	stx	$c948                   ; 0xc948 <__heap_start+0x3e4c>
    44d2: 8e 49 c9     	stx	$c949                   ; 0xc949 <__heap_start+0x3e4d>
    44d5: 8e 4a c9     	stx	$c94a                   ; 0xc94a <__heap_start+0x3e4e>
    44d8: 8e 4b c9     	stx	$c94b                   ; 0xc94b <__heap_start+0x3e4f>
    44db: 8e 4c c9     	stx	$c94c                   ; 0xc94c <__heap_start+0x3e50>
    44de: 8e 4d c9     	stx	$c94d                   ; 0xc94d <__heap_start+0x3e51>
    44e1: 8e 4e c9     	stx	$c94e                   ; 0xc94e <__heap_start+0x3e52>
    44e4: 8e 4f c9     	stx	$c94f                   ; 0xc94f <__heap_start+0x3e53>
    44e7: 8e 50 c9     	stx	$c950                   ; 0xc950 <__heap_start+0x3e54>
    44ea: 8e 51 c9     	stx	$c951                   ; 0xc951 <__heap_start+0x3e55>
    44ed: 8e 52 c9     	stx	$c952                   ; 0xc952 <__heap_start+0x3e56>
    44f0: 8e 53 c9     	stx	$c953                   ; 0xc953 <__heap_start+0x3e57>
    44f3: 8e 54 c9     	stx	$c954                   ; 0xc954 <__heap_start+0x3e58>
    44f6: 8e 55 c9     	stx	$c955                   ; 0xc955 <__heap_start+0x3e59>
    44f9: 8e 56 c9     	stx	$c956                   ; 0xc956 <__heap_start+0x3e5a>
    44fc: 8e 57 c9     	stx	$c957                   ; 0xc957 <__heap_start+0x3e5b>
    44ff: 8e 58 c9     	stx	$c958                   ; 0xc958 <__heap_start+0x3e5c>
    4502: 8e 59 c9     	stx	$c959                   ; 0xc959 <__heap_start+0x3e5d>
    4505: 8e 5a c9     	stx	$c95a                   ; 0xc95a <__heap_start+0x3e5e>
    4508: 8e 5b c9     	stx	$c95b                   ; 0xc95b <__heap_start+0x3e5f>
    450b: 8e 5c c9     	stx	$c95c                   ; 0xc95c <__heap_start+0x3e60>
    450e: 8e 5d c9     	stx	$c95d                   ; 0xc95d <__heap_start+0x3e61>
    4511: 8e 5e c9     	stx	$c95e                   ; 0xc95e <__heap_start+0x3e62>
    4514: 8e 5f c9     	stx	$c95f                   ; 0xc95f <__heap_start+0x3e63>
    4517: c6 5d        	dec	$5d                     ; 0x5d <_row>
    4519: 9c 08 de     	stz	$de08                   ; 0xde08 <__heap_start+0x530c>
    451c: a2 c0        	ldx	#$c0
    451e: 8e 09 de     	stx	$de09                   ; 0xde09 <__heap_start+0x530d>
    4521: 9c 0a de     	stz	$de0a                   ; 0xde0a <__heap_start+0x530e>
    4524: 9c 0b de     	stz	$de0b                   ; 0xde0b <__heap_start+0x530f>
    4527: a2 1d        	ldx	#$1d
    4529: 8e 0c de     	stx	$de0c                   ; 0xde0c <__heap_start+0x5310>
    452c: 9c 0d de     	stz	$de0d                   ; 0xde0d <__heap_start+0x5311>
    452f: 9c 0e de     	stz	$de0e                   ; 0xde0e <__heap_start+0x5312>
    4532: 9c 0f de     	stz	$de0f                   ; 0xde0f <__heap_start+0x5313>
    4535: ae 18 de     	ldx	$de18                   ; 0xde18 <__heap_start+0x531c>
    4538: ac 19 de     	ldy	$de19                   ; 0xde19 <__heap_start+0x531d>
    453b: ad 1a de     	lda	$de1a                   ; 0xde1a <__heap_start+0x531e>
    453e: 86 14        	stx	$14                     ; 0x14 <__rc4>
    4540: ae 1b de     	ldx	$de1b                   ; 0xde1b <__heap_start+0x531f>
    4543: 84 15        	sty	$15                     ; 0x15 <__rc5>
    4545: e6 12        	inc	$12                     ; 0x12 <__rc2>
    4547: d0 17        	bne	$4560 <f256main+0x3b60>
    4549: e6 13        	inc	$13                     ; 0x13 <__rc3>
    454b: 80 13        	bra	$4560 <f256main+0x3b60>
    454d: a5 14        	lda	$14                     ; 0x14 <__rc4>
    454f: 18           	clc
    4550: 69 50        	adc	#$50
    4552: 85 14        	sta	$14                     ; 0x14 <__rc4>
    4554: a5 15        	lda	$15                     ; 0x15 <__rc5>
    4556: 69 00        	adc	#$0
    4558: 85 15        	sta	$15                     ; 0x15 <__rc5>
    455a: e6 12        	inc	$12                     ; 0x12 <__rc2>
    455c: d0 02        	bne	$4560 <f256main+0x3b60>
    455e: e6 13        	inc	$13                     ; 0x13 <__rc3>
    4560: a9 29        	lda	#$29
    4562: 18           	clc
    4563: 65 12        	adc	$12                     ; 0x12 <__rc2>
    4565: 85 16        	sta	$16                     ; 0x16 <__rc6>
    4567: a9 89        	lda	#$89
    4569: 65 13        	adc	$13                     ; 0x13 <__rc3>
    456b: 85 17        	sta	$17                     ; 0x17 <__rc7>
    456d: b2 16        	lda	($16)                   ; 0x16 <__rc6>
    456f: c9 0a        	cmp	#$a
    4571: f0 2c        	beq	$459f <f256main+0x3b9f>
    4573: c9 0d        	cmp	#$d
    4575: f0 28        	beq	$459f <f256main+0x3b9f>
    4577: aa           	tax
    4578: d0 03        	bne	$457d <f256main+0x3b7d>
    457a: 4c c5 48     	jmp	$48c5 <f256main+0x3ec5>
    457d: a0 03        	ldy	#$3
    457f: a2 03        	ldx	#$3
    4581: 86 27        	stx	$27                     ; 0x27 <__rc23>
    4583: 84 01        	sty	$1                      ; 0x1 <__data_size+0x1>
    4585: a4 5c        	ldy	$5c                     ; 0x5c <_col>
    4587: 85 16        	sta	$16                     ; 0x16 <__rc6>
    4589: a9 f0        	lda	#$f0
    458b: 91 14        	sta	($14),y                 ; 0x14 <__rc4>
    458d: ca           	dex
    458e: 86 01        	stx	$1                      ; 0x1 <__data_size+0x1>
    4590: a4 5c        	ldy	$5c                     ; 0x5c <_col>
    4592: a5 16        	lda	$16                     ; 0x16 <__rc6>
    4594: 91 14        	sta	($14),y                 ; 0x14 <__rc4>
    4596: a6 5c        	ldx	$5c                     ; 0x5c <_col>
    4598: e8           	inx
    4599: e6 5c        	inc	$5c                     ; 0x5c <_col>
    459b: e0 50        	cpx	#$50
    459d: d0 bb        	bne	$455a <f256main+0x3b5a>
    459f: 64 5c        	stz	$5c                     ; 0x5c <_col>
    45a1: a6 5d        	ldx	$5d                     ; 0x5d <_row>
    45a3: e8           	inx
    45a4: e6 5d        	inc	$5d                     ; 0x5d <_row>
    45a6: e0 1e        	cpx	#$1e
    45a8: f0 03        	beq	$45ad <f256main+0x3bad>
    45aa: 4c 4d 45     	jmp	$454d <f256main+0x3b4d>
    45ad: a2 03        	ldx	#$3
    45af: 86 01        	stx	$1                      ; 0x1 <__data_size+0x1>
    45b1: a2 09        	ldx	#$9
    45b3: a0 10        	ldy	#$10
    45b5: a5 2a        	lda	$2a                     ; 0x2a <__rc26>
    45b7: 85 14        	sta	$14                     ; 0x14 <__rc4>
    45b9: a5 2b        	lda	$2b                     ; 0x2b <__rc27>
    45bb: 85 15        	sta	$15                     ; 0x15 <__rc5>
    45bd: 84 16        	sty	$16                     ; 0x16 <__rc6>
    45bf: a4 18        	ldy	$18                     ; 0x18 <__rc8>
    45c1: 4c ca 42     	jmp	$42ca <f256main+0x38ca>
    45c4: 64 12        	stz	$12                     ; 0x12 <__rc2>
    45c6: 64 13        	stz	$13                     ; 0x13 <__rc3>
    45c8: 4c 64 48     	jmp	$4864 <f256main+0x3e64>
    45cb: 8a           	txa
    45cc: f0 1b        	beq	$45e9 <f256main+0x3be9>
    45ce: b1 14        	lda	($14),y                 ; 0x14 <__rc4>
    45d0: 92 14        	sta	($14)                   ; 0x14 <__rc4>
    45d2: a9 ff        	lda	#$ff
    45d4: c6 16        	dec	$16                     ; 0x16 <__rc6>
    45d6: c5 16        	cmp	$16                     ; 0x16 <__rc6>
    45d8: f0 06        	beq	$45e0 <f256main+0x3be0>
    45da: e6 14        	inc	$14                     ; 0x14 <__rc4>
    45dc: d0 ed        	bne	$45cb <f256main+0x3bcb>
    45de: 80 05        	bra	$45e5 <f256main+0x3be5>
    45e0: ca           	dex
    45e1: e6 14        	inc	$14                     ; 0x14 <__rc4>
    45e3: d0 e6        	bne	$45cb <f256main+0x3bcb>
    45e5: e6 15        	inc	$15                     ; 0x15 <__rc5>
    45e7: 80 e2        	bra	$45cb <f256main+0x3bcb>
    45e9: a5 16        	lda	$16                     ; 0x16 <__rc6>
    45eb: d0 e1        	bne	$45ce <f256main+0x3bce>
    45ed: a2 02        	ldx	#$2
    45ef: 86 01        	stx	$1                      ; 0x1 <__data_size+0x1>
    45f1: a9 09        	lda	#$9
    45f3: a2 10        	ldx	#$10
    45f5: 5a           	phy
    45f6: a4 2a        	ldy	$2a                     ; 0x2a <__rc26>
    45f8: 84 14        	sty	$14                     ; 0x14 <__rc4>
    45fa: a4 2b        	ldy	$2b                     ; 0x2b <__rc27>
    45fc: 84 15        	sty	$15                     ; 0x15 <__rc5>
    45fe: 7a           	ply
    45ff: 86 16        	stx	$16                     ; 0x16 <__rc6>
    4601: aa           	tax
    4602: 80 03        	bra	$4607 <f256main+0x3c07>
    4604: 8a           	txa
    4605: f0 1b        	beq	$4622 <f256main+0x3c22>
    4607: b1 14        	lda	($14),y                 ; 0x14 <__rc4>
    4609: 92 14        	sta	($14)                   ; 0x14 <__rc4>
    460b: a9 ff        	lda	#$ff
    460d: c6 16        	dec	$16                     ; 0x16 <__rc6>
    460f: c5 16        	cmp	$16                     ; 0x16 <__rc6>
    4611: f0 06        	beq	$4619 <f256main+0x3c19>
    4613: e6 14        	inc	$14                     ; 0x14 <__rc4>
    4615: d0 ed        	bne	$4604 <f256main+0x3c04>
    4617: 80 05        	bra	$461e <f256main+0x3c1e>
    4619: ca           	dex
    461a: e6 14        	inc	$14                     ; 0x14 <__rc4>
    461c: d0 e6        	bne	$4604 <f256main+0x3c04>
    461e: e6 15        	inc	$15                     ; 0x15 <__rc5>
    4620: 80 e2        	bra	$4604 <f256main+0x3c04>
    4622: a5 16        	lda	$16                     ; 0x16 <__rc6>
    4624: d0 e1        	bne	$4607 <f256main+0x3c07>
    4626: a2 50        	ldx	#$50
    4628: 86 18        	stx	$18                     ; 0x18 <__rc8>
    462a: a2 02        	ldx	#$2
    462c: 86 01        	stx	$1                      ; 0x1 <__data_size+0x1>
    462e: a9 03        	lda	#$3
    4630: a8           	tay
    4631: 84 27        	sty	$27                     ; 0x27 <__rc23>
    4633: 85 01        	sta	$1                      ; 0x1 <__data_size+0x1>
    4635: a0 f0        	ldy	#$f0
    4637: 8c 10 c9     	sty	$c910                   ; 0xc910 <__heap_start+0x3e14>
    463a: 8c 11 c9     	sty	$c911                   ; 0xc911 <__heap_start+0x3e15>
    463d: 8c 12 c9     	sty	$c912                   ; 0xc912 <__heap_start+0x3e16>
    4640: 8c 13 c9     	sty	$c913                   ; 0xc913 <__heap_start+0x3e17>
    4643: 8c 14 c9     	sty	$c914                   ; 0xc914 <__heap_start+0x3e18>
    4646: 8c 15 c9     	sty	$c915                   ; 0xc915 <__heap_start+0x3e19>
    4649: 8c 16 c9     	sty	$c916                   ; 0xc916 <__heap_start+0x3e1a>
    464c: 8c 17 c9     	sty	$c917                   ; 0xc917 <__heap_start+0x3e1b>
    464f: 8c 18 c9     	sty	$c918                   ; 0xc918 <__heap_start+0x3e1c>
    4652: 8c 19 c9     	sty	$c919                   ; 0xc919 <__heap_start+0x3e1d>
    4655: 8c 1a c9     	sty	$c91a                   ; 0xc91a <__heap_start+0x3e1e>
    4658: 8c 1b c9     	sty	$c91b                   ; 0xc91b <__heap_start+0x3e1f>
    465b: 8c 1c c9     	sty	$c91c                   ; 0xc91c <__heap_start+0x3e20>
    465e: 8c 1d c9     	sty	$c91d                   ; 0xc91d <__heap_start+0x3e21>
    4661: 8c 1e c9     	sty	$c91e                   ; 0xc91e <__heap_start+0x3e22>
    4664: 8c 1f c9     	sty	$c91f                   ; 0xc91f <__heap_start+0x3e23>
    4667: 8c 20 c9     	sty	$c920                   ; 0xc920 <__heap_start+0x3e24>
    466a: 8c 21 c9     	sty	$c921                   ; 0xc921 <__heap_start+0x3e25>
    466d: 8c 22 c9     	sty	$c922                   ; 0xc922 <__heap_start+0x3e26>
    4670: 8c 23 c9     	sty	$c923                   ; 0xc923 <__heap_start+0x3e27>
    4673: 8c 24 c9     	sty	$c924                   ; 0xc924 <__heap_start+0x3e28>
    4676: 8c 25 c9     	sty	$c925                   ; 0xc925 <__heap_start+0x3e29>
    4679: 8c 26 c9     	sty	$c926                   ; 0xc926 <__heap_start+0x3e2a>
    467c: 8c 27 c9     	sty	$c927                   ; 0xc927 <__heap_start+0x3e2b>
    467f: 8c 28 c9     	sty	$c928                   ; 0xc928 <__heap_start+0x3e2c>
    4682: 8c 29 c9     	sty	$c929                   ; 0xc929 <__heap_start+0x3e2d>
    4685: 8c 2a c9     	sty	$c92a                   ; 0xc92a <__heap_start+0x3e2e>
    4688: 8c 2b c9     	sty	$c92b                   ; 0xc92b <__heap_start+0x3e2f>
    468b: 8c 2c c9     	sty	$c92c                   ; 0xc92c <__heap_start+0x3e30>
    468e: 8c 2d c9     	sty	$c92d                   ; 0xc92d <__heap_start+0x3e31>
    4691: 8c 2e c9     	sty	$c92e                   ; 0xc92e <__heap_start+0x3e32>
    4694: 8c 2f c9     	sty	$c92f                   ; 0xc92f <__heap_start+0x3e33>
    4697: 8c 30 c9     	sty	$c930                   ; 0xc930 <__heap_start+0x3e34>
    469a: 8c 31 c9     	sty	$c931                   ; 0xc931 <__heap_start+0x3e35>
    469d: 8c 32 c9     	sty	$c932                   ; 0xc932 <__heap_start+0x3e36>
    46a0: 8c 33 c9     	sty	$c933                   ; 0xc933 <__heap_start+0x3e37>
    46a3: 8c 34 c9     	sty	$c934                   ; 0xc934 <__heap_start+0x3e38>
    46a6: 8c 35 c9     	sty	$c935                   ; 0xc935 <__heap_start+0x3e39>
    46a9: 8c 36 c9     	sty	$c936                   ; 0xc936 <__heap_start+0x3e3a>
    46ac: 8c 37 c9     	sty	$c937                   ; 0xc937 <__heap_start+0x3e3b>
    46af: 8c 38 c9     	sty	$c938                   ; 0xc938 <__heap_start+0x3e3c>
    46b2: 8c 39 c9     	sty	$c939                   ; 0xc939 <__heap_start+0x3e3d>
    46b5: 8c 3a c9     	sty	$c93a                   ; 0xc93a <__heap_start+0x3e3e>
    46b8: 8c 3b c9     	sty	$c93b                   ; 0xc93b <__heap_start+0x3e3f>
    46bb: 8c 3c c9     	sty	$c93c                   ; 0xc93c <__heap_start+0x3e40>
    46be: 8c 3d c9     	sty	$c93d                   ; 0xc93d <__heap_start+0x3e41>
    46c1: 8c 3e c9     	sty	$c93e                   ; 0xc93e <__heap_start+0x3e42>
    46c4: 8c 3f c9     	sty	$c93f                   ; 0xc93f <__heap_start+0x3e43>
    46c7: 8c 40 c9     	sty	$c940                   ; 0xc940 <__heap_start+0x3e44>
    46ca: 8c 41 c9     	sty	$c941                   ; 0xc941 <__heap_start+0x3e45>
    46cd: 8c 42 c9     	sty	$c942                   ; 0xc942 <__heap_start+0x3e46>
    46d0: 8c 43 c9     	sty	$c943                   ; 0xc943 <__heap_start+0x3e47>
    46d3: 8c 44 c9     	sty	$c944                   ; 0xc944 <__heap_start+0x3e48>
    46d6: 8c 45 c9     	sty	$c945                   ; 0xc945 <__heap_start+0x3e49>
    46d9: 8c 46 c9     	sty	$c946                   ; 0xc946 <__heap_start+0x3e4a>
    46dc: 8c 47 c9     	sty	$c947                   ; 0xc947 <__heap_start+0x3e4b>
    46df: 8c 48 c9     	sty	$c948                   ; 0xc948 <__heap_start+0x3e4c>
    46e2: 8c 49 c9     	sty	$c949                   ; 0xc949 <__heap_start+0x3e4d>
    46e5: 8c 4a c9     	sty	$c94a                   ; 0xc94a <__heap_start+0x3e4e>
    46e8: 8c 4b c9     	sty	$c94b                   ; 0xc94b <__heap_start+0x3e4f>
    46eb: 8c 4c c9     	sty	$c94c                   ; 0xc94c <__heap_start+0x3e50>
    46ee: 8c 4d c9     	sty	$c94d                   ; 0xc94d <__heap_start+0x3e51>
    46f1: 8c 4e c9     	sty	$c94e                   ; 0xc94e <__heap_start+0x3e52>
    46f4: 8c 4f c9     	sty	$c94f                   ; 0xc94f <__heap_start+0x3e53>
    46f7: 8c 50 c9     	sty	$c950                   ; 0xc950 <__heap_start+0x3e54>
    46fa: 8c 51 c9     	sty	$c951                   ; 0xc951 <__heap_start+0x3e55>
    46fd: 8c 52 c9     	sty	$c952                   ; 0xc952 <__heap_start+0x3e56>
    4700: 8c 53 c9     	sty	$c953                   ; 0xc953 <__heap_start+0x3e57>
    4703: 8c 54 c9     	sty	$c954                   ; 0xc954 <__heap_start+0x3e58>
    4706: 8c 55 c9     	sty	$c955                   ; 0xc955 <__heap_start+0x3e59>
    4709: 8c 56 c9     	sty	$c956                   ; 0xc956 <__heap_start+0x3e5a>
    470c: 8c 57 c9     	sty	$c957                   ; 0xc957 <__heap_start+0x3e5b>
    470f: 8c 58 c9     	sty	$c958                   ; 0xc958 <__heap_start+0x3e5c>
    4712: 8c 59 c9     	sty	$c959                   ; 0xc959 <__heap_start+0x3e5d>
    4715: 8c 5a c9     	sty	$c95a                   ; 0xc95a <__heap_start+0x3e5e>
    4718: 8c 5b c9     	sty	$c95b                   ; 0xc95b <__heap_start+0x3e5f>
    471b: 8c 5c c9     	sty	$c95c                   ; 0xc95c <__heap_start+0x3e60>
    471e: 8c 5d c9     	sty	$c95d                   ; 0xc95d <__heap_start+0x3e61>
    4721: 8c 5e c9     	sty	$c95e                   ; 0xc95e <__heap_start+0x3e62>
    4724: 8c 5f c9     	sty	$c95f                   ; 0xc95f <__heap_start+0x3e63>
    4727: 86 01        	stx	$1                      ; 0x1 <__data_size+0x1>
    4729: a2 20        	ldx	#$20
    472b: 8e 10 c9     	stx	$c910                   ; 0xc910 <__heap_start+0x3e14>
    472e: 8e 11 c9     	stx	$c911                   ; 0xc911 <__heap_start+0x3e15>
    4731: 8e 12 c9     	stx	$c912                   ; 0xc912 <__heap_start+0x3e16>
    4734: 8e 13 c9     	stx	$c913                   ; 0xc913 <__heap_start+0x3e17>
    4737: 8e 14 c9     	stx	$c914                   ; 0xc914 <__heap_start+0x3e18>
    473a: 8e 15 c9     	stx	$c915                   ; 0xc915 <__heap_start+0x3e19>
    473d: 8e 16 c9     	stx	$c916                   ; 0xc916 <__heap_start+0x3e1a>
    4740: 8e 17 c9     	stx	$c917                   ; 0xc917 <__heap_start+0x3e1b>
    4743: 8e 18 c9     	stx	$c918                   ; 0xc918 <__heap_start+0x3e1c>
    4746: 8e 19 c9     	stx	$c919                   ; 0xc919 <__heap_start+0x3e1d>
    4749: 8e 1a c9     	stx	$c91a                   ; 0xc91a <__heap_start+0x3e1e>
    474c: 8e 1b c9     	stx	$c91b                   ; 0xc91b <__heap_start+0x3e1f>
    474f: 8e 1c c9     	stx	$c91c                   ; 0xc91c <__heap_start+0x3e20>
    4752: 8e 1d c9     	stx	$c91d                   ; 0xc91d <__heap_start+0x3e21>
    4755: 8e 1e c9     	stx	$c91e                   ; 0xc91e <__heap_start+0x3e22>
    4758: 8e 1f c9     	stx	$c91f                   ; 0xc91f <__heap_start+0x3e23>
    475b: 8e 20 c9     	stx	$c920                   ; 0xc920 <__heap_start+0x3e24>
    475e: 8e 21 c9     	stx	$c921                   ; 0xc921 <__heap_start+0x3e25>
    4761: 8e 22 c9     	stx	$c922                   ; 0xc922 <__heap_start+0x3e26>
    4764: 8e 23 c9     	stx	$c923                   ; 0xc923 <__heap_start+0x3e27>
    4767: 8e 24 c9     	stx	$c924                   ; 0xc924 <__heap_start+0x3e28>
    476a: 8e 25 c9     	stx	$c925                   ; 0xc925 <__heap_start+0x3e29>
    476d: 8e 26 c9     	stx	$c926                   ; 0xc926 <__heap_start+0x3e2a>
    4770: 8e 27 c9     	stx	$c927                   ; 0xc927 <__heap_start+0x3e2b>
    4773: 8e 28 c9     	stx	$c928                   ; 0xc928 <__heap_start+0x3e2c>
    4776: 8e 29 c9     	stx	$c929                   ; 0xc929 <__heap_start+0x3e2d>
    4779: 8e 2a c9     	stx	$c92a                   ; 0xc92a <__heap_start+0x3e2e>
    477c: 8e 2b c9     	stx	$c92b                   ; 0xc92b <__heap_start+0x3e2f>
    477f: 8e 2c c9     	stx	$c92c                   ; 0xc92c <__heap_start+0x3e30>
    4782: 8e 2d c9     	stx	$c92d                   ; 0xc92d <__heap_start+0x3e31>
    4785: 8e 2e c9     	stx	$c92e                   ; 0xc92e <__heap_start+0x3e32>
    4788: 8e 2f c9     	stx	$c92f                   ; 0xc92f <__heap_start+0x3e33>
    478b: 8e 30 c9     	stx	$c930                   ; 0xc930 <__heap_start+0x3e34>
    478e: 8e 31 c9     	stx	$c931                   ; 0xc931 <__heap_start+0x3e35>
    4791: 8e 32 c9     	stx	$c932                   ; 0xc932 <__heap_start+0x3e36>
    4794: 8e 33 c9     	stx	$c933                   ; 0xc933 <__heap_start+0x3e37>
    4797: 8e 34 c9     	stx	$c934                   ; 0xc934 <__heap_start+0x3e38>
    479a: 8e 35 c9     	stx	$c935                   ; 0xc935 <__heap_start+0x3e39>
    479d: 8e 36 c9     	stx	$c936                   ; 0xc936 <__heap_start+0x3e3a>
    47a0: 8e 37 c9     	stx	$c937                   ; 0xc937 <__heap_start+0x3e3b>
    47a3: 8e 38 c9     	stx	$c938                   ; 0xc938 <__heap_start+0x3e3c>
    47a6: 8e 39 c9     	stx	$c939                   ; 0xc939 <__heap_start+0x3e3d>
    47a9: 8e 3a c9     	stx	$c93a                   ; 0xc93a <__heap_start+0x3e3e>
    47ac: 8e 3b c9     	stx	$c93b                   ; 0xc93b <__heap_start+0x3e3f>
    47af: 8e 3c c9     	stx	$c93c                   ; 0xc93c <__heap_start+0x3e40>
    47b2: 8e 3d c9     	stx	$c93d                   ; 0xc93d <__heap_start+0x3e41>
    47b5: 8e 3e c9     	stx	$c93e                   ; 0xc93e <__heap_start+0x3e42>
    47b8: 8e 3f c9     	stx	$c93f                   ; 0xc93f <__heap_start+0x3e43>
    47bb: 8e 40 c9     	stx	$c940                   ; 0xc940 <__heap_start+0x3e44>
    47be: 8e 41 c9     	stx	$c941                   ; 0xc941 <__heap_start+0x3e45>
    47c1: 8e 42 c9     	stx	$c942                   ; 0xc942 <__heap_start+0x3e46>
    47c4: 8e 43 c9     	stx	$c943                   ; 0xc943 <__heap_start+0x3e47>
    47c7: 8e 44 c9     	stx	$c944                   ; 0xc944 <__heap_start+0x3e48>
    47ca: 8e 45 c9     	stx	$c945                   ; 0xc945 <__heap_start+0x3e49>
    47cd: 8e 46 c9     	stx	$c946                   ; 0xc946 <__heap_start+0x3e4a>
    47d0: 8e 47 c9     	stx	$c947                   ; 0xc947 <__heap_start+0x3e4b>
    47d3: 8e 48 c9     	stx	$c948                   ; 0xc948 <__heap_start+0x3e4c>
    47d6: 8e 49 c9     	stx	$c949                   ; 0xc949 <__heap_start+0x3e4d>
    47d9: 8e 4a c9     	stx	$c94a                   ; 0xc94a <__heap_start+0x3e4e>
    47dc: 8e 4b c9     	stx	$c94b                   ; 0xc94b <__heap_start+0x3e4f>
    47df: 8e 4c c9     	stx	$c94c                   ; 0xc94c <__heap_start+0x3e50>
    47e2: 8e 4d c9     	stx	$c94d                   ; 0xc94d <__heap_start+0x3e51>
    47e5: 8e 4e c9     	stx	$c94e                   ; 0xc94e <__heap_start+0x3e52>
    47e8: 8e 4f c9     	stx	$c94f                   ; 0xc94f <__heap_start+0x3e53>
    47eb: 8e 50 c9     	stx	$c950                   ; 0xc950 <__heap_start+0x3e54>
    47ee: 8e 51 c9     	stx	$c951                   ; 0xc951 <__heap_start+0x3e55>
    47f1: 8e 52 c9     	stx	$c952                   ; 0xc952 <__heap_start+0x3e56>
    47f4: 8e 53 c9     	stx	$c953                   ; 0xc953 <__heap_start+0x3e57>
    47f7: 8e 54 c9     	stx	$c954                   ; 0xc954 <__heap_start+0x3e58>
    47fa: 8e 55 c9     	stx	$c955                   ; 0xc955 <__heap_start+0x3e59>
    47fd: 8e 56 c9     	stx	$c956                   ; 0xc956 <__heap_start+0x3e5a>
    4800: 8e 57 c9     	stx	$c957                   ; 0xc957 <__heap_start+0x3e5b>
    4803: 8e 58 c9     	stx	$c958                   ; 0xc958 <__heap_start+0x3e5c>
    4806: 8e 59 c9     	stx	$c959                   ; 0xc959 <__heap_start+0x3e5d>
    4809: 8e 5a c9     	stx	$c95a                   ; 0xc95a <__heap_start+0x3e5e>
    480c: 8e 5b c9     	stx	$c95b                   ; 0xc95b <__heap_start+0x3e5f>
    480f: 8e 5c c9     	stx	$c95c                   ; 0xc95c <__heap_start+0x3e60>
    4812: 8e 5d c9     	stx	$c95d                   ; 0xc95d <__heap_start+0x3e61>
    4815: 8e 5e c9     	stx	$c95e                   ; 0xc95e <__heap_start+0x3e62>
    4818: 8e 5f c9     	stx	$c95f                   ; 0xc95f <__heap_start+0x3e63>
    481b: c6 5d        	dec	$5d                     ; 0x5d <_row>
    481d: 9c 08 de     	stz	$de08                   ; 0xde08 <__heap_start+0x530c>
    4820: a2 c0        	ldx	#$c0
    4822: 8e 09 de     	stx	$de09                   ; 0xde09 <__heap_start+0x530d>
    4825: 9c 0a de     	stz	$de0a                   ; 0xde0a <__heap_start+0x530e>
    4828: 9c 0b de     	stz	$de0b                   ; 0xde0b <__heap_start+0x530f>
    482b: a2 1d        	ldx	#$1d
    482d: 8e 0c de     	stx	$de0c                   ; 0xde0c <__heap_start+0x5310>
    4830: 9c 0d de     	stz	$de0d                   ; 0xde0d <__heap_start+0x5311>
    4833: 9c 0e de     	stz	$de0e                   ; 0xde0e <__heap_start+0x5312>
    4836: 9c 0f de     	stz	$de0f                   ; 0xde0f <__heap_start+0x5313>
    4839: ae 18 de     	ldx	$de18                   ; 0xde18 <__heap_start+0x531c>
    483c: ac 19 de     	ldy	$de19                   ; 0xde19 <__heap_start+0x531d>
    483f: ad 1a de     	lda	$de1a                   ; 0xde1a <__heap_start+0x531e>
    4842: 86 14        	stx	$14                     ; 0x14 <__rc4>
    4844: ae 1b de     	ldx	$de1b                   ; 0xde1b <__heap_start+0x531f>
    4847: 84 15        	sty	$15                     ; 0x15 <__rc5>
    4849: e6 12        	inc	$12                     ; 0x12 <__rc2>
    484b: d0 17        	bne	$4864 <f256main+0x3e64>
    484d: e6 13        	inc	$13                     ; 0x13 <__rc3>
    484f: 80 13        	bra	$4864 <f256main+0x3e64>
    4851: a5 14        	lda	$14                     ; 0x14 <__rc4>
    4853: 18           	clc
    4854: 69 50        	adc	#$50
    4856: 85 14        	sta	$14                     ; 0x14 <__rc4>
    4858: a5 15        	lda	$15                     ; 0x15 <__rc5>
    485a: 69 00        	adc	#$0
    485c: 85 15        	sta	$15                     ; 0x15 <__rc5>
    485e: e6 12        	inc	$12                     ; 0x12 <__rc2>
    4860: d0 02        	bne	$4864 <f256main+0x3e64>
    4862: e6 13        	inc	$13                     ; 0x13 <__rc3>
    4864: a9 31        	lda	#$31
    4866: 18           	clc
    4867: 65 12        	adc	$12                     ; 0x12 <__rc2>
    4869: 85 16        	sta	$16                     ; 0x16 <__rc6>
    486b: a9 89        	lda	#$89
    486d: 65 13        	adc	$13                     ; 0x13 <__rc3>
    486f: 85 17        	sta	$17                     ; 0x17 <__rc7>
    4871: b2 16        	lda	($16)                   ; 0x16 <__rc6>
    4873: c9 0a        	cmp	#$a
    4875: f0 29        	beq	$48a0 <f256main+0x3ea0>
    4877: c9 0d        	cmp	#$d
    4879: f0 25        	beq	$48a0 <f256main+0x3ea0>
    487b: aa           	tax
    487c: f0 47        	beq	$48c5 <f256main+0x3ec5>
    487e: a0 03        	ldy	#$3
    4880: a2 03        	ldx	#$3
    4882: 86 27        	stx	$27                     ; 0x27 <__rc23>
    4884: 84 01        	sty	$1                      ; 0x1 <__data_size+0x1>
    4886: a4 5c        	ldy	$5c                     ; 0x5c <_col>
    4888: 85 16        	sta	$16                     ; 0x16 <__rc6>
    488a: a9 f0        	lda	#$f0
    488c: 91 14        	sta	($14),y                 ; 0x14 <__rc4>
    488e: ca           	dex
    488f: 86 01        	stx	$1                      ; 0x1 <__data_size+0x1>
    4891: a4 5c        	ldy	$5c                     ; 0x5c <_col>
    4893: a5 16        	lda	$16                     ; 0x16 <__rc6>
    4895: 91 14        	sta	($14),y                 ; 0x14 <__rc4>
    4897: a6 5c        	ldx	$5c                     ; 0x5c <_col>
    4899: e8           	inx
    489a: e6 5c        	inc	$5c                     ; 0x5c <_col>
    489c: e0 50        	cpx	#$50
    489e: d0 be        	bne	$485e <f256main+0x3e5e>
    48a0: 64 5c        	stz	$5c                     ; 0x5c <_col>
    48a2: a6 5d        	ldx	$5d                     ; 0x5d <_row>
    48a4: e8           	inx
    48a5: e6 5d        	inc	$5d                     ; 0x5d <_row>
    48a7: e0 1e        	cpx	#$1e
    48a9: f0 03        	beq	$48ae <f256main+0x3eae>
    48ab: 4c 51 48     	jmp	$4851 <f256main+0x3e51>
    48ae: a2 03        	ldx	#$3
    48b0: 86 01        	stx	$1                      ; 0x1 <__data_size+0x1>
    48b2: a2 09        	ldx	#$9
    48b4: a0 10        	ldy	#$10
    48b6: a5 2a        	lda	$2a                     ; 0x2a <__rc26>
    48b8: 85 14        	sta	$14                     ; 0x14 <__rc4>
    48ba: a5 2b        	lda	$2b                     ; 0x2b <__rc27>
    48bc: 85 15        	sta	$15                     ; 0x15 <__rc5>
    48be: 84 16        	sty	$16                     ; 0x16 <__rc6>
    48c0: a4 18        	ldy	$18                     ; 0x18 <__rc8>
    48c2: 4c ce 45     	jmp	$45ce <f256main+0x3bce>
    48c5: a6 19        	ldx	$19                     ; 0x19 <__rc9>
    48c7: 86 01        	stx	$1                      ; 0x1 <__data_size+0x1>
    48c9: a6 5c        	ldx	$5c                     ; 0x5c <_col>
    48cb: a4 5d        	ldy	$5d                     ; 0x5d <_row>
    48cd: 8e 14 d0     	stx	$d014                   ; 0xd014 <__heap_start+0x4518>
    48d0: 9c 15 d0     	stz	$d015                   ; 0xd015 <__heap_start+0x4519>
    48d3: 84 5d        	sty	$5d                     ; 0x5d <_row>
    48d5: 8c 16 d0     	sty	$d016                   ; 0xd016 <__heap_start+0x451a>
    48d8: 9c 17 d0     	stz	$d017                   ; 0xd017 <__heap_start+0x451b>
    48db: a0 04        	ldy	#$4
    48dd: ad 60 d6     	lda	$d660                   ; 0xd660 <__heap_start+0x4b64>
    48e0: 29 10        	and	#$10
    48e2: d0 03        	bne	$48e7 <f256main+0x3ee7>
    48e4: 4c a4 3b     	jmp	$3ba4 <f256main+0x31a4>
    48e7: 4c e6 3a     	jmp	$3ae6 <f256main+0x30e6>
    48ea: 64 12        	stz	$12                     ; 0x12 <__rc2>
    48ec: 64 15        	stz	$15                     ; 0x15 <__rc5>
    48ee: 64 14        	stz	$14                     ; 0x14 <__rc4>
    48f0: 4c d2 3c     	jmp	$3cd2 <f256main+0x32d2>
    48f3: 64 13        	stz	$13                     ; 0x13 <__rc3>
    48f5: 18           	clc
    48f6: 65 12        	adc	$12                     ; 0x12 <__rc2>
    48f8: aa           	tax
    48f9: a5 15        	lda	$15                     ; 0x15 <__rc5>
    48fb: 65 13        	adc	$13                     ; 0x13 <__rc3>
    48fd: 86 14        	stx	$14                     ; 0x14 <__rc4>
    48ff: 86 30        	stx	$30                     ; 0x30 <ship_X>
    4901: 85 15        	sta	$15                     ; 0x15 <__rc5>
    4903: 85 31        	sta	$31                     ; 0x31 <ship_X+0x1>
    4905: a6 32        	ldx	$32                     ; 0x32 <ship_Y>
    4907: a5 33        	lda	$33                     ; 0x33 <ship_Y+0x1>
    4909: 86 16        	stx	$16                     ; 0x16 <__rc6>
    490b: e0 20        	cpx	#$20
    490d: 85 18        	sta	$18                     ; 0x18 <__rc8>
    490f: e9 00        	sbc	#$0
    4911: 50 02        	bvc	$4915 <f256main+0x3f15>
    4913: 49 80        	eor	#$80
    4915: a8           	tay
    4916: 30 0c        	bmi	$4924 <f256main+0x3f24>
    4918: a5 18        	lda	$18                     ; 0x18 <__rc8>
    491a: d0 0c        	bne	$4928 <f256main+0x3f28>
    491c: e0 f9        	cpx	#$f9
    491e: a4 14        	ldy	$14                     ; 0x14 <__rc4>
    4920: 90 0e        	bcc	$4930 <f256main+0x3f30>
    4922: 80 2c        	bra	$4950 <f256main+0x3f50>
    4924: a4 14        	ldy	$14                     ; 0x14 <__rc4>
    4926: 80 28        	bra	$4950 <f256main+0x3f50>
    4928: a6 18        	ldx	$18                     ; 0x18 <__rc8>
    492a: e0 00        	cpx	#$0
    492c: a4 14        	ldy	$14                     ; 0x14 <__rc4>
    492e: b0 20        	bcs	$4950 <f256main+0x3f50>
    4930: a6 66        	ldx	$66                     ; 0x66 <ship_SY>
    4932: 86 12        	stx	$12                     ; 0x12 <__rc2>
    4934: 10 06        	bpl	$493c <f256main+0x3f3c>
    4936: a2 ff        	ldx	#$ff
    4938: 86 13        	stx	$13                     ; 0x13 <__rc3>
    493a: 80 02        	bra	$493e <f256main+0x3f3e>
    493c: 64 13        	stz	$13                     ; 0x13 <__rc3>
    493e: 18           	clc
    493f: a5 16        	lda	$16                     ; 0x16 <__rc6>
    4941: 65 12        	adc	$12                     ; 0x12 <__rc2>
    4943: aa           	tax
    4944: a5 18        	lda	$18                     ; 0x18 <__rc8>
    4946: 65 13        	adc	$13                     ; 0x13 <__rc3>
    4948: 86 16        	stx	$16                     ; 0x16 <__rc6>
    494a: 86 32        	stx	$32                     ; 0x32 <ship_Y>
    494c: 85 18        	sta	$18                     ; 0x18 <__rc8>
    494e: 85 33        	sta	$33                     ; 0x33 <ship_Y+0x1>
    4950: c0 20        	cpy	#$20
    4952: a5 15        	lda	$15                     ; 0x15 <__rc5>
    4954: e9 00        	sbc	#$0
    4956: 50 15        	bvc	$496d <f256main+0x3f6d>
    4958: 49 80        	eor	#$80
    495a: aa           	tax
    495b: 30 13        	bmi	$4970 <f256main+0x3f70>
    495d: a4 15        	ldy	$15                     ; 0x15 <__rc5>
    495f: c0 01        	cpy	#$1
    4961: d0 15        	bne	$4978 <f256main+0x3f78>
    4963: a6 14        	ldx	$14                     ; 0x14 <__rc4>
    4965: e0 41        	cpx	#$41
    4967: a5 16        	lda	$16                     ; 0x16 <__rc6>
    4969: b0 13        	bcs	$497e <f256main+0x3f7e>
    496b: 80 1b        	bra	$4988 <f256main+0x3f88>
    496d: aa           	tax
    496e: 10 ed        	bpl	$495d <f256main+0x3f5d>
    4970: a2 20        	ldx	#$20
    4972: a0 00        	ldy	#$0
    4974: a5 16        	lda	$16                     ; 0x16 <__rc6>
    4976: 80 0a        	bra	$4982 <f256main+0x3f82>
    4978: c0 01        	cpy	#$1
    497a: a5 16        	lda	$16                     ; 0x16 <__rc6>
    497c: 90 0a        	bcc	$4988 <f256main+0x3f88>
    497e: a2 40        	ldx	#$40
    4980: a0 01        	ldy	#$1
    4982: 86 14        	stx	$14                     ; 0x14 <__rc4>
    4984: 86 30        	stx	$30                     ; 0x30 <ship_X>
    4986: 84 31        	sty	$31                     ; 0x31 <ship_X+0x1>
    4988: 84 12        	sty	$12                     ; 0x12 <__rc2>
    498a: c9 20        	cmp	#$20
    498c: a5 18        	lda	$18                     ; 0x18 <__rc8>
    498e: e9 00        	sbc	#$0
    4990: 50 02        	bvc	$4994 <f256main+0x3f94>
    4992: 49 80        	eor	#$80
    4994: a0 20        	ldy	#$20
    4996: a2 00        	ldx	#$0
    4998: c9 00        	cmp	#$0
    499a: 30 14        	bmi	$49b0 <f256main+0x3fb0>
    499c: a5 18        	lda	$18                     ; 0x18 <__rc8>
    499e: d0 08        	bne	$49a8 <f256main+0x3fa8>
    49a0: a4 16        	ldy	$16                     ; 0x16 <__rc6>
    49a2: c0 f9        	cpy	#$f9
    49a4: b0 08        	bcs	$49ae <f256main+0x3fae>
    49a6: 80 0d        	bra	$49b5 <f256main+0x3fb5>
    49a8: c9 00        	cmp	#$0
    49aa: a4 16        	ldy	$16                     ; 0x16 <__rc6>
    49ac: 90 07        	bcc	$49b5 <f256main+0x3fb5>
    49ae: a0 f8        	ldy	#$f8
    49b0: 84 32        	sty	$32                     ; 0x32 <ship_Y>
    49b2: 86 33        	stx	$33                     ; 0x33 <ship_Y+0x1>
    49b4: 8a           	txa
    49b5: a6 14        	ldx	$14                     ; 0x14 <__rc4>
    49b7: 8e 24 d9     	stx	$d924                   ; 0xd924 <__heap_start+0x4e28>
    49ba: a6 12        	ldx	$12                     ; 0x12 <__rc2>
    49bc: 8e 25 d9     	stx	$d925                   ; 0xd925 <__heap_start+0x4e29>
    49bf: 8c 26 d9     	sty	$d926                   ; 0xd926 <__heap_start+0x4e2a>
    49c2: 8d 27 d9     	sta	$d927                   ; 0xd927 <__heap_start+0x4e2b>
    49c5: a2 80        	ldx	#$80
    49c7: 86 f3        	stx	$f3                     ; 0xf3 <__bss_size+0x6e>
    49c9: a2 82        	ldx	#$82
    49cb: 86 12        	stx	$12                     ; 0x12 <__rc2>
    49cd: a2 00        	ldx	#$0
    49cf: 86 13        	stx	$13                     ; 0x13 <__rc3>
    49d1: 20 f0 ff     	jsr	$fff0 <__heap_start+0x74f4>
    49d4: 92 2c        	sta	($2c)                   ; 0x2c <__zp_data_size>
    49d6: a9 00        	lda	#$0
    49d8: 6a           	ror
    49d9: 85 12        	sta	$12                     ; 0x12 <__rc2>
    49db: a9 03        	lda	#$3
    49dd: 18           	clc
    49de: 72 2c        	adc	($2c)                   ; 0x2c <__zp_data_size>
    49e0: 85 6d        	sta	$6d                     ; 0x6d <shipMT.1>
    49e2: 64 f3        	stz	$f3                     ; 0xf3 <__bss_size+0x6e>
    49e4: a6 6d        	ldx	$6d                     ; 0x6d <shipMT.1>
    49e6: 86 f4        	stx	$f4                     ; 0xf4 <__bss_size+0x6f>
    49e8: a2 0c        	ldx	#$c
    49ea: 86 f5        	stx	$f5                     ; 0xf5 <__bss_size+0x70>
    49ec: 20 f0 ff     	jsr	$fff0 <__heap_start+0x74f4>
    49ef: 92 2c        	sta	($2c)                   ; 0x2c <__zp_data_size>
    49f1: a9 00        	lda	#$0
    49f3: 6a           	ror
    49f4: 85 12        	sta	$12                     ; 0x12 <__rc2>
    49f6: a0 04        	ldy	#$4
    49f8: ad 60 d6     	lda	$d660                   ; 0xd660 <__heap_start+0x4b64>
    49fb: 29 10        	and	#$10
    49fd: f0 03        	beq	$4a02 <f256main+0x4002>
    49ff: 4c e6 3a     	jmp	$3ae6 <f256main+0x30e6>
    4a02: 4c a4 3b     	jmp	$3ba4 <f256main+0x31a4>
    4a05: a5 7c        	lda	$7c                     ; 0x7c <theOne.6>
    4a07: a6 80        	ldx	$80                     ; 0x80 <theOne.8>
    4a09: 86 26        	stx	$26                     ; 0x26 <__rc22>
    4a0b: a6 81        	ldx	$81                     ; 0x81 <theOne.8+0x1>
    4a0d: 86 25        	stx	$25                     ; 0x25 <__rc21>
    4a0f: a2 19        	ldx	#$19
    4a11: 86 12        	stx	$12                     ; 0x12 <__rc2>
    4a13: 86 24        	stx	$24                     ; 0x24 <__rc20>
    4a15: 64 13        	stz	$13                     ; 0x13 <__rc3>
    4a17: a2 00        	ldx	#$0
    4a19: 20 4f 86     	jsr	$864f <__mulhi3>
    4a1c: 85 12        	sta	$12                     ; 0x12 <__rc2>
    4a1e: 86 13        	stx	$13                     ; 0x13 <__rc3>
    4a20: a6 26        	ldx	$26                     ; 0x26 <__rc22>
    4a22: 86 2e        	stx	$2e                     ; 0x2e <__rc30>
    4a24: a5 26        	lda	$26                     ; 0x26 <__rc22>
    4a26: 18           	clc
    4a27: 65 12        	adc	$12                     ; 0x12 <__rc2>
    4a29: 85 16        	sta	$16                     ; 0x16 <__rc6>
    4a2b: a5 25        	lda	$25                     ; 0x25 <__rc21>
    4a2d: 85 2f        	sta	$2f                     ; 0x2f <__rc31>
    4a2f: 65 13        	adc	$13                     ; 0x13 <__rc3>
    4a31: 85 17        	sta	$17                     ; 0x17 <__rc7>
    4a33: a0 10        	ldy	#$10
    4a35: b1 16        	lda	($16),y                 ; 0x16 <__rc6>
    4a37: aa           	tax
    4a38: c8           	iny
    4a39: b1 16        	lda	($16),y                 ; 0x16 <__rc6>
    4a3b: e0 ff        	cpx	#$ff
    4a3d: f0 0e        	beq	$4a4d <f256main+0x404d>
    4a3f: 86 15        	stx	$15                     ; 0x15 <__rc5>
    4a41: 85 14        	sta	$14                     ; 0x14 <__rc4>
    4a43: a0 17        	ldy	#$17
    4a45: b1 16        	lda	($16),y                 ; 0x16 <__rc6>
    4a47: f0 23        	beq	$4a6c <f256main+0x406c>
    4a49: a2 02        	ldx	#$2
    4a4b: 80 21        	bra	$4a6e <f256main+0x406e>
    4a4d: a0 18        	ldy	#$18
    4a4f: c9 51        	cmp	#$51
    4a51: f0 40        	beq	$4a93 <f256main+0x4093>
    4a53: c9 2f        	cmp	#$2f
    4a55: f0 03        	beq	$4a5a <f256main+0x405a>
    4a57: 4c f9 4a     	jmp	$4af9 <f256main+0x40f9>
    4a5a: a9 01        	lda	#$1
    4a5c: 91 16        	sta	($16),y                 ; 0x16 <__rc6>
    4a5e: a6 24        	ldx	$24                     ; 0x24 <__rc20>
    4a60: a5 6f        	lda	$6f                     ; 0x6f <theOne.0>
    4a62: a4 70        	ldy	$70                     ; 0x70 <theOne.0+0x1>
    4a64: f0 03        	beq	$4a69 <f256main+0x4069>
    4a66: 4c 08 4b     	jmp	$4b08 <f256main+0x4108>
    4a69: 4c 01 4b     	jmp	$4b01 <f256main+0x4101>
    4a6c: a2 03        	ldx	#$3
    4a6e: a0 12        	ldy	#$12
    4a70: b1 16        	lda	($16),y                 ; 0x16 <__rc6>
    4a72: 85 12        	sta	$12                     ; 0x12 <__rc2>
    4a74: 86 13        	stx	$13                     ; 0x13 <__rc3>
    4a76: a6 14        	ldx	$14                     ; 0x14 <__rc4>
    4a78: a5 15        	lda	$15                     ; 0x15 <__rc5>
    4a7a: 20 5f 60     	jsr	$605f <sendAME>
    4a7d: a6 80        	ldx	$80                     ; 0x80 <theOne.8>
    4a7f: a4 81        	ldy	$81                     ; 0x81 <theOne.8+0x1>
    4a81: 86 2e        	stx	$2e                     ; 0x2e <__rc30>
    4a83: 84 2f        	sty	$2f                     ; 0x2f <__rc31>
    4a85: a2 19        	ldx	#$19
    4a87: a5 6f        	lda	$6f                     ; 0x6f <theOne.0>
    4a89: a4 70        	ldy	$70                     ; 0x70 <theOne.0+0x1>
    4a8b: f0 03        	beq	$4a90 <f256main+0x4090>
    4a8d: 4c 08 4b     	jmp	$4b08 <f256main+0x4108>
    4a90: 4c 01 4b     	jmp	$4b01 <f256main+0x4101>
    4a93: a0 13        	ldy	#$13
    4a95: b1 16        	lda	($16),y                 ; 0x16 <__rc6>
    4a97: 85 12        	sta	$12                     ; 0x12 <__rc2>
    4a99: c8           	iny
    4a9a: b1 16        	lda	($16),y                 ; 0x16 <__rc6>
    4a9c: 85 19        	sta	$19                     ; 0x19 <__rc9>
    4a9e: c8           	iny
    4a9f: b1 16        	lda	($16),y                 ; 0x16 <__rc6>
    4aa1: a6 71        	ldx	$71                     ; 0x71 <theOne.1>
    4aa3: a4 72        	ldy	$72                     ; 0x72 <theOne.1+0x1>
    4aa5: 64 13        	stz	$13                     ; 0x13 <__rc3>
    4aa7: 86 14        	stx	$14                     ; 0x14 <__rc4>
    4aa9: 84 15        	sty	$15                     ; 0x15 <__rc5>
    4aab: 64 16        	stz	$16                     ; 0x16 <__rc6>
    4aad: 64 17        	stz	$17                     ; 0x17 <__rc7>
    4aaf: a6 19        	ldx	$19                     ; 0x19 <__rc9>
    4ab1: 20 f0 84     	jsr	$84f0 <__udivsi3>
    4ab4: 86 14        	stx	$14                     ; 0x14 <__rc4>
    4ab6: 0a           	asl
    4ab7: 26 14        	rol	$14                     ; 0x14 <__rc4>
    4ab9: 26 12        	rol	$12                     ; 0x12 <__rc2>
    4abb: 26 13        	rol	$13                     ; 0x13 <__rc3>
    4abd: 0a           	asl
    4abe: 85 15        	sta	$15                     ; 0x15 <__rc5>
    4ac0: 26 14        	rol	$14                     ; 0x14 <__rc4>
    4ac2: 26 12        	rol	$12                     ; 0x12 <__rc2>
    4ac4: 26 13        	rol	$13                     ; 0x13 <__rc3>
    4ac6: 0a           	asl
    4ac7: aa           	tax
    4ac8: a5 14        	lda	$14                     ; 0x14 <__rc4>
    4aca: 2a           	rol
    4acb: a8           	tay
    4acc: a5 12        	lda	$12                     ; 0x12 <__rc2>
    4ace: 2a           	rol
    4acf: 85 16        	sta	$16                     ; 0x16 <__rc6>
    4ad1: a5 13        	lda	$13                     ; 0x13 <__rc3>
    4ad3: 2a           	rol
    4ad4: 85 17        	sta	$17                     ; 0x17 <__rc7>
    4ad6: 18           	clc
    4ad7: 8a           	txa
    4ad8: 65 15        	adc	$15                     ; 0x15 <__rc5>
    4ada: 85 15        	sta	$15                     ; 0x15 <__rc5>
    4adc: 98           	tya
    4add: 65 14        	adc	$14                     ; 0x14 <__rc4>
    4adf: 85 14        	sta	$14                     ; 0x14 <__rc4>
    4ae1: a5 16        	lda	$16                     ; 0x16 <__rc6>
    4ae3: 65 12        	adc	$12                     ; 0x12 <__rc2>
    4ae5: 85 12        	sta	$12                     ; 0x12 <__rc2>
    4ae7: a5 17        	lda	$17                     ; 0x17 <__rc7>
    4ae9: 65 13        	adc	$13                     ; 0x13 <__rc3>
    4aeb: a6 15        	ldx	$15                     ; 0x15 <__rc5>
    4aed: 86 73        	stx	$73                     ; 0x73 <theOne.2>
    4aef: a6 14        	ldx	$14                     ; 0x14 <__rc4>
    4af1: 86 74        	stx	$74                     ; 0x74 <theOne.2+0x1>
    4af3: a6 12        	ldx	$12                     ; 0x12 <__rc2>
    4af5: 86 75        	stx	$75                     ; 0x75 <theOne.2+0x2>
    4af7: 85 76        	sta	$76                     ; 0x76 <theOne.2+0x3>
    4af9: a6 24        	ldx	$24                     ; 0x24 <__rc20>
    4afb: a5 6f        	lda	$6f                     ; 0x6f <theOne.0>
    4afd: a4 70        	ldy	$70                     ; 0x70 <theOne.0+0x1>
    4aff: d0 07        	bne	$4b08 <f256main+0x4108>
    4b01: c9 00        	cmp	#$0
    4b03: d0 03        	bne	$4b08 <f256main+0x4108>
    4b05: 4c 6d 4c     	jmp	$4c6d <f256main+0x426d>
    4b08: 85 24        	sta	$24                     ; 0x24 <__rc20>
    4b0a: a9 00        	lda	#$0
    4b0c: 84 28        	sty	$28                     ; 0x28 <__rc24>
    4b0e: a8           	tay
    4b0f: 64 13        	stz	$13                     ; 0x13 <__rc3>
    4b11: 86 25        	stx	$25                     ; 0x25 <__rc21>
    4b13: 86 12        	stx	$12                     ; 0x12 <__rc2>
    4b15: 5a           	phy
    4b16: fa           	plx
    4b17: 5a           	phy
    4b18: a0 14        	ldy	#$14
    4b1a: 91 10        	sta	($10),y                 ; 0x10 <__rc0>
    4b1c: 7a           	ply
    4b1d: 84 2b        	sty	$2b                     ; 0x2b <__rc27>
    4b1f: 20 4f 86     	jsr	$864f <__mulhi3>
    4b22: 18           	clc
    4b23: 65 2e        	adc	$2e                     ; 0x2e <__rc30>
    4b25: a8           	tay
    4b26: 8a           	txa
    4b27: 65 2f        	adc	$2f                     ; 0x2f <__rc31>
    4b29: 84 2a        	sty	$2a                     ; 0x2a <__rc26>
    4b2b: 84 26        	sty	$26                     ; 0x26 <__rc22>
    4b2d: 85 29        	sta	$29                     ; 0x29 <__rc25>
    4b2f: 85 27        	sta	$27                     ; 0x27 <__rc23>
    4b31: a0 18        	ldy	#$18
    4b33: b1 26        	lda	($26),y                 ; 0x26 <__rc22>
    4b35: f0 26        	beq	$4b5d <f256main+0x415d>
    4b37: a0 14        	ldy	#$14
    4b39: b1 10        	lda	($10),y                 ; 0x10 <__rc0>
    4b3b: a4 2b        	ldy	$2b                     ; 0x2b <__rc27>
    4b3d: aa           	tax
    4b3e: e8           	inx
    4b3f: d0 01        	bne	$4b42 <f256main+0x4142>
    4b41: c8           	iny
    4b42: 8a           	txa
    4b43: c4 28        	cpy	$28                     ; 0x28 <__rc24>
    4b45: d0 0b        	bne	$4b52 <f256main+0x4152>
    4b47: c5 24        	cmp	$24                     ; 0x24 <__rc20>
    4b49: 64 13        	stz	$13                     ; 0x13 <__rc3>
    4b4b: a6 25        	ldx	$25                     ; 0x25 <__rc21>
    4b4d: 90 c2        	bcc	$4b11 <f256main+0x4111>
    4b4f: 4c 6d 4c     	jmp	$4c6d <f256main+0x426d>
    4b52: c4 28        	cpy	$28                     ; 0x28 <__rc24>
    4b54: 64 13        	stz	$13                     ; 0x13 <__rc3>
    4b56: a6 25        	ldx	$25                     ; 0x25 <__rc21>
    4b58: 90 b7        	bcc	$4b11 <f256main+0x4111>
    4b5a: 4c 6d 4c     	jmp	$4c6d <f256main+0x426d>
    4b5d: a6 7c        	ldx	$7c                     ; 0x7c <theOne.6>
    4b5f: 86 14        	stx	$14                     ; 0x14 <__rc4>
    4b61: a6 7d        	ldx	$7d                     ; 0x7d <theOne.6+0x1>
    4b63: a4 2b        	ldy	$2b                     ; 0x2b <__rc27>
    4b65: c4 7d        	cpy	$7d                     ; 0x7d <theOne.6+0x1>
    4b67: d0 16        	bne	$4b7f <f256main+0x417f>
    4b69: 64 13        	stz	$13                     ; 0x13 <__rc3>
    4b6b: a5 25        	lda	$25                     ; 0x25 <__rc21>
    4b6d: 85 12        	sta	$12                     ; 0x12 <__rc2>
    4b6f: 5a           	phy
    4b70: a0 14        	ldy	#$14
    4b72: b1 10        	lda	($10),y                 ; 0x10 <__rc0>
    4b74: 7a           	ply
    4b75: c5 14        	cmp	$14                     ; 0x14 <__rc4>
    4b77: d0 0c        	bne	$4b85 <f256main+0x4185>
    4b79: a2 19        	ldx	#$19
    4b7b: 86 25        	stx	$25                     ; 0x25 <__rc21>
    4b7d: 80 be        	bra	$4b3d <f256main+0x413d>
    4b7f: 64 13        	stz	$13                     ; 0x13 <__rc3>
    4b81: a5 25        	lda	$25                     ; 0x25 <__rc21>
    4b83: 85 12        	sta	$12                     ; 0x12 <__rc2>
    4b85: 84 2b        	sty	$2b                     ; 0x2b <__rc27>
    4b87: a5 14        	lda	$14                     ; 0x14 <__rc4>
    4b89: 20 4f 86     	jsr	$864f <__mulhi3>
    4b8c: 18           	clc
    4b8d: 65 2e        	adc	$2e                     ; 0x2e <__rc30>
    4b8f: a8           	tay
    4b90: 8a           	txa
    4b91: 65 2f        	adc	$2f                     ; 0x2f <__rc31>
    4b93: aa           	tax
    4b94: 98           	tya
    4b95: 84 12        	sty	$12                     ; 0x12 <__rc2>
    4b97: 86 13        	stx	$13                     ; 0x13 <__rc3>
    4b99: 18           	clc
    4b9a: 69 0c        	adc	#$c
    4b9c: 85 16        	sta	$16                     ; 0x16 <__rc6>
    4b9e: 8a           	txa
    4b9f: 69 00        	adc	#$0
    4ba1: 85 17        	sta	$17                     ; 0x17 <__rc7>
    4ba3: a0 0c        	ldy	#$c
    4ba5: b1 12        	lda	($12),y                 ; 0x12 <__rc2>
    4ba7: 84 18        	sty	$18                     ; 0x18 <__rc8>
    4ba9: 85 12        	sta	$12                     ; 0x12 <__rc2>
    4bab: a0 01        	ldy	#$1
    4bad: b1 16        	lda	($16),y                 ; 0x16 <__rc6>
    4baf: 84 19        	sty	$19                     ; 0x19 <__rc9>
    4bb1: 85 13        	sta	$13                     ; 0x13 <__rc3>
    4bb3: c8           	iny
    4bb4: b1 16        	lda	($16),y                 ; 0x16 <__rc6>
    4bb6: 84 1a        	sty	$1a                     ; 0x1a <__rc10>
    4bb8: 85 14        	sta	$14                     ; 0x14 <__rc4>
    4bba: c8           	iny
    4bbb: b1 16        	lda	($16),y                 ; 0x16 <__rc6>
    4bbd: 84 1b        	sty	$1b                     ; 0x1b <__rc11>
    4bbf: 85 15        	sta	$15                     ; 0x15 <__rc5>
    4bc1: 18           	clc
    4bc2: a5 2a        	lda	$2a                     ; 0x2a <__rc26>
    4bc4: 69 0c        	adc	#$c
    4bc6: 85 16        	sta	$16                     ; 0x16 <__rc6>
    4bc8: a5 29        	lda	$29                     ; 0x29 <__rc25>
    4bca: 69 00        	adc	#$0
    4bcc: 85 17        	sta	$17                     ; 0x17 <__rc7>
    4bce: a4 18        	ldy	$18                     ; 0x18 <__rc8>
    4bd0: b1 26        	lda	($26),y                 ; 0x26 <__rc22>
    4bd2: 85 1d        	sta	$1d                     ; 0x1d <__rc13>
    4bd4: a6 18        	ldx	$18                     ; 0x18 <__rc8>
    4bd6: 86 22        	stx	$22                     ; 0x22 <__rc18>
    4bd8: a4 19        	ldy	$19                     ; 0x19 <__rc9>
    4bda: b1 16        	lda	($16),y                 ; 0x16 <__rc6>
    4bdc: 85 1c        	sta	$1c                     ; 0x1c <__rc12>
    4bde: a4 1a        	ldy	$1a                     ; 0x1a <__rc10>
    4be0: b1 16        	lda	($16),y                 ; 0x16 <__rc6>
    4be2: aa           	tax
    4be3: a5 1d        	lda	$1d                     ; 0x1d <__rc13>
    4be5: 85 18        	sta	$18                     ; 0x18 <__rc8>
    4be7: 38           	sec
    4be8: e5 12        	sbc	$12                     ; 0x12 <__rc2>
    4bea: 85 1e        	sta	$1e                     ; 0x1e <__rc14>
    4bec: a5 1c        	lda	$1c                     ; 0x1c <__rc12>
    4bee: e5 13        	sbc	$13                     ; 0x13 <__rc3>
    4bf0: 85 1f        	sta	$1f                     ; 0x1f <__rc15>
    4bf2: 8a           	txa
    4bf3: 86 1d        	stx	$1d                     ; 0x1d <__rc13>
    4bf5: e5 14        	sbc	$14                     ; 0x14 <__rc4>
    4bf7: 85 23        	sta	$23                     ; 0x23 <__rc19>
    4bf9: a4 1b        	ldy	$1b                     ; 0x1b <__rc11>
    4bfb: b1 16        	lda	($16),y                 ; 0x16 <__rc6>
    4bfd: aa           	tax
    4bfe: e5 15        	sbc	$15                     ; 0x15 <__rc5>
    4c00: 85 29        	sta	$29                     ; 0x29 <__rc25>
    4c02: a4 22        	ldy	$22                     ; 0x22 <__rc18>
    4c04: a5 1e        	lda	$1e                     ; 0x1e <__rc14>
    4c06: 91 26        	sta	($26),y                 ; 0x26 <__rc22>
    4c08: a4 19        	ldy	$19                     ; 0x19 <__rc9>
    4c0a: a5 1f        	lda	$1f                     ; 0x1f <__rc15>
    4c0c: 91 16        	sta	($16),y                 ; 0x16 <__rc6>
    4c0e: a5 23        	lda	$23                     ; 0x23 <__rc19>
    4c10: a4 1a        	ldy	$1a                     ; 0x1a <__rc10>
    4c12: 91 16        	sta	($16),y                 ; 0x16 <__rc6>
    4c14: a4 1b        	ldy	$1b                     ; 0x1b <__rc11>
    4c16: a5 29        	lda	$29                     ; 0x29 <__rc25>
    4c18: 91 16        	sta	($16),y                 ; 0x16 <__rc6>
    4c1a: e4 15        	cpx	$15                     ; 0x15 <__rc5>
    4c1c: f0 03        	beq	$4c21 <f256main+0x4221>
    4c1e: 4c 37 4b     	jmp	$4b37 <f256main+0x4137>
    4c21: a0 14        	ldy	#$14
    4c23: b1 10        	lda	($10),y                 ; 0x10 <__rc0>
    4c25: a4 2b        	ldy	$2b                     ; 0x2b <__rc27>
    4c27: a6 1d        	ldx	$1d                     ; 0x1d <__rc13>
    4c29: e4 14        	cpx	$14                     ; 0x14 <__rc4>
    4c2b: f0 03        	beq	$4c30 <f256main+0x4230>
    4c2d: 4c 3d 4b     	jmp	$4b3d <f256main+0x413d>
    4c30: a6 1c        	ldx	$1c                     ; 0x1c <__rc12>
    4c32: e4 13        	cpx	$13                     ; 0x13 <__rc3>
    4c34: f0 03        	beq	$4c39 <f256main+0x4239>
    4c36: 4c 3d 4b     	jmp	$4b3d <f256main+0x413d>
    4c39: a6 18        	ldx	$18                     ; 0x18 <__rc8>
    4c3b: e4 12        	cpx	$12                     ; 0x12 <__rc2>
    4c3d: f0 03        	beq	$4c42 <f256main+0x4242>
    4c3f: 4c 3d 4b     	jmp	$4b3d <f256main+0x413d>
    4c42: a6 25        	ldx	$25                     ; 0x25 <__rc21>
    4c44: 86 12        	stx	$12                     ; 0x12 <__rc2>
    4c46: 64 13        	stz	$13                     ; 0x13 <__rc3>
    4c48: a2 00        	ldx	#$0
    4c4a: 20 4f 86     	jsr	$864f <__mulhi3>
    4c4d: 18           	clc
    4c4e: 65 2e        	adc	$2e                     ; 0x2e <__rc30>
    4c50: 85 12        	sta	$12                     ; 0x12 <__rc2>
    4c52: 8a           	txa
    4c53: 65 2f        	adc	$2f                     ; 0x2f <__rc31>
    4c55: 85 14        	sta	$14                     ; 0x14 <__rc4>
    4c57: 85 13        	sta	$13                     ; 0x13 <__rc3>
    4c59: a0 18        	ldy	#$18
    4c5b: b1 12        	lda	($12),y                 ; 0x12 <__rc2>
    4c5d: d0 03        	bne	$4c62 <f256main+0x4262>
    4c5f: 4c 7b 37     	jmp	$377b <f256main+0x2d7b>
    4c62: a6 6f        	ldx	$6f                     ; 0x6f <theOne.0>
    4c64: a4 70        	ldy	$70                     ; 0x70 <theOne.0+0x1>
    4c66: 86 24        	stx	$24                     ; 0x24 <__rc20>
    4c68: 84 28        	sty	$28                     ; 0x28 <__rc24>
    4c6a: 4c 37 4b     	jmp	$4b37 <f256main+0x4137>
    4c6d: a5 7c        	lda	$7c                     ; 0x7c <theOne.6>
    4c6f: 86 26        	stx	$26                     ; 0x26 <__rc22>
    4c71: 86 12        	stx	$12                     ; 0x12 <__rc2>
    4c73: 64 13        	stz	$13                     ; 0x13 <__rc3>
    4c75: a2 00        	ldx	#$0
    4c77: 85 25        	sta	$25                     ; 0x25 <__rc21>
    4c79: 20 4f 86     	jsr	$864f <__mulhi3>
    4c7c: 86 12        	stx	$12                     ; 0x12 <__rc2>
    4c7e: 18           	clc
    4c7f: a2 00        	ldx	#$0
    4c81: 86 17        	stx	$17                     ; 0x17 <__rc7>
    4c83: 65 2e        	adc	$2e                     ; 0x2e <__rc30>
    4c85: aa           	tax
    4c86: a5 2f        	lda	$2f                     ; 0x2f <__rc31>
    4c88: 65 12        	adc	$12                     ; 0x12 <__rc2>
    4c8a: 86 12        	stx	$12                     ; 0x12 <__rc2>
    4c8c: 85 13        	sta	$13                     ; 0x13 <__rc3>
    4c8e: a8           	tay
    4c8f: 18           	clc
    4c90: 8a           	txa
    4c91: 69 04        	adc	#$4
    4c93: 85 14        	sta	$14                     ; 0x14 <__rc4>
    4c95: 98           	tya
    4c96: 69 00        	adc	#$0
    4c98: 85 15        	sta	$15                     ; 0x15 <__rc5>
    4c9a: a0 03        	ldy	#$3
    4c9c: b1 14        	lda	($14),y                 ; 0x14 <__rc4>
    4c9e: d1 12        	cmp	($12),y                 ; 0x12 <__rc2>
    4ca0: d0 36        	bne	$4cd8 <f256main+0x42d8>
    4ca2: 84 27        	sty	$27                     ; 0x27 <__rc23>
    4ca4: a0 02        	ldy	#$2
    4ca6: b1 14        	lda	($14),y                 ; 0x14 <__rc4>
    4ca8: aa           	tax
    4ca9: b1 12        	lda	($12),y                 ; 0x12 <__rc2>
    4cab: 85 16        	sta	$16                     ; 0x16 <__rc6>
    4cad: e4 16        	cpx	$16                     ; 0x16 <__rc6>
    4caf: d0 4a        	bne	$4cfb <f256main+0x42fb>
    4cb1: a2 04        	ldx	#$4
    4cb3: 86 18        	stx	$18                     ; 0x18 <__rc8>
    4cb5: a2 01        	ldx	#$1
    4cb7: 86 16        	stx	$16                     ; 0x16 <__rc6>
    4cb9: a4 16        	ldy	$16                     ; 0x16 <__rc6>
    4cbb: b1 14        	lda	($14),y                 ; 0x14 <__rc4>
    4cbd: aa           	tax
    4cbe: b1 12        	lda	($12),y                 ; 0x12 <__rc2>
    4cc0: 85 14        	sta	$14                     ; 0x14 <__rc4>
    4cc2: e4 14        	cpx	$14                     ; 0x14 <__rc4>
    4cc4: d0 0c        	bne	$4cd2 <f256main+0x42d2>
    4cc6: a4 18        	ldy	$18                     ; 0x18 <__rc8>
    4cc8: b1 12        	lda	($12),y                 ; 0x12 <__rc2>
    4cca: 85 15        	sta	$15                     ; 0x15 <__rc5>
    4ccc: b2 12        	lda	($12)                   ; 0x12 <__rc2>
    4cce: 85 14        	sta	$14                     ; 0x14 <__rc4>
    4cd0: a6 15        	ldx	$15                     ; 0x15 <__rc5>
    4cd2: e4 14        	cpx	$14                     ; 0x14 <__rc4>
    4cd4: b0 0a        	bcs	$4ce0 <f256main+0x42e0>
    4cd6: 80 27        	bra	$4cff <f256main+0x42ff>
    4cd8: a2 03        	ldx	#$3
    4cda: 86 27        	stx	$27                     ; 0x27 <__rc23>
    4cdc: d1 12        	cmp	($12),y                 ; 0x12 <__rc2>
    4cde: 90 1f        	bcc	$4cff <f256main+0x42ff>
    4ce0: a9 01        	lda	#$1
    4ce2: a0 18        	ldy	#$18
    4ce4: 84 28        	sty	$28                     ; 0x28 <__rc24>
    4ce6: 91 12        	sta	($12),y                 ; 0x12 <__rc2>
    4ce8: e6 7e        	inc	$7e                     ; 0x7e <theOne.7>
    4cea: d0 02        	bne	$4cee <f256main+0x42ee>
    4cec: e6 7f        	inc	$7f                     ; 0x7f <theOne.7+0x1>
    4cee: 64 2a        	stz	$2a                     ; 0x2a <__rc26>
    4cf0: 64 13        	stz	$13                     ; 0x13 <__rc3>
    4cf2: a6 17        	ldx	$17                     ; 0x17 <__rc7>
    4cf4: 86 24        	stx	$24                     ; 0x24 <__rc20>
    4cf6: a5 25        	lda	$25                     ; 0x25 <__rc21>
    4cf8: 4c 9e 51     	jmp	$519e <f256main+0x479e>
    4cfb: e4 16        	cpx	$16                     ; 0x16 <__rc6>
    4cfd: b0 e1        	bcs	$4ce0 <f256main+0x42e0>
    4cff: 64 2a        	stz	$2a                     ; 0x2a <__rc26>
    4d01: a6 26        	ldx	$26                     ; 0x26 <__rc22>
    4d03: 86 12        	stx	$12                     ; 0x12 <__rc2>
    4d05: 64 13        	stz	$13                     ; 0x13 <__rc3>
    4d07: a2 00        	ldx	#$0
    4d09: a4 26        	ldy	$26                     ; 0x26 <__rc22>
    4d0b: 84 27        	sty	$27                     ; 0x27 <__rc23>
    4d0d: a5 25        	lda	$25                     ; 0x25 <__rc21>
    4d0f: 20 4f 86     	jsr	$864f <__mulhi3>
    4d12: 86 12        	stx	$12                     ; 0x12 <__rc2>
    4d14: 18           	clc
    4d15: 65 2e        	adc	$2e                     ; 0x2e <__rc30>
    4d17: aa           	tax
    4d18: a5 2f        	lda	$2f                     ; 0x2f <__rc31>
    4d1a: 65 12        	adc	$12                     ; 0x12 <__rc2>
    4d1c: 86 12        	stx	$12                     ; 0x12 <__rc2>
    4d1e: 85 13        	sta	$13                     ; 0x13 <__rc3>
    4d20: a8           	tay
    4d21: 18           	clc
    4d22: 8a           	txa
    4d23: 69 08        	adc	#$8
    4d25: 85 14        	sta	$14                     ; 0x14 <__rc4>
    4d27: 98           	tya
    4d28: 69 00        	adc	#$0
    4d2a: 85 15        	sta	$15                     ; 0x15 <__rc5>
    4d2c: 18           	clc
    4d2d: 8a           	txa
    4d2e: 69 04        	adc	#$4
    4d30: 85 16        	sta	$16                     ; 0x16 <__rc6>
    4d32: 98           	tya
    4d33: 69 00        	adc	#$0
    4d35: 85 17        	sta	$17                     ; 0x17 <__rc7>
    4d37: a0 04        	ldy	#$4
    4d39: b1 12        	lda	($12),y                 ; 0x12 <__rc2>
    4d3b: 84 1c        	sty	$1c                     ; 0x1c <__rc12>
    4d3d: 85 18        	sta	$18                     ; 0x18 <__rc8>
    4d3f: a0 01        	ldy	#$1
    4d41: b1 16        	lda	($16),y                 ; 0x16 <__rc6>
    4d43: 85 1b        	sta	$1b                     ; 0x1b <__rc11>
    4d45: 84 19        	sty	$19                     ; 0x19 <__rc9>
    4d47: c8           	iny
    4d48: b1 16        	lda	($16),y                 ; 0x16 <__rc6>
    4d4a: aa           	tax
    4d4b: 84 1a        	sty	$1a                     ; 0x1a <__rc10>
    4d4d: c8           	iny
    4d4e: b1 16        	lda	($16),y                 ; 0x16 <__rc6>
    4d50: 84 1d        	sty	$1d                     ; 0x1d <__rc13>
    4d52: a4 18        	ldy	$18                     ; 0x18 <__rc8>
    4d54: 84 1e        	sty	$1e                     ; 0x1e <__rc14>
    4d56: a4 1b        	ldy	$1b                     ; 0x1b <__rc11>
    4d58: 84 1f        	sty	$1f                     ; 0x1f <__rc15>
    4d5a: 86 22        	stx	$22                     ; 0x22 <__rc18>
    4d5c: e6 1e        	inc	$1e                     ; 0x1e <__rc14>
    4d5e: d0 09        	bne	$4d69 <f256main+0x4369>
    4d60: e6 1f        	inc	$1f                     ; 0x1f <__rc15>
    4d62: d0 05        	bne	$4d69 <f256main+0x4369>
    4d64: e6 22        	inc	$22                     ; 0x22 <__rc18>
    4d66: d0 01        	bne	$4d69 <f256main+0x4369>
    4d68: 1a           	inc
    4d69: 85 23        	sta	$23                     ; 0x23 <__rc19>
    4d6b: a4 1c        	ldy	$1c                     ; 0x1c <__rc12>
    4d6d: a5 1e        	lda	$1e                     ; 0x1e <__rc14>
    4d6f: 91 12        	sta	($12),y                 ; 0x12 <__rc2>
    4d71: a4 19        	ldy	$19                     ; 0x19 <__rc9>
    4d73: a5 1f        	lda	$1f                     ; 0x1f <__rc15>
    4d75: 91 16        	sta	($16),y                 ; 0x16 <__rc6>
    4d77: a4 1a        	ldy	$1a                     ; 0x1a <__rc10>
    4d79: a5 22        	lda	$22                     ; 0x22 <__rc18>
    4d7b: 91 16        	sta	($16),y                 ; 0x16 <__rc6>
    4d7d: a4 1d        	ldy	$1d                     ; 0x1d <__rc13>
    4d7f: a5 23        	lda	$23                     ; 0x23 <__rc19>
    4d81: 91 16        	sta	($16),y                 ; 0x16 <__rc6>
    4d83: 18           	clc
    4d84: a0 08        	ldy	#$8
    4d86: 84 26        	sty	$26                     ; 0x26 <__rc22>
    4d88: a5 18        	lda	$18                     ; 0x18 <__rc8>
    4d8a: 71 12        	adc	($12),y                 ; 0x12 <__rc2>
    4d8c: 85 16        	sta	$16                     ; 0x16 <__rc6>
    4d8e: a5 1b        	lda	$1b                     ; 0x1b <__rc11>
    4d90: a4 19        	ldy	$19                     ; 0x19 <__rc9>
    4d92: 71 14        	adc	($14),y                 ; 0x14 <__rc4>
    4d94: 85 12        	sta	$12                     ; 0x12 <__rc2>
    4d96: 8a           	txa
    4d97: a4 1a        	ldy	$1a                     ; 0x1a <__rc10>
    4d99: 71 14        	adc	($14),y                 ; 0x14 <__rc4>
    4d9b: 85 13        	sta	$13                     ; 0x13 <__rc3>
    4d9d: a5 12        	lda	$12                     ; 0x12 <__rc2>
    4d9f: 06 12        	asl	$12                     ; 0x12 <__rc2>
    4da1: 26 13        	rol	$13                     ; 0x13 <__rc3>
    4da3: 06 12        	asl	$12                     ; 0x12 <__rc2>
    4da5: 26 13        	rol	$13                     ; 0x13 <__rc3>
    4da7: 06 12        	asl	$12                     ; 0x12 <__rc2>
    4da9: 26 13        	rol	$13                     ; 0x13 <__rc3>
    4dab: a4 13        	ldy	$13                     ; 0x13 <__rc3>
    4dad: a6 0f        	ldx	$f                      ; 0xf <__data_size+0xf>
    4daf: 78           	sei
    4db0: 84 0f        	sty	$f                      ; 0xf <__data_size+0xf>
    4db2: a4 16        	ldy	$16                     ; 0x16 <__rc6>
    4db4: 84 12        	sty	$12                     ; 0x12 <__rc2>
    4db6: 09 e0        	ora	#$e0
    4db8: 85 13        	sta	$13                     ; 0x13 <__rc3>
    4dba: b2 12        	lda	($12)                   ; 0x12 <__rc2>
    4dbc: 86 0f        	stx	$f                      ; 0xf <__data_size+0xf>
    4dbe: 58           	cli
    4dbf: aa           	tax
    4dc0: 30 1b        	bmi	$4ddd <f256main+0x43dd>
    4dc2: 64 27        	stz	$27                     ; 0x27 <__rc23>
    4dc4: a2 19        	ldx	#$19
    4dc6: 86 26        	stx	$26                     ; 0x26 <__rc22>
    4dc8: 64 2b        	stz	$2b                     ; 0x2b <__rc27>
    4dca: 64 2f        	stz	$2f                     ; 0x2f <__rc31>
    4dcc: 64 2e        	stz	$2e                     ; 0x2e <__rc30>
    4dce: 64 29        	stz	$29                     ; 0x29 <__rc25>
    4dd0: 64 24        	stz	$24                     ; 0x24 <__rc20>
    4dd2: 64 28        	stz	$28                     ; 0x28 <__rc24>
    4dd4: 64 12        	stz	$12                     ; 0x12 <__rc2>
    4dd6: 64 13        	stz	$13                     ; 0x13 <__rc3>
    4dd8: 64 14        	stz	$14                     ; 0x14 <__rc4>
    4dda: 4c 16 51     	jmp	$5116 <f256main+0x4716>
    4ddd: 64 13        	stz	$13                     ; 0x13 <__rc3>
    4ddf: 4a           	lsr
    4de0: aa           	tax
    4de1: a9 00        	lda	#$0
    4de3: 6a           	ror
    4de4: 29 80        	and	#$80
    4de6: a0 14        	ldy	#$14
    4de8: 91 10        	sta	($10),y                 ; 0x10 <__rc0>
    4dea: 8a           	txa
    4deb: 29 3f        	and	#$3f
    4ded: 85 2b        	sta	$2b                     ; 0x2b <__rc27>
    4def: a6 80        	ldx	$80                     ; 0x80 <theOne.8>
    4df1: 86 29        	stx	$29                     ; 0x29 <__rc25>
    4df3: a6 81        	ldx	$81                     ; 0x81 <theOne.8+0x1>
    4df5: 86 24        	stx	$24                     ; 0x24 <__rc20>
    4df7: a6 27        	ldx	$27                     ; 0x27 <__rc23>
    4df9: 86 12        	stx	$12                     ; 0x12 <__rc2>
    4dfb: a2 00        	ldx	#$0
    4dfd: a5 25        	lda	$25                     ; 0x25 <__rc21>
    4dff: 20 4f 86     	jsr	$864f <__mulhi3>
    4e02: 85 12        	sta	$12                     ; 0x12 <__rc2>
    4e04: 86 13        	stx	$13                     ; 0x13 <__rc3>
    4e06: 18           	clc
    4e07: a5 29        	lda	$29                     ; 0x29 <__rc25>
    4e09: 65 12        	adc	$12                     ; 0x12 <__rc2>
    4e0b: a8           	tay
    4e0c: a5 24        	lda	$24                     ; 0x24 <__rc20>
    4e0e: 65 13        	adc	$13                     ; 0x13 <__rc3>
    4e10: aa           	tax
    4e11: 84 12        	sty	$12                     ; 0x12 <__rc2>
    4e13: 85 13        	sta	$13                     ; 0x13 <__rc3>
    4e15: 18           	clc
    4e16: 98           	tya
    4e17: 69 08        	adc	#$8
    4e19: 85 14        	sta	$14                     ; 0x14 <__rc4>
    4e1b: 8a           	txa
    4e1c: 69 00        	adc	#$0
    4e1e: 85 15        	sta	$15                     ; 0x15 <__rc5>
    4e20: 18           	clc
    4e21: 98           	tya
    4e22: 69 04        	adc	#$4
    4e24: 85 16        	sta	$16                     ; 0x16 <__rc6>
    4e26: 8a           	txa
    4e27: 69 00        	adc	#$0
    4e29: 85 17        	sta	$17                     ; 0x17 <__rc7>
    4e2b: a0 04        	ldy	#$4
    4e2d: b1 12        	lda	($12),y                 ; 0x12 <__rc2>
    4e2f: 84 1c        	sty	$1c                     ; 0x1c <__rc12>
    4e31: 85 18        	sta	$18                     ; 0x18 <__rc8>
    4e33: a0 01        	ldy	#$1
    4e35: b1 16        	lda	($16),y                 ; 0x16 <__rc6>
    4e37: 85 1b        	sta	$1b                     ; 0x1b <__rc11>
    4e39: 84 19        	sty	$19                     ; 0x19 <__rc9>
    4e3b: c8           	iny
    4e3c: b1 16        	lda	($16),y                 ; 0x16 <__rc6>
    4e3e: 85 22        	sta	$22                     ; 0x22 <__rc18>
    4e40: 84 1a        	sty	$1a                     ; 0x1a <__rc10>
    4e42: c8           	iny
    4e43: b1 16        	lda	($16),y                 ; 0x16 <__rc6>
    4e45: 85 1f        	sta	$1f                     ; 0x1f <__rc15>
    4e47: 84 1d        	sty	$1d                     ; 0x1d <__rc13>
    4e49: a5 18        	lda	$18                     ; 0x18 <__rc8>
    4e4b: a4 1b        	ldy	$1b                     ; 0x1b <__rc11>
    4e4d: a6 22        	ldx	$22                     ; 0x22 <__rc18>
    4e4f: 1a           	inc
    4e50: d0 09        	bne	$4e5b <f256main+0x445b>
    4e52: c8           	iny
    4e53: d0 06        	bne	$4e5b <f256main+0x445b>
    4e55: e6 22        	inc	$22                     ; 0x22 <__rc18>
    4e57: d0 02        	bne	$4e5b <f256main+0x445b>
    4e59: e6 1f        	inc	$1f                     ; 0x1f <__rc15>
    4e5b: 84 23        	sty	$23                     ; 0x23 <__rc19>
    4e5d: a4 1c        	ldy	$1c                     ; 0x1c <__rc12>
    4e5f: 91 12        	sta	($12),y                 ; 0x12 <__rc2>
    4e61: a4 19        	ldy	$19                     ; 0x19 <__rc9>
    4e63: a5 23        	lda	$23                     ; 0x23 <__rc19>
    4e65: 91 16        	sta	($16),y                 ; 0x16 <__rc6>
    4e67: a4 1a        	ldy	$1a                     ; 0x1a <__rc10>
    4e69: a5 22        	lda	$22                     ; 0x22 <__rc18>
    4e6b: 91 16        	sta	($16),y                 ; 0x16 <__rc6>
    4e6d: a4 1d        	ldy	$1d                     ; 0x1d <__rc13>
    4e6f: a5 1f        	lda	$1f                     ; 0x1f <__rc15>
    4e71: 91 16        	sta	($16),y                 ; 0x16 <__rc6>
    4e73: 18           	clc
    4e74: a4 26        	ldy	$26                     ; 0x26 <__rc22>
    4e76: a5 18        	lda	$18                     ; 0x18 <__rc8>
    4e78: 71 12        	adc	($12),y                 ; 0x12 <__rc2>
    4e7a: 85 13        	sta	$13                     ; 0x13 <__rc3>
    4e7c: a5 1b        	lda	$1b                     ; 0x1b <__rc11>
    4e7e: a4 19        	ldy	$19                     ; 0x19 <__rc9>
    4e80: 71 14        	adc	($14),y                 ; 0x14 <__rc4>
    4e82: 85 12        	sta	$12                     ; 0x12 <__rc2>
    4e84: 8a           	txa
    4e85: a4 1a        	ldy	$1a                     ; 0x1a <__rc10>
    4e87: 71 14        	adc	($14),y                 ; 0x14 <__rc4>
    4e89: 85 14        	sta	$14                     ; 0x14 <__rc4>
    4e8b: a5 12        	lda	$12                     ; 0x12 <__rc2>
    4e8d: 06 12        	asl	$12                     ; 0x12 <__rc2>
    4e8f: 26 14        	rol	$14                     ; 0x14 <__rc4>
    4e91: 06 12        	asl	$12                     ; 0x12 <__rc2>
    4e93: 26 14        	rol	$14                     ; 0x14 <__rc4>
    4e95: 06 12        	asl	$12                     ; 0x12 <__rc2>
    4e97: 26 14        	rol	$14                     ; 0x14 <__rc4>
    4e99: a4 14        	ldy	$14                     ; 0x14 <__rc4>
    4e9b: a6 0f        	ldx	$f                      ; 0xf <__data_size+0xf>
    4e9d: 78           	sei
    4e9e: 84 0f        	sty	$f                      ; 0xf <__data_size+0xf>
    4ea0: a4 13        	ldy	$13                     ; 0x13 <__rc3>
    4ea2: 84 12        	sty	$12                     ; 0x12 <__rc2>
    4ea4: 09 e0        	ora	#$e0
    4ea6: 85 13        	sta	$13                     ; 0x13 <__rc3>
    4ea8: b2 12        	lda	($12)                   ; 0x12 <__rc2>
    4eaa: 86 0f        	stx	$f                      ; 0xf <__data_size+0xf>
    4eac: 58           	cli
    4ead: aa           	tax
    4eae: 30 1d        	bmi	$4ecd <f256main+0x44cd>
    4eb0: 64 27        	stz	$27                     ; 0x27 <__rc23>
    4eb2: a2 19        	ldx	#$19
    4eb4: 86 26        	stx	$26                     ; 0x26 <__rc22>
    4eb6: 64 2e        	stz	$2e                     ; 0x2e <__rc30>
    4eb8: 64 24        	stz	$24                     ; 0x24 <__rc20>
    4eba: 64 28        	stz	$28                     ; 0x28 <__rc24>
    4ebc: 64 12        	stz	$12                     ; 0x12 <__rc2>
    4ebe: 64 2f        	stz	$2f                     ; 0x2f <__rc31>
    4ec0: 64 13        	stz	$13                     ; 0x13 <__rc3>
    4ec2: 64 14        	stz	$14                     ; 0x14 <__rc4>
    4ec4: 85 29        	sta	$29                     ; 0x29 <__rc25>
    4ec6: a0 14        	ldy	#$14
    4ec8: b1 10        	lda	($10),y                 ; 0x10 <__rc0>
    4eca: 4c 16 51     	jmp	$5116 <f256main+0x4716>
    4ecd: 4a           	lsr
    4ece: aa           	tax
    4ecf: a9 00        	lda	#$0
    4ed1: 6a           	ror
    4ed2: a4 2b        	ldy	$2b                     ; 0x2b <__rc27>
    4ed4: 84 2f        	sty	$2f                     ; 0x2f <__rc31>
    4ed6: 46 2f        	lsr	$2f                     ; 0x2f <__rc31>
    4ed8: 48           	pha
    4ed9: a0 14        	ldy	#$14
    4edb: b1 10        	lda	($10),y                 ; 0x10 <__rc0>
    4edd: 85 2b        	sta	$2b                     ; 0x2b <__rc27>
    4edf: 66 2b        	ror	$2b                     ; 0x2b <__rc27>
    4ee1: 64 14        	stz	$14                     ; 0x14 <__rc4>
    4ee3: 66 14        	ror	$14                     ; 0x14 <__rc4>
    4ee5: a5 14        	lda	$14                     ; 0x14 <__rc4>
    4ee7: 91 10        	sta	($10),y                 ; 0x10 <__rc0>
    4ee9: 68           	pla
    4eea: 64 13        	stz	$13                     ; 0x13 <__rc3>
    4eec: 29 80        	and	#$80
    4eee: 85 29        	sta	$29                     ; 0x29 <__rc25>
    4ef0: 8a           	txa
    4ef1: 29 3f        	and	#$3f
    4ef3: 85 24        	sta	$24                     ; 0x24 <__rc20>
    4ef5: a6 80        	ldx	$80                     ; 0x80 <theOne.8>
    4ef7: 86 2a        	stx	$2a                     ; 0x2a <__rc26>
    4ef9: a6 81        	ldx	$81                     ; 0x81 <theOne.8+0x1>
    4efb: 86 2e        	stx	$2e                     ; 0x2e <__rc30>
    4efd: a6 27        	ldx	$27                     ; 0x27 <__rc23>
    4eff: 86 12        	stx	$12                     ; 0x12 <__rc2>
    4f01: a2 00        	ldx	#$0
    4f03: a5 25        	lda	$25                     ; 0x25 <__rc21>
    4f05: 20 4f 86     	jsr	$864f <__mulhi3>
    4f08: 85 12        	sta	$12                     ; 0x12 <__rc2>
    4f0a: 86 13        	stx	$13                     ; 0x13 <__rc3>
    4f0c: 18           	clc
    4f0d: a5 2a        	lda	$2a                     ; 0x2a <__rc26>
    4f0f: 65 12        	adc	$12                     ; 0x12 <__rc2>
    4f11: a8           	tay
    4f12: a5 2e        	lda	$2e                     ; 0x2e <__rc30>
    4f14: 65 13        	adc	$13                     ; 0x13 <__rc3>
    4f16: aa           	tax
    4f17: 84 12        	sty	$12                     ; 0x12 <__rc2>
    4f19: 85 13        	sta	$13                     ; 0x13 <__rc3>
    4f1b: 18           	clc
    4f1c: 98           	tya
    4f1d: 69 08        	adc	#$8
    4f1f: 85 14        	sta	$14                     ; 0x14 <__rc4>
    4f21: 8a           	txa
    4f22: 69 00        	adc	#$0
    4f24: 85 15        	sta	$15                     ; 0x15 <__rc5>
    4f26: 18           	clc
    4f27: 98           	tya
    4f28: 69 04        	adc	#$4
    4f2a: 85 16        	sta	$16                     ; 0x16 <__rc6>
    4f2c: 8a           	txa
    4f2d: 69 00        	adc	#$0
    4f2f: 85 17        	sta	$17                     ; 0x17 <__rc7>
    4f31: a0 04        	ldy	#$4
    4f33: b1 12        	lda	($12),y                 ; 0x12 <__rc2>
    4f35: 84 1c        	sty	$1c                     ; 0x1c <__rc12>
    4f37: 85 18        	sta	$18                     ; 0x18 <__rc8>
    4f39: a0 01        	ldy	#$1
    4f3b: b1 16        	lda	($16),y                 ; 0x16 <__rc6>
    4f3d: 85 1b        	sta	$1b                     ; 0x1b <__rc11>
    4f3f: 84 19        	sty	$19                     ; 0x19 <__rc9>
    4f41: c8           	iny
    4f42: b1 16        	lda	($16),y                 ; 0x16 <__rc6>
    4f44: 85 1f        	sta	$1f                     ; 0x1f <__rc15>
    4f46: 84 1a        	sty	$1a                     ; 0x1a <__rc10>
    4f48: c8           	iny
    4f49: b1 16        	lda	($16),y                 ; 0x16 <__rc6>
    4f4b: 84 1d        	sty	$1d                     ; 0x1d <__rc13>
    4f4d: a6 18        	ldx	$18                     ; 0x18 <__rc8>
    4f4f: 86 1e        	stx	$1e                     ; 0x1e <__rc14>
    4f51: a6 1b        	ldx	$1b                     ; 0x1b <__rc11>
    4f53: 86 22        	stx	$22                     ; 0x22 <__rc18>
    4f55: a6 1f        	ldx	$1f                     ; 0x1f <__rc15>
    4f57: 86 23        	stx	$23                     ; 0x23 <__rc19>
    4f59: a6 1f        	ldx	$1f                     ; 0x1f <__rc15>
    4f5b: e6 1e        	inc	$1e                     ; 0x1e <__rc14>
    4f5d: d0 09        	bne	$4f68 <f256main+0x4568>
    4f5f: e6 22        	inc	$22                     ; 0x22 <__rc18>
    4f61: d0 05        	bne	$4f68 <f256main+0x4568>
    4f63: e6 23        	inc	$23                     ; 0x23 <__rc19>
    4f65: d0 01        	bne	$4f68 <f256main+0x4568>
    4f67: 1a           	inc
    4f68: 85 1f        	sta	$1f                     ; 0x1f <__rc15>
    4f6a: a4 1c        	ldy	$1c                     ; 0x1c <__rc12>
    4f6c: a5 1e        	lda	$1e                     ; 0x1e <__rc14>
    4f6e: 91 12        	sta	($12),y                 ; 0x12 <__rc2>
    4f70: a4 19        	ldy	$19                     ; 0x19 <__rc9>
    4f72: a5 22        	lda	$22                     ; 0x22 <__rc18>
    4f74: 91 16        	sta	($16),y                 ; 0x16 <__rc6>
    4f76: a4 1a        	ldy	$1a                     ; 0x1a <__rc10>
    4f78: a5 23        	lda	$23                     ; 0x23 <__rc19>
    4f7a: 91 16        	sta	($16),y                 ; 0x16 <__rc6>
    4f7c: a4 1d        	ldy	$1d                     ; 0x1d <__rc13>
    4f7e: a5 1f        	lda	$1f                     ; 0x1f <__rc15>
    4f80: 91 16        	sta	($16),y                 ; 0x16 <__rc6>
    4f82: 18           	clc
    4f83: a4 26        	ldy	$26                     ; 0x26 <__rc22>
    4f85: 84 16        	sty	$16                     ; 0x16 <__rc6>
    4f87: a5 18        	lda	$18                     ; 0x18 <__rc8>
    4f89: 71 12        	adc	($12),y                 ; 0x12 <__rc2>
    4f8b: 85 13        	sta	$13                     ; 0x13 <__rc3>
    4f8d: a5 1b        	lda	$1b                     ; 0x1b <__rc11>
    4f8f: a4 19        	ldy	$19                     ; 0x19 <__rc9>
    4f91: 71 14        	adc	($14),y                 ; 0x14 <__rc4>
    4f93: 85 12        	sta	$12                     ; 0x12 <__rc2>
    4f95: 8a           	txa
    4f96: a4 1a        	ldy	$1a                     ; 0x1a <__rc10>
    4f98: 71 14        	adc	($14),y                 ; 0x14 <__rc4>
    4f9a: 85 14        	sta	$14                     ; 0x14 <__rc4>
    4f9c: a5 12        	lda	$12                     ; 0x12 <__rc2>
    4f9e: 06 12        	asl	$12                     ; 0x12 <__rc2>
    4fa0: 26 14        	rol	$14                     ; 0x14 <__rc4>
    4fa2: 06 12        	asl	$12                     ; 0x12 <__rc2>
    4fa4: 26 14        	rol	$14                     ; 0x14 <__rc4>
    4fa6: 06 12        	asl	$12                     ; 0x12 <__rc2>
    4fa8: 26 14        	rol	$14                     ; 0x14 <__rc4>
    4faa: a4 14        	ldy	$14                     ; 0x14 <__rc4>
    4fac: a6 0f        	ldx	$f                      ; 0xf <__data_size+0xf>
    4fae: 78           	sei
    4faf: 84 0f        	sty	$f                      ; 0xf <__data_size+0xf>
    4fb1: a4 13        	ldy	$13                     ; 0x13 <__rc3>
    4fb3: 84 12        	sty	$12                     ; 0x12 <__rc2>
    4fb5: 09 e0        	ora	#$e0
    4fb7: 85 13        	sta	$13                     ; 0x13 <__rc3>
    4fb9: b2 12        	lda	($12)                   ; 0x12 <__rc2>
    4fbb: 86 0f        	stx	$f                      ; 0xf <__data_size+0xf>
    4fbd: 58           	cli
    4fbe: aa           	tax
    4fbf: 30 17        	bmi	$4fd8 <f256main+0x45d8>
    4fc1: 64 27        	stz	$27                     ; 0x27 <__rc23>
    4fc3: a2 19        	ldx	#$19
    4fc5: 86 26        	stx	$26                     ; 0x26 <__rc22>
    4fc7: 64 28        	stz	$28                     ; 0x28 <__rc24>
    4fc9: 85 12        	sta	$12                     ; 0x12 <__rc2>
    4fcb: 64 13        	stz	$13                     ; 0x13 <__rc3>
    4fcd: 64 2e        	stz	$2e                     ; 0x2e <__rc30>
    4fcf: 64 14        	stz	$14                     ; 0x14 <__rc4>
    4fd1: a0 14        	ldy	#$14
    4fd3: b1 10        	lda	($10),y                 ; 0x10 <__rc0>
    4fd5: 4c 14 51     	jmp	$5114 <f256main+0x4714>
    4fd8: 85 17        	sta	$17                     ; 0x17 <__rc7>
    4fda: 46 17        	lsr	$17                     ; 0x17 <__rc7>
    4fdc: 64 12        	stz	$12                     ; 0x12 <__rc2>
    4fde: 66 12        	ror	$12                     ; 0x12 <__rc2>
    4fe0: 46 24        	lsr	$24                     ; 0x24 <__rc20>
    4fe2: a5 24        	lda	$24                     ; 0x24 <__rc20>
    4fe4: a0 05        	ldy	#$5
    4fe6: 91 10        	sta	($10),y                 ; 0x10 <__rc0>
    4fe8: 66 29        	ror	$29                     ; 0x29 <__rc25>
    4fea: a6 29        	ldx	$29                     ; 0x29 <__rc25>
    4fec: 86 24        	stx	$24                     ; 0x24 <__rc20>
    4fee: 64 29        	stz	$29                     ; 0x29 <__rc25>
    4ff0: 66 29        	ror	$29                     ; 0x29 <__rc25>
    4ff2: 46 2f        	lsr	$2f                     ; 0x2f <__rc31>
    4ff4: a6 2f        	ldx	$2f                     ; 0x2f <__rc31>
    4ff6: 86 2e        	stx	$2e                     ; 0x2e <__rc30>
    4ff8: 66 2b        	ror	$2b                     ; 0x2b <__rc27>
    4ffa: a6 2b        	ldx	$2b                     ; 0x2b <__rc27>
    4ffc: 86 2f        	stx	$2f                     ; 0x2f <__rc31>
    4ffe: a0 14        	ldy	#$14
    5000: b1 10        	lda	($10),y                 ; 0x10 <__rc0>
    5002: 85 2a        	sta	$2a                     ; 0x2a <__rc26>
    5004: 66 2a        	ror	$2a                     ; 0x2a <__rc26>
    5006: a6 2a        	ldx	$2a                     ; 0x2a <__rc26>
    5008: 86 2b        	stx	$2b                     ; 0x2b <__rc27>
    500a: a9 00        	lda	#$0
    500c: 6a           	ror
    500d: 91 10        	sta	($10),y                 ; 0x10 <__rc0>
    500f: a5 12        	lda	$12                     ; 0x12 <__rc2>
    5011: 29 80        	and	#$80
    5013: a0 08        	ldy	#$8
    5015: 91 10        	sta	($10),y                 ; 0x10 <__rc0>
    5017: a5 17        	lda	$17                     ; 0x17 <__rc7>
    5019: 29 3f        	and	#$3f
    501b: a0 04        	ldy	#$4
    501d: 91 10        	sta	($10),y                 ; 0x10 <__rc0>
    501f: a6 80        	ldx	$80                     ; 0x80 <theOne.8>
    5021: 86 2a        	stx	$2a                     ; 0x2a <__rc26>
    5023: a6 81        	ldx	$81                     ; 0x81 <theOne.8+0x1>
    5025: 8a           	txa
    5026: 88           	dey
    5027: 91 10        	sta	($10),y                 ; 0x10 <__rc0>
    5029: a6 27        	ldx	$27                     ; 0x27 <__rc23>
    502b: 86 26        	stx	$26                     ; 0x26 <__rc22>
    502d: a6 27        	ldx	$27                     ; 0x27 <__rc23>
    502f: 86 12        	stx	$12                     ; 0x12 <__rc2>
    5031: 64 13        	stz	$13                     ; 0x13 <__rc3>
    5033: 64 27        	stz	$27                     ; 0x27 <__rc23>
    5035: a2 00        	ldx	#$0
    5037: a5 25        	lda	$25                     ; 0x25 <__rc21>
    5039: a4 16        	ldy	$16                     ; 0x16 <__rc6>
    503b: 84 28        	sty	$28                     ; 0x28 <__rc24>
    503d: 20 4f 86     	jsr	$864f <__mulhi3>
    5040: 85 12        	sta	$12                     ; 0x12 <__rc2>
    5042: 86 13        	stx	$13                     ; 0x13 <__rc3>
    5044: 18           	clc
    5045: a5 2a        	lda	$2a                     ; 0x2a <__rc26>
    5047: 65 12        	adc	$12                     ; 0x12 <__rc2>
    5049: a8           	tay
    504a: 5a           	phy
    504b: a0 03        	ldy	#$3
    504d: b1 10        	lda	($10),y                 ; 0x10 <__rc0>
    504f: 7a           	ply
    5050: 65 13        	adc	$13                     ; 0x13 <__rc3>
    5052: aa           	tax
    5053: 18           	clc
    5054: 98           	tya
    5055: 69 08        	adc	#$8
    5057: 85 12        	sta	$12                     ; 0x12 <__rc2>
    5059: 8a           	txa
    505a: 69 00        	adc	#$0
    505c: 84 14        	sty	$14                     ; 0x14 <__rc4>
    505e: 86 15        	stx	$15                     ; 0x15 <__rc5>
    5060: 85 13        	sta	$13                     ; 0x13 <__rc3>
    5062: 18           	clc
    5063: 98           	tya
    5064: 69 04        	adc	#$4
    5066: 85 16        	sta	$16                     ; 0x16 <__rc6>
    5068: 8a           	txa
    5069: 69 00        	adc	#$0
    506b: 85 17        	sta	$17                     ; 0x17 <__rc7>
    506d: a0 04        	ldy	#$4
    506f: b1 14        	lda	($14),y                 ; 0x14 <__rc4>
    5071: 84 1c        	sty	$1c                     ; 0x1c <__rc12>
    5073: 85 18        	sta	$18                     ; 0x18 <__rc8>
    5075: a0 01        	ldy	#$1
    5077: b1 16        	lda	($16),y                 ; 0x16 <__rc6>
    5079: 85 1b        	sta	$1b                     ; 0x1b <__rc11>
    507b: 84 19        	sty	$19                     ; 0x19 <__rc9>
    507d: c8           	iny
    507e: b1 16        	lda	($16),y                 ; 0x16 <__rc6>
    5080: 85 1f        	sta	$1f                     ; 0x1f <__rc15>
    5082: 84 1a        	sty	$1a                     ; 0x1a <__rc10>
    5084: c8           	iny
    5085: b1 16        	lda	($16),y                 ; 0x16 <__rc6>
    5087: 84 1d        	sty	$1d                     ; 0x1d <__rc13>
    5089: a6 18        	ldx	$18                     ; 0x18 <__rc8>
    508b: 86 1e        	stx	$1e                     ; 0x1e <__rc14>
    508d: a6 1b        	ldx	$1b                     ; 0x1b <__rc11>
    508f: 86 22        	stx	$22                     ; 0x22 <__rc18>
    5091: a6 1f        	ldx	$1f                     ; 0x1f <__rc15>
    5093: 86 23        	stx	$23                     ; 0x23 <__rc19>
    5095: a6 1f        	ldx	$1f                     ; 0x1f <__rc15>
    5097: e6 1e        	inc	$1e                     ; 0x1e <__rc14>
    5099: d0 07        	bne	$50a2 <f256main+0x46a2>
    509b: e6 22        	inc	$22                     ; 0x22 <__rc18>
    509d: d0 03        	bne	$50a2 <f256main+0x46a2>
    509f: 4c 27 53     	jmp	$5327 <f256main+0x4927>
    50a2: 85 1f        	sta	$1f                     ; 0x1f <__rc15>
    50a4: a4 1c        	ldy	$1c                     ; 0x1c <__rc12>
    50a6: a5 1e        	lda	$1e                     ; 0x1e <__rc14>
    50a8: 91 14        	sta	($14),y                 ; 0x14 <__rc4>
    50aa: a4 19        	ldy	$19                     ; 0x19 <__rc9>
    50ac: a5 22        	lda	$22                     ; 0x22 <__rc18>
    50ae: 91 16        	sta	($16),y                 ; 0x16 <__rc6>
    50b0: a4 1a        	ldy	$1a                     ; 0x1a <__rc10>
    50b2: a5 23        	lda	$23                     ; 0x23 <__rc19>
    50b4: 91 16        	sta	($16),y                 ; 0x16 <__rc6>
    50b6: a4 1d        	ldy	$1d                     ; 0x1d <__rc13>
    50b8: a5 1f        	lda	$1f                     ; 0x1f <__rc15>
    50ba: 91 16        	sta	($16),y                 ; 0x16 <__rc6>
    50bc: 18           	clc
    50bd: a5 18        	lda	$18                     ; 0x18 <__rc8>
    50bf: a4 28        	ldy	$28                     ; 0x28 <__rc24>
    50c1: 71 14        	adc	($14),y                 ; 0x14 <__rc4>
    50c3: 85 14        	sta	$14                     ; 0x14 <__rc4>
    50c5: a5 1b        	lda	$1b                     ; 0x1b <__rc11>
    50c7: a4 19        	ldy	$19                     ; 0x19 <__rc9>
    50c9: 71 12        	adc	($12),y                 ; 0x12 <__rc2>
    50cb: 85 15        	sta	$15                     ; 0x15 <__rc5>
    50cd: 8a           	txa
    50ce: a4 1a        	ldy	$1a                     ; 0x1a <__rc10>
    50d0: 71 12        	adc	($12),y                 ; 0x12 <__rc2>
    50d2: 85 13        	sta	$13                     ; 0x13 <__rc3>
    50d4: a5 15        	lda	$15                     ; 0x15 <__rc5>
    50d6: 85 12        	sta	$12                     ; 0x12 <__rc2>
    50d8: 06 12        	asl	$12                     ; 0x12 <__rc2>
    50da: 26 13        	rol	$13                     ; 0x13 <__rc3>
    50dc: 06 12        	asl	$12                     ; 0x12 <__rc2>
    50de: 26 13        	rol	$13                     ; 0x13 <__rc3>
    50e0: 06 12        	asl	$12                     ; 0x12 <__rc2>
    50e2: 26 13        	rol	$13                     ; 0x13 <__rc3>
    50e4: a4 13        	ldy	$13                     ; 0x13 <__rc3>
    50e6: a6 0f        	ldx	$f                      ; 0xf <__data_size+0xf>
    50e8: 78           	sei
    50e9: 84 0f        	sty	$f                      ; 0xf <__data_size+0xf>
    50eb: a4 14        	ldy	$14                     ; 0x14 <__rc4>
    50ed: 84 12        	sty	$12                     ; 0x12 <__rc2>
    50ef: 09 e0        	ora	#$e0
    50f1: 85 13        	sta	$13                     ; 0x13 <__rc3>
    50f3: b2 12        	lda	($12)                   ; 0x12 <__rc2>
    50f5: 86 0f        	stx	$f                      ; 0xf <__data_size+0xf>
    50f7: 48           	pha
    50f8: a0 08        	ldy	#$8
    50fa: b1 10        	lda	($10),y                 ; 0x10 <__rc0>
    50fc: 85 12        	sta	$12                     ; 0x12 <__rc2>
    50fe: a0 04        	ldy	#$4
    5100: b1 10        	lda	($10),y                 ; 0x10 <__rc0>
    5102: 85 13        	sta	$13                     ; 0x13 <__rc3>
    5104: 68           	pla
    5105: 85 14        	sta	$14                     ; 0x14 <__rc4>
    5107: a0 14        	ldy	#$14
    5109: b1 10        	lda	($10),y                 ; 0x10 <__rc0>
    510b: 58           	cli
    510c: 48           	pha
    510d: a0 05        	ldy	#$5
    510f: b1 10        	lda	($10),y                 ; 0x10 <__rc0>
    5111: 85 28        	sta	$28                     ; 0x28 <__rc24>
    5113: 68           	pla
    5114: 64 2a        	stz	$2a                     ; 0x2a <__rc26>
    5116: 05 29        	ora	$29                     ; 0x29 <__rc25>
    5118: aa           	tax
    5119: a5 2b        	lda	$2b                     ; 0x2b <__rc27>
    511b: 05 24        	ora	$24                     ; 0x24 <__rc20>
    511d: 85 15        	sta	$15                     ; 0x15 <__rc5>
    511f: a5 2f        	lda	$2f                     ; 0x2f <__rc31>
    5121: 05 28        	ora	$28                     ; 0x28 <__rc24>
    5123: 85 29        	sta	$29                     ; 0x29 <__rc25>
    5125: 8a           	txa
    5126: 05 12        	ora	$12                     ; 0x12 <__rc2>
    5128: aa           	tax
    5129: a5 15        	lda	$15                     ; 0x15 <__rc5>
    512b: 05 13        	ora	$13                     ; 0x13 <__rc3>
    512d: 85 28        	sta	$28                     ; 0x28 <__rc24>
    512f: 8a           	txa
    5130: 05 14        	ora	$14                     ; 0x14 <__rc4>
    5132: a6 80        	ldx	$80                     ; 0x80 <theOne.8>
    5134: 86 2f        	stx	$2f                     ; 0x2f <__rc31>
    5136: a6 81        	ldx	$81                     ; 0x81 <theOne.8+0x1>
    5138: 86 2b        	stx	$2b                     ; 0x2b <__rc27>
    513a: a6 26        	ldx	$26                     ; 0x26 <__rc22>
    513c: 86 12        	stx	$12                     ; 0x12 <__rc2>
    513e: 64 13        	stz	$13                     ; 0x13 <__rc3>
    5140: a2 00        	ldx	#$0
    5142: 85 27        	sta	$27                     ; 0x27 <__rc23>
    5144: a5 25        	lda	$25                     ; 0x25 <__rc21>
    5146: 20 4f 86     	jsr	$864f <__mulhi3>
    5149: 85 12        	sta	$12                     ; 0x12 <__rc2>
    514b: 86 13        	stx	$13                     ; 0x13 <__rc3>
    514d: 18           	clc
    514e: a2 01        	ldx	#$1
    5150: b0 02        	bcs	$5154 <f256main+0x4754>
    5152: a2 00        	ldx	#$0
    5154: 86 24        	stx	$24                     ; 0x24 <__rc20>
    5156: a5 2f        	lda	$2f                     ; 0x2f <__rc31>
    5158: 65 12        	adc	$12                     ; 0x12 <__rc2>
    515a: a8           	tay
    515b: a5 2b        	lda	$2b                     ; 0x2b <__rc27>
    515d: 65 13        	adc	$13                     ; 0x13 <__rc3>
    515f: aa           	tax
    5160: 98           	tya
    5161: 84 12        	sty	$12                     ; 0x12 <__rc2>
    5163: 86 13        	stx	$13                     ; 0x13 <__rc3>
    5165: 18           	clc
    5166: 69 0c        	adc	#$c
    5168: 85 14        	sta	$14                     ; 0x14 <__rc4>
    516a: 8a           	txa
    516b: 69 00        	adc	#$0
    516d: 85 15        	sta	$15                     ; 0x15 <__rc5>
    516f: a0 0c        	ldy	#$c
    5171: a5 27        	lda	$27                     ; 0x27 <__rc23>
    5173: 91 12        	sta	($12),y                 ; 0x12 <__rc2>
    5175: a0 01        	ldy	#$1
    5177: a5 28        	lda	$28                     ; 0x28 <__rc24>
    5179: 91 14        	sta	($14),y                 ; 0x14 <__rc4>
    517b: c8           	iny
    517c: a5 29        	lda	$29                     ; 0x29 <__rc25>
    517e: 91 14        	sta	($14),y                 ; 0x14 <__rc4>
    5180: c8           	iny
    5181: a2 03        	ldx	#$3
    5183: 86 27        	stx	$27                     ; 0x27 <__rc23>
    5185: a5 2e        	lda	$2e                     ; 0x2e <__rc30>
    5187: 91 14        	sta	($14),y                 ; 0x14 <__rc4>
    5189: a5 25        	lda	$25                     ; 0x25 <__rc21>
    518b: 20 e2 66     	jsr	$66e2 <readMIDICmd>
    518e: a5 7c        	lda	$7c                     ; 0x7c <theOne.6>
    5190: a6 80        	ldx	$80                     ; 0x80 <theOne.8>
    5192: a4 81        	ldy	$81                     ; 0x81 <theOne.8+0x1>
    5194: 86 2e        	stx	$2e                     ; 0x2e <__rc30>
    5196: 84 2f        	sty	$2f                     ; 0x2f <__rc31>
    5198: 64 13        	stz	$13                     ; 0x13 <__rc3>
    519a: a2 18        	ldx	#$18
    519c: 86 28        	stx	$28                     ; 0x28 <__rc24>
    519e: a6 26        	ldx	$26                     ; 0x26 <__rc22>
    51a0: 86 12        	stx	$12                     ; 0x12 <__rc2>
    51a2: a2 00        	ldx	#$0
    51a4: a0 14        	ldy	#$14
    51a6: 91 10        	sta	($10),y                 ; 0x10 <__rc0>
    51a8: 20 4f 86     	jsr	$864f <__mulhi3>
    51ab: a4 24        	ldy	$24                     ; 0x24 <__rc20>
    51ad: c0 01        	cpy	#$1
    51af: 65 2e        	adc	$2e                     ; 0x2e <__rc30>
    51b1: 85 12        	sta	$12                     ; 0x12 <__rc2>
    51b3: 8a           	txa
    51b4: 65 2f        	adc	$2f                     ; 0x2f <__rc31>
    51b6: 85 14        	sta	$14                     ; 0x14 <__rc4>
    51b8: 85 13        	sta	$13                     ; 0x13 <__rc3>
    51ba: a4 28        	ldy	$28                     ; 0x28 <__rc24>
    51bc: b1 12        	lda	($12),y                 ; 0x12 <__rc2>
    51be: f0 19        	beq	$51d9 <f256main+0x47d9>
    51c0: 64 77        	stz	$77                     ; 0x77 <theOne.4>
    51c2: a0 0d        	ldy	#$d
    51c4: b1 10        	lda	($10),y                 ; 0x10 <__rc0>
    51c6: 85 2a        	sta	$2a                     ; 0x2a <__rc26>
    51c8: c8           	iny
    51c9: b1 10        	lda	($10),y                 ; 0x10 <__rc0>
    51cb: 85 2b        	sta	$2b                     ; 0x2b <__rc27>
    51cd: a6 6f        	ldx	$6f                     ; 0x6f <theOne.0>
    51cf: a4 70        	ldy	$70                     ; 0x70 <theOne.0+0x1>
    51d1: f0 03        	beq	$51d6 <f256main+0x47d6>
    51d3: 4c b9 3b     	jmp	$3bb9 <f256main+0x31b9>
    51d6: 4c b3 3b     	jmp	$3bb3 <f256main+0x31b3>
    51d9: 18           	clc
    51da: a5 12        	lda	$12                     ; 0x12 <__rc2>
    51dc: 69 0c        	adc	#$c
    51de: aa           	tax
    51df: a5 14        	lda	$14                     ; 0x14 <__rc4>
    51e1: 69 00        	adc	#$0
    51e3: 86 14        	stx	$14                     ; 0x14 <__rc4>
    51e5: 85 15        	sta	$15                     ; 0x15 <__rc5>
    51e7: a0 0c        	ldy	#$c
    51e9: b1 12        	lda	($12),y                 ; 0x12 <__rc2>
    51eb: 85 12        	sta	$12                     ; 0x12 <__rc2>
    51ed: a0 01        	ldy	#$1
    51ef: b1 14        	lda	($14),y                 ; 0x14 <__rc4>
    51f1: 85 13        	sta	$13                     ; 0x13 <__rc3>
    51f3: c8           	iny
    51f4: b1 14        	lda	($14),y                 ; 0x14 <__rc4>
    51f6: 85 16        	sta	$16                     ; 0x16 <__rc6>
    51f8: c8           	iny
    51f9: a2 03        	ldx	#$3
    51fb: 86 27        	stx	$27                     ; 0x27 <__rc23>
    51fd: b1 14        	lda	($14),y                 ; 0x14 <__rc4>
    51ff: d0 bf        	bne	$51c0 <f256main+0x47c0>
    5201: a5 16        	lda	$16                     ; 0x16 <__rc6>
    5203: d0 bb        	bne	$51c0 <f256main+0x47c0>
    5205: a5 13        	lda	$13                     ; 0x13 <__rc3>
    5207: d0 b7        	bne	$51c0 <f256main+0x47c0>
    5209: a5 12        	lda	$12                     ; 0x12 <__rc2>
    520b: d0 b3        	bne	$51c0 <f256main+0x47c0>
    520d: a2 19        	ldx	#$19
    520f: 86 12        	stx	$12                     ; 0x12 <__rc2>
    5211: 86 25        	stx	$25                     ; 0x25 <__rc21>
    5213: 64 13        	stz	$13                     ; 0x13 <__rc3>
    5215: a6 2a        	ldx	$2a                     ; 0x2a <__rc26>
    5217: a0 14        	ldy	#$14
    5219: b1 10        	lda	($10),y                 ; 0x10 <__rc0>
    521b: 20 4f 86     	jsr	$864f <__mulhi3>
    521e: 18           	clc
    521f: 65 2e        	adc	$2e                     ; 0x2e <__rc30>
    5221: 85 12        	sta	$12                     ; 0x12 <__rc2>
    5223: 8a           	txa
    5224: 65 2f        	adc	$2f                     ; 0x2f <__rc31>
    5226: a6 12        	ldx	$12                     ; 0x12 <__rc2>
    5228: 86 16        	stx	$16                     ; 0x16 <__rc6>
    522a: 85 17        	sta	$17                     ; 0x17 <__rc7>
    522c: a0 10        	ldy	#$10
    522e: b1 16        	lda	($16),y                 ; 0x16 <__rc6>
    5230: aa           	tax
    5231: c8           	iny
    5232: b1 16        	lda	($16),y                 ; 0x16 <__rc6>
    5234: e0 ff        	cpx	#$ff
    5236: d0 03        	bne	$523b <f256main+0x483b>
    5238: 4c b3 37     	jmp	$37b3 <f256main+0x2db3>
    523b: 86 15        	stx	$15                     ; 0x15 <__rc5>
    523d: 85 14        	sta	$14                     ; 0x14 <__rc4>
    523f: a0 17        	ldy	#$17
    5241: b1 16        	lda	($16),y                 ; 0x16 <__rc6>
    5243: d0 03        	bne	$5248 <f256main+0x4848>
    5245: 4c 22 53     	jmp	$5322 <f256main+0x4922>
    5248: a2 02        	ldx	#$2
    524a: a0 12        	ldy	#$12
    524c: b1 16        	lda	($16),y                 ; 0x16 <__rc6>
    524e: 85 12        	sta	$12                     ; 0x12 <__rc2>
    5250: 86 13        	stx	$13                     ; 0x13 <__rc3>
    5252: a6 14        	ldx	$14                     ; 0x14 <__rc4>
    5254: a5 15        	lda	$15                     ; 0x15 <__rc5>
    5256: 20 5f 60     	jsr	$605f <sendAME>
    5259: a6 80        	ldx	$80                     ; 0x80 <theOne.8>
    525b: a4 81        	ldy	$81                     ; 0x81 <theOne.8+0x1>
    525d: 86 2e        	stx	$2e                     ; 0x2e <__rc30>
    525f: 84 2f        	sty	$2f                     ; 0x2f <__rc31>
    5261: 64 13        	stz	$13                     ; 0x13 <__rc3>
    5263: a0 14        	ldy	#$14
    5265: b1 10        	lda	($10),y                 ; 0x10 <__rc0>
    5267: a6 25        	ldx	$25                     ; 0x25 <__rc21>
    5269: 86 12        	stx	$12                     ; 0x12 <__rc2>
    526b: a6 2a        	ldx	$2a                     ; 0x2a <__rc26>
    526d: 20 4f 86     	jsr	$864f <__mulhi3>
    5270: 86 12        	stx	$12                     ; 0x12 <__rc2>
    5272: 18           	clc
    5273: 65 2e        	adc	$2e                     ; 0x2e <__rc30>
    5275: aa           	tax
    5276: a5 2f        	lda	$2f                     ; 0x2f <__rc31>
    5278: 65 12        	adc	$12                     ; 0x12 <__rc2>
    527a: 86 12        	stx	$12                     ; 0x12 <__rc2>
    527c: 85 13        	sta	$13                     ; 0x13 <__rc3>
    527e: a8           	tay
    527f: 18           	clc
    5280: 86 19        	stx	$19                     ; 0x19 <__rc9>
    5282: 8a           	txa
    5283: 69 04        	adc	#$4
    5285: aa           	tax
    5286: 84 1b        	sty	$1b                     ; 0x1b <__rc11>
    5288: 98           	tya
    5289: 69 00        	adc	#$0
    528b: 86 17        	stx	$17                     ; 0x17 <__rc7>
    528d: 86 14        	stx	$14                     ; 0x14 <__rc4>
    528f: 85 1c        	sta	$1c                     ; 0x1c <__rc12>
    5291: 85 15        	sta	$15                     ; 0x15 <__rc5>
    5293: a0 04        	ldy	#$4
    5295: b1 12        	lda	($12),y                 ; 0x12 <__rc2>
    5297: aa           	tax
    5298: a0 01        	ldy	#$1
    529a: b1 14        	lda	($14),y                 ; 0x14 <__rc4>
    529c: 85 18        	sta	$18                     ; 0x18 <__rc8>
    529e: c8           	iny
    529f: 84 1d        	sty	$1d                     ; 0x1d <__rc13>
    52a1: b1 14        	lda	($14),y                 ; 0x14 <__rc4>
    52a3: 85 16        	sta	$16                     ; 0x16 <__rc6>
    52a5: c8           	iny
    52a6: b1 14        	lda	($14),y                 ; 0x14 <__rc4>
    52a8: d1 12        	cmp	($12),y                 ; 0x12 <__rc2>
    52aa: f0 03        	beq	$52af <f256main+0x48af>
    52ac: 4c f9 35     	jmp	$35f9 <f256main+0x2bf9>
    52af: 85 1a        	sta	$1a                     ; 0x1a <__rc10>
    52b1: 86 15        	stx	$15                     ; 0x15 <__rc5>
    52b3: a2 03        	ldx	#$3
    52b5: 86 27        	stx	$27                     ; 0x27 <__rc23>
    52b7: a4 1d        	ldy	$1d                     ; 0x1d <__rc13>
    52b9: b1 12        	lda	($12),y                 ; 0x12 <__rc2>
    52bb: 85 14        	sta	$14                     ; 0x14 <__rc4>
    52bd: a6 16        	ldx	$16                     ; 0x16 <__rc6>
    52bf: a0 08        	ldy	#$8
    52c1: 84 1f        	sty	$1f                     ; 0x1f <__rc15>
    52c3: e4 14        	cpx	$14                     ; 0x14 <__rc4>
    52c5: d0 4b        	bne	$5312 <f256main+0x4912>
    52c7: a0 01        	ldy	#$1
    52c9: b1 12        	lda	($12),y                 ; 0x12 <__rc2>
    52cb: 85 14        	sta	$14                     ; 0x14 <__rc4>
    52cd: a6 18        	ldx	$18                     ; 0x18 <__rc8>
    52cf: e4 14        	cpx	$14                     ; 0x14 <__rc4>
    52d1: f0 03        	beq	$52d6 <f256main+0x48d6>
    52d3: 4c 99 54     	jmp	$5499 <f256main+0x4a99>
    52d6: b2 12        	lda	($12)                   ; 0x12 <__rc2>
    52d8: 85 14        	sta	$14                     ; 0x14 <__rc4>
    52da: a6 15        	ldx	$15                     ; 0x15 <__rc5>
    52dc: 86 1e        	stx	$1e                     ; 0x1e <__rc14>
    52de: e4 14        	cpx	$14                     ; 0x14 <__rc4>
    52e0: a6 16        	ldx	$16                     ; 0x16 <__rc6>
    52e2: 86 1d        	stx	$1d                     ; 0x1d <__rc13>
    52e4: 90 03        	bcc	$52e9 <f256main+0x48e9>
    52e6: 4c 6b 37     	jmp	$376b <f256main+0x2d6b>
    52e9: 4c 10 36     	jmp	$3610 <f256main+0x2c10>
    52ec: e6 1b        	inc	$1b                     ; 0x1b <__rc11>
    52ee: f0 03        	beq	$52f3 <f256main+0x48f3>
    52f0: 4c 41 36     	jmp	$3641 <f256main+0x2c41>
    52f3: e6 1c        	inc	$1c                     ; 0x1c <__rc12>
    52f5: f0 03        	beq	$52fa <f256main+0x48fa>
    52f7: 4c 41 36     	jmp	$3641 <f256main+0x2c41>
    52fa: e6 1d        	inc	$1d                     ; 0x1d <__rc13>
    52fc: 4c 41 36     	jmp	$3641 <f256main+0x2c41>
    52ff: e6 7f        	inc	$7f                     ; 0x7f <theOne.7+0x1>
    5301: 4c c0 51     	jmp	$51c0 <f256main+0x47c0>
    5304: c9 2f        	cmp	#$2f
    5306: f0 03        	beq	$530b <f256main+0x490b>
    5308: 4c 61 52     	jmp	$5261 <f256main+0x4861>
    530b: a9 01        	lda	#$1
    530d: 91 16        	sta	($16),y                 ; 0x16 <__rc6>
    530f: 4c 61 52     	jmp	$5261 <f256main+0x4861>
    5312: 86 1d        	stx	$1d                     ; 0x1d <__rc13>
    5314: e4 14        	cpx	$14                     ; 0x14 <__rc4>
    5316: a6 15        	ldx	$15                     ; 0x15 <__rc5>
    5318: 86 1e        	stx	$1e                     ; 0x1e <__rc14>
    531a: b0 03        	bcs	$531f <f256main+0x491f>
    531c: 4c 10 36     	jmp	$3610 <f256main+0x2c10>
    531f: 4c 6b 37     	jmp	$376b <f256main+0x2d6b>
    5322: a2 03        	ldx	#$3
    5324: 4c 4a 52     	jmp	$524a <f256main+0x484a>
    5327: e6 23        	inc	$23                     ; 0x23 <__rc19>
    5329: f0 03        	beq	$532e <f256main+0x492e>
    532b: 4c a2 50     	jmp	$50a2 <f256main+0x46a2>
    532e: 1a           	inc
    532f: 4c a2 50     	jmp	$50a2 <f256main+0x46a2>
    5332: 64 13        	stz	$13                     ; 0x13 <__rc3>
    5334: 4a           	lsr
    5335: aa           	tax
    5336: a9 00        	lda	#$0
    5338: 6a           	ror
    5339: 29 80        	and	#$80
    533b: a0 05        	ldy	#$5
    533d: 91 10        	sta	($10),y                 ; 0x10 <__rc0>
    533f: 8a           	txa
    5340: 29 3f        	and	#$3f
    5342: 85 2a        	sta	$2a                     ; 0x2a <__rc26>
    5344: a6 80        	ldx	$80                     ; 0x80 <theOne.8>
    5346: 86 28        	stx	$28                     ; 0x28 <__rc24>
    5348: a6 81        	ldx	$81                     ; 0x81 <theOne.8+0x1>
    534a: 86 24        	stx	$24                     ; 0x24 <__rc20>
    534c: a2 19        	ldx	#$19
    534e: 86 27        	stx	$27                     ; 0x27 <__rc23>
    5350: 86 12        	stx	$12                     ; 0x12 <__rc2>
    5352: a0 08        	ldy	#$8
    5354: b1 10        	lda	($10),y                 ; 0x10 <__rc0>
    5356: 85 25        	sta	$25                     ; 0x25 <__rc21>
    5358: aa           	tax
    5359: a0 14        	ldy	#$14
    535b: b1 10        	lda	($10),y                 ; 0x10 <__rc0>
    535d: 85 29        	sta	$29                     ; 0x29 <__rc25>
    535f: 20 4f 86     	jsr	$864f <__mulhi3>
    5362: 85 12        	sta	$12                     ; 0x12 <__rc2>
    5364: 86 13        	stx	$13                     ; 0x13 <__rc3>
    5366: 18           	clc
    5367: a5 28        	lda	$28                     ; 0x28 <__rc24>
    5369: 65 12        	adc	$12                     ; 0x12 <__rc2>
    536b: a8           	tay
    536c: a5 24        	lda	$24                     ; 0x24 <__rc20>
    536e: 65 13        	adc	$13                     ; 0x13 <__rc3>
    5370: aa           	tax
    5371: 84 12        	sty	$12                     ; 0x12 <__rc2>
    5373: 85 13        	sta	$13                     ; 0x13 <__rc3>
    5375: 18           	clc
    5376: 98           	tya
    5377: 69 08        	adc	#$8
    5379: 85 14        	sta	$14                     ; 0x14 <__rc4>
    537b: 8a           	txa
    537c: 69 00        	adc	#$0
    537e: 85 15        	sta	$15                     ; 0x15 <__rc5>
    5380: 18           	clc
    5381: 98           	tya
    5382: 69 04        	adc	#$4
    5384: 85 16        	sta	$16                     ; 0x16 <__rc6>
    5386: 8a           	txa
    5387: 69 00        	adc	#$0
    5389: 85 17        	sta	$17                     ; 0x17 <__rc7>
    538b: a0 04        	ldy	#$4
    538d: b1 12        	lda	($12),y                 ; 0x12 <__rc2>
    538f: 84 1c        	sty	$1c                     ; 0x1c <__rc12>
    5391: 85 18        	sta	$18                     ; 0x18 <__rc8>
    5393: a0 01        	ldy	#$1
    5395: b1 16        	lda	($16),y                 ; 0x16 <__rc6>
    5397: 85 1b        	sta	$1b                     ; 0x1b <__rc11>
    5399: 84 19        	sty	$19                     ; 0x19 <__rc9>
    539b: c8           	iny
    539c: b1 16        	lda	($16),y                 ; 0x16 <__rc6>
    539e: 85 22        	sta	$22                     ; 0x22 <__rc18>
    53a0: 84 1a        	sty	$1a                     ; 0x1a <__rc10>
    53a2: c8           	iny
    53a3: b1 16        	lda	($16),y                 ; 0x16 <__rc6>
    53a5: 85 1f        	sta	$1f                     ; 0x1f <__rc15>
    53a7: 84 1d        	sty	$1d                     ; 0x1d <__rc13>
    53a9: a5 18        	lda	$18                     ; 0x18 <__rc8>
    53ab: a4 1b        	ldy	$1b                     ; 0x1b <__rc11>
    53ad: a6 22        	ldx	$22                     ; 0x22 <__rc18>
    53af: 1a           	inc
    53b0: d0 09        	bne	$53bb <f256main+0x49bb>
    53b2: c8           	iny
    53b3: d0 06        	bne	$53bb <f256main+0x49bb>
    53b5: e6 22        	inc	$22                     ; 0x22 <__rc18>
    53b7: d0 02        	bne	$53bb <f256main+0x49bb>
    53b9: e6 1f        	inc	$1f                     ; 0x1f <__rc15>
    53bb: 84 23        	sty	$23                     ; 0x23 <__rc19>
    53bd: a4 1c        	ldy	$1c                     ; 0x1c <__rc12>
    53bf: 91 12        	sta	($12),y                 ; 0x12 <__rc2>
    53c1: a4 19        	ldy	$19                     ; 0x19 <__rc9>
    53c3: a5 23        	lda	$23                     ; 0x23 <__rc19>
    53c5: 91 16        	sta	($16),y                 ; 0x16 <__rc6>
    53c7: a4 1a        	ldy	$1a                     ; 0x1a <__rc10>
    53c9: a5 22        	lda	$22                     ; 0x22 <__rc18>
    53cb: 91 16        	sta	($16),y                 ; 0x16 <__rc6>
    53cd: a4 1d        	ldy	$1d                     ; 0x1d <__rc13>
    53cf: a5 1f        	lda	$1f                     ; 0x1f <__rc15>
    53d1: 91 16        	sta	($16),y                 ; 0x16 <__rc6>
    53d3: 18           	clc
    53d4: a4 26        	ldy	$26                     ; 0x26 <__rc22>
    53d6: a5 18        	lda	$18                     ; 0x18 <__rc8>
    53d8: 71 12        	adc	($12),y                 ; 0x12 <__rc2>
    53da: 85 13        	sta	$13                     ; 0x13 <__rc3>
    53dc: a5 1b        	lda	$1b                     ; 0x1b <__rc11>
    53de: a4 19        	ldy	$19                     ; 0x19 <__rc9>
    53e0: 71 14        	adc	($14),y                 ; 0x14 <__rc4>
    53e2: 85 12        	sta	$12                     ; 0x12 <__rc2>
    53e4: 8a           	txa
    53e5: a4 1a        	ldy	$1a                     ; 0x1a <__rc10>
    53e7: 71 14        	adc	($14),y                 ; 0x14 <__rc4>
    53e9: 85 14        	sta	$14                     ; 0x14 <__rc4>
    53eb: a5 12        	lda	$12                     ; 0x12 <__rc2>
    53ed: 06 12        	asl	$12                     ; 0x12 <__rc2>
    53ef: 26 14        	rol	$14                     ; 0x14 <__rc4>
    53f1: 06 12        	asl	$12                     ; 0x12 <__rc2>
    53f3: 26 14        	rol	$14                     ; 0x14 <__rc4>
    53f5: 06 12        	asl	$12                     ; 0x12 <__rc2>
    53f7: 26 14        	rol	$14                     ; 0x14 <__rc4>
    53f9: a4 14        	ldy	$14                     ; 0x14 <__rc4>
    53fb: a6 0f        	ldx	$f                      ; 0xf <__data_size+0xf>
    53fd: 78           	sei
    53fe: 84 0f        	sty	$f                      ; 0xf <__data_size+0xf>
    5400: a4 13        	ldy	$13                     ; 0x13 <__rc3>
    5402: 84 12        	sty	$12                     ; 0x12 <__rc2>
    5404: 09 e0        	ora	#$e0
    5406: 85 13        	sta	$13                     ; 0x13 <__rc3>
    5408: b2 12        	lda	($12)                   ; 0x12 <__rc2>
    540a: 86 0f        	stx	$f                      ; 0xf <__data_size+0xf>
    540c: 58           	cli
    540d: aa           	tax
    540e: 10 03        	bpl	$5413 <f256main+0x4a13>
    5410: 4c ab 54     	jmp	$54ab <f256main+0x4aab>
    5413: 64 2b        	stz	$2b                     ; 0x2b <__rc27>
    5415: 64 24        	stz	$24                     ; 0x24 <__rc20>
    5417: 64 28        	stz	$28                     ; 0x28 <__rc24>
    5419: 64 12        	stz	$12                     ; 0x12 <__rc2>
    541b: 64 2f        	stz	$2f                     ; 0x2f <__rc31>
    541d: 64 13        	stz	$13                     ; 0x13 <__rc3>
    541f: 64 14        	stz	$14                     ; 0x14 <__rc4>
    5421: a2 00        	ldx	#$0
    5423: a6 29        	ldx	$29                     ; 0x29 <__rc25>
    5425: 86 26        	stx	$26                     ; 0x26 <__rc22>
    5427: 85 2e        	sta	$2e                     ; 0x2e <__rc30>
    5429: a0 05        	ldy	#$5
    542b: b1 10        	lda	($10),y                 ; 0x10 <__rc0>
    542d: 4c b6 36     	jmp	$36b6 <f256main+0x2cb6>
    5430: a0 13        	ldy	#$13
    5432: b1 16        	lda	($16),y                 ; 0x16 <__rc6>
    5434: 85 12        	sta	$12                     ; 0x12 <__rc2>
    5436: c8           	iny
    5437: b1 16        	lda	($16),y                 ; 0x16 <__rc6>
    5439: 85 19        	sta	$19                     ; 0x19 <__rc9>
    543b: c8           	iny
    543c: b1 16        	lda	($16),y                 ; 0x16 <__rc6>
    543e: a6 71        	ldx	$71                     ; 0x71 <theOne.1>
    5440: a4 72        	ldy	$72                     ; 0x72 <theOne.1+0x1>
    5442: 64 13        	stz	$13                     ; 0x13 <__rc3>
    5444: 86 14        	stx	$14                     ; 0x14 <__rc4>
    5446: 84 15        	sty	$15                     ; 0x15 <__rc5>
    5448: 64 16        	stz	$16                     ; 0x16 <__rc6>
    544a: 64 17        	stz	$17                     ; 0x17 <__rc7>
    544c: a6 19        	ldx	$19                     ; 0x19 <__rc9>
    544e: 20 f0 84     	jsr	$84f0 <__udivsi3>
    5451: 86 14        	stx	$14                     ; 0x14 <__rc4>
    5453: 0a           	asl
    5454: 26 14        	rol	$14                     ; 0x14 <__rc4>
    5456: 26 12        	rol	$12                     ; 0x12 <__rc2>
    5458: 26 13        	rol	$13                     ; 0x13 <__rc3>
    545a: 0a           	asl
    545b: 85 15        	sta	$15                     ; 0x15 <__rc5>
    545d: 26 14        	rol	$14                     ; 0x14 <__rc4>
    545f: 26 12        	rol	$12                     ; 0x12 <__rc2>
    5461: 26 13        	rol	$13                     ; 0x13 <__rc3>
    5463: 0a           	asl
    5464: aa           	tax
    5465: a5 14        	lda	$14                     ; 0x14 <__rc4>
    5467: 2a           	rol
    5468: a8           	tay
    5469: a5 12        	lda	$12                     ; 0x12 <__rc2>
    546b: 2a           	rol
    546c: 85 16        	sta	$16                     ; 0x16 <__rc6>
    546e: a5 13        	lda	$13                     ; 0x13 <__rc3>
    5470: 2a           	rol
    5471: 85 17        	sta	$17                     ; 0x17 <__rc7>
    5473: 18           	clc
    5474: 8a           	txa
    5475: 65 15        	adc	$15                     ; 0x15 <__rc5>
    5477: 85 15        	sta	$15                     ; 0x15 <__rc5>
    5479: 98           	tya
    547a: 65 14        	adc	$14                     ; 0x14 <__rc4>
    547c: 85 14        	sta	$14                     ; 0x14 <__rc4>
    547e: a5 16        	lda	$16                     ; 0x16 <__rc6>
    5480: 65 12        	adc	$12                     ; 0x12 <__rc2>
    5482: 85 12        	sta	$12                     ; 0x12 <__rc2>
    5484: a5 17        	lda	$17                     ; 0x17 <__rc7>
    5486: 65 13        	adc	$13                     ; 0x13 <__rc3>
    5488: a6 15        	ldx	$15                     ; 0x15 <__rc5>
    548a: 86 73        	stx	$73                     ; 0x73 <theOne.2>
    548c: a6 14        	ldx	$14                     ; 0x14 <__rc4>
    548e: 86 74        	stx	$74                     ; 0x74 <theOne.2+0x1>
    5490: a6 12        	ldx	$12                     ; 0x12 <__rc2>
    5492: 86 75        	stx	$75                     ; 0x75 <theOne.2+0x2>
    5494: 85 76        	sta	$76                     ; 0x76 <theOne.2+0x3>
    5496: 4c 61 52     	jmp	$5261 <f256main+0x4861>
    5499: e4 14        	cpx	$14                     ; 0x14 <__rc4>
    549b: a6 15        	ldx	$15                     ; 0x15 <__rc5>
    549d: 86 1e        	stx	$1e                     ; 0x1e <__rc14>
    549f: a6 16        	ldx	$16                     ; 0x16 <__rc6>
    54a1: 86 1d        	stx	$1d                     ; 0x1d <__rc13>
    54a3: 90 03        	bcc	$54a8 <f256main+0x4aa8>
    54a5: 4c 6b 37     	jmp	$376b <f256main+0x2d6b>
    54a8: 4c 10 36     	jmp	$3610 <f256main+0x2c10>
    54ab: 4a           	lsr
    54ac: aa           	tax
    54ad: a9 00        	lda	#$0
    54af: 6a           	ror
    54b0: a4 2a        	ldy	$2a                     ; 0x2a <__rc26>
    54b2: 84 2f        	sty	$2f                     ; 0x2f <__rc31>
    54b4: 46 2f        	lsr	$2f                     ; 0x2f <__rc31>
    54b6: 48           	pha
    54b7: a0 05        	ldy	#$5
    54b9: b1 10        	lda	($10),y                 ; 0x10 <__rc0>
    54bb: 85 2a        	sta	$2a                     ; 0x2a <__rc26>
    54bd: 68           	pla
    54be: 66 2a        	ror	$2a                     ; 0x2a <__rc26>
    54c0: a4 29        	ldy	$29                     ; 0x29 <__rc25>
    54c2: 64 29        	stz	$29                     ; 0x29 <__rc25>
    54c4: 66 29        	ror	$29                     ; 0x29 <__rc25>
    54c6: 64 13        	stz	$13                     ; 0x13 <__rc3>
    54c8: 29 80        	and	#$80
    54ca: 85 2e        	sta	$2e                     ; 0x2e <__rc30>
    54cc: 8a           	txa
    54cd: 29 3f        	and	#$3f
    54cf: 85 24        	sta	$24                     ; 0x24 <__rc20>
    54d1: a6 80        	ldx	$80                     ; 0x80 <theOne.8>
    54d3: 86 28        	stx	$28                     ; 0x28 <__rc24>
    54d5: a6 81        	ldx	$81                     ; 0x81 <theOne.8+0x1>
    54d7: 86 2b        	stx	$2b                     ; 0x2b <__rc27>
    54d9: a6 27        	ldx	$27                     ; 0x27 <__rc23>
    54db: 86 12        	stx	$12                     ; 0x12 <__rc2>
    54dd: a6 25        	ldx	$25                     ; 0x25 <__rc21>
    54df: 98           	tya
    54e0: 5a           	phy
    54e1: a0 14        	ldy	#$14
    54e3: 91 10        	sta	($10),y                 ; 0x10 <__rc0>
    54e5: 7a           	ply
    54e6: 98           	tya
    54e7: 20 4f 86     	jsr	$864f <__mulhi3>
    54ea: 85 12        	sta	$12                     ; 0x12 <__rc2>
    54ec: 86 13        	stx	$13                     ; 0x13 <__rc3>
    54ee: 18           	clc
    54ef: a5 28        	lda	$28                     ; 0x28 <__rc24>
    54f1: 65 12        	adc	$12                     ; 0x12 <__rc2>
    54f3: a8           	tay
    54f4: a5 2b        	lda	$2b                     ; 0x2b <__rc27>
    54f6: 65 13        	adc	$13                     ; 0x13 <__rc3>
    54f8: aa           	tax
    54f9: 84 12        	sty	$12                     ; 0x12 <__rc2>
    54fb: 85 13        	sta	$13                     ; 0x13 <__rc3>
    54fd: 18           	clc
    54fe: 98           	tya
    54ff: 69 08        	adc	#$8
    5501: 85 14        	sta	$14                     ; 0x14 <__rc4>
    5503: 8a           	txa
    5504: 69 00        	adc	#$0
    5506: 85 15        	sta	$15                     ; 0x15 <__rc5>
    5508: 18           	clc
    5509: 98           	tya
    550a: 69 04        	adc	#$4
    550c: 85 16        	sta	$16                     ; 0x16 <__rc6>
    550e: 8a           	txa
    550f: 69 00        	adc	#$0
    5511: 85 17        	sta	$17                     ; 0x17 <__rc7>
    5513: a0 04        	ldy	#$4
    5515: b1 12        	lda	($12),y                 ; 0x12 <__rc2>
    5517: 84 1c        	sty	$1c                     ; 0x1c <__rc12>
    5519: 85 18        	sta	$18                     ; 0x18 <__rc8>
    551b: a0 01        	ldy	#$1
    551d: b1 16        	lda	($16),y                 ; 0x16 <__rc6>
    551f: 85 1b        	sta	$1b                     ; 0x1b <__rc11>
    5521: 84 19        	sty	$19                     ; 0x19 <__rc9>
    5523: c8           	iny
    5524: b1 16        	lda	($16),y                 ; 0x16 <__rc6>
    5526: 85 22        	sta	$22                     ; 0x22 <__rc18>
    5528: 84 1a        	sty	$1a                     ; 0x1a <__rc10>
    552a: c8           	iny
    552b: b1 16        	lda	($16),y                 ; 0x16 <__rc6>
    552d: 85 1f        	sta	$1f                     ; 0x1f <__rc15>
    552f: 84 1d        	sty	$1d                     ; 0x1d <__rc13>
    5531: a5 18        	lda	$18                     ; 0x18 <__rc8>
    5533: a4 1b        	ldy	$1b                     ; 0x1b <__rc11>
    5535: a6 22        	ldx	$22                     ; 0x22 <__rc18>
    5537: 1a           	inc
    5538: d0 09        	bne	$5543 <f256main+0x4b43>
    553a: c8           	iny
    553b: d0 06        	bne	$5543 <f256main+0x4b43>
    553d: e6 22        	inc	$22                     ; 0x22 <__rc18>
    553f: d0 02        	bne	$5543 <f256main+0x4b43>
    5541: e6 1f        	inc	$1f                     ; 0x1f <__rc15>
    5543: 84 23        	sty	$23                     ; 0x23 <__rc19>
    5545: a4 1c        	ldy	$1c                     ; 0x1c <__rc12>
    5547: 91 12        	sta	($12),y                 ; 0x12 <__rc2>
    5549: a4 19        	ldy	$19                     ; 0x19 <__rc9>
    554b: a5 23        	lda	$23                     ; 0x23 <__rc19>
    554d: 91 16        	sta	($16),y                 ; 0x16 <__rc6>
    554f: a4 1a        	ldy	$1a                     ; 0x1a <__rc10>
    5551: a5 22        	lda	$22                     ; 0x22 <__rc18>
    5553: 91 16        	sta	($16),y                 ; 0x16 <__rc6>
    5555: a4 1d        	ldy	$1d                     ; 0x1d <__rc13>
    5557: a5 1f        	lda	$1f                     ; 0x1f <__rc15>
    5559: 91 16        	sta	($16),y                 ; 0x16 <__rc6>
    555b: 18           	clc
    555c: a4 26        	ldy	$26                     ; 0x26 <__rc22>
    555e: 84 16        	sty	$16                     ; 0x16 <__rc6>
    5560: a5 18        	lda	$18                     ; 0x18 <__rc8>
    5562: 71 12        	adc	($12),y                 ; 0x12 <__rc2>
    5564: 85 13        	sta	$13                     ; 0x13 <__rc3>
    5566: a5 1b        	lda	$1b                     ; 0x1b <__rc11>
    5568: a4 19        	ldy	$19                     ; 0x19 <__rc9>
    556a: 71 14        	adc	($14),y                 ; 0x14 <__rc4>
    556c: 85 12        	sta	$12                     ; 0x12 <__rc2>
    556e: 8a           	txa
    556f: a4 1a        	ldy	$1a                     ; 0x1a <__rc10>
    5571: 71 14        	adc	($14),y                 ; 0x14 <__rc4>
    5573: 85 14        	sta	$14                     ; 0x14 <__rc4>
    5575: a5 12        	lda	$12                     ; 0x12 <__rc2>
    5577: 06 12        	asl	$12                     ; 0x12 <__rc2>
    5579: 26 14        	rol	$14                     ; 0x14 <__rc4>
    557b: 06 12        	asl	$12                     ; 0x12 <__rc2>
    557d: 26 14        	rol	$14                     ; 0x14 <__rc4>
    557f: 06 12        	asl	$12                     ; 0x12 <__rc2>
    5581: 26 14        	rol	$14                     ; 0x14 <__rc4>
    5583: a4 14        	ldy	$14                     ; 0x14 <__rc4>
    5585: a6 0f        	ldx	$f                      ; 0xf <__data_size+0xf>
    5587: 78           	sei
    5588: 84 0f        	sty	$f                      ; 0xf <__data_size+0xf>
    558a: a4 13        	ldy	$13                     ; 0x13 <__rc3>
    558c: 84 12        	sty	$12                     ; 0x12 <__rc2>
    558e: 09 e0        	ora	#$e0
    5590: 85 13        	sta	$13                     ; 0x13 <__rc3>
    5592: b2 12        	lda	($12)                   ; 0x12 <__rc2>
    5594: 86 0f        	stx	$f                      ; 0xf <__data_size+0xf>
    5596: 58           	cli
    5597: aa           	tax
    5598: 10 03        	bpl	$559d <f256main+0x4b9d>
    559a: 4c f9 55     	jmp	$55f9 <f256main+0x4bf9>
    559d: 64 28        	stz	$28                     ; 0x28 <__rc24>
    559f: 85 12        	sta	$12                     ; 0x12 <__rc2>
    55a1: 64 13        	stz	$13                     ; 0x13 <__rc3>
    55a3: 64 2b        	stz	$2b                     ; 0x2b <__rc27>
    55a5: 64 14        	stz	$14                     ; 0x14 <__rc4>
    55a7: a2 00        	ldx	#$0
    55a9: a0 14        	ldy	#$14
    55ab: b1 10        	lda	($10),y                 ; 0x10 <__rc0>
    55ad: 85 26        	sta	$26                     ; 0x26 <__rc22>
    55af: a5 29        	lda	$29                     ; 0x29 <__rc25>
    55b1: 4c b6 36     	jmp	$36b6 <f256main+0x2cb6>
    55b4: a5 12        	lda	$12                     ; 0x12 <__rc2>
    55b6: f0 03        	beq	$55bb <f256main+0x4bbb>
    55b8: 4c 62 4c     	jmp	$4c62 <f256main+0x4262>
    55bb: a6 25        	ldx	$25                     ; 0x25 <__rc21>
    55bd: 86 12        	stx	$12                     ; 0x12 <__rc2>
    55bf: 64 13        	stz	$13                     ; 0x13 <__rc3>
    55c1: a2 00        	ldx	#$0
    55c3: a0 14        	ldy	#$14
    55c5: b1 10        	lda	($10),y                 ; 0x10 <__rc0>
    55c7: 20 4f 86     	jsr	$864f <__mulhi3>
    55ca: 18           	clc
    55cb: 65 2e        	adc	$2e                     ; 0x2e <__rc30>
    55cd: 85 12        	sta	$12                     ; 0x12 <__rc2>
    55cf: 8a           	txa
    55d0: 65 2f        	adc	$2f                     ; 0x2f <__rc31>
    55d2: a6 12        	ldx	$12                     ; 0x12 <__rc2>
    55d4: 86 16        	stx	$16                     ; 0x16 <__rc6>
    55d6: 85 17        	sta	$17                     ; 0x17 <__rc7>
    55d8: a0 10        	ldy	#$10
    55da: b1 16        	lda	($16),y                 ; 0x16 <__rc6>
    55dc: aa           	tax
    55dd: c8           	iny
    55de: b1 16        	lda	($16),y                 ; 0x16 <__rc6>
    55e0: e0 ff        	cpx	#$ff
    55e2: d0 03        	bne	$55e7 <f256main+0x4be7>
    55e4: 4c 1b 57     	jmp	$571b <f256main+0x4d1b>
    55e7: 86 15        	stx	$15                     ; 0x15 <__rc5>
    55e9: 85 14        	sta	$14                     ; 0x14 <__rc4>
    55eb: a0 17        	ldy	#$17
    55ed: b1 16        	lda	($16),y                 ; 0x16 <__rc6>
    55ef: d0 03        	bne	$55f4 <f256main+0x4bf4>
    55f1: 4c 2e 57     	jmp	$572e <f256main+0x4d2e>
    55f4: a2 02        	ldx	#$2
    55f6: 4c 30 57     	jmp	$5730 <f256main+0x4d30>
    55f9: 4a           	lsr
    55fa: 64 12        	stz	$12                     ; 0x12 <__rc2>
    55fc: 66 12        	ror	$12                     ; 0x12 <__rc2>
    55fe: 46 24        	lsr	$24                     ; 0x24 <__rc20>
    5600: 48           	pha
    5601: a5 24        	lda	$24                     ; 0x24 <__rc20>
    5603: a0 05        	ldy	#$5
    5605: 91 10        	sta	($10),y                 ; 0x10 <__rc0>
    5607: 68           	pla
    5608: aa           	tax
    5609: a4 2e        	ldy	$2e                     ; 0x2e <__rc30>
    560b: 84 24        	sty	$24                     ; 0x24 <__rc20>
    560d: 66 24        	ror	$24                     ; 0x24 <__rc20>
    560f: 64 2e        	stz	$2e                     ; 0x2e <__rc30>
    5611: 66 2e        	ror	$2e                     ; 0x2e <__rc30>
    5613: 46 2f        	lsr	$2f                     ; 0x2f <__rc31>
    5615: a4 2f        	ldy	$2f                     ; 0x2f <__rc31>
    5617: 84 2b        	sty	$2b                     ; 0x2b <__rc27>
    5619: 66 2a        	ror	$2a                     ; 0x2a <__rc26>
    561b: a4 2a        	ldy	$2a                     ; 0x2a <__rc26>
    561d: 84 2f        	sty	$2f                     ; 0x2f <__rc31>
    561f: 66 29        	ror	$29                     ; 0x29 <__rc25>
    5621: a4 29        	ldy	$29                     ; 0x29 <__rc25>
    5623: 84 2a        	sty	$2a                     ; 0x2a <__rc26>
    5625: 64 26        	stz	$26                     ; 0x26 <__rc22>
    5627: 66 26        	ror	$26                     ; 0x26 <__rc22>
    5629: a5 12        	lda	$12                     ; 0x12 <__rc2>
    562b: 29 80        	and	#$80
    562d: a0 03        	ldy	#$3
    562f: 91 10        	sta	($10),y                 ; 0x10 <__rc0>
    5631: 8a           	txa
    5632: 29 3f        	and	#$3f
    5634: c8           	iny
    5635: 91 10        	sta	($10),y                 ; 0x10 <__rc0>
    5637: a6 80        	ldx	$80                     ; 0x80 <theOne.8>
    5639: 86 28        	stx	$28                     ; 0x28 <__rc24>
    563b: a6 81        	ldx	$81                     ; 0x81 <theOne.8+0x1>
    563d: 86 29        	stx	$29                     ; 0x29 <__rc25>
    563f: a6 27        	ldx	$27                     ; 0x27 <__rc23>
    5641: 86 12        	stx	$12                     ; 0x12 <__rc2>
    5643: 64 13        	stz	$13                     ; 0x13 <__rc3>
    5645: a6 25        	ldx	$25                     ; 0x25 <__rc21>
    5647: a0 14        	ldy	#$14
    5649: b1 10        	lda	($10),y                 ; 0x10 <__rc0>
    564b: a4 16        	ldy	$16                     ; 0x16 <__rc6>
    564d: 84 25        	sty	$25                     ; 0x25 <__rc21>
    564f: 20 4f 86     	jsr	$864f <__mulhi3>
    5652: 85 12        	sta	$12                     ; 0x12 <__rc2>
    5654: 86 13        	stx	$13                     ; 0x13 <__rc3>
    5656: 18           	clc
    5657: a5 28        	lda	$28                     ; 0x28 <__rc24>
    5659: 65 12        	adc	$12                     ; 0x12 <__rc2>
    565b: a8           	tay
    565c: a5 29        	lda	$29                     ; 0x29 <__rc25>
    565e: 65 13        	adc	$13                     ; 0x13 <__rc3>
    5660: aa           	tax
    5661: 98           	tya
    5662: 18           	clc
    5663: 69 08        	adc	#$8
    5665: 85 12        	sta	$12                     ; 0x12 <__rc2>
    5667: 8a           	txa
    5668: 69 00        	adc	#$0
    566a: 84 14        	sty	$14                     ; 0x14 <__rc4>
    566c: 86 15        	stx	$15                     ; 0x15 <__rc5>
    566e: 85 13        	sta	$13                     ; 0x13 <__rc3>
    5670: 18           	clc
    5671: 98           	tya
    5672: 69 04        	adc	#$4
    5674: 85 16        	sta	$16                     ; 0x16 <__rc6>
    5676: 8a           	txa
    5677: 69 00        	adc	#$0
    5679: 85 17        	sta	$17                     ; 0x17 <__rc7>
    567b: a0 04        	ldy	#$4
    567d: b1 14        	lda	($14),y                 ; 0x14 <__rc4>
    567f: 84 1c        	sty	$1c                     ; 0x1c <__rc12>
    5681: 85 18        	sta	$18                     ; 0x18 <__rc8>
    5683: a0 01        	ldy	#$1
    5685: b1 16        	lda	($16),y                 ; 0x16 <__rc6>
    5687: 85 1b        	sta	$1b                     ; 0x1b <__rc11>
    5689: 84 19        	sty	$19                     ; 0x19 <__rc9>
    568b: c8           	iny
    568c: b1 16        	lda	($16),y                 ; 0x16 <__rc6>
    568e: 85 22        	sta	$22                     ; 0x22 <__rc18>
    5690: 84 1a        	sty	$1a                     ; 0x1a <__rc10>
    5692: c8           	iny
    5693: b1 16        	lda	($16),y                 ; 0x16 <__rc6>
    5695: 85 1f        	sta	$1f                     ; 0x1f <__rc15>
    5697: 84 1d        	sty	$1d                     ; 0x1d <__rc13>
    5699: a5 18        	lda	$18                     ; 0x18 <__rc8>
    569b: a4 1b        	ldy	$1b                     ; 0x1b <__rc11>
    569d: a6 22        	ldx	$22                     ; 0x22 <__rc18>
    569f: 1a           	inc
    56a0: d0 09        	bne	$56ab <f256main+0x4cab>
    56a2: c8           	iny
    56a3: d0 06        	bne	$56ab <f256main+0x4cab>
    56a5: e6 22        	inc	$22                     ; 0x22 <__rc18>
    56a7: d0 02        	bne	$56ab <f256main+0x4cab>
    56a9: e6 1f        	inc	$1f                     ; 0x1f <__rc15>
    56ab: 84 23        	sty	$23                     ; 0x23 <__rc19>
    56ad: a4 1c        	ldy	$1c                     ; 0x1c <__rc12>
    56af: 91 14        	sta	($14),y                 ; 0x14 <__rc4>
    56b1: a4 19        	ldy	$19                     ; 0x19 <__rc9>
    56b3: a5 23        	lda	$23                     ; 0x23 <__rc19>
    56b5: 91 16        	sta	($16),y                 ; 0x16 <__rc6>
    56b7: a4 1a        	ldy	$1a                     ; 0x1a <__rc10>
    56b9: a5 22        	lda	$22                     ; 0x22 <__rc18>
    56bb: 91 16        	sta	($16),y                 ; 0x16 <__rc6>
    56bd: a4 1d        	ldy	$1d                     ; 0x1d <__rc13>
    56bf: a5 1f        	lda	$1f                     ; 0x1f <__rc15>
    56c1: 91 16        	sta	($16),y                 ; 0x16 <__rc6>
    56c3: 18           	clc
    56c4: a5 18        	lda	$18                     ; 0x18 <__rc8>
    56c6: a4 25        	ldy	$25                     ; 0x25 <__rc21>
    56c8: 71 14        	adc	($14),y                 ; 0x14 <__rc4>
    56ca: 85 14        	sta	$14                     ; 0x14 <__rc4>
    56cc: a5 1b        	lda	$1b                     ; 0x1b <__rc11>
    56ce: a4 19        	ldy	$19                     ; 0x19 <__rc9>
    56d0: 71 12        	adc	($12),y                 ; 0x12 <__rc2>
    56d2: 85 15        	sta	$15                     ; 0x15 <__rc5>
    56d4: 8a           	txa
    56d5: a4 1a        	ldy	$1a                     ; 0x1a <__rc10>
    56d7: 71 12        	adc	($12),y                 ; 0x12 <__rc2>
    56d9: 85 13        	sta	$13                     ; 0x13 <__rc3>
    56db: a5 15        	lda	$15                     ; 0x15 <__rc5>
    56dd: 85 12        	sta	$12                     ; 0x12 <__rc2>
    56df: 06 12        	asl	$12                     ; 0x12 <__rc2>
    56e1: 26 13        	rol	$13                     ; 0x13 <__rc3>
    56e3: 06 12        	asl	$12                     ; 0x12 <__rc2>
    56e5: 26 13        	rol	$13                     ; 0x13 <__rc3>
    56e7: 06 12        	asl	$12                     ; 0x12 <__rc2>
    56e9: 26 13        	rol	$13                     ; 0x13 <__rc3>
    56eb: a4 13        	ldy	$13                     ; 0x13 <__rc3>
    56ed: a6 0f        	ldx	$f                      ; 0xf <__data_size+0xf>
    56ef: 78           	sei
    56f0: 84 0f        	sty	$f                      ; 0xf <__data_size+0xf>
    56f2: a4 14        	ldy	$14                     ; 0x14 <__rc4>
    56f4: 84 12        	sty	$12                     ; 0x12 <__rc2>
    56f6: 09 e0        	ora	#$e0
    56f8: 85 13        	sta	$13                     ; 0x13 <__rc3>
    56fa: b2 12        	lda	($12)                   ; 0x12 <__rc2>
    56fc: 86 0f        	stx	$f                      ; 0xf <__data_size+0xf>
    56fe: 48           	pha
    56ff: a0 03        	ldy	#$3
    5701: b1 10        	lda	($10),y                 ; 0x10 <__rc0>
    5703: 85 12        	sta	$12                     ; 0x12 <__rc2>
    5705: c8           	iny
    5706: b1 10        	lda	($10),y                 ; 0x10 <__rc0>
    5708: 85 13        	sta	$13                     ; 0x13 <__rc3>
    570a: 68           	pla
    570b: 85 14        	sta	$14                     ; 0x14 <__rc4>
    570d: a5 26        	lda	$26                     ; 0x26 <__rc22>
    570f: a2 00        	ldx	#$0
    5711: 58           	cli
    5712: 48           	pha
    5713: c8           	iny
    5714: b1 10        	lda	($10),y                 ; 0x10 <__rc0>
    5716: 85 28        	sta	$28                     ; 0x28 <__rc24>
    5718: 4c af 36     	jmp	$36af <f256main+0x2caf>
    571b: c9 51        	cmp	#$51
    571d: d0 03        	bne	$5722 <f256main+0x4d22>
    571f: 4c 99 59     	jmp	$5999 <f256main+0x4f99>
    5722: c9 2f        	cmp	#$2f
    5724: d0 21        	bne	$5747 <f256main+0x4d47>
    5726: a9 01        	lda	#$1
    5728: a0 18        	ldy	#$18
    572a: 91 16        	sta	($16),y                 ; 0x16 <__rc6>
    572c: 80 19        	bra	$5747 <f256main+0x4d47>
    572e: a2 03        	ldx	#$3
    5730: a0 12        	ldy	#$12
    5732: b1 16        	lda	($16),y                 ; 0x16 <__rc6>
    5734: 85 12        	sta	$12                     ; 0x12 <__rc2>
    5736: 86 13        	stx	$13                     ; 0x13 <__rc3>
    5738: a6 14        	ldx	$14                     ; 0x14 <__rc4>
    573a: a5 15        	lda	$15                     ; 0x15 <__rc5>
    573c: 20 5f 60     	jsr	$605f <sendAME>
    573f: a6 80        	ldx	$80                     ; 0x80 <theOne.8>
    5741: a4 81        	ldy	$81                     ; 0x81 <theOne.8+0x1>
    5743: 86 2e        	stx	$2e                     ; 0x2e <__rc30>
    5745: 84 2f        	sty	$2f                     ; 0x2f <__rc31>
    5747: 64 13        	stz	$13                     ; 0x13 <__rc3>
    5749: a6 25        	ldx	$25                     ; 0x25 <__rc21>
    574b: 86 12        	stx	$12                     ; 0x12 <__rc2>
    574d: a0 14        	ldy	#$14
    574f: b1 10        	lda	($10),y                 ; 0x10 <__rc0>
    5751: a2 00        	ldx	#$0
    5753: 20 4f 86     	jsr	$864f <__mulhi3>
    5756: 86 12        	stx	$12                     ; 0x12 <__rc2>
    5758: 18           	clc
    5759: 65 2e        	adc	$2e                     ; 0x2e <__rc30>
    575b: aa           	tax
    575c: a5 2f        	lda	$2f                     ; 0x2f <__rc31>
    575e: 65 12        	adc	$12                     ; 0x12 <__rc2>
    5760: 86 12        	stx	$12                     ; 0x12 <__rc2>
    5762: 85 13        	sta	$13                     ; 0x13 <__rc3>
    5764: a8           	tay
    5765: 18           	clc
    5766: 86 1a        	stx	$1a                     ; 0x1a <__rc10>
    5768: 8a           	txa
    5769: 69 04        	adc	#$4
    576b: aa           	tax
    576c: 84 1c        	sty	$1c                     ; 0x1c <__rc12>
    576e: 98           	tya
    576f: 69 00        	adc	#$0
    5771: 86 16        	stx	$16                     ; 0x16 <__rc6>
    5773: 86 14        	stx	$14                     ; 0x14 <__rc4>
    5775: 85 17        	sta	$17                     ; 0x17 <__rc7>
    5777: 85 15        	sta	$15                     ; 0x15 <__rc5>
    5779: a0 04        	ldy	#$4
    577b: b1 12        	lda	($12),y                 ; 0x12 <__rc2>
    577d: aa           	tax
    577e: a0 01        	ldy	#$1
    5780: b1 14        	lda	($14),y                 ; 0x14 <__rc4>
    5782: 85 18        	sta	$18                     ; 0x18 <__rc8>
    5784: c8           	iny
    5785: 84 1d        	sty	$1d                     ; 0x1d <__rc13>
    5787: b1 14        	lda	($14),y                 ; 0x14 <__rc4>
    5789: 85 19        	sta	$19                     ; 0x19 <__rc9>
    578b: c8           	iny
    578c: b1 14        	lda	($14),y                 ; 0x14 <__rc4>
    578e: d1 12        	cmp	($12),y                 ; 0x12 <__rc2>
    5790: d0 35        	bne	$57c7 <f256main+0x4dc7>
    5792: 85 1b        	sta	$1b                     ; 0x1b <__rc11>
    5794: 86 15        	stx	$15                     ; 0x15 <__rc5>
    5796: a4 1d        	ldy	$1d                     ; 0x1d <__rc13>
    5798: b1 12        	lda	($12),y                 ; 0x12 <__rc2>
    579a: 85 14        	sta	$14                     ; 0x14 <__rc4>
    579c: a6 19        	ldx	$19                     ; 0x19 <__rc9>
    579e: a0 08        	ldy	#$8
    57a0: 84 1e        	sty	$1e                     ; 0x1e <__rc14>
    57a2: e4 14        	cpx	$14                     ; 0x14 <__rc4>
    57a4: f0 03        	beq	$57a9 <f256main+0x4da9>
    57a6: 4c 74 58     	jmp	$5874 <f256main+0x4e74>
    57a9: a0 01        	ldy	#$1
    57ab: b1 12        	lda	($12),y                 ; 0x12 <__rc2>
    57ad: 85 14        	sta	$14                     ; 0x14 <__rc4>
    57af: a6 18        	ldx	$18                     ; 0x18 <__rc8>
    57b1: e4 14        	cpx	$14                     ; 0x14 <__rc4>
    57b3: f0 03        	beq	$57b8 <f256main+0x4db8>
    57b5: 4c 74 58     	jmp	$5874 <f256main+0x4e74>
    57b8: b2 12        	lda	($12)                   ; 0x12 <__rc2>
    57ba: 85 14        	sta	$14                     ; 0x14 <__rc4>
    57bc: a6 15        	ldx	$15                     ; 0x15 <__rc5>
    57be: 86 1d        	stx	$1d                     ; 0x1d <__rc13>
    57c0: e4 14        	cpx	$14                     ; 0x14 <__rc4>
    57c2: 90 12        	bcc	$57d6 <f256main+0x4dd6>
    57c4: 4c 7f 58     	jmp	$587f <f256main+0x4e7f>
    57c7: 86 1d        	stx	$1d                     ; 0x1d <__rc13>
    57c9: 85 1b        	sta	$1b                     ; 0x1b <__rc11>
    57cb: d1 12        	cmp	($12),y                 ; 0x12 <__rc2>
    57cd: a0 08        	ldy	#$8
    57cf: 84 1e        	sty	$1e                     ; 0x1e <__rc14>
    57d1: 90 03        	bcc	$57d6 <f256main+0x4dd6>
    57d3: 4c 7f 58     	jmp	$587f <f256main+0x4e7f>
    57d6: 18           	clc
    57d7: a5 1a        	lda	$1a                     ; 0x1a <__rc10>
    57d9: 69 08        	adc	#$8
    57db: 85 14        	sta	$14                     ; 0x14 <__rc4>
    57dd: a5 1c        	lda	$1c                     ; 0x1c <__rc12>
    57df: 69 00        	adc	#$0
    57e1: 85 15        	sta	$15                     ; 0x15 <__rc5>
    57e3: a6 1d        	ldx	$1d                     ; 0x1d <__rc13>
    57e5: a5 1d        	lda	$1d                     ; 0x1d <__rc13>
    57e7: a4 18        	ldy	$18                     ; 0x18 <__rc8>
    57e9: 84 1a        	sty	$1a                     ; 0x1a <__rc10>
    57eb: a4 19        	ldy	$19                     ; 0x19 <__rc9>
    57ed: 84 1c        	sty	$1c                     ; 0x1c <__rc12>
    57ef: 1a           	inc
    57f0: d0 0a        	bne	$57fc <f256main+0x4dfc>
    57f2: e6 1a        	inc	$1a                     ; 0x1a <__rc10>
    57f4: d0 06        	bne	$57fc <f256main+0x4dfc>
    57f6: e6 1c        	inc	$1c                     ; 0x1c <__rc12>
    57f8: d0 02        	bne	$57fc <f256main+0x4dfc>
    57fa: e6 1b        	inc	$1b                     ; 0x1b <__rc11>
    57fc: a0 04        	ldy	#$4
    57fe: 91 12        	sta	($12),y                 ; 0x12 <__rc2>
    5800: a0 01        	ldy	#$1
    5802: a5 1a        	lda	$1a                     ; 0x1a <__rc10>
    5804: 91 16        	sta	($16),y                 ; 0x16 <__rc6>
    5806: 84 1d        	sty	$1d                     ; 0x1d <__rc13>
    5808: c8           	iny
    5809: 84 1a        	sty	$1a                     ; 0x1a <__rc10>
    580b: a5 1c        	lda	$1c                     ; 0x1c <__rc12>
    580d: 91 16        	sta	($16),y                 ; 0x16 <__rc6>
    580f: c8           	iny
    5810: a5 1b        	lda	$1b                     ; 0x1b <__rc11>
    5812: 91 16        	sta	($16),y                 ; 0x16 <__rc6>
    5814: 18           	clc
    5815: a4 1e        	ldy	$1e                     ; 0x1e <__rc14>
    5817: 84 24        	sty	$24                     ; 0x24 <__rc20>
    5819: 8a           	txa
    581a: 71 12        	adc	($12),y                 ; 0x12 <__rc2>
    581c: 85 12        	sta	$12                     ; 0x12 <__rc2>
    581e: a5 18        	lda	$18                     ; 0x18 <__rc8>
    5820: a4 1d        	ldy	$1d                     ; 0x1d <__rc13>
    5822: 71 14        	adc	($14),y                 ; 0x14 <__rc4>
    5824: 85 16        	sta	$16                     ; 0x16 <__rc6>
    5826: a5 19        	lda	$19                     ; 0x19 <__rc9>
    5828: a4 1a        	ldy	$1a                     ; 0x1a <__rc10>
    582a: 71 14        	adc	($14),y                 ; 0x14 <__rc4>
    582c: 85 13        	sta	$13                     ; 0x13 <__rc3>
    582e: a6 0f        	ldx	$f                      ; 0xf <__data_size+0xf>
    5830: 78           	sei
    5831: a5 16        	lda	$16                     ; 0x16 <__rc6>
    5833: 0a           	asl
    5834: 26 13        	rol	$13                     ; 0x13 <__rc3>
    5836: 0a           	asl
    5837: 26 13        	rol	$13                     ; 0x13 <__rc3>
    5839: 0a           	asl
    583a: a5 13        	lda	$13                     ; 0x13 <__rc3>
    583c: 2a           	rol
    583d: 85 0f        	sta	$f                      ; 0xf <__data_size+0xf>
    583f: a5 16        	lda	$16                     ; 0x16 <__rc6>
    5841: 09 e0        	ora	#$e0
    5843: 85 13        	sta	$13                     ; 0x13 <__rc3>
    5845: b2 12        	lda	($12)                   ; 0x12 <__rc2>
    5847: 86 0f        	stx	$f                      ; 0xf <__data_size+0xf>
    5849: 58           	cli
    584a: aa           	tax
    584b: 30 44        	bmi	$5891 <f256main+0x4e91>
    584d: 64 28        	stz	$28                     ; 0x28 <__rc24>
    584f: 64 12        	stz	$12                     ; 0x12 <__rc2>
    5851: 48           	pha
    5852: a9 00        	lda	#$0
    5854: a0 08        	ldy	#$8
    5856: 91 10        	sta	($10),y                 ; 0x10 <__rc0>
    5858: a0 05        	ldy	#$5
    585a: 91 10        	sta	($10),y                 ; 0x10 <__rc0>
    585c: 64 2a        	stz	$2a                     ; 0x2a <__rc26>
    585e: 64 24        	stz	$24                     ; 0x24 <__rc20>
    5860: 64 2e        	stz	$2e                     ; 0x2e <__rc30>
    5862: 64 13        	stz	$13                     ; 0x13 <__rc3>
    5864: 64 14        	stz	$14                     ; 0x14 <__rc4>
    5866: aa           	tax
    5867: a4 25        	ldy	$25                     ; 0x25 <__rc21>
    5869: 84 26        	sty	$26                     ; 0x26 <__rc22>
    586b: a0 14        	ldy	#$14
    586d: b1 10        	lda	($10),y                 ; 0x10 <__rc0>
    586f: a8           	tay
    5870: 68           	pla
    5871: 4c 1d 5c     	jmp	$5c1d <f256main+0x521d>
    5874: e4 14        	cpx	$14                     ; 0x14 <__rc4>
    5876: a6 15        	ldx	$15                     ; 0x15 <__rc5>
    5878: 86 1d        	stx	$1d                     ; 0x1d <__rc13>
    587a: b0 03        	bcs	$587f <f256main+0x4e7f>
    587c: 4c d6 57     	jmp	$57d6 <f256main+0x4dd6>
    587f: a9 01        	lda	#$1
    5881: a0 18        	ldy	#$18
    5883: 91 12        	sta	($12),y                 ; 0x12 <__rc2>
    5885: e6 7e        	inc	$7e                     ; 0x7e <theOne.7>
    5887: f0 03        	beq	$588c <f256main+0x4e8c>
    5889: 4c 62 4c     	jmp	$4c62 <f256main+0x4262>
    588c: e6 7f        	inc	$7f                     ; 0x7f <theOne.7+0x1>
    588e: 4c 62 4c     	jmp	$4c62 <f256main+0x4262>
    5891: 4a           	lsr
    5892: aa           	tax
    5893: a9 00        	lda	#$0
    5895: 6a           	ror
    5896: 29 80        	and	#$80
    5898: 85 27        	sta	$27                     ; 0x27 <__rc23>
    589a: 8a           	txa
    589b: 29 3f        	and	#$3f
    589d: 85 28        	sta	$28                     ; 0x28 <__rc24>
    589f: a6 80        	ldx	$80                     ; 0x80 <theOne.8>
    58a1: 86 2a        	stx	$2a                     ; 0x2a <__rc26>
    58a3: a6 81        	ldx	$81                     ; 0x81 <theOne.8+0x1>
    58a5: 86 29        	stx	$29                     ; 0x29 <__rc25>
    58a7: a6 25        	ldx	$25                     ; 0x25 <__rc21>
    58a9: 86 26        	stx	$26                     ; 0x26 <__rc22>
    58ab: a6 25        	ldx	$25                     ; 0x25 <__rc21>
    58ad: 86 12        	stx	$12                     ; 0x12 <__rc2>
    58af: 64 13        	stz	$13                     ; 0x13 <__rc3>
    58b1: a2 00        	ldx	#$0
    58b3: a0 14        	ldy	#$14
    58b5: b1 10        	lda	($10),y                 ; 0x10 <__rc0>
    58b7: 85 25        	sta	$25                     ; 0x25 <__rc21>
    58b9: 20 4f 86     	jsr	$864f <__mulhi3>
    58bc: 85 12        	sta	$12                     ; 0x12 <__rc2>
    58be: 86 13        	stx	$13                     ; 0x13 <__rc3>
    58c0: 18           	clc
    58c1: a5 2a        	lda	$2a                     ; 0x2a <__rc26>
    58c3: 65 12        	adc	$12                     ; 0x12 <__rc2>
    58c5: a8           	tay
    58c6: a5 29        	lda	$29                     ; 0x29 <__rc25>
    58c8: 65 13        	adc	$13                     ; 0x13 <__rc3>
    58ca: aa           	tax
    58cb: 84 12        	sty	$12                     ; 0x12 <__rc2>
    58cd: 85 13        	sta	$13                     ; 0x13 <__rc3>
    58cf: 98           	tya
    58d0: 18           	clc
    58d1: 69 08        	adc	#$8
    58d3: 85 14        	sta	$14                     ; 0x14 <__rc4>
    58d5: 8a           	txa
    58d6: 69 00        	adc	#$0
    58d8: 85 15        	sta	$15                     ; 0x15 <__rc5>
    58da: 18           	clc
    58db: 98           	tya
    58dc: 69 04        	adc	#$4
    58de: 85 16        	sta	$16                     ; 0x16 <__rc6>
    58e0: 8a           	txa
    58e1: 69 00        	adc	#$0
    58e3: 85 17        	sta	$17                     ; 0x17 <__rc7>
    58e5: a0 04        	ldy	#$4
    58e7: b1 12        	lda	($12),y                 ; 0x12 <__rc2>
    58e9: 84 1c        	sty	$1c                     ; 0x1c <__rc12>
    58eb: 85 18        	sta	$18                     ; 0x18 <__rc8>
    58ed: a0 01        	ldy	#$1
    58ef: b1 16        	lda	($16),y                 ; 0x16 <__rc6>
    58f1: 85 1b        	sta	$1b                     ; 0x1b <__rc11>
    58f3: 84 19        	sty	$19                     ; 0x19 <__rc9>
    58f5: c8           	iny
    58f6: b1 16        	lda	($16),y                 ; 0x16 <__rc6>
    58f8: 85 1f        	sta	$1f                     ; 0x1f <__rc15>
    58fa: 84 1a        	sty	$1a                     ; 0x1a <__rc10>
    58fc: c8           	iny
    58fd: b1 16        	lda	($16),y                 ; 0x16 <__rc6>
    58ff: 84 1d        	sty	$1d                     ; 0x1d <__rc13>
    5901: a6 18        	ldx	$18                     ; 0x18 <__rc8>
    5903: 86 1e        	stx	$1e                     ; 0x1e <__rc14>
    5905: a6 1b        	ldx	$1b                     ; 0x1b <__rc11>
    5907: 86 22        	stx	$22                     ; 0x22 <__rc18>
    5909: a6 1f        	ldx	$1f                     ; 0x1f <__rc15>
    590b: 86 23        	stx	$23                     ; 0x23 <__rc19>
    590d: a6 1f        	ldx	$1f                     ; 0x1f <__rc15>
    590f: e6 1e        	inc	$1e                     ; 0x1e <__rc14>
    5911: d0 09        	bne	$591c <f256main+0x4f1c>
    5913: e6 22        	inc	$22                     ; 0x22 <__rc18>
    5915: d0 05        	bne	$591c <f256main+0x4f1c>
    5917: e6 23        	inc	$23                     ; 0x23 <__rc19>
    5919: d0 01        	bne	$591c <f256main+0x4f1c>
    591b: 1a           	inc
    591c: 85 1f        	sta	$1f                     ; 0x1f <__rc15>
    591e: a4 1c        	ldy	$1c                     ; 0x1c <__rc12>
    5920: a5 1e        	lda	$1e                     ; 0x1e <__rc14>
    5922: 91 12        	sta	($12),y                 ; 0x12 <__rc2>
    5924: a4 19        	ldy	$19                     ; 0x19 <__rc9>
    5926: a5 22        	lda	$22                     ; 0x22 <__rc18>
    5928: 91 16        	sta	($16),y                 ; 0x16 <__rc6>
    592a: a4 1a        	ldy	$1a                     ; 0x1a <__rc10>
    592c: a5 23        	lda	$23                     ; 0x23 <__rc19>
    592e: 91 16        	sta	($16),y                 ; 0x16 <__rc6>
    5930: a4 1d        	ldy	$1d                     ; 0x1d <__rc13>
    5932: a5 1f        	lda	$1f                     ; 0x1f <__rc15>
    5934: 91 16        	sta	($16),y                 ; 0x16 <__rc6>
    5936: 18           	clc
    5937: a4 24        	ldy	$24                     ; 0x24 <__rc20>
    5939: a5 18        	lda	$18                     ; 0x18 <__rc8>
    593b: 71 12        	adc	($12),y                 ; 0x12 <__rc2>
    593d: 85 13        	sta	$13                     ; 0x13 <__rc3>
    593f: a5 1b        	lda	$1b                     ; 0x1b <__rc11>
    5941: a4 19        	ldy	$19                     ; 0x19 <__rc9>
    5943: 71 14        	adc	($14),y                 ; 0x14 <__rc4>
    5945: 85 12        	sta	$12                     ; 0x12 <__rc2>
    5947: 8a           	txa
    5948: a4 1a        	ldy	$1a                     ; 0x1a <__rc10>
    594a: 71 14        	adc	($14),y                 ; 0x14 <__rc4>
    594c: 85 14        	sta	$14                     ; 0x14 <__rc4>
    594e: a5 12        	lda	$12                     ; 0x12 <__rc2>
    5950: 06 12        	asl	$12                     ; 0x12 <__rc2>
    5952: 26 14        	rol	$14                     ; 0x14 <__rc4>
    5954: 06 12        	asl	$12                     ; 0x12 <__rc2>
    5956: 26 14        	rol	$14                     ; 0x14 <__rc4>
    5958: 06 12        	asl	$12                     ; 0x12 <__rc2>
    595a: 26 14        	rol	$14                     ; 0x14 <__rc4>
    595c: a4 14        	ldy	$14                     ; 0x14 <__rc4>
    595e: a6 0f        	ldx	$f                      ; 0xf <__data_size+0xf>
    5960: 78           	sei
    5961: 84 0f        	sty	$f                      ; 0xf <__data_size+0xf>
    5963: a4 13        	ldy	$13                     ; 0x13 <__rc3>
    5965: 84 12        	sty	$12                     ; 0x12 <__rc2>
    5967: 09 e0        	ora	#$e0
    5969: 85 13        	sta	$13                     ; 0x13 <__rc3>
    596b: b2 12        	lda	($12)                   ; 0x12 <__rc2>
    596d: 86 0f        	stx	$f                      ; 0xf <__data_size+0xf>
    596f: 58           	cli
    5970: aa           	tax
    5971: 10 03        	bpl	$5976 <f256main+0x4f76>
    5973: 4c 02 5a     	jmp	$5a02 <f256main+0x5002>
    5976: 64 12        	stz	$12                     ; 0x12 <__rc2>
    5978: 48           	pha
    5979: a9 00        	lda	#$0
    597b: a0 05        	ldy	#$5
    597d: 91 10        	sta	($10),y                 ; 0x10 <__rc0>
    597f: 64 2a        	stz	$2a                     ; 0x2a <__rc26>
    5981: 64 24        	stz	$24                     ; 0x24 <__rc20>
    5983: 64 13        	stz	$13                     ; 0x13 <__rc3>
    5985: a9 00        	lda	#$0
    5987: a0 08        	ldy	#$8
    5989: 91 10        	sta	($10),y                 ; 0x10 <__rc0>
    598b: 68           	pla
    598c: 64 14        	stz	$14                     ; 0x14 <__rc4>
    598e: a2 00        	ldx	#$0
    5990: a4 25        	ldy	$25                     ; 0x25 <__rc21>
    5992: 85 2e        	sta	$2e                     ; 0x2e <__rc30>
    5994: a5 27        	lda	$27                     ; 0x27 <__rc23>
    5996: 4c 1d 5c     	jmp	$5c1d <f256main+0x521d>
    5999: a0 13        	ldy	#$13
    599b: b1 16        	lda	($16),y                 ; 0x16 <__rc6>
    599d: 85 12        	sta	$12                     ; 0x12 <__rc2>
    599f: c8           	iny
    59a0: b1 16        	lda	($16),y                 ; 0x16 <__rc6>
    59a2: 85 19        	sta	$19                     ; 0x19 <__rc9>
    59a4: c8           	iny
    59a5: b1 16        	lda	($16),y                 ; 0x16 <__rc6>
    59a7: a6 71        	ldx	$71                     ; 0x71 <theOne.1>
    59a9: a4 72        	ldy	$72                     ; 0x72 <theOne.1+0x1>
    59ab: 64 13        	stz	$13                     ; 0x13 <__rc3>
    59ad: 86 14        	stx	$14                     ; 0x14 <__rc4>
    59af: 84 15        	sty	$15                     ; 0x15 <__rc5>
    59b1: 64 16        	stz	$16                     ; 0x16 <__rc6>
    59b3: 64 17        	stz	$17                     ; 0x17 <__rc7>
    59b5: a6 19        	ldx	$19                     ; 0x19 <__rc9>
    59b7: 20 f0 84     	jsr	$84f0 <__udivsi3>
    59ba: 86 14        	stx	$14                     ; 0x14 <__rc4>
    59bc: 0a           	asl
    59bd: 26 14        	rol	$14                     ; 0x14 <__rc4>
    59bf: 26 12        	rol	$12                     ; 0x12 <__rc2>
    59c1: 26 13        	rol	$13                     ; 0x13 <__rc3>
    59c3: 0a           	asl
    59c4: 85 15        	sta	$15                     ; 0x15 <__rc5>
    59c6: 26 14        	rol	$14                     ; 0x14 <__rc4>
    59c8: 26 12        	rol	$12                     ; 0x12 <__rc2>
    59ca: 26 13        	rol	$13                     ; 0x13 <__rc3>
    59cc: 0a           	asl
    59cd: aa           	tax
    59ce: a5 14        	lda	$14                     ; 0x14 <__rc4>
    59d0: 2a           	rol
    59d1: a8           	tay
    59d2: a5 12        	lda	$12                     ; 0x12 <__rc2>
    59d4: 2a           	rol
    59d5: 85 16        	sta	$16                     ; 0x16 <__rc6>
    59d7: a5 13        	lda	$13                     ; 0x13 <__rc3>
    59d9: 2a           	rol
    59da: 85 17        	sta	$17                     ; 0x17 <__rc7>
    59dc: 18           	clc
    59dd: 8a           	txa
    59de: 65 15        	adc	$15                     ; 0x15 <__rc5>
    59e0: 85 15        	sta	$15                     ; 0x15 <__rc5>
    59e2: 98           	tya
    59e3: 65 14        	adc	$14                     ; 0x14 <__rc4>
    59e5: 85 14        	sta	$14                     ; 0x14 <__rc4>
    59e7: a5 16        	lda	$16                     ; 0x16 <__rc6>
    59e9: 65 12        	adc	$12                     ; 0x12 <__rc2>
    59eb: 85 12        	sta	$12                     ; 0x12 <__rc2>
    59ed: a5 17        	lda	$17                     ; 0x17 <__rc7>
    59ef: 65 13        	adc	$13                     ; 0x13 <__rc3>
    59f1: a6 15        	ldx	$15                     ; 0x15 <__rc5>
    59f3: 86 73        	stx	$73                     ; 0x73 <theOne.2>
    59f5: a6 14        	ldx	$14                     ; 0x14 <__rc4>
    59f7: 86 74        	stx	$74                     ; 0x74 <theOne.2+0x1>
    59f9: a6 12        	ldx	$12                     ; 0x12 <__rc2>
    59fb: 86 75        	stx	$75                     ; 0x75 <theOne.2+0x2>
    59fd: 85 76        	sta	$76                     ; 0x76 <theOne.2+0x3>
    59ff: 4c 47 57     	jmp	$5747 <f256main+0x4d47>
    5a02: 4a           	lsr
    5a03: aa           	tax
    5a04: a9 00        	lda	#$0
    5a06: 6a           	ror
    5a07: 46 28        	lsr	$28                     ; 0x28 <__rc24>
    5a09: 48           	pha
    5a0a: a5 28        	lda	$28                     ; 0x28 <__rc24>
    5a0c: a0 08        	ldy	#$8
    5a0e: 91 10        	sta	($10),y                 ; 0x10 <__rc0>
    5a10: 68           	pla
    5a11: a4 27        	ldy	$27                     ; 0x27 <__rc23>
    5a13: 84 28        	sty	$28                     ; 0x28 <__rc24>
    5a15: 66 28        	ror	$28                     ; 0x28 <__rc24>
    5a17: 64 27        	stz	$27                     ; 0x27 <__rc23>
    5a19: 66 27        	ror	$27                     ; 0x27 <__rc23>
    5a1b: 64 13        	stz	$13                     ; 0x13 <__rc3>
    5a1d: 29 80        	and	#$80
    5a1f: 85 2e        	sta	$2e                     ; 0x2e <__rc30>
    5a21: 8a           	txa
    5a22: 29 3f        	and	#$3f
    5a24: 85 2a        	sta	$2a                     ; 0x2a <__rc26>
    5a26: a6 80        	ldx	$80                     ; 0x80 <theOne.8>
    5a28: 86 2f        	stx	$2f                     ; 0x2f <__rc31>
    5a2a: a6 81        	ldx	$81                     ; 0x81 <theOne.8+0x1>
    5a2c: 86 29        	stx	$29                     ; 0x29 <__rc25>
    5a2e: a6 26        	ldx	$26                     ; 0x26 <__rc22>
    5a30: 86 12        	stx	$12                     ; 0x12 <__rc2>
    5a32: a2 00        	ldx	#$0
    5a34: a5 25        	lda	$25                     ; 0x25 <__rc21>
    5a36: 20 4f 86     	jsr	$864f <__mulhi3>
    5a39: 85 12        	sta	$12                     ; 0x12 <__rc2>
    5a3b: 86 13        	stx	$13                     ; 0x13 <__rc3>
    5a3d: 18           	clc
    5a3e: a5 2f        	lda	$2f                     ; 0x2f <__rc31>
    5a40: 65 12        	adc	$12                     ; 0x12 <__rc2>
    5a42: a8           	tay
    5a43: a5 29        	lda	$29                     ; 0x29 <__rc25>
    5a45: 65 13        	adc	$13                     ; 0x13 <__rc3>
    5a47: aa           	tax
    5a48: 84 12        	sty	$12                     ; 0x12 <__rc2>
    5a4a: 85 13        	sta	$13                     ; 0x13 <__rc3>
    5a4c: 18           	clc
    5a4d: 98           	tya
    5a4e: 69 08        	adc	#$8
    5a50: 85 14        	sta	$14                     ; 0x14 <__rc4>
    5a52: 8a           	txa
    5a53: 69 00        	adc	#$0
    5a55: 85 15        	sta	$15                     ; 0x15 <__rc5>
    5a57: 18           	clc
    5a58: 98           	tya
    5a59: 69 04        	adc	#$4
    5a5b: 85 16        	sta	$16                     ; 0x16 <__rc6>
    5a5d: 8a           	txa
    5a5e: 69 00        	adc	#$0
    5a60: 85 17        	sta	$17                     ; 0x17 <__rc7>
    5a62: a0 04        	ldy	#$4
    5a64: b1 12        	lda	($12),y                 ; 0x12 <__rc2>
    5a66: 84 1d        	sty	$1d                     ; 0x1d <__rc13>
    5a68: 85 18        	sta	$18                     ; 0x18 <__rc8>
    5a6a: a0 01        	ldy	#$1
    5a6c: b1 16        	lda	($16),y                 ; 0x16 <__rc6>
    5a6e: 85 1f        	sta	$1f                     ; 0x1f <__rc15>
    5a70: 84 1a        	sty	$1a                     ; 0x1a <__rc10>
    5a72: c8           	iny
    5a73: b1 16        	lda	($16),y                 ; 0x16 <__rc6>
    5a75: 84 1b        	sty	$1b                     ; 0x1b <__rc11>
    5a77: 85 19        	sta	$19                     ; 0x19 <__rc9>
    5a79: c8           	iny
    5a7a: b1 16        	lda	($16),y                 ; 0x16 <__rc6>
    5a7c: 85 1c        	sta	$1c                     ; 0x1c <__rc12>
    5a7e: 84 1e        	sty	$1e                     ; 0x1e <__rc14>
    5a80: a6 1f        	ldx	$1f                     ; 0x1f <__rc15>
    5a82: a4 19        	ldy	$19                     ; 0x19 <__rc9>
    5a84: 84 22        	sty	$22                     ; 0x22 <__rc18>
    5a86: a5 18        	lda	$18                     ; 0x18 <__rc8>
    5a88: 1a           	inc
    5a89: d0 0a        	bne	$5a95 <f256main+0x5095>
    5a8b: e6 1f        	inc	$1f                     ; 0x1f <__rc15>
    5a8d: d0 06        	bne	$5a95 <f256main+0x5095>
    5a8f: e6 22        	inc	$22                     ; 0x22 <__rc18>
    5a91: d0 02        	bne	$5a95 <f256main+0x5095>
    5a93: e6 1c        	inc	$1c                     ; 0x1c <__rc12>
    5a95: a4 1d        	ldy	$1d                     ; 0x1d <__rc13>
    5a97: 91 12        	sta	($12),y                 ; 0x12 <__rc2>
    5a99: a4 1a        	ldy	$1a                     ; 0x1a <__rc10>
    5a9b: a5 1f        	lda	$1f                     ; 0x1f <__rc15>
    5a9d: 91 16        	sta	($16),y                 ; 0x16 <__rc6>
    5a9f: a4 1b        	ldy	$1b                     ; 0x1b <__rc11>
    5aa1: a5 22        	lda	$22                     ; 0x22 <__rc18>
    5aa3: 91 16        	sta	($16),y                 ; 0x16 <__rc6>
    5aa5: a5 1c        	lda	$1c                     ; 0x1c <__rc12>
    5aa7: a4 1e        	ldy	$1e                     ; 0x1e <__rc14>
    5aa9: 91 16        	sta	($16),y                 ; 0x16 <__rc6>
    5aab: 18           	clc
    5aac: a4 24        	ldy	$24                     ; 0x24 <__rc20>
    5aae: 84 16        	sty	$16                     ; 0x16 <__rc6>
    5ab0: a5 18        	lda	$18                     ; 0x18 <__rc8>
    5ab2: 71 12        	adc	($12),y                 ; 0x12 <__rc2>
    5ab4: 85 12        	sta	$12                     ; 0x12 <__rc2>
    5ab6: 8a           	txa
    5ab7: a4 1a        	ldy	$1a                     ; 0x1a <__rc10>
    5ab9: 71 14        	adc	($14),y                 ; 0x14 <__rc4>
    5abb: 85 17        	sta	$17                     ; 0x17 <__rc7>
    5abd: a5 19        	lda	$19                     ; 0x19 <__rc9>
    5abf: a4 1b        	ldy	$1b                     ; 0x1b <__rc11>
    5ac1: 71 14        	adc	($14),y                 ; 0x14 <__rc4>
    5ac3: 85 13        	sta	$13                     ; 0x13 <__rc3>
    5ac5: a5 17        	lda	$17                     ; 0x17 <__rc7>
    5ac7: 0a           	asl
    5ac8: 26 13        	rol	$13                     ; 0x13 <__rc3>
    5aca: 0a           	asl
    5acb: 26 13        	rol	$13                     ; 0x13 <__rc3>
    5acd: 0a           	asl
    5ace: a5 13        	lda	$13                     ; 0x13 <__rc3>
    5ad0: 2a           	rol
    5ad1: a6 0f        	ldx	$f                      ; 0xf <__data_size+0xf>
    5ad3: 78           	sei
    5ad4: 85 0f        	sta	$f                      ; 0xf <__data_size+0xf>
    5ad6: a5 17        	lda	$17                     ; 0x17 <__rc7>
    5ad8: 09 e0        	ora	#$e0
    5ada: 85 13        	sta	$13                     ; 0x13 <__rc3>
    5adc: b2 12        	lda	($12)                   ; 0x12 <__rc2>
    5ade: 86 0f        	stx	$f                      ; 0xf <__data_size+0xf>
    5ae0: 58           	cli
    5ae1: aa           	tax
    5ae2: 30 16        	bmi	$5afa <f256main+0x50fa>
    5ae4: 64 24        	stz	$24                     ; 0x24 <__rc20>
    5ae6: 85 12        	sta	$12                     ; 0x12 <__rc2>
    5ae8: 64 13        	stz	$13                     ; 0x13 <__rc3>
    5aea: 64 14        	stz	$14                     ; 0x14 <__rc4>
    5aec: a9 00        	lda	#$0
    5aee: a0 05        	ldy	#$5
    5af0: 91 10        	sta	($10),y                 ; 0x10 <__rc0>
    5af2: aa           	tax
    5af3: a4 25        	ldy	$25                     ; 0x25 <__rc21>
    5af5: a5 27        	lda	$27                     ; 0x27 <__rc23>
    5af7: 4c 1d 5c     	jmp	$5c1d <f256main+0x521d>
    5afa: 85 15        	sta	$15                     ; 0x15 <__rc5>
    5afc: 46 15        	lsr	$15                     ; 0x15 <__rc5>
    5afe: 64 14        	stz	$14                     ; 0x14 <__rc4>
    5b00: 66 14        	ror	$14                     ; 0x14 <__rc4>
    5b02: 46 2a        	lsr	$2a                     ; 0x2a <__rc26>
    5b04: a5 2a        	lda	$2a                     ; 0x2a <__rc26>
    5b06: a0 02        	ldy	#$2
    5b08: 91 10        	sta	($10),y                 ; 0x10 <__rc0>
    5b0a: 66 2e        	ror	$2e                     ; 0x2e <__rc30>
    5b0c: a6 2e        	ldx	$2e                     ; 0x2e <__rc30>
    5b0e: 86 2a        	stx	$2a                     ; 0x2a <__rc26>
    5b10: 64 2e        	stz	$2e                     ; 0x2e <__rc30>
    5b12: 66 2e        	ror	$2e                     ; 0x2e <__rc30>
    5b14: a0 08        	ldy	#$8
    5b16: b1 10        	lda	($10),y                 ; 0x10 <__rc0>
    5b18: 4a           	lsr
    5b19: a0 05        	ldy	#$5
    5b1b: 91 10        	sta	($10),y                 ; 0x10 <__rc0>
    5b1d: 66 28        	ror	$28                     ; 0x28 <__rc24>
    5b1f: a5 28        	lda	$28                     ; 0x28 <__rc24>
    5b21: a0 08        	ldy	#$8
    5b23: 91 10        	sta	($10),y                 ; 0x10 <__rc0>
    5b25: 66 27        	ror	$27                     ; 0x27 <__rc23>
    5b27: a6 27        	ldx	$27                     ; 0x27 <__rc23>
    5b29: 86 28        	stx	$28                     ; 0x28 <__rc24>
    5b2b: 64 27        	stz	$27                     ; 0x27 <__rc23>
    5b2d: 66 27        	ror	$27                     ; 0x27 <__rc23>
    5b2f: a5 14        	lda	$14                     ; 0x14 <__rc4>
    5b31: 29 80        	and	#$80
    5b33: a0 04        	ldy	#$4
    5b35: 91 10        	sta	($10),y                 ; 0x10 <__rc0>
    5b37: a5 15        	lda	$15                     ; 0x15 <__rc5>
    5b39: 29 3f        	and	#$3f
    5b3b: 88           	dey
    5b3c: 91 10        	sta	($10),y                 ; 0x10 <__rc0>
    5b3e: a6 80        	ldx	$80                     ; 0x80 <theOne.8>
    5b40: 86 2f        	stx	$2f                     ; 0x2f <__rc31>
    5b42: a6 81        	ldx	$81                     ; 0x81 <theOne.8+0x1>
    5b44: 86 24        	stx	$24                     ; 0x24 <__rc20>
    5b46: a6 26        	ldx	$26                     ; 0x26 <__rc22>
    5b48: 86 12        	stx	$12                     ; 0x12 <__rc2>
    5b4a: 64 13        	stz	$13                     ; 0x13 <__rc3>
    5b4c: a2 00        	ldx	#$0
    5b4e: a5 25        	lda	$25                     ; 0x25 <__rc21>
    5b50: a4 16        	ldy	$16                     ; 0x16 <__rc6>
    5b52: 84 29        	sty	$29                     ; 0x29 <__rc25>
    5b54: 20 4f 86     	jsr	$864f <__mulhi3>
    5b57: 85 12        	sta	$12                     ; 0x12 <__rc2>
    5b59: 86 13        	stx	$13                     ; 0x13 <__rc3>
    5b5b: 18           	clc
    5b5c: a5 2f        	lda	$2f                     ; 0x2f <__rc31>
    5b5e: 65 12        	adc	$12                     ; 0x12 <__rc2>
    5b60: a8           	tay
    5b61: a5 24        	lda	$24                     ; 0x24 <__rc20>
    5b63: 65 13        	adc	$13                     ; 0x13 <__rc3>
    5b65: aa           	tax
    5b66: 18           	clc
    5b67: 98           	tya
    5b68: 69 08        	adc	#$8
    5b6a: 85 12        	sta	$12                     ; 0x12 <__rc2>
    5b6c: 8a           	txa
    5b6d: 69 00        	adc	#$0
    5b6f: 84 14        	sty	$14                     ; 0x14 <__rc4>
    5b71: 86 15        	stx	$15                     ; 0x15 <__rc5>
    5b73: 85 13        	sta	$13                     ; 0x13 <__rc3>
    5b75: 18           	clc
    5b76: 98           	tya
    5b77: 69 04        	adc	#$4
    5b79: 85 16        	sta	$16                     ; 0x16 <__rc6>
    5b7b: 8a           	txa
    5b7c: 69 00        	adc	#$0
    5b7e: 85 17        	sta	$17                     ; 0x17 <__rc7>
    5b80: a0 04        	ldy	#$4
    5b82: b1 14        	lda	($14),y                 ; 0x14 <__rc4>
    5b84: 84 1d        	sty	$1d                     ; 0x1d <__rc13>
    5b86: 85 18        	sta	$18                     ; 0x18 <__rc8>
    5b88: a0 01        	ldy	#$1
    5b8a: b1 16        	lda	($16),y                 ; 0x16 <__rc6>
    5b8c: 85 1f        	sta	$1f                     ; 0x1f <__rc15>
    5b8e: 84 1a        	sty	$1a                     ; 0x1a <__rc10>
    5b90: c8           	iny
    5b91: b1 16        	lda	($16),y                 ; 0x16 <__rc6>
    5b93: 84 1b        	sty	$1b                     ; 0x1b <__rc11>
    5b95: 85 19        	sta	$19                     ; 0x19 <__rc9>
    5b97: c8           	iny
    5b98: b1 16        	lda	($16),y                 ; 0x16 <__rc6>
    5b9a: 85 1c        	sta	$1c                     ; 0x1c <__rc12>
    5b9c: 84 1e        	sty	$1e                     ; 0x1e <__rc14>
    5b9e: a6 1f        	ldx	$1f                     ; 0x1f <__rc15>
    5ba0: a4 19        	ldy	$19                     ; 0x19 <__rc9>
    5ba2: 84 22        	sty	$22                     ; 0x22 <__rc18>
    5ba4: a5 18        	lda	$18                     ; 0x18 <__rc8>
    5ba6: 1a           	inc
    5ba7: d0 0a        	bne	$5bb3 <f256main+0x51b3>
    5ba9: e6 1f        	inc	$1f                     ; 0x1f <__rc15>
    5bab: d0 06        	bne	$5bb3 <f256main+0x51b3>
    5bad: e6 22        	inc	$22                     ; 0x22 <__rc18>
    5baf: d0 02        	bne	$5bb3 <f256main+0x51b3>
    5bb1: e6 1c        	inc	$1c                     ; 0x1c <__rc12>
    5bb3: a4 1d        	ldy	$1d                     ; 0x1d <__rc13>
    5bb5: 91 14        	sta	($14),y                 ; 0x14 <__rc4>
    5bb7: a4 1a        	ldy	$1a                     ; 0x1a <__rc10>
    5bb9: a5 1f        	lda	$1f                     ; 0x1f <__rc15>
    5bbb: 91 16        	sta	($16),y                 ; 0x16 <__rc6>
    5bbd: a4 1b        	ldy	$1b                     ; 0x1b <__rc11>
    5bbf: a5 22        	lda	$22                     ; 0x22 <__rc18>
    5bc1: 91 16        	sta	($16),y                 ; 0x16 <__rc6>
    5bc3: a5 1c        	lda	$1c                     ; 0x1c <__rc12>
    5bc5: a4 1e        	ldy	$1e                     ; 0x1e <__rc14>
    5bc7: 91 16        	sta	($16),y                 ; 0x16 <__rc6>
    5bc9: 18           	clc
    5bca: a5 18        	lda	$18                     ; 0x18 <__rc8>
    5bcc: a4 29        	ldy	$29                     ; 0x29 <__rc25>
    5bce: 71 14        	adc	($14),y                 ; 0x14 <__rc4>
    5bd0: 85 14        	sta	$14                     ; 0x14 <__rc4>
    5bd2: 8a           	txa
    5bd3: a4 1a        	ldy	$1a                     ; 0x1a <__rc10>
    5bd5: 71 12        	adc	($12),y                 ; 0x12 <__rc2>
    5bd7: 85 15        	sta	$15                     ; 0x15 <__rc5>
    5bd9: a5 19        	lda	$19                     ; 0x19 <__rc9>
    5bdb: a4 1b        	ldy	$1b                     ; 0x1b <__rc11>
    5bdd: 71 12        	adc	($12),y                 ; 0x12 <__rc2>
    5bdf: 85 12        	sta	$12                     ; 0x12 <__rc2>
    5be1: a5 15        	lda	$15                     ; 0x15 <__rc5>
    5be3: 0a           	asl
    5be4: 26 12        	rol	$12                     ; 0x12 <__rc2>
    5be6: 0a           	asl
    5be7: 26 12        	rol	$12                     ; 0x12 <__rc2>
    5be9: 0a           	asl
    5bea: a5 12        	lda	$12                     ; 0x12 <__rc2>
    5bec: 2a           	rol
    5bed: a6 0f        	ldx	$f                      ; 0xf <__data_size+0xf>
    5bef: 78           	sei
    5bf0: 85 0f        	sta	$f                      ; 0xf <__data_size+0xf>
    5bf2: a4 14        	ldy	$14                     ; 0x14 <__rc4>
    5bf4: 84 12        	sty	$12                     ; 0x12 <__rc2>
    5bf6: a5 15        	lda	$15                     ; 0x15 <__rc5>
    5bf8: 09 e0        	ora	#$e0
    5bfa: 85 13        	sta	$13                     ; 0x13 <__rc3>
    5bfc: b2 12        	lda	($12)                   ; 0x12 <__rc2>
    5bfe: 86 0f        	stx	$f                      ; 0xf <__data_size+0xf>
    5c00: 48           	pha
    5c01: a0 04        	ldy	#$4
    5c03: b1 10        	lda	($10),y                 ; 0x10 <__rc0>
    5c05: 85 12        	sta	$12                     ; 0x12 <__rc2>
    5c07: 88           	dey
    5c08: b1 10        	lda	($10),y                 ; 0x10 <__rc0>
    5c0a: 85 13        	sta	$13                     ; 0x13 <__rc3>
    5c0c: 68           	pla
    5c0d: 85 14        	sta	$14                     ; 0x14 <__rc4>
    5c0f: a5 27        	lda	$27                     ; 0x27 <__rc23>
    5c11: 58           	cli
    5c12: 48           	pha
    5c13: 88           	dey
    5c14: b1 10        	lda	($10),y                 ; 0x10 <__rc0>
    5c16: 85 24        	sta	$24                     ; 0x24 <__rc20>
    5c18: 68           	pla
    5c19: a2 00        	ldx	#$0
    5c1b: a4 25        	ldy	$25                     ; 0x25 <__rc21>
    5c1d: 05 2e        	ora	$2e                     ; 0x2e <__rc30>
    5c1f: 85 18        	sta	$18                     ; 0x18 <__rc8>
    5c21: a5 28        	lda	$28                     ; 0x28 <__rc24>
    5c23: 05 2a        	ora	$2a                     ; 0x2a <__rc26>
    5c25: 85 15        	sta	$15                     ; 0x15 <__rc5>
    5c27: 5a           	phy
    5c28: a0 08        	ldy	#$8
    5c2a: b1 10        	lda	($10),y                 ; 0x10 <__rc0>
    5c2c: 7a           	ply
    5c2d: 05 24        	ora	$24                     ; 0x24 <__rc20>
    5c2f: 85 2e        	sta	$2e                     ; 0x2e <__rc30>
    5c31: a5 18        	lda	$18                     ; 0x18 <__rc8>
    5c33: 05 12        	ora	$12                     ; 0x12 <__rc2>
    5c35: 85 12        	sta	$12                     ; 0x12 <__rc2>
    5c37: a5 15        	lda	$15                     ; 0x15 <__rc5>
    5c39: 05 13        	ora	$13                     ; 0x13 <__rc3>
    5c3b: 85 27        	sta	$27                     ; 0x27 <__rc23>
    5c3d: a5 12        	lda	$12                     ; 0x12 <__rc2>
    5c3f: 05 14        	ora	$14                     ; 0x14 <__rc4>
    5c41: 85 2f        	sta	$2f                     ; 0x2f <__rc31>
    5c43: a5 80        	lda	$80                     ; 0x80 <theOne.8>
    5c45: 85 29        	sta	$29                     ; 0x29 <__rc25>
    5c47: a5 81        	lda	$81                     ; 0x81 <theOne.8+0x1>
    5c49: 85 28        	sta	$28                     ; 0x28 <__rc24>
    5c4b: a5 26        	lda	$26                     ; 0x26 <__rc22>
    5c4d: 85 25        	sta	$25                     ; 0x25 <__rc21>
    5c4f: a5 26        	lda	$26                     ; 0x26 <__rc22>
    5c51: 85 12        	sta	$12                     ; 0x12 <__rc2>
    5c53: 64 13        	stz	$13                     ; 0x13 <__rc3>
    5c55: 84 24        	sty	$24                     ; 0x24 <__rc20>
    5c57: 98           	tya
    5c58: 20 4f 86     	jsr	$864f <__mulhi3>
    5c5b: 85 26        	sta	$26                     ; 0x26 <__rc22>
    5c5d: 85 12        	sta	$12                     ; 0x12 <__rc2>
    5c5f: 86 13        	stx	$13                     ; 0x13 <__rc3>
    5c61: 86 2a        	stx	$2a                     ; 0x2a <__rc26>
    5c63: 18           	clc
    5c64: a5 29        	lda	$29                     ; 0x29 <__rc25>
    5c66: 65 12        	adc	$12                     ; 0x12 <__rc2>
    5c68: a8           	tay
    5c69: a5 28        	lda	$28                     ; 0x28 <__rc24>
    5c6b: 65 13        	adc	$13                     ; 0x13 <__rc3>
    5c6d: aa           	tax
    5c6e: 98           	tya
    5c6f: 84 12        	sty	$12                     ; 0x12 <__rc2>
    5c71: 86 13        	stx	$13                     ; 0x13 <__rc3>
    5c73: 18           	clc
    5c74: 69 0c        	adc	#$c
    5c76: 85 14        	sta	$14                     ; 0x14 <__rc4>
    5c78: 8a           	txa
    5c79: 69 00        	adc	#$0
    5c7b: 85 15        	sta	$15                     ; 0x15 <__rc5>
    5c7d: a0 0c        	ldy	#$c
    5c7f: 84 29        	sty	$29                     ; 0x29 <__rc25>
    5c81: a5 2f        	lda	$2f                     ; 0x2f <__rc31>
    5c83: 91 12        	sta	($12),y                 ; 0x12 <__rc2>
    5c85: a0 01        	ldy	#$1
    5c87: a5 27        	lda	$27                     ; 0x27 <__rc23>
    5c89: 91 14        	sta	($14),y                 ; 0x14 <__rc4>
    5c8b: c8           	iny
    5c8c: a5 2e        	lda	$2e                     ; 0x2e <__rc30>
    5c8e: 84 27        	sty	$27                     ; 0x27 <__rc23>
    5c90: 91 14        	sta	($14),y                 ; 0x14 <__rc4>
    5c92: c8           	iny
    5c93: 84 28        	sty	$28                     ; 0x28 <__rc24>
    5c95: 5a           	phy
    5c96: a0 05        	ldy	#$5
    5c98: b1 10        	lda	($10),y                 ; 0x10 <__rc0>
    5c9a: 7a           	ply
    5c9b: 91 14        	sta	($14),y                 ; 0x14 <__rc4>
    5c9d: a5 24        	lda	$24                     ; 0x24 <__rc20>
    5c9f: 20 e2 66     	jsr	$66e2 <readMIDICmd>
    5ca2: a6 80        	ldx	$80                     ; 0x80 <theOne.8>
    5ca4: a4 81        	ldy	$81                     ; 0x81 <theOne.8+0x1>
    5ca6: 86 2e        	stx	$2e                     ; 0x2e <__rc30>
    5ca8: 84 2f        	sty	$2f                     ; 0x2f <__rc31>
    5caa: 18           	clc
    5cab: a5 26        	lda	$26                     ; 0x26 <__rc22>
    5cad: 65 80        	adc	$80                     ; 0x80 <theOne.8>
    5caf: a8           	tay
    5cb0: a5 2a        	lda	$2a                     ; 0x2a <__rc26>
    5cb2: 65 81        	adc	$81                     ; 0x81 <theOne.8+0x1>
    5cb4: 84 14        	sty	$14                     ; 0x14 <__rc4>
    5cb6: 84 12        	sty	$12                     ; 0x12 <__rc2>
    5cb8: 85 15        	sta	$15                     ; 0x15 <__rc5>
    5cba: 85 13        	sta	$13                     ; 0x13 <__rc3>
    5cbc: a0 18        	ldy	#$18
    5cbe: b1 12        	lda	($12),y                 ; 0x12 <__rc2>
    5cc0: f0 03        	beq	$5cc5 <f256main+0x52c5>
    5cc2: 4c 62 4c     	jmp	$4c62 <f256main+0x4262>
    5cc5: 18           	clc
    5cc6: a5 14        	lda	$14                     ; 0x14 <__rc4>
    5cc8: 69 0c        	adc	#$c
    5cca: 85 14        	sta	$14                     ; 0x14 <__rc4>
    5ccc: a5 15        	lda	$15                     ; 0x15 <__rc5>
    5cce: 69 00        	adc	#$0
    5cd0: 85 15        	sta	$15                     ; 0x15 <__rc5>
    5cd2: a4 29        	ldy	$29                     ; 0x29 <__rc25>
    5cd4: b1 12        	lda	($12),y                 ; 0x12 <__rc2>
    5cd6: 85 12        	sta	$12                     ; 0x12 <__rc2>
    5cd8: a0 01        	ldy	#$1
    5cda: b1 14        	lda	($14),y                 ; 0x14 <__rc4>
    5cdc: 85 13        	sta	$13                     ; 0x13 <__rc3>
    5cde: a4 27        	ldy	$27                     ; 0x27 <__rc23>
    5ce0: b1 14        	lda	($14),y                 ; 0x14 <__rc4>
    5ce2: 85 16        	sta	$16                     ; 0x16 <__rc6>
    5ce4: a4 28        	ldy	$28                     ; 0x28 <__rc24>
    5ce6: 4c 9b 37     	jmp	$379b <f256main+0x2d9b>

00005ce9 <textPrint>:
    5ce9: a6 01        	ldx	$1                      ; 0x1 <__data_size+0x1>
    5ceb: 86 1c        	stx	$1c                     ; 0x1c <__rc12>
    5ced: a6 5d        	ldx	$5d                     ; 0x5d <_row>
    5cef: a9 50        	lda	#$50
    5cf1: a8           	tay
    5cf2: 84 1d        	sty	$1d                     ; 0x1d <__rc13>
    5cf4: 8d 00 de     	sta	$de00                   ; 0xde00 <__heap_start+0x5304>
    5cf7: 9c 01 de     	stz	$de01                   ; 0xde01 <__heap_start+0x5305>
    5cfa: 8e 02 de     	stx	$de02                   ; 0xde02 <__heap_start+0x5306>
    5cfd: 9c 03 de     	stz	$de03                   ; 0xde03 <__heap_start+0x5307>
    5d00: ae 10 de     	ldx	$de10                   ; 0xde10 <__heap_start+0x5314>
    5d03: ac 11 de     	ldy	$de11                   ; 0xde11 <__heap_start+0x5315>
    5d06: 84 15        	sty	$15                     ; 0x15 <__rc5>
    5d08: ad 12 de     	lda	$de12                   ; 0xde12 <__heap_start+0x5316>
    5d0b: ac 13 de     	ldy	$de13                   ; 0xde13 <__heap_start+0x5317>
    5d0e: 84 18        	sty	$18                     ; 0x18 <__rc8>
    5d10: 9c 08 de     	stz	$de08                   ; 0xde08 <__heap_start+0x530c>
    5d13: a0 c0        	ldy	#$c0
    5d15: 8c 09 de     	sty	$de09                   ; 0xde09 <__heap_start+0x530d>
    5d18: 9c 0a de     	stz	$de0a                   ; 0xde0a <__heap_start+0x530e>
    5d1b: 9c 0b de     	stz	$de0b                   ; 0xde0b <__heap_start+0x530f>
    5d1e: 8e 0c de     	stx	$de0c                   ; 0xde0c <__heap_start+0x5310>
    5d21: 64 14        	stz	$14                     ; 0x14 <__rc4>
    5d23: a2 00        	ldx	#$0
    5d25: 86 16        	stx	$16                     ; 0x16 <__rc6>
    5d27: a2 c0        	ldx	#$c0
    5d29: 86 17        	stx	$17                     ; 0x17 <__rc7>
    5d2b: a6 15        	ldx	$15                     ; 0x15 <__rc5>
    5d2d: 8e 0d de     	stx	$de0d                   ; 0xde0d <__heap_start+0x5311>
    5d30: 8d 0e de     	sta	$de0e                   ; 0xde0e <__heap_start+0x5312>
    5d33: a6 18        	ldx	$18                     ; 0x18 <__rc8>
    5d35: 8e 0f de     	stx	$de0f                   ; 0xde0f <__heap_start+0x5313>
    5d38: ac 18 de     	ldy	$de18                   ; 0xde18 <__heap_start+0x531c>
    5d3b: ad 19 de     	lda	$de19                   ; 0xde19 <__heap_start+0x531d>
    5d3e: ae 1a de     	ldx	$de1a                   ; 0xde1a <__heap_start+0x531e>
    5d41: ae 1b de     	ldx	$de1b                   ; 0xde1b <__heap_start+0x531f>
    5d44: 84 18        	sty	$18                     ; 0x18 <__rc8>
    5d46: 85 19        	sta	$19                     ; 0x19 <__rc9>
    5d48: 64 15        	stz	$15                     ; 0x15 <__rc5>
    5d4a: a2 20        	ldx	#$20
    5d4c: 4c e8 5f     	jmp	$5fe8 <textPrint+0x2ff>
    5d4f: a5 1b        	lda	$1b                     ; 0x1b <__rc11>
    5d51: f0 1c        	beq	$5d6f <textPrint+0x86>
    5d53: b1 18        	lda	($18),y                 ; 0x18 <__rc8>
    5d55: 92 18        	sta	($18)                   ; 0x18 <__rc8>
    5d57: a9 ff        	lda	#$ff
    5d59: c6 1a        	dec	$1a                     ; 0x1a <__rc10>
    5d5b: c5 1a        	cmp	$1a                     ; 0x1a <__rc10>
    5d5d: f0 06        	beq	$5d65 <textPrint+0x7c>
    5d5f: e6 18        	inc	$18                     ; 0x18 <__rc8>
    5d61: d0 ec        	bne	$5d4f <textPrint+0x66>
    5d63: 80 06        	bra	$5d6b <textPrint+0x82>
    5d65: c6 1b        	dec	$1b                     ; 0x1b <__rc11>
    5d67: e6 18        	inc	$18                     ; 0x18 <__rc8>
    5d69: d0 e4        	bne	$5d4f <textPrint+0x66>
    5d6b: e6 19        	inc	$19                     ; 0x19 <__rc9>
    5d6d: 80 e0        	bra	$5d4f <textPrint+0x66>
    5d6f: a5 1a        	lda	$1a                     ; 0x1a <__rc10>
    5d71: d0 e0        	bne	$5d53 <textPrint+0x6a>
    5d73: a9 02        	lda	#$2
    5d75: 85 01        	sta	$1                      ; 0x1 <__data_size+0x1>
    5d77: a9 10        	lda	#$10
    5d79: 5a           	phy
    5d7a: a0 00        	ldy	#$0
    5d7c: 84 18        	sty	$18                     ; 0x18 <__rc8>
    5d7e: a0 c0        	ldy	#$c0
    5d80: 84 19        	sty	$19                     ; 0x19 <__rc9>
    5d82: 7a           	ply
    5d83: 85 1a        	sta	$1a                     ; 0x1a <__rc10>
    5d85: a9 09        	lda	#$9
    5d87: 85 1b        	sta	$1b                     ; 0x1b <__rc11>
    5d89: 80 04        	bra	$5d8f <textPrint+0xa6>
    5d8b: a5 1b        	lda	$1b                     ; 0x1b <__rc11>
    5d8d: f0 1c        	beq	$5dab <textPrint+0xc2>
    5d8f: b1 18        	lda	($18),y                 ; 0x18 <__rc8>
    5d91: 92 18        	sta	($18)                   ; 0x18 <__rc8>
    5d93: a9 ff        	lda	#$ff
    5d95: c6 1a        	dec	$1a                     ; 0x1a <__rc10>
    5d97: c5 1a        	cmp	$1a                     ; 0x1a <__rc10>
    5d99: f0 06        	beq	$5da1 <textPrint+0xb8>
    5d9b: e6 18        	inc	$18                     ; 0x18 <__rc8>
    5d9d: d0 ec        	bne	$5d8b <textPrint+0xa2>
    5d9f: 80 06        	bra	$5da7 <textPrint+0xbe>
    5da1: c6 1b        	dec	$1b                     ; 0x1b <__rc11>
    5da3: e6 18        	inc	$18                     ; 0x18 <__rc8>
    5da5: d0 e4        	bne	$5d8b <textPrint+0xa2>
    5da7: e6 19        	inc	$19                     ; 0x19 <__rc9>
    5da9: 80 e0        	bra	$5d8b <textPrint+0xa2>
    5dab: a5 1a        	lda	$1a                     ; 0x1a <__rc10>
    5dad: d0 e0        	bne	$5d8f <textPrint+0xa6>
    5daf: a0 50        	ldy	#$50
    5db1: 84 1d        	sty	$1d                     ; 0x1d <__rc13>
    5db3: a9 02        	lda	#$2
    5db5: 85 01        	sta	$1                      ; 0x1 <__data_size+0x1>
    5db7: a0 03        	ldy	#$3
    5db9: 84 01        	sty	$1                      ; 0x1 <__data_size+0x1>
    5dbb: a0 f0        	ldy	#$f0
    5dbd: 8c 10 c9     	sty	$c910                   ; 0xc910 <__heap_start+0x3e14>
    5dc0: 8c 11 c9     	sty	$c911                   ; 0xc911 <__heap_start+0x3e15>
    5dc3: 8c 12 c9     	sty	$c912                   ; 0xc912 <__heap_start+0x3e16>
    5dc6: 8c 13 c9     	sty	$c913                   ; 0xc913 <__heap_start+0x3e17>
    5dc9: 8c 14 c9     	sty	$c914                   ; 0xc914 <__heap_start+0x3e18>
    5dcc: 8c 15 c9     	sty	$c915                   ; 0xc915 <__heap_start+0x3e19>
    5dcf: 8c 16 c9     	sty	$c916                   ; 0xc916 <__heap_start+0x3e1a>
    5dd2: 8c 17 c9     	sty	$c917                   ; 0xc917 <__heap_start+0x3e1b>
    5dd5: 8c 18 c9     	sty	$c918                   ; 0xc918 <__heap_start+0x3e1c>
    5dd8: 8c 19 c9     	sty	$c919                   ; 0xc919 <__heap_start+0x3e1d>
    5ddb: 8c 1a c9     	sty	$c91a                   ; 0xc91a <__heap_start+0x3e1e>
    5dde: 8c 1b c9     	sty	$c91b                   ; 0xc91b <__heap_start+0x3e1f>
    5de1: 8c 1c c9     	sty	$c91c                   ; 0xc91c <__heap_start+0x3e20>
    5de4: 8c 1d c9     	sty	$c91d                   ; 0xc91d <__heap_start+0x3e21>
    5de7: 8c 1e c9     	sty	$c91e                   ; 0xc91e <__heap_start+0x3e22>
    5dea: 8c 1f c9     	sty	$c91f                   ; 0xc91f <__heap_start+0x3e23>
    5ded: 8c 20 c9     	sty	$c920                   ; 0xc920 <__heap_start+0x3e24>
    5df0: 8c 21 c9     	sty	$c921                   ; 0xc921 <__heap_start+0x3e25>
    5df3: 8c 22 c9     	sty	$c922                   ; 0xc922 <__heap_start+0x3e26>
    5df6: 8c 23 c9     	sty	$c923                   ; 0xc923 <__heap_start+0x3e27>
    5df9: 8c 24 c9     	sty	$c924                   ; 0xc924 <__heap_start+0x3e28>
    5dfc: 8c 25 c9     	sty	$c925                   ; 0xc925 <__heap_start+0x3e29>
    5dff: 8c 26 c9     	sty	$c926                   ; 0xc926 <__heap_start+0x3e2a>
    5e02: 8c 27 c9     	sty	$c927                   ; 0xc927 <__heap_start+0x3e2b>
    5e05: 8c 28 c9     	sty	$c928                   ; 0xc928 <__heap_start+0x3e2c>
    5e08: 8c 29 c9     	sty	$c929                   ; 0xc929 <__heap_start+0x3e2d>
    5e0b: 8c 2a c9     	sty	$c92a                   ; 0xc92a <__heap_start+0x3e2e>
    5e0e: 8c 2b c9     	sty	$c92b                   ; 0xc92b <__heap_start+0x3e2f>
    5e11: 8c 2c c9     	sty	$c92c                   ; 0xc92c <__heap_start+0x3e30>
    5e14: 8c 2d c9     	sty	$c92d                   ; 0xc92d <__heap_start+0x3e31>
    5e17: 8c 2e c9     	sty	$c92e                   ; 0xc92e <__heap_start+0x3e32>
    5e1a: 8c 2f c9     	sty	$c92f                   ; 0xc92f <__heap_start+0x3e33>
    5e1d: 8c 30 c9     	sty	$c930                   ; 0xc930 <__heap_start+0x3e34>
    5e20: 8c 31 c9     	sty	$c931                   ; 0xc931 <__heap_start+0x3e35>
    5e23: 8c 32 c9     	sty	$c932                   ; 0xc932 <__heap_start+0x3e36>
    5e26: 8c 33 c9     	sty	$c933                   ; 0xc933 <__heap_start+0x3e37>
    5e29: 8c 34 c9     	sty	$c934                   ; 0xc934 <__heap_start+0x3e38>
    5e2c: 8c 35 c9     	sty	$c935                   ; 0xc935 <__heap_start+0x3e39>
    5e2f: 8c 36 c9     	sty	$c936                   ; 0xc936 <__heap_start+0x3e3a>
    5e32: 8c 37 c9     	sty	$c937                   ; 0xc937 <__heap_start+0x3e3b>
    5e35: 8c 38 c9     	sty	$c938                   ; 0xc938 <__heap_start+0x3e3c>
    5e38: 8c 39 c9     	sty	$c939                   ; 0xc939 <__heap_start+0x3e3d>
    5e3b: 8c 3a c9     	sty	$c93a                   ; 0xc93a <__heap_start+0x3e3e>
    5e3e: 8c 3b c9     	sty	$c93b                   ; 0xc93b <__heap_start+0x3e3f>
    5e41: 8c 3c c9     	sty	$c93c                   ; 0xc93c <__heap_start+0x3e40>
    5e44: 8c 3d c9     	sty	$c93d                   ; 0xc93d <__heap_start+0x3e41>
    5e47: 8c 3e c9     	sty	$c93e                   ; 0xc93e <__heap_start+0x3e42>
    5e4a: 8c 3f c9     	sty	$c93f                   ; 0xc93f <__heap_start+0x3e43>
    5e4d: 8c 40 c9     	sty	$c940                   ; 0xc940 <__heap_start+0x3e44>
    5e50: 8c 41 c9     	sty	$c941                   ; 0xc941 <__heap_start+0x3e45>
    5e53: 8c 42 c9     	sty	$c942                   ; 0xc942 <__heap_start+0x3e46>
    5e56: 8c 43 c9     	sty	$c943                   ; 0xc943 <__heap_start+0x3e47>
    5e59: 8c 44 c9     	sty	$c944                   ; 0xc944 <__heap_start+0x3e48>
    5e5c: 8c 45 c9     	sty	$c945                   ; 0xc945 <__heap_start+0x3e49>
    5e5f: 8c 46 c9     	sty	$c946                   ; 0xc946 <__heap_start+0x3e4a>
    5e62: 8c 47 c9     	sty	$c947                   ; 0xc947 <__heap_start+0x3e4b>
    5e65: 8c 48 c9     	sty	$c948                   ; 0xc948 <__heap_start+0x3e4c>
    5e68: 8c 49 c9     	sty	$c949                   ; 0xc949 <__heap_start+0x3e4d>
    5e6b: 8c 4a c9     	sty	$c94a                   ; 0xc94a <__heap_start+0x3e4e>
    5e6e: 8c 4b c9     	sty	$c94b                   ; 0xc94b <__heap_start+0x3e4f>
    5e71: 8c 4c c9     	sty	$c94c                   ; 0xc94c <__heap_start+0x3e50>
    5e74: 8c 4d c9     	sty	$c94d                   ; 0xc94d <__heap_start+0x3e51>
    5e77: 8c 4e c9     	sty	$c94e                   ; 0xc94e <__heap_start+0x3e52>
    5e7a: 8c 4f c9     	sty	$c94f                   ; 0xc94f <__heap_start+0x3e53>
    5e7d: 8c 50 c9     	sty	$c950                   ; 0xc950 <__heap_start+0x3e54>
    5e80: 8c 51 c9     	sty	$c951                   ; 0xc951 <__heap_start+0x3e55>
    5e83: 8c 52 c9     	sty	$c952                   ; 0xc952 <__heap_start+0x3e56>
    5e86: 8c 53 c9     	sty	$c953                   ; 0xc953 <__heap_start+0x3e57>
    5e89: 8c 54 c9     	sty	$c954                   ; 0xc954 <__heap_start+0x3e58>
    5e8c: 8c 55 c9     	sty	$c955                   ; 0xc955 <__heap_start+0x3e59>
    5e8f: 8c 56 c9     	sty	$c956                   ; 0xc956 <__heap_start+0x3e5a>
    5e92: 8c 57 c9     	sty	$c957                   ; 0xc957 <__heap_start+0x3e5b>
    5e95: 8c 58 c9     	sty	$c958                   ; 0xc958 <__heap_start+0x3e5c>
    5e98: 8c 59 c9     	sty	$c959                   ; 0xc959 <__heap_start+0x3e5d>
    5e9b: 8c 5a c9     	sty	$c95a                   ; 0xc95a <__heap_start+0x3e5e>
    5e9e: 8c 5b c9     	sty	$c95b                   ; 0xc95b <__heap_start+0x3e5f>
    5ea1: 8c 5c c9     	sty	$c95c                   ; 0xc95c <__heap_start+0x3e60>
    5ea4: 8c 5d c9     	sty	$c95d                   ; 0xc95d <__heap_start+0x3e61>
    5ea7: 8c 5e c9     	sty	$c95e                   ; 0xc95e <__heap_start+0x3e62>
    5eaa: 8c 5f c9     	sty	$c95f                   ; 0xc95f <__heap_start+0x3e63>
    5ead: 85 01        	sta	$1                      ; 0x1 <__data_size+0x1>
    5eaf: 8e 10 c9     	stx	$c910                   ; 0xc910 <__heap_start+0x3e14>
    5eb2: 8e 11 c9     	stx	$c911                   ; 0xc911 <__heap_start+0x3e15>
    5eb5: 8e 12 c9     	stx	$c912                   ; 0xc912 <__heap_start+0x3e16>
    5eb8: 8e 13 c9     	stx	$c913                   ; 0xc913 <__heap_start+0x3e17>
    5ebb: 8e 14 c9     	stx	$c914                   ; 0xc914 <__heap_start+0x3e18>
    5ebe: 8e 15 c9     	stx	$c915                   ; 0xc915 <__heap_start+0x3e19>
    5ec1: 8e 16 c9     	stx	$c916                   ; 0xc916 <__heap_start+0x3e1a>
    5ec4: 8e 17 c9     	stx	$c917                   ; 0xc917 <__heap_start+0x3e1b>
    5ec7: 8e 18 c9     	stx	$c918                   ; 0xc918 <__heap_start+0x3e1c>
    5eca: 8e 19 c9     	stx	$c919                   ; 0xc919 <__heap_start+0x3e1d>
    5ecd: 8e 1a c9     	stx	$c91a                   ; 0xc91a <__heap_start+0x3e1e>
    5ed0: 8e 1b c9     	stx	$c91b                   ; 0xc91b <__heap_start+0x3e1f>
    5ed3: 8e 1c c9     	stx	$c91c                   ; 0xc91c <__heap_start+0x3e20>
    5ed6: 8e 1d c9     	stx	$c91d                   ; 0xc91d <__heap_start+0x3e21>
    5ed9: 8e 1e c9     	stx	$c91e                   ; 0xc91e <__heap_start+0x3e22>
    5edc: 8e 1f c9     	stx	$c91f                   ; 0xc91f <__heap_start+0x3e23>
    5edf: 8e 20 c9     	stx	$c920                   ; 0xc920 <__heap_start+0x3e24>
    5ee2: 8e 21 c9     	stx	$c921                   ; 0xc921 <__heap_start+0x3e25>
    5ee5: 8e 22 c9     	stx	$c922                   ; 0xc922 <__heap_start+0x3e26>
    5ee8: 8e 23 c9     	stx	$c923                   ; 0xc923 <__heap_start+0x3e27>
    5eeb: 8e 24 c9     	stx	$c924                   ; 0xc924 <__heap_start+0x3e28>
    5eee: 8e 25 c9     	stx	$c925                   ; 0xc925 <__heap_start+0x3e29>
    5ef1: 8e 26 c9     	stx	$c926                   ; 0xc926 <__heap_start+0x3e2a>
    5ef4: 8e 27 c9     	stx	$c927                   ; 0xc927 <__heap_start+0x3e2b>
    5ef7: 8e 28 c9     	stx	$c928                   ; 0xc928 <__heap_start+0x3e2c>
    5efa: 8e 29 c9     	stx	$c929                   ; 0xc929 <__heap_start+0x3e2d>
    5efd: 8e 2a c9     	stx	$c92a                   ; 0xc92a <__heap_start+0x3e2e>
    5f00: 8e 2b c9     	stx	$c92b                   ; 0xc92b <__heap_start+0x3e2f>
    5f03: 8e 2c c9     	stx	$c92c                   ; 0xc92c <__heap_start+0x3e30>
    5f06: 8e 2d c9     	stx	$c92d                   ; 0xc92d <__heap_start+0x3e31>
    5f09: 8e 2e c9     	stx	$c92e                   ; 0xc92e <__heap_start+0x3e32>
    5f0c: 8e 2f c9     	stx	$c92f                   ; 0xc92f <__heap_start+0x3e33>
    5f0f: 8e 30 c9     	stx	$c930                   ; 0xc930 <__heap_start+0x3e34>
    5f12: 8e 31 c9     	stx	$c931                   ; 0xc931 <__heap_start+0x3e35>
    5f15: 8e 32 c9     	stx	$c932                   ; 0xc932 <__heap_start+0x3e36>
    5f18: 8e 33 c9     	stx	$c933                   ; 0xc933 <__heap_start+0x3e37>
    5f1b: 8e 34 c9     	stx	$c934                   ; 0xc934 <__heap_start+0x3e38>
    5f1e: 8e 35 c9     	stx	$c935                   ; 0xc935 <__heap_start+0x3e39>
    5f21: 8e 36 c9     	stx	$c936                   ; 0xc936 <__heap_start+0x3e3a>
    5f24: 8e 37 c9     	stx	$c937                   ; 0xc937 <__heap_start+0x3e3b>
    5f27: 8e 38 c9     	stx	$c938                   ; 0xc938 <__heap_start+0x3e3c>
    5f2a: 8e 39 c9     	stx	$c939                   ; 0xc939 <__heap_start+0x3e3d>
    5f2d: 8e 3a c9     	stx	$c93a                   ; 0xc93a <__heap_start+0x3e3e>
    5f30: 8e 3b c9     	stx	$c93b                   ; 0xc93b <__heap_start+0x3e3f>
    5f33: 8e 3c c9     	stx	$c93c                   ; 0xc93c <__heap_start+0x3e40>
    5f36: 8e 3d c9     	stx	$c93d                   ; 0xc93d <__heap_start+0x3e41>
    5f39: 8e 3e c9     	stx	$c93e                   ; 0xc93e <__heap_start+0x3e42>
    5f3c: 8e 3f c9     	stx	$c93f                   ; 0xc93f <__heap_start+0x3e43>
    5f3f: 8e 40 c9     	stx	$c940                   ; 0xc940 <__heap_start+0x3e44>
    5f42: 8e 41 c9     	stx	$c941                   ; 0xc941 <__heap_start+0x3e45>
    5f45: 8e 42 c9     	stx	$c942                   ; 0xc942 <__heap_start+0x3e46>
    5f48: 8e 43 c9     	stx	$c943                   ; 0xc943 <__heap_start+0x3e47>
    5f4b: 8e 44 c9     	stx	$c944                   ; 0xc944 <__heap_start+0x3e48>
    5f4e: 8e 45 c9     	stx	$c945                   ; 0xc945 <__heap_start+0x3e49>
    5f51: 8e 46 c9     	stx	$c946                   ; 0xc946 <__heap_start+0x3e4a>
    5f54: 8e 47 c9     	stx	$c947                   ; 0xc947 <__heap_start+0x3e4b>
    5f57: 8e 48 c9     	stx	$c948                   ; 0xc948 <__heap_start+0x3e4c>
    5f5a: 8e 49 c9     	stx	$c949                   ; 0xc949 <__heap_start+0x3e4d>
    5f5d: 8e 4a c9     	stx	$c94a                   ; 0xc94a <__heap_start+0x3e4e>
    5f60: 8e 4b c9     	stx	$c94b                   ; 0xc94b <__heap_start+0x3e4f>
    5f63: 8e 4c c9     	stx	$c94c                   ; 0xc94c <__heap_start+0x3e50>
    5f66: 8e 4d c9     	stx	$c94d                   ; 0xc94d <__heap_start+0x3e51>
    5f69: 8e 4e c9     	stx	$c94e                   ; 0xc94e <__heap_start+0x3e52>
    5f6c: 8e 4f c9     	stx	$c94f                   ; 0xc94f <__heap_start+0x3e53>
    5f6f: 8e 50 c9     	stx	$c950                   ; 0xc950 <__heap_start+0x3e54>
    5f72: 8e 51 c9     	stx	$c951                   ; 0xc951 <__heap_start+0x3e55>
    5f75: 8e 52 c9     	stx	$c952                   ; 0xc952 <__heap_start+0x3e56>
    5f78: 8e 53 c9     	stx	$c953                   ; 0xc953 <__heap_start+0x3e57>
    5f7b: 8e 54 c9     	stx	$c954                   ; 0xc954 <__heap_start+0x3e58>
    5f7e: 8e 55 c9     	stx	$c955                   ; 0xc955 <__heap_start+0x3e59>
    5f81: 8e 56 c9     	stx	$c956                   ; 0xc956 <__heap_start+0x3e5a>
    5f84: 8e 57 c9     	stx	$c957                   ; 0xc957 <__heap_start+0x3e5b>
    5f87: 8e 58 c9     	stx	$c958                   ; 0xc958 <__heap_start+0x3e5c>
    5f8a: 8e 59 c9     	stx	$c959                   ; 0xc959 <__heap_start+0x3e5d>
    5f8d: 8e 5a c9     	stx	$c95a                   ; 0xc95a <__heap_start+0x3e5e>
    5f90: 8e 5b c9     	stx	$c95b                   ; 0xc95b <__heap_start+0x3e5f>
    5f93: 8e 5c c9     	stx	$c95c                   ; 0xc95c <__heap_start+0x3e60>
    5f96: 8e 5d c9     	stx	$c95d                   ; 0xc95d <__heap_start+0x3e61>
    5f99: 8e 5e c9     	stx	$c95e                   ; 0xc95e <__heap_start+0x3e62>
    5f9c: 8e 5f c9     	stx	$c95f                   ; 0xc95f <__heap_start+0x3e63>
    5f9f: c6 5d        	dec	$5d                     ; 0x5d <_row>
    5fa1: 9c 08 de     	stz	$de08                   ; 0xde08 <__heap_start+0x530c>
    5fa4: a0 c0        	ldy	#$c0
    5fa6: 8c 09 de     	sty	$de09                   ; 0xde09 <__heap_start+0x530d>
    5fa9: 9c 0a de     	stz	$de0a                   ; 0xde0a <__heap_start+0x530e>
    5fac: 9c 0b de     	stz	$de0b                   ; 0xde0b <__heap_start+0x530f>
    5faf: a0 1d        	ldy	#$1d
    5fb1: 8c 0c de     	sty	$de0c                   ; 0xde0c <__heap_start+0x5310>
    5fb4: 9c 0d de     	stz	$de0d                   ; 0xde0d <__heap_start+0x5311>
    5fb7: 9c 0e de     	stz	$de0e                   ; 0xde0e <__heap_start+0x5312>
    5fba: 9c 0f de     	stz	$de0f                   ; 0xde0f <__heap_start+0x5313>
    5fbd: ac 18 de     	ldy	$de18                   ; 0xde18 <__heap_start+0x531c>
    5fc0: ad 19 de     	lda	$de19                   ; 0xde19 <__heap_start+0x531d>
    5fc3: 85 19        	sta	$19                     ; 0x19 <__rc9>
    5fc5: ad 1a de     	lda	$de1a                   ; 0xde1a <__heap_start+0x531e>
    5fc8: 84 18        	sty	$18                     ; 0x18 <__rc8>
    5fca: ac 1b de     	ldy	$de1b                   ; 0xde1b <__heap_start+0x531f>
    5fcd: e6 14        	inc	$14                     ; 0x14 <__rc4>
    5fcf: d0 02        	bne	$5fd3 <textPrint+0x2ea>
    5fd1: e6 15        	inc	$15                     ; 0x15 <__rc5>
    5fd3: 80 13        	bra	$5fe8 <textPrint+0x2ff>
    5fd5: a5 18        	lda	$18                     ; 0x18 <__rc8>
    5fd7: 18           	clc
    5fd8: 69 50        	adc	#$50
    5fda: 85 18        	sta	$18                     ; 0x18 <__rc8>
    5fdc: a5 19        	lda	$19                     ; 0x19 <__rc9>
    5fde: 69 00        	adc	#$0
    5fe0: 85 19        	sta	$19                     ; 0x19 <__rc9>
    5fe2: e6 14        	inc	$14                     ; 0x14 <__rc4>
    5fe4: d0 02        	bne	$5fe8 <textPrint+0x2ff>
    5fe6: e6 15        	inc	$15                     ; 0x15 <__rc5>
    5fe8: a5 12        	lda	$12                     ; 0x12 <__rc2>
    5fea: 18           	clc
    5feb: 65 14        	adc	$14                     ; 0x14 <__rc4>
    5fed: 85 1a        	sta	$1a                     ; 0x1a <__rc10>
    5fef: a5 13        	lda	$13                     ; 0x13 <__rc3>
    5ff1: 65 15        	adc	$15                     ; 0x15 <__rc5>
    5ff3: 85 1b        	sta	$1b                     ; 0x1b <__rc11>
    5ff5: b2 1a        	lda	($1a)                   ; 0x1a <__rc10>
    5ff7: c9 0a        	cmp	#$a
    5ff9: f0 24        	beq	$601f <textPrint+0x336>
    5ffb: c9 0d        	cmp	#$d
    5ffd: f0 20        	beq	$601f <textPrint+0x336>
    5fff: a8           	tay
    6000: f0 46        	beq	$6048 <textPrint+0x35f>
    6002: a0 03        	ldy	#$3
    6004: 84 01        	sty	$1                      ; 0x1 <__data_size+0x1>
    6006: a4 5c        	ldy	$5c                     ; 0x5c <_col>
    6008: a9 f0        	lda	#$f0
    600a: 91 18        	sta	($18),y                 ; 0x18 <__rc8>
    600c: a0 02        	ldy	#$2
    600e: 84 01        	sty	$1                      ; 0x1 <__data_size+0x1>
    6010: b2 1a        	lda	($1a)                   ; 0x1a <__rc10>
    6012: a4 5c        	ldy	$5c                     ; 0x5c <_col>
    6014: 91 18        	sta	($18),y                 ; 0x18 <__rc8>
    6016: a4 5c        	ldy	$5c                     ; 0x5c <_col>
    6018: c8           	iny
    6019: e6 5c        	inc	$5c                     ; 0x5c <_col>
    601b: c0 50        	cpy	#$50
    601d: d0 c3        	bne	$5fe2 <textPrint+0x2f9>
    601f: 64 5c        	stz	$5c                     ; 0x5c <_col>
    6021: a4 5d        	ldy	$5d                     ; 0x5d <_row>
    6023: c8           	iny
    6024: e6 5d        	inc	$5d                     ; 0x5d <_row>
    6026: c0 1e        	cpy	#$1e
    6028: f0 03        	beq	$602d <textPrint+0x344>
    602a: 4c d5 5f     	jmp	$5fd5 <textPrint+0x2ec>
    602d: a0 03        	ldy	#$3
    602f: 84 01        	sty	$1                      ; 0x1 <__data_size+0x1>
    6031: a0 09        	ldy	#$9
    6033: a9 10        	lda	#$10
    6035: 5a           	phy
    6036: a0 00        	ldy	#$0
    6038: 84 18        	sty	$18                     ; 0x18 <__rc8>
    603a: a0 c0        	ldy	#$c0
    603c: 84 19        	sty	$19                     ; 0x19 <__rc9>
    603e: 7a           	ply
    603f: 85 1a        	sta	$1a                     ; 0x1a <__rc10>
    6041: 84 1b        	sty	$1b                     ; 0x1b <__rc11>
    6043: a4 1d        	ldy	$1d                     ; 0x1d <__rc13>
    6045: 4c 53 5d     	jmp	$5d53 <textPrint+0x6a>
    6048: a6 1c        	ldx	$1c                     ; 0x1c <__rc12>
    604a: 86 01        	stx	$1                      ; 0x1 <__data_size+0x1>
    604c: a6 5c        	ldx	$5c                     ; 0x5c <_col>
    604e: a4 5d        	ldy	$5d                     ; 0x5d <_row>
    6050: 8e 14 d0     	stx	$d014                   ; 0xd014 <__heap_start+0x4518>
    6053: 9c 15 d0     	stz	$d015                   ; 0xd015 <__heap_start+0x4519>
    6056: 84 5d        	sty	$5d                     ; 0x5d <_row>
    6058: 8c 16 d0     	sty	$d016                   ; 0xd016 <__heap_start+0x451a>
    605b: 9c 17 d0     	stz	$d017                   ; 0xd017 <__heap_start+0x451b>
    605e: 60           	rts

0000605f <sendAME>:
    605f: 48           	pha
    6060: 18           	clc
    6061: a5 10        	lda	$10                     ; 0x10 <__rc0>
    6063: 69 fa        	adc	#$fa
    6065: 85 10        	sta	$10                     ; 0x10 <__rc0>
    6067: a5 11        	lda	$11                     ; 0x11 <__rc1>
    6069: 69 ff        	adc	#$ff
    606b: 85 11        	sta	$11                     ; 0x11 <__rc1>
    606d: 68           	pla
    606e: 86 94        	stx	$94                     ; 0x94 <__bss_size+0xf>
    6070: a6 12        	ldx	$12                     ; 0x12 <__rc2>
    6072: 86 95        	stx	$95                     ; 0x95 <__bss_size+0x10>
    6074: 85 90        	sta	$90                     ; 0x90 <__bss_size+0xb>
    6076: 29 0f        	and	#$f
    6078: 85 91        	sta	$91                     ; 0x91 <__bss_size+0xc>
    607a: a8           	tay
    607b: a9 0f        	lda	#$f
    607d: 39 4c 00     	and	$4c,y                   ; 0x4c <chipXChannel>
    6080: c9 0f        	cmp	#$f
    6082: d0 03        	bne	$6087 <sendAME+0x28>
    6084: 4c 13 62     	jmp	$6213 <sendAME+0x1b4>
    6087: a6 13        	ldx	$13                     ; 0x13 <__rc3>
    6089: 85 92        	sta	$92                     ; 0x92 <__bss_size+0xd>
    608b: a5 90        	lda	$90                     ; 0x90 <__bss_size+0xb>
    608d: 29 f0        	and	#$f0
    608f: 85 96        	sta	$96                     ; 0x96 <__bss_size+0x11>
    6091: c9 c0        	cmp	#$c0
    6093: d0 0a        	bne	$609f <sendAME+0x40>
    6095: a4 90        	ldy	$90                     ; 0x90 <__bss_size+0xb>
    6097: 8c b1 dd     	sty	$ddb1                   ; 0xddb1 <__heap_start+0x52b5>
    609a: a4 94        	ldy	$94                     ; 0x94 <__bss_size+0xf>
    609c: 8c b1 dd     	sty	$ddb1                   ; 0xddb1 <__heap_start+0x52b5>
    609f: a4 92        	ldy	$92                     ; 0x92 <__bss_size+0xd>
    60a1: c0 04        	cpy	#$4
    60a3: f0 03        	beq	$60a8 <sendAME+0x49>
    60a5: 98           	tya
    60a6: d0 11        	bne	$60b9 <sendAME+0x5a>
    60a8: e0 02        	cpx	#$2
    60aa: d0 14        	bne	$60c0 <sendAME+0x61>
    60ac: a6 90        	ldx	$90                     ; 0x90 <__bss_size+0xb>
    60ae: 8e a1 dd     	stx	$dda1                   ; 0xdda1 <__heap_start+0x52a5>
    60b1: a6 94        	ldx	$94                     ; 0x94 <__bss_size+0xf>
    60b3: 8e a1 dd     	stx	$dda1                   ; 0xdda1 <__heap_start+0x52a5>
    60b6: 4c 13 62     	jmp	$6213 <sendAME+0x1b4>
    60b9: e0 03        	cpx	#$3
    60bb: f0 03        	beq	$60c0 <sendAME+0x61>
    60bd: 4c 13 62     	jmp	$6213 <sendAME+0x1b4>
    60c0: a5 91        	lda	$91                     ; 0x91 <__bss_size+0xc>
    60c2: a6 91        	ldx	$91                     ; 0x91 <__bss_size+0xc>
    60c4: 85 13        	sta	$13                     ; 0x13 <__rc3>
    60c6: b5 4c        	lda	$4c,x                   ; 0x4c <chipXChannel>
    60c8: 85 97        	sta	$97                     ; 0x97 <__bss_size+0x12>
    60ca: 85 8f        	sta	$8f                     ; 0x8f <__bss_size+0xa>
    60cc: 46 8f        	lsr	$8f                     ; 0x8f <__bss_size+0xa>
    60ce: 46 8f        	lsr	$8f                     ; 0x8f <__bss_size+0xa>
    60d0: 46 8f        	lsr	$8f                     ; 0x8f <__bss_size+0xa>
    60d2: 46 8f        	lsr	$8f                     ; 0x8f <__bss_size+0xa>
    60d4: a9 00        	lda	#$0
    60d6: 64 5c        	stz	$5c                     ; 0x5c <_col>
    60d8: 9c 14 d0     	stz	$d014                   ; 0xd014 <__heap_start+0x4518>
    60db: 9c 15 d0     	stz	$d015                   ; 0xd015 <__heap_start+0x4519>
    60de: a0 05        	ldy	#$5
    60e0: 84 5d        	sty	$5d                     ; 0x5d <_row>
    60e2: 8c 16 d0     	sty	$d016                   ; 0xd016 <__heap_start+0x451a>
    60e5: 84 14        	sty	$14                     ; 0x14 <__rc4>
    60e7: 9c 17 d0     	stz	$d017                   ; 0xd017 <__heap_start+0x451b>
    60ea: a0 01        	ldy	#$1
    60ec: 91 10        	sta	($10),y                 ; 0x10 <__rc0>
    60ee: a5 8f        	lda	$8f                     ; 0x8f <__bss_size+0xa>
    60f0: 92 10        	sta	($10)                   ; 0x10 <__rc0>
    60f2: a6 96        	ldx	$96                     ; 0x96 <__bss_size+0x11>
    60f4: 8a           	txa
    60f5: c8           	iny
    60f6: 91 10        	sta	($10),y                 ; 0x10 <__rc0>
    60f8: 86 93        	stx	$93                     ; 0x93 <__bss_size+0xe>
    60fa: c8           	iny
    60fb: a9 00        	lda	#$0
    60fd: 91 10        	sta	($10),y                 ; 0x10 <__rc0>
    60ff: c8           	iny
    6100: a5 13        	lda	$13                     ; 0x13 <__rc3>
    6102: 91 10        	sta	($10),y                 ; 0x10 <__rc0>
    6104: a4 14        	ldy	$14                     ; 0x14 <__rc4>
    6106: a9 00        	lda	#$0
    6108: 91 10        	sta	($10),y                 ; 0x10 <__rc0>
    610a: a2 63        	ldx	#$63
    610c: 86 12        	stx	$12                     ; 0x12 <__rc2>
    610e: a2 89        	ldx	#$89
    6110: 86 13        	stx	$13                     ; 0x13 <__rc3>
    6112: 20 80 75     	jsr	$7580 <printf>
    6115: a6 93        	ldx	$93                     ; 0x93 <__bss_size+0xe>
    6117: e0 90        	cpx	#$90
    6119: d0 07        	bne	$6122 <sendAME+0xc3>
    611b: a5 94        	lda	$94                     ; 0x94 <__bss_size+0xf>
    611d: d0 03        	bne	$6122 <sendAME+0xc3>
    611f: 4c 13 62     	jmp	$6213 <sendAME+0x1b4>
    6122: a6 92        	ldx	$92                     ; 0x92 <__bss_size+0xd>
    6124: e0 05        	cpx	#$5
    6126: 90 03        	bcc	$612b <sendAME+0xcc>
    6128: 4c 13 62     	jmp	$6213 <sendAME+0x1b4>
    612b: a5 8f        	lda	$8f                     ; 0x8f <__bss_size+0xa>
    612d: 0a           	asl
    612e: a6 92        	ldx	$92                     ; 0x92 <__bss_size+0xd>
    6130: 86 13        	stx	$13                     ; 0x13 <__rc3>
    6132: 06 13        	asl	$13                     ; 0x13 <__rc3>
    6134: a6 13        	ldx	$13                     ; 0x13 <__rc3>
    6136: 7c 49 87     	jmp	($8749,x)               ; 0x8749 <__BLOCK_SIZE+0x6749>
    6139: a2 b1        	ldx	#$b1
    613b: 86 12        	stx	$12                     ; 0x12 <__rc2>
    613d: a2 dd        	ldx	#$dd
    613f: 86 13        	stx	$13                     ; 0x13 <__rc3>
    6141: a2 a1        	ldx	#$a1
    6143: 86 14        	stx	$14                     ; 0x14 <__rc4>
    6145: a2 dd        	ldx	#$dd
    6147: 86 15        	stx	$15                     ; 0x15 <__rc5>
    6149: a6 96        	ldx	$96                     ; 0x96 <__bss_size+0x11>
    614b: e0 90        	cpx	#$90
    614d: f0 03        	beq	$6152 <sendAME+0xf3>
    614f: 4c e9 61     	jmp	$61e9 <sendAME+0x18a>
    6152: a6 92        	ldx	$92                     ; 0x92 <__bss_size+0xd>
    6154: e0 04        	cpx	#$4
    6156: f0 08        	beq	$6160 <sendAME+0x101>
    6158: a2 a1        	ldx	#$a1
    615a: 86 12        	stx	$12                     ; 0x12 <__rc2>
    615c: a2 dd        	ldx	#$dd
    615e: 86 13        	stx	$13                     ; 0x13 <__rc3>
    6160: a5 90        	lda	$90                     ; 0x90 <__bss_size+0xb>
    6162: 4c fb 61     	jmp	$61fb <sendAME+0x19c>
    6165: aa           	tax
    6166: b4 3a        	ldy	$3a,x                   ; 0x3a <psgChoiceToVoice>
    6168: b5 3b        	lda	$3b,x                   ; 0x3b <psgChoiceToVoice+0x1>
    616a: aa           	tax
    616b: 84 14        	sty	$14                     ; 0x14 <__rc4>
    616d: 86 15        	stx	$15                     ; 0x15 <__rc5>
    616f: a6 8f        	ldx	$8f                     ; 0x8f <__bss_size+0xa>
    6171: b5 46        	lda	$46,x                   ; 0x46 <polyPSGChanBits>
    6173: a6 96        	ldx	$96                     ; 0x96 <__bss_size+0x11>
    6175: e0 90        	cpx	#$90
    6177: f0 03        	beq	$617c <sendAME+0x11d>
    6179: 4c 07 62     	jmp	$6207 <sendAME+0x1a8>
    617c: 85 12        	sta	$12                     ; 0x12 <__rc2>
    617e: a6 94        	ldx	$94                     ; 0x94 <__bss_size+0xf>
    6180: bc 75 89     	ldy	$8975,x                 ; 0x8975 <sidHigh+0xb5>
    6183: 48           	pha
    6184: bd b5 89     	lda	$89b5,x                 ; 0x89b5 <psgLow+0x1f>
    6187: aa           	tax
    6188: 68           	pla
    6189: 86 16        	stx	$16                     ; 0x16 <__rc6>
    618b: aa           	tax
    618c: a5 95        	lda	$95                     ; 0x95 <__bss_size+0x10>
    618e: 4a           	lsr
    618f: 4a           	lsr
    6190: 4a           	lsr
    6191: 49 0f        	eor	#$f
    6193: 85 13        	sta	$13                     ; 0x13 <__rc3>
    6195: 8a           	txa
    6196: 05 13        	ora	$13                     ; 0x13 <__rc3>
    6198: 09 90        	ora	#$90
    619a: 92 14        	sta	($14)                   ; 0x14 <__rc4>
    619c: 98           	tya
    619d: 05 12        	ora	$12                     ; 0x12 <__rc2>
    619f: 92 14        	sta	($14)                   ; 0x14 <__rc4>
    61a1: a5 16        	lda	$16                     ; 0x16 <__rc6>
    61a3: 4c 09 62     	jmp	$6209 <sendAME+0x1aa>
    61a6: 85 18        	sta	$18                     ; 0x18 <__rc8>
    61a8: a6 97        	ldx	$97                     ; 0x97 <__bss_size+0x12>
    61aa: e0 30        	cpx	#$30
    61ac: a2 d5        	ldx	#$d5
    61ae: 86 15        	stx	$15                     ; 0x15 <__rc5>
    61b0: b0 04        	bcs	$61b6 <sendAME+0x157>
    61b2: a2 d4        	ldx	#$d4
    61b4: 86 15        	stx	$15                     ; 0x15 <__rc5>
    61b6: a6 8f        	ldx	$8f                     ; 0x8f <__bss_size+0xa>
    61b8: b5 34        	lda	$34,x                   ; 0x34 <sidChoiceToVoice>
    61ba: aa           	tax
    61bb: a4 94        	ldy	$94                     ; 0x94 <__bss_size+0xf>
    61bd: b9 0b 8a     	lda	$8a0b,y                 ; 0x8a0b <psgHigh+0x35>
    61c0: 86 14        	stx	$14                     ; 0x14 <__rc4>
    61c2: 92 14        	sta	($14)                   ; 0x14 <__rc4>
    61c4: b9 b5 88     	lda	$88b5,y                 ; 0x88b5 <textColors+0x74>
    61c7: a4 15        	ldy	$15                     ; 0x15 <__rc5>
    61c9: 84 17        	sty	$17                     ; 0x17 <__rc7>
    61cb: e8           	inx
    61cc: d0 02        	bne	$61d0 <sendAME+0x171>
    61ce: e6 17        	inc	$17                     ; 0x17 <__rc7>
    61d0: 86 16        	stx	$16                     ; 0x16 <__rc6>
    61d2: 92 16        	sta	($16)                   ; 0x16 <__rc6>
    61d4: a5 18        	lda	$18                     ; 0x18 <__rc8>
    61d6: 0a           	asl
    61d7: 0a           	asl
    61d8: 18           	clc
    61d9: 65 8f        	adc	$8f                     ; 0x8f <__bss_size+0xa>
    61db: aa           	tax
    61dc: bd c9 8a     	lda	$8ac9,x                 ; 0x8ac9 <sidInstruments+0x5>
    61df: a6 96        	ldx	$96                     ; 0x96 <__bss_size+0x11>
    61e1: e0 90        	cpx	#$90
    61e3: d0 28        	bne	$620d <sendAME+0x1ae>
    61e5: 09 01        	ora	#$1
    61e7: 80 26        	bra	$620f <sendAME+0x1b0>
    61e9: a6 92        	ldx	$92                     ; 0x92 <__bss_size+0xd>
    61eb: e0 04        	cpx	#$4
    61ed: f0 08        	beq	$61f7 <sendAME+0x198>
    61ef: a2 a1        	ldx	#$a1
    61f1: 86 12        	stx	$12                     ; 0x12 <__rc2>
    61f3: a2 dd        	ldx	#$dd
    61f5: 86 13        	stx	$13                     ; 0x13 <__rc3>
    61f7: a5 91        	lda	$91                     ; 0x91 <__bss_size+0xc>
    61f9: 09 80        	ora	#$80
    61fb: 92 12        	sta	($12)                   ; 0x12 <__rc2>
    61fd: a5 94        	lda	$94                     ; 0x94 <__bss_size+0xf>
    61ff: 92 12        	sta	($12)                   ; 0x12 <__rc2>
    6201: a5 95        	lda	$95                     ; 0x95 <__bss_size+0x10>
    6203: 92 12        	sta	($12)                   ; 0x12 <__rc2>
    6205: 80 0c        	bra	$6213 <sendAME+0x1b4>
    6207: 09 9f        	ora	#$9f
    6209: 92 14        	sta	($14)                   ; 0x14 <__rc4>
    620b: 80 06        	bra	$6213 <sendAME+0x1b4>
    620d: 29 fe        	and	#$fe
    620f: a0 04        	ldy	#$4
    6211: 91 14        	sta	($14),y                 ; 0x14 <__rc4>
    6213: 18           	clc
    6214: a5 10        	lda	$10                     ; 0x10 <__rc0>
    6216: 69 06        	adc	#$6
    6218: 85 10        	sta	$10                     ; 0x10 <__rc0>
    621a: a5 11        	lda	$11                     ; 0x11 <__rc1>
    621c: 69 00        	adc	#$0
    621e: 85 11        	sta	$11                     ; 0x11 <__rc1>
    6220: 60           	rts

00006221 <readDelta>:
    6221: 48           	pha
    6222: 18           	clc
    6223: a5 10        	lda	$10                     ; 0x10 <__rc0>
    6225: 69 f7        	adc	#$f7
    6227: 85 10        	sta	$10                     ; 0x10 <__rc0>
    6229: a5 11        	lda	$11                     ; 0x11 <__rc1>
    622b: 69 ff        	adc	#$ff
    622d: 85 11        	sta	$11                     ; 0x11 <__rc1>
    622f: 68           	pla
    6230: a6 24        	ldx	$24                     ; 0x24 <__rc20>
    6232: da           	phx
    6233: a6 25        	ldx	$25                     ; 0x25 <__rc21>
    6235: da           	phx
    6236: a6 26        	ldx	$26                     ; 0x26 <__rc22>
    6238: da           	phx
    6239: a6 27        	ldx	$27                     ; 0x27 <__rc23>
    623b: da           	phx
    623c: 48           	pha
    623d: a5 28        	lda	$28                     ; 0x28 <__rc24>
    623f: a0 02        	ldy	#$2
    6241: 91 10        	sta	($10),y                 ; 0x10 <__rc0>
    6243: a5 29        	lda	$29                     ; 0x29 <__rc25>
    6245: 88           	dey
    6246: 91 10        	sta	($10),y                 ; 0x10 <__rc0>
    6248: a5 2a        	lda	$2a                     ; 0x2a <__rc26>
    624a: 88           	dey
    624b: 91 10        	sta	($10),y                 ; 0x10 <__rc0>
    624d: 68           	pla
    624e: 85 25        	sta	$25                     ; 0x25 <__rc21>
    6250: a6 80        	ldx	$80                     ; 0x80 <theOne.8>
    6252: 86 27        	stx	$27                     ; 0x27 <__rc23>
    6254: a6 81        	ldx	$81                     ; 0x81 <theOne.8+0x1>
    6256: 86 26        	stx	$26                     ; 0x26 <__rc22>
    6258: 64 24        	stz	$24                     ; 0x24 <__rc20>
    625a: a2 19        	ldx	#$19
    625c: 86 12        	stx	$12                     ; 0x12 <__rc2>
    625e: 64 13        	stz	$13                     ; 0x13 <__rc3>
    6260: a2 00        	ldx	#$0
    6262: 20 4f 86     	jsr	$864f <__mulhi3>
    6265: 85 12        	sta	$12                     ; 0x12 <__rc2>
    6267: 86 13        	stx	$13                     ; 0x13 <__rc3>
    6269: 18           	clc
    626a: a5 27        	lda	$27                     ; 0x27 <__rc23>
    626c: 65 12        	adc	$12                     ; 0x12 <__rc2>
    626e: a8           	tay
    626f: a5 26        	lda	$26                     ; 0x26 <__rc22>
    6271: 65 13        	adc	$13                     ; 0x13 <__rc3>
    6273: aa           	tax
    6274: 84 12        	sty	$12                     ; 0x12 <__rc2>
    6276: 85 13        	sta	$13                     ; 0x13 <__rc3>
    6278: 98           	tya
    6279: 18           	clc
    627a: 69 08        	adc	#$8
    627c: 85 14        	sta	$14                     ; 0x14 <__rc4>
    627e: 8a           	txa
    627f: 69 00        	adc	#$0
    6281: 85 15        	sta	$15                     ; 0x15 <__rc5>
    6283: 18           	clc
    6284: 98           	tya
    6285: 69 04        	adc	#$4
    6287: 85 16        	sta	$16                     ; 0x16 <__rc6>
    6289: 8a           	txa
    628a: 69 00        	adc	#$0
    628c: a0 04        	ldy	#$4
    628e: 85 17        	sta	$17                     ; 0x17 <__rc7>
    6290: b1 12        	lda	($12),y                 ; 0x12 <__rc2>
    6292: a2 04        	ldx	#$4
    6294: 86 1d        	stx	$1d                     ; 0x1d <__rc13>
    6296: 85 18        	sta	$18                     ; 0x18 <__rc8>
    6298: a0 01        	ldy	#$1
    629a: b1 16        	lda	($16),y                 ; 0x16 <__rc6>
    629c: 85 1a        	sta	$1a                     ; 0x1a <__rc10>
    629e: a2 01        	ldx	#$1
    62a0: 86 1b        	stx	$1b                     ; 0x1b <__rc11>
    62a2: c8           	iny
    62a3: b1 16        	lda	($16),y                 ; 0x16 <__rc6>
    62a5: 85 19        	sta	$19                     ; 0x19 <__rc9>
    62a7: e8           	inx
    62a8: 86 1c        	stx	$1c                     ; 0x1c <__rc12>
    62aa: c8           	iny
    62ab: b1 16        	lda	($16),y                 ; 0x16 <__rc6>
    62ad: e8           	inx
    62ae: 86 1e        	stx	$1e                     ; 0x1e <__rc14>
    62b0: a6 18        	ldx	$18                     ; 0x18 <__rc8>
    62b2: a4 1a        	ldy	$1a                     ; 0x1a <__rc10>
    62b4: 84 1f        	sty	$1f                     ; 0x1f <__rc15>
    62b6: a4 19        	ldy	$19                     ; 0x19 <__rc9>
    62b8: 84 22        	sty	$22                     ; 0x22 <__rc18>
    62ba: e8           	inx
    62bb: d0 09        	bne	$62c6 <readDelta+0xa5>
    62bd: e6 1f        	inc	$1f                     ; 0x1f <__rc15>
    62bf: d0 05        	bne	$62c6 <readDelta+0xa5>
    62c1: e6 22        	inc	$22                     ; 0x22 <__rc18>
    62c3: d0 01        	bne	$62c6 <readDelta+0xa5>
    62c5: 1a           	inc
    62c6: 85 23        	sta	$23                     ; 0x23 <__rc19>
    62c8: a4 1d        	ldy	$1d                     ; 0x1d <__rc13>
    62ca: 8a           	txa
    62cb: 91 12        	sta	($12),y                 ; 0x12 <__rc2>
    62cd: a4 1b        	ldy	$1b                     ; 0x1b <__rc11>
    62cf: a5 1f        	lda	$1f                     ; 0x1f <__rc15>
    62d1: 91 16        	sta	($16),y                 ; 0x16 <__rc6>
    62d3: a4 1c        	ldy	$1c                     ; 0x1c <__rc12>
    62d5: a5 22        	lda	$22                     ; 0x22 <__rc18>
    62d7: 91 16        	sta	($16),y                 ; 0x16 <__rc6>
    62d9: a4 1e        	ldy	$1e                     ; 0x1e <__rc14>
    62db: a5 23        	lda	$23                     ; 0x23 <__rc19>
    62dd: 91 16        	sta	($16),y                 ; 0x16 <__rc6>
    62df: 18           	clc
    62e0: a0 08        	ldy	#$8
    62e2: a5 18        	lda	$18                     ; 0x18 <__rc8>
    62e4: 71 12        	adc	($12),y                 ; 0x12 <__rc2>
    62e6: 85 13        	sta	$13                     ; 0x13 <__rc3>
    62e8: a5 1a        	lda	$1a                     ; 0x1a <__rc10>
    62ea: a4 1b        	ldy	$1b                     ; 0x1b <__rc11>
    62ec: 71 14        	adc	($14),y                 ; 0x14 <__rc4>
    62ee: 85 12        	sta	$12                     ; 0x12 <__rc2>
    62f0: a2 02        	ldx	#$2
    62f2: 86 27        	stx	$27                     ; 0x27 <__rc23>
    62f4: a5 19        	lda	$19                     ; 0x19 <__rc9>
    62f6: a4 1c        	ldy	$1c                     ; 0x1c <__rc12>
    62f8: 71 14        	adc	($14),y                 ; 0x14 <__rc4>
    62fa: 85 14        	sta	$14                     ; 0x14 <__rc4>
    62fc: a5 12        	lda	$12                     ; 0x12 <__rc2>
    62fe: 06 12        	asl	$12                     ; 0x12 <__rc2>
    6300: 26 14        	rol	$14                     ; 0x14 <__rc4>
    6302: 06 12        	asl	$12                     ; 0x12 <__rc2>
    6304: 26 14        	rol	$14                     ; 0x14 <__rc4>
    6306: 06 12        	asl	$12                     ; 0x12 <__rc2>
    6308: 26 14        	rol	$14                     ; 0x14 <__rc4>
    630a: a4 14        	ldy	$14                     ; 0x14 <__rc4>
    630c: a6 0f        	ldx	$f                      ; 0xf <__data_size+0xf>
    630e: 78           	sei
    630f: 84 0f        	sty	$f                      ; 0xf <__data_size+0xf>
    6311: a4 13        	ldy	$13                     ; 0x13 <__rc3>
    6313: 84 12        	sty	$12                     ; 0x12 <__rc2>
    6315: 09 e0        	ora	#$e0
    6317: 85 13        	sta	$13                     ; 0x13 <__rc3>
    6319: b2 12        	lda	($12)                   ; 0x12 <__rc2>
    631b: 86 0f        	stx	$f                      ; 0xf <__data_size+0xf>
    631d: 58           	cli
    631e: aa           	tax
    631f: 30 15        	bmi	$6336 <readDelta+0x115>
    6321: 64 26        	stz	$26                     ; 0x26 <__rc22>
    6323: 64 27        	stz	$27                     ; 0x27 <__rc23>
    6325: 64 13        	stz	$13                     ; 0x13 <__rc3>
    6327: 85 29        	sta	$29                     ; 0x29 <__rc25>
    6329: a9 00        	lda	#$0
    632b: 64 28        	stz	$28                     ; 0x28 <__rc24>
    632d: 64 15        	stz	$15                     ; 0x15 <__rc5>
    632f: 64 12        	stz	$12                     ; 0x12 <__rc2>
    6331: 64 14        	stz	$14                     ; 0x14 <__rc4>
    6333: 4c 92 66     	jmp	$6692 <readDelta+0x471>
    6336: 4a           	lsr
    6337: aa           	tax
    6338: a9 00        	lda	#$0
    633a: 6a           	ror
    633b: 29 80        	and	#$80
    633d: 85 2a        	sta	$2a                     ; 0x2a <__rc26>
    633f: 8a           	txa
    6340: 29 3f        	and	#$3f
    6342: 85 26        	sta	$26                     ; 0x26 <__rc22>
    6344: a6 80        	ldx	$80                     ; 0x80 <theOne.8>
    6346: 86 29        	stx	$29                     ; 0x29 <__rc25>
    6348: a6 81        	ldx	$81                     ; 0x81 <theOne.8+0x1>
    634a: 86 28        	stx	$28                     ; 0x28 <__rc24>
    634c: a2 19        	ldx	#$19
    634e: 86 12        	stx	$12                     ; 0x12 <__rc2>
    6350: 64 13        	stz	$13                     ; 0x13 <__rc3>
    6352: a2 00        	ldx	#$0
    6354: a5 25        	lda	$25                     ; 0x25 <__rc21>
    6356: 20 4f 86     	jsr	$864f <__mulhi3>
    6359: 85 12        	sta	$12                     ; 0x12 <__rc2>
    635b: 86 13        	stx	$13                     ; 0x13 <__rc3>
    635d: a2 00        	ldx	#$0
    635f: 86 17        	stx	$17                     ; 0x17 <__rc7>
    6361: 18           	clc
    6362: a5 29        	lda	$29                     ; 0x29 <__rc25>
    6364: 65 12        	adc	$12                     ; 0x12 <__rc2>
    6366: a8           	tay
    6367: a5 28        	lda	$28                     ; 0x28 <__rc24>
    6369: 65 13        	adc	$13                     ; 0x13 <__rc3>
    636b: aa           	tax
    636c: 98           	tya
    636d: 84 12        	sty	$12                     ; 0x12 <__rc2>
    636f: 86 13        	stx	$13                     ; 0x13 <__rc3>
    6371: 84 18        	sty	$18                     ; 0x18 <__rc8>
    6373: 18           	clc
    6374: 69 04        	adc	#$4
    6376: 85 14        	sta	$14                     ; 0x14 <__rc4>
    6378: 8a           	txa
    6379: 86 19        	stx	$19                     ; 0x19 <__rc9>
    637b: 69 00        	adc	#$0
    637d: 85 15        	sta	$15                     ; 0x15 <__rc5>
    637f: a0 04        	ldy	#$4
    6381: b1 12        	lda	($12),y                 ; 0x12 <__rc2>
    6383: 84 1e        	sty	$1e                     ; 0x1e <__rc14>
    6385: 85 16        	sta	$16                     ; 0x16 <__rc6>
    6387: a0 01        	ldy	#$1
    6389: b1 14        	lda	($14),y                 ; 0x14 <__rc4>
    638b: 85 1c        	sta	$1c                     ; 0x1c <__rc12>
    638d: 84 1b        	sty	$1b                     ; 0x1b <__rc11>
    638f: a4 27        	ldy	$27                     ; 0x27 <__rc23>
    6391: b1 14        	lda	($14),y                 ; 0x14 <__rc4>
    6393: 85 1a        	sta	$1a                     ; 0x1a <__rc10>
    6395: 84 1d        	sty	$1d                     ; 0x1d <__rc13>
    6397: a0 03        	ldy	#$3
    6399: b1 14        	lda	($14),y                 ; 0x14 <__rc4>
    639b: 84 1f        	sty	$1f                     ; 0x1f <__rc15>
    639d: a6 16        	ldx	$16                     ; 0x16 <__rc6>
    639f: 86 23        	stx	$23                     ; 0x23 <__rc19>
    63a1: a6 1c        	ldx	$1c                     ; 0x1c <__rc12>
    63a3: a4 1a        	ldy	$1a                     ; 0x1a <__rc10>
    63a5: 84 22        	sty	$22                     ; 0x22 <__rc18>
    63a7: e6 23        	inc	$23                     ; 0x23 <__rc19>
    63a9: d0 08        	bne	$63b3 <readDelta+0x192>
    63ab: e8           	inx
    63ac: d0 05        	bne	$63b3 <readDelta+0x192>
    63ae: e6 22        	inc	$22                     ; 0x22 <__rc18>
    63b0: d0 01        	bne	$63b3 <readDelta+0x192>
    63b2: 1a           	inc
    63b3: 85 27        	sta	$27                     ; 0x27 <__rc23>
    63b5: a4 1e        	ldy	$1e                     ; 0x1e <__rc14>
    63b7: a5 23        	lda	$23                     ; 0x23 <__rc19>
    63b9: 91 12        	sta	($12),y                 ; 0x12 <__rc2>
    63bb: a4 1f        	ldy	$1f                     ; 0x1f <__rc15>
    63bd: a5 27        	lda	$27                     ; 0x27 <__rc23>
    63bf: 91 14        	sta	($14),y                 ; 0x14 <__rc4>
    63c1: a4 1b        	ldy	$1b                     ; 0x1b <__rc11>
    63c3: 8a           	txa
    63c4: 91 14        	sta	($14),y                 ; 0x14 <__rc4>
    63c6: a4 1d        	ldy	$1d                     ; 0x1d <__rc13>
    63c8: a5 22        	lda	$22                     ; 0x22 <__rc18>
    63ca: 91 14        	sta	($14),y                 ; 0x14 <__rc4>
    63cc: 84 15        	sty	$15                     ; 0x15 <__rc5>
    63ce: a0 08        	ldy	#$8
    63d0: a5 16        	lda	$16                     ; 0x16 <__rc6>
    63d2: a6 17        	ldx	$17                     ; 0x17 <__rc7>
    63d4: e0 01        	cpx	#$1
    63d6: 71 12        	adc	($12),y                 ; 0x12 <__rc2>
    63d8: a2 01        	ldx	#$1
    63da: b0 02        	bcs	$63de <readDelta+0x1bd>
    63dc: a2 00        	ldx	#$0
    63de: 85 14        	sta	$14                     ; 0x14 <__rc4>
    63e0: 18           	clc
    63e1: a5 18        	lda	$18                     ; 0x18 <__rc8>
    63e3: 69 08        	adc	#$8
    63e5: 85 12        	sta	$12                     ; 0x12 <__rc2>
    63e7: a5 19        	lda	$19                     ; 0x19 <__rc9>
    63e9: 69 00        	adc	#$0
    63eb: 85 13        	sta	$13                     ; 0x13 <__rc3>
    63ed: a5 1c        	lda	$1c                     ; 0x1c <__rc12>
    63ef: e0 01        	cpx	#$1
    63f1: a4 1b        	ldy	$1b                     ; 0x1b <__rc11>
    63f3: 71 12        	adc	($12),y                 ; 0x12 <__rc2>
    63f5: aa           	tax
    63f6: a5 1a        	lda	$1a                     ; 0x1a <__rc10>
    63f8: a4 15        	ldy	$15                     ; 0x15 <__rc5>
    63fa: 71 12        	adc	($12),y                 ; 0x12 <__rc2>
    63fc: 85 13        	sta	$13                     ; 0x13 <__rc3>
    63fe: 8a           	txa
    63ff: 86 12        	stx	$12                     ; 0x12 <__rc2>
    6401: 06 12        	asl	$12                     ; 0x12 <__rc2>
    6403: 26 13        	rol	$13                     ; 0x13 <__rc3>
    6405: 06 12        	asl	$12                     ; 0x12 <__rc2>
    6407: 26 13        	rol	$13                     ; 0x13 <__rc3>
    6409: 06 12        	asl	$12                     ; 0x12 <__rc2>
    640b: 26 13        	rol	$13                     ; 0x13 <__rc3>
    640d: a4 13        	ldy	$13                     ; 0x13 <__rc3>
    640f: a6 0f        	ldx	$f                      ; 0xf <__data_size+0xf>
    6411: 78           	sei
    6412: 84 0f        	sty	$f                      ; 0xf <__data_size+0xf>
    6414: a4 14        	ldy	$14                     ; 0x14 <__rc4>
    6416: 84 12        	sty	$12                     ; 0x12 <__rc2>
    6418: 09 e0        	ora	#$e0
    641a: 85 13        	sta	$13                     ; 0x13 <__rc3>
    641c: b2 12        	lda	($12)                   ; 0x12 <__rc2>
    641e: 86 0f        	stx	$f                      ; 0xf <__data_size+0xf>
    6420: 58           	cli
    6421: aa           	tax
    6422: 30 13        	bmi	$6437 <readDelta+0x216>
    6424: 64 13        	stz	$13                     ; 0x13 <__rc3>
    6426: 64 28        	stz	$28                     ; 0x28 <__rc24>
    6428: 64 15        	stz	$15                     ; 0x15 <__rc5>
    642a: 64 12        	stz	$12                     ; 0x12 <__rc2>
    642c: 64 27        	stz	$27                     ; 0x27 <__rc23>
    642e: 64 14        	stz	$14                     ; 0x14 <__rc4>
    6430: a6 2a        	ldx	$2a                     ; 0x2a <__rc26>
    6432: 86 29        	stx	$29                     ; 0x29 <__rc25>
    6434: 4c 92 66     	jmp	$6692 <readDelta+0x471>
    6437: 4a           	lsr
    6438: aa           	tax
    6439: a9 00        	lda	#$0
    643b: 6a           	ror
    643c: 46 26        	lsr	$26                     ; 0x26 <__rc22>
    643e: a4 26        	ldy	$26                     ; 0x26 <__rc22>
    6440: 84 27        	sty	$27                     ; 0x27 <__rc23>
    6442: a4 2a        	ldy	$2a                     ; 0x2a <__rc26>
    6444: 84 26        	sty	$26                     ; 0x26 <__rc22>
    6446: 66 26        	ror	$26                     ; 0x26 <__rc22>
    6448: 64 14        	stz	$14                     ; 0x14 <__rc4>
    644a: 66 14        	ror	$14                     ; 0x14 <__rc4>
    644c: 48           	pha
    644d: a5 14        	lda	$14                     ; 0x14 <__rc4>
    644f: a0 07        	ldy	#$7
    6451: 91 10        	sta	($10),y                 ; 0x10 <__rc0>
    6453: 68           	pla
    6454: 64 13        	stz	$13                     ; 0x13 <__rc3>
    6456: 29 80        	and	#$80
    6458: c8           	iny
    6459: 91 10        	sta	($10),y                 ; 0x10 <__rc0>
    645b: 8a           	txa
    645c: 29 3f        	and	#$3f
    645e: 85 28        	sta	$28                     ; 0x28 <__rc24>
    6460: a6 80        	ldx	$80                     ; 0x80 <theOne.8>
    6462: 86 2a        	stx	$2a                     ; 0x2a <__rc26>
    6464: a6 81        	ldx	$81                     ; 0x81 <theOne.8+0x1>
    6466: 86 29        	stx	$29                     ; 0x29 <__rc25>
    6468: a0 19        	ldy	#$19
    646a: a2 00        	ldx	#$0
    646c: 84 12        	sty	$12                     ; 0x12 <__rc2>
    646e: a5 25        	lda	$25                     ; 0x25 <__rc21>
    6470: 20 4f 86     	jsr	$864f <__mulhi3>
    6473: 85 12        	sta	$12                     ; 0x12 <__rc2>
    6475: 86 13        	stx	$13                     ; 0x13 <__rc3>
    6477: a5 2a        	lda	$2a                     ; 0x2a <__rc26>
    6479: 18           	clc
    647a: 65 12        	adc	$12                     ; 0x12 <__rc2>
    647c: a8           	tay
    647d: a5 29        	lda	$29                     ; 0x29 <__rc25>
    647f: 65 13        	adc	$13                     ; 0x13 <__rc3>
    6481: aa           	tax
    6482: 84 12        	sty	$12                     ; 0x12 <__rc2>
    6484: 85 13        	sta	$13                     ; 0x13 <__rc3>
    6486: 18           	clc
    6487: 98           	tya
    6488: 84 16        	sty	$16                     ; 0x16 <__rc6>
    648a: 69 08        	adc	#$8
    648c: 85 14        	sta	$14                     ; 0x14 <__rc4>
    648e: 8a           	txa
    648f: 69 00        	adc	#$0
    6491: 85 15        	sta	$15                     ; 0x15 <__rc5>
    6493: a0 04        	ldy	#$4
    6495: 18           	clc
    6496: a5 16        	lda	$16                     ; 0x16 <__rc6>
    6498: 69 04        	adc	#$4
    649a: 85 16        	sta	$16                     ; 0x16 <__rc6>
    649c: 8a           	txa
    649d: 69 00        	adc	#$0
    649f: 85 17        	sta	$17                     ; 0x17 <__rc7>
    64a1: b1 12        	lda	($12),y                 ; 0x12 <__rc2>
    64a3: a2 04        	ldx	#$4
    64a5: 86 1d        	stx	$1d                     ; 0x1d <__rc13>
    64a7: 85 18        	sta	$18                     ; 0x18 <__rc8>
    64a9: a2 01        	ldx	#$1
    64ab: 86 19        	stx	$19                     ; 0x19 <__rc9>
    64ad: a4 19        	ldy	$19                     ; 0x19 <__rc9>
    64af: b1 16        	lda	($16),y                 ; 0x16 <__rc6>
    64b1: 85 1b        	sta	$1b                     ; 0x1b <__rc11>
    64b3: a0 02        	ldy	#$2
    64b5: b1 16        	lda	($16),y                 ; 0x16 <__rc6>
    64b7: 85 1f        	sta	$1f                     ; 0x1f <__rc15>
    64b9: e8           	inx
    64ba: 86 1a        	stx	$1a                     ; 0x1a <__rc10>
    64bc: c8           	iny
    64bd: b1 16        	lda	($16),y                 ; 0x16 <__rc6>
    64bf: 85 22        	sta	$22                     ; 0x22 <__rc18>
    64c1: e8           	inx
    64c2: 86 1c        	stx	$1c                     ; 0x1c <__rc12>
    64c4: a6 18        	ldx	$18                     ; 0x18 <__rc8>
    64c6: 86 1e        	stx	$1e                     ; 0x1e <__rc14>
    64c8: a4 1b        	ldy	$1b                     ; 0x1b <__rc11>
    64ca: a5 1f        	lda	$1f                     ; 0x1f <__rc15>
    64cc: a6 1f        	ldx	$1f                     ; 0x1f <__rc15>
    64ce: 5a           	phy
    64cf: a4 22        	ldy	$22                     ; 0x22 <__rc18>
    64d1: 84 1f        	sty	$1f                     ; 0x1f <__rc15>
    64d3: 7a           	ply
    64d4: e6 1e        	inc	$1e                     ; 0x1e <__rc14>
    64d6: d0 08        	bne	$64e0 <readDelta+0x2bf>
    64d8: c8           	iny
    64d9: d0 05        	bne	$64e0 <readDelta+0x2bf>
    64db: 1a           	inc
    64dc: d0 02        	bne	$64e0 <readDelta+0x2bf>
    64de: e6 1f        	inc	$1f                     ; 0x1f <__rc15>
    64e0: 85 22        	sta	$22                     ; 0x22 <__rc18>
    64e2: 84 23        	sty	$23                     ; 0x23 <__rc19>
    64e4: a4 1d        	ldy	$1d                     ; 0x1d <__rc13>
    64e6: a5 1e        	lda	$1e                     ; 0x1e <__rc14>
    64e8: 91 12        	sta	($12),y                 ; 0x12 <__rc2>
    64ea: a4 19        	ldy	$19                     ; 0x19 <__rc9>
    64ec: a5 23        	lda	$23                     ; 0x23 <__rc19>
    64ee: 91 16        	sta	($16),y                 ; 0x16 <__rc6>
    64f0: a0 01        	ldy	#$1
    64f2: 84 19        	sty	$19                     ; 0x19 <__rc9>
    64f4: a4 1a        	ldy	$1a                     ; 0x1a <__rc10>
    64f6: a5 22        	lda	$22                     ; 0x22 <__rc18>
    64f8: 91 16        	sta	($16),y                 ; 0x16 <__rc6>
    64fa: a4 1c        	ldy	$1c                     ; 0x1c <__rc12>
    64fc: a5 1f        	lda	$1f                     ; 0x1f <__rc15>
    64fe: 91 16        	sta	($16),y                 ; 0x16 <__rc6>
    6500: 18           	clc
    6501: a0 08        	ldy	#$8
    6503: a5 18        	lda	$18                     ; 0x18 <__rc8>
    6505: 71 12        	adc	($12),y                 ; 0x12 <__rc2>
    6507: 85 17        	sta	$17                     ; 0x17 <__rc7>
    6509: a5 1b        	lda	$1b                     ; 0x1b <__rc11>
    650b: a4 19        	ldy	$19                     ; 0x19 <__rc9>
    650d: 71 14        	adc	($14),y                 ; 0x14 <__rc4>
    650f: 85 12        	sta	$12                     ; 0x12 <__rc2>
    6511: a4 1a        	ldy	$1a                     ; 0x1a <__rc10>
    6513: 8a           	txa
    6514: 71 14        	adc	($14),y                 ; 0x14 <__rc4>
    6516: 85 13        	sta	$13                     ; 0x13 <__rc3>
    6518: a5 12        	lda	$12                     ; 0x12 <__rc2>
    651a: 06 12        	asl	$12                     ; 0x12 <__rc2>
    651c: 26 13        	rol	$13                     ; 0x13 <__rc3>
    651e: 06 12        	asl	$12                     ; 0x12 <__rc2>
    6520: 26 13        	rol	$13                     ; 0x13 <__rc3>
    6522: 06 12        	asl	$12                     ; 0x12 <__rc2>
    6524: 26 13        	rol	$13                     ; 0x13 <__rc3>
    6526: a4 13        	ldy	$13                     ; 0x13 <__rc3>
    6528: a6 0f        	ldx	$f                      ; 0xf <__data_size+0xf>
    652a: 78           	sei
    652b: 84 0f        	sty	$f                      ; 0xf <__data_size+0xf>
    652d: a4 17        	ldy	$17                     ; 0x17 <__rc7>
    652f: 84 12        	sty	$12                     ; 0x12 <__rc2>
    6531: 09 e0        	ora	#$e0
    6533: 85 13        	sta	$13                     ; 0x13 <__rc3>
    6535: b2 12        	lda	($12)                   ; 0x12 <__rc2>
    6537: 86 0f        	stx	$f                      ; 0xf <__data_size+0xf>
    6539: 58           	cli
    653a: aa           	tax
    653b: 30 14        	bmi	$6551 <readDelta+0x330>
    653d: 64 15        	stz	$15                     ; 0x15 <__rc5>
    653f: 85 12        	sta	$12                     ; 0x12 <__rc2>
    6541: 64 14        	stz	$14                     ; 0x14 <__rc4>
    6543: 64 13        	stz	$13                     ; 0x13 <__rc3>
    6545: a0 07        	ldy	#$7
    6547: b1 10        	lda	($10),y                 ; 0x10 <__rc0>
    6549: 85 29        	sta	$29                     ; 0x29 <__rc25>
    654b: c8           	iny
    654c: b1 10        	lda	($10),y                 ; 0x10 <__rc0>
    654e: 4c 92 66     	jmp	$6692 <readDelta+0x471>
    6551: 4a           	lsr
    6552: 64 14        	stz	$14                     ; 0x14 <__rc4>
    6554: 66 14        	ror	$14                     ; 0x14 <__rc4>
    6556: 46 28        	lsr	$28                     ; 0x28 <__rc24>
    6558: 48           	pha
    6559: a5 28        	lda	$28                     ; 0x28 <__rc24>
    655b: a0 06        	ldy	#$6
    655d: 91 10        	sta	($10),y                 ; 0x10 <__rc0>
    655f: a0 08        	ldy	#$8
    6561: b1 10        	lda	($10),y                 ; 0x10 <__rc0>
    6563: 85 28        	sta	$28                     ; 0x28 <__rc24>
    6565: 68           	pla
    6566: 66 28        	ror	$28                     ; 0x28 <__rc24>
    6568: aa           	tax
    6569: a9 00        	lda	#$0
    656b: 6a           	ror
    656c: 91 10        	sta	($10),y                 ; 0x10 <__rc0>
    656e: a4 27        	ldy	$27                     ; 0x27 <__rc23>
    6570: 84 24        	sty	$24                     ; 0x24 <__rc20>
    6572: 46 24        	lsr	$24                     ; 0x24 <__rc20>
    6574: 66 26        	ror	$26                     ; 0x26 <__rc22>
    6576: a4 26        	ldy	$26                     ; 0x26 <__rc22>
    6578: 84 27        	sty	$27                     ; 0x27 <__rc23>
    657a: a0 07        	ldy	#$7
    657c: b1 10        	lda	($10),y                 ; 0x10 <__rc0>
    657e: 85 26        	sta	$26                     ; 0x26 <__rc22>
    6580: 66 26        	ror	$26                     ; 0x26 <__rc22>
    6582: a9 00        	lda	#$0
    6584: 6a           	ror
    6585: 91 10        	sta	($10),y                 ; 0x10 <__rc0>
    6587: a5 14        	lda	$14                     ; 0x14 <__rc4>
    6589: 29 80        	and	#$80
    658b: 85 29        	sta	$29                     ; 0x29 <__rc25>
    658d: 8a           	txa
    658e: 29 3f        	and	#$3f
    6590: a0 04        	ldy	#$4
    6592: 91 10        	sta	($10),y                 ; 0x10 <__rc0>
    6594: a6 80        	ldx	$80                     ; 0x80 <theOne.8>
    6596: 8a           	txa
    6597: 88           	dey
    6598: 91 10        	sta	($10),y                 ; 0x10 <__rc0>
    659a: a6 81        	ldx	$81                     ; 0x81 <theOne.8+0x1>
    659c: 8a           	txa
    659d: a0 05        	ldy	#$5
    659f: 91 10        	sta	($10),y                 ; 0x10 <__rc0>
    65a1: a0 19        	ldy	#$19
    65a3: a2 00        	ldx	#$0
    65a5: 84 12        	sty	$12                     ; 0x12 <__rc2>
    65a7: 64 13        	stz	$13                     ; 0x13 <__rc3>
    65a9: a5 25        	lda	$25                     ; 0x25 <__rc21>
    65ab: 20 4f 86     	jsr	$864f <__mulhi3>
    65ae: a4 24        	ldy	$24                     ; 0x24 <__rc20>
    65b0: 84 13        	sty	$13                     ; 0x13 <__rc3>
    65b2: 85 15        	sta	$15                     ; 0x15 <__rc5>
    65b4: 86 16        	stx	$16                     ; 0x16 <__rc6>
    65b6: a6 29        	ldx	$29                     ; 0x29 <__rc25>
    65b8: 86 12        	stx	$12                     ; 0x12 <__rc2>
    65ba: a0 04        	ldy	#$4
    65bc: b1 10        	lda	($10),y                 ; 0x10 <__rc0>
    65be: 85 14        	sta	$14                     ; 0x14 <__rc4>
    65c0: a2 00        	ldx	#$0
    65c2: 86 1a        	stx	$1a                     ; 0x1a <__rc10>
    65c4: 18           	clc
    65c5: 88           	dey
    65c6: b1 10        	lda	($10),y                 ; 0x10 <__rc0>
    65c8: 65 15        	adc	$15                     ; 0x15 <__rc5>
    65ca: a8           	tay
    65cb: 5a           	phy
    65cc: a0 05        	ldy	#$5
    65ce: b1 10        	lda	($10),y                 ; 0x10 <__rc0>
    65d0: 7a           	ply
    65d1: 65 16        	adc	$16                     ; 0x16 <__rc6>
    65d3: aa           	tax
    65d4: 98           	tya
    65d5: 84 16        	sty	$16                     ; 0x16 <__rc6>
    65d7: 86 17        	stx	$17                     ; 0x17 <__rc7>
    65d9: 84 1c        	sty	$1c                     ; 0x1c <__rc12>
    65db: 18           	clc
    65dc: 69 04        	adc	#$4
    65de: 85 18        	sta	$18                     ; 0x18 <__rc8>
    65e0: 8a           	txa
    65e1: 86 1d        	stx	$1d                     ; 0x1d <__rc13>
    65e3: 69 00        	adc	#$0
    65e5: 85 19        	sta	$19                     ; 0x19 <__rc9>
    65e7: a0 04        	ldy	#$4
    65e9: b1 16        	lda	($16),y                 ; 0x16 <__rc6>
    65eb: 84 23        	sty	$23                     ; 0x23 <__rc19>
    65ed: aa           	tax
    65ee: a0 01        	ldy	#$1
    65f0: b1 18        	lda	($18),y                 ; 0x18 <__rc8>
    65f2: 85 1b        	sta	$1b                     ; 0x1b <__rc11>
    65f4: 84 1e        	sty	$1e                     ; 0x1e <__rc14>
    65f6: c8           	iny
    65f7: b1 18        	lda	($18),y                 ; 0x18 <__rc8>
    65f9: 84 1f        	sty	$1f                     ; 0x1f <__rc15>
    65fb: 85 15        	sta	$15                     ; 0x15 <__rc5>
    65fd: c8           	iny
    65fe: b1 18        	lda	($18),y                 ; 0x18 <__rc8>
    6600: 84 24        	sty	$24                     ; 0x24 <__rc20>
    6602: 85 22        	sta	$22                     ; 0x22 <__rc18>
    6604: a4 1b        	ldy	$1b                     ; 0x1b <__rc11>
    6606: 84 25        	sty	$25                     ; 0x25 <__rc21>
    6608: a4 15        	ldy	$15                     ; 0x15 <__rc5>
    660a: 84 29        	sty	$29                     ; 0x29 <__rc25>
    660c: 8a           	txa
    660d: 1a           	inc
    660e: d0 0a        	bne	$661a <readDelta+0x3f9>
    6610: e6 25        	inc	$25                     ; 0x25 <__rc21>
    6612: d0 06        	bne	$661a <readDelta+0x3f9>
    6614: e6 29        	inc	$29                     ; 0x29 <__rc25>
    6616: d0 02        	bne	$661a <readDelta+0x3f9>
    6618: e6 22        	inc	$22                     ; 0x22 <__rc18>
    661a: a4 23        	ldy	$23                     ; 0x23 <__rc19>
    661c: 91 16        	sta	($16),y                 ; 0x16 <__rc6>
    661e: a5 22        	lda	$22                     ; 0x22 <__rc18>
    6620: a4 24        	ldy	$24                     ; 0x24 <__rc20>
    6622: 91 18        	sta	($18),y                 ; 0x18 <__rc8>
    6624: a4 1e        	ldy	$1e                     ; 0x1e <__rc14>
    6626: a5 25        	lda	$25                     ; 0x25 <__rc21>
    6628: 91 18        	sta	($18),y                 ; 0x18 <__rc8>
    662a: a4 1f        	ldy	$1f                     ; 0x1f <__rc15>
    662c: a5 29        	lda	$29                     ; 0x29 <__rc25>
    662e: 91 18        	sta	($18),y                 ; 0x18 <__rc8>
    6630: a0 08        	ldy	#$8
    6632: 8a           	txa
    6633: a6 1a        	ldx	$1a                     ; 0x1a <__rc10>
    6635: e0 01        	cpx	#$1
    6637: 71 16        	adc	($16),y                 ; 0x16 <__rc6>
    6639: a2 01        	ldx	#$1
    663b: b0 02        	bcs	$663f <readDelta+0x41e>
    663d: a2 00        	ldx	#$0
    663f: 85 19        	sta	$19                     ; 0x19 <__rc9>
    6641: 18           	clc
    6642: a5 1c        	lda	$1c                     ; 0x1c <__rc12>
    6644: 69 08        	adc	#$8
    6646: 85 16        	sta	$16                     ; 0x16 <__rc6>
    6648: a5 1d        	lda	$1d                     ; 0x1d <__rc13>
    664a: 69 00        	adc	#$0
    664c: 85 17        	sta	$17                     ; 0x17 <__rc7>
    664e: e0 01        	cpx	#$1
    6650: a5 1b        	lda	$1b                     ; 0x1b <__rc11>
    6652: a4 1e        	ldy	$1e                     ; 0x1e <__rc14>
    6654: 71 16        	adc	($16),y                 ; 0x16 <__rc6>
    6656: 85 18        	sta	$18                     ; 0x18 <__rc8>
    6658: a5 15        	lda	$15                     ; 0x15 <__rc5>
    665a: a4 1f        	ldy	$1f                     ; 0x1f <__rc15>
    665c: 71 16        	adc	($16),y                 ; 0x16 <__rc6>
    665e: 85 15        	sta	$15                     ; 0x15 <__rc5>
    6660: a6 0f        	ldx	$f                      ; 0xf <__data_size+0xf>
    6662: 78           	sei
    6663: a5 18        	lda	$18                     ; 0x18 <__rc8>
    6665: 0a           	asl
    6666: 26 15        	rol	$15                     ; 0x15 <__rc5>
    6668: 0a           	asl
    6669: 26 15        	rol	$15                     ; 0x15 <__rc5>
    666b: 0a           	asl
    666c: a5 15        	lda	$15                     ; 0x15 <__rc5>
    666e: 2a           	rol
    666f: 85 0f        	sta	$f                      ; 0xf <__data_size+0xf>
    6671: a5 18        	lda	$18                     ; 0x18 <__rc8>
    6673: 09 e0        	ora	#$e0
    6675: a4 19        	ldy	$19                     ; 0x19 <__rc9>
    6677: 84 16        	sty	$16                     ; 0x16 <__rc6>
    6679: 85 17        	sta	$17                     ; 0x17 <__rc7>
    667b: b2 16        	lda	($16)                   ; 0x16 <__rc6>
    667d: 86 0f        	stx	$f                      ; 0xf <__data_size+0xf>
    667f: 58           	cli
    6680: 85 24        	sta	$24                     ; 0x24 <__rc20>
    6682: a0 08        	ldy	#$8
    6684: b1 10        	lda	($10),y                 ; 0x10 <__rc0>
    6686: 48           	pha
    6687: 88           	dey
    6688: b1 10        	lda	($10),y                 ; 0x10 <__rc0>
    668a: 85 29        	sta	$29                     ; 0x29 <__rc25>
    668c: 88           	dey
    668d: b1 10        	lda	($10),y                 ; 0x10 <__rc0>
    668f: 85 15        	sta	$15                     ; 0x15 <__rc5>
    6691: 68           	pla
    6692: 85 17        	sta	$17                     ; 0x17 <__rc7>
    6694: a5 29        	lda	$29                     ; 0x29 <__rc25>
    6696: 05 17        	ora	$17                     ; 0x17 <__rc7>
    6698: aa           	tax
    6699: a5 26        	lda	$26                     ; 0x26 <__rc22>
    669b: 05 28        	ora	$28                     ; 0x28 <__rc24>
    669d: 85 16        	sta	$16                     ; 0x16 <__rc6>
    669f: a5 27        	lda	$27                     ; 0x27 <__rc23>
    66a1: 05 15        	ora	$15                     ; 0x15 <__rc5>
    66a3: a8           	tay
    66a4: 8a           	txa
    66a5: 05 12        	ora	$12                     ; 0x12 <__rc2>
    66a7: 85 12        	sta	$12                     ; 0x12 <__rc2>
    66a9: a5 16        	lda	$16                     ; 0x16 <__rc6>
    66ab: 05 14        	ora	$14                     ; 0x14 <__rc4>
    66ad: aa           	tax
    66ae: a5 12        	lda	$12                     ; 0x12 <__rc2>
    66b0: 05 24        	ora	$24                     ; 0x24 <__rc20>
    66b2: 84 12        	sty	$12                     ; 0x12 <__rc2>
    66b4: 85 20        	sta	$20                     ; 0x20 <__rc16>
    66b6: a0 00        	ldy	#$0
    66b8: b1 10        	lda	($10),y                 ; 0x10 <__rc0>
    66ba: 85 2a        	sta	$2a                     ; 0x2a <__rc26>
    66bc: c8           	iny
    66bd: b1 10        	lda	($10),y                 ; 0x10 <__rc0>
    66bf: 85 29        	sta	$29                     ; 0x29 <__rc25>
    66c1: c8           	iny
    66c2: b1 10        	lda	($10),y                 ; 0x10 <__rc0>
    66c4: 85 28        	sta	$28                     ; 0x28 <__rc24>
    66c6: 7a           	ply
    66c7: 84 27        	sty	$27                     ; 0x27 <__rc23>
    66c9: 7a           	ply
    66ca: 84 26        	sty	$26                     ; 0x26 <__rc22>
    66cc: 7a           	ply
    66cd: 84 25        	sty	$25                     ; 0x25 <__rc21>
    66cf: 7a           	ply
    66d0: 84 24        	sty	$24                     ; 0x24 <__rc20>
    66d2: 18           	clc
    66d3: a5 10        	lda	$10                     ; 0x10 <__rc0>
    66d5: 69 09        	adc	#$9
    66d7: 85 10        	sta	$10                     ; 0x10 <__rc0>
    66d9: a5 11        	lda	$11                     ; 0x11 <__rc1>
    66db: 69 00        	adc	#$0
    66dd: 85 11        	sta	$11                     ; 0x11 <__rc1>
    66df: a5 20        	lda	$20                     ; 0x20 <__rc16>
    66e1: 60           	rts

000066e2 <readMIDICmd>:
    66e2: 48           	pha
    66e3: 18           	clc
    66e4: a5 10        	lda	$10                     ; 0x10 <__rc0>
    66e6: 69 fd        	adc	#$fd
    66e8: 85 10        	sta	$10                     ; 0x10 <__rc0>
    66ea: a5 11        	lda	$11                     ; 0x11 <__rc1>
    66ec: 69 ff        	adc	#$ff
    66ee: 85 11        	sta	$11                     ; 0x11 <__rc1>
    66f0: 68           	pla
    66f1: a6 24        	ldx	$24                     ; 0x24 <__rc20>
    66f3: da           	phx
    66f4: a6 25        	ldx	$25                     ; 0x25 <__rc21>
    66f6: da           	phx
    66f7: a6 26        	ldx	$26                     ; 0x26 <__rc22>
    66f9: da           	phx
    66fa: a6 27        	ldx	$27                     ; 0x27 <__rc23>
    66fc: da           	phx
    66fd: 48           	pha
    66fe: a5 28        	lda	$28                     ; 0x28 <__rc24>
    6700: a0 02        	ldy	#$2
    6702: 91 10        	sta	($10),y                 ; 0x10 <__rc0>
    6704: a5 29        	lda	$29                     ; 0x29 <__rc25>
    6706: 88           	dey
    6707: 91 10        	sta	($10),y                 ; 0x10 <__rc0>
    6709: a5 2a        	lda	$2a                     ; 0x2a <__rc26>
    670b: 88           	dey
    670c: 91 10        	sta	($10),y                 ; 0x10 <__rc0>
    670e: 68           	pla
    670f: 85 24        	sta	$24                     ; 0x24 <__rc20>
    6711: a6 80        	ldx	$80                     ; 0x80 <theOne.8>
    6713: 86 25        	stx	$25                     ; 0x25 <__rc21>
    6715: a6 81        	ldx	$81                     ; 0x81 <theOne.8+0x1>
    6717: 86 26        	stx	$26                     ; 0x26 <__rc22>
    6719: a2 19        	ldx	#$19
    671b: 86 12        	stx	$12                     ; 0x12 <__rc2>
    671d: 64 13        	stz	$13                     ; 0x13 <__rc3>
    671f: a2 00        	ldx	#$0
    6721: 20 4f 86     	jsr	$864f <__mulhi3>
    6724: 85 19        	sta	$19                     ; 0x19 <__rc9>
    6726: 18           	clc
    6727: 85 12        	sta	$12                     ; 0x12 <__rc2>
    6729: a5 25        	lda	$25                     ; 0x25 <__rc21>
    672b: 65 12        	adc	$12                     ; 0x12 <__rc2>
    672d: 85 16        	sta	$16                     ; 0x16 <__rc6>
    672f: 86 12        	stx	$12                     ; 0x12 <__rc2>
    6731: 86 18        	stx	$18                     ; 0x18 <__rc8>
    6733: a5 26        	lda	$26                     ; 0x26 <__rc22>
    6735: 65 12        	adc	$12                     ; 0x12 <__rc2>
    6737: a6 16        	ldx	$16                     ; 0x16 <__rc6>
    6739: 86 12        	stx	$12                     ; 0x12 <__rc2>
    673b: 85 13        	sta	$13                     ; 0x13 <__rc3>
    673d: 85 17        	sta	$17                     ; 0x17 <__rc7>
    673f: 18           	clc
    6740: a5 16        	lda	$16                     ; 0x16 <__rc6>
    6742: 69 08        	adc	#$8
    6744: 85 14        	sta	$14                     ; 0x14 <__rc4>
    6746: a5 17        	lda	$17                     ; 0x17 <__rc7>
    6748: 69 00        	adc	#$0
    674a: a0 08        	ldy	#$8
    674c: 85 15        	sta	$15                     ; 0x15 <__rc5>
    674e: b1 12        	lda	($12),y                 ; 0x12 <__rc2>
    6750: 85 1a        	sta	$1a                     ; 0x1a <__rc10>
    6752: a2 08        	ldx	#$8
    6754: 86 22        	stx	$22                     ; 0x22 <__rc18>
    6756: 18           	clc
    6757: a5 16        	lda	$16                     ; 0x16 <__rc6>
    6759: 69 04        	adc	#$4
    675b: 85 16        	sta	$16                     ; 0x16 <__rc6>
    675d: a5 17        	lda	$17                     ; 0x17 <__rc7>
    675f: 69 00        	adc	#$0
    6761: 85 17        	sta	$17                     ; 0x17 <__rc7>
    6763: a0 01        	ldy	#$1
    6765: b1 14        	lda	($14),y                 ; 0x14 <__rc4>
    6767: 85 1c        	sta	$1c                     ; 0x1c <__rc12>
    6769: a2 01        	ldx	#$1
    676b: 86 1d        	stx	$1d                     ; 0x1d <__rc13>
    676d: c8           	iny
    676e: b1 14        	lda	($14),y                 ; 0x14 <__rc4>
    6770: 85 14        	sta	$14                     ; 0x14 <__rc4>
    6772: e8           	inx
    6773: 86 15        	stx	$15                     ; 0x15 <__rc5>
    6775: 18           	clc
    6776: a0 04        	ldy	#$4
    6778: a5 1a        	lda	$1a                     ; 0x1a <__rc10>
    677a: 71 12        	adc	($12),y                 ; 0x12 <__rc2>
    677c: 85 13        	sta	$13                     ; 0x13 <__rc3>
    677e: a2 04        	ldx	#$4
    6780: 86 1b        	stx	$1b                     ; 0x1b <__rc11>
    6782: a5 1c        	lda	$1c                     ; 0x1c <__rc12>
    6784: a4 1d        	ldy	$1d                     ; 0x1d <__rc13>
    6786: 71 16        	adc	($16),y                 ; 0x16 <__rc6>
    6788: aa           	tax
    6789: 84 1c        	sty	$1c                     ; 0x1c <__rc12>
    678b: a5 14        	lda	$14                     ; 0x14 <__rc4>
    678d: a4 15        	ldy	$15                     ; 0x15 <__rc5>
    678f: 71 16        	adc	($16),y                 ; 0x16 <__rc6>
    6791: 85 14        	sta	$14                     ; 0x14 <__rc4>
    6793: 84 1d        	sty	$1d                     ; 0x1d <__rc13>
    6795: 8a           	txa
    6796: 86 12        	stx	$12                     ; 0x12 <__rc2>
    6798: 06 12        	asl	$12                     ; 0x12 <__rc2>
    679a: 26 14        	rol	$14                     ; 0x14 <__rc4>
    679c: 06 12        	asl	$12                     ; 0x12 <__rc2>
    679e: 26 14        	rol	$14                     ; 0x14 <__rc4>
    67a0: 06 12        	asl	$12                     ; 0x12 <__rc2>
    67a2: 26 14        	rol	$14                     ; 0x14 <__rc4>
    67a4: a6 14        	ldx	$14                     ; 0x14 <__rc4>
    67a6: a4 0f        	ldy	$f                      ; 0xf <__data_size+0xf>
    67a8: 78           	sei
    67a9: 86 0f        	stx	$f                      ; 0xf <__data_size+0xf>
    67ab: a6 13        	ldx	$13                     ; 0x13 <__rc3>
    67ad: 86 12        	stx	$12                     ; 0x12 <__rc2>
    67af: 09 e0        	ora	#$e0
    67b1: 85 13        	sta	$13                     ; 0x13 <__rc3>
    67b3: b2 12        	lda	($12)                   ; 0x12 <__rc2>
    67b5: 85 1a        	sta	$1a                     ; 0x1a <__rc10>
    67b7: 84 0f        	sty	$f                      ; 0xf <__data_size+0xf>
    67b9: 58           	cli
    67ba: 18           	clc
    67bb: a5 19        	lda	$19                     ; 0x19 <__rc9>
    67bd: 65 80        	adc	$80                     ; 0x80 <theOne.8>
    67bf: aa           	tax
    67c0: a5 18        	lda	$18                     ; 0x18 <__rc8>
    67c2: 65 81        	adc	$81                     ; 0x81 <theOne.8+0x1>
    67c4: a8           	tay
    67c5: 18           	clc
    67c6: 8a           	txa
    67c7: 69 08        	adc	#$8
    67c9: 85 12        	sta	$12                     ; 0x12 <__rc2>
    67cb: 98           	tya
    67cc: 69 00        	adc	#$0
    67ce: 85 13        	sta	$13                     ; 0x13 <__rc3>
    67d0: 86 14        	stx	$14                     ; 0x14 <__rc4>
    67d2: 84 15        	sty	$15                     ; 0x15 <__rc5>
    67d4: 18           	clc
    67d5: 8a           	txa
    67d6: 69 04        	adc	#$4
    67d8: 85 16        	sta	$16                     ; 0x16 <__rc6>
    67da: 98           	tya
    67db: 69 00        	adc	#$0
    67dd: 85 17        	sta	$17                     ; 0x17 <__rc7>
    67df: a4 1b        	ldy	$1b                     ; 0x1b <__rc11>
    67e1: b1 14        	lda	($14),y                 ; 0x14 <__rc4>
    67e3: 85 1e        	sta	$1e                     ; 0x1e <__rc14>
    67e5: a4 1c        	ldy	$1c                     ; 0x1c <__rc12>
    67e7: b1 16        	lda	($16),y                 ; 0x16 <__rc6>
    67e9: 85 23        	sta	$23                     ; 0x23 <__rc19>
    67eb: a4 1d        	ldy	$1d                     ; 0x1d <__rc13>
    67ed: b1 16        	lda	($16),y                 ; 0x16 <__rc6>
    67ef: 85 1f        	sta	$1f                     ; 0x1f <__rc15>
    67f1: a0 03        	ldy	#$3
    67f3: b1 16        	lda	($16),y                 ; 0x16 <__rc6>
    67f5: 85 16        	sta	$16                     ; 0x16 <__rc6>
    67f7: a2 03        	ldx	#$3
    67f9: 86 17        	stx	$17                     ; 0x17 <__rc7>
    67fb: 18           	clc
    67fc: a4 22        	ldy	$22                     ; 0x22 <__rc18>
    67fe: a5 1e        	lda	$1e                     ; 0x1e <__rc14>
    6800: 71 14        	adc	($14),y                 ; 0x14 <__rc4>
    6802: 85 14        	sta	$14                     ; 0x14 <__rc4>
    6804: a4 1c        	ldy	$1c                     ; 0x1c <__rc12>
    6806: a5 23        	lda	$23                     ; 0x23 <__rc19>
    6808: 71 12        	adc	($12),y                 ; 0x12 <__rc2>
    680a: 85 15        	sta	$15                     ; 0x15 <__rc5>
    680c: a4 1d        	ldy	$1d                     ; 0x1d <__rc13>
    680e: a5 1f        	lda	$1f                     ; 0x1f <__rc15>
    6810: 71 12        	adc	($12),y                 ; 0x12 <__rc2>
    6812: aa           	tax
    6813: a5 16        	lda	$16                     ; 0x16 <__rc6>
    6815: a4 17        	ldy	$17                     ; 0x17 <__rc7>
    6817: 84 1e        	sty	$1e                     ; 0x1e <__rc14>
    6819: a4 17        	ldy	$17                     ; 0x17 <__rc7>
    681b: 71 12        	adc	($12),y                 ; 0x12 <__rc2>
    681d: a8           	tay
    681e: a5 15        	lda	$15                     ; 0x15 <__rc5>
    6820: e6 14        	inc	$14                     ; 0x14 <__rc4>
    6822: d0 07        	bne	$682b <readMIDICmd+0x149>
    6824: 1a           	inc
    6825: d0 04        	bne	$682b <readMIDICmd+0x149>
    6827: e8           	inx
    6828: d0 01        	bne	$682b <readMIDICmd+0x149>
    682a: c8           	iny
    682b: 85 12        	sta	$12                     ; 0x12 <__rc2>
    682d: 06 12        	asl	$12                     ; 0x12 <__rc2>
    682f: 86 13        	stx	$13                     ; 0x13 <__rc3>
    6831: 26 13        	rol	$13                     ; 0x13 <__rc3>
    6833: 06 12        	asl	$12                     ; 0x12 <__rc2>
    6835: 26 13        	rol	$13                     ; 0x13 <__rc3>
    6837: 06 12        	asl	$12                     ; 0x12 <__rc2>
    6839: 26 13        	rol	$13                     ; 0x13 <__rc3>
    683b: a4 13        	ldy	$13                     ; 0x13 <__rc3>
    683d: a6 0f        	ldx	$f                      ; 0xf <__data_size+0xf>
    683f: 78           	sei
    6840: 84 0f        	sty	$f                      ; 0xf <__data_size+0xf>
    6842: a4 14        	ldy	$14                     ; 0x14 <__rc4>
    6844: 84 12        	sty	$12                     ; 0x12 <__rc2>
    6846: 09 e0        	ora	#$e0
    6848: 85 13        	sta	$13                     ; 0x13 <__rc3>
    684a: b2 12        	lda	($12)                   ; 0x12 <__rc2>
    684c: 85 1f        	sta	$1f                     ; 0x1f <__rc15>
    684e: 86 0f        	stx	$f                      ; 0xf <__data_size+0xf>
    6850: 58           	cli
    6851: 18           	clc
    6852: a5 19        	lda	$19                     ; 0x19 <__rc9>
    6854: 65 80        	adc	$80                     ; 0x80 <theOne.8>
    6856: aa           	tax
    6857: a5 18        	lda	$18                     ; 0x18 <__rc8>
    6859: 65 81        	adc	$81                     ; 0x81 <theOne.8+0x1>
    685b: a8           	tay
    685c: 18           	clc
    685d: 8a           	txa
    685e: 69 08        	adc	#$8
    6860: 85 12        	sta	$12                     ; 0x12 <__rc2>
    6862: 98           	tya
    6863: 69 00        	adc	#$0
    6865: 85 13        	sta	$13                     ; 0x13 <__rc3>
    6867: 86 14        	stx	$14                     ; 0x14 <__rc4>
    6869: 84 15        	sty	$15                     ; 0x15 <__rc5>
    686b: 18           	clc
    686c: 8a           	txa
    686d: 69 04        	adc	#$4
    686f: 85 16        	sta	$16                     ; 0x16 <__rc6>
    6871: 98           	tya
    6872: 69 00        	adc	#$0
    6874: 85 17        	sta	$17                     ; 0x17 <__rc7>
    6876: a4 1b        	ldy	$1b                     ; 0x1b <__rc11>
    6878: b1 14        	lda	($14),y                 ; 0x14 <__rc4>
    687a: 85 1b        	sta	$1b                     ; 0x1b <__rc11>
    687c: 84 23        	sty	$23                     ; 0x23 <__rc19>
    687e: a4 1c        	ldy	$1c                     ; 0x1c <__rc12>
    6880: b1 16        	lda	($16),y                 ; 0x16 <__rc6>
    6882: 84 25        	sty	$25                     ; 0x25 <__rc21>
    6884: 85 1c        	sta	$1c                     ; 0x1c <__rc12>
    6886: a4 1d        	ldy	$1d                     ; 0x1d <__rc13>
    6888: b1 16        	lda	($16),y                 ; 0x16 <__rc6>
    688a: 84 17        	sty	$17                     ; 0x17 <__rc7>
    688c: 85 16        	sta	$16                     ; 0x16 <__rc6>
    688e: 18           	clc
    688f: a4 22        	ldy	$22                     ; 0x22 <__rc18>
    6891: a5 1b        	lda	$1b                     ; 0x1b <__rc11>
    6893: 71 14        	adc	($14),y                 ; 0x14 <__rc4>
    6895: 85 14        	sta	$14                     ; 0x14 <__rc4>
    6897: a5 1c        	lda	$1c                     ; 0x1c <__rc12>
    6899: a4 25        	ldy	$25                     ; 0x25 <__rc21>
    689b: 71 12        	adc	($12),y                 ; 0x12 <__rc2>
    689d: 85 15        	sta	$15                     ; 0x15 <__rc5>
    689f: a5 16        	lda	$16                     ; 0x16 <__rc6>
    68a1: a4 17        	ldy	$17                     ; 0x17 <__rc7>
    68a3: 71 12        	adc	($12),y                 ; 0x12 <__rc2>
    68a5: 85 12        	sta	$12                     ; 0x12 <__rc2>
    68a7: 84 1c        	sty	$1c                     ; 0x1c <__rc12>
    68a9: 18           	clc
    68aa: a5 14        	lda	$14                     ; 0x14 <__rc4>
    68ac: 69 02        	adc	#$2
    68ae: 85 14        	sta	$14                     ; 0x14 <__rc4>
    68b0: a5 15        	lda	$15                     ; 0x15 <__rc5>
    68b2: 69 00        	adc	#$0
    68b4: aa           	tax
    68b5: a5 12        	lda	$12                     ; 0x12 <__rc2>
    68b7: 69 00        	adc	#$0
    68b9: 85 13        	sta	$13                     ; 0x13 <__rc3>
    68bb: 8a           	txa
    68bc: 86 12        	stx	$12                     ; 0x12 <__rc2>
    68be: 06 12        	asl	$12                     ; 0x12 <__rc2>
    68c0: 26 13        	rol	$13                     ; 0x13 <__rc3>
    68c2: 06 12        	asl	$12                     ; 0x12 <__rc2>
    68c4: 26 13        	rol	$13                     ; 0x13 <__rc3>
    68c6: 06 12        	asl	$12                     ; 0x12 <__rc2>
    68c8: 26 13        	rol	$13                     ; 0x13 <__rc3>
    68ca: a4 13        	ldy	$13                     ; 0x13 <__rc3>
    68cc: a6 0f        	ldx	$f                      ; 0xf <__data_size+0xf>
    68ce: 78           	sei
    68cf: 84 0f        	sty	$f                      ; 0xf <__data_size+0xf>
    68d1: a4 14        	ldy	$14                     ; 0x14 <__rc4>
    68d3: 84 12        	sty	$12                     ; 0x12 <__rc2>
    68d5: 09 e0        	ora	#$e0
    68d7: 85 13        	sta	$13                     ; 0x13 <__rc3>
    68d9: b2 12        	lda	($12)                   ; 0x12 <__rc2>
    68db: 85 1b        	sta	$1b                     ; 0x1b <__rc11>
    68dd: 86 0f        	stx	$f                      ; 0xf <__data_size+0xf>
    68df: 58           	cli
    68e0: 18           	clc
    68e1: a5 19        	lda	$19                     ; 0x19 <__rc9>
    68e3: 65 80        	adc	$80                     ; 0x80 <theOne.8>
    68e5: aa           	tax
    68e6: a5 18        	lda	$18                     ; 0x18 <__rc8>
    68e8: 65 81        	adc	$81                     ; 0x81 <theOne.8+0x1>
    68ea: a8           	tay
    68eb: 18           	clc
    68ec: 8a           	txa
    68ed: 69 08        	adc	#$8
    68ef: 85 12        	sta	$12                     ; 0x12 <__rc2>
    68f1: 98           	tya
    68f2: 69 00        	adc	#$0
    68f4: 85 13        	sta	$13                     ; 0x13 <__rc3>
    68f6: 86 14        	stx	$14                     ; 0x14 <__rc4>
    68f8: 84 15        	sty	$15                     ; 0x15 <__rc5>
    68fa: 18           	clc
    68fb: 8a           	txa
    68fc: 69 04        	adc	#$4
    68fe: 85 16        	sta	$16                     ; 0x16 <__rc6>
    6900: 98           	tya
    6901: 69 00        	adc	#$0
    6903: 85 17        	sta	$17                     ; 0x17 <__rc7>
    6905: a4 23        	ldy	$23                     ; 0x23 <__rc19>
    6907: b1 14        	lda	($14),y                 ; 0x14 <__rc4>
    6909: 85 23        	sta	$23                     ; 0x23 <__rc19>
    690b: 84 1d        	sty	$1d                     ; 0x1d <__rc13>
    690d: a4 25        	ldy	$25                     ; 0x25 <__rc21>
    690f: b1 16        	lda	($16),y                 ; 0x16 <__rc6>
    6911: aa           	tax
    6912: a4 1c        	ldy	$1c                     ; 0x1c <__rc12>
    6914: b1 16        	lda	($16),y                 ; 0x16 <__rc6>
    6916: 84 17        	sty	$17                     ; 0x17 <__rc7>
    6918: 85 16        	sta	$16                     ; 0x16 <__rc6>
    691a: 18           	clc
    691b: a4 22        	ldy	$22                     ; 0x22 <__rc18>
    691d: a5 23        	lda	$23                     ; 0x23 <__rc19>
    691f: 71 14        	adc	($14),y                 ; 0x14 <__rc4>
    6921: 85 14        	sta	$14                     ; 0x14 <__rc4>
    6923: 8a           	txa
    6924: a4 25        	ldy	$25                     ; 0x25 <__rc21>
    6926: 71 12        	adc	($12),y                 ; 0x12 <__rc2>
    6928: 85 15        	sta	$15                     ; 0x15 <__rc5>
    692a: a4 17        	ldy	$17                     ; 0x17 <__rc7>
    692c: a5 16        	lda	$16                     ; 0x16 <__rc6>
    692e: 71 12        	adc	($12),y                 ; 0x12 <__rc2>
    6930: 85 12        	sta	$12                     ; 0x12 <__rc2>
    6932: 84 23        	sty	$23                     ; 0x23 <__rc19>
    6934: 18           	clc
    6935: a5 14        	lda	$14                     ; 0x14 <__rc4>
    6937: 69 03        	adc	#$3
    6939: 85 14        	sta	$14                     ; 0x14 <__rc4>
    693b: a5 15        	lda	$15                     ; 0x15 <__rc5>
    693d: 69 00        	adc	#$0
    693f: aa           	tax
    6940: a5 12        	lda	$12                     ; 0x12 <__rc2>
    6942: 69 00        	adc	#$0
    6944: 85 13        	sta	$13                     ; 0x13 <__rc3>
    6946: 8a           	txa
    6947: 86 12        	stx	$12                     ; 0x12 <__rc2>
    6949: 06 12        	asl	$12                     ; 0x12 <__rc2>
    694b: 26 13        	rol	$13                     ; 0x13 <__rc3>
    694d: 06 12        	asl	$12                     ; 0x12 <__rc2>
    694f: 26 13        	rol	$13                     ; 0x13 <__rc3>
    6951: 06 12        	asl	$12                     ; 0x12 <__rc2>
    6953: 26 13        	rol	$13                     ; 0x13 <__rc3>
    6955: a4 13        	ldy	$13                     ; 0x13 <__rc3>
    6957: a6 0f        	ldx	$f                      ; 0xf <__data_size+0xf>
    6959: 78           	sei
    695a: 84 0f        	sty	$f                      ; 0xf <__data_size+0xf>
    695c: a4 14        	ldy	$14                     ; 0x14 <__rc4>
    695e: 84 12        	sty	$12                     ; 0x12 <__rc2>
    6960: 09 e0        	ora	#$e0
    6962: 85 13        	sta	$13                     ; 0x13 <__rc3>
    6964: b2 12        	lda	($12)                   ; 0x12 <__rc2>
    6966: 85 1c        	sta	$1c                     ; 0x1c <__rc12>
    6968: 86 0f        	stx	$f                      ; 0xf <__data_size+0xf>
    696a: 58           	cli
    696b: 18           	clc
    696c: a5 19        	lda	$19                     ; 0x19 <__rc9>
    696e: 65 80        	adc	$80                     ; 0x80 <theOne.8>
    6970: aa           	tax
    6971: a5 18        	lda	$18                     ; 0x18 <__rc8>
    6973: 65 81        	adc	$81                     ; 0x81 <theOne.8+0x1>
    6975: a8           	tay
    6976: 8a           	txa
    6977: 18           	clc
    6978: 69 08        	adc	#$8
    697a: 85 12        	sta	$12                     ; 0x12 <__rc2>
    697c: 98           	tya
    697d: 69 00        	adc	#$0
    697f: 85 13        	sta	$13                     ; 0x13 <__rc3>
    6981: 86 14        	stx	$14                     ; 0x14 <__rc4>
    6983: 84 15        	sty	$15                     ; 0x15 <__rc5>
    6985: 18           	clc
    6986: 8a           	txa
    6987: 69 04        	adc	#$4
    6989: 85 16        	sta	$16                     ; 0x16 <__rc6>
    698b: 98           	tya
    698c: 69 00        	adc	#$0
    698e: 85 17        	sta	$17                     ; 0x17 <__rc7>
    6990: a4 1d        	ldy	$1d                     ; 0x1d <__rc13>
    6992: b1 14        	lda	($14),y                 ; 0x14 <__rc4>
    6994: 85 26        	sta	$26                     ; 0x26 <__rc22>
    6996: a4 25        	ldy	$25                     ; 0x25 <__rc21>
    6998: b1 16        	lda	($16),y                 ; 0x16 <__rc6>
    699a: 85 25        	sta	$25                     ; 0x25 <__rc21>
    699c: 5a           	phy
    699d: fa           	plx
    699e: a4 23        	ldy	$23                     ; 0x23 <__rc19>
    69a0: b1 16        	lda	($16),y                 ; 0x16 <__rc6>
    69a2: 84 27        	sty	$27                     ; 0x27 <__rc23>
    69a4: 85 16        	sta	$16                     ; 0x16 <__rc6>
    69a6: 18           	clc
    69a7: a4 22        	ldy	$22                     ; 0x22 <__rc18>
    69a9: a5 26        	lda	$26                     ; 0x26 <__rc22>
    69ab: 71 14        	adc	($14),y                 ; 0x14 <__rc4>
    69ad: 85 14        	sta	$14                     ; 0x14 <__rc4>
    69af: 84 17        	sty	$17                     ; 0x17 <__rc7>
    69b1: da           	phx
    69b2: 7a           	ply
    69b3: a5 25        	lda	$25                     ; 0x25 <__rc21>
    69b5: 71 12        	adc	($12),y                 ; 0x12 <__rc2>
    69b7: 85 15        	sta	$15                     ; 0x15 <__rc5>
    69b9: 86 23        	stx	$23                     ; 0x23 <__rc19>
    69bb: a4 27        	ldy	$27                     ; 0x27 <__rc23>
    69bd: a5 16        	lda	$16                     ; 0x16 <__rc6>
    69bf: 71 12        	adc	($12),y                 ; 0x12 <__rc2>
    69c1: 85 12        	sta	$12                     ; 0x12 <__rc2>
    69c3: 84 16        	sty	$16                     ; 0x16 <__rc6>
    69c5: 18           	clc
    69c6: a5 14        	lda	$14                     ; 0x14 <__rc4>
    69c8: 69 04        	adc	#$4
    69ca: 85 14        	sta	$14                     ; 0x14 <__rc4>
    69cc: a5 15        	lda	$15                     ; 0x15 <__rc5>
    69ce: 69 00        	adc	#$0
    69d0: aa           	tax
    69d1: a5 12        	lda	$12                     ; 0x12 <__rc2>
    69d3: 69 00        	adc	#$0
    69d5: 85 13        	sta	$13                     ; 0x13 <__rc3>
    69d7: 8a           	txa
    69d8: 86 12        	stx	$12                     ; 0x12 <__rc2>
    69da: 06 12        	asl	$12                     ; 0x12 <__rc2>
    69dc: 26 13        	rol	$13                     ; 0x13 <__rc3>
    69de: 06 12        	asl	$12                     ; 0x12 <__rc2>
    69e0: 26 13        	rol	$13                     ; 0x13 <__rc3>
    69e2: 06 12        	asl	$12                     ; 0x12 <__rc2>
    69e4: 26 13        	rol	$13                     ; 0x13 <__rc3>
    69e6: a4 13        	ldy	$13                     ; 0x13 <__rc3>
    69e8: a6 0f        	ldx	$f                      ; 0xf <__data_size+0xf>
    69ea: 78           	sei
    69eb: 84 0f        	sty	$f                      ; 0xf <__data_size+0xf>
    69ed: a4 14        	ldy	$14                     ; 0x14 <__rc4>
    69ef: 84 12        	sty	$12                     ; 0x12 <__rc2>
    69f1: 09 e0        	ora	#$e0
    69f3: 85 13        	sta	$13                     ; 0x13 <__rc3>
    69f5: b2 12        	lda	($12)                   ; 0x12 <__rc2>
    69f7: 85 22        	sta	$22                     ; 0x22 <__rc18>
    69f9: 86 0f        	stx	$f                      ; 0xf <__data_size+0xf>
    69fb: 58           	cli
    69fc: 18           	clc
    69fd: a5 19        	lda	$19                     ; 0x19 <__rc9>
    69ff: 65 80        	adc	$80                     ; 0x80 <theOne.8>
    6a01: aa           	tax
    6a02: a5 18        	lda	$18                     ; 0x18 <__rc8>
    6a04: 65 81        	adc	$81                     ; 0x81 <theOne.8+0x1>
    6a06: 86 12        	stx	$12                     ; 0x12 <__rc2>
    6a08: 85 13        	sta	$13                     ; 0x13 <__rc3>
    6a0a: a8           	tay
    6a0b: 86 25        	stx	$25                     ; 0x25 <__rc21>
    6a0d: 18           	clc
    6a0e: 8a           	txa
    6a0f: 69 04        	adc	#$4
    6a11: 85 14        	sta	$14                     ; 0x14 <__rc4>
    6a13: 98           	tya
    6a14: 84 26        	sty	$26                     ; 0x26 <__rc22>
    6a16: 69 00        	adc	#$0
    6a18: 85 15        	sta	$15                     ; 0x15 <__rc5>
    6a1a: a4 1d        	ldy	$1d                     ; 0x1d <__rc13>
    6a1c: b1 12        	lda	($12),y                 ; 0x12 <__rc2>
    6a1e: aa           	tax
    6a1f: a4 23        	ldy	$23                     ; 0x23 <__rc19>
    6a21: b1 14        	lda	($14),y                 ; 0x14 <__rc4>
    6a23: 84 28        	sty	$28                     ; 0x28 <__rc24>
    6a25: 85 23        	sta	$23                     ; 0x23 <__rc19>
    6a27: a4 16        	ldy	$16                     ; 0x16 <__rc6>
    6a29: b1 14        	lda	($14),y                 ; 0x14 <__rc4>
    6a2b: 84 27        	sty	$27                     ; 0x27 <__rc23>
    6a2d: 85 15        	sta	$15                     ; 0x15 <__rc5>
    6a2f: 18           	clc
    6a30: a4 17        	ldy	$17                     ; 0x17 <__rc7>
    6a32: 8a           	txa
    6a33: 71 12        	adc	($12),y                 ; 0x12 <__rc2>
    6a35: a2 01        	ldx	#$1
    6a37: b0 02        	bcs	$6a3b <readMIDICmd+0x359>
    6a39: a2 00        	ldx	#$0
    6a3b: 85 14        	sta	$14                     ; 0x14 <__rc4>
    6a3d: 18           	clc
    6a3e: a5 25        	lda	$25                     ; 0x25 <__rc21>
    6a40: 69 08        	adc	#$8
    6a42: 85 12        	sta	$12                     ; 0x12 <__rc2>
    6a44: a5 26        	lda	$26                     ; 0x26 <__rc22>
    6a46: 69 00        	adc	#$0
    6a48: 85 13        	sta	$13                     ; 0x13 <__rc3>
    6a4a: a5 23        	lda	$23                     ; 0x23 <__rc19>
    6a4c: a4 28        	ldy	$28                     ; 0x28 <__rc24>
    6a4e: e0 01        	cpx	#$1
    6a50: 71 12        	adc	($12),y                 ; 0x12 <__rc2>
    6a52: 85 16        	sta	$16                     ; 0x16 <__rc6>
    6a54: 84 25        	sty	$25                     ; 0x25 <__rc21>
    6a56: a5 15        	lda	$15                     ; 0x15 <__rc5>
    6a58: a4 27        	ldy	$27                     ; 0x27 <__rc23>
    6a5a: 71 12        	adc	($12),y                 ; 0x12 <__rc2>
    6a5c: 85 12        	sta	$12                     ; 0x12 <__rc2>
    6a5e: 84 26        	sty	$26                     ; 0x26 <__rc22>
    6a60: 18           	clc
    6a61: a5 14        	lda	$14                     ; 0x14 <__rc4>
    6a63: 69 05        	adc	#$5
    6a65: 85 14        	sta	$14                     ; 0x14 <__rc4>
    6a67: a5 16        	lda	$16                     ; 0x16 <__rc6>
    6a69: 69 00        	adc	#$0
    6a6b: aa           	tax
    6a6c: a5 12        	lda	$12                     ; 0x12 <__rc2>
    6a6e: 69 00        	adc	#$0
    6a70: 85 13        	sta	$13                     ; 0x13 <__rc3>
    6a72: 8a           	txa
    6a73: 86 12        	stx	$12                     ; 0x12 <__rc2>
    6a75: 06 12        	asl	$12                     ; 0x12 <__rc2>
    6a77: 26 13        	rol	$13                     ; 0x13 <__rc3>
    6a79: 06 12        	asl	$12                     ; 0x12 <__rc2>
    6a7b: 26 13        	rol	$13                     ; 0x13 <__rc3>
    6a7d: 06 12        	asl	$12                     ; 0x12 <__rc2>
    6a7f: 26 13        	rol	$13                     ; 0x13 <__rc3>
    6a81: a4 13        	ldy	$13                     ; 0x13 <__rc3>
    6a83: a6 0f        	ldx	$f                      ; 0xf <__data_size+0xf>
    6a85: 78           	sei
    6a86: 84 0f        	sty	$f                      ; 0xf <__data_size+0xf>
    6a88: a4 14        	ldy	$14                     ; 0x14 <__rc4>
    6a8a: 84 12        	sty	$12                     ; 0x12 <__rc2>
    6a8c: 09 e0        	ora	#$e0
    6a8e: 85 13        	sta	$13                     ; 0x13 <__rc3>
    6a90: b2 12        	lda	($12)                   ; 0x12 <__rc2>
    6a92: 85 23        	sta	$23                     ; 0x23 <__rc19>
    6a94: 86 0f        	stx	$f                      ; 0xf <__data_size+0xf>
    6a96: 58           	cli
    6a97: 18           	clc
    6a98: a5 19        	lda	$19                     ; 0x19 <__rc9>
    6a9a: 65 80        	adc	$80                     ; 0x80 <theOne.8>
    6a9c: aa           	tax
    6a9d: a5 18        	lda	$18                     ; 0x18 <__rc8>
    6a9f: 65 81        	adc	$81                     ; 0x81 <theOne.8+0x1>
    6aa1: 85 13        	sta	$13                     ; 0x13 <__rc3>
    6aa3: 8a           	txa
    6aa4: 18           	clc
    6aa5: 69 04        	adc	#$4
    6aa7: 85 14        	sta	$14                     ; 0x14 <__rc4>
    6aa9: a5 13        	lda	$13                     ; 0x13 <__rc3>
    6aab: 69 00        	adc	#$0
    6aad: 85 15        	sta	$15                     ; 0x15 <__rc5>
    6aaf: 86 17        	stx	$17                     ; 0x17 <__rc7>
    6ab1: 86 12        	stx	$12                     ; 0x12 <__rc2>
    6ab3: a6 13        	ldx	$13                     ; 0x13 <__rc3>
    6ab5: 86 16        	stx	$16                     ; 0x16 <__rc6>
    6ab7: a0 10        	ldy	#$10
    6ab9: a5 1a        	lda	$1a                     ; 0x1a <__rc10>
    6abb: 91 12        	sta	($12),y                 ; 0x12 <__rc2>
    6abd: c8           	iny
    6abe: a5 1f        	lda	$1f                     ; 0x1f <__rc15>
    6ac0: 85 18        	sta	$18                     ; 0x18 <__rc8>
    6ac2: 91 12        	sta	($12),y                 ; 0x12 <__rc2>
    6ac4: c8           	iny
    6ac5: a5 1b        	lda	$1b                     ; 0x1b <__rc11>
    6ac7: 85 19        	sta	$19                     ; 0x19 <__rc9>
    6ac9: 91 12        	sta	($12),y                 ; 0x12 <__rc2>
    6acb: a4 1d        	ldy	$1d                     ; 0x1d <__rc13>
    6acd: b1 12        	lda	($12),y                 ; 0x12 <__rc2>
    6acf: 85 1b        	sta	$1b                     ; 0x1b <__rc11>
    6ad1: 84 27        	sty	$27                     ; 0x27 <__rc23>
    6ad3: a4 25        	ldy	$25                     ; 0x25 <__rc21>
    6ad5: b1 14        	lda	($14),y                 ; 0x14 <__rc4>
    6ad7: 85 2a        	sta	$2a                     ; 0x2a <__rc26>
    6ad9: a4 26        	ldy	$26                     ; 0x26 <__rc22>
    6adb: b1 14        	lda	($14),y                 ; 0x14 <__rc4>
    6add: 85 28        	sta	$28                     ; 0x28 <__rc24>
    6adf: a6 1e        	ldx	$1e                     ; 0x1e <__rc14>
    6ae1: a4 1e        	ldy	$1e                     ; 0x1e <__rc14>
    6ae3: b1 14        	lda	($14),y                 ; 0x14 <__rc4>
    6ae5: a8           	tay
    6ae6: a5 1b        	lda	$1b                     ; 0x1b <__rc11>
    6ae8: 5a           	phy
    6ae9: a4 2a        	ldy	$2a                     ; 0x2a <__rc26>
    6aeb: 84 1f        	sty	$1f                     ; 0x1f <__rc15>
    6aed: a4 28        	ldy	$28                     ; 0x28 <__rc24>
    6aef: 84 1e        	sty	$1e                     ; 0x1e <__rc14>
    6af1: 7a           	ply
    6af2: 84 1d        	sty	$1d                     ; 0x1d <__rc13>
    6af4: 84 29        	sty	$29                     ; 0x29 <__rc25>
    6af6: 1a           	inc
    6af7: d0 0a        	bne	$6b03 <readMIDICmd+0x421>
    6af9: e6 2a        	inc	$2a                     ; 0x2a <__rc26>
    6afb: d0 06        	bne	$6b03 <readMIDICmd+0x421>
    6afd: e6 28        	inc	$28                     ; 0x28 <__rc24>
    6aff: d0 02        	bne	$6b03 <readMIDICmd+0x421>
    6b01: e6 29        	inc	$29                     ; 0x29 <__rc25>
    6b03: a4 27        	ldy	$27                     ; 0x27 <__rc23>
    6b05: 85 27        	sta	$27                     ; 0x27 <__rc23>
    6b07: 91 12        	sta	($12),y                 ; 0x12 <__rc2>
    6b09: a4 25        	ldy	$25                     ; 0x25 <__rc21>
    6b0b: a5 2a        	lda	$2a                     ; 0x2a <__rc26>
    6b0d: 85 25        	sta	$25                     ; 0x25 <__rc21>
    6b0f: 91 14        	sta	($14),y                 ; 0x14 <__rc4>
    6b11: a4 26        	ldy	$26                     ; 0x26 <__rc22>
    6b13: a5 28        	lda	$28                     ; 0x28 <__rc24>
    6b15: 91 14        	sta	($14),y                 ; 0x14 <__rc4>
    6b17: da           	phx
    6b18: 7a           	ply
    6b19: a5 29        	lda	$29                     ; 0x29 <__rc25>
    6b1b: 91 14        	sta	($14),y                 ; 0x14 <__rc4>
    6b1d: a6 1a        	ldx	$1a                     ; 0x1a <__rc10>
    6b1f: 10 03        	bpl	$6b24 <readMIDICmd+0x442>
    6b21: 4c b1 6b     	jmp	$6bb1 <readMIDICmd+0x4cf>
    6b24: 8a           	txa
    6b25: a0 11        	ldy	#$11
    6b27: 91 12        	sta	($12),y                 ; 0x12 <__rc2>
    6b29: a5 18        	lda	$18                     ; 0x18 <__rc8>
    6b2b: c8           	iny
    6b2c: 91 12        	sta	($12),y                 ; 0x12 <__rc2>
    6b2e: 85 25        	sta	$25                     ; 0x25 <__rc21>
    6b30: a0 04        	ldy	#$4
    6b32: a5 1b        	lda	$1b                     ; 0x1b <__rc11>
    6b34: 91 12        	sta	($12),y                 ; 0x12 <__rc2>
    6b36: a0 01        	ldy	#$1
    6b38: a5 1f        	lda	$1f                     ; 0x1f <__rc15>
    6b3a: 85 1a        	sta	$1a                     ; 0x1a <__rc10>
    6b3c: 91 14        	sta	($14),y                 ; 0x14 <__rc4>
    6b3e: a0 16        	ldy	#$16
    6b40: b1 12        	lda	($12),y                 ; 0x12 <__rc2>
    6b42: a0 10        	ldy	#$10
    6b44: 91 12        	sta	($12),y                 ; 0x12 <__rc2>
    6b46: 85 1f        	sta	$1f                     ; 0x1f <__rc15>
    6b48: a0 02        	ldy	#$2
    6b4a: a5 1e        	lda	$1e                     ; 0x1e <__rc14>
    6b4c: 85 19        	sta	$19                     ; 0x19 <__rc9>
    6b4e: 91 14        	sta	($14),y                 ; 0x14 <__rc4>
    6b50: c8           	iny
    6b51: a5 1d        	lda	$1d                     ; 0x1d <__rc13>
    6b53: 85 18        	sta	$18                     ; 0x18 <__rc8>
    6b55: 91 14        	sta	($14),y                 ; 0x14 <__rc4>
    6b57: a4 25        	ldy	$25                     ; 0x25 <__rc21>
    6b59: 84 15        	sty	$15                     ; 0x15 <__rc5>
    6b5b: 86 14        	stx	$14                     ; 0x14 <__rc4>
    6b5d: a5 1f        	lda	$1f                     ; 0x1f <__rc15>
    6b5f: c9 ff        	cmp	#$ff
    6b61: d0 03        	bne	$6b66 <readMIDICmd+0x484>
    6b63: 4c cf 6b     	jmp	$6bcf <readMIDICmd+0x4ed>
    6b66: c9 c0        	cmp	#$c0
    6b68: b0 03        	bcs	$6b6d <readMIDICmd+0x48b>
    6b6a: 4c 2a 6c     	jmp	$6c2a <readMIDICmd+0x548>
    6b6d: c9 e0        	cmp	#$e0
    6b6f: 90 03        	bcc	$6b74 <readMIDICmd+0x492>
    6b71: 4c 3b 6c     	jmp	$6c3b <readMIDICmd+0x559>
    6b74: e6 1b        	inc	$1b                     ; 0x1b <__rc11>
    6b76: d0 0a        	bne	$6b82 <readMIDICmd+0x4a0>
    6b78: e6 1a        	inc	$1a                     ; 0x1a <__rc10>
    6b7a: d0 06        	bne	$6b82 <readMIDICmd+0x4a0>
    6b7c: e6 19        	inc	$19                     ; 0x19 <__rc9>
    6b7e: d0 02        	bne	$6b82 <readMIDICmd+0x4a0>
    6b80: e6 18        	inc	$18                     ; 0x18 <__rc8>
    6b82: a0 04        	ldy	#$4
    6b84: aa           	tax
    6b85: a5 1b        	lda	$1b                     ; 0x1b <__rc11>
    6b87: 91 12        	sta	($12),y                 ; 0x12 <__rc2>
    6b89: 18           	clc
    6b8a: a5 17        	lda	$17                     ; 0x17 <__rc7>
    6b8c: 69 04        	adc	#$4
    6b8e: 85 14        	sta	$14                     ; 0x14 <__rc4>
    6b90: a5 16        	lda	$16                     ; 0x16 <__rc6>
    6b92: 69 00        	adc	#$0
    6b94: 85 15        	sta	$15                     ; 0x15 <__rc5>
    6b96: a0 01        	ldy	#$1
    6b98: a5 1a        	lda	$1a                     ; 0x1a <__rc10>
    6b9a: 91 14        	sta	($14),y                 ; 0x14 <__rc4>
    6b9c: c8           	iny
    6b9d: a5 19        	lda	$19                     ; 0x19 <__rc9>
    6b9f: 91 14        	sta	($14),y                 ; 0x14 <__rc4>
    6ba1: c8           	iny
    6ba2: a5 18        	lda	$18                     ; 0x18 <__rc8>
    6ba4: 91 14        	sta	($14),y                 ; 0x14 <__rc4>
    6ba6: a0 17        	ldy	#$17
    6ba8: a9 01        	lda	#$1
    6baa: 91 12        	sta	($12),y                 ; 0x12 <__rc2>
    6bac: 88           	dey
    6bad: 8a           	txa
    6bae: 4c 7b 6c     	jmp	$6c7b <readMIDICmd+0x599>
    6bb1: a4 19        	ldy	$19                     ; 0x19 <__rc9>
    6bb3: 84 15        	sty	$15                     ; 0x15 <__rc5>
    6bb5: a4 18        	ldy	$18                     ; 0x18 <__rc8>
    6bb7: 84 14        	sty	$14                     ; 0x14 <__rc4>
    6bb9: a4 27        	ldy	$27                     ; 0x27 <__rc23>
    6bbb: 84 1b        	sty	$1b                     ; 0x1b <__rc11>
    6bbd: a4 25        	ldy	$25                     ; 0x25 <__rc21>
    6bbf: 84 1a        	sty	$1a                     ; 0x1a <__rc10>
    6bc1: a4 28        	ldy	$28                     ; 0x28 <__rc24>
    6bc3: 84 19        	sty	$19                     ; 0x19 <__rc9>
    6bc5: 85 18        	sta	$18                     ; 0x18 <__rc8>
    6bc7: 8a           	txa
    6bc8: c9 ff        	cmp	#$ff
    6bca: f0 03        	beq	$6bcf <readMIDICmd+0x4ed>
    6bcc: 4c 66 6b     	jmp	$6b66 <readMIDICmd+0x484>
    6bcf: a0 10        	ldy	#$10
    6bd1: a9 ff        	lda	#$ff
    6bd3: 91 12        	sta	($12),y                 ; 0x12 <__rc2>
    6bd5: c8           	iny
    6bd6: a5 14        	lda	$14                     ; 0x14 <__rc4>
    6bd8: 91 12        	sta	($12),y                 ; 0x12 <__rc2>
    6bda: c8           	iny
    6bdb: a5 15        	lda	$15                     ; 0x15 <__rc5>
    6bdd: 91 12        	sta	($12),y                 ; 0x12 <__rc2>
    6bdf: a5 14        	lda	$14                     ; 0x14 <__rc4>
    6be1: c9 51        	cmp	#$51
    6be3: d0 4a        	bne	$6c2f <readMIDICmd+0x54d>
    6be5: a0 13        	ldy	#$13
    6be7: a5 1c        	lda	$1c                     ; 0x1c <__rc12>
    6be9: 91 12        	sta	($12),y                 ; 0x12 <__rc2>
    6beb: c8           	iny
    6bec: a5 22        	lda	$22                     ; 0x22 <__rc18>
    6bee: 91 12        	sta	($12),y                 ; 0x12 <__rc2>
    6bf0: c8           	iny
    6bf1: a5 23        	lda	$23                     ; 0x23 <__rc19>
    6bf3: 91 12        	sta	($12),y                 ; 0x12 <__rc2>
    6bf5: 18           	clc
    6bf6: a5 1b        	lda	$1b                     ; 0x1b <__rc11>
    6bf8: 69 05        	adc	#$5
    6bfa: a2 01        	ldx	#$1
    6bfc: b0 02        	bcs	$6c00 <readMIDICmd+0x51e>
    6bfe: a2 00        	ldx	#$0
    6c00: a0 04        	ldy	#$4
    6c02: 91 12        	sta	($12),y                 ; 0x12 <__rc2>
    6c04: 18           	clc
    6c05: a5 17        	lda	$17                     ; 0x17 <__rc7>
    6c07: 69 04        	adc	#$4
    6c09: 85 12        	sta	$12                     ; 0x12 <__rc2>
    6c0b: a5 16        	lda	$16                     ; 0x16 <__rc6>
    6c0d: 69 00        	adc	#$0
    6c0f: 85 13        	sta	$13                     ; 0x13 <__rc3>
    6c11: a5 1a        	lda	$1a                     ; 0x1a <__rc10>
    6c13: e0 01        	cpx	#$1
    6c15: 69 00        	adc	#$0
    6c17: a0 01        	ldy	#$1
    6c19: 91 12        	sta	($12),y                 ; 0x12 <__rc2>
    6c1b: a5 19        	lda	$19                     ; 0x19 <__rc9>
    6c1d: 69 00        	adc	#$0
    6c1f: c8           	iny
    6c20: 91 12        	sta	($12),y                 ; 0x12 <__rc2>
    6c22: a5 18        	lda	$18                     ; 0x18 <__rc8>
    6c24: 69 00        	adc	#$0
    6c26: c8           	iny
    6c27: 4c 7b 6c     	jmp	$6c7b <readMIDICmd+0x599>
    6c2a: aa           	tax
    6c2b: 10 50        	bpl	$6c7d <readMIDICmd+0x59b>
    6c2d: 80 10        	bra	$6c3f <readMIDICmd+0x55d>
    6c2f: a6 15        	ldx	$15                     ; 0x15 <__rc5>
    6c31: 86 12        	stx	$12                     ; 0x12 <__rc2>
    6c33: aa           	tax
    6c34: a5 24        	lda	$24                     ; 0x24 <__rc20>
    6c36: 20 a7 6c     	jsr	$6ca7 <skipWhenFFCmd>
    6c39: 80 42        	bra	$6c7d <readMIDICmd+0x59b>
    6c3b: c9 f0        	cmp	#$f0
    6c3d: b0 3e        	bcs	$6c7d <readMIDICmd+0x59b>
    6c3f: a0 16        	ldy	#$16
    6c41: 91 12        	sta	($12),y                 ; 0x12 <__rc2>
    6c43: 18           	clc
    6c44: a5 1b        	lda	$1b                     ; 0x1b <__rc11>
    6c46: 69 02        	adc	#$2
    6c48: a2 01        	ldx	#$1
    6c4a: b0 02        	bcs	$6c4e <readMIDICmd+0x56c>
    6c4c: a2 00        	ldx	#$0
    6c4e: a0 04        	ldy	#$4
    6c50: 91 12        	sta	($12),y                 ; 0x12 <__rc2>
    6c52: 18           	clc
    6c53: a5 17        	lda	$17                     ; 0x17 <__rc7>
    6c55: 69 04        	adc	#$4
    6c57: 85 14        	sta	$14                     ; 0x14 <__rc4>
    6c59: a5 16        	lda	$16                     ; 0x16 <__rc6>
    6c5b: 69 00        	adc	#$0
    6c5d: 85 15        	sta	$15                     ; 0x15 <__rc5>
    6c5f: a5 1a        	lda	$1a                     ; 0x1a <__rc10>
    6c61: e0 01        	cpx	#$1
    6c63: 69 00        	adc	#$0
    6c65: a0 01        	ldy	#$1
    6c67: 91 14        	sta	($14),y                 ; 0x14 <__rc4>
    6c69: a5 19        	lda	$19                     ; 0x19 <__rc9>
    6c6b: 69 00        	adc	#$0
    6c6d: c8           	iny
    6c6e: 91 14        	sta	($14),y                 ; 0x14 <__rc4>
    6c70: a5 18        	lda	$18                     ; 0x18 <__rc8>
    6c72: 69 00        	adc	#$0
    6c74: c8           	iny
    6c75: 91 14        	sta	($14),y                 ; 0x14 <__rc4>
    6c77: a9 00        	lda	#$0
    6c79: a0 17        	ldy	#$17
    6c7b: 91 12        	sta	($12),y                 ; 0x12 <__rc2>
    6c7d: a0 00        	ldy	#$0
    6c7f: b1 10        	lda	($10),y                 ; 0x10 <__rc0>
    6c81: 85 2a        	sta	$2a                     ; 0x2a <__rc26>
    6c83: c8           	iny
    6c84: b1 10        	lda	($10),y                 ; 0x10 <__rc0>
    6c86: 85 29        	sta	$29                     ; 0x29 <__rc25>
    6c88: c8           	iny
    6c89: b1 10        	lda	($10),y                 ; 0x10 <__rc0>
    6c8b: 85 28        	sta	$28                     ; 0x28 <__rc24>
    6c8d: fa           	plx
    6c8e: 86 27        	stx	$27                     ; 0x27 <__rc23>
    6c90: fa           	plx
    6c91: 86 26        	stx	$26                     ; 0x26 <__rc22>
    6c93: fa           	plx
    6c94: 86 25        	stx	$25                     ; 0x25 <__rc21>
    6c96: fa           	plx
    6c97: 86 24        	stx	$24                     ; 0x24 <__rc20>
    6c99: 18           	clc
    6c9a: a5 10        	lda	$10                     ; 0x10 <__rc0>
    6c9c: 69 03        	adc	#$3
    6c9e: 85 10        	sta	$10                     ; 0x10 <__rc0>
    6ca0: a5 11        	lda	$11                     ; 0x11 <__rc1>
    6ca2: 69 00        	adc	#$0
    6ca4: 85 11        	sta	$11                     ; 0x11 <__rc1>
    6ca6: 60           	rts

00006ca7 <skipWhenFFCmd>:
    6ca7: a8           	tay
    6ca8: 8a           	txa
    6ca9: a6 12        	ldx	$12                     ; 0x12 <__rc2>
    6cab: 86 8f        	stx	$8f                     ; 0x8f <__bss_size+0xa>
    6cad: c9 5a        	cmp	#$5a
    6caf: 90 03        	bcc	$6cb4 <skipWhenFFCmd+0xd>
    6cb1: 4c bc 6e     	jmp	$6ebc <skipWhenFFCmd+0x215>
    6cb4: 0a           	asl
    6cb5: aa           	tax
    6cb6: 7c 53 87     	jmp	($8753,x)               ; 0x8753 <__BLOCK_SIZE+0x6753>
    6cb9: a6 80        	ldx	$80                     ; 0x80 <theOne.8>
    6cbb: 86 91        	stx	$91                     ; 0x91 <__bss_size+0xc>
    6cbd: a6 81        	ldx	$81                     ; 0x81 <theOne.8+0x1>
    6cbf: 86 90        	stx	$90                     ; 0x90 <__bss_size+0xb>
    6cc1: a2 19        	ldx	#$19
    6cc3: 86 12        	stx	$12                     ; 0x12 <__rc2>
    6cc5: 64 13        	stz	$13                     ; 0x13 <__rc3>
    6cc7: a2 00        	ldx	#$0
    6cc9: 98           	tya
    6cca: 20 4f 86     	jsr	$864f <__mulhi3>
    6ccd: 85 12        	sta	$12                     ; 0x12 <__rc2>
    6ccf: 86 13        	stx	$13                     ; 0x13 <__rc3>
    6cd1: 18           	clc
    6cd2: a6 91        	ldx	$91                     ; 0x91 <__bss_size+0xc>
    6cd4: 8a           	txa
    6cd5: 65 12        	adc	$12                     ; 0x12 <__rc2>
    6cd7: a8           	tay
    6cd8: a5 90        	lda	$90                     ; 0x90 <__bss_size+0xb>
    6cda: 65 13        	adc	$13                     ; 0x13 <__rc3>
    6cdc: aa           	tax
    6cdd: 98           	tya
    6cde: 84 12        	sty	$12                     ; 0x12 <__rc2>
    6ce0: 86 13        	stx	$13                     ; 0x13 <__rc3>
    6ce2: 18           	clc
    6ce3: 69 04        	adc	#$4
    6ce5: 85 14        	sta	$14                     ; 0x14 <__rc4>
    6ce7: 8a           	txa
    6ce8: 69 00        	adc	#$0
    6cea: 85 15        	sta	$15                     ; 0x15 <__rc5>
    6cec: 18           	clc
    6ced: a6 8f        	ldx	$8f                     ; 0x8f <__bss_size+0xa>
    6cef: 8a           	txa
    6cf0: a0 04        	ldy	#$4
    6cf2: 71 12        	adc	($12),y                 ; 0x12 <__rc2>
    6cf4: 85 16        	sta	$16                     ; 0x16 <__rc6>
    6cf6: a2 04        	ldx	#$4
    6cf8: 86 17        	stx	$17                     ; 0x17 <__rc7>
    6cfa: a9 00        	lda	#$0
    6cfc: a0 01        	ldy	#$1
    6cfe: 71 14        	adc	($14),y                 ; 0x14 <__rc4>
    6d00: 85 19        	sta	$19                     ; 0x19 <__rc9>
    6d02: a2 01        	ldx	#$1
    6d04: 86 18        	stx	$18                     ; 0x18 <__rc8>
    6d06: c8           	iny
    6d07: a9 00        	lda	#$0
    6d09: 71 14        	adc	($14),y                 ; 0x14 <__rc4>
    6d0b: 85 1b        	sta	$1b                     ; 0x1b <__rc11>
    6d0d: e8           	inx
    6d0e: 86 1a        	stx	$1a                     ; 0x1a <__rc10>
    6d10: c8           	iny
    6d11: a9 00        	lda	#$0
    6d13: 71 14        	adc	($14),y                 ; 0x14 <__rc4>
    6d15: e8           	inx
    6d16: 86 1c        	stx	$1c                     ; 0x1c <__rc12>
    6d18: aa           	tax
    6d19: 18           	clc
    6d1a: a5 16        	lda	$16                     ; 0x16 <__rc6>
    6d1c: 69 02        	adc	#$2
    6d1e: a4 17        	ldy	$17                     ; 0x17 <__rc7>
    6d20: 91 12        	sta	($12),y                 ; 0x12 <__rc2>
    6d22: a5 19        	lda	$19                     ; 0x19 <__rc9>
    6d24: 69 00        	adc	#$0
    6d26: a4 18        	ldy	$18                     ; 0x18 <__rc8>
    6d28: 91 14        	sta	($14),y                 ; 0x14 <__rc4>
    6d2a: a5 1b        	lda	$1b                     ; 0x1b <__rc11>
    6d2c: 69 00        	adc	#$0
    6d2e: a4 1a        	ldy	$1a                     ; 0x1a <__rc10>
    6d30: 91 14        	sta	($14),y                 ; 0x14 <__rc4>
    6d32: 8a           	txa
    6d33: 69 00        	adc	#$0
    6d35: a4 1c        	ldy	$1c                     ; 0x1c <__rc12>
    6d37: 91 14        	sta	($14),y                 ; 0x14 <__rc4>
    6d39: 60           	rts
    6d3a: a6 80        	ldx	$80                     ; 0x80 <theOne.8>
    6d3c: 86 90        	stx	$90                     ; 0x90 <__bss_size+0xb>
    6d3e: a6 81        	ldx	$81                     ; 0x81 <theOne.8+0x1>
    6d40: 86 8f        	stx	$8f                     ; 0x8f <__bss_size+0xa>
    6d42: a2 19        	ldx	#$19
    6d44: 86 12        	stx	$12                     ; 0x12 <__rc2>
    6d46: 64 13        	stz	$13                     ; 0x13 <__rc3>
    6d48: a2 00        	ldx	#$0
    6d4a: 98           	tya
    6d4b: 20 4f 86     	jsr	$864f <__mulhi3>
    6d4e: 85 12        	sta	$12                     ; 0x12 <__rc2>
    6d50: 86 13        	stx	$13                     ; 0x13 <__rc3>
    6d52: 18           	clc
    6d53: a6 90        	ldx	$90                     ; 0x90 <__bss_size+0xb>
    6d55: 8a           	txa
    6d56: 65 12        	adc	$12                     ; 0x12 <__rc2>
    6d58: a8           	tay
    6d59: a5 8f        	lda	$8f                     ; 0x8f <__bss_size+0xa>
    6d5b: 65 13        	adc	$13                     ; 0x13 <__rc3>
    6d5d: aa           	tax
    6d5e: 98           	tya
    6d5f: 84 14        	sty	$14                     ; 0x14 <__rc4>
    6d61: 86 15        	stx	$15                     ; 0x15 <__rc5>
    6d63: 18           	clc
    6d64: 69 04        	adc	#$4
    6d66: 85 12        	sta	$12                     ; 0x12 <__rc2>
    6d68: 8a           	txa
    6d69: 69 00        	adc	#$0
    6d6b: a0 04        	ldy	#$4
    6d6d: 85 13        	sta	$13                     ; 0x13 <__rc3>
    6d6f: b1 14        	lda	($14),y                 ; 0x14 <__rc4>
    6d71: 18           	clc
    6d72: 69 03        	adc	#$3
    6d74: 4c a4 6e     	jmp	$6ea4 <skipWhenFFCmd+0x1fd>
    6d77: a6 80        	ldx	$80                     ; 0x80 <theOne.8>
    6d79: 86 90        	stx	$90                     ; 0x90 <__bss_size+0xb>
    6d7b: a6 81        	ldx	$81                     ; 0x81 <theOne.8+0x1>
    6d7d: 86 8f        	stx	$8f                     ; 0x8f <__bss_size+0xa>
    6d7f: a2 19        	ldx	#$19
    6d81: 86 12        	stx	$12                     ; 0x12 <__rc2>
    6d83: 64 13        	stz	$13                     ; 0x13 <__rc3>
    6d85: a2 00        	ldx	#$0
    6d87: 98           	tya
    6d88: 20 4f 86     	jsr	$864f <__mulhi3>
    6d8b: 85 12        	sta	$12                     ; 0x12 <__rc2>
    6d8d: 86 13        	stx	$13                     ; 0x13 <__rc3>
    6d8f: 18           	clc
    6d90: a6 90        	ldx	$90                     ; 0x90 <__bss_size+0xb>
    6d92: 8a           	txa
    6d93: 65 12        	adc	$12                     ; 0x12 <__rc2>
    6d95: a8           	tay
    6d96: a5 8f        	lda	$8f                     ; 0x8f <__bss_size+0xa>
    6d98: 65 13        	adc	$13                     ; 0x13 <__rc3>
    6d9a: aa           	tax
    6d9b: 98           	tya
    6d9c: 84 14        	sty	$14                     ; 0x14 <__rc4>
    6d9e: 86 15        	stx	$15                     ; 0x15 <__rc5>
    6da0: 18           	clc
    6da1: 69 04        	adc	#$4
    6da3: 85 12        	sta	$12                     ; 0x12 <__rc2>
    6da5: 8a           	txa
    6da6: 69 00        	adc	#$0
    6da8: a0 04        	ldy	#$4
    6daa: 85 13        	sta	$13                     ; 0x13 <__rc3>
    6dac: b1 14        	lda	($14),y                 ; 0x14 <__rc4>
    6dae: 18           	clc
    6daf: 69 07        	adc	#$7
    6db1: 4c a4 6e     	jmp	$6ea4 <skipWhenFFCmd+0x1fd>
    6db4: a6 80        	ldx	$80                     ; 0x80 <theOne.8>
    6db6: 86 90        	stx	$90                     ; 0x90 <__bss_size+0xb>
    6db8: a6 81        	ldx	$81                     ; 0x81 <theOne.8+0x1>
    6dba: 86 8f        	stx	$8f                     ; 0x8f <__bss_size+0xa>
    6dbc: a2 19        	ldx	#$19
    6dbe: 86 12        	stx	$12                     ; 0x12 <__rc2>
    6dc0: 64 13        	stz	$13                     ; 0x13 <__rc3>
    6dc2: a2 00        	ldx	#$0
    6dc4: 98           	tya
    6dc5: 20 4f 86     	jsr	$864f <__mulhi3>
    6dc8: 85 12        	sta	$12                     ; 0x12 <__rc2>
    6dca: 86 13        	stx	$13                     ; 0x13 <__rc3>
    6dcc: 18           	clc
    6dcd: a6 90        	ldx	$90                     ; 0x90 <__bss_size+0xb>
    6dcf: 8a           	txa
    6dd0: 65 12        	adc	$12                     ; 0x12 <__rc2>
    6dd2: a8           	tay
    6dd3: a5 8f        	lda	$8f                     ; 0x8f <__bss_size+0xa>
    6dd5: 65 13        	adc	$13                     ; 0x13 <__rc3>
    6dd7: aa           	tax
    6dd8: 98           	tya
    6dd9: 84 14        	sty	$14                     ; 0x14 <__rc4>
    6ddb: 86 15        	stx	$15                     ; 0x15 <__rc5>
    6ddd: 18           	clc
    6dde: 69 04        	adc	#$4
    6de0: 85 12        	sta	$12                     ; 0x12 <__rc2>
    6de2: 8a           	txa
    6de3: 69 00        	adc	#$0
    6de5: a0 04        	ldy	#$4
    6de7: 85 13        	sta	$13                     ; 0x13 <__rc3>
    6de9: b1 14        	lda	($14),y                 ; 0x14 <__rc4>
    6deb: 18           	clc
    6dec: 69 05        	adc	#$5
    6dee: 4c a4 6e     	jmp	$6ea4 <skipWhenFFCmd+0x1fd>
    6df1: a6 80        	ldx	$80                     ; 0x80 <theOne.8>
    6df3: 86 90        	stx	$90                     ; 0x90 <__bss_size+0xb>
    6df5: a6 81        	ldx	$81                     ; 0x81 <theOne.8+0x1>
    6df7: 86 8f        	stx	$8f                     ; 0x8f <__bss_size+0xa>
    6df9: a2 19        	ldx	#$19
    6dfb: 86 12        	stx	$12                     ; 0x12 <__rc2>
    6dfd: 64 13        	stz	$13                     ; 0x13 <__rc3>
    6dff: a2 00        	ldx	#$0
    6e01: 98           	tya
    6e02: 20 4f 86     	jsr	$864f <__mulhi3>
    6e05: 85 12        	sta	$12                     ; 0x12 <__rc2>
    6e07: 86 13        	stx	$13                     ; 0x13 <__rc3>
    6e09: 18           	clc
    6e0a: a6 90        	ldx	$90                     ; 0x90 <__bss_size+0xb>
    6e0c: 8a           	txa
    6e0d: 65 12        	adc	$12                     ; 0x12 <__rc2>
    6e0f: a8           	tay
    6e10: a5 8f        	lda	$8f                     ; 0x8f <__bss_size+0xa>
    6e12: 65 13        	adc	$13                     ; 0x13 <__rc3>
    6e14: aa           	tax
    6e15: 98           	tya
    6e16: 84 14        	sty	$14                     ; 0x14 <__rc4>
    6e18: 86 15        	stx	$15                     ; 0x15 <__rc5>
    6e1a: 18           	clc
    6e1b: 69 04        	adc	#$4
    6e1d: 85 12        	sta	$12                     ; 0x12 <__rc2>
    6e1f: 8a           	txa
    6e20: 69 00        	adc	#$0
    6e22: a0 04        	ldy	#$4
    6e24: 85 13        	sta	$13                     ; 0x13 <__rc3>
    6e26: b1 14        	lda	($14),y                 ; 0x14 <__rc4>
    6e28: 18           	clc
    6e29: 69 04        	adc	#$4
    6e2b: 4c a4 6e     	jmp	$6ea4 <skipWhenFFCmd+0x1fd>
    6e2e: a6 80        	ldx	$80                     ; 0x80 <theOne.8>
    6e30: 86 90        	stx	$90                     ; 0x90 <__bss_size+0xb>
    6e32: a6 81        	ldx	$81                     ; 0x81 <theOne.8+0x1>
    6e34: 86 8f        	stx	$8f                     ; 0x8f <__bss_size+0xa>
    6e36: a2 19        	ldx	#$19
    6e38: 86 12        	stx	$12                     ; 0x12 <__rc2>
    6e3a: 64 13        	stz	$13                     ; 0x13 <__rc3>
    6e3c: a2 00        	ldx	#$0
    6e3e: 98           	tya
    6e3f: 20 4f 86     	jsr	$864f <__mulhi3>
    6e42: 85 12        	sta	$12                     ; 0x12 <__rc2>
    6e44: 86 13        	stx	$13                     ; 0x13 <__rc3>
    6e46: 18           	clc
    6e47: a6 90        	ldx	$90                     ; 0x90 <__bss_size+0xb>
    6e49: 8a           	txa
    6e4a: 65 12        	adc	$12                     ; 0x12 <__rc2>
    6e4c: a8           	tay
    6e4d: a5 8f        	lda	$8f                     ; 0x8f <__bss_size+0xa>
    6e4f: 65 13        	adc	$13                     ; 0x13 <__rc3>
    6e51: aa           	tax
    6e52: 98           	tya
    6e53: 84 14        	sty	$14                     ; 0x14 <__rc4>
    6e55: 86 15        	stx	$15                     ; 0x15 <__rc5>
    6e57: 18           	clc
    6e58: 69 04        	adc	#$4
    6e5a: 85 12        	sta	$12                     ; 0x12 <__rc2>
    6e5c: 8a           	txa
    6e5d: 69 00        	adc	#$0
    6e5f: a0 04        	ldy	#$4
    6e61: 85 13        	sta	$13                     ; 0x13 <__rc3>
    6e63: b1 14        	lda	($14),y                 ; 0x14 <__rc4>
    6e65: 18           	clc
    6e66: 69 02        	adc	#$2
    6e68: 80 3a        	bra	$6ea4 <skipWhenFFCmd+0x1fd>
    6e6a: a6 80        	ldx	$80                     ; 0x80 <theOne.8>
    6e6c: 86 90        	stx	$90                     ; 0x90 <__bss_size+0xb>
    6e6e: a6 81        	ldx	$81                     ; 0x81 <theOne.8+0x1>
    6e70: 86 8f        	stx	$8f                     ; 0x8f <__bss_size+0xa>
    6e72: a2 19        	ldx	#$19
    6e74: 86 12        	stx	$12                     ; 0x12 <__rc2>
    6e76: 64 13        	stz	$13                     ; 0x13 <__rc3>
    6e78: a2 00        	ldx	#$0
    6e7a: 98           	tya
    6e7b: 20 4f 86     	jsr	$864f <__mulhi3>
    6e7e: 85 12        	sta	$12                     ; 0x12 <__rc2>
    6e80: 86 13        	stx	$13                     ; 0x13 <__rc3>
    6e82: 18           	clc
    6e83: a6 90        	ldx	$90                     ; 0x90 <__bss_size+0xb>
    6e85: 8a           	txa
    6e86: 65 12        	adc	$12                     ; 0x12 <__rc2>
    6e88: a8           	tay
    6e89: a5 8f        	lda	$8f                     ; 0x8f <__bss_size+0xa>
    6e8b: 65 13        	adc	$13                     ; 0x13 <__rc3>
    6e8d: aa           	tax
    6e8e: 98           	tya
    6e8f: 84 14        	sty	$14                     ; 0x14 <__rc4>
    6e91: 86 15        	stx	$15                     ; 0x15 <__rc5>
    6e93: 18           	clc
    6e94: 69 04        	adc	#$4
    6e96: 85 12        	sta	$12                     ; 0x12 <__rc2>
    6e98: 8a           	txa
    6e99: 69 00        	adc	#$0
    6e9b: a0 04        	ldy	#$4
    6e9d: 85 13        	sta	$13                     ; 0x13 <__rc3>
    6e9f: b1 14        	lda	($14),y                 ; 0x14 <__rc4>
    6ea1: 18           	clc
    6ea2: 69 06        	adc	#$6
    6ea4: 91 14        	sta	($14),y                 ; 0x14 <__rc4>
    6ea6: a0 01        	ldy	#$1
    6ea8: b1 12        	lda	($12),y                 ; 0x12 <__rc2>
    6eaa: 69 00        	adc	#$0
    6eac: 91 12        	sta	($12),y                 ; 0x12 <__rc2>
    6eae: c8           	iny
    6eaf: b1 12        	lda	($12),y                 ; 0x12 <__rc2>
    6eb1: 69 00        	adc	#$0
    6eb3: 91 12        	sta	($12),y                 ; 0x12 <__rc2>
    6eb5: c8           	iny
    6eb6: b1 12        	lda	($12),y                 ; 0x12 <__rc2>
    6eb8: 69 00        	adc	#$0
    6eba: 91 12        	sta	($12),y                 ; 0x12 <__rc2>
    6ebc: 60           	rts

00006ebd <resetTrack>:
    6ebd: a2 ff        	ldx	#$ff
    6ebf: 86 78        	stx	$78                     ; 0x78 <theOne.5>
    6ec1: 86 79        	stx	$79                     ; 0x79 <theOne.5+0x1>
    6ec3: 86 7a        	stx	$7a                     ; 0x7a <theOne.5+0x2>
    6ec5: 86 7b        	stx	$7b                     ; 0x7b <theOne.5+0x3>
    6ec7: 64 7c        	stz	$7c                     ; 0x7c <theOne.6>
    6ec9: 64 7d        	stz	$7d                     ; 0x7d <theOne.6+0x1>
    6ecb: 64 7e        	stz	$7e                     ; 0x7e <theOne.7>
    6ecd: 64 7f        	stz	$7f                     ; 0x7f <theOne.7+0x1>
    6ecf: a6 6f        	ldx	$6f                     ; 0x6f <theOne.0>
    6ed1: a5 70        	lda	$70                     ; 0x70 <theOne.0+0x1>
    6ed3: d0 07        	bne	$6edc <resetTrack+0x1f>
    6ed5: e0 00        	cpx	#$0
    6ed7: d0 03        	bne	$6edc <resetTrack+0x1f>
    6ed9: 4c 3a 73     	jmp	$733a <resetTrack+0x47d>
    6edc: 48           	pha
    6edd: 18           	clc
    6ede: a5 10        	lda	$10                     ; 0x10 <__rc0>
    6ee0: 69 f9        	adc	#$f9
    6ee2: 85 10        	sta	$10                     ; 0x10 <__rc0>
    6ee4: a5 11        	lda	$11                     ; 0x11 <__rc1>
    6ee6: 69 ff        	adc	#$ff
    6ee8: 85 11        	sta	$11                     ; 0x11 <__rc1>
    6eea: 68           	pla
    6eeb: a4 24        	ldy	$24                     ; 0x24 <__rc20>
    6eed: 5a           	phy
    6eee: a4 25        	ldy	$25                     ; 0x25 <__rc21>
    6ef0: 5a           	phy
    6ef1: a4 26        	ldy	$26                     ; 0x26 <__rc22>
    6ef3: 5a           	phy
    6ef4: a4 27        	ldy	$27                     ; 0x27 <__rc23>
    6ef6: 5a           	phy
    6ef7: 48           	pha
    6ef8: a5 28        	lda	$28                     ; 0x28 <__rc24>
    6efa: a0 02        	ldy	#$2
    6efc: 91 10        	sta	($10),y                 ; 0x10 <__rc0>
    6efe: a5 29        	lda	$29                     ; 0x29 <__rc25>
    6f00: 88           	dey
    6f01: 91 10        	sta	($10),y                 ; 0x10 <__rc0>
    6f03: a5 2a        	lda	$2a                     ; 0x2a <__rc26>
    6f05: 88           	dey
    6f06: 91 10        	sta	($10),y                 ; 0x10 <__rc0>
    6f08: 68           	pla
    6f09: a4 80        	ldy	$80                     ; 0x80 <theOne.8>
    6f0b: 84 24        	sty	$24                     ; 0x24 <__rc20>
    6f0d: a4 81        	ldy	$81                     ; 0x81 <theOne.8+0x1>
    6f0f: 84 25        	sty	$25                     ; 0x25 <__rc21>
    6f11: a0 17        	ldy	#$17
    6f13: 84 15        	sty	$15                     ; 0x15 <__rc5>
    6f15: 86 26        	stx	$26                     ; 0x26 <__rc22>
    6f17: 85 27        	sta	$27                     ; 0x27 <__rc23>
    6f19: 80 06        	bra	$6f21 <resetTrack+0x64>
    6f1b: 85 25        	sta	$25                     ; 0x25 <__rc21>
    6f1d: a5 27        	lda	$27                     ; 0x27 <__rc23>
    6f1f: f0 3b        	beq	$6f5c <resetTrack+0x9f>
    6f21: a6 24        	ldx	$24                     ; 0x24 <__rc20>
    6f23: 86 12        	stx	$12                     ; 0x12 <__rc2>
    6f25: a6 25        	ldx	$25                     ; 0x25 <__rc21>
    6f27: 86 13        	stx	$13                     ; 0x13 <__rc3>
    6f29: 64 14        	stz	$14                     ; 0x14 <__rc4>
    6f2b: a9 00        	lda	#$0
    6f2d: a6 15        	ldx	$15                     ; 0x15 <__rc5>
    6f2f: a4 15        	ldy	$15                     ; 0x15 <__rc5>
    6f31: 84 28        	sty	$28                     ; 0x28 <__rc24>
    6f33: 20 d0 84     	jsr	$84d0 <__memset>
    6f36: a2 17        	ldx	#$17
    6f38: 86 15        	stx	$15                     ; 0x15 <__rc5>
    6f3a: a9 01        	lda	#$1
    6f3c: a4 28        	ldy	$28                     ; 0x28 <__rc24>
    6f3e: 91 24        	sta	($24),y                 ; 0x24 <__rc20>
    6f40: a0 18        	ldy	#$18
    6f42: 3a           	dec
    6f43: 91 24        	sta	($24),y                 ; 0x24 <__rc20>
    6f45: a5 24        	lda	$24                     ; 0x24 <__rc20>
    6f47: 18           	clc
    6f48: 69 19        	adc	#$19
    6f4a: 85 24        	sta	$24                     ; 0x24 <__rc20>
    6f4c: a5 25        	lda	$25                     ; 0x25 <__rc21>
    6f4e: 69 00        	adc	#$0
    6f50: a2 ff        	ldx	#$ff
    6f52: c6 26        	dec	$26                     ; 0x26 <__rc22>
    6f54: e4 26        	cpx	$26                     ; 0x26 <__rc22>
    6f56: d0 c3        	bne	$6f1b <resetTrack+0x5e>
    6f58: c6 27        	dec	$27                     ; 0x27 <__rc23>
    6f5a: 80 bf        	bra	$6f1b <resetTrack+0x5e>
    6f5c: a5 26        	lda	$26                     ; 0x26 <__rc22>
    6f5e: d0 c1        	bne	$6f21 <resetTrack+0x64>
    6f60: a2 0e        	ldx	#$e
    6f62: 86 16        	stx	$16                     ; 0x16 <__rc6>
    6f64: a2 08        	ldx	#$8
    6f66: 86 18        	stx	$18                     ; 0x18 <__rc8>
    6f68: 64 19        	stz	$19                     ; 0x19 <__rc9>
    6f6a: 64 15        	stz	$15                     ; 0x15 <__rc5>
    6f6c: 64 14        	stz	$14                     ; 0x14 <__rc4>
    6f6e: a9 00        	lda	#$0
    6f70: aa           	tax
    6f71: 64 27        	stz	$27                     ; 0x27 <__rc23>
    6f73: 85 12        	sta	$12                     ; 0x12 <__rc2>
    6f75: a4 14        	ldy	$14                     ; 0x14 <__rc4>
    6f77: 84 13        	sty	$13                     ; 0x13 <__rc3>
    6f79: a4 15        	ldy	$15                     ; 0x15 <__rc5>
    6f7b: 84 14        	sty	$14                     ; 0x14 <__rc4>
    6f7d: a4 16        	ldy	$16                     ; 0x16 <__rc6>
    6f7f: 84 15        	sty	$15                     ; 0x15 <__rc5>
    6f81: 18           	clc
    6f82: a5 16        	lda	$16                     ; 0x16 <__rc6>
    6f84: 69 04        	adc	#$4
    6f86: 85 17        	sta	$17                     ; 0x17 <__rc7>
    6f88: a5 14        	lda	$14                     ; 0x14 <__rc4>
    6f8a: 69 00        	adc	#$0
    6f8c: 85 1b        	sta	$1b                     ; 0x1b <__rc11>
    6f8e: a5 13        	lda	$13                     ; 0x13 <__rc3>
    6f90: 69 05        	adc	#$5
    6f92: a4 1b        	ldy	$1b                     ; 0x1b <__rc11>
    6f94: 84 16        	sty	$16                     ; 0x16 <__rc6>
    6f96: 06 16        	asl	$16                     ; 0x16 <__rc6>
    6f98: 2a           	rol
    6f99: 06 16        	asl	$16                     ; 0x16 <__rc6>
    6f9b: 2a           	rol
    6f9c: 06 16        	asl	$16                     ; 0x16 <__rc6>
    6f9e: 2a           	rol
    6f9f: 86 1a        	stx	$1a                     ; 0x1a <__rc10>
    6fa1: a6 0f        	ldx	$f                      ; 0xf <__data_size+0xf>
    6fa3: 78           	sei
    6fa4: 85 0f        	sta	$f                      ; 0xf <__data_size+0xf>
    6fa6: a5 1b        	lda	$1b                     ; 0x1b <__rc11>
    6fa8: 09 e0        	ora	#$e0
    6faa: a4 17        	ldy	$17                     ; 0x17 <__rc7>
    6fac: 84 16        	sty	$16                     ; 0x16 <__rc6>
    6fae: 85 17        	sta	$17                     ; 0x17 <__rc7>
    6fb0: b2 16        	lda	($16)                   ; 0x16 <__rc6>
    6fb2: 85 1c        	sta	$1c                     ; 0x1c <__rc12>
    6fb4: 86 0f        	stx	$f                      ; 0xf <__data_size+0xf>
    6fb6: 18           	clc
    6fb7: a5 15        	lda	$15                     ; 0x15 <__rc5>
    6fb9: 69 05        	adc	#$5
    6fbb: 85 17        	sta	$17                     ; 0x17 <__rc7>
    6fbd: a5 14        	lda	$14                     ; 0x14 <__rc4>
    6fbf: 69 00        	adc	#$0
    6fc1: 85 1b        	sta	$1b                     ; 0x1b <__rc11>
    6fc3: a5 13        	lda	$13                     ; 0x13 <__rc3>
    6fc5: 69 05        	adc	#$5
    6fc7: a6 1b        	ldx	$1b                     ; 0x1b <__rc11>
    6fc9: 86 16        	stx	$16                     ; 0x16 <__rc6>
    6fcb: 06 16        	asl	$16                     ; 0x16 <__rc6>
    6fcd: 2a           	rol
    6fce: 06 16        	asl	$16                     ; 0x16 <__rc6>
    6fd0: 2a           	rol
    6fd1: 06 16        	asl	$16                     ; 0x16 <__rc6>
    6fd3: 2a           	rol
    6fd4: 58           	cli
    6fd5: a6 0f        	ldx	$f                      ; 0xf <__data_size+0xf>
    6fd7: 78           	sei
    6fd8: 85 0f        	sta	$f                      ; 0xf <__data_size+0xf>
    6fda: a5 1b        	lda	$1b                     ; 0x1b <__rc11>
    6fdc: 09 e0        	ora	#$e0
    6fde: a4 17        	ldy	$17                     ; 0x17 <__rc7>
    6fe0: 84 16        	sty	$16                     ; 0x16 <__rc6>
    6fe2: 85 17        	sta	$17                     ; 0x17 <__rc7>
    6fe4: b2 16        	lda	($16)                   ; 0x16 <__rc6>
    6fe6: 85 1d        	sta	$1d                     ; 0x1d <__rc13>
    6fe8: 86 0f        	stx	$f                      ; 0xf <__data_size+0xf>
    6fea: 18           	clc
    6feb: a5 15        	lda	$15                     ; 0x15 <__rc5>
    6fed: 69 06        	adc	#$6
    6fef: 85 17        	sta	$17                     ; 0x17 <__rc7>
    6ff1: a5 14        	lda	$14                     ; 0x14 <__rc4>
    6ff3: 69 00        	adc	#$0
    6ff5: 85 1b        	sta	$1b                     ; 0x1b <__rc11>
    6ff7: a5 13        	lda	$13                     ; 0x13 <__rc3>
    6ff9: 69 05        	adc	#$5
    6ffb: a6 1b        	ldx	$1b                     ; 0x1b <__rc11>
    6ffd: 86 16        	stx	$16                     ; 0x16 <__rc6>
    6fff: 06 16        	asl	$16                     ; 0x16 <__rc6>
    7001: 2a           	rol
    7002: 06 16        	asl	$16                     ; 0x16 <__rc6>
    7004: 2a           	rol
    7005: 06 16        	asl	$16                     ; 0x16 <__rc6>
    7007: 2a           	rol
    7008: 58           	cli
    7009: a6 0f        	ldx	$f                      ; 0xf <__data_size+0xf>
    700b: 78           	sei
    700c: 85 0f        	sta	$f                      ; 0xf <__data_size+0xf>
    700e: a4 17        	ldy	$17                     ; 0x17 <__rc7>
    7010: 84 16        	sty	$16                     ; 0x16 <__rc6>
    7012: a5 1b        	lda	$1b                     ; 0x1b <__rc11>
    7014: 09 e0        	ora	#$e0
    7016: 85 17        	sta	$17                     ; 0x17 <__rc7>
    7018: b2 16        	lda	($16)                   ; 0x16 <__rc6>
    701a: 85 22        	sta	$22                     ; 0x22 <__rc18>
    701c: 86 0f        	stx	$f                      ; 0xf <__data_size+0xf>
    701e: 18           	clc
    701f: a5 15        	lda	$15                     ; 0x15 <__rc5>
    7021: 69 07        	adc	#$7
    7023: 85 17        	sta	$17                     ; 0x17 <__rc7>
    7025: a5 14        	lda	$14                     ; 0x14 <__rc4>
    7027: 69 00        	adc	#$0
    7029: 85 1b        	sta	$1b                     ; 0x1b <__rc11>
    702b: a5 13        	lda	$13                     ; 0x13 <__rc3>
    702d: 69 05        	adc	#$5
    702f: a6 1b        	ldx	$1b                     ; 0x1b <__rc11>
    7031: 86 16        	stx	$16                     ; 0x16 <__rc6>
    7033: 06 16        	asl	$16                     ; 0x16 <__rc6>
    7035: 2a           	rol
    7036: 06 16        	asl	$16                     ; 0x16 <__rc6>
    7038: 2a           	rol
    7039: 06 16        	asl	$16                     ; 0x16 <__rc6>
    703b: 2a           	rol
    703c: 58           	cli
    703d: a6 0f        	ldx	$f                      ; 0xf <__data_size+0xf>
    703f: 78           	sei
    7040: 85 0f        	sta	$f                      ; 0xf <__data_size+0xf>
    7042: a4 17        	ldy	$17                     ; 0x17 <__rc7>
    7044: 84 16        	sty	$16                     ; 0x16 <__rc6>
    7046: a5 1b        	lda	$1b                     ; 0x1b <__rc11>
    7048: 09 e0        	ora	#$e0
    704a: 85 17        	sta	$17                     ; 0x17 <__rc7>
    704c: b2 16        	lda	($16)                   ; 0x16 <__rc6>
    704e: 85 25        	sta	$25                     ; 0x25 <__rc21>
    7050: 86 0f        	stx	$f                      ; 0xf <__data_size+0xf>
    7052: 58           	cli
    7053: a6 80        	ldx	$80                     ; 0x80 <theOne.8>
    7055: 86 1e        	stx	$1e                     ; 0x1e <__rc14>
    7057: a6 81        	ldx	$81                     ; 0x81 <theOne.8+0x1>
    7059: 86 1f        	stx	$1f                     ; 0x1f <__rc15>
    705b: 18           	clc
    705c: a6 18        	ldx	$18                     ; 0x18 <__rc8>
    705e: 86 24        	stx	$24                     ; 0x24 <__rc20>
    7060: a5 18        	lda	$18                     ; 0x18 <__rc8>
    7062: 65 80        	adc	$80                     ; 0x80 <theOne.8>
    7064: aa           	tax
    7065: a4 19        	ldy	$19                     ; 0x19 <__rc9>
    7067: 84 23        	sty	$23                     ; 0x23 <__rc19>
    7069: a5 19        	lda	$19                     ; 0x19 <__rc9>
    706b: 65 81        	adc	$81                     ; 0x81 <theOne.8+0x1>
    706d: 86 16        	stx	$16                     ; 0x16 <__rc6>
    706f: 85 17        	sta	$17                     ; 0x17 <__rc7>
    7071: 85 19        	sta	$19                     ; 0x19 <__rc9>
    7073: 18           	clc
    7074: 8a           	txa
    7075: 69 f8        	adc	#$f8
    7077: 85 18        	sta	$18                     ; 0x18 <__rc8>
    7079: a5 19        	lda	$19                     ; 0x19 <__rc9>
    707b: 69 ff        	adc	#$ff
    707d: 85 19        	sta	$19                     ; 0x19 <__rc9>
    707f: 18           	clc
    7080: a5 15        	lda	$15                     ; 0x15 <__rc5>
    7082: 69 08        	adc	#$8
    7084: aa           	tax
    7085: a5 14        	lda	$14                     ; 0x14 <__rc4>
    7087: 69 00        	adc	#$0
    7089: 85 1b        	sta	$1b                     ; 0x1b <__rc11>
    708b: a5 13        	lda	$13                     ; 0x13 <__rc3>
    708d: 69 05        	adc	#$5
    708f: 85 26        	sta	$26                     ; 0x26 <__rc22>
    7091: a5 12        	lda	$12                     ; 0x12 <__rc2>
    7093: 69 00        	adc	#$0
    7095: 85 29        	sta	$29                     ; 0x29 <__rc25>
    7097: 8a           	txa
    7098: 92 16        	sta	($16)                   ; 0x16 <__rc6>
    709a: a0 01        	ldy	#$1
    709c: a5 1b        	lda	$1b                     ; 0x1b <__rc11>
    709e: 91 16        	sta	($16),y                 ; 0x16 <__rc6>
    70a0: 84 28        	sty	$28                     ; 0x28 <__rc24>
    70a2: c8           	iny
    70a3: a5 26        	lda	$26                     ; 0x26 <__rc22>
    70a5: 91 16        	sta	($16),y                 ; 0x16 <__rc6>
    70a7: 84 26        	sty	$26                     ; 0x26 <__rc22>
    70a9: c8           	iny
    70aa: a5 29        	lda	$29                     ; 0x29 <__rc25>
    70ac: 91 16        	sta	($16),y                 ; 0x16 <__rc6>
    70ae: 84 16        	sty	$16                     ; 0x16 <__rc6>
    70b0: a5 25        	lda	$25                     ; 0x25 <__rc21>
    70b2: 92 18        	sta	($18)                   ; 0x18 <__rc8>
    70b4: a5 22        	lda	$22                     ; 0x22 <__rc18>
    70b6: a4 28        	ldy	$28                     ; 0x28 <__rc24>
    70b8: 91 18        	sta	($18),y                 ; 0x18 <__rc8>
    70ba: a5 1d        	lda	$1d                     ; 0x1d <__rc13>
    70bc: a4 26        	ldy	$26                     ; 0x26 <__rc22>
    70be: 91 18        	sta	($18),y                 ; 0x18 <__rc8>
    70c0: a5 1c        	lda	$1c                     ; 0x1c <__rc12>
    70c2: a4 16        	ldy	$16                     ; 0x16 <__rc6>
    70c4: 91 18        	sta	($18),y                 ; 0x18 <__rc8>
    70c6: 85 16        	sta	$16                     ; 0x16 <__rc6>
    70c8: 18           	clc
    70c9: a5 25        	lda	$25                     ; 0x25 <__rc21>
    70cb: 65 15        	adc	$15                     ; 0x15 <__rc5>
    70cd: 85 15        	sta	$15                     ; 0x15 <__rc5>
    70cf: a5 22        	lda	$22                     ; 0x22 <__rc18>
    70d1: 65 14        	adc	$14                     ; 0x14 <__rc4>
    70d3: a8           	tay
    70d4: a5 1d        	lda	$1d                     ; 0x1d <__rc13>
    70d6: 65 13        	adc	$13                     ; 0x13 <__rc3>
    70d8: aa           	tax
    70d9: a5 16        	lda	$16                     ; 0x16 <__rc6>
    70db: 65 12        	adc	$12                     ; 0x12 <__rc2>
    70dd: 85 12        	sta	$12                     ; 0x12 <__rc2>
    70df: 18           	clc
    70e0: a5 15        	lda	$15                     ; 0x15 <__rc5>
    70e2: 69 08        	adc	#$8
    70e4: 85 16        	sta	$16                     ; 0x16 <__rc6>
    70e6: 98           	tya
    70e7: 69 00        	adc	#$0
    70e9: 85 15        	sta	$15                     ; 0x15 <__rc5>
    70eb: 8a           	txa
    70ec: 69 00        	adc	#$0
    70ee: 85 14        	sta	$14                     ; 0x14 <__rc4>
    70f0: a5 12        	lda	$12                     ; 0x12 <__rc2>
    70f2: 69 00        	adc	#$0
    70f4: 85 13        	sta	$13                     ; 0x13 <__rc3>
    70f6: a4 27        	ldy	$27                     ; 0x27 <__rc23>
    70f8: a6 1a        	ldx	$1a                     ; 0x1a <__rc10>
    70fa: e8           	inx
    70fb: d0 01        	bne	$70fe <resetTrack+0x241>
    70fd: c8           	iny
    70fe: a5 6f        	lda	$6f                     ; 0x6f <theOne.0>
    7100: 85 12        	sta	$12                     ; 0x12 <__rc2>
    7102: 18           	clc
    7103: a5 24        	lda	$24                     ; 0x24 <__rc20>
    7105: 69 19        	adc	#$19
    7107: 85 18        	sta	$18                     ; 0x18 <__rc8>
    7109: a5 23        	lda	$23                     ; 0x23 <__rc19>
    710b: 69 00        	adc	#$0
    710d: 85 19        	sta	$19                     ; 0x19 <__rc9>
    710f: 84 27        	sty	$27                     ; 0x27 <__rc23>
    7111: c4 70        	cpy	$70                     ; 0x70 <theOne.0+0x1>
    7113: d0 09        	bne	$711e <resetTrack+0x261>
    7115: e4 12        	cpx	$12                     ; 0x12 <__rc2>
    7117: a5 13        	lda	$13                     ; 0x13 <__rc3>
    7119: b0 0c        	bcs	$7127 <resetTrack+0x26a>
    711b: 4c 73 6f     	jmp	$6f73 <resetTrack+0xb6>
    711e: c4 70        	cpy	$70                     ; 0x70 <theOne.0+0x1>
    7120: a5 13        	lda	$13                     ; 0x13 <__rc3>
    7122: b0 03        	bcs	$7127 <resetTrack+0x26a>
    7124: 4c 73 6f     	jmp	$6f73 <resetTrack+0xb6>
    7127: a6 70        	ldx	$70                     ; 0x70 <theOne.0+0x1>
    7129: d0 07        	bne	$7132 <resetTrack+0x275>
    712b: a5 12        	lda	$12                     ; 0x12 <__rc2>
    712d: d0 03        	bne	$7132 <resetTrack+0x275>
    712f: 4c 11 73     	jmp	$7311 <resetTrack+0x454>
    7132: a6 1e        	ldx	$1e                     ; 0x1e <__rc14>
    7134: 86 12        	stx	$12                     ; 0x12 <__rc2>
    7136: a6 1f        	ldx	$1f                     ; 0x1f <__rc15>
    7138: 86 13        	stx	$13                     ; 0x13 <__rc3>
    713a: a2 19        	ldx	#$19
    713c: 86 2a        	stx	$2a                     ; 0x2a <__rc26>
    713e: 64 15        	stz	$15                     ; 0x15 <__rc5>
    7140: 64 27        	stz	$27                     ; 0x27 <__rc23>
    7142: a0 00        	ldy	#$0
    7144: 98           	tya
    7145: 85 29        	sta	$29                     ; 0x29 <__rc25>
    7147: 84 28        	sty	$28                     ; 0x28 <__rc24>
    7149: a5 15        	lda	$15                     ; 0x15 <__rc5>
    714b: 18           	clc
    714c: a2 01        	ldx	#$1
    714e: b0 02        	bcs	$7152 <resetTrack+0x295>
    7150: a2 00        	ldx	#$0
    7152: 86 17        	stx	$17                     ; 0x17 <__rc7>
    7154: 65 12        	adc	$12                     ; 0x12 <__rc2>
    7156: 85 14        	sta	$14                     ; 0x14 <__rc4>
    7158: a6 15        	ldx	$15                     ; 0x15 <__rc5>
    715a: a5 27        	lda	$27                     ; 0x27 <__rc23>
    715c: 65 13        	adc	$13                     ; 0x13 <__rc3>
    715e: 85 15        	sta	$15                     ; 0x15 <__rc5>
    7160: a0 18        	ldy	#$18
    7162: b1 14        	lda	($14),y                 ; 0x14 <__rc4>
    7164: f0 07        	beq	$716d <resetTrack+0x2b0>
    7166: 86 26        	stx	$26                     ; 0x26 <__rc22>
    7168: a4 28        	ldy	$28                     ; 0x28 <__rc24>
    716a: 4c 41 72     	jmp	$7241 <resetTrack+0x384>
    716d: 86 26        	stx	$26                     ; 0x26 <__rc22>
    716f: 8a           	txa
    7170: a6 17        	ldx	$17                     ; 0x17 <__rc7>
    7172: e0 01        	cpx	#$1
    7174: 65 12        	adc	$12                     ; 0x12 <__rc2>
    7176: 85 17        	sta	$17                     ; 0x17 <__rc7>
    7178: a5 27        	lda	$27                     ; 0x27 <__rc23>
    717a: 65 13        	adc	$13                     ; 0x13 <__rc3>
    717c: a8           	tay
    717d: 18           	clc
    717e: a6 17        	ldx	$17                     ; 0x17 <__rc7>
    7180: a5 17        	lda	$17                     ; 0x17 <__rc7>
    7182: 69 04        	adc	#$4
    7184: 85 16        	sta	$16                     ; 0x16 <__rc6>
    7186: 98           	tya
    7187: 84 19        	sty	$19                     ; 0x19 <__rc9>
    7189: 69 00        	adc	#$0
    718b: 85 17        	sta	$17                     ; 0x17 <__rc7>
    718d: a0 03        	ldy	#$3
    718f: b1 16        	lda	($16),y                 ; 0x16 <__rc6>
    7191: d1 14        	cmp	($14),y                 ; 0x14 <__rc4>
    7193: d0 29        	bne	$71be <resetTrack+0x301>
    7195: a0 02        	ldy	#$2
    7197: b1 16        	lda	($16),y                 ; 0x16 <__rc6>
    7199: 85 1a        	sta	$1a                     ; 0x1a <__rc10>
    719b: b1 14        	lda	($14),y                 ; 0x14 <__rc4>
    719d: 85 18        	sta	$18                     ; 0x18 <__rc8>
    719f: a4 1a        	ldy	$1a                     ; 0x1a <__rc10>
    71a1: c4 18        	cpy	$18                     ; 0x18 <__rc8>
    71a3: f0 03        	beq	$71a8 <resetTrack+0x2eb>
    71a5: 4c 2e 72     	jmp	$722e <resetTrack+0x371>
    71a8: a0 01        	ldy	#$1
    71aa: b1 16        	lda	($16),y                 ; 0x16 <__rc6>
    71ac: 85 17        	sta	$17                     ; 0x17 <__rc7>
    71ae: b1 14        	lda	($14),y                 ; 0x14 <__rc4>
    71b0: 85 16        	sta	$16                     ; 0x16 <__rc6>
    71b2: a4 17        	ldy	$17                     ; 0x17 <__rc7>
    71b4: c4 16        	cpy	$16                     ; 0x16 <__rc6>
    71b6: f0 03        	beq	$71bb <resetTrack+0x2fe>
    71b8: 4c 59 73     	jmp	$7359 <resetTrack+0x49c>
    71bb: 4c 3b 73     	jmp	$733b <resetTrack+0x47e>
    71be: d1 14        	cmp	($14),y                 ; 0x14 <__rc4>
    71c0: a4 28        	ldy	$28                     ; 0x28 <__rc24>
    71c2: 90 03        	bcc	$71c7 <resetTrack+0x30a>
    71c4: 4c 37 72     	jmp	$7237 <resetTrack+0x37a>
    71c7: 64 5c        	stz	$5c                     ; 0x5c <_col>
    71c9: 9c 14 d0     	stz	$d014                   ; 0xd014 <__heap_start+0x4518>
    71cc: 9c 15 d0     	stz	$d015                   ; 0xd015 <__heap_start+0x4519>
    71cf: 98           	tya
    71d0: 18           	clc
    71d1: 69 0f        	adc	#$f
    71d3: 85 5d        	sta	$5d                     ; 0x5d <_row>
    71d5: 8d 16 d0     	sta	$d016                   ; 0xd016 <__heap_start+0x451a>
    71d8: 9c 17 d0     	stz	$d017                   ; 0xd017 <__heap_start+0x451b>
    71db: a6 80        	ldx	$80                     ; 0x80 <theOne.8>
    71dd: 86 25        	stx	$25                     ; 0x25 <__rc21>
    71df: a6 81        	ldx	$81                     ; 0x81 <theOne.8+0x1>
    71e1: 86 24        	stx	$24                     ; 0x24 <__rc20>
    71e3: a6 2a        	ldx	$2a                     ; 0x2a <__rc26>
    71e5: 86 12        	stx	$12                     ; 0x12 <__rc2>
    71e7: 64 13        	stz	$13                     ; 0x13 <__rc3>
    71e9: a2 00        	ldx	#$0
    71eb: 98           	tya
    71ec: 20 4f 86     	jsr	$864f <__mulhi3>
    71ef: 85 12        	sta	$12                     ; 0x12 <__rc2>
    71f1: 86 13        	stx	$13                     ; 0x13 <__rc3>
    71f3: a6 25        	ldx	$25                     ; 0x25 <__rc21>
    71f5: 86 17        	stx	$17                     ; 0x17 <__rc7>
    71f7: a5 25        	lda	$25                     ; 0x25 <__rc21>
    71f9: 18           	clc
    71fa: 65 12        	adc	$12                     ; 0x12 <__rc2>
    71fc: aa           	tax
    71fd: a5 24        	lda	$24                     ; 0x24 <__rc20>
    71ff: 85 18        	sta	$18                     ; 0x18 <__rc8>
    7201: 65 13        	adc	$13                     ; 0x13 <__rc3>
    7203: 86 14        	stx	$14                     ; 0x14 <__rc4>
    7205: 85 15        	sta	$15                     ; 0x15 <__rc5>
    7207: a8           	tay
    7208: 18           	clc
    7209: 8a           	txa
    720a: 69 04        	adc	#$4
    720c: 85 12        	sta	$12                     ; 0x12 <__rc2>
    720e: 98           	tya
    720f: 69 00        	adc	#$0
    7211: 85 13        	sta	$13                     ; 0x13 <__rc3>
    7213: a0 03        	ldy	#$3
    7215: b1 12        	lda	($12),y                 ; 0x12 <__rc2>
    7217: d1 14        	cmp	($14),y                 ; 0x14 <__rc4>
    7219: d0 56        	bne	$7271 <resetTrack+0x3b4>
    721b: a0 02        	ldy	#$2
    721d: b1 12        	lda	($12),y                 ; 0x12 <__rc2>
    721f: aa           	tax
    7220: b1 14        	lda	($14),y                 ; 0x14 <__rc4>
    7222: 85 16        	sta	$16                     ; 0x16 <__rc6>
    7224: e4 16        	cpx	$16                     ; 0x16 <__rc6>
    7226: f0 03        	beq	$722b <resetTrack+0x36e>
    7228: 4c 83 73     	jmp	$7383 <resetTrack+0x4c6>
    722b: 4c 65 73     	jmp	$7365 <resetTrack+0x4a8>
    722e: c4 18        	cpy	$18                     ; 0x18 <__rc8>
    7230: a4 28        	ldy	$28                     ; 0x28 <__rc24>
    7232: b0 03        	bcs	$7237 <resetTrack+0x37a>
    7234: 4c c7 71     	jmp	$71c7 <resetTrack+0x30a>
    7237: 84 16        	sty	$16                     ; 0x16 <__rc6>
    7239: a9 01        	lda	#$1
    723b: a0 18        	ldy	#$18
    723d: 91 14        	sta	($14),y                 ; 0x14 <__rc4>
    723f: a4 16        	ldy	$16                     ; 0x16 <__rc6>
    7241: a6 29        	ldx	$29                     ; 0x29 <__rc25>
    7243: c8           	iny
    7244: d0 01        	bne	$7247 <resetTrack+0x38a>
    7246: e8           	inx
    7247: 18           	clc
    7248: a5 26        	lda	$26                     ; 0x26 <__rc22>
    724a: 69 19        	adc	#$19
    724c: 85 15        	sta	$15                     ; 0x15 <__rc5>
    724e: a5 27        	lda	$27                     ; 0x27 <__rc23>
    7250: 69 00        	adc	#$0
    7252: 85 27        	sta	$27                     ; 0x27 <__rc23>
    7254: 8a           	txa
    7255: e4 70        	cpx	$70                     ; 0x70 <theOne.0+0x1>
    7257: d0 0e        	bne	$7267 <resetTrack+0x3aa>
    7259: a6 6f        	ldx	$6f                     ; 0x6f <theOne.0>
    725b: 86 14        	stx	$14                     ; 0x14 <__rc4>
    725d: c4 14        	cpy	$14                     ; 0x14 <__rc4>
    725f: b0 03        	bcs	$7264 <resetTrack+0x3a7>
    7261: 4c 45 71     	jmp	$7145 <resetTrack+0x288>
    7264: 4c 11 73     	jmp	$7311 <resetTrack+0x454>
    7267: c5 70        	cmp	$70                     ; 0x70 <theOne.0+0x1>
    7269: b0 03        	bcs	$726e <resetTrack+0x3b1>
    726b: 4c 45 71     	jmp	$7145 <resetTrack+0x288>
    726e: 4c 11 73     	jmp	$7311 <resetTrack+0x454>
    7271: d1 14        	cmp	($14),y                 ; 0x14 <__rc4>
    7273: a6 28        	ldx	$28                     ; 0x28 <__rc24>
    7275: 90 19        	bcc	$7290 <resetTrack+0x3d3>
    7277: a4 17        	ldy	$17                     ; 0x17 <__rc7>
    7279: 84 12        	sty	$12                     ; 0x12 <__rc2>
    727b: a4 18        	ldy	$18                     ; 0x18 <__rc8>
    727d: 84 13        	sty	$13                     ; 0x13 <__rc3>
    727f: a9 01        	lda	#$1
    7281: 86 16        	stx	$16                     ; 0x16 <__rc6>
    7283: a0 18        	ldy	#$18
    7285: 91 14        	sta	($14),y                 ; 0x14 <__rc4>
    7287: a4 16        	ldy	$16                     ; 0x16 <__rc6>
    7289: e6 7e        	inc	$7e                     ; 0x7e <theOne.7>
    728b: d0 b4        	bne	$7241 <resetTrack+0x384>
    728d: 4c 88 73     	jmp	$7388 <resetTrack+0x4cb>
    7290: 8a           	txa
    7291: 20 21 62     	jsr	$6221 <readDelta>
    7294: a0 03        	ldy	#$3
    7296: 91 10        	sta	($10),y                 ; 0x10 <__rc0>
    7298: 8a           	txa
    7299: a0 06        	ldy	#$6
    729b: 91 10        	sta	($10),y                 ; 0x10 <__rc0>
    729d: a5 12        	lda	$12                     ; 0x12 <__rc2>
    729f: 88           	dey
    72a0: 91 10        	sta	($10),y                 ; 0x10 <__rc0>
    72a2: a5 13        	lda	$13                     ; 0x13 <__rc3>
    72a4: 88           	dey
    72a5: 91 10        	sta	($10),y                 ; 0x10 <__rc0>
    72a7: a6 80        	ldx	$80                     ; 0x80 <theOne.8>
    72a9: 86 25        	stx	$25                     ; 0x25 <__rc21>
    72ab: a6 81        	ldx	$81                     ; 0x81 <theOne.8+0x1>
    72ad: 86 24        	stx	$24                     ; 0x24 <__rc20>
    72af: a6 2a        	ldx	$2a                     ; 0x2a <__rc26>
    72b1: 86 12        	stx	$12                     ; 0x12 <__rc2>
    72b3: 64 13        	stz	$13                     ; 0x13 <__rc3>
    72b5: a2 00        	ldx	#$0
    72b7: a5 28        	lda	$28                     ; 0x28 <__rc24>
    72b9: 20 4f 86     	jsr	$864f <__mulhi3>
    72bc: 85 12        	sta	$12                     ; 0x12 <__rc2>
    72be: 86 13        	stx	$13                     ; 0x13 <__rc3>
    72c0: 18           	clc
    72c1: a5 25        	lda	$25                     ; 0x25 <__rc21>
    72c3: 65 12        	adc	$12                     ; 0x12 <__rc2>
    72c5: a8           	tay
    72c6: a5 24        	lda	$24                     ; 0x24 <__rc20>
    72c8: 65 13        	adc	$13                     ; 0x13 <__rc3>
    72ca: aa           	tax
    72cb: 98           	tya
    72cc: 84 12        	sty	$12                     ; 0x12 <__rc2>
    72ce: 86 13        	stx	$13                     ; 0x13 <__rc3>
    72d0: 18           	clc
    72d1: 69 0c        	adc	#$c
    72d3: 85 14        	sta	$14                     ; 0x14 <__rc4>
    72d5: 8a           	txa
    72d6: 69 00        	adc	#$0
    72d8: 85 15        	sta	$15                     ; 0x15 <__rc5>
    72da: a0 0c        	ldy	#$c
    72dc: 5a           	phy
    72dd: a0 03        	ldy	#$3
    72df: b1 10        	lda	($10),y                 ; 0x10 <__rc0>
    72e1: 7a           	ply
    72e2: 91 12        	sta	($12),y                 ; 0x12 <__rc2>
    72e4: a0 01        	ldy	#$1
    72e6: 5a           	phy
    72e7: a0 06        	ldy	#$6
    72e9: b1 10        	lda	($10),y                 ; 0x10 <__rc0>
    72eb: 7a           	ply
    72ec: 91 14        	sta	($14),y                 ; 0x14 <__rc4>
    72ee: a0 02        	ldy	#$2
    72f0: 5a           	phy
    72f1: a0 05        	ldy	#$5
    72f3: b1 10        	lda	($10),y                 ; 0x10 <__rc0>
    72f5: 7a           	ply
    72f6: 91 14        	sta	($14),y                 ; 0x14 <__rc4>
    72f8: a0 03        	ldy	#$3
    72fa: 5a           	phy
    72fb: c8           	iny
    72fc: b1 10        	lda	($10),y                 ; 0x10 <__rc0>
    72fe: 7a           	ply
    72ff: 91 14        	sta	($14),y                 ; 0x14 <__rc4>
    7301: a5 28        	lda	$28                     ; 0x28 <__rc24>
    7303: 20 e2 66     	jsr	$66e2 <readMIDICmd>
    7306: a6 80        	ldx	$80                     ; 0x80 <theOne.8>
    7308: a4 81        	ldy	$81                     ; 0x81 <theOne.8+0x1>
    730a: 86 12        	stx	$12                     ; 0x12 <__rc2>
    730c: 84 13        	sty	$13                     ; 0x13 <__rc3>
    730e: 4c 68 71     	jmp	$7168 <resetTrack+0x2ab>
    7311: a0 00        	ldy	#$0
    7313: b1 10        	lda	($10),y                 ; 0x10 <__rc0>
    7315: 85 2a        	sta	$2a                     ; 0x2a <__rc26>
    7317: c8           	iny
    7318: b1 10        	lda	($10),y                 ; 0x10 <__rc0>
    731a: 85 29        	sta	$29                     ; 0x29 <__rc25>
    731c: c8           	iny
    731d: b1 10        	lda	($10),y                 ; 0x10 <__rc0>
    731f: 85 28        	sta	$28                     ; 0x28 <__rc24>
    7321: fa           	plx
    7322: 86 27        	stx	$27                     ; 0x27 <__rc23>
    7324: fa           	plx
    7325: 86 26        	stx	$26                     ; 0x26 <__rc22>
    7327: fa           	plx
    7328: 86 25        	stx	$25                     ; 0x25 <__rc21>
    732a: fa           	plx
    732b: 86 24        	stx	$24                     ; 0x24 <__rc20>
    732d: 18           	clc
    732e: a5 10        	lda	$10                     ; 0x10 <__rc0>
    7330: 69 07        	adc	#$7
    7332: 85 10        	sta	$10                     ; 0x10 <__rc0>
    7334: a5 11        	lda	$11                     ; 0x11 <__rc1>
    7336: 69 00        	adc	#$0
    7338: 85 11        	sta	$11                     ; 0x11 <__rc1>
    733a: 60           	rts
    733b: 86 16        	stx	$16                     ; 0x16 <__rc6>
    733d: a6 19        	ldx	$19                     ; 0x19 <__rc9>
    733f: 86 17        	stx	$17                     ; 0x17 <__rc7>
    7341: a0 04        	ldy	#$4
    7343: b1 16        	lda	($16),y                 ; 0x16 <__rc6>
    7345: 85 17        	sta	$17                     ; 0x17 <__rc7>
    7347: b2 14        	lda	($14)                   ; 0x14 <__rc4>
    7349: 85 16        	sta	$16                     ; 0x16 <__rc6>
    734b: a6 17        	ldx	$17                     ; 0x17 <__rc7>
    734d: e4 16        	cpx	$16                     ; 0x16 <__rc6>
    734f: a4 28        	ldy	$28                     ; 0x28 <__rc24>
    7351: b0 03        	bcs	$7356 <resetTrack+0x499>
    7353: 4c c7 71     	jmp	$71c7 <resetTrack+0x30a>
    7356: 4c 37 72     	jmp	$7237 <resetTrack+0x37a>
    7359: c4 16        	cpy	$16                     ; 0x16 <__rc6>
    735b: a4 28        	ldy	$28                     ; 0x28 <__rc24>
    735d: b0 03        	bcs	$7362 <resetTrack+0x4a5>
    735f: 4c c7 71     	jmp	$71c7 <resetTrack+0x30a>
    7362: 4c 37 72     	jmp	$7237 <resetTrack+0x37a>
    7365: a0 01        	ldy	#$1
    7367: b1 12        	lda	($12),y                 ; 0x12 <__rc2>
    7369: aa           	tax
    736a: b1 14        	lda	($14),y                 ; 0x14 <__rc4>
    736c: 85 12        	sta	$12                     ; 0x12 <__rc2>
    736e: e4 12        	cpx	$12                     ; 0x12 <__rc2>
    7370: d0 0c        	bne	$737e <resetTrack+0x4c1>
    7372: a0 04        	ldy	#$4
    7374: b1 14        	lda	($14),y                 ; 0x14 <__rc4>
    7376: 85 13        	sta	$13                     ; 0x13 <__rc3>
    7378: b2 14        	lda	($14)                   ; 0x14 <__rc4>
    737a: 85 12        	sta	$12                     ; 0x12 <__rc2>
    737c: a6 13        	ldx	$13                     ; 0x13 <__rc3>
    737e: e4 12        	cpx	$12                     ; 0x12 <__rc2>
    7380: 4c 73 72     	jmp	$7273 <resetTrack+0x3b6>
    7383: e4 16        	cpx	$16                     ; 0x16 <__rc6>
    7385: 4c 73 72     	jmp	$7273 <resetTrack+0x3b6>
    7388: e6 7f        	inc	$7f                     ; 0x7f <theOne.7+0x1>
    738a: 4c 41 72     	jmp	$7241 <resetTrack+0x384>

0000738d <exit>:
    738d: 20 43 03     	jsr	$343 <_fini>
    7390: 80 fe        	bra	$7390 <exit+0x3>

00007392 <_ZN12_GLOBAL__N_13putEcP6Status>:
    7392: 85 18        	sta	$18                     ; 0x18 <__rc8>
    7394: a6 13        	ldx	$13                     ; 0x13 <__rc3>
    7396: 18           	clc
    7397: a5 12        	lda	$12                     ; 0x12 <__rc2>
    7399: 69 05        	adc	#$5
    739b: a8           	tay
    739c: a5 13        	lda	$13                     ; 0x13 <__rc3>
    739e: 86 15        	stx	$15                     ; 0x15 <__rc5>
    73a0: 69 00        	adc	#$0
    73a2: 18           	clc
    73a3: 84 16        	sty	$16                     ; 0x16 <__rc6>
    73a5: a0 05        	ldy	#$5
    73a7: 85 17        	sta	$17                     ; 0x17 <__rc7>
    73a9: b1 12        	lda	($12),y                 ; 0x12 <__rc2>
    73ab: aa           	tax
    73ac: a5 12        	lda	$12                     ; 0x12 <__rc2>
    73ae: 69 03        	adc	#$3
    73b0: 85 14        	sta	$14                     ; 0x14 <__rc4>
    73b2: a5 15        	lda	$15                     ; 0x15 <__rc5>
    73b4: 69 00        	adc	#$0
    73b6: 85 15        	sta	$15                     ; 0x15 <__rc5>
    73b8: a0 01        	ldy	#$1
    73ba: b1 16        	lda	($16),y                 ; 0x16 <__rc6>
    73bc: d1 14        	cmp	($14),y                 ; 0x14 <__rc4>
    73be: d0 11        	bne	$73d1 <_ZN12_GLOBAL__N_13putEcP6Status+0x3f>
    73c0: a0 03        	ldy	#$3
    73c2: 85 17        	sta	$17                     ; 0x17 <__rc7>
    73c4: b1 12        	lda	($12),y                 ; 0x12 <__rc2>
    73c6: 85 14        	sta	$14                     ; 0x14 <__rc4>
    73c8: 86 16        	stx	$16                     ; 0x16 <__rc6>
    73ca: e4 14        	cpx	$14                     ; 0x14 <__rc4>
    73cc: 90 0e        	bcc	$73dc <_ZN12_GLOBAL__N_13putEcP6Status+0x4a>
    73ce: 4c 45 74     	jmp	$7445 <_ZN12_GLOBAL__N_13putEcP6Status+0xb3>
    73d1: 86 16        	stx	$16                     ; 0x16 <__rc6>
    73d3: d1 14        	cmp	($14),y                 ; 0x14 <__rc4>
    73d5: 85 17        	sta	$17                     ; 0x17 <__rc7>
    73d7: 90 03        	bcc	$73dc <_ZN12_GLOBAL__N_13putEcP6Status+0x4a>
    73d9: 4c 45 74     	jmp	$7445 <_ZN12_GLOBAL__N_13putEcP6Status+0xb3>
    73dc: a5 12        	lda	$12                     ; 0x12 <__rc2>
    73de: 18           	clc
    73df: 69 0f        	adc	#$f
    73e1: 85 14        	sta	$14                     ; 0x14 <__rc4>
    73e3: a5 13        	lda	$13                     ; 0x13 <__rc3>
    73e5: 69 00        	adc	#$0
    73e7: 85 15        	sta	$15                     ; 0x15 <__rc5>
    73e9: a0 01        	ldy	#$1
    73eb: b1 14        	lda	($14),y                 ; 0x14 <__rc4>
    73ed: a2 00        	ldx	#$0
    73ef: 86 14        	stx	$14                     ; 0x14 <__rc4>
    73f1: a2 00        	ldx	#$0
    73f3: 86 15        	stx	$15                     ; 0x15 <__rc5>
    73f5: c5 15        	cmp	$15                     ; 0x15 <__rc5>
    73f7: d0 2d        	bne	$7426 <_ZN12_GLOBAL__N_13putEcP6Status+0x94>
    73f9: a0 0f        	ldy	#$f
    73fb: b1 12        	lda	($12),y                 ; 0x12 <__rc2>
    73fd: c5 14        	cmp	$14                     ; 0x14 <__rc4>
    73ff: d0 25        	bne	$7426 <_ZN12_GLOBAL__N_13putEcP6Status+0x94>
    7401: a5 12        	lda	$12                     ; 0x12 <__rc2>
    7403: 18           	clc
    7404: 69 09        	adc	#$9
    7406: 85 14        	sta	$14                     ; 0x14 <__rc4>
    7408: a5 13        	lda	$13                     ; 0x13 <__rc3>
    740a: 69 00        	adc	#$0
    740c: a0 09        	ldy	#$9
    740e: 85 15        	sta	$15                     ; 0x15 <__rc5>
    7410: 18           	clc
    7411: a5 16        	lda	$16                     ; 0x16 <__rc6>
    7413: 71 12        	adc	($12),y                 ; 0x12 <__rc2>
    7415: aa           	tax
    7416: a0 01        	ldy	#$1
    7418: a5 17        	lda	$17                     ; 0x17 <__rc7>
    741a: 71 14        	adc	($14),y                 ; 0x14 <__rc4>
    741c: 86 14        	stx	$14                     ; 0x14 <__rc4>
    741e: 85 15        	sta	$15                     ; 0x15 <__rc5>
    7420: a5 18        	lda	$18                     ; 0x18 <__rc8>
    7422: 92 14        	sta	($14)                   ; 0x14 <__rc4>
    7424: 80 1f        	bra	$7445 <_ZN12_GLOBAL__N_13putEcP6Status+0xb3>
    7426: a6 12        	ldx	$12                     ; 0x12 <__rc2>
    7428: 86 ee        	stx	$ee                     ; 0xee <__bss_size+0x69>
    742a: a6 13        	ldx	$13                     ; 0x13 <__rc3>
    742c: 86 ef        	stx	$ef                     ; 0xef <__bss_size+0x6a>
    742e: a5 18        	lda	$18                     ; 0x18 <__rc8>
    7430: 85 62        	sta	$62                     ; 0x62 <__putchar.s>
    7432: a2 62        	ldx	#$62
    7434: 86 12        	stx	$12                     ; 0x12 <__rc2>
    7436: a2 00        	ldx	#$0
    7438: 86 13        	stx	$13                     ; 0x13 <__rc3>
    743a: 20 e9 5c     	jsr	$5ce9 <textPrint>
    743d: a6 ee        	ldx	$ee                     ; 0xee <__bss_size+0x69>
    743f: 86 12        	stx	$12                     ; 0x12 <__rc2>
    7441: a6 ef        	ldx	$ef                     ; 0xef <__bss_size+0x6a>
    7443: 86 13        	stx	$13                     ; 0x13 <__rc3>
    7445: a0 05        	ldy	#$5
    7447: a5 12        	lda	$12                     ; 0x12 <__rc2>
    7449: 18           	clc
    744a: 69 05        	adc	#$5
    744c: 85 14        	sta	$14                     ; 0x14 <__rc4>
    744e: a5 13        	lda	$13                     ; 0x13 <__rc3>
    7450: 69 00        	adc	#$0
    7452: 85 15        	sta	$15                     ; 0x15 <__rc5>
    7454: b1 12        	lda	($12),y                 ; 0x12 <__rc2>
    7456: aa           	tax
    7457: 84 16        	sty	$16                     ; 0x16 <__rc6>
    7459: a0 01        	ldy	#$1
    745b: b1 14        	lda	($14),y                 ; 0x14 <__rc4>
    745d: 84 17        	sty	$17                     ; 0x17 <__rc7>
    745f: e8           	inx
    7460: d0 01        	bne	$7463 <_ZN12_GLOBAL__N_13putEcP6Status+0xd1>
    7462: 1a           	inc
    7463: 85 18        	sta	$18                     ; 0x18 <__rc8>
    7465: 8a           	txa
    7466: a4 16        	ldy	$16                     ; 0x16 <__rc6>
    7468: 91 12        	sta	($12),y                 ; 0x12 <__rc2>
    746a: a4 17        	ldy	$17                     ; 0x17 <__rc7>
    746c: a5 18        	lda	$18                     ; 0x18 <__rc8>
    746e: 91 14        	sta	($14),y                 ; 0x14 <__rc4>
    7470: 60           	rts

00007471 <_ZN12_GLOBAL__N_112print_stringEPKcP6Status>:
    7471: a6 12        	ldx	$12                     ; 0x12 <__rc2>
    7473: 86 e5        	stx	$e5                     ; 0xe5 <__bss_size+0x60>
    7475: a6 13        	ldx	$13                     ; 0x13 <__rc3>
    7477: 86 e6        	stx	$e6                     ; 0xe6 <__bss_size+0x61>
    7479: a6 14        	ldx	$14                     ; 0x14 <__rc4>
    747b: 86 e7        	stx	$e7                     ; 0xe7 <__bss_size+0x62>
    747d: a6 15        	ldx	$15                     ; 0x15 <__rc5>
    747f: 86 e8        	stx	$e8                     ; 0xe8 <__bss_size+0x63>
    7481: a5 e7        	lda	$e7                     ; 0xe7 <__bss_size+0x62>
    7483: 18           	clc
    7484: 69 0d        	adc	#$d
    7486: 85 12        	sta	$12                     ; 0x12 <__rc2>
    7488: a5 e8        	lda	$e8                     ; 0xe8 <__bss_size+0x63>
    748a: 69 00        	adc	#$0
    748c: 85 13        	sta	$13                     ; 0x13 <__rc3>
    748e: a0 01        	ldy	#$1
    7490: b1 12        	lda	($12),y                 ; 0x12 <__rc2>
    7492: 30 14        	bmi	$74a8 <_ZN12_GLOBAL__N_112print_stringEPKcP6Status+0x37>
    7494: a0 0d        	ldy	#$d
    7496: aa           	tax
    7497: b1 e7        	lda	($e7),y                 ; 0xe7 <__bss_size+0x62>
    7499: 86 ea        	stx	$ea                     ; 0xea <__bss_size+0x65>
    749b: e0 00        	cpx	#$0
    749d: d0 0e        	bne	$74ad <_ZN12_GLOBAL__N_112print_stringEPKcP6Status+0x3c>
    749f: aa           	tax
    74a0: d0 0b        	bne	$74ad <_ZN12_GLOBAL__N_112print_stringEPKcP6Status+0x3c>
    74a2: 64 e9        	stz	$e9                     ; 0xe9 <__bss_size+0x64>
    74a4: 64 ea        	stz	$ea                     ; 0xea <__bss_size+0x65>
    74a6: 80 36        	bra	$74de <_ZN12_GLOBAL__N_112print_stringEPKcP6Status+0x6d>
    74a8: a9 ff        	lda	#$ff
    74aa: aa           	tax
    74ab: 86 ea        	stx	$ea                     ; 0xea <__bss_size+0x65>
    74ad: 85 e9        	sta	$e9                     ; 0xe9 <__bss_size+0x64>
    74af: 64 12        	stz	$12                     ; 0x12 <__rc2>
    74b1: a4 e5        	ldy	$e5                     ; 0xe5 <__bss_size+0x60>
    74b3: a6 e6        	ldx	$e6                     ; 0xe6 <__bss_size+0x61>
    74b5: 86 16        	stx	$16                     ; 0x16 <__rc6>
    74b7: 64 13        	stz	$13                     ; 0x13 <__rc3>
    74b9: 98           	tya
    74ba: 18           	clc
    74bb: 65 12        	adc	$12                     ; 0x12 <__rc2>
    74bd: 85 14        	sta	$14                     ; 0x14 <__rc4>
    74bf: a5 e6        	lda	$e6                     ; 0xe6 <__bss_size+0x61>
    74c1: 65 13        	adc	$13                     ; 0x13 <__rc3>
    74c3: 85 15        	sta	$15                     ; 0x15 <__rc5>
    74c5: b2 14        	lda	($14)                   ; 0x14 <__rc4>
    74c7: d0 03        	bne	$74cc <_ZN12_GLOBAL__N_112print_stringEPKcP6Status+0x5b>
    74c9: 4c 75 75     	jmp	$7575 <_ZN12_GLOBAL__N_112print_stringEPKcP6Status+0x104>
    74cc: e6 12        	inc	$12                     ; 0x12 <__rc2>
    74ce: d0 02        	bne	$74d2 <_ZN12_GLOBAL__N_112print_stringEPKcP6Status+0x61>
    74d0: e6 13        	inc	$13                     ; 0x13 <__rc3>
    74d2: a6 ea        	ldx	$ea                     ; 0xea <__bss_size+0x65>
    74d4: e4 13        	cpx	$13                     ; 0x13 <__rc3>
    74d6: d0 e1        	bne	$74b9 <_ZN12_GLOBAL__N_112print_stringEPKcP6Status+0x48>
    74d8: a6 e9        	ldx	$e9                     ; 0xe9 <__bss_size+0x64>
    74da: e4 12        	cpx	$12                     ; 0x12 <__rc2>
    74dc: d0 db        	bne	$74b9 <_ZN12_GLOBAL__N_112print_stringEPKcP6Status+0x48>
    74de: a0 01        	ldy	#$1
    74e0: b1 e7        	lda	($e7),y                 ; 0xe7 <__bss_size+0x62>
    74e2: 29 01        	and	#$1
    74e4: f0 03        	beq	$74e9 <_ZN12_GLOBAL__N_112print_stringEPKcP6Status+0x78>
    74e6: 4c 47 75     	jmp	$7547 <_ZN12_GLOBAL__N_112print_stringEPKcP6Status+0xd6>
    74e9: a5 e7        	lda	$e7                     ; 0xe7 <__bss_size+0x62>
    74eb: 18           	clc
    74ec: 69 0b        	adc	#$b
    74ee: 85 14        	sta	$14                     ; 0x14 <__rc4>
    74f0: a5 e8        	lda	$e8                     ; 0xe8 <__bss_size+0x63>
    74f2: 69 00        	adc	#$0
    74f4: 85 15        	sta	$15                     ; 0x15 <__rc5>
    74f6: 84 12        	sty	$12                     ; 0x12 <__rc2>
    74f8: a0 0b        	ldy	#$b
    74fa: b1 e7        	lda	($e7),y                 ; 0xe7 <__bss_size+0x62>
    74fc: 85 13        	sta	$13                     ; 0x13 <__rc3>
    74fe: a4 12        	ldy	$12                     ; 0x12 <__rc2>
    7500: b1 14        	lda	($14),y                 ; 0x14 <__rc4>
    7502: 85 12        	sta	$12                     ; 0x12 <__rc2>
    7504: a6 ea        	ldx	$ea                     ; 0xea <__bss_size+0x65>
    7506: e4 12        	cpx	$12                     ; 0x12 <__rc2>
    7508: d0 08        	bne	$7512 <_ZN12_GLOBAL__N_112print_stringEPKcP6Status+0xa1>
    750a: a6 e9        	ldx	$e9                     ; 0xe9 <__bss_size+0x64>
    750c: e4 13        	cpx	$13                     ; 0x13 <__rc3>
    750e: 90 06        	bcc	$7516 <_ZN12_GLOBAL__N_112print_stringEPKcP6Status+0xa5>
    7510: 80 35        	bra	$7547 <_ZN12_GLOBAL__N_112print_stringEPKcP6Status+0xd6>
    7512: e4 12        	cpx	$12                     ; 0x12 <__rc2>
    7514: b0 31        	bcs	$7547 <_ZN12_GLOBAL__N_112print_stringEPKcP6Status+0xd6>
    7516: 38           	sec
    7517: a5 e9        	lda	$e9                     ; 0xe9 <__bss_size+0x64>
    7519: e5 13        	sbc	$13                     ; 0x13 <__rc3>
    751b: a8           	tay
    751c: a5 ea        	lda	$ea                     ; 0xea <__bss_size+0x65>
    751e: e5 12        	sbc	$12                     ; 0x12 <__rc2>
    7520: 85 ec        	sta	$ec                     ; 0xec <__bss_size+0x67>
    7522: a2 20        	ldx	#$20
    7524: 86 ed        	stx	$ed                     ; 0xed <__bss_size+0x68>
    7526: a6 e7        	ldx	$e7                     ; 0xe7 <__bss_size+0x62>
    7528: 86 12        	stx	$12                     ; 0x12 <__rc2>
    752a: a6 e8        	ldx	$e8                     ; 0xe8 <__bss_size+0x63>
    752c: 86 13        	stx	$13                     ; 0x13 <__rc3>
    752e: 84 eb        	sty	$eb                     ; 0xeb <__bss_size+0x66>
    7530: a5 ed        	lda	$ed                     ; 0xed <__bss_size+0x68>
    7532: 20 92 73     	jsr	$7392 <_ZN12_GLOBAL__N_13putEcP6Status>
    7535: a6 ec        	ldx	$ec                     ; 0xec <__bss_size+0x67>
    7537: e6 eb        	inc	$eb                     ; 0xeb <__bss_size+0x66>
    7539: d0 01        	bne	$753c <_ZN12_GLOBAL__N_112print_stringEPKcP6Status+0xcb>
    753b: e8           	inx
    753c: 86 ec        	stx	$ec                     ; 0xec <__bss_size+0x67>
    753e: a4 eb        	ldy	$eb                     ; 0xeb <__bss_size+0x66>
    7540: 8a           	txa
    7541: d0 e3        	bne	$7526 <_ZN12_GLOBAL__N_112print_stringEPKcP6Status+0xb5>
    7543: a5 eb        	lda	$eb                     ; 0xeb <__bss_size+0x66>
    7545: d0 df        	bne	$7526 <_ZN12_GLOBAL__N_112print_stringEPKcP6Status+0xb5>
    7547: a5 ea        	lda	$ea                     ; 0xea <__bss_size+0x65>
    7549: d0 04        	bne	$754f <_ZN12_GLOBAL__N_112print_stringEPKcP6Status+0xde>
    754b: a5 e9        	lda	$e9                     ; 0xe9 <__bss_size+0x64>
    754d: f0 25        	beq	$7574 <_ZN12_GLOBAL__N_112print_stringEPKcP6Status+0x103>
    754f: a2 ff        	ldx	#$ff
    7551: c6 e9        	dec	$e9                     ; 0xe9 <__bss_size+0x64>
    7553: e4 e9        	cpx	$e9                     ; 0xe9 <__bss_size+0x64>
    7555: d0 02        	bne	$7559 <_ZN12_GLOBAL__N_112print_stringEPKcP6Status+0xe8>
    7557: c6 ea        	dec	$ea                     ; 0xea <__bss_size+0x65>
    7559: b2 e5        	lda	($e5)                   ; 0xe5 <__bss_size+0x60>
    755b: e6 e5        	inc	$e5                     ; 0xe5 <__bss_size+0x60>
    755d: d0 02        	bne	$7561 <_ZN12_GLOBAL__N_112print_stringEPKcP6Status+0xf0>
    755f: e6 e6        	inc	$e6                     ; 0xe6 <__bss_size+0x61>
    7561: a6 e7        	ldx	$e7                     ; 0xe7 <__bss_size+0x62>
    7563: 86 12        	stx	$12                     ; 0x12 <__rc2>
    7565: a6 e8        	ldx	$e8                     ; 0xe8 <__bss_size+0x63>
    7567: 86 13        	stx	$13                     ; 0x13 <__rc3>
    7569: 20 92 73     	jsr	$7392 <_ZN12_GLOBAL__N_13putEcP6Status>
    756c: a5 ea        	lda	$ea                     ; 0xea <__bss_size+0x65>
    756e: d0 df        	bne	$754f <_ZN12_GLOBAL__N_112print_stringEPKcP6Status+0xde>
    7570: a5 e9        	lda	$e9                     ; 0xe9 <__bss_size+0x64>
    7572: d0 db        	bne	$754f <_ZN12_GLOBAL__N_112print_stringEPKcP6Status+0xde>
    7574: 60           	rts
    7575: a6 12        	ldx	$12                     ; 0x12 <__rc2>
    7577: 86 e9        	stx	$e9                     ; 0xe9 <__bss_size+0x64>
    7579: a6 13        	ldx	$13                     ; 0x13 <__rc3>
    757b: 86 ea        	stx	$ea                     ; 0xea <__bss_size+0x65>
    757d: 4c de 74     	jmp	$74de <_ZN12_GLOBAL__N_112print_stringEPKcP6Status+0x6d>

00007580 <printf>:
    7580: a6 12        	ldx	$12                     ; 0x12 <__rc2>
    7582: 86 9c        	stx	$9c                     ; 0x9c <__bss_size+0x17>
    7584: a6 13        	ldx	$13                     ; 0x13 <__rc3>
    7586: 86 9d        	stx	$9d                     ; 0x9d <__bss_size+0x18>
    7588: 18           	clc
    7589: a6 10        	ldx	$10                     ; 0x10 <__rc0>
    758b: a4 11        	ldy	$11                     ; 0x11 <__rc1>
    758d: 86 db        	stx	$db                     ; 0xdb <__bss_size+0x56>
    758f: 84 dc        	sty	$dc                     ; 0xdc <__bss_size+0x57>
    7591: a6 db        	ldx	$db                     ; 0xdb <__bss_size+0x56>
    7593: a4 dc        	ldy	$dc                     ; 0xdc <__bss_size+0x57>
    7595: 86 c6        	stx	$c6                     ; 0xc6 <__bss_size+0x41>
    7597: 84 c7        	sty	$c7                     ; 0xc7 <__bss_size+0x42>
    7599: a2 ff        	ldx	#$ff
    759b: 86 cb        	stx	$cb                     ; 0xcb <__bss_size+0x46>
    759d: 86 cc        	stx	$cc                     ; 0xcc <__bss_size+0x47>
    759f: 64 cd        	stz	$cd                     ; 0xcd <__bss_size+0x48>
    75a1: 64 ce        	stz	$ce                     ; 0xce <__bss_size+0x49>
    75a3: e8           	inx
    75a4: 86 12        	stx	$12                     ; 0x12 <__rc2>
    75a6: a2 00        	ldx	#$0
    75a8: 86 13        	stx	$13                     ; 0x13 <__rc3>
    75aa: a6 12        	ldx	$12                     ; 0x12 <__rc2>
    75ac: a4 13        	ldy	$13                     ; 0x13 <__rc3>
    75ae: 86 d1        	stx	$d1                     ; 0xd1 <__bss_size+0x4c>
    75b0: 84 d2        	sty	$d2                     ; 0xd2 <__bss_size+0x4d>
    75b2: a2 02        	ldx	#$2
    75b4: 86 d7        	stx	$d7                     ; 0xd7 <__bss_size+0x52>
    75b6: 64 d8        	stz	$d8                     ; 0xd8 <__bss_size+0x53>
    75b8: a6 c6        	ldx	$c6                     ; 0xc6 <__bss_size+0x41>
    75ba: a4 c7        	ldy	$c7                     ; 0xc7 <__bss_size+0x42>
    75bc: 86 d9        	stx	$d9                     ; 0xd9 <__bss_size+0x54>
    75be: 84 da        	sty	$da                     ; 0xda <__bss_size+0x55>
    75c0: a2 bd        	ldx	#$bd
    75c2: a0 00        	ldy	#$0
    75c4: 86 12        	stx	$12                     ; 0x12 <__rc2>
    75c6: 84 13        	sty	$13                     ; 0x13 <__rc3>
    75c8: a0 01        	ldy	#$1
    75ca: a9 a4        	lda	#$a4
    75cc: 18           	clc
    75cd: 69 02        	adc	#$2
    75cf: 85 e3        	sta	$e3                     ; 0xe3 <__bss_size+0x5e>
    75d1: a9 00        	lda	#$0
    75d3: 69 00        	adc	#$0
    75d5: 85 e4        	sta	$e4                     ; 0xe4 <__bss_size+0x5f>
    75d7: e6 12        	inc	$12                     ; 0x12 <__rc2>
    75d9: d0 02        	bne	$75dd <printf+0x5d>
    75db: e6 13        	inc	$13                     ; 0x13 <__rc3>
    75dd: a6 12        	ldx	$12                     ; 0x12 <__rc2>
    75df: 86 e1        	stx	$e1                     ; 0xe1 <__bss_size+0x5c>
    75e1: a6 13        	ldx	$13                     ; 0x13 <__rc3>
    75e3: 86 e2        	stx	$e2                     ; 0xe2 <__bss_size+0x5d>
    75e5: a6 9c        	ldx	$9c                     ; 0x9c <__bss_size+0x17>
    75e7: 86 98        	stx	$98                     ; 0x98 <__bss_size+0x13>
    75e9: a6 9d        	ldx	$9d                     ; 0x9d <__bss_size+0x18>
    75eb: 86 99        	stx	$99                     ; 0x99 <__bss_size+0x14>
    75ed: b2 9c        	lda	($9c)                   ; 0x9c <__bss_size+0x17>
    75ef: c9 25        	cmp	#$25
    75f1: f0 2d        	beq	$7620 <printf+0xa0>
    75f3: aa           	tax
    75f4: d0 03        	bne	$75f9 <printf+0x79>
    75f6: 4c bf 82     	jmp	$82bf <printf+0xd3f>
    75f9: 85 62        	sta	$62                     ; 0x62 <__putchar.s>
    75fb: a2 62        	ldx	#$62
    75fd: 86 12        	stx	$12                     ; 0x12 <__rc2>
    75ff: a2 00        	ldx	#$0
    7601: 86 13        	stx	$13                     ; 0x13 <__rc3>
    7603: 84 9a        	sty	$9a                     ; 0x9a <__bss_size+0x15>
    7605: 20 e9 5c     	jsr	$5ce9 <textPrint>
    7608: a4 9a        	ldy	$9a                     ; 0x9a <__bss_size+0x15>
    760a: e6 98        	inc	$98                     ; 0x98 <__bss_size+0x13>
    760c: d0 02        	bne	$7610 <printf+0x90>
    760e: e6 99        	inc	$99                     ; 0x99 <__bss_size+0x14>
    7610: e6 cd        	inc	$cd                     ; 0xcd <__bss_size+0x48>
    7612: d0 02        	bne	$7616 <printf+0x96>
    7614: e6 ce        	inc	$ce                     ; 0xce <__bss_size+0x49>
    7616: a6 98        	ldx	$98                     ; 0x98 <__bss_size+0x13>
    7618: 86 9c        	stx	$9c                     ; 0x9c <__bss_size+0x17>
    761a: a6 99        	ldx	$99                     ; 0x99 <__bss_size+0x14>
    761c: 86 9d        	stx	$9d                     ; 0x9d <__bss_size+0x18>
    761e: 80 c5        	bra	$75e5 <printf+0x65>
    7620: a6 9c        	ldx	$9c                     ; 0x9c <__bss_size+0x17>
    7622: 86 12        	stx	$12                     ; 0x12 <__rc2>
    7624: a6 9d        	ldx	$9d                     ; 0x9d <__bss_size+0x18>
    7626: 86 13        	stx	$13                     ; 0x13 <__rc3>
    7628: e6 12        	inc	$12                     ; 0x12 <__rc2>
    762a: d0 02        	bne	$762e <printf+0xae>
    762c: e6 13        	inc	$13                     ; 0x13 <__rc3>
    762e: b1 98        	lda	($98),y                 ; 0x98 <__bss_size+0x13>
    7630: c9 25        	cmp	#$25
    7632: d0 18        	bne	$764c <printf+0xcc>
    7634: a2 01        	ldx	#$1
    7636: 86 13        	stx	$13                     ; 0x13 <__rc3>
    7638: a5 cd        	lda	$cd                     ; 0xcd <__bss_size+0x48>
    763a: a4 ce        	ldy	$ce                     ; 0xce <__bss_size+0x49>
    763c: c4 cc        	cpy	$cc                     ; 0xcc <__bss_size+0x47>
    763e: f0 03        	beq	$7643 <printf+0xc3>
    7640: 4c 5c 77     	jmp	$775c <printf+0x1dc>
    7643: a6 cb        	ldx	$cb                     ; 0xcb <__bss_size+0x46>
    7645: 86 12        	stx	$12                     ; 0x12 <__rc2>
    7647: c5 12        	cmp	$12                     ; 0x12 <__rc2>
    7649: 4c 5e 77     	jmp	$775e <printf+0x1de>
    764c: a2 01        	ldx	#$1
    764e: 86 15        	stx	$15                     ; 0x15 <__rc5>
    7650: 64 c9        	stz	$c9                     ; 0xc9 <__bss_size+0x44>
    7652: 64 ca        	stz	$ca                     ; 0xca <__bss_size+0x45>
    7654: 64 c8        	stz	$c8                     ; 0xc8 <__bss_size+0x43>
    7656: 64 d3        	stz	$d3                     ; 0xd3 <__bss_size+0x4e>
    7658: 64 d4        	stz	$d4                     ; 0xd4 <__bss_size+0x4f>
    765a: a2 ff        	ldx	#$ff
    765c: 86 d5        	stx	$d5                     ; 0xd5 <__bss_size+0x50>
    765e: 86 d6        	stx	$d6                     ; 0xd6 <__bss_size+0x51>
    7660: 64 9a        	stz	$9a                     ; 0x9a <__bss_size+0x15>
    7662: 80 33        	bra	$7697 <printf+0x117>
    7664: a2 02        	ldx	#$2
    7666: 80 15        	bra	$767d <printf+0xfd>
    7668: e0 20        	cpx	#$20
    766a: f0 15        	beq	$7681 <printf+0x101>
    766c: 86 16        	stx	$16                     ; 0x16 <__rc6>
    766e: e0 23        	cpx	#$23
    7670: f0 03        	beq	$7675 <printf+0xf5>
    7672: 4c f4 76     	jmp	$76f4 <printf+0x174>
    7675: a5 9a        	lda	$9a                     ; 0x9a <__bss_size+0x15>
    7677: a2 04        	ldx	#$4
    7679: 80 02        	bra	$767d <printf+0xfd>
    767b: a2 10        	ldx	#$10
    767d: 86 14        	stx	$14                     ; 0x14 <__rc4>
    767f: 80 06        	bra	$7687 <printf+0x107>
    7681: a2 08        	ldx	#$8
    7683: 86 14        	stx	$14                     ; 0x14 <__rc4>
    7685: a5 9a        	lda	$9a                     ; 0x9a <__bss_size+0x15>
    7687: 05 14        	ora	$14                     ; 0x14 <__rc4>
    7689: 85 9a        	sta	$9a                     ; 0x9a <__bss_size+0x15>
    768b: 85 c9        	sta	$c9                     ; 0xc9 <__bss_size+0x44>
    768d: a2 00        	ldx	#$0
    768f: 86 ca        	stx	$ca                     ; 0xca <__bss_size+0x45>
    7691: e6 12        	inc	$12                     ; 0x12 <__rc2>
    7693: d0 02        	bne	$7697 <printf+0x117>
    7695: e6 13        	inc	$13                     ; 0x13 <__rc3>
    7697: b2 12        	lda	($12)                   ; 0x12 <__rc2>
    7699: 18           	clc
    769a: aa           	tax
    769b: 69 d6        	adc	#$d6
    769d: c9 07        	cmp	#$7
    769f: b0 c7        	bcs	$7668 <printf+0xe8>
    76a1: 86 16        	stx	$16                     ; 0x16 <__rc6>
    76a3: 0a           	asl
    76a4: aa           	tax
    76a5: a0 01        	ldy	#$1
    76a7: 84 14        	sty	$14                     ; 0x14 <__rc4>
    76a9: a5 9a        	lda	$9a                     ; 0x9a <__bss_size+0x15>
    76ab: 7c 07 88     	jmp	($8807,x)               ; 0x8807 <__BLOCK_SIZE+0x6807>
    76ae: a5 d9        	lda	$d9                     ; 0xd9 <__bss_size+0x54>
    76b0: a6 da        	ldx	$da                     ; 0xda <__bss_size+0x55>
    76b2: 85 16        	sta	$16                     ; 0x16 <__rc6>
    76b4: 86 17        	stx	$17                     ; 0x17 <__rc7>
    76b6: 18           	clc
    76b7: 69 02        	adc	#$2
    76b9: a8           	tay
    76ba: 8a           	txa
    76bb: 69 00        	adc	#$0
    76bd: 84 d9        	sty	$d9                     ; 0xd9 <__bss_size+0x54>
    76bf: 85 da        	sta	$da                     ; 0xda <__bss_size+0x55>
    76c1: b2 16        	lda	($16)                   ; 0x16 <__rc6>
    76c3: 85 15        	sta	$15                     ; 0x15 <__rc5>
    76c5: a0 01        	ldy	#$1
    76c7: b1 16        	lda	($16),y                 ; 0x16 <__rc6>
    76c9: 85 14        	sta	$14                     ; 0x14 <__rc4>
    76cb: 10 15        	bpl	$76e2 <printf+0x162>
    76cd: a5 9a        	lda	$9a                     ; 0x9a <__bss_size+0x15>
    76cf: 09 01        	ora	#$1
    76d1: 85 9a        	sta	$9a                     ; 0x9a <__bss_size+0x15>
    76d3: 85 c9        	sta	$c9                     ; 0xc9 <__bss_size+0x44>
    76d5: a2 00        	ldx	#$0
    76d7: 86 ca        	stx	$ca                     ; 0xca <__bss_size+0x45>
    76d9: 8a           	txa
    76da: 38           	sec
    76db: e5 15        	sbc	$15                     ; 0x15 <__rc5>
    76dd: 85 15        	sta	$15                     ; 0x15 <__rc5>
    76df: 8a           	txa
    76e0: e5 14        	sbc	$14                     ; 0x14 <__rc4>
    76e2: a6 15        	ldx	$15                     ; 0x15 <__rc5>
    76e4: 86 d3        	stx	$d3                     ; 0xd3 <__bss_size+0x4e>
    76e6: 85 d4        	sta	$d4                     ; 0xd4 <__bss_size+0x4f>
    76e8: e6 12        	inc	$12                     ; 0x12 <__rc2>
    76ea: f0 03        	beq	$76ef <printf+0x16f>
    76ec: 4c c8 77     	jmp	$77c8 <printf+0x248>
    76ef: e6 13        	inc	$13                     ; 0x13 <__rc3>
    76f1: 4c c8 77     	jmp	$77c8 <printf+0x248>
    76f4: 18           	clc
    76f5: a5 16        	lda	$16                     ; 0x16 <__rc6>
    76f7: 69 d0        	adc	#$d0
    76f9: c9 0a        	cmp	#$a
    76fb: 90 03        	bcc	$7700 <printf+0x180>
    76fd: 4c ba 77     	jmp	$77ba <printf+0x23a>
    7700: a6 16        	ldx	$16                     ; 0x16 <__rc6>
    7702: 86 14        	stx	$14                     ; 0x14 <__rc4>
    7704: 64 16        	stz	$16                     ; 0x16 <__rc6>
    7706: 64 15        	stz	$15                     ; 0x15 <__rc5>
    7708: 64 17        	stz	$17                     ; 0x17 <__rc7>
    770a: a0 01        	ldy	#$1
    770c: a2 00        	ldx	#$0
    770e: 06 16        	asl	$16                     ; 0x16 <__rc6>
    7710: 26 17        	rol	$17                     ; 0x17 <__rc7>
    7712: a5 16        	lda	$16                     ; 0x16 <__rc6>
    7714: 0a           	asl
    7715: 85 18        	sta	$18                     ; 0x18 <__rc8>
    7717: a5 17        	lda	$17                     ; 0x17 <__rc7>
    7719: 2a           	rol
    771a: 06 18        	asl	$18                     ; 0x18 <__rc8>
    771c: 2a           	rol
    771d: 85 19        	sta	$19                     ; 0x19 <__rc9>
    771f: a5 18        	lda	$18                     ; 0x18 <__rc8>
    7721: 18           	clc
    7722: 65 16        	adc	$16                     ; 0x16 <__rc6>
    7724: 85 16        	sta	$16                     ; 0x16 <__rc6>
    7726: a5 19        	lda	$19                     ; 0x19 <__rc9>
    7728: 65 17        	adc	$17                     ; 0x17 <__rc7>
    772a: 85 17        	sta	$17                     ; 0x17 <__rc7>
    772c: a5 16        	lda	$16                     ; 0x16 <__rc6>
    772e: 18           	clc
    772f: 65 14        	adc	$14                     ; 0x14 <__rc4>
    7731: 85 14        	sta	$14                     ; 0x14 <__rc4>
    7733: a5 17        	lda	$17                     ; 0x17 <__rc7>
    7735: 65 15        	adc	$15                     ; 0x15 <__rc5>
    7737: 85 15        	sta	$15                     ; 0x15 <__rc5>
    7739: 18           	clc
    773a: a5 14        	lda	$14                     ; 0x14 <__rc4>
    773c: 69 d0        	adc	#$d0
    773e: 85 16        	sta	$16                     ; 0x16 <__rc6>
    7740: a5 15        	lda	$15                     ; 0x15 <__rc5>
    7742: 69 ff        	adc	#$ff
    7744: 85 17        	sta	$17                     ; 0x17 <__rc7>
    7746: b1 12        	lda	($12),y                 ; 0x12 <__rc2>
    7748: 85 14        	sta	$14                     ; 0x14 <__rc4>
    774a: 18           	clc
    774b: 69 d0        	adc	#$d0
    774d: e6 12        	inc	$12                     ; 0x12 <__rc2>
    774f: d0 02        	bne	$7753 <printf+0x1d3>
    7751: e6 13        	inc	$13                     ; 0x13 <__rc3>
    7753: c9 0a        	cmp	#$a
    7755: 64 15        	stz	$15                     ; 0x15 <__rc5>
    7757: 90 b5        	bcc	$770e <printf+0x18e>
    7759: 4c c0 77     	jmp	$77c0 <printf+0x240>
    775c: c4 cc        	cpy	$cc                     ; 0xcc <__bss_size+0x47>
    775e: 84 16        	sty	$16                     ; 0x16 <__rc6>
    7760: a4 13        	ldy	$13                     ; 0x13 <__rc3>
    7762: b0 40        	bcs	$77a4 <printf+0x224>
    7764: a2 01        	ldx	#$1
    7766: 86 14        	stx	$14                     ; 0x14 <__rc4>
    7768: a6 d8        	ldx	$d8                     ; 0xd8 <__bss_size+0x53>
    776a: a0 00        	ldy	#$0
    776c: 84 12        	sty	$12                     ; 0x12 <__rc2>
    776e: a0 00        	ldy	#$0
    7770: 84 13        	sty	$13                     ; 0x13 <__rc3>
    7772: e4 13        	cpx	$13                     ; 0x13 <__rc3>
    7774: d0 19        	bne	$778f <printf+0x20f>
    7776: a6 d7        	ldx	$d7                     ; 0xd7 <__bss_size+0x52>
    7778: e4 12        	cpx	$12                     ; 0x12 <__rc2>
    777a: d0 13        	bne	$778f <printf+0x20f>
    777c: a4 14        	ldy	$14                     ; 0x14 <__rc4>
    777e: 18           	clc
    777f: 65 d1        	adc	$d1                     ; 0xd1 <__bss_size+0x4c>
    7781: 85 12        	sta	$12                     ; 0x12 <__rc2>
    7783: a5 16        	lda	$16                     ; 0x16 <__rc6>
    7785: 65 d2        	adc	$d2                     ; 0xd2 <__bss_size+0x4d>
    7787: 85 13        	sta	$13                     ; 0x13 <__rc3>
    7789: a9 25        	lda	#$25
    778b: 92 12        	sta	($12)                   ; 0x12 <__rc2>
    778d: 80 15        	bra	$77a4 <printf+0x224>
    778f: a2 01        	ldx	#$1
    7791: 86 9a        	stx	$9a                     ; 0x9a <__bss_size+0x15>
    7793: a2 25        	ldx	#$25
    7795: 86 62        	stx	$62                     ; 0x62 <__putchar.s>
    7797: a2 62        	ldx	#$62
    7799: 86 12        	stx	$12                     ; 0x12 <__rc2>
    779b: a2 00        	ldx	#$0
    779d: 86 13        	stx	$13                     ; 0x13 <__rc3>
    779f: 20 e9 5c     	jsr	$5ce9 <textPrint>
    77a2: a4 9a        	ldy	$9a                     ; 0x9a <__bss_size+0x15>
    77a4: e6 cd        	inc	$cd                     ; 0xcd <__bss_size+0x48>
    77a6: d0 02        	bne	$77aa <printf+0x22a>
    77a8: e6 ce        	inc	$ce                     ; 0xce <__bss_size+0x49>
    77aa: a5 98        	lda	$98                     ; 0x98 <__bss_size+0x13>
    77ac: 18           	clc
    77ad: 69 02        	adc	#$2
    77af: 85 9c        	sta	$9c                     ; 0x9c <__bss_size+0x17>
    77b1: a5 99        	lda	$99                     ; 0x99 <__bss_size+0x14>
    77b3: 69 00        	adc	#$0
    77b5: 85 9d        	sta	$9d                     ; 0x9d <__bss_size+0x18>
    77b7: 4c e5 75     	jmp	$75e5 <printf+0x65>
    77ba: 64 16        	stz	$16                     ; 0x16 <__rc6>
    77bc: 64 17        	stz	$17                     ; 0x17 <__rc7>
    77be: a4 15        	ldy	$15                     ; 0x15 <__rc5>
    77c0: a6 16        	ldx	$16                     ; 0x16 <__rc6>
    77c2: 86 d3        	stx	$d3                     ; 0xd3 <__bss_size+0x4e>
    77c4: a5 17        	lda	$17                     ; 0x17 <__rc7>
    77c6: 85 d4        	sta	$d4                     ; 0xd4 <__bss_size+0x4f>
    77c8: 86 1a        	stx	$1a                     ; 0x1a <__rc10>
    77ca: 85 9e        	sta	$9e                     ; 0x9e <__bss_size+0x19>
    77cc: b2 12        	lda	($12)                   ; 0x12 <__rc2>
    77ce: a2 ff        	ldx	#$ff
    77d0: c9 2e        	cmp	#$2e
    77d2: d0 39        	bne	$780d <printf+0x28d>
    77d4: b1 12        	lda	($12),y                 ; 0x12 <__rc2>
    77d6: c9 2a        	cmp	#$2a
    77d8: d0 38        	bne	$7812 <printf+0x292>
    77da: a5 d9        	lda	$d9                     ; 0xd9 <__bss_size+0x54>
    77dc: a6 da        	ldx	$da                     ; 0xda <__bss_size+0x55>
    77de: 85 14        	sta	$14                     ; 0x14 <__rc4>
    77e0: 86 15        	stx	$15                     ; 0x15 <__rc5>
    77e2: 18           	clc
    77e3: 69 02        	adc	#$2
    77e5: 85 16        	sta	$16                     ; 0x16 <__rc6>
    77e7: 8a           	txa
    77e8: 69 00        	adc	#$0
    77ea: a6 16        	ldx	$16                     ; 0x16 <__rc6>
    77ec: 86 d9        	stx	$d9                     ; 0xd9 <__bss_size+0x54>
    77ee: 85 da        	sta	$da                     ; 0xda <__bss_size+0x55>
    77f0: a5 12        	lda	$12                     ; 0x12 <__rc2>
    77f2: 18           	clc
    77f3: 69 02        	adc	#$2
    77f5: 85 12        	sta	$12                     ; 0x12 <__rc2>
    77f7: a5 13        	lda	$13                     ; 0x13 <__rc3>
    77f9: 69 00        	adc	#$0
    77fb: 85 13        	sta	$13                     ; 0x13 <__rc3>
    77fd: b2 14        	lda	($14)                   ; 0x14 <__rc4>
    77ff: aa           	tax
    7800: b1 14        	lda	($14),y                 ; 0x14 <__rc4>
    7802: 86 18        	stx	$18                     ; 0x18 <__rc8>
    7804: 86 d5        	stx	$d5                     ; 0xd5 <__bss_size+0x50>
    7806: 85 19        	sta	$19                     ; 0x19 <__rc9>
    7808: 85 d6        	sta	$d6                     ; 0xd6 <__bss_size+0x51>
    780a: 4c d0 78     	jmp	$78d0 <printf+0x350>
    780d: 86 a0        	stx	$a0                     ; 0xa0 <__bss_size+0x1b>
    780f: 4c e4 78     	jmp	$78e4 <printf+0x364>
    7812: 18           	clc
    7813: 85 17        	sta	$17                     ; 0x17 <__rc7>
    7815: 69 d0        	adc	#$d0
    7817: c9 0a        	cmp	#$a
    7819: 90 03        	bcc	$781e <printf+0x29e>
    781b: 4c c2 78     	jmp	$78c2 <printf+0x342>
    781e: 64 16        	stz	$16                     ; 0x16 <__rc6>
    7820: a2 01        	ldx	#$1
    7822: 64 18        	stz	$18                     ; 0x18 <__rc8>
    7824: 64 19        	stz	$19                     ; 0x19 <__rc9>
    7826: 84 1b        	sty	$1b                     ; 0x1b <__rc11>
    7828: 64 1c        	stz	$1c                     ; 0x1c <__rc12>
    782a: 18           	clc
    782b: a0 01        	ldy	#$1
    782d: b0 02        	bcs	$7831 <printf+0x2b1>
    782f: a0 00        	ldy	#$0
    7831: 84 1d        	sty	$1d                     ; 0x1d <__rc13>
    7833: a4 1c        	ldy	$1c                     ; 0x1c <__rc12>
    7835: 84 14        	sty	$14                     ; 0x14 <__rc4>
    7837: 86 15        	stx	$15                     ; 0x15 <__rc5>
    7839: 06 18        	asl	$18                     ; 0x18 <__rc8>
    783b: 26 19        	rol	$19                     ; 0x19 <__rc9>
    783d: a5 18        	lda	$18                     ; 0x18 <__rc8>
    783f: 0a           	asl
    7840: a8           	tay
    7841: a5 19        	lda	$19                     ; 0x19 <__rc9>
    7843: 2a           	rol
    7844: 84 1e        	sty	$1e                     ; 0x1e <__rc14>
    7846: 06 1e        	asl	$1e                     ; 0x1e <__rc14>
    7848: 2a           	rol
    7849: 85 22        	sta	$22                     ; 0x22 <__rc18>
    784b: a5 1e        	lda	$1e                     ; 0x1e <__rc14>
    784d: a4 1d        	ldy	$1d                     ; 0x1d <__rc13>
    784f: c0 01        	cpy	#$1
    7851: 65 18        	adc	$18                     ; 0x18 <__rc8>
    7853: 85 18        	sta	$18                     ; 0x18 <__rc8>
    7855: a5 22        	lda	$22                     ; 0x22 <__rc18>
    7857: 65 19        	adc	$19                     ; 0x19 <__rc9>
    7859: 85 19        	sta	$19                     ; 0x19 <__rc9>
    785b: a5 18        	lda	$18                     ; 0x18 <__rc8>
    785d: a4 1d        	ldy	$1d                     ; 0x1d <__rc13>
    785f: c0 01        	cpy	#$1
    7861: 65 17        	adc	$17                     ; 0x17 <__rc7>
    7863: 85 17        	sta	$17                     ; 0x17 <__rc7>
    7865: a5 19        	lda	$19                     ; 0x19 <__rc9>
    7867: 65 16        	adc	$16                     ; 0x16 <__rc6>
    7869: 85 16        	sta	$16                     ; 0x16 <__rc6>
    786b: 18           	clc
    786c: a5 17        	lda	$17                     ; 0x17 <__rc7>
    786e: 69 d0        	adc	#$d0
    7870: 85 18        	sta	$18                     ; 0x18 <__rc8>
    7872: a5 16        	lda	$16                     ; 0x16 <__rc6>
    7874: 69 ff        	adc	#$ff
    7876: 85 19        	sta	$19                     ; 0x19 <__rc9>
    7878: e8           	inx
    7879: d0 02        	bne	$787d <printf+0x2fd>
    787b: e6 1c        	inc	$1c                     ; 0x1c <__rc12>
    787d: a5 12        	lda	$12                     ; 0x12 <__rc2>
    787f: a4 1d        	ldy	$1d                     ; 0x1d <__rc13>
    7881: c0 01        	cpy	#$1
    7883: 65 15        	adc	$15                     ; 0x15 <__rc5>
    7885: a8           	tay
    7886: a5 13        	lda	$13                     ; 0x13 <__rc3>
    7888: 65 14        	adc	$14                     ; 0x14 <__rc4>
    788a: 84 16        	sty	$16                     ; 0x16 <__rc6>
    788c: 85 17        	sta	$17                     ; 0x17 <__rc7>
    788e: a4 1b        	ldy	$1b                     ; 0x1b <__rc11>
    7890: b1 16        	lda	($16),y                 ; 0x16 <__rc6>
    7892: 85 17        	sta	$17                     ; 0x17 <__rc7>
    7894: 18           	clc
    7895: 69 d0        	adc	#$d0
    7897: c9 0a        	cmp	#$a
    7899: 64 16        	stz	$16                     ; 0x16 <__rc6>
    789b: b0 03        	bcs	$78a0 <printf+0x320>
    789d: 4c 33 78     	jmp	$7833 <printf+0x2b3>
    78a0: a5 12        	lda	$12                     ; 0x12 <__rc2>
    78a2: a6 1d        	ldx	$1d                     ; 0x1d <__rc13>
    78a4: e0 01        	cpx	#$1
    78a6: 65 15        	adc	$15                     ; 0x15 <__rc5>
    78a8: 85 12        	sta	$12                     ; 0x12 <__rc2>
    78aa: a5 13        	lda	$13                     ; 0x13 <__rc3>
    78ac: 65 14        	adc	$14                     ; 0x14 <__rc4>
    78ae: 85 13        	sta	$13                     ; 0x13 <__rc3>
    78b0: e6 12        	inc	$12                     ; 0x12 <__rc2>
    78b2: d0 02        	bne	$78b6 <printf+0x336>
    78b4: e6 13        	inc	$13                     ; 0x13 <__rc3>
    78b6: a6 18        	ldx	$18                     ; 0x18 <__rc8>
    78b8: 86 d5        	stx	$d5                     ; 0xd5 <__bss_size+0x50>
    78ba: a6 19        	ldx	$19                     ; 0x19 <__rc9>
    78bc: 86 d6        	stx	$d6                     ; 0xd6 <__bss_size+0x51>
    78be: a4 1b        	ldy	$1b                     ; 0x1b <__rc11>
    78c0: 80 0e        	bra	$78d0 <printf+0x350>
    78c2: e6 12        	inc	$12                     ; 0x12 <__rc2>
    78c4: d0 02        	bne	$78c8 <printf+0x348>
    78c6: e6 13        	inc	$13                     ; 0x13 <__rc3>
    78c8: 64 18        	stz	$18                     ; 0x18 <__rc8>
    78ca: 64 d5        	stz	$d5                     ; 0xd5 <__bss_size+0x50>
    78cc: 64 d6        	stz	$d6                     ; 0xd6 <__bss_size+0x51>
    78ce: 64 19        	stz	$19                     ; 0x19 <__rc9>
    78d0: a5 9a        	lda	$9a                     ; 0x9a <__bss_size+0x15>
    78d2: 29 ef        	and	#$ef
    78d4: 85 9a        	sta	$9a                     ; 0x9a <__bss_size+0x15>
    78d6: 85 c9        	sta	$c9                     ; 0xc9 <__bss_size+0x44>
    78d8: a2 00        	ldx	#$0
    78da: 86 ca        	stx	$ca                     ; 0xca <__bss_size+0x45>
    78dc: b2 12        	lda	($12)                   ; 0x12 <__rc2>
    78de: a6 18        	ldx	$18                     ; 0x18 <__rc8>
    78e0: 86 a0        	stx	$a0                     ; 0xa0 <__bss_size+0x1b>
    78e2: a6 19        	ldx	$19                     ; 0x19 <__rc9>
    78e4: 86 9f        	stx	$9f                     ; 0x9f <__bss_size+0x1a>
    78e6: a6 12        	ldx	$12                     ; 0x12 <__rc2>
    78e8: 86 14        	stx	$14                     ; 0x14 <__rc4>
    78ea: a6 13        	ldx	$13                     ; 0x13 <__rc3>
    78ec: 86 15        	stx	$15                     ; 0x15 <__rc5>
    78ee: e6 14        	inc	$14                     ; 0x14 <__rc4>
    78f0: d0 02        	bne	$78f4 <printf+0x374>
    78f2: e6 15        	inc	$15                     ; 0x15 <__rc5>
    78f4: 85 16        	sta	$16                     ; 0x16 <__rc6>
    78f6: 38           	sec
    78f7: e9 6c        	sbc	#$6c
    78f9: 50 02        	bvc	$78fd <printf+0x37d>
    78fb: 49 80        	eor	#$80
    78fd: aa           	tax
    78fe: 10 27        	bpl	$7927 <printf+0x3a7>
    7900: a6 16        	ldx	$16                     ; 0x16 <__rc6>
    7902: e0 4c        	cpx	#$4c
    7904: f0 3f        	beq	$7945 <printf+0x3c5>
    7906: e0 68        	cpx	#$68
    7908: d0 03        	bne	$790d <printf+0x38d>
    790a: 4c 86 79     	jmp	$7986 <printf+0x406>
    790d: a4 16        	ldy	$16                     ; 0x16 <__rc6>
    790f: a9 01        	lda	#$1
    7911: a2 08        	ldx	#$8
    7913: c0 6a        	cpy	#$6a
    7915: d0 28        	bne	$793f <printf+0x3bf>
    7917: a4 14        	ldy	$14                     ; 0x14 <__rc4>
    7919: 84 12        	sty	$12                     ; 0x12 <__rc2>
    791b: a4 15        	ldy	$15                     ; 0x15 <__rc5>
    791d: 84 13        	sty	$13                     ; 0x13 <__rc3>
    791f: a0 08        	ldy	#$8
    7921: 84 9b        	sty	$9b                     ; 0x9b <__bss_size+0x16>
    7923: a8           	tay
    7924: 4c a0 79     	jmp	$79a0 <printf+0x420>
    7927: a6 16        	ldx	$16                     ; 0x16 <__rc6>
    7929: e0 6c        	cpx	#$6c
    792b: f0 38        	beq	$7965 <printf+0x3e5>
    792d: e0 74        	cpx	#$74
    792f: f0 20        	beq	$7951 <printf+0x3d1>
    7931: a9 01        	lda	#$1
    7933: e0 7a        	cpx	#$7a
    7935: d0 08        	bne	$793f <printf+0x3bf>
    7937: a6 14        	ldx	$14                     ; 0x14 <__rc4>
    7939: 86 12        	stx	$12                     ; 0x12 <__rc2>
    793b: a6 15        	ldx	$15                     ; 0x15 <__rc5>
    793d: 86 13        	stx	$13                     ; 0x13 <__rc3>
    793f: a2 02        	ldx	#$2
    7941: 86 a2        	stx	$a2                     ; 0xa2 <__bss_size+0x1d>
    7943: 80 19        	bra	$795e <printf+0x3de>
    7945: a5 9a        	lda	$9a                     ; 0x9a <__bss_size+0x15>
    7947: 09 40        	ora	#$40
    7949: 85 9a        	sta	$9a                     ; 0x9a <__bss_size+0x15>
    794b: 85 c9        	sta	$c9                     ; 0xc9 <__bss_size+0x44>
    794d: a2 00        	ldx	#$0
    794f: 86 ca        	stx	$ca                     ; 0xca <__bss_size+0x45>
    7951: a6 14        	ldx	$14                     ; 0x14 <__rc4>
    7953: 86 12        	stx	$12                     ; 0x12 <__rc2>
    7955: a6 15        	ldx	$15                     ; 0x15 <__rc5>
    7957: 86 13        	stx	$13                     ; 0x13 <__rc3>
    7959: a2 02        	ldx	#$2
    795b: 86 a2        	stx	$a2                     ; 0xa2 <__bss_size+0x1d>
    795d: 98           	tya
    795e: a0 02        	ldy	#$2
    7960: 84 9b        	sty	$9b                     ; 0x9b <__bss_size+0x16>
    7962: a8           	tay
    7963: 80 3d        	bra	$79a2 <printf+0x422>
    7965: b1 12        	lda	($12),y                 ; 0x12 <__rc2>
    7967: a2 04        	ldx	#$4
    7969: c9 6c        	cmp	#$6c
    796b: f0 03        	beq	$7970 <printf+0x3f0>
    796d: 4c d2 79     	jmp	$79d2 <printf+0x452>
    7970: a5 12        	lda	$12                     ; 0x12 <__rc2>
    7972: 18           	clc
    7973: 69 02        	adc	#$2
    7975: 85 12        	sta	$12                     ; 0x12 <__rc2>
    7977: a5 13        	lda	$13                     ; 0x13 <__rc3>
    7979: 69 00        	adc	#$0
    797b: 85 13        	sta	$13                     ; 0x13 <__rc3>
    797d: a2 08        	ldx	#$8
    797f: 86 a2        	stx	$a2                     ; 0xa2 <__bss_size+0x1d>
    7981: 98           	tya
    7982: a0 08        	ldy	#$8
    7984: 80 da        	bra	$7960 <printf+0x3e0>
    7986: b1 12        	lda	($12),y                 ; 0x12 <__rc2>
    7988: a2 02        	ldx	#$2
    798a: c9 68        	cmp	#$68
    798c: d0 44        	bne	$79d2 <printf+0x452>
    798e: a5 12        	lda	$12                     ; 0x12 <__rc2>
    7990: 18           	clc
    7991: 69 02        	adc	#$2
    7993: 85 12        	sta	$12                     ; 0x12 <__rc2>
    7995: a5 13        	lda	$13                     ; 0x13 <__rc3>
    7997: 69 00        	adc	#$0
    7999: 85 13        	sta	$13                     ; 0x13 <__rc3>
    799b: a2 01        	ldx	#$1
    799d: 86 9b        	stx	$9b                     ; 0x9b <__bss_size+0x16>
    799f: e8           	inx
    79a0: 86 a2        	stx	$a2                     ; 0xa2 <__bss_size+0x1d>
    79a2: b2 12        	lda	($12)                   ; 0x12 <__rc2>
    79a4: a6 12        	ldx	$12                     ; 0x12 <__rc2>
    79a6: 86 dd        	stx	$dd                     ; 0xdd <__bss_size+0x58>
    79a8: a6 13        	ldx	$13                     ; 0x13 <__rc3>
    79aa: 86 de        	stx	$de                     ; 0xde <__bss_size+0x59>
    79ac: 18           	clc
    79ad: aa           	tax
    79ae: 69 9d        	adc	#$9d
    79b0: c9 16        	cmp	#$16
    79b2: b0 2e        	bcs	$79e2 <printf+0x462>
    79b4: 0a           	asl
    79b5: aa           	tax
    79b6: 7c 15 88     	jmp	($8815,x)               ; 0x8815 <__BLOCK_SIZE+0x6815>
    79b9: a6 98        	ldx	$98                     ; 0x98 <__bss_size+0x13>
    79bb: 86 df        	stx	$df                     ; 0xdf <__bss_size+0x5a>
    79bd: a6 99        	ldx	$99                     ; 0x99 <__bss_size+0x14>
    79bf: 86 e0        	stx	$e0                     ; 0xe0 <__bss_size+0x5b>
    79c1: a6 1a        	ldx	$1a                     ; 0x1a <__rc10>
    79c3: 86 99        	stx	$99                     ; 0x99 <__bss_size+0x14>
    79c5: a0 0a        	ldy	#$a
    79c7: a2 0a        	ldx	#$a
    79c9: 86 98        	stx	$98                     ; 0x98 <__bss_size+0x13>
    79cb: 84 c8        	sty	$c8                     ; 0xc8 <__bss_size+0x43>
    79cd: 64 9c        	stz	$9c                     ; 0x9c <__bss_size+0x17>
    79cf: 4c fb 7a     	jmp	$7afb <printf+0x57b>
    79d2: 86 a2        	stx	$a2                     ; 0xa2 <__bss_size+0x1d>
    79d4: a6 14        	ldx	$14                     ; 0x14 <__rc4>
    79d6: 86 dd        	stx	$dd                     ; 0xdd <__bss_size+0x58>
    79d8: a6 15        	ldx	$15                     ; 0x15 <__rc5>
    79da: 86 de        	stx	$de                     ; 0xde <__bss_size+0x59>
    79dc: a6 a2        	ldx	$a2                     ; 0xa2 <__bss_size+0x1d>
    79de: 86 9b        	stx	$9b                     ; 0x9b <__bss_size+0x16>
    79e0: 80 ca        	bra	$79ac <printf+0x42c>
    79e2: e0 58        	cpx	#$58
    79e4: f0 03        	beq	$79e9 <printf+0x469>
    79e6: 4c 83 82     	jmp	$8283 <printf+0xd03>
    79e9: a6 98        	ldx	$98                     ; 0x98 <__bss_size+0x13>
    79eb: 86 df        	stx	$df                     ; 0xdf <__bss_size+0x5a>
    79ed: a6 99        	ldx	$99                     ; 0x99 <__bss_size+0x14>
    79ef: 86 e0        	stx	$e0                     ; 0xe0 <__bss_size+0x5b>
    79f1: a6 1a        	ldx	$1a                     ; 0x1a <__rc10>
    79f3: 86 99        	stx	$99                     ; 0x99 <__bss_size+0x14>
    79f5: a2 10        	ldx	#$10
    79f7: 86 c8        	stx	$c8                     ; 0xc8 <__bss_size+0x43>
    79f9: a9 00        	lda	#$0
    79fb: 09 01        	ora	#$1
    79fd: a6 9a        	ldx	$9a                     ; 0x9a <__bss_size+0x15>
    79ff: 80 31        	bra	$7a32 <printf+0x4b2>
    7a01: a6 98        	ldx	$98                     ; 0x98 <__bss_size+0x13>
    7a03: 86 df        	stx	$df                     ; 0xdf <__bss_size+0x5a>
    7a05: a6 99        	ldx	$99                     ; 0x99 <__bss_size+0x14>
    7a07: 86 e0        	stx	$e0                     ; 0xe0 <__bss_size+0x5b>
    7a09: a6 1a        	ldx	$1a                     ; 0x1a <__rc10>
    7a0b: 86 99        	stx	$99                     ; 0x99 <__bss_size+0x14>
    7a0d: a2 10        	ldx	#$10
    7a0f: 86 c8        	stx	$c8                     ; 0xc8 <__bss_size+0x43>
    7a11: a5 9a        	lda	$9a                     ; 0x9a <__bss_size+0x15>
    7a13: 09 84        	ora	#$84
    7a15: 80 14        	bra	$7a2b <printf+0x4ab>
    7a17: a6 98        	ldx	$98                     ; 0x98 <__bss_size+0x13>
    7a19: 86 df        	stx	$df                     ; 0xdf <__bss_size+0x5a>
    7a1b: a6 99        	ldx	$99                     ; 0x99 <__bss_size+0x14>
    7a1d: 86 e0        	stx	$e0                     ; 0xe0 <__bss_size+0x5b>
    7a1f: a6 1a        	ldx	$1a                     ; 0x1a <__rc10>
    7a21: 86 99        	stx	$99                     ; 0x99 <__bss_size+0x14>
    7a23: a2 10        	ldx	#$10
    7a25: 86 c8        	stx	$c8                     ; 0xc8 <__bss_size+0x43>
    7a27: a5 9a        	lda	$9a                     ; 0x9a <__bss_size+0x15>
    7a29: 09 80        	ora	#$80
    7a2b: aa           	tax
    7a2c: a9 00        	lda	#$0
    7a2e: 09 01        	ora	#$1
    7a30: 86 9a        	stx	$9a                     ; 0x9a <__bss_size+0x15>
    7a32: 86 c9        	stx	$c9                     ; 0xc9 <__bss_size+0x44>
    7a34: 85 9c        	sta	$9c                     ; 0x9c <__bss_size+0x17>
    7a36: 85 ca        	sta	$ca                     ; 0xca <__bss_size+0x45>
    7a38: a2 10        	ldx	#$10
    7a3a: 86 98        	stx	$98                     ; 0x98 <__bss_size+0x13>
    7a3c: 4c fb 7a     	jmp	$7afb <printf+0x57b>
    7a3f: a5 d9        	lda	$d9                     ; 0xd9 <__bss_size+0x54>
    7a41: a6 da        	ldx	$da                     ; 0xda <__bss_size+0x55>
    7a43: 85 12        	sta	$12                     ; 0x12 <__rc2>
    7a45: 86 13        	stx	$13                     ; 0x13 <__rc3>
    7a47: 18           	clc
    7a48: 69 02        	adc	#$2
    7a4a: 85 14        	sta	$14                     ; 0x14 <__rc4>
    7a4c: 8a           	txa
    7a4d: 69 00        	adc	#$0
    7a4f: a6 14        	ldx	$14                     ; 0x14 <__rc4>
    7a51: 86 d9        	stx	$d9                     ; 0xd9 <__bss_size+0x54>
    7a53: 85 da        	sta	$da                     ; 0xda <__bss_size+0x55>
    7a55: b2 12        	lda	($12)                   ; 0x12 <__rc2>
    7a57: aa           	tax
    7a58: b1 12        	lda	($12),y                 ; 0x12 <__rc2>
    7a5a: 86 12        	stx	$12                     ; 0x12 <__rc2>
    7a5c: 85 13        	sta	$13                     ; 0x13 <__rc3>
    7a5e: a5 cd        	lda	$cd                     ; 0xcd <__bss_size+0x48>
    7a60: a6 ce        	ldx	$ce                     ; 0xce <__bss_size+0x49>
    7a62: 92 12        	sta	($12)                   ; 0x12 <__rc2>
    7a64: 8a           	txa
    7a65: 91 12        	sta	($12),y                 ; 0x12 <__rc2>
    7a67: 4c d0 7a     	jmp	$7ad0 <printf+0x550>
    7a6a: a5 d9        	lda	$d9                     ; 0xd9 <__bss_size+0x54>
    7a6c: a6 da        	ldx	$da                     ; 0xda <__bss_size+0x55>
    7a6e: 85 12        	sta	$12                     ; 0x12 <__rc2>
    7a70: 86 13        	stx	$13                     ; 0x13 <__rc3>
    7a72: 18           	clc
    7a73: 69 02        	adc	#$2
    7a75: 85 14        	sta	$14                     ; 0x14 <__rc4>
    7a77: 8a           	txa
    7a78: 69 00        	adc	#$0
    7a7a: a6 14        	ldx	$14                     ; 0x14 <__rc4>
    7a7c: 86 d9        	stx	$d9                     ; 0xd9 <__bss_size+0x54>
    7a7e: 85 da        	sta	$da                     ; 0xda <__bss_size+0x55>
    7a80: b2 12        	lda	($12)                   ; 0x12 <__rc2>
    7a82: aa           	tax
    7a83: b1 12        	lda	($12),y                 ; 0x12 <__rc2>
    7a85: 86 12        	stx	$12                     ; 0x12 <__rc2>
    7a87: 85 13        	sta	$13                     ; 0x13 <__rc3>
    7a89: 80 36        	bra	$7ac1 <printf+0x541>
    7a8b: a6 98        	ldx	$98                     ; 0x98 <__bss_size+0x13>
    7a8d: 86 df        	stx	$df                     ; 0xdf <__bss_size+0x5a>
    7a8f: a6 99        	ldx	$99                     ; 0x99 <__bss_size+0x14>
    7a91: 86 e0        	stx	$e0                     ; 0xe0 <__bss_size+0x5b>
    7a93: a6 1a        	ldx	$1a                     ; 0x1a <__rc10>
    7a95: 86 99        	stx	$99                     ; 0x99 <__bss_size+0x14>
    7a97: a0 08        	ldy	#$8
    7a99: a2 08        	ldx	#$8
    7a9b: 80 4e        	bra	$7aeb <printf+0x56b>
    7a9d: a5 d9        	lda	$d9                     ; 0xd9 <__bss_size+0x54>
    7a9f: a6 da        	ldx	$da                     ; 0xda <__bss_size+0x55>
    7aa1: 85 12        	sta	$12                     ; 0x12 <__rc2>
    7aa3: 86 13        	stx	$13                     ; 0x13 <__rc3>
    7aa5: 18           	clc
    7aa6: 69 02        	adc	#$2
    7aa8: 85 14        	sta	$14                     ; 0x14 <__rc4>
    7aaa: 8a           	txa
    7aab: 69 00        	adc	#$0
    7aad: a6 14        	ldx	$14                     ; 0x14 <__rc4>
    7aaf: 86 d9        	stx	$d9                     ; 0xd9 <__bss_size+0x54>
    7ab1: 85 da        	sta	$da                     ; 0xda <__bss_size+0x55>
    7ab3: b2 12        	lda	($12)                   ; 0x12 <__rc2>
    7ab5: 85 bb        	sta	$bb                     ; 0xbb <__bss_size+0x36>
    7ab7: 64 bc        	stz	$bc                     ; 0xbc <__bss_size+0x37>
    7ab9: a2 bb        	ldx	#$bb
    7abb: 86 12        	stx	$12                     ; 0x12 <__rc2>
    7abd: a2 00        	ldx	#$0
    7abf: 86 13        	stx	$13                     ; 0x13 <__rc3>
    7ac1: a2 c8        	ldx	#$c8
    7ac3: 86 14        	stx	$14                     ; 0x14 <__rc4>
    7ac5: a2 00        	ldx	#$0
    7ac7: 86 15        	stx	$15                     ; 0x15 <__rc5>
    7ac9: 84 9e        	sty	$9e                     ; 0x9e <__bss_size+0x19>
    7acb: 20 71 74     	jsr	$7471 <_ZN12_GLOBAL__N_112print_stringEPKcP6Status>
    7ace: a4 9e        	ldy	$9e                     ; 0x9e <__bss_size+0x19>
    7ad0: a6 dd        	ldx	$dd                     ; 0xdd <__bss_size+0x58>
    7ad2: 86 9c        	stx	$9c                     ; 0x9c <__bss_size+0x17>
    7ad4: a6 de        	ldx	$de                     ; 0xde <__bss_size+0x59>
    7ad6: 86 9d        	stx	$9d                     ; 0x9d <__bss_size+0x18>
    7ad8: 4c 6b 82     	jmp	$826b <printf+0xceb>
    7adb: a6 98        	ldx	$98                     ; 0x98 <__bss_size+0x13>
    7add: 86 df        	stx	$df                     ; 0xdf <__bss_size+0x5a>
    7adf: a6 99        	ldx	$99                     ; 0x99 <__bss_size+0x14>
    7ae1: 86 e0        	stx	$e0                     ; 0xe0 <__bss_size+0x5b>
    7ae3: a6 1a        	ldx	$1a                     ; 0x1a <__rc10>
    7ae5: 86 99        	stx	$99                     ; 0x99 <__bss_size+0x14>
    7ae7: a0 0a        	ldy	#$a
    7ae9: a2 0a        	ldx	#$a
    7aeb: 86 98        	stx	$98                     ; 0x98 <__bss_size+0x13>
    7aed: 84 c8        	sty	$c8                     ; 0xc8 <__bss_size+0x43>
    7aef: a9 00        	lda	#$0
    7af1: 09 01        	ora	#$1
    7af3: a6 9a        	ldx	$9a                     ; 0x9a <__bss_size+0x15>
    7af5: 86 c9        	stx	$c9                     ; 0xc9 <__bss_size+0x44>
    7af7: 85 9c        	sta	$9c                     ; 0x9c <__bss_size+0x17>
    7af9: 85 ca        	sta	$ca                     ; 0xca <__bss_size+0x45>
    7afb: a5 9b        	lda	$9b                     ; 0x9b <__bss_size+0x16>
    7afd: 85 bd        	sta	$bd                     ; 0xbd <__bss_size+0x38>
    7aff: a4 d9        	ldy	$d9                     ; 0xd9 <__bss_size+0x54>
    7b01: a6 da        	ldx	$da                     ; 0xda <__bss_size+0x55>
    7b03: 86 a3        	stx	$a3                     ; 0xa3 <__bss_size+0x1e>
    7b05: 84 14        	sty	$14                     ; 0x14 <__rc4>
    7b07: 84 a1        	sty	$a1                     ; 0xa1 <__bss_size+0x1c>
    7b09: 86 15        	stx	$15                     ; 0x15 <__rc5>
    7b0b: a6 e1        	ldx	$e1                     ; 0xe1 <__bss_size+0x5c>
    7b0d: 86 12        	stx	$12                     ; 0x12 <__rc2>
    7b0f: a6 e2        	ldx	$e2                     ; 0xe2 <__bss_size+0x5d>
    7b11: 86 13        	stx	$13                     ; 0x13 <__rc3>
    7b13: a2 00        	ldx	#$0
    7b15: 85 9d        	sta	$9d                     ; 0x9d <__bss_size+0x18>
    7b17: 20 a4 84     	jsr	$84a4 <memcpy>
    7b1a: 18           	clc
    7b1b: a5 a1        	lda	$a1                     ; 0xa1 <__bss_size+0x1c>
    7b1d: 65 a2        	adc	$a2                     ; 0xa2 <__bss_size+0x1d>
    7b1f: aa           	tax
    7b20: a5 a3        	lda	$a3                     ; 0xa3 <__bss_size+0x1e>
    7b22: 69 00        	adc	#$0
    7b24: 86 d9        	stx	$d9                     ; 0xd9 <__bss_size+0x54>
    7b26: 85 da        	sta	$da                     ; 0xda <__bss_size+0x55>
    7b28: a5 9c        	lda	$9c                     ; 0x9c <__bss_size+0x17>
    7b2a: 29 01        	and	#$1
    7b2c: a0 00        	ldy	#$0
    7b2e: aa           	tax
    7b2f: d0 4a        	bne	$7b7b <printf+0x5fb>
    7b31: a6 9d        	ldx	$9d                     ; 0x9d <__bss_size+0x18>
    7b33: b5 bd        	lda	$bd,x                   ; 0xbd <__bss_size+0x38>
    7b35: aa           	tax
    7b36: a5 99        	lda	$99                     ; 0x99 <__bss_size+0x14>
    7b38: 85 17        	sta	$17                     ; 0x17 <__rc7>
    7b3a: a5 9e        	lda	$9e                     ; 0x9e <__bss_size+0x19>
    7b3c: 85 1a        	sta	$1a                     ; 0x1a <__rc10>
    7b3e: a5 a0        	lda	$a0                     ; 0xa0 <__bss_size+0x1b>
    7b40: 85 9e        	sta	$9e                     ; 0x9e <__bss_size+0x19>
    7b42: 8a           	txa
    7b43: 10 42        	bpl	$7b87 <printf+0x607>
    7b45: a2 00        	ldx	#$0
    7b47: 64 12        	stz	$12                     ; 0x12 <__rc2>
    7b49: a9 00        	lda	#$0
    7b4b: 38           	sec
    7b4c: f5 be        	sbc	$be,x                   ; 0xbe <__bss_size+0x39>
    7b4e: a0 01        	ldy	#$1
    7b50: 84 14        	sty	$14                     ; 0x14 <__rc4>
    7b52: 88           	dey
    7b53: b0 02        	bcs	$7b57 <printf+0x5d7>
    7b55: a0 01        	ldy	#$1
    7b57: 38           	sec
    7b58: e5 12        	sbc	$12                     ; 0x12 <__rc2>
    7b5a: 85 13        	sta	$13                     ; 0x13 <__rc3>
    7b5c: 64 12        	stz	$12                     ; 0x12 <__rc2>
    7b5e: b0 04        	bcs	$7b64 <printf+0x5e4>
    7b60: a5 14        	lda	$14                     ; 0x14 <__rc4>
    7b62: 85 12        	sta	$12                     ; 0x12 <__rc2>
    7b64: 98           	tya
    7b65: 05 12        	ora	$12                     ; 0x12 <__rc2>
    7b67: 85 12        	sta	$12                     ; 0x12 <__rc2>
    7b69: a5 13        	lda	$13                     ; 0x13 <__rc3>
    7b6b: 9d be 00     	sta	$be,x                   ; 0xbe <__bss_size+0x39>
    7b6e: e8           	inx
    7b6f: 86 13        	stx	$13                     ; 0x13 <__rc3>
    7b71: a4 9b        	ldy	$9b                     ; 0x9b <__bss_size+0x16>
    7b73: c4 13        	cpy	$13                     ; 0x13 <__rc3>
    7b75: d0 d2        	bne	$7b49 <printf+0x5c9>
    7b77: a0 01        	ldy	#$1
    7b79: 80 0c        	bra	$7b87 <printf+0x607>
    7b7b: a6 99        	ldx	$99                     ; 0x99 <__bss_size+0x14>
    7b7d: 86 17        	stx	$17                     ; 0x17 <__rc7>
    7b7f: a6 9e        	ldx	$9e                     ; 0x9e <__bss_size+0x19>
    7b81: 86 1a        	stx	$1a                     ; 0x1a <__rc10>
    7b83: a6 a0        	ldx	$a0                     ; 0xa0 <__bss_size+0x1b>
    7b85: 86 9e        	stx	$9e                     ; 0x9e <__bss_size+0x19>
    7b87: 84 18        	sty	$18                     ; 0x18 <__rc8>
    7b89: a5 9b        	lda	$9b                     ; 0x9b <__bss_size+0x16>
    7b8b: 0a           	asl
    7b8c: 0a           	asl
    7b8d: 0a           	asl
    7b8e: 85 12        	sta	$12                     ; 0x12 <__rc2>
    7b90: a2 00        	ldx	#$0
    7b92: 8a           	txa
    7b93: 4c 4a 7c     	jmp	$7c4a <printf+0x6ca>
    7b96: a4 13        	ldy	$13                     ; 0x13 <__rc3>
    7b98: 99 a6 00     	sta	$a6,y                   ; 0xa6 <__bss_size+0x21>
    7b9b: a4 15        	ldy	$15                     ; 0x15 <__rc5>
    7b9d: c4 13        	cpy	$13                     ; 0x13 <__rc3>
    7b9f: f0 38        	beq	$7bd9 <printf+0x659>
    7ba1: e6 13        	inc	$13                     ; 0x13 <__rc3>
    7ba3: a4 13        	ldy	$13                     ; 0x13 <__rc3>
    7ba5: b9 a6 00     	lda	$a6,y                   ; 0xa6 <__bss_size+0x21>
    7ba8: 0a           	asl
    7ba9: e0 00        	cpx	#$0
    7bab: f0 02        	beq	$7baf <printf+0x62f>
    7bad: 09 01        	ora	#$1
    7baf: a4 98        	ldy	$98                     ; 0x98 <__bss_size+0x13>
    7bb1: 84 14        	sty	$14                     ; 0x14 <__rc4>
    7bb3: c5 14        	cmp	$14                     ; 0x14 <__rc4>
    7bb5: a2 01        	ldx	#$1
    7bb7: b0 02        	bcs	$7bbb <printf+0x63b>
    7bb9: a2 00        	ldx	#$0
    7bbb: 90 d9        	bcc	$7b96 <printf+0x616>
    7bbd: 84 14        	sty	$14                     ; 0x14 <__rc4>
    7bbf: 38           	sec
    7bc0: e5 14        	sbc	$14                     ; 0x14 <__rc4>
    7bc2: a4 13        	ldy	$13                     ; 0x13 <__rc3>
    7bc4: 99 a6 00     	sta	$a6,y                   ; 0xa6 <__bss_size+0x21>
    7bc7: a4 15        	ldy	$15                     ; 0x15 <__rc5>
    7bc9: c4 13        	cpy	$13                     ; 0x13 <__rc3>
    7bcb: d0 d4        	bne	$7ba1 <printf+0x621>
    7bcd: a4 99        	ldy	$99                     ; 0x99 <__bss_size+0x14>
    7bcf: a6 99        	ldx	$99                     ; 0x99 <__bss_size+0x14>
    7bd1: e8           	inx
    7bd2: a9 01        	lda	#$1
    7bd4: 99 a6 00     	sta	$a6,y                   ; 0xa6 <__bss_size+0x21>
    7bd7: 86 99        	stx	$99                     ; 0x99 <__bss_size+0x14>
    7bd9: a6 9b        	ldx	$9b                     ; 0x9b <__bss_size+0x16>
    7bdb: b5 bd        	lda	$bd,x                   ; 0xbd <__bss_size+0x38>
    7bdd: aa           	tax
    7bde: 10 41        	bpl	$7c21 <printf+0x6a1>
    7be0: a5 99        	lda	$99                     ; 0x99 <__bss_size+0x14>
    7be2: f0 2f        	beq	$7c13 <printf+0x693>
    7be4: a2 00        	ldx	#$0
    7be6: a4 98        	ldy	$98                     ; 0x98 <__bss_size+0x13>
    7be8: 84 14        	sty	$14                     ; 0x14 <__rc4>
    7bea: b5 a6        	lda	$a6,x                   ; 0xa6 <__bss_size+0x21>
    7bec: 1a           	inc
    7bed: f6 a6        	inc	$a6,x                   ; 0xa6 <__bss_size+0x21>
    7bef: c5 14        	cmp	$14                     ; 0x14 <__rc4>
    7bf1: 90 2e        	bcc	$7c21 <printf+0x6a1>
    7bf3: a4 98        	ldy	$98                     ; 0x98 <__bss_size+0x13>
    7bf5: 84 13        	sty	$13                     ; 0x13 <__rc3>
    7bf7: 38           	sec
    7bf8: e5 13        	sbc	$13                     ; 0x13 <__rc3>
    7bfa: 9d a6 00     	sta	$a6,x                   ; 0xa6 <__bss_size+0x21>
    7bfd: e8           	inx
    7bfe: 86 13        	stx	$13                     ; 0x13 <__rc3>
    7c00: a4 99        	ldy	$99                     ; 0x99 <__bss_size+0x14>
    7c02: c4 13        	cpy	$13                     ; 0x13 <__rc3>
    7c04: d0 e4        	bne	$7bea <printf+0x66a>
    7c06: 80 0d        	bra	$7c15 <printf+0x695>
    7c08: a6 9b        	ldx	$9b                     ; 0x9b <__bss_size+0x16>
    7c0a: b5 bd        	lda	$bd,x                   ; 0xbd <__bss_size+0x38>
    7c0c: aa           	tax
    7c0d: 64 99        	stz	$99                     ; 0x99 <__bss_size+0x14>
    7c0f: 30 04        	bmi	$7c15 <printf+0x695>
    7c11: 80 0e        	bra	$7c21 <printf+0x6a1>
    7c13: 64 99        	stz	$99                     ; 0x99 <__bss_size+0x14>
    7c15: a4 99        	ldy	$99                     ; 0x99 <__bss_size+0x14>
    7c17: a6 99        	ldx	$99                     ; 0x99 <__bss_size+0x14>
    7c19: e8           	inx
    7c1a: a9 01        	lda	#$1
    7c1c: 99 a6 00     	sta	$a6,y                   ; 0xa6 <__bss_size+0x21>
    7c1f: 86 99        	stx	$99                     ; 0x99 <__bss_size+0x14>
    7c21: a2 01        	ldx	#$1
    7c23: 86 16        	stx	$16                     ; 0x16 <__rc6>
    7c25: 64 13        	stz	$13                     ; 0x13 <__rc3>
    7c27: ca           	dex
    7c28: a4 9b        	ldy	$9b                     ; 0x9b <__bss_size+0x16>
    7c2a: b5 be        	lda	$be,x                   ; 0xbe <__bss_size+0x39>
    7c2c: 0a           	asl
    7c2d: 64 14        	stz	$14                     ; 0x14 <__rc4>
    7c2f: 26 14        	rol	$14                     ; 0x14 <__rc4>
    7c31: 05 13        	ora	$13                     ; 0x13 <__rc3>
    7c33: 9d be 00     	sta	$be,x                   ; 0xbe <__bss_size+0x39>
    7c36: e8           	inx
    7c37: 86 15        	stx	$15                     ; 0x15 <__rc5>
    7c39: a5 14        	lda	$14                     ; 0x14 <__rc4>
    7c3b: 85 13        	sta	$13                     ; 0x13 <__rc3>
    7c3d: c4 15        	cpy	$15                     ; 0x15 <__rc5>
    7c3f: d0 e9        	bne	$7c2a <printf+0x6aa>
    7c41: a5 19        	lda	$19                     ; 0x19 <__rc9>
    7c43: 1a           	inc
    7c44: c5 12        	cmp	$12                     ; 0x12 <__rc2>
    7c46: a6 99        	ldx	$99                     ; 0x99 <__bss_size+0x14>
    7c48: b0 12        	bcs	$7c5c <printf+0x6dc>
    7c4a: 85 19        	sta	$19                     ; 0x19 <__rc9>
    7c4c: 8a           	txa
    7c4d: f0 b9        	beq	$7c08 <printf+0x688>
    7c4f: 8a           	txa
    7c50: 86 99        	stx	$99                     ; 0x99 <__bss_size+0x14>
    7c52: 3a           	dec
    7c53: 85 15        	sta	$15                     ; 0x15 <__rc5>
    7c55: a2 00        	ldx	#$0
    7c57: 64 13        	stz	$13                     ; 0x13 <__rc3>
    7c59: 4c a3 7b     	jmp	$7ba3 <printf+0x623>
    7c5c: a4 16        	ldy	$16                     ; 0x16 <__rc6>
    7c5e: a5 9f        	lda	$9f                     ; 0x9f <__bss_size+0x1a>
    7c60: 10 08        	bpl	$7c6a <printf+0x6ea>
    7c62: a2 01        	ldx	#$1
    7c64: 64 9f        	stz	$9f                     ; 0x9f <__bss_size+0x1a>
    7c66: 86 9e        	stx	$9e                     ; 0x9e <__bss_size+0x19>
    7c68: a6 99        	ldx	$99                     ; 0x99 <__bss_size+0x14>
    7c6a: a5 dd        	lda	$dd                     ; 0xdd <__bss_size+0x58>
    7c6c: 85 9c        	sta	$9c                     ; 0x9c <__bss_size+0x17>
    7c6e: a5 de        	lda	$de                     ; 0xde <__bss_size+0x59>
    7c70: 85 9d        	sta	$9d                     ; 0x9d <__bss_size+0x18>
    7c72: a5 9a        	lda	$9a                     ; 0x9a <__bss_size+0x15>
    7c74: 29 04        	and	#$4
    7c76: f0 2b        	beq	$7ca3 <printf+0x723>
    7c78: a5 98        	lda	$98                     ; 0x98 <__bss_size+0x13>
    7c7a: c9 10        	cmp	#$10
    7c7c: f0 14        	beq	$7c92 <printf+0x712>
    7c7e: c9 08        	cmp	#$8
    7c80: d0 21        	bne	$7ca3 <printf+0x723>
    7c82: a2 00        	ldx	#$0
    7c84: e4 9f        	cpx	$9f                     ; 0x9f <__bss_size+0x1a>
    7c86: f0 03        	beq	$7c8b <printf+0x70b>
    7c88: 4c 88 82     	jmp	$8288 <printf+0xd08>
    7c8b: a6 99        	ldx	$99                     ; 0x99 <__bss_size+0x14>
    7c8d: e4 9e        	cpx	$9e                     ; 0x9e <__bss_size+0x19>
    7c8f: 4c 8a 82     	jmp	$828a <printf+0xd0a>
    7c92: 8a           	txa
    7c93: f0 0e        	beq	$7ca3 <printf+0x723>
    7c95: a5 9a        	lda	$9a                     ; 0x9a <__bss_size+0x15>
    7c97: 29 80        	and	#$80
    7c99: d0 03        	bne	$7c9e <printf+0x71e>
    7c9b: 4c a3 82     	jmp	$82a3 <printf+0xd23>
    7c9e: a2 78        	ldx	#$78
    7ca0: 4c a5 82     	jmp	$82a5 <printf+0xd25>
    7ca3: a6 9a        	ldx	$9a                     ; 0x9a <__bss_size+0x15>
    7ca5: a9 2d        	lda	#$2d
    7ca7: e6 18        	inc	$18                     ; 0x18 <__rc8>
    7ca9: c6 18        	dec	$18                     ; 0x18 <__rc8>
    7cab: f0 04        	beq	$7cb1 <printf+0x731>
    7cad: 85 98        	sta	$98                     ; 0x98 <__bss_size+0x13>
    7caf: 80 20        	bra	$7cd1 <printf+0x751>
    7cb1: 86 12        	stx	$12                     ; 0x12 <__rc2>
    7cb3: 8a           	txa
    7cb4: 29 02        	and	#$2
    7cb6: a2 2b        	ldx	#$2b
    7cb8: c9 00        	cmp	#$0
    7cba: d0 13        	bne	$7ccf <printf+0x74f>
    7cbc: a5 12        	lda	$12                     ; 0x12 <__rc2>
    7cbe: 29 08        	and	#$8
    7cc0: d0 0b        	bne	$7ccd <printf+0x74d>
    7cc2: a2 01        	ldx	#$1
    7cc4: 86 a1        	stx	$a1                     ; 0xa1 <__bss_size+0x1c>
    7cc6: a9 00        	lda	#$0
    7cc8: aa           	tax
    7cc9: 86 9b        	stx	$9b                     ; 0x9b <__bss_size+0x16>
    7ccb: 80 0b        	bra	$7cd8 <printf+0x758>
    7ccd: a2 20        	ldx	#$20
    7ccf: 86 98        	stx	$98                     ; 0x98 <__bss_size+0x13>
    7cd1: a2 00        	ldx	#$0
    7cd3: 86 a1        	stx	$a1                     ; 0xa1 <__bss_size+0x1c>
    7cd5: 86 9b        	stx	$9b                     ; 0x9b <__bss_size+0x16>
    7cd7: 98           	tya
    7cd8: a6 9f        	ldx	$9f                     ; 0x9f <__bss_size+0x1a>
    7cda: d0 06        	bne	$7ce2 <printf+0x762>
    7cdc: a6 9e        	ldx	$9e                     ; 0x9e <__bss_size+0x19>
    7cde: e4 99        	cpx	$99                     ; 0x99 <__bss_size+0x14>
    7ce0: 80 04        	bra	$7ce6 <printf+0x766>
    7ce2: a6 9f        	ldx	$9f                     ; 0x9f <__bss_size+0x1a>
    7ce4: e0 00        	cpx	#$0
    7ce6: a6 9e        	ldx	$9e                     ; 0x9e <__bss_size+0x19>
    7ce8: 86 12        	stx	$12                     ; 0x12 <__rc2>
    7cea: a6 9f        	ldx	$9f                     ; 0x9f <__bss_size+0x1a>
    7cec: 86 13        	stx	$13                     ; 0x13 <__rc3>
    7cee: b0 06        	bcs	$7cf6 <printf+0x776>
    7cf0: a6 99        	ldx	$99                     ; 0x99 <__bss_size+0x14>
    7cf2: 86 12        	stx	$12                     ; 0x12 <__rc2>
    7cf4: 64 13        	stz	$13                     ; 0x13 <__rc3>
    7cf6: 85 18        	sta	$18                     ; 0x18 <__rc8>
    7cf8: 18           	clc
    7cf9: 65 12        	adc	$12                     ; 0x12 <__rc2>
    7cfb: aa           	tax
    7cfc: 85 14        	sta	$14                     ; 0x14 <__rc4>
    7cfe: a5 13        	lda	$13                     ; 0x13 <__rc3>
    7d00: 69 00        	adc	#$0
    7d02: 85 15        	sta	$15                     ; 0x15 <__rc5>
    7d04: c5 1a        	cmp	$1a                     ; 0x1a <__rc10>
    7d06: d0 08        	bne	$7d10 <printf+0x790>
    7d08: a5 1a        	lda	$1a                     ; 0x1a <__rc10>
    7d0a: 85 16        	sta	$16                     ; 0x16 <__rc6>
    7d0c: e4 17        	cpx	$17                     ; 0x17 <__rc7>
    7d0e: 80 06        	bra	$7d16 <printf+0x796>
    7d10: a6 1a        	ldx	$1a                     ; 0x1a <__rc10>
    7d12: 86 16        	stx	$16                     ; 0x16 <__rc6>
    7d14: c5 1a        	cmp	$1a                     ; 0x1a <__rc10>
    7d16: 64 a2        	stz	$a2                     ; 0xa2 <__bss_size+0x1d>
    7d18: 64 a3        	stz	$a3                     ; 0xa3 <__bss_size+0x1e>
    7d1a: a6 99        	ldx	$99                     ; 0x99 <__bss_size+0x14>
    7d1c: 90 03        	bcc	$7d21 <printf+0x7a1>
    7d1e: 4c dc 7d     	jmp	$7ddc <printf+0x85c>
    7d21: a5 9a        	lda	$9a                     ; 0x9a <__bss_size+0x15>
    7d23: 29 11        	and	#$11
    7d25: f0 10        	beq	$7d37 <printf+0x7b7>
    7d27: a5 17        	lda	$17                     ; 0x17 <__rc7>
    7d29: 38           	sec
    7d2a: e5 14        	sbc	$14                     ; 0x14 <__rc4>
    7d2c: 85 a2        	sta	$a2                     ; 0xa2 <__bss_size+0x1d>
    7d2e: a5 1a        	lda	$1a                     ; 0x1a <__rc10>
    7d30: e5 15        	sbc	$15                     ; 0x15 <__rc5>
    7d32: 85 a3        	sta	$a3                     ; 0xa3 <__bss_size+0x1e>
    7d34: 4c dc 7d     	jmp	$7ddc <printf+0x85c>
    7d37: a2 01        	ldx	#$1
    7d39: 86 a0        	stx	$a0                     ; 0xa0 <__bss_size+0x1b>
    7d3b: a6 cd        	ldx	$cd                     ; 0xcd <__bss_size+0x48>
    7d3d: 86 14        	stx	$14                     ; 0x14 <__rc4>
    7d3f: 38           	sec
    7d40: a5 18        	lda	$18                     ; 0x18 <__rc8>
    7d42: e5 17        	sbc	$17                     ; 0x17 <__rc7>
    7d44: aa           	tax
    7d45: a9 00        	lda	#$0
    7d47: e5 16        	sbc	$16                     ; 0x16 <__rc6>
    7d49: a8           	tay
    7d4a: 18           	clc
    7d4b: 8a           	txa
    7d4c: 65 12        	adc	$12                     ; 0x12 <__rc2>
    7d4e: 85 9a        	sta	$9a                     ; 0x9a <__bss_size+0x15>
    7d50: 98           	tya
    7d51: 65 13        	adc	$13                     ; 0x13 <__rc3>
    7d53: a4 ce        	ldy	$ce                     ; 0xce <__bss_size+0x49>
    7d55: 4c bc 7d     	jmp	$7dbc <printf+0x83c>
    7d58: 84 15        	sty	$15                     ; 0x15 <__rc5>
    7d5a: c4 cc        	cpy	$cc                     ; 0xcc <__bss_size+0x47>
    7d5c: b0 40        	bcs	$7d9e <printf+0x81e>
    7d5e: a6 d8        	ldx	$d8                     ; 0xd8 <__bss_size+0x53>
    7d60: a0 00        	ldy	#$0
    7d62: 84 12        	sty	$12                     ; 0x12 <__rc2>
    7d64: a0 00        	ldy	#$0
    7d66: 84 13        	sty	$13                     ; 0x13 <__rc3>
    7d68: e4 13        	cpx	$13                     ; 0x13 <__rc3>
    7d6a: d0 1d        	bne	$7d89 <printf+0x809>
    7d6c: a6 d7        	ldx	$d7                     ; 0xd7 <__bss_size+0x52>
    7d6e: e4 12        	cpx	$12                     ; 0x12 <__rc2>
    7d70: d0 17        	bne	$7d89 <printf+0x809>
    7d72: a2 01        	ldx	#$1
    7d74: 86 a0        	stx	$a0                     ; 0xa0 <__bss_size+0x1b>
    7d76: 18           	clc
    7d77: a5 14        	lda	$14                     ; 0x14 <__rc4>
    7d79: 65 d1        	adc	$d1                     ; 0xd1 <__bss_size+0x4c>
    7d7b: 85 12        	sta	$12                     ; 0x12 <__rc2>
    7d7d: a5 15        	lda	$15                     ; 0x15 <__rc5>
    7d7f: 65 d2        	adc	$d2                     ; 0xd2 <__bss_size+0x4d>
    7d81: 85 13        	sta	$13                     ; 0x13 <__rc3>
    7d83: a9 20        	lda	#$20
    7d85: 92 12        	sta	($12)                   ; 0x12 <__rc2>
    7d87: 80 13        	bra	$7d9c <printf+0x81c>
    7d89: a2 01        	ldx	#$1
    7d8b: 86 a0        	stx	$a0                     ; 0xa0 <__bss_size+0x1b>
    7d8d: a2 20        	ldx	#$20
    7d8f: 86 62        	stx	$62                     ; 0x62 <__putchar.s>
    7d91: a2 62        	ldx	#$62
    7d93: 86 12        	stx	$12                     ; 0x12 <__rc2>
    7d95: a2 00        	ldx	#$0
    7d97: 86 13        	stx	$13                     ; 0x13 <__rc3>
    7d99: 20 e9 5c     	jsr	$5ce9 <textPrint>
    7d9c: a5 a2        	lda	$a2                     ; 0xa2 <__bss_size+0x1d>
    7d9e: a6 cd        	ldx	$cd                     ; 0xcd <__bss_size+0x48>
    7da0: a4 ce        	ldy	$ce                     ; 0xce <__bss_size+0x49>
    7da2: e8           	inx
    7da3: d0 01        	bne	$7da6 <printf+0x826>
    7da5: c8           	iny
    7da6: 86 14        	stx	$14                     ; 0x14 <__rc4>
    7da8: 86 cd        	stx	$cd                     ; 0xcd <__bss_size+0x48>
    7daa: 84 ce        	sty	$ce                     ; 0xce <__bss_size+0x49>
    7dac: a6 9a        	ldx	$9a                     ; 0x9a <__bss_size+0x15>
    7dae: e8           	inx
    7daf: d0 01        	bne	$7db2 <printf+0x832>
    7db1: 1a           	inc
    7db2: 86 9a        	stx	$9a                     ; 0x9a <__bss_size+0x15>
    7db4: c9 00        	cmp	#$0
    7db6: d0 04        	bne	$7dbc <printf+0x83c>
    7db8: e0 00        	cpx	#$0
    7dba: f0 18        	beq	$7dd4 <printf+0x854>
    7dbc: 85 a2        	sta	$a2                     ; 0xa2 <__bss_size+0x1d>
    7dbe: c4 cc        	cpy	$cc                     ; 0xcc <__bss_size+0x47>
    7dc0: f0 03        	beq	$7dc5 <printf+0x845>
    7dc2: 4c 58 7d     	jmp	$7d58 <printf+0x7d8>
    7dc5: 84 15        	sty	$15                     ; 0x15 <__rc5>
    7dc7: a6 cb        	ldx	$cb                     ; 0xcb <__bss_size+0x46>
    7dc9: 86 12        	stx	$12                     ; 0x12 <__rc2>
    7dcb: a6 14        	ldx	$14                     ; 0x14 <__rc4>
    7dcd: e4 12        	cpx	$12                     ; 0x12 <__rc2>
    7dcf: b0 cd        	bcs	$7d9e <printf+0x81e>
    7dd1: 4c 5e 7d     	jmp	$7d5e <printf+0x7de>
    7dd4: 64 a2        	stz	$a2                     ; 0xa2 <__bss_size+0x1d>
    7dd6: 64 a3        	stz	$a3                     ; 0xa3 <__bss_size+0x1e>
    7dd8: a6 99        	ldx	$99                     ; 0x99 <__bss_size+0x14>
    7dda: a4 a0        	ldy	$a0                     ; 0xa0 <__bss_size+0x1b>
    7ddc: a5 a1        	lda	$a1                     ; 0xa1 <__bss_size+0x1c>
    7dde: f0 03        	beq	$7de3 <printf+0x863>
    7de0: 4c 4d 7e     	jmp	$7e4d <printf+0x8cd>
    7de3: a6 cd        	ldx	$cd                     ; 0xcd <__bss_size+0x48>
    7de5: a5 ce        	lda	$ce                     ; 0xce <__bss_size+0x49>
    7de7: c5 cc        	cmp	$cc                     ; 0xcc <__bss_size+0x47>
    7de9: d0 10        	bne	$7dfb <printf+0x87b>
    7deb: 86 13        	stx	$13                     ; 0x13 <__rc3>
    7ded: a6 cb        	ldx	$cb                     ; 0xcb <__bss_size+0x46>
    7def: 86 12        	stx	$12                     ; 0x12 <__rc2>
    7df1: a6 13        	ldx	$13                     ; 0x13 <__rc3>
    7df3: 86 15        	stx	$15                     ; 0x15 <__rc5>
    7df5: e4 12        	cpx	$12                     ; 0x12 <__rc2>
    7df7: 90 08        	bcc	$7e01 <printf+0x881>
    7df9: 80 4a        	bra	$7e45 <printf+0x8c5>
    7dfb: 86 15        	stx	$15                     ; 0x15 <__rc5>
    7dfd: c5 cc        	cmp	$cc                     ; 0xcc <__bss_size+0x47>
    7dff: b0 44        	bcs	$7e45 <printf+0x8c5>
    7e01: a2 01        	ldx	#$1
    7e03: 86 14        	stx	$14                     ; 0x14 <__rc4>
    7e05: a6 d8        	ldx	$d8                     ; 0xd8 <__bss_size+0x53>
    7e07: a0 00        	ldy	#$0
    7e09: 84 12        	sty	$12                     ; 0x12 <__rc2>
    7e0b: a0 00        	ldy	#$0
    7e0d: 84 13        	sty	$13                     ; 0x13 <__rc3>
    7e0f: e4 13        	cpx	$13                     ; 0x13 <__rc3>
    7e11: d0 1d        	bne	$7e30 <printf+0x8b0>
    7e13: a6 d7        	ldx	$d7                     ; 0xd7 <__bss_size+0x52>
    7e15: e4 12        	cpx	$12                     ; 0x12 <__rc2>
    7e17: d0 17        	bne	$7e30 <printf+0x8b0>
    7e19: a4 14        	ldy	$14                     ; 0x14 <__rc4>
    7e1b: 18           	clc
    7e1c: 85 16        	sta	$16                     ; 0x16 <__rc6>
    7e1e: a5 15        	lda	$15                     ; 0x15 <__rc5>
    7e20: 65 d1        	adc	$d1                     ; 0xd1 <__bss_size+0x4c>
    7e22: 85 12        	sta	$12                     ; 0x12 <__rc2>
    7e24: a5 16        	lda	$16                     ; 0x16 <__rc6>
    7e26: 65 d2        	adc	$d2                     ; 0xd2 <__bss_size+0x4d>
    7e28: 85 13        	sta	$13                     ; 0x13 <__rc3>
    7e2a: a5 98        	lda	$98                     ; 0x98 <__bss_size+0x13>
    7e2c: 92 12        	sta	($12)                   ; 0x12 <__rc2>
    7e2e: 80 15        	bra	$7e45 <printf+0x8c5>
    7e30: a2 01        	ldx	#$1
    7e32: 86 a0        	stx	$a0                     ; 0xa0 <__bss_size+0x1b>
    7e34: a6 98        	ldx	$98                     ; 0x98 <__bss_size+0x13>
    7e36: 86 62        	stx	$62                     ; 0x62 <__putchar.s>
    7e38: a2 62        	ldx	#$62
    7e3a: 86 12        	stx	$12                     ; 0x12 <__rc2>
    7e3c: a2 00        	ldx	#$0
    7e3e: 86 13        	stx	$13                     ; 0x13 <__rc3>
    7e40: 20 e9 5c     	jsr	$5ce9 <textPrint>
    7e43: a4 a0        	ldy	$a0                     ; 0xa0 <__bss_size+0x1b>
    7e45: e6 cd        	inc	$cd                     ; 0xcd <__bss_size+0x48>
    7e47: d0 02        	bne	$7e4b <printf+0x8cb>
    7e49: e6 ce        	inc	$ce                     ; 0xce <__bss_size+0x49>
    7e4b: a6 99        	ldx	$99                     ; 0x99 <__bss_size+0x14>
    7e4d: a5 9b        	lda	$9b                     ; 0x9b <__bss_size+0x16>
    7e4f: d0 03        	bne	$7e54 <printf+0x8d4>
    7e51: 4c be 7e     	jmp	$7ebe <printf+0x93e>
    7e54: a6 cd        	ldx	$cd                     ; 0xcd <__bss_size+0x48>
    7e56: a5 ce        	lda	$ce                     ; 0xce <__bss_size+0x49>
    7e58: c5 cc        	cmp	$cc                     ; 0xcc <__bss_size+0x47>
    7e5a: d0 10        	bne	$7e6c <printf+0x8ec>
    7e5c: 86 13        	stx	$13                     ; 0x13 <__rc3>
    7e5e: a6 cb        	ldx	$cb                     ; 0xcb <__bss_size+0x46>
    7e60: 86 12        	stx	$12                     ; 0x12 <__rc2>
    7e62: a6 13        	ldx	$13                     ; 0x13 <__rc3>
    7e64: 86 15        	stx	$15                     ; 0x15 <__rc5>
    7e66: e4 12        	cpx	$12                     ; 0x12 <__rc2>
    7e68: 90 08        	bcc	$7e72 <printf+0x8f2>
    7e6a: 80 4a        	bra	$7eb6 <printf+0x936>
    7e6c: 86 15        	stx	$15                     ; 0x15 <__rc5>
    7e6e: c5 cc        	cmp	$cc                     ; 0xcc <__bss_size+0x47>
    7e70: b0 44        	bcs	$7eb6 <printf+0x936>
    7e72: a2 01        	ldx	#$1
    7e74: 86 14        	stx	$14                     ; 0x14 <__rc4>
    7e76: a6 d8        	ldx	$d8                     ; 0xd8 <__bss_size+0x53>
    7e78: a0 00        	ldy	#$0
    7e7a: 84 12        	sty	$12                     ; 0x12 <__rc2>
    7e7c: a0 00        	ldy	#$0
    7e7e: 84 13        	sty	$13                     ; 0x13 <__rc3>
    7e80: e4 13        	cpx	$13                     ; 0x13 <__rc3>
    7e82: d0 1d        	bne	$7ea1 <printf+0x921>
    7e84: a6 d7        	ldx	$d7                     ; 0xd7 <__bss_size+0x52>
    7e86: e4 12        	cpx	$12                     ; 0x12 <__rc2>
    7e88: d0 17        	bne	$7ea1 <printf+0x921>
    7e8a: a4 14        	ldy	$14                     ; 0x14 <__rc4>
    7e8c: 18           	clc
    7e8d: 85 16        	sta	$16                     ; 0x16 <__rc6>
    7e8f: a5 15        	lda	$15                     ; 0x15 <__rc5>
    7e91: 65 d1        	adc	$d1                     ; 0xd1 <__bss_size+0x4c>
    7e93: 85 12        	sta	$12                     ; 0x12 <__rc2>
    7e95: a5 16        	lda	$16                     ; 0x16 <__rc6>
    7e97: 65 d2        	adc	$d2                     ; 0xd2 <__bss_size+0x4d>
    7e99: 85 13        	sta	$13                     ; 0x13 <__rc3>
    7e9b: a5 dd        	lda	$dd                     ; 0xdd <__bss_size+0x58>
    7e9d: 92 12        	sta	($12)                   ; 0x12 <__rc2>
    7e9f: 80 15        	bra	$7eb6 <printf+0x936>
    7ea1: a2 01        	ldx	#$1
    7ea3: 86 a0        	stx	$a0                     ; 0xa0 <__bss_size+0x1b>
    7ea5: a6 dd        	ldx	$dd                     ; 0xdd <__bss_size+0x58>
    7ea7: 86 62        	stx	$62                     ; 0x62 <__putchar.s>
    7ea9: a2 62        	ldx	#$62
    7eab: 86 12        	stx	$12                     ; 0x12 <__rc2>
    7ead: a2 00        	ldx	#$0
    7eaf: 86 13        	stx	$13                     ; 0x13 <__rc3>
    7eb1: 20 e9 5c     	jsr	$5ce9 <textPrint>
    7eb4: a4 a0        	ldy	$a0                     ; 0xa0 <__bss_size+0x1b>
    7eb6: e6 cd        	inc	$cd                     ; 0xcd <__bss_size+0x48>
    7eb8: d0 02        	bne	$7ebc <printf+0x93c>
    7eba: e6 ce        	inc	$ce                     ; 0xce <__bss_size+0x49>
    7ebc: a6 99        	ldx	$99                     ; 0x99 <__bss_size+0x14>
    7ebe: a9 10        	lda	#$10
    7ec0: 25 c9        	and	$c9                     ; 0xc9 <__bss_size+0x44>
    7ec2: d0 03        	bne	$7ec7 <printf+0x947>
    7ec4: 4c 7c 7f     	jmp	$7f7c <printf+0x9fc>
    7ec7: a5 c9        	lda	$c9                     ; 0xc9 <__bss_size+0x44>
    7ec9: 29 01        	and	#$1
    7ecb: f0 03        	beq	$7ed0 <printf+0x950>
    7ecd: 4c 7c 7f     	jmp	$7f7c <printf+0x9fc>
    7ed0: a5 a2        	lda	$a2                     ; 0xa2 <__bss_size+0x1d>
    7ed2: 5a           	phy
    7ed3: a4 a3        	ldy	$a3                     ; 0xa3 <__bss_size+0x1e>
    7ed5: 84 12        	sty	$12                     ; 0x12 <__rc2>
    7ed7: 7a           	ply
    7ed8: e6 12        	inc	$12                     ; 0x12 <__rc2>
    7eda: c6 12        	dec	$12                     ; 0x12 <__rc2>
    7edc: d0 07        	bne	$7ee5 <printf+0x965>
    7ede: c9 00        	cmp	#$0
    7ee0: d0 03        	bne	$7ee5 <printf+0x965>
    7ee2: 4c b8 82     	jmp	$82b8 <printf+0xd38>
    7ee5: a6 cd        	ldx	$cd                     ; 0xcd <__bss_size+0x48>
    7ee7: 86 15        	stx	$15                     ; 0x15 <__rc5>
    7ee9: a5 ce        	lda	$ce                     ; 0xce <__bss_size+0x49>
    7eeb: 4c 62 7f     	jmp	$7f62 <printf+0x9e2>
    7eee: c5 cc        	cmp	$cc                     ; 0xcc <__bss_size+0x47>
    7ef0: b0 42        	bcs	$7f34 <printf+0x9b4>
    7ef2: a2 01        	ldx	#$1
    7ef4: 86 14        	stx	$14                     ; 0x14 <__rc4>
    7ef6: a6 d8        	ldx	$d8                     ; 0xd8 <__bss_size+0x53>
    7ef8: a0 00        	ldy	#$0
    7efa: 84 12        	sty	$12                     ; 0x12 <__rc2>
    7efc: a0 00        	ldy	#$0
    7efe: 84 13        	sty	$13                     ; 0x13 <__rc3>
    7f00: e4 13        	cpx	$13                     ; 0x13 <__rc3>
    7f02: d0 1b        	bne	$7f1f <printf+0x99f>
    7f04: a6 d7        	ldx	$d7                     ; 0xd7 <__bss_size+0x52>
    7f06: e4 12        	cpx	$12                     ; 0x12 <__rc2>
    7f08: d0 15        	bne	$7f1f <printf+0x99f>
    7f0a: a4 14        	ldy	$14                     ; 0x14 <__rc4>
    7f0c: 18           	clc
    7f0d: aa           	tax
    7f0e: a5 15        	lda	$15                     ; 0x15 <__rc5>
    7f10: 65 d1        	adc	$d1                     ; 0xd1 <__bss_size+0x4c>
    7f12: 85 12        	sta	$12                     ; 0x12 <__rc2>
    7f14: 8a           	txa
    7f15: 65 d2        	adc	$d2                     ; 0xd2 <__bss_size+0x4d>
    7f17: 85 13        	sta	$13                     ; 0x13 <__rc3>
    7f19: a9 30        	lda	#$30
    7f1b: 92 12        	sta	($12)                   ; 0x12 <__rc2>
    7f1d: 80 15        	bra	$7f34 <printf+0x9b4>
    7f1f: a2 01        	ldx	#$1
    7f21: 86 a0        	stx	$a0                     ; 0xa0 <__bss_size+0x1b>
    7f23: a2 30        	ldx	#$30
    7f25: 86 62        	stx	$62                     ; 0x62 <__putchar.s>
    7f27: a2 62        	ldx	#$62
    7f29: 86 12        	stx	$12                     ; 0x12 <__rc2>
    7f2b: a2 00        	ldx	#$0
    7f2d: 86 13        	stx	$13                     ; 0x13 <__rc3>
    7f2f: 20 e9 5c     	jsr	$5ce9 <textPrint>
    7f32: a4 a0        	ldy	$a0                     ; 0xa0 <__bss_size+0x1b>
    7f34: a6 cd        	ldx	$cd                     ; 0xcd <__bss_size+0x48>
    7f36: a5 ce        	lda	$ce                     ; 0xce <__bss_size+0x49>
    7f38: e8           	inx
    7f39: d0 01        	bne	$7f3c <printf+0x9bc>
    7f3b: 1a           	inc
    7f3c: 86 15        	stx	$15                     ; 0x15 <__rc5>
    7f3e: 86 cd        	stx	$cd                     ; 0xcd <__bss_size+0x48>
    7f40: 85 ce        	sta	$ce                     ; 0xce <__bss_size+0x49>
    7f42: a6 a2        	ldx	$a2                     ; 0xa2 <__bss_size+0x1d>
    7f44: 86 12        	stx	$12                     ; 0x12 <__rc2>
    7f46: a6 a3        	ldx	$a3                     ; 0xa3 <__bss_size+0x1e>
    7f48: 86 13        	stx	$13                     ; 0x13 <__rc3>
    7f4a: a2 ff        	ldx	#$ff
    7f4c: c6 12        	dec	$12                     ; 0x12 <__rc2>
    7f4e: e4 12        	cpx	$12                     ; 0x12 <__rc2>
    7f50: d0 02        	bne	$7f54 <printf+0x9d4>
    7f52: c6 13        	dec	$13                     ; 0x13 <__rc3>
    7f54: a6 12        	ldx	$12                     ; 0x12 <__rc2>
    7f56: 86 a2        	stx	$a2                     ; 0xa2 <__bss_size+0x1d>
    7f58: a6 13        	ldx	$13                     ; 0x13 <__rc3>
    7f5a: 86 a3        	stx	$a3                     ; 0xa3 <__bss_size+0x1e>
    7f5c: d0 04        	bne	$7f62 <printf+0x9e2>
    7f5e: a6 12        	ldx	$12                     ; 0x12 <__rc2>
    7f60: f0 14        	beq	$7f76 <printf+0x9f6>
    7f62: c5 cc        	cmp	$cc                     ; 0xcc <__bss_size+0x47>
    7f64: f0 03        	beq	$7f69 <printf+0x9e9>
    7f66: 4c ee 7e     	jmp	$7eee <printf+0x96e>
    7f69: a6 cb        	ldx	$cb                     ; 0xcb <__bss_size+0x46>
    7f6b: 86 12        	stx	$12                     ; 0x12 <__rc2>
    7f6d: a6 15        	ldx	$15                     ; 0x15 <__rc5>
    7f6f: e4 12        	cpx	$12                     ; 0x12 <__rc2>
    7f71: b0 c1        	bcs	$7f34 <printf+0x9b4>
    7f73: 4c f2 7e     	jmp	$7ef2 <printf+0x972>
    7f76: 64 a2        	stz	$a2                     ; 0xa2 <__bss_size+0x1d>
    7f78: 64 a3        	stz	$a3                     ; 0xa3 <__bss_size+0x1e>
    7f7a: a6 99        	ldx	$99                     ; 0x99 <__bss_size+0x14>
    7f7c: a9 00        	lda	#$0
    7f7e: c5 9f        	cmp	$9f                     ; 0x9f <__bss_size+0x1a>
    7f80: d0 07        	bne	$7f89 <printf+0xa09>
    7f82: e4 9e        	cpx	$9e                     ; 0x9e <__bss_size+0x19>
    7f84: 90 0a        	bcc	$7f90 <printf+0xa10>
    7f86: 4c 1c 80     	jmp	$801c <printf+0xa9c>
    7f89: c5 9f        	cmp	$9f                     ; 0x9f <__bss_size+0x1a>
    7f8b: 90 03        	bcc	$7f90 <printf+0xa10>
    7f8d: 4c 1c 80     	jmp	$801c <printf+0xa9c>
    7f90: a6 cd        	ldx	$cd                     ; 0xcd <__bss_size+0x48>
    7f92: 86 15        	stx	$15                     ; 0x15 <__rc5>
    7f94: a5 ce        	lda	$ce                     ; 0xce <__bss_size+0x49>
    7f96: a2 ff        	ldx	#$ff
    7f98: c6 9e        	dec	$9e                     ; 0x9e <__bss_size+0x19>
    7f9a: e4 9e        	cpx	$9e                     ; 0x9e <__bss_size+0x19>
    7f9c: d0 02        	bne	$7fa0 <printf+0xa20>
    7f9e: c6 9f        	dec	$9f                     ; 0x9f <__bss_size+0x1a>
    7fa0: c5 cc        	cmp	$cc                     ; 0xcc <__bss_size+0x47>
    7fa2: d0 0c        	bne	$7fb0 <printf+0xa30>
    7fa4: a6 cb        	ldx	$cb                     ; 0xcb <__bss_size+0x46>
    7fa6: 86 12        	stx	$12                     ; 0x12 <__rc2>
    7fa8: a6 15        	ldx	$15                     ; 0x15 <__rc5>
    7faa: e4 12        	cpx	$12                     ; 0x12 <__rc2>
    7fac: 90 06        	bcc	$7fb4 <printf+0xa34>
    7fae: 80 46        	bra	$7ff6 <printf+0xa76>
    7fb0: c5 cc        	cmp	$cc                     ; 0xcc <__bss_size+0x47>
    7fb2: b0 42        	bcs	$7ff6 <printf+0xa76>
    7fb4: a2 01        	ldx	#$1
    7fb6: 86 14        	stx	$14                     ; 0x14 <__rc4>
    7fb8: a6 d8        	ldx	$d8                     ; 0xd8 <__bss_size+0x53>
    7fba: a0 00        	ldy	#$0
    7fbc: 84 12        	sty	$12                     ; 0x12 <__rc2>
    7fbe: a0 00        	ldy	#$0
    7fc0: 84 13        	sty	$13                     ; 0x13 <__rc3>
    7fc2: e4 13        	cpx	$13                     ; 0x13 <__rc3>
    7fc4: d0 1b        	bne	$7fe1 <printf+0xa61>
    7fc6: a6 d7        	ldx	$d7                     ; 0xd7 <__bss_size+0x52>
    7fc8: e4 12        	cpx	$12                     ; 0x12 <__rc2>
    7fca: d0 15        	bne	$7fe1 <printf+0xa61>
    7fcc: a4 14        	ldy	$14                     ; 0x14 <__rc4>
    7fce: 18           	clc
    7fcf: aa           	tax
    7fd0: a5 15        	lda	$15                     ; 0x15 <__rc5>
    7fd2: 65 d1        	adc	$d1                     ; 0xd1 <__bss_size+0x4c>
    7fd4: 85 12        	sta	$12                     ; 0x12 <__rc2>
    7fd6: 8a           	txa
    7fd7: 65 d2        	adc	$d2                     ; 0xd2 <__bss_size+0x4d>
    7fd9: 85 13        	sta	$13                     ; 0x13 <__rc3>
    7fdb: a9 30        	lda	#$30
    7fdd: 92 12        	sta	($12)                   ; 0x12 <__rc2>
    7fdf: 80 15        	bra	$7ff6 <printf+0xa76>
    7fe1: a2 01        	ldx	#$1
    7fe3: 86 a0        	stx	$a0                     ; 0xa0 <__bss_size+0x1b>
    7fe5: a2 30        	ldx	#$30
    7fe7: 86 62        	stx	$62                     ; 0x62 <__putchar.s>
    7fe9: a2 62        	ldx	#$62
    7feb: 86 12        	stx	$12                     ; 0x12 <__rc2>
    7fed: a2 00        	ldx	#$0
    7fef: 86 13        	stx	$13                     ; 0x13 <__rc3>
    7ff1: 20 e9 5c     	jsr	$5ce9 <textPrint>
    7ff4: a4 a0        	ldy	$a0                     ; 0xa0 <__bss_size+0x1b>
    7ff6: a6 cd        	ldx	$cd                     ; 0xcd <__bss_size+0x48>
    7ff8: a5 ce        	lda	$ce                     ; 0xce <__bss_size+0x49>
    7ffa: e8           	inx
    7ffb: d0 01        	bne	$7ffe <printf+0xa7e>
    7ffd: 1a           	inc
    7ffe: 86 15        	stx	$15                     ; 0x15 <__rc5>
    8000: 86 cd        	stx	$cd                     ; 0xcd <__bss_size+0x48>
    8002: 85 ce        	sta	$ce                     ; 0xce <__bss_size+0x49>
    8004: a2 00        	ldx	#$0
    8006: e4 9f        	cpx	$9f                     ; 0x9f <__bss_size+0x1a>
    8008: d0 09        	bne	$8013 <printf+0xa93>
    800a: a6 99        	ldx	$99                     ; 0x99 <__bss_size+0x14>
    800c: e4 9e        	cpx	$9e                     ; 0x9e <__bss_size+0x19>
    800e: b0 0c        	bcs	$801c <printf+0xa9c>
    8010: 4c 96 7f     	jmp	$7f96 <printf+0xa16>
    8013: e4 9f        	cpx	$9f                     ; 0x9f <__bss_size+0x1a>
    8015: a6 99        	ldx	$99                     ; 0x99 <__bss_size+0x14>
    8017: b0 03        	bcs	$801c <printf+0xa9c>
    8019: 4c 96 7f     	jmp	$7f96 <printf+0xa16>
    801c: a5 df        	lda	$df                     ; 0xdf <__bss_size+0x5a>
    801e: 85 98        	sta	$98                     ; 0x98 <__bss_size+0x13>
    8020: a5 e0        	lda	$e0                     ; 0xe0 <__bss_size+0x5b>
    8022: 85 99        	sta	$99                     ; 0x99 <__bss_size+0x14>
    8024: 8a           	txa
    8025: d0 03        	bne	$802a <printf+0xaaa>
    8027: 4c 6d 81     	jmp	$816d <printf+0xbed>
    802a: ca           	dex
    802b: d0 03        	bne	$8030 <printf+0xab0>
    802d: 4c e6 80     	jmp	$80e6 <printf+0xb66>
    8030: 86 a0        	stx	$a0                     ; 0xa0 <__bss_size+0x1b>
    8032: a6 e3        	ldx	$e3                     ; 0xe3 <__bss_size+0x5e>
    8034: 8a           	txa
    8035: 18           	clc
    8036: 65 a0        	adc	$a0                     ; 0xa0 <__bss_size+0x1b>
    8038: 85 9e        	sta	$9e                     ; 0x9e <__bss_size+0x19>
    803a: a5 e4        	lda	$e4                     ; 0xe4 <__bss_size+0x5f>
    803c: 69 00        	adc	#$0
    803e: 85 9f        	sta	$9f                     ; 0x9f <__bss_size+0x1a>
    8040: 4c d4 80     	jmp	$80d4 <printf+0xb54>
    8043: 85 13        	sta	$13                     ; 0x13 <__rc3>
    8045: a9 80        	lda	#$80
    8047: 25 c9        	and	$c9                     ; 0xc9 <__bss_size+0x44>
    8049: f0 04        	beq	$804f <printf+0xacf>
    804b: a2 61        	ldx	#$61
    804d: 80 02        	bra	$8051 <printf+0xad1>
    804f: a2 41        	ldx	#$41
    8051: 86 12        	stx	$12                     ; 0x12 <__rc2>
    8053: a2 01        	ldx	#$1
    8055: 86 14        	stx	$14                     ; 0x14 <__rc4>
    8057: 18           	clc
    8058: a5 13        	lda	$13                     ; 0x13 <__rc3>
    805a: 65 12        	adc	$12                     ; 0x12 <__rc2>
    805c: 18           	clc
    805d: 69 f6        	adc	#$f6
    805f: a4 cd        	ldy	$cd                     ; 0xcd <__bss_size+0x48>
    8061: a6 ce        	ldx	$ce                     ; 0xce <__bss_size+0x49>
    8063: e4 cc        	cpx	$cc                     ; 0xcc <__bss_size+0x47>
    8065: d0 0c        	bne	$8073 <printf+0xaf3>
    8067: 86 16        	stx	$16                     ; 0x16 <__rc6>
    8069: a6 cb        	ldx	$cb                     ; 0xcb <__bss_size+0x46>
    806b: 86 12        	stx	$12                     ; 0x12 <__rc2>
    806d: 84 15        	sty	$15                     ; 0x15 <__rc5>
    806f: c4 12        	cpy	$12                     ; 0x12 <__rc2>
    8071: 80 06        	bra	$8079 <printf+0xaf9>
    8073: 84 15        	sty	$15                     ; 0x15 <__rc5>
    8075: 86 16        	stx	$16                     ; 0x16 <__rc6>
    8077: e4 cc        	cpx	$cc                     ; 0xcc <__bss_size+0x47>
    8079: a4 14        	ldy	$14                     ; 0x14 <__rc4>
    807b: b0 41        	bcs	$80be <printf+0xb3e>
    807d: 85 14        	sta	$14                     ; 0x14 <__rc4>
    807f: a9 01        	lda	#$1
    8081: a6 d8        	ldx	$d8                     ; 0xd8 <__bss_size+0x53>
    8083: a0 00        	ldy	#$0
    8085: 84 12        	sty	$12                     ; 0x12 <__rc2>
    8087: a0 00        	ldy	#$0
    8089: 84 13        	sty	$13                     ; 0x13 <__rc3>
    808b: e4 13        	cpx	$13                     ; 0x13 <__rc3>
    808d: d0 1a        	bne	$80a9 <printf+0xb29>
    808f: a6 d7        	ldx	$d7                     ; 0xd7 <__bss_size+0x52>
    8091: e4 12        	cpx	$12                     ; 0x12 <__rc2>
    8093: d0 14        	bne	$80a9 <printf+0xb29>
    8095: a8           	tay
    8096: 18           	clc
    8097: a5 15        	lda	$15                     ; 0x15 <__rc5>
    8099: 65 d1        	adc	$d1                     ; 0xd1 <__bss_size+0x4c>
    809b: 85 12        	sta	$12                     ; 0x12 <__rc2>
    809d: a5 16        	lda	$16                     ; 0x16 <__rc6>
    809f: 65 d2        	adc	$d2                     ; 0xd2 <__bss_size+0x4d>
    80a1: 85 13        	sta	$13                     ; 0x13 <__rc3>
    80a3: a5 14        	lda	$14                     ; 0x14 <__rc4>
    80a5: 92 12        	sta	($12)                   ; 0x12 <__rc2>
    80a7: 80 15        	bra	$80be <printf+0xb3e>
    80a9: a2 01        	ldx	#$1
    80ab: 86 a1        	stx	$a1                     ; 0xa1 <__bss_size+0x1c>
    80ad: a6 14        	ldx	$14                     ; 0x14 <__rc4>
    80af: 86 62        	stx	$62                     ; 0x62 <__putchar.s>
    80b1: a2 62        	ldx	#$62
    80b3: 86 12        	stx	$12                     ; 0x12 <__rc2>
    80b5: a2 00        	ldx	#$0
    80b7: 86 13        	stx	$13                     ; 0x13 <__rc3>
    80b9: 20 e9 5c     	jsr	$5ce9 <textPrint>
    80bc: a4 a1        	ldy	$a1                     ; 0xa1 <__bss_size+0x1c>
    80be: e6 cd        	inc	$cd                     ; 0xcd <__bss_size+0x48>
    80c0: d0 02        	bne	$80c4 <printf+0xb44>
    80c2: e6 ce        	inc	$ce                     ; 0xce <__bss_size+0x49>
    80c4: c6 a0        	dec	$a0                     ; 0xa0 <__bss_size+0x1b>
    80c6: a2 ff        	ldx	#$ff
    80c8: c6 9e        	dec	$9e                     ; 0x9e <__bss_size+0x19>
    80ca: e4 9e        	cpx	$9e                     ; 0x9e <__bss_size+0x19>
    80cc: d0 02        	bne	$80d0 <printf+0xb50>
    80ce: c6 9f        	dec	$9f                     ; 0x9f <__bss_size+0x1a>
    80d0: a5 a0        	lda	$a0                     ; 0xa0 <__bss_size+0x1b>
    80d2: f0 12        	beq	$80e6 <printf+0xb66>
    80d4: b2 9e        	lda	($9e)                   ; 0x9e <__bss_size+0x19>
    80d6: c9 0a        	cmp	#$a
    80d8: 90 03        	bcc	$80dd <printf+0xb5d>
    80da: 4c 43 80     	jmp	$8043 <printf+0xac3>
    80dd: a2 01        	ldx	#$1
    80df: 86 14        	stx	$14                     ; 0x14 <__rc4>
    80e1: 09 30        	ora	#$30
    80e3: 4c 5f 80     	jmp	$805f <printf+0xadf>
    80e6: a5 a6        	lda	$a6                     ; 0xa6 <__bss_size+0x21>
    80e8: c9 0a        	cmp	#$a
    80ea: b0 04        	bcs	$80f0 <printf+0xb70>
    80ec: 09 30        	ora	#$30
    80ee: 80 18        	bra	$8108 <printf+0xb88>
    80f0: 85 13        	sta	$13                     ; 0x13 <__rc3>
    80f2: a9 80        	lda	#$80
    80f4: 25 c9        	and	$c9                     ; 0xc9 <__bss_size+0x44>
    80f6: f0 04        	beq	$80fc <printf+0xb7c>
    80f8: a2 61        	ldx	#$61
    80fa: 80 02        	bra	$80fe <printf+0xb7e>
    80fc: a2 41        	ldx	#$41
    80fe: 86 12        	stx	$12                     ; 0x12 <__rc2>
    8100: 18           	clc
    8101: a5 13        	lda	$13                     ; 0x13 <__rc3>
    8103: 65 12        	adc	$12                     ; 0x12 <__rc2>
    8105: 18           	clc
    8106: 69 f6        	adc	#$f6
    8108: a6 cd        	ldx	$cd                     ; 0xcd <__bss_size+0x48>
    810a: 86 15        	stx	$15                     ; 0x15 <__rc5>
    810c: a6 ce        	ldx	$ce                     ; 0xce <__bss_size+0x49>
    810e: e4 cc        	cpx	$cc                     ; 0xcc <__bss_size+0x47>
    8110: d0 0e        	bne	$8120 <printf+0xba0>
    8112: 86 16        	stx	$16                     ; 0x16 <__rc6>
    8114: a6 cb        	ldx	$cb                     ; 0xcb <__bss_size+0x46>
    8116: 86 12        	stx	$12                     ; 0x12 <__rc2>
    8118: a6 15        	ldx	$15                     ; 0x15 <__rc5>
    811a: e4 12        	cpx	$12                     ; 0x12 <__rc2>
    811c: 90 08        	bcc	$8126 <printf+0xba6>
    811e: 80 47        	bra	$8167 <printf+0xbe7>
    8120: 86 16        	stx	$16                     ; 0x16 <__rc6>
    8122: e4 cc        	cpx	$cc                     ; 0xcc <__bss_size+0x47>
    8124: b0 41        	bcs	$8167 <printf+0xbe7>
    8126: 85 14        	sta	$14                     ; 0x14 <__rc4>
    8128: a9 01        	lda	#$1
    812a: a6 d8        	ldx	$d8                     ; 0xd8 <__bss_size+0x53>
    812c: a0 00        	ldy	#$0
    812e: 84 12        	sty	$12                     ; 0x12 <__rc2>
    8130: a0 00        	ldy	#$0
    8132: 84 13        	sty	$13                     ; 0x13 <__rc3>
    8134: e4 13        	cpx	$13                     ; 0x13 <__rc3>
    8136: d0 1a        	bne	$8152 <printf+0xbd2>
    8138: a6 d7        	ldx	$d7                     ; 0xd7 <__bss_size+0x52>
    813a: e4 12        	cpx	$12                     ; 0x12 <__rc2>
    813c: d0 14        	bne	$8152 <printf+0xbd2>
    813e: a8           	tay
    813f: 18           	clc
    8140: a5 15        	lda	$15                     ; 0x15 <__rc5>
    8142: 65 d1        	adc	$d1                     ; 0xd1 <__bss_size+0x4c>
    8144: 85 12        	sta	$12                     ; 0x12 <__rc2>
    8146: a5 16        	lda	$16                     ; 0x16 <__rc6>
    8148: 65 d2        	adc	$d2                     ; 0xd2 <__bss_size+0x4d>
    814a: 85 13        	sta	$13                     ; 0x13 <__rc3>
    814c: a5 14        	lda	$14                     ; 0x14 <__rc4>
    814e: 92 12        	sta	($12)                   ; 0x12 <__rc2>
    8150: 80 15        	bra	$8167 <printf+0xbe7>
    8152: a2 01        	ldx	#$1
    8154: 86 9e        	stx	$9e                     ; 0x9e <__bss_size+0x19>
    8156: a6 14        	ldx	$14                     ; 0x14 <__rc4>
    8158: 86 62        	stx	$62                     ; 0x62 <__putchar.s>
    815a: a2 62        	ldx	#$62
    815c: 86 12        	stx	$12                     ; 0x12 <__rc2>
    815e: a2 00        	ldx	#$0
    8160: 86 13        	stx	$13                     ; 0x13 <__rc3>
    8162: 20 e9 5c     	jsr	$5ce9 <textPrint>
    8165: a4 9e        	ldy	$9e                     ; 0x9e <__bss_size+0x19>
    8167: e6 cd        	inc	$cd                     ; 0xcd <__bss_size+0x48>
    8169: d0 02        	bne	$816d <printf+0xbed>
    816b: e6 ce        	inc	$ce                     ; 0xce <__bss_size+0x49>
    816d: a5 c9        	lda	$c9                     ; 0xc9 <__bss_size+0x44>
    816f: 29 01        	and	#$1
    8171: d0 27        	bne	$819a <printf+0xc1a>
    8173: a6 cd        	ldx	$cd                     ; 0xcd <__bss_size+0x48>
    8175: 86 15        	stx	$15                     ; 0x15 <__rc5>
    8177: a5 ce        	lda	$ce                     ; 0xce <__bss_size+0x49>
    8179: a6 cb        	ldx	$cb                     ; 0xcb <__bss_size+0x46>
    817b: 86 14        	stx	$14                     ; 0x14 <__rc4>
    817d: a6 cc        	ldx	$cc                     ; 0xcc <__bss_size+0x47>
    817f: 86 12        	stx	$12                     ; 0x12 <__rc2>
    8181: 86 13        	stx	$13                     ; 0x13 <__rc3>
    8183: c5 12        	cmp	$12                     ; 0x12 <__rc2>
    8185: f0 03        	beq	$818a <printf+0xc0a>
    8187: 4c 43 82     	jmp	$8243 <printf+0xcc3>
    818a: a5 14        	lda	$14                     ; 0x14 <__rc4>
    818c: 85 12        	sta	$12                     ; 0x12 <__rc2>
    818e: a6 15        	ldx	$15                     ; 0x15 <__rc5>
    8190: e4 12        	cpx	$12                     ; 0x12 <__rc2>
    8192: 90 03        	bcc	$8197 <printf+0xc17>
    8194: 4c 4b 82     	jmp	$824b <printf+0xccb>
    8197: 4c 6b 82     	jmp	$826b <printf+0xceb>
    819a: a6 cd        	ldx	$cd                     ; 0xcd <__bss_size+0x48>
    819c: 86 15        	stx	$15                     ; 0x15 <__rc5>
    819e: a5 ce        	lda	$ce                     ; 0xce <__bss_size+0x49>
    81a0: a6 a2        	ldx	$a2                     ; 0xa2 <__bss_size+0x1d>
    81a2: 5a           	phy
    81a3: a4 a3        	ldy	$a3                     ; 0xa3 <__bss_size+0x1e>
    81a5: 84 12        	sty	$12                     ; 0x12 <__rc2>
    81a7: 7a           	ply
    81a8: e6 12        	inc	$12                     ; 0x12 <__rc2>
    81aa: c6 12        	dec	$12                     ; 0x12 <__rc2>
    81ac: f0 03        	beq	$81b1 <printf+0xc31>
    81ae: 4c 2f 82     	jmp	$822f <printf+0xcaf>
    81b1: e0 00        	cpx	#$0
    81b3: f0 c4        	beq	$8179 <printf+0xbf9>
    81b5: 4c 2f 82     	jmp	$822f <printf+0xcaf>
    81b8: c5 cc        	cmp	$cc                     ; 0xcc <__bss_size+0x47>
    81ba: b0 42        	bcs	$81fe <printf+0xc7e>
    81bc: a2 01        	ldx	#$1
    81be: 86 14        	stx	$14                     ; 0x14 <__rc4>
    81c0: a6 d8        	ldx	$d8                     ; 0xd8 <__bss_size+0x53>
    81c2: a0 00        	ldy	#$0
    81c4: 84 12        	sty	$12                     ; 0x12 <__rc2>
    81c6: a0 00        	ldy	#$0
    81c8: 84 13        	sty	$13                     ; 0x13 <__rc3>
    81ca: e4 13        	cpx	$13                     ; 0x13 <__rc3>
    81cc: d0 1b        	bne	$81e9 <printf+0xc69>
    81ce: a6 d7        	ldx	$d7                     ; 0xd7 <__bss_size+0x52>
    81d0: e4 12        	cpx	$12                     ; 0x12 <__rc2>
    81d2: d0 15        	bne	$81e9 <printf+0xc69>
    81d4: a4 14        	ldy	$14                     ; 0x14 <__rc4>
    81d6: 18           	clc
    81d7: aa           	tax
    81d8: a5 15        	lda	$15                     ; 0x15 <__rc5>
    81da: 65 d1        	adc	$d1                     ; 0xd1 <__bss_size+0x4c>
    81dc: 85 12        	sta	$12                     ; 0x12 <__rc2>
    81de: 8a           	txa
    81df: 65 d2        	adc	$d2                     ; 0xd2 <__bss_size+0x4d>
    81e1: 85 13        	sta	$13                     ; 0x13 <__rc3>
    81e3: a9 20        	lda	#$20
    81e5: 92 12        	sta	($12)                   ; 0x12 <__rc2>
    81e7: 80 15        	bra	$81fe <printf+0xc7e>
    81e9: a2 01        	ldx	#$1
    81eb: 86 9e        	stx	$9e                     ; 0x9e <__bss_size+0x19>
    81ed: a2 20        	ldx	#$20
    81ef: 86 62        	stx	$62                     ; 0x62 <__putchar.s>
    81f1: a2 62        	ldx	#$62
    81f3: 86 12        	stx	$12                     ; 0x12 <__rc2>
    81f5: a2 00        	ldx	#$0
    81f7: 86 13        	stx	$13                     ; 0x13 <__rc3>
    81f9: 20 e9 5c     	jsr	$5ce9 <textPrint>
    81fc: a4 9e        	ldy	$9e                     ; 0x9e <__bss_size+0x19>
    81fe: a6 cd        	ldx	$cd                     ; 0xcd <__bss_size+0x48>
    8200: a5 ce        	lda	$ce                     ; 0xce <__bss_size+0x49>
    8202: e8           	inx
    8203: d0 01        	bne	$8206 <printf+0xc86>
    8205: 1a           	inc
    8206: 86 15        	stx	$15                     ; 0x15 <__rc5>
    8208: 86 cd        	stx	$cd                     ; 0xcd <__bss_size+0x48>
    820a: 85 ce        	sta	$ce                     ; 0xce <__bss_size+0x49>
    820c: a6 a2        	ldx	$a2                     ; 0xa2 <__bss_size+0x1d>
    820e: 86 12        	stx	$12                     ; 0x12 <__rc2>
    8210: a6 a3        	ldx	$a3                     ; 0xa3 <__bss_size+0x1e>
    8212: 86 13        	stx	$13                     ; 0x13 <__rc3>
    8214: a2 ff        	ldx	#$ff
    8216: c6 12        	dec	$12                     ; 0x12 <__rc2>
    8218: e4 12        	cpx	$12                     ; 0x12 <__rc2>
    821a: d0 02        	bne	$821e <printf+0xc9e>
    821c: c6 13        	dec	$13                     ; 0x13 <__rc3>
    821e: a6 12        	ldx	$12                     ; 0x12 <__rc2>
    8220: 86 a2        	stx	$a2                     ; 0xa2 <__bss_size+0x1d>
    8222: a6 13        	ldx	$13                     ; 0x13 <__rc3>
    8224: 86 a3        	stx	$a3                     ; 0xa3 <__bss_size+0x1e>
    8226: d0 07        	bne	$822f <printf+0xcaf>
    8228: a6 12        	ldx	$12                     ; 0x12 <__rc2>
    822a: d0 03        	bne	$822f <printf+0xcaf>
    822c: 4c 79 81     	jmp	$8179 <printf+0xbf9>
    822f: c5 cc        	cmp	$cc                     ; 0xcc <__bss_size+0x47>
    8231: f0 03        	beq	$8236 <printf+0xcb6>
    8233: 4c b8 81     	jmp	$81b8 <printf+0xc38>
    8236: a6 cb        	ldx	$cb                     ; 0xcb <__bss_size+0x46>
    8238: 86 12        	stx	$12                     ; 0x12 <__rc2>
    823a: a6 15        	ldx	$15                     ; 0x15 <__rc5>
    823c: e4 12        	cpx	$12                     ; 0x12 <__rc2>
    823e: b0 be        	bcs	$81fe <printf+0xc7e>
    8240: 4c bc 81     	jmp	$81bc <printf+0xc3c>
    8243: 86 12        	stx	$12                     ; 0x12 <__rc2>
    8245: c5 12        	cmp	$12                     ; 0x12 <__rc2>
    8247: a5 14        	lda	$14                     ; 0x14 <__rc4>
    8249: 90 20        	bcc	$826b <printf+0xceb>
    824b: a6 13        	ldx	$13                     ; 0x13 <__rc3>
    824d: d0 03        	bne	$8252 <printf+0xcd2>
    824f: aa           	tax
    8250: f0 19        	beq	$826b <printf+0xceb>
    8252: 18           	clc
    8253: 65 d1        	adc	$d1                     ; 0xd1 <__bss_size+0x4c>
    8255: 85 12        	sta	$12                     ; 0x12 <__rc2>
    8257: a5 13        	lda	$13                     ; 0x13 <__rc3>
    8259: 65 d2        	adc	$d2                     ; 0xd2 <__bss_size+0x4d>
    825b: 85 13        	sta	$13                     ; 0x13 <__rc3>
    825d: a2 ff        	ldx	#$ff
    825f: c6 12        	dec	$12                     ; 0x12 <__rc2>
    8261: e4 12        	cpx	$12                     ; 0x12 <__rc2>
    8263: d0 02        	bne	$8267 <printf+0xce7>
    8265: c6 13        	dec	$13                     ; 0x13 <__rc3>
    8267: a9 00        	lda	#$0
    8269: 92 12        	sta	($12)                   ; 0x12 <__rc2>
    826b: e6 9c        	inc	$9c                     ; 0x9c <__bss_size+0x17>
    826d: d0 02        	bne	$8271 <printf+0xcf1>
    826f: e6 9d        	inc	$9d                     ; 0x9d <__bss_size+0x18>
    8271: a6 9d        	ldx	$9d                     ; 0x9d <__bss_size+0x18>
    8273: e4 99        	cpx	$99                     ; 0x99 <__bss_size+0x14>
    8275: f0 03        	beq	$827a <printf+0xcfa>
    8277: 4c e5 75     	jmp	$75e5 <printf+0x65>
    827a: a6 9c        	ldx	$9c                     ; 0x9c <__bss_size+0x17>
    827c: e4 98        	cpx	$98                     ; 0x98 <__bss_size+0x13>
    827e: f0 03        	beq	$8283 <printf+0xd03>
    8280: 4c e5 75     	jmp	$75e5 <printf+0x65>
    8283: b2 98        	lda	($98)                   ; 0x98 <__bss_size+0x13>
    8285: 4c f9 75     	jmp	$75f9 <printf+0x79>
    8288: e4 9f        	cpx	$9f                     ; 0x9f <__bss_size+0x1a>
    828a: a6 9a        	ldx	$9a                     ; 0x9a <__bss_size+0x15>
    828c: b0 03        	bcs	$8291 <printf+0xd11>
    828e: 4c a5 7c     	jmp	$7ca5 <printf+0x725>
    8291: a5 99        	lda	$99                     ; 0x99 <__bss_size+0x14>
    8293: 85 9e        	sta	$9e                     ; 0x9e <__bss_size+0x19>
    8295: 64 9f        	stz	$9f                     ; 0x9f <__bss_size+0x1a>
    8297: e6 9e        	inc	$9e                     ; 0x9e <__bss_size+0x19>
    8299: f0 03        	beq	$829e <printf+0xd1e>
    829b: 4c a5 7c     	jmp	$7ca5 <printf+0x725>
    829e: e6 9f        	inc	$9f                     ; 0x9f <__bss_size+0x1a>
    82a0: 4c a5 7c     	jmp	$7ca5 <printf+0x725>
    82a3: a2 58        	ldx	#$58
    82a5: 86 dd        	stx	$dd                     ; 0xdd <__bss_size+0x58>
    82a7: a2 01        	ldx	#$1
    82a9: 86 9b        	stx	$9b                     ; 0x9b <__bss_size+0x16>
    82ab: a2 30        	ldx	#$30
    82ad: 86 98        	stx	$98                     ; 0x98 <__bss_size+0x13>
    82af: a9 02        	lda	#$2
    82b1: a2 00        	ldx	#$0
    82b3: 86 a1        	stx	$a1                     ; 0xa1 <__bss_size+0x1c>
    82b5: 4c d8 7c     	jmp	$7cd8 <printf+0x758>
    82b8: 64 a2        	stz	$a2                     ; 0xa2 <__bss_size+0x1d>
    82ba: 64 a3        	stz	$a3                     ; 0xa3 <__bss_size+0x1e>
    82bc: 4c 7c 7f     	jmp	$7f7c <printf+0x9fc>
    82bf: 60           	rts

000082c0 <malloc>:
    82c0: a8           	tay
    82c1: 8a           	txa
    82c2: a2 00        	ldx	#$0
    82c4: 86 12        	stx	$12                     ; 0x12 <__rc2>
    82c6: a2 00        	ldx	#$0
    82c8: 86 13        	stx	$13                     ; 0x13 <__rc3>
    82ca: aa           	tax
    82cb: d0 07        	bne	$82d4 <malloc+0x14>
    82cd: c0 00        	cpy	#$0
    82cf: d0 03        	bne	$82d4 <malloc+0x14>
    82d1: 4c d4 83     	jmp	$83d4 <malloc+0x114>
    82d4: 84 16        	sty	$16                     ; 0x16 <__rc6>
    82d6: aa           	tax
    82d7: d0 0e        	bne	$82e7 <malloc+0x27>
    82d9: a6 16        	ldx	$16                     ; 0x16 <__rc6>
    82db: e0 07        	cpx	#$7
    82dd: b0 0c        	bcs	$82eb <malloc+0x2b>
    82df: a2 08        	ldx	#$8
    82e1: 86 90        	stx	$90                     ; 0x90 <__bss_size+0xb>
    82e3: a9 00        	lda	#$0
    82e5: 80 31        	bra	$8318 <malloc+0x58>
    82e7: c9 00        	cmp	#$0
    82e9: 90 f4        	bcc	$82df <malloc+0x1f>
    82eb: a8           	tay
    82ec: a5 16        	lda	$16                     ; 0x16 <__rc6>
    82ee: 29 01        	and	#$1
    82f0: a2 02        	ldx	#$2
    82f2: 64 14        	stz	$14                     ; 0x14 <__rc4>
    82f4: c9 00        	cmp	#$0
    82f6: f0 02        	beq	$82fa <malloc+0x3a>
    82f8: a2 03        	ldx	#$3
    82fa: 86 15        	stx	$15                     ; 0x15 <__rc5>
    82fc: 18           	clc
    82fd: a5 16        	lda	$16                     ; 0x16 <__rc6>
    82ff: 65 15        	adc	$15                     ; 0x15 <__rc5>
    8301: aa           	tax
    8302: 98           	tya
    8303: 65 14        	adc	$14                     ; 0x14 <__rc4>
    8305: 90 03        	bcc	$830a <malloc+0x4a>
    8307: 4c d4 83     	jmp	$83d4 <malloc+0x114>
    830a: 86 14        	stx	$14                     ; 0x14 <__rc4>
    830c: 86 90        	stx	$90                     ; 0x90 <__bss_size+0xb>
    830e: aa           	tax
    830f: d0 07        	bne	$8318 <malloc+0x58>
    8311: a6 14        	ldx	$14                     ; 0x14 <__rc4>
    8313: d0 03        	bne	$8318 <malloc+0x58>
    8315: 4c d4 83     	jmp	$83d4 <malloc+0x114>
    8318: 85 8f        	sta	$8f                     ; 0x8f <__bss_size+0xa>
    831a: a5 8a        	lda	$8a                     ; 0x8a <_ZN12_GLOBAL__N_111initializedE>
    831c: 29 01        	and	#$1
    831e: d0 3c        	bne	$835c <malloc+0x9c>
    8320: a9 00        	lda	#$0
    8322: a2 10        	ldx	#$10
    8324: a0 fc        	ldy	#$fc
    8326: 84 14        	sty	$14                     ; 0x14 <__rc4>
    8328: a0 8a        	ldy	#$8a
    832a: 84 15        	sty	$15                     ; 0x15 <__rc5>
    832c: a4 12        	ldy	$12                     ; 0x12 <__rc2>
    832e: 84 91        	sty	$91                     ; 0x91 <__bss_size+0xc>
    8330: a4 13        	ldy	$13                     ; 0x13 <__rc3>
    8332: 84 92        	sty	$92                     ; 0x92 <__bss_size+0xd>
    8334: a0 fc        	ldy	#$fc
    8336: 84 12        	sty	$12                     ; 0x12 <__rc2>
    8338: a0 8a        	ldy	#$8a
    833a: 84 13        	sty	$13                     ; 0x13 <__rc3>
    833c: 20 44 03     	jsr	$344 <_ZN12_GLOBAL__N_19FreeChunk6insertEPvj>
    833f: a6 91        	ldx	$91                     ; 0x91 <__bss_size+0xc>
    8341: 86 12        	stx	$12                     ; 0x12 <__rc2>
    8343: a6 92        	ldx	$92                     ; 0x92 <__bss_size+0xd>
    8345: 86 13        	stx	$13                     ; 0x13 <__rc3>
    8347: ae fd 8a     	ldx	$8afd                   ; 0x8afd <__heap_start+0x1>
    834a: a9 fe        	lda	#$fe
    834c: 2d fc 8a     	and	$8afc                   ; 0x8afc <__heap_start>
    834f: 8d fc 8a     	sta	$8afc                   ; 0x8afc <__heap_start>
    8352: 8e fd 8a     	stx	$8afd                   ; 0x8afd <__heap_start+0x1>
    8355: a2 01        	ldx	#$1
    8357: 8e fa 8a     	stx	$8afa                   ; 0x8afa <_ZN12_GLOBAL__N_19last_freeE>
    835a: 86 8a        	stx	$8a                     ; 0x8a <_ZN12_GLOBAL__N_111initializedE>
    835c: a6 8d        	ldx	$8d                     ; 0x8d <_ZN12_GLOBAL__N_19free_listE>
    835e: 86 16        	stx	$16                     ; 0x16 <__rc6>
    8360: a4 8e        	ldy	$8e                     ; 0x8e <_ZN12_GLOBAL__N_19free_listE+0x1>
    8362: 84 17        	sty	$17                     ; 0x17 <__rc7>
    8364: a9 00        	lda	#$0
    8366: 85 14        	sta	$14                     ; 0x14 <__rc4>
    8368: a9 00        	lda	#$0
    836a: 85 15        	sta	$15                     ; 0x15 <__rc5>
    836c: c4 15        	cpy	$15                     ; 0x15 <__rc5>
    836e: d0 07        	bne	$8377 <malloc+0xb7>
    8370: e4 14        	cpx	$14                     ; 0x14 <__rc4>
    8372: d0 03        	bne	$8377 <malloc+0xb7>
    8374: 4c d4 83     	jmp	$83d4 <malloc+0x114>
    8377: a2 00        	ldx	#$0
    8379: a0 10        	ldy	#$10
    837b: 86 14        	stx	$14                     ; 0x14 <__rc4>
    837d: 84 15        	sty	$15                     ; 0x15 <__rc5>
    837f: 18           	clc
    8380: a9 fc        	lda	#$fc
    8382: 65 14        	adc	$14                     ; 0x14 <__rc4>
    8384: 85 18        	sta	$18                     ; 0x18 <__rc8>
    8386: a9 8a        	lda	#$8a
    8388: 65 15        	adc	$15                     ; 0x15 <__rc5>
    838a: 85 93        	sta	$93                     ; 0x93 <__bss_size+0xe>
    838c: a0 01        	ldy	#$1
    838e: a6 8f        	ldx	$8f                     ; 0x8f <__bss_size+0xa>
    8390: 86 19        	stx	$19                     ; 0x19 <__rc9>
    8392: a6 16        	ldx	$16                     ; 0x16 <__rc6>
    8394: 86 14        	stx	$14                     ; 0x14 <__rc4>
    8396: a6 17        	ldx	$17                     ; 0x17 <__rc7>
    8398: 86 15        	stx	$15                     ; 0x15 <__rc5>
    839a: b1 14        	lda	($14),y                 ; 0x14 <__rc4>
    839c: c5 19        	cmp	$19                     ; 0x19 <__rc9>
    839e: d0 0e        	bne	$83ae <malloc+0xee>
    83a0: b2 14        	lda	($14)                   ; 0x14 <__rc4>
    83a2: 29 fe        	and	#$fe
    83a4: a6 90        	ldx	$90                     ; 0x90 <__bss_size+0xb>
    83a6: 86 1a        	stx	$1a                     ; 0x1a <__rc10>
    83a8: c5 1a        	cmp	$1a                     ; 0x1a <__rc10>
    83aa: b0 29        	bcs	$83d5 <malloc+0x115>
    83ac: 80 04        	bra	$83b2 <malloc+0xf2>
    83ae: c5 19        	cmp	$19                     ; 0x19 <__rc9>
    83b0: b0 23        	bcs	$83d5 <malloc+0x115>
    83b2: a5 14        	lda	$14                     ; 0x14 <__rc4>
    83b4: 18           	clc
    83b5: 69 02        	adc	#$2
    83b7: 85 1a        	sta	$1a                     ; 0x1a <__rc10>
    83b9: a5 15        	lda	$15                     ; 0x15 <__rc5>
    83bb: 69 00        	adc	#$0
    83bd: 85 1b        	sta	$1b                     ; 0x1b <__rc11>
    83bf: a0 02        	ldy	#$2
    83c1: b1 14        	lda	($14),y                 ; 0x14 <__rc4>
    83c3: 85 14        	sta	$14                     ; 0x14 <__rc4>
    83c5: 88           	dey
    83c6: b1 1a        	lda	($1a),y                 ; 0x1a <__rc10>
    83c8: 85 15        	sta	$15                     ; 0x15 <__rc5>
    83ca: c5 17        	cmp	$17                     ; 0x17 <__rc7>
    83cc: d0 cc        	bne	$839a <malloc+0xda>
    83ce: a5 14        	lda	$14                     ; 0x14 <__rc4>
    83d0: c5 16        	cmp	$16                     ; 0x16 <__rc6>
    83d2: d0 c6        	bne	$839a <malloc+0xda>
    83d4: 60           	rts
    83d5: a6 18        	ldx	$18                     ; 0x18 <__rc8>
    83d7: 86 94        	stx	$94                     ; 0x94 <__bss_size+0xf>
    83d9: a6 14        	ldx	$14                     ; 0x14 <__rc4>
    83db: 86 12        	stx	$12                     ; 0x12 <__rc2>
    83dd: a6 15        	ldx	$15                     ; 0x15 <__rc5>
    83df: 86 13        	stx	$13                     ; 0x13 <__rc3>
    83e1: a6 14        	ldx	$14                     ; 0x14 <__rc4>
    83e3: 86 91        	stx	$91                     ; 0x91 <__bss_size+0xc>
    83e5: a6 15        	ldx	$15                     ; 0x15 <__rc5>
    83e7: 86 92        	stx	$92                     ; 0x92 <__bss_size+0xd>
    83e9: 20 90 04     	jsr	$490 <_ZN12_GLOBAL__N_19FreeChunk6removeEv>
    83ec: a6 91        	ldx	$91                     ; 0x91 <__bss_size+0xc>
    83ee: 86 12        	stx	$12                     ; 0x12 <__rc2>
    83f0: a6 92        	ldx	$92                     ; 0x92 <__bss_size+0xd>
    83f2: 86 13        	stx	$13                     ; 0x13 <__rc3>
    83f4: a0 01        	ldy	#$1
    83f6: b1 12        	lda	($12),y                 ; 0x12 <__rc2>
    83f8: 85 15        	sta	$15                     ; 0x15 <__rc5>
    83fa: a9 fe        	lda	#$fe
    83fc: 32 12        	and	($12)                   ; 0x12 <__rc2>
    83fe: 38           	sec
    83ff: a6 90        	ldx	$90                     ; 0x90 <__bss_size+0xb>
    8401: 86 14        	stx	$14                     ; 0x14 <__rc4>
    8403: 85 17        	sta	$17                     ; 0x17 <__rc7>
    8405: e5 14        	sbc	$14                     ; 0x14 <__rc4>
    8407: a8           	tay
    8408: a6 8f        	ldx	$8f                     ; 0x8f <__bss_size+0xa>
    840a: 86 14        	stx	$14                     ; 0x14 <__rc4>
    840c: a5 15        	lda	$15                     ; 0x15 <__rc5>
    840e: 85 16        	sta	$16                     ; 0x16 <__rc6>
    8410: e5 14        	sbc	$14                     ; 0x14 <__rc4>
    8412: d0 06        	bne	$841a <malloc+0x15a>
    8414: 85 18        	sta	$18                     ; 0x18 <__rc8>
    8416: c0 08        	cpy	#$8
    8418: 80 04        	bra	$841e <malloc+0x15e>
    841a: 85 18        	sta	$18                     ; 0x18 <__rc8>
    841c: c9 00        	cmp	#$0
    841e: a6 94        	ldx	$94                     ; 0x94 <__bss_size+0xf>
    8420: 86 14        	stx	$14                     ; 0x14 <__rc4>
    8422: a6 93        	ldx	$93                     ; 0x93 <__bss_size+0xe>
    8424: 86 15        	stx	$15                     ; 0x15 <__rc5>
    8426: a5 17        	lda	$17                     ; 0x17 <__rc7>
    8428: 90 43        	bcc	$846d <malloc+0x1ad>
    842a: 18           	clc
    842b: a6 90        	ldx	$90                     ; 0x90 <__bss_size+0xb>
    842d: 86 90        	stx	$90                     ; 0x90 <__bss_size+0xb>
    842f: 8a           	txa
    8430: 65 12        	adc	$12                     ; 0x12 <__rc2>
    8432: 85 12        	sta	$12                     ; 0x12 <__rc2>
    8434: a6 8f        	ldx	$8f                     ; 0x8f <__bss_size+0xa>
    8436: 86 8f        	stx	$8f                     ; 0x8f <__bss_size+0xa>
    8438: a5 8f        	lda	$8f                     ; 0x8f <__bss_size+0xa>
    843a: 65 13        	adc	$13                     ; 0x13 <__rc3>
    843c: 85 13        	sta	$13                     ; 0x13 <__rc3>
    843e: a6 18        	ldx	$18                     ; 0x18 <__rc8>
    8440: 98           	tya
    8441: 20 44 03     	jsr	$344 <_ZN12_GLOBAL__N_19FreeChunk6insertEPvj>
    8444: a6 91        	ldx	$91                     ; 0x91 <__bss_size+0xc>
    8446: 86 12        	stx	$12                     ; 0x12 <__rc2>
    8448: a6 92        	ldx	$92                     ; 0x92 <__bss_size+0xd>
    844a: 86 13        	stx	$13                     ; 0x13 <__rc3>
    844c: a5 90        	lda	$90                     ; 0x90 <__bss_size+0xb>
    844e: 29 fe        	and	#$fe
    8450: 85 14        	sta	$14                     ; 0x14 <__rc4>
    8452: a0 01        	ldy	#$1
    8454: 98           	tya
    8455: 32 12        	and	($12)                   ; 0x12 <__rc2>
    8457: 05 14        	ora	$14                     ; 0x14 <__rc4>
    8459: 92 12        	sta	($12)                   ; 0x12 <__rc2>
    845b: a5 8f        	lda	$8f                     ; 0x8f <__bss_size+0xa>
    845d: 91 12        	sta	($12),y                 ; 0x12 <__rc2>
    845f: a5 14        	lda	$14                     ; 0x14 <__rc4>
    8461: a6 8f        	ldx	$8f                     ; 0x8f <__bss_size+0xa>
    8463: 86 16        	stx	$16                     ; 0x16 <__rc6>
    8465: a6 94        	ldx	$94                     ; 0x94 <__bss_size+0xf>
    8467: 86 14        	stx	$14                     ; 0x14 <__rc4>
    8469: a6 93        	ldx	$93                     ; 0x93 <__bss_size+0xe>
    846b: 86 15        	stx	$15                     ; 0x15 <__rc5>
    846d: 18           	clc
    846e: 65 12        	adc	$12                     ; 0x12 <__rc2>
    8470: a8           	tay
    8471: a5 16        	lda	$16                     ; 0x16 <__rc6>
    8473: 65 13        	adc	$13                     ; 0x13 <__rc3>
    8475: c5 15        	cmp	$15                     ; 0x15 <__rc5>
    8477: d0 09        	bne	$8482 <malloc+0x1c2>
    8479: c4 14        	cpy	$14                     ; 0x14 <__rc4>
    847b: d0 05        	bne	$8482 <malloc+0x1c2>
    847d: 9c fa 8a     	stz	$8afa                   ; 0x8afa <_ZN12_GLOBAL__N_19last_freeE>
    8480: 80 14        	bra	$8496 <malloc+0x1d6>
    8482: 84 14        	sty	$14                     ; 0x14 <__rc4>
    8484: 85 15        	sta	$15                     ; 0x15 <__rc5>
    8486: a0 01        	ldy	#$1
    8488: b1 14        	lda	($14),y                 ; 0x14 <__rc4>
    848a: 85 16        	sta	$16                     ; 0x16 <__rc6>
    848c: a9 fe        	lda	#$fe
    848e: 32 14        	and	($14)                   ; 0x14 <__rc4>
    8490: 92 14        	sta	($14)                   ; 0x14 <__rc4>
    8492: a5 16        	lda	$16                     ; 0x16 <__rc6>
    8494: 91 14        	sta	($14),y                 ; 0x14 <__rc4>
    8496: a5 12        	lda	$12                     ; 0x12 <__rc2>
    8498: 18           	clc
    8499: 69 02        	adc	#$2
    849b: 85 12        	sta	$12                     ; 0x12 <__rc2>
    849d: a5 13        	lda	$13                     ; 0x13 <__rc3>
    849f: 69 00        	adc	#$0
    84a1: 85 13        	sta	$13                     ; 0x13 <__rc3>
    84a3: 60           	rts

000084a4 <memcpy>:
    84a4: a8           	tay
    84a5: 8a           	txa
    84a6: d0 03        	bne	$84ab <memcpy+0x7>
    84a8: 98           	tya
    84a9: f0 24        	beq	$84cf <memcpy+0x2b>
    84ab: a5 12        	lda	$12                     ; 0x12 <__rc2>
    84ad: 85 16        	sta	$16                     ; 0x16 <__rc6>
    84af: a5 13        	lda	$13                     ; 0x13 <__rc3>
    84b1: 85 17        	sta	$17                     ; 0x17 <__rc7>
    84b3: b2 14        	lda	($14)                   ; 0x14 <__rc4>
    84b5: 92 16        	sta	($16)                   ; 0x16 <__rc6>
    84b7: e6 16        	inc	$16                     ; 0x16 <__rc6>
    84b9: d0 02        	bne	$84bd <memcpy+0x19>
    84bb: e6 17        	inc	$17                     ; 0x17 <__rc7>
    84bd: e6 14        	inc	$14                     ; 0x14 <__rc4>
    84bf: d0 02        	bne	$84c3 <memcpy+0x1f>
    84c1: e6 15        	inc	$15                     ; 0x15 <__rc5>
    84c3: 88           	dey
    84c4: c0 ff        	cpy	#$ff
    84c6: d0 01        	bne	$84c9 <memcpy+0x25>
    84c8: ca           	dex
    84c9: 8a           	txa
    84ca: d0 e7        	bne	$84b3 <memcpy+0xf>
    84cc: 98           	tya
    84cd: d0 e4        	bne	$84b3 <memcpy+0xf>
    84cf: 60           	rts

000084d0 <__memset>:
    84d0: a4 14        	ldy	$14                     ; 0x14 <__rc4>
    84d2: d0 04        	bne	$84d8 <__memset+0x8>
    84d4: e0 00        	cpx	#$0
    84d6: f0 17        	beq	$84ef <__memset+0x1f>
    84d8: 92 12        	sta	($12)                   ; 0x12 <__rc2>
    84da: e6 12        	inc	$12                     ; 0x12 <__rc2>
    84dc: d0 02        	bne	$84e0 <__memset+0x10>
    84de: e6 13        	inc	$13                     ; 0x13 <__rc3>
    84e0: ca           	dex
    84e1: e0 ff        	cpx	#$ff
    84e3: d0 02        	bne	$84e7 <__memset+0x17>
    84e5: c6 14        	dec	$14                     ; 0x14 <__rc4>
    84e7: a4 14        	ldy	$14                     ; 0x14 <__rc4>
    84e9: d0 ed        	bne	$84d8 <__memset+0x8>
    84eb: e0 00        	cpx	#$0
    84ed: d0 e9        	bne	$84d8 <__memset+0x8>
    84ef: 60           	rts

000084f0 <__udivsi3>:
    84f0: 64 18        	stz	$18                     ; 0x18 <__rc8>
    84f2: a4 17        	ldy	$17                     ; 0x17 <__rc7>
    84f4: d0 0c        	bne	$8502 <__udivsi3+0x12>
    84f6: a4 16        	ldy	$16                     ; 0x16 <__rc6>
    84f8: d0 08        	bne	$8502 <__udivsi3+0x12>
    84fa: a4 15        	ldy	$15                     ; 0x15 <__rc5>
    84fc: d0 04        	bne	$8502 <__udivsi3+0x12>
    84fe: a4 14        	ldy	$14                     ; 0x14 <__rc4>
    8500: f0 27        	beq	$8529 <__udivsi3+0x39>
    8502: 86 1e        	stx	$1e                     ; 0x1e <__rc14>
    8504: a6 12        	ldx	$12                     ; 0x12 <__rc2>
    8506: 86 1f        	stx	$1f                     ; 0x1f <__rc15>
    8508: a6 13        	ldx	$13                     ; 0x13 <__rc3>
    850a: 86 22        	stx	$22                     ; 0x22 <__rc18>
    850c: e4 17        	cpx	$17                     ; 0x17 <__rc7>
    850e: d0 15        	bne	$8525 <__udivsi3+0x35>
    8510: a6 12        	ldx	$12                     ; 0x12 <__rc2>
    8512: e4 16        	cpx	$16                     ; 0x16 <__rc6>
    8514: d0 18        	bne	$852e <__udivsi3+0x3e>
    8516: a6 1e        	ldx	$1e                     ; 0x1e <__rc14>
    8518: e4 15        	cpx	$15                     ; 0x15 <__rc5>
    851a: f0 03        	beq	$851f <__udivsi3+0x2f>
    851c: 4c 45 86     	jmp	$8645 <__udivsi3+0x155>
    851f: c5 14        	cmp	$14                     ; 0x14 <__rc4>
    8521: 90 06        	bcc	$8529 <__udivsi3+0x39>
    8523: 80 0d        	bra	$8532 <__udivsi3+0x42>
    8525: e4 17        	cpx	$17                     ; 0x17 <__rc7>
    8527: b0 09        	bcs	$8532 <__udivsi3+0x42>
    8529: 64 23        	stz	$23                     ; 0x23 <__rc19>
    852b: 4c 98 85     	jmp	$8598 <__udivsi3+0xa8>
    852e: e4 16        	cpx	$16                     ; 0x16 <__rc6>
    8530: 90 f7        	bcc	$8529 <__udivsi3+0x39>
    8532: 85 1d        	sta	$1d                     ; 0x1d <__rc13>
    8534: a9 01        	lda	#$1
    8536: 85 23        	sta	$23                     ; 0x23 <__rc19>
    8538: a5 17        	lda	$17                     ; 0x17 <__rc7>
    853a: 10 03        	bpl	$853f <__udivsi3+0x4f>
    853c: 4c 98 85     	jmp	$8598 <__udivsi3+0xa8>
    853f: a5 1e        	lda	$1e                     ; 0x1e <__rc14>
    8541: a2 00        	ldx	#$0
    8543: a4 14        	ldy	$14                     ; 0x14 <__rc4>
    8545: 84 19        	sty	$19                     ; 0x19 <__rc9>
    8547: a4 15        	ldy	$15                     ; 0x15 <__rc5>
    8549: 84 1a        	sty	$1a                     ; 0x1a <__rc10>
    854b: a4 16        	ldy	$16                     ; 0x16 <__rc6>
    854d: 84 1b        	sty	$1b                     ; 0x1b <__rc11>
    854f: a4 17        	ldy	$17                     ; 0x17 <__rc7>
    8551: 84 1c        	sty	$1c                     ; 0x1c <__rc12>
    8553: 06 19        	asl	$19                     ; 0x19 <__rc9>
    8555: 26 1a        	rol	$1a                     ; 0x1a <__rc10>
    8557: 26 1b        	rol	$1b                     ; 0x1b <__rc11>
    8559: 26 1c        	rol	$1c                     ; 0x1c <__rc12>
    855b: a4 22        	ldy	$22                     ; 0x22 <__rc18>
    855d: c4 1c        	cpy	$1c                     ; 0x1c <__rc12>
    855f: d0 12        	bne	$8573 <__udivsi3+0x83>
    8561: a4 12        	ldy	$12                     ; 0x12 <__rc2>
    8563: c4 1b        	cpy	$1b                     ; 0x1b <__rc11>
    8565: d0 12        	bne	$8579 <__udivsi3+0x89>
    8567: c5 1a        	cmp	$1a                     ; 0x1a <__rc10>
    8569: d0 14        	bne	$857f <__udivsi3+0x8f>
    856b: a4 1d        	ldy	$1d                     ; 0x1d <__rc13>
    856d: c4 19        	cpy	$19                     ; 0x19 <__rc9>
    856f: 90 30        	bcc	$85a1 <__udivsi3+0xb1>
    8571: 80 10        	bra	$8583 <__udivsi3+0x93>
    8573: c4 1c        	cpy	$1c                     ; 0x1c <__rc12>
    8575: 90 2a        	bcc	$85a1 <__udivsi3+0xb1>
    8577: 80 0a        	bra	$8583 <__udivsi3+0x93>
    8579: c4 1b        	cpy	$1b                     ; 0x1b <__rc11>
    857b: 90 24        	bcc	$85a1 <__udivsi3+0xb1>
    857d: 80 04        	bra	$8583 <__udivsi3+0x93>
    857f: c5 1a        	cmp	$1a                     ; 0x1a <__rc10>
    8581: 90 1e        	bcc	$85a1 <__udivsi3+0xb1>
    8583: e8           	inx
    8584: a4 19        	ldy	$19                     ; 0x19 <__rc9>
    8586: 84 14        	sty	$14                     ; 0x14 <__rc4>
    8588: a4 1a        	ldy	$1a                     ; 0x1a <__rc10>
    858a: 84 15        	sty	$15                     ; 0x15 <__rc5>
    858c: a4 1b        	ldy	$1b                     ; 0x1b <__rc11>
    858e: 84 16        	sty	$16                     ; 0x16 <__rc6>
    8590: a4 1c        	ldy	$1c                     ; 0x1c <__rc12>
    8592: 84 17        	sty	$17                     ; 0x17 <__rc7>
    8594: 10 bd        	bpl	$8553 <__udivsi3+0x63>
    8596: 80 19        	bra	$85b1 <__udivsi3+0xc1>
    8598: 64 12        	stz	$12                     ; 0x12 <__rc2>
    859a: 64 13        	stz	$13                     ; 0x13 <__rc3>
    859c: a6 18        	ldx	$18                     ; 0x18 <__rc8>
    859e: a5 23        	lda	$23                     ; 0x23 <__rc19>
    85a0: 60           	rts
    85a1: a4 14        	ldy	$14                     ; 0x14 <__rc4>
    85a3: 84 19        	sty	$19                     ; 0x19 <__rc9>
    85a5: a4 15        	ldy	$15                     ; 0x15 <__rc5>
    85a7: 84 1a        	sty	$1a                     ; 0x1a <__rc10>
    85a9: a4 16        	ldy	$16                     ; 0x16 <__rc6>
    85ab: 84 1b        	sty	$1b                     ; 0x1b <__rc11>
    85ad: a4 17        	ldy	$17                     ; 0x17 <__rc7>
    85af: 84 1c        	sty	$1c                     ; 0x1c <__rc12>
    85b1: 64 12        	stz	$12                     ; 0x12 <__rc2>
    85b3: 64 13        	stz	$13                     ; 0x13 <__rc3>
    85b5: 8a           	txa
    85b6: f0 e4        	beq	$859c <__udivsi3+0xac>
    85b8: 38           	sec
    85b9: a5 1d        	lda	$1d                     ; 0x1d <__rc13>
    85bb: e5 19        	sbc	$19                     ; 0x19 <__rc9>
    85bd: 85 14        	sta	$14                     ; 0x14 <__rc4>
    85bf: a5 1e        	lda	$1e                     ; 0x1e <__rc14>
    85c1: e5 1a        	sbc	$1a                     ; 0x1a <__rc10>
    85c3: 85 17        	sta	$17                     ; 0x17 <__rc7>
    85c5: a5 1f        	lda	$1f                     ; 0x1f <__rc15>
    85c7: e5 1b        	sbc	$1b                     ; 0x1b <__rc11>
    85c9: 85 15        	sta	$15                     ; 0x15 <__rc5>
    85cb: a5 22        	lda	$22                     ; 0x22 <__rc18>
    85cd: e5 1c        	sbc	$1c                     ; 0x1c <__rc12>
    85cf: 85 16        	sta	$16                     ; 0x16 <__rc6>
    85d1: a9 01        	lda	#$1
    85d3: 85 23        	sta	$23                     ; 0x23 <__rc19>
    85d5: 64 18        	stz	$18                     ; 0x18 <__rc8>
    85d7: 46 1c        	lsr	$1c                     ; 0x1c <__rc12>
    85d9: 66 1b        	ror	$1b                     ; 0x1b <__rc11>
    85db: 66 1a        	ror	$1a                     ; 0x1a <__rc10>
    85dd: 66 19        	ror	$19                     ; 0x19 <__rc9>
    85df: 06 23        	asl	$23                     ; 0x23 <__rc19>
    85e1: a0 01        	ldy	#$1
    85e3: b0 02        	bcs	$85e7 <__udivsi3+0xf7>
    85e5: a0 00        	ldy	#$0
    85e7: 84 1d        	sty	$1d                     ; 0x1d <__rc13>
    85e9: a5 16        	lda	$16                     ; 0x16 <__rc6>
    85eb: c5 1c        	cmp	$1c                     ; 0x1c <__rc12>
    85ed: d0 14        	bne	$8603 <__udivsi3+0x113>
    85ef: a4 15        	ldy	$15                     ; 0x15 <__rc5>
    85f1: c4 1b        	cpy	$1b                     ; 0x1b <__rc11>
    85f3: d0 44        	bne	$8639 <__udivsi3+0x149>
    85f5: a4 17        	ldy	$17                     ; 0x17 <__rc7>
    85f7: c4 1a        	cpy	$1a                     ; 0x1a <__rc10>
    85f9: d0 44        	bne	$863f <__udivsi3+0x14f>
    85fb: a4 14        	ldy	$14                     ; 0x14 <__rc4>
    85fd: c4 19        	cpy	$19                     ; 0x19 <__rc9>
    85ff: b0 06        	bcs	$8607 <__udivsi3+0x117>
    8601: 80 23        	bra	$8626 <__udivsi3+0x136>
    8603: c5 1c        	cmp	$1c                     ; 0x1c <__rc12>
    8605: 90 1f        	bcc	$8626 <__udivsi3+0x136>
    8607: 38           	sec
    8608: a5 14        	lda	$14                     ; 0x14 <__rc4>
    860a: e5 19        	sbc	$19                     ; 0x19 <__rc9>
    860c: 85 14        	sta	$14                     ; 0x14 <__rc4>
    860e: a5 17        	lda	$17                     ; 0x17 <__rc7>
    8610: e5 1a        	sbc	$1a                     ; 0x1a <__rc10>
    8612: 85 17        	sta	$17                     ; 0x17 <__rc7>
    8614: a5 15        	lda	$15                     ; 0x15 <__rc5>
    8616: e5 1b        	sbc	$1b                     ; 0x1b <__rc11>
    8618: 85 15        	sta	$15                     ; 0x15 <__rc5>
    861a: a5 16        	lda	$16                     ; 0x16 <__rc6>
    861c: e5 1c        	sbc	$1c                     ; 0x1c <__rc12>
    861e: 85 16        	sta	$16                     ; 0x16 <__rc6>
    8620: a5 23        	lda	$23                     ; 0x23 <__rc19>
    8622: 09 01        	ora	#$1
    8624: 85 23        	sta	$23                     ; 0x23 <__rc19>
    8626: a4 1d        	ldy	$1d                     ; 0x1d <__rc13>
    8628: c0 01        	cpy	#$1
    862a: 26 18        	rol	$18                     ; 0x18 <__rc8>
    862c: 26 12        	rol	$12                     ; 0x12 <__rc2>
    862e: 26 13        	rol	$13                     ; 0x13 <__rc3>
    8630: ca           	dex
    8631: f0 03        	beq	$8636 <__udivsi3+0x146>
    8633: 4c d7 85     	jmp	$85d7 <__udivsi3+0xe7>
    8636: 4c 9c 85     	jmp	$859c <__udivsi3+0xac>
    8639: c4 1b        	cpy	$1b                     ; 0x1b <__rc11>
    863b: b0 ca        	bcs	$8607 <__udivsi3+0x117>
    863d: 80 e7        	bra	$8626 <__udivsi3+0x136>
    863f: c4 1a        	cpy	$1a                     ; 0x1a <__rc10>
    8641: b0 c4        	bcs	$8607 <__udivsi3+0x117>
    8643: 80 e1        	bra	$8626 <__udivsi3+0x136>
    8645: e4 15        	cpx	$15                     ; 0x15 <__rc5>
    8647: b0 03        	bcs	$864c <__udivsi3+0x15c>
    8649: 4c 29 85     	jmp	$8529 <__udivsi3+0x39>
    864c: 4c 32 85     	jmp	$8532 <__udivsi3+0x42>

0000864f <__mulhi3>:
    864f: a4 13        	ldy	$13                     ; 0x13 <__rc3>
    8651: d0 04        	bne	$8657 <__mulhi3+0x8>
    8653: a4 12        	ldy	$12                     ; 0x12 <__rc2>
    8655: f0 25        	beq	$867c <__mulhi3+0x2d>
    8657: 85 14        	sta	$14                     ; 0x14 <__rc4>
    8659: 86 15        	stx	$15                     ; 0x15 <__rc5>
    865b: a0 00        	ldy	#$0
    865d: 98           	tya
    865e: 46 13        	lsr	$13                     ; 0x13 <__rc3>
    8660: 66 12        	ror	$12                     ; 0x12 <__rc2>
    8662: 90 09        	bcc	$866d <__mulhi3+0x1e>
    8664: aa           	tax
    8665: 98           	tya
    8666: 18           	clc
    8667: 65 14        	adc	$14                     ; 0x14 <__rc4>
    8669: a8           	tay
    866a: 8a           	txa
    866b: 65 15        	adc	$15                     ; 0x15 <__rc5>
    866d: 06 14        	asl	$14                     ; 0x14 <__rc4>
    866f: 26 15        	rol	$15                     ; 0x15 <__rc5>
    8671: a6 13        	ldx	$13                     ; 0x13 <__rc3>
    8673: d0 e9        	bne	$865e <__mulhi3+0xf>
    8675: a6 12        	ldx	$12                     ; 0x12 <__rc2>
    8677: d0 e5        	bne	$865e <__mulhi3+0xf>
    8679: aa           	tax
    867a: 98           	tya
    867b: 60           	rts
    867c: a0 00        	ldy	#$0
    867e: 98           	tya
    867f: 80 f8        	bra	$8679 <__mulhi3+0x2a>

00008681 <__mulsi3>:
    8681: a4 17        	ldy	$17                     ; 0x17 <__rc7>
    8683: d0 0f        	bne	$8694 <__mulsi3+0x13>
    8685: a4 16        	ldy	$16                     ; 0x16 <__rc6>
    8687: d0 0b        	bne	$8694 <__mulsi3+0x13>
    8689: a4 15        	ldy	$15                     ; 0x15 <__rc5>
    868b: d0 07        	bne	$8694 <__mulsi3+0x13>
    868d: a4 14        	ldy	$14                     ; 0x14 <__rc4>
    868f: d0 03        	bne	$8694 <__mulsi3+0x13>
    8691: 4c e8 86     	jmp	$86e8 <__mulsi3+0x67>
    8694: 85 18        	sta	$18                     ; 0x18 <__rc8>
    8696: 86 19        	stx	$19                     ; 0x19 <__rc9>
    8698: a0 00        	ldy	#$0
    869a: a2 00        	ldx	#$0
    869c: 64 1a        	stz	$1a                     ; 0x1a <__rc10>
    869e: 98           	tya
    869f: 46 17        	lsr	$17                     ; 0x17 <__rc7>
    86a1: 66 16        	ror	$16                     ; 0x16 <__rc6>
    86a3: 66 15        	ror	$15                     ; 0x15 <__rc5>
    86a5: 66 14        	ror	$14                     ; 0x14 <__rc4>
    86a7: 90 15        	bcc	$86be <__mulsi3+0x3d>
    86a9: 85 1b        	sta	$1b                     ; 0x1b <__rc11>
    86ab: 98           	tya
    86ac: 18           	clc
    86ad: 65 18        	adc	$18                     ; 0x18 <__rc8>
    86af: a8           	tay
    86b0: 8a           	txa
    86b1: 65 19        	adc	$19                     ; 0x19 <__rc9>
    86b3: aa           	tax
    86b4: a5 1a        	lda	$1a                     ; 0x1a <__rc10>
    86b6: 65 12        	adc	$12                     ; 0x12 <__rc2>
    86b8: 85 1a        	sta	$1a                     ; 0x1a <__rc10>
    86ba: a5 1b        	lda	$1b                     ; 0x1b <__rc11>
    86bc: 65 13        	adc	$13                     ; 0x13 <__rc3>
    86be: 06 18        	asl	$18                     ; 0x18 <__rc8>
    86c0: 26 19        	rol	$19                     ; 0x19 <__rc9>
    86c2: 26 12        	rol	$12                     ; 0x12 <__rc2>
    86c4: 26 13        	rol	$13                     ; 0x13 <__rc3>
    86c6: e6 17        	inc	$17                     ; 0x17 <__rc7>
    86c8: c6 17        	dec	$17                     ; 0x17 <__rc7>
    86ca: d0 d3        	bne	$869f <__mulsi3+0x1e>
    86cc: e6 16        	inc	$16                     ; 0x16 <__rc6>
    86ce: c6 16        	dec	$16                     ; 0x16 <__rc6>
    86d0: d0 cd        	bne	$869f <__mulsi3+0x1e>
    86d2: e6 15        	inc	$15                     ; 0x15 <__rc5>
    86d4: c6 15        	dec	$15                     ; 0x15 <__rc5>
    86d6: d0 c7        	bne	$869f <__mulsi3+0x1e>
    86d8: e6 14        	inc	$14                     ; 0x14 <__rc4>
    86da: c6 14        	dec	$14                     ; 0x14 <__rc4>
    86dc: d0 c1        	bne	$869f <__mulsi3+0x1e>
    86de: 5a           	phy
    86df: a4 1a        	ldy	$1a                     ; 0x1a <__rc10>
    86e1: 84 12        	sty	$12                     ; 0x12 <__rc2>
    86e3: 7a           	ply
    86e4: 85 13        	sta	$13                     ; 0x13 <__rc3>
    86e6: 98           	tya
    86e7: 60           	rts
    86e8: a0 00        	ldy	#$0
    86ea: a2 00        	ldx	#$0
    86ec: 64 1a        	stz	$1a                     ; 0x1a <__rc10>
    86ee: 98           	tya
    86ef: 80 ed        	bra	$86de <__mulsi3+0x5d>
