
skull.elf:	file format elf32-mos

SYMBOL TABLE:
00000000 l    df *ABS*	00000000 zero-bss.c
00000000 l    df *ABS*	00000000 zero-zp-bss.c
00000000 l    df *ABS*	00000000 copy-zp-data.c
00000000 l    df *ABS*	00000000 ld-temp.o
0000068d l     F .text	0000001d midiShutUp
000006aa l     F .text	00000093 resetInstruments
0000073d l     F .text	00000445 f256Init
0000427e l     O .bss	00000007 kernelEventData
0000424d l     O .rodata	00000030 textColors
000000de l     O .zp.bss	00000001 _col
000000df l     O .zp.bss	00000001 _row
000000e0 l     O .zp.bss	00000001 _active
000000e1 l     O .zp.bss	00000001 _color
00004286 l     O .bss	0000000c _BITMAP_BASE
00004285 l     O .bss	00000001 kernelError
00000b88 l     F .text	00001d62 f256main
000028ea l     F .text	00000300 bitmapClear
00000030 l     O .zp.data	00000060 skull_vertices
000000d8 l     O .zp.bss	00000002 theOne.0
00004167 l     F .text	00000032 __mulhi3
00003e4f l     F .text	000002cc malloc
000000dc l     O .zp.bss	00000002 theOne.8
000000da l     O .zp.bss	00000002 theOne.7
00002bea l     F .text	00000821 rotateX
0000340b l     F .text	00000a3f redraw
00000090 l     O .zp.data	00000048 skull_indices
000000e2 l     O .zp.bss	00000001 _ZN12_GLOBAL__N_111initializedE
000003c0 l     F .text	0000014b _ZN12_GLOBAL__N_19FreeChunk6insertEPvj
000000e5 l     O .zp.bss	00000002 _ZN12_GLOBAL__N_19free_listE
000000e3 l     O .zp.bss	00000002 _ZN12_GLOBAL__N_19free_sizeE
0000427d g     O .bss	00000001 g_fp_last_status
000005ea g       .text	00000000 mathFloatMul
00000639 g       .text	00000000 mathFloatDiv
00000599 g       .text	00000000 mathFloatSub
00000548 g       .text	00000000 mathFloatAdd
00000014 g       *ABS*	00000000 __rc4
00000013 g       *ABS*	00000000 __rc3
00000015 g       *ABS*	00000000 __rc5
00000012 g       *ABS*	00000000 __rc2
00000017 g       *ABS*	00000000 __rc7
00000016 g       *ABS*	00000000 __rc6
00000b82 g     F .text	00000006 main
0005561a g       .canyon	00000000 canyon_end
00050000 g       .canyon	00000000 canyon_start
000003bc g       .text	00000000 __after_main
000003a8 g       .text	00000000 __do_init_stack
000003b6 g       .text	00000000 __do_copy_zp_data
00000531 g     F .text	00000017 __copy_zp_data
000003b0 g       .text	00000000 __do_zero_bss
0000050b g     F .text	00000013 __zero_bss
000003b3 g       .text	00000000 __do_zero_zp_bss
0000051e g     F .text	00000013 __zero_zp_bss
00003e4a g     F .text	00000005 exit
000003bf g       .text	00000000 _fini
00004147  w    F .text	00000020 __memset
00001000  w      *ABS*	00000000 __heap_default_limit
00004292 g       .noinit	00000000 __heap_start
0000411b  w    F .text	0000002c memcpy
00000010 g       *ABS*	00000000 __rc0
00000018 g       *ABS*	00000000 __rc8
0000001a g       *ABS*	00000000 __rc10
0000001c g       *ABS*	00000000 __rc12
0000001e g       *ABS*	00000000 __rc14
00000020 g       *ABS*	00000000 __rc16
00000022 g       *ABS*	00000000 __rc18
00000024 g       *ABS*	00000000 __rc20
00000026 g       *ABS*	00000000 __rc22
00000028 g       *ABS*	00000000 __rc24
0000002a g       *ABS*	00000000 __rc26
0000002c g       *ABS*	00000000 __rc28
0000002e g       *ABS*	00000000 __rc30
0000002f g       *ABS*	00000000 __rc31
00000300 g       *ABS*	00000000 __f256_start
0000a000 g       *ABS*	00000000 __stack
0000a000 g       *ABS*	00000000 __SLOT_ADDR
0800a000 g       *ABS*	00000000 __block8_lma
00002000 g       *ABS*	00000000 __BLOCK_SIZE
0900a000 g       *ABS*	00000000 __block9_lma
0a00a000 g       *ABS*	00000000 __block10_lma
0b00a000 g       *ABS*	00000000 __block11_lma
0c00a000 g       *ABS*	00000000 __block12_lma
0d00a000 g       *ABS*	00000000 __block13_lma
0e00a000 g       *ABS*	00000000 __block14_lma
0f00a000 g       *ABS*	00000000 __block15_lma
1000a000 g       *ABS*	00000000 __block16_lma
1100a000 g       *ABS*	00000000 __block17_lma
1200a000 g       *ABS*	00000000 __block18_lma
1300a000 g       *ABS*	00000000 __block19_lma
1400a000 g       *ABS*	00000000 __block20_lma
1500a000 g       *ABS*	00000000 __block21_lma
1600a000 g       *ABS*	00000000 __block22_lma
1700a000 g       *ABS*	00000000 __block23_lma
00050000 g       *ABS*	00000000 __canyon_lma
0000561a g       *ABS*	00000000 __canyon_size
0000427d g       .bss	00000000 __bss_start
0005561a g       .canyon	00000000 end_canyon
000003a8 g       .text	00000000 _start
0000002d g       *ABS*	00000000 __rc29
0000002b g       *ABS*	00000000 __rc27
00000029 g       *ABS*	00000000 __rc25
00000027 g       *ABS*	00000000 __rc23
00000025 g       *ABS*	00000000 __rc21
00000023 g       *ABS*	00000000 __rc19
00000021 g       *ABS*	00000000 __rc17
0000001f g       *ABS*	00000000 __rc15
0000001d g       *ABS*	00000000 __rc13
0000001b g       *ABS*	00000000 __rc11
00000019 g       *ABS*	00000000 __rc9
00000011 g       *ABS*	00000000 __rc1
00000030 g       .zp.data	00000000 __zp_data_start
00000300 g       *ABS*	00000000 __zp_data_load_start
000000a8 g       *ABS*	00000000 __zp_data_size
000000d8 g       .zp.bss	00000000 __zp_bss_start
0000000f g       *ABS*	00000000 __zp_bss_size
000003a8 g       .text	00000000 _init
00004199 g       .text	00000000 __init_array_start
00004199 g       .text	00000000 __init_array_end
00004199 g       .text	00000000 __fini_array_start
00004199 g       .text	00000000 __fini_array_end
0000427d g       .data	00000000 __data_start
0000427d g       .data	00000000 __data_end
0000427d g       *ABS*	00000000 __data_load_start
00000000 g       *ABS*	00000000 __data_size
00004292 g       .bss	00000000 __bss_end
00000015 g       *ABS*	00000000 __bss_size
00004292 g       .noinit	00000000 end_block8
00004292 g       .noinit	00000000 end_block9
00004292 g       .noinit	00000000 end_block10
00004292 g       .noinit	00000000 end_block11
00004292 g       .noinit	00000000 end_block12
00004292 g       .noinit	00000000 end_block13
00004292 g       .noinit	00000000 end_block14
00004292 g       .noinit	00000000 end_block15
00004292 g       .noinit	00000000 end_block16
00004292 g       .noinit	00000000 end_block17
00004292 g       .noinit	00000000 end_block18
00004292 g       .noinit	00000000 end_block19
00004292 g       .noinit	00000000 end_block20
00004292 g       .noinit	00000000 end_block21
00004292 g       .noinit	00000000 end_block22
00004292 g       .noinit	00000000 end_block23

Disassembly of section .text:

000003a8 <_start>:
     3a8: a9 00        	lda	#$0
     3aa: 85 10        	sta	$10                     ; 0x10 <__rc0>
     3ac: a9 a0        	lda	#$a0
     3ae: 85 11        	sta	$11                     ; 0x11 <__rc1>

000003b0 <__do_zero_bss>:
     3b0: 20 0b 05     	jsr	$50b <__zero_bss>

000003b3 <__do_zero_zp_bss>:
     3b3: 20 1e 05     	jsr	$51e <__zero_zp_bss>

000003b6 <__do_copy_zp_data>:
     3b6: 20 31 05     	jsr	$531 <__copy_zp_data>
     3b9: 20 82 0b     	jsr	$b82 <main>

000003bc <__after_main>:
     3bc: 4c 4a 3e     	jmp	$3e4a <exit>

000003bf <_fini>:
     3bf: 60           	rts

000003c0 <_ZN12_GLOBAL__N_19FreeChunk6insertEPvj>:
     3c0: 85 16        	sta	$16                     ; 0x16 <__rc6>
     3c2: 29 fe        	and	#$fe
     3c4: 85 14        	sta	$14                     ; 0x14 <__rc4>
     3c6: a0 01        	ldy	#$1
     3c8: 98           	tya
     3c9: 32 12        	and	($12)                   ; 0x12 <__rc2>
     3cb: 05 14        	ora	$14                     ; 0x14 <__rc4>
     3cd: 92 12        	sta	($12)                   ; 0x12 <__rc2>
     3cf: a5 12        	lda	$12                     ; 0x12 <__rc2>
     3d1: 18           	clc
     3d2: 65 14        	adc	$14                     ; 0x14 <__rc4>
     3d4: 85 15        	sta	$15                     ; 0x15 <__rc5>
     3d6: 8a           	txa
     3d7: 65 13        	adc	$13                     ; 0x13 <__rc3>
     3d9: 85 14        	sta	$14                     ; 0x14 <__rc4>
     3db: 18           	clc
     3dc: a5 15        	lda	$15                     ; 0x15 <__rc5>
     3de: 69 fe        	adc	#$fe
     3e0: 85 17        	sta	$17                     ; 0x17 <__rc7>
     3e2: a5 14        	lda	$14                     ; 0x14 <__rc4>
     3e4: 69 ff        	adc	#$ff
     3e6: 85 15        	sta	$15                     ; 0x15 <__rc5>
     3e8: a5 17        	lda	$17                     ; 0x17 <__rc7>
     3ea: 85 14        	sta	$14                     ; 0x14 <__rc4>
     3ec: 8a           	txa
     3ed: 91 12        	sta	($12),y                 ; 0x12 <__rc2>
     3ef: a5 16        	lda	$16                     ; 0x16 <__rc6>
     3f1: 92 14        	sta	($14)                   ; 0x14 <__rc4>
     3f3: 8a           	txa
     3f4: 91 14        	sta	($14),y                 ; 0x14 <__rc4>
     3f6: a2 01        	ldx	#$1
     3f8: 86 18        	stx	$18                     ; 0x18 <__rc8>
     3fa: b1 12        	lda	($12),y                 ; 0x12 <__rc2>
     3fc: 85 14        	sta	$14                     ; 0x14 <__rc4>
     3fe: a9 fe        	lda	#$fe
     400: 32 12        	and	($12)                   ; 0x12 <__rc2>
     402: 18           	clc
     403: 65 e3        	adc	$e3                     ; 0xe3 <_ZN12_GLOBAL__N_19free_sizeE>
     405: aa           	tax
     406: a5 14        	lda	$14                     ; 0x14 <__rc4>
     408: 65 e4        	adc	$e4                     ; 0xe4 <_ZN12_GLOBAL__N_19free_sizeE+0x1>
     40a: a8           	tay
     40b: 18           	clc
     40c: 8a           	txa
     40d: 69 fe        	adc	#$fe
     40f: aa           	tax
     410: 98           	tya
     411: 69 ff        	adc	#$ff
     413: 86 e3        	stx	$e3                     ; 0xe3 <_ZN12_GLOBAL__N_19free_sizeE>
     415: 85 e4        	sta	$e4                     ; 0xe4 <_ZN12_GLOBAL__N_19free_sizeE+0x1>
     417: a6 e5        	ldx	$e5                     ; 0xe5 <_ZN12_GLOBAL__N_19free_listE>
     419: 86 16        	stx	$16                     ; 0x16 <__rc6>
     41b: a4 e6        	ldy	$e6                     ; 0xe6 <_ZN12_GLOBAL__N_19free_listE+0x1>
     41d: a2 00        	ldx	#$0
     41f: 86 14        	stx	$14                     ; 0x14 <__rc4>
     421: a2 00        	ldx	#$0
     423: 86 15        	stx	$15                     ; 0x15 <__rc5>
     425: 84 17        	sty	$17                     ; 0x17 <__rc7>
     427: c4 15        	cpy	$15                     ; 0x15 <__rc5>
     429: d0 3c        	bne	$467 <_ZN12_GLOBAL__N_19FreeChunk6insertEPvj+0xa7>
     42b: a6 16        	ldx	$16                     ; 0x16 <__rc6>
     42d: e4 14        	cpx	$14                     ; 0x14 <__rc4>
     42f: d0 36        	bne	$467 <_ZN12_GLOBAL__N_19FreeChunk6insertEPvj+0xa7>
     431: a0 04        	ldy	#$4
     433: a5 12        	lda	$12                     ; 0x12 <__rc2>
     435: 18           	clc
     436: 69 04        	adc	#$4
     438: 85 14        	sta	$14                     ; 0x14 <__rc4>
     43a: a5 13        	lda	$13                     ; 0x13 <__rc3>
     43c: 69 00        	adc	#$0
     43e: 18           	clc
     43f: 85 15        	sta	$15                     ; 0x15 <__rc5>
     441: a5 12        	lda	$12                     ; 0x12 <__rc2>
     443: 91 12        	sta	($12),y                 ; 0x12 <__rc2>
     445: a0 02        	ldy	#$2
     447: 85 17        	sta	$17                     ; 0x17 <__rc7>
     449: 69 02        	adc	#$2
     44b: 85 16        	sta	$16                     ; 0x16 <__rc6>
     44d: a5 17        	lda	$17                     ; 0x17 <__rc7>
     44f: 91 12        	sta	($12),y                 ; 0x12 <__rc2>
     451: a5 13        	lda	$13                     ; 0x13 <__rc3>
     453: 69 00        	adc	#$0
     455: 85 17        	sta	$17                     ; 0x17 <__rc7>
     457: 88           	dey
     458: a5 13        	lda	$13                     ; 0x13 <__rc3>
     45a: 91 14        	sta	($14),y                 ; 0x14 <__rc4>
     45c: 91 16        	sta	($16),y                 ; 0x16 <__rc6>
     45e: a6 12        	ldx	$12                     ; 0x12 <__rc2>
     460: 86 e5        	stx	$e5                     ; 0xe5 <_ZN12_GLOBAL__N_19free_listE>
     462: a6 13        	ldx	$13                     ; 0x13 <__rc3>
     464: 86 e6        	stx	$e6                     ; 0xe6 <_ZN12_GLOBAL__N_19free_listE+0x1>
     466: 60           	rts
     467: a6 12        	ldx	$12                     ; 0x12 <__rc2>
     469: a5 12        	lda	$12                     ; 0x12 <__rc2>
     46b: 18           	clc
     46c: 69 02        	adc	#$2
     46e: 85 14        	sta	$14                     ; 0x14 <__rc4>
     470: a4 16        	ldy	$16                     ; 0x16 <__rc6>
     472: a5 13        	lda	$13                     ; 0x13 <__rc3>
     474: 69 00        	adc	#$0
     476: 85 15        	sta	$15                     ; 0x15 <__rc5>
     478: 84 19        	sty	$19                     ; 0x19 <__rc9>
     47a: a4 17        	ldy	$17                     ; 0x17 <__rc7>
     47c: 84 1a        	sty	$1a                     ; 0x1a <__rc10>
     47e: a0 02        	ldy	#$2
     480: a5 19        	lda	$19                     ; 0x19 <__rc9>
     482: 91 12        	sta	($12),y                 ; 0x12 <__rc2>
     484: 84 1d        	sty	$1d                     ; 0x1d <__rc13>
     486: a4 18        	ldy	$18                     ; 0x18 <__rc8>
     488: a5 1a        	lda	$1a                     ; 0x1a <__rc10>
     48a: 91 14        	sta	($14),y                 ; 0x14 <__rc4>
     48c: 84 1e        	sty	$1e                     ; 0x1e <__rc14>
     48e: 18           	clc
     48f: a5 19        	lda	$19                     ; 0x19 <__rc9>
     491: 69 04        	adc	#$4
     493: 85 18        	sta	$18                     ; 0x18 <__rc8>
     495: a5 1a        	lda	$1a                     ; 0x1a <__rc10>
     497: 69 00        	adc	#$0
     499: 85 19        	sta	$19                     ; 0x19 <__rc9>
     49b: 8a           	txa
     49c: 18           	clc
     49d: 69 04        	adc	#$4
     49f: 85 1a        	sta	$1a                     ; 0x1a <__rc10>
     4a1: a5 13        	lda	$13                     ; 0x13 <__rc3>
     4a3: 69 00        	adc	#$0
     4a5: 85 1b        	sta	$1b                     ; 0x1b <__rc11>
     4a7: a0 04        	ldy	#$4
     4a9: b1 16        	lda	($16),y                 ; 0x16 <__rc6>
     4ab: 85 16        	sta	$16                     ; 0x16 <__rc6>
     4ad: 85 22        	sta	$22                     ; 0x22 <__rc18>
     4af: a4 1e        	ldy	$1e                     ; 0x1e <__rc14>
     4b1: b1 18        	lda	($18),y                 ; 0x18 <__rc8>
     4b3: 85 17        	sta	$17                     ; 0x17 <__rc7>
     4b5: 85 19        	sta	$19                     ; 0x19 <__rc9>
     4b7: a0 04        	ldy	#$4
     4b9: a5 22        	lda	$22                     ; 0x22 <__rc18>
     4bb: 91 12        	sta	($12),y                 ; 0x12 <__rc2>
     4bd: 84 1f        	sty	$1f                     ; 0x1f <__rc15>
     4bf: a4 1e        	ldy	$1e                     ; 0x1e <__rc14>
     4c1: a5 19        	lda	$19                     ; 0x19 <__rc9>
     4c3: 91 1a        	sta	($1a),y                 ; 0x1a <__rc10>
     4c5: 84 1a        	sty	$1a                     ; 0x1a <__rc10>
     4c7: 18           	clc
     4c8: a5 22        	lda	$22                     ; 0x22 <__rc18>
     4ca: 69 02        	adc	#$2
     4cc: 85 18        	sta	$18                     ; 0x18 <__rc8>
     4ce: a5 19        	lda	$19                     ; 0x19 <__rc9>
     4d0: 69 00        	adc	#$0
     4d2: 85 19        	sta	$19                     ; 0x19 <__rc9>
     4d4: 8a           	txa
     4d5: a4 1d        	ldy	$1d                     ; 0x1d <__rc13>
     4d7: 91 16        	sta	($16),y                 ; 0x16 <__rc6>
     4d9: a5 13        	lda	$13                     ; 0x13 <__rc3>
     4db: a4 1a        	ldy	$1a                     ; 0x1a <__rc10>
     4dd: 91 18        	sta	($18),y                 ; 0x18 <__rc8>
     4df: a4 1d        	ldy	$1d                     ; 0x1d <__rc13>
     4e1: b1 12        	lda	($12),y                 ; 0x12 <__rc2>
     4e3: 85 16        	sta	$16                     ; 0x16 <__rc6>
     4e5: 85 19        	sta	$19                     ; 0x19 <__rc9>
     4e7: a4 1a        	ldy	$1a                     ; 0x1a <__rc10>
     4e9: b1 14        	lda	($14),y                 ; 0x14 <__rc4>
     4eb: 84 18        	sty	$18                     ; 0x18 <__rc8>
     4ed: 85 17        	sta	$17                     ; 0x17 <__rc7>
     4ef: 85 14        	sta	$14                     ; 0x14 <__rc4>
     4f1: 8a           	txa
     4f2: a4 1f        	ldy	$1f                     ; 0x1f <__rc15>
     4f4: 91 16        	sta	($16),y                 ; 0x16 <__rc6>
     4f6: 18           	clc
     4f7: a5 19        	lda	$19                     ; 0x19 <__rc9>
     4f9: 69 04        	adc	#$4
     4fb: a8           	tay
     4fc: a5 14        	lda	$14                     ; 0x14 <__rc4>
     4fe: 69 00        	adc	#$0
     500: 84 14        	sty	$14                     ; 0x14 <__rc4>
     502: 85 15        	sta	$15                     ; 0x15 <__rc5>
     504: a5 13        	lda	$13                     ; 0x13 <__rc3>
     506: a4 18        	ldy	$18                     ; 0x18 <__rc8>
     508: 91 14        	sta	($14),y                 ; 0x14 <__rc4>
     50a: 60           	rts

0000050b <__zero_bss>:
     50b: a2 15        	ldx	#$15
     50d: a0 00        	ldy	#$0
     50f: a9 7d        	lda	#$7d
     511: 85 12        	sta	$12                     ; 0x12 <__rc2>
     513: a9 42        	lda	#$42
     515: 85 13        	sta	$13                     ; 0x13 <__rc3>
     517: a9 00        	lda	#$0
     519: 84 14        	sty	$14                     ; 0x14 <__rc4>
     51b: 4c 47 41     	jmp	$4147 <__memset>

0000051e <__zero_zp_bss>:
     51e: a2 0f        	ldx	#$f
     520: a0 00        	ldy	#$0
     522: a9 d8        	lda	#$d8
     524: 85 12        	sta	$12                     ; 0x12 <__rc2>
     526: a9 00        	lda	#$0
     528: 85 13        	sta	$13                     ; 0x13 <__rc3>
     52a: a9 00        	lda	#$0
     52c: 84 14        	sty	$14                     ; 0x14 <__rc4>
     52e: 4c 47 41     	jmp	$4147 <__memset>

00000531 <__copy_zp_data>:
     531: a9 a8        	lda	#$a8
     533: a2 00        	ldx	#$0
     535: a0 30        	ldy	#$30
     537: 84 12        	sty	$12                     ; 0x12 <__rc2>
     539: a0 00        	ldy	#$0
     53b: 84 13        	sty	$13                     ; 0x13 <__rc3>
     53d: a0 00        	ldy	#$0
     53f: 84 14        	sty	$14                     ; 0x14 <__rc4>
     541: a0 03        	ldy	#$3
     543: 84 15        	sty	$15                     ; 0x15 <__rc5>
     545: 4c 1b 41     	jmp	$411b <memcpy>

00000548 <mathFloatAdd>:
     548: 8d 88 de     	sta	$de88                   ; 0xde88 <end_block9+0x9bf6>
     54b: 8e 89 de     	stx	$de89                   ; 0xde89 <end_block9+0x9bf7>
     54e: a9 40        	lda	#$40
     550: 8d 80 de     	sta	$de80                   ; 0xde80 <end_block9+0x9bee>
     553: a9 02        	lda	#$2
     555: 8d 81 de     	sta	$de81                   ; 0xde81 <end_block9+0x9bef>
     558: a5 12        	lda	$12                     ; 0x12 <__rc2>
     55a: 8d 8a de     	sta	$de8a                   ; 0xde8a <end_block9+0x9bf8>
     55d: a5 13        	lda	$13                     ; 0x13 <__rc3>
     55f: 8d 8b de     	sta	$de8b                   ; 0xde8b <end_block9+0x9bf9>
     562: a5 14        	lda	$14                     ; 0x14 <__rc4>
     564: 8d 8c de     	sta	$de8c                   ; 0xde8c <end_block9+0x9bfa>
     567: a5 15        	lda	$15                     ; 0x15 <__rc5>
     569: 8d 8d de     	sta	$de8d                   ; 0xde8d <end_block9+0x9bfb>
     56c: a5 16        	lda	$16                     ; 0x16 <__rc6>
     56e: 8d 8e de     	sta	$de8e                   ; 0xde8e <end_block9+0x9bfc>
     571: a5 17        	lda	$17                     ; 0x17 <__rc7>
     573: 8d 8f de     	sta	$de8f                   ; 0xde8f <end_block9+0x9bfd>
     576: a9 0a        	lda	#$a
     578: 8d 82 de     	sta	$de82                   ; 0xde82 <end_block9+0x9bf0>
     57b: ea           	nop
     57c: ea           	nop
     57d: ea           	nop
     57e: ea           	nop
     57f: ea           	nop
     580: ad 86 de     	lda	$de86                   ; 0xde86 <end_block9+0x9bf4>
     583: 29 0f        	and	#$f
     585: 8d 7d 42     	sta	$427d                   ; 0x427d <g_fp_last_status>
     588: ad 8a de     	lda	$de8a                   ; 0xde8a <end_block9+0x9bf8>
     58b: 85 12        	sta	$12                     ; 0x12 <__rc2>
     58d: ad 8b de     	lda	$de8b                   ; 0xde8b <end_block9+0x9bf9>
     590: 85 13        	sta	$13                     ; 0x13 <__rc3>
     592: ad 88 de     	lda	$de88                   ; 0xde88 <end_block9+0x9bf6>
     595: ae 89 de     	ldx	$de89                   ; 0xde89 <end_block9+0x9bf7>
     598: 60           	rts

00000599 <mathFloatSub>:
     599: 8d 88 de     	sta	$de88                   ; 0xde88 <end_block9+0x9bf6>
     59c: 8e 89 de     	stx	$de89                   ; 0xde89 <end_block9+0x9bf7>
     59f: a9 48        	lda	#$48
     5a1: 8d 80 de     	sta	$de80                   ; 0xde80 <end_block9+0x9bee>
     5a4: a9 02        	lda	#$2
     5a6: 8d 81 de     	sta	$de81                   ; 0xde81 <end_block9+0x9bef>
     5a9: a5 12        	lda	$12                     ; 0x12 <__rc2>
     5ab: 8d 8a de     	sta	$de8a                   ; 0xde8a <end_block9+0x9bf8>
     5ae: a5 13        	lda	$13                     ; 0x13 <__rc3>
     5b0: 8d 8b de     	sta	$de8b                   ; 0xde8b <end_block9+0x9bf9>
     5b3: a5 14        	lda	$14                     ; 0x14 <__rc4>
     5b5: 8d 8c de     	sta	$de8c                   ; 0xde8c <end_block9+0x9bfa>
     5b8: a5 15        	lda	$15                     ; 0x15 <__rc5>
     5ba: 8d 8d de     	sta	$de8d                   ; 0xde8d <end_block9+0x9bfb>
     5bd: a5 16        	lda	$16                     ; 0x16 <__rc6>
     5bf: 8d 8e de     	sta	$de8e                   ; 0xde8e <end_block9+0x9bfc>
     5c2: a5 17        	lda	$17                     ; 0x17 <__rc7>
     5c4: 8d 8f de     	sta	$de8f                   ; 0xde8f <end_block9+0x9bfd>
     5c7: a9 0a        	lda	#$a
     5c9: 8d 82 de     	sta	$de82                   ; 0xde82 <end_block9+0x9bf0>
     5cc: ea           	nop
     5cd: ea           	nop
     5ce: ea           	nop
     5cf: ea           	nop
     5d0: ea           	nop
     5d1: ad 86 de     	lda	$de86                   ; 0xde86 <end_block9+0x9bf4>
     5d4: 29 0f        	and	#$f
     5d6: 8d 7d 42     	sta	$427d                   ; 0x427d <g_fp_last_status>
     5d9: ad 8a de     	lda	$de8a                   ; 0xde8a <end_block9+0x9bf8>
     5dc: 85 12        	sta	$12                     ; 0x12 <__rc2>
     5de: ad 8b de     	lda	$de8b                   ; 0xde8b <end_block9+0x9bf9>
     5e1: 85 13        	sta	$13                     ; 0x13 <__rc3>
     5e3: ad 88 de     	lda	$de88                   ; 0xde88 <end_block9+0x9bf6>
     5e6: ae 89 de     	ldx	$de89                   ; 0xde89 <end_block9+0x9bf7>
     5e9: 60           	rts

000005ea <mathFloatMul>:
     5ea: 8d 88 de     	sta	$de88                   ; 0xde88 <end_block9+0x9bf6>
     5ed: 8e 89 de     	stx	$de89                   ; 0xde89 <end_block9+0x9bf7>
     5f0: a9 00        	lda	#$0
     5f2: 8d 80 de     	sta	$de80                   ; 0xde80 <end_block9+0x9bee>
     5f5: 8d 81 de     	sta	$de81                   ; 0xde81 <end_block9+0x9bef>
     5f8: a5 12        	lda	$12                     ; 0x12 <__rc2>
     5fa: 8d 8a de     	sta	$de8a                   ; 0xde8a <end_block9+0x9bf8>
     5fd: a5 13        	lda	$13                     ; 0x13 <__rc3>
     5ff: 8d 8b de     	sta	$de8b                   ; 0xde8b <end_block9+0x9bf9>
     602: a5 14        	lda	$14                     ; 0x14 <__rc4>
     604: 8d 8c de     	sta	$de8c                   ; 0xde8c <end_block9+0x9bfa>
     607: a5 15        	lda	$15                     ; 0x15 <__rc5>
     609: 8d 8d de     	sta	$de8d                   ; 0xde8d <end_block9+0x9bfb>
     60c: a5 16        	lda	$16                     ; 0x16 <__rc6>
     60e: 8d 8e de     	sta	$de8e                   ; 0xde8e <end_block9+0x9bfc>
     611: a5 17        	lda	$17                     ; 0x17 <__rc7>
     613: 8d 8f de     	sta	$de8f                   ; 0xde8f <end_block9+0x9bfd>
     616: a9 0a        	lda	#$a
     618: 8d 82 de     	sta	$de82                   ; 0xde82 <end_block9+0x9bf0>
     61b: ea           	nop
     61c: ea           	nop
     61d: ea           	nop
     61e: ea           	nop
     61f: ea           	nop
     620: ad 84 de     	lda	$de84                   ; 0xde84 <end_block9+0x9bf2>
     623: 29 0f        	and	#$f
     625: 8d 7d 42     	sta	$427d                   ; 0x427d <g_fp_last_status>
     628: ad 8a de     	lda	$de8a                   ; 0xde8a <end_block9+0x9bf8>
     62b: 85 12        	sta	$12                     ; 0x12 <__rc2>
     62d: ad 8b de     	lda	$de8b                   ; 0xde8b <end_block9+0x9bf9>
     630: 85 13        	sta	$13                     ; 0x13 <__rc3>
     632: ad 88 de     	lda	$de88                   ; 0xde88 <end_block9+0x9bf6>
     635: ae 89 de     	ldx	$de89                   ; 0xde89 <end_block9+0x9bf7>
     638: 60           	rts

00000639 <mathFloatDiv>:
     639: 8d 88 de     	sta	$de88                   ; 0xde88 <end_block9+0x9bf6>
     63c: 8e 89 de     	stx	$de89                   ; 0xde89 <end_block9+0x9bf7>
     63f: a9 00        	lda	#$0
     641: 8d 80 de     	sta	$de80                   ; 0xde80 <end_block9+0x9bee>
     644: a9 01        	lda	#$1
     646: 8d 81 de     	sta	$de81                   ; 0xde81 <end_block9+0x9bef>
     649: a5 12        	lda	$12                     ; 0x12 <__rc2>
     64b: 8d 8a de     	sta	$de8a                   ; 0xde8a <end_block9+0x9bf8>
     64e: a5 13        	lda	$13                     ; 0x13 <__rc3>
     650: 8d 8b de     	sta	$de8b                   ; 0xde8b <end_block9+0x9bf9>
     653: a5 14        	lda	$14                     ; 0x14 <__rc4>
     655: 8d 8c de     	sta	$de8c                   ; 0xde8c <end_block9+0x9bfa>
     658: a5 15        	lda	$15                     ; 0x15 <__rc5>
     65a: 8d 8d de     	sta	$de8d                   ; 0xde8d <end_block9+0x9bfb>
     65d: a5 16        	lda	$16                     ; 0x16 <__rc6>
     65f: 8d 8e de     	sta	$de8e                   ; 0xde8e <end_block9+0x9bfc>
     662: a5 17        	lda	$17                     ; 0x17 <__rc7>
     664: 8d 8f de     	sta	$de8f                   ; 0xde8f <end_block9+0x9bfd>
     667: a9 0a        	lda	#$a
     669: 8d 82 de     	sta	$de82                   ; 0xde82 <end_block9+0x9bf0>
     66c: ea           	nop
     66d: ea           	nop
     66e: ea           	nop
     66f: ea           	nop
     670: ea           	nop
     671: ea           	nop
     672: ea           	nop
     673: ea           	nop
     674: ad 85 de     	lda	$de85                   ; 0xde85 <end_block9+0x9bf3>
     677: 29 1f        	and	#$1f
     679: 8d 7d 42     	sta	$427d                   ; 0x427d <g_fp_last_status>
     67c: ad 8a de     	lda	$de8a                   ; 0xde8a <end_block9+0x9bf8>
     67f: 85 12        	sta	$12                     ; 0x12 <__rc2>
     681: ad 8b de     	lda	$de8b                   ; 0xde8b <end_block9+0x9bf9>
     684: 85 13        	sta	$13                     ; 0x13 <__rc3>
     686: ad 88 de     	lda	$de88                   ; 0xde88 <end_block9+0x9bf6>
     689: ae 89 de     	ldx	$de89                   ; 0xde89 <end_block9+0x9bf7>
     68c: 60           	rts

0000068d <midiShutUp>:
     68d: aa           	tax
     68e: f0 0d        	beq	$69d <midiShutUp+0x10>
     690: a2 b1        	ldx	#$b1
     692: 86 12        	stx	$12                     ; 0x12 <__rc2>
     694: a2 dd        	ldx	#$dd
     696: 86 13        	stx	$13                     ; 0x13 <__rc3>
     698: a9 ff        	lda	#$ff
     69a: 92 12        	sta	($12)                   ; 0x12 <__rc2>
     69c: 60           	rts
     69d: a2 a1        	ldx	#$a1
     69f: 86 12        	stx	$12                     ; 0x12 <__rc2>
     6a1: a2 dd        	ldx	#$dd
     6a3: 86 13        	stx	$13                     ; 0x13 <__rc3>
     6a5: a9 ff        	lda	#$ff
     6a7: 92 12        	sta	($12)                   ; 0x12 <__rc2>
     6a9: 60           	rts

000006aa <resetInstruments>:
     6aa: aa           	tax
     6ab: f0 04        	beq	$6b1 <resetInstruments+0x7>
     6ad: a2 b1        	ldx	#$b1
     6af: 80 02        	bra	$6b3 <resetInstruments+0x9>
     6b1: a2 a1        	ldx	#$a1
     6b3: 86 12        	stx	$12                     ; 0x12 <__rc2>
     6b5: a2 dd        	ldx	#$dd
     6b7: 86 13        	stx	$13                     ; 0x13 <__rc3>
     6b9: a9 c0        	lda	#$c0
     6bb: 92 12        	sta	($12)                   ; 0x12 <__rc2>
     6bd: a9 00        	lda	#$0
     6bf: 92 12        	sta	($12)                   ; 0x12 <__rc2>
     6c1: a9 c1        	lda	#$c1
     6c3: 92 12        	sta	($12)                   ; 0x12 <__rc2>
     6c5: a9 00        	lda	#$0
     6c7: 92 12        	sta	($12)                   ; 0x12 <__rc2>
     6c9: a9 c2        	lda	#$c2
     6cb: 92 12        	sta	($12)                   ; 0x12 <__rc2>
     6cd: a9 00        	lda	#$0
     6cf: 92 12        	sta	($12)                   ; 0x12 <__rc2>
     6d1: a9 c3        	lda	#$c3
     6d3: 92 12        	sta	($12)                   ; 0x12 <__rc2>
     6d5: a9 00        	lda	#$0
     6d7: 92 12        	sta	($12)                   ; 0x12 <__rc2>
     6d9: a9 c4        	lda	#$c4
     6db: 92 12        	sta	($12)                   ; 0x12 <__rc2>
     6dd: a9 00        	lda	#$0
     6df: 92 12        	sta	($12)                   ; 0x12 <__rc2>
     6e1: a9 c5        	lda	#$c5
     6e3: 92 12        	sta	($12)                   ; 0x12 <__rc2>
     6e5: a9 00        	lda	#$0
     6e7: 92 12        	sta	($12)                   ; 0x12 <__rc2>
     6e9: a9 c6        	lda	#$c6
     6eb: 92 12        	sta	($12)                   ; 0x12 <__rc2>
     6ed: a9 00        	lda	#$0
     6ef: 92 12        	sta	($12)                   ; 0x12 <__rc2>
     6f1: a9 c7        	lda	#$c7
     6f3: 92 12        	sta	($12)                   ; 0x12 <__rc2>
     6f5: a9 00        	lda	#$0
     6f7: 92 12        	sta	($12)                   ; 0x12 <__rc2>
     6f9: a9 c8        	lda	#$c8
     6fb: 92 12        	sta	($12)                   ; 0x12 <__rc2>
     6fd: a9 00        	lda	#$0
     6ff: 92 12        	sta	($12)                   ; 0x12 <__rc2>
     701: a9 c9        	lda	#$c9
     703: 92 12        	sta	($12)                   ; 0x12 <__rc2>
     705: a9 00        	lda	#$0
     707: 92 12        	sta	($12)                   ; 0x12 <__rc2>
     709: a9 ca        	lda	#$ca
     70b: 92 12        	sta	($12)                   ; 0x12 <__rc2>
     70d: a9 00        	lda	#$0
     70f: 92 12        	sta	($12)                   ; 0x12 <__rc2>
     711: a9 cb        	lda	#$cb
     713: 92 12        	sta	($12)                   ; 0x12 <__rc2>
     715: a9 00        	lda	#$0
     717: 92 12        	sta	($12)                   ; 0x12 <__rc2>
     719: a9 cc        	lda	#$cc
     71b: 92 12        	sta	($12)                   ; 0x12 <__rc2>
     71d: a9 00        	lda	#$0
     71f: 92 12        	sta	($12)                   ; 0x12 <__rc2>
     721: a9 cd        	lda	#$cd
     723: 92 12        	sta	($12)                   ; 0x12 <__rc2>
     725: a9 00        	lda	#$0
     727: 92 12        	sta	($12)                   ; 0x12 <__rc2>
     729: a9 ce        	lda	#$ce
     72b: 92 12        	sta	($12)                   ; 0x12 <__rc2>
     72d: a9 00        	lda	#$0
     72f: 92 12        	sta	($12)                   ; 0x12 <__rc2>
     731: a9 cf        	lda	#$cf
     733: 92 12        	sta	($12)                   ; 0x12 <__rc2>
     735: a9 00        	lda	#$0
     737: 92 12        	sta	($12)                   ; 0x12 <__rc2>
     739: 3a           	dec
     73a: 92 12        	sta	($12)                   ; 0x12 <__rc2>
     73c: 60           	rts

0000073d <f256Init>:
     73d: 64 1c        	stz	$1c                     ; 0x1c <__rc12>
     73f: a2 00        	ldx	#$0
     741: 86 1a        	stx	$1a                     ; 0x1a <__rc10>
     743: a2 d0        	ldx	#$d0
     745: 86 1b        	stx	$1b                     ; 0x1b <__rc11>
     747: a2 00        	ldx	#$0
     749: 86 16        	stx	$16                     ; 0x16 <__rc6>
     74b: a2 d8        	ldx	#$d8
     74d: 86 17        	stx	$17                     ; 0x17 <__rc7>
     74f: a2 00        	ldx	#$0
     751: 86 18        	stx	$18                     ; 0x18 <__rc8>
     753: a2 d4        	ldx	#$d4
     755: 86 19        	stx	$19                     ; 0x19 <__rc9>
     757: a2 00        	ldx	#$0
     759: 86 14        	stx	$14                     ; 0x14 <__rc4>
     75b: a2 dc        	ldx	#$dc
     75d: 86 15        	stx	$15                     ; 0x15 <__rc5>
     75f: a2 00        	ldx	#$0
     761: 86 12        	stx	$12                     ; 0x12 <__rc2>
     763: a2 c0        	ldx	#$c0
     765: 86 13        	stx	$13                     ; 0x13 <__rc3>
     767: 64 01        	stz	$1                      ; 0x1 <__data_size+0x1>
     769: a2 3f        	ldx	#$3f
     76b: 8e 00 d0     	stx	$d000                   ; 0xd000 <end_block9+0x8d6e>
     76e: a2 b3        	ldx	#$b3
     770: 86 00        	stx	$0                      ; 0x0 <__data_size>
     772: 64 08        	stz	$8                      ; 0x8 <__data_size+0x8>
     774: a2 01        	ldx	#$1
     776: 86 09        	stx	$9                      ; 0x9 <__data_size+0x9>
     778: e8           	inx
     779: 86 0a        	stx	$a                      ; 0xa <__data_size+0xa>
     77b: e8           	inx
     77c: 86 0b        	stx	$b                      ; 0xb <__data_size+0xb>
     77e: e8           	inx
     77f: 86 0c        	stx	$c                      ; 0xc <__data_size+0xc>
     781: e8           	inx
     782: 86 0d        	stx	$d                      ; 0xd <__data_size+0xd>
     784: a2 7e        	ldx	#$7e
     786: a9 42        	lda	#$42
     788: 86 f0        	stx	$f0                     ; 0xf0 <__zp_data_size+0x48>
     78a: 85 f1        	sta	$f1                     ; 0xf1 <__zp_data_size+0x49>
     78c: a6 01        	ldx	$1                      ; 0x1 <__data_size+0x1>
     78e: a0 01        	ldy	#$1
     790: 84 01        	sty	$1                      ; 0x1 <__data_size+0x1>
     792: a5 1c        	lda	$1c                     ; 0x1c <__rc12>
     794: 92 1a        	sta	($1a)                   ; 0x1a <__rc10>
     796: 91 1a        	sta	($1a),y                 ; 0x1a <__rc10>
     798: c8           	iny
     799: 91 1a        	sta	($1a),y                 ; 0x1a <__rc10>
     79b: c8           	iny
     79c: a9 ff        	lda	#$ff
     79e: 91 1a        	sta	($1a),y                 ; 0x1a <__rc10>
     7a0: 86 01        	stx	$1                      ; 0x1 <__data_size+0x1>
     7a2: a5 1a        	lda	$1a                     ; 0x1a <__rc10>
     7a4: 18           	clc
     7a5: 69 04        	adc	#$4
     7a7: 85 1a        	sta	$1a                     ; 0x1a <__rc10>
     7a9: a5 1b        	lda	$1b                     ; 0x1b <__rc11>
     7ab: 69 00        	adc	#$0
     7ad: e6 1c        	inc	$1c                     ; 0x1c <__rc12>
     7af: 85 1b        	sta	$1b                     ; 0x1b <__rc11>
     7b1: d0 d9        	bne	$78c <f256Init+0x4f>
     7b3: a9 00        	lda	#$0
     7b5: a6 01        	ldx	$1                      ; 0x1 <__data_size+0x1>
     7b7: a0 01        	ldy	#$1
     7b9: 84 01        	sty	$1                      ; 0x1 <__data_size+0x1>
     7bb: 92 18        	sta	($18)                   ; 0x18 <__rc8>
     7bd: 91 18        	sta	($18),y                 ; 0x18 <__rc8>
     7bf: c8           	iny
     7c0: 91 18        	sta	($18),y                 ; 0x18 <__rc8>
     7c2: c8           	iny
     7c3: 85 1a        	sta	$1a                     ; 0x1a <__rc10>
     7c5: a9 ff        	lda	#$ff
     7c7: 91 18        	sta	($18),y                 ; 0x18 <__rc8>
     7c9: 86 01        	stx	$1                      ; 0x1 <__data_size+0x1>
     7cb: a5 18        	lda	$18                     ; 0x18 <__rc8>
     7cd: 18           	clc
     7ce: 69 04        	adc	#$4
     7d0: 85 18        	sta	$18                     ; 0x18 <__rc8>
     7d2: a5 19        	lda	$19                     ; 0x19 <__rc9>
     7d4: 69 00        	adc	#$0
     7d6: e6 1a        	inc	$1a                     ; 0x1a <__rc10>
     7d8: 85 19        	sta	$19                     ; 0x19 <__rc9>
     7da: a5 1a        	lda	$1a                     ; 0x1a <__rc10>
     7dc: d0 d7        	bne	$7b5 <f256Init+0x78>
     7de: a9 00        	lda	#$0
     7e0: a6 01        	ldx	$1                      ; 0x1 <__data_size+0x1>
     7e2: a0 01        	ldy	#$1
     7e4: 84 01        	sty	$1                      ; 0x1 <__data_size+0x1>
     7e6: 92 16        	sta	($16)                   ; 0x16 <__rc6>
     7e8: 91 16        	sta	($16),y                 ; 0x16 <__rc6>
     7ea: c8           	iny
     7eb: 91 16        	sta	($16),y                 ; 0x16 <__rc6>
     7ed: c8           	iny
     7ee: 85 18        	sta	$18                     ; 0x18 <__rc8>
     7f0: a9 ff        	lda	#$ff
     7f2: 91 16        	sta	($16),y                 ; 0x16 <__rc6>
     7f4: 86 01        	stx	$1                      ; 0x1 <__data_size+0x1>
     7f6: a5 16        	lda	$16                     ; 0x16 <__rc6>
     7f8: 18           	clc
     7f9: 69 04        	adc	#$4
     7fb: 85 16        	sta	$16                     ; 0x16 <__rc6>
     7fd: a5 17        	lda	$17                     ; 0x17 <__rc7>
     7ff: 69 00        	adc	#$0
     801: e6 18        	inc	$18                     ; 0x18 <__rc8>
     803: 85 17        	sta	$17                     ; 0x17 <__rc7>
     805: a5 18        	lda	$18                     ; 0x18 <__rc8>
     807: d0 d7        	bne	$7e0 <f256Init+0xa3>
     809: a9 00        	lda	#$0
     80b: a6 01        	ldx	$1                      ; 0x1 <__data_size+0x1>
     80d: a0 01        	ldy	#$1
     80f: 84 01        	sty	$1                      ; 0x1 <__data_size+0x1>
     811: 92 14        	sta	($14)                   ; 0x14 <__rc4>
     813: 91 14        	sta	($14),y                 ; 0x14 <__rc4>
     815: c8           	iny
     816: 91 14        	sta	($14),y                 ; 0x14 <__rc4>
     818: c8           	iny
     819: 85 16        	sta	$16                     ; 0x16 <__rc6>
     81b: a9 ff        	lda	#$ff
     81d: 91 14        	sta	($14),y                 ; 0x14 <__rc4>
     81f: 86 01        	stx	$1                      ; 0x1 <__data_size+0x1>
     821: a5 14        	lda	$14                     ; 0x14 <__rc4>
     823: 18           	clc
     824: 69 04        	adc	#$4
     826: 85 14        	sta	$14                     ; 0x14 <__rc4>
     828: a5 15        	lda	$15                     ; 0x15 <__rc5>
     82a: 69 00        	adc	#$0
     82c: e6 16        	inc	$16                     ; 0x16 <__rc6>
     82e: 85 15        	sta	$15                     ; 0x15 <__rc5>
     830: a5 16        	lda	$16                     ; 0x16 <__rc6>
     832: d0 d7        	bne	$80b <f256Init+0xce>
     834: ad 02 d0     	lda	$d002                   ; 0xd002 <end_block9+0x8d70>
     837: 29 f0        	and	#$f0
     839: 8d 02 d0     	sta	$d002                   ; 0xd002 <end_block9+0x8d70>
     83c: ad 02 d0     	lda	$d002                   ; 0xd002 <end_block9+0x8d70>
     83f: 29 0f        	and	#$f
     841: 09 10        	ora	#$10
     843: 8d 02 d0     	sta	$d002                   ; 0xd002 <end_block9+0x8d70>
     846: a2 02        	ldx	#$2
     848: 8e 03 d0     	stx	$d003                   ; 0xd003 <end_block9+0x8d71>
     84b: ad 01 d0     	lda	$d001                   ; 0xd001 <end_block9+0x8d6f>
     84e: 29 f9        	and	#$f9
     850: 09 04        	ora	#$4
     852: 8d 01 d0     	sta	$d001                   ; 0xd001 <end_block9+0x8d6f>
     855: 64 14        	stz	$14                     ; 0x14 <__rc4>
     857: 9c 10 d0     	stz	$d010                   ; 0xd010 <end_block9+0x8d7e>
     85a: a2 00        	ldx	#$0
     85c: 64 15        	stz	$15                     ; 0x15 <__rc5>
     85e: 86 18        	stx	$18                     ; 0x18 <__rc8>
     860: a4 18        	ldy	$18                     ; 0x18 <__rc8>
     862: be 4d 42     	ldx	$424d,y                 ; 0x424d <textColors>
     865: 86 19        	stx	$19                     ; 0x19 <__rc9>
     867: be 4e 42     	ldx	$424e,y                 ; 0x424e <textColors+0x1>
     86a: 86 1a        	stx	$1a                     ; 0x1a <__rc10>
     86c: be 4f 42     	ldx	$424f,y                 ; 0x424f <textColors+0x2>
     86f: 86 1b        	stx	$1b                     ; 0x1b <__rc11>
     871: a6 15        	ldx	$15                     ; 0x15 <__rc5>
     873: 8e 00 de     	stx	$de00                   ; 0xde00 <end_block9+0x9b6e>
     876: 86 17        	stx	$17                     ; 0x17 <__rc7>
     878: 9c 01 de     	stz	$de01                   ; 0xde01 <end_block9+0x9b6f>
     87b: a2 04        	ldx	#$4
     87d: 8e 02 de     	stx	$de02                   ; 0xde02 <end_block9+0x9b70>
     880: 86 1d        	stx	$1d                     ; 0x1d <__rc13>
     882: 9c 03 de     	stz	$de03                   ; 0xde03 <end_block9+0x9b71>
     885: ad 10 de     	lda	$de10                   ; 0xde10 <end_block9+0x9b7e>
     888: ac 11 de     	ldy	$de11                   ; 0xde11 <end_block9+0x9b7f>
     88b: 84 15        	sty	$15                     ; 0x15 <__rc5>
     88d: ac 12 de     	ldy	$de12                   ; 0xde12 <end_block9+0x9b80>
     890: ac 13 de     	ldy	$de13                   ; 0xde13 <end_block9+0x9b81>
     893: a2 00        	ldx	#$0
     895: 18           	clc
     896: 65 14        	adc	$14                     ; 0x14 <__rc4>
     898: a8           	tay
     899: 86 1f        	stx	$1f                     ; 0x1f <__rc15>
     89b: a6 17        	ldx	$17                     ; 0x17 <__rc7>
     89d: a9 d8        	lda	#$d8
     89f: 65 15        	adc	$15                     ; 0x15 <__rc5>
     8a1: 84 16        	sty	$16                     ; 0x16 <__rc6>
     8a3: 85 17        	sta	$17                     ; 0x17 <__rc7>
     8a5: a5 1b        	lda	$1b                     ; 0x1b <__rc11>
     8a7: 92 16        	sta	($16)                   ; 0x16 <__rc6>
     8a9: a0 01        	ldy	#$1
     8ab: a5 1a        	lda	$1a                     ; 0x1a <__rc10>
     8ad: 91 16        	sta	($16),y                 ; 0x16 <__rc6>
     8af: 84 1c        	sty	$1c                     ; 0x1c <__rc12>
     8b1: c8           	iny
     8b2: a5 19        	lda	$19                     ; 0x19 <__rc9>
     8b4: 91 16        	sta	($16),y                 ; 0x16 <__rc6>
     8b6: 84 1e        	sty	$1e                     ; 0x1e <__rc14>
     8b8: c8           	iny
     8b9: a9 ff        	lda	#$ff
     8bb: 91 16        	sta	($16),y                 ; 0x16 <__rc6>
     8bd: 85 23        	sta	$23                     ; 0x23 <__rc19>
     8bf: 84 22        	sty	$22                     ; 0x22 <__rc18>
     8c1: 8e 00 de     	stx	$de00                   ; 0xde00 <end_block9+0x9b6e>
     8c4: 9c 01 de     	stz	$de01                   ; 0xde01 <end_block9+0x9b6f>
     8c7: a4 1d        	ldy	$1d                     ; 0x1d <__rc13>
     8c9: 8c 02 de     	sty	$de02                   ; 0xde02 <end_block9+0x9b70>
     8cc: 9c 03 de     	stz	$de03                   ; 0xde03 <end_block9+0x9b71>
     8cf: ad 10 de     	lda	$de10                   ; 0xde10 <end_block9+0x9b7e>
     8d2: 85 15        	sta	$15                     ; 0x15 <__rc5>
     8d4: ad 11 de     	lda	$de11                   ; 0xde11 <end_block9+0x9b7f>
     8d7: 85 16        	sta	$16                     ; 0x16 <__rc6>
     8d9: a9 40        	lda	#$40
     8db: a4 1f        	ldy	$1f                     ; 0x1f <__rc15>
     8dd: c0 01        	cpy	#$1
     8df: 65 15        	adc	$15                     ; 0x15 <__rc5>
     8e1: a8           	tay
     8e2: a9 d8        	lda	#$d8
     8e4: 65 16        	adc	$16                     ; 0x16 <__rc6>
     8e6: 85 17        	sta	$17                     ; 0x17 <__rc7>
     8e8: 84 16        	sty	$16                     ; 0x16 <__rc6>
     8ea: ad 12 de     	lda	$de12                   ; 0xde12 <end_block9+0x9b80>
     8ed: ad 13 de     	lda	$de13                   ; 0xde13 <end_block9+0x9b81>
     8f0: a5 1b        	lda	$1b                     ; 0x1b <__rc11>
     8f2: 92 16        	sta	($16)                   ; 0x16 <__rc6>
     8f4: a5 1a        	lda	$1a                     ; 0x1a <__rc10>
     8f6: a4 1c        	ldy	$1c                     ; 0x1c <__rc12>
     8f8: 91 16        	sta	($16),y                 ; 0x16 <__rc6>
     8fa: a5 19        	lda	$19                     ; 0x19 <__rc9>
     8fc: a4 1e        	ldy	$1e                     ; 0x1e <__rc14>
     8fe: 91 16        	sta	($16),y                 ; 0x16 <__rc6>
     900: a4 22        	ldy	$22                     ; 0x22 <__rc18>
     902: a5 23        	lda	$23                     ; 0x23 <__rc19>
     904: 91 16        	sta	($16),y                 ; 0x16 <__rc6>
     906: e8           	inx
     907: 86 15        	stx	$15                     ; 0x15 <__rc5>
     909: 18           	clc
     90a: a5 18        	lda	$18                     ; 0x18 <__rc8>
     90c: 69 03        	adc	#$3
     90e: aa           	tax
     90f: c9 30        	cmp	#$30
     911: f0 03        	beq	$916 <f256Init+0x1d9>
     913: 4c 5e 08     	jmp	$85e <f256Init+0x121>
     916: a6 01        	ldx	$1                      ; 0x1 <__data_size+0x1>
     918: 86 18        	stx	$18                     ; 0x18 <__rc8>
     91a: a2 50        	ldx	#$50
     91c: 8e 00 de     	stx	$de00                   ; 0xde00 <end_block9+0x9b6e>
     91f: 9c 01 de     	stz	$de01                   ; 0xde01 <end_block9+0x9b6f>
     922: a2 1e        	ldx	#$1e
     924: 8e 02 de     	stx	$de02                   ; 0xde02 <end_block9+0x9b70>
     927: 9c 03 de     	stz	$de03                   ; 0xde03 <end_block9+0x9b71>
     92a: ae 10 de     	ldx	$de10                   ; 0xde10 <end_block9+0x9b7e>
     92d: ac 11 de     	ldy	$de11                   ; 0xde11 <end_block9+0x9b7f>
     930: ad 12 de     	lda	$de12                   ; 0xde12 <end_block9+0x9b80>
     933: ad 13 de     	lda	$de13                   ; 0xde13 <end_block9+0x9b81>
     936: a9 02        	lda	#$2
     938: 85 01        	sta	$1                      ; 0x1 <__data_size+0x1>
     93a: e0 01        	cpx	#$1
     93c: 98           	tya
     93d: e9 00        	sbc	#$0
     93f: 50 02        	bvc	$943 <f256Init+0x206>
     941: 49 80        	eor	#$80
     943: c9 00        	cmp	#$0
     945: 10 03        	bpl	$94a <f256Init+0x20d>
     947: 4c a1 09     	jmp	$9a1 <f256Init+0x264>
     94a: a9 20        	lda	#$20
     94c: 86 19        	stx	$19                     ; 0x19 <__rc9>
     94e: 86 14        	stx	$14                     ; 0x14 <__rc4>
     950: 84 15        	sty	$15                     ; 0x15 <__rc5>
     952: a2 00        	ldx	#$0
     954: 86 16        	stx	$16                     ; 0x16 <__rc6>
     956: a2 c0        	ldx	#$c0
     958: 86 17        	stx	$17                     ; 0x17 <__rc7>
     95a: 80 04        	bra	$960 <f256Init+0x223>
     95c: a6 15        	ldx	$15                     ; 0x15 <__rc5>
     95e: f0 14        	beq	$974 <f256Init+0x237>
     960: 92 16        	sta	($16)                   ; 0x16 <__rc6>
     962: e6 16        	inc	$16                     ; 0x16 <__rc6>
     964: d0 02        	bne	$968 <f256Init+0x22b>
     966: e6 17        	inc	$17                     ; 0x17 <__rc7>
     968: a2 ff        	ldx	#$ff
     96a: c6 14        	dec	$14                     ; 0x14 <__rc4>
     96c: e4 14        	cpx	$14                     ; 0x14 <__rc4>
     96e: d0 ec        	bne	$95c <f256Init+0x21f>
     970: c6 15        	dec	$15                     ; 0x15 <__rc5>
     972: 80 e8        	bra	$95c <f256Init+0x21f>
     974: a6 14        	ldx	$14                     ; 0x14 <__rc4>
     976: d0 e8        	bne	$960 <f256Init+0x223>
     978: a2 03        	ldx	#$3
     97a: 86 01        	stx	$1                      ; 0x1 <__data_size+0x1>
     97c: a6 19        	ldx	$19                     ; 0x19 <__rc9>
     97e: 80 03        	bra	$983 <f256Init+0x246>
     980: 98           	tya
     981: f0 19        	beq	$99c <f256Init+0x25f>
     983: a9 f0        	lda	#$f0
     985: 92 12        	sta	($12)                   ; 0x12 <__rc2>
     987: e6 12        	inc	$12                     ; 0x12 <__rc2>
     989: f0 07        	beq	$992 <f256Init+0x255>
     98b: ca           	dex
     98c: e0 ff        	cpx	#$ff
     98e: d0 f0        	bne	$980 <f256Init+0x243>
     990: 80 07        	bra	$999 <f256Init+0x25c>
     992: e6 13        	inc	$13                     ; 0x13 <__rc3>
     994: ca           	dex
     995: e0 ff        	cpx	#$ff
     997: d0 e7        	bne	$980 <f256Init+0x243>
     999: 88           	dey
     99a: 80 e4        	bra	$980 <f256Init+0x243>
     99c: 8a           	txa
     99d: d0 e4        	bne	$983 <f256Init+0x246>
     99f: 80 04        	bra	$9a5 <f256Init+0x268>
     9a1: a2 03        	ldx	#$3
     9a3: 86 01        	stx	$1                      ; 0x1 <__data_size+0x1>
     9a5: a6 18        	ldx	$18                     ; 0x18 <__rc8>
     9a7: 86 01        	stx	$1                      ; 0x1 <__data_size+0x1>
     9a9: 64 de        	stz	$de                     ; 0xde <_col>
     9ab: 9c 14 d0     	stz	$d014                   ; 0xd014 <end_block9+0x8d82>
     9ae: 9c 15 d0     	stz	$d015                   ; 0xd015 <end_block9+0x8d83>
     9b1: 64 df        	stz	$df                     ; 0xdf <_row>
     9b3: 9c 16 d0     	stz	$d016                   ; 0xd016 <end_block9+0x8d84>
     9b6: 9c 17 d0     	stz	$d017                   ; 0xd017 <end_block9+0x8d85>
     9b9: a2 40        	ldx	#$40
     9bb: 8e 00 de     	stx	$de00                   ; 0xde00 <end_block9+0x9b6e>
     9be: a0 01        	ldy	#$1
     9c0: 8c 01 de     	sty	$de01                   ; 0xde01 <end_block9+0x9b6f>
     9c3: a2 f0        	ldx	#$f0
     9c5: 8e 02 de     	stx	$de02                   ; 0xde02 <end_block9+0x9b70>
     9c8: 9c 03 de     	stz	$de03                   ; 0xde03 <end_block9+0x9b71>
     9cb: ae 10 de     	ldx	$de10                   ; 0xde10 <end_block9+0x9b7e>
     9ce: 86 17        	stx	$17                     ; 0x17 <__rc7>
     9d0: ae 11 de     	ldx	$de11                   ; 0xde11 <end_block9+0x9b7f>
     9d3: 86 12        	stx	$12                     ; 0x12 <__rc2>
     9d5: ae 12 de     	ldx	$de12                   ; 0xde12 <end_block9+0x9b80>
     9d8: 86 13        	stx	$13                     ; 0x13 <__rc3>
     9da: ae 13 de     	ldx	$de13                   ; 0xde13 <end_block9+0x9b81>
     9dd: 86 14        	stx	$14                     ; 0x14 <__rc4>
     9df: 64 e0        	stz	$e0                     ; 0xe0 <_active>
     9e1: 84 e1        	sty	$e1                     ; 0xe1 <_color>
     9e3: a4 12        	ldy	$12                     ; 0x12 <__rc2>
     9e5: 84 15        	sty	$15                     ; 0x15 <__rc5>
     9e7: 06 15        	asl	$15                     ; 0x15 <__rc5>
     9e9: a5 13        	lda	$13                     ; 0x13 <__rc3>
     9eb: 2a           	rol
     9ec: 86 16        	stx	$16                     ; 0x16 <__rc6>
     9ee: 26 16        	rol	$16                     ; 0x16 <__rc6>
     9f0: 06 15        	asl	$15                     ; 0x15 <__rc5>
     9f2: 2a           	rol
     9f3: 26 16        	rol	$16                     ; 0x16 <__rc6>
     9f5: 06 15        	asl	$15                     ; 0x15 <__rc5>
     9f7: 2a           	rol
     9f8: 26 16        	rol	$16                     ; 0x16 <__rc6>
     9fa: 85 15        	sta	$15                     ; 0x15 <__rc5>
     9fc: 8d 00 de     	sta	$de00                   ; 0xde00 <end_block9+0x9b6e>
     9ff: a5 16        	lda	$16                     ; 0x16 <__rc6>
     a01: 8d 01 de     	sta	$de01                   ; 0xde01 <end_block9+0x9b6f>
     a04: 9c 02 de     	stz	$de02                   ; 0xde02 <end_block9+0x9b70>
     a07: a2 20        	ldx	#$20
     a09: 8e 03 de     	stx	$de03                   ; 0xde03 <end_block9+0x9b71>
     a0c: ae 10 de     	ldx	$de10                   ; 0xde10 <end_block9+0x9b7e>
     a0f: 86 16        	stx	$16                     ; 0x16 <__rc6>
     a11: ae 11 de     	ldx	$de11                   ; 0xde11 <end_block9+0x9b7f>
     a14: 86 18        	stx	$18                     ; 0x18 <__rc8>
     a16: ac 12 de     	ldy	$de12                   ; 0xde12 <end_block9+0x9b80>
     a19: ae 13 de     	ldx	$de13                   ; 0xde13 <end_block9+0x9b81>
     a1c: e4 14        	cpx	$14                     ; 0x14 <__rc4>
     a1e: d0 14        	bne	$a34 <f256Init+0x2f7>
     a20: c4 13        	cpy	$13                     ; 0x13 <__rc3>
     a22: d0 10        	bne	$a34 <f256Init+0x2f7>
     a24: a6 18        	ldx	$18                     ; 0x18 <__rc8>
     a26: e4 12        	cpx	$12                     ; 0x12 <__rc2>
     a28: d0 0a        	bne	$a34 <f256Init+0x2f7>
     a2a: a6 16        	ldx	$16                     ; 0x16 <__rc6>
     a2c: e4 17        	cpx	$17                     ; 0x17 <__rc7>
     a2e: d0 04        	bne	$a34 <f256Init+0x2f7>
     a30: a6 15        	ldx	$15                     ; 0x15 <__rc5>
     a32: 80 06        	bra	$a3a <f256Init+0x2fd>
     a34: a6 15        	ldx	$15                     ; 0x15 <__rc5>
     a36: e8           	inx
     a37: d0 01        	bne	$a3a <f256Init+0x2fd>
     a39: 1a           	inc
     a3a: 8e 00 de     	stx	$de00                   ; 0xde00 <end_block9+0x9b6e>
     a3d: 8d 01 de     	sta	$de01                   ; 0xde01 <end_block9+0x9b6f>
     a40: 9c 02 de     	stz	$de02                   ; 0xde02 <end_block9+0x9b70>
     a43: a2 20        	ldx	#$20
     a45: 8e 03 de     	stx	$de03                   ; 0xde03 <end_block9+0x9b71>
     a48: ae 10 de     	ldx	$de10                   ; 0xde10 <end_block9+0x9b7e>
     a4b: 86 12        	stx	$12                     ; 0x12 <__rc2>
     a4d: ae 11 de     	ldx	$de11                   ; 0xde11 <end_block9+0x9b7f>
     a50: 86 13        	stx	$13                     ; 0x13 <__rc3>
     a52: ae 12 de     	ldx	$de12                   ; 0xde12 <end_block9+0x9b80>
     a55: 86 14        	stx	$14                     ; 0x14 <__rc4>
     a57: ae 13 de     	ldx	$de13                   ; 0xde13 <end_block9+0x9b81>
     a5a: 86 15        	stx	$15                     ; 0x15 <__rc5>
     a5c: a9 00        	lda	#$0
     a5e: 38           	sec
     a5f: e5 12        	sbc	$12                     ; 0x12 <__rc2>
     a61: 85 19        	sta	$19                     ; 0x19 <__rc9>
     a63: a9 00        	lda	#$0
     a65: e5 13        	sbc	$13                     ; 0x13 <__rc3>
     a67: aa           	tax
     a68: a9 08        	lda	#$8
     a6a: e5 14        	sbc	$14                     ; 0x14 <__rc4>
     a6c: 85 16        	sta	$16                     ; 0x16 <__rc6>
     a6e: a9 00        	lda	#$0
     a70: e5 15        	sbc	$15                     ; 0x15 <__rc5>
     a72: 8e 87 42     	stx	$4287                   ; 0x4287 <_BITMAP_BASE+0x1>
     a75: a4 16        	ldy	$16                     ; 0x16 <__rc6>
     a77: 8c 88 42     	sty	$4288                   ; 0x4288 <_BITMAP_BASE+0x2>
     a7a: 8d 89 42     	sta	$4289                   ; 0x4289 <_BITMAP_BASE+0x3>
     a7d: a8           	tay
     a7e: 38           	sec
     a7f: a5 19        	lda	$19                     ; 0x19 <__rc9>
     a81: e5 12        	sbc	$12                     ; 0x12 <__rc2>
     a83: 85 18        	sta	$18                     ; 0x18 <__rc8>
     a85: 8a           	txa
     a86: e5 13        	sbc	$13                     ; 0x13 <__rc3>
     a88: 85 1a        	sta	$1a                     ; 0x1a <__rc10>
     a8a: a5 16        	lda	$16                     ; 0x16 <__rc6>
     a8c: e5 14        	sbc	$14                     ; 0x14 <__rc4>
     a8e: 85 16        	sta	$16                     ; 0x16 <__rc6>
     a90: 98           	tya
     a91: e5 15        	sbc	$15                     ; 0x15 <__rc5>
     a93: 85 17        	sta	$17                     ; 0x17 <__rc7>
     a95: 38           	sec
     a96: a4 18        	ldy	$18                     ; 0x18 <__rc8>
     a98: 8c 8a 42     	sty	$428a                   ; 0x428a <_BITMAP_BASE+0x4>
     a9b: a6 1a        	ldx	$1a                     ; 0x1a <__rc10>
     a9d: 8e 8b 42     	stx	$428b                   ; 0x428b <_BITMAP_BASE+0x5>
     aa0: a4 16        	ldy	$16                     ; 0x16 <__rc6>
     aa2: 8c 8c 42     	sty	$428c                   ; 0x428c <_BITMAP_BASE+0x6>
     aa5: 8d 8d 42     	sta	$428d                   ; 0x428d <_BITMAP_BASE+0x7>
     aa8: a5 18        	lda	$18                     ; 0x18 <__rc8>
     aaa: e5 12        	sbc	$12                     ; 0x12 <__rc2>
     aac: 85 18        	sta	$18                     ; 0x18 <__rc8>
     aae: a5 1a        	lda	$1a                     ; 0x1a <__rc10>
     ab0: e5 13        	sbc	$13                     ; 0x13 <__rc3>
     ab2: a8           	tay
     ab3: a5 16        	lda	$16                     ; 0x16 <__rc6>
     ab5: e5 14        	sbc	$14                     ; 0x14 <__rc4>
     ab7: 85 12        	sta	$12                     ; 0x12 <__rc2>
     ab9: a5 17        	lda	$17                     ; 0x17 <__rc7>
     abb: e5 15        	sbc	$15                     ; 0x15 <__rc5>
     abd: a6 18        	ldx	$18                     ; 0x18 <__rc8>
     abf: 8e 8e 42     	stx	$428e                   ; 0x428e <_BITMAP_BASE+0x8>
     ac2: 8c 8f 42     	sty	$428f                   ; 0x428f <_BITMAP_BASE+0x9>
     ac5: a6 19        	ldx	$19                     ; 0x19 <__rc9>
     ac7: 8e 86 42     	stx	$4286                   ; 0x4286 <_BITMAP_BASE>
     aca: a4 12        	ldy	$12                     ; 0x12 <__rc2>
     acc: 8c 90 42     	sty	$4290                   ; 0x4290 <_BITMAP_BASE+0xa>
     acf: 8d 91 42     	sta	$4291                   ; 0x4291 <_BITMAP_BASE+0xb>
     ad2: 8e 01 d1     	stx	$d101                   ; 0xd101 <end_block9+0x8e6f>
     ad5: ae 87 42     	ldx	$4287                   ; 0x4287 <_BITMAP_BASE+0x1>
     ad8: 8e 02 d1     	stx	$d102                   ; 0xd102 <end_block9+0x8e70>
     adb: ae 88 42     	ldx	$4288                   ; 0x4288 <_BITMAP_BASE+0x2>
     ade: 8e 03 d1     	stx	$d103                   ; 0xd103 <end_block9+0x8e71>
     ae1: ae 8a 42     	ldx	$428a                   ; 0x428a <_BITMAP_BASE+0x4>
     ae4: 8e 09 d1     	stx	$d109                   ; 0xd109 <end_block9+0x8e77>
     ae7: ae 8b 42     	ldx	$428b                   ; 0x428b <_BITMAP_BASE+0x5>
     aea: 8e 0a d1     	stx	$d10a                   ; 0xd10a <end_block9+0x8e78>
     aed: ae 8c 42     	ldx	$428c                   ; 0x428c <_BITMAP_BASE+0x6>
     af0: 8e 0b d1     	stx	$d10b                   ; 0xd10b <end_block9+0x8e79>
     af3: ae 8e 42     	ldx	$428e                   ; 0x428e <_BITMAP_BASE+0x8>
     af6: 8e 11 d1     	stx	$d111                   ; 0xd111 <end_block9+0x8e7f>
     af9: ae 8f 42     	ldx	$428f                   ; 0x428f <_BITMAP_BASE+0x9>
     afc: 8e 12 d1     	stx	$d112                   ; 0xd112 <end_block9+0x8e80>
     aff: ae 90 42     	ldx	$4290                   ; 0x4290 <_BITMAP_BASE+0xa>
     b02: 8e 13 d1     	stx	$d113                   ; 0xd113 <end_block9+0x8e81>
     b05: 9c 00 d1     	stz	$d100                   ; 0xd100 <end_block9+0x8e6e>
     b08: 9c 08 d1     	stz	$d108                   ; 0xd108 <end_block9+0x8e76>
     b0b: 9c 10 d1     	stz	$d110                   ; 0xd110 <end_block9+0x8e7e>
     b0e: a2 10        	ldx	#$10
     b10: 8e 00 d2     	stx	$d200                   ; 0xd200 <end_block9+0x8f6e>
     b13: 8e 0c d2     	stx	$d20c                   ; 0xd20c <end_block9+0x8f7a>
     b16: 8e 18 d2     	stx	$d218                   ; 0xd218 <end_block9+0x8f86>
     b19: a0 d9        	ldy	#$d9
     b1b: a2 40        	ldx	#$40
     b1d: 64 12        	stz	$12                     ; 0x12 <__rc2>
     b1f: 84 13        	sty	$13                     ; 0x13 <__rc3>
     b21: a9 00        	lda	#$0
     b23: 92 12        	sta	($12)                   ; 0x12 <__rc2>
     b25: ca           	dex
     b26: 18           	clc
     b27: a5 12        	lda	$12                     ; 0x12 <__rc2>
     b29: 69 08        	adc	#$8
     b2b: 85 12        	sta	$12                     ; 0x12 <__rc2>
     b2d: 98           	tya
     b2e: 69 00        	adc	#$0
     b30: a8           	tay
     b31: 8a           	txa
     b32: d0 eb        	bne	$b1f <f256Init+0x3e2>
     b34: a2 e7        	ldx	#$e7
     b36: a0 00        	ldy	#$0
     b38: 86 fb        	stx	$fb                     ; 0xfb <__zp_data_size+0x53>
     b3a: 84 fc        	sty	$fc                     ; 0xfc <__zp_data_size+0x54>
     b3c: a2 08        	ldx	#$8
     b3e: 86 fd        	stx	$fd                     ; 0xfd <__zp_data_size+0x55>
     b40: a2 ef        	ldx	#$ef
     b42: a0 00        	ldy	#$0
     b44: 86 12        	stx	$12                     ; 0x12 <__rc2>
     b46: 84 13        	sty	$13                     ; 0x13 <__rc3>
     b48: a2 85        	ldx	#$85
     b4a: 86 14        	stx	$14                     ; 0x14 <__rc4>
     b4c: a2 42        	ldx	#$42
     b4e: 86 15        	stx	$15                     ; 0x15 <__rc5>
     b50: 20 dc ff     	jsr	$ffdc <end_block9+0xbd4a>
     b53: 92 12        	sta	($12)                   ; 0x12 <__rc2>
     b55: a9 00        	lda	#$0
     b57: 6a           	ror
     b58: 85 14        	sta	$14                     ; 0x14 <__rc4>
     b5a: a6 ed        	ldx	$ed                     ; 0xed <__zp_data_size+0x45>
     b5c: a4 ee        	ldy	$ee                     ; 0xee <__zp_data_size+0x46>
     b5e: 8e 00 de     	stx	$de00                   ; 0xde00 <end_block9+0x9b6e>
     b61: 9c 01 de     	stz	$de01                   ; 0xde01 <end_block9+0x9b6f>
     b64: 8c 02 de     	sty	$de02                   ; 0xde02 <end_block9+0x9b70>
     b67: 9c 03 de     	stz	$de03                   ; 0xde03 <end_block9+0x9b71>
     b6a: ae 10 de     	ldx	$de10                   ; 0xde10 <end_block9+0x9b7e>
     b6d: ac 11 de     	ldy	$de11                   ; 0xde11 <end_block9+0x9b7f>
     b70: ad 12 de     	lda	$de12                   ; 0xde12 <end_block9+0x9b80>
     b73: ad 13 de     	lda	$de13                   ; 0xde13 <end_block9+0x9b81>
     b76: 8e a4 d6     	stx	$d6a4                   ; 0xd6a4 <end_block9+0x9412>
     b79: 8c a5 d6     	sty	$d6a5                   ; 0xd6a5 <end_block9+0x9413>
     b7c: a2 03        	ldx	#$3
     b7e: 8e a6 d6     	stx	$d6a6                   ; 0xd6a6 <end_block9+0x9414>
     b81: 60           	rts

00000b82 <main>:
     b82: 20 3d 07     	jsr	$73d <f256Init>
     b85: 20 88 0b     	jsr	$b88 <f256main>

00000b88 <f256main>:
     b88: 18           	clc
     b89: a5 10        	lda	$10                     ; 0x10 <__rc0>
     b8b: 69 f9        	adc	#$f9
     b8d: 85 10        	sta	$10                     ; 0x10 <__rc0>
     b8f: a5 11        	lda	$11                     ; 0x11 <__rc1>
     b91: 69 ff        	adc	#$ff
     b93: 85 11        	sta	$11                     ; 0x11 <__rc1>
     b95: 64 01        	stz	$1                      ; 0x1 <__data_size+0x1>
     b97: a2 0f        	ldx	#$f
     b99: 8e 00 d0     	stx	$d000                   ; 0xd000 <end_block9+0x8d6e>
     b9c: 9c 01 d0     	stz	$d001                   ; 0xd001 <end_block9+0x8d6f>
     b9f: e8           	inx
     ba0: 8e 02 d0     	stx	$d002                   ; 0xd002 <end_block9+0x8d70>
     ba3: a2 02        	ldx	#$2
     ba5: 8e 03 d0     	stx	$d003                   ; 0xd003 <end_block9+0x8d71>
     ba8: 9c 0d d0     	stz	$d00d                   ; 0xd00d <end_block9+0x8d7b>
     bab: 9c 0e d0     	stz	$d00e                   ; 0xd00e <end_block9+0x8d7c>
     bae: 9c 0f d0     	stz	$d00f                   ; 0xd00f <end_block9+0x8d7d>
     bb1: ad 02 d0     	lda	$d002                   ; 0xd002 <end_block9+0x8d70>
     bb4: 29 f0        	and	#$f0
     bb6: 8d 02 d0     	sta	$d002                   ; 0xd002 <end_block9+0x8d70>
     bb9: ad 02 d0     	lda	$d002                   ; 0xd002 <end_block9+0x8d70>
     bbc: 29 0f        	and	#$f
     bbe: 09 10        	ora	#$10
     bc0: 8d 02 d0     	sta	$d002                   ; 0xd002 <end_block9+0x8d70>
     bc3: 9c 86 42     	stz	$4286                   ; 0x4286 <_BITMAP_BASE>
     bc6: 9c 87 42     	stz	$4287                   ; 0x4287 <_BITMAP_BASE+0x1>
     bc9: ca           	dex
     bca: 8e 88 42     	stx	$4288                   ; 0x4288 <_BITMAP_BASE+0x2>
     bcd: 9c 89 42     	stz	$4289                   ; 0x4289 <_BITMAP_BASE+0x3>
     bd0: 9c 01 d1     	stz	$d101                   ; 0xd101 <end_block9+0x8e6f>
     bd3: 9c 02 d1     	stz	$d102                   ; 0xd102 <end_block9+0x8e70>
     bd6: 8e 03 d1     	stx	$d103                   ; 0xd103 <end_block9+0x8e71>
     bd9: 86 24        	stx	$24                     ; 0x24 <__rc20>
     bdb: 9c 8a 42     	stz	$428a                   ; 0x428a <_BITMAP_BASE+0x4>
     bde: 9c 8b 42     	stz	$428b                   ; 0x428b <_BITMAP_BASE+0x5>
     be1: a2 03        	ldx	#$3
     be3: 8e 8c 42     	stx	$428c                   ; 0x428c <_BITMAP_BASE+0x6>
     be6: 9c 8d 42     	stz	$428d                   ; 0x428d <_BITMAP_BASE+0x7>
     be9: 9c 09 d1     	stz	$d109                   ; 0xd109 <end_block9+0x8e77>
     bec: 9c 0a d1     	stz	$d10a                   ; 0xd10a <end_block9+0x8e78>
     bef: 8e 0b d1     	stx	$d10b                   ; 0xd10b <end_block9+0x8e79>
     bf2: 64 e0        	stz	$e0                     ; 0xe0 <_active>
     bf4: ad 00 d1     	lda	$d100                   ; 0xd100 <end_block9+0x8e6e>
     bf7: 29 f9        	and	#$f9
     bf9: 8d 00 d1     	sta	$d100                   ; 0xd100 <end_block9+0x8e6e>
     bfc: 64 e1        	stz	$e1                     ; 0xe1 <_color>
     bfe: 20 ea 28     	jsr	$28ea <bitmapClear>
     c01: a6 24        	ldx	$24                     ; 0x24 <__rc20>
     c03: 86 e0        	stx	$e0                     ; 0xe0 <_active>
     c05: ad 08 d1     	lda	$d108                   ; 0xd108 <end_block9+0x8e76>
     c08: 29 f9        	and	#$f9
     c0a: 8d 08 d1     	sta	$d108                   ; 0xd108 <end_block9+0x8e76>
     c0d: 64 e1        	stz	$e1                     ; 0xe1 <_color>
     c0f: 20 ea 28     	jsr	$28ea <bitmapClear>
     c12: 64 e0        	stz	$e0                     ; 0xe0 <_active>
     c14: a4 24        	ldy	$24                     ; 0x24 <__rc20>
     c16: 84 e1        	sty	$e1                     ; 0xe1 <_color>
     c18: a2 01        	ldx	#$1
     c1a: 86 28        	stx	$28                     ; 0x28 <__rc24>
     c1c: 8c 00 d1     	sty	$d100                   ; 0xd100 <end_block9+0x8e6e>
     c1f: a6 30        	ldx	$30                     ; 0x30 <skull_vertices>
     c21: 86 18        	stx	$18                     ; 0x18 <__rc8>
     c23: a6 31        	ldx	$31                     ; 0x31 <skull_vertices+0x1>
     c25: 86 19        	stx	$19                     ; 0x19 <__rc9>
     c27: a4 32        	ldy	$32                     ; 0x32 <skull_vertices+0x2>
     c29: a6 33        	ldx	$33                     ; 0x33 <skull_vertices+0x3>
     c2b: a9 3e        	lda	#$3e
     c2d: 84 12        	sty	$12                     ; 0x12 <__rc2>
     c2f: 86 13        	stx	$13                     ; 0x13 <__rc3>
     c31: a2 cd        	ldx	#$cd
     c33: 86 14        	stx	$14                     ; 0x14 <__rc4>
     c35: 86 24        	stx	$24                     ; 0x24 <__rc20>
     c37: ca           	dex
     c38: 86 25        	stx	$25                     ; 0x25 <__rc21>
     c3a: 86 15        	stx	$15                     ; 0x15 <__rc5>
     c3c: a2 4c        	ldx	#$4c
     c3e: 86 26        	stx	$26                     ; 0x26 <__rc22>
     c40: 86 16        	stx	$16                     ; 0x16 <__rc6>
     c42: 85 17        	sta	$17                     ; 0x17 <__rc7>
     c44: 85 27        	sta	$27                     ; 0x27 <__rc23>
     c46: a6 19        	ldx	$19                     ; 0x19 <__rc9>
     c48: a5 18        	lda	$18                     ; 0x18 <__rc8>
     c4a: 20 ea 05     	jsr	$5ea <mathFloatMul>
     c4d: a4 12        	ldy	$12                     ; 0x12 <__rc2>
     c4f: 85 30        	sta	$30                     ; 0x30 <skull_vertices>
     c51: 86 31        	stx	$31                     ; 0x31 <skull_vertices+0x1>
     c53: 84 32        	sty	$32                     ; 0x32 <skull_vertices+0x2>
     c55: a6 13        	ldx	$13                     ; 0x13 <__rc3>
     c57: 86 33        	stx	$33                     ; 0x33 <skull_vertices+0x3>
     c59: a6 34        	ldx	$34                     ; 0x34 <skull_vertices+0x4>
     c5b: 86 18        	stx	$18                     ; 0x18 <__rc8>
     c5d: a5 35        	lda	$35                     ; 0x35 <skull_vertices+0x5>
     c5f: a4 36        	ldy	$36                     ; 0x36 <skull_vertices+0x6>
     c61: a6 37        	ldx	$37                     ; 0x37 <skull_vertices+0x7>
     c63: 84 12        	sty	$12                     ; 0x12 <__rc2>
     c65: 86 13        	stx	$13                     ; 0x13 <__rc3>
     c67: a6 24        	ldx	$24                     ; 0x24 <__rc20>
     c69: 86 14        	stx	$14                     ; 0x14 <__rc4>
     c6b: a6 25        	ldx	$25                     ; 0x25 <__rc21>
     c6d: 86 15        	stx	$15                     ; 0x15 <__rc5>
     c6f: a6 26        	ldx	$26                     ; 0x26 <__rc22>
     c71: 86 16        	stx	$16                     ; 0x16 <__rc6>
     c73: a6 27        	ldx	$27                     ; 0x27 <__rc23>
     c75: 86 17        	stx	$17                     ; 0x17 <__rc7>
     c77: aa           	tax
     c78: a5 18        	lda	$18                     ; 0x18 <__rc8>
     c7a: 20 ea 05     	jsr	$5ea <mathFloatMul>
     c7d: a4 12        	ldy	$12                     ; 0x12 <__rc2>
     c7f: 85 34        	sta	$34                     ; 0x34 <skull_vertices+0x4>
     c81: 86 35        	stx	$35                     ; 0x35 <skull_vertices+0x5>
     c83: 84 36        	sty	$36                     ; 0x36 <skull_vertices+0x6>
     c85: a6 13        	ldx	$13                     ; 0x13 <__rc3>
     c87: 86 37        	stx	$37                     ; 0x37 <skull_vertices+0x7>
     c89: a6 38        	ldx	$38                     ; 0x38 <skull_vertices+0x8>
     c8b: 86 18        	stx	$18                     ; 0x18 <__rc8>
     c8d: a5 39        	lda	$39                     ; 0x39 <skull_vertices+0x9>
     c8f: a4 3a        	ldy	$3a                     ; 0x3a <skull_vertices+0xa>
     c91: a6 3b        	ldx	$3b                     ; 0x3b <skull_vertices+0xb>
     c93: 84 12        	sty	$12                     ; 0x12 <__rc2>
     c95: 86 13        	stx	$13                     ; 0x13 <__rc3>
     c97: a6 24        	ldx	$24                     ; 0x24 <__rc20>
     c99: 86 14        	stx	$14                     ; 0x14 <__rc4>
     c9b: a6 25        	ldx	$25                     ; 0x25 <__rc21>
     c9d: 86 15        	stx	$15                     ; 0x15 <__rc5>
     c9f: a6 26        	ldx	$26                     ; 0x26 <__rc22>
     ca1: 86 16        	stx	$16                     ; 0x16 <__rc6>
     ca3: a6 27        	ldx	$27                     ; 0x27 <__rc23>
     ca5: 86 17        	stx	$17                     ; 0x17 <__rc7>
     ca7: aa           	tax
     ca8: a5 18        	lda	$18                     ; 0x18 <__rc8>
     caa: 20 ea 05     	jsr	$5ea <mathFloatMul>
     cad: a4 12        	ldy	$12                     ; 0x12 <__rc2>
     caf: 85 38        	sta	$38                     ; 0x38 <skull_vertices+0x8>
     cb1: 86 39        	stx	$39                     ; 0x39 <skull_vertices+0x9>
     cb3: 84 3a        	sty	$3a                     ; 0x3a <skull_vertices+0xa>
     cb5: a6 13        	ldx	$13                     ; 0x13 <__rc3>
     cb7: 86 3b        	stx	$3b                     ; 0x3b <skull_vertices+0xb>
     cb9: a6 3c        	ldx	$3c                     ; 0x3c <skull_vertices+0xc>
     cbb: 86 18        	stx	$18                     ; 0x18 <__rc8>
     cbd: a5 3d        	lda	$3d                     ; 0x3d <skull_vertices+0xd>
     cbf: a4 3e        	ldy	$3e                     ; 0x3e <skull_vertices+0xe>
     cc1: a6 3f        	ldx	$3f                     ; 0x3f <skull_vertices+0xf>
     cc3: 84 12        	sty	$12                     ; 0x12 <__rc2>
     cc5: 86 13        	stx	$13                     ; 0x13 <__rc3>
     cc7: a6 24        	ldx	$24                     ; 0x24 <__rc20>
     cc9: 86 14        	stx	$14                     ; 0x14 <__rc4>
     ccb: a6 25        	ldx	$25                     ; 0x25 <__rc21>
     ccd: 86 15        	stx	$15                     ; 0x15 <__rc5>
     ccf: a6 26        	ldx	$26                     ; 0x26 <__rc22>
     cd1: 86 16        	stx	$16                     ; 0x16 <__rc6>
     cd3: a6 27        	ldx	$27                     ; 0x27 <__rc23>
     cd5: 86 17        	stx	$17                     ; 0x17 <__rc7>
     cd7: aa           	tax
     cd8: a5 18        	lda	$18                     ; 0x18 <__rc8>
     cda: 20 ea 05     	jsr	$5ea <mathFloatMul>
     cdd: a4 12        	ldy	$12                     ; 0x12 <__rc2>
     cdf: 85 3c        	sta	$3c                     ; 0x3c <skull_vertices+0xc>
     ce1: 86 3d        	stx	$3d                     ; 0x3d <skull_vertices+0xd>
     ce3: 84 3e        	sty	$3e                     ; 0x3e <skull_vertices+0xe>
     ce5: a6 13        	ldx	$13                     ; 0x13 <__rc3>
     ce7: 86 3f        	stx	$3f                     ; 0x3f <skull_vertices+0xf>
     ce9: a6 40        	ldx	$40                     ; 0x40 <skull_vertices+0x10>
     ceb: 86 18        	stx	$18                     ; 0x18 <__rc8>
     ced: a5 41        	lda	$41                     ; 0x41 <skull_vertices+0x11>
     cef: a4 42        	ldy	$42                     ; 0x42 <skull_vertices+0x12>
     cf1: a6 43        	ldx	$43                     ; 0x43 <skull_vertices+0x13>
     cf3: 84 12        	sty	$12                     ; 0x12 <__rc2>
     cf5: 86 13        	stx	$13                     ; 0x13 <__rc3>
     cf7: a6 24        	ldx	$24                     ; 0x24 <__rc20>
     cf9: 86 14        	stx	$14                     ; 0x14 <__rc4>
     cfb: a6 25        	ldx	$25                     ; 0x25 <__rc21>
     cfd: 86 15        	stx	$15                     ; 0x15 <__rc5>
     cff: a6 26        	ldx	$26                     ; 0x26 <__rc22>
     d01: 86 16        	stx	$16                     ; 0x16 <__rc6>
     d03: a6 27        	ldx	$27                     ; 0x27 <__rc23>
     d05: 86 17        	stx	$17                     ; 0x17 <__rc7>
     d07: aa           	tax
     d08: a5 18        	lda	$18                     ; 0x18 <__rc8>
     d0a: 20 ea 05     	jsr	$5ea <mathFloatMul>
     d0d: a4 12        	ldy	$12                     ; 0x12 <__rc2>
     d0f: 85 40        	sta	$40                     ; 0x40 <skull_vertices+0x10>
     d11: 86 41        	stx	$41                     ; 0x41 <skull_vertices+0x11>
     d13: 84 42        	sty	$42                     ; 0x42 <skull_vertices+0x12>
     d15: a6 13        	ldx	$13                     ; 0x13 <__rc3>
     d17: 86 43        	stx	$43                     ; 0x43 <skull_vertices+0x13>
     d19: a6 44        	ldx	$44                     ; 0x44 <skull_vertices+0x14>
     d1b: 86 18        	stx	$18                     ; 0x18 <__rc8>
     d1d: a5 45        	lda	$45                     ; 0x45 <skull_vertices+0x15>
     d1f: a4 46        	ldy	$46                     ; 0x46 <skull_vertices+0x16>
     d21: a6 47        	ldx	$47                     ; 0x47 <skull_vertices+0x17>
     d23: 84 12        	sty	$12                     ; 0x12 <__rc2>
     d25: 86 13        	stx	$13                     ; 0x13 <__rc3>
     d27: a6 24        	ldx	$24                     ; 0x24 <__rc20>
     d29: 86 14        	stx	$14                     ; 0x14 <__rc4>
     d2b: a6 25        	ldx	$25                     ; 0x25 <__rc21>
     d2d: 86 15        	stx	$15                     ; 0x15 <__rc5>
     d2f: a6 26        	ldx	$26                     ; 0x26 <__rc22>
     d31: 86 16        	stx	$16                     ; 0x16 <__rc6>
     d33: a6 27        	ldx	$27                     ; 0x27 <__rc23>
     d35: 86 17        	stx	$17                     ; 0x17 <__rc7>
     d37: aa           	tax
     d38: a5 18        	lda	$18                     ; 0x18 <__rc8>
     d3a: 20 ea 05     	jsr	$5ea <mathFloatMul>
     d3d: a4 12        	ldy	$12                     ; 0x12 <__rc2>
     d3f: 85 44        	sta	$44                     ; 0x44 <skull_vertices+0x14>
     d41: 86 45        	stx	$45                     ; 0x45 <skull_vertices+0x15>
     d43: 84 46        	sty	$46                     ; 0x46 <skull_vertices+0x16>
     d45: a6 13        	ldx	$13                     ; 0x13 <__rc3>
     d47: 86 47        	stx	$47                     ; 0x47 <skull_vertices+0x17>
     d49: a6 48        	ldx	$48                     ; 0x48 <skull_vertices+0x18>
     d4b: 86 18        	stx	$18                     ; 0x18 <__rc8>
     d4d: a5 49        	lda	$49                     ; 0x49 <skull_vertices+0x19>
     d4f: a4 4a        	ldy	$4a                     ; 0x4a <skull_vertices+0x1a>
     d51: a6 4b        	ldx	$4b                     ; 0x4b <skull_vertices+0x1b>
     d53: 84 12        	sty	$12                     ; 0x12 <__rc2>
     d55: 86 13        	stx	$13                     ; 0x13 <__rc3>
     d57: a6 24        	ldx	$24                     ; 0x24 <__rc20>
     d59: 86 14        	stx	$14                     ; 0x14 <__rc4>
     d5b: a6 25        	ldx	$25                     ; 0x25 <__rc21>
     d5d: 86 15        	stx	$15                     ; 0x15 <__rc5>
     d5f: a6 26        	ldx	$26                     ; 0x26 <__rc22>
     d61: 86 16        	stx	$16                     ; 0x16 <__rc6>
     d63: a6 27        	ldx	$27                     ; 0x27 <__rc23>
     d65: 86 17        	stx	$17                     ; 0x17 <__rc7>
     d67: aa           	tax
     d68: a5 18        	lda	$18                     ; 0x18 <__rc8>
     d6a: 20 ea 05     	jsr	$5ea <mathFloatMul>
     d6d: a4 12        	ldy	$12                     ; 0x12 <__rc2>
     d6f: 85 48        	sta	$48                     ; 0x48 <skull_vertices+0x18>
     d71: 86 49        	stx	$49                     ; 0x49 <skull_vertices+0x19>
     d73: 84 4a        	sty	$4a                     ; 0x4a <skull_vertices+0x1a>
     d75: a6 13        	ldx	$13                     ; 0x13 <__rc3>
     d77: 86 4b        	stx	$4b                     ; 0x4b <skull_vertices+0x1b>
     d79: a6 4c        	ldx	$4c                     ; 0x4c <skull_vertices+0x1c>
     d7b: 86 18        	stx	$18                     ; 0x18 <__rc8>
     d7d: a5 4d        	lda	$4d                     ; 0x4d <skull_vertices+0x1d>
     d7f: a4 4e        	ldy	$4e                     ; 0x4e <skull_vertices+0x1e>
     d81: a6 4f        	ldx	$4f                     ; 0x4f <skull_vertices+0x1f>
     d83: 84 12        	sty	$12                     ; 0x12 <__rc2>
     d85: 86 13        	stx	$13                     ; 0x13 <__rc3>
     d87: a6 24        	ldx	$24                     ; 0x24 <__rc20>
     d89: 86 14        	stx	$14                     ; 0x14 <__rc4>
     d8b: a6 25        	ldx	$25                     ; 0x25 <__rc21>
     d8d: 86 15        	stx	$15                     ; 0x15 <__rc5>
     d8f: a6 26        	ldx	$26                     ; 0x26 <__rc22>
     d91: 86 16        	stx	$16                     ; 0x16 <__rc6>
     d93: a6 27        	ldx	$27                     ; 0x27 <__rc23>
     d95: 86 17        	stx	$17                     ; 0x17 <__rc7>
     d97: aa           	tax
     d98: a5 18        	lda	$18                     ; 0x18 <__rc8>
     d9a: 20 ea 05     	jsr	$5ea <mathFloatMul>
     d9d: a4 12        	ldy	$12                     ; 0x12 <__rc2>
     d9f: 85 4c        	sta	$4c                     ; 0x4c <skull_vertices+0x1c>
     da1: 86 4d        	stx	$4d                     ; 0x4d <skull_vertices+0x1d>
     da3: 84 4e        	sty	$4e                     ; 0x4e <skull_vertices+0x1e>
     da5: a6 13        	ldx	$13                     ; 0x13 <__rc3>
     da7: 86 4f        	stx	$4f                     ; 0x4f <skull_vertices+0x1f>
     da9: a6 50        	ldx	$50                     ; 0x50 <skull_vertices+0x20>
     dab: 86 18        	stx	$18                     ; 0x18 <__rc8>
     dad: a5 51        	lda	$51                     ; 0x51 <skull_vertices+0x21>
     daf: a4 52        	ldy	$52                     ; 0x52 <skull_vertices+0x22>
     db1: a6 53        	ldx	$53                     ; 0x53 <skull_vertices+0x23>
     db3: 84 12        	sty	$12                     ; 0x12 <__rc2>
     db5: 86 13        	stx	$13                     ; 0x13 <__rc3>
     db7: a6 24        	ldx	$24                     ; 0x24 <__rc20>
     db9: 86 14        	stx	$14                     ; 0x14 <__rc4>
     dbb: a6 25        	ldx	$25                     ; 0x25 <__rc21>
     dbd: 86 15        	stx	$15                     ; 0x15 <__rc5>
     dbf: a6 26        	ldx	$26                     ; 0x26 <__rc22>
     dc1: 86 16        	stx	$16                     ; 0x16 <__rc6>
     dc3: a6 27        	ldx	$27                     ; 0x27 <__rc23>
     dc5: 86 17        	stx	$17                     ; 0x17 <__rc7>
     dc7: aa           	tax
     dc8: a5 18        	lda	$18                     ; 0x18 <__rc8>
     dca: 20 ea 05     	jsr	$5ea <mathFloatMul>
     dcd: a4 12        	ldy	$12                     ; 0x12 <__rc2>
     dcf: 85 50        	sta	$50                     ; 0x50 <skull_vertices+0x20>
     dd1: 86 51        	stx	$51                     ; 0x51 <skull_vertices+0x21>
     dd3: 84 52        	sty	$52                     ; 0x52 <skull_vertices+0x22>
     dd5: a6 13        	ldx	$13                     ; 0x13 <__rc3>
     dd7: 86 53        	stx	$53                     ; 0x53 <skull_vertices+0x23>
     dd9: a6 54        	ldx	$54                     ; 0x54 <skull_vertices+0x24>
     ddb: 86 18        	stx	$18                     ; 0x18 <__rc8>
     ddd: a5 55        	lda	$55                     ; 0x55 <skull_vertices+0x25>
     ddf: a4 56        	ldy	$56                     ; 0x56 <skull_vertices+0x26>
     de1: a6 57        	ldx	$57                     ; 0x57 <skull_vertices+0x27>
     de3: 84 12        	sty	$12                     ; 0x12 <__rc2>
     de5: 86 13        	stx	$13                     ; 0x13 <__rc3>
     de7: a6 24        	ldx	$24                     ; 0x24 <__rc20>
     de9: 86 14        	stx	$14                     ; 0x14 <__rc4>
     deb: a6 25        	ldx	$25                     ; 0x25 <__rc21>
     ded: 86 15        	stx	$15                     ; 0x15 <__rc5>
     def: a6 26        	ldx	$26                     ; 0x26 <__rc22>
     df1: 86 16        	stx	$16                     ; 0x16 <__rc6>
     df3: a6 27        	ldx	$27                     ; 0x27 <__rc23>
     df5: 86 17        	stx	$17                     ; 0x17 <__rc7>
     df7: aa           	tax
     df8: a5 18        	lda	$18                     ; 0x18 <__rc8>
     dfa: 20 ea 05     	jsr	$5ea <mathFloatMul>
     dfd: a4 12        	ldy	$12                     ; 0x12 <__rc2>
     dff: 85 54        	sta	$54                     ; 0x54 <skull_vertices+0x24>
     e01: 86 55        	stx	$55                     ; 0x55 <skull_vertices+0x25>
     e03: 84 56        	sty	$56                     ; 0x56 <skull_vertices+0x26>
     e05: a6 13        	ldx	$13                     ; 0x13 <__rc3>
     e07: 86 57        	stx	$57                     ; 0x57 <skull_vertices+0x27>
     e09: a6 58        	ldx	$58                     ; 0x58 <skull_vertices+0x28>
     e0b: 86 18        	stx	$18                     ; 0x18 <__rc8>
     e0d: a5 59        	lda	$59                     ; 0x59 <skull_vertices+0x29>
     e0f: a4 5a        	ldy	$5a                     ; 0x5a <skull_vertices+0x2a>
     e11: a6 5b        	ldx	$5b                     ; 0x5b <skull_vertices+0x2b>
     e13: 84 12        	sty	$12                     ; 0x12 <__rc2>
     e15: 86 13        	stx	$13                     ; 0x13 <__rc3>
     e17: a6 24        	ldx	$24                     ; 0x24 <__rc20>
     e19: 86 14        	stx	$14                     ; 0x14 <__rc4>
     e1b: a6 25        	ldx	$25                     ; 0x25 <__rc21>
     e1d: 86 15        	stx	$15                     ; 0x15 <__rc5>
     e1f: a6 26        	ldx	$26                     ; 0x26 <__rc22>
     e21: 86 16        	stx	$16                     ; 0x16 <__rc6>
     e23: a6 27        	ldx	$27                     ; 0x27 <__rc23>
     e25: 86 17        	stx	$17                     ; 0x17 <__rc7>
     e27: aa           	tax
     e28: a5 18        	lda	$18                     ; 0x18 <__rc8>
     e2a: 20 ea 05     	jsr	$5ea <mathFloatMul>
     e2d: a4 12        	ldy	$12                     ; 0x12 <__rc2>
     e2f: 85 58        	sta	$58                     ; 0x58 <skull_vertices+0x28>
     e31: 86 59        	stx	$59                     ; 0x59 <skull_vertices+0x29>
     e33: 84 5a        	sty	$5a                     ; 0x5a <skull_vertices+0x2a>
     e35: a6 13        	ldx	$13                     ; 0x13 <__rc3>
     e37: 86 5b        	stx	$5b                     ; 0x5b <skull_vertices+0x2b>
     e39: a6 5c        	ldx	$5c                     ; 0x5c <skull_vertices+0x2c>
     e3b: 86 18        	stx	$18                     ; 0x18 <__rc8>
     e3d: a5 5d        	lda	$5d                     ; 0x5d <skull_vertices+0x2d>
     e3f: a4 5e        	ldy	$5e                     ; 0x5e <skull_vertices+0x2e>
     e41: a6 5f        	ldx	$5f                     ; 0x5f <skull_vertices+0x2f>
     e43: 84 12        	sty	$12                     ; 0x12 <__rc2>
     e45: 86 13        	stx	$13                     ; 0x13 <__rc3>
     e47: a6 24        	ldx	$24                     ; 0x24 <__rc20>
     e49: 86 14        	stx	$14                     ; 0x14 <__rc4>
     e4b: a6 25        	ldx	$25                     ; 0x25 <__rc21>
     e4d: 86 15        	stx	$15                     ; 0x15 <__rc5>
     e4f: a6 26        	ldx	$26                     ; 0x26 <__rc22>
     e51: 86 16        	stx	$16                     ; 0x16 <__rc6>
     e53: a6 27        	ldx	$27                     ; 0x27 <__rc23>
     e55: 86 17        	stx	$17                     ; 0x17 <__rc7>
     e57: aa           	tax
     e58: a5 18        	lda	$18                     ; 0x18 <__rc8>
     e5a: 20 ea 05     	jsr	$5ea <mathFloatMul>
     e5d: a4 12        	ldy	$12                     ; 0x12 <__rc2>
     e5f: 85 5c        	sta	$5c                     ; 0x5c <skull_vertices+0x2c>
     e61: 86 5d        	stx	$5d                     ; 0x5d <skull_vertices+0x2d>
     e63: 84 5e        	sty	$5e                     ; 0x5e <skull_vertices+0x2e>
     e65: a6 13        	ldx	$13                     ; 0x13 <__rc3>
     e67: 86 5f        	stx	$5f                     ; 0x5f <skull_vertices+0x2f>
     e69: a6 60        	ldx	$60                     ; 0x60 <skull_vertices+0x30>
     e6b: 86 18        	stx	$18                     ; 0x18 <__rc8>
     e6d: a5 61        	lda	$61                     ; 0x61 <skull_vertices+0x31>
     e6f: a4 62        	ldy	$62                     ; 0x62 <skull_vertices+0x32>
     e71: a6 63        	ldx	$63                     ; 0x63 <skull_vertices+0x33>
     e73: 84 12        	sty	$12                     ; 0x12 <__rc2>
     e75: 86 13        	stx	$13                     ; 0x13 <__rc3>
     e77: a6 24        	ldx	$24                     ; 0x24 <__rc20>
     e79: 86 14        	stx	$14                     ; 0x14 <__rc4>
     e7b: a6 25        	ldx	$25                     ; 0x25 <__rc21>
     e7d: 86 15        	stx	$15                     ; 0x15 <__rc5>
     e7f: a6 26        	ldx	$26                     ; 0x26 <__rc22>
     e81: 86 16        	stx	$16                     ; 0x16 <__rc6>
     e83: a6 27        	ldx	$27                     ; 0x27 <__rc23>
     e85: 86 17        	stx	$17                     ; 0x17 <__rc7>
     e87: aa           	tax
     e88: a5 18        	lda	$18                     ; 0x18 <__rc8>
     e8a: 20 ea 05     	jsr	$5ea <mathFloatMul>
     e8d: a4 12        	ldy	$12                     ; 0x12 <__rc2>
     e8f: 85 60        	sta	$60                     ; 0x60 <skull_vertices+0x30>
     e91: 86 61        	stx	$61                     ; 0x61 <skull_vertices+0x31>
     e93: 84 62        	sty	$62                     ; 0x62 <skull_vertices+0x32>
     e95: a6 13        	ldx	$13                     ; 0x13 <__rc3>
     e97: 86 63        	stx	$63                     ; 0x63 <skull_vertices+0x33>
     e99: a6 64        	ldx	$64                     ; 0x64 <skull_vertices+0x34>
     e9b: 86 18        	stx	$18                     ; 0x18 <__rc8>
     e9d: a5 65        	lda	$65                     ; 0x65 <skull_vertices+0x35>
     e9f: a4 66        	ldy	$66                     ; 0x66 <skull_vertices+0x36>
     ea1: a6 67        	ldx	$67                     ; 0x67 <skull_vertices+0x37>
     ea3: 84 12        	sty	$12                     ; 0x12 <__rc2>
     ea5: 86 13        	stx	$13                     ; 0x13 <__rc3>
     ea7: a6 24        	ldx	$24                     ; 0x24 <__rc20>
     ea9: 86 14        	stx	$14                     ; 0x14 <__rc4>
     eab: a6 25        	ldx	$25                     ; 0x25 <__rc21>
     ead: 86 15        	stx	$15                     ; 0x15 <__rc5>
     eaf: a6 26        	ldx	$26                     ; 0x26 <__rc22>
     eb1: 86 16        	stx	$16                     ; 0x16 <__rc6>
     eb3: a6 27        	ldx	$27                     ; 0x27 <__rc23>
     eb5: 86 17        	stx	$17                     ; 0x17 <__rc7>
     eb7: aa           	tax
     eb8: a5 18        	lda	$18                     ; 0x18 <__rc8>
     eba: 20 ea 05     	jsr	$5ea <mathFloatMul>
     ebd: a4 12        	ldy	$12                     ; 0x12 <__rc2>
     ebf: 85 64        	sta	$64                     ; 0x64 <skull_vertices+0x34>
     ec1: 86 65        	stx	$65                     ; 0x65 <skull_vertices+0x35>
     ec3: 84 66        	sty	$66                     ; 0x66 <skull_vertices+0x36>
     ec5: a6 13        	ldx	$13                     ; 0x13 <__rc3>
     ec7: 86 67        	stx	$67                     ; 0x67 <skull_vertices+0x37>
     ec9: a6 68        	ldx	$68                     ; 0x68 <skull_vertices+0x38>
     ecb: 86 18        	stx	$18                     ; 0x18 <__rc8>
     ecd: a5 69        	lda	$69                     ; 0x69 <skull_vertices+0x39>
     ecf: a4 6a        	ldy	$6a                     ; 0x6a <skull_vertices+0x3a>
     ed1: a6 6b        	ldx	$6b                     ; 0x6b <skull_vertices+0x3b>
     ed3: 84 12        	sty	$12                     ; 0x12 <__rc2>
     ed5: 86 13        	stx	$13                     ; 0x13 <__rc3>
     ed7: a6 24        	ldx	$24                     ; 0x24 <__rc20>
     ed9: 86 14        	stx	$14                     ; 0x14 <__rc4>
     edb: a6 25        	ldx	$25                     ; 0x25 <__rc21>
     edd: 86 15        	stx	$15                     ; 0x15 <__rc5>
     edf: a6 26        	ldx	$26                     ; 0x26 <__rc22>
     ee1: 86 16        	stx	$16                     ; 0x16 <__rc6>
     ee3: a6 27        	ldx	$27                     ; 0x27 <__rc23>
     ee5: 86 17        	stx	$17                     ; 0x17 <__rc7>
     ee7: aa           	tax
     ee8: a5 18        	lda	$18                     ; 0x18 <__rc8>
     eea: 20 ea 05     	jsr	$5ea <mathFloatMul>
     eed: a4 12        	ldy	$12                     ; 0x12 <__rc2>
     eef: 85 68        	sta	$68                     ; 0x68 <skull_vertices+0x38>
     ef1: 86 69        	stx	$69                     ; 0x69 <skull_vertices+0x39>
     ef3: 84 6a        	sty	$6a                     ; 0x6a <skull_vertices+0x3a>
     ef5: a6 13        	ldx	$13                     ; 0x13 <__rc3>
     ef7: 86 6b        	stx	$6b                     ; 0x6b <skull_vertices+0x3b>
     ef9: a6 6c        	ldx	$6c                     ; 0x6c <skull_vertices+0x3c>
     efb: 86 18        	stx	$18                     ; 0x18 <__rc8>
     efd: a5 6d        	lda	$6d                     ; 0x6d <skull_vertices+0x3d>
     eff: a4 6e        	ldy	$6e                     ; 0x6e <skull_vertices+0x3e>
     f01: a6 6f        	ldx	$6f                     ; 0x6f <skull_vertices+0x3f>
     f03: 84 12        	sty	$12                     ; 0x12 <__rc2>
     f05: 86 13        	stx	$13                     ; 0x13 <__rc3>
     f07: a6 24        	ldx	$24                     ; 0x24 <__rc20>
     f09: 86 14        	stx	$14                     ; 0x14 <__rc4>
     f0b: a6 25        	ldx	$25                     ; 0x25 <__rc21>
     f0d: 86 15        	stx	$15                     ; 0x15 <__rc5>
     f0f: a6 26        	ldx	$26                     ; 0x26 <__rc22>
     f11: 86 16        	stx	$16                     ; 0x16 <__rc6>
     f13: a6 27        	ldx	$27                     ; 0x27 <__rc23>
     f15: 86 17        	stx	$17                     ; 0x17 <__rc7>
     f17: aa           	tax
     f18: a5 18        	lda	$18                     ; 0x18 <__rc8>
     f1a: 20 ea 05     	jsr	$5ea <mathFloatMul>
     f1d: a4 12        	ldy	$12                     ; 0x12 <__rc2>
     f1f: 85 6c        	sta	$6c                     ; 0x6c <skull_vertices+0x3c>
     f21: 86 6d        	stx	$6d                     ; 0x6d <skull_vertices+0x3d>
     f23: 84 6e        	sty	$6e                     ; 0x6e <skull_vertices+0x3e>
     f25: a6 13        	ldx	$13                     ; 0x13 <__rc3>
     f27: 86 6f        	stx	$6f                     ; 0x6f <skull_vertices+0x3f>
     f29: a6 70        	ldx	$70                     ; 0x70 <skull_vertices+0x40>
     f2b: 86 18        	stx	$18                     ; 0x18 <__rc8>
     f2d: a5 71        	lda	$71                     ; 0x71 <skull_vertices+0x41>
     f2f: a4 72        	ldy	$72                     ; 0x72 <skull_vertices+0x42>
     f31: a6 73        	ldx	$73                     ; 0x73 <skull_vertices+0x43>
     f33: 84 12        	sty	$12                     ; 0x12 <__rc2>
     f35: 86 13        	stx	$13                     ; 0x13 <__rc3>
     f37: a6 24        	ldx	$24                     ; 0x24 <__rc20>
     f39: 86 14        	stx	$14                     ; 0x14 <__rc4>
     f3b: a6 25        	ldx	$25                     ; 0x25 <__rc21>
     f3d: 86 15        	stx	$15                     ; 0x15 <__rc5>
     f3f: a6 26        	ldx	$26                     ; 0x26 <__rc22>
     f41: 86 16        	stx	$16                     ; 0x16 <__rc6>
     f43: a6 27        	ldx	$27                     ; 0x27 <__rc23>
     f45: 86 17        	stx	$17                     ; 0x17 <__rc7>
     f47: aa           	tax
     f48: a5 18        	lda	$18                     ; 0x18 <__rc8>
     f4a: 20 ea 05     	jsr	$5ea <mathFloatMul>
     f4d: a4 12        	ldy	$12                     ; 0x12 <__rc2>
     f4f: 85 70        	sta	$70                     ; 0x70 <skull_vertices+0x40>
     f51: 86 71        	stx	$71                     ; 0x71 <skull_vertices+0x41>
     f53: 84 72        	sty	$72                     ; 0x72 <skull_vertices+0x42>
     f55: a6 13        	ldx	$13                     ; 0x13 <__rc3>
     f57: 86 73        	stx	$73                     ; 0x73 <skull_vertices+0x43>
     f59: a6 74        	ldx	$74                     ; 0x74 <skull_vertices+0x44>
     f5b: 86 18        	stx	$18                     ; 0x18 <__rc8>
     f5d: a5 75        	lda	$75                     ; 0x75 <skull_vertices+0x45>
     f5f: a4 76        	ldy	$76                     ; 0x76 <skull_vertices+0x46>
     f61: a6 77        	ldx	$77                     ; 0x77 <skull_vertices+0x47>
     f63: 84 12        	sty	$12                     ; 0x12 <__rc2>
     f65: 86 13        	stx	$13                     ; 0x13 <__rc3>
     f67: a6 24        	ldx	$24                     ; 0x24 <__rc20>
     f69: 86 14        	stx	$14                     ; 0x14 <__rc4>
     f6b: a6 25        	ldx	$25                     ; 0x25 <__rc21>
     f6d: 86 15        	stx	$15                     ; 0x15 <__rc5>
     f6f: a6 26        	ldx	$26                     ; 0x26 <__rc22>
     f71: 86 16        	stx	$16                     ; 0x16 <__rc6>
     f73: a6 27        	ldx	$27                     ; 0x27 <__rc23>
     f75: 86 17        	stx	$17                     ; 0x17 <__rc7>
     f77: aa           	tax
     f78: a5 18        	lda	$18                     ; 0x18 <__rc8>
     f7a: 20 ea 05     	jsr	$5ea <mathFloatMul>
     f7d: a4 12        	ldy	$12                     ; 0x12 <__rc2>
     f7f: 85 74        	sta	$74                     ; 0x74 <skull_vertices+0x44>
     f81: 86 75        	stx	$75                     ; 0x75 <skull_vertices+0x45>
     f83: 84 76        	sty	$76                     ; 0x76 <skull_vertices+0x46>
     f85: a6 13        	ldx	$13                     ; 0x13 <__rc3>
     f87: 86 77        	stx	$77                     ; 0x77 <skull_vertices+0x47>
     f89: a6 78        	ldx	$78                     ; 0x78 <skull_vertices+0x48>
     f8b: 86 18        	stx	$18                     ; 0x18 <__rc8>
     f8d: a5 79        	lda	$79                     ; 0x79 <skull_vertices+0x49>
     f8f: a4 7a        	ldy	$7a                     ; 0x7a <skull_vertices+0x4a>
     f91: a6 7b        	ldx	$7b                     ; 0x7b <skull_vertices+0x4b>
     f93: 84 12        	sty	$12                     ; 0x12 <__rc2>
     f95: 86 13        	stx	$13                     ; 0x13 <__rc3>
     f97: a6 24        	ldx	$24                     ; 0x24 <__rc20>
     f99: 86 14        	stx	$14                     ; 0x14 <__rc4>
     f9b: a6 25        	ldx	$25                     ; 0x25 <__rc21>
     f9d: 86 15        	stx	$15                     ; 0x15 <__rc5>
     f9f: a6 26        	ldx	$26                     ; 0x26 <__rc22>
     fa1: 86 16        	stx	$16                     ; 0x16 <__rc6>
     fa3: a6 27        	ldx	$27                     ; 0x27 <__rc23>
     fa5: 86 17        	stx	$17                     ; 0x17 <__rc7>
     fa7: aa           	tax
     fa8: a5 18        	lda	$18                     ; 0x18 <__rc8>
     faa: 20 ea 05     	jsr	$5ea <mathFloatMul>
     fad: a4 12        	ldy	$12                     ; 0x12 <__rc2>
     faf: 85 78        	sta	$78                     ; 0x78 <skull_vertices+0x48>
     fb1: 86 79        	stx	$79                     ; 0x79 <skull_vertices+0x49>
     fb3: 84 7a        	sty	$7a                     ; 0x7a <skull_vertices+0x4a>
     fb5: a6 13        	ldx	$13                     ; 0x13 <__rc3>
     fb7: 86 7b        	stx	$7b                     ; 0x7b <skull_vertices+0x4b>
     fb9: a6 7c        	ldx	$7c                     ; 0x7c <skull_vertices+0x4c>
     fbb: 86 18        	stx	$18                     ; 0x18 <__rc8>
     fbd: a5 7d        	lda	$7d                     ; 0x7d <skull_vertices+0x4d>
     fbf: a4 7e        	ldy	$7e                     ; 0x7e <skull_vertices+0x4e>
     fc1: a6 7f        	ldx	$7f                     ; 0x7f <skull_vertices+0x4f>
     fc3: 84 12        	sty	$12                     ; 0x12 <__rc2>
     fc5: 86 13        	stx	$13                     ; 0x13 <__rc3>
     fc7: a6 24        	ldx	$24                     ; 0x24 <__rc20>
     fc9: 86 14        	stx	$14                     ; 0x14 <__rc4>
     fcb: a6 25        	ldx	$25                     ; 0x25 <__rc21>
     fcd: 86 15        	stx	$15                     ; 0x15 <__rc5>
     fcf: a6 26        	ldx	$26                     ; 0x26 <__rc22>
     fd1: 86 16        	stx	$16                     ; 0x16 <__rc6>
     fd3: a6 27        	ldx	$27                     ; 0x27 <__rc23>
     fd5: 86 17        	stx	$17                     ; 0x17 <__rc7>
     fd7: aa           	tax
     fd8: a5 18        	lda	$18                     ; 0x18 <__rc8>
     fda: 20 ea 05     	jsr	$5ea <mathFloatMul>
     fdd: a4 12        	ldy	$12                     ; 0x12 <__rc2>
     fdf: 85 7c        	sta	$7c                     ; 0x7c <skull_vertices+0x4c>
     fe1: 86 7d        	stx	$7d                     ; 0x7d <skull_vertices+0x4d>
     fe3: 84 7e        	sty	$7e                     ; 0x7e <skull_vertices+0x4e>
     fe5: a6 13        	ldx	$13                     ; 0x13 <__rc3>
     fe7: 86 7f        	stx	$7f                     ; 0x7f <skull_vertices+0x4f>
     fe9: a6 80        	ldx	$80                     ; 0x80 <skull_vertices+0x50>
     feb: 86 18        	stx	$18                     ; 0x18 <__rc8>
     fed: a5 81        	lda	$81                     ; 0x81 <skull_vertices+0x51>
     fef: a4 82        	ldy	$82                     ; 0x82 <skull_vertices+0x52>
     ff1: a6 83        	ldx	$83                     ; 0x83 <skull_vertices+0x53>
     ff3: 84 12        	sty	$12                     ; 0x12 <__rc2>
     ff5: 86 13        	stx	$13                     ; 0x13 <__rc3>
     ff7: a6 24        	ldx	$24                     ; 0x24 <__rc20>
     ff9: 86 14        	stx	$14                     ; 0x14 <__rc4>
     ffb: a6 25        	ldx	$25                     ; 0x25 <__rc21>
     ffd: 86 15        	stx	$15                     ; 0x15 <__rc5>
     fff: a6 26        	ldx	$26                     ; 0x26 <__rc22>
    1001: 86 16        	stx	$16                     ; 0x16 <__rc6>
    1003: a6 27        	ldx	$27                     ; 0x27 <__rc23>
    1005: 86 17        	stx	$17                     ; 0x17 <__rc7>
    1007: aa           	tax
    1008: a5 18        	lda	$18                     ; 0x18 <__rc8>
    100a: 20 ea 05     	jsr	$5ea <mathFloatMul>
    100d: a4 12        	ldy	$12                     ; 0x12 <__rc2>
    100f: 85 80        	sta	$80                     ; 0x80 <skull_vertices+0x50>
    1011: 86 81        	stx	$81                     ; 0x81 <skull_vertices+0x51>
    1013: 84 82        	sty	$82                     ; 0x82 <skull_vertices+0x52>
    1015: a6 13        	ldx	$13                     ; 0x13 <__rc3>
    1017: 86 83        	stx	$83                     ; 0x83 <skull_vertices+0x53>
    1019: a6 84        	ldx	$84                     ; 0x84 <skull_vertices+0x54>
    101b: 86 18        	stx	$18                     ; 0x18 <__rc8>
    101d: a5 85        	lda	$85                     ; 0x85 <skull_vertices+0x55>
    101f: a4 86        	ldy	$86                     ; 0x86 <skull_vertices+0x56>
    1021: a6 87        	ldx	$87                     ; 0x87 <skull_vertices+0x57>
    1023: 84 12        	sty	$12                     ; 0x12 <__rc2>
    1025: 86 13        	stx	$13                     ; 0x13 <__rc3>
    1027: a6 24        	ldx	$24                     ; 0x24 <__rc20>
    1029: 86 14        	stx	$14                     ; 0x14 <__rc4>
    102b: a6 25        	ldx	$25                     ; 0x25 <__rc21>
    102d: 86 15        	stx	$15                     ; 0x15 <__rc5>
    102f: a6 26        	ldx	$26                     ; 0x26 <__rc22>
    1031: 86 16        	stx	$16                     ; 0x16 <__rc6>
    1033: a6 27        	ldx	$27                     ; 0x27 <__rc23>
    1035: 86 17        	stx	$17                     ; 0x17 <__rc7>
    1037: aa           	tax
    1038: a5 18        	lda	$18                     ; 0x18 <__rc8>
    103a: 20 ea 05     	jsr	$5ea <mathFloatMul>
    103d: a4 12        	ldy	$12                     ; 0x12 <__rc2>
    103f: 85 84        	sta	$84                     ; 0x84 <skull_vertices+0x54>
    1041: 86 85        	stx	$85                     ; 0x85 <skull_vertices+0x55>
    1043: 84 86        	sty	$86                     ; 0x86 <skull_vertices+0x56>
    1045: a6 13        	ldx	$13                     ; 0x13 <__rc3>
    1047: 86 87        	stx	$87                     ; 0x87 <skull_vertices+0x57>
    1049: a6 88        	ldx	$88                     ; 0x88 <skull_vertices+0x58>
    104b: 86 18        	stx	$18                     ; 0x18 <__rc8>
    104d: a5 89        	lda	$89                     ; 0x89 <skull_vertices+0x59>
    104f: a4 8a        	ldy	$8a                     ; 0x8a <skull_vertices+0x5a>
    1051: a6 8b        	ldx	$8b                     ; 0x8b <skull_vertices+0x5b>
    1053: 84 12        	sty	$12                     ; 0x12 <__rc2>
    1055: 86 13        	stx	$13                     ; 0x13 <__rc3>
    1057: a6 24        	ldx	$24                     ; 0x24 <__rc20>
    1059: 86 14        	stx	$14                     ; 0x14 <__rc4>
    105b: a6 25        	ldx	$25                     ; 0x25 <__rc21>
    105d: 86 15        	stx	$15                     ; 0x15 <__rc5>
    105f: a6 26        	ldx	$26                     ; 0x26 <__rc22>
    1061: 86 16        	stx	$16                     ; 0x16 <__rc6>
    1063: a6 27        	ldx	$27                     ; 0x27 <__rc23>
    1065: 86 17        	stx	$17                     ; 0x17 <__rc7>
    1067: aa           	tax
    1068: a5 18        	lda	$18                     ; 0x18 <__rc8>
    106a: 20 ea 05     	jsr	$5ea <mathFloatMul>
    106d: a4 12        	ldy	$12                     ; 0x12 <__rc2>
    106f: 85 88        	sta	$88                     ; 0x88 <skull_vertices+0x58>
    1071: 86 89        	stx	$89                     ; 0x89 <skull_vertices+0x59>
    1073: 84 8a        	sty	$8a                     ; 0x8a <skull_vertices+0x5a>
    1075: a6 13        	ldx	$13                     ; 0x13 <__rc3>
    1077: 86 8b        	stx	$8b                     ; 0x8b <skull_vertices+0x5b>
    1079: a6 8c        	ldx	$8c                     ; 0x8c <skull_vertices+0x5c>
    107b: 86 18        	stx	$18                     ; 0x18 <__rc8>
    107d: a5 8d        	lda	$8d                     ; 0x8d <skull_vertices+0x5d>
    107f: a4 8e        	ldy	$8e                     ; 0x8e <skull_vertices+0x5e>
    1081: a6 8f        	ldx	$8f                     ; 0x8f <skull_vertices+0x5f>
    1083: 84 12        	sty	$12                     ; 0x12 <__rc2>
    1085: 86 13        	stx	$13                     ; 0x13 <__rc3>
    1087: a6 24        	ldx	$24                     ; 0x24 <__rc20>
    1089: 86 14        	stx	$14                     ; 0x14 <__rc4>
    108b: a6 25        	ldx	$25                     ; 0x25 <__rc21>
    108d: 86 15        	stx	$15                     ; 0x15 <__rc5>
    108f: a6 26        	ldx	$26                     ; 0x26 <__rc22>
    1091: 86 16        	stx	$16                     ; 0x16 <__rc6>
    1093: a6 27        	ldx	$27                     ; 0x27 <__rc23>
    1095: 86 17        	stx	$17                     ; 0x17 <__rc7>
    1097: aa           	tax
    1098: a5 18        	lda	$18                     ; 0x18 <__rc8>
    109a: 20 ea 05     	jsr	$5ea <mathFloatMul>
    109d: a4 12        	ldy	$12                     ; 0x12 <__rc2>
    109f: 85 8c        	sta	$8c                     ; 0x8c <skull_vertices+0x5c>
    10a1: 86 8d        	stx	$8d                     ; 0x8d <skull_vertices+0x5d>
    10a3: 84 8e        	sty	$8e                     ; 0x8e <skull_vertices+0x5e>
    10a5: a6 13        	ldx	$13                     ; 0x13 <__rc3>
    10a7: 86 8f        	stx	$8f                     ; 0x8f <skull_vertices+0x5f>
    10a9: a9 00        	lda	#$0
    10ab: 20 aa 06     	jsr	$6aa <resetInstruments>
    10ae: a9 00        	lda	#$0
    10b0: 20 8d 06     	jsr	$68d <midiShutUp>
    10b3: a4 0f        	ldy	$f                      ; 0xf <__zp_bss_size>
    10b5: 78           	sei
    10b6: a9 28        	lda	#$28
    10b8: 85 0f        	sta	$f                      ; 0xf <__zp_bss_size>
    10ba: ae 0a e0     	ldx	$e00a                   ; 0xe00a <end_block9+0x9d78>
    10bd: 84 0f        	sty	$f                      ; 0xf <__zp_bss_size>
    10bf: 58           	cli
    10c0: a4 0f        	ldy	$f                      ; 0xf <__zp_bss_size>
    10c2: 78           	sei
    10c3: 85 0f        	sta	$f                      ; 0xf <__zp_bss_size>
    10c5: 85 24        	sta	$24                     ; 0x24 <__rc20>
    10c7: ad 0b e0     	lda	$e00b                   ; 0xe00b <end_block9+0x9d79>
    10ca: 84 0f        	sty	$f                      ; 0xf <__zp_bss_size>
    10cc: 58           	cli
    10cd: 85 d8        	sta	$d8                     ; 0xd8 <theOne.0>
    10cf: 86 d9        	stx	$d9                     ; 0xd9 <theOne.0+0x1>
    10d1: a0 19        	ldy	#$19
    10d3: 84 12        	sty	$12                     ; 0x12 <__rc2>
    10d5: 64 13        	stz	$13                     ; 0x13 <__rc3>
    10d7: 20 67 41     	jsr	$4167 <__mulhi3>
    10da: 20 4f 3e     	jsr	$3e4f <malloc>
    10dd: a6 12        	ldx	$12                     ; 0x12 <__rc2>
    10df: a4 13        	ldy	$13                     ; 0x13 <__rc3>
    10e1: 86 dc        	stx	$dc                     ; 0xdc <theOne.8>
    10e3: 84 dd        	sty	$dd                     ; 0xdd <theOne.8+0x1>
    10e5: 64 da        	stz	$da                     ; 0xda <theOne.7>
    10e7: 64 db        	stz	$db                     ; 0xdb <theOne.7+0x1>
    10e9: a6 0f        	ldx	$f                      ; 0xf <__zp_bss_size>
    10eb: 78           	sei
    10ec: a5 24        	lda	$24                     ; 0x24 <__rc20>
    10ee: 85 0f        	sta	$f                      ; 0xf <__zp_bss_size>
    10f0: ac 0c e0     	ldy	$e00c                   ; 0xe00c <end_block9+0x9d7a>
    10f3: 86 0f        	stx	$f                      ; 0xf <__zp_bss_size>
    10f5: 58           	cli
    10f6: a6 0f        	ldx	$f                      ; 0xf <__zp_bss_size>
    10f8: 78           	sei
    10f9: 85 0f        	sta	$f                      ; 0xf <__zp_bss_size>
    10fb: ac 0d e0     	ldy	$e00d                   ; 0xe00d <end_block9+0x9d7b>
    10fe: 86 0f        	stx	$f                      ; 0xf <__zp_bss_size>
    1100: 58           	cli
    1101: a6 d8        	ldx	$d8                     ; 0xd8 <theOne.0>
    1103: a5 d9        	lda	$d9                     ; 0xd9 <theOne.0+0x1>
    1105: d0 07        	bne	$110e <f256main+0x586>
    1107: e0 00        	cpx	#$0
    1109: d0 03        	bne	$110e <f256main+0x586>
    110b: 4c 1a 1a     	jmp	$1a1a <f256main+0xe92>
    110e: a4 dc        	ldy	$dc                     ; 0xdc <theOne.8>
    1110: 84 24        	sty	$24                     ; 0x24 <__rc20>
    1112: a4 dd        	ldy	$dd                     ; 0xdd <theOne.8+0x1>
    1114: 84 25        	sty	$25                     ; 0x25 <__rc21>
    1116: a0 17        	ldy	#$17
    1118: 84 15        	sty	$15                     ; 0x15 <__rc5>
    111a: 86 26        	stx	$26                     ; 0x26 <__rc22>
    111c: 85 27        	sta	$27                     ; 0x27 <__rc23>
    111e: 80 06        	bra	$1126 <f256main+0x59e>
    1120: 85 25        	sta	$25                     ; 0x25 <__rc21>
    1122: a5 27        	lda	$27                     ; 0x27 <__rc23>
    1124: f0 3c        	beq	$1162 <f256main+0x5da>
    1126: a6 24        	ldx	$24                     ; 0x24 <__rc20>
    1128: 86 12        	stx	$12                     ; 0x12 <__rc2>
    112a: a6 25        	ldx	$25                     ; 0x25 <__rc21>
    112c: 86 13        	stx	$13                     ; 0x13 <__rc3>
    112e: 64 14        	stz	$14                     ; 0x14 <__rc4>
    1130: a9 00        	lda	#$0
    1132: a6 15        	ldx	$15                     ; 0x15 <__rc5>
    1134: a4 15        	ldy	$15                     ; 0x15 <__rc5>
    1136: 84 29        	sty	$29                     ; 0x29 <__rc25>
    1138: 20 47 41     	jsr	$4147 <__memset>
    113b: a2 17        	ldx	#$17
    113d: 86 15        	stx	$15                     ; 0x15 <__rc5>
    113f: a5 28        	lda	$28                     ; 0x28 <__rc24>
    1141: a4 29        	ldy	$29                     ; 0x29 <__rc25>
    1143: 91 24        	sta	($24),y                 ; 0x24 <__rc20>
    1145: a0 18        	ldy	#$18
    1147: a9 00        	lda	#$0
    1149: 91 24        	sta	($24),y                 ; 0x24 <__rc20>
    114b: a5 24        	lda	$24                     ; 0x24 <__rc20>
    114d: 18           	clc
    114e: 69 19        	adc	#$19
    1150: 85 24        	sta	$24                     ; 0x24 <__rc20>
    1152: a5 25        	lda	$25                     ; 0x25 <__rc21>
    1154: 69 00        	adc	#$0
    1156: a2 ff        	ldx	#$ff
    1158: c6 26        	dec	$26                     ; 0x26 <__rc22>
    115a: e4 26        	cpx	$26                     ; 0x26 <__rc22>
    115c: d0 c2        	bne	$1120 <f256main+0x598>
    115e: c6 27        	dec	$27                     ; 0x27 <__rc23>
    1160: 80 be        	bra	$1120 <f256main+0x598>
    1162: a5 26        	lda	$26                     ; 0x26 <__rc22>
    1164: d0 c0        	bne	$1126 <f256main+0x59e>
    1166: a2 0e        	ldx	#$e
    1168: 86 16        	stx	$16                     ; 0x16 <__rc6>
    116a: a2 08        	ldx	#$8
    116c: 86 18        	stx	$18                     ; 0x18 <__rc8>
    116e: 64 19        	stz	$19                     ; 0x19 <__rc9>
    1170: 64 15        	stz	$15                     ; 0x15 <__rc5>
    1172: 64 14        	stz	$14                     ; 0x14 <__rc4>
    1174: a9 00        	lda	#$0
    1176: aa           	tax
    1177: 64 27        	stz	$27                     ; 0x27 <__rc23>
    1179: 85 12        	sta	$12                     ; 0x12 <__rc2>
    117b: a4 14        	ldy	$14                     ; 0x14 <__rc4>
    117d: 84 13        	sty	$13                     ; 0x13 <__rc3>
    117f: a4 15        	ldy	$15                     ; 0x15 <__rc5>
    1181: 84 14        	sty	$14                     ; 0x14 <__rc4>
    1183: a4 16        	ldy	$16                     ; 0x16 <__rc6>
    1185: 84 15        	sty	$15                     ; 0x15 <__rc5>
    1187: a5 16        	lda	$16                     ; 0x16 <__rc6>
    1189: 18           	clc
    118a: 69 04        	adc	#$4
    118c: 85 17        	sta	$17                     ; 0x17 <__rc7>
    118e: a5 14        	lda	$14                     ; 0x14 <__rc4>
    1190: 69 00        	adc	#$0
    1192: 85 1b        	sta	$1b                     ; 0x1b <__rc11>
    1194: a5 13        	lda	$13                     ; 0x13 <__rc3>
    1196: 69 05        	adc	#$5
    1198: a4 1b        	ldy	$1b                     ; 0x1b <__rc11>
    119a: 84 16        	sty	$16                     ; 0x16 <__rc6>
    119c: 06 16        	asl	$16                     ; 0x16 <__rc6>
    119e: 2a           	rol
    119f: 06 16        	asl	$16                     ; 0x16 <__rc6>
    11a1: 2a           	rol
    11a2: 06 16        	asl	$16                     ; 0x16 <__rc6>
    11a4: 2a           	rol
    11a5: 86 1a        	stx	$1a                     ; 0x1a <__rc10>
    11a7: a6 0f        	ldx	$f                      ; 0xf <__zp_bss_size>
    11a9: 78           	sei
    11aa: 85 0f        	sta	$f                      ; 0xf <__zp_bss_size>
    11ac: a5 1b        	lda	$1b                     ; 0x1b <__rc11>
    11ae: 09 e0        	ora	#$e0
    11b0: a4 17        	ldy	$17                     ; 0x17 <__rc7>
    11b2: 84 16        	sty	$16                     ; 0x16 <__rc6>
    11b4: 85 17        	sta	$17                     ; 0x17 <__rc7>
    11b6: b2 16        	lda	($16)                   ; 0x16 <__rc6>
    11b8: 85 1c        	sta	$1c                     ; 0x1c <__rc12>
    11ba: 86 0f        	stx	$f                      ; 0xf <__zp_bss_size>
    11bc: a5 15        	lda	$15                     ; 0x15 <__rc5>
    11be: 18           	clc
    11bf: 69 05        	adc	#$5
    11c1: 85 17        	sta	$17                     ; 0x17 <__rc7>
    11c3: a5 14        	lda	$14                     ; 0x14 <__rc4>
    11c5: 69 00        	adc	#$0
    11c7: 85 1b        	sta	$1b                     ; 0x1b <__rc11>
    11c9: a5 13        	lda	$13                     ; 0x13 <__rc3>
    11cb: 69 05        	adc	#$5
    11cd: a6 1b        	ldx	$1b                     ; 0x1b <__rc11>
    11cf: 86 16        	stx	$16                     ; 0x16 <__rc6>
    11d1: 06 16        	asl	$16                     ; 0x16 <__rc6>
    11d3: 2a           	rol
    11d4: 06 16        	asl	$16                     ; 0x16 <__rc6>
    11d6: 2a           	rol
    11d7: 06 16        	asl	$16                     ; 0x16 <__rc6>
    11d9: 2a           	rol
    11da: 58           	cli
    11db: a6 0f        	ldx	$f                      ; 0xf <__zp_bss_size>
    11dd: 78           	sei
    11de: 85 0f        	sta	$f                      ; 0xf <__zp_bss_size>
    11e0: a5 1b        	lda	$1b                     ; 0x1b <__rc11>
    11e2: 09 e0        	ora	#$e0
    11e4: a4 17        	ldy	$17                     ; 0x17 <__rc7>
    11e6: 84 16        	sty	$16                     ; 0x16 <__rc6>
    11e8: 85 17        	sta	$17                     ; 0x17 <__rc7>
    11ea: b2 16        	lda	($16)                   ; 0x16 <__rc6>
    11ec: 85 1d        	sta	$1d                     ; 0x1d <__rc13>
    11ee: 86 0f        	stx	$f                      ; 0xf <__zp_bss_size>
    11f0: a5 15        	lda	$15                     ; 0x15 <__rc5>
    11f2: 18           	clc
    11f3: 69 06        	adc	#$6
    11f5: 85 17        	sta	$17                     ; 0x17 <__rc7>
    11f7: a5 14        	lda	$14                     ; 0x14 <__rc4>
    11f9: 69 00        	adc	#$0
    11fb: 85 1b        	sta	$1b                     ; 0x1b <__rc11>
    11fd: a5 13        	lda	$13                     ; 0x13 <__rc3>
    11ff: 69 05        	adc	#$5
    1201: a6 1b        	ldx	$1b                     ; 0x1b <__rc11>
    1203: 86 16        	stx	$16                     ; 0x16 <__rc6>
    1205: 06 16        	asl	$16                     ; 0x16 <__rc6>
    1207: 2a           	rol
    1208: 06 16        	asl	$16                     ; 0x16 <__rc6>
    120a: 2a           	rol
    120b: 06 16        	asl	$16                     ; 0x16 <__rc6>
    120d: 2a           	rol
    120e: 58           	cli
    120f: a6 0f        	ldx	$f                      ; 0xf <__zp_bss_size>
    1211: 78           	sei
    1212: 85 0f        	sta	$f                      ; 0xf <__zp_bss_size>
    1214: a4 17        	ldy	$17                     ; 0x17 <__rc7>
    1216: 84 16        	sty	$16                     ; 0x16 <__rc6>
    1218: a5 1b        	lda	$1b                     ; 0x1b <__rc11>
    121a: 09 e0        	ora	#$e0
    121c: 85 17        	sta	$17                     ; 0x17 <__rc7>
    121e: b2 16        	lda	($16)                   ; 0x16 <__rc6>
    1220: 85 22        	sta	$22                     ; 0x22 <__rc18>
    1222: 86 0f        	stx	$f                      ; 0xf <__zp_bss_size>
    1224: a5 15        	lda	$15                     ; 0x15 <__rc5>
    1226: 18           	clc
    1227: 69 07        	adc	#$7
    1229: 85 17        	sta	$17                     ; 0x17 <__rc7>
    122b: a5 14        	lda	$14                     ; 0x14 <__rc4>
    122d: 69 00        	adc	#$0
    122f: 85 1b        	sta	$1b                     ; 0x1b <__rc11>
    1231: a5 13        	lda	$13                     ; 0x13 <__rc3>
    1233: 69 05        	adc	#$5
    1235: a6 1b        	ldx	$1b                     ; 0x1b <__rc11>
    1237: 86 16        	stx	$16                     ; 0x16 <__rc6>
    1239: 06 16        	asl	$16                     ; 0x16 <__rc6>
    123b: 2a           	rol
    123c: 06 16        	asl	$16                     ; 0x16 <__rc6>
    123e: 2a           	rol
    123f: 06 16        	asl	$16                     ; 0x16 <__rc6>
    1241: 2a           	rol
    1242: 58           	cli
    1243: a6 0f        	ldx	$f                      ; 0xf <__zp_bss_size>
    1245: 78           	sei
    1246: 85 0f        	sta	$f                      ; 0xf <__zp_bss_size>
    1248: a4 17        	ldy	$17                     ; 0x17 <__rc7>
    124a: 84 16        	sty	$16                     ; 0x16 <__rc6>
    124c: a5 1b        	lda	$1b                     ; 0x1b <__rc11>
    124e: 09 e0        	ora	#$e0
    1250: 85 17        	sta	$17                     ; 0x17 <__rc7>
    1252: b2 16        	lda	($16)                   ; 0x16 <__rc6>
    1254: 85 25        	sta	$25                     ; 0x25 <__rc21>
    1256: 86 0f        	stx	$f                      ; 0xf <__zp_bss_size>
    1258: 58           	cli
    1259: a6 dc        	ldx	$dc                     ; 0xdc <theOne.8>
    125b: 86 1e        	stx	$1e                     ; 0x1e <__rc14>
    125d: a6 dd        	ldx	$dd                     ; 0xdd <theOne.8+0x1>
    125f: 86 1f        	stx	$1f                     ; 0x1f <__rc15>
    1261: a6 18        	ldx	$18                     ; 0x18 <__rc8>
    1263: 86 23        	stx	$23                     ; 0x23 <__rc19>
    1265: a5 18        	lda	$18                     ; 0x18 <__rc8>
    1267: 18           	clc
    1268: 65 dc        	adc	$dc                     ; 0xdc <theOne.8>
    126a: aa           	tax
    126b: a4 19        	ldy	$19                     ; 0x19 <__rc9>
    126d: 84 24        	sty	$24                     ; 0x24 <__rc20>
    126f: a5 19        	lda	$19                     ; 0x19 <__rc9>
    1271: 65 dd        	adc	$dd                     ; 0xdd <theOne.8+0x1>
    1273: 86 16        	stx	$16                     ; 0x16 <__rc6>
    1275: 85 17        	sta	$17                     ; 0x17 <__rc7>
    1277: 85 19        	sta	$19                     ; 0x19 <__rc9>
    1279: 18           	clc
    127a: 8a           	txa
    127b: 69 f8        	adc	#$f8
    127d: 85 18        	sta	$18                     ; 0x18 <__rc8>
    127f: a5 19        	lda	$19                     ; 0x19 <__rc9>
    1281: 69 ff        	adc	#$ff
    1283: 85 19        	sta	$19                     ; 0x19 <__rc9>
    1285: a5 15        	lda	$15                     ; 0x15 <__rc5>
    1287: 18           	clc
    1288: 69 08        	adc	#$8
    128a: aa           	tax
    128b: a5 14        	lda	$14                     ; 0x14 <__rc4>
    128d: 69 00        	adc	#$0
    128f: 85 1b        	sta	$1b                     ; 0x1b <__rc11>
    1291: a5 13        	lda	$13                     ; 0x13 <__rc3>
    1293: 69 05        	adc	#$5
    1295: 85 26        	sta	$26                     ; 0x26 <__rc22>
    1297: a5 12        	lda	$12                     ; 0x12 <__rc2>
    1299: 69 00        	adc	#$0
    129b: 85 29        	sta	$29                     ; 0x29 <__rc25>
    129d: 8a           	txa
    129e: 92 16        	sta	($16)                   ; 0x16 <__rc6>
    12a0: a0 01        	ldy	#$1
    12a2: a5 1b        	lda	$1b                     ; 0x1b <__rc11>
    12a4: 91 16        	sta	($16),y                 ; 0x16 <__rc6>
    12a6: 84 28        	sty	$28                     ; 0x28 <__rc24>
    12a8: c8           	iny
    12a9: a5 26        	lda	$26                     ; 0x26 <__rc22>
    12ab: 91 16        	sta	($16),y                 ; 0x16 <__rc6>
    12ad: 84 26        	sty	$26                     ; 0x26 <__rc22>
    12af: c8           	iny
    12b0: a5 29        	lda	$29                     ; 0x29 <__rc25>
    12b2: 91 16        	sta	($16),y                 ; 0x16 <__rc6>
    12b4: 84 16        	sty	$16                     ; 0x16 <__rc6>
    12b6: a5 25        	lda	$25                     ; 0x25 <__rc21>
    12b8: 92 18        	sta	($18)                   ; 0x18 <__rc8>
    12ba: a5 22        	lda	$22                     ; 0x22 <__rc18>
    12bc: a4 28        	ldy	$28                     ; 0x28 <__rc24>
    12be: 91 18        	sta	($18),y                 ; 0x18 <__rc8>
    12c0: a5 1d        	lda	$1d                     ; 0x1d <__rc13>
    12c2: a4 26        	ldy	$26                     ; 0x26 <__rc22>
    12c4: 91 18        	sta	($18),y                 ; 0x18 <__rc8>
    12c6: a5 1c        	lda	$1c                     ; 0x1c <__rc12>
    12c8: a4 16        	ldy	$16                     ; 0x16 <__rc6>
    12ca: 91 18        	sta	($18),y                 ; 0x18 <__rc8>
    12cc: 85 16        	sta	$16                     ; 0x16 <__rc6>
    12ce: 18           	clc
    12cf: a5 25        	lda	$25                     ; 0x25 <__rc21>
    12d1: 65 15        	adc	$15                     ; 0x15 <__rc5>
    12d3: 85 15        	sta	$15                     ; 0x15 <__rc5>
    12d5: a5 22        	lda	$22                     ; 0x22 <__rc18>
    12d7: 65 14        	adc	$14                     ; 0x14 <__rc4>
    12d9: a8           	tay
    12da: a5 1d        	lda	$1d                     ; 0x1d <__rc13>
    12dc: 65 13        	adc	$13                     ; 0x13 <__rc3>
    12de: aa           	tax
    12df: a5 16        	lda	$16                     ; 0x16 <__rc6>
    12e1: 65 12        	adc	$12                     ; 0x12 <__rc2>
    12e3: 85 12        	sta	$12                     ; 0x12 <__rc2>
    12e5: 18           	clc
    12e6: a5 15        	lda	$15                     ; 0x15 <__rc5>
    12e8: 69 08        	adc	#$8
    12ea: 85 16        	sta	$16                     ; 0x16 <__rc6>
    12ec: 98           	tya
    12ed: 69 00        	adc	#$0
    12ef: 85 15        	sta	$15                     ; 0x15 <__rc5>
    12f1: 8a           	txa
    12f2: 69 00        	adc	#$0
    12f4: 85 14        	sta	$14                     ; 0x14 <__rc4>
    12f6: a5 12        	lda	$12                     ; 0x12 <__rc2>
    12f8: 69 00        	adc	#$0
    12fa: 85 13        	sta	$13                     ; 0x13 <__rc3>
    12fc: a6 1a        	ldx	$1a                     ; 0x1a <__rc10>
    12fe: a4 27        	ldy	$27                     ; 0x27 <__rc23>
    1300: e8           	inx
    1301: d0 01        	bne	$1304 <f256main+0x77c>
    1303: c8           	iny
    1304: a5 d8        	lda	$d8                     ; 0xd8 <theOne.0>
    1306: 85 12        	sta	$12                     ; 0x12 <__rc2>
    1308: 18           	clc
    1309: a5 23        	lda	$23                     ; 0x23 <__rc19>
    130b: 69 19        	adc	#$19
    130d: 85 18        	sta	$18                     ; 0x18 <__rc8>
    130f: a5 24        	lda	$24                     ; 0x24 <__rc20>
    1311: 69 00        	adc	#$0
    1313: 85 19        	sta	$19                     ; 0x19 <__rc9>
    1315: 84 27        	sty	$27                     ; 0x27 <__rc23>
    1317: c4 d9        	cpy	$d9                     ; 0xd9 <theOne.0+0x1>
    1319: d0 09        	bne	$1324 <f256main+0x79c>
    131b: e4 12        	cpx	$12                     ; 0x12 <__rc2>
    131d: a5 13        	lda	$13                     ; 0x13 <__rc3>
    131f: b0 0c        	bcs	$132d <f256main+0x7a5>
    1321: 4c 79 11     	jmp	$1179 <f256main+0x5f1>
    1324: c4 d9        	cpy	$d9                     ; 0xd9 <theOne.0+0x1>
    1326: a5 13        	lda	$13                     ; 0x13 <__rc3>
    1328: b0 03        	bcs	$132d <f256main+0x7a5>
    132a: 4c 79 11     	jmp	$1179 <f256main+0x5f1>
    132d: a6 d9        	ldx	$d9                     ; 0xd9 <theOne.0+0x1>
    132f: d0 07        	bne	$1338 <f256main+0x7b0>
    1331: a5 12        	lda	$12                     ; 0x12 <__rc2>
    1333: d0 03        	bne	$1338 <f256main+0x7b0>
    1335: 4c 1a 1a     	jmp	$1a1a <f256main+0xe92>
    1338: a6 1e        	ldx	$1e                     ; 0x1e <__rc14>
    133a: 86 12        	stx	$12                     ; 0x12 <__rc2>
    133c: a6 1f        	ldx	$1f                     ; 0x1f <__rc15>
    133e: 86 13        	stx	$13                     ; 0x13 <__rc3>
    1340: a2 01        	ldx	#$1
    1342: 86 25        	stx	$25                     ; 0x25 <__rc21>
    1344: a2 19        	ldx	#$19
    1346: 64 16        	stz	$16                     ; 0x16 <__rc6>
    1348: 64 29        	stz	$29                     ; 0x29 <__rc25>
    134a: 64 2a        	stz	$2a                     ; 0x2a <__rc26>
    134c: 64 2b        	stz	$2b                     ; 0x2b <__rc27>
    134e: a0 02        	ldy	#$2
    1350: 84 18        	sty	$18                     ; 0x18 <__rc8>
    1352: a5 16        	lda	$16                     ; 0x16 <__rc6>
    1354: 18           	clc
    1355: 88           	dey
    1356: b0 02        	bcs	$135a <f256main+0x7d2>
    1358: a0 00        	ldy	#$0
    135a: 84 19        	sty	$19                     ; 0x19 <__rc9>
    135c: 65 12        	adc	$12                     ; 0x12 <__rc2>
    135e: 85 14        	sta	$14                     ; 0x14 <__rc4>
    1360: a5 29        	lda	$29                     ; 0x29 <__rc25>
    1362: 65 13        	adc	$13                     ; 0x13 <__rc3>
    1364: 85 15        	sta	$15                     ; 0x15 <__rc5>
    1366: a0 18        	ldy	#$18
    1368: b1 14        	lda	($14),y                 ; 0x14 <__rc4>
    136a: f0 0d        	beq	$1379 <f256main+0x7f1>
    136c: a5 16        	lda	$16                     ; 0x16 <__rc6>
    136e: a0 06        	ldy	#$6
    1370: 91 10        	sta	($10),y                 ; 0x10 <__rc0>
    1372: a2 19        	ldx	#$19
    1374: 86 27        	stx	$27                     ; 0x27 <__rc23>
    1376: 4c 1b 19     	jmp	$191b <f256main+0xd93>
    1379: a5 16        	lda	$16                     ; 0x16 <__rc6>
    137b: a0 06        	ldy	#$6
    137d: 91 10        	sta	($10),y                 ; 0x10 <__rc0>
    137f: a4 19        	ldy	$19                     ; 0x19 <__rc9>
    1381: c0 01        	cpy	#$1
    1383: 65 12        	adc	$12                     ; 0x12 <__rc2>
    1385: 85 16        	sta	$16                     ; 0x16 <__rc6>
    1387: a5 29        	lda	$29                     ; 0x29 <__rc25>
    1389: 65 13        	adc	$13                     ; 0x13 <__rc3>
    138b: a8           	tay
    138c: 18           	clc
    138d: a5 16        	lda	$16                     ; 0x16 <__rc6>
    138f: 85 19        	sta	$19                     ; 0x19 <__rc9>
    1391: 69 04        	adc	#$4
    1393: 85 16        	sta	$16                     ; 0x16 <__rc6>
    1395: 98           	tya
    1396: 84 1a        	sty	$1a                     ; 0x1a <__rc10>
    1398: 69 00        	adc	#$0
    139a: 85 17        	sta	$17                     ; 0x17 <__rc7>
    139c: a0 03        	ldy	#$3
    139e: b1 16        	lda	($16),y                 ; 0x16 <__rc6>
    13a0: d1 14        	cmp	($14),y                 ; 0x14 <__rc4>
    13a2: d0 2b        	bne	$13cf <f256main+0x847>
    13a4: a0 02        	ldy	#$2
    13a6: b1 16        	lda	($16),y                 ; 0x16 <__rc6>
    13a8: 85 1b        	sta	$1b                     ; 0x1b <__rc11>
    13aa: b1 14        	lda	($14),y                 ; 0x14 <__rc4>
    13ac: 85 18        	sta	$18                     ; 0x18 <__rc8>
    13ae: a5 1b        	lda	$1b                     ; 0x1b <__rc11>
    13b0: c5 18        	cmp	$18                     ; 0x18 <__rc8>
    13b2: f0 03        	beq	$13b7 <f256main+0x82f>
    13b4: 4c 0a 19     	jmp	$190a <f256main+0xd82>
    13b7: 84 1c        	sty	$1c                     ; 0x1c <__rc12>
    13b9: a0 01        	ldy	#$1
    13bb: b1 16        	lda	($16),y                 ; 0x16 <__rc6>
    13bd: 85 17        	sta	$17                     ; 0x17 <__rc7>
    13bf: b1 14        	lda	($14),y                 ; 0x14 <__rc4>
    13c1: 85 16        	sta	$16                     ; 0x16 <__rc6>
    13c3: a5 17        	lda	$17                     ; 0x17 <__rc7>
    13c5: c5 16        	cmp	$16                     ; 0x16 <__rc6>
    13c7: f0 03        	beq	$13cc <f256main+0x844>
    13c9: 4c d6 23     	jmp	$23d6 <f256main+0x184e>
    13cc: 4c b4 23     	jmp	$23b4 <f256main+0x182c>
    13cf: d1 14        	cmp	($14),y                 ; 0x14 <__rc4>
    13d1: a4 18        	ldy	$18                     ; 0x18 <__rc8>
    13d3: 90 03        	bcc	$13d8 <f256main+0x850>
    13d5: 4c 11 19     	jmp	$1911 <f256main+0xd89>
    13d8: 86 12        	stx	$12                     ; 0x12 <__rc2>
    13da: 64 de        	stz	$de                     ; 0xde <_col>
    13dc: 9c 14 d0     	stz	$d014                   ; 0xd014 <end_block9+0x8d82>
    13df: 9c 15 d0     	stz	$d015                   ; 0xd015 <end_block9+0x8d83>
    13e2: a5 2a        	lda	$2a                     ; 0x2a <__rc26>
    13e4: 18           	clc
    13e5: 69 0f        	adc	#$f
    13e7: 85 df        	sta	$df                     ; 0xdf <_row>
    13e9: 8d 16 d0     	sta	$d016                   ; 0xd016 <end_block9+0x8d84>
    13ec: 9c 17 d0     	stz	$d017                   ; 0xd017 <end_block9+0x8d85>
    13ef: a6 dc        	ldx	$dc                     ; 0xdc <theOne.8>
    13f1: 86 28        	stx	$28                     ; 0x28 <__rc24>
    13f3: a6 dd        	ldx	$dd                     ; 0xdd <theOne.8+0x1>
    13f5: 86 24        	stx	$24                     ; 0x24 <__rc20>
    13f7: a6 12        	ldx	$12                     ; 0x12 <__rc2>
    13f9: 86 27        	stx	$27                     ; 0x27 <__rc23>
    13fb: 64 13        	stz	$13                     ; 0x13 <__rc3>
    13fd: a2 00        	ldx	#$0
    13ff: a5 2a        	lda	$2a                     ; 0x2a <__rc26>
    1401: 84 26        	sty	$26                     ; 0x26 <__rc22>
    1403: 20 67 41     	jsr	$4167 <__mulhi3>
    1406: 85 12        	sta	$12                     ; 0x12 <__rc2>
    1408: 86 13        	stx	$13                     ; 0x13 <__rc3>
    140a: a5 28        	lda	$28                     ; 0x28 <__rc24>
    140c: 85 16        	sta	$16                     ; 0x16 <__rc6>
    140e: 18           	clc
    140f: 65 12        	adc	$12                     ; 0x12 <__rc2>
    1411: a8           	tay
    1412: a5 24        	lda	$24                     ; 0x24 <__rc20>
    1414: 85 17        	sta	$17                     ; 0x17 <__rc7>
    1416: 65 13        	adc	$13                     ; 0x13 <__rc3>
    1418: aa           	tax
    1419: 84 14        	sty	$14                     ; 0x14 <__rc4>
    141b: 85 15        	sta	$15                     ; 0x15 <__rc5>
    141d: 18           	clc
    141e: 84 1b        	sty	$1b                     ; 0x1b <__rc11>
    1420: 98           	tya
    1421: 69 04        	adc	#$4
    1423: a8           	tay
    1424: 8a           	txa
    1425: 86 1c        	stx	$1c                     ; 0x1c <__rc12>
    1427: 69 00        	adc	#$0
    1429: 84 1d        	sty	$1d                     ; 0x1d <__rc13>
    142b: 84 12        	sty	$12                     ; 0x12 <__rc2>
    142d: 85 1e        	sta	$1e                     ; 0x1e <__rc14>
    142f: 85 13        	sta	$13                     ; 0x13 <__rc3>
    1431: a0 04        	ldy	#$4
    1433: b1 14        	lda	($14),y                 ; 0x14 <__rc4>
    1435: 85 18        	sta	$18                     ; 0x18 <__rc8>
    1437: a4 25        	ldy	$25                     ; 0x25 <__rc21>
    1439: a2 01        	ldx	#$1
    143b: 86 25        	stx	$25                     ; 0x25 <__rc21>
    143d: b1 12        	lda	($12),y                 ; 0x12 <__rc2>
    143f: a4 26        	ldy	$26                     ; 0x26 <__rc22>
    1441: aa           	tax
    1442: 84 1f        	sty	$1f                     ; 0x1f <__rc15>
    1444: b1 12        	lda	($12),y                 ; 0x12 <__rc2>
    1446: 85 19        	sta	$19                     ; 0x19 <__rc9>
    1448: a0 03        	ldy	#$3
    144a: b1 12        	lda	($12),y                 ; 0x12 <__rc2>
    144c: d1 14        	cmp	($14),y                 ; 0x14 <__rc4>
    144e: f0 03        	beq	$1453 <f256main+0x8cb>
    1450: 4c 5c 19     	jmp	$195c <f256main+0xdd4>
    1453: 85 1a        	sta	$1a                     ; 0x1a <__rc10>
    1455: 86 13        	stx	$13                     ; 0x13 <__rc3>
    1457: a4 1f        	ldy	$1f                     ; 0x1f <__rc15>
    1459: b1 14        	lda	($14),y                 ; 0x14 <__rc4>
    145b: 85 12        	sta	$12                     ; 0x12 <__rc2>
    145d: a6 19        	ldx	$19                     ; 0x19 <__rc9>
    145f: e4 12        	cpx	$12                     ; 0x12 <__rc2>
    1461: f0 03        	beq	$1466 <f256main+0x8de>
    1463: 4c 0d 24     	jmp	$240d <f256main+0x1885>
    1466: 4c e8 23     	jmp	$23e8 <f256main+0x1860>
    1469: a5 2c        	lda	$2c                     ; 0x2c <__rc28>
    146b: 05 2f        	ora	$2f                     ; 0x2f <__rc31>
    146d: a8           	tay
    146e: a5 2d        	lda	$2d                     ; 0x2d <__rc29>
    1470: 05 26        	ora	$26                     ; 0x26 <__rc22>
    1472: 85 15        	sta	$15                     ; 0x15 <__rc5>
    1474: a5 25        	lda	$25                     ; 0x25 <__rc21>
    1476: 05 24        	ora	$24                     ; 0x24 <__rc20>
    1478: 85 26        	sta	$26                     ; 0x26 <__rc22>
    147a: 98           	tya
    147b: 05 12        	ora	$12                     ; 0x12 <__rc2>
    147d: a8           	tay
    147e: a5 15        	lda	$15                     ; 0x15 <__rc5>
    1480: 05 13        	ora	$13                     ; 0x13 <__rc3>
    1482: 85 25        	sta	$25                     ; 0x25 <__rc21>
    1484: 98           	tya
    1485: 05 14        	ora	$14                     ; 0x14 <__rc4>
    1487: 85 2c        	sta	$2c                     ; 0x2c <__rc28>
    1489: a4 dc        	ldy	$dc                     ; 0xdc <theOne.8>
    148b: 84 2d        	sty	$2d                     ; 0x2d <__rc29>
    148d: a4 dd        	ldy	$dd                     ; 0xdd <theOne.8+0x1>
    148f: 84 24        	sty	$24                     ; 0x24 <__rc20>
    1491: a4 27        	ldy	$27                     ; 0x27 <__rc23>
    1493: 84 12        	sty	$12                     ; 0x12 <__rc2>
    1495: 64 13        	stz	$13                     ; 0x13 <__rc3>
    1497: a5 18        	lda	$18                     ; 0x18 <__rc8>
    1499: 20 67 41     	jsr	$4167 <__mulhi3>
    149c: 86 18        	stx	$18                     ; 0x18 <__rc8>
    149e: 85 12        	sta	$12                     ; 0x12 <__rc2>
    14a0: 85 19        	sta	$19                     ; 0x19 <__rc9>
    14a2: 86 13        	stx	$13                     ; 0x13 <__rc3>
    14a4: 18           	clc
    14a5: a5 2d        	lda	$2d                     ; 0x2d <__rc29>
    14a7: 65 12        	adc	$12                     ; 0x12 <__rc2>
    14a9: 85 17        	sta	$17                     ; 0x17 <__rc7>
    14ab: a5 24        	lda	$24                     ; 0x24 <__rc20>
    14ad: 65 13        	adc	$13                     ; 0x13 <__rc3>
    14af: aa           	tax
    14b0: 18           	clc
    14b1: a5 17        	lda	$17                     ; 0x17 <__rc7>
    14b3: 69 0c        	adc	#$c
    14b5: 85 12        	sta	$12                     ; 0x12 <__rc2>
    14b7: 8a           	txa
    14b8: 69 00        	adc	#$0
    14ba: 85 13        	sta	$13                     ; 0x13 <__rc3>
    14bc: a4 17        	ldy	$17                     ; 0x17 <__rc7>
    14be: 84 14        	sty	$14                     ; 0x14 <__rc4>
    14c0: 86 15        	stx	$15                     ; 0x15 <__rc5>
    14c2: a0 0c        	ldy	#$c
    14c4: a5 2c        	lda	$2c                     ; 0x2c <__rc28>
    14c6: 91 14        	sta	($14),y                 ; 0x14 <__rc4>
    14c8: a0 01        	ldy	#$1
    14ca: a5 25        	lda	$25                     ; 0x25 <__rc21>
    14cc: 91 12        	sta	($12),y                 ; 0x12 <__rc2>
    14ce: 84 1a        	sty	$1a                     ; 0x1a <__rc10>
    14d0: c8           	iny
    14d1: a5 26        	lda	$26                     ; 0x26 <__rc22>
    14d3: 91 12        	sta	($12),y                 ; 0x12 <__rc2>
    14d5: 84 1b        	sty	$1b                     ; 0x1b <__rc11>
    14d7: c8           	iny
    14d8: a5 2e        	lda	$2e                     ; 0x2e <__rc30>
    14da: 91 12        	sta	($12),y                 ; 0x12 <__rc2>
    14dc: 84 1d        	sty	$1d                     ; 0x1d <__rc13>
    14de: 18           	clc
    14df: a5 17        	lda	$17                     ; 0x17 <__rc7>
    14e1: 69 08        	adc	#$8
    14e3: 85 12        	sta	$12                     ; 0x12 <__rc2>
    14e5: 8a           	txa
    14e6: 69 00        	adc	#$0
    14e8: 85 13        	sta	$13                     ; 0x13 <__rc3>
    14ea: a0 08        	ldy	#$8
    14ec: b1 14        	lda	($14),y                 ; 0x14 <__rc4>
    14ee: 85 16        	sta	$16                     ; 0x16 <__rc6>
    14f0: 84 1e        	sty	$1e                     ; 0x1e <__rc14>
    14f2: a4 1a        	ldy	$1a                     ; 0x1a <__rc10>
    14f4: b1 12        	lda	($12),y                 ; 0x12 <__rc2>
    14f6: 85 22        	sta	$22                     ; 0x22 <__rc18>
    14f8: a4 1b        	ldy	$1b                     ; 0x1b <__rc11>
    14fa: b1 12        	lda	($12),y                 ; 0x12 <__rc2>
    14fc: 85 1c        	sta	$1c                     ; 0x1c <__rc12>
    14fe: 84 1f        	sty	$1f                     ; 0x1f <__rc15>
    1500: 18           	clc
    1501: a5 17        	lda	$17                     ; 0x17 <__rc7>
    1503: 69 04        	adc	#$4
    1505: 85 12        	sta	$12                     ; 0x12 <__rc2>
    1507: 8a           	txa
    1508: 69 00        	adc	#$0
    150a: 85 13        	sta	$13                     ; 0x13 <__rc3>
    150c: 18           	clc
    150d: a0 04        	ldy	#$4
    150f: a5 16        	lda	$16                     ; 0x16 <__rc6>
    1511: 71 14        	adc	($14),y                 ; 0x14 <__rc4>
    1513: 85 14        	sta	$14                     ; 0x14 <__rc4>
    1515: 84 1b        	sty	$1b                     ; 0x1b <__rc11>
    1517: a4 1a        	ldy	$1a                     ; 0x1a <__rc10>
    1519: a5 22        	lda	$22                     ; 0x22 <__rc18>
    151b: 71 12        	adc	($12),y                 ; 0x12 <__rc2>
    151d: 85 15        	sta	$15                     ; 0x15 <__rc5>
    151f: 84 22        	sty	$22                     ; 0x22 <__rc18>
    1521: a5 1c        	lda	$1c                     ; 0x1c <__rc12>
    1523: a4 1f        	ldy	$1f                     ; 0x1f <__rc15>
    1525: 71 12        	adc	($12),y                 ; 0x12 <__rc2>
    1527: a6 1f        	ldx	$1f                     ; 0x1f <__rc15>
    1529: 86 1a        	stx	$1a                     ; 0x1a <__rc10>
    152b: 85 13        	sta	$13                     ; 0x13 <__rc3>
    152d: a6 0f        	ldx	$f                      ; 0xf <__zp_bss_size>
    152f: 78           	sei
    1530: a5 15        	lda	$15                     ; 0x15 <__rc5>
    1532: 85 12        	sta	$12                     ; 0x12 <__rc2>
    1534: 06 12        	asl	$12                     ; 0x12 <__rc2>
    1536: 26 13        	rol	$13                     ; 0x13 <__rc3>
    1538: 06 12        	asl	$12                     ; 0x12 <__rc2>
    153a: 26 13        	rol	$13                     ; 0x13 <__rc3>
    153c: 06 12        	asl	$12                     ; 0x12 <__rc2>
    153e: 26 13        	rol	$13                     ; 0x13 <__rc3>
    1540: a4 13        	ldy	$13                     ; 0x13 <__rc3>
    1542: 84 0f        	sty	$f                      ; 0xf <__zp_bss_size>
    1544: 09 e0        	ora	#$e0
    1546: a4 14        	ldy	$14                     ; 0x14 <__rc4>
    1548: 84 12        	sty	$12                     ; 0x12 <__rc2>
    154a: 85 13        	sta	$13                     ; 0x13 <__rc3>
    154c: b2 12        	lda	($12)                   ; 0x12 <__rc2>
    154e: a0 05        	ldy	#$5
    1550: 91 10        	sta	($10),y                 ; 0x10 <__rc0>
    1552: 86 0f        	stx	$f                      ; 0xf <__zp_bss_size>
    1554: 58           	cli
    1555: a5 19        	lda	$19                     ; 0x19 <__rc9>
    1557: 18           	clc
    1558: 65 dc        	adc	$dc                     ; 0xdc <theOne.8>
    155a: aa           	tax
    155b: a5 18        	lda	$18                     ; 0x18 <__rc8>
    155d: 65 dd        	adc	$dd                     ; 0xdd <theOne.8+0x1>
    155f: 86 12        	stx	$12                     ; 0x12 <__rc2>
    1561: 85 13        	sta	$13                     ; 0x13 <__rc3>
    1563: a8           	tay
    1564: 18           	clc
    1565: 8a           	txa
    1566: 69 08        	adc	#$8
    1568: 85 14        	sta	$14                     ; 0x14 <__rc4>
    156a: 98           	tya
    156b: 69 00        	adc	#$0
    156d: 85 15        	sta	$15                     ; 0x15 <__rc5>
    156f: 18           	clc
    1570: 8a           	txa
    1571: 69 04        	adc	#$4
    1573: 85 16        	sta	$16                     ; 0x16 <__rc6>
    1575: 98           	tya
    1576: 69 00        	adc	#$0
    1578: 85 17        	sta	$17                     ; 0x17 <__rc7>
    157a: a4 1b        	ldy	$1b                     ; 0x1b <__rc11>
    157c: b1 12        	lda	($12),y                 ; 0x12 <__rc2>
    157e: 85 23        	sta	$23                     ; 0x23 <__rc19>
    1580: a6 1b        	ldx	$1b                     ; 0x1b <__rc11>
    1582: 86 1f        	stx	$1f                     ; 0x1f <__rc15>
    1584: a4 22        	ldy	$22                     ; 0x22 <__rc18>
    1586: b1 16        	lda	($16),y                 ; 0x16 <__rc6>
    1588: aa           	tax
    1589: 84 1b        	sty	$1b                     ; 0x1b <__rc11>
    158b: a4 1a        	ldy	$1a                     ; 0x1a <__rc10>
    158d: b1 16        	lda	($16),y                 ; 0x16 <__rc6>
    158f: 84 1c        	sty	$1c                     ; 0x1c <__rc12>
    1591: 85 1a        	sta	$1a                     ; 0x1a <__rc10>
    1593: a4 1d        	ldy	$1d                     ; 0x1d <__rc13>
    1595: b1 16        	lda	($16),y                 ; 0x16 <__rc6>
    1597: 85 16        	sta	$16                     ; 0x16 <__rc6>
    1599: 18           	clc
    159a: a4 1e        	ldy	$1e                     ; 0x1e <__rc14>
    159c: a5 23        	lda	$23                     ; 0x23 <__rc19>
    159e: 71 12        	adc	($12),y                 ; 0x12 <__rc2>
    15a0: 85 13        	sta	$13                     ; 0x13 <__rc3>
    15a2: a4 1b        	ldy	$1b                     ; 0x1b <__rc11>
    15a4: 8a           	txa
    15a5: 71 14        	adc	($14),y                 ; 0x14 <__rc4>
    15a7: 85 12        	sta	$12                     ; 0x12 <__rc2>
    15a9: 84 22        	sty	$22                     ; 0x22 <__rc18>
    15ab: a5 1a        	lda	$1a                     ; 0x1a <__rc10>
    15ad: a4 1c        	ldy	$1c                     ; 0x1c <__rc12>
    15af: 71 14        	adc	($14),y                 ; 0x14 <__rc4>
    15b1: 85 17        	sta	$17                     ; 0x17 <__rc7>
    15b3: 84 1a        	sty	$1a                     ; 0x1a <__rc10>
    15b5: a5 16        	lda	$16                     ; 0x16 <__rc6>
    15b7: a4 1d        	ldy	$1d                     ; 0x1d <__rc13>
    15b9: 71 14        	adc	($14),y                 ; 0x14 <__rc4>
    15bb: aa           	tax
    15bc: a4 1d        	ldy	$1d                     ; 0x1d <__rc13>
    15be: 84 26        	sty	$26                     ; 0x26 <__rc22>
    15c0: a5 12        	lda	$12                     ; 0x12 <__rc2>
    15c2: e6 13        	inc	$13                     ; 0x13 <__rc3>
    15c4: d0 03        	bne	$15c9 <f256main+0xa41>
    15c6: 4c 19 24     	jmp	$2419 <f256main+0x1891>
    15c9: a6 0f        	ldx	$f                      ; 0xf <__zp_bss_size>
    15cb: 78           	sei
    15cc: 85 12        	sta	$12                     ; 0x12 <__rc2>
    15ce: 06 12        	asl	$12                     ; 0x12 <__rc2>
    15d0: a4 17        	ldy	$17                     ; 0x17 <__rc7>
    15d2: 84 14        	sty	$14                     ; 0x14 <__rc4>
    15d4: 26 14        	rol	$14                     ; 0x14 <__rc4>
    15d6: 06 12        	asl	$12                     ; 0x12 <__rc2>
    15d8: 26 14        	rol	$14                     ; 0x14 <__rc4>
    15da: 06 12        	asl	$12                     ; 0x12 <__rc2>
    15dc: 26 14        	rol	$14                     ; 0x14 <__rc4>
    15de: a4 14        	ldy	$14                     ; 0x14 <__rc4>
    15e0: 84 0f        	sty	$f                      ; 0xf <__zp_bss_size>
    15e2: 09 e0        	ora	#$e0
    15e4: a4 13        	ldy	$13                     ; 0x13 <__rc3>
    15e6: 84 12        	sty	$12                     ; 0x12 <__rc2>
    15e8: 85 13        	sta	$13                     ; 0x13 <__rc3>
    15ea: b2 12        	lda	($12)                   ; 0x12 <__rc2>
    15ec: 85 1b        	sta	$1b                     ; 0x1b <__rc11>
    15ee: 86 0f        	stx	$f                      ; 0xf <__zp_bss_size>
    15f0: 58           	cli
    15f1: a5 19        	lda	$19                     ; 0x19 <__rc9>
    15f3: 18           	clc
    15f4: 65 dc        	adc	$dc                     ; 0xdc <theOne.8>
    15f6: aa           	tax
    15f7: a5 18        	lda	$18                     ; 0x18 <__rc8>
    15f9: 65 dd        	adc	$dd                     ; 0xdd <theOne.8+0x1>
    15fb: a8           	tay
    15fc: 8a           	txa
    15fd: 18           	clc
    15fe: 69 08        	adc	#$8
    1600: 85 14        	sta	$14                     ; 0x14 <__rc4>
    1602: 98           	tya
    1603: 69 00        	adc	#$0
    1605: 86 12        	stx	$12                     ; 0x12 <__rc2>
    1607: 84 13        	sty	$13                     ; 0x13 <__rc3>
    1609: 85 15        	sta	$15                     ; 0x15 <__rc5>
    160b: 18           	clc
    160c: 8a           	txa
    160d: 69 04        	adc	#$4
    160f: 85 16        	sta	$16                     ; 0x16 <__rc6>
    1611: 98           	tya
    1612: 69 00        	adc	#$0
    1614: 85 17        	sta	$17                     ; 0x17 <__rc7>
    1616: a4 1f        	ldy	$1f                     ; 0x1f <__rc15>
    1618: b1 12        	lda	($12),y                 ; 0x12 <__rc2>
    161a: 85 23        	sta	$23                     ; 0x23 <__rc19>
    161c: a4 22        	ldy	$22                     ; 0x22 <__rc18>
    161e: b1 16        	lda	($16),y                 ; 0x16 <__rc6>
    1620: 84 1c        	sty	$1c                     ; 0x1c <__rc12>
    1622: 85 22        	sta	$22                     ; 0x22 <__rc18>
    1624: a4 1a        	ldy	$1a                     ; 0x1a <__rc10>
    1626: b1 16        	lda	($16),y                 ; 0x16 <__rc6>
    1628: 85 16        	sta	$16                     ; 0x16 <__rc6>
    162a: 18           	clc
    162b: a4 1e        	ldy	$1e                     ; 0x1e <__rc14>
    162d: a5 23        	lda	$23                     ; 0x23 <__rc19>
    162f: 71 12        	adc	($12),y                 ; 0x12 <__rc2>
    1631: 85 12        	sta	$12                     ; 0x12 <__rc2>
    1633: a5 22        	lda	$22                     ; 0x22 <__rc18>
    1635: a4 1c        	ldy	$1c                     ; 0x1c <__rc12>
    1637: 71 14        	adc	($14),y                 ; 0x14 <__rc4>
    1639: 85 17        	sta	$17                     ; 0x17 <__rc7>
    163b: 84 22        	sty	$22                     ; 0x22 <__rc18>
    163d: a5 16        	lda	$16                     ; 0x16 <__rc6>
    163f: a4 1a        	ldy	$1a                     ; 0x1a <__rc10>
    1641: 71 14        	adc	($14),y                 ; 0x14 <__rc4>
    1643: 85 13        	sta	$13                     ; 0x13 <__rc3>
    1645: 84 23        	sty	$23                     ; 0x23 <__rc19>
    1647: 18           	clc
    1648: a5 12        	lda	$12                     ; 0x12 <__rc2>
    164a: 69 02        	adc	#$2
    164c: 85 14        	sta	$14                     ; 0x14 <__rc4>
    164e: a5 17        	lda	$17                     ; 0x17 <__rc7>
    1650: 69 00        	adc	#$0
    1652: aa           	tax
    1653: a5 13        	lda	$13                     ; 0x13 <__rc3>
    1655: 69 00        	adc	#$0
    1657: 85 13        	sta	$13                     ; 0x13 <__rc3>
    1659: 8a           	txa
    165a: 86 12        	stx	$12                     ; 0x12 <__rc2>
    165c: 06 12        	asl	$12                     ; 0x12 <__rc2>
    165e: 26 13        	rol	$13                     ; 0x13 <__rc3>
    1660: 06 12        	asl	$12                     ; 0x12 <__rc2>
    1662: 26 13        	rol	$13                     ; 0x13 <__rc3>
    1664: 06 12        	asl	$12                     ; 0x12 <__rc2>
    1666: 26 13        	rol	$13                     ; 0x13 <__rc3>
    1668: a4 13        	ldy	$13                     ; 0x13 <__rc3>
    166a: a6 0f        	ldx	$f                      ; 0xf <__zp_bss_size>
    166c: 78           	sei
    166d: 84 0f        	sty	$f                      ; 0xf <__zp_bss_size>
    166f: 09 e0        	ora	#$e0
    1671: a4 14        	ldy	$14                     ; 0x14 <__rc4>
    1673: 84 12        	sty	$12                     ; 0x12 <__rc2>
    1675: 85 13        	sta	$13                     ; 0x13 <__rc3>
    1677: b2 12        	lda	($12)                   ; 0x12 <__rc2>
    1679: 85 1a        	sta	$1a                     ; 0x1a <__rc10>
    167b: 86 0f        	stx	$f                      ; 0xf <__zp_bss_size>
    167d: 58           	cli
    167e: a5 19        	lda	$19                     ; 0x19 <__rc9>
    1680: 18           	clc
    1681: 65 dc        	adc	$dc                     ; 0xdc <theOne.8>
    1683: aa           	tax
    1684: a5 18        	lda	$18                     ; 0x18 <__rc8>
    1686: 65 dd        	adc	$dd                     ; 0xdd <theOne.8+0x1>
    1688: 85 16        	sta	$16                     ; 0x16 <__rc6>
    168a: 18           	clc
    168b: 8a           	txa
    168c: 69 08        	adc	#$8
    168e: 85 12        	sta	$12                     ; 0x12 <__rc2>
    1690: a5 16        	lda	$16                     ; 0x16 <__rc6>
    1692: 69 00        	adc	#$0
    1694: 86 14        	stx	$14                     ; 0x14 <__rc4>
    1696: a4 16        	ldy	$16                     ; 0x16 <__rc6>
    1698: 84 15        	sty	$15                     ; 0x15 <__rc5>
    169a: a4 16        	ldy	$16                     ; 0x16 <__rc6>
    169c: 85 13        	sta	$13                     ; 0x13 <__rc3>
    169e: 18           	clc
    169f: 8a           	txa
    16a0: 69 04        	adc	#$4
    16a2: 85 16        	sta	$16                     ; 0x16 <__rc6>
    16a4: 98           	tya
    16a5: 69 00        	adc	#$0
    16a7: 85 17        	sta	$17                     ; 0x17 <__rc7>
    16a9: a4 1f        	ldy	$1f                     ; 0x1f <__rc15>
    16ab: b1 14        	lda	($14),y                 ; 0x14 <__rc4>
    16ad: 85 1f        	sta	$1f                     ; 0x1f <__rc15>
    16af: 84 24        	sty	$24                     ; 0x24 <__rc20>
    16b1: a4 22        	ldy	$22                     ; 0x22 <__rc18>
    16b3: b1 16        	lda	($16),y                 ; 0x16 <__rc6>
    16b5: 84 1c        	sty	$1c                     ; 0x1c <__rc12>
    16b7: 85 22        	sta	$22                     ; 0x22 <__rc18>
    16b9: a4 23        	ldy	$23                     ; 0x23 <__rc19>
    16bb: b1 16        	lda	($16),y                 ; 0x16 <__rc6>
    16bd: a6 23        	ldx	$23                     ; 0x23 <__rc19>
    16bf: 85 16        	sta	$16                     ; 0x16 <__rc6>
    16c1: 18           	clc
    16c2: a4 1e        	ldy	$1e                     ; 0x1e <__rc14>
    16c4: a5 1f        	lda	$1f                     ; 0x1f <__rc15>
    16c6: 71 14        	adc	($14),y                 ; 0x14 <__rc4>
    16c8: 85 14        	sta	$14                     ; 0x14 <__rc4>
    16ca: 84 23        	sty	$23                     ; 0x23 <__rc19>
    16cc: a5 22        	lda	$22                     ; 0x22 <__rc18>
    16ce: a4 1c        	ldy	$1c                     ; 0x1c <__rc12>
    16d0: 71 12        	adc	($12),y                 ; 0x12 <__rc2>
    16d2: 85 15        	sta	$15                     ; 0x15 <__rc5>
    16d4: 84 25        	sty	$25                     ; 0x25 <__rc21>
    16d6: da           	phx
    16d7: 7a           	ply
    16d8: a5 16        	lda	$16                     ; 0x16 <__rc6>
    16da: 71 12        	adc	($12),y                 ; 0x12 <__rc2>
    16dc: 85 12        	sta	$12                     ; 0x12 <__rc2>
    16de: 86 1e        	stx	$1e                     ; 0x1e <__rc14>
    16e0: 18           	clc
    16e1: a5 14        	lda	$14                     ; 0x14 <__rc4>
    16e3: 69 03        	adc	#$3
    16e5: 85 14        	sta	$14                     ; 0x14 <__rc4>
    16e7: a5 15        	lda	$15                     ; 0x15 <__rc5>
    16e9: 69 00        	adc	#$0
    16eb: aa           	tax
    16ec: a5 12        	lda	$12                     ; 0x12 <__rc2>
    16ee: 69 00        	adc	#$0
    16f0: 85 13        	sta	$13                     ; 0x13 <__rc3>
    16f2: 8a           	txa
    16f3: 86 12        	stx	$12                     ; 0x12 <__rc2>
    16f5: 06 12        	asl	$12                     ; 0x12 <__rc2>
    16f7: 26 13        	rol	$13                     ; 0x13 <__rc3>
    16f9: 06 12        	asl	$12                     ; 0x12 <__rc2>
    16fb: 26 13        	rol	$13                     ; 0x13 <__rc3>
    16fd: 06 12        	asl	$12                     ; 0x12 <__rc2>
    16ff: 26 13        	rol	$13                     ; 0x13 <__rc3>
    1701: a4 13        	ldy	$13                     ; 0x13 <__rc3>
    1703: a6 0f        	ldx	$f                      ; 0xf <__zp_bss_size>
    1705: 78           	sei
    1706: 84 0f        	sty	$f                      ; 0xf <__zp_bss_size>
    1708: 09 e0        	ora	#$e0
    170a: a4 14        	ldy	$14                     ; 0x14 <__rc4>
    170c: 84 12        	sty	$12                     ; 0x12 <__rc2>
    170e: 85 13        	sta	$13                     ; 0x13 <__rc3>
    1710: b2 12        	lda	($12)                   ; 0x12 <__rc2>
    1712: a0 02        	ldy	#$2
    1714: 91 10        	sta	($10),y                 ; 0x10 <__rc0>
    1716: 86 0f        	stx	$f                      ; 0xf <__zp_bss_size>
    1718: 58           	cli
    1719: a5 19        	lda	$19                     ; 0x19 <__rc9>
    171b: 18           	clc
    171c: 65 dc        	adc	$dc                     ; 0xdc <theOne.8>
    171e: aa           	tax
    171f: a5 18        	lda	$18                     ; 0x18 <__rc8>
    1721: 65 dd        	adc	$dd                     ; 0xdd <theOne.8+0x1>
    1723: a8           	tay
    1724: 18           	clc
    1725: 8a           	txa
    1726: 69 08        	adc	#$8
    1728: 85 12        	sta	$12                     ; 0x12 <__rc2>
    172a: 98           	tya
    172b: 69 00        	adc	#$0
    172d: 85 13        	sta	$13                     ; 0x13 <__rc3>
    172f: 86 14        	stx	$14                     ; 0x14 <__rc4>
    1731: 84 15        	sty	$15                     ; 0x15 <__rc5>
    1733: 18           	clc
    1734: 8a           	txa
    1735: 69 04        	adc	#$4
    1737: 85 16        	sta	$16                     ; 0x16 <__rc6>
    1739: 98           	tya
    173a: 69 00        	adc	#$0
    173c: 85 17        	sta	$17                     ; 0x17 <__rc7>
    173e: a4 24        	ldy	$24                     ; 0x24 <__rc20>
    1740: b1 14        	lda	($14),y                 ; 0x14 <__rc4>
    1742: 85 1f        	sta	$1f                     ; 0x1f <__rc15>
    1744: 84 22        	sty	$22                     ; 0x22 <__rc18>
    1746: a4 25        	ldy	$25                     ; 0x25 <__rc21>
    1748: b1 16        	lda	($16),y                 ; 0x16 <__rc6>
    174a: aa           	tax
    174b: 84 1c        	sty	$1c                     ; 0x1c <__rc12>
    174d: a4 1e        	ldy	$1e                     ; 0x1e <__rc14>
    174f: b1 16        	lda	($16),y                 ; 0x16 <__rc6>
    1751: 84 17        	sty	$17                     ; 0x17 <__rc7>
    1753: 85 16        	sta	$16                     ; 0x16 <__rc6>
    1755: 18           	clc
    1756: a4 23        	ldy	$23                     ; 0x23 <__rc19>
    1758: a5 1f        	lda	$1f                     ; 0x1f <__rc15>
    175a: 71 14        	adc	($14),y                 ; 0x14 <__rc4>
    175c: 85 14        	sta	$14                     ; 0x14 <__rc4>
    175e: 84 24        	sty	$24                     ; 0x24 <__rc20>
    1760: 8a           	txa
    1761: a4 1c        	ldy	$1c                     ; 0x1c <__rc12>
    1763: 71 12        	adc	($12),y                 ; 0x12 <__rc2>
    1765: a6 1c        	ldx	$1c                     ; 0x1c <__rc12>
    1767: 85 15        	sta	$15                     ; 0x15 <__rc5>
    1769: 86 1e        	stx	$1e                     ; 0x1e <__rc14>
    176b: a4 17        	ldy	$17                     ; 0x17 <__rc7>
    176d: a5 16        	lda	$16                     ; 0x16 <__rc6>
    176f: 71 12        	adc	($12),y                 ; 0x12 <__rc2>
    1771: 85 12        	sta	$12                     ; 0x12 <__rc2>
    1773: 84 23        	sty	$23                     ; 0x23 <__rc19>
    1775: 18           	clc
    1776: a5 14        	lda	$14                     ; 0x14 <__rc4>
    1778: 69 04        	adc	#$4
    177a: 85 14        	sta	$14                     ; 0x14 <__rc4>
    177c: a5 15        	lda	$15                     ; 0x15 <__rc5>
    177e: 69 00        	adc	#$0
    1780: aa           	tax
    1781: a5 12        	lda	$12                     ; 0x12 <__rc2>
    1783: 69 00        	adc	#$0
    1785: 85 13        	sta	$13                     ; 0x13 <__rc3>
    1787: 8a           	txa
    1788: 86 12        	stx	$12                     ; 0x12 <__rc2>
    178a: 06 12        	asl	$12                     ; 0x12 <__rc2>
    178c: 26 13        	rol	$13                     ; 0x13 <__rc3>
    178e: 06 12        	asl	$12                     ; 0x12 <__rc2>
    1790: 26 13        	rol	$13                     ; 0x13 <__rc3>
    1792: 06 12        	asl	$12                     ; 0x12 <__rc2>
    1794: 26 13        	rol	$13                     ; 0x13 <__rc3>
    1796: a4 13        	ldy	$13                     ; 0x13 <__rc3>
    1798: a6 0f        	ldx	$f                      ; 0xf <__zp_bss_size>
    179a: 78           	sei
    179b: 84 0f        	sty	$f                      ; 0xf <__zp_bss_size>
    179d: a4 14        	ldy	$14                     ; 0x14 <__rc4>
    179f: 84 12        	sty	$12                     ; 0x12 <__rc2>
    17a1: 09 e0        	ora	#$e0
    17a3: 85 13        	sta	$13                     ; 0x13 <__rc3>
    17a5: b2 12        	lda	($12)                   ; 0x12 <__rc2>
    17a7: a0 01        	ldy	#$1
    17a9: 91 10        	sta	($10),y                 ; 0x10 <__rc0>
    17ab: 86 0f        	stx	$f                      ; 0xf <__zp_bss_size>
    17ad: 58           	cli
    17ae: a5 19        	lda	$19                     ; 0x19 <__rc9>
    17b0: 18           	clc
    17b1: 65 dc        	adc	$dc                     ; 0xdc <theOne.8>
    17b3: aa           	tax
    17b4: a5 18        	lda	$18                     ; 0x18 <__rc8>
    17b6: 65 dd        	adc	$dd                     ; 0xdd <theOne.8+0x1>
    17b8: a8           	tay
    17b9: 18           	clc
    17ba: 8a           	txa
    17bb: 69 08        	adc	#$8
    17bd: 85 12        	sta	$12                     ; 0x12 <__rc2>
    17bf: 98           	tya
    17c0: 69 00        	adc	#$0
    17c2: 85 13        	sta	$13                     ; 0x13 <__rc3>
    17c4: 86 14        	stx	$14                     ; 0x14 <__rc4>
    17c6: 84 15        	sty	$15                     ; 0x15 <__rc5>
    17c8: 18           	clc
    17c9: 8a           	txa
    17ca: 69 04        	adc	#$4
    17cc: 85 16        	sta	$16                     ; 0x16 <__rc6>
    17ce: 98           	tya
    17cf: 69 00        	adc	#$0
    17d1: 85 17        	sta	$17                     ; 0x17 <__rc7>
    17d3: a4 22        	ldy	$22                     ; 0x22 <__rc18>
    17d5: b1 14        	lda	($14),y                 ; 0x14 <__rc4>
    17d7: 85 1f        	sta	$1f                     ; 0x1f <__rc15>
    17d9: a4 1e        	ldy	$1e                     ; 0x1e <__rc14>
    17db: b1 16        	lda	($16),y                 ; 0x16 <__rc6>
    17dd: 85 1c        	sta	$1c                     ; 0x1c <__rc12>
    17df: a4 23        	ldy	$23                     ; 0x23 <__rc19>
    17e1: b1 16        	lda	($16),y                 ; 0x16 <__rc6>
    17e3: 84 1d        	sty	$1d                     ; 0x1d <__rc13>
    17e5: 85 16        	sta	$16                     ; 0x16 <__rc6>
    17e7: 18           	clc
    17e8: a4 24        	ldy	$24                     ; 0x24 <__rc20>
    17ea: a5 1f        	lda	$1f                     ; 0x1f <__rc15>
    17ec: 71 14        	adc	($14),y                 ; 0x14 <__rc4>
    17ee: 85 14        	sta	$14                     ; 0x14 <__rc4>
    17f0: a4 1e        	ldy	$1e                     ; 0x1e <__rc14>
    17f2: a5 1c        	lda	$1c                     ; 0x1c <__rc12>
    17f4: 71 12        	adc	($12),y                 ; 0x12 <__rc2>
    17f6: 85 15        	sta	$15                     ; 0x15 <__rc5>
    17f8: 84 17        	sty	$17                     ; 0x17 <__rc7>
    17fa: a4 1d        	ldy	$1d                     ; 0x1d <__rc13>
    17fc: a5 16        	lda	$16                     ; 0x16 <__rc6>
    17fe: 71 12        	adc	($12),y                 ; 0x12 <__rc2>
    1800: 85 12        	sta	$12                     ; 0x12 <__rc2>
    1802: 84 1c        	sty	$1c                     ; 0x1c <__rc12>
    1804: 18           	clc
    1805: a5 14        	lda	$14                     ; 0x14 <__rc4>
    1807: 69 05        	adc	#$5
    1809: 85 14        	sta	$14                     ; 0x14 <__rc4>
    180b: a5 15        	lda	$15                     ; 0x15 <__rc5>
    180d: 69 00        	adc	#$0
    180f: aa           	tax
    1810: a5 12        	lda	$12                     ; 0x12 <__rc2>
    1812: 69 00        	adc	#$0
    1814: 85 13        	sta	$13                     ; 0x13 <__rc3>
    1816: 8a           	txa
    1817: 86 12        	stx	$12                     ; 0x12 <__rc2>
    1819: 06 12        	asl	$12                     ; 0x12 <__rc2>
    181b: 26 13        	rol	$13                     ; 0x13 <__rc3>
    181d: 06 12        	asl	$12                     ; 0x12 <__rc2>
    181f: 26 13        	rol	$13                     ; 0x13 <__rc3>
    1821: 06 12        	asl	$12                     ; 0x12 <__rc2>
    1823: 26 13        	rol	$13                     ; 0x13 <__rc3>
    1825: a4 13        	ldy	$13                     ; 0x13 <__rc3>
    1827: a6 0f        	ldx	$f                      ; 0xf <__zp_bss_size>
    1829: 78           	sei
    182a: 84 0f        	sty	$f                      ; 0xf <__zp_bss_size>
    182c: a4 14        	ldy	$14                     ; 0x14 <__rc4>
    182e: 84 12        	sty	$12                     ; 0x12 <__rc2>
    1830: 09 e0        	ora	#$e0
    1832: 85 13        	sta	$13                     ; 0x13 <__rc3>
    1834: b2 12        	lda	($12)                   ; 0x12 <__rc2>
    1836: a0 00        	ldy	#$0
    1838: 91 10        	sta	($10),y                 ; 0x10 <__rc0>
    183a: 86 0f        	stx	$f                      ; 0xf <__zp_bss_size>
    183c: 58           	cli
    183d: a6 dc        	ldx	$dc                     ; 0xdc <theOne.8>
    183f: 86 25        	stx	$25                     ; 0x25 <__rc21>
    1841: a6 dd        	ldx	$dd                     ; 0xdd <theOne.8+0x1>
    1843: 86 23        	stx	$23                     ; 0x23 <__rc19>
    1845: 18           	clc
    1846: a5 19        	lda	$19                     ; 0x19 <__rc9>
    1848: 65 dc        	adc	$dc                     ; 0xdc <theOne.8>
    184a: aa           	tax
    184b: a5 18        	lda	$18                     ; 0x18 <__rc8>
    184d: 65 dd        	adc	$dd                     ; 0xdd <theOne.8+0x1>
    184f: 86 14        	stx	$14                     ; 0x14 <__rc4>
    1851: 85 15        	sta	$15                     ; 0x15 <__rc5>
    1853: a8           	tay
    1854: 18           	clc
    1855: 8a           	txa
    1856: 69 04        	adc	#$4
    1858: aa           	tax
    1859: 98           	tya
    185a: 69 00        	adc	#$0
    185c: 85 16        	sta	$16                     ; 0x16 <__rc6>
    185e: a0 10        	ldy	#$10
    1860: 5a           	phy
    1861: a0 05        	ldy	#$5
    1863: b1 10        	lda	($10),y                 ; 0x10 <__rc0>
    1865: 7a           	ply
    1866: 91 14        	sta	($14),y                 ; 0x14 <__rc4>
    1868: a0 11        	ldy	#$11
    186a: a5 1b        	lda	$1b                     ; 0x1b <__rc11>
    186c: 85 1e        	sta	$1e                     ; 0x1e <__rc14>
    186e: 84 2d        	sty	$2d                     ; 0x2d <__rc29>
    1870: 91 14        	sta	($14),y                 ; 0x14 <__rc4>
    1872: c8           	iny
    1873: a5 1a        	lda	$1a                     ; 0x1a <__rc10>
    1875: 85 1d        	sta	$1d                     ; 0x1d <__rc13>
    1877: 84 28        	sty	$28                     ; 0x28 <__rc24>
    1879: 91 14        	sta	($14),y                 ; 0x14 <__rc4>
    187b: 8a           	txa
    187c: a0 03        	ldy	#$3
    187e: 91 10        	sta	($10),y                 ; 0x10 <__rc0>
    1880: 86 12        	stx	$12                     ; 0x12 <__rc2>
    1882: a6 16        	ldx	$16                     ; 0x16 <__rc6>
    1884: 86 13        	stx	$13                     ; 0x13 <__rc3>
    1886: a5 16        	lda	$16                     ; 0x16 <__rc6>
    1888: c8           	iny
    1889: 91 10        	sta	($10),y                 ; 0x10 <__rc0>
    188b: a4 22        	ldy	$22                     ; 0x22 <__rc18>
    188d: b1 14        	lda	($14),y                 ; 0x14 <__rc4>
    188f: 85 18        	sta	$18                     ; 0x18 <__rc8>
    1891: 84 16        	sty	$16                     ; 0x16 <__rc6>
    1893: a4 17        	ldy	$17                     ; 0x17 <__rc7>
    1895: b1 12        	lda	($12),y                 ; 0x12 <__rc2>
    1897: 85 19        	sta	$19                     ; 0x19 <__rc9>
    1899: a4 1c        	ldy	$1c                     ; 0x1c <__rc12>
    189b: b1 12        	lda	($12),y                 ; 0x12 <__rc2>
    189d: 85 22        	sta	$22                     ; 0x22 <__rc18>
    189f: a4 26        	ldy	$26                     ; 0x26 <__rc22>
    18a1: b1 12        	lda	($12),y                 ; 0x12 <__rc2>
    18a3: 84 1b        	sty	$1b                     ; 0x1b <__rc11>
    18a5: a6 18        	ldx	$18                     ; 0x18 <__rc8>
    18a7: a4 19        	ldy	$19                     ; 0x19 <__rc9>
    18a9: 84 1a        	sty	$1a                     ; 0x1a <__rc10>
    18ab: 84 1f        	sty	$1f                     ; 0x1f <__rc15>
    18ad: a4 22        	ldy	$22                     ; 0x22 <__rc18>
    18af: 84 2c        	sty	$2c                     ; 0x2c <__rc28>
    18b1: 84 19        	sty	$19                     ; 0x19 <__rc9>
    18b3: 85 22        	sta	$22                     ; 0x22 <__rc18>
    18b5: 85 2e        	sta	$2e                     ; 0x2e <__rc30>
    18b7: e6 18        	inc	$18                     ; 0x18 <__rc8>
    18b9: d0 03        	bne	$18be <f256main+0xd36>
    18bb: 4c 2a 24     	jmp	$242a <f256main+0x18a2>
    18be: a4 16        	ldy	$16                     ; 0x16 <__rc6>
    18c0: a5 18        	lda	$18                     ; 0x18 <__rc8>
    18c2: 85 26        	sta	$26                     ; 0x26 <__rc22>
    18c4: a5 18        	lda	$18                     ; 0x18 <__rc8>
    18c6: 91 14        	sta	($14),y                 ; 0x14 <__rc4>
    18c8: a4 17        	ldy	$17                     ; 0x17 <__rc7>
    18ca: a5 1f        	lda	$1f                     ; 0x1f <__rc15>
    18cc: 85 24        	sta	$24                     ; 0x24 <__rc20>
    18ce: 91 12        	sta	($12),y                 ; 0x12 <__rc2>
    18d0: a5 19        	lda	$19                     ; 0x19 <__rc9>
    18d2: a4 1c        	ldy	$1c                     ; 0x1c <__rc12>
    18d4: 84 19        	sty	$19                     ; 0x19 <__rc9>
    18d6: 85 18        	sta	$18                     ; 0x18 <__rc8>
    18d8: 91 12        	sta	($12),y                 ; 0x12 <__rc2>
    18da: a4 1b        	ldy	$1b                     ; 0x1b <__rc11>
    18dc: a5 2e        	lda	$2e                     ; 0x2e <__rc30>
    18de: 91 12        	sta	($12),y                 ; 0x12 <__rc2>
    18e0: 48           	pha
    18e1: 5a           	phy
    18e2: a0 05        	ldy	#$5
    18e4: b1 10        	lda	($10),y                 ; 0x10 <__rc0>
    18e6: 7a           	ply
    18e7: 85 1c        	sta	$1c                     ; 0x1c <__rc12>
    18e9: 68           	pla
    18ea: e6 1c        	inc	$1c                     ; 0x1c <__rc12>
    18ec: c6 1c        	dec	$1c                     ; 0x1c <__rc12>
    18ee: 30 03        	bmi	$18f3 <f256main+0xd6b>
    18f0: 4c 0c 23     	jmp	$230c <f256main+0x1784>
    18f3: 4c 54 24     	jmp	$2454 <f256main+0x18cc>
    18f6: a6 25        	ldx	$25                     ; 0x25 <__rc21>
    18f8: 86 12        	stx	$12                     ; 0x12 <__rc2>
    18fa: a6 23        	ldx	$23                     ; 0x23 <__rc19>
    18fc: 86 13        	stx	$13                     ; 0x13 <__rc3>
    18fe: a6 1c        	ldx	$1c                     ; 0x1c <__rc12>
    1900: e0 ff        	cpx	#$ff
    1902: f0 03        	beq	$1907 <f256main+0xd7f>
    1904: 4c 58 23     	jmp	$2358 <f256main+0x17d0>
    1907: 4c 5f 24     	jmp	$245f <f256main+0x18d7>
    190a: c5 18        	cmp	$18                     ; 0x18 <__rc8>
    190c: b0 03        	bcs	$1911 <f256main+0xd89>
    190e: 4c d8 13     	jmp	$13d8 <f256main+0x850>
    1911: a2 19        	ldx	#$19
    1913: 86 27        	stx	$27                     ; 0x27 <__rc23>
    1915: a9 01        	lda	#$1
    1917: a0 18        	ldy	#$18
    1919: 91 14        	sta	($14),y                 ; 0x14 <__rc4>
    191b: a6 2b        	ldx	$2b                     ; 0x2b <__rc27>
    191d: a4 2a        	ldy	$2a                     ; 0x2a <__rc26>
    191f: c8           	iny
    1920: d0 01        	bne	$1923 <f256main+0xd9b>
    1922: e8           	inx
    1923: 18           	clc
    1924: 5a           	phy
    1925: a0 06        	ldy	#$6
    1927: b1 10        	lda	($10),y                 ; 0x10 <__rc0>
    1929: 7a           	ply
    192a: 69 19        	adc	#$19
    192c: 85 16        	sta	$16                     ; 0x16 <__rc6>
    192e: a5 29        	lda	$29                     ; 0x29 <__rc25>
    1930: 69 00        	adc	#$0
    1932: 85 29        	sta	$29                     ; 0x29 <__rc25>
    1934: e4 d9        	cpx	$d9                     ; 0xd9 <theOne.0+0x1>
    1936: d0 14        	bne	$194c <f256main+0xdc4>
    1938: 86 2b        	stx	$2b                     ; 0x2b <__rc27>
    193a: a6 d8        	ldx	$d8                     ; 0xd8 <theOne.0>
    193c: 86 14        	stx	$14                     ; 0x14 <__rc4>
    193e: 84 2a        	sty	$2a                     ; 0x2a <__rc26>
    1940: c4 14        	cpy	$14                     ; 0x14 <__rc4>
    1942: a6 27        	ldx	$27                     ; 0x27 <__rc23>
    1944: b0 03        	bcs	$1949 <f256main+0xdc1>
    1946: 4c 4e 13     	jmp	$134e <f256main+0x7c6>
    1949: 4c 1a 1a     	jmp	$1a1a <f256main+0xe92>
    194c: 84 2a        	sty	$2a                     ; 0x2a <__rc26>
    194e: 86 2b        	stx	$2b                     ; 0x2b <__rc27>
    1950: e4 d9        	cpx	$d9                     ; 0xd9 <theOne.0+0x1>
    1952: a6 27        	ldx	$27                     ; 0x27 <__rc23>
    1954: b0 03        	bcs	$1959 <f256main+0xdd1>
    1956: 4c 4e 13     	jmp	$134e <f256main+0x7c6>
    1959: 4c 1a 1a     	jmp	$1a1a <f256main+0xe92>
    195c: 85 1a        	sta	$1a                     ; 0x1a <__rc10>
    195e: d1 14        	cmp	($14),y                 ; 0x14 <__rc4>
    1960: 8a           	txa
    1961: 90 18        	bcc	$197b <f256main+0xdf3>
    1963: a6 16        	ldx	$16                     ; 0x16 <__rc6>
    1965: 86 12        	stx	$12                     ; 0x12 <__rc2>
    1967: a6 17        	ldx	$17                     ; 0x17 <__rc7>
    1969: 86 13        	stx	$13                     ; 0x13 <__rc3>
    196b: a9 01        	lda	#$1
    196d: a0 18        	ldy	#$18
    196f: 91 14        	sta	($14),y                 ; 0x14 <__rc4>
    1971: e6 da        	inc	$da                     ; 0xda <theOne.7>
    1973: f0 03        	beq	$1978 <f256main+0xdf0>
    1975: 4c 1b 19     	jmp	$191b <f256main+0xd93>
    1978: 4c 3d 24     	jmp	$243d <f256main+0x18b5>
    197b: aa           	tax
    197c: a4 1d        	ldy	$1d                     ; 0x1d <__rc13>
    197e: 84 16        	sty	$16                     ; 0x16 <__rc6>
    1980: a4 1e        	ldy	$1e                     ; 0x1e <__rc14>
    1982: 84 17        	sty	$17                     ; 0x17 <__rc7>
    1984: 18           	clc
    1985: a5 1b        	lda	$1b                     ; 0x1b <__rc11>
    1987: 69 08        	adc	#$8
    1989: 85 12        	sta	$12                     ; 0x12 <__rc2>
    198b: a5 1c        	lda	$1c                     ; 0x1c <__rc12>
    198d: 69 00        	adc	#$0
    198f: 85 13        	sta	$13                     ; 0x13 <__rc3>
    1991: a4 18        	ldy	$18                     ; 0x18 <__rc8>
    1993: 84 1b        	sty	$1b                     ; 0x1b <__rc11>
    1995: 8a           	txa
    1996: a4 19        	ldy	$19                     ; 0x19 <__rc9>
    1998: 84 1c        	sty	$1c                     ; 0x1c <__rc12>
    199a: e6 1b        	inc	$1b                     ; 0x1b <__rc11>
    199c: d0 03        	bne	$19a1 <f256main+0xe19>
    199e: 4c 42 24     	jmp	$2442 <f256main+0x18ba>
    19a1: 85 1d        	sta	$1d                     ; 0x1d <__rc13>
    19a3: a0 04        	ldy	#$4
    19a5: 84 24        	sty	$24                     ; 0x24 <__rc20>
    19a7: a5 1b        	lda	$1b                     ; 0x1b <__rc11>
    19a9: 91 14        	sta	($14),y                 ; 0x14 <__rc4>
    19ab: a0 01        	ldy	#$1
    19ad: a5 1d        	lda	$1d                     ; 0x1d <__rc13>
    19af: 91 16        	sta	($16),y                 ; 0x16 <__rc6>
    19b1: 84 1d        	sty	$1d                     ; 0x1d <__rc13>
    19b3: c8           	iny
    19b4: 84 1b        	sty	$1b                     ; 0x1b <__rc11>
    19b6: a5 1c        	lda	$1c                     ; 0x1c <__rc12>
    19b8: 91 16        	sta	($16),y                 ; 0x16 <__rc6>
    19ba: c8           	iny
    19bb: a5 1a        	lda	$1a                     ; 0x1a <__rc10>
    19bd: 91 16        	sta	($16),y                 ; 0x16 <__rc6>
    19bf: 18           	clc
    19c0: a0 08        	ldy	#$8
    19c2: a5 18        	lda	$18                     ; 0x18 <__rc8>
    19c4: 71 14        	adc	($14),y                 ; 0x14 <__rc4>
    19c6: 85 14        	sta	$14                     ; 0x14 <__rc4>
    19c8: 8a           	txa
    19c9: a4 1d        	ldy	$1d                     ; 0x1d <__rc13>
    19cb: 71 12        	adc	($12),y                 ; 0x12 <__rc2>
    19cd: 85 15        	sta	$15                     ; 0x15 <__rc5>
    19cf: a5 19        	lda	$19                     ; 0x19 <__rc9>
    19d1: a4 1b        	ldy	$1b                     ; 0x1b <__rc11>
    19d3: 71 12        	adc	($12),y                 ; 0x12 <__rc2>
    19d5: 85 12        	sta	$12                     ; 0x12 <__rc2>
    19d7: a6 0f        	ldx	$f                      ; 0xf <__zp_bss_size>
    19d9: 78           	sei
    19da: a5 15        	lda	$15                     ; 0x15 <__rc5>
    19dc: 0a           	asl
    19dd: 26 12        	rol	$12                     ; 0x12 <__rc2>
    19df: 0a           	asl
    19e0: 26 12        	rol	$12                     ; 0x12 <__rc2>
    19e2: 0a           	asl
    19e3: a5 12        	lda	$12                     ; 0x12 <__rc2>
    19e5: 2a           	rol
    19e6: 85 0f        	sta	$f                      ; 0xf <__zp_bss_size>
    19e8: a5 15        	lda	$15                     ; 0x15 <__rc5>
    19ea: 09 e0        	ora	#$e0
    19ec: a4 14        	ldy	$14                     ; 0x14 <__rc4>
    19ee: 84 12        	sty	$12                     ; 0x12 <__rc2>
    19f0: 85 13        	sta	$13                     ; 0x13 <__rc3>
    19f2: b2 12        	lda	($12)                   ; 0x12 <__rc2>
    19f4: 86 0f        	stx	$f                      ; 0xf <__zp_bss_size>
    19f6: 58           	cli
    19f7: aa           	tax
    19f8: 10 03        	bpl	$19fd <f256main+0xe75>
    19fa: 4c d0 24     	jmp	$24d0 <f256main+0x1948>
    19fd: 85 2c        	sta	$2c                     ; 0x2c <__rc28>
    19ff: 64 2d        	stz	$2d                     ; 0x2d <__rc29>
    1a01: 64 25        	stz	$25                     ; 0x25 <__rc21>
    1a03: 64 2e        	stz	$2e                     ; 0x2e <__rc30>
    1a05: 64 26        	stz	$26                     ; 0x26 <__rc22>
    1a07: 64 24        	stz	$24                     ; 0x24 <__rc20>
    1a09: 64 12        	stz	$12                     ; 0x12 <__rc2>
    1a0b: 64 2f        	stz	$2f                     ; 0x2f <__rc31>
    1a0d: 64 13        	stz	$13                     ; 0x13 <__rc3>
    1a0f: 64 14        	stz	$14                     ; 0x14 <__rc4>
    1a11: a2 00        	ldx	#$0
    1a13: a4 2a        	ldy	$2a                     ; 0x2a <__rc26>
    1a15: 84 18        	sty	$18                     ; 0x18 <__rc8>
    1a17: 4c 69 14     	jmp	$1469 <f256main+0x8e1>
    1a1a: a2 ff        	ldx	#$ff
    1a1c: 8e 01 df     	stx	$df01                   ; 0xdf01 <end_block9+0x9c6f>
    1a1f: a2 80        	ldx	#$80
    1a21: 8e 0c df     	stx	$df0c                   ; 0xdf0c <end_block9+0x9c7a>
    1a24: a2 57        	ldx	#$57
    1a26: 8e 0d df     	stx	$df0d                   ; 0xdf0d <end_block9+0x9c7b>
    1a29: 20 ea 2b     	jsr	$2bea <rotateX>
    1a2c: 20 ea 2b     	jsr	$2bea <rotateX>
    1a2f: 20 ea 2b     	jsr	$2bea <rotateX>
    1a32: 20 ea 2b     	jsr	$2bea <rotateX>
    1a35: 20 ea 2b     	jsr	$2bea <rotateX>
    1a38: a9 00        	lda	#$0
    1a3a: 20 0b 34     	jsr	$340b <redraw>
    1a3d: a2 01        	ldx	#$1
    1a3f: 8e 00 d1     	stx	$d100                   ; 0xd100 <end_block9+0x8e6e>
    1a42: 8e 08 d1     	stx	$d108                   ; 0xd108 <end_block9+0x8e76>
    1a45: a2 98        	ldx	#$98
    1a47: 86 2a        	stx	$2a                     ; 0x2a <__rc26>
    1a49: a2 7e        	ldx	#$7e
    1a4b: 86 2b        	stx	$2b                     ; 0x2b <__rc27>
    1a4d: a2 3f        	ldx	#$3f
    1a4f: 86 2f        	stx	$2f                     ; 0x2f <__rc31>
    1a51: 64 12        	stz	$12                     ; 0x12 <__rc2>
    1a53: a9 00        	lda	#$0
    1a55: a0 06        	ldy	#$6
    1a57: 91 10        	sta	($10),y                 ; 0x10 <__rc0>
    1a59: 80 27        	bra	$1a82 <f256main+0xefa>
    1a5b: a2 03        	ldx	#$3
    1a5d: 64 12        	stz	$12                     ; 0x12 <__rc2>
    1a5f: a9 00        	lda	#$0
    1a61: a0 06        	ldy	#$6
    1a63: 91 10        	sta	($10),y                 ; 0x10 <__rc0>
    1a65: a0 45        	ldy	#$45
    1a67: 8c 00 df     	sty	$df00                   ; 0xdf00 <end_block9+0x9c6e>
    1a6a: a0 ff        	ldy	#$ff
    1a6c: 8c 01 df     	sty	$df01                   ; 0xdf01 <end_block9+0x9c6f>
    1a6f: 9c 08 df     	stz	$df08                   ; 0xdf08 <end_block9+0x9c76>
    1a72: a0 7d        	ldy	#$7d
    1a74: 8c 09 df     	sty	$df09                   ; 0xdf09 <end_block9+0x9c77>
    1a77: 8e 0a df     	stx	$df0a                   ; 0xdf0a <end_block9+0x9c78>
    1a7a: ad 00 df     	lda	$df00                   ; 0xdf00 <end_block9+0x9c6e>
    1a7d: 09 c5        	ora	#$c5
    1a7f: 8d 00 df     	sta	$df00                   ; 0xdf00 <end_block9+0x9c6e>
    1a82: a5 30        	lda	$30                     ; 0x30 <skull_vertices>
    1a84: a6 31        	ldx	$31                     ; 0x31 <skull_vertices+0x1>
    1a86: a4 32        	ldy	$32                     ; 0x32 <skull_vertices+0x2>
    1a88: 84 16        	sty	$16                     ; 0x16 <__rc6>
    1a8a: a4 33        	ldy	$33                     ; 0x33 <skull_vertices+0x3>
    1a8c: 85 14        	sta	$14                     ; 0x14 <__rc4>
    1a8e: 86 15        	stx	$15                     ; 0x15 <__rc5>
    1a90: a6 2b        	ldx	$2b                     ; 0x2b <__rc27>
    1a92: 86 12        	stx	$12                     ; 0x12 <__rc2>
    1a94: a6 2f        	ldx	$2f                     ; 0x2f <__rc31>
    1a96: 86 2e        	stx	$2e                     ; 0x2e <__rc30>
    1a98: a6 2f        	ldx	$2f                     ; 0x2f <__rc31>
    1a9a: 86 13        	stx	$13                     ; 0x13 <__rc3>
    1a9c: 84 17        	sty	$17                     ; 0x17 <__rc7>
    1a9e: a6 2a        	ldx	$2a                     ; 0x2a <__rc26>
    1aa0: a9 fe        	lda	#$fe
    1aa2: 20 ea 05     	jsr	$5ea <mathFloatMul>
    1aa5: 85 24        	sta	$24                     ; 0x24 <__rc20>
    1aa7: 86 25        	stx	$25                     ; 0x25 <__rc21>
    1aa9: a6 12        	ldx	$12                     ; 0x12 <__rc2>
    1aab: 86 26        	stx	$26                     ; 0x26 <__rc22>
    1aad: a6 13        	ldx	$13                     ; 0x13 <__rc3>
    1aaf: 86 27        	stx	$27                     ; 0x27 <__rc23>
    1ab1: a5 38        	lda	$38                     ; 0x38 <skull_vertices+0x8>
    1ab3: a6 39        	ldx	$39                     ; 0x39 <skull_vertices+0x9>
    1ab5: a4 3a        	ldy	$3a                     ; 0x3a <skull_vertices+0xa>
    1ab7: 84 16        	sty	$16                     ; 0x16 <__rc6>
    1ab9: a4 3b        	ldy	$3b                     ; 0x3b <skull_vertices+0xb>
    1abb: 85 14        	sta	$14                     ; 0x14 <__rc4>
    1abd: 86 15        	stx	$15                     ; 0x15 <__rc5>
    1abf: a2 d6        	ldx	#$d6
    1ac1: 86 29        	stx	$29                     ; 0x29 <__rc25>
    1ac3: 86 12        	stx	$12                     ; 0x12 <__rc2>
    1ac5: a2 3d        	ldx	#$3d
    1ac7: 86 2f        	stx	$2f                     ; 0x2f <__rc31>
    1ac9: 86 13        	stx	$13                     ; 0x13 <__rc3>
    1acb: 84 17        	sty	$17                     ; 0x17 <__rc7>
    1acd: a2 12        	ldx	#$12
    1acf: 86 28        	stx	$28                     ; 0x28 <__rc24>
    1ad1: a0 c7        	ldy	#$c7
    1ad3: 98           	tya
    1ad4: 84 2c        	sty	$2c                     ; 0x2c <__rc28>
    1ad6: 20 ea 05     	jsr	$5ea <mathFloatMul>
    1ad9: 85 14        	sta	$14                     ; 0x14 <__rc4>
    1adb: 86 15        	stx	$15                     ; 0x15 <__rc5>
    1add: a6 12        	ldx	$12                     ; 0x12 <__rc2>
    1adf: a4 13        	ldy	$13                     ; 0x13 <__rc3>
    1ae1: a5 26        	lda	$26                     ; 0x26 <__rc22>
    1ae3: 85 12        	sta	$12                     ; 0x12 <__rc2>
    1ae5: a5 27        	lda	$27                     ; 0x27 <__rc23>
    1ae7: 85 13        	sta	$13                     ; 0x13 <__rc3>
    1ae9: 86 16        	stx	$16                     ; 0x16 <__rc6>
    1aeb: 84 17        	sty	$17                     ; 0x17 <__rc7>
    1aed: a6 25        	ldx	$25                     ; 0x25 <__rc21>
    1aef: a5 24        	lda	$24                     ; 0x24 <__rc20>
    1af1: 20 99 05     	jsr	$599 <mathFloatSub>
    1af4: 85 2a        	sta	$2a                     ; 0x2a <__rc26>
    1af6: 86 2d        	stx	$2d                     ; 0x2d <__rc29>
    1af8: a5 12        	lda	$12                     ; 0x12 <__rc2>
    1afa: a0 05        	ldy	#$5
    1afc: 91 10        	sta	($10),y                 ; 0x10 <__rc0>
    1afe: a5 13        	lda	$13                     ; 0x13 <__rc3>
    1b00: 88           	dey
    1b01: 91 10        	sta	($10),y                 ; 0x10 <__rc0>
    1b03: a5 30        	lda	$30                     ; 0x30 <skull_vertices>
    1b05: a6 31        	ldx	$31                     ; 0x31 <skull_vertices+0x1>
    1b07: a4 32        	ldy	$32                     ; 0x32 <skull_vertices+0x2>
    1b09: 84 16        	sty	$16                     ; 0x16 <__rc6>
    1b0b: a4 33        	ldy	$33                     ; 0x33 <skull_vertices+0x3>
    1b0d: 85 14        	sta	$14                     ; 0x14 <__rc4>
    1b0f: 86 15        	stx	$15                     ; 0x15 <__rc5>
    1b11: a6 29        	ldx	$29                     ; 0x29 <__rc25>
    1b13: 86 12        	stx	$12                     ; 0x12 <__rc2>
    1b15: a6 2f        	ldx	$2f                     ; 0x2f <__rc31>
    1b17: 86 13        	stx	$13                     ; 0x13 <__rc3>
    1b19: 84 17        	sty	$17                     ; 0x17 <__rc7>
    1b1b: a6 28        	ldx	$28                     ; 0x28 <__rc24>
    1b1d: a5 2c        	lda	$2c                     ; 0x2c <__rc28>
    1b1f: 20 ea 05     	jsr	$5ea <mathFloatMul>
    1b22: 85 24        	sta	$24                     ; 0x24 <__rc20>
    1b24: 86 25        	stx	$25                     ; 0x25 <__rc21>
    1b26: a6 12        	ldx	$12                     ; 0x12 <__rc2>
    1b28: 86 26        	stx	$26                     ; 0x26 <__rc22>
    1b2a: a6 13        	ldx	$13                     ; 0x13 <__rc3>
    1b2c: 86 27        	stx	$27                     ; 0x27 <__rc23>
    1b2e: a5 38        	lda	$38                     ; 0x38 <skull_vertices+0x8>
    1b30: a6 39        	ldx	$39                     ; 0x39 <skull_vertices+0x9>
    1b32: a4 3a        	ldy	$3a                     ; 0x3a <skull_vertices+0xa>
    1b34: 84 16        	sty	$16                     ; 0x16 <__rc6>
    1b36: a4 3b        	ldy	$3b                     ; 0x3b <skull_vertices+0xb>
    1b38: 85 14        	sta	$14                     ; 0x14 <__rc4>
    1b3a: 86 15        	stx	$15                     ; 0x15 <__rc5>
    1b3c: a6 2b        	ldx	$2b                     ; 0x2b <__rc27>
    1b3e: 86 12        	stx	$12                     ; 0x12 <__rc2>
    1b40: a6 2e        	ldx	$2e                     ; 0x2e <__rc30>
    1b42: 86 13        	stx	$13                     ; 0x13 <__rc3>
    1b44: 84 17        	sty	$17                     ; 0x17 <__rc7>
    1b46: a2 98        	ldx	#$98
    1b48: 86 29        	stx	$29                     ; 0x29 <__rc25>
    1b4a: a0 fe        	ldy	#$fe
    1b4c: 84 28        	sty	$28                     ; 0x28 <__rc24>
    1b4e: 98           	tya
    1b4f: 20 ea 05     	jsr	$5ea <mathFloatMul>
    1b52: 85 14        	sta	$14                     ; 0x14 <__rc4>
    1b54: 86 15        	stx	$15                     ; 0x15 <__rc5>
    1b56: a6 12        	ldx	$12                     ; 0x12 <__rc2>
    1b58: a4 13        	ldy	$13                     ; 0x13 <__rc3>
    1b5a: a5 26        	lda	$26                     ; 0x26 <__rc22>
    1b5c: 85 12        	sta	$12                     ; 0x12 <__rc2>
    1b5e: a5 27        	lda	$27                     ; 0x27 <__rc23>
    1b60: 85 13        	sta	$13                     ; 0x13 <__rc3>
    1b62: 86 16        	stx	$16                     ; 0x16 <__rc6>
    1b64: 84 17        	sty	$17                     ; 0x17 <__rc7>
    1b66: a6 25        	ldx	$25                     ; 0x25 <__rc21>
    1b68: a5 24        	lda	$24                     ; 0x24 <__rc20>
    1b6a: 20 48 05     	jsr	$548 <mathFloatAdd>
    1b6d: a4 2a        	ldy	$2a                     ; 0x2a <__rc26>
    1b6f: 84 30        	sty	$30                     ; 0x30 <skull_vertices>
    1b71: a4 2d        	ldy	$2d                     ; 0x2d <__rc29>
    1b73: 84 31        	sty	$31                     ; 0x31 <skull_vertices+0x1>
    1b75: 48           	pha
    1b76: a0 05        	ldy	#$5
    1b78: b1 10        	lda	($10),y                 ; 0x10 <__rc0>
    1b7a: 85 32        	sta	$32                     ; 0x32 <skull_vertices+0x2>
    1b7c: 88           	dey
    1b7d: b1 10        	lda	($10),y                 ; 0x10 <__rc0>
    1b7f: a8           	tay
    1b80: 68           	pla
    1b81: 84 33        	sty	$33                     ; 0x33 <skull_vertices+0x3>
    1b83: 85 38        	sta	$38                     ; 0x38 <skull_vertices+0x8>
    1b85: 86 39        	stx	$39                     ; 0x39 <skull_vertices+0x9>
    1b87: a6 12        	ldx	$12                     ; 0x12 <__rc2>
    1b89: 86 3a        	stx	$3a                     ; 0x3a <skull_vertices+0xa>
    1b8b: a6 13        	ldx	$13                     ; 0x13 <__rc3>
    1b8d: 86 3b        	stx	$3b                     ; 0x3b <skull_vertices+0xb>
    1b8f: a5 3c        	lda	$3c                     ; 0x3c <skull_vertices+0xc>
    1b91: a6 3d        	ldx	$3d                     ; 0x3d <skull_vertices+0xd>
    1b93: a4 3e        	ldy	$3e                     ; 0x3e <skull_vertices+0xe>
    1b95: 84 16        	sty	$16                     ; 0x16 <__rc6>
    1b97: a4 3f        	ldy	$3f                     ; 0x3f <skull_vertices+0xf>
    1b99: 85 14        	sta	$14                     ; 0x14 <__rc4>
    1b9b: 86 15        	stx	$15                     ; 0x15 <__rc5>
    1b9d: a6 2b        	ldx	$2b                     ; 0x2b <__rc27>
    1b9f: 86 12        	stx	$12                     ; 0x12 <__rc2>
    1ba1: a6 2e        	ldx	$2e                     ; 0x2e <__rc30>
    1ba3: 86 13        	stx	$13                     ; 0x13 <__rc3>
    1ba5: 84 17        	sty	$17                     ; 0x17 <__rc7>
    1ba7: a6 29        	ldx	$29                     ; 0x29 <__rc25>
    1ba9: a5 28        	lda	$28                     ; 0x28 <__rc24>
    1bab: 20 ea 05     	jsr	$5ea <mathFloatMul>
    1bae: 85 24        	sta	$24                     ; 0x24 <__rc20>
    1bb0: 86 25        	stx	$25                     ; 0x25 <__rc21>
    1bb2: a6 12        	ldx	$12                     ; 0x12 <__rc2>
    1bb4: 86 26        	stx	$26                     ; 0x26 <__rc22>
    1bb6: a6 13        	ldx	$13                     ; 0x13 <__rc3>
    1bb8: 86 27        	stx	$27                     ; 0x27 <__rc23>
    1bba: a5 44        	lda	$44                     ; 0x44 <skull_vertices+0x14>
    1bbc: a6 45        	ldx	$45                     ; 0x45 <skull_vertices+0x15>
    1bbe: a4 46        	ldy	$46                     ; 0x46 <skull_vertices+0x16>
    1bc0: 84 16        	sty	$16                     ; 0x16 <__rc6>
    1bc2: a4 47        	ldy	$47                     ; 0x47 <skull_vertices+0x17>
    1bc4: 85 14        	sta	$14                     ; 0x14 <__rc4>
    1bc6: 86 15        	stx	$15                     ; 0x15 <__rc5>
    1bc8: a2 d6        	ldx	#$d6
    1bca: 86 2d        	stx	$2d                     ; 0x2d <__rc29>
    1bcc: 86 12        	stx	$12                     ; 0x12 <__rc2>
    1bce: a6 2f        	ldx	$2f                     ; 0x2f <__rc31>
    1bd0: 86 13        	stx	$13                     ; 0x13 <__rc3>
    1bd2: 84 17        	sty	$17                     ; 0x17 <__rc7>
    1bd4: a2 12        	ldx	#$12
    1bd6: 86 29        	stx	$29                     ; 0x29 <__rc25>
    1bd8: a0 c7        	ldy	#$c7
    1bda: 84 2a        	sty	$2a                     ; 0x2a <__rc26>
    1bdc: 98           	tya
    1bdd: 20 ea 05     	jsr	$5ea <mathFloatMul>
    1be0: 85 14        	sta	$14                     ; 0x14 <__rc4>
    1be2: 86 15        	stx	$15                     ; 0x15 <__rc5>
    1be4: a6 12        	ldx	$12                     ; 0x12 <__rc2>
    1be6: a4 13        	ldy	$13                     ; 0x13 <__rc3>
    1be8: a5 26        	lda	$26                     ; 0x26 <__rc22>
    1bea: 85 12        	sta	$12                     ; 0x12 <__rc2>
    1bec: a5 27        	lda	$27                     ; 0x27 <__rc23>
    1bee: 85 13        	sta	$13                     ; 0x13 <__rc3>
    1bf0: 86 16        	stx	$16                     ; 0x16 <__rc6>
    1bf2: 84 17        	sty	$17                     ; 0x17 <__rc7>
    1bf4: a6 25        	ldx	$25                     ; 0x25 <__rc21>
    1bf6: a5 24        	lda	$24                     ; 0x24 <__rc20>
    1bf8: 20 99 05     	jsr	$599 <mathFloatSub>
    1bfb: 85 2c        	sta	$2c                     ; 0x2c <__rc28>
    1bfd: 86 28        	stx	$28                     ; 0x28 <__rc24>
    1bff: a5 12        	lda	$12                     ; 0x12 <__rc2>
    1c01: a0 05        	ldy	#$5
    1c03: 91 10        	sta	($10),y                 ; 0x10 <__rc0>
    1c05: a5 13        	lda	$13                     ; 0x13 <__rc3>
    1c07: 88           	dey
    1c08: 91 10        	sta	($10),y                 ; 0x10 <__rc0>
    1c0a: a5 3c        	lda	$3c                     ; 0x3c <skull_vertices+0xc>
    1c0c: a6 3d        	ldx	$3d                     ; 0x3d <skull_vertices+0xd>
    1c0e: a4 3e        	ldy	$3e                     ; 0x3e <skull_vertices+0xe>
    1c10: 84 16        	sty	$16                     ; 0x16 <__rc6>
    1c12: a4 3f        	ldy	$3f                     ; 0x3f <skull_vertices+0xf>
    1c14: 85 14        	sta	$14                     ; 0x14 <__rc4>
    1c16: 86 15        	stx	$15                     ; 0x15 <__rc5>
    1c18: a6 2d        	ldx	$2d                     ; 0x2d <__rc29>
    1c1a: 86 12        	stx	$12                     ; 0x12 <__rc2>
    1c1c: a6 2f        	ldx	$2f                     ; 0x2f <__rc31>
    1c1e: 86 13        	stx	$13                     ; 0x13 <__rc3>
    1c20: 84 17        	sty	$17                     ; 0x17 <__rc7>
    1c22: a6 29        	ldx	$29                     ; 0x29 <__rc25>
    1c24: a5 2a        	lda	$2a                     ; 0x2a <__rc26>
    1c26: 20 ea 05     	jsr	$5ea <mathFloatMul>
    1c29: 85 24        	sta	$24                     ; 0x24 <__rc20>
    1c2b: 86 25        	stx	$25                     ; 0x25 <__rc21>
    1c2d: a6 12        	ldx	$12                     ; 0x12 <__rc2>
    1c2f: 86 26        	stx	$26                     ; 0x26 <__rc22>
    1c31: a6 13        	ldx	$13                     ; 0x13 <__rc3>
    1c33: 86 27        	stx	$27                     ; 0x27 <__rc23>
    1c35: a5 44        	lda	$44                     ; 0x44 <skull_vertices+0x14>
    1c37: a6 45        	ldx	$45                     ; 0x45 <skull_vertices+0x15>
    1c39: a4 46        	ldy	$46                     ; 0x46 <skull_vertices+0x16>
    1c3b: 84 16        	sty	$16                     ; 0x16 <__rc6>
    1c3d: a4 47        	ldy	$47                     ; 0x47 <skull_vertices+0x17>
    1c3f: 85 14        	sta	$14                     ; 0x14 <__rc4>
    1c41: 86 15        	stx	$15                     ; 0x15 <__rc5>
    1c43: a6 2b        	ldx	$2b                     ; 0x2b <__rc27>
    1c45: 86 29        	stx	$29                     ; 0x29 <__rc25>
    1c47: a6 2b        	ldx	$2b                     ; 0x2b <__rc27>
    1c49: 86 12        	stx	$12                     ; 0x12 <__rc2>
    1c4b: a6 2e        	ldx	$2e                     ; 0x2e <__rc30>
    1c4d: 86 13        	stx	$13                     ; 0x13 <__rc3>
    1c4f: 84 17        	sty	$17                     ; 0x17 <__rc7>
    1c51: a2 98        	ldx	#$98
    1c53: 86 2a        	stx	$2a                     ; 0x2a <__rc26>
    1c55: a0 fe        	ldy	#$fe
    1c57: 84 2b        	sty	$2b                     ; 0x2b <__rc27>
    1c59: 98           	tya
    1c5a: 20 ea 05     	jsr	$5ea <mathFloatMul>
    1c5d: 85 14        	sta	$14                     ; 0x14 <__rc4>
    1c5f: 86 15        	stx	$15                     ; 0x15 <__rc5>
    1c61: a6 12        	ldx	$12                     ; 0x12 <__rc2>
    1c63: a4 13        	ldy	$13                     ; 0x13 <__rc3>
    1c65: a5 26        	lda	$26                     ; 0x26 <__rc22>
    1c67: 85 12        	sta	$12                     ; 0x12 <__rc2>
    1c69: a5 27        	lda	$27                     ; 0x27 <__rc23>
    1c6b: 85 13        	sta	$13                     ; 0x13 <__rc3>
    1c6d: 86 16        	stx	$16                     ; 0x16 <__rc6>
    1c6f: 84 17        	sty	$17                     ; 0x17 <__rc7>
    1c71: a6 25        	ldx	$25                     ; 0x25 <__rc21>
    1c73: a5 24        	lda	$24                     ; 0x24 <__rc20>
    1c75: 20 48 05     	jsr	$548 <mathFloatAdd>
    1c78: a4 2c        	ldy	$2c                     ; 0x2c <__rc28>
    1c7a: 84 3c        	sty	$3c                     ; 0x3c <skull_vertices+0xc>
    1c7c: a4 28        	ldy	$28                     ; 0x28 <__rc24>
    1c7e: 84 3d        	sty	$3d                     ; 0x3d <skull_vertices+0xd>
    1c80: 48           	pha
    1c81: a0 05        	ldy	#$5
    1c83: b1 10        	lda	($10),y                 ; 0x10 <__rc0>
    1c85: 85 3e        	sta	$3e                     ; 0x3e <skull_vertices+0xe>
    1c87: 88           	dey
    1c88: b1 10        	lda	($10),y                 ; 0x10 <__rc0>
    1c8a: a8           	tay
    1c8b: 68           	pla
    1c8c: 84 3f        	sty	$3f                     ; 0x3f <skull_vertices+0xf>
    1c8e: 85 44        	sta	$44                     ; 0x44 <skull_vertices+0x14>
    1c90: 86 45        	stx	$45                     ; 0x45 <skull_vertices+0x15>
    1c92: a6 12        	ldx	$12                     ; 0x12 <__rc2>
    1c94: 86 46        	stx	$46                     ; 0x46 <skull_vertices+0x16>
    1c96: a6 13        	ldx	$13                     ; 0x13 <__rc3>
    1c98: 86 47        	stx	$47                     ; 0x47 <skull_vertices+0x17>
    1c9a: a5 48        	lda	$48                     ; 0x48 <skull_vertices+0x18>
    1c9c: a6 49        	ldx	$49                     ; 0x49 <skull_vertices+0x19>
    1c9e: a4 4a        	ldy	$4a                     ; 0x4a <skull_vertices+0x1a>
    1ca0: 84 16        	sty	$16                     ; 0x16 <__rc6>
    1ca2: a4 4b        	ldy	$4b                     ; 0x4b <skull_vertices+0x1b>
    1ca4: 85 14        	sta	$14                     ; 0x14 <__rc4>
    1ca6: 86 15        	stx	$15                     ; 0x15 <__rc5>
    1ca8: a6 29        	ldx	$29                     ; 0x29 <__rc25>
    1caa: 86 12        	stx	$12                     ; 0x12 <__rc2>
    1cac: a6 29        	ldx	$29                     ; 0x29 <__rc25>
    1cae: 86 28        	stx	$28                     ; 0x28 <__rc24>
    1cb0: a6 2e        	ldx	$2e                     ; 0x2e <__rc30>
    1cb2: 86 13        	stx	$13                     ; 0x13 <__rc3>
    1cb4: 84 17        	sty	$17                     ; 0x17 <__rc7>
    1cb6: a6 2a        	ldx	$2a                     ; 0x2a <__rc26>
    1cb8: a5 2b        	lda	$2b                     ; 0x2b <__rc27>
    1cba: 20 ea 05     	jsr	$5ea <mathFloatMul>
    1cbd: 85 24        	sta	$24                     ; 0x24 <__rc20>
    1cbf: 86 25        	stx	$25                     ; 0x25 <__rc21>
    1cc1: a6 12        	ldx	$12                     ; 0x12 <__rc2>
    1cc3: 86 26        	stx	$26                     ; 0x26 <__rc22>
    1cc5: a6 13        	ldx	$13                     ; 0x13 <__rc3>
    1cc7: 86 27        	stx	$27                     ; 0x27 <__rc23>
    1cc9: a5 50        	lda	$50                     ; 0x50 <skull_vertices+0x20>
    1ccb: a6 51        	ldx	$51                     ; 0x51 <skull_vertices+0x21>
    1ccd: a4 52        	ldy	$52                     ; 0x52 <skull_vertices+0x22>
    1ccf: 84 16        	sty	$16                     ; 0x16 <__rc6>
    1cd1: a4 53        	ldy	$53                     ; 0x53 <skull_vertices+0x23>
    1cd3: 85 14        	sta	$14                     ; 0x14 <__rc4>
    1cd5: 86 15        	stx	$15                     ; 0x15 <__rc5>
    1cd7: a6 2d        	ldx	$2d                     ; 0x2d <__rc29>
    1cd9: 86 12        	stx	$12                     ; 0x12 <__rc2>
    1cdb: a6 2f        	ldx	$2f                     ; 0x2f <__rc31>
    1cdd: 86 13        	stx	$13                     ; 0x13 <__rc3>
    1cdf: 84 17        	sty	$17                     ; 0x17 <__rc7>
    1ce1: a2 12        	ldx	#$12
    1ce3: 86 2b        	stx	$2b                     ; 0x2b <__rc27>
    1ce5: a0 c7        	ldy	#$c7
    1ce7: 84 2c        	sty	$2c                     ; 0x2c <__rc28>
    1ce9: 98           	tya
    1cea: 20 ea 05     	jsr	$5ea <mathFloatMul>
    1ced: 85 14        	sta	$14                     ; 0x14 <__rc4>
    1cef: 86 15        	stx	$15                     ; 0x15 <__rc5>
    1cf1: a6 12        	ldx	$12                     ; 0x12 <__rc2>
    1cf3: a4 13        	ldy	$13                     ; 0x13 <__rc3>
    1cf5: a5 26        	lda	$26                     ; 0x26 <__rc22>
    1cf7: 85 12        	sta	$12                     ; 0x12 <__rc2>
    1cf9: a5 27        	lda	$27                     ; 0x27 <__rc23>
    1cfb: 85 13        	sta	$13                     ; 0x13 <__rc3>
    1cfd: 86 16        	stx	$16                     ; 0x16 <__rc6>
    1cff: 84 17        	sty	$17                     ; 0x17 <__rc7>
    1d01: a6 25        	ldx	$25                     ; 0x25 <__rc21>
    1d03: a5 24        	lda	$24                     ; 0x24 <__rc20>
    1d05: 20 99 05     	jsr	$599 <mathFloatSub>
    1d08: 85 29        	sta	$29                     ; 0x29 <__rc25>
    1d0a: 8a           	txa
    1d0b: a0 05        	ldy	#$5
    1d0d: 91 10        	sta	($10),y                 ; 0x10 <__rc0>
    1d0f: a5 12        	lda	$12                     ; 0x12 <__rc2>
    1d11: 88           	dey
    1d12: 91 10        	sta	($10),y                 ; 0x10 <__rc0>
    1d14: a5 13        	lda	$13                     ; 0x13 <__rc3>
    1d16: 88           	dey
    1d17: 91 10        	sta	($10),y                 ; 0x10 <__rc0>
    1d19: a5 48        	lda	$48                     ; 0x48 <skull_vertices+0x18>
    1d1b: a6 49        	ldx	$49                     ; 0x49 <skull_vertices+0x19>
    1d1d: a4 4a        	ldy	$4a                     ; 0x4a <skull_vertices+0x1a>
    1d1f: 84 16        	sty	$16                     ; 0x16 <__rc6>
    1d21: a4 4b        	ldy	$4b                     ; 0x4b <skull_vertices+0x1b>
    1d23: 85 14        	sta	$14                     ; 0x14 <__rc4>
    1d25: 86 15        	stx	$15                     ; 0x15 <__rc5>
    1d27: a6 2d        	ldx	$2d                     ; 0x2d <__rc29>
    1d29: 86 12        	stx	$12                     ; 0x12 <__rc2>
    1d2b: a6 2f        	ldx	$2f                     ; 0x2f <__rc31>
    1d2d: 86 13        	stx	$13                     ; 0x13 <__rc3>
    1d2f: 84 17        	sty	$17                     ; 0x17 <__rc7>
    1d31: a6 2b        	ldx	$2b                     ; 0x2b <__rc27>
    1d33: a5 2c        	lda	$2c                     ; 0x2c <__rc28>
    1d35: 20 ea 05     	jsr	$5ea <mathFloatMul>
    1d38: 85 24        	sta	$24                     ; 0x24 <__rc20>
    1d3a: 86 25        	stx	$25                     ; 0x25 <__rc21>
    1d3c: a6 12        	ldx	$12                     ; 0x12 <__rc2>
    1d3e: 86 26        	stx	$26                     ; 0x26 <__rc22>
    1d40: a6 13        	ldx	$13                     ; 0x13 <__rc3>
    1d42: 86 27        	stx	$27                     ; 0x27 <__rc23>
    1d44: a5 50        	lda	$50                     ; 0x50 <skull_vertices+0x20>
    1d46: a6 51        	ldx	$51                     ; 0x51 <skull_vertices+0x21>
    1d48: a4 52        	ldy	$52                     ; 0x52 <skull_vertices+0x22>
    1d4a: 84 16        	sty	$16                     ; 0x16 <__rc6>
    1d4c: a4 53        	ldy	$53                     ; 0x53 <skull_vertices+0x23>
    1d4e: 85 14        	sta	$14                     ; 0x14 <__rc4>
    1d50: 86 15        	stx	$15                     ; 0x15 <__rc5>
    1d52: a6 28        	ldx	$28                     ; 0x28 <__rc24>
    1d54: 86 12        	stx	$12                     ; 0x12 <__rc2>
    1d56: a6 2e        	ldx	$2e                     ; 0x2e <__rc30>
    1d58: 86 13        	stx	$13                     ; 0x13 <__rc3>
    1d5a: 84 17        	sty	$17                     ; 0x17 <__rc7>
    1d5c: a6 2a        	ldx	$2a                     ; 0x2a <__rc26>
    1d5e: a0 fe        	ldy	#$fe
    1d60: 84 2b        	sty	$2b                     ; 0x2b <__rc27>
    1d62: 98           	tya
    1d63: 20 ea 05     	jsr	$5ea <mathFloatMul>
    1d66: 85 14        	sta	$14                     ; 0x14 <__rc4>
    1d68: 86 15        	stx	$15                     ; 0x15 <__rc5>
    1d6a: a6 12        	ldx	$12                     ; 0x12 <__rc2>
    1d6c: a4 13        	ldy	$13                     ; 0x13 <__rc3>
    1d6e: a5 26        	lda	$26                     ; 0x26 <__rc22>
    1d70: 85 12        	sta	$12                     ; 0x12 <__rc2>
    1d72: a5 27        	lda	$27                     ; 0x27 <__rc23>
    1d74: 85 13        	sta	$13                     ; 0x13 <__rc3>
    1d76: 86 16        	stx	$16                     ; 0x16 <__rc6>
    1d78: 84 17        	sty	$17                     ; 0x17 <__rc7>
    1d7a: a6 25        	ldx	$25                     ; 0x25 <__rc21>
    1d7c: a5 24        	lda	$24                     ; 0x24 <__rc20>
    1d7e: 20 48 05     	jsr	$548 <mathFloatAdd>
    1d81: a4 29        	ldy	$29                     ; 0x29 <__rc25>
    1d83: 84 48        	sty	$48                     ; 0x48 <skull_vertices+0x18>
    1d85: 48           	pha
    1d86: a0 05        	ldy	#$5
    1d88: b1 10        	lda	($10),y                 ; 0x10 <__rc0>
    1d8a: 85 49        	sta	$49                     ; 0x49 <skull_vertices+0x19>
    1d8c: 88           	dey
    1d8d: b1 10        	lda	($10),y                 ; 0x10 <__rc0>
    1d8f: 85 4a        	sta	$4a                     ; 0x4a <skull_vertices+0x1a>
    1d91: 88           	dey
    1d92: b1 10        	lda	($10),y                 ; 0x10 <__rc0>
    1d94: a8           	tay
    1d95: 68           	pla
    1d96: 84 4b        	sty	$4b                     ; 0x4b <skull_vertices+0x1b>
    1d98: 85 50        	sta	$50                     ; 0x50 <skull_vertices+0x20>
    1d9a: 86 51        	stx	$51                     ; 0x51 <skull_vertices+0x21>
    1d9c: a6 12        	ldx	$12                     ; 0x12 <__rc2>
    1d9e: 86 52        	stx	$52                     ; 0x52 <skull_vertices+0x22>
    1da0: a6 13        	ldx	$13                     ; 0x13 <__rc3>
    1da2: 86 53        	stx	$53                     ; 0x53 <skull_vertices+0x23>
    1da4: a5 54        	lda	$54                     ; 0x54 <skull_vertices+0x24>
    1da6: a6 55        	ldx	$55                     ; 0x55 <skull_vertices+0x25>
    1da8: a4 56        	ldy	$56                     ; 0x56 <skull_vertices+0x26>
    1daa: 84 16        	sty	$16                     ; 0x16 <__rc6>
    1dac: a4 57        	ldy	$57                     ; 0x57 <skull_vertices+0x27>
    1dae: 85 14        	sta	$14                     ; 0x14 <__rc4>
    1db0: 86 15        	stx	$15                     ; 0x15 <__rc5>
    1db2: a6 28        	ldx	$28                     ; 0x28 <__rc24>
    1db4: 86 12        	stx	$12                     ; 0x12 <__rc2>
    1db6: a6 28        	ldx	$28                     ; 0x28 <__rc24>
    1db8: 86 29        	stx	$29                     ; 0x29 <__rc25>
    1dba: a6 2e        	ldx	$2e                     ; 0x2e <__rc30>
    1dbc: 86 13        	stx	$13                     ; 0x13 <__rc3>
    1dbe: 84 17        	sty	$17                     ; 0x17 <__rc7>
    1dc0: a6 2a        	ldx	$2a                     ; 0x2a <__rc26>
    1dc2: a5 2b        	lda	$2b                     ; 0x2b <__rc27>
    1dc4: 20 ea 05     	jsr	$5ea <mathFloatMul>
    1dc7: 85 24        	sta	$24                     ; 0x24 <__rc20>
    1dc9: 86 25        	stx	$25                     ; 0x25 <__rc21>
    1dcb: a6 12        	ldx	$12                     ; 0x12 <__rc2>
    1dcd: 86 26        	stx	$26                     ; 0x26 <__rc22>
    1dcf: a6 13        	ldx	$13                     ; 0x13 <__rc3>
    1dd1: 86 27        	stx	$27                     ; 0x27 <__rc23>
    1dd3: a5 5c        	lda	$5c                     ; 0x5c <skull_vertices+0x2c>
    1dd5: a6 5d        	ldx	$5d                     ; 0x5d <skull_vertices+0x2d>
    1dd7: a4 5e        	ldy	$5e                     ; 0x5e <skull_vertices+0x2e>
    1dd9: 84 16        	sty	$16                     ; 0x16 <__rc6>
    1ddb: a4 5f        	ldy	$5f                     ; 0x5f <skull_vertices+0x2f>
    1ddd: 85 14        	sta	$14                     ; 0x14 <__rc4>
    1ddf: 86 15        	stx	$15                     ; 0x15 <__rc5>
    1de1: a6 2d        	ldx	$2d                     ; 0x2d <__rc29>
    1de3: 86 12        	stx	$12                     ; 0x12 <__rc2>
    1de5: a6 2f        	ldx	$2f                     ; 0x2f <__rc31>
    1de7: 86 13        	stx	$13                     ; 0x13 <__rc3>
    1de9: 84 17        	sty	$17                     ; 0x17 <__rc7>
    1deb: a2 12        	ldx	#$12
    1ded: 86 2b        	stx	$2b                     ; 0x2b <__rc27>
    1def: a5 2c        	lda	$2c                     ; 0x2c <__rc28>
    1df1: 20 ea 05     	jsr	$5ea <mathFloatMul>
    1df4: 85 14        	sta	$14                     ; 0x14 <__rc4>
    1df6: 86 15        	stx	$15                     ; 0x15 <__rc5>
    1df8: a6 12        	ldx	$12                     ; 0x12 <__rc2>
    1dfa: a4 13        	ldy	$13                     ; 0x13 <__rc3>
    1dfc: a5 26        	lda	$26                     ; 0x26 <__rc22>
    1dfe: 85 12        	sta	$12                     ; 0x12 <__rc2>
    1e00: a5 27        	lda	$27                     ; 0x27 <__rc23>
    1e02: 85 13        	sta	$13                     ; 0x13 <__rc3>
    1e04: 86 16        	stx	$16                     ; 0x16 <__rc6>
    1e06: 84 17        	sty	$17                     ; 0x17 <__rc7>
    1e08: a6 25        	ldx	$25                     ; 0x25 <__rc21>
    1e0a: a5 24        	lda	$24                     ; 0x24 <__rc20>
    1e0c: 20 99 05     	jsr	$599 <mathFloatSub>
    1e0f: 85 28        	sta	$28                     ; 0x28 <__rc24>
    1e11: 8a           	txa
    1e12: a0 05        	ldy	#$5
    1e14: 91 10        	sta	($10),y                 ; 0x10 <__rc0>
    1e16: a5 12        	lda	$12                     ; 0x12 <__rc2>
    1e18: 88           	dey
    1e19: 91 10        	sta	($10),y                 ; 0x10 <__rc0>
    1e1b: a5 13        	lda	$13                     ; 0x13 <__rc3>
    1e1d: 88           	dey
    1e1e: 91 10        	sta	($10),y                 ; 0x10 <__rc0>
    1e20: a5 54        	lda	$54                     ; 0x54 <skull_vertices+0x24>
    1e22: a6 55        	ldx	$55                     ; 0x55 <skull_vertices+0x25>
    1e24: a4 56        	ldy	$56                     ; 0x56 <skull_vertices+0x26>
    1e26: 84 16        	sty	$16                     ; 0x16 <__rc6>
    1e28: a4 57        	ldy	$57                     ; 0x57 <skull_vertices+0x27>
    1e2a: 85 14        	sta	$14                     ; 0x14 <__rc4>
    1e2c: 86 15        	stx	$15                     ; 0x15 <__rc5>
    1e2e: a6 2d        	ldx	$2d                     ; 0x2d <__rc29>
    1e30: 86 12        	stx	$12                     ; 0x12 <__rc2>
    1e32: a6 2f        	ldx	$2f                     ; 0x2f <__rc31>
    1e34: 86 13        	stx	$13                     ; 0x13 <__rc3>
    1e36: 84 17        	sty	$17                     ; 0x17 <__rc7>
    1e38: a6 2b        	ldx	$2b                     ; 0x2b <__rc27>
    1e3a: a5 2c        	lda	$2c                     ; 0x2c <__rc28>
    1e3c: 20 ea 05     	jsr	$5ea <mathFloatMul>
    1e3f: 85 24        	sta	$24                     ; 0x24 <__rc20>
    1e41: 86 25        	stx	$25                     ; 0x25 <__rc21>
    1e43: a6 12        	ldx	$12                     ; 0x12 <__rc2>
    1e45: 86 26        	stx	$26                     ; 0x26 <__rc22>
    1e47: a6 13        	ldx	$13                     ; 0x13 <__rc3>
    1e49: 86 27        	stx	$27                     ; 0x27 <__rc23>
    1e4b: a5 5c        	lda	$5c                     ; 0x5c <skull_vertices+0x2c>
    1e4d: a6 5d        	ldx	$5d                     ; 0x5d <skull_vertices+0x2d>
    1e4f: a4 5e        	ldy	$5e                     ; 0x5e <skull_vertices+0x2e>
    1e51: 84 16        	sty	$16                     ; 0x16 <__rc6>
    1e53: a4 5f        	ldy	$5f                     ; 0x5f <skull_vertices+0x2f>
    1e55: 85 14        	sta	$14                     ; 0x14 <__rc4>
    1e57: 86 15        	stx	$15                     ; 0x15 <__rc5>
    1e59: a6 29        	ldx	$29                     ; 0x29 <__rc25>
    1e5b: 86 12        	stx	$12                     ; 0x12 <__rc2>
    1e5d: a6 2e        	ldx	$2e                     ; 0x2e <__rc30>
    1e5f: 86 13        	stx	$13                     ; 0x13 <__rc3>
    1e61: 84 17        	sty	$17                     ; 0x17 <__rc7>
    1e63: a6 2a        	ldx	$2a                     ; 0x2a <__rc26>
    1e65: a0 fe        	ldy	#$fe
    1e67: 84 2b        	sty	$2b                     ; 0x2b <__rc27>
    1e69: 98           	tya
    1e6a: 20 ea 05     	jsr	$5ea <mathFloatMul>
    1e6d: 85 14        	sta	$14                     ; 0x14 <__rc4>
    1e6f: 86 15        	stx	$15                     ; 0x15 <__rc5>
    1e71: a6 12        	ldx	$12                     ; 0x12 <__rc2>
    1e73: a4 13        	ldy	$13                     ; 0x13 <__rc3>
    1e75: a5 26        	lda	$26                     ; 0x26 <__rc22>
    1e77: 85 12        	sta	$12                     ; 0x12 <__rc2>
    1e79: a5 27        	lda	$27                     ; 0x27 <__rc23>
    1e7b: 85 13        	sta	$13                     ; 0x13 <__rc3>
    1e7d: 86 16        	stx	$16                     ; 0x16 <__rc6>
    1e7f: 84 17        	sty	$17                     ; 0x17 <__rc7>
    1e81: a6 25        	ldx	$25                     ; 0x25 <__rc21>
    1e83: a5 24        	lda	$24                     ; 0x24 <__rc20>
    1e85: 20 48 05     	jsr	$548 <mathFloatAdd>
    1e88: a4 28        	ldy	$28                     ; 0x28 <__rc24>
    1e8a: 84 54        	sty	$54                     ; 0x54 <skull_vertices+0x24>
    1e8c: 48           	pha
    1e8d: a0 05        	ldy	#$5
    1e8f: b1 10        	lda	($10),y                 ; 0x10 <__rc0>
    1e91: 85 55        	sta	$55                     ; 0x55 <skull_vertices+0x25>
    1e93: 88           	dey
    1e94: b1 10        	lda	($10),y                 ; 0x10 <__rc0>
    1e96: 85 56        	sta	$56                     ; 0x56 <skull_vertices+0x26>
    1e98: 88           	dey
    1e99: b1 10        	lda	($10),y                 ; 0x10 <__rc0>
    1e9b: a8           	tay
    1e9c: 68           	pla
    1e9d: 84 57        	sty	$57                     ; 0x57 <skull_vertices+0x27>
    1e9f: 85 5c        	sta	$5c                     ; 0x5c <skull_vertices+0x2c>
    1ea1: 86 5d        	stx	$5d                     ; 0x5d <skull_vertices+0x2d>
    1ea3: a6 12        	ldx	$12                     ; 0x12 <__rc2>
    1ea5: 86 5e        	stx	$5e                     ; 0x5e <skull_vertices+0x2e>
    1ea7: a6 13        	ldx	$13                     ; 0x13 <__rc3>
    1ea9: 86 5f        	stx	$5f                     ; 0x5f <skull_vertices+0x2f>
    1eab: a5 60        	lda	$60                     ; 0x60 <skull_vertices+0x30>
    1ead: a6 61        	ldx	$61                     ; 0x61 <skull_vertices+0x31>
    1eaf: a4 62        	ldy	$62                     ; 0x62 <skull_vertices+0x32>
    1eb1: 84 16        	sty	$16                     ; 0x16 <__rc6>
    1eb3: a4 63        	ldy	$63                     ; 0x63 <skull_vertices+0x33>
    1eb5: 85 14        	sta	$14                     ; 0x14 <__rc4>
    1eb7: 86 15        	stx	$15                     ; 0x15 <__rc5>
    1eb9: a6 29        	ldx	$29                     ; 0x29 <__rc25>
    1ebb: 86 12        	stx	$12                     ; 0x12 <__rc2>
    1ebd: a6 2e        	ldx	$2e                     ; 0x2e <__rc30>
    1ebf: 86 13        	stx	$13                     ; 0x13 <__rc3>
    1ec1: 84 17        	sty	$17                     ; 0x17 <__rc7>
    1ec3: a6 2a        	ldx	$2a                     ; 0x2a <__rc26>
    1ec5: a5 2b        	lda	$2b                     ; 0x2b <__rc27>
    1ec7: 20 ea 05     	jsr	$5ea <mathFloatMul>
    1eca: 85 24        	sta	$24                     ; 0x24 <__rc20>
    1ecc: 86 25        	stx	$25                     ; 0x25 <__rc21>
    1ece: a6 12        	ldx	$12                     ; 0x12 <__rc2>
    1ed0: 86 26        	stx	$26                     ; 0x26 <__rc22>
    1ed2: a6 13        	ldx	$13                     ; 0x13 <__rc3>
    1ed4: 86 27        	stx	$27                     ; 0x27 <__rc23>
    1ed6: a5 68        	lda	$68                     ; 0x68 <skull_vertices+0x38>
    1ed8: a6 69        	ldx	$69                     ; 0x69 <skull_vertices+0x39>
    1eda: a4 6a        	ldy	$6a                     ; 0x6a <skull_vertices+0x3a>
    1edc: 84 16        	sty	$16                     ; 0x16 <__rc6>
    1ede: a4 6b        	ldy	$6b                     ; 0x6b <skull_vertices+0x3b>
    1ee0: 85 14        	sta	$14                     ; 0x14 <__rc4>
    1ee2: 86 15        	stx	$15                     ; 0x15 <__rc5>
    1ee4: a6 2d        	ldx	$2d                     ; 0x2d <__rc29>
    1ee6: 86 12        	stx	$12                     ; 0x12 <__rc2>
    1ee8: a6 2f        	ldx	$2f                     ; 0x2f <__rc31>
    1eea: 86 13        	stx	$13                     ; 0x13 <__rc3>
    1eec: 84 17        	sty	$17                     ; 0x17 <__rc7>
    1eee: a2 12        	ldx	#$12
    1ef0: 86 2b        	stx	$2b                     ; 0x2b <__rc27>
    1ef2: a5 2c        	lda	$2c                     ; 0x2c <__rc28>
    1ef4: 20 ea 05     	jsr	$5ea <mathFloatMul>
    1ef7: 85 14        	sta	$14                     ; 0x14 <__rc4>
    1ef9: 86 15        	stx	$15                     ; 0x15 <__rc5>
    1efb: a6 12        	ldx	$12                     ; 0x12 <__rc2>
    1efd: a4 13        	ldy	$13                     ; 0x13 <__rc3>
    1eff: a5 26        	lda	$26                     ; 0x26 <__rc22>
    1f01: 85 12        	sta	$12                     ; 0x12 <__rc2>
    1f03: a5 27        	lda	$27                     ; 0x27 <__rc23>
    1f05: 85 13        	sta	$13                     ; 0x13 <__rc3>
    1f07: 86 16        	stx	$16                     ; 0x16 <__rc6>
    1f09: 84 17        	sty	$17                     ; 0x17 <__rc7>
    1f0b: a6 25        	ldx	$25                     ; 0x25 <__rc21>
    1f0d: a5 24        	lda	$24                     ; 0x24 <__rc20>
    1f0f: 20 99 05     	jsr	$599 <mathFloatSub>
    1f12: 85 28        	sta	$28                     ; 0x28 <__rc24>
    1f14: 86 29        	stx	$29                     ; 0x29 <__rc25>
    1f16: a6 12        	ldx	$12                     ; 0x12 <__rc2>
    1f18: 86 2a        	stx	$2a                     ; 0x2a <__rc26>
    1f1a: a5 13        	lda	$13                     ; 0x13 <__rc3>
    1f1c: a0 05        	ldy	#$5
    1f1e: 91 10        	sta	($10),y                 ; 0x10 <__rc0>
    1f20: a5 60        	lda	$60                     ; 0x60 <skull_vertices+0x30>
    1f22: a6 61        	ldx	$61                     ; 0x61 <skull_vertices+0x31>
    1f24: a4 62        	ldy	$62                     ; 0x62 <skull_vertices+0x32>
    1f26: 84 16        	sty	$16                     ; 0x16 <__rc6>
    1f28: a4 63        	ldy	$63                     ; 0x63 <skull_vertices+0x33>
    1f2a: 85 14        	sta	$14                     ; 0x14 <__rc4>
    1f2c: 86 15        	stx	$15                     ; 0x15 <__rc5>
    1f2e: a6 2d        	ldx	$2d                     ; 0x2d <__rc29>
    1f30: 86 12        	stx	$12                     ; 0x12 <__rc2>
    1f32: a6 2f        	ldx	$2f                     ; 0x2f <__rc31>
    1f34: 86 13        	stx	$13                     ; 0x13 <__rc3>
    1f36: 84 17        	sty	$17                     ; 0x17 <__rc7>
    1f38: a6 2b        	ldx	$2b                     ; 0x2b <__rc27>
    1f3a: a5 2c        	lda	$2c                     ; 0x2c <__rc28>
    1f3c: 20 ea 05     	jsr	$5ea <mathFloatMul>
    1f3f: 85 24        	sta	$24                     ; 0x24 <__rc20>
    1f41: 86 25        	stx	$25                     ; 0x25 <__rc21>
    1f43: a6 12        	ldx	$12                     ; 0x12 <__rc2>
    1f45: 86 26        	stx	$26                     ; 0x26 <__rc22>
    1f47: a6 13        	ldx	$13                     ; 0x13 <__rc3>
    1f49: 86 27        	stx	$27                     ; 0x27 <__rc23>
    1f4b: a5 68        	lda	$68                     ; 0x68 <skull_vertices+0x38>
    1f4d: a6 69        	ldx	$69                     ; 0x69 <skull_vertices+0x39>
    1f4f: a4 6a        	ldy	$6a                     ; 0x6a <skull_vertices+0x3a>
    1f51: 84 16        	sty	$16                     ; 0x16 <__rc6>
    1f53: a4 6b        	ldy	$6b                     ; 0x6b <skull_vertices+0x3b>
    1f55: 85 14        	sta	$14                     ; 0x14 <__rc4>
    1f57: 86 15        	stx	$15                     ; 0x15 <__rc5>
    1f59: a2 7e        	ldx	#$7e
    1f5b: 86 2f        	stx	$2f                     ; 0x2f <__rc31>
    1f5d: 86 12        	stx	$12                     ; 0x12 <__rc2>
    1f5f: a6 2e        	ldx	$2e                     ; 0x2e <__rc30>
    1f61: 86 13        	stx	$13                     ; 0x13 <__rc3>
    1f63: 84 17        	sty	$17                     ; 0x17 <__rc7>
    1f65: a2 98        	ldx	#$98
    1f67: 86 2b        	stx	$2b                     ; 0x2b <__rc27>
    1f69: a0 fe        	ldy	#$fe
    1f6b: 84 2c        	sty	$2c                     ; 0x2c <__rc28>
    1f6d: 98           	tya
    1f6e: 20 ea 05     	jsr	$5ea <mathFloatMul>
    1f71: 85 14        	sta	$14                     ; 0x14 <__rc4>
    1f73: 86 15        	stx	$15                     ; 0x15 <__rc5>
    1f75: a6 12        	ldx	$12                     ; 0x12 <__rc2>
    1f77: a4 13        	ldy	$13                     ; 0x13 <__rc3>
    1f79: a5 26        	lda	$26                     ; 0x26 <__rc22>
    1f7b: 85 12        	sta	$12                     ; 0x12 <__rc2>
    1f7d: a5 27        	lda	$27                     ; 0x27 <__rc23>
    1f7f: 85 13        	sta	$13                     ; 0x13 <__rc3>
    1f81: 86 16        	stx	$16                     ; 0x16 <__rc6>
    1f83: 84 17        	sty	$17                     ; 0x17 <__rc7>
    1f85: a6 25        	ldx	$25                     ; 0x25 <__rc21>
    1f87: a5 24        	lda	$24                     ; 0x24 <__rc20>
    1f89: 20 48 05     	jsr	$548 <mathFloatAdd>
    1f8c: a4 28        	ldy	$28                     ; 0x28 <__rc24>
    1f8e: 84 60        	sty	$60                     ; 0x60 <skull_vertices+0x30>
    1f90: a4 29        	ldy	$29                     ; 0x29 <__rc25>
    1f92: 84 61        	sty	$61                     ; 0x61 <skull_vertices+0x31>
    1f94: a4 2a        	ldy	$2a                     ; 0x2a <__rc26>
    1f96: 84 62        	sty	$62                     ; 0x62 <skull_vertices+0x32>
    1f98: 48           	pha
    1f99: a0 05        	ldy	#$5
    1f9b: b1 10        	lda	($10),y                 ; 0x10 <__rc0>
    1f9d: a8           	tay
    1f9e: 68           	pla
    1f9f: 84 63        	sty	$63                     ; 0x63 <skull_vertices+0x33>
    1fa1: 85 68        	sta	$68                     ; 0x68 <skull_vertices+0x38>
    1fa3: 86 69        	stx	$69                     ; 0x69 <skull_vertices+0x39>
    1fa5: a6 12        	ldx	$12                     ; 0x12 <__rc2>
    1fa7: 86 6a        	stx	$6a                     ; 0x6a <skull_vertices+0x3a>
    1fa9: a6 13        	ldx	$13                     ; 0x13 <__rc3>
    1fab: 86 6b        	stx	$6b                     ; 0x6b <skull_vertices+0x3b>
    1fad: a5 6c        	lda	$6c                     ; 0x6c <skull_vertices+0x3c>
    1faf: a6 6d        	ldx	$6d                     ; 0x6d <skull_vertices+0x3d>
    1fb1: a4 6e        	ldy	$6e                     ; 0x6e <skull_vertices+0x3e>
    1fb3: 84 16        	sty	$16                     ; 0x16 <__rc6>
    1fb5: a4 6f        	ldy	$6f                     ; 0x6f <skull_vertices+0x3f>
    1fb7: 85 14        	sta	$14                     ; 0x14 <__rc4>
    1fb9: 86 15        	stx	$15                     ; 0x15 <__rc5>
    1fbb: a6 2f        	ldx	$2f                     ; 0x2f <__rc31>
    1fbd: 86 12        	stx	$12                     ; 0x12 <__rc2>
    1fbf: a6 2e        	ldx	$2e                     ; 0x2e <__rc30>
    1fc1: 86 13        	stx	$13                     ; 0x13 <__rc3>
    1fc3: 84 17        	sty	$17                     ; 0x17 <__rc7>
    1fc5: a6 2b        	ldx	$2b                     ; 0x2b <__rc27>
    1fc7: 86 2a        	stx	$2a                     ; 0x2a <__rc26>
    1fc9: a6 2b        	ldx	$2b                     ; 0x2b <__rc27>
    1fcb: a5 2c        	lda	$2c                     ; 0x2c <__rc28>
    1fcd: 20 ea 05     	jsr	$5ea <mathFloatMul>
    1fd0: 85 24        	sta	$24                     ; 0x24 <__rc20>
    1fd2: 86 25        	stx	$25                     ; 0x25 <__rc21>
    1fd4: a6 12        	ldx	$12                     ; 0x12 <__rc2>
    1fd6: 86 26        	stx	$26                     ; 0x26 <__rc22>
    1fd8: a6 13        	ldx	$13                     ; 0x13 <__rc3>
    1fda: 86 27        	stx	$27                     ; 0x27 <__rc23>
    1fdc: a5 74        	lda	$74                     ; 0x74 <skull_vertices+0x44>
    1fde: a6 75        	ldx	$75                     ; 0x75 <skull_vertices+0x45>
    1fe0: a4 76        	ldy	$76                     ; 0x76 <skull_vertices+0x46>
    1fe2: 84 16        	sty	$16                     ; 0x16 <__rc6>
    1fe4: a4 77        	ldy	$77                     ; 0x77 <skull_vertices+0x47>
    1fe6: 85 14        	sta	$14                     ; 0x14 <__rc4>
    1fe8: 86 15        	stx	$15                     ; 0x15 <__rc5>
    1fea: a6 2d        	ldx	$2d                     ; 0x2d <__rc29>
    1fec: 86 2c        	stx	$2c                     ; 0x2c <__rc28>
    1fee: a6 2d        	ldx	$2d                     ; 0x2d <__rc29>
    1ff0: 86 12        	stx	$12                     ; 0x12 <__rc2>
    1ff2: a2 3d        	ldx	#$3d
    1ff4: 86 2d        	stx	$2d                     ; 0x2d <__rc29>
    1ff6: 86 13        	stx	$13                     ; 0x13 <__rc3>
    1ff8: 84 17        	sty	$17                     ; 0x17 <__rc7>
    1ffa: a2 12        	ldx	#$12
    1ffc: 86 28        	stx	$28                     ; 0x28 <__rc24>
    1ffe: a0 c7        	ldy	#$c7
    2000: 84 2b        	sty	$2b                     ; 0x2b <__rc27>
    2002: 98           	tya
    2003: 20 ea 05     	jsr	$5ea <mathFloatMul>
    2006: 85 14        	sta	$14                     ; 0x14 <__rc4>
    2008: 86 15        	stx	$15                     ; 0x15 <__rc5>
    200a: a6 12        	ldx	$12                     ; 0x12 <__rc2>
    200c: a4 13        	ldy	$13                     ; 0x13 <__rc3>
    200e: a5 26        	lda	$26                     ; 0x26 <__rc22>
    2010: 85 12        	sta	$12                     ; 0x12 <__rc2>
    2012: a5 27        	lda	$27                     ; 0x27 <__rc23>
    2014: 85 13        	sta	$13                     ; 0x13 <__rc3>
    2016: 86 16        	stx	$16                     ; 0x16 <__rc6>
    2018: 84 17        	sty	$17                     ; 0x17 <__rc7>
    201a: a6 25        	ldx	$25                     ; 0x25 <__rc21>
    201c: a5 24        	lda	$24                     ; 0x24 <__rc20>
    201e: 20 99 05     	jsr	$599 <mathFloatSub>
    2021: 85 2f        	sta	$2f                     ; 0x2f <__rc31>
    2023: 86 29        	stx	$29                     ; 0x29 <__rc25>
    2025: a5 12        	lda	$12                     ; 0x12 <__rc2>
    2027: a0 05        	ldy	#$5
    2029: 91 10        	sta	($10),y                 ; 0x10 <__rc0>
    202b: a5 13        	lda	$13                     ; 0x13 <__rc3>
    202d: 88           	dey
    202e: 91 10        	sta	($10),y                 ; 0x10 <__rc0>
    2030: a5 6c        	lda	$6c                     ; 0x6c <skull_vertices+0x3c>
    2032: a6 6d        	ldx	$6d                     ; 0x6d <skull_vertices+0x3d>
    2034: a4 6e        	ldy	$6e                     ; 0x6e <skull_vertices+0x3e>
    2036: 84 16        	sty	$16                     ; 0x16 <__rc6>
    2038: a4 6f        	ldy	$6f                     ; 0x6f <skull_vertices+0x3f>
    203a: 85 14        	sta	$14                     ; 0x14 <__rc4>
    203c: 86 15        	stx	$15                     ; 0x15 <__rc5>
    203e: a6 2c        	ldx	$2c                     ; 0x2c <__rc28>
    2040: 86 12        	stx	$12                     ; 0x12 <__rc2>
    2042: a6 2d        	ldx	$2d                     ; 0x2d <__rc29>
    2044: 86 13        	stx	$13                     ; 0x13 <__rc3>
    2046: 84 17        	sty	$17                     ; 0x17 <__rc7>
    2048: a6 28        	ldx	$28                     ; 0x28 <__rc24>
    204a: a5 2b        	lda	$2b                     ; 0x2b <__rc27>
    204c: 20 ea 05     	jsr	$5ea <mathFloatMul>
    204f: 85 24        	sta	$24                     ; 0x24 <__rc20>
    2051: 86 25        	stx	$25                     ; 0x25 <__rc21>
    2053: a6 12        	ldx	$12                     ; 0x12 <__rc2>
    2055: 86 26        	stx	$26                     ; 0x26 <__rc22>
    2057: a6 13        	ldx	$13                     ; 0x13 <__rc3>
    2059: 86 27        	stx	$27                     ; 0x27 <__rc23>
    205b: a5 74        	lda	$74                     ; 0x74 <skull_vertices+0x44>
    205d: a6 75        	ldx	$75                     ; 0x75 <skull_vertices+0x45>
    205f: a4 76        	ldy	$76                     ; 0x76 <skull_vertices+0x46>
    2061: 84 16        	sty	$16                     ; 0x16 <__rc6>
    2063: a4 77        	ldy	$77                     ; 0x77 <skull_vertices+0x47>
    2065: 85 14        	sta	$14                     ; 0x14 <__rc4>
    2067: 86 15        	stx	$15                     ; 0x15 <__rc5>
    2069: a2 7e        	ldx	#$7e
    206b: 86 28        	stx	$28                     ; 0x28 <__rc24>
    206d: 86 12        	stx	$12                     ; 0x12 <__rc2>
    206f: a6 2e        	ldx	$2e                     ; 0x2e <__rc30>
    2071: 86 13        	stx	$13                     ; 0x13 <__rc3>
    2073: 84 17        	sty	$17                     ; 0x17 <__rc7>
    2075: a6 2a        	ldx	$2a                     ; 0x2a <__rc26>
    2077: 86 2c        	stx	$2c                     ; 0x2c <__rc28>
    2079: a6 2a        	ldx	$2a                     ; 0x2a <__rc26>
    207b: a0 fe        	ldy	#$fe
    207d: 84 2b        	sty	$2b                     ; 0x2b <__rc27>
    207f: 98           	tya
    2080: 20 ea 05     	jsr	$5ea <mathFloatMul>
    2083: 85 14        	sta	$14                     ; 0x14 <__rc4>
    2085: 86 15        	stx	$15                     ; 0x15 <__rc5>
    2087: a6 12        	ldx	$12                     ; 0x12 <__rc2>
    2089: a4 13        	ldy	$13                     ; 0x13 <__rc3>
    208b: a5 26        	lda	$26                     ; 0x26 <__rc22>
    208d: 85 12        	sta	$12                     ; 0x12 <__rc2>
    208f: a5 27        	lda	$27                     ; 0x27 <__rc23>
    2091: 85 13        	sta	$13                     ; 0x13 <__rc3>
    2093: 86 16        	stx	$16                     ; 0x16 <__rc6>
    2095: 84 17        	sty	$17                     ; 0x17 <__rc7>
    2097: a6 25        	ldx	$25                     ; 0x25 <__rc21>
    2099: a5 24        	lda	$24                     ; 0x24 <__rc20>
    209b: 20 48 05     	jsr	$548 <mathFloatAdd>
    209e: a4 2f        	ldy	$2f                     ; 0x2f <__rc31>
    20a0: 84 6c        	sty	$6c                     ; 0x6c <skull_vertices+0x3c>
    20a2: a4 29        	ldy	$29                     ; 0x29 <__rc25>
    20a4: 84 6d        	sty	$6d                     ; 0x6d <skull_vertices+0x3d>
    20a6: 48           	pha
    20a7: a0 05        	ldy	#$5
    20a9: b1 10        	lda	($10),y                 ; 0x10 <__rc0>
    20ab: 85 6e        	sta	$6e                     ; 0x6e <skull_vertices+0x3e>
    20ad: 88           	dey
    20ae: b1 10        	lda	($10),y                 ; 0x10 <__rc0>
    20b0: a8           	tay
    20b1: 68           	pla
    20b2: 84 6f        	sty	$6f                     ; 0x6f <skull_vertices+0x3f>
    20b4: 85 74        	sta	$74                     ; 0x74 <skull_vertices+0x44>
    20b6: 86 75        	stx	$75                     ; 0x75 <skull_vertices+0x45>
    20b8: a6 12        	ldx	$12                     ; 0x12 <__rc2>
    20ba: 86 76        	stx	$76                     ; 0x76 <skull_vertices+0x46>
    20bc: a6 13        	ldx	$13                     ; 0x13 <__rc3>
    20be: 86 77        	stx	$77                     ; 0x77 <skull_vertices+0x47>
    20c0: a5 78        	lda	$78                     ; 0x78 <skull_vertices+0x48>
    20c2: a6 79        	ldx	$79                     ; 0x79 <skull_vertices+0x49>
    20c4: a4 7a        	ldy	$7a                     ; 0x7a <skull_vertices+0x4a>
    20c6: 84 16        	sty	$16                     ; 0x16 <__rc6>
    20c8: a4 7b        	ldy	$7b                     ; 0x7b <skull_vertices+0x4b>
    20ca: 85 14        	sta	$14                     ; 0x14 <__rc4>
    20cc: 86 15        	stx	$15                     ; 0x15 <__rc5>
    20ce: a6 28        	ldx	$28                     ; 0x28 <__rc24>
    20d0: 86 12        	stx	$12                     ; 0x12 <__rc2>
    20d2: a6 2e        	ldx	$2e                     ; 0x2e <__rc30>
    20d4: 86 13        	stx	$13                     ; 0x13 <__rc3>
    20d6: 84 17        	sty	$17                     ; 0x17 <__rc7>
    20d8: a6 2a        	ldx	$2a                     ; 0x2a <__rc26>
    20da: a5 2b        	lda	$2b                     ; 0x2b <__rc27>
    20dc: 20 ea 05     	jsr	$5ea <mathFloatMul>
    20df: 85 24        	sta	$24                     ; 0x24 <__rc20>
    20e1: 86 25        	stx	$25                     ; 0x25 <__rc21>
    20e3: a6 12        	ldx	$12                     ; 0x12 <__rc2>
    20e5: 86 26        	stx	$26                     ; 0x26 <__rc22>
    20e7: a6 13        	ldx	$13                     ; 0x13 <__rc3>
    20e9: 86 27        	stx	$27                     ; 0x27 <__rc23>
    20eb: a5 80        	lda	$80                     ; 0x80 <skull_vertices+0x50>
    20ed: a6 81        	ldx	$81                     ; 0x81 <skull_vertices+0x51>
    20ef: a4 82        	ldy	$82                     ; 0x82 <skull_vertices+0x52>
    20f1: 84 16        	sty	$16                     ; 0x16 <__rc6>
    20f3: a4 83        	ldy	$83                     ; 0x83 <skull_vertices+0x53>
    20f5: 85 14        	sta	$14                     ; 0x14 <__rc4>
    20f7: 86 15        	stx	$15                     ; 0x15 <__rc5>
    20f9: a2 d6        	ldx	#$d6
    20fb: 86 2d        	stx	$2d                     ; 0x2d <__rc29>
    20fd: 86 12        	stx	$12                     ; 0x12 <__rc2>
    20ff: a2 3d        	ldx	#$3d
    2101: 86 2f        	stx	$2f                     ; 0x2f <__rc31>
    2103: 86 13        	stx	$13                     ; 0x13 <__rc3>
    2105: 84 17        	sty	$17                     ; 0x17 <__rc7>
    2107: a2 12        	ldx	#$12
    2109: 86 2a        	stx	$2a                     ; 0x2a <__rc26>
    210b: a0 c7        	ldy	#$c7
    210d: 84 2b        	sty	$2b                     ; 0x2b <__rc27>
    210f: 98           	tya
    2110: 20 ea 05     	jsr	$5ea <mathFloatMul>
    2113: 85 14        	sta	$14                     ; 0x14 <__rc4>
    2115: 86 15        	stx	$15                     ; 0x15 <__rc5>
    2117: a6 12        	ldx	$12                     ; 0x12 <__rc2>
    2119: a4 13        	ldy	$13                     ; 0x13 <__rc3>
    211b: a5 26        	lda	$26                     ; 0x26 <__rc22>
    211d: 85 12        	sta	$12                     ; 0x12 <__rc2>
    211f: a5 27        	lda	$27                     ; 0x27 <__rc23>
    2121: 85 13        	sta	$13                     ; 0x13 <__rc3>
    2123: 86 16        	stx	$16                     ; 0x16 <__rc6>
    2125: 84 17        	sty	$17                     ; 0x17 <__rc7>
    2127: a6 25        	ldx	$25                     ; 0x25 <__rc21>
    2129: a5 24        	lda	$24                     ; 0x24 <__rc20>
    212b: 20 99 05     	jsr	$599 <mathFloatSub>
    212e: 85 29        	sta	$29                     ; 0x29 <__rc25>
    2130: 8a           	txa
    2131: a0 05        	ldy	#$5
    2133: 91 10        	sta	($10),y                 ; 0x10 <__rc0>
    2135: a5 12        	lda	$12                     ; 0x12 <__rc2>
    2137: 88           	dey
    2138: 91 10        	sta	($10),y                 ; 0x10 <__rc0>
    213a: a5 13        	lda	$13                     ; 0x13 <__rc3>
    213c: 88           	dey
    213d: 91 10        	sta	($10),y                 ; 0x10 <__rc0>
    213f: a5 78        	lda	$78                     ; 0x78 <skull_vertices+0x48>
    2141: a6 79        	ldx	$79                     ; 0x79 <skull_vertices+0x49>
    2143: a4 7a        	ldy	$7a                     ; 0x7a <skull_vertices+0x4a>
    2145: 84 16        	sty	$16                     ; 0x16 <__rc6>
    2147: a4 7b        	ldy	$7b                     ; 0x7b <skull_vertices+0x4b>
    2149: 85 14        	sta	$14                     ; 0x14 <__rc4>
    214b: 86 15        	stx	$15                     ; 0x15 <__rc5>
    214d: a6 2d        	ldx	$2d                     ; 0x2d <__rc29>
    214f: 86 12        	stx	$12                     ; 0x12 <__rc2>
    2151: a6 2f        	ldx	$2f                     ; 0x2f <__rc31>
    2153: 86 13        	stx	$13                     ; 0x13 <__rc3>
    2155: 84 17        	sty	$17                     ; 0x17 <__rc7>
    2157: a6 2a        	ldx	$2a                     ; 0x2a <__rc26>
    2159: a5 2b        	lda	$2b                     ; 0x2b <__rc27>
    215b: 20 ea 05     	jsr	$5ea <mathFloatMul>
    215e: 85 24        	sta	$24                     ; 0x24 <__rc20>
    2160: 86 25        	stx	$25                     ; 0x25 <__rc21>
    2162: a6 12        	ldx	$12                     ; 0x12 <__rc2>
    2164: 86 26        	stx	$26                     ; 0x26 <__rc22>
    2166: a6 13        	ldx	$13                     ; 0x13 <__rc3>
    2168: 86 27        	stx	$27                     ; 0x27 <__rc23>
    216a: a5 80        	lda	$80                     ; 0x80 <skull_vertices+0x50>
    216c: a6 81        	ldx	$81                     ; 0x81 <skull_vertices+0x51>
    216e: a4 82        	ldy	$82                     ; 0x82 <skull_vertices+0x52>
    2170: 84 16        	sty	$16                     ; 0x16 <__rc6>
    2172: a4 83        	ldy	$83                     ; 0x83 <skull_vertices+0x53>
    2174: 85 14        	sta	$14                     ; 0x14 <__rc4>
    2176: 86 15        	stx	$15                     ; 0x15 <__rc5>
    2178: a6 28        	ldx	$28                     ; 0x28 <__rc24>
    217a: 86 12        	stx	$12                     ; 0x12 <__rc2>
    217c: a6 2e        	ldx	$2e                     ; 0x2e <__rc30>
    217e: 86 13        	stx	$13                     ; 0x13 <__rc3>
    2180: 84 17        	sty	$17                     ; 0x17 <__rc7>
    2182: a6 2c        	ldx	$2c                     ; 0x2c <__rc28>
    2184: a0 fe        	ldy	#$fe
    2186: 84 2a        	sty	$2a                     ; 0x2a <__rc26>
    2188: 98           	tya
    2189: 20 ea 05     	jsr	$5ea <mathFloatMul>
    218c: 85 14        	sta	$14                     ; 0x14 <__rc4>
    218e: 86 15        	stx	$15                     ; 0x15 <__rc5>
    2190: a6 12        	ldx	$12                     ; 0x12 <__rc2>
    2192: a4 13        	ldy	$13                     ; 0x13 <__rc3>
    2194: a5 26        	lda	$26                     ; 0x26 <__rc22>
    2196: 85 12        	sta	$12                     ; 0x12 <__rc2>
    2198: a5 27        	lda	$27                     ; 0x27 <__rc23>
    219a: 85 13        	sta	$13                     ; 0x13 <__rc3>
    219c: 86 16        	stx	$16                     ; 0x16 <__rc6>
    219e: 84 17        	sty	$17                     ; 0x17 <__rc7>
    21a0: a6 25        	ldx	$25                     ; 0x25 <__rc21>
    21a2: a5 24        	lda	$24                     ; 0x24 <__rc20>
    21a4: 20 48 05     	jsr	$548 <mathFloatAdd>
    21a7: a4 29        	ldy	$29                     ; 0x29 <__rc25>
    21a9: 84 78        	sty	$78                     ; 0x78 <skull_vertices+0x48>
    21ab: 48           	pha
    21ac: a0 05        	ldy	#$5
    21ae: b1 10        	lda	($10),y                 ; 0x10 <__rc0>
    21b0: 85 79        	sta	$79                     ; 0x79 <skull_vertices+0x49>
    21b2: 88           	dey
    21b3: b1 10        	lda	($10),y                 ; 0x10 <__rc0>
    21b5: 85 7a        	sta	$7a                     ; 0x7a <skull_vertices+0x4a>
    21b7: 88           	dey
    21b8: b1 10        	lda	($10),y                 ; 0x10 <__rc0>
    21ba: a8           	tay
    21bb: 68           	pla
    21bc: 84 7b        	sty	$7b                     ; 0x7b <skull_vertices+0x4b>
    21be: 85 80        	sta	$80                     ; 0x80 <skull_vertices+0x50>
    21c0: 86 81        	stx	$81                     ; 0x81 <skull_vertices+0x51>
    21c2: a6 12        	ldx	$12                     ; 0x12 <__rc2>
    21c4: 86 82        	stx	$82                     ; 0x82 <skull_vertices+0x52>
    21c6: a6 13        	ldx	$13                     ; 0x13 <__rc3>
    21c8: 86 83        	stx	$83                     ; 0x83 <skull_vertices+0x53>
    21ca: a5 84        	lda	$84                     ; 0x84 <skull_vertices+0x54>
    21cc: a6 85        	ldx	$85                     ; 0x85 <skull_vertices+0x55>
    21ce: a4 86        	ldy	$86                     ; 0x86 <skull_vertices+0x56>
    21d0: 84 16        	sty	$16                     ; 0x16 <__rc6>
    21d2: a4 87        	ldy	$87                     ; 0x87 <skull_vertices+0x57>
    21d4: 85 14        	sta	$14                     ; 0x14 <__rc4>
    21d6: 86 15        	stx	$15                     ; 0x15 <__rc5>
    21d8: a6 28        	ldx	$28                     ; 0x28 <__rc24>
    21da: 86 12        	stx	$12                     ; 0x12 <__rc2>
    21dc: a6 2e        	ldx	$2e                     ; 0x2e <__rc30>
    21de: 86 13        	stx	$13                     ; 0x13 <__rc3>
    21e0: 84 17        	sty	$17                     ; 0x17 <__rc7>
    21e2: a6 2c        	ldx	$2c                     ; 0x2c <__rc28>
    21e4: a5 2a        	lda	$2a                     ; 0x2a <__rc26>
    21e6: 20 ea 05     	jsr	$5ea <mathFloatMul>
    21e9: 85 24        	sta	$24                     ; 0x24 <__rc20>
    21eb: 86 25        	stx	$25                     ; 0x25 <__rc21>
    21ed: a6 12        	ldx	$12                     ; 0x12 <__rc2>
    21ef: 86 26        	stx	$26                     ; 0x26 <__rc22>
    21f1: a6 13        	ldx	$13                     ; 0x13 <__rc3>
    21f3: 86 27        	stx	$27                     ; 0x27 <__rc23>
    21f5: a5 8c        	lda	$8c                     ; 0x8c <skull_vertices+0x5c>
    21f7: a6 8d        	ldx	$8d                     ; 0x8d <skull_vertices+0x5d>
    21f9: a4 8e        	ldy	$8e                     ; 0x8e <skull_vertices+0x5e>
    21fb: 84 16        	sty	$16                     ; 0x16 <__rc6>
    21fd: a4 8f        	ldy	$8f                     ; 0x8f <skull_vertices+0x5f>
    21ff: 85 14        	sta	$14                     ; 0x14 <__rc4>
    2201: 86 15        	stx	$15                     ; 0x15 <__rc5>
    2203: a6 2d        	ldx	$2d                     ; 0x2d <__rc29>
    2205: 86 12        	stx	$12                     ; 0x12 <__rc2>
    2207: a6 2f        	ldx	$2f                     ; 0x2f <__rc31>
    2209: 86 13        	stx	$13                     ; 0x13 <__rc3>
    220b: 84 17        	sty	$17                     ; 0x17 <__rc7>
    220d: a2 12        	ldx	#$12
    220f: 86 2a        	stx	$2a                     ; 0x2a <__rc26>
    2211: a5 2b        	lda	$2b                     ; 0x2b <__rc27>
    2213: 20 ea 05     	jsr	$5ea <mathFloatMul>
    2216: 85 14        	sta	$14                     ; 0x14 <__rc4>
    2218: 86 15        	stx	$15                     ; 0x15 <__rc5>
    221a: a6 12        	ldx	$12                     ; 0x12 <__rc2>
    221c: a4 13        	ldy	$13                     ; 0x13 <__rc3>
    221e: a5 26        	lda	$26                     ; 0x26 <__rc22>
    2220: 85 12        	sta	$12                     ; 0x12 <__rc2>
    2222: a5 27        	lda	$27                     ; 0x27 <__rc23>
    2224: 85 13        	sta	$13                     ; 0x13 <__rc3>
    2226: 86 16        	stx	$16                     ; 0x16 <__rc6>
    2228: 84 17        	sty	$17                     ; 0x17 <__rc7>
    222a: a6 25        	ldx	$25                     ; 0x25 <__rc21>
    222c: a5 24        	lda	$24                     ; 0x24 <__rc20>
    222e: 20 99 05     	jsr	$599 <mathFloatSub>
    2231: 85 2c        	sta	$2c                     ; 0x2c <__rc28>
    2233: 86 28        	stx	$28                     ; 0x28 <__rc24>
    2235: a6 12        	ldx	$12                     ; 0x12 <__rc2>
    2237: 86 29        	stx	$29                     ; 0x29 <__rc25>
    2239: a6 13        	ldx	$13                     ; 0x13 <__rc3>
    223b: 86 2e        	stx	$2e                     ; 0x2e <__rc30>
    223d: a5 84        	lda	$84                     ; 0x84 <skull_vertices+0x54>
    223f: a6 85        	ldx	$85                     ; 0x85 <skull_vertices+0x55>
    2241: a4 86        	ldy	$86                     ; 0x86 <skull_vertices+0x56>
    2243: 84 16        	sty	$16                     ; 0x16 <__rc6>
    2245: a4 87        	ldy	$87                     ; 0x87 <skull_vertices+0x57>
    2247: 85 14        	sta	$14                     ; 0x14 <__rc4>
    2249: 86 15        	stx	$15                     ; 0x15 <__rc5>
    224b: a6 2d        	ldx	$2d                     ; 0x2d <__rc29>
    224d: 86 12        	stx	$12                     ; 0x12 <__rc2>
    224f: a6 2f        	ldx	$2f                     ; 0x2f <__rc31>
    2251: 86 13        	stx	$13                     ; 0x13 <__rc3>
    2253: 84 17        	sty	$17                     ; 0x17 <__rc7>
    2255: a6 2a        	ldx	$2a                     ; 0x2a <__rc26>
    2257: a5 2b        	lda	$2b                     ; 0x2b <__rc27>
    2259: 20 ea 05     	jsr	$5ea <mathFloatMul>
    225c: 85 24        	sta	$24                     ; 0x24 <__rc20>
    225e: 86 25        	stx	$25                     ; 0x25 <__rc21>
    2260: a6 12        	ldx	$12                     ; 0x12 <__rc2>
    2262: 86 26        	stx	$26                     ; 0x26 <__rc22>
    2264: a6 13        	ldx	$13                     ; 0x13 <__rc3>
    2266: 86 27        	stx	$27                     ; 0x27 <__rc23>
    2268: a5 8c        	lda	$8c                     ; 0x8c <skull_vertices+0x5c>
    226a: a6 8d        	ldx	$8d                     ; 0x8d <skull_vertices+0x5d>
    226c: a4 8e        	ldy	$8e                     ; 0x8e <skull_vertices+0x5e>
    226e: 84 16        	sty	$16                     ; 0x16 <__rc6>
    2270: a4 8f        	ldy	$8f                     ; 0x8f <skull_vertices+0x5f>
    2272: 85 14        	sta	$14                     ; 0x14 <__rc4>
    2274: 86 15        	stx	$15                     ; 0x15 <__rc5>
    2276: a2 7e        	ldx	#$7e
    2278: 86 2b        	stx	$2b                     ; 0x2b <__rc27>
    227a: 86 12        	stx	$12                     ; 0x12 <__rc2>
    227c: a2 3f        	ldx	#$3f
    227e: 86 2f        	stx	$2f                     ; 0x2f <__rc31>
    2280: 86 13        	stx	$13                     ; 0x13 <__rc3>
    2282: 84 17        	sty	$17                     ; 0x17 <__rc7>
    2284: a2 98        	ldx	#$98
    2286: 86 2a        	stx	$2a                     ; 0x2a <__rc26>
    2288: a9 fe        	lda	#$fe
    228a: 20 ea 05     	jsr	$5ea <mathFloatMul>
    228d: 85 14        	sta	$14                     ; 0x14 <__rc4>
    228f: 86 15        	stx	$15                     ; 0x15 <__rc5>
    2291: a6 12        	ldx	$12                     ; 0x12 <__rc2>
    2293: a4 13        	ldy	$13                     ; 0x13 <__rc3>
    2295: a5 26        	lda	$26                     ; 0x26 <__rc22>
    2297: 85 12        	sta	$12                     ; 0x12 <__rc2>
    2299: a5 27        	lda	$27                     ; 0x27 <__rc23>
    229b: 85 13        	sta	$13                     ; 0x13 <__rc3>
    229d: 86 16        	stx	$16                     ; 0x16 <__rc6>
    229f: 84 17        	sty	$17                     ; 0x17 <__rc7>
    22a1: a6 25        	ldx	$25                     ; 0x25 <__rc21>
    22a3: a5 24        	lda	$24                     ; 0x24 <__rc20>
    22a5: 20 48 05     	jsr	$548 <mathFloatAdd>
    22a8: a4 2c        	ldy	$2c                     ; 0x2c <__rc28>
    22aa: 84 84        	sty	$84                     ; 0x84 <skull_vertices+0x54>
    22ac: a4 28        	ldy	$28                     ; 0x28 <__rc24>
    22ae: 84 85        	sty	$85                     ; 0x85 <skull_vertices+0x55>
    22b0: a4 29        	ldy	$29                     ; 0x29 <__rc25>
    22b2: 84 86        	sty	$86                     ; 0x86 <skull_vertices+0x56>
    22b4: a4 2e        	ldy	$2e                     ; 0x2e <__rc30>
    22b6: 84 87        	sty	$87                     ; 0x87 <skull_vertices+0x57>
    22b8: 85 8c        	sta	$8c                     ; 0x8c <skull_vertices+0x5c>
    22ba: 86 8d        	stx	$8d                     ; 0x8d <skull_vertices+0x5d>
    22bc: a6 12        	ldx	$12                     ; 0x12 <__rc2>
    22be: 86 8e        	stx	$8e                     ; 0x8e <skull_vertices+0x5e>
    22c0: a6 13        	ldx	$13                     ; 0x13 <__rc3>
    22c2: 86 8f        	stx	$8f                     ; 0x8f <skull_vertices+0x5f>
    22c4: a0 06        	ldy	#$6
    22c6: b1 10        	lda	($10),y                 ; 0x10 <__rc0>
    22c8: f0 1d        	beq	$22e7 <f256main+0x175f>
    22ca: a9 00        	lda	#$0
    22cc: 20 0b 34     	jsr	$340b <redraw>
    22cf: ae 1a d0     	ldx	$d01a                   ; 0xd01a <end_block9+0x8d88>
    22d2: ac 1b d0     	ldy	$d01b                   ; 0xd01b <end_block9+0x8d89>
    22d5: c0 01        	cpy	#$1
    22d7: d0 07        	bne	$22e0 <f256main+0x1758>
    22d9: e0 e2        	cpx	#$e2
    22db: 90 f2        	bcc	$22cf <f256main+0x1747>
    22dd: 4c 5b 1a     	jmp	$1a5b <f256main+0xed3>
    22e0: c0 01        	cpy	#$1
    22e2: 90 eb        	bcc	$22cf <f256main+0x1747>
    22e4: 4c 5b 1a     	jmp	$1a5b <f256main+0xed3>
    22e7: a9 04        	lda	#$4
    22e9: 20 0b 34     	jsr	$340b <redraw>
    22ec: ae 1a d0     	ldx	$d01a                   ; 0xd01a <end_block9+0x8d88>
    22ef: ac 1b d0     	ldy	$d01b                   ; 0xd01b <end_block9+0x8d89>
    22f2: c0 01        	cpy	#$1
    22f4: d0 06        	bne	$22fc <f256main+0x1774>
    22f6: e0 e2        	cpx	#$e2
    22f8: 90 f2        	bcc	$22ec <f256main+0x1764>
    22fa: 80 04        	bra	$2300 <f256main+0x1778>
    22fc: c0 01        	cpy	#$1
    22fe: 90 ec        	bcc	$22ec <f256main+0x1764>
    2300: a2 04        	ldx	#$4
    2302: 8a           	txa
    2303: a0 06        	ldy	#$6
    2305: 91 10        	sta	($10),y                 ; 0x10 <__rc0>
    2307: a2 01        	ldx	#$1
    2309: 4c 65 1a     	jmp	$1a65 <f256main+0xedd>
    230c: 84 1f        	sty	$1f                     ; 0x1f <__rc15>
    230e: a0 16        	ldy	#$16
    2310: b1 14        	lda	($14),y                 ; 0x14 <__rc4>
    2312: a0 10        	ldy	#$10
    2314: 91 14        	sta	($14),y                 ; 0x14 <__rc4>
    2316: 85 1b        	sta	$1b                     ; 0x1b <__rc11>
    2318: a5 1c        	lda	$1c                     ; 0x1c <__rc12>
    231a: a4 2d        	ldy	$2d                     ; 0x2d <__rc29>
    231c: 91 14        	sta	($14),y                 ; 0x14 <__rc4>
    231e: 85 2d        	sta	$2d                     ; 0x2d <__rc29>
    2320: 84 2e        	sty	$2e                     ; 0x2e <__rc30>
    2322: a5 1e        	lda	$1e                     ; 0x1e <__rc14>
    2324: a4 28        	ldy	$28                     ; 0x28 <__rc24>
    2326: 91 14        	sta	($14),y                 ; 0x14 <__rc4>
    2328: 85 1d        	sta	$1d                     ; 0x1d <__rc13>
    232a: a4 16        	ldy	$16                     ; 0x16 <__rc6>
    232c: 8a           	txa
    232d: 86 26        	stx	$26                     ; 0x26 <__rc22>
    232f: 91 14        	sta	($14),y                 ; 0x14 <__rc4>
    2331: a2 01        	ldx	#$1
    2333: 86 16        	stx	$16                     ; 0x16 <__rc6>
    2335: a4 17        	ldy	$17                     ; 0x17 <__rc7>
    2337: a5 1a        	lda	$1a                     ; 0x1a <__rc10>
    2339: 85 24        	sta	$24                     ; 0x24 <__rc20>
    233b: 91 12        	sta	($12),y                 ; 0x12 <__rc2>
    233d: a4 19        	ldy	$19                     ; 0x19 <__rc9>
    233f: a5 2c        	lda	$2c                     ; 0x2c <__rc28>
    2341: 85 18        	sta	$18                     ; 0x18 <__rc8>
    2343: 91 12        	sta	($12),y                 ; 0x12 <__rc2>
    2345: a4 1f        	ldy	$1f                     ; 0x1f <__rc15>
    2347: a5 22        	lda	$22                     ; 0x22 <__rc18>
    2349: 91 12        	sta	($12),y                 ; 0x12 <__rc2>
    234b: a5 2d        	lda	$2d                     ; 0x2d <__rc29>
    234d: a6 1b        	ldx	$1b                     ; 0x1b <__rc11>
    234f: 86 1c        	stx	$1c                     ; 0x1c <__rc12>
    2351: a6 2e        	ldx	$2e                     ; 0x2e <__rc30>
    2353: 86 2d        	stx	$2d                     ; 0x2d <__rc29>
    2355: 4c f6 18     	jmp	$18f6 <f256main+0xd6e>
    2358: a6 1c        	ldx	$1c                     ; 0x1c <__rc12>
    235a: e0 c0        	cpx	#$c0
    235c: b0 03        	bcs	$2361 <f256main+0x17d9>
    235e: 4c c6 25     	jmp	$25c6 <f256main+0x1a3e>
    2361: a6 1c        	ldx	$1c                     ; 0x1c <__rc12>
    2363: e0 e0        	cpx	#$e0
    2365: 90 03        	bcc	$236a <f256main+0x17e2>
    2367: 4c db 25     	jmp	$25db <f256main+0x1a53>
    236a: a4 16        	ldy	$16                     ; 0x16 <__rc6>
    236c: a6 18        	ldx	$18                     ; 0x18 <__rc8>
    236e: 86 1a        	stx	$1a                     ; 0x1a <__rc10>
    2370: a5 26        	lda	$26                     ; 0x26 <__rc22>
    2372: 1a           	inc
    2373: d0 0a        	bne	$237f <f256main+0x17f7>
    2375: e6 24        	inc	$24                     ; 0x24 <__rc20>
    2377: d0 06        	bne	$237f <f256main+0x17f7>
    2379: e6 1a        	inc	$1a                     ; 0x1a <__rc10>
    237b: d0 02        	bne	$237f <f256main+0x17f7>
    237d: e6 22        	inc	$22                     ; 0x22 <__rc18>
    237f: 48           	pha
    2380: 5a           	phy
    2381: a0 03        	ldy	#$3
    2383: b1 10        	lda	($10),y                 ; 0x10 <__rc0>
    2385: 85 16        	sta	$16                     ; 0x16 <__rc6>
    2387: c8           	iny
    2388: b1 10        	lda	($10),y                 ; 0x10 <__rc0>
    238a: 7a           	ply
    238b: 85 17        	sta	$17                     ; 0x17 <__rc7>
    238d: 68           	pla
    238e: 84 18        	sty	$18                     ; 0x18 <__rc8>
    2390: a0 04        	ldy	#$4
    2392: 91 14        	sta	($14),y                 ; 0x14 <__rc4>
    2394: a4 18        	ldy	$18                     ; 0x18 <__rc8>
    2396: a2 01        	ldx	#$1
    2398: 86 25        	stx	$25                     ; 0x25 <__rc21>
    239a: a5 24        	lda	$24                     ; 0x24 <__rc20>
    239c: 91 16        	sta	($16),y                 ; 0x16 <__rc6>
    239e: a0 02        	ldy	#$2
    23a0: a5 1a        	lda	$1a                     ; 0x1a <__rc10>
    23a2: 91 16        	sta	($16),y                 ; 0x16 <__rc6>
    23a4: c8           	iny
    23a5: a5 22        	lda	$22                     ; 0x22 <__rc18>
    23a7: 91 16        	sta	($16),y                 ; 0x16 <__rc6>
    23a9: a0 16        	ldy	#$16
    23ab: a5 1c        	lda	$1c                     ; 0x1c <__rc12>
    23ad: 91 14        	sta	($14),y                 ; 0x14 <__rc4>
    23af: 8a           	txa
    23b0: c8           	iny
    23b1: 4c 19 19     	jmp	$1919 <f256main+0xd91>
    23b4: a5 19        	lda	$19                     ; 0x19 <__rc9>
    23b6: 85 16        	sta	$16                     ; 0x16 <__rc6>
    23b8: a5 1a        	lda	$1a                     ; 0x1a <__rc10>
    23ba: 85 17        	sta	$17                     ; 0x17 <__rc7>
    23bc: 84 25        	sty	$25                     ; 0x25 <__rc21>
    23be: a0 04        	ldy	#$4
    23c0: b1 16        	lda	($16),y                 ; 0x16 <__rc6>
    23c2: 85 17        	sta	$17                     ; 0x17 <__rc7>
    23c4: a4 1c        	ldy	$1c                     ; 0x1c <__rc12>
    23c6: b2 14        	lda	($14)                   ; 0x14 <__rc4>
    23c8: 85 16        	sta	$16                     ; 0x16 <__rc6>
    23ca: a5 17        	lda	$17                     ; 0x17 <__rc7>
    23cc: c5 16        	cmp	$16                     ; 0x16 <__rc6>
    23ce: b0 03        	bcs	$23d3 <f256main+0x184b>
    23d0: 4c d8 13     	jmp	$13d8 <f256main+0x850>
    23d3: 4c 11 19     	jmp	$1911 <f256main+0xd89>
    23d6: a9 01        	lda	#$1
    23d8: 85 25        	sta	$25                     ; 0x25 <__rc21>
    23da: a5 17        	lda	$17                     ; 0x17 <__rc7>
    23dc: c5 16        	cmp	$16                     ; 0x16 <__rc6>
    23de: a4 1c        	ldy	$1c                     ; 0x1c <__rc12>
    23e0: b0 03        	bcs	$23e5 <f256main+0x185d>
    23e2: 4c d8 13     	jmp	$13d8 <f256main+0x850>
    23e5: 4c 11 19     	jmp	$1911 <f256main+0xd89>
    23e8: a0 01        	ldy	#$1
    23ea: a2 01        	ldx	#$1
    23ec: 86 25        	stx	$25                     ; 0x25 <__rc21>
    23ee: b1 14        	lda	($14),y                 ; 0x14 <__rc4>
    23f0: 85 12        	sta	$12                     ; 0x12 <__rc2>
    23f2: a5 13        	lda	$13                     ; 0x13 <__rc3>
    23f4: c5 12        	cmp	$12                     ; 0x12 <__rc2>
    23f6: f0 03        	beq	$23fb <f256main+0x1873>
    23f8: 4c d1 25     	jmp	$25d1 <f256main+0x1a49>
    23fb: b2 14        	lda	($14)                   ; 0x14 <__rc4>
    23fd: 85 12        	sta	$12                     ; 0x12 <__rc2>
    23ff: a5 13        	lda	$13                     ; 0x13 <__rc3>
    2401: a6 18        	ldx	$18                     ; 0x18 <__rc8>
    2403: e4 12        	cpx	$12                     ; 0x12 <__rc2>
    2405: 90 03        	bcc	$240a <f256main+0x1882>
    2407: 4c 63 19     	jmp	$1963 <f256main+0xddb>
    240a: 4c 7b 19     	jmp	$197b <f256main+0xdf3>
    240d: e4 12        	cpx	$12                     ; 0x12 <__rc2>
    240f: a5 13        	lda	$13                     ; 0x13 <__rc3>
    2411: 90 03        	bcc	$2416 <f256main+0x188e>
    2413: 4c 63 19     	jmp	$1963 <f256main+0xddb>
    2416: 4c 7b 19     	jmp	$197b <f256main+0xdf3>
    2419: 1a           	inc
    241a: f0 03        	beq	$241f <f256main+0x1897>
    241c: 4c c9 15     	jmp	$15c9 <f256main+0xa41>
    241f: e6 17        	inc	$17                     ; 0x17 <__rc7>
    2421: f0 03        	beq	$2426 <f256main+0x189e>
    2423: 4c c9 15     	jmp	$15c9 <f256main+0xa41>
    2426: e8           	inx
    2427: 4c c9 15     	jmp	$15c9 <f256main+0xa41>
    242a: e6 1f        	inc	$1f                     ; 0x1f <__rc15>
    242c: f0 03        	beq	$2431 <f256main+0x18a9>
    242e: 4c be 18     	jmp	$18be <f256main+0xd36>
    2431: e6 19        	inc	$19                     ; 0x19 <__rc9>
    2433: f0 03        	beq	$2438 <f256main+0x18b0>
    2435: 4c be 18     	jmp	$18be <f256main+0xd36>
    2438: e6 2e        	inc	$2e                     ; 0x2e <__rc30>
    243a: 4c be 18     	jmp	$18be <f256main+0xd36>
    243d: e6 db        	inc	$db                     ; 0xdb <theOne.7+0x1>
    243f: 4c 1b 19     	jmp	$191b <f256main+0xd93>
    2442: 1a           	inc
    2443: f0 03        	beq	$2448 <f256main+0x18c0>
    2445: 4c a1 19     	jmp	$19a1 <f256main+0xe19>
    2448: e6 1c        	inc	$1c                     ; 0x1c <__rc12>
    244a: f0 03        	beq	$244f <f256main+0x18c7>
    244c: 4c a1 19     	jmp	$19a1 <f256main+0xe19>
    244f: e6 1a        	inc	$1a                     ; 0x1a <__rc10>
    2451: 4c a1 19     	jmp	$19a1 <f256main+0xe19>
    2454: a2 01        	ldx	#$1
    2456: 86 16        	stx	$16                     ; 0x16 <__rc6>
    2458: 85 22        	sta	$22                     ; 0x22 <__rc18>
    245a: a5 1e        	lda	$1e                     ; 0x1e <__rc14>
    245c: 4c f6 18     	jmp	$18f6 <f256main+0xd6e>
    245f: aa           	tax
    2460: a9 ff        	lda	#$ff
    2462: a0 10        	ldy	#$10
    2464: 91 14        	sta	($14),y                 ; 0x14 <__rc4>
    2466: 8a           	txa
    2467: a4 2d        	ldy	$2d                     ; 0x2d <__rc29>
    2469: 91 14        	sta	($14),y                 ; 0x14 <__rc4>
    246b: a5 1d        	lda	$1d                     ; 0x1d <__rc13>
    246d: a4 28        	ldy	$28                     ; 0x28 <__rc24>
    246f: 91 14        	sta	($14),y                 ; 0x14 <__rc4>
    2471: e0 5a        	cpx	#$5a
    2473: a4 16        	ldy	$16                     ; 0x16 <__rc6>
    2475: 84 25        	sty	$25                     ; 0x25 <__rc21>
    2477: 90 03        	bcc	$247c <f256main+0x18f4>
    2479: 4c 1b 19     	jmp	$191b <f256main+0xd93>
    247c: 8a           	txa
    247d: 0a           	asl
    247e: aa           	tax
    247f: 7c 99 41     	jmp	($4199,x)               ; 0x4199 <__BLOCK_SIZE+0x2199>
    2482: 18           	clc
    2483: a5 1d        	lda	$1d                     ; 0x1d <__rc13>
    2485: 65 26        	adc	$26                     ; 0x26 <__rc22>
    2487: aa           	tax
    2488: a9 00        	lda	#$0
    248a: 65 24        	adc	$24                     ; 0x24 <__rc20>
    248c: a8           	tay
    248d: a9 00        	lda	#$0
    248f: 65 18        	adc	$18                     ; 0x18 <__rc8>
    2491: 85 18        	sta	$18                     ; 0x18 <__rc8>
    2493: a9 00        	lda	#$0
    2495: 65 22        	adc	$22                     ; 0x22 <__rc18>
    2497: 85 16        	sta	$16                     ; 0x16 <__rc6>
    2499: 18           	clc
    249a: 8a           	txa
    249b: 69 02        	adc	#$2
    249d: 85 1a        	sta	$1a                     ; 0x1a <__rc10>
    249f: 98           	tya
    24a0: 69 00        	adc	#$0
    24a2: 85 1b        	sta	$1b                     ; 0x1b <__rc11>
    24a4: a5 18        	lda	$18                     ; 0x18 <__rc8>
    24a6: 69 00        	adc	#$0
    24a8: 85 1d        	sta	$1d                     ; 0x1d <__rc13>
    24aa: a5 16        	lda	$16                     ; 0x16 <__rc6>
    24ac: 69 00        	adc	#$0
    24ae: 85 1c        	sta	$1c                     ; 0x1c <__rc12>
    24b0: a0 03        	ldy	#$3
    24b2: b1 10        	lda	($10),y                 ; 0x10 <__rc0>
    24b4: 85 16        	sta	$16                     ; 0x16 <__rc6>
    24b6: c8           	iny
    24b7: b1 10        	lda	($10),y                 ; 0x10 <__rc0>
    24b9: 85 17        	sta	$17                     ; 0x17 <__rc7>
    24bb: a5 1a        	lda	$1a                     ; 0x1a <__rc10>
    24bd: 91 14        	sta	($14),y                 ; 0x14 <__rc4>
    24bf: a4 25        	ldy	$25                     ; 0x25 <__rc21>
    24c1: a2 01        	ldx	#$1
    24c3: 86 25        	stx	$25                     ; 0x25 <__rc21>
    24c5: a5 1b        	lda	$1b                     ; 0x1b <__rc11>
    24c7: 91 16        	sta	($16),y                 ; 0x16 <__rc6>
    24c9: a0 02        	ldy	#$2
    24cb: a5 1d        	lda	$1d                     ; 0x1d <__rc13>
    24cd: 4c df 28     	jmp	$28df <f256main+0x1d57>
    24d0: 4a           	lsr
    24d1: aa           	tax
    24d2: a9 00        	lda	#$0
    24d4: 6a           	ror
    24d5: 29 80        	and	#$80
    24d7: 85 2c        	sta	$2c                     ; 0x2c <__rc28>
    24d9: 8a           	txa
    24da: 29 3f        	and	#$3f
    24dc: 85 2d        	sta	$2d                     ; 0x2d <__rc29>
    24de: a6 dc        	ldx	$dc                     ; 0xdc <theOne.8>
    24e0: 86 26        	stx	$26                     ; 0x26 <__rc22>
    24e2: a6 dd        	ldx	$dd                     ; 0xdd <theOne.8+0x1>
    24e4: 86 25        	stx	$25                     ; 0x25 <__rc21>
    24e6: a6 27        	ldx	$27                     ; 0x27 <__rc23>
    24e8: 86 12        	stx	$12                     ; 0x12 <__rc2>
    24ea: 64 13        	stz	$13                     ; 0x13 <__rc3>
    24ec: a2 00        	ldx	#$0
    24ee: a5 2a        	lda	$2a                     ; 0x2a <__rc26>
    24f0: 20 67 41     	jsr	$4167 <__mulhi3>
    24f3: a4 24        	ldy	$24                     ; 0x24 <__rc20>
    24f5: 85 12        	sta	$12                     ; 0x12 <__rc2>
    24f7: 86 13        	stx	$13                     ; 0x13 <__rc3>
    24f9: 18           	clc
    24fa: a5 26        	lda	$26                     ; 0x26 <__rc22>
    24fc: 65 12        	adc	$12                     ; 0x12 <__rc2>
    24fe: 85 16        	sta	$16                     ; 0x16 <__rc6>
    2500: a5 25        	lda	$25                     ; 0x25 <__rc21>
    2502: 65 13        	adc	$13                     ; 0x13 <__rc3>
    2504: aa           	tax
    2505: 5a           	phy
    2506: a4 16        	ldy	$16                     ; 0x16 <__rc6>
    2508: 84 12        	sty	$12                     ; 0x12 <__rc2>
    250a: 7a           	ply
    250b: 85 13        	sta	$13                     ; 0x13 <__rc3>
    250d: a5 16        	lda	$16                     ; 0x16 <__rc6>
    250f: 18           	clc
    2510: 69 08        	adc	#$8
    2512: 85 14        	sta	$14                     ; 0x14 <__rc4>
    2514: 8a           	txa
    2515: 69 00        	adc	#$0
    2517: 85 15        	sta	$15                     ; 0x15 <__rc5>
    2519: 18           	clc
    251a: a5 16        	lda	$16                     ; 0x16 <__rc6>
    251c: 69 04        	adc	#$4
    251e: 85 16        	sta	$16                     ; 0x16 <__rc6>
    2520: 8a           	txa
    2521: 69 00        	adc	#$0
    2523: 85 17        	sta	$17                     ; 0x17 <__rc7>
    2525: b1 12        	lda	($12),y                 ; 0x12 <__rc2>
    2527: 84 1c        	sty	$1c                     ; 0x1c <__rc12>
    2529: 85 18        	sta	$18                     ; 0x18 <__rc8>
    252b: a0 01        	ldy	#$1
    252d: b1 16        	lda	($16),y                 ; 0x16 <__rc6>
    252f: 85 19        	sta	$19                     ; 0x19 <__rc9>
    2531: 84 1a        	sty	$1a                     ; 0x1a <__rc10>
    2533: c8           	iny
    2534: b1 16        	lda	($16),y                 ; 0x16 <__rc6>
    2536: 85 22        	sta	$22                     ; 0x22 <__rc18>
    2538: 84 1b        	sty	$1b                     ; 0x1b <__rc11>
    253a: c8           	iny
    253b: b1 16        	lda	($16),y                 ; 0x16 <__rc6>
    253d: 85 1f        	sta	$1f                     ; 0x1f <__rc15>
    253f: 84 1d        	sty	$1d                     ; 0x1d <__rc13>
    2541: a5 18        	lda	$18                     ; 0x18 <__rc8>
    2543: a4 19        	ldy	$19                     ; 0x19 <__rc9>
    2545: a6 22        	ldx	$22                     ; 0x22 <__rc18>
    2547: 1a           	inc
    2548: d0 09        	bne	$2553 <f256main+0x19cb>
    254a: c8           	iny
    254b: d0 06        	bne	$2553 <f256main+0x19cb>
    254d: e6 22        	inc	$22                     ; 0x22 <__rc18>
    254f: d0 02        	bne	$2553 <f256main+0x19cb>
    2551: e6 1f        	inc	$1f                     ; 0x1f <__rc15>
    2553: 84 23        	sty	$23                     ; 0x23 <__rc19>
    2555: a4 1c        	ldy	$1c                     ; 0x1c <__rc12>
    2557: 91 12        	sta	($12),y                 ; 0x12 <__rc2>
    2559: a4 1a        	ldy	$1a                     ; 0x1a <__rc10>
    255b: a5 23        	lda	$23                     ; 0x23 <__rc19>
    255d: 91 16        	sta	($16),y                 ; 0x16 <__rc6>
    255f: a4 1b        	ldy	$1b                     ; 0x1b <__rc11>
    2561: a5 22        	lda	$22                     ; 0x22 <__rc18>
    2563: 91 16        	sta	($16),y                 ; 0x16 <__rc6>
    2565: a4 1d        	ldy	$1d                     ; 0x1d <__rc13>
    2567: a5 1f        	lda	$1f                     ; 0x1f <__rc15>
    2569: 91 16        	sta	($16),y                 ; 0x16 <__rc6>
    256b: 18           	clc
    256c: a0 08        	ldy	#$8
    256e: a5 18        	lda	$18                     ; 0x18 <__rc8>
    2570: 71 12        	adc	($12),y                 ; 0x12 <__rc2>
    2572: 85 16        	sta	$16                     ; 0x16 <__rc6>
    2574: a5 19        	lda	$19                     ; 0x19 <__rc9>
    2576: a4 1a        	ldy	$1a                     ; 0x1a <__rc10>
    2578: 71 14        	adc	($14),y                 ; 0x14 <__rc4>
    257a: 85 12        	sta	$12                     ; 0x12 <__rc2>
    257c: 8a           	txa
    257d: a4 1b        	ldy	$1b                     ; 0x1b <__rc11>
    257f: 71 14        	adc	($14),y                 ; 0x14 <__rc4>
    2581: 85 13        	sta	$13                     ; 0x13 <__rc3>
    2583: a5 12        	lda	$12                     ; 0x12 <__rc2>
    2585: 06 12        	asl	$12                     ; 0x12 <__rc2>
    2587: 26 13        	rol	$13                     ; 0x13 <__rc3>
    2589: 06 12        	asl	$12                     ; 0x12 <__rc2>
    258b: 26 13        	rol	$13                     ; 0x13 <__rc3>
    258d: 06 12        	asl	$12                     ; 0x12 <__rc2>
    258f: 26 13        	rol	$13                     ; 0x13 <__rc3>
    2591: a4 13        	ldy	$13                     ; 0x13 <__rc3>
    2593: a6 0f        	ldx	$f                      ; 0xf <__zp_bss_size>
    2595: 78           	sei
    2596: 84 0f        	sty	$f                      ; 0xf <__zp_bss_size>
    2598: a4 16        	ldy	$16                     ; 0x16 <__rc6>
    259a: 84 12        	sty	$12                     ; 0x12 <__rc2>
    259c: 09 e0        	ora	#$e0
    259e: 85 13        	sta	$13                     ; 0x13 <__rc3>
    25a0: b2 12        	lda	($12)                   ; 0x12 <__rc2>
    25a2: 86 0f        	stx	$f                      ; 0xf <__zp_bss_size>
    25a4: 58           	cli
    25a5: aa           	tax
    25a6: 10 03        	bpl	$25ab <f256main+0x1a23>
    25a8: 4c 30 26     	jmp	$2630 <f256main+0x1aa8>
    25ab: a2 19        	ldx	#$19
    25ad: 85 2f        	sta	$2f                     ; 0x2f <__rc31>
    25af: a5 2a        	lda	$2a                     ; 0x2a <__rc26>
    25b1: 86 27        	stx	$27                     ; 0x27 <__rc23>
    25b3: 64 2e        	stz	$2e                     ; 0x2e <__rc30>
    25b5: 64 26        	stz	$26                     ; 0x26 <__rc22>
    25b7: 64 24        	stz	$24                     ; 0x24 <__rc20>
    25b9: 64 12        	stz	$12                     ; 0x12 <__rc2>
    25bb: 64 25        	stz	$25                     ; 0x25 <__rc21>
    25bd: 64 13        	stz	$13                     ; 0x13 <__rc3>
    25bf: 64 14        	stz	$14                     ; 0x14 <__rc4>
    25c1: a2 00        	ldx	#$0
    25c3: 4c 6c 28     	jmp	$286c <f256main+0x1ce4>
    25c6: a2 01        	ldx	#$1
    25c8: 86 25        	stx	$25                     ; 0x25 <__rc21>
    25ca: a5 1c        	lda	$1c                     ; 0x1c <__rc12>
    25cc: 30 1a        	bmi	$25e8 <f256main+0x1a60>
    25ce: 4c 1b 19     	jmp	$191b <f256main+0xd93>
    25d1: c5 12        	cmp	$12                     ; 0x12 <__rc2>
    25d3: 90 03        	bcc	$25d8 <f256main+0x1a50>
    25d5: 4c 63 19     	jmp	$1963 <f256main+0xddb>
    25d8: 4c 7b 19     	jmp	$197b <f256main+0xdf3>
    25db: a2 01        	ldx	#$1
    25dd: 86 25        	stx	$25                     ; 0x25 <__rc21>
    25df: a6 1c        	ldx	$1c                     ; 0x1c <__rc12>
    25e1: e0 f0        	cpx	#$f0
    25e3: 90 03        	bcc	$25e8 <f256main+0x1a60>
    25e5: 4c 1b 19     	jmp	$191b <f256main+0xd93>
    25e8: a0 16        	ldy	#$16
    25ea: a5 1c        	lda	$1c                     ; 0x1c <__rc12>
    25ec: 91 14        	sta	($14),y                 ; 0x14 <__rc4>
    25ee: 18           	clc
    25ef: a5 26        	lda	$26                     ; 0x26 <__rc22>
    25f1: 69 02        	adc	#$2
    25f3: aa           	tax
    25f4: a5 24        	lda	$24                     ; 0x24 <__rc20>
    25f6: 69 00        	adc	#$0
    25f8: 85 1a        	sta	$1a                     ; 0x1a <__rc10>
    25fa: a5 18        	lda	$18                     ; 0x18 <__rc8>
    25fc: 69 00        	adc	#$0
    25fe: 85 1b        	sta	$1b                     ; 0x1b <__rc11>
    2600: a5 22        	lda	$22                     ; 0x22 <__rc18>
    2602: 69 00        	adc	#$0
    2604: 85 1c        	sta	$1c                     ; 0x1c <__rc12>
    2606: a0 03        	ldy	#$3
    2608: b1 10        	lda	($10),y                 ; 0x10 <__rc0>
    260a: 85 16        	sta	$16                     ; 0x16 <__rc6>
    260c: c8           	iny
    260d: b1 10        	lda	($10),y                 ; 0x10 <__rc0>
    260f: 85 17        	sta	$17                     ; 0x17 <__rc7>
    2611: 8a           	txa
    2612: 91 14        	sta	($14),y                 ; 0x14 <__rc4>
    2614: a4 25        	ldy	$25                     ; 0x25 <__rc21>
    2616: a2 01        	ldx	#$1
    2618: 86 25        	stx	$25                     ; 0x25 <__rc21>
    261a: a5 1a        	lda	$1a                     ; 0x1a <__rc10>
    261c: 91 16        	sta	($16),y                 ; 0x16 <__rc6>
    261e: a0 02        	ldy	#$2
    2620: a5 1b        	lda	$1b                     ; 0x1b <__rc11>
    2622: 91 16        	sta	($16),y                 ; 0x16 <__rc6>
    2624: c8           	iny
    2625: a5 1c        	lda	$1c                     ; 0x1c <__rc12>
    2627: 91 16        	sta	($16),y                 ; 0x16 <__rc6>
    2629: a0 17        	ldy	#$17
    262b: a9 00        	lda	#$0
    262d: 4c 19 19     	jmp	$1919 <f256main+0xd91>
    2630: a6 1c        	ldx	$1c                     ; 0x1c <__rc12>
    2632: 86 24        	stx	$24                     ; 0x24 <__rc20>
    2634: 4a           	lsr
    2635: aa           	tax
    2636: a9 00        	lda	#$0
    2638: 6a           	ror
    2639: a4 2d        	ldy	$2d                     ; 0x2d <__rc29>
    263b: 84 25        	sty	$25                     ; 0x25 <__rc21>
    263d: 46 25        	lsr	$25                     ; 0x25 <__rc21>
    263f: a4 2c        	ldy	$2c                     ; 0x2c <__rc28>
    2641: 84 2d        	sty	$2d                     ; 0x2d <__rc29>
    2643: 66 2d        	ror	$2d                     ; 0x2d <__rc29>
    2645: 64 2c        	stz	$2c                     ; 0x2c <__rc28>
    2647: 66 2c        	ror	$2c                     ; 0x2c <__rc28>
    2649: 64 13        	stz	$13                     ; 0x13 <__rc3>
    264b: 29 80        	and	#$80
    264d: 85 2f        	sta	$2f                     ; 0x2f <__rc31>
    264f: 8a           	txa
    2650: 29 3f        	and	#$3f
    2652: 85 26        	sta	$26                     ; 0x26 <__rc22>
    2654: a6 dc        	ldx	$dc                     ; 0xdc <theOne.8>
    2656: 86 28        	stx	$28                     ; 0x28 <__rc24>
    2658: a6 dd        	ldx	$dd                     ; 0xdd <theOne.8+0x1>
    265a: 86 2e        	stx	$2e                     ; 0x2e <__rc30>
    265c: a2 19        	ldx	#$19
    265e: 86 12        	stx	$12                     ; 0x12 <__rc2>
    2660: a2 00        	ldx	#$0
    2662: a5 2a        	lda	$2a                     ; 0x2a <__rc26>
    2664: a0 05        	ldy	#$5
    2666: 91 10        	sta	($10),y                 ; 0x10 <__rc0>
    2668: 20 67 41     	jsr	$4167 <__mulhi3>
    266b: a4 24        	ldy	$24                     ; 0x24 <__rc20>
    266d: 85 12        	sta	$12                     ; 0x12 <__rc2>
    266f: 86 13        	stx	$13                     ; 0x13 <__rc3>
    2671: 18           	clc
    2672: a5 28        	lda	$28                     ; 0x28 <__rc24>
    2674: 65 12        	adc	$12                     ; 0x12 <__rc2>
    2676: 85 16        	sta	$16                     ; 0x16 <__rc6>
    2678: a5 2e        	lda	$2e                     ; 0x2e <__rc30>
    267a: 65 13        	adc	$13                     ; 0x13 <__rc3>
    267c: aa           	tax
    267d: 5a           	phy
    267e: a4 16        	ldy	$16                     ; 0x16 <__rc6>
    2680: 84 12        	sty	$12                     ; 0x12 <__rc2>
    2682: 7a           	ply
    2683: 85 13        	sta	$13                     ; 0x13 <__rc3>
    2685: a5 16        	lda	$16                     ; 0x16 <__rc6>
    2687: 18           	clc
    2688: 69 08        	adc	#$8
    268a: 85 14        	sta	$14                     ; 0x14 <__rc4>
    268c: 8a           	txa
    268d: 69 00        	adc	#$0
    268f: 85 15        	sta	$15                     ; 0x15 <__rc5>
    2691: 18           	clc
    2692: a5 16        	lda	$16                     ; 0x16 <__rc6>
    2694: 69 04        	adc	#$4
    2696: 85 16        	sta	$16                     ; 0x16 <__rc6>
    2698: 8a           	txa
    2699: 69 00        	adc	#$0
    269b: 85 17        	sta	$17                     ; 0x17 <__rc7>
    269d: b1 12        	lda	($12),y                 ; 0x12 <__rc2>
    269f: 84 1c        	sty	$1c                     ; 0x1c <__rc12>
    26a1: 85 19        	sta	$19                     ; 0x19 <__rc9>
    26a3: a0 01        	ldy	#$1
    26a5: b1 16        	lda	($16),y                 ; 0x16 <__rc6>
    26a7: 85 18        	sta	$18                     ; 0x18 <__rc8>
    26a9: 84 1a        	sty	$1a                     ; 0x1a <__rc10>
    26ab: c8           	iny
    26ac: b1 16        	lda	($16),y                 ; 0x16 <__rc6>
    26ae: 85 1f        	sta	$1f                     ; 0x1f <__rc15>
    26b0: 84 1b        	sty	$1b                     ; 0x1b <__rc11>
    26b2: c8           	iny
    26b3: b1 16        	lda	($16),y                 ; 0x16 <__rc6>
    26b5: 84 1d        	sty	$1d                     ; 0x1d <__rc13>
    26b7: a6 19        	ldx	$19                     ; 0x19 <__rc9>
    26b9: 86 1e        	stx	$1e                     ; 0x1e <__rc14>
    26bb: a6 18        	ldx	$18                     ; 0x18 <__rc8>
    26bd: 86 22        	stx	$22                     ; 0x22 <__rc18>
    26bf: a6 1f        	ldx	$1f                     ; 0x1f <__rc15>
    26c1: 86 23        	stx	$23                     ; 0x23 <__rc19>
    26c3: a6 1f        	ldx	$1f                     ; 0x1f <__rc15>
    26c5: e6 1e        	inc	$1e                     ; 0x1e <__rc14>
    26c7: d0 09        	bne	$26d2 <f256main+0x1b4a>
    26c9: e6 22        	inc	$22                     ; 0x22 <__rc18>
    26cb: d0 05        	bne	$26d2 <f256main+0x1b4a>
    26cd: e6 23        	inc	$23                     ; 0x23 <__rc19>
    26cf: d0 01        	bne	$26d2 <f256main+0x1b4a>
    26d1: 1a           	inc
    26d2: 85 1f        	sta	$1f                     ; 0x1f <__rc15>
    26d4: a4 1c        	ldy	$1c                     ; 0x1c <__rc12>
    26d6: a5 1e        	lda	$1e                     ; 0x1e <__rc14>
    26d8: 91 12        	sta	($12),y                 ; 0x12 <__rc2>
    26da: a4 1a        	ldy	$1a                     ; 0x1a <__rc10>
    26dc: a5 22        	lda	$22                     ; 0x22 <__rc18>
    26de: 91 16        	sta	($16),y                 ; 0x16 <__rc6>
    26e0: a4 1b        	ldy	$1b                     ; 0x1b <__rc11>
    26e2: a5 23        	lda	$23                     ; 0x23 <__rc19>
    26e4: 91 16        	sta	($16),y                 ; 0x16 <__rc6>
    26e6: a4 1d        	ldy	$1d                     ; 0x1d <__rc13>
    26e8: a5 1f        	lda	$1f                     ; 0x1f <__rc15>
    26ea: 91 16        	sta	($16),y                 ; 0x16 <__rc6>
    26ec: 18           	clc
    26ed: a0 08        	ldy	#$8
    26ef: a5 19        	lda	$19                     ; 0x19 <__rc9>
    26f1: 71 12        	adc	($12),y                 ; 0x12 <__rc2>
    26f3: 85 16        	sta	$16                     ; 0x16 <__rc6>
    26f5: a5 18        	lda	$18                     ; 0x18 <__rc8>
    26f7: a4 1a        	ldy	$1a                     ; 0x1a <__rc10>
    26f9: 71 14        	adc	($14),y                 ; 0x14 <__rc4>
    26fb: 85 12        	sta	$12                     ; 0x12 <__rc2>
    26fd: 8a           	txa
    26fe: a4 1b        	ldy	$1b                     ; 0x1b <__rc11>
    2700: 71 14        	adc	($14),y                 ; 0x14 <__rc4>
    2702: 85 13        	sta	$13                     ; 0x13 <__rc3>
    2704: a5 12        	lda	$12                     ; 0x12 <__rc2>
    2706: 06 12        	asl	$12                     ; 0x12 <__rc2>
    2708: 26 13        	rol	$13                     ; 0x13 <__rc3>
    270a: 06 12        	asl	$12                     ; 0x12 <__rc2>
    270c: 26 13        	rol	$13                     ; 0x13 <__rc3>
    270e: 06 12        	asl	$12                     ; 0x12 <__rc2>
    2710: 26 13        	rol	$13                     ; 0x13 <__rc3>
    2712: a4 13        	ldy	$13                     ; 0x13 <__rc3>
    2714: a6 0f        	ldx	$f                      ; 0xf <__zp_bss_size>
    2716: 78           	sei
    2717: 84 0f        	sty	$f                      ; 0xf <__zp_bss_size>
    2719: a4 16        	ldy	$16                     ; 0x16 <__rc6>
    271b: 84 12        	sty	$12                     ; 0x12 <__rc2>
    271d: 09 e0        	ora	#$e0
    271f: 85 13        	sta	$13                     ; 0x13 <__rc3>
    2721: b2 12        	lda	($12)                   ; 0x12 <__rc2>
    2723: 86 0f        	stx	$f                      ; 0xf <__zp_bss_size>
    2725: 58           	cli
    2726: aa           	tax
    2727: 30 19        	bmi	$2742 <f256main+0x1bba>
    2729: a2 19        	ldx	#$19
    272b: 86 27        	stx	$27                     ; 0x27 <__rc23>
    272d: 64 24        	stz	$24                     ; 0x24 <__rc20>
    272f: 85 12        	sta	$12                     ; 0x12 <__rc2>
    2731: 64 13        	stz	$13                     ; 0x13 <__rc3>
    2733: 64 2e        	stz	$2e                     ; 0x2e <__rc30>
    2735: 64 14        	stz	$14                     ; 0x14 <__rc4>
    2737: 4c 66 28     	jmp	$2866 <f256main+0x1cde>
    273a: 18           	clc
    273b: a5 26        	lda	$26                     ; 0x26 <__rc22>
    273d: 69 03        	adc	#$3
    273f: 4c b0 28     	jmp	$28b0 <f256main+0x1d28>
    2742: 4a           	lsr
    2743: 64 12        	stz	$12                     ; 0x12 <__rc2>
    2745: 66 12        	ror	$12                     ; 0x12 <__rc2>
    2747: 46 26        	lsr	$26                     ; 0x26 <__rc22>
    2749: 48           	pha
    274a: a5 26        	lda	$26                     ; 0x26 <__rc22>
    274c: a0 02        	ldy	#$2
    274e: 91 10        	sta	($10),y                 ; 0x10 <__rc0>
    2750: 68           	pla
    2751: a8           	tay
    2752: a6 2f        	ldx	$2f                     ; 0x2f <__rc31>
    2754: 86 26        	stx	$26                     ; 0x26 <__rc22>
    2756: 66 26        	ror	$26                     ; 0x26 <__rc22>
    2758: 64 2f        	stz	$2f                     ; 0x2f <__rc31>
    275a: 66 2f        	ror	$2f                     ; 0x2f <__rc31>
    275c: a2 19        	ldx	#$19
    275e: 46 25        	lsr	$25                     ; 0x25 <__rc21>
    2760: a5 25        	lda	$25                     ; 0x25 <__rc21>
    2762: 85 2e        	sta	$2e                     ; 0x2e <__rc30>
    2764: 66 2d        	ror	$2d                     ; 0x2d <__rc29>
    2766: a5 2d        	lda	$2d                     ; 0x2d <__rc29>
    2768: 85 25        	sta	$25                     ; 0x25 <__rc21>
    276a: 66 2c        	ror	$2c                     ; 0x2c <__rc28>
    276c: a5 2c        	lda	$2c                     ; 0x2c <__rc28>
    276e: 85 2d        	sta	$2d                     ; 0x2d <__rc29>
    2770: 64 2c        	stz	$2c                     ; 0x2c <__rc28>
    2772: 66 2c        	ror	$2c                     ; 0x2c <__rc28>
    2774: a5 12        	lda	$12                     ; 0x12 <__rc2>
    2776: 29 80        	and	#$80
    2778: 5a           	phy
    2779: a0 04        	ldy	#$4
    277b: 91 10        	sta	($10),y                 ; 0x10 <__rc0>
    277d: 7a           	ply
    277e: 98           	tya
    277f: 29 3f        	and	#$3f
    2781: a0 03        	ldy	#$3
    2783: 91 10        	sta	($10),y                 ; 0x10 <__rc0>
    2785: a4 dc        	ldy	$dc                     ; 0xdc <theOne.8>
    2787: 84 28        	sty	$28                     ; 0x28 <__rc24>
    2789: a4 dd        	ldy	$dd                     ; 0xdd <theOne.8+0x1>
    278b: 84 24        	sty	$24                     ; 0x24 <__rc20>
    278d: 86 27        	stx	$27                     ; 0x27 <__rc23>
    278f: 86 12        	stx	$12                     ; 0x12 <__rc2>
    2791: 64 13        	stz	$13                     ; 0x13 <__rc3>
    2793: a2 00        	ldx	#$0
    2795: a0 05        	ldy	#$5
    2797: b1 10        	lda	($10),y                 ; 0x10 <__rc0>
    2799: 20 67 41     	jsr	$4167 <__mulhi3>
    279c: 85 12        	sta	$12                     ; 0x12 <__rc2>
    279e: 86 13        	stx	$13                     ; 0x13 <__rc3>
    27a0: 18           	clc
    27a1: a5 28        	lda	$28                     ; 0x28 <__rc24>
    27a3: 65 12        	adc	$12                     ; 0x12 <__rc2>
    27a5: a8           	tay
    27a6: a5 24        	lda	$24                     ; 0x24 <__rc20>
    27a8: 65 13        	adc	$13                     ; 0x13 <__rc3>
    27aa: aa           	tax
    27ab: 18           	clc
    27ac: 98           	tya
    27ad: 69 08        	adc	#$8
    27af: 85 12        	sta	$12                     ; 0x12 <__rc2>
    27b1: 8a           	txa
    27b2: 69 00        	adc	#$0
    27b4: 84 14        	sty	$14                     ; 0x14 <__rc4>
    27b6: 86 15        	stx	$15                     ; 0x15 <__rc5>
    27b8: 85 13        	sta	$13                     ; 0x13 <__rc3>
    27ba: 18           	clc
    27bb: 98           	tya
    27bc: 69 04        	adc	#$4
    27be: 85 16        	sta	$16                     ; 0x16 <__rc6>
    27c0: 8a           	txa
    27c1: 69 00        	adc	#$0
    27c3: 85 17        	sta	$17                     ; 0x17 <__rc7>
    27c5: a0 04        	ldy	#$4
    27c7: 84 19        	sty	$19                     ; 0x19 <__rc9>
    27c9: b1 14        	lda	($14),y                 ; 0x14 <__rc4>
    27cb: 85 18        	sta	$18                     ; 0x18 <__rc8>
    27cd: a0 01        	ldy	#$1
    27cf: b1 16        	lda	($16),y                 ; 0x16 <__rc6>
    27d1: 85 1b        	sta	$1b                     ; 0x1b <__rc11>
    27d3: 84 1c        	sty	$1c                     ; 0x1c <__rc12>
    27d5: c8           	iny
    27d6: b1 16        	lda	($16),y                 ; 0x16 <__rc6>
    27d8: 85 23        	sta	$23                     ; 0x23 <__rc19>
    27da: 84 1a        	sty	$1a                     ; 0x1a <__rc10>
    27dc: c8           	iny
    27dd: b1 16        	lda	($16),y                 ; 0x16 <__rc6>
    27df: 84 1d        	sty	$1d                     ; 0x1d <__rc13>
    27e1: a6 18        	ldx	$18                     ; 0x18 <__rc8>
    27e3: 86 1e        	stx	$1e                     ; 0x1e <__rc14>
    27e5: a6 1b        	ldx	$1b                     ; 0x1b <__rc11>
    27e7: 86 1f        	stx	$1f                     ; 0x1f <__rc15>
    27e9: a6 23        	ldx	$23                     ; 0x23 <__rc19>
    27eb: 86 22        	stx	$22                     ; 0x22 <__rc18>
    27ed: a6 23        	ldx	$23                     ; 0x23 <__rc19>
    27ef: e6 1e        	inc	$1e                     ; 0x1e <__rc14>
    27f1: d0 09        	bne	$27fc <f256main+0x1c74>
    27f3: e6 1f        	inc	$1f                     ; 0x1f <__rc15>
    27f5: d0 05        	bne	$27fc <f256main+0x1c74>
    27f7: e6 22        	inc	$22                     ; 0x22 <__rc18>
    27f9: d0 01        	bne	$27fc <f256main+0x1c74>
    27fb: 1a           	inc
    27fc: 85 23        	sta	$23                     ; 0x23 <__rc19>
    27fe: a4 19        	ldy	$19                     ; 0x19 <__rc9>
    2800: a5 1e        	lda	$1e                     ; 0x1e <__rc14>
    2802: 91 14        	sta	($14),y                 ; 0x14 <__rc4>
    2804: a4 1c        	ldy	$1c                     ; 0x1c <__rc12>
    2806: a5 1f        	lda	$1f                     ; 0x1f <__rc15>
    2808: 91 16        	sta	($16),y                 ; 0x16 <__rc6>
    280a: a4 1a        	ldy	$1a                     ; 0x1a <__rc10>
    280c: a5 22        	lda	$22                     ; 0x22 <__rc18>
    280e: 91 16        	sta	($16),y                 ; 0x16 <__rc6>
    2810: a4 1d        	ldy	$1d                     ; 0x1d <__rc13>
    2812: a5 23        	lda	$23                     ; 0x23 <__rc19>
    2814: 91 16        	sta	($16),y                 ; 0x16 <__rc6>
    2816: 18           	clc
    2817: a0 08        	ldy	#$8
    2819: a5 18        	lda	$18                     ; 0x18 <__rc8>
    281b: 71 14        	adc	($14),y                 ; 0x14 <__rc4>
    281d: 85 14        	sta	$14                     ; 0x14 <__rc4>
    281f: a5 1b        	lda	$1b                     ; 0x1b <__rc11>
    2821: a4 1c        	ldy	$1c                     ; 0x1c <__rc12>
    2823: 71 12        	adc	($12),y                 ; 0x12 <__rc2>
    2825: 85 15        	sta	$15                     ; 0x15 <__rc5>
    2827: 8a           	txa
    2828: a4 1a        	ldy	$1a                     ; 0x1a <__rc10>
    282a: 71 12        	adc	($12),y                 ; 0x12 <__rc2>
    282c: 85 13        	sta	$13                     ; 0x13 <__rc3>
    282e: a5 15        	lda	$15                     ; 0x15 <__rc5>
    2830: 85 12        	sta	$12                     ; 0x12 <__rc2>
    2832: 06 12        	asl	$12                     ; 0x12 <__rc2>
    2834: 26 13        	rol	$13                     ; 0x13 <__rc3>
    2836: 06 12        	asl	$12                     ; 0x12 <__rc2>
    2838: 26 13        	rol	$13                     ; 0x13 <__rc3>
    283a: 06 12        	asl	$12                     ; 0x12 <__rc2>
    283c: 26 13        	rol	$13                     ; 0x13 <__rc3>
    283e: a4 13        	ldy	$13                     ; 0x13 <__rc3>
    2840: a6 0f        	ldx	$f                      ; 0xf <__zp_bss_size>
    2842: 78           	sei
    2843: 84 0f        	sty	$f                      ; 0xf <__zp_bss_size>
    2845: a4 14        	ldy	$14                     ; 0x14 <__rc4>
    2847: 84 12        	sty	$12                     ; 0x12 <__rc2>
    2849: 09 e0        	ora	#$e0
    284b: 85 13        	sta	$13                     ; 0x13 <__rc3>
    284d: b2 12        	lda	($12)                   ; 0x12 <__rc2>
    284f: 86 0f        	stx	$f                      ; 0xf <__zp_bss_size>
    2851: 48           	pha
    2852: a0 04        	ldy	#$4
    2854: b1 10        	lda	($10),y                 ; 0x10 <__rc0>
    2856: 85 12        	sta	$12                     ; 0x12 <__rc2>
    2858: 88           	dey
    2859: b1 10        	lda	($10),y                 ; 0x10 <__rc0>
    285b: 85 13        	sta	$13                     ; 0x13 <__rc3>
    285d: 68           	pla
    285e: 85 14        	sta	$14                     ; 0x14 <__rc4>
    2860: 58           	cli
    2861: 88           	dey
    2862: b1 10        	lda	($10),y                 ; 0x10 <__rc0>
    2864: 85 24        	sta	$24                     ; 0x24 <__rc20>
    2866: a2 00        	ldx	#$0
    2868: a0 05        	ldy	#$5
    286a: b1 10        	lda	($10),y                 ; 0x10 <__rc0>
    286c: 85 18        	sta	$18                     ; 0x18 <__rc8>
    286e: 4c 69 14     	jmp	$1469 <f256main+0x8e1>
    2871: 18           	clc
    2872: a5 26        	lda	$26                     ; 0x26 <__rc22>
    2874: 69 07        	adc	#$7
    2876: 80 38        	bra	$28b0 <f256main+0x1d28>
    2878: a0 13        	ldy	#$13
    287a: 5a           	phy
    287b: a0 02        	ldy	#$2
    287d: b1 10        	lda	($10),y                 ; 0x10 <__rc0>
    287f: 7a           	ply
    2880: 91 14        	sta	($14),y                 ; 0x14 <__rc4>
    2882: a0 14        	ldy	#$14
    2884: 5a           	phy
    2885: a0 01        	ldy	#$1
    2887: b1 10        	lda	($10),y                 ; 0x10 <__rc0>
    2889: 7a           	ply
    288a: 91 14        	sta	($14),y                 ; 0x14 <__rc4>
    288c: a0 15        	ldy	#$15
    288e: 5a           	phy
    288f: a0 00        	ldy	#$0
    2891: b1 10        	lda	($10),y                 ; 0x10 <__rc0>
    2893: 7a           	ply
    2894: 91 14        	sta	($14),y                 ; 0x14 <__rc4>
    2896: 18           	clc
    2897: a5 26        	lda	$26                     ; 0x26 <__rc22>
    2899: 69 05        	adc	#$5
    289b: 80 13        	bra	$28b0 <f256main+0x1d28>
    289d: 18           	clc
    289e: a5 26        	lda	$26                     ; 0x26 <__rc22>
    28a0: 69 04        	adc	#$4
    28a2: 80 0c        	bra	$28b0 <f256main+0x1d28>
    28a4: 18           	clc
    28a5: a5 26        	lda	$26                     ; 0x26 <__rc22>
    28a7: 69 02        	adc	#$2
    28a9: 80 05        	bra	$28b0 <f256main+0x1d28>
    28ab: 18           	clc
    28ac: a5 26        	lda	$26                     ; 0x26 <__rc22>
    28ae: 69 06        	adc	#$6
    28b0: aa           	tax
    28b1: a5 24        	lda	$24                     ; 0x24 <__rc20>
    28b3: 69 00        	adc	#$0
    28b5: 85 1a        	sta	$1a                     ; 0x1a <__rc10>
    28b7: a5 18        	lda	$18                     ; 0x18 <__rc8>
    28b9: 69 00        	adc	#$0
    28bb: 85 1b        	sta	$1b                     ; 0x1b <__rc11>
    28bd: a5 22        	lda	$22                     ; 0x22 <__rc18>
    28bf: 69 00        	adc	#$0
    28c1: 85 1c        	sta	$1c                     ; 0x1c <__rc12>
    28c3: a0 03        	ldy	#$3
    28c5: b1 10        	lda	($10),y                 ; 0x10 <__rc0>
    28c7: 85 16        	sta	$16                     ; 0x16 <__rc6>
    28c9: c8           	iny
    28ca: b1 10        	lda	($10),y                 ; 0x10 <__rc0>
    28cc: 85 17        	sta	$17                     ; 0x17 <__rc7>
    28ce: 8a           	txa
    28cf: 91 14        	sta	($14),y                 ; 0x14 <__rc4>
    28d1: a4 25        	ldy	$25                     ; 0x25 <__rc21>
    28d3: a2 01        	ldx	#$1
    28d5: 86 25        	stx	$25                     ; 0x25 <__rc21>
    28d7: a5 1a        	lda	$1a                     ; 0x1a <__rc10>
    28d9: 91 16        	sta	($16),y                 ; 0x16 <__rc6>
    28db: a0 02        	ldy	#$2
    28dd: a5 1b        	lda	$1b                     ; 0x1b <__rc11>
    28df: 91 16        	sta	($16),y                 ; 0x16 <__rc6>
    28e1: a0 03        	ldy	#$3
    28e3: a5 1c        	lda	$1c                     ; 0x1c <__rc12>
    28e5: 91 16        	sta	($16),y                 ; 0x16 <__rc6>
    28e7: 4c 1b 19     	jmp	$191b <f256main+0xd93>

000028ea <bitmapClear>:
    28ea: a9 01        	lda	#$1
    28ec: 25 e0        	and	$e0                     ; 0xe0 <_active>
    28ee: 0a           	asl
    28ef: 0a           	asl
    28f0: aa           	tax
    28f1: bc 87 42     	ldy	$4287,x                 ; 0x4287 <_BITMAP_BASE+0x1>
    28f4: 84 12        	sty	$12                     ; 0x12 <__rc2>
    28f6: bd 88 42     	lda	$4288,x                 ; 0x4288 <_BITMAP_BASE+0x2>
    28f9: 06 12        	asl	$12                     ; 0x12 <__rc2>
    28fb: 2a           	rol
    28fc: 06 12        	asl	$12                     ; 0x12 <__rc2>
    28fe: 2a           	rol
    28ff: 06 12        	asl	$12                     ; 0x12 <__rc2>
    2901: 2a           	rol
    2902: a6 0f        	ldx	$f                      ; 0xf <__zp_bss_size>
    2904: 86 17        	stx	$17                     ; 0x17 <__rc7>
    2906: 78           	sei
    2907: 85 18        	sta	$18                     ; 0x18 <__rc8>
    2909: 85 0f        	sta	$f                      ; 0xf <__zp_bss_size>
    290b: a5 e1        	lda	$e1                     ; 0xe1 <_color>
    290d: 4a           	lsr
    290e: 64 14        	stz	$14                     ; 0x14 <__rc4>
    2910: 66 14        	ror	$14                     ; 0x14 <__rc4>
    2912: 10 04        	bpl	$2918 <bitmapClear+0x2e>
    2914: a9 ff        	lda	#$ff
    2916: 80 02        	bra	$291a <bitmapClear+0x30>
    2918: a9 00        	lda	#$0
    291a: a0 00        	ldy	#$0
    291c: 84 12        	sty	$12                     ; 0x12 <__rc2>
    291e: a0 e0        	ldy	#$e0
    2920: 84 13        	sty	$13                     ; 0x13 <__rc3>
    2922: 06 14        	asl	$14                     ; 0x14 <__rc4>
    2924: 2a           	rol
    2925: a2 20        	ldx	#$20
    2927: a0 00        	ldy	#$0
    2929: 48           	pha
    292a: 98           	tya
    292b: 85 14        	sta	$14                     ; 0x14 <__rc4>
    292d: a9 e0        	lda	#$e0
    292f: 85 15        	sta	$15                     ; 0x15 <__rc5>
    2931: 68           	pla
    2932: 86 16        	stx	$16                     ; 0x16 <__rc6>
    2934: 80 04        	bra	$293a <bitmapClear+0x50>
    2936: a6 16        	ldx	$16                     ; 0x16 <__rc6>
    2938: f0 17        	beq	$2951 <bitmapClear+0x67>
    293a: 92 14        	sta	($14)                   ; 0x14 <__rc4>
    293c: 88           	dey
    293d: c0 ff        	cpy	#$ff
    293f: f0 06        	beq	$2947 <bitmapClear+0x5d>
    2941: e6 14        	inc	$14                     ; 0x14 <__rc4>
    2943: d0 f1        	bne	$2936 <bitmapClear+0x4c>
    2945: 80 06        	bra	$294d <bitmapClear+0x63>
    2947: c6 16        	dec	$16                     ; 0x16 <__rc6>
    2949: e6 14        	inc	$14                     ; 0x14 <__rc4>
    294b: d0 e9        	bne	$2936 <bitmapClear+0x4c>
    294d: e6 15        	inc	$15                     ; 0x15 <__rc5>
    294f: 80 e5        	bra	$2936 <bitmapClear+0x4c>
    2951: c0 00        	cpy	#$0
    2953: d0 e5        	bne	$293a <bitmapClear+0x50>
    2955: a4 18        	ldy	$18                     ; 0x18 <__rc8>
    2957: c8           	iny
    2958: 84 0f        	sty	$f                      ; 0xf <__zp_bss_size>
    295a: a6 e1        	ldx	$e1                     ; 0xe1 <_color>
    295c: 86 14        	stx	$14                     ; 0x14 <__rc4>
    295e: a9 00        	lda	#$0
    2960: 46 14        	lsr	$14                     ; 0x14 <__rc4>
    2962: 64 14        	stz	$14                     ; 0x14 <__rc4>
    2964: 66 14        	ror	$14                     ; 0x14 <__rc4>
    2966: 10 02        	bpl	$296a <bitmapClear+0x80>
    2968: a9 ff        	lda	#$ff
    296a: 06 14        	asl	$14                     ; 0x14 <__rc4>
    296c: 2a           	rol
    296d: a2 20        	ldx	#$20
    296f: a0 00        	ldy	#$0
    2971: 48           	pha
    2972: 98           	tya
    2973: 85 14        	sta	$14                     ; 0x14 <__rc4>
    2975: a9 e0        	lda	#$e0
    2977: 85 15        	sta	$15                     ; 0x15 <__rc5>
    2979: 68           	pla
    297a: 86 16        	stx	$16                     ; 0x16 <__rc6>
    297c: 80 04        	bra	$2982 <bitmapClear+0x98>
    297e: a6 16        	ldx	$16                     ; 0x16 <__rc6>
    2980: f0 17        	beq	$2999 <bitmapClear+0xaf>
    2982: 92 14        	sta	($14)                   ; 0x14 <__rc4>
    2984: 88           	dey
    2985: c0 ff        	cpy	#$ff
    2987: f0 06        	beq	$298f <bitmapClear+0xa5>
    2989: e6 14        	inc	$14                     ; 0x14 <__rc4>
    298b: d0 f1        	bne	$297e <bitmapClear+0x94>
    298d: 80 06        	bra	$2995 <bitmapClear+0xab>
    298f: c6 16        	dec	$16                     ; 0x16 <__rc6>
    2991: e6 14        	inc	$14                     ; 0x14 <__rc4>
    2993: d0 e9        	bne	$297e <bitmapClear+0x94>
    2995: e6 15        	inc	$15                     ; 0x15 <__rc5>
    2997: 80 e5        	bra	$297e <bitmapClear+0x94>
    2999: c0 00        	cpy	#$0
    299b: d0 e5        	bne	$2982 <bitmapClear+0x98>
    299d: 18           	clc
    299e: a5 18        	lda	$18                     ; 0x18 <__rc8>
    29a0: 69 02        	adc	#$2
    29a2: 85 0f        	sta	$f                      ; 0xf <__zp_bss_size>
    29a4: a6 e1        	ldx	$e1                     ; 0xe1 <_color>
    29a6: 86 14        	stx	$14                     ; 0x14 <__rc4>
    29a8: a9 00        	lda	#$0
    29aa: 46 14        	lsr	$14                     ; 0x14 <__rc4>
    29ac: 64 14        	stz	$14                     ; 0x14 <__rc4>
    29ae: 66 14        	ror	$14                     ; 0x14 <__rc4>
    29b0: 10 02        	bpl	$29b4 <bitmapClear+0xca>
    29b2: a9 ff        	lda	#$ff
    29b4: 06 14        	asl	$14                     ; 0x14 <__rc4>
    29b6: 2a           	rol
    29b7: a2 20        	ldx	#$20
    29b9: a0 00        	ldy	#$0
    29bb: 48           	pha
    29bc: 98           	tya
    29bd: 85 14        	sta	$14                     ; 0x14 <__rc4>
    29bf: a9 e0        	lda	#$e0
    29c1: 85 15        	sta	$15                     ; 0x15 <__rc5>
    29c3: 68           	pla
    29c4: 86 16        	stx	$16                     ; 0x16 <__rc6>
    29c6: 80 04        	bra	$29cc <bitmapClear+0xe2>
    29c8: a6 16        	ldx	$16                     ; 0x16 <__rc6>
    29ca: f0 17        	beq	$29e3 <bitmapClear+0xf9>
    29cc: 92 14        	sta	($14)                   ; 0x14 <__rc4>
    29ce: 88           	dey
    29cf: c0 ff        	cpy	#$ff
    29d1: f0 06        	beq	$29d9 <bitmapClear+0xef>
    29d3: e6 14        	inc	$14                     ; 0x14 <__rc4>
    29d5: d0 f1        	bne	$29c8 <bitmapClear+0xde>
    29d7: 80 06        	bra	$29df <bitmapClear+0xf5>
    29d9: c6 16        	dec	$16                     ; 0x16 <__rc6>
    29db: e6 14        	inc	$14                     ; 0x14 <__rc4>
    29dd: d0 e9        	bne	$29c8 <bitmapClear+0xde>
    29df: e6 15        	inc	$15                     ; 0x15 <__rc5>
    29e1: 80 e5        	bra	$29c8 <bitmapClear+0xde>
    29e3: c0 00        	cpy	#$0
    29e5: d0 e5        	bne	$29cc <bitmapClear+0xe2>
    29e7: 18           	clc
    29e8: a5 18        	lda	$18                     ; 0x18 <__rc8>
    29ea: 69 03        	adc	#$3
    29ec: 85 0f        	sta	$f                      ; 0xf <__zp_bss_size>
    29ee: a6 e1        	ldx	$e1                     ; 0xe1 <_color>
    29f0: 86 14        	stx	$14                     ; 0x14 <__rc4>
    29f2: a9 00        	lda	#$0
    29f4: 46 14        	lsr	$14                     ; 0x14 <__rc4>
    29f6: 64 14        	stz	$14                     ; 0x14 <__rc4>
    29f8: 66 14        	ror	$14                     ; 0x14 <__rc4>
    29fa: 10 02        	bpl	$29fe <bitmapClear+0x114>
    29fc: a9 ff        	lda	#$ff
    29fe: 06 14        	asl	$14                     ; 0x14 <__rc4>
    2a00: 2a           	rol
    2a01: a2 20        	ldx	#$20
    2a03: a0 00        	ldy	#$0
    2a05: 48           	pha
    2a06: 98           	tya
    2a07: 85 14        	sta	$14                     ; 0x14 <__rc4>
    2a09: a9 e0        	lda	#$e0
    2a0b: 85 15        	sta	$15                     ; 0x15 <__rc5>
    2a0d: 68           	pla
    2a0e: 86 16        	stx	$16                     ; 0x16 <__rc6>
    2a10: 80 04        	bra	$2a16 <bitmapClear+0x12c>
    2a12: a6 16        	ldx	$16                     ; 0x16 <__rc6>
    2a14: f0 17        	beq	$2a2d <bitmapClear+0x143>
    2a16: 92 14        	sta	($14)                   ; 0x14 <__rc4>
    2a18: 88           	dey
    2a19: c0 ff        	cpy	#$ff
    2a1b: f0 06        	beq	$2a23 <bitmapClear+0x139>
    2a1d: e6 14        	inc	$14                     ; 0x14 <__rc4>
    2a1f: d0 f1        	bne	$2a12 <bitmapClear+0x128>
    2a21: 80 06        	bra	$2a29 <bitmapClear+0x13f>
    2a23: c6 16        	dec	$16                     ; 0x16 <__rc6>
    2a25: e6 14        	inc	$14                     ; 0x14 <__rc4>
    2a27: d0 e9        	bne	$2a12 <bitmapClear+0x128>
    2a29: e6 15        	inc	$15                     ; 0x15 <__rc5>
    2a2b: 80 e5        	bra	$2a12 <bitmapClear+0x128>
    2a2d: c0 00        	cpy	#$0
    2a2f: d0 e5        	bne	$2a16 <bitmapClear+0x12c>
    2a31: 18           	clc
    2a32: a5 18        	lda	$18                     ; 0x18 <__rc8>
    2a34: 69 04        	adc	#$4
    2a36: 85 0f        	sta	$f                      ; 0xf <__zp_bss_size>
    2a38: a6 e1        	ldx	$e1                     ; 0xe1 <_color>
    2a3a: 86 14        	stx	$14                     ; 0x14 <__rc4>
    2a3c: a9 00        	lda	#$0
    2a3e: 46 14        	lsr	$14                     ; 0x14 <__rc4>
    2a40: 64 14        	stz	$14                     ; 0x14 <__rc4>
    2a42: 66 14        	ror	$14                     ; 0x14 <__rc4>
    2a44: 10 02        	bpl	$2a48 <bitmapClear+0x15e>
    2a46: a9 ff        	lda	#$ff
    2a48: 06 14        	asl	$14                     ; 0x14 <__rc4>
    2a4a: 2a           	rol
    2a4b: a2 20        	ldx	#$20
    2a4d: a0 00        	ldy	#$0
    2a4f: 48           	pha
    2a50: 98           	tya
    2a51: 85 14        	sta	$14                     ; 0x14 <__rc4>
    2a53: a9 e0        	lda	#$e0
    2a55: 85 15        	sta	$15                     ; 0x15 <__rc5>
    2a57: 68           	pla
    2a58: 86 16        	stx	$16                     ; 0x16 <__rc6>
    2a5a: 80 04        	bra	$2a60 <bitmapClear+0x176>
    2a5c: a6 16        	ldx	$16                     ; 0x16 <__rc6>
    2a5e: f0 17        	beq	$2a77 <bitmapClear+0x18d>
    2a60: 92 14        	sta	($14)                   ; 0x14 <__rc4>
    2a62: 88           	dey
    2a63: c0 ff        	cpy	#$ff
    2a65: f0 06        	beq	$2a6d <bitmapClear+0x183>
    2a67: e6 14        	inc	$14                     ; 0x14 <__rc4>
    2a69: d0 f1        	bne	$2a5c <bitmapClear+0x172>
    2a6b: 80 06        	bra	$2a73 <bitmapClear+0x189>
    2a6d: c6 16        	dec	$16                     ; 0x16 <__rc6>
    2a6f: e6 14        	inc	$14                     ; 0x14 <__rc4>
    2a71: d0 e9        	bne	$2a5c <bitmapClear+0x172>
    2a73: e6 15        	inc	$15                     ; 0x15 <__rc5>
    2a75: 80 e5        	bra	$2a5c <bitmapClear+0x172>
    2a77: c0 00        	cpy	#$0
    2a79: d0 e5        	bne	$2a60 <bitmapClear+0x176>
    2a7b: 18           	clc
    2a7c: a5 18        	lda	$18                     ; 0x18 <__rc8>
    2a7e: 69 05        	adc	#$5
    2a80: 85 0f        	sta	$f                      ; 0xf <__zp_bss_size>
    2a82: a6 e1        	ldx	$e1                     ; 0xe1 <_color>
    2a84: 86 14        	stx	$14                     ; 0x14 <__rc4>
    2a86: a9 00        	lda	#$0
    2a88: 46 14        	lsr	$14                     ; 0x14 <__rc4>
    2a8a: 64 14        	stz	$14                     ; 0x14 <__rc4>
    2a8c: 66 14        	ror	$14                     ; 0x14 <__rc4>
    2a8e: 10 02        	bpl	$2a92 <bitmapClear+0x1a8>
    2a90: a9 ff        	lda	#$ff
    2a92: 06 14        	asl	$14                     ; 0x14 <__rc4>
    2a94: 2a           	rol
    2a95: a2 20        	ldx	#$20
    2a97: a0 00        	ldy	#$0
    2a99: 48           	pha
    2a9a: 98           	tya
    2a9b: 85 14        	sta	$14                     ; 0x14 <__rc4>
    2a9d: a9 e0        	lda	#$e0
    2a9f: 85 15        	sta	$15                     ; 0x15 <__rc5>
    2aa1: 68           	pla
    2aa2: 86 16        	stx	$16                     ; 0x16 <__rc6>
    2aa4: 80 04        	bra	$2aaa <bitmapClear+0x1c0>
    2aa6: a6 16        	ldx	$16                     ; 0x16 <__rc6>
    2aa8: f0 17        	beq	$2ac1 <bitmapClear+0x1d7>
    2aaa: 92 14        	sta	($14)                   ; 0x14 <__rc4>
    2aac: 88           	dey
    2aad: c0 ff        	cpy	#$ff
    2aaf: f0 06        	beq	$2ab7 <bitmapClear+0x1cd>
    2ab1: e6 14        	inc	$14                     ; 0x14 <__rc4>
    2ab3: d0 f1        	bne	$2aa6 <bitmapClear+0x1bc>
    2ab5: 80 06        	bra	$2abd <bitmapClear+0x1d3>
    2ab7: c6 16        	dec	$16                     ; 0x16 <__rc6>
    2ab9: e6 14        	inc	$14                     ; 0x14 <__rc4>
    2abb: d0 e9        	bne	$2aa6 <bitmapClear+0x1bc>
    2abd: e6 15        	inc	$15                     ; 0x15 <__rc5>
    2abf: 80 e5        	bra	$2aa6 <bitmapClear+0x1bc>
    2ac1: c0 00        	cpy	#$0
    2ac3: d0 e5        	bne	$2aaa <bitmapClear+0x1c0>
    2ac5: 18           	clc
    2ac6: a5 18        	lda	$18                     ; 0x18 <__rc8>
    2ac8: 69 06        	adc	#$6
    2aca: 85 0f        	sta	$f                      ; 0xf <__zp_bss_size>
    2acc: a6 e1        	ldx	$e1                     ; 0xe1 <_color>
    2ace: 86 14        	stx	$14                     ; 0x14 <__rc4>
    2ad0: a9 00        	lda	#$0
    2ad2: 46 14        	lsr	$14                     ; 0x14 <__rc4>
    2ad4: 64 14        	stz	$14                     ; 0x14 <__rc4>
    2ad6: 66 14        	ror	$14                     ; 0x14 <__rc4>
    2ad8: 10 02        	bpl	$2adc <bitmapClear+0x1f2>
    2ada: a9 ff        	lda	#$ff
    2adc: 06 14        	asl	$14                     ; 0x14 <__rc4>
    2ade: 2a           	rol
    2adf: a2 20        	ldx	#$20
    2ae1: a0 00        	ldy	#$0
    2ae3: 48           	pha
    2ae4: 98           	tya
    2ae5: 85 14        	sta	$14                     ; 0x14 <__rc4>
    2ae7: a9 e0        	lda	#$e0
    2ae9: 85 15        	sta	$15                     ; 0x15 <__rc5>
    2aeb: 68           	pla
    2aec: 86 16        	stx	$16                     ; 0x16 <__rc6>
    2aee: 80 04        	bra	$2af4 <bitmapClear+0x20a>
    2af0: a6 16        	ldx	$16                     ; 0x16 <__rc6>
    2af2: f0 17        	beq	$2b0b <bitmapClear+0x221>
    2af4: 92 14        	sta	($14)                   ; 0x14 <__rc4>
    2af6: 88           	dey
    2af7: c0 ff        	cpy	#$ff
    2af9: f0 06        	beq	$2b01 <bitmapClear+0x217>
    2afb: e6 14        	inc	$14                     ; 0x14 <__rc4>
    2afd: d0 f1        	bne	$2af0 <bitmapClear+0x206>
    2aff: 80 06        	bra	$2b07 <bitmapClear+0x21d>
    2b01: c6 16        	dec	$16                     ; 0x16 <__rc6>
    2b03: e6 14        	inc	$14                     ; 0x14 <__rc4>
    2b05: d0 e9        	bne	$2af0 <bitmapClear+0x206>
    2b07: e6 15        	inc	$15                     ; 0x15 <__rc5>
    2b09: 80 e5        	bra	$2af0 <bitmapClear+0x206>
    2b0b: c0 00        	cpy	#$0
    2b0d: d0 e5        	bne	$2af4 <bitmapClear+0x20a>
    2b0f: 18           	clc
    2b10: a5 18        	lda	$18                     ; 0x18 <__rc8>
    2b12: 69 07        	adc	#$7
    2b14: 85 0f        	sta	$f                      ; 0xf <__zp_bss_size>
    2b16: a6 e1        	ldx	$e1                     ; 0xe1 <_color>
    2b18: 86 14        	stx	$14                     ; 0x14 <__rc4>
    2b1a: a9 00        	lda	#$0
    2b1c: 46 14        	lsr	$14                     ; 0x14 <__rc4>
    2b1e: 64 14        	stz	$14                     ; 0x14 <__rc4>
    2b20: 66 14        	ror	$14                     ; 0x14 <__rc4>
    2b22: 10 02        	bpl	$2b26 <bitmapClear+0x23c>
    2b24: a9 ff        	lda	#$ff
    2b26: 06 14        	asl	$14                     ; 0x14 <__rc4>
    2b28: 2a           	rol
    2b29: a2 20        	ldx	#$20
    2b2b: a0 00        	ldy	#$0
    2b2d: 48           	pha
    2b2e: 98           	tya
    2b2f: 85 14        	sta	$14                     ; 0x14 <__rc4>
    2b31: a9 e0        	lda	#$e0
    2b33: 85 15        	sta	$15                     ; 0x15 <__rc5>
    2b35: 68           	pla
    2b36: 86 16        	stx	$16                     ; 0x16 <__rc6>
    2b38: 80 04        	bra	$2b3e <bitmapClear+0x254>
    2b3a: a6 16        	ldx	$16                     ; 0x16 <__rc6>
    2b3c: f0 17        	beq	$2b55 <bitmapClear+0x26b>
    2b3e: 92 14        	sta	($14)                   ; 0x14 <__rc4>
    2b40: 88           	dey
    2b41: c0 ff        	cpy	#$ff
    2b43: f0 06        	beq	$2b4b <bitmapClear+0x261>
    2b45: e6 14        	inc	$14                     ; 0x14 <__rc4>
    2b47: d0 f1        	bne	$2b3a <bitmapClear+0x250>
    2b49: 80 06        	bra	$2b51 <bitmapClear+0x267>
    2b4b: c6 16        	dec	$16                     ; 0x16 <__rc6>
    2b4d: e6 14        	inc	$14                     ; 0x14 <__rc4>
    2b4f: d0 e9        	bne	$2b3a <bitmapClear+0x250>
    2b51: e6 15        	inc	$15                     ; 0x15 <__rc5>
    2b53: 80 e5        	bra	$2b3a <bitmapClear+0x250>
    2b55: c0 00        	cpy	#$0
    2b57: d0 e5        	bne	$2b3e <bitmapClear+0x254>
    2b59: 18           	clc
    2b5a: a5 18        	lda	$18                     ; 0x18 <__rc8>
    2b5c: 69 08        	adc	#$8
    2b5e: 85 0f        	sta	$f                      ; 0xf <__zp_bss_size>
    2b60: a6 e1        	ldx	$e1                     ; 0xe1 <_color>
    2b62: 86 14        	stx	$14                     ; 0x14 <__rc4>
    2b64: a9 00        	lda	#$0
    2b66: 46 14        	lsr	$14                     ; 0x14 <__rc4>
    2b68: 64 14        	stz	$14                     ; 0x14 <__rc4>
    2b6a: 66 14        	ror	$14                     ; 0x14 <__rc4>
    2b6c: 10 02        	bpl	$2b70 <bitmapClear+0x286>
    2b6e: a9 ff        	lda	#$ff
    2b70: 06 14        	asl	$14                     ; 0x14 <__rc4>
    2b72: 2a           	rol
    2b73: a2 20        	ldx	#$20
    2b75: a0 00        	ldy	#$0
    2b77: 48           	pha
    2b78: 98           	tya
    2b79: 85 14        	sta	$14                     ; 0x14 <__rc4>
    2b7b: a9 e0        	lda	#$e0
    2b7d: 85 15        	sta	$15                     ; 0x15 <__rc5>
    2b7f: 68           	pla
    2b80: 86 16        	stx	$16                     ; 0x16 <__rc6>
    2b82: 80 04        	bra	$2b88 <bitmapClear+0x29e>
    2b84: a6 16        	ldx	$16                     ; 0x16 <__rc6>
    2b86: f0 17        	beq	$2b9f <bitmapClear+0x2b5>
    2b88: 92 14        	sta	($14)                   ; 0x14 <__rc4>
    2b8a: 88           	dey
    2b8b: c0 ff        	cpy	#$ff
    2b8d: f0 06        	beq	$2b95 <bitmapClear+0x2ab>
    2b8f: e6 14        	inc	$14                     ; 0x14 <__rc4>
    2b91: d0 f1        	bne	$2b84 <bitmapClear+0x29a>
    2b93: 80 06        	bra	$2b9b <bitmapClear+0x2b1>
    2b95: c6 16        	dec	$16                     ; 0x16 <__rc6>
    2b97: e6 14        	inc	$14                     ; 0x14 <__rc4>
    2b99: d0 e9        	bne	$2b84 <bitmapClear+0x29a>
    2b9b: e6 15        	inc	$15                     ; 0x15 <__rc5>
    2b9d: 80 e5        	bra	$2b84 <bitmapClear+0x29a>
    2b9f: c0 00        	cpy	#$0
    2ba1: d0 e5        	bne	$2b88 <bitmapClear+0x29e>
    2ba3: 18           	clc
    2ba4: a5 18        	lda	$18                     ; 0x18 <__rc8>
    2ba6: 69 09        	adc	#$9
    2ba8: 85 0f        	sta	$f                      ; 0xf <__zp_bss_size>
    2baa: a6 e1        	ldx	$e1                     ; 0xe1 <_color>
    2bac: 86 14        	stx	$14                     ; 0x14 <__rc4>
    2bae: a9 00        	lda	#$0
    2bb0: 46 14        	lsr	$14                     ; 0x14 <__rc4>
    2bb2: 64 14        	stz	$14                     ; 0x14 <__rc4>
    2bb4: 66 14        	ror	$14                     ; 0x14 <__rc4>
    2bb6: 10 02        	bpl	$2bba <bitmapClear+0x2d0>
    2bb8: a9 ff        	lda	#$ff
    2bba: 06 14        	asl	$14                     ; 0x14 <__rc4>
    2bbc: 2a           	rol
    2bbd: a2 14        	ldx	#$14
    2bbf: a0 00        	ldy	#$0
    2bc1: 86 14        	stx	$14                     ; 0x14 <__rc4>
    2bc3: 80 04        	bra	$2bc9 <bitmapClear+0x2df>
    2bc5: a6 14        	ldx	$14                     ; 0x14 <__rc4>
    2bc7: f0 17        	beq	$2be0 <bitmapClear+0x2f6>
    2bc9: 92 12        	sta	($12)                   ; 0x12 <__rc2>
    2bcb: 88           	dey
    2bcc: c0 ff        	cpy	#$ff
    2bce: f0 06        	beq	$2bd6 <bitmapClear+0x2ec>
    2bd0: e6 12        	inc	$12                     ; 0x12 <__rc2>
    2bd2: d0 f1        	bne	$2bc5 <bitmapClear+0x2db>
    2bd4: 80 06        	bra	$2bdc <bitmapClear+0x2f2>
    2bd6: c6 14        	dec	$14                     ; 0x14 <__rc4>
    2bd8: e6 12        	inc	$12                     ; 0x12 <__rc2>
    2bda: d0 e9        	bne	$2bc5 <bitmapClear+0x2db>
    2bdc: e6 13        	inc	$13                     ; 0x13 <__rc3>
    2bde: 80 e5        	bra	$2bc5 <bitmapClear+0x2db>
    2be0: c0 00        	cpy	#$0
    2be2: d0 e5        	bne	$2bc9 <bitmapClear+0x2df>
    2be4: a6 17        	ldx	$17                     ; 0x17 <__rc7>
    2be6: 86 0f        	stx	$f                      ; 0xf <__zp_bss_size>
    2be8: 58           	cli
    2be9: 60           	rts

00002bea <rotateX>:
    2bea: 18           	clc
    2beb: a5 10        	lda	$10                     ; 0x10 <__rc0>
    2bed: 69 f8        	adc	#$f8
    2bef: 85 10        	sta	$10                     ; 0x10 <__rc0>
    2bf1: a5 11        	lda	$11                     ; 0x11 <__rc1>
    2bf3: 69 ff        	adc	#$ff
    2bf5: 85 11        	sta	$11                     ; 0x11 <__rc1>
    2bf7: a6 24        	ldx	$24                     ; 0x24 <__rc20>
    2bf9: da           	phx
    2bfa: a6 25        	ldx	$25                     ; 0x25 <__rc21>
    2bfc: da           	phx
    2bfd: a6 26        	ldx	$26                     ; 0x26 <__rc22>
    2bff: da           	phx
    2c00: a6 27        	ldx	$27                     ; 0x27 <__rc23>
    2c02: da           	phx
    2c03: a5 28        	lda	$28                     ; 0x28 <__rc24>
    2c05: a0 07        	ldy	#$7
    2c07: 91 10        	sta	($10),y                 ; 0x10 <__rc0>
    2c09: a5 29        	lda	$29                     ; 0x29 <__rc25>
    2c0b: 88           	dey
    2c0c: 91 10        	sta	($10),y                 ; 0x10 <__rc0>
    2c0e: a5 2a        	lda	$2a                     ; 0x2a <__rc26>
    2c10: 88           	dey
    2c11: 91 10        	sta	($10),y                 ; 0x10 <__rc0>
    2c13: a5 2b        	lda	$2b                     ; 0x2b <__rc27>
    2c15: 88           	dey
    2c16: 91 10        	sta	($10),y                 ; 0x10 <__rc0>
    2c18: a5 2c        	lda	$2c                     ; 0x2c <__rc28>
    2c1a: 88           	dey
    2c1b: 91 10        	sta	($10),y                 ; 0x10 <__rc0>
    2c1d: a5 2d        	lda	$2d                     ; 0x2d <__rc29>
    2c1f: 88           	dey
    2c20: 91 10        	sta	($10),y                 ; 0x10 <__rc0>
    2c22: a5 2e        	lda	$2e                     ; 0x2e <__rc30>
    2c24: 88           	dey
    2c25: 91 10        	sta	($10),y                 ; 0x10 <__rc0>
    2c27: a5 2f        	lda	$2f                     ; 0x2f <__rc31>
    2c29: 88           	dey
    2c2a: 91 10        	sta	($10),y                 ; 0x10 <__rc0>
    2c2c: a5 34        	lda	$34                     ; 0x34 <skull_vertices+0x4>
    2c2e: a6 35        	ldx	$35                     ; 0x35 <skull_vertices+0x5>
    2c30: a4 36        	ldy	$36                     ; 0x36 <skull_vertices+0x6>
    2c32: 84 16        	sty	$16                     ; 0x16 <__rc6>
    2c34: a4 37        	ldy	$37                     ; 0x37 <skull_vertices+0x7>
    2c36: 85 14        	sta	$14                     ; 0x14 <__rc4>
    2c38: 86 15        	stx	$15                     ; 0x15 <__rc5>
    2c3a: a2 7e        	ldx	#$7e
    2c3c: 86 12        	stx	$12                     ; 0x12 <__rc2>
    2c3e: 86 28        	stx	$28                     ; 0x28 <__rc24>
    2c40: a2 3f        	ldx	#$3f
    2c42: 86 29        	stx	$29                     ; 0x29 <__rc25>
    2c44: 86 13        	stx	$13                     ; 0x13 <__rc3>
    2c46: 84 17        	sty	$17                     ; 0x17 <__rc7>
    2c48: a2 98        	ldx	#$98
    2c4a: a9 fe        	lda	#$fe
    2c4c: 20 ea 05     	jsr	$5ea <mathFloatMul>
    2c4f: 85 24        	sta	$24                     ; 0x24 <__rc20>
    2c51: 86 25        	stx	$25                     ; 0x25 <__rc21>
    2c53: a6 12        	ldx	$12                     ; 0x12 <__rc2>
    2c55: 86 26        	stx	$26                     ; 0x26 <__rc22>
    2c57: a6 13        	ldx	$13                     ; 0x13 <__rc3>
    2c59: 86 27        	stx	$27                     ; 0x27 <__rc23>
    2c5b: a5 38        	lda	$38                     ; 0x38 <skull_vertices+0x8>
    2c5d: a6 39        	ldx	$39                     ; 0x39 <skull_vertices+0x9>
    2c5f: a4 3a        	ldy	$3a                     ; 0x3a <skull_vertices+0xa>
    2c61: 84 16        	sty	$16                     ; 0x16 <__rc6>
    2c63: a4 3b        	ldy	$3b                     ; 0x3b <skull_vertices+0xb>
    2c65: 85 14        	sta	$14                     ; 0x14 <__rc4>
    2c67: 86 15        	stx	$15                     ; 0x15 <__rc5>
    2c69: a2 d6        	ldx	#$d6
    2c6b: 86 12        	stx	$12                     ; 0x12 <__rc2>
    2c6d: 86 2a        	stx	$2a                     ; 0x2a <__rc26>
    2c6f: a2 3d        	ldx	#$3d
    2c71: 86 2b        	stx	$2b                     ; 0x2b <__rc27>
    2c73: 86 13        	stx	$13                     ; 0x13 <__rc3>
    2c75: 84 17        	sty	$17                     ; 0x17 <__rc7>
    2c77: a2 12        	ldx	#$12
    2c79: a9 c7        	lda	#$c7
    2c7b: 20 ea 05     	jsr	$5ea <mathFloatMul>
    2c7e: 85 14        	sta	$14                     ; 0x14 <__rc4>
    2c80: 86 15        	stx	$15                     ; 0x15 <__rc5>
    2c82: a6 12        	ldx	$12                     ; 0x12 <__rc2>
    2c84: a4 13        	ldy	$13                     ; 0x13 <__rc3>
    2c86: a5 26        	lda	$26                     ; 0x26 <__rc22>
    2c88: 85 12        	sta	$12                     ; 0x12 <__rc2>
    2c8a: a5 27        	lda	$27                     ; 0x27 <__rc23>
    2c8c: 85 13        	sta	$13                     ; 0x13 <__rc3>
    2c8e: 86 16        	stx	$16                     ; 0x16 <__rc6>
    2c90: 84 17        	sty	$17                     ; 0x17 <__rc7>
    2c92: a6 25        	ldx	$25                     ; 0x25 <__rc21>
    2c94: a5 24        	lda	$24                     ; 0x24 <__rc20>
    2c96: 20 99 05     	jsr	$599 <mathFloatSub>
    2c99: 85 2c        	sta	$2c                     ; 0x2c <__rc28>
    2c9b: 86 2d        	stx	$2d                     ; 0x2d <__rc29>
    2c9d: a6 12        	ldx	$12                     ; 0x12 <__rc2>
    2c9f: 86 2e        	stx	$2e                     ; 0x2e <__rc30>
    2ca1: a6 13        	ldx	$13                     ; 0x13 <__rc3>
    2ca3: 86 2f        	stx	$2f                     ; 0x2f <__rc31>
    2ca5: a5 34        	lda	$34                     ; 0x34 <skull_vertices+0x4>
    2ca7: a6 35        	ldx	$35                     ; 0x35 <skull_vertices+0x5>
    2ca9: a4 36        	ldy	$36                     ; 0x36 <skull_vertices+0x6>
    2cab: 84 16        	sty	$16                     ; 0x16 <__rc6>
    2cad: a4 37        	ldy	$37                     ; 0x37 <skull_vertices+0x7>
    2caf: 85 14        	sta	$14                     ; 0x14 <__rc4>
    2cb1: 86 15        	stx	$15                     ; 0x15 <__rc5>
    2cb3: a6 2a        	ldx	$2a                     ; 0x2a <__rc26>
    2cb5: 86 12        	stx	$12                     ; 0x12 <__rc2>
    2cb7: a6 2b        	ldx	$2b                     ; 0x2b <__rc27>
    2cb9: 86 13        	stx	$13                     ; 0x13 <__rc3>
    2cbb: 84 17        	sty	$17                     ; 0x17 <__rc7>
    2cbd: a2 12        	ldx	#$12
    2cbf: a9 c7        	lda	#$c7
    2cc1: 20 ea 05     	jsr	$5ea <mathFloatMul>
    2cc4: 85 24        	sta	$24                     ; 0x24 <__rc20>
    2cc6: 86 25        	stx	$25                     ; 0x25 <__rc21>
    2cc8: a6 12        	ldx	$12                     ; 0x12 <__rc2>
    2cca: 86 26        	stx	$26                     ; 0x26 <__rc22>
    2ccc: a6 13        	ldx	$13                     ; 0x13 <__rc3>
    2cce: 86 27        	stx	$27                     ; 0x27 <__rc23>
    2cd0: a5 38        	lda	$38                     ; 0x38 <skull_vertices+0x8>
    2cd2: a6 39        	ldx	$39                     ; 0x39 <skull_vertices+0x9>
    2cd4: a4 3a        	ldy	$3a                     ; 0x3a <skull_vertices+0xa>
    2cd6: 84 16        	sty	$16                     ; 0x16 <__rc6>
    2cd8: a4 3b        	ldy	$3b                     ; 0x3b <skull_vertices+0xb>
    2cda: 85 14        	sta	$14                     ; 0x14 <__rc4>
    2cdc: 86 15        	stx	$15                     ; 0x15 <__rc5>
    2cde: a6 28        	ldx	$28                     ; 0x28 <__rc24>
    2ce0: 86 12        	stx	$12                     ; 0x12 <__rc2>
    2ce2: a6 29        	ldx	$29                     ; 0x29 <__rc25>
    2ce4: 86 13        	stx	$13                     ; 0x13 <__rc3>
    2ce6: 84 17        	sty	$17                     ; 0x17 <__rc7>
    2ce8: a2 98        	ldx	#$98
    2cea: a9 fe        	lda	#$fe
    2cec: 20 ea 05     	jsr	$5ea <mathFloatMul>
    2cef: 85 14        	sta	$14                     ; 0x14 <__rc4>
    2cf1: 86 15        	stx	$15                     ; 0x15 <__rc5>
    2cf3: a6 12        	ldx	$12                     ; 0x12 <__rc2>
    2cf5: a4 13        	ldy	$13                     ; 0x13 <__rc3>
    2cf7: a5 26        	lda	$26                     ; 0x26 <__rc22>
    2cf9: 85 12        	sta	$12                     ; 0x12 <__rc2>
    2cfb: a5 27        	lda	$27                     ; 0x27 <__rc23>
    2cfd: 85 13        	sta	$13                     ; 0x13 <__rc3>
    2cff: 86 16        	stx	$16                     ; 0x16 <__rc6>
    2d01: 84 17        	sty	$17                     ; 0x17 <__rc7>
    2d03: a6 25        	ldx	$25                     ; 0x25 <__rc21>
    2d05: a5 24        	lda	$24                     ; 0x24 <__rc20>
    2d07: 20 48 05     	jsr	$548 <mathFloatAdd>
    2d0a: a4 2c        	ldy	$2c                     ; 0x2c <__rc28>
    2d0c: 84 34        	sty	$34                     ; 0x34 <skull_vertices+0x4>
    2d0e: a4 2d        	ldy	$2d                     ; 0x2d <__rc29>
    2d10: 84 35        	sty	$35                     ; 0x35 <skull_vertices+0x5>
    2d12: a4 2e        	ldy	$2e                     ; 0x2e <__rc30>
    2d14: 84 36        	sty	$36                     ; 0x36 <skull_vertices+0x6>
    2d16: a4 2f        	ldy	$2f                     ; 0x2f <__rc31>
    2d18: 84 37        	sty	$37                     ; 0x37 <skull_vertices+0x7>
    2d1a: 85 38        	sta	$38                     ; 0x38 <skull_vertices+0x8>
    2d1c: 86 39        	stx	$39                     ; 0x39 <skull_vertices+0x9>
    2d1e: a6 12        	ldx	$12                     ; 0x12 <__rc2>
    2d20: 86 3a        	stx	$3a                     ; 0x3a <skull_vertices+0xa>
    2d22: a6 13        	ldx	$13                     ; 0x13 <__rc3>
    2d24: 86 3b        	stx	$3b                     ; 0x3b <skull_vertices+0xb>
    2d26: a5 40        	lda	$40                     ; 0x40 <skull_vertices+0x10>
    2d28: a6 41        	ldx	$41                     ; 0x41 <skull_vertices+0x11>
    2d2a: a4 42        	ldy	$42                     ; 0x42 <skull_vertices+0x12>
    2d2c: 84 16        	sty	$16                     ; 0x16 <__rc6>
    2d2e: a4 43        	ldy	$43                     ; 0x43 <skull_vertices+0x13>
    2d30: 85 14        	sta	$14                     ; 0x14 <__rc4>
    2d32: 86 15        	stx	$15                     ; 0x15 <__rc5>
    2d34: a6 28        	ldx	$28                     ; 0x28 <__rc24>
    2d36: 86 12        	stx	$12                     ; 0x12 <__rc2>
    2d38: a6 29        	ldx	$29                     ; 0x29 <__rc25>
    2d3a: 86 13        	stx	$13                     ; 0x13 <__rc3>
    2d3c: 84 17        	sty	$17                     ; 0x17 <__rc7>
    2d3e: a2 98        	ldx	#$98
    2d40: a9 fe        	lda	#$fe
    2d42: 20 ea 05     	jsr	$5ea <mathFloatMul>
    2d45: 85 24        	sta	$24                     ; 0x24 <__rc20>
    2d47: 86 25        	stx	$25                     ; 0x25 <__rc21>
    2d49: a6 12        	ldx	$12                     ; 0x12 <__rc2>
    2d4b: 86 26        	stx	$26                     ; 0x26 <__rc22>
    2d4d: a6 13        	ldx	$13                     ; 0x13 <__rc3>
    2d4f: 86 27        	stx	$27                     ; 0x27 <__rc23>
    2d51: a5 44        	lda	$44                     ; 0x44 <skull_vertices+0x14>
    2d53: a6 45        	ldx	$45                     ; 0x45 <skull_vertices+0x15>
    2d55: a4 46        	ldy	$46                     ; 0x46 <skull_vertices+0x16>
    2d57: 84 16        	sty	$16                     ; 0x16 <__rc6>
    2d59: a4 47        	ldy	$47                     ; 0x47 <skull_vertices+0x17>
    2d5b: 85 14        	sta	$14                     ; 0x14 <__rc4>
    2d5d: 86 15        	stx	$15                     ; 0x15 <__rc5>
    2d5f: a6 2a        	ldx	$2a                     ; 0x2a <__rc26>
    2d61: 86 12        	stx	$12                     ; 0x12 <__rc2>
    2d63: a6 2b        	ldx	$2b                     ; 0x2b <__rc27>
    2d65: 86 13        	stx	$13                     ; 0x13 <__rc3>
    2d67: 84 17        	sty	$17                     ; 0x17 <__rc7>
    2d69: a2 12        	ldx	#$12
    2d6b: a9 c7        	lda	#$c7
    2d6d: 20 ea 05     	jsr	$5ea <mathFloatMul>
    2d70: 85 14        	sta	$14                     ; 0x14 <__rc4>
    2d72: 86 15        	stx	$15                     ; 0x15 <__rc5>
    2d74: a6 12        	ldx	$12                     ; 0x12 <__rc2>
    2d76: a4 13        	ldy	$13                     ; 0x13 <__rc3>
    2d78: a5 26        	lda	$26                     ; 0x26 <__rc22>
    2d7a: 85 12        	sta	$12                     ; 0x12 <__rc2>
    2d7c: a5 27        	lda	$27                     ; 0x27 <__rc23>
    2d7e: 85 13        	sta	$13                     ; 0x13 <__rc3>
    2d80: 86 16        	stx	$16                     ; 0x16 <__rc6>
    2d82: 84 17        	sty	$17                     ; 0x17 <__rc7>
    2d84: a6 25        	ldx	$25                     ; 0x25 <__rc21>
    2d86: a5 24        	lda	$24                     ; 0x24 <__rc20>
    2d88: 20 99 05     	jsr	$599 <mathFloatSub>
    2d8b: 85 2c        	sta	$2c                     ; 0x2c <__rc28>
    2d8d: 86 2d        	stx	$2d                     ; 0x2d <__rc29>
    2d8f: a6 12        	ldx	$12                     ; 0x12 <__rc2>
    2d91: 86 2e        	stx	$2e                     ; 0x2e <__rc30>
    2d93: a6 13        	ldx	$13                     ; 0x13 <__rc3>
    2d95: 86 2f        	stx	$2f                     ; 0x2f <__rc31>
    2d97: a5 40        	lda	$40                     ; 0x40 <skull_vertices+0x10>
    2d99: a6 41        	ldx	$41                     ; 0x41 <skull_vertices+0x11>
    2d9b: a4 42        	ldy	$42                     ; 0x42 <skull_vertices+0x12>
    2d9d: 84 16        	sty	$16                     ; 0x16 <__rc6>
    2d9f: a4 43        	ldy	$43                     ; 0x43 <skull_vertices+0x13>
    2da1: 85 14        	sta	$14                     ; 0x14 <__rc4>
    2da3: 86 15        	stx	$15                     ; 0x15 <__rc5>
    2da5: a6 2a        	ldx	$2a                     ; 0x2a <__rc26>
    2da7: 86 12        	stx	$12                     ; 0x12 <__rc2>
    2da9: a6 2b        	ldx	$2b                     ; 0x2b <__rc27>
    2dab: 86 13        	stx	$13                     ; 0x13 <__rc3>
    2dad: 84 17        	sty	$17                     ; 0x17 <__rc7>
    2daf: a2 12        	ldx	#$12
    2db1: a9 c7        	lda	#$c7
    2db3: 20 ea 05     	jsr	$5ea <mathFloatMul>
    2db6: 85 24        	sta	$24                     ; 0x24 <__rc20>
    2db8: 86 25        	stx	$25                     ; 0x25 <__rc21>
    2dba: a6 12        	ldx	$12                     ; 0x12 <__rc2>
    2dbc: 86 26        	stx	$26                     ; 0x26 <__rc22>
    2dbe: a6 13        	ldx	$13                     ; 0x13 <__rc3>
    2dc0: 86 27        	stx	$27                     ; 0x27 <__rc23>
    2dc2: a5 44        	lda	$44                     ; 0x44 <skull_vertices+0x14>
    2dc4: a6 45        	ldx	$45                     ; 0x45 <skull_vertices+0x15>
    2dc6: a4 46        	ldy	$46                     ; 0x46 <skull_vertices+0x16>
    2dc8: 84 16        	sty	$16                     ; 0x16 <__rc6>
    2dca: a4 47        	ldy	$47                     ; 0x47 <skull_vertices+0x17>
    2dcc: 85 14        	sta	$14                     ; 0x14 <__rc4>
    2dce: 86 15        	stx	$15                     ; 0x15 <__rc5>
    2dd0: a6 28        	ldx	$28                     ; 0x28 <__rc24>
    2dd2: 86 12        	stx	$12                     ; 0x12 <__rc2>
    2dd4: a6 29        	ldx	$29                     ; 0x29 <__rc25>
    2dd6: 86 13        	stx	$13                     ; 0x13 <__rc3>
    2dd8: 84 17        	sty	$17                     ; 0x17 <__rc7>
    2dda: a2 98        	ldx	#$98
    2ddc: a9 fe        	lda	#$fe
    2dde: 20 ea 05     	jsr	$5ea <mathFloatMul>
    2de1: 85 14        	sta	$14                     ; 0x14 <__rc4>
    2de3: 86 15        	stx	$15                     ; 0x15 <__rc5>
    2de5: a6 12        	ldx	$12                     ; 0x12 <__rc2>
    2de7: a4 13        	ldy	$13                     ; 0x13 <__rc3>
    2de9: a5 26        	lda	$26                     ; 0x26 <__rc22>
    2deb: 85 12        	sta	$12                     ; 0x12 <__rc2>
    2ded: a5 27        	lda	$27                     ; 0x27 <__rc23>
    2def: 85 13        	sta	$13                     ; 0x13 <__rc3>
    2df1: 86 16        	stx	$16                     ; 0x16 <__rc6>
    2df3: 84 17        	sty	$17                     ; 0x17 <__rc7>
    2df5: a6 25        	ldx	$25                     ; 0x25 <__rc21>
    2df7: a5 24        	lda	$24                     ; 0x24 <__rc20>
    2df9: 20 48 05     	jsr	$548 <mathFloatAdd>
    2dfc: a4 2c        	ldy	$2c                     ; 0x2c <__rc28>
    2dfe: 84 40        	sty	$40                     ; 0x40 <skull_vertices+0x10>
    2e00: a4 2d        	ldy	$2d                     ; 0x2d <__rc29>
    2e02: 84 41        	sty	$41                     ; 0x41 <skull_vertices+0x11>
    2e04: a4 2e        	ldy	$2e                     ; 0x2e <__rc30>
    2e06: 84 42        	sty	$42                     ; 0x42 <skull_vertices+0x12>
    2e08: a4 2f        	ldy	$2f                     ; 0x2f <__rc31>
    2e0a: 84 43        	sty	$43                     ; 0x43 <skull_vertices+0x13>
    2e0c: 85 44        	sta	$44                     ; 0x44 <skull_vertices+0x14>
    2e0e: 86 45        	stx	$45                     ; 0x45 <skull_vertices+0x15>
    2e10: a6 12        	ldx	$12                     ; 0x12 <__rc2>
    2e12: 86 46        	stx	$46                     ; 0x46 <skull_vertices+0x16>
    2e14: a6 13        	ldx	$13                     ; 0x13 <__rc3>
    2e16: 86 47        	stx	$47                     ; 0x47 <skull_vertices+0x17>
    2e18: a5 4c        	lda	$4c                     ; 0x4c <skull_vertices+0x1c>
    2e1a: a6 4d        	ldx	$4d                     ; 0x4d <skull_vertices+0x1d>
    2e1c: a4 4e        	ldy	$4e                     ; 0x4e <skull_vertices+0x1e>
    2e1e: 84 16        	sty	$16                     ; 0x16 <__rc6>
    2e20: a4 4f        	ldy	$4f                     ; 0x4f <skull_vertices+0x1f>
    2e22: 85 14        	sta	$14                     ; 0x14 <__rc4>
    2e24: 86 15        	stx	$15                     ; 0x15 <__rc5>
    2e26: a6 28        	ldx	$28                     ; 0x28 <__rc24>
    2e28: 86 12        	stx	$12                     ; 0x12 <__rc2>
    2e2a: a6 29        	ldx	$29                     ; 0x29 <__rc25>
    2e2c: 86 13        	stx	$13                     ; 0x13 <__rc3>
    2e2e: 84 17        	sty	$17                     ; 0x17 <__rc7>
    2e30: a2 98        	ldx	#$98
    2e32: a9 fe        	lda	#$fe
    2e34: 20 ea 05     	jsr	$5ea <mathFloatMul>
    2e37: 85 24        	sta	$24                     ; 0x24 <__rc20>
    2e39: 86 25        	stx	$25                     ; 0x25 <__rc21>
    2e3b: a6 12        	ldx	$12                     ; 0x12 <__rc2>
    2e3d: 86 26        	stx	$26                     ; 0x26 <__rc22>
    2e3f: a6 13        	ldx	$13                     ; 0x13 <__rc3>
    2e41: 86 27        	stx	$27                     ; 0x27 <__rc23>
    2e43: a5 50        	lda	$50                     ; 0x50 <skull_vertices+0x20>
    2e45: a6 51        	ldx	$51                     ; 0x51 <skull_vertices+0x21>
    2e47: a4 52        	ldy	$52                     ; 0x52 <skull_vertices+0x22>
    2e49: 84 16        	sty	$16                     ; 0x16 <__rc6>
    2e4b: a4 53        	ldy	$53                     ; 0x53 <skull_vertices+0x23>
    2e4d: 85 14        	sta	$14                     ; 0x14 <__rc4>
    2e4f: 86 15        	stx	$15                     ; 0x15 <__rc5>
    2e51: a6 2a        	ldx	$2a                     ; 0x2a <__rc26>
    2e53: 86 12        	stx	$12                     ; 0x12 <__rc2>
    2e55: a6 2b        	ldx	$2b                     ; 0x2b <__rc27>
    2e57: 86 13        	stx	$13                     ; 0x13 <__rc3>
    2e59: 84 17        	sty	$17                     ; 0x17 <__rc7>
    2e5b: a2 12        	ldx	#$12
    2e5d: a9 c7        	lda	#$c7
    2e5f: 20 ea 05     	jsr	$5ea <mathFloatMul>
    2e62: 85 14        	sta	$14                     ; 0x14 <__rc4>
    2e64: 86 15        	stx	$15                     ; 0x15 <__rc5>
    2e66: a6 12        	ldx	$12                     ; 0x12 <__rc2>
    2e68: a4 13        	ldy	$13                     ; 0x13 <__rc3>
    2e6a: a5 26        	lda	$26                     ; 0x26 <__rc22>
    2e6c: 85 12        	sta	$12                     ; 0x12 <__rc2>
    2e6e: a5 27        	lda	$27                     ; 0x27 <__rc23>
    2e70: 85 13        	sta	$13                     ; 0x13 <__rc3>
    2e72: 86 16        	stx	$16                     ; 0x16 <__rc6>
    2e74: 84 17        	sty	$17                     ; 0x17 <__rc7>
    2e76: a6 25        	ldx	$25                     ; 0x25 <__rc21>
    2e78: a5 24        	lda	$24                     ; 0x24 <__rc20>
    2e7a: 20 99 05     	jsr	$599 <mathFloatSub>
    2e7d: 85 2c        	sta	$2c                     ; 0x2c <__rc28>
    2e7f: 86 2d        	stx	$2d                     ; 0x2d <__rc29>
    2e81: a6 12        	ldx	$12                     ; 0x12 <__rc2>
    2e83: 86 2e        	stx	$2e                     ; 0x2e <__rc30>
    2e85: a6 13        	ldx	$13                     ; 0x13 <__rc3>
    2e87: 86 2f        	stx	$2f                     ; 0x2f <__rc31>
    2e89: a5 4c        	lda	$4c                     ; 0x4c <skull_vertices+0x1c>
    2e8b: a6 4d        	ldx	$4d                     ; 0x4d <skull_vertices+0x1d>
    2e8d: a4 4e        	ldy	$4e                     ; 0x4e <skull_vertices+0x1e>
    2e8f: 84 16        	sty	$16                     ; 0x16 <__rc6>
    2e91: a4 4f        	ldy	$4f                     ; 0x4f <skull_vertices+0x1f>
    2e93: 85 14        	sta	$14                     ; 0x14 <__rc4>
    2e95: 86 15        	stx	$15                     ; 0x15 <__rc5>
    2e97: a6 2a        	ldx	$2a                     ; 0x2a <__rc26>
    2e99: 86 12        	stx	$12                     ; 0x12 <__rc2>
    2e9b: a6 2b        	ldx	$2b                     ; 0x2b <__rc27>
    2e9d: 86 13        	stx	$13                     ; 0x13 <__rc3>
    2e9f: 84 17        	sty	$17                     ; 0x17 <__rc7>
    2ea1: a2 12        	ldx	#$12
    2ea3: a9 c7        	lda	#$c7
    2ea5: 20 ea 05     	jsr	$5ea <mathFloatMul>
    2ea8: 85 24        	sta	$24                     ; 0x24 <__rc20>
    2eaa: 86 25        	stx	$25                     ; 0x25 <__rc21>
    2eac: a6 12        	ldx	$12                     ; 0x12 <__rc2>
    2eae: 86 26        	stx	$26                     ; 0x26 <__rc22>
    2eb0: a6 13        	ldx	$13                     ; 0x13 <__rc3>
    2eb2: 86 27        	stx	$27                     ; 0x27 <__rc23>
    2eb4: a5 50        	lda	$50                     ; 0x50 <skull_vertices+0x20>
    2eb6: a6 51        	ldx	$51                     ; 0x51 <skull_vertices+0x21>
    2eb8: a4 52        	ldy	$52                     ; 0x52 <skull_vertices+0x22>
    2eba: 84 16        	sty	$16                     ; 0x16 <__rc6>
    2ebc: a4 53        	ldy	$53                     ; 0x53 <skull_vertices+0x23>
    2ebe: 85 14        	sta	$14                     ; 0x14 <__rc4>
    2ec0: 86 15        	stx	$15                     ; 0x15 <__rc5>
    2ec2: a6 28        	ldx	$28                     ; 0x28 <__rc24>
    2ec4: 86 12        	stx	$12                     ; 0x12 <__rc2>
    2ec6: a6 29        	ldx	$29                     ; 0x29 <__rc25>
    2ec8: 86 13        	stx	$13                     ; 0x13 <__rc3>
    2eca: 84 17        	sty	$17                     ; 0x17 <__rc7>
    2ecc: a2 98        	ldx	#$98
    2ece: a9 fe        	lda	#$fe
    2ed0: 20 ea 05     	jsr	$5ea <mathFloatMul>
    2ed3: 85 14        	sta	$14                     ; 0x14 <__rc4>
    2ed5: 86 15        	stx	$15                     ; 0x15 <__rc5>
    2ed7: a6 12        	ldx	$12                     ; 0x12 <__rc2>
    2ed9: a4 13        	ldy	$13                     ; 0x13 <__rc3>
    2edb: a5 26        	lda	$26                     ; 0x26 <__rc22>
    2edd: 85 12        	sta	$12                     ; 0x12 <__rc2>
    2edf: a5 27        	lda	$27                     ; 0x27 <__rc23>
    2ee1: 85 13        	sta	$13                     ; 0x13 <__rc3>
    2ee3: 86 16        	stx	$16                     ; 0x16 <__rc6>
    2ee5: 84 17        	sty	$17                     ; 0x17 <__rc7>
    2ee7: a6 25        	ldx	$25                     ; 0x25 <__rc21>
    2ee9: a5 24        	lda	$24                     ; 0x24 <__rc20>
    2eeb: 20 48 05     	jsr	$548 <mathFloatAdd>
    2eee: a4 2c        	ldy	$2c                     ; 0x2c <__rc28>
    2ef0: 84 4c        	sty	$4c                     ; 0x4c <skull_vertices+0x1c>
    2ef2: a4 2d        	ldy	$2d                     ; 0x2d <__rc29>
    2ef4: 84 4d        	sty	$4d                     ; 0x4d <skull_vertices+0x1d>
    2ef6: a4 2e        	ldy	$2e                     ; 0x2e <__rc30>
    2ef8: 84 4e        	sty	$4e                     ; 0x4e <skull_vertices+0x1e>
    2efa: a4 2f        	ldy	$2f                     ; 0x2f <__rc31>
    2efc: 84 4f        	sty	$4f                     ; 0x4f <skull_vertices+0x1f>
    2efe: 85 50        	sta	$50                     ; 0x50 <skull_vertices+0x20>
    2f00: 86 51        	stx	$51                     ; 0x51 <skull_vertices+0x21>
    2f02: a6 12        	ldx	$12                     ; 0x12 <__rc2>
    2f04: 86 52        	stx	$52                     ; 0x52 <skull_vertices+0x22>
    2f06: a6 13        	ldx	$13                     ; 0x13 <__rc3>
    2f08: 86 53        	stx	$53                     ; 0x53 <skull_vertices+0x23>
    2f0a: a5 58        	lda	$58                     ; 0x58 <skull_vertices+0x28>
    2f0c: a6 59        	ldx	$59                     ; 0x59 <skull_vertices+0x29>
    2f0e: a4 5a        	ldy	$5a                     ; 0x5a <skull_vertices+0x2a>
    2f10: 84 16        	sty	$16                     ; 0x16 <__rc6>
    2f12: a4 5b        	ldy	$5b                     ; 0x5b <skull_vertices+0x2b>
    2f14: 85 14        	sta	$14                     ; 0x14 <__rc4>
    2f16: 86 15        	stx	$15                     ; 0x15 <__rc5>
    2f18: a6 28        	ldx	$28                     ; 0x28 <__rc24>
    2f1a: 86 12        	stx	$12                     ; 0x12 <__rc2>
    2f1c: a6 29        	ldx	$29                     ; 0x29 <__rc25>
    2f1e: 86 13        	stx	$13                     ; 0x13 <__rc3>
    2f20: 84 17        	sty	$17                     ; 0x17 <__rc7>
    2f22: a2 98        	ldx	#$98
    2f24: a9 fe        	lda	#$fe
    2f26: 20 ea 05     	jsr	$5ea <mathFloatMul>
    2f29: 85 24        	sta	$24                     ; 0x24 <__rc20>
    2f2b: 86 25        	stx	$25                     ; 0x25 <__rc21>
    2f2d: a6 12        	ldx	$12                     ; 0x12 <__rc2>
    2f2f: 86 26        	stx	$26                     ; 0x26 <__rc22>
    2f31: a6 13        	ldx	$13                     ; 0x13 <__rc3>
    2f33: 86 27        	stx	$27                     ; 0x27 <__rc23>
    2f35: a5 5c        	lda	$5c                     ; 0x5c <skull_vertices+0x2c>
    2f37: a6 5d        	ldx	$5d                     ; 0x5d <skull_vertices+0x2d>
    2f39: a4 5e        	ldy	$5e                     ; 0x5e <skull_vertices+0x2e>
    2f3b: 84 16        	sty	$16                     ; 0x16 <__rc6>
    2f3d: a4 5f        	ldy	$5f                     ; 0x5f <skull_vertices+0x2f>
    2f3f: 85 14        	sta	$14                     ; 0x14 <__rc4>
    2f41: 86 15        	stx	$15                     ; 0x15 <__rc5>
    2f43: a6 2a        	ldx	$2a                     ; 0x2a <__rc26>
    2f45: 86 12        	stx	$12                     ; 0x12 <__rc2>
    2f47: a6 2b        	ldx	$2b                     ; 0x2b <__rc27>
    2f49: 86 13        	stx	$13                     ; 0x13 <__rc3>
    2f4b: 84 17        	sty	$17                     ; 0x17 <__rc7>
    2f4d: a2 12        	ldx	#$12
    2f4f: a9 c7        	lda	#$c7
    2f51: 20 ea 05     	jsr	$5ea <mathFloatMul>
    2f54: 85 14        	sta	$14                     ; 0x14 <__rc4>
    2f56: 86 15        	stx	$15                     ; 0x15 <__rc5>
    2f58: a6 12        	ldx	$12                     ; 0x12 <__rc2>
    2f5a: a4 13        	ldy	$13                     ; 0x13 <__rc3>
    2f5c: a5 26        	lda	$26                     ; 0x26 <__rc22>
    2f5e: 85 12        	sta	$12                     ; 0x12 <__rc2>
    2f60: a5 27        	lda	$27                     ; 0x27 <__rc23>
    2f62: 85 13        	sta	$13                     ; 0x13 <__rc3>
    2f64: 86 16        	stx	$16                     ; 0x16 <__rc6>
    2f66: 84 17        	sty	$17                     ; 0x17 <__rc7>
    2f68: a6 25        	ldx	$25                     ; 0x25 <__rc21>
    2f6a: a5 24        	lda	$24                     ; 0x24 <__rc20>
    2f6c: 20 99 05     	jsr	$599 <mathFloatSub>
    2f6f: 85 2c        	sta	$2c                     ; 0x2c <__rc28>
    2f71: 86 2d        	stx	$2d                     ; 0x2d <__rc29>
    2f73: a6 12        	ldx	$12                     ; 0x12 <__rc2>
    2f75: 86 2e        	stx	$2e                     ; 0x2e <__rc30>
    2f77: a6 13        	ldx	$13                     ; 0x13 <__rc3>
    2f79: 86 2f        	stx	$2f                     ; 0x2f <__rc31>
    2f7b: a5 58        	lda	$58                     ; 0x58 <skull_vertices+0x28>
    2f7d: a6 59        	ldx	$59                     ; 0x59 <skull_vertices+0x29>
    2f7f: a4 5a        	ldy	$5a                     ; 0x5a <skull_vertices+0x2a>
    2f81: 84 16        	sty	$16                     ; 0x16 <__rc6>
    2f83: a4 5b        	ldy	$5b                     ; 0x5b <skull_vertices+0x2b>
    2f85: 85 14        	sta	$14                     ; 0x14 <__rc4>
    2f87: 86 15        	stx	$15                     ; 0x15 <__rc5>
    2f89: a6 2a        	ldx	$2a                     ; 0x2a <__rc26>
    2f8b: 86 12        	stx	$12                     ; 0x12 <__rc2>
    2f8d: a6 2b        	ldx	$2b                     ; 0x2b <__rc27>
    2f8f: 86 13        	stx	$13                     ; 0x13 <__rc3>
    2f91: 84 17        	sty	$17                     ; 0x17 <__rc7>
    2f93: a2 12        	ldx	#$12
    2f95: a9 c7        	lda	#$c7
    2f97: 20 ea 05     	jsr	$5ea <mathFloatMul>
    2f9a: 85 24        	sta	$24                     ; 0x24 <__rc20>
    2f9c: 86 25        	stx	$25                     ; 0x25 <__rc21>
    2f9e: a6 12        	ldx	$12                     ; 0x12 <__rc2>
    2fa0: 86 26        	stx	$26                     ; 0x26 <__rc22>
    2fa2: a6 13        	ldx	$13                     ; 0x13 <__rc3>
    2fa4: 86 27        	stx	$27                     ; 0x27 <__rc23>
    2fa6: a5 5c        	lda	$5c                     ; 0x5c <skull_vertices+0x2c>
    2fa8: a6 5d        	ldx	$5d                     ; 0x5d <skull_vertices+0x2d>
    2faa: a4 5e        	ldy	$5e                     ; 0x5e <skull_vertices+0x2e>
    2fac: 84 16        	sty	$16                     ; 0x16 <__rc6>
    2fae: a4 5f        	ldy	$5f                     ; 0x5f <skull_vertices+0x2f>
    2fb0: 85 14        	sta	$14                     ; 0x14 <__rc4>
    2fb2: 86 15        	stx	$15                     ; 0x15 <__rc5>
    2fb4: a6 28        	ldx	$28                     ; 0x28 <__rc24>
    2fb6: 86 12        	stx	$12                     ; 0x12 <__rc2>
    2fb8: a6 29        	ldx	$29                     ; 0x29 <__rc25>
    2fba: 86 13        	stx	$13                     ; 0x13 <__rc3>
    2fbc: 84 17        	sty	$17                     ; 0x17 <__rc7>
    2fbe: a2 98        	ldx	#$98
    2fc0: a9 fe        	lda	#$fe
    2fc2: 20 ea 05     	jsr	$5ea <mathFloatMul>
    2fc5: 85 14        	sta	$14                     ; 0x14 <__rc4>
    2fc7: 86 15        	stx	$15                     ; 0x15 <__rc5>
    2fc9: a6 12        	ldx	$12                     ; 0x12 <__rc2>
    2fcb: a4 13        	ldy	$13                     ; 0x13 <__rc3>
    2fcd: a5 26        	lda	$26                     ; 0x26 <__rc22>
    2fcf: 85 12        	sta	$12                     ; 0x12 <__rc2>
    2fd1: a5 27        	lda	$27                     ; 0x27 <__rc23>
    2fd3: 85 13        	sta	$13                     ; 0x13 <__rc3>
    2fd5: 86 16        	stx	$16                     ; 0x16 <__rc6>
    2fd7: 84 17        	sty	$17                     ; 0x17 <__rc7>
    2fd9: a6 25        	ldx	$25                     ; 0x25 <__rc21>
    2fdb: a5 24        	lda	$24                     ; 0x24 <__rc20>
    2fdd: 20 48 05     	jsr	$548 <mathFloatAdd>
    2fe0: a4 2c        	ldy	$2c                     ; 0x2c <__rc28>
    2fe2: 84 58        	sty	$58                     ; 0x58 <skull_vertices+0x28>
    2fe4: a4 2d        	ldy	$2d                     ; 0x2d <__rc29>
    2fe6: 84 59        	sty	$59                     ; 0x59 <skull_vertices+0x29>
    2fe8: a4 2e        	ldy	$2e                     ; 0x2e <__rc30>
    2fea: 84 5a        	sty	$5a                     ; 0x5a <skull_vertices+0x2a>
    2fec: a4 2f        	ldy	$2f                     ; 0x2f <__rc31>
    2fee: 84 5b        	sty	$5b                     ; 0x5b <skull_vertices+0x2b>
    2ff0: 85 5c        	sta	$5c                     ; 0x5c <skull_vertices+0x2c>
    2ff2: 86 5d        	stx	$5d                     ; 0x5d <skull_vertices+0x2d>
    2ff4: a6 12        	ldx	$12                     ; 0x12 <__rc2>
    2ff6: 86 5e        	stx	$5e                     ; 0x5e <skull_vertices+0x2e>
    2ff8: a6 13        	ldx	$13                     ; 0x13 <__rc3>
    2ffa: 86 5f        	stx	$5f                     ; 0x5f <skull_vertices+0x2f>
    2ffc: a5 64        	lda	$64                     ; 0x64 <skull_vertices+0x34>
    2ffe: a6 65        	ldx	$65                     ; 0x65 <skull_vertices+0x35>
    3000: a4 66        	ldy	$66                     ; 0x66 <skull_vertices+0x36>
    3002: 84 16        	sty	$16                     ; 0x16 <__rc6>
    3004: a4 67        	ldy	$67                     ; 0x67 <skull_vertices+0x37>
    3006: 85 14        	sta	$14                     ; 0x14 <__rc4>
    3008: 86 15        	stx	$15                     ; 0x15 <__rc5>
    300a: a6 28        	ldx	$28                     ; 0x28 <__rc24>
    300c: 86 12        	stx	$12                     ; 0x12 <__rc2>
    300e: a6 29        	ldx	$29                     ; 0x29 <__rc25>
    3010: 86 13        	stx	$13                     ; 0x13 <__rc3>
    3012: 84 17        	sty	$17                     ; 0x17 <__rc7>
    3014: a2 98        	ldx	#$98
    3016: a9 fe        	lda	#$fe
    3018: 20 ea 05     	jsr	$5ea <mathFloatMul>
    301b: 85 24        	sta	$24                     ; 0x24 <__rc20>
    301d: 86 25        	stx	$25                     ; 0x25 <__rc21>
    301f: a6 12        	ldx	$12                     ; 0x12 <__rc2>
    3021: 86 26        	stx	$26                     ; 0x26 <__rc22>
    3023: a6 13        	ldx	$13                     ; 0x13 <__rc3>
    3025: 86 27        	stx	$27                     ; 0x27 <__rc23>
    3027: a5 68        	lda	$68                     ; 0x68 <skull_vertices+0x38>
    3029: a6 69        	ldx	$69                     ; 0x69 <skull_vertices+0x39>
    302b: a4 6a        	ldy	$6a                     ; 0x6a <skull_vertices+0x3a>
    302d: 84 16        	sty	$16                     ; 0x16 <__rc6>
    302f: a4 6b        	ldy	$6b                     ; 0x6b <skull_vertices+0x3b>
    3031: 85 14        	sta	$14                     ; 0x14 <__rc4>
    3033: 86 15        	stx	$15                     ; 0x15 <__rc5>
    3035: a6 2a        	ldx	$2a                     ; 0x2a <__rc26>
    3037: 86 12        	stx	$12                     ; 0x12 <__rc2>
    3039: a6 2b        	ldx	$2b                     ; 0x2b <__rc27>
    303b: 86 13        	stx	$13                     ; 0x13 <__rc3>
    303d: 84 17        	sty	$17                     ; 0x17 <__rc7>
    303f: a2 12        	ldx	#$12
    3041: a9 c7        	lda	#$c7
    3043: 20 ea 05     	jsr	$5ea <mathFloatMul>
    3046: 85 14        	sta	$14                     ; 0x14 <__rc4>
    3048: 86 15        	stx	$15                     ; 0x15 <__rc5>
    304a: a6 12        	ldx	$12                     ; 0x12 <__rc2>
    304c: a4 13        	ldy	$13                     ; 0x13 <__rc3>
    304e: a5 26        	lda	$26                     ; 0x26 <__rc22>
    3050: 85 12        	sta	$12                     ; 0x12 <__rc2>
    3052: a5 27        	lda	$27                     ; 0x27 <__rc23>
    3054: 85 13        	sta	$13                     ; 0x13 <__rc3>
    3056: 86 16        	stx	$16                     ; 0x16 <__rc6>
    3058: 84 17        	sty	$17                     ; 0x17 <__rc7>
    305a: a6 25        	ldx	$25                     ; 0x25 <__rc21>
    305c: a5 24        	lda	$24                     ; 0x24 <__rc20>
    305e: 20 99 05     	jsr	$599 <mathFloatSub>
    3061: 85 2c        	sta	$2c                     ; 0x2c <__rc28>
    3063: 86 2d        	stx	$2d                     ; 0x2d <__rc29>
    3065: a6 12        	ldx	$12                     ; 0x12 <__rc2>
    3067: 86 2e        	stx	$2e                     ; 0x2e <__rc30>
    3069: a6 13        	ldx	$13                     ; 0x13 <__rc3>
    306b: 86 2f        	stx	$2f                     ; 0x2f <__rc31>
    306d: a5 64        	lda	$64                     ; 0x64 <skull_vertices+0x34>
    306f: a6 65        	ldx	$65                     ; 0x65 <skull_vertices+0x35>
    3071: a4 66        	ldy	$66                     ; 0x66 <skull_vertices+0x36>
    3073: 84 16        	sty	$16                     ; 0x16 <__rc6>
    3075: a4 67        	ldy	$67                     ; 0x67 <skull_vertices+0x37>
    3077: 85 14        	sta	$14                     ; 0x14 <__rc4>
    3079: 86 15        	stx	$15                     ; 0x15 <__rc5>
    307b: a6 2a        	ldx	$2a                     ; 0x2a <__rc26>
    307d: 86 12        	stx	$12                     ; 0x12 <__rc2>
    307f: a6 2b        	ldx	$2b                     ; 0x2b <__rc27>
    3081: 86 13        	stx	$13                     ; 0x13 <__rc3>
    3083: 84 17        	sty	$17                     ; 0x17 <__rc7>
    3085: a2 12        	ldx	#$12
    3087: a9 c7        	lda	#$c7
    3089: 20 ea 05     	jsr	$5ea <mathFloatMul>
    308c: 85 24        	sta	$24                     ; 0x24 <__rc20>
    308e: 86 25        	stx	$25                     ; 0x25 <__rc21>
    3090: a6 12        	ldx	$12                     ; 0x12 <__rc2>
    3092: 86 26        	stx	$26                     ; 0x26 <__rc22>
    3094: a6 13        	ldx	$13                     ; 0x13 <__rc3>
    3096: 86 27        	stx	$27                     ; 0x27 <__rc23>
    3098: a5 68        	lda	$68                     ; 0x68 <skull_vertices+0x38>
    309a: a6 69        	ldx	$69                     ; 0x69 <skull_vertices+0x39>
    309c: a4 6a        	ldy	$6a                     ; 0x6a <skull_vertices+0x3a>
    309e: 84 16        	sty	$16                     ; 0x16 <__rc6>
    30a0: a4 6b        	ldy	$6b                     ; 0x6b <skull_vertices+0x3b>
    30a2: 85 14        	sta	$14                     ; 0x14 <__rc4>
    30a4: 86 15        	stx	$15                     ; 0x15 <__rc5>
    30a6: a6 28        	ldx	$28                     ; 0x28 <__rc24>
    30a8: 86 12        	stx	$12                     ; 0x12 <__rc2>
    30aa: a6 29        	ldx	$29                     ; 0x29 <__rc25>
    30ac: 86 13        	stx	$13                     ; 0x13 <__rc3>
    30ae: 84 17        	sty	$17                     ; 0x17 <__rc7>
    30b0: a2 98        	ldx	#$98
    30b2: a9 fe        	lda	#$fe
    30b4: 20 ea 05     	jsr	$5ea <mathFloatMul>
    30b7: 85 14        	sta	$14                     ; 0x14 <__rc4>
    30b9: 86 15        	stx	$15                     ; 0x15 <__rc5>
    30bb: a6 12        	ldx	$12                     ; 0x12 <__rc2>
    30bd: a4 13        	ldy	$13                     ; 0x13 <__rc3>
    30bf: a5 26        	lda	$26                     ; 0x26 <__rc22>
    30c1: 85 12        	sta	$12                     ; 0x12 <__rc2>
    30c3: a5 27        	lda	$27                     ; 0x27 <__rc23>
    30c5: 85 13        	sta	$13                     ; 0x13 <__rc3>
    30c7: 86 16        	stx	$16                     ; 0x16 <__rc6>
    30c9: 84 17        	sty	$17                     ; 0x17 <__rc7>
    30cb: a6 25        	ldx	$25                     ; 0x25 <__rc21>
    30cd: a5 24        	lda	$24                     ; 0x24 <__rc20>
    30cf: 20 48 05     	jsr	$548 <mathFloatAdd>
    30d2: a4 2c        	ldy	$2c                     ; 0x2c <__rc28>
    30d4: 84 64        	sty	$64                     ; 0x64 <skull_vertices+0x34>
    30d6: a4 2d        	ldy	$2d                     ; 0x2d <__rc29>
    30d8: 84 65        	sty	$65                     ; 0x65 <skull_vertices+0x35>
    30da: a4 2e        	ldy	$2e                     ; 0x2e <__rc30>
    30dc: 84 66        	sty	$66                     ; 0x66 <skull_vertices+0x36>
    30de: a4 2f        	ldy	$2f                     ; 0x2f <__rc31>
    30e0: 84 67        	sty	$67                     ; 0x67 <skull_vertices+0x37>
    30e2: 85 68        	sta	$68                     ; 0x68 <skull_vertices+0x38>
    30e4: 86 69        	stx	$69                     ; 0x69 <skull_vertices+0x39>
    30e6: a6 12        	ldx	$12                     ; 0x12 <__rc2>
    30e8: 86 6a        	stx	$6a                     ; 0x6a <skull_vertices+0x3a>
    30ea: a6 13        	ldx	$13                     ; 0x13 <__rc3>
    30ec: 86 6b        	stx	$6b                     ; 0x6b <skull_vertices+0x3b>
    30ee: a5 70        	lda	$70                     ; 0x70 <skull_vertices+0x40>
    30f0: a6 71        	ldx	$71                     ; 0x71 <skull_vertices+0x41>
    30f2: a4 72        	ldy	$72                     ; 0x72 <skull_vertices+0x42>
    30f4: 84 16        	sty	$16                     ; 0x16 <__rc6>
    30f6: a4 73        	ldy	$73                     ; 0x73 <skull_vertices+0x43>
    30f8: 85 14        	sta	$14                     ; 0x14 <__rc4>
    30fa: 86 15        	stx	$15                     ; 0x15 <__rc5>
    30fc: a6 28        	ldx	$28                     ; 0x28 <__rc24>
    30fe: 86 12        	stx	$12                     ; 0x12 <__rc2>
    3100: a6 29        	ldx	$29                     ; 0x29 <__rc25>
    3102: 86 13        	stx	$13                     ; 0x13 <__rc3>
    3104: 84 17        	sty	$17                     ; 0x17 <__rc7>
    3106: a2 98        	ldx	#$98
    3108: a9 fe        	lda	#$fe
    310a: 20 ea 05     	jsr	$5ea <mathFloatMul>
    310d: 85 24        	sta	$24                     ; 0x24 <__rc20>
    310f: 86 25        	stx	$25                     ; 0x25 <__rc21>
    3111: a6 12        	ldx	$12                     ; 0x12 <__rc2>
    3113: 86 26        	stx	$26                     ; 0x26 <__rc22>
    3115: a6 13        	ldx	$13                     ; 0x13 <__rc3>
    3117: 86 27        	stx	$27                     ; 0x27 <__rc23>
    3119: a5 74        	lda	$74                     ; 0x74 <skull_vertices+0x44>
    311b: a6 75        	ldx	$75                     ; 0x75 <skull_vertices+0x45>
    311d: a4 76        	ldy	$76                     ; 0x76 <skull_vertices+0x46>
    311f: 84 16        	sty	$16                     ; 0x16 <__rc6>
    3121: a4 77        	ldy	$77                     ; 0x77 <skull_vertices+0x47>
    3123: 85 14        	sta	$14                     ; 0x14 <__rc4>
    3125: 86 15        	stx	$15                     ; 0x15 <__rc5>
    3127: a6 2a        	ldx	$2a                     ; 0x2a <__rc26>
    3129: 86 12        	stx	$12                     ; 0x12 <__rc2>
    312b: a6 2b        	ldx	$2b                     ; 0x2b <__rc27>
    312d: 86 13        	stx	$13                     ; 0x13 <__rc3>
    312f: 84 17        	sty	$17                     ; 0x17 <__rc7>
    3131: a2 12        	ldx	#$12
    3133: a9 c7        	lda	#$c7
    3135: 20 ea 05     	jsr	$5ea <mathFloatMul>
    3138: 85 14        	sta	$14                     ; 0x14 <__rc4>
    313a: 86 15        	stx	$15                     ; 0x15 <__rc5>
    313c: a6 12        	ldx	$12                     ; 0x12 <__rc2>
    313e: a4 13        	ldy	$13                     ; 0x13 <__rc3>
    3140: a5 26        	lda	$26                     ; 0x26 <__rc22>
    3142: 85 12        	sta	$12                     ; 0x12 <__rc2>
    3144: a5 27        	lda	$27                     ; 0x27 <__rc23>
    3146: 85 13        	sta	$13                     ; 0x13 <__rc3>
    3148: 86 16        	stx	$16                     ; 0x16 <__rc6>
    314a: 84 17        	sty	$17                     ; 0x17 <__rc7>
    314c: a6 25        	ldx	$25                     ; 0x25 <__rc21>
    314e: a5 24        	lda	$24                     ; 0x24 <__rc20>
    3150: 20 99 05     	jsr	$599 <mathFloatSub>
    3153: 85 2c        	sta	$2c                     ; 0x2c <__rc28>
    3155: 86 2d        	stx	$2d                     ; 0x2d <__rc29>
    3157: a6 12        	ldx	$12                     ; 0x12 <__rc2>
    3159: 86 2e        	stx	$2e                     ; 0x2e <__rc30>
    315b: a6 13        	ldx	$13                     ; 0x13 <__rc3>
    315d: 86 2f        	stx	$2f                     ; 0x2f <__rc31>
    315f: a5 70        	lda	$70                     ; 0x70 <skull_vertices+0x40>
    3161: a6 71        	ldx	$71                     ; 0x71 <skull_vertices+0x41>
    3163: a4 72        	ldy	$72                     ; 0x72 <skull_vertices+0x42>
    3165: 84 16        	sty	$16                     ; 0x16 <__rc6>
    3167: a4 73        	ldy	$73                     ; 0x73 <skull_vertices+0x43>
    3169: 85 14        	sta	$14                     ; 0x14 <__rc4>
    316b: 86 15        	stx	$15                     ; 0x15 <__rc5>
    316d: a6 2a        	ldx	$2a                     ; 0x2a <__rc26>
    316f: 86 12        	stx	$12                     ; 0x12 <__rc2>
    3171: a6 2b        	ldx	$2b                     ; 0x2b <__rc27>
    3173: 86 13        	stx	$13                     ; 0x13 <__rc3>
    3175: 84 17        	sty	$17                     ; 0x17 <__rc7>
    3177: a2 12        	ldx	#$12
    3179: a9 c7        	lda	#$c7
    317b: 20 ea 05     	jsr	$5ea <mathFloatMul>
    317e: 85 24        	sta	$24                     ; 0x24 <__rc20>
    3180: 86 25        	stx	$25                     ; 0x25 <__rc21>
    3182: a6 12        	ldx	$12                     ; 0x12 <__rc2>
    3184: 86 26        	stx	$26                     ; 0x26 <__rc22>
    3186: a6 13        	ldx	$13                     ; 0x13 <__rc3>
    3188: 86 27        	stx	$27                     ; 0x27 <__rc23>
    318a: a5 74        	lda	$74                     ; 0x74 <skull_vertices+0x44>
    318c: a6 75        	ldx	$75                     ; 0x75 <skull_vertices+0x45>
    318e: a4 76        	ldy	$76                     ; 0x76 <skull_vertices+0x46>
    3190: 84 16        	sty	$16                     ; 0x16 <__rc6>
    3192: a4 77        	ldy	$77                     ; 0x77 <skull_vertices+0x47>
    3194: 85 14        	sta	$14                     ; 0x14 <__rc4>
    3196: 86 15        	stx	$15                     ; 0x15 <__rc5>
    3198: a6 28        	ldx	$28                     ; 0x28 <__rc24>
    319a: 86 12        	stx	$12                     ; 0x12 <__rc2>
    319c: a6 29        	ldx	$29                     ; 0x29 <__rc25>
    319e: 86 13        	stx	$13                     ; 0x13 <__rc3>
    31a0: 84 17        	sty	$17                     ; 0x17 <__rc7>
    31a2: a2 98        	ldx	#$98
    31a4: a9 fe        	lda	#$fe
    31a6: 20 ea 05     	jsr	$5ea <mathFloatMul>
    31a9: 85 14        	sta	$14                     ; 0x14 <__rc4>
    31ab: 86 15        	stx	$15                     ; 0x15 <__rc5>
    31ad: a6 12        	ldx	$12                     ; 0x12 <__rc2>
    31af: a4 13        	ldy	$13                     ; 0x13 <__rc3>
    31b1: a5 26        	lda	$26                     ; 0x26 <__rc22>
    31b3: 85 12        	sta	$12                     ; 0x12 <__rc2>
    31b5: a5 27        	lda	$27                     ; 0x27 <__rc23>
    31b7: 85 13        	sta	$13                     ; 0x13 <__rc3>
    31b9: 86 16        	stx	$16                     ; 0x16 <__rc6>
    31bb: 84 17        	sty	$17                     ; 0x17 <__rc7>
    31bd: a6 25        	ldx	$25                     ; 0x25 <__rc21>
    31bf: a5 24        	lda	$24                     ; 0x24 <__rc20>
    31c1: 20 48 05     	jsr	$548 <mathFloatAdd>
    31c4: a4 2c        	ldy	$2c                     ; 0x2c <__rc28>
    31c6: 84 70        	sty	$70                     ; 0x70 <skull_vertices+0x40>
    31c8: a4 2d        	ldy	$2d                     ; 0x2d <__rc29>
    31ca: 84 71        	sty	$71                     ; 0x71 <skull_vertices+0x41>
    31cc: a4 2e        	ldy	$2e                     ; 0x2e <__rc30>
    31ce: 84 72        	sty	$72                     ; 0x72 <skull_vertices+0x42>
    31d0: a4 2f        	ldy	$2f                     ; 0x2f <__rc31>
    31d2: 84 73        	sty	$73                     ; 0x73 <skull_vertices+0x43>
    31d4: 85 74        	sta	$74                     ; 0x74 <skull_vertices+0x44>
    31d6: 86 75        	stx	$75                     ; 0x75 <skull_vertices+0x45>
    31d8: a6 12        	ldx	$12                     ; 0x12 <__rc2>
    31da: 86 76        	stx	$76                     ; 0x76 <skull_vertices+0x46>
    31dc: a6 13        	ldx	$13                     ; 0x13 <__rc3>
    31de: 86 77        	stx	$77                     ; 0x77 <skull_vertices+0x47>
    31e0: a5 7c        	lda	$7c                     ; 0x7c <skull_vertices+0x4c>
    31e2: a6 7d        	ldx	$7d                     ; 0x7d <skull_vertices+0x4d>
    31e4: a4 7e        	ldy	$7e                     ; 0x7e <skull_vertices+0x4e>
    31e6: 84 16        	sty	$16                     ; 0x16 <__rc6>
    31e8: a4 7f        	ldy	$7f                     ; 0x7f <skull_vertices+0x4f>
    31ea: 85 14        	sta	$14                     ; 0x14 <__rc4>
    31ec: 86 15        	stx	$15                     ; 0x15 <__rc5>
    31ee: a6 28        	ldx	$28                     ; 0x28 <__rc24>
    31f0: 86 12        	stx	$12                     ; 0x12 <__rc2>
    31f2: a6 29        	ldx	$29                     ; 0x29 <__rc25>
    31f4: 86 13        	stx	$13                     ; 0x13 <__rc3>
    31f6: 84 17        	sty	$17                     ; 0x17 <__rc7>
    31f8: a2 98        	ldx	#$98
    31fa: a9 fe        	lda	#$fe
    31fc: 20 ea 05     	jsr	$5ea <mathFloatMul>
    31ff: 85 24        	sta	$24                     ; 0x24 <__rc20>
    3201: 86 25        	stx	$25                     ; 0x25 <__rc21>
    3203: a6 12        	ldx	$12                     ; 0x12 <__rc2>
    3205: 86 26        	stx	$26                     ; 0x26 <__rc22>
    3207: a6 13        	ldx	$13                     ; 0x13 <__rc3>
    3209: 86 27        	stx	$27                     ; 0x27 <__rc23>
    320b: a5 80        	lda	$80                     ; 0x80 <skull_vertices+0x50>
    320d: a6 81        	ldx	$81                     ; 0x81 <skull_vertices+0x51>
    320f: a4 82        	ldy	$82                     ; 0x82 <skull_vertices+0x52>
    3211: 84 16        	sty	$16                     ; 0x16 <__rc6>
    3213: a4 83        	ldy	$83                     ; 0x83 <skull_vertices+0x53>
    3215: 85 14        	sta	$14                     ; 0x14 <__rc4>
    3217: 86 15        	stx	$15                     ; 0x15 <__rc5>
    3219: a6 2a        	ldx	$2a                     ; 0x2a <__rc26>
    321b: 86 12        	stx	$12                     ; 0x12 <__rc2>
    321d: a6 2b        	ldx	$2b                     ; 0x2b <__rc27>
    321f: 86 13        	stx	$13                     ; 0x13 <__rc3>
    3221: 84 17        	sty	$17                     ; 0x17 <__rc7>
    3223: a2 12        	ldx	#$12
    3225: a9 c7        	lda	#$c7
    3227: 20 ea 05     	jsr	$5ea <mathFloatMul>
    322a: 85 14        	sta	$14                     ; 0x14 <__rc4>
    322c: 86 15        	stx	$15                     ; 0x15 <__rc5>
    322e: a6 12        	ldx	$12                     ; 0x12 <__rc2>
    3230: a4 13        	ldy	$13                     ; 0x13 <__rc3>
    3232: a5 26        	lda	$26                     ; 0x26 <__rc22>
    3234: 85 12        	sta	$12                     ; 0x12 <__rc2>
    3236: a5 27        	lda	$27                     ; 0x27 <__rc23>
    3238: 85 13        	sta	$13                     ; 0x13 <__rc3>
    323a: 86 16        	stx	$16                     ; 0x16 <__rc6>
    323c: 84 17        	sty	$17                     ; 0x17 <__rc7>
    323e: a6 25        	ldx	$25                     ; 0x25 <__rc21>
    3240: a5 24        	lda	$24                     ; 0x24 <__rc20>
    3242: 20 99 05     	jsr	$599 <mathFloatSub>
    3245: 85 2c        	sta	$2c                     ; 0x2c <__rc28>
    3247: 86 2d        	stx	$2d                     ; 0x2d <__rc29>
    3249: a6 12        	ldx	$12                     ; 0x12 <__rc2>
    324b: 86 2e        	stx	$2e                     ; 0x2e <__rc30>
    324d: a6 13        	ldx	$13                     ; 0x13 <__rc3>
    324f: 86 2f        	stx	$2f                     ; 0x2f <__rc31>
    3251: a5 7c        	lda	$7c                     ; 0x7c <skull_vertices+0x4c>
    3253: a6 7d        	ldx	$7d                     ; 0x7d <skull_vertices+0x4d>
    3255: a4 7e        	ldy	$7e                     ; 0x7e <skull_vertices+0x4e>
    3257: 84 16        	sty	$16                     ; 0x16 <__rc6>
    3259: a4 7f        	ldy	$7f                     ; 0x7f <skull_vertices+0x4f>
    325b: 85 14        	sta	$14                     ; 0x14 <__rc4>
    325d: 86 15        	stx	$15                     ; 0x15 <__rc5>
    325f: a6 2a        	ldx	$2a                     ; 0x2a <__rc26>
    3261: 86 12        	stx	$12                     ; 0x12 <__rc2>
    3263: a6 2b        	ldx	$2b                     ; 0x2b <__rc27>
    3265: 86 13        	stx	$13                     ; 0x13 <__rc3>
    3267: 84 17        	sty	$17                     ; 0x17 <__rc7>
    3269: a2 12        	ldx	#$12
    326b: a9 c7        	lda	#$c7
    326d: 20 ea 05     	jsr	$5ea <mathFloatMul>
    3270: 85 24        	sta	$24                     ; 0x24 <__rc20>
    3272: 86 25        	stx	$25                     ; 0x25 <__rc21>
    3274: a6 12        	ldx	$12                     ; 0x12 <__rc2>
    3276: 86 26        	stx	$26                     ; 0x26 <__rc22>
    3278: a6 13        	ldx	$13                     ; 0x13 <__rc3>
    327a: 86 27        	stx	$27                     ; 0x27 <__rc23>
    327c: a5 80        	lda	$80                     ; 0x80 <skull_vertices+0x50>
    327e: a6 81        	ldx	$81                     ; 0x81 <skull_vertices+0x51>
    3280: a4 82        	ldy	$82                     ; 0x82 <skull_vertices+0x52>
    3282: 84 16        	sty	$16                     ; 0x16 <__rc6>
    3284: a4 83        	ldy	$83                     ; 0x83 <skull_vertices+0x53>
    3286: 85 14        	sta	$14                     ; 0x14 <__rc4>
    3288: 86 15        	stx	$15                     ; 0x15 <__rc5>
    328a: a6 28        	ldx	$28                     ; 0x28 <__rc24>
    328c: 86 12        	stx	$12                     ; 0x12 <__rc2>
    328e: a6 29        	ldx	$29                     ; 0x29 <__rc25>
    3290: 86 13        	stx	$13                     ; 0x13 <__rc3>
    3292: 84 17        	sty	$17                     ; 0x17 <__rc7>
    3294: a2 98        	ldx	#$98
    3296: a9 fe        	lda	#$fe
    3298: 20 ea 05     	jsr	$5ea <mathFloatMul>
    329b: 85 14        	sta	$14                     ; 0x14 <__rc4>
    329d: 86 15        	stx	$15                     ; 0x15 <__rc5>
    329f: a6 12        	ldx	$12                     ; 0x12 <__rc2>
    32a1: a4 13        	ldy	$13                     ; 0x13 <__rc3>
    32a3: a5 26        	lda	$26                     ; 0x26 <__rc22>
    32a5: 85 12        	sta	$12                     ; 0x12 <__rc2>
    32a7: a5 27        	lda	$27                     ; 0x27 <__rc23>
    32a9: 85 13        	sta	$13                     ; 0x13 <__rc3>
    32ab: 86 16        	stx	$16                     ; 0x16 <__rc6>
    32ad: 84 17        	sty	$17                     ; 0x17 <__rc7>
    32af: a6 25        	ldx	$25                     ; 0x25 <__rc21>
    32b1: a5 24        	lda	$24                     ; 0x24 <__rc20>
    32b3: 20 48 05     	jsr	$548 <mathFloatAdd>
    32b6: a4 2c        	ldy	$2c                     ; 0x2c <__rc28>
    32b8: 84 7c        	sty	$7c                     ; 0x7c <skull_vertices+0x4c>
    32ba: a4 2d        	ldy	$2d                     ; 0x2d <__rc29>
    32bc: 84 7d        	sty	$7d                     ; 0x7d <skull_vertices+0x4d>
    32be: a4 2e        	ldy	$2e                     ; 0x2e <__rc30>
    32c0: 84 7e        	sty	$7e                     ; 0x7e <skull_vertices+0x4e>
    32c2: a4 2f        	ldy	$2f                     ; 0x2f <__rc31>
    32c4: 84 7f        	sty	$7f                     ; 0x7f <skull_vertices+0x4f>
    32c6: 85 80        	sta	$80                     ; 0x80 <skull_vertices+0x50>
    32c8: 86 81        	stx	$81                     ; 0x81 <skull_vertices+0x51>
    32ca: a6 12        	ldx	$12                     ; 0x12 <__rc2>
    32cc: 86 82        	stx	$82                     ; 0x82 <skull_vertices+0x52>
    32ce: a6 13        	ldx	$13                     ; 0x13 <__rc3>
    32d0: 86 83        	stx	$83                     ; 0x83 <skull_vertices+0x53>
    32d2: a5 88        	lda	$88                     ; 0x88 <skull_vertices+0x58>
    32d4: a6 89        	ldx	$89                     ; 0x89 <skull_vertices+0x59>
    32d6: a4 8a        	ldy	$8a                     ; 0x8a <skull_vertices+0x5a>
    32d8: 84 16        	sty	$16                     ; 0x16 <__rc6>
    32da: a4 8b        	ldy	$8b                     ; 0x8b <skull_vertices+0x5b>
    32dc: 85 14        	sta	$14                     ; 0x14 <__rc4>
    32de: 86 15        	stx	$15                     ; 0x15 <__rc5>
    32e0: a6 28        	ldx	$28                     ; 0x28 <__rc24>
    32e2: 86 12        	stx	$12                     ; 0x12 <__rc2>
    32e4: a6 29        	ldx	$29                     ; 0x29 <__rc25>
    32e6: 86 13        	stx	$13                     ; 0x13 <__rc3>
    32e8: 84 17        	sty	$17                     ; 0x17 <__rc7>
    32ea: a2 98        	ldx	#$98
    32ec: a9 fe        	lda	#$fe
    32ee: 20 ea 05     	jsr	$5ea <mathFloatMul>
    32f1: 85 24        	sta	$24                     ; 0x24 <__rc20>
    32f3: 86 25        	stx	$25                     ; 0x25 <__rc21>
    32f5: a6 12        	ldx	$12                     ; 0x12 <__rc2>
    32f7: 86 26        	stx	$26                     ; 0x26 <__rc22>
    32f9: a6 13        	ldx	$13                     ; 0x13 <__rc3>
    32fb: 86 27        	stx	$27                     ; 0x27 <__rc23>
    32fd: a5 8c        	lda	$8c                     ; 0x8c <skull_vertices+0x5c>
    32ff: a6 8d        	ldx	$8d                     ; 0x8d <skull_vertices+0x5d>
    3301: a4 8e        	ldy	$8e                     ; 0x8e <skull_vertices+0x5e>
    3303: 84 16        	sty	$16                     ; 0x16 <__rc6>
    3305: a4 8f        	ldy	$8f                     ; 0x8f <skull_vertices+0x5f>
    3307: 85 14        	sta	$14                     ; 0x14 <__rc4>
    3309: 86 15        	stx	$15                     ; 0x15 <__rc5>
    330b: a6 2a        	ldx	$2a                     ; 0x2a <__rc26>
    330d: 86 12        	stx	$12                     ; 0x12 <__rc2>
    330f: a6 2b        	ldx	$2b                     ; 0x2b <__rc27>
    3311: 86 13        	stx	$13                     ; 0x13 <__rc3>
    3313: 84 17        	sty	$17                     ; 0x17 <__rc7>
    3315: a2 12        	ldx	#$12
    3317: a9 c7        	lda	#$c7
    3319: 20 ea 05     	jsr	$5ea <mathFloatMul>
    331c: 85 14        	sta	$14                     ; 0x14 <__rc4>
    331e: 86 15        	stx	$15                     ; 0x15 <__rc5>
    3320: a6 12        	ldx	$12                     ; 0x12 <__rc2>
    3322: a4 13        	ldy	$13                     ; 0x13 <__rc3>
    3324: a5 26        	lda	$26                     ; 0x26 <__rc22>
    3326: 85 12        	sta	$12                     ; 0x12 <__rc2>
    3328: a5 27        	lda	$27                     ; 0x27 <__rc23>
    332a: 85 13        	sta	$13                     ; 0x13 <__rc3>
    332c: 86 16        	stx	$16                     ; 0x16 <__rc6>
    332e: 84 17        	sty	$17                     ; 0x17 <__rc7>
    3330: a6 25        	ldx	$25                     ; 0x25 <__rc21>
    3332: a5 24        	lda	$24                     ; 0x24 <__rc20>
    3334: 20 99 05     	jsr	$599 <mathFloatSub>
    3337: 85 2c        	sta	$2c                     ; 0x2c <__rc28>
    3339: 86 2d        	stx	$2d                     ; 0x2d <__rc29>
    333b: a6 12        	ldx	$12                     ; 0x12 <__rc2>
    333d: 86 2e        	stx	$2e                     ; 0x2e <__rc30>
    333f: a6 13        	ldx	$13                     ; 0x13 <__rc3>
    3341: 86 2f        	stx	$2f                     ; 0x2f <__rc31>
    3343: a6 88        	ldx	$88                     ; 0x88 <skull_vertices+0x58>
    3345: 86 14        	stx	$14                     ; 0x14 <__rc4>
    3347: a4 89        	ldy	$89                     ; 0x89 <skull_vertices+0x59>
    3349: a5 8a        	lda	$8a                     ; 0x8a <skull_vertices+0x5a>
    334b: a6 8b        	ldx	$8b                     ; 0x8b <skull_vertices+0x5b>
    334d: 5a           	phy
    334e: a4 2a        	ldy	$2a                     ; 0x2a <__rc26>
    3350: 84 12        	sty	$12                     ; 0x12 <__rc2>
    3352: a4 2b        	ldy	$2b                     ; 0x2b <__rc27>
    3354: 84 13        	sty	$13                     ; 0x13 <__rc3>
    3356: 7a           	ply
    3357: 84 15        	sty	$15                     ; 0x15 <__rc5>
    3359: 85 16        	sta	$16                     ; 0x16 <__rc6>
    335b: 86 17        	stx	$17                     ; 0x17 <__rc7>
    335d: a2 12        	ldx	#$12
    335f: a9 c7        	lda	#$c7
    3361: 20 ea 05     	jsr	$5ea <mathFloatMul>
    3364: 85 24        	sta	$24                     ; 0x24 <__rc20>
    3366: 86 25        	stx	$25                     ; 0x25 <__rc21>
    3368: a6 12        	ldx	$12                     ; 0x12 <__rc2>
    336a: 86 26        	stx	$26                     ; 0x26 <__rc22>
    336c: a6 13        	ldx	$13                     ; 0x13 <__rc3>
    336e: 86 27        	stx	$27                     ; 0x27 <__rc23>
    3370: a6 8c        	ldx	$8c                     ; 0x8c <skull_vertices+0x5c>
    3372: 86 14        	stx	$14                     ; 0x14 <__rc4>
    3374: a4 8d        	ldy	$8d                     ; 0x8d <skull_vertices+0x5d>
    3376: a5 8e        	lda	$8e                     ; 0x8e <skull_vertices+0x5e>
    3378: a6 8f        	ldx	$8f                     ; 0x8f <skull_vertices+0x5f>
    337a: 5a           	phy
    337b: a4 28        	ldy	$28                     ; 0x28 <__rc24>
    337d: 84 12        	sty	$12                     ; 0x12 <__rc2>
    337f: a4 29        	ldy	$29                     ; 0x29 <__rc25>
    3381: 84 13        	sty	$13                     ; 0x13 <__rc3>
    3383: 7a           	ply
    3384: 84 15        	sty	$15                     ; 0x15 <__rc5>
    3386: 85 16        	sta	$16                     ; 0x16 <__rc6>
    3388: 86 17        	stx	$17                     ; 0x17 <__rc7>
    338a: a2 98        	ldx	#$98
    338c: a9 fe        	lda	#$fe
    338e: 20 ea 05     	jsr	$5ea <mathFloatMul>
    3391: 85 14        	sta	$14                     ; 0x14 <__rc4>
    3393: 86 15        	stx	$15                     ; 0x15 <__rc5>
    3395: a6 12        	ldx	$12                     ; 0x12 <__rc2>
    3397: a4 13        	ldy	$13                     ; 0x13 <__rc3>
    3399: a5 26        	lda	$26                     ; 0x26 <__rc22>
    339b: 85 12        	sta	$12                     ; 0x12 <__rc2>
    339d: a5 27        	lda	$27                     ; 0x27 <__rc23>
    339f: 85 13        	sta	$13                     ; 0x13 <__rc3>
    33a1: 86 16        	stx	$16                     ; 0x16 <__rc6>
    33a3: 84 17        	sty	$17                     ; 0x17 <__rc7>
    33a5: a6 25        	ldx	$25                     ; 0x25 <__rc21>
    33a7: a5 24        	lda	$24                     ; 0x24 <__rc20>
    33a9: 20 48 05     	jsr	$548 <mathFloatAdd>
    33ac: a4 2c        	ldy	$2c                     ; 0x2c <__rc28>
    33ae: 84 88        	sty	$88                     ; 0x88 <skull_vertices+0x58>
    33b0: a4 2d        	ldy	$2d                     ; 0x2d <__rc29>
    33b2: 84 89        	sty	$89                     ; 0x89 <skull_vertices+0x59>
    33b4: a4 2e        	ldy	$2e                     ; 0x2e <__rc30>
    33b6: 84 8a        	sty	$8a                     ; 0x8a <skull_vertices+0x5a>
    33b8: a4 2f        	ldy	$2f                     ; 0x2f <__rc31>
    33ba: 84 8b        	sty	$8b                     ; 0x8b <skull_vertices+0x5b>
    33bc: 85 8c        	sta	$8c                     ; 0x8c <skull_vertices+0x5c>
    33be: 86 8d        	stx	$8d                     ; 0x8d <skull_vertices+0x5d>
    33c0: a6 12        	ldx	$12                     ; 0x12 <__rc2>
    33c2: 86 8e        	stx	$8e                     ; 0x8e <skull_vertices+0x5e>
    33c4: a6 13        	ldx	$13                     ; 0x13 <__rc3>
    33c6: 86 8f        	stx	$8f                     ; 0x8f <skull_vertices+0x5f>
    33c8: a0 00        	ldy	#$0
    33ca: b1 10        	lda	($10),y                 ; 0x10 <__rc0>
    33cc: 85 2f        	sta	$2f                     ; 0x2f <__rc31>
    33ce: c8           	iny
    33cf: b1 10        	lda	($10),y                 ; 0x10 <__rc0>
    33d1: 85 2e        	sta	$2e                     ; 0x2e <__rc30>
    33d3: c8           	iny
    33d4: b1 10        	lda	($10),y                 ; 0x10 <__rc0>
    33d6: 85 2d        	sta	$2d                     ; 0x2d <__rc29>
    33d8: c8           	iny
    33d9: b1 10        	lda	($10),y                 ; 0x10 <__rc0>
    33db: 85 2c        	sta	$2c                     ; 0x2c <__rc28>
    33dd: c8           	iny
    33de: b1 10        	lda	($10),y                 ; 0x10 <__rc0>
    33e0: 85 2b        	sta	$2b                     ; 0x2b <__rc27>
    33e2: c8           	iny
    33e3: b1 10        	lda	($10),y                 ; 0x10 <__rc0>
    33e5: 85 2a        	sta	$2a                     ; 0x2a <__rc26>
    33e7: c8           	iny
    33e8: b1 10        	lda	($10),y                 ; 0x10 <__rc0>
    33ea: 85 29        	sta	$29                     ; 0x29 <__rc25>
    33ec: c8           	iny
    33ed: b1 10        	lda	($10),y                 ; 0x10 <__rc0>
    33ef: 85 28        	sta	$28                     ; 0x28 <__rc24>
    33f1: fa           	plx
    33f2: 86 27        	stx	$27                     ; 0x27 <__rc23>
    33f4: fa           	plx
    33f5: 86 26        	stx	$26                     ; 0x26 <__rc22>
    33f7: fa           	plx
    33f8: 86 25        	stx	$25                     ; 0x25 <__rc21>
    33fa: fa           	plx
    33fb: 86 24        	stx	$24                     ; 0x24 <__rc20>
    33fd: 18           	clc
    33fe: a5 10        	lda	$10                     ; 0x10 <__rc0>
    3400: 69 08        	adc	#$8
    3402: 85 10        	sta	$10                     ; 0x10 <__rc0>
    3404: a5 11        	lda	$11                     ; 0x11 <__rc1>
    3406: 69 00        	adc	#$0
    3408: 85 11        	sta	$11                     ; 0x11 <__rc1>
    340a: 60           	rts

0000340b <redraw>:
    340b: 48           	pha
    340c: 18           	clc
    340d: a5 10        	lda	$10                     ; 0x10 <__rc0>
    340f: 69 f6        	adc	#$f6
    3411: 85 10        	sta	$10                     ; 0x10 <__rc0>
    3413: a5 11        	lda	$11                     ; 0x11 <__rc1>
    3415: 69 ff        	adc	#$ff
    3417: 85 11        	sta	$11                     ; 0x11 <__rc1>
    3419: 68           	pla
    341a: a6 24        	ldx	$24                     ; 0x24 <__rc20>
    341c: da           	phx
    341d: a6 25        	ldx	$25                     ; 0x25 <__rc21>
    341f: da           	phx
    3420: a6 26        	ldx	$26                     ; 0x26 <__rc22>
    3422: da           	phx
    3423: a6 27        	ldx	$27                     ; 0x27 <__rc23>
    3425: da           	phx
    3426: 48           	pha
    3427: a5 28        	lda	$28                     ; 0x28 <__rc24>
    3429: a0 07        	ldy	#$7
    342b: 91 10        	sta	($10),y                 ; 0x10 <__rc0>
    342d: a5 29        	lda	$29                     ; 0x29 <__rc25>
    342f: 88           	dey
    3430: 91 10        	sta	($10),y                 ; 0x10 <__rc0>
    3432: a5 2a        	lda	$2a                     ; 0x2a <__rc26>
    3434: 88           	dey
    3435: 91 10        	sta	($10),y                 ; 0x10 <__rc0>
    3437: a5 2b        	lda	$2b                     ; 0x2b <__rc27>
    3439: 88           	dey
    343a: 91 10        	sta	($10),y                 ; 0x10 <__rc0>
    343c: a5 2c        	lda	$2c                     ; 0x2c <__rc28>
    343e: 88           	dey
    343f: 91 10        	sta	($10),y                 ; 0x10 <__rc0>
    3441: a5 2d        	lda	$2d                     ; 0x2d <__rc29>
    3443: 88           	dey
    3444: 91 10        	sta	($10),y                 ; 0x10 <__rc0>
    3446: a5 2e        	lda	$2e                     ; 0x2e <__rc30>
    3448: 88           	dey
    3449: 91 10        	sta	($10),y                 ; 0x10 <__rc0>
    344b: a5 2f        	lda	$2f                     ; 0x2f <__rc31>
    344d: 88           	dey
    344e: 91 10        	sta	($10),y                 ; 0x10 <__rc0>
    3450: 68           	pla
    3451: 85 12        	sta	$12                     ; 0x12 <__rc2>
    3453: c8           	iny
    3454: a2 01        	ldx	#$1
    3456: 86 15        	stx	$15                     ; 0x15 <__rc5>
    3458: 8c 0a d0     	sty	$d00a                   ; 0xd00a <end_block9+0x8d78>
    345b: 09 01        	ora	#$1
    345d: 85 28        	sta	$28                     ; 0x28 <__rc24>
    345f: a5 12        	lda	$12                     ; 0x12 <__rc2>
    3461: 09 03        	ora	#$3
    3463: 85 26        	sta	$26                     ; 0x26 <__rc22>
    3465: 64 14        	stz	$14                     ; 0x14 <__rc4>
    3467: ca           	dex
    3468: 86 1a        	stx	$1a                     ; 0x1a <__rc10>
    346a: a2 08        	ldx	#$8
    346c: 86 19        	stx	$19                     ; 0x19 <__rc9>
    346e: a2 43        	ldx	#$43
    3470: 86 18        	stx	$18                     ; 0x18 <__rc8>
    3472: a9 00        	lda	#$0
    3474: 64 12        	stz	$12                     ; 0x12 <__rc2>
    3476: 48           	pha
    3477: a9 00        	lda	#$0
    3479: a0 09        	ldy	#$9
    347b: 91 10        	sta	($10),y                 ; 0x10 <__rc0>
    347d: 88           	dey
    347e: 91 10        	sta	($10),y                 ; 0x10 <__rc0>
    3480: 68           	pla
    3481: a2 03        	ldx	#$3
    3483: 86 1b        	stx	$1b                     ; 0x1b <__rc11>
    3485: 80 30        	bra	$34b7 <redraw+0xac>
    3487: c0 00        	cpy	#$0
    3489: 90 03        	bcc	$348e <redraw+0x83>
    348b: 4c a2 3d     	jmp	$3da2 <redraw+0x997>
    348e: 18           	clc
    348f: 5a           	phy
    3490: a0 09        	ldy	#$9
    3492: b1 10        	lda	($10),y                 ; 0x10 <__rc0>
    3494: 69 03        	adc	#$3
    3496: 91 10        	sta	($10),y                 ; 0x10 <__rc0>
    3498: 7a           	ply
    3499: 98           	tya
    349a: 69 00        	adc	#$0
    349c: a0 08        	ldy	#$8
    349e: 91 10        	sta	($10),y                 ; 0x10 <__rc0>
    34a0: 18           	clc
    34a1: a5 2b        	lda	$2b                     ; 0x2b <__rc27>
    34a3: 69 06        	adc	#$6
    34a5: 64 14        	stz	$14                     ; 0x14 <__rc4>
    34a7: a2 08        	ldx	#$8
    34a9: 86 19        	stx	$19                     ; 0x19 <__rc9>
    34ab: a0 43        	ldy	#$43
    34ad: 84 18        	sty	$18                     ; 0x18 <__rc8>
    34af: a6 16        	ldx	$16                     ; 0x16 <__rc6>
    34b1: 86 1b        	stx	$1b                     ; 0x1b <__rc11>
    34b3: a6 17        	ldx	$17                     ; 0x17 <__rc7>
    34b5: 86 15        	stx	$15                     ; 0x15 <__rc5>
    34b7: 85 2b        	sta	$2b                     ; 0x2b <__rc27>
    34b9: aa           	tax
    34ba: b5 90        	lda	$90,x                   ; 0x90 <skull_indices>
    34bc: b4 91        	ldy	$91,x                   ; 0x91 <skull_indices+0x1>
    34be: 84 12        	sty	$12                     ; 0x12 <__rc2>
    34c0: 0a           	asl
    34c1: 26 12        	rol	$12                     ; 0x12 <__rc2>
    34c3: a4 12        	ldy	$12                     ; 0x12 <__rc2>
    34c5: 84 13        	sty	$13                     ; 0x13 <__rc3>
    34c7: 0a           	asl
    34c8: 85 12        	sta	$12                     ; 0x12 <__rc2>
    34ca: 26 13        	rol	$13                     ; 0x13 <__rc3>
    34cc: a9 30        	lda	#$30
    34ce: a4 1a        	ldy	$1a                     ; 0x1a <__rc10>
    34d0: c0 01        	cpy	#$1
    34d2: 65 12        	adc	$12                     ; 0x12 <__rc2>
    34d4: 85 24        	sta	$24                     ; 0x24 <__rc20>
    34d6: a9 00        	lda	#$0
    34d8: 65 13        	adc	$13                     ; 0x13 <__rc3>
    34da: 85 13        	sta	$13                     ; 0x13 <__rc3>
    34dc: 18           	clc
    34dd: a5 24        	lda	$24                     ; 0x24 <__rc20>
    34df: 69 08        	adc	#$8
    34e1: 85 12        	sta	$12                     ; 0x12 <__rc2>
    34e3: a4 13        	ldy	$13                     ; 0x13 <__rc3>
    34e5: 84 25        	sty	$25                     ; 0x25 <__rc21>
    34e7: a5 13        	lda	$13                     ; 0x13 <__rc3>
    34e9: 69 00        	adc	#$0
    34eb: b4 92        	ldy	$92,x                   ; 0x92 <skull_indices+0x2>
    34ed: 84 2d        	sty	$2d                     ; 0x2d <__rc29>
    34ef: a4 12        	ldy	$12                     ; 0x12 <__rc2>
    34f1: 84 1c        	sty	$1c                     ; 0x1c <__rc12>
    34f3: b4 93        	ldy	$93,x                   ; 0x93 <skull_indices+0x3>
    34f5: 84 2c        	sty	$2c                     ; 0x2c <__rc28>
    34f7: 85 1d        	sta	$1d                     ; 0x1d <__rc13>
    34f9: b4 94        	ldy	$94,x                   ; 0x94 <skull_indices+0x4>
    34fb: 84 2a        	sty	$2a                     ; 0x2a <__rc26>
    34fd: b5 95        	lda	$95,x                   ; 0x95 <skull_indices+0x5>
    34ff: aa           	tax
    3500: 86 29        	stx	$29                     ; 0x29 <__rc25>
    3502: a6 13        	ldx	$13                     ; 0x13 <__rc3>
    3504: 86 2f        	stx	$2f                     ; 0x2f <__rc31>
    3506: a4 19        	ldy	$19                     ; 0x19 <__rc9>
    3508: b1 24        	lda	($24),y                 ; 0x24 <__rc20>
    350a: 85 19        	sta	$19                     ; 0x19 <__rc9>
    350c: a2 01        	ldx	#$1
    350e: 86 27        	stx	$27                     ; 0x27 <__rc23>
    3510: a4 15        	ldy	$15                     ; 0x15 <__rc5>
    3512: b1 1c        	lda	($1c),y                 ; 0x1c <__rc12>
    3514: aa           	tax
    3515: a0 02        	ldy	#$2
    3517: b1 1c        	lda	($1c),y                 ; 0x1c <__rc12>
    3519: 85 12        	sta	$12                     ; 0x12 <__rc2>
    351b: 84 16        	sty	$16                     ; 0x16 <__rc6>
    351d: a4 1b        	ldy	$1b                     ; 0x1b <__rc11>
    351f: b1 1c        	lda	($1c),y                 ; 0x1c <__rc12>
    3521: 85 13        	sta	$13                     ; 0x13 <__rc3>
    3523: 64 15        	stz	$15                     ; 0x15 <__rc5>
    3525: a4 18        	ldy	$18                     ; 0x18 <__rc8>
    3527: 84 17        	sty	$17                     ; 0x17 <__rc7>
    3529: a5 19        	lda	$19                     ; 0x19 <__rc9>
    352b: 20 48 05     	jsr	$548 <mathFloatAdd>
    352e: 86 14        	stx	$14                     ; 0x14 <__rc4>
    3530: a6 12        	ldx	$12                     ; 0x12 <__rc2>
    3532: 06 12        	asl	$12                     ; 0x12 <__rc2>
    3534: a4 13        	ldy	$13                     ; 0x13 <__rc3>
    3536: 84 12        	sty	$12                     ; 0x12 <__rc2>
    3538: 26 12        	rol	$12                     ; 0x12 <__rc2>
    353a: a5 12        	lda	$12                     ; 0x12 <__rc2>
    353c: 18           	clc
    353d: 69 81        	adc	#$81
    353f: 64 1c        	stz	$1c                     ; 0x1c <__rc12>
    3541: 10 03        	bpl	$3546 <redraw+0x13b>
    3543: 4c a2 35     	jmp	$35a2 <redraw+0x197>
    3546: c9 0f        	cmp	#$f
    3548: 90 12        	bcc	$355c <redraw+0x151>
    354a: a9 00        	lda	#$0
    354c: a6 13        	ldx	$13                     ; 0x13 <__rc3>
    354e: 30 02        	bmi	$3552 <redraw+0x147>
    3550: a9 01        	lda	#$1
    3552: 4a           	lsr
    3553: a9 00        	lda	#$0
    3555: 6a           	ror
    3556: 10 1a        	bpl	$3572 <redraw+0x167>
    3558: a2 ff        	ldx	#$ff
    355a: 80 18        	bra	$3574 <redraw+0x169>
    355c: 8a           	txa
    355d: 09 80        	ora	#$80
    355f: a8           	tay
    3560: a6 12        	ldx	$12                     ; 0x12 <__rc2>
    3562: e0 87        	cpx	#$87
    3564: b0 15        	bcs	$357b <redraw+0x170>
    3566: a6 12        	ldx	$12                     ; 0x12 <__rc2>
    3568: e0 86        	cpx	#$86
    356a: f0 03        	beq	$356f <redraw+0x164>
    356c: 4c ed 3d     	jmp	$3ded <redraw+0x9e2>
    356f: 4c e8 3d     	jmp	$3de8 <redraw+0x9dd>
    3572: a2 00        	ldx	#$0
    3574: 0a           	asl
    3575: 86 1c        	stx	$1c                     ; 0x1c <__rc12>
    3577: 26 1c        	rol	$1c                     ; 0x1c <__rc12>
    3579: 80 27        	bra	$35a2 <redraw+0x197>
    357b: a9 72        	lda	#$72
    357d: a6 14        	ldx	$14                     ; 0x14 <__rc4>
    357f: 86 15        	stx	$15                     ; 0x15 <__rc5>
    3581: 18           	clc
    3582: 65 12        	adc	$12                     ; 0x12 <__rc2>
    3584: aa           	tax
    3585: 84 14        	sty	$14                     ; 0x14 <__rc4>
    3587: a5 15        	lda	$15                     ; 0x15 <__rc5>
    3589: 46 14        	lsr	$14                     ; 0x14 <__rc4>
    358b: 64 12        	stz	$12                     ; 0x12 <__rc2>
    358d: 66 12        	ror	$12                     ; 0x12 <__rc2>
    358f: 4a           	lsr
    3590: 05 12        	ora	$12                     ; 0x12 <__rc2>
    3592: e8           	inx
    3593: 85 12        	sta	$12                     ; 0x12 <__rc2>
    3595: d0 f2        	bne	$3589 <redraw+0x17e>
    3597: a6 13        	ldx	$13                     ; 0x13 <__rc3>
    3599: 10 05        	bpl	$35a0 <redraw+0x195>
    359b: 38           	sec
    359c: a9 00        	lda	#$0
    359e: e5 12        	sbc	$12                     ; 0x12 <__rc2>
    35a0: 85 1c        	sta	$1c                     ; 0x1c <__rc12>
    35a2: a0 02        	ldy	#$2
    35a4: b1 24        	lda	($24),y                 ; 0x24 <__rc20>
    35a6: aa           	tax
    35a7: c8           	iny
    35a8: b1 24        	lda	($24),y                 ; 0x24 <__rc20>
    35aa: a8           	tay
    35ab: 8a           	txa
    35ac: 0a           	asl
    35ad: 84 14        	sty	$14                     ; 0x14 <__rc4>
    35af: 26 14        	rol	$14                     ; 0x14 <__rc4>
    35b1: a5 14        	lda	$14                     ; 0x14 <__rc4>
    35b3: 18           	clc
    35b4: 69 81        	adc	#$81
    35b6: 64 12        	stz	$12                     ; 0x12 <__rc2>
    35b8: 64 19        	stz	$19                     ; 0x19 <__rc9>
    35ba: 64 1a        	stz	$1a                     ; 0x1a <__rc10>
    35bc: 10 03        	bpl	$35c1 <redraw+0x1b6>
    35be: 4c 2b 36     	jmp	$362b <redraw+0x220>
    35c1: 84 16        	sty	$16                     ; 0x16 <__rc6>
    35c3: c9 0f        	cmp	#$f
    35c5: 90 0f        	bcc	$35d6 <redraw+0x1cb>
    35c7: a5 16        	lda	$16                     ; 0x16 <__rc6>
    35c9: 30 4d        	bmi	$3618 <redraw+0x20d>
    35cb: a2 7f        	ldx	#$7f
    35cd: 86 1a        	stx	$1a                     ; 0x1a <__rc10>
    35cf: a2 ff        	ldx	#$ff
    35d1: 86 19        	stx	$19                     ; 0x19 <__rc9>
    35d3: 4c 2b 36     	jmp	$362b <redraw+0x220>
    35d6: 8a           	txa
    35d7: 09 80        	ora	#$80
    35d9: a6 14        	ldx	$14                     ; 0x14 <__rc4>
    35db: e0 87        	cpx	#$87
    35dd: b0 0e        	bcs	$35ed <redraw+0x1e2>
    35df: a0 7a        	ldy	#$7a
    35e1: 64 13        	stz	$13                     ; 0x13 <__rc3>
    35e3: a6 14        	ldx	$14                     ; 0x14 <__rc4>
    35e5: 85 15        	sta	$15                     ; 0x15 <__rc5>
    35e7: e0 86        	cpx	#$86
    35e9: d0 0a        	bne	$35f5 <redraw+0x1ea>
    35eb: 80 1f        	bra	$360c <redraw+0x201>
    35ed: a4 27        	ldy	$27                     ; 0x27 <__rc23>
    35ef: 85 13        	sta	$13                     ; 0x13 <__rc3>
    35f1: b1 24        	lda	($24),y                 ; 0x24 <__rc20>
    35f3: a0 72        	ldy	#$72
    35f5: 18           	clc
    35f6: 85 15        	sta	$15                     ; 0x15 <__rc5>
    35f8: 98           	tya
    35f9: 65 14        	adc	$14                     ; 0x14 <__rc4>
    35fb: aa           	tax
    35fc: a5 15        	lda	$15                     ; 0x15 <__rc5>
    35fe: 46 13        	lsr	$13                     ; 0x13 <__rc3>
    3600: 64 14        	stz	$14                     ; 0x14 <__rc4>
    3602: 66 14        	ror	$14                     ; 0x14 <__rc4>
    3604: 4a           	lsr
    3605: 05 14        	ora	$14                     ; 0x14 <__rc4>
    3607: e8           	inx
    3608: 85 15        	sta	$15                     ; 0x15 <__rc5>
    360a: d0 f2        	bne	$35fe <redraw+0x1f3>
    360c: a6 16        	ldx	$16                     ; 0x16 <__rc6>
    360e: 30 0e        	bmi	$361e <redraw+0x213>
    3610: 85 19        	sta	$19                     ; 0x19 <__rc9>
    3612: a6 13        	ldx	$13                     ; 0x13 <__rc3>
    3614: 86 1a        	stx	$1a                     ; 0x1a <__rc10>
    3616: 80 13        	bra	$362b <redraw+0x220>
    3618: a2 80        	ldx	#$80
    361a: 86 1a        	stx	$1a                     ; 0x1a <__rc10>
    361c: 80 0d        	bra	$362b <redraw+0x220>
    361e: 38           	sec
    361f: a9 00        	lda	#$0
    3621: e5 15        	sbc	$15                     ; 0x15 <__rc5>
    3623: 85 19        	sta	$19                     ; 0x19 <__rc9>
    3625: a9 00        	lda	#$0
    3627: e5 13        	sbc	$13                     ; 0x13 <__rc3>
    3629: 85 1a        	sta	$1a                     ; 0x1a <__rc10>
    362b: a2 01        	ldx	#$1
    362d: 86 1b        	stx	$1b                     ; 0x1b <__rc11>
    362f: 18           	clc
    3630: a5 24        	lda	$24                     ; 0x24 <__rc20>
    3632: 69 04        	adc	#$4
    3634: aa           	tax
    3635: a5 2f        	lda	$2f                     ; 0x2f <__rc31>
    3637: 69 00        	adc	#$0
    3639: 86 1d        	stx	$1d                     ; 0x1d <__rc13>
    363b: 86 14        	stx	$14                     ; 0x14 <__rc4>
    363d: 85 1e        	sta	$1e                     ; 0x1e <__rc14>
    363f: 85 15        	sta	$15                     ; 0x15 <__rc5>
    3641: a0 02        	ldy	#$2
    3643: b1 14        	lda	($14),y                 ; 0x14 <__rc4>
    3645: aa           	tax
    3646: c8           	iny
    3647: b1 14        	lda	($14),y                 ; 0x14 <__rc4>
    3649: a8           	tay
    364a: 8a           	txa
    364b: 0a           	asl
    364c: 84 13        	sty	$13                     ; 0x13 <__rc3>
    364e: 26 13        	rol	$13                     ; 0x13 <__rc3>
    3650: a5 13        	lda	$13                     ; 0x13 <__rc3>
    3652: 18           	clc
    3653: 69 81        	adc	#$81
    3655: 10 03        	bpl	$365a <redraw+0x24f>
    3657: 4c be 36     	jmp	$36be <redraw+0x2b3>
    365a: 84 16        	sty	$16                     ; 0x16 <__rc6>
    365c: c9 0f        	cmp	#$f
    365e: 90 13        	bcc	$3673 <redraw+0x268>
    3660: a9 00        	lda	#$0
    3662: a6 16        	ldx	$16                     ; 0x16 <__rc6>
    3664: 30 02        	bmi	$3668 <redraw+0x25d>
    3666: a9 01        	lda	#$1
    3668: 4a           	lsr
    3669: 64 12        	stz	$12                     ; 0x12 <__rc2>
    366b: 66 12        	ror	$12                     ; 0x12 <__rc2>
    366d: 10 19        	bpl	$3688 <redraw+0x27d>
    366f: a9 ff        	lda	#$ff
    3671: 80 17        	bra	$368a <redraw+0x27f>
    3673: 8a           	txa
    3674: 09 80        	ora	#$80
    3676: a6 13        	ldx	$13                     ; 0x13 <__rc3>
    3678: e0 87        	cpx	#$87
    367a: b0 13        	bcs	$368f <redraw+0x284>
    367c: a6 13        	ldx	$13                     ; 0x13 <__rc3>
    367e: e0 86        	cpx	#$86
    3680: f0 03        	beq	$3685 <redraw+0x27a>
    3682: 4c fb 3d     	jmp	$3dfb <redraw+0x9f0>
    3685: 4c f6 3d     	jmp	$3df6 <redraw+0x9eb>
    3688: a9 00        	lda	#$0
    368a: 06 12        	asl	$12                     ; 0x12 <__rc2>
    368c: 2a           	rol
    368d: 80 2d        	bra	$36bc <redraw+0x2b1>
    368f: a4 1b        	ldy	$1b                     ; 0x1b <__rc11>
    3691: aa           	tax
    3692: b1 14        	lda	($14),y                 ; 0x14 <__rc4>
    3694: 85 12        	sta	$12                     ; 0x12 <__rc2>
    3696: a0 72        	ldy	#$72
    3698: 18           	clc
    3699: 98           	tya
    369a: 65 13        	adc	$13                     ; 0x13 <__rc3>
    369c: a8           	tay
    369d: 86 13        	stx	$13                     ; 0x13 <__rc3>
    369f: a5 12        	lda	$12                     ; 0x12 <__rc2>
    36a1: 46 13        	lsr	$13                     ; 0x13 <__rc3>
    36a3: 64 12        	stz	$12                     ; 0x12 <__rc2>
    36a5: 66 12        	ror	$12                     ; 0x12 <__rc2>
    36a7: 4a           	lsr
    36a8: 05 12        	ora	$12                     ; 0x12 <__rc2>
    36aa: c8           	iny
    36ab: 85 12        	sta	$12                     ; 0x12 <__rc2>
    36ad: d0 f2        	bne	$36a1 <redraw+0x296>
    36af: a2 01        	ldx	#$1
    36b1: 86 1b        	stx	$1b                     ; 0x1b <__rc11>
    36b3: a5 16        	lda	$16                     ; 0x16 <__rc6>
    36b5: 10 07        	bpl	$36be <redraw+0x2b3>
    36b7: 38           	sec
    36b8: a9 00        	lda	#$0
    36ba: e5 12        	sbc	$12                     ; 0x12 <__rc2>
    36bc: 85 12        	sta	$12                     ; 0x12 <__rc2>
    36be: 06 2d        	asl	$2d                     ; 0x2d <__rc29>
    36c0: 26 2c        	rol	$2c                     ; 0x2c <__rc28>
    36c2: 06 2d        	asl	$2d                     ; 0x2d <__rc29>
    36c4: 26 2c        	rol	$2c                     ; 0x2c <__rc28>
    36c6: a9 30        	lda	#$30
    36c8: 18           	clc
    36c9: 65 2d        	adc	$2d                     ; 0x2d <__rc29>
    36cb: aa           	tax
    36cc: a9 00        	lda	#$0
    36ce: 65 2c        	adc	$2c                     ; 0x2c <__rc28>
    36d0: 86 1f        	stx	$1f                     ; 0x1f <__rc15>
    36d2: 86 14        	stx	$14                     ; 0x14 <__rc4>
    36d4: 85 22        	sta	$22                     ; 0x22 <__rc18>
    36d6: 85 15        	sta	$15                     ; 0x15 <__rc5>
    36d8: a0 02        	ldy	#$2
    36da: b1 14        	lda	($14),y                 ; 0x14 <__rc4>
    36dc: aa           	tax
    36dd: c8           	iny
    36de: b1 14        	lda	($14),y                 ; 0x14 <__rc4>
    36e0: a8           	tay
    36e1: 8a           	txa
    36e2: 0a           	asl
    36e3: 84 23        	sty	$23                     ; 0x23 <__rc19>
    36e5: 84 17        	sty	$17                     ; 0x17 <__rc7>
    36e7: 26 17        	rol	$17                     ; 0x17 <__rc7>
    36e9: a5 17        	lda	$17                     ; 0x17 <__rc7>
    36eb: 18           	clc
    36ec: 69 81        	adc	#$81
    36ee: 64 13        	stz	$13                     ; 0x13 <__rc3>
    36f0: 64 18        	stz	$18                     ; 0x18 <__rc8>
    36f2: a0 00        	ldy	#$0
    36f4: c9 00        	cmp	#$0
    36f6: 10 03        	bpl	$36fb <redraw+0x2f0>
    36f8: 4c 60 37     	jmp	$3760 <redraw+0x355>
    36fb: c9 0f        	cmp	#$f
    36fd: 90 0d        	bcc	$370c <redraw+0x301>
    36ff: a5 23        	lda	$23                     ; 0x23 <__rc19>
    3701: 30 4b        	bmi	$374e <redraw+0x343>
    3703: a0 7f        	ldy	#$7f
    3705: a2 ff        	ldx	#$ff
    3707: 86 18        	stx	$18                     ; 0x18 <__rc8>
    3709: 4c 60 37     	jmp	$3760 <redraw+0x355>
    370c: 8a           	txa
    370d: 09 80        	ora	#$80
    370f: a6 17        	ldx	$17                     ; 0x17 <__rc7>
    3711: e0 87        	cpx	#$87
    3713: b0 0e        	bcs	$3723 <redraw+0x318>
    3715: a0 7a        	ldy	#$7a
    3717: 64 16        	stz	$16                     ; 0x16 <__rc6>
    3719: a6 17        	ldx	$17                     ; 0x17 <__rc7>
    371b: 85 18        	sta	$18                     ; 0x18 <__rc8>
    371d: e0 86        	cpx	#$86
    371f: d0 0a        	bne	$372b <redraw+0x320>
    3721: 80 1f        	bra	$3742 <redraw+0x337>
    3723: a4 1b        	ldy	$1b                     ; 0x1b <__rc11>
    3725: 85 16        	sta	$16                     ; 0x16 <__rc6>
    3727: b1 14        	lda	($14),y                 ; 0x14 <__rc4>
    3729: a0 72        	ldy	#$72
    372b: 18           	clc
    372c: 85 18        	sta	$18                     ; 0x18 <__rc8>
    372e: 98           	tya
    372f: 65 17        	adc	$17                     ; 0x17 <__rc7>
    3731: aa           	tax
    3732: a5 18        	lda	$18                     ; 0x18 <__rc8>
    3734: 46 16        	lsr	$16                     ; 0x16 <__rc6>
    3736: 64 17        	stz	$17                     ; 0x17 <__rc7>
    3738: 66 17        	ror	$17                     ; 0x17 <__rc7>
    373a: 4a           	lsr
    373b: 05 17        	ora	$17                     ; 0x17 <__rc7>
    373d: e8           	inx
    373e: 85 18        	sta	$18                     ; 0x18 <__rc8>
    3740: d0 f2        	bne	$3734 <redraw+0x329>
    3742: a2 01        	ldx	#$1
    3744: 86 1b        	stx	$1b                     ; 0x1b <__rc11>
    3746: a5 23        	lda	$23                     ; 0x23 <__rc19>
    3748: 30 0a        	bmi	$3754 <redraw+0x349>
    374a: a4 16        	ldy	$16                     ; 0x16 <__rc6>
    374c: 80 12        	bra	$3760 <redraw+0x355>
    374e: a0 80        	ldy	#$80
    3750: 64 18        	stz	$18                     ; 0x18 <__rc8>
    3752: 80 0c        	bra	$3760 <redraw+0x355>
    3754: 38           	sec
    3755: a9 00        	lda	#$0
    3757: e5 18        	sbc	$18                     ; 0x18 <__rc8>
    3759: 85 18        	sta	$18                     ; 0x18 <__rc8>
    375b: a9 00        	lda	#$0
    375d: e5 16        	sbc	$16                     ; 0x16 <__rc6>
    375f: a8           	tay
    3760: 18           	clc
    3761: a5 19        	lda	$19                     ; 0x19 <__rc9>
    3763: 69 a0        	adc	#$a0
    3765: 85 17        	sta	$17                     ; 0x17 <__rc7>
    3767: a5 1a        	lda	$1a                     ; 0x1a <__rc10>
    3769: 69 00        	adc	#$0
    376b: 85 1a        	sta	$1a                     ; 0x1a <__rc10>
    376d: 18           	clc
    376e: a5 18        	lda	$18                     ; 0x18 <__rc8>
    3770: 69 a0        	adc	#$a0
    3772: 85 27        	sta	$27                     ; 0x27 <__rc23>
    3774: 98           	tya
    3775: 69 00        	adc	#$0
    3777: 85 2c        	sta	$2c                     ; 0x2c <__rc28>
    3779: 18           	clc
    377a: a5 1f        	lda	$1f                     ; 0x1f <__rc15>
    377c: 69 04        	adc	#$4
    377e: aa           	tax
    377f: a5 22        	lda	$22                     ; 0x22 <__rc18>
    3781: 69 00        	adc	#$0
    3783: 86 22        	stx	$22                     ; 0x22 <__rc18>
    3785: 86 18        	stx	$18                     ; 0x18 <__rc8>
    3787: 85 23        	sta	$23                     ; 0x23 <__rc19>
    3789: 85 19        	sta	$19                     ; 0x19 <__rc9>
    378b: a0 02        	ldy	#$2
    378d: b1 18        	lda	($18),y                 ; 0x18 <__rc8>
    378f: aa           	tax
    3790: c8           	iny
    3791: b1 18        	lda	($18),y                 ; 0x18 <__rc8>
    3793: a8           	tay
    3794: 8a           	txa
    3795: 0a           	asl
    3796: 84 16        	sty	$16                     ; 0x16 <__rc6>
    3798: 26 16        	rol	$16                     ; 0x16 <__rc6>
    379a: a5 16        	lda	$16                     ; 0x16 <__rc6>
    379c: 18           	clc
    379d: 69 81        	adc	#$81
    379f: 10 03        	bpl	$37a4 <redraw+0x399>
    37a1: 4c 10 38     	jmp	$3810 <redraw+0x405>
    37a4: 84 1f        	sty	$1f                     ; 0x1f <__rc15>
    37a6: c9 0f        	cmp	#$f
    37a8: 90 17        	bcc	$37c1 <redraw+0x3b6>
    37aa: a9 00        	lda	#$0
    37ac: a6 1f        	ldx	$1f                     ; 0x1f <__rc15>
    37ae: 30 02        	bmi	$37b2 <redraw+0x3a7>
    37b0: a9 01        	lda	#$1
    37b2: 4a           	lsr
    37b3: 64 13        	stz	$13                     ; 0x13 <__rc3>
    37b5: 66 13        	ror	$13                     ; 0x13 <__rc3>
    37b7: 10 1d        	bpl	$37d6 <redraw+0x3cb>
    37b9: a2 01        	ldx	#$1
    37bb: 86 1b        	stx	$1b                     ; 0x1b <__rc11>
    37bd: a9 ff        	lda	#$ff
    37bf: 80 1b        	bra	$37dc <redraw+0x3d1>
    37c1: 8a           	txa
    37c2: 09 80        	ora	#$80
    37c4: a6 16        	ldx	$16                     ; 0x16 <__rc6>
    37c6: e0 87        	cpx	#$87
    37c8: b0 17        	bcs	$37e1 <redraw+0x3d6>
    37ca: a6 16        	ldx	$16                     ; 0x16 <__rc6>
    37cc: e0 86        	cpx	#$86
    37ce: f0 03        	beq	$37d3 <redraw+0x3c8>
    37d0: 4c 09 3e     	jmp	$3e09 <redraw+0x9fe>
    37d3: 4c 04 3e     	jmp	$3e04 <redraw+0x9f9>
    37d6: a2 01        	ldx	#$1
    37d8: 86 1b        	stx	$1b                     ; 0x1b <__rc11>
    37da: a9 00        	lda	#$0
    37dc: 06 13        	asl	$13                     ; 0x13 <__rc3>
    37de: 2a           	rol
    37df: 80 2d        	bra	$380e <redraw+0x403>
    37e1: a4 1b        	ldy	$1b                     ; 0x1b <__rc11>
    37e3: aa           	tax
    37e4: b1 18        	lda	($18),y                 ; 0x18 <__rc8>
    37e6: 85 13        	sta	$13                     ; 0x13 <__rc3>
    37e8: a0 72        	ldy	#$72
    37ea: 18           	clc
    37eb: 98           	tya
    37ec: 65 16        	adc	$16                     ; 0x16 <__rc6>
    37ee: a8           	tay
    37ef: 86 16        	stx	$16                     ; 0x16 <__rc6>
    37f1: a5 13        	lda	$13                     ; 0x13 <__rc3>
    37f3: 46 16        	lsr	$16                     ; 0x16 <__rc6>
    37f5: 64 13        	stz	$13                     ; 0x13 <__rc3>
    37f7: 66 13        	ror	$13                     ; 0x13 <__rc3>
    37f9: 4a           	lsr
    37fa: 05 13        	ora	$13                     ; 0x13 <__rc3>
    37fc: c8           	iny
    37fd: 85 13        	sta	$13                     ; 0x13 <__rc3>
    37ff: d0 f2        	bne	$37f3 <redraw+0x3e8>
    3801: a2 01        	ldx	#$1
    3803: 86 1b        	stx	$1b                     ; 0x1b <__rc11>
    3805: a5 1f        	lda	$1f                     ; 0x1f <__rc15>
    3807: 10 07        	bpl	$3810 <redraw+0x405>
    3809: 38           	sec
    380a: a9 00        	lda	#$0
    380c: e5 13        	sbc	$13                     ; 0x13 <__rc3>
    380e: 85 13        	sta	$13                     ; 0x13 <__rc3>
    3810: 38           	sec
    3811: a9 8c        	lda	#$8c
    3813: e5 12        	sbc	$12                     ; 0x12 <__rc2>
    3815: a8           	tay
    3816: 38           	sec
    3817: a9 8c        	lda	#$8c
    3819: e5 13        	sbc	$13                     ; 0x13 <__rc3>
    381b: a6 28        	ldx	$28                     ; 0x28 <__rc24>
    381d: 8e 80 d1     	stx	$d180                   ; 0xd180 <end_block9+0x8eee>
    3820: 9c 82 d1     	stz	$d182                   ; 0xd182 <end_block9+0x8ef0>
    3823: 9c 83 d1     	stz	$d183                   ; 0xd183 <end_block9+0x8ef1>
    3826: a6 1c        	ldx	$1c                     ; 0x1c <__rc12>
    3828: 8e 81 d1     	stx	$d181                   ; 0xd181 <end_block9+0x8eef>
    382b: a6 17        	ldx	$17                     ; 0x17 <__rc7>
    382d: 8e 82 d1     	stx	$d182                   ; 0xd182 <end_block9+0x8ef0>
    3830: a6 1a        	ldx	$1a                     ; 0x1a <__rc10>
    3832: 8e 83 d1     	stx	$d183                   ; 0xd183 <end_block9+0x8ef1>
    3835: a6 27        	ldx	$27                     ; 0x27 <__rc23>
    3837: 8e 84 d1     	stx	$d184                   ; 0xd184 <end_block9+0x8ef2>
    383a: a6 2c        	ldx	$2c                     ; 0x2c <__rc28>
    383c: 8e 85 d1     	stx	$d185                   ; 0xd185 <end_block9+0x8ef3>
    383f: 8c 86 d1     	sty	$d186                   ; 0xd186 <end_block9+0x8ef4>
    3842: 8d 87 d1     	sta	$d187                   ; 0xd187 <end_block9+0x8ef5>
    3845: a6 26        	ldx	$26                     ; 0x26 <__rc22>
    3847: 8e 80 d1     	stx	$d180                   ; 0xd180 <end_block9+0x8eee>
    384a: ae 80 d1     	ldx	$d180                   ; 0xd180 <end_block9+0x8eee>
    384d: 10 fb        	bpl	$384a <redraw+0x43f>
    384f: a0 02        	ldy	#$2
    3851: b1 14        	lda	($14),y                 ; 0x14 <__rc4>
    3853: aa           	tax
    3854: c8           	iny
    3855: b1 14        	lda	($14),y                 ; 0x14 <__rc4>
    3857: a8           	tay
    3858: 8a           	txa
    3859: 0a           	asl
    385a: 84 16        	sty	$16                     ; 0x16 <__rc6>
    385c: 26 16        	rol	$16                     ; 0x16 <__rc6>
    385e: a5 16        	lda	$16                     ; 0x16 <__rc6>
    3860: 18           	clc
    3861: 69 81        	adc	#$81
    3863: 64 12        	stz	$12                     ; 0x12 <__rc2>
    3865: 64 19        	stz	$19                     ; 0x19 <__rc9>
    3867: 64 1f        	stz	$1f                     ; 0x1f <__rc15>
    3869: 10 03        	bpl	$386e <redraw+0x463>
    386b: 4c e1 38     	jmp	$38e1 <redraw+0x4d6>
    386e: 84 17        	sty	$17                     ; 0x17 <__rc7>
    3870: c9 0f        	cmp	#$f
    3872: 90 12        	bcc	$3886 <redraw+0x47b>
    3874: a5 17        	lda	$17                     ; 0x17 <__rc7>
    3876: 10 03        	bpl	$387b <redraw+0x470>
    3878: 4c cc 38     	jmp	$38cc <redraw+0x4c1>
    387b: a2 7f        	ldx	#$7f
    387d: 86 1f        	stx	$1f                     ; 0x1f <__rc15>
    387f: a2 ff        	ldx	#$ff
    3881: 86 19        	stx	$19                     ; 0x19 <__rc9>
    3883: 4c e1 38     	jmp	$38e1 <redraw+0x4d6>
    3886: 8a           	txa
    3887: 09 80        	ora	#$80
    3889: a6 16        	ldx	$16                     ; 0x16 <__rc6>
    388b: e0 87        	cpx	#$87
    388d: b0 0e        	bcs	$389d <redraw+0x492>
    388f: a0 7a        	ldy	#$7a
    3891: 64 13        	stz	$13                     ; 0x13 <__rc3>
    3893: a6 16        	ldx	$16                     ; 0x16 <__rc6>
    3895: 85 14        	sta	$14                     ; 0x14 <__rc4>
    3897: e0 86        	cpx	#$86
    3899: d0 0a        	bne	$38a5 <redraw+0x49a>
    389b: 80 1f        	bra	$38bc <redraw+0x4b1>
    389d: a4 1b        	ldy	$1b                     ; 0x1b <__rc11>
    389f: 85 13        	sta	$13                     ; 0x13 <__rc3>
    38a1: b1 14        	lda	($14),y                 ; 0x14 <__rc4>
    38a3: a0 72        	ldy	#$72
    38a5: 18           	clc
    38a6: 85 14        	sta	$14                     ; 0x14 <__rc4>
    38a8: 98           	tya
    38a9: 65 16        	adc	$16                     ; 0x16 <__rc6>
    38ab: aa           	tax
    38ac: a5 14        	lda	$14                     ; 0x14 <__rc4>
    38ae: 46 13        	lsr	$13                     ; 0x13 <__rc3>
    38b0: 64 14        	stz	$14                     ; 0x14 <__rc4>
    38b2: 66 14        	ror	$14                     ; 0x14 <__rc4>
    38b4: 4a           	lsr
    38b5: 05 14        	ora	$14                     ; 0x14 <__rc4>
    38b7: e8           	inx
    38b8: 85 14        	sta	$14                     ; 0x14 <__rc4>
    38ba: d0 f2        	bne	$38ae <redraw+0x4a3>
    38bc: a2 01        	ldx	#$1
    38be: 86 1b        	stx	$1b                     ; 0x1b <__rc11>
    38c0: a6 17        	ldx	$17                     ; 0x17 <__rc7>
    38c2: 30 10        	bmi	$38d4 <redraw+0x4c9>
    38c4: 85 19        	sta	$19                     ; 0x19 <__rc9>
    38c6: a6 13        	ldx	$13                     ; 0x13 <__rc3>
    38c8: 86 1f        	stx	$1f                     ; 0x1f <__rc15>
    38ca: 80 15        	bra	$38e1 <redraw+0x4d6>
    38cc: a2 80        	ldx	#$80
    38ce: 86 1f        	stx	$1f                     ; 0x1f <__rc15>
    38d0: 64 19        	stz	$19                     ; 0x19 <__rc9>
    38d2: 80 0d        	bra	$38e1 <redraw+0x4d6>
    38d4: 38           	sec
    38d5: a9 00        	lda	#$0
    38d7: e5 14        	sbc	$14                     ; 0x14 <__rc4>
    38d9: 85 19        	sta	$19                     ; 0x19 <__rc9>
    38db: a9 00        	lda	#$0
    38dd: e5 13        	sbc	$13                     ; 0x13 <__rc3>
    38df: 85 1f        	sta	$1f                     ; 0x1f <__rc15>
    38e1: a6 22        	ldx	$22                     ; 0x22 <__rc18>
    38e3: 86 14        	stx	$14                     ; 0x14 <__rc4>
    38e5: a6 23        	ldx	$23                     ; 0x23 <__rc19>
    38e7: 86 15        	stx	$15                     ; 0x15 <__rc5>
    38e9: a0 02        	ldy	#$2
    38eb: b1 14        	lda	($14),y                 ; 0x14 <__rc4>
    38ed: aa           	tax
    38ee: c8           	iny
    38ef: b1 14        	lda	($14),y                 ; 0x14 <__rc4>
    38f1: a8           	tay
    38f2: 8a           	txa
    38f3: 0a           	asl
    38f4: 84 13        	sty	$13                     ; 0x13 <__rc3>
    38f6: 26 13        	rol	$13                     ; 0x13 <__rc3>
    38f8: a5 13        	lda	$13                     ; 0x13 <__rc3>
    38fa: 18           	clc
    38fb: 69 81        	adc	#$81
    38fd: 10 03        	bpl	$3902 <redraw+0x4f7>
    38ff: 4c 6e 39     	jmp	$396e <redraw+0x563>
    3902: 84 16        	sty	$16                     ; 0x16 <__rc6>
    3904: c9 0f        	cmp	#$f
    3906: 90 17        	bcc	$391f <redraw+0x514>
    3908: a9 00        	lda	#$0
    390a: a6 16        	ldx	$16                     ; 0x16 <__rc6>
    390c: 30 02        	bmi	$3910 <redraw+0x505>
    390e: a9 01        	lda	#$1
    3910: 4a           	lsr
    3911: 64 12        	stz	$12                     ; 0x12 <__rc2>
    3913: 66 12        	ror	$12                     ; 0x12 <__rc2>
    3915: 10 1d        	bpl	$3934 <redraw+0x529>
    3917: a2 01        	ldx	#$1
    3919: 86 1b        	stx	$1b                     ; 0x1b <__rc11>
    391b: a9 ff        	lda	#$ff
    391d: 80 1b        	bra	$393a <redraw+0x52f>
    391f: 8a           	txa
    3920: 09 80        	ora	#$80
    3922: a6 13        	ldx	$13                     ; 0x13 <__rc3>
    3924: e0 87        	cpx	#$87
    3926: b0 17        	bcs	$393f <redraw+0x534>
    3928: a6 13        	ldx	$13                     ; 0x13 <__rc3>
    392a: e0 86        	cpx	#$86
    392c: f0 03        	beq	$3931 <redraw+0x526>
    392e: 4c 17 3e     	jmp	$3e17 <redraw+0xa0c>
    3931: 4c 12 3e     	jmp	$3e12 <redraw+0xa07>
    3934: a2 01        	ldx	#$1
    3936: 86 1b        	stx	$1b                     ; 0x1b <__rc11>
    3938: a9 00        	lda	#$0
    393a: 06 12        	asl	$12                     ; 0x12 <__rc2>
    393c: 2a           	rol
    393d: 80 2d        	bra	$396c <redraw+0x561>
    393f: a4 1b        	ldy	$1b                     ; 0x1b <__rc11>
    3941: aa           	tax
    3942: b1 14        	lda	($14),y                 ; 0x14 <__rc4>
    3944: 85 12        	sta	$12                     ; 0x12 <__rc2>
    3946: a0 72        	ldy	#$72
    3948: 18           	clc
    3949: 98           	tya
    394a: 65 13        	adc	$13                     ; 0x13 <__rc3>
    394c: a8           	tay
    394d: 86 13        	stx	$13                     ; 0x13 <__rc3>
    394f: a5 12        	lda	$12                     ; 0x12 <__rc2>
    3951: 46 13        	lsr	$13                     ; 0x13 <__rc3>
    3953: 64 12        	stz	$12                     ; 0x12 <__rc2>
    3955: 66 12        	ror	$12                     ; 0x12 <__rc2>
    3957: 4a           	lsr
    3958: 05 12        	ora	$12                     ; 0x12 <__rc2>
    395a: c8           	iny
    395b: 85 12        	sta	$12                     ; 0x12 <__rc2>
    395d: d0 f2        	bne	$3951 <redraw+0x546>
    395f: a2 01        	ldx	#$1
    3961: 86 1b        	stx	$1b                     ; 0x1b <__rc11>
    3963: a5 16        	lda	$16                     ; 0x16 <__rc6>
    3965: 10 07        	bpl	$396e <redraw+0x563>
    3967: 38           	sec
    3968: a9 00        	lda	#$0
    396a: e5 12        	sbc	$12                     ; 0x12 <__rc2>
    396c: 85 12        	sta	$12                     ; 0x12 <__rc2>
    396e: 06 2a        	asl	$2a                     ; 0x2a <__rc26>
    3970: 26 29        	rol	$29                     ; 0x29 <__rc25>
    3972: 06 2a        	asl	$2a                     ; 0x2a <__rc26>
    3974: 26 29        	rol	$29                     ; 0x29 <__rc25>
    3976: a9 30        	lda	#$30
    3978: 18           	clc
    3979: a2 00        	ldx	#$0
    397b: 86 1a        	stx	$1a                     ; 0x1a <__rc10>
    397d: 65 2a        	adc	$2a                     ; 0x2a <__rc26>
    397f: aa           	tax
    3980: a9 00        	lda	#$0
    3982: 65 29        	adc	$29                     ; 0x29 <__rc25>
    3984: 86 22        	stx	$22                     ; 0x22 <__rc18>
    3986: 86 14        	stx	$14                     ; 0x14 <__rc4>
    3988: 85 23        	sta	$23                     ; 0x23 <__rc19>
    398a: 85 15        	sta	$15                     ; 0x15 <__rc5>
    398c: a0 02        	ldy	#$2
    398e: b1 14        	lda	($14),y                 ; 0x14 <__rc4>
    3990: aa           	tax
    3991: c8           	iny
    3992: b1 14        	lda	($14),y                 ; 0x14 <__rc4>
    3994: a8           	tay
    3995: 8a           	txa
    3996: 0a           	asl
    3997: 84 27        	sty	$27                     ; 0x27 <__rc23>
    3999: 84 17        	sty	$17                     ; 0x17 <__rc7>
    399b: 26 17        	rol	$17                     ; 0x17 <__rc7>
    399d: a5 17        	lda	$17                     ; 0x17 <__rc7>
    399f: 18           	clc
    39a0: 69 81        	adc	#$81
    39a2: 64 13        	stz	$13                     ; 0x13 <__rc3>
    39a4: 64 18        	stz	$18                     ; 0x18 <__rc8>
    39a6: a0 00        	ldy	#$0
    39a8: c9 00        	cmp	#$0
    39aa: 10 03        	bpl	$39af <redraw+0x5a4>
    39ac: 4c 14 3a     	jmp	$3a14 <redraw+0x609>
    39af: c9 0f        	cmp	#$f
    39b1: 90 0d        	bcc	$39c0 <redraw+0x5b5>
    39b3: a5 27        	lda	$27                     ; 0x27 <__rc23>
    39b5: 30 4b        	bmi	$3a02 <redraw+0x5f7>
    39b7: a0 7f        	ldy	#$7f
    39b9: a2 ff        	ldx	#$ff
    39bb: 86 18        	stx	$18                     ; 0x18 <__rc8>
    39bd: 4c 14 3a     	jmp	$3a14 <redraw+0x609>
    39c0: 8a           	txa
    39c1: 09 80        	ora	#$80
    39c3: a6 17        	ldx	$17                     ; 0x17 <__rc7>
    39c5: e0 87        	cpx	#$87
    39c7: b0 0e        	bcs	$39d7 <redraw+0x5cc>
    39c9: a0 7a        	ldy	#$7a
    39cb: 64 16        	stz	$16                     ; 0x16 <__rc6>
    39cd: a6 17        	ldx	$17                     ; 0x17 <__rc7>
    39cf: 85 18        	sta	$18                     ; 0x18 <__rc8>
    39d1: e0 86        	cpx	#$86
    39d3: d0 0a        	bne	$39df <redraw+0x5d4>
    39d5: 80 1f        	bra	$39f6 <redraw+0x5eb>
    39d7: a4 1b        	ldy	$1b                     ; 0x1b <__rc11>
    39d9: 85 16        	sta	$16                     ; 0x16 <__rc6>
    39db: b1 14        	lda	($14),y                 ; 0x14 <__rc4>
    39dd: a0 72        	ldy	#$72
    39df: 18           	clc
    39e0: 85 18        	sta	$18                     ; 0x18 <__rc8>
    39e2: 98           	tya
    39e3: 65 17        	adc	$17                     ; 0x17 <__rc7>
    39e5: aa           	tax
    39e6: a5 18        	lda	$18                     ; 0x18 <__rc8>
    39e8: 46 16        	lsr	$16                     ; 0x16 <__rc6>
    39ea: 64 17        	stz	$17                     ; 0x17 <__rc7>
    39ec: 66 17        	ror	$17                     ; 0x17 <__rc7>
    39ee: 4a           	lsr
    39ef: 05 17        	ora	$17                     ; 0x17 <__rc7>
    39f1: e8           	inx
    39f2: 85 18        	sta	$18                     ; 0x18 <__rc8>
    39f4: d0 f2        	bne	$39e8 <redraw+0x5dd>
    39f6: a2 01        	ldx	#$1
    39f8: 86 1b        	stx	$1b                     ; 0x1b <__rc11>
    39fa: a5 27        	lda	$27                     ; 0x27 <__rc23>
    39fc: 30 0a        	bmi	$3a08 <redraw+0x5fd>
    39fe: a4 16        	ldy	$16                     ; 0x16 <__rc6>
    3a00: 80 12        	bra	$3a14 <redraw+0x609>
    3a02: a0 80        	ldy	#$80
    3a04: 64 18        	stz	$18                     ; 0x18 <__rc8>
    3a06: 80 0c        	bra	$3a14 <redraw+0x609>
    3a08: 38           	sec
    3a09: a9 00        	lda	#$0
    3a0b: e5 18        	sbc	$18                     ; 0x18 <__rc8>
    3a0d: 85 18        	sta	$18                     ; 0x18 <__rc8>
    3a0f: a9 00        	lda	#$0
    3a11: e5 16        	sbc	$16                     ; 0x16 <__rc6>
    3a13: a8           	tay
    3a14: 18           	clc
    3a15: a5 19        	lda	$19                     ; 0x19 <__rc9>
    3a17: 69 a0        	adc	#$a0
    3a19: 85 17        	sta	$17                     ; 0x17 <__rc7>
    3a1b: a5 1f        	lda	$1f                     ; 0x1f <__rc15>
    3a1d: 69 00        	adc	#$0
    3a1f: 85 1f        	sta	$1f                     ; 0x1f <__rc15>
    3a21: 18           	clc
    3a22: a5 18        	lda	$18                     ; 0x18 <__rc8>
    3a24: 69 a0        	adc	#$a0
    3a26: 85 27        	sta	$27                     ; 0x27 <__rc23>
    3a28: 98           	tya
    3a29: 69 00        	adc	#$0
    3a2b: 85 29        	sta	$29                     ; 0x29 <__rc25>
    3a2d: 18           	clc
    3a2e: a5 22        	lda	$22                     ; 0x22 <__rc18>
    3a30: 69 04        	adc	#$4
    3a32: aa           	tax
    3a33: a5 23        	lda	$23                     ; 0x23 <__rc19>
    3a35: 69 00        	adc	#$0
    3a37: 86 22        	stx	$22                     ; 0x22 <__rc18>
    3a39: 86 18        	stx	$18                     ; 0x18 <__rc8>
    3a3b: 85 23        	sta	$23                     ; 0x23 <__rc19>
    3a3d: 85 19        	sta	$19                     ; 0x19 <__rc9>
    3a3f: a0 02        	ldy	#$2
    3a41: b1 18        	lda	($18),y                 ; 0x18 <__rc8>
    3a43: aa           	tax
    3a44: c8           	iny
    3a45: b1 18        	lda	($18),y                 ; 0x18 <__rc8>
    3a47: a8           	tay
    3a48: 8a           	txa
    3a49: 0a           	asl
    3a4a: 84 16        	sty	$16                     ; 0x16 <__rc6>
    3a4c: 26 16        	rol	$16                     ; 0x16 <__rc6>
    3a4e: a5 16        	lda	$16                     ; 0x16 <__rc6>
    3a50: 18           	clc
    3a51: 69 81        	adc	#$81
    3a53: 10 03        	bpl	$3a58 <redraw+0x64d>
    3a55: 4c c4 3a     	jmp	$3ac4 <redraw+0x6b9>
    3a58: 84 2a        	sty	$2a                     ; 0x2a <__rc26>
    3a5a: c9 0f        	cmp	#$f
    3a5c: 90 17        	bcc	$3a75 <redraw+0x66a>
    3a5e: a9 00        	lda	#$0
    3a60: a6 2a        	ldx	$2a                     ; 0x2a <__rc26>
    3a62: 30 02        	bmi	$3a66 <redraw+0x65b>
    3a64: a9 01        	lda	#$1
    3a66: 4a           	lsr
    3a67: 64 13        	stz	$13                     ; 0x13 <__rc3>
    3a69: 66 13        	ror	$13                     ; 0x13 <__rc3>
    3a6b: 10 1d        	bpl	$3a8a <redraw+0x67f>
    3a6d: a2 01        	ldx	#$1
    3a6f: 86 1b        	stx	$1b                     ; 0x1b <__rc11>
    3a71: a9 ff        	lda	#$ff
    3a73: 80 1b        	bra	$3a90 <redraw+0x685>
    3a75: 8a           	txa
    3a76: 09 80        	ora	#$80
    3a78: a6 16        	ldx	$16                     ; 0x16 <__rc6>
    3a7a: e0 87        	cpx	#$87
    3a7c: b0 17        	bcs	$3a95 <redraw+0x68a>
    3a7e: a6 16        	ldx	$16                     ; 0x16 <__rc6>
    3a80: e0 86        	cpx	#$86
    3a82: f0 03        	beq	$3a87 <redraw+0x67c>
    3a84: 4c 25 3e     	jmp	$3e25 <redraw+0xa1a>
    3a87: 4c 20 3e     	jmp	$3e20 <redraw+0xa15>
    3a8a: a2 01        	ldx	#$1
    3a8c: 86 1b        	stx	$1b                     ; 0x1b <__rc11>
    3a8e: a9 00        	lda	#$0
    3a90: 06 13        	asl	$13                     ; 0x13 <__rc3>
    3a92: 2a           	rol
    3a93: 80 2d        	bra	$3ac2 <redraw+0x6b7>
    3a95: a4 1b        	ldy	$1b                     ; 0x1b <__rc11>
    3a97: aa           	tax
    3a98: b1 18        	lda	($18),y                 ; 0x18 <__rc8>
    3a9a: 85 13        	sta	$13                     ; 0x13 <__rc3>
    3a9c: a0 72        	ldy	#$72
    3a9e: 18           	clc
    3a9f: 98           	tya
    3aa0: 65 16        	adc	$16                     ; 0x16 <__rc6>
    3aa2: a8           	tay
    3aa3: 86 16        	stx	$16                     ; 0x16 <__rc6>
    3aa5: a5 13        	lda	$13                     ; 0x13 <__rc3>
    3aa7: 46 16        	lsr	$16                     ; 0x16 <__rc6>
    3aa9: 64 13        	stz	$13                     ; 0x13 <__rc3>
    3aab: 66 13        	ror	$13                     ; 0x13 <__rc3>
    3aad: 4a           	lsr
    3aae: 05 13        	ora	$13                     ; 0x13 <__rc3>
    3ab0: c8           	iny
    3ab1: 85 13        	sta	$13                     ; 0x13 <__rc3>
    3ab3: d0 f2        	bne	$3aa7 <redraw+0x69c>
    3ab5: a2 01        	ldx	#$1
    3ab7: 86 1b        	stx	$1b                     ; 0x1b <__rc11>
    3ab9: a5 2a        	lda	$2a                     ; 0x2a <__rc26>
    3abb: 10 07        	bpl	$3ac4 <redraw+0x6b9>
    3abd: 38           	sec
    3abe: a9 00        	lda	#$0
    3ac0: e5 13        	sbc	$13                     ; 0x13 <__rc3>
    3ac2: 85 13        	sta	$13                     ; 0x13 <__rc3>
    3ac4: 38           	sec
    3ac5: a9 8c        	lda	#$8c
    3ac7: e5 12        	sbc	$12                     ; 0x12 <__rc2>
    3ac9: a8           	tay
    3aca: 38           	sec
    3acb: a9 8c        	lda	#$8c
    3acd: e5 13        	sbc	$13                     ; 0x13 <__rc3>
    3acf: a6 28        	ldx	$28                     ; 0x28 <__rc24>
    3ad1: 8e 80 d1     	stx	$d180                   ; 0xd180 <end_block9+0x8eee>
    3ad4: 9c 82 d1     	stz	$d182                   ; 0xd182 <end_block9+0x8ef0>
    3ad7: 9c 83 d1     	stz	$d183                   ; 0xd183 <end_block9+0x8ef1>
    3ada: a6 1c        	ldx	$1c                     ; 0x1c <__rc12>
    3adc: 8e 81 d1     	stx	$d181                   ; 0xd181 <end_block9+0x8eef>
    3adf: a6 17        	ldx	$17                     ; 0x17 <__rc7>
    3ae1: 8e 82 d1     	stx	$d182                   ; 0xd182 <end_block9+0x8ef0>
    3ae4: a6 1f        	ldx	$1f                     ; 0x1f <__rc15>
    3ae6: 8e 83 d1     	stx	$d183                   ; 0xd183 <end_block9+0x8ef1>
    3ae9: a6 27        	ldx	$27                     ; 0x27 <__rc23>
    3aeb: 8e 84 d1     	stx	$d184                   ; 0xd184 <end_block9+0x8ef2>
    3aee: a6 29        	ldx	$29                     ; 0x29 <__rc25>
    3af0: 8e 85 d1     	stx	$d185                   ; 0xd185 <end_block9+0x8ef3>
    3af3: 8c 86 d1     	sty	$d186                   ; 0xd186 <end_block9+0x8ef4>
    3af6: 8d 87 d1     	sta	$d187                   ; 0xd187 <end_block9+0x8ef5>
    3af9: a6 26        	ldx	$26                     ; 0x26 <__rc22>
    3afb: 8e 80 d1     	stx	$d180                   ; 0xd180 <end_block9+0x8eee>
    3afe: ae 80 d1     	ldx	$d180                   ; 0xd180 <end_block9+0x8eee>
    3b01: 10 fb        	bpl	$3afe <redraw+0x6f3>
    3b03: a0 02        	ldy	#$2
    3b05: b1 14        	lda	($14),y                 ; 0x14 <__rc4>
    3b07: aa           	tax
    3b08: c8           	iny
    3b09: b1 14        	lda	($14),y                 ; 0x14 <__rc4>
    3b0b: a8           	tay
    3b0c: 8a           	txa
    3b0d: 0a           	asl
    3b0e: 84 16        	sty	$16                     ; 0x16 <__rc6>
    3b10: 26 16        	rol	$16                     ; 0x16 <__rc6>
    3b12: a5 16        	lda	$16                     ; 0x16 <__rc6>
    3b14: 18           	clc
    3b15: 69 81        	adc	#$81
    3b17: 64 12        	stz	$12                     ; 0x12 <__rc2>
    3b19: 64 17        	stz	$17                     ; 0x17 <__rc7>
    3b1b: 64 19        	stz	$19                     ; 0x19 <__rc9>
    3b1d: 10 03        	bpl	$3b22 <redraw+0x717>
    3b1f: 4c 95 3b     	jmp	$3b95 <redraw+0x78a>
    3b22: 84 18        	sty	$18                     ; 0x18 <__rc8>
    3b24: c9 0f        	cmp	#$f
    3b26: 90 12        	bcc	$3b3a <redraw+0x72f>
    3b28: a5 18        	lda	$18                     ; 0x18 <__rc8>
    3b2a: 10 03        	bpl	$3b2f <redraw+0x724>
    3b2c: 4c 80 3b     	jmp	$3b80 <redraw+0x775>
    3b2f: a2 7f        	ldx	#$7f
    3b31: 86 19        	stx	$19                     ; 0x19 <__rc9>
    3b33: a2 ff        	ldx	#$ff
    3b35: 86 17        	stx	$17                     ; 0x17 <__rc7>
    3b37: 4c 95 3b     	jmp	$3b95 <redraw+0x78a>
    3b3a: 8a           	txa
    3b3b: 09 80        	ora	#$80
    3b3d: a6 16        	ldx	$16                     ; 0x16 <__rc6>
    3b3f: e0 87        	cpx	#$87
    3b41: b0 0e        	bcs	$3b51 <redraw+0x746>
    3b43: a0 7a        	ldy	#$7a
    3b45: 64 13        	stz	$13                     ; 0x13 <__rc3>
    3b47: a6 16        	ldx	$16                     ; 0x16 <__rc6>
    3b49: 85 14        	sta	$14                     ; 0x14 <__rc4>
    3b4b: e0 86        	cpx	#$86
    3b4d: d0 0a        	bne	$3b59 <redraw+0x74e>
    3b4f: 80 1f        	bra	$3b70 <redraw+0x765>
    3b51: a4 1b        	ldy	$1b                     ; 0x1b <__rc11>
    3b53: 85 13        	sta	$13                     ; 0x13 <__rc3>
    3b55: b1 14        	lda	($14),y                 ; 0x14 <__rc4>
    3b57: a0 72        	ldy	#$72
    3b59: 18           	clc
    3b5a: 85 14        	sta	$14                     ; 0x14 <__rc4>
    3b5c: 98           	tya
    3b5d: 65 16        	adc	$16                     ; 0x16 <__rc6>
    3b5f: aa           	tax
    3b60: a5 14        	lda	$14                     ; 0x14 <__rc4>
    3b62: 46 13        	lsr	$13                     ; 0x13 <__rc3>
    3b64: 64 14        	stz	$14                     ; 0x14 <__rc4>
    3b66: 66 14        	ror	$14                     ; 0x14 <__rc4>
    3b68: 4a           	lsr
    3b69: 05 14        	ora	$14                     ; 0x14 <__rc4>
    3b6b: e8           	inx
    3b6c: 85 14        	sta	$14                     ; 0x14 <__rc4>
    3b6e: d0 f2        	bne	$3b62 <redraw+0x757>
    3b70: a2 01        	ldx	#$1
    3b72: 86 1b        	stx	$1b                     ; 0x1b <__rc11>
    3b74: a6 18        	ldx	$18                     ; 0x18 <__rc8>
    3b76: 30 10        	bmi	$3b88 <redraw+0x77d>
    3b78: 85 17        	sta	$17                     ; 0x17 <__rc7>
    3b7a: a6 13        	ldx	$13                     ; 0x13 <__rc3>
    3b7c: 86 19        	stx	$19                     ; 0x19 <__rc9>
    3b7e: 80 15        	bra	$3b95 <redraw+0x78a>
    3b80: a2 80        	ldx	#$80
    3b82: 86 19        	stx	$19                     ; 0x19 <__rc9>
    3b84: 64 17        	stz	$17                     ; 0x17 <__rc7>
    3b86: 80 0d        	bra	$3b95 <redraw+0x78a>
    3b88: 38           	sec
    3b89: a9 00        	lda	#$0
    3b8b: e5 14        	sbc	$14                     ; 0x14 <__rc4>
    3b8d: 85 17        	sta	$17                     ; 0x17 <__rc7>
    3b8f: a9 00        	lda	#$0
    3b91: e5 13        	sbc	$13                     ; 0x13 <__rc3>
    3b93: 85 19        	sta	$19                     ; 0x19 <__rc9>
    3b95: a6 22        	ldx	$22                     ; 0x22 <__rc18>
    3b97: 86 14        	stx	$14                     ; 0x14 <__rc4>
    3b99: a6 23        	ldx	$23                     ; 0x23 <__rc19>
    3b9b: 86 15        	stx	$15                     ; 0x15 <__rc5>
    3b9d: a0 02        	ldy	#$2
    3b9f: b1 14        	lda	($14),y                 ; 0x14 <__rc4>
    3ba1: aa           	tax
    3ba2: c8           	iny
    3ba3: b1 14        	lda	($14),y                 ; 0x14 <__rc4>
    3ba5: a8           	tay
    3ba6: 8a           	txa
    3ba7: 0a           	asl
    3ba8: 84 13        	sty	$13                     ; 0x13 <__rc3>
    3baa: 26 13        	rol	$13                     ; 0x13 <__rc3>
    3bac: a5 13        	lda	$13                     ; 0x13 <__rc3>
    3bae: 18           	clc
    3baf: 69 81        	adc	#$81
    3bb1: 10 03        	bpl	$3bb6 <redraw+0x7ab>
    3bb3: 4c 22 3c     	jmp	$3c22 <redraw+0x817>
    3bb6: 84 16        	sty	$16                     ; 0x16 <__rc6>
    3bb8: c9 0f        	cmp	#$f
    3bba: 90 17        	bcc	$3bd3 <redraw+0x7c8>
    3bbc: a9 00        	lda	#$0
    3bbe: a6 16        	ldx	$16                     ; 0x16 <__rc6>
    3bc0: 30 02        	bmi	$3bc4 <redraw+0x7b9>
    3bc2: a9 01        	lda	#$1
    3bc4: 4a           	lsr
    3bc5: 64 12        	stz	$12                     ; 0x12 <__rc2>
    3bc7: 66 12        	ror	$12                     ; 0x12 <__rc2>
    3bc9: 10 1d        	bpl	$3be8 <redraw+0x7dd>
    3bcb: a2 01        	ldx	#$1
    3bcd: 86 1b        	stx	$1b                     ; 0x1b <__rc11>
    3bcf: a9 ff        	lda	#$ff
    3bd1: 80 1b        	bra	$3bee <redraw+0x7e3>
    3bd3: 8a           	txa
    3bd4: 09 80        	ora	#$80
    3bd6: a6 13        	ldx	$13                     ; 0x13 <__rc3>
    3bd8: e0 87        	cpx	#$87
    3bda: b0 17        	bcs	$3bf3 <redraw+0x7e8>
    3bdc: a6 13        	ldx	$13                     ; 0x13 <__rc3>
    3bde: e0 86        	cpx	#$86
    3be0: f0 03        	beq	$3be5 <redraw+0x7da>
    3be2: 4c 33 3e     	jmp	$3e33 <redraw+0xa28>
    3be5: 4c 2e 3e     	jmp	$3e2e <redraw+0xa23>
    3be8: a2 01        	ldx	#$1
    3bea: 86 1b        	stx	$1b                     ; 0x1b <__rc11>
    3bec: a9 00        	lda	#$0
    3bee: 06 12        	asl	$12                     ; 0x12 <__rc2>
    3bf0: 2a           	rol
    3bf1: 80 2d        	bra	$3c20 <redraw+0x815>
    3bf3: a4 1b        	ldy	$1b                     ; 0x1b <__rc11>
    3bf5: aa           	tax
    3bf6: b1 14        	lda	($14),y                 ; 0x14 <__rc4>
    3bf8: 85 12        	sta	$12                     ; 0x12 <__rc2>
    3bfa: a0 72        	ldy	#$72
    3bfc: 18           	clc
    3bfd: 98           	tya
    3bfe: 65 13        	adc	$13                     ; 0x13 <__rc3>
    3c00: a8           	tay
    3c01: 86 13        	stx	$13                     ; 0x13 <__rc3>
    3c03: a5 12        	lda	$12                     ; 0x12 <__rc2>
    3c05: 46 13        	lsr	$13                     ; 0x13 <__rc3>
    3c07: 64 12        	stz	$12                     ; 0x12 <__rc2>
    3c09: 66 12        	ror	$12                     ; 0x12 <__rc2>
    3c0b: 4a           	lsr
    3c0c: 05 12        	ora	$12                     ; 0x12 <__rc2>
    3c0e: c8           	iny
    3c0f: 85 12        	sta	$12                     ; 0x12 <__rc2>
    3c11: d0 f2        	bne	$3c05 <redraw+0x7fa>
    3c13: a2 01        	ldx	#$1
    3c15: 86 1b        	stx	$1b                     ; 0x1b <__rc11>
    3c17: a5 16        	lda	$16                     ; 0x16 <__rc6>
    3c19: 10 07        	bpl	$3c22 <redraw+0x817>
    3c1b: 38           	sec
    3c1c: a9 00        	lda	#$0
    3c1e: e5 12        	sbc	$12                     ; 0x12 <__rc2>
    3c20: 85 12        	sta	$12                     ; 0x12 <__rc2>
    3c22: a0 02        	ldy	#$2
    3c24: b1 24        	lda	($24),y                 ; 0x24 <__rc20>
    3c26: aa           	tax
    3c27: c8           	iny
    3c28: b1 24        	lda	($24),y                 ; 0x24 <__rc20>
    3c2a: a8           	tay
    3c2b: 8a           	txa
    3c2c: 0a           	asl
    3c2d: 84 18        	sty	$18                     ; 0x18 <__rc8>
    3c2f: 84 15        	sty	$15                     ; 0x15 <__rc5>
    3c31: 26 15        	rol	$15                     ; 0x15 <__rc5>
    3c33: a5 15        	lda	$15                     ; 0x15 <__rc5>
    3c35: 18           	clc
    3c36: 69 81        	adc	#$81
    3c38: 64 13        	stz	$13                     ; 0x13 <__rc3>
    3c3a: 64 16        	stz	$16                     ; 0x16 <__rc6>
    3c3c: a0 00        	ldy	#$0
    3c3e: c9 00        	cmp	#$0
    3c40: 10 03        	bpl	$3c45 <redraw+0x83a>
    3c42: 4c aa 3c     	jmp	$3caa <redraw+0x89f>
    3c45: c9 0f        	cmp	#$f
    3c47: 90 0d        	bcc	$3c56 <redraw+0x84b>
    3c49: a5 18        	lda	$18                     ; 0x18 <__rc8>
    3c4b: 30 4b        	bmi	$3c98 <redraw+0x88d>
    3c4d: a0 7f        	ldy	#$7f
    3c4f: a2 ff        	ldx	#$ff
    3c51: 86 16        	stx	$16                     ; 0x16 <__rc6>
    3c53: 4c aa 3c     	jmp	$3caa <redraw+0x89f>
    3c56: 8a           	txa
    3c57: 09 80        	ora	#$80
    3c59: a6 15        	ldx	$15                     ; 0x15 <__rc5>
    3c5b: e0 87        	cpx	#$87
    3c5d: b0 0e        	bcs	$3c6d <redraw+0x862>
    3c5f: a0 7a        	ldy	#$7a
    3c61: 64 14        	stz	$14                     ; 0x14 <__rc4>
    3c63: a6 15        	ldx	$15                     ; 0x15 <__rc5>
    3c65: 85 16        	sta	$16                     ; 0x16 <__rc6>
    3c67: e0 86        	cpx	#$86
    3c69: d0 0a        	bne	$3c75 <redraw+0x86a>
    3c6b: 80 1f        	bra	$3c8c <redraw+0x881>
    3c6d: a4 1b        	ldy	$1b                     ; 0x1b <__rc11>
    3c6f: 85 14        	sta	$14                     ; 0x14 <__rc4>
    3c71: b1 24        	lda	($24),y                 ; 0x24 <__rc20>
    3c73: a0 72        	ldy	#$72
    3c75: 18           	clc
    3c76: 85 16        	sta	$16                     ; 0x16 <__rc6>
    3c78: 98           	tya
    3c79: 65 15        	adc	$15                     ; 0x15 <__rc5>
    3c7b: aa           	tax
    3c7c: a5 16        	lda	$16                     ; 0x16 <__rc6>
    3c7e: 46 14        	lsr	$14                     ; 0x14 <__rc4>
    3c80: 64 15        	stz	$15                     ; 0x15 <__rc5>
    3c82: 66 15        	ror	$15                     ; 0x15 <__rc5>
    3c84: 4a           	lsr
    3c85: 05 15        	ora	$15                     ; 0x15 <__rc5>
    3c87: e8           	inx
    3c88: 85 16        	sta	$16                     ; 0x16 <__rc6>
    3c8a: d0 f2        	bne	$3c7e <redraw+0x873>
    3c8c: a2 01        	ldx	#$1
    3c8e: 86 1b        	stx	$1b                     ; 0x1b <__rc11>
    3c90: a5 18        	lda	$18                     ; 0x18 <__rc8>
    3c92: 30 0a        	bmi	$3c9e <redraw+0x893>
    3c94: a4 14        	ldy	$14                     ; 0x14 <__rc4>
    3c96: 80 12        	bra	$3caa <redraw+0x89f>
    3c98: a0 80        	ldy	#$80
    3c9a: 64 16        	stz	$16                     ; 0x16 <__rc6>
    3c9c: 80 0c        	bra	$3caa <redraw+0x89f>
    3c9e: 38           	sec
    3c9f: a9 00        	lda	#$0
    3ca1: e5 16        	sbc	$16                     ; 0x16 <__rc6>
    3ca3: 85 16        	sta	$16                     ; 0x16 <__rc6>
    3ca5: a9 00        	lda	#$0
    3ca7: e5 14        	sbc	$14                     ; 0x14 <__rc4>
    3ca9: a8           	tay
    3caa: 18           	clc
    3cab: a5 17        	lda	$17                     ; 0x17 <__rc7>
    3cad: 69 a0        	adc	#$a0
    3caf: 85 18        	sta	$18                     ; 0x18 <__rc8>
    3cb1: a5 19        	lda	$19                     ; 0x19 <__rc9>
    3cb3: 69 00        	adc	#$0
    3cb5: 85 19        	sta	$19                     ; 0x19 <__rc9>
    3cb7: 18           	clc
    3cb8: a5 16        	lda	$16                     ; 0x16 <__rc6>
    3cba: 69 a0        	adc	#$a0
    3cbc: 85 1f        	sta	$1f                     ; 0x1f <__rc15>
    3cbe: 98           	tya
    3cbf: 69 00        	adc	#$0
    3cc1: 85 22        	sta	$22                     ; 0x22 <__rc18>
    3cc3: a6 1d        	ldx	$1d                     ; 0x1d <__rc13>
    3cc5: 86 16        	stx	$16                     ; 0x16 <__rc6>
    3cc7: a6 1e        	ldx	$1e                     ; 0x1e <__rc14>
    3cc9: 86 17        	stx	$17                     ; 0x17 <__rc7>
    3ccb: a0 02        	ldy	#$2
    3ccd: b1 16        	lda	($16),y                 ; 0x16 <__rc6>
    3ccf: aa           	tax
    3cd0: c8           	iny
    3cd1: b1 16        	lda	($16),y                 ; 0x16 <__rc6>
    3cd3: a8           	tay
    3cd4: 8a           	txa
    3cd5: 0a           	asl
    3cd6: 84 14        	sty	$14                     ; 0x14 <__rc4>
    3cd8: 26 14        	rol	$14                     ; 0x14 <__rc4>
    3cda: a5 14        	lda	$14                     ; 0x14 <__rc4>
    3cdc: 18           	clc
    3cdd: 69 81        	adc	#$81
    3cdf: 10 03        	bpl	$3ce4 <redraw+0x8d9>
    3ce1: 4c 44 3d     	jmp	$3d44 <redraw+0x939>
    3ce4: 84 1d        	sty	$1d                     ; 0x1d <__rc13>
    3ce6: c9 0f        	cmp	#$f
    3ce8: 90 13        	bcc	$3cfd <redraw+0x8f2>
    3cea: a9 00        	lda	#$0
    3cec: a6 1d        	ldx	$1d                     ; 0x1d <__rc13>
    3cee: 30 02        	bmi	$3cf2 <redraw+0x8e7>
    3cf0: a9 01        	lda	#$1
    3cf2: 4a           	lsr
    3cf3: 64 13        	stz	$13                     ; 0x13 <__rc3>
    3cf5: 66 13        	ror	$13                     ; 0x13 <__rc3>
    3cf7: 10 19        	bpl	$3d12 <redraw+0x907>
    3cf9: a9 ff        	lda	#$ff
    3cfb: 80 17        	bra	$3d14 <redraw+0x909>
    3cfd: 8a           	txa
    3cfe: 09 80        	ora	#$80
    3d00: a6 14        	ldx	$14                     ; 0x14 <__rc4>
    3d02: e0 87        	cpx	#$87
    3d04: b0 13        	bcs	$3d19 <redraw+0x90e>
    3d06: a6 14        	ldx	$14                     ; 0x14 <__rc4>
    3d08: e0 86        	cpx	#$86
    3d0a: f0 03        	beq	$3d0f <redraw+0x904>
    3d0c: 4c 41 3e     	jmp	$3e41 <redraw+0xa36>
    3d0f: 4c 3c 3e     	jmp	$3e3c <redraw+0xa31>
    3d12: a9 00        	lda	#$0
    3d14: 06 13        	asl	$13                     ; 0x13 <__rc3>
    3d16: 2a           	rol
    3d17: 80 29        	bra	$3d42 <redraw+0x937>
    3d19: a4 1b        	ldy	$1b                     ; 0x1b <__rc11>
    3d1b: aa           	tax
    3d1c: b1 16        	lda	($16),y                 ; 0x16 <__rc6>
    3d1e: 85 13        	sta	$13                     ; 0x13 <__rc3>
    3d20: a0 72        	ldy	#$72
    3d22: 18           	clc
    3d23: 98           	tya
    3d24: 65 14        	adc	$14                     ; 0x14 <__rc4>
    3d26: a8           	tay
    3d27: 86 14        	stx	$14                     ; 0x14 <__rc4>
    3d29: a5 13        	lda	$13                     ; 0x13 <__rc3>
    3d2b: 46 14        	lsr	$14                     ; 0x14 <__rc4>
    3d2d: 64 13        	stz	$13                     ; 0x13 <__rc3>
    3d2f: 66 13        	ror	$13                     ; 0x13 <__rc3>
    3d31: 4a           	lsr
    3d32: 05 13        	ora	$13                     ; 0x13 <__rc3>
    3d34: c8           	iny
    3d35: 85 13        	sta	$13                     ; 0x13 <__rc3>
    3d37: d0 f2        	bne	$3d2b <redraw+0x920>
    3d39: a5 1d        	lda	$1d                     ; 0x1d <__rc13>
    3d3b: 10 07        	bpl	$3d44 <redraw+0x939>
    3d3d: 38           	sec
    3d3e: a9 00        	lda	#$0
    3d40: e5 13        	sbc	$13                     ; 0x13 <__rc3>
    3d42: 85 13        	sta	$13                     ; 0x13 <__rc3>
    3d44: a2 01        	ldx	#$1
    3d46: 86 17        	stx	$17                     ; 0x17 <__rc7>
    3d48: a2 03        	ldx	#$3
    3d4a: 86 16        	stx	$16                     ; 0x16 <__rc6>
    3d4c: 38           	sec
    3d4d: a9 8c        	lda	#$8c
    3d4f: e5 12        	sbc	$12                     ; 0x12 <__rc2>
    3d51: a8           	tay
    3d52: 38           	sec
    3d53: a9 8c        	lda	#$8c
    3d55: e5 13        	sbc	$13                     ; 0x13 <__rc3>
    3d57: a6 28        	ldx	$28                     ; 0x28 <__rc24>
    3d59: 8e 80 d1     	stx	$d180                   ; 0xd180 <end_block9+0x8eee>
    3d5c: 9c 82 d1     	stz	$d182                   ; 0xd182 <end_block9+0x8ef0>
    3d5f: 9c 83 d1     	stz	$d183                   ; 0xd183 <end_block9+0x8ef1>
    3d62: a6 1c        	ldx	$1c                     ; 0x1c <__rc12>
    3d64: 8e 81 d1     	stx	$d181                   ; 0xd181 <end_block9+0x8eef>
    3d67: a6 18        	ldx	$18                     ; 0x18 <__rc8>
    3d69: 8e 82 d1     	stx	$d182                   ; 0xd182 <end_block9+0x8ef0>
    3d6c: a6 19        	ldx	$19                     ; 0x19 <__rc9>
    3d6e: 8e 83 d1     	stx	$d183                   ; 0xd183 <end_block9+0x8ef1>
    3d71: a6 1f        	ldx	$1f                     ; 0x1f <__rc15>
    3d73: 8e 84 d1     	stx	$d184                   ; 0xd184 <end_block9+0x8ef2>
    3d76: a6 22        	ldx	$22                     ; 0x22 <__rc18>
    3d78: 8e 85 d1     	stx	$d185                   ; 0xd185 <end_block9+0x8ef3>
    3d7b: 8c 86 d1     	sty	$d186                   ; 0xd186 <end_block9+0x8ef4>
    3d7e: 8d 87 d1     	sta	$d187                   ; 0xd187 <end_block9+0x8ef5>
    3d81: a6 26        	ldx	$26                     ; 0x26 <__rc22>
    3d83: 8e 80 d1     	stx	$d180                   ; 0xd180 <end_block9+0x8eee>
    3d86: ae 80 d1     	ldx	$d180                   ; 0xd180 <end_block9+0x8eee>
    3d89: 10 fb        	bpl	$3d86 <redraw+0x97b>
    3d8b: a0 08        	ldy	#$8
    3d8d: b1 10        	lda	($10),y                 ; 0x10 <__rc0>
    3d8f: a8           	tay
    3d90: f0 03        	beq	$3d95 <redraw+0x98a>
    3d92: 4c 87 34     	jmp	$3487 <redraw+0x7c>
    3d95: 5a           	phy
    3d96: a0 09        	ldy	#$9
    3d98: b1 10        	lda	($10),y                 ; 0x10 <__rc0>
    3d9a: 7a           	ply
    3d9b: c9 19        	cmp	#$19
    3d9d: b0 03        	bcs	$3da2 <redraw+0x997>
    3d9f: 4c 8e 34     	jmp	$348e <redraw+0x83>
    3da2: 9c 0a d0     	stz	$d00a                   ; 0xd00a <end_block9+0x8d78>
    3da5: a0 00        	ldy	#$0
    3da7: b1 10        	lda	($10),y                 ; 0x10 <__rc0>
    3da9: 85 2f        	sta	$2f                     ; 0x2f <__rc31>
    3dab: c8           	iny
    3dac: b1 10        	lda	($10),y                 ; 0x10 <__rc0>
    3dae: 85 2e        	sta	$2e                     ; 0x2e <__rc30>
    3db0: c8           	iny
    3db1: b1 10        	lda	($10),y                 ; 0x10 <__rc0>
    3db3: 85 2d        	sta	$2d                     ; 0x2d <__rc29>
    3db5: c8           	iny
    3db6: b1 10        	lda	($10),y                 ; 0x10 <__rc0>
    3db8: 85 2c        	sta	$2c                     ; 0x2c <__rc28>
    3dba: c8           	iny
    3dbb: b1 10        	lda	($10),y                 ; 0x10 <__rc0>
    3dbd: 85 2b        	sta	$2b                     ; 0x2b <__rc27>
    3dbf: c8           	iny
    3dc0: b1 10        	lda	($10),y                 ; 0x10 <__rc0>
    3dc2: 85 2a        	sta	$2a                     ; 0x2a <__rc26>
    3dc4: c8           	iny
    3dc5: b1 10        	lda	($10),y                 ; 0x10 <__rc0>
    3dc7: 85 29        	sta	$29                     ; 0x29 <__rc25>
    3dc9: c8           	iny
    3dca: b1 10        	lda	($10),y                 ; 0x10 <__rc0>
    3dcc: 85 28        	sta	$28                     ; 0x28 <__rc24>
    3dce: fa           	plx
    3dcf: 86 27        	stx	$27                     ; 0x27 <__rc23>
    3dd1: fa           	plx
    3dd2: 86 26        	stx	$26                     ; 0x26 <__rc22>
    3dd4: fa           	plx
    3dd5: 86 25        	stx	$25                     ; 0x25 <__rc21>
    3dd7: fa           	plx
    3dd8: 86 24        	stx	$24                     ; 0x24 <__rc20>
    3dda: 18           	clc
    3ddb: a5 10        	lda	$10                     ; 0x10 <__rc0>
    3ddd: 69 0a        	adc	#$a
    3ddf: 85 10        	sta	$10                     ; 0x10 <__rc0>
    3de1: a5 11        	lda	$11                     ; 0x11 <__rc1>
    3de3: 69 00        	adc	#$0
    3de5: 85 11        	sta	$11                     ; 0x11 <__rc1>
    3de7: 60           	rts
    3de8: 85 12        	sta	$12                     ; 0x12 <__rc2>
    3dea: 4c 97 35     	jmp	$3597 <redraw+0x18c>
    3ded: a9 7a        	lda	#$7a
    3def: 84 15        	sty	$15                     ; 0x15 <__rc5>
    3df1: a0 00        	ldy	#$0
    3df3: 4c 81 35     	jmp	$3581 <redraw+0x176>
    3df6: 85 12        	sta	$12                     ; 0x12 <__rc2>
    3df8: 4c af 36     	jmp	$36af <redraw+0x2a4>
    3dfb: a0 7a        	ldy	#$7a
    3dfd: 85 12        	sta	$12                     ; 0x12 <__rc2>
    3dff: a2 00        	ldx	#$0
    3e01: 4c 98 36     	jmp	$3698 <redraw+0x28d>
    3e04: 85 13        	sta	$13                     ; 0x13 <__rc3>
    3e06: 4c 01 38     	jmp	$3801 <redraw+0x3f6>
    3e09: a0 7a        	ldy	#$7a
    3e0b: 85 13        	sta	$13                     ; 0x13 <__rc3>
    3e0d: a2 00        	ldx	#$0
    3e0f: 4c ea 37     	jmp	$37ea <redraw+0x3df>
    3e12: 85 12        	sta	$12                     ; 0x12 <__rc2>
    3e14: 4c 5f 39     	jmp	$395f <redraw+0x554>
    3e17: a0 7a        	ldy	#$7a
    3e19: 85 12        	sta	$12                     ; 0x12 <__rc2>
    3e1b: a2 00        	ldx	#$0
    3e1d: 4c 48 39     	jmp	$3948 <redraw+0x53d>
    3e20: 85 13        	sta	$13                     ; 0x13 <__rc3>
    3e22: 4c b5 3a     	jmp	$3ab5 <redraw+0x6aa>
    3e25: a0 7a        	ldy	#$7a
    3e27: 85 13        	sta	$13                     ; 0x13 <__rc3>
    3e29: a2 00        	ldx	#$0
    3e2b: 4c 9e 3a     	jmp	$3a9e <redraw+0x693>
    3e2e: 85 12        	sta	$12                     ; 0x12 <__rc2>
    3e30: 4c 13 3c     	jmp	$3c13 <redraw+0x808>
    3e33: a0 7a        	ldy	#$7a
    3e35: 85 12        	sta	$12                     ; 0x12 <__rc2>
    3e37: a2 00        	ldx	#$0
    3e39: 4c fc 3b     	jmp	$3bfc <redraw+0x7f1>
    3e3c: 85 13        	sta	$13                     ; 0x13 <__rc3>
    3e3e: 4c 39 3d     	jmp	$3d39 <redraw+0x92e>
    3e41: a0 7a        	ldy	#$7a
    3e43: 85 13        	sta	$13                     ; 0x13 <__rc3>
    3e45: a2 00        	ldx	#$0
    3e47: 4c 22 3d     	jmp	$3d22 <redraw+0x917>

00003e4a <exit>:
    3e4a: 20 bf 03     	jsr	$3bf <_fini>
    3e4d: 80 fe        	bra	$3e4d <exit+0x3>

00003e4f <malloc>:
    3e4f: a8           	tay
    3e50: 8a           	txa
    3e51: a2 00        	ldx	#$0
    3e53: 86 12        	stx	$12                     ; 0x12 <__rc2>
    3e55: a2 00        	ldx	#$0
    3e57: 86 13        	stx	$13                     ; 0x13 <__rc3>
    3e59: aa           	tax
    3e5a: d0 07        	bne	$3e63 <malloc+0x14>
    3e5c: c0 00        	cpy	#$0
    3e5e: d0 03        	bne	$3e63 <malloc+0x14>
    3e60: 4c 71 3f     	jmp	$3f71 <malloc+0x122>
    3e63: 84 16        	sty	$16                     ; 0x16 <__rc6>
    3e65: aa           	tax
    3e66: d0 0e        	bne	$3e76 <malloc+0x27>
    3e68: a6 16        	ldx	$16                     ; 0x16 <__rc6>
    3e6a: e0 07        	cpx	#$7
    3e6c: b0 0c        	bcs	$3e7a <malloc+0x2b>
    3e6e: a2 08        	ldx	#$8
    3e70: 86 e7        	stx	$e7                     ; 0xe7 <__zp_data_size+0x3f>
    3e72: a9 00        	lda	#$0
    3e74: 80 31        	bra	$3ea7 <malloc+0x58>
    3e76: c9 00        	cmp	#$0
    3e78: 90 f4        	bcc	$3e6e <malloc+0x1f>
    3e7a: a8           	tay
    3e7b: a5 16        	lda	$16                     ; 0x16 <__rc6>
    3e7d: 29 01        	and	#$1
    3e7f: a2 02        	ldx	#$2
    3e81: 64 14        	stz	$14                     ; 0x14 <__rc4>
    3e83: c9 00        	cmp	#$0
    3e85: f0 02        	beq	$3e89 <malloc+0x3a>
    3e87: a2 03        	ldx	#$3
    3e89: 86 15        	stx	$15                     ; 0x15 <__rc5>
    3e8b: 18           	clc
    3e8c: a5 16        	lda	$16                     ; 0x16 <__rc6>
    3e8e: 65 15        	adc	$15                     ; 0x15 <__rc5>
    3e90: aa           	tax
    3e91: 98           	tya
    3e92: 65 14        	adc	$14                     ; 0x14 <__rc4>
    3e94: 90 03        	bcc	$3e99 <malloc+0x4a>
    3e96: 4c 71 3f     	jmp	$3f71 <malloc+0x122>
    3e99: 86 14        	stx	$14                     ; 0x14 <__rc4>
    3e9b: 86 e7        	stx	$e7                     ; 0xe7 <__zp_data_size+0x3f>
    3e9d: aa           	tax
    3e9e: d0 07        	bne	$3ea7 <malloc+0x58>
    3ea0: a6 14        	ldx	$14                     ; 0x14 <__rc4>
    3ea2: d0 03        	bne	$3ea7 <malloc+0x58>
    3ea4: 4c 71 3f     	jmp	$3f71 <malloc+0x122>
    3ea7: 85 ea        	sta	$ea                     ; 0xea <__zp_data_size+0x42>
    3ea9: a5 e2        	lda	$e2                     ; 0xe2 <_ZN12_GLOBAL__N_111initializedE>
    3eab: 29 01        	and	#$1
    3ead: d0 39        	bne	$3ee8 <malloc+0x99>
    3eaf: a9 00        	lda	#$0
    3eb1: a2 10        	ldx	#$10
    3eb3: a0 92        	ldy	#$92
    3eb5: 84 14        	sty	$14                     ; 0x14 <__rc4>
    3eb7: a0 42        	ldy	#$42
    3eb9: 84 15        	sty	$15                     ; 0x15 <__rc5>
    3ebb: a4 12        	ldy	$12                     ; 0x12 <__rc2>
    3ebd: 84 e8        	sty	$e8                     ; 0xe8 <__zp_data_size+0x40>
    3ebf: a4 13        	ldy	$13                     ; 0x13 <__rc3>
    3ec1: 84 e9        	sty	$e9                     ; 0xe9 <__zp_data_size+0x41>
    3ec3: a0 92        	ldy	#$92
    3ec5: 84 12        	sty	$12                     ; 0x12 <__rc2>
    3ec7: a0 42        	ldy	#$42
    3ec9: 84 13        	sty	$13                     ; 0x13 <__rc3>
    3ecb: 20 c0 03     	jsr	$3c0 <_ZN12_GLOBAL__N_19FreeChunk6insertEPvj>
    3ece: a6 e8        	ldx	$e8                     ; 0xe8 <__zp_data_size+0x40>
    3ed0: 86 12        	stx	$12                     ; 0x12 <__rc2>
    3ed2: a6 e9        	ldx	$e9                     ; 0xe9 <__zp_data_size+0x41>
    3ed4: 86 13        	stx	$13                     ; 0x13 <__rc3>
    3ed6: ae 93 42     	ldx	$4293                   ; 0x4293 <end_block9+0x1>
    3ed9: a9 fe        	lda	#$fe
    3edb: 2d 92 42     	and	$4292                   ; 0x4292 <end_block9>
    3ede: 8d 92 42     	sta	$4292                   ; 0x4292 <end_block9>
    3ee1: 8e 93 42     	stx	$4293                   ; 0x4293 <end_block9+0x1>
    3ee4: a2 01        	ldx	#$1
    3ee6: 86 e2        	stx	$e2                     ; 0xe2 <_ZN12_GLOBAL__N_111initializedE>
    3ee8: a5 e5        	lda	$e5                     ; 0xe5 <_ZN12_GLOBAL__N_19free_listE>
    3eea: a6 e6        	ldx	$e6                     ; 0xe6 <_ZN12_GLOBAL__N_19free_listE+0x1>
    3eec: a0 00        	ldy	#$0
    3eee: 84 14        	sty	$14                     ; 0x14 <__rc4>
    3ef0: a0 00        	ldy	#$0
    3ef2: 84 15        	sty	$15                     ; 0x15 <__rc5>
    3ef4: 86 1d        	stx	$1d                     ; 0x1d <__rc13>
    3ef6: e4 15        	cpx	$15                     ; 0x15 <__rc5>
    3ef8: d0 07        	bne	$3f01 <malloc+0xb2>
    3efa: c5 14        	cmp	$14                     ; 0x14 <__rc4>
    3efc: d0 03        	bne	$3f01 <malloc+0xb2>
    3efe: 4c 71 3f     	jmp	$3f71 <malloc+0x122>
    3f01: a0 00        	ldy	#$0
    3f03: a2 10        	ldx	#$10
    3f05: 85 18        	sta	$18                     ; 0x18 <__rc8>
    3f07: 84 14        	sty	$14                     ; 0x14 <__rc4>
    3f09: 86 15        	stx	$15                     ; 0x15 <__rc5>
    3f0b: 18           	clc
    3f0c: a9 92        	lda	#$92
    3f0e: 65 14        	adc	$14                     ; 0x14 <__rc4>
    3f10: 85 14        	sta	$14                     ; 0x14 <__rc4>
    3f12: a9 42        	lda	#$42
    3f14: 65 15        	adc	$15                     ; 0x15 <__rc5>
    3f16: a6 14        	ldx	$14                     ; 0x14 <__rc4>
    3f18: 86 eb        	stx	$eb                     ; 0xeb <__zp_data_size+0x43>
    3f1a: a6 18        	ldx	$18                     ; 0x18 <__rc8>
    3f1c: 86 e8        	stx	$e8                     ; 0xe8 <__zp_data_size+0x40>
    3f1e: 85 17        	sta	$17                     ; 0x17 <__rc7>
    3f20: a6 18        	ldx	$18                     ; 0x18 <__rc8>
    3f22: 86 14        	stx	$14                     ; 0x14 <__rc4>
    3f24: a6 1d        	ldx	$1d                     ; 0x1d <__rc13>
    3f26: 86 15        	stx	$15                     ; 0x15 <__rc5>
    3f28: a0 01        	ldy	#$1
    3f2a: a6 ea        	ldx	$ea                     ; 0xea <__zp_data_size+0x42>
    3f2c: 86 18        	stx	$18                     ; 0x18 <__rc8>
    3f2e: b1 14        	lda	($14),y                 ; 0x14 <__rc4>
    3f30: 85 19        	sta	$19                     ; 0x19 <__rc9>
    3f32: aa           	tax
    3f33: a9 fe        	lda	#$fe
    3f35: 32 14        	and	($14)                   ; 0x14 <__rc4>
    3f37: 85 1a        	sta	$1a                     ; 0x1a <__rc10>
    3f39: e4 18        	cpx	$18                     ; 0x18 <__rc8>
    3f3b: d0 0a        	bne	$3f47 <malloc+0xf8>
    3f3d: a6 e7        	ldx	$e7                     ; 0xe7 <__zp_data_size+0x3f>
    3f3f: 86 1b        	stx	$1b                     ; 0x1b <__rc11>
    3f41: c5 1b        	cmp	$1b                     ; 0x1b <__rc11>
    3f43: b0 2d        	bcs	$3f72 <malloc+0x123>
    3f45: 80 04        	bra	$3f4b <malloc+0xfc>
    3f47: e4 18        	cpx	$18                     ; 0x18 <__rc8>
    3f49: b0 27        	bcs	$3f72 <malloc+0x123>
    3f4b: a5 14        	lda	$14                     ; 0x14 <__rc4>
    3f4d: 18           	clc
    3f4e: 69 02        	adc	#$2
    3f50: 85 1a        	sta	$1a                     ; 0x1a <__rc10>
    3f52: a5 15        	lda	$15                     ; 0x15 <__rc5>
    3f54: 69 00        	adc	#$0
    3f56: 85 1b        	sta	$1b                     ; 0x1b <__rc11>
    3f58: a0 02        	ldy	#$2
    3f5a: b1 14        	lda	($14),y                 ; 0x14 <__rc4>
    3f5c: 85 14        	sta	$14                     ; 0x14 <__rc4>
    3f5e: 88           	dey
    3f5f: b1 1a        	lda	($1a),y                 ; 0x1a <__rc10>
    3f61: 85 15        	sta	$15                     ; 0x15 <__rc5>
    3f63: c5 1d        	cmp	$1d                     ; 0x1d <__rc13>
    3f65: d0 c7        	bne	$3f2e <malloc+0xdf>
    3f67: a5 14        	lda	$14                     ; 0x14 <__rc4>
    3f69: a6 e8        	ldx	$e8                     ; 0xe8 <__zp_data_size+0x40>
    3f6b: 86 19        	stx	$19                     ; 0x19 <__rc9>
    3f6d: c5 19        	cmp	$19                     ; 0x19 <__rc9>
    3f6f: d0 bd        	bne	$3f2e <malloc+0xdf>
    3f71: 60           	rts
    3f72: a5 e3        	lda	$e3                     ; 0xe3 <_ZN12_GLOBAL__N_19free_sizeE>
    3f74: a6 e4        	ldx	$e4                     ; 0xe4 <_ZN12_GLOBAL__N_19free_sizeE+0x1>
    3f76: 86 12        	stx	$12                     ; 0x12 <__rc2>
    3f78: 38           	sec
    3f79: e5 1a        	sbc	$1a                     ; 0x1a <__rc10>
    3f7b: aa           	tax
    3f7c: a5 12        	lda	$12                     ; 0x12 <__rc2>
    3f7e: e5 19        	sbc	$19                     ; 0x19 <__rc9>
    3f80: 85 12        	sta	$12                     ; 0x12 <__rc2>
    3f82: 18           	clc
    3f83: 8a           	txa
    3f84: 69 02        	adc	#$2
    3f86: 85 13        	sta	$13                     ; 0x13 <__rc3>
    3f88: a5 12        	lda	$12                     ; 0x12 <__rc2>
    3f8a: 69 00        	adc	#$0
    3f8c: a6 13        	ldx	$13                     ; 0x13 <__rc3>
    3f8e: 86 e3        	stx	$e3                     ; 0xe3 <_ZN12_GLOBAL__N_19free_sizeE>
    3f90: 85 e4        	sta	$e4                     ; 0xe4 <_ZN12_GLOBAL__N_19free_sizeE+0x1>
    3f92: a0 02        	ldy	#$2
    3f94: a5 14        	lda	$14                     ; 0x14 <__rc4>
    3f96: 18           	clc
    3f97: 69 02        	adc	#$2
    3f99: 85 12        	sta	$12                     ; 0x12 <__rc2>
    3f9b: a5 15        	lda	$15                     ; 0x15 <__rc5>
    3f9d: 69 00        	adc	#$0
    3f9f: 85 13        	sta	$13                     ; 0x13 <__rc3>
    3fa1: b1 14        	lda	($14),y                 ; 0x14 <__rc4>
    3fa3: 85 1e        	sta	$1e                     ; 0x1e <__rc14>
    3fa5: 88           	dey
    3fa6: b1 12        	lda	($12),y                 ; 0x12 <__rc2>
    3fa8: 85 1f        	sta	$1f                     ; 0x1f <__rc15>
    3faa: c5 15        	cmp	$15                     ; 0x15 <__rc5>
    3fac: d0 15        	bne	$3fc3 <malloc+0x174>
    3fae: a5 ea        	lda	$ea                     ; 0xea <__zp_data_size+0x42>
    3fb0: a6 1e        	ldx	$1e                     ; 0x1e <__rc14>
    3fb2: e4 14        	cpx	$14                     ; 0x14 <__rc4>
    3fb4: d0 0d        	bne	$3fc3 <malloc+0x174>
    3fb6: 85 1a        	sta	$1a                     ; 0x1a <__rc10>
    3fb8: a2 00        	ldx	#$0
    3fba: 86 18        	stx	$18                     ; 0x18 <__rc8>
    3fbc: a2 00        	ldx	#$0
    3fbe: 86 19        	stx	$19                     ; 0x19 <__rc9>
    3fc0: 4c 46 40     	jmp	$4046 <malloc+0x1f7>
    3fc3: 18           	clc
    3fc4: a5 14        	lda	$14                     ; 0x14 <__rc4>
    3fc6: 69 04        	adc	#$4
    3fc8: 85 18        	sta	$18                     ; 0x18 <__rc8>
    3fca: a5 15        	lda	$15                     ; 0x15 <__rc5>
    3fcc: 69 00        	adc	#$0
    3fce: 85 19        	sta	$19                     ; 0x19 <__rc9>
    3fd0: a0 04        	ldy	#$4
    3fd2: b1 14        	lda	($14),y                 ; 0x14 <__rc4>
    3fd4: 85 16        	sta	$16                     ; 0x16 <__rc6>
    3fd6: 18           	clc
    3fd7: 69 02        	adc	#$2
    3fd9: 85 1a        	sta	$1a                     ; 0x1a <__rc10>
    3fdb: a0 01        	ldy	#$1
    3fdd: b1 18        	lda	($18),y                 ; 0x18 <__rc8>
    3fdf: aa           	tax
    3fe0: 84 22        	sty	$22                     ; 0x22 <__rc18>
    3fe2: 69 00        	adc	#$0
    3fe4: a4 1a        	ldy	$1a                     ; 0x1a <__rc10>
    3fe6: 84 18        	sty	$18                     ; 0x18 <__rc8>
    3fe8: 85 19        	sta	$19                     ; 0x19 <__rc9>
    3fea: a4 16        	ldy	$16                     ; 0x16 <__rc6>
    3fec: 84 1a        	sty	$1a                     ; 0x1a <__rc10>
    3fee: 86 1b        	stx	$1b                     ; 0x1b <__rc11>
    3ff0: a5 1e        	lda	$1e                     ; 0x1e <__rc14>
    3ff2: a0 02        	ldy	#$2
    3ff4: 91 1a        	sta	($1a),y                 ; 0x1a <__rc10>
    3ff6: 84 1e        	sty	$1e                     ; 0x1e <__rc14>
    3ff8: a5 1f        	lda	$1f                     ; 0x1f <__rc15>
    3ffa: a4 22        	ldy	$22                     ; 0x22 <__rc18>
    3ffc: 91 18        	sta	($18),y                 ; 0x18 <__rc8>
    3ffe: 18           	clc
    3fff: a5 14        	lda	$14                     ; 0x14 <__rc4>
    4001: 69 02        	adc	#$2
    4003: 85 1a        	sta	$1a                     ; 0x1a <__rc10>
    4005: a5 15        	lda	$15                     ; 0x15 <__rc5>
    4007: 69 00        	adc	#$0
    4009: 85 1b        	sta	$1b                     ; 0x1b <__rc11>
    400b: a4 1e        	ldy	$1e                     ; 0x1e <__rc14>
    400d: b1 14        	lda	($14),y                 ; 0x14 <__rc4>
    400f: 85 18        	sta	$18                     ; 0x18 <__rc8>
    4011: 85 1e        	sta	$1e                     ; 0x1e <__rc14>
    4013: a4 22        	ldy	$22                     ; 0x22 <__rc18>
    4015: b1 1a        	lda	($1a),y                 ; 0x1a <__rc10>
    4017: 84 1c        	sty	$1c                     ; 0x1c <__rc12>
    4019: 85 19        	sta	$19                     ; 0x19 <__rc9>
    401b: 85 1a        	sta	$1a                     ; 0x1a <__rc10>
    401d: a5 16        	lda	$16                     ; 0x16 <__rc6>
    401f: a0 04        	ldy	#$4
    4021: 91 18        	sta	($18),y                 ; 0x18 <__rc8>
    4023: 18           	clc
    4024: a5 1e        	lda	$1e                     ; 0x1e <__rc14>
    4026: 69 04        	adc	#$4
    4028: a8           	tay
    4029: a5 1a        	lda	$1a                     ; 0x1a <__rc10>
    402b: 69 00        	adc	#$0
    402d: 84 1a        	sty	$1a                     ; 0x1a <__rc10>
    402f: 85 1b        	sta	$1b                     ; 0x1b <__rc11>
    4031: 8a           	txa
    4032: a4 1c        	ldy	$1c                     ; 0x1c <__rc12>
    4034: 91 1a        	sta	($1a),y                 ; 0x1a <__rc10>
    4036: a5 ea        	lda	$ea                     ; 0xea <__zp_data_size+0x42>
    4038: 85 1a        	sta	$1a                     ; 0x1a <__rc10>
    403a: a6 1d        	ldx	$1d                     ; 0x1d <__rc13>
    403c: e4 15        	cpx	$15                     ; 0x15 <__rc5>
    403e: d0 0e        	bne	$404e <malloc+0x1ff>
    4040: a6 e8        	ldx	$e8                     ; 0xe8 <__zp_data_size+0x40>
    4042: e4 14        	cpx	$14                     ; 0x14 <__rc4>
    4044: d0 08        	bne	$404e <malloc+0x1ff>
    4046: a6 18        	ldx	$18                     ; 0x18 <__rc8>
    4048: a4 19        	ldy	$19                     ; 0x19 <__rc9>
    404a: 86 e5        	stx	$e5                     ; 0xe5 <_ZN12_GLOBAL__N_19free_listE>
    404c: 84 e6        	sty	$e6                     ; 0xe6 <_ZN12_GLOBAL__N_19free_listE+0x1>
    404e: a0 01        	ldy	#$1
    4050: b1 14        	lda	($14),y                 ; 0x14 <__rc4>
    4052: 85 16        	sta	$16                     ; 0x16 <__rc6>
    4054: a9 fe        	lda	#$fe
    4056: 32 14        	and	($14)                   ; 0x14 <__rc4>
    4058: 38           	sec
    4059: a6 e7        	ldx	$e7                     ; 0xe7 <__zp_data_size+0x3f>
    405b: 86 18        	stx	$18                     ; 0x18 <__rc8>
    405d: a8           	tay
    405e: e5 18        	sbc	$18                     ; 0x18 <__rc8>
    4060: 85 19        	sta	$19                     ; 0x19 <__rc9>
    4062: a5 16        	lda	$16                     ; 0x16 <__rc6>
    4064: a6 16        	ldx	$16                     ; 0x16 <__rc6>
    4066: e5 1a        	sbc	$1a                     ; 0x1a <__rc10>
    4068: f0 03        	beq	$406d <malloc+0x21e>
    406a: 4c f9 40     	jmp	$40f9 <malloc+0x2aa>
    406d: 85 16        	sta	$16                     ; 0x16 <__rc6>
    406f: a5 19        	lda	$19                     ; 0x19 <__rc9>
    4071: c9 08        	cmp	#$8
    4073: 86 18        	stx	$18                     ; 0x18 <__rc8>
    4075: b0 03        	bcs	$407a <malloc+0x22b>
    4077: 4c dc 40     	jmp	$40dc <malloc+0x28d>
    407a: a6 17        	ldx	$17                     ; 0x17 <__rc7>
    407c: 86 ee        	stx	$ee                     ; 0xee <__zp_data_size+0x46>
    407e: a6 eb        	ldx	$eb                     ; 0xeb <__zp_data_size+0x43>
    4080: 86 eb        	stx	$eb                     ; 0xeb <__zp_data_size+0x43>
    4082: a6 12        	ldx	$12                     ; 0x12 <__rc2>
    4084: 86 e8        	stx	$e8                     ; 0xe8 <__zp_data_size+0x40>
    4086: a6 13        	ldx	$13                     ; 0x13 <__rc3>
    4088: 86 e9        	stx	$e9                     ; 0xe9 <__zp_data_size+0x41>
    408a: a8           	tay
    408b: 18           	clc
    408c: a6 e7        	ldx	$e7                     ; 0xe7 <__zp_data_size+0x3f>
    408e: 86 e7        	stx	$e7                     ; 0xe7 <__zp_data_size+0x3f>
    4090: 8a           	txa
    4091: 65 14        	adc	$14                     ; 0x14 <__rc4>
    4093: 85 12        	sta	$12                     ; 0x12 <__rc2>
    4095: a5 1a        	lda	$1a                     ; 0x1a <__rc10>
    4097: a6 1a        	ldx	$1a                     ; 0x1a <__rc10>
    4099: 86 ea        	stx	$ea                     ; 0xea <__zp_data_size+0x42>
    409b: 65 15        	adc	$15                     ; 0x15 <__rc5>
    409d: 85 13        	sta	$13                     ; 0x13 <__rc3>
    409f: a6 16        	ldx	$16                     ; 0x16 <__rc6>
    40a1: 98           	tya
    40a2: a4 14        	ldy	$14                     ; 0x14 <__rc4>
    40a4: 84 ec        	sty	$ec                     ; 0xec <__zp_data_size+0x44>
    40a6: a4 15        	ldy	$15                     ; 0x15 <__rc5>
    40a8: 84 ed        	sty	$ed                     ; 0xed <__zp_data_size+0x45>
    40aa: 20 c0 03     	jsr	$3c0 <_ZN12_GLOBAL__N_19FreeChunk6insertEPvj>
    40ad: a6 ec        	ldx	$ec                     ; 0xec <__zp_data_size+0x44>
    40af: 86 14        	stx	$14                     ; 0x14 <__rc4>
    40b1: a6 ed        	ldx	$ed                     ; 0xed <__zp_data_size+0x45>
    40b3: 86 15        	stx	$15                     ; 0x15 <__rc5>
    40b5: a5 e7        	lda	$e7                     ; 0xe7 <__zp_data_size+0x3f>
    40b7: 29 fe        	and	#$fe
    40b9: 85 12        	sta	$12                     ; 0x12 <__rc2>
    40bb: a0 01        	ldy	#$1
    40bd: 98           	tya
    40be: 32 14        	and	($14)                   ; 0x14 <__rc4>
    40c0: 05 12        	ora	$12                     ; 0x12 <__rc2>
    40c2: 92 14        	sta	($14)                   ; 0x14 <__rc4>
    40c4: a5 ea        	lda	$ea                     ; 0xea <__zp_data_size+0x42>
    40c6: 91 14        	sta	($14),y                 ; 0x14 <__rc4>
    40c8: a4 12        	ldy	$12                     ; 0x12 <__rc2>
    40ca: 85 18        	sta	$18                     ; 0x18 <__rc8>
    40cc: a6 e8        	ldx	$e8                     ; 0xe8 <__zp_data_size+0x40>
    40ce: 86 12        	stx	$12                     ; 0x12 <__rc2>
    40d0: a6 e9        	ldx	$e9                     ; 0xe9 <__zp_data_size+0x41>
    40d2: 86 13        	stx	$13                     ; 0x13 <__rc3>
    40d4: a6 eb        	ldx	$eb                     ; 0xeb <__zp_data_size+0x43>
    40d6: 86 eb        	stx	$eb                     ; 0xeb <__zp_data_size+0x43>
    40d8: a6 ee        	ldx	$ee                     ; 0xee <__zp_data_size+0x46>
    40da: 86 17        	stx	$17                     ; 0x17 <__rc7>
    40dc: 18           	clc
    40dd: 98           	tya
    40de: 65 14        	adc	$14                     ; 0x14 <__rc4>
    40e0: 85 16        	sta	$16                     ; 0x16 <__rc6>
    40e2: a5 15        	lda	$15                     ; 0x15 <__rc5>
    40e4: 65 18        	adc	$18                     ; 0x18 <__rc8>
    40e6: 85 15        	sta	$15                     ; 0x15 <__rc5>
    40e8: c5 17        	cmp	$17                     ; 0x17 <__rc7>
    40ea: d0 1a        	bne	$4106 <malloc+0x2b7>
    40ec: a6 eb        	ldx	$eb                     ; 0xeb <__zp_data_size+0x43>
    40ee: 86 14        	stx	$14                     ; 0x14 <__rc4>
    40f0: a6 16        	ldx	$16                     ; 0x16 <__rc6>
    40f2: e4 14        	cpx	$14                     ; 0x14 <__rc4>
    40f4: d0 12        	bne	$4108 <malloc+0x2b9>
    40f6: 4c 71 3f     	jmp	$3f71 <malloc+0x122>
    40f9: 85 16        	sta	$16                     ; 0x16 <__rc6>
    40fb: c9 00        	cmp	#$0
    40fd: 86 18        	stx	$18                     ; 0x18 <__rc8>
    40ff: a5 19        	lda	$19                     ; 0x19 <__rc9>
    4101: 90 d9        	bcc	$40dc <malloc+0x28d>
    4103: 4c 7a 40     	jmp	$407a <malloc+0x22b>
    4106: a6 16        	ldx	$16                     ; 0x16 <__rc6>
    4108: 86 14        	stx	$14                     ; 0x14 <__rc4>
    410a: a0 01        	ldy	#$1
    410c: b1 14        	lda	($14),y                 ; 0x14 <__rc4>
    410e: 85 16        	sta	$16                     ; 0x16 <__rc6>
    4110: a9 fe        	lda	#$fe
    4112: 32 14        	and	($14)                   ; 0x14 <__rc4>
    4114: 92 14        	sta	($14)                   ; 0x14 <__rc4>
    4116: a5 16        	lda	$16                     ; 0x16 <__rc6>
    4118: 91 14        	sta	($14),y                 ; 0x14 <__rc4>
    411a: 60           	rts

0000411b <memcpy>:
    411b: a8           	tay
    411c: 8a           	txa
    411d: d0 03        	bne	$4122 <memcpy+0x7>
    411f: 98           	tya
    4120: f0 24        	beq	$4146 <memcpy+0x2b>
    4122: a5 12        	lda	$12                     ; 0x12 <__rc2>
    4124: 85 16        	sta	$16                     ; 0x16 <__rc6>
    4126: a5 13        	lda	$13                     ; 0x13 <__rc3>
    4128: 85 17        	sta	$17                     ; 0x17 <__rc7>
    412a: b2 14        	lda	($14)                   ; 0x14 <__rc4>
    412c: 92 16        	sta	($16)                   ; 0x16 <__rc6>
    412e: e6 16        	inc	$16                     ; 0x16 <__rc6>
    4130: d0 02        	bne	$4134 <memcpy+0x19>
    4132: e6 17        	inc	$17                     ; 0x17 <__rc7>
    4134: e6 14        	inc	$14                     ; 0x14 <__rc4>
    4136: d0 02        	bne	$413a <memcpy+0x1f>
    4138: e6 15        	inc	$15                     ; 0x15 <__rc5>
    413a: 88           	dey
    413b: c0 ff        	cpy	#$ff
    413d: d0 01        	bne	$4140 <memcpy+0x25>
    413f: ca           	dex
    4140: 8a           	txa
    4141: d0 e7        	bne	$412a <memcpy+0xf>
    4143: 98           	tya
    4144: d0 e4        	bne	$412a <memcpy+0xf>
    4146: 60           	rts

00004147 <__memset>:
    4147: a4 14        	ldy	$14                     ; 0x14 <__rc4>
    4149: d0 04        	bne	$414f <__memset+0x8>
    414b: e0 00        	cpx	#$0
    414d: f0 17        	beq	$4166 <__memset+0x1f>
    414f: 92 12        	sta	($12)                   ; 0x12 <__rc2>
    4151: e6 12        	inc	$12                     ; 0x12 <__rc2>
    4153: d0 02        	bne	$4157 <__memset+0x10>
    4155: e6 13        	inc	$13                     ; 0x13 <__rc3>
    4157: ca           	dex
    4158: e0 ff        	cpx	#$ff
    415a: d0 02        	bne	$415e <__memset+0x17>
    415c: c6 14        	dec	$14                     ; 0x14 <__rc4>
    415e: a4 14        	ldy	$14                     ; 0x14 <__rc4>
    4160: d0 ed        	bne	$414f <__memset+0x8>
    4162: e0 00        	cpx	#$0
    4164: d0 e9        	bne	$414f <__memset+0x8>
    4166: 60           	rts

00004167 <__mulhi3>:
    4167: a4 13        	ldy	$13                     ; 0x13 <__rc3>
    4169: d0 04        	bne	$416f <__mulhi3+0x8>
    416b: a4 12        	ldy	$12                     ; 0x12 <__rc2>
    416d: f0 25        	beq	$4194 <__mulhi3+0x2d>
    416f: 85 14        	sta	$14                     ; 0x14 <__rc4>
    4171: 86 15        	stx	$15                     ; 0x15 <__rc5>
    4173: a0 00        	ldy	#$0
    4175: 98           	tya
    4176: 46 13        	lsr	$13                     ; 0x13 <__rc3>
    4178: 66 12        	ror	$12                     ; 0x12 <__rc2>
    417a: 90 09        	bcc	$4185 <__mulhi3+0x1e>
    417c: aa           	tax
    417d: 98           	tya
    417e: 18           	clc
    417f: 65 14        	adc	$14                     ; 0x14 <__rc4>
    4181: a8           	tay
    4182: 8a           	txa
    4183: 65 15        	adc	$15                     ; 0x15 <__rc5>
    4185: 06 14        	asl	$14                     ; 0x14 <__rc4>
    4187: 26 15        	rol	$15                     ; 0x15 <__rc5>
    4189: a6 13        	ldx	$13                     ; 0x13 <__rc3>
    418b: d0 e9        	bne	$4176 <__mulhi3+0xf>
    418d: a6 12        	ldx	$12                     ; 0x12 <__rc2>
    418f: d0 e5        	bne	$4176 <__mulhi3+0xf>
    4191: aa           	tax
    4192: 98           	tya
    4193: 60           	rts
    4194: a0 00        	ldy	#$0
    4196: 98           	tya
    4197: 80 f8        	bra	$4191 <__mulhi3+0x2a>
