
skull.elf:	file format elf32-mos

SYMBOL TABLE:
00000000 l    df *ABS*	00000000 zero-bss.c
00000000 l    df *ABS*	00000000 zero-zp-bss.c
00000000 l    df *ABS*	00000000 copy-zp-data.c
00000000 l    df *ABS*	00000000 ld-temp.o
000004ca l     F .text	000003a5 f256Init
00007c4e l     O .bss	00000007 kernelEventData
00000030 l     O .zp.data	00000030 textColors
00000060 l     O .zp.bss	00000001 _col
00000061 l     O .zp.bss	00000001 _row
00000067 l     O .zp.bss	00000001 _MAX_X
00000066 l     O .zp.bss	00000001 _color
00000062 l     O .zp.bss	00000004 _BITMAP_BASE.0
00007c55 l     O .bss	00000001 kernelError
00000875 l     F .text	00000e81 f256main
00001d1e l     F .text	00000d31 printf
00006e4d l     O .rodata	00000df8 scene_indices
00002cad l     O .rodata	000041a0 scene_vertices
000016f6 l     F .text	0000043d bitmapLine
00001b38 l     F .text	000000d7 _ZN12_GLOBAL__N_13putEcP6Status
00002a4f l     F .text	000001d8 putchar
00001c0f l     F .text	0000010f _ZN12_GLOBAL__N_112print_stringEPKcP6Status
00000068 l     O .zp.bss	00000002 __putchar.s
00007c4d g     O .bss	00000001 g_fp_last_status
00000427 g       .text	00000000 mathFloatMul
00000476 g       .text	00000000 mathFloatDiv
000003d6 g       .text	00000000 mathFloatSub
00000385 g       .text	00000000 mathFloatAdd
00000014 g       *ABS*	00000000 __rc4
00000013 g       *ABS*	00000000 __rc3
00000015 g       *ABS*	00000000 __rc5
00000012 g       *ABS*	00000000 __rc2
00000017 g       *ABS*	00000000 __rc7
00000016 g       *ABS*	00000000 __rc6
0000086f g     F .text	00000006 main
00000344 g       .text	00000000 __after_main
00000330 g       .text	00000000 __do_init_stack
0000033e g       .text	00000000 __do_copy_zp_data
0000036e g     F .text	00000017 __copy_zp_data
00000338 g       .text	00000000 __do_zero_bss
00000348 g     F .text	00000013 __zero_bss
0000033b g       .text	00000000 __do_zero_zp_bss
0000035b g     F .text	00000013 __zero_zp_bss
00001b33 g     F .text	00000005 exit
00000347 g       .text	00000000 _fini
00002c53  w    F .text	00000020 __memset
00001000  w      *ABS*	00000000 __heap_default_limit
00007c56 g       .noinit	00000000 __heap_start
00002c27  w    F .text	0000002c memcpy
00000010 g       *ABS*	00000000 __rc0
00000018 g       *ABS*	00000000 __rc8
0000001a g       *ABS*	00000000 __rc10
0000001c g       *ABS*	00000000 __rc12
0000001e g       *ABS*	00000000 __rc14
00000020 g       *ABS*	00000000 __rc16
00000022 g       *ABS*	00000000 __rc18
00000024 g       *ABS*	00000000 __rc20
00000026 g       *ABS*	00000000 __rc22
00000028 g       *ABS*	00000000 __rc24
0000002a g       *ABS*	00000000 __rc26
0000002c g       *ABS*	00000000 __rc28
0000002e g       *ABS*	00000000 __rc30
0000002f g       *ABS*	00000000 __rc31
00000300 g       *ABS*	00000000 __f256_start
0000a000 g       *ABS*	00000000 __stack
0000a000 g       *ABS*	00000000 __SLOT_ADDR
0800a000 g       *ABS*	00000000 __block8_lma
00002000 g       *ABS*	00000000 __BLOCK_SIZE
0900a000 g       *ABS*	00000000 __block9_lma
0a00a000 g       *ABS*	00000000 __block10_lma
0b00a000 g       *ABS*	00000000 __block11_lma
0c00a000 g       *ABS*	00000000 __block12_lma
0d00a000 g       *ABS*	00000000 __block13_lma
0e00a000 g       *ABS*	00000000 __block14_lma
0f00a000 g       *ABS*	00000000 __block15_lma
1000a000 g       *ABS*	00000000 __block16_lma
1100a000 g       *ABS*	00000000 __block17_lma
1200a000 g       *ABS*	00000000 __block18_lma
1300a000 g       *ABS*	00000000 __block19_lma
1400a000 g       *ABS*	00000000 __block20_lma
1500a000 g       *ABS*	00000000 __block21_lma
1600a000 g       *ABS*	00000000 __block22_lma
1700a000 g       *ABS*	00000000 __block23_lma
00007c4d g       .bss	00000000 __bss_start
00000330 g       .text	00000000 _start
0000002d g       *ABS*	00000000 __rc29
0000002b g       *ABS*	00000000 __rc27
00000029 g       *ABS*	00000000 __rc25
00000027 g       *ABS*	00000000 __rc23
00000025 g       *ABS*	00000000 __rc21
00000023 g       *ABS*	00000000 __rc19
00000021 g       *ABS*	00000000 __rc17
0000001f g       *ABS*	00000000 __rc15
0000001d g       *ABS*	00000000 __rc13
0000001b g       *ABS*	00000000 __rc11
00000019 g       *ABS*	00000000 __rc9
00000011 g       *ABS*	00000000 __rc1
00000030 g       .zp.data	00000000 __zp_data_start
00000300 g       *ABS*	00000000 __zp_data_load_start
00000030 g       *ABS*	00000000 __zp_data_size
00000060 g       .zp.bss	00000000 __zp_bss_start
0000000a g       *ABS*	00000000 __zp_bss_size
00000330 g       .text	00000000 _init
00002c73 g       .text	00000000 __init_array_start
00002c73 g       .text	00000000 __init_array_end
00002c73 g       .text	00000000 __fini_array_start
00002c73 g       .text	00000000 __fini_array_end
00007c4d g       .data	00000000 __data_start
00007c4d g       .data	00000000 __data_end
00007c4d g       *ABS*	00000000 __data_load_start
00000000 g       *ABS*	00000000 __data_size
00007c56 g       .bss	00000000 __bss_end
00000009 g       *ABS*	00000000 __bss_size
00007c56 g       .noinit	00000000 end_block8
00007c56 g       .noinit	00000000 end_block9
00007c56 g       .noinit	00000000 end_block10
00007c56 g       .noinit	00000000 end_block11
00007c56 g       .noinit	00000000 end_block12
00007c56 g       .noinit	00000000 end_block13
00007c56 g       .noinit	00000000 end_block14
00007c56 g       .noinit	00000000 end_block15
00007c56 g       .noinit	00000000 end_block16
00007c56 g       .noinit	00000000 end_block17
00007c56 g       .noinit	00000000 end_block18
00007c56 g       .noinit	00000000 end_block19
00007c56 g       .noinit	00000000 end_block20
00007c56 g       .noinit	00000000 end_block21
00007c56 g       .noinit	00000000 end_block22
00007c56 g       .noinit	00000000 end_block23

Disassembly of section .text:

00000330 <_start>:
     330: a9 00        	lda	#$0
     332: 85 10        	sta	$10                     ; 0x10 <__rc0>
     334: a9 a0        	lda	#$a0
     336: 85 11        	sta	$11                     ; 0x11 <__rc1>

00000338 <__do_zero_bss>:
     338: 20 48 03     	jsr	$348 <__zero_bss>

0000033b <__do_zero_zp_bss>:
     33b: 20 5b 03     	jsr	$35b <__zero_zp_bss>

0000033e <__do_copy_zp_data>:
     33e: 20 6e 03     	jsr	$36e <__copy_zp_data>
     341: 20 6f 08     	jsr	$86f <main>

00000344 <__after_main>:
     344: 4c 33 1b     	jmp	$1b33 <exit>

00000347 <_fini>:
     347: 60           	rts

00000348 <__zero_bss>:
     348: a2 09        	ldx	#$9
     34a: a0 00        	ldy	#$0
     34c: a9 4d        	lda	#$4d
     34e: 85 12        	sta	$12                     ; 0x12 <__rc2>
     350: a9 7c        	lda	#$7c
     352: 85 13        	sta	$13                     ; 0x13 <__rc3>
     354: a9 00        	lda	#$0
     356: 84 14        	sty	$14                     ; 0x14 <__rc4>
     358: 4c 53 2c     	jmp	$2c53 <__memset>

0000035b <__zero_zp_bss>:
     35b: a2 0a        	ldx	#$a
     35d: a0 00        	ldy	#$0
     35f: a9 60        	lda	#$60
     361: 85 12        	sta	$12                     ; 0x12 <__rc2>
     363: a9 00        	lda	#$0
     365: 85 13        	sta	$13                     ; 0x13 <__rc3>
     367: a9 00        	lda	#$0
     369: 84 14        	sty	$14                     ; 0x14 <__rc4>
     36b: 4c 53 2c     	jmp	$2c53 <__memset>

0000036e <__copy_zp_data>:
     36e: a9 30        	lda	#$30
     370: a2 00        	ldx	#$0
     372: a0 30        	ldy	#$30
     374: 84 12        	sty	$12                     ; 0x12 <__rc2>
     376: a0 00        	ldy	#$0
     378: 84 13        	sty	$13                     ; 0x13 <__rc3>
     37a: a0 00        	ldy	#$0
     37c: 84 14        	sty	$14                     ; 0x14 <__rc4>
     37e: a0 03        	ldy	#$3
     380: 84 15        	sty	$15                     ; 0x15 <__rc5>
     382: 4c 27 2c     	jmp	$2c27 <memcpy>

00000385 <mathFloatAdd>:
     385: 8d 88 de     	sta	$de88                   ; 0xde88 <end_block9+0x6232>
     388: 8e 89 de     	stx	$de89                   ; 0xde89 <end_block9+0x6233>
     38b: a9 40        	lda	#$40
     38d: 8d 80 de     	sta	$de80                   ; 0xde80 <end_block9+0x622a>
     390: a9 02        	lda	#$2
     392: 8d 81 de     	sta	$de81                   ; 0xde81 <end_block9+0x622b>
     395: a5 12        	lda	$12                     ; 0x12 <__rc2>
     397: 8d 8a de     	sta	$de8a                   ; 0xde8a <end_block9+0x6234>
     39a: a5 13        	lda	$13                     ; 0x13 <__rc3>
     39c: 8d 8b de     	sta	$de8b                   ; 0xde8b <end_block9+0x6235>
     39f: a5 14        	lda	$14                     ; 0x14 <__rc4>
     3a1: 8d 8c de     	sta	$de8c                   ; 0xde8c <end_block9+0x6236>
     3a4: a5 15        	lda	$15                     ; 0x15 <__rc5>
     3a6: 8d 8d de     	sta	$de8d                   ; 0xde8d <end_block9+0x6237>
     3a9: a5 16        	lda	$16                     ; 0x16 <__rc6>
     3ab: 8d 8e de     	sta	$de8e                   ; 0xde8e <end_block9+0x6238>
     3ae: a5 17        	lda	$17                     ; 0x17 <__rc7>
     3b0: 8d 8f de     	sta	$de8f                   ; 0xde8f <end_block9+0x6239>
     3b3: a9 0a        	lda	#$a
     3b5: 8d 82 de     	sta	$de82                   ; 0xde82 <end_block9+0x622c>
     3b8: ea           	nop
     3b9: ea           	nop
     3ba: ea           	nop
     3bb: ea           	nop
     3bc: ea           	nop
     3bd: ad 86 de     	lda	$de86                   ; 0xde86 <end_block9+0x6230>
     3c0: 29 0f        	and	#$f
     3c2: 8d 4d 7c     	sta	$7c4d                   ; 0x7c4d <g_fp_last_status>
     3c5: ad 8a de     	lda	$de8a                   ; 0xde8a <end_block9+0x6234>
     3c8: 85 12        	sta	$12                     ; 0x12 <__rc2>
     3ca: ad 8b de     	lda	$de8b                   ; 0xde8b <end_block9+0x6235>
     3cd: 85 13        	sta	$13                     ; 0x13 <__rc3>
     3cf: ad 88 de     	lda	$de88                   ; 0xde88 <end_block9+0x6232>
     3d2: ae 89 de     	ldx	$de89                   ; 0xde89 <end_block9+0x6233>
     3d5: 60           	rts

000003d6 <mathFloatSub>:
     3d6: 8d 88 de     	sta	$de88                   ; 0xde88 <end_block9+0x6232>
     3d9: 8e 89 de     	stx	$de89                   ; 0xde89 <end_block9+0x6233>
     3dc: a9 48        	lda	#$48
     3de: 8d 80 de     	sta	$de80                   ; 0xde80 <end_block9+0x622a>
     3e1: a9 02        	lda	#$2
     3e3: 8d 81 de     	sta	$de81                   ; 0xde81 <end_block9+0x622b>
     3e6: a5 12        	lda	$12                     ; 0x12 <__rc2>
     3e8: 8d 8a de     	sta	$de8a                   ; 0xde8a <end_block9+0x6234>
     3eb: a5 13        	lda	$13                     ; 0x13 <__rc3>
     3ed: 8d 8b de     	sta	$de8b                   ; 0xde8b <end_block9+0x6235>
     3f0: a5 14        	lda	$14                     ; 0x14 <__rc4>
     3f2: 8d 8c de     	sta	$de8c                   ; 0xde8c <end_block9+0x6236>
     3f5: a5 15        	lda	$15                     ; 0x15 <__rc5>
     3f7: 8d 8d de     	sta	$de8d                   ; 0xde8d <end_block9+0x6237>
     3fa: a5 16        	lda	$16                     ; 0x16 <__rc6>
     3fc: 8d 8e de     	sta	$de8e                   ; 0xde8e <end_block9+0x6238>
     3ff: a5 17        	lda	$17                     ; 0x17 <__rc7>
     401: 8d 8f de     	sta	$de8f                   ; 0xde8f <end_block9+0x6239>
     404: a9 0a        	lda	#$a
     406: 8d 82 de     	sta	$de82                   ; 0xde82 <end_block9+0x622c>
     409: ea           	nop
     40a: ea           	nop
     40b: ea           	nop
     40c: ea           	nop
     40d: ea           	nop
     40e: ad 86 de     	lda	$de86                   ; 0xde86 <end_block9+0x6230>
     411: 29 0f        	and	#$f
     413: 8d 4d 7c     	sta	$7c4d                   ; 0x7c4d <g_fp_last_status>
     416: ad 8a de     	lda	$de8a                   ; 0xde8a <end_block9+0x6234>
     419: 85 12        	sta	$12                     ; 0x12 <__rc2>
     41b: ad 8b de     	lda	$de8b                   ; 0xde8b <end_block9+0x6235>
     41e: 85 13        	sta	$13                     ; 0x13 <__rc3>
     420: ad 88 de     	lda	$de88                   ; 0xde88 <end_block9+0x6232>
     423: ae 89 de     	ldx	$de89                   ; 0xde89 <end_block9+0x6233>
     426: 60           	rts

00000427 <mathFloatMul>:
     427: 8d 88 de     	sta	$de88                   ; 0xde88 <end_block9+0x6232>
     42a: 8e 89 de     	stx	$de89                   ; 0xde89 <end_block9+0x6233>
     42d: a9 00        	lda	#$0
     42f: 8d 80 de     	sta	$de80                   ; 0xde80 <end_block9+0x622a>
     432: 8d 81 de     	sta	$de81                   ; 0xde81 <end_block9+0x622b>
     435: a5 12        	lda	$12                     ; 0x12 <__rc2>
     437: 8d 8a de     	sta	$de8a                   ; 0xde8a <end_block9+0x6234>
     43a: a5 13        	lda	$13                     ; 0x13 <__rc3>
     43c: 8d 8b de     	sta	$de8b                   ; 0xde8b <end_block9+0x6235>
     43f: a5 14        	lda	$14                     ; 0x14 <__rc4>
     441: 8d 8c de     	sta	$de8c                   ; 0xde8c <end_block9+0x6236>
     444: a5 15        	lda	$15                     ; 0x15 <__rc5>
     446: 8d 8d de     	sta	$de8d                   ; 0xde8d <end_block9+0x6237>
     449: a5 16        	lda	$16                     ; 0x16 <__rc6>
     44b: 8d 8e de     	sta	$de8e                   ; 0xde8e <end_block9+0x6238>
     44e: a5 17        	lda	$17                     ; 0x17 <__rc7>
     450: 8d 8f de     	sta	$de8f                   ; 0xde8f <end_block9+0x6239>
     453: a9 0a        	lda	#$a
     455: 8d 82 de     	sta	$de82                   ; 0xde82 <end_block9+0x622c>
     458: ea           	nop
     459: ea           	nop
     45a: ea           	nop
     45b: ea           	nop
     45c: ea           	nop
     45d: ad 84 de     	lda	$de84                   ; 0xde84 <end_block9+0x622e>
     460: 29 0f        	and	#$f
     462: 8d 4d 7c     	sta	$7c4d                   ; 0x7c4d <g_fp_last_status>
     465: ad 8a de     	lda	$de8a                   ; 0xde8a <end_block9+0x6234>
     468: 85 12        	sta	$12                     ; 0x12 <__rc2>
     46a: ad 8b de     	lda	$de8b                   ; 0xde8b <end_block9+0x6235>
     46d: 85 13        	sta	$13                     ; 0x13 <__rc3>
     46f: ad 88 de     	lda	$de88                   ; 0xde88 <end_block9+0x6232>
     472: ae 89 de     	ldx	$de89                   ; 0xde89 <end_block9+0x6233>
     475: 60           	rts

00000476 <mathFloatDiv>:
     476: 8d 88 de     	sta	$de88                   ; 0xde88 <end_block9+0x6232>
     479: 8e 89 de     	stx	$de89                   ; 0xde89 <end_block9+0x6233>
     47c: a9 00        	lda	#$0
     47e: 8d 80 de     	sta	$de80                   ; 0xde80 <end_block9+0x622a>
     481: a9 01        	lda	#$1
     483: 8d 81 de     	sta	$de81                   ; 0xde81 <end_block9+0x622b>
     486: a5 12        	lda	$12                     ; 0x12 <__rc2>
     488: 8d 8a de     	sta	$de8a                   ; 0xde8a <end_block9+0x6234>
     48b: a5 13        	lda	$13                     ; 0x13 <__rc3>
     48d: 8d 8b de     	sta	$de8b                   ; 0xde8b <end_block9+0x6235>
     490: a5 14        	lda	$14                     ; 0x14 <__rc4>
     492: 8d 8c de     	sta	$de8c                   ; 0xde8c <end_block9+0x6236>
     495: a5 15        	lda	$15                     ; 0x15 <__rc5>
     497: 8d 8d de     	sta	$de8d                   ; 0xde8d <end_block9+0x6237>
     49a: a5 16        	lda	$16                     ; 0x16 <__rc6>
     49c: 8d 8e de     	sta	$de8e                   ; 0xde8e <end_block9+0x6238>
     49f: a5 17        	lda	$17                     ; 0x17 <__rc7>
     4a1: 8d 8f de     	sta	$de8f                   ; 0xde8f <end_block9+0x6239>
     4a4: a9 0a        	lda	#$a
     4a6: 8d 82 de     	sta	$de82                   ; 0xde82 <end_block9+0x622c>
     4a9: ea           	nop
     4aa: ea           	nop
     4ab: ea           	nop
     4ac: ea           	nop
     4ad: ea           	nop
     4ae: ea           	nop
     4af: ea           	nop
     4b0: ea           	nop
     4b1: ad 85 de     	lda	$de85                   ; 0xde85 <end_block9+0x622f>
     4b4: 29 1f        	and	#$1f
     4b6: 8d 4d 7c     	sta	$7c4d                   ; 0x7c4d <g_fp_last_status>
     4b9: ad 8a de     	lda	$de8a                   ; 0xde8a <end_block9+0x6234>
     4bc: 85 12        	sta	$12                     ; 0x12 <__rc2>
     4be: ad 8b de     	lda	$de8b                   ; 0xde8b <end_block9+0x6235>
     4c1: 85 13        	sta	$13                     ; 0x13 <__rc3>
     4c3: ad 88 de     	lda	$de88                   ; 0xde88 <end_block9+0x6232>
     4c6: ae 89 de     	ldx	$de89                   ; 0xde89 <end_block9+0x6233>
     4c9: 60           	rts

000004ca <f256Init>:
     4ca: 64 14        	stz	$14                     ; 0x14 <__rc4>
     4cc: a2 00        	ldx	#$0
     4ce: 86 12        	stx	$12                     ; 0x12 <__rc2>
     4d0: a2 c0        	ldx	#$c0
     4d2: 86 13        	stx	$13                     ; 0x13 <__rc3>
     4d4: 64 01        	stz	$1                      ; 0x1 <__data_size+0x1>
     4d6: a2 3f        	ldx	#$3f
     4d8: 8e 00 d0     	stx	$d000                   ; 0xd000 <end_block9+0x53aa>
     4db: a2 b3        	ldx	#$b3
     4dd: 86 00        	stx	$0                      ; 0x0 <__data_size>
     4df: 64 08        	stz	$8                      ; 0x8 <__data_size+0x8>
     4e1: a2 01        	ldx	#$1
     4e3: 86 09        	stx	$9                      ; 0x9 <__bss_size>
     4e5: e8           	inx
     4e6: 86 0a        	stx	$a                      ; 0xa <__zp_bss_size>
     4e8: e8           	inx
     4e9: 86 0b        	stx	$b                      ; 0xb <__zp_bss_size+0x1>
     4eb: e8           	inx
     4ec: 86 0c        	stx	$c                      ; 0xc <__zp_bss_size+0x2>
     4ee: e8           	inx
     4ef: 86 0d        	stx	$d                      ; 0xd <__zp_bss_size+0x3>
     4f1: a2 4e        	ldx	#$4e
     4f3: a0 7c        	ldy	#$7c
     4f5: 86 f0        	stx	$f0                     ; 0xf0 <__zp_data_size+0xc0>
     4f7: 84 f1        	sty	$f1                     ; 0xf1 <__zp_data_size+0xc1>
     4f9: a2 00        	ldx	#$0
     4fb: 86 18        	stx	$18                     ; 0x18 <__rc8>
     4fd: ca           	dex
     4fe: 86 19        	stx	$19                     ; 0x19 <__rc9>
     500: 8a           	txa
     501: 0a           	asl
     502: 0a           	asl
     503: 18           	clc
     504: 69 d4        	adc	#$d4
     506: 85 1a        	sta	$1a                     ; 0x1a <__rc10>
     508: a0 00        	ldy	#$0
     50a: 64 17        	stz	$17                     ; 0x17 <__rc7>
     50c: 64 16        	stz	$16                     ; 0x16 <__rc6>
     50e: a6 19        	ldx	$19                     ; 0x19 <__rc9>
     510: e0 03        	cpx	#$3
     512: a6 01        	ldx	$1                      ; 0x1 <__data_size+0x1>
     514: 86 1c        	stx	$1c                     ; 0x1c <__rc12>
     516: a2 d0        	ldx	#$d0
     518: 84 1b        	sty	$1b                     ; 0x1b <__rc11>
     51a: b0 02        	bcs	$51e <f256Init+0x54>
     51c: a6 1a        	ldx	$1a                     ; 0x1a <__rc10>
     51e: 86 15        	stx	$15                     ; 0x15 <__rc5>
     520: a5 17        	lda	$17                     ; 0x17 <__rc7>
     522: 18           	clc
     523: 65 14        	adc	$14                     ; 0x14 <__rc4>
     525: a8           	tay
     526: a6 17        	ldx	$17                     ; 0x17 <__rc7>
     528: a5 16        	lda	$16                     ; 0x16 <__rc6>
     52a: 85 1d        	sta	$1d                     ; 0x1d <__rc13>
     52c: a5 16        	lda	$16                     ; 0x16 <__rc6>
     52e: 65 15        	adc	$15                     ; 0x15 <__rc5>
     530: 84 16        	sty	$16                     ; 0x16 <__rc6>
     532: a0 01        	ldy	#$1
     534: 84 01        	sty	$1                      ; 0x1 <__data_size+0x1>
     536: 85 17        	sta	$17                     ; 0x17 <__rc7>
     538: a5 1b        	lda	$1b                     ; 0x1b <__rc11>
     53a: 92 16        	sta	($16)                   ; 0x16 <__rc6>
     53c: 91 16        	sta	($16),y                 ; 0x16 <__rc6>
     53e: c8           	iny
     53f: 91 16        	sta	($16),y                 ; 0x16 <__rc6>
     541: 85 15        	sta	$15                     ; 0x15 <__rc5>
     543: c8           	iny
     544: a9 ff        	lda	#$ff
     546: 91 16        	sta	($16),y                 ; 0x16 <__rc6>
     548: 8a           	txa
     549: a6 1c        	ldx	$1c                     ; 0x1c <__rc12>
     54b: 86 01        	stx	$1                      ; 0x1 <__data_size+0x1>
     54d: 18           	clc
     54e: 69 04        	adc	#$4
     550: 85 17        	sta	$17                     ; 0x17 <__rc7>
     552: a5 1d        	lda	$1d                     ; 0x1d <__rc13>
     554: 69 00        	adc	#$0
     556: e6 15        	inc	$15                     ; 0x15 <__rc5>
     558: a4 15        	ldy	$15                     ; 0x15 <__rc5>
     55a: 85 16        	sta	$16                     ; 0x16 <__rc6>
     55c: c9 04        	cmp	#$4
     55e: f0 03        	beq	$563 <f256Init+0x99>
     560: 4c 0e 05     	jmp	$50e <f256Init+0x44>
     563: a5 17        	lda	$17                     ; 0x17 <__rc7>
     565: f0 03        	beq	$56a <f256Init+0xa0>
     567: 4c 0e 05     	jmp	$50e <f256Init+0x44>
     56a: a6 18        	ldx	$18                     ; 0x18 <__rc8>
     56c: e8           	inx
     56d: e0 04        	cpx	#$4
     56f: f0 03        	beq	$574 <f256Init+0xaa>
     571: 4c fb 04     	jmp	$4fb <f256Init+0x31>
     574: ad 02 d0     	lda	$d002                   ; 0xd002 <end_block9+0x53ac>
     577: 29 f0        	and	#$f0
     579: 8d 02 d0     	sta	$d002                   ; 0xd002 <end_block9+0x53ac>
     57c: ad 02 d0     	lda	$d002                   ; 0xd002 <end_block9+0x53ac>
     57f: 29 0f        	and	#$f
     581: 09 10        	ora	#$10
     583: 8d 02 d0     	sta	$d002                   ; 0xd002 <end_block9+0x53ac>
     586: a2 02        	ldx	#$2
     588: 8e 03 d0     	stx	$d003                   ; 0xd003 <end_block9+0x53ad>
     58b: ad 01 d0     	lda	$d001                   ; 0xd001 <end_block9+0x53ab>
     58e: 29 f9        	and	#$f9
     590: 09 04        	ora	#$4
     592: 8d 01 d0     	sta	$d001                   ; 0xd001 <end_block9+0x53ab>
     595: 64 14        	stz	$14                     ; 0x14 <__rc4>
     597: 9c 10 d0     	stz	$d010                   ; 0xd010 <end_block9+0x53ba>
     59a: a2 00        	ldx	#$0
     59c: 64 15        	stz	$15                     ; 0x15 <__rc5>
     59e: 86 18        	stx	$18                     ; 0x18 <__rc8>
     5a0: a4 18        	ldy	$18                     ; 0x18 <__rc8>
     5a2: b6 30        	ldx	$30,y                   ; 0x30 <textColors>
     5a4: 86 19        	stx	$19                     ; 0x19 <__rc9>
     5a6: b6 31        	ldx	$31,y                   ; 0x31 <textColors+0x1>
     5a8: 86 1a        	stx	$1a                     ; 0x1a <__rc10>
     5aa: b6 32        	ldx	$32,y                   ; 0x32 <textColors+0x2>
     5ac: 86 1b        	stx	$1b                     ; 0x1b <__rc11>
     5ae: a6 15        	ldx	$15                     ; 0x15 <__rc5>
     5b0: 8e 00 de     	stx	$de00                   ; 0xde00 <end_block9+0x61aa>
     5b3: 86 17        	stx	$17                     ; 0x17 <__rc7>
     5b5: 9c 01 de     	stz	$de01                   ; 0xde01 <end_block9+0x61ab>
     5b8: a2 04        	ldx	#$4
     5ba: 8e 02 de     	stx	$de02                   ; 0xde02 <end_block9+0x61ac>
     5bd: 86 1d        	stx	$1d                     ; 0x1d <__rc13>
     5bf: 9c 03 de     	stz	$de03                   ; 0xde03 <end_block9+0x61ad>
     5c2: ad 10 de     	lda	$de10                   ; 0xde10 <end_block9+0x61ba>
     5c5: ac 11 de     	ldy	$de11                   ; 0xde11 <end_block9+0x61bb>
     5c8: 84 15        	sty	$15                     ; 0x15 <__rc5>
     5ca: ac 12 de     	ldy	$de12                   ; 0xde12 <end_block9+0x61bc>
     5cd: ac 13 de     	ldy	$de13                   ; 0xde13 <end_block9+0x61bd>
     5d0: a2 00        	ldx	#$0
     5d2: 18           	clc
     5d3: 65 14        	adc	$14                     ; 0x14 <__rc4>
     5d5: a8           	tay
     5d6: 86 1f        	stx	$1f                     ; 0x1f <__rc15>
     5d8: a6 17        	ldx	$17                     ; 0x17 <__rc7>
     5da: a9 d8        	lda	#$d8
     5dc: 65 15        	adc	$15                     ; 0x15 <__rc5>
     5de: 84 16        	sty	$16                     ; 0x16 <__rc6>
     5e0: 85 17        	sta	$17                     ; 0x17 <__rc7>
     5e2: a5 1b        	lda	$1b                     ; 0x1b <__rc11>
     5e4: 92 16        	sta	($16)                   ; 0x16 <__rc6>
     5e6: a0 01        	ldy	#$1
     5e8: a5 1a        	lda	$1a                     ; 0x1a <__rc10>
     5ea: 91 16        	sta	($16),y                 ; 0x16 <__rc6>
     5ec: 84 1c        	sty	$1c                     ; 0x1c <__rc12>
     5ee: c8           	iny
     5ef: a5 19        	lda	$19                     ; 0x19 <__rc9>
     5f1: 91 16        	sta	($16),y                 ; 0x16 <__rc6>
     5f3: 84 1e        	sty	$1e                     ; 0x1e <__rc14>
     5f5: c8           	iny
     5f6: a9 ff        	lda	#$ff
     5f8: 91 16        	sta	($16),y                 ; 0x16 <__rc6>
     5fa: 85 23        	sta	$23                     ; 0x23 <__rc19>
     5fc: 84 22        	sty	$22                     ; 0x22 <__rc18>
     5fe: 8e 00 de     	stx	$de00                   ; 0xde00 <end_block9+0x61aa>
     601: 9c 01 de     	stz	$de01                   ; 0xde01 <end_block9+0x61ab>
     604: a4 1d        	ldy	$1d                     ; 0x1d <__rc13>
     606: 8c 02 de     	sty	$de02                   ; 0xde02 <end_block9+0x61ac>
     609: 9c 03 de     	stz	$de03                   ; 0xde03 <end_block9+0x61ad>
     60c: ad 10 de     	lda	$de10                   ; 0xde10 <end_block9+0x61ba>
     60f: 85 15        	sta	$15                     ; 0x15 <__rc5>
     611: ad 11 de     	lda	$de11                   ; 0xde11 <end_block9+0x61bb>
     614: 85 16        	sta	$16                     ; 0x16 <__rc6>
     616: a9 40        	lda	#$40
     618: a4 1f        	ldy	$1f                     ; 0x1f <__rc15>
     61a: c0 01        	cpy	#$1
     61c: 65 15        	adc	$15                     ; 0x15 <__rc5>
     61e: a8           	tay
     61f: a9 d8        	lda	#$d8
     621: 65 16        	adc	$16                     ; 0x16 <__rc6>
     623: 85 17        	sta	$17                     ; 0x17 <__rc7>
     625: 84 16        	sty	$16                     ; 0x16 <__rc6>
     627: ad 12 de     	lda	$de12                   ; 0xde12 <end_block9+0x61bc>
     62a: ad 13 de     	lda	$de13                   ; 0xde13 <end_block9+0x61bd>
     62d: a5 1b        	lda	$1b                     ; 0x1b <__rc11>
     62f: 92 16        	sta	($16)                   ; 0x16 <__rc6>
     631: a5 1a        	lda	$1a                     ; 0x1a <__rc10>
     633: a4 1c        	ldy	$1c                     ; 0x1c <__rc12>
     635: 91 16        	sta	($16),y                 ; 0x16 <__rc6>
     637: a5 19        	lda	$19                     ; 0x19 <__rc9>
     639: a4 1e        	ldy	$1e                     ; 0x1e <__rc14>
     63b: 91 16        	sta	($16),y                 ; 0x16 <__rc6>
     63d: a4 22        	ldy	$22                     ; 0x22 <__rc18>
     63f: a5 23        	lda	$23                     ; 0x23 <__rc19>
     641: 91 16        	sta	($16),y                 ; 0x16 <__rc6>
     643: e8           	inx
     644: 86 15        	stx	$15                     ; 0x15 <__rc5>
     646: 18           	clc
     647: a5 18        	lda	$18                     ; 0x18 <__rc8>
     649: 69 03        	adc	#$3
     64b: aa           	tax
     64c: c9 30        	cmp	#$30
     64e: f0 03        	beq	$653 <f256Init+0x189>
     650: 4c 9e 05     	jmp	$59e <f256Init+0xd4>
     653: a6 01        	ldx	$1                      ; 0x1 <__data_size+0x1>
     655: 86 18        	stx	$18                     ; 0x18 <__rc8>
     657: a2 50        	ldx	#$50
     659: 8e 00 de     	stx	$de00                   ; 0xde00 <end_block9+0x61aa>
     65c: 9c 01 de     	stz	$de01                   ; 0xde01 <end_block9+0x61ab>
     65f: a2 1e        	ldx	#$1e
     661: 8e 02 de     	stx	$de02                   ; 0xde02 <end_block9+0x61ac>
     664: 9c 03 de     	stz	$de03                   ; 0xde03 <end_block9+0x61ad>
     667: ae 10 de     	ldx	$de10                   ; 0xde10 <end_block9+0x61ba>
     66a: ac 11 de     	ldy	$de11                   ; 0xde11 <end_block9+0x61bb>
     66d: ad 12 de     	lda	$de12                   ; 0xde12 <end_block9+0x61bc>
     670: ad 13 de     	lda	$de13                   ; 0xde13 <end_block9+0x61bd>
     673: a9 02        	lda	#$2
     675: 85 01        	sta	$1                      ; 0x1 <__data_size+0x1>
     677: e0 01        	cpx	#$1
     679: 98           	tya
     67a: e9 00        	sbc	#$0
     67c: 50 02        	bvc	$680 <f256Init+0x1b6>
     67e: 49 80        	eor	#$80
     680: c9 00        	cmp	#$0
     682: 30 48        	bmi	$6cc <f256Init+0x202>
     684: a9 20        	lda	#$20
     686: 86 19        	stx	$19                     ; 0x19 <__rc9>
     688: 86 14        	stx	$14                     ; 0x14 <__rc4>
     68a: 84 15        	sty	$15                     ; 0x15 <__rc5>
     68c: a2 00        	ldx	#$0
     68e: 86 16        	stx	$16                     ; 0x16 <__rc6>
     690: a2 c0        	ldx	#$c0
     692: 86 17        	stx	$17                     ; 0x17 <__rc7>
     694: 92 16        	sta	($16)                   ; 0x16 <__rc6>
     696: e6 16        	inc	$16                     ; 0x16 <__rc6>
     698: d0 02        	bne	$69c <f256Init+0x1d2>
     69a: e6 17        	inc	$17                     ; 0x17 <__rc7>
     69c: a2 ff        	ldx	#$ff
     69e: c6 14        	dec	$14                     ; 0x14 <__rc4>
     6a0: e4 14        	cpx	$14                     ; 0x14 <__rc4>
     6a2: d0 02        	bne	$6a6 <f256Init+0x1dc>
     6a4: c6 15        	dec	$15                     ; 0x15 <__rc5>
     6a6: a6 15        	ldx	$15                     ; 0x15 <__rc5>
     6a8: d0 ea        	bne	$694 <f256Init+0x1ca>
     6aa: a6 14        	ldx	$14                     ; 0x14 <__rc4>
     6ac: d0 e6        	bne	$694 <f256Init+0x1ca>
     6ae: a2 03        	ldx	#$3
     6b0: 86 01        	stx	$1                      ; 0x1 <__data_size+0x1>
     6b2: a6 19        	ldx	$19                     ; 0x19 <__rc9>
     6b4: a9 f0        	lda	#$f0
     6b6: 92 12        	sta	($12)                   ; 0x12 <__rc2>
     6b8: e6 12        	inc	$12                     ; 0x12 <__rc2>
     6ba: d0 02        	bne	$6be <f256Init+0x1f4>
     6bc: e6 13        	inc	$13                     ; 0x13 <__rc3>
     6be: ca           	dex
     6bf: e0 ff        	cpx	#$ff
     6c1: d0 01        	bne	$6c4 <f256Init+0x1fa>
     6c3: 88           	dey
     6c4: 98           	tya
     6c5: d0 ed        	bne	$6b4 <f256Init+0x1ea>
     6c7: 8a           	txa
     6c8: d0 ea        	bne	$6b4 <f256Init+0x1ea>
     6ca: 80 04        	bra	$6d0 <f256Init+0x206>
     6cc: a2 03        	ldx	#$3
     6ce: 86 01        	stx	$1                      ; 0x1 <__data_size+0x1>
     6d0: a6 18        	ldx	$18                     ; 0x18 <__rc8>
     6d2: 86 01        	stx	$1                      ; 0x1 <__data_size+0x1>
     6d4: 64 60        	stz	$60                     ; 0x60 <_col>
     6d6: 9c 14 d0     	stz	$d014                   ; 0xd014 <end_block9+0x53be>
     6d9: 9c 15 d0     	stz	$d015                   ; 0xd015 <end_block9+0x53bf>
     6dc: 64 61        	stz	$61                     ; 0x61 <_row>
     6de: 9c 16 d0     	stz	$d016                   ; 0xd016 <end_block9+0x53c0>
     6e1: 9c 17 d0     	stz	$d017                   ; 0xd017 <end_block9+0x53c1>
     6e4: a0 01        	ldy	#$1
     6e6: 84 67        	sty	$67                     ; 0x67 <_MAX_X>
     6e8: a2 40        	ldx	#$40
     6ea: 8e 00 de     	stx	$de00                   ; 0xde00 <end_block9+0x61aa>
     6ed: 8c 01 de     	sty	$de01                   ; 0xde01 <end_block9+0x61ab>
     6f0: a2 f0        	ldx	#$f0
     6f2: 8e 02 de     	stx	$de02                   ; 0xde02 <end_block9+0x61ac>
     6f5: 9c 03 de     	stz	$de03                   ; 0xde03 <end_block9+0x61ad>
     6f8: ae 10 de     	ldx	$de10                   ; 0xde10 <end_block9+0x61ba>
     6fb: 86 17        	stx	$17                     ; 0x17 <__rc7>
     6fd: ae 11 de     	ldx	$de11                   ; 0xde11 <end_block9+0x61bb>
     700: 86 12        	stx	$12                     ; 0x12 <__rc2>
     702: ae 12 de     	ldx	$de12                   ; 0xde12 <end_block9+0x61bc>
     705: 86 13        	stx	$13                     ; 0x13 <__rc3>
     707: ae 13 de     	ldx	$de13                   ; 0xde13 <end_block9+0x61bd>
     70a: 86 14        	stx	$14                     ; 0x14 <__rc4>
     70c: 84 66        	sty	$66                     ; 0x66 <_color>
     70e: a4 12        	ldy	$12                     ; 0x12 <__rc2>
     710: 84 15        	sty	$15                     ; 0x15 <__rc5>
     712: 06 15        	asl	$15                     ; 0x15 <__rc5>
     714: a5 13        	lda	$13                     ; 0x13 <__rc3>
     716: 2a           	rol
     717: 86 16        	stx	$16                     ; 0x16 <__rc6>
     719: 26 16        	rol	$16                     ; 0x16 <__rc6>
     71b: 06 15        	asl	$15                     ; 0x15 <__rc5>
     71d: 2a           	rol
     71e: 26 16        	rol	$16                     ; 0x16 <__rc6>
     720: 06 15        	asl	$15                     ; 0x15 <__rc5>
     722: 2a           	rol
     723: 26 16        	rol	$16                     ; 0x16 <__rc6>
     725: 85 15        	sta	$15                     ; 0x15 <__rc5>
     727: 8d 00 de     	sta	$de00                   ; 0xde00 <end_block9+0x61aa>
     72a: a5 16        	lda	$16                     ; 0x16 <__rc6>
     72c: 8d 01 de     	sta	$de01                   ; 0xde01 <end_block9+0x61ab>
     72f: 9c 02 de     	stz	$de02                   ; 0xde02 <end_block9+0x61ac>
     732: a2 20        	ldx	#$20
     734: 8e 03 de     	stx	$de03                   ; 0xde03 <end_block9+0x61ad>
     737: ae 10 de     	ldx	$de10                   ; 0xde10 <end_block9+0x61ba>
     73a: 86 16        	stx	$16                     ; 0x16 <__rc6>
     73c: ae 11 de     	ldx	$de11                   ; 0xde11 <end_block9+0x61bb>
     73f: 86 18        	stx	$18                     ; 0x18 <__rc8>
     741: ac 12 de     	ldy	$de12                   ; 0xde12 <end_block9+0x61bc>
     744: ae 13 de     	ldx	$de13                   ; 0xde13 <end_block9+0x61bd>
     747: e4 14        	cpx	$14                     ; 0x14 <__rc4>
     749: d0 14        	bne	$75f <f256Init+0x295>
     74b: c4 13        	cpy	$13                     ; 0x13 <__rc3>
     74d: d0 10        	bne	$75f <f256Init+0x295>
     74f: a6 18        	ldx	$18                     ; 0x18 <__rc8>
     751: e4 12        	cpx	$12                     ; 0x12 <__rc2>
     753: d0 0a        	bne	$75f <f256Init+0x295>
     755: a6 16        	ldx	$16                     ; 0x16 <__rc6>
     757: e4 17        	cpx	$17                     ; 0x17 <__rc7>
     759: d0 04        	bne	$75f <f256Init+0x295>
     75b: a6 15        	ldx	$15                     ; 0x15 <__rc5>
     75d: 80 06        	bra	$765 <f256Init+0x29b>
     75f: a6 15        	ldx	$15                     ; 0x15 <__rc5>
     761: e8           	inx
     762: d0 01        	bne	$765 <f256Init+0x29b>
     764: 1a           	inc
     765: 8e 00 de     	stx	$de00                   ; 0xde00 <end_block9+0x61aa>
     768: 8d 01 de     	sta	$de01                   ; 0xde01 <end_block9+0x61ab>
     76b: 9c 02 de     	stz	$de02                   ; 0xde02 <end_block9+0x61ac>
     76e: a2 20        	ldx	#$20
     770: 8e 03 de     	stx	$de03                   ; 0xde03 <end_block9+0x61ad>
     773: ae 10 de     	ldx	$de10                   ; 0xde10 <end_block9+0x61ba>
     776: 86 12        	stx	$12                     ; 0x12 <__rc2>
     778: ae 11 de     	ldx	$de11                   ; 0xde11 <end_block9+0x61bb>
     77b: 86 13        	stx	$13                     ; 0x13 <__rc3>
     77d: ae 12 de     	ldx	$de12                   ; 0xde12 <end_block9+0x61bc>
     780: 86 14        	stx	$14                     ; 0x14 <__rc4>
     782: ae 13 de     	ldx	$de13                   ; 0xde13 <end_block9+0x61bd>
     785: 86 15        	stx	$15                     ; 0x15 <__rc5>
     787: 38           	sec
     788: a9 00        	lda	#$0
     78a: e5 12        	sbc	$12                     ; 0x12 <__rc2>
     78c: 85 16        	sta	$16                     ; 0x16 <__rc6>
     78e: a9 00        	lda	#$0
     790: e5 13        	sbc	$13                     ; 0x13 <__rc3>
     792: 85 17        	sta	$17                     ; 0x17 <__rc7>
     794: a9 08        	lda	#$8
     796: e5 14        	sbc	$14                     ; 0x14 <__rc4>
     798: aa           	tax
     799: a9 00        	lda	#$0
     79b: e5 15        	sbc	$15                     ; 0x15 <__rc5>
     79d: a8           	tay
     79e: a5 17        	lda	$17                     ; 0x17 <__rc7>
     7a0: 85 63        	sta	$63                     ; 0x63 <_BITMAP_BASE.0+0x1>
     7a2: 86 64        	stx	$64                     ; 0x64 <_BITMAP_BASE.0+0x2>
     7a4: 84 65        	sty	$65                     ; 0x65 <_BITMAP_BASE.0+0x3>
     7a6: a5 16        	lda	$16                     ; 0x16 <__rc6>
     7a8: 38           	sec
     7a9: e5 12        	sbc	$12                     ; 0x12 <__rc2>
     7ab: a8           	tay
     7ac: a5 17        	lda	$17                     ; 0x17 <__rc7>
     7ae: e5 13        	sbc	$13                     ; 0x13 <__rc3>
     7b0: 85 15        	sta	$15                     ; 0x15 <__rc5>
     7b2: 8a           	txa
     7b3: e5 14        	sbc	$14                     ; 0x14 <__rc4>
     7b5: aa           	tax
     7b6: 98           	tya
     7b7: 38           	sec
     7b8: e5 12        	sbc	$12                     ; 0x12 <__rc2>
     7ba: 85 12        	sta	$12                     ; 0x12 <__rc2>
     7bc: a5 15        	lda	$15                     ; 0x15 <__rc5>
     7be: e5 13        	sbc	$13                     ; 0x13 <__rc3>
     7c0: 85 13        	sta	$13                     ; 0x13 <__rc3>
     7c2: 8a           	txa
     7c3: 86 17        	stx	$17                     ; 0x17 <__rc7>
     7c5: e5 14        	sbc	$14                     ; 0x14 <__rc4>
     7c7: a6 16        	ldx	$16                     ; 0x16 <__rc6>
     7c9: 86 62        	stx	$62                     ; 0x62 <_BITMAP_BASE.0>
     7cb: 8e 01 d1     	stx	$d101                   ; 0xd101 <end_block9+0x54ab>
     7ce: a6 63        	ldx	$63                     ; 0x63 <_BITMAP_BASE.0+0x1>
     7d0: 8e 02 d1     	stx	$d102                   ; 0xd102 <end_block9+0x54ac>
     7d3: a6 64        	ldx	$64                     ; 0x64 <_BITMAP_BASE.0+0x2>
     7d5: 8e 03 d1     	stx	$d103                   ; 0xd103 <end_block9+0x54ad>
     7d8: 8c 09 d1     	sty	$d109                   ; 0xd109 <end_block9+0x54b3>
     7db: a6 15        	ldx	$15                     ; 0x15 <__rc5>
     7dd: 8e 0a d1     	stx	$d10a                   ; 0xd10a <end_block9+0x54b4>
     7e0: a6 17        	ldx	$17                     ; 0x17 <__rc7>
     7e2: 8e 0b d1     	stx	$d10b                   ; 0xd10b <end_block9+0x54b5>
     7e5: a6 12        	ldx	$12                     ; 0x12 <__rc2>
     7e7: 8e 11 d1     	stx	$d111                   ; 0xd111 <end_block9+0x54bb>
     7ea: a6 13        	ldx	$13                     ; 0x13 <__rc3>
     7ec: 8e 12 d1     	stx	$d112                   ; 0xd112 <end_block9+0x54bc>
     7ef: 8d 13 d1     	sta	$d113                   ; 0xd113 <end_block9+0x54bd>
     7f2: 9c 00 d1     	stz	$d100                   ; 0xd100 <end_block9+0x54aa>
     7f5: 9c 08 d1     	stz	$d108                   ; 0xd108 <end_block9+0x54b2>
     7f8: 9c 10 d1     	stz	$d110                   ; 0xd110 <end_block9+0x54ba>
     7fb: a2 10        	ldx	#$10
     7fd: 8e 00 d2     	stx	$d200                   ; 0xd200 <end_block9+0x55aa>
     800: 8e 0c d2     	stx	$d20c                   ; 0xd20c <end_block9+0x55b6>
     803: 8e 18 d2     	stx	$d218                   ; 0xd218 <end_block9+0x55c2>
     806: a0 d9        	ldy	#$d9
     808: a2 40        	ldx	#$40
     80a: 64 12        	stz	$12                     ; 0x12 <__rc2>
     80c: 84 13        	sty	$13                     ; 0x13 <__rc3>
     80e: a9 00        	lda	#$0
     810: 92 12        	sta	($12)                   ; 0x12 <__rc2>
     812: ca           	dex
     813: 18           	clc
     814: a5 12        	lda	$12                     ; 0x12 <__rc2>
     816: 69 08        	adc	#$8
     818: 85 12        	sta	$12                     ; 0x12 <__rc2>
     81a: 98           	tya
     81b: 69 00        	adc	#$0
     81d: a8           	tay
     81e: 8a           	txa
     81f: d0 eb        	bne	$80c <f256Init+0x342>
     821: a2 6a        	ldx	#$6a
     823: a0 00        	ldy	#$0
     825: 86 fb        	stx	$fb                     ; 0xfb <__zp_data_size+0xcb>
     827: 84 fc        	sty	$fc                     ; 0xfc <__zp_data_size+0xcc>
     829: a2 08        	ldx	#$8
     82b: 86 fd        	stx	$fd                     ; 0xfd <__zp_data_size+0xcd>
     82d: a2 72        	ldx	#$72
     82f: a0 00        	ldy	#$0
     831: 86 12        	stx	$12                     ; 0x12 <__rc2>
     833: 84 13        	sty	$13                     ; 0x13 <__rc3>
     835: a2 55        	ldx	#$55
     837: 86 14        	stx	$14                     ; 0x14 <__rc4>
     839: a2 7c        	ldx	#$7c
     83b: 86 15        	stx	$15                     ; 0x15 <__rc5>
     83d: 20 dc ff     	jsr	$ffdc <end_block9+0x8386>
     840: 92 12        	sta	($12)                   ; 0x12 <__rc2>
     842: a9 00        	lda	#$0
     844: 6a           	ror
     845: 85 14        	sta	$14                     ; 0x14 <__rc4>
     847: a6 70        	ldx	$70                     ; 0x70 <__zp_data_size+0x40>
     849: a4 71        	ldy	$71                     ; 0x71 <__zp_data_size+0x41>
     84b: 8e 00 de     	stx	$de00                   ; 0xde00 <end_block9+0x61aa>
     84e: 9c 01 de     	stz	$de01                   ; 0xde01 <end_block9+0x61ab>
     851: 8c 02 de     	sty	$de02                   ; 0xde02 <end_block9+0x61ac>
     854: 9c 03 de     	stz	$de03                   ; 0xde03 <end_block9+0x61ad>
     857: ae 10 de     	ldx	$de10                   ; 0xde10 <end_block9+0x61ba>
     85a: ac 11 de     	ldy	$de11                   ; 0xde11 <end_block9+0x61bb>
     85d: ad 12 de     	lda	$de12                   ; 0xde12 <end_block9+0x61bc>
     860: ad 13 de     	lda	$de13                   ; 0xde13 <end_block9+0x61bd>
     863: 8e a4 d6     	stx	$d6a4                   ; 0xd6a4 <end_block9+0x5a4e>
     866: 8c a5 d6     	sty	$d6a5                   ; 0xd6a5 <end_block9+0x5a4f>
     869: a2 03        	ldx	#$3
     86b: 8e a6 d6     	stx	$d6a6                   ; 0xd6a6 <end_block9+0x5a50>
     86e: 60           	rts

0000086f <main>:
     86f: 20 ca 04     	jsr	$4ca <f256Init>
     872: 20 75 08     	jsr	$875 <f256main>

00000875 <f256main>:
     875: 18           	clc
     876: a5 10        	lda	$10                     ; 0x10 <__rc0>
     878: 69 eb        	adc	#$eb
     87a: 85 10        	sta	$10                     ; 0x10 <__rc0>
     87c: a5 11        	lda	$11                     ; 0x11 <__rc1>
     87e: 69 ff        	adc	#$ff
     880: 85 11        	sta	$11                     ; 0x11 <__rc1>
     882: a0 00        	ldy	#$0
     884: a2 00        	ldx	#$0
     886: 86 12        	stx	$12                     ; 0x12 <__rc2>
     888: a2 e0        	ldx	#$e0
     88a: 86 13        	stx	$13                     ; 0x13 <__rc3>
     88c: 64 01        	stz	$1                      ; 0x1 <__data_size+0x1>
     88e: a2 0f        	ldx	#$f
     890: 8e 00 d0     	stx	$d000                   ; 0xd000 <end_block9+0x53aa>
     893: 9c 01 d0     	stz	$d001                   ; 0xd001 <end_block9+0x53ab>
     896: e8           	inx
     897: 8e 02 d0     	stx	$d002                   ; 0xd002 <end_block9+0x53ac>
     89a: a2 02        	ldx	#$2
     89c: 8e 03 d0     	stx	$d003                   ; 0xd003 <end_block9+0x53ad>
     89f: 9c 0d d0     	stz	$d00d                   ; 0xd00d <end_block9+0x53b7>
     8a2: 9c 0e d0     	stz	$d00e                   ; 0xd00e <end_block9+0x53b8>
     8a5: 9c 0f d0     	stz	$d00f                   ; 0xd00f <end_block9+0x53b9>
     8a8: ad 02 d0     	lda	$d002                   ; 0xd002 <end_block9+0x53ac>
     8ab: 29 f0        	and	#$f0
     8ad: 8d 02 d0     	sta	$d002                   ; 0xd002 <end_block9+0x53ac>
     8b0: ad 00 d1     	lda	$d100                   ; 0xd100 <end_block9+0x54aa>
     8b3: 29 f9        	and	#$f9
     8b5: 8d 00 d1     	sta	$d100                   ; 0xd100 <end_block9+0x54aa>
     8b8: 64 66        	stz	$66                     ; 0x66 <_color>
     8ba: a5 63        	lda	$63                     ; 0x63 <_BITMAP_BASE.0+0x1>
     8bc: a6 64        	ldx	$64                     ; 0x64 <_BITMAP_BASE.0+0x2>
     8be: 86 14        	stx	$14                     ; 0x14 <__rc4>
     8c0: 0a           	asl
     8c1: 26 14        	rol	$14                     ; 0x14 <__rc4>
     8c3: 0a           	asl
     8c4: 26 14        	rol	$14                     ; 0x14 <__rc4>
     8c6: 0a           	asl
     8c7: a5 14        	lda	$14                     ; 0x14 <__rc4>
     8c9: 2a           	rol
     8ca: a6 0f        	ldx	$f                      ; 0xf <__zp_bss_size+0x5>
     8cc: 86 18        	stx	$18                     ; 0x18 <__rc8>
     8ce: 78           	sei
     8cf: 80 37        	bra	$908 <f256main+0x93>
     8d1: a9 00        	lda	#$0
     8d3: 06 14        	asl	$14                     ; 0x14 <__rc4>
     8d5: 2a           	rol
     8d6: a2 20        	ldx	#$20
     8d8: 64 14        	stz	$14                     ; 0x14 <__rc4>
     8da: 5a           	phy
     8db: a0 00        	ldy	#$0
     8dd: 84 16        	sty	$16                     ; 0x16 <__rc6>
     8df: a0 e0        	ldy	#$e0
     8e1: 84 17        	sty	$17                     ; 0x17 <__rc7>
     8e3: 7a           	ply
     8e4: 86 15        	stx	$15                     ; 0x15 <__rc5>
     8e6: 92 16        	sta	($16)                   ; 0x16 <__rc6>
     8e8: a2 ff        	ldx	#$ff
     8ea: c6 14        	dec	$14                     ; 0x14 <__rc4>
     8ec: e4 14        	cpx	$14                     ; 0x14 <__rc4>
     8ee: d0 02        	bne	$8f2 <f256main+0x7d>
     8f0: c6 15        	dec	$15                     ; 0x15 <__rc5>
     8f2: e6 16        	inc	$16                     ; 0x16 <__rc6>
     8f4: d0 02        	bne	$8f8 <f256main+0x83>
     8f6: e6 17        	inc	$17                     ; 0x17 <__rc7>
     8f8: a6 15        	ldx	$15                     ; 0x15 <__rc5>
     8fa: d0 ea        	bne	$8e6 <f256main+0x71>
     8fc: a6 14        	ldx	$14                     ; 0x14 <__rc4>
     8fe: d0 e6        	bne	$8e6 <f256main+0x71>
     900: a5 19        	lda	$19                     ; 0x19 <__rc9>
     902: 1a           	inc
     903: c8           	iny
     904: c0 09        	cpy	#$9
     906: f0 11        	beq	$919 <f256main+0xa4>
     908: 85 19        	sta	$19                     ; 0x19 <__rc9>
     90a: 85 0f        	sta	$f                      ; 0xf <__zp_bss_size+0x5>
     90c: a5 66        	lda	$66                     ; 0x66 <_color>
     90e: 4a           	lsr
     90f: 64 14        	stz	$14                     ; 0x14 <__rc4>
     911: 66 14        	ror	$14                     ; 0x14 <__rc4>
     913: 10 bc        	bpl	$8d1 <f256main+0x5c>
     915: a9 ff        	lda	#$ff
     917: 80 ba        	bra	$8d3 <f256main+0x5e>
     919: 85 0f        	sta	$f                      ; 0xf <__zp_bss_size+0x5>
     91b: a6 66        	ldx	$66                     ; 0x66 <_color>
     91d: 86 14        	stx	$14                     ; 0x14 <__rc4>
     91f: a9 00        	lda	#$0
     921: 46 14        	lsr	$14                     ; 0x14 <__rc4>
     923: 64 14        	stz	$14                     ; 0x14 <__rc4>
     925: 66 14        	ror	$14                     ; 0x14 <__rc4>
     927: 10 02        	bpl	$92b <f256main+0xb6>
     929: a9 ff        	lda	#$ff
     92b: 06 14        	asl	$14                     ; 0x14 <__rc4>
     92d: 2a           	rol
     92e: a2 14        	ldx	#$14
     930: a0 00        	ldy	#$0
     932: 86 14        	stx	$14                     ; 0x14 <__rc4>
     934: 92 12        	sta	($12)                   ; 0x12 <__rc2>
     936: 88           	dey
     937: c0 ff        	cpy	#$ff
     939: d0 02        	bne	$93d <f256main+0xc8>
     93b: c6 14        	dec	$14                     ; 0x14 <__rc4>
     93d: e6 12        	inc	$12                     ; 0x12 <__rc2>
     93f: d0 02        	bne	$943 <f256main+0xce>
     941: e6 13        	inc	$13                     ; 0x13 <__rc3>
     943: a6 14        	ldx	$14                     ; 0x14 <__rc4>
     945: d0 ed        	bne	$934 <f256main+0xbf>
     947: c0 00        	cpy	#$0
     949: d0 e9        	bne	$934 <f256main+0xbf>
     94b: a6 18        	ldx	$18                     ; 0x18 <__rc8>
     94d: 86 0f        	stx	$f                      ; 0xf <__zp_bss_size+0x5>
     94f: 58           	cli
     950: a0 01        	ldy	#$1
     952: 84 66        	sty	$66                     ; 0x66 <_color>
     954: 8c 00 d1     	sty	$d100                   ; 0xd100 <end_block9+0x54aa>
     957: a9 68        	lda	#$68
     959: 92 10        	sta	($10)                   ; 0x10 <__rc0>
     95b: a9 10        	lda	#$10
     95d: 91 10        	sta	($10),y                 ; 0x10 <__rc0>
     95f: 20 1e 1d     	jsr	$1d1e <printf>
     962: a2 34        	ldx	#$34
     964: 86 26        	stx	$26                     ; 0x26 <__rc22>
     966: a2 42        	ldx	#$42
     968: 86 27        	stx	$27                     ; 0x27 <__rc23>
     96a: a9 00        	lda	#$0
     96c: aa           	tax
     96d: a0 13        	ldy	#$13
     96f: 91 10        	sta	($10),y                 ; 0x10 <__rc0>
     971: 0a           	asl
     972: 85 12        	sta	$12                     ; 0x12 <__rc2>
     974: 8a           	txa
     975: 88           	dey
     976: 91 10        	sta	($10),y                 ; 0x10 <__rc0>
     978: 2a           	rol
     979: 85 13        	sta	$13                     ; 0x13 <__rc3>
     97b: a9 4d        	lda	#$4d
     97d: a2 00        	ldx	#$0
     97f: 18           	clc
     980: 65 12        	adc	$12                     ; 0x12 <__rc2>
     982: a8           	tay
     983: a9 6e        	lda	#$6e
     985: 65 13        	adc	$13                     ; 0x13 <__rc3>
     987: 84 12        	sty	$12                     ; 0x12 <__rc2>
     989: 85 13        	sta	$13                     ; 0x13 <__rc3>
     98b: 85 1a        	sta	$1a                     ; 0x1a <__rc10>
     98d: b2 12        	lda	($12)                   ; 0x12 <__rc2>
     98f: 85 19        	sta	$19                     ; 0x19 <__rc9>
     991: 18           	clc
     992: 84 1b        	sty	$1b                     ; 0x1b <__rc11>
     994: 98           	tya
     995: 69 02        	adc	#$2
     997: 85 14        	sta	$14                     ; 0x14 <__rc4>
     999: a5 1a        	lda	$1a                     ; 0x1a <__rc10>
     99b: 69 00        	adc	#$0
     99d: 85 15        	sta	$15                     ; 0x15 <__rc5>
     99f: a0 01        	ldy	#$1
     9a1: b1 12        	lda	($12),y                 ; 0x12 <__rc2>
     9a3: 85 18        	sta	$18                     ; 0x18 <__rc8>
     9a5: 84 17        	sty	$17                     ; 0x17 <__rc7>
     9a7: c8           	iny
     9a8: b1 12        	lda	($12),y                 ; 0x12 <__rc2>
     9aa: 84 16        	sty	$16                     ; 0x16 <__rc6>
     9ac: 85 2a        	sta	$2a                     ; 0x2a <__rc26>
     9ae: 18           	clc
     9af: a5 1b        	lda	$1b                     ; 0x1b <__rc11>
     9b1: 69 04        	adc	#$4
     9b3: 85 1b        	sta	$1b                     ; 0x1b <__rc11>
     9b5: a5 1a        	lda	$1a                     ; 0x1a <__rc10>
     9b7: 69 00        	adc	#$0
     9b9: 85 1a        	sta	$1a                     ; 0x1a <__rc10>
     9bb: a4 17        	ldy	$17                     ; 0x17 <__rc7>
     9bd: b1 14        	lda	($14),y                 ; 0x14 <__rc4>
     9bf: 85 2e        	sta	$2e                     ; 0x2e <__rc30>
     9c1: a6 1b        	ldx	$1b                     ; 0x1b <__rc11>
     9c3: 86 14        	stx	$14                     ; 0x14 <__rc4>
     9c5: a6 1a        	ldx	$1a                     ; 0x1a <__rc10>
     9c7: 86 15        	stx	$15                     ; 0x15 <__rc5>
     9c9: a0 04        	ldy	#$4
     9cb: b1 12        	lda	($12),y                 ; 0x12 <__rc2>
     9cd: a0 09        	ldy	#$9
     9cf: 91 10        	sta	($10),y                 ; 0x10 <__rc0>
     9d1: a5 19        	lda	$19                     ; 0x19 <__rc9>
     9d3: 0a           	asl
     9d4: a6 18        	ldx	$18                     ; 0x18 <__rc8>
     9d6: 86 13        	stx	$13                     ; 0x13 <__rc3>
     9d8: 26 13        	rol	$13                     ; 0x13 <__rc3>
     9da: 0a           	asl
     9db: 85 12        	sta	$12                     ; 0x12 <__rc2>
     9dd: 26 13        	rol	$13                     ; 0x13 <__rc3>
     9df: a9 ad        	lda	#$ad
     9e1: 18           	clc
     9e2: 65 12        	adc	$12                     ; 0x12 <__rc2>
     9e4: aa           	tax
     9e5: a9 2c        	lda	#$2c
     9e7: 65 13        	adc	$13                     ; 0x13 <__rc3>
     9e9: 85 18        	sta	$18                     ; 0x18 <__rc8>
     9eb: a4 17        	ldy	$17                     ; 0x17 <__rc7>
     9ed: b1 14        	lda	($14),y                 ; 0x14 <__rc4>
     9ef: 5a           	phy
     9f0: a0 08        	ldy	#$8
     9f2: 91 10        	sta	($10),y                 ; 0x10 <__rc0>
     9f4: 7a           	ply
     9f5: 86 2b        	stx	$2b                     ; 0x2b <__rc27>
     9f7: 86 24        	stx	$24                     ; 0x24 <__rc20>
     9f9: a6 18        	ldx	$18                     ; 0x18 <__rc8>
     9fb: 86 2c        	stx	$2c                     ; 0x2c <__rc28>
     9fd: 86 25        	stx	$25                     ; 0x25 <__rc21>
     9ff: b2 24        	lda	($24)                   ; 0x24 <__rc20>
     a01: 85 1a        	sta	$1a                     ; 0x1a <__rc10>
     a03: b1 24        	lda	($24),y                 ; 0x24 <__rc20>
     a05: aa           	tax
     a06: a4 16        	ldy	$16                     ; 0x16 <__rc6>
     a08: b1 24        	lda	($24),y                 ; 0x24 <__rc20>
     a0a: 85 12        	sta	$12                     ; 0x12 <__rc2>
     a0c: a0 03        	ldy	#$3
     a0e: b1 24        	lda	($24),y                 ; 0x24 <__rc20>
     a10: a8           	tay
     a11: a5 12        	lda	$12                     ; 0x12 <__rc2>
     a13: 5a           	phy
     a14: a0 0d        	ldy	#$d
     a16: 91 10        	sta	($10),y                 ; 0x10 <__rc0>
     a18: 7a           	ply
     a19: 84 13        	sty	$13                     ; 0x13 <__rc3>
     a1b: 98           	tya
     a1c: a0 0c        	ldy	#$c
     a1e: 91 10        	sta	($10),y                 ; 0x10 <__rc0>
     a20: 64 14        	stz	$14                     ; 0x14 <__rc4>
     a22: 64 15        	stz	$15                     ; 0x15 <__rc5>
     a24: a4 26        	ldy	$26                     ; 0x26 <__rc22>
     a26: 84 16        	sty	$16                     ; 0x16 <__rc6>
     a28: a4 27        	ldy	$27                     ; 0x27 <__rc23>
     a2a: 84 17        	sty	$17                     ; 0x17 <__rc7>
     a2c: 8a           	txa
     a2d: a0 0a        	ldy	#$a
     a2f: 91 10        	sta	($10),y                 ; 0x10 <__rc0>
     a31: a5 1a        	lda	$1a                     ; 0x1a <__rc10>
     a33: c8           	iny
     a34: 91 10        	sta	($10),y                 ; 0x10 <__rc0>
     a36: 20 27 04     	jsr	$427 <mathFloatMul>
     a39: a8           	tay
     a3a: a5 12        	lda	$12                     ; 0x12 <__rc2>
     a3c: 85 14        	sta	$14                     ; 0x14 <__rc4>
     a3e: a5 12        	lda	$12                     ; 0x12 <__rc2>
     a40: 0a           	asl
     a41: a5 13        	lda	$13                     ; 0x13 <__rc3>
     a43: 2a           	rol
     a44: 18           	clc
     a45: 85 12        	sta	$12                     ; 0x12 <__rc2>
     a47: 69 81        	adc	#$81
     a49: 64 2f        	stz	$2f                     ; 0x2f <__rc31>
     a4b: 64 28        	stz	$28                     ; 0x28 <__rc24>
     a4d: 10 03        	bpl	$a52 <f256main+0x1dd>
     a4f: 4c fc 0a     	jmp	$afc <f256main+0x287>
     a52: c9 0f        	cmp	#$f
     a54: 90 12        	bcc	$a68 <f256main+0x1f3>
     a56: a5 13        	lda	$13                     ; 0x13 <__rc3>
     a58: 10 03        	bpl	$a5d <f256main+0x1e8>
     a5a: 4c e9 0a     	jmp	$ae9 <f256main+0x274>
     a5d: a2 7f        	ldx	#$7f
     a5f: 86 28        	stx	$28                     ; 0x28 <__rc24>
     a61: a2 ff        	ldx	#$ff
     a63: 86 2f        	stx	$2f                     ; 0x2f <__rc31>
     a65: 4c fc 0a     	jmp	$afc <f256main+0x287>
     a68: a5 14        	lda	$14                     ; 0x14 <__rc4>
     a6a: 09 80        	ora	#$80
     a6c: 85 19        	sta	$19                     ; 0x19 <__rc9>
     a6e: a5 12        	lda	$12                     ; 0x12 <__rc2>
     a70: 85 14        	sta	$14                     ; 0x14 <__rc4>
     a72: 38           	sec
     a73: a9 9e        	lda	#$9e
     a75: e5 12        	sbc	$12                     ; 0x12 <__rc2>
     a77: 85 17        	sta	$17                     ; 0x17 <__rc7>
     a79: 18           	clc
     a7a: a5 14        	lda	$14                     ; 0x14 <__rc4>
     a7c: 69 6a        	adc	#$6a
     a7e: 84 14        	sty	$14                     ; 0x14 <__rc4>
     a80: a4 19        	ldy	$19                     ; 0x19 <__rc9>
     a82: 84 12        	sty	$12                     ; 0x12 <__rc2>
     a84: a4 14        	ldy	$14                     ; 0x14 <__rc4>
     a86: 84 15        	sty	$15                     ; 0x15 <__rc5>
     a88: 86 14        	stx	$14                     ; 0x14 <__rc4>
     a8a: 85 16        	sta	$16                     ; 0x16 <__rc6>
     a8c: a8           	tay
     a8d: 18           	clc
     a8e: a5 17        	lda	$17                     ; 0x17 <__rc7>
     a90: 69 f8        	adc	#$f8
     a92: 85 17        	sta	$17                     ; 0x17 <__rc7>
     a94: c9 08        	cmp	#$8
     a96: a2 01        	ldx	#$1
     a98: b0 02        	bcs	$a9c <f256main+0x227>
     a9a: a2 00        	ldx	#$0
     a9c: 86 18        	stx	$18                     ; 0x18 <__rc8>
     a9e: 18           	clc
     a9f: a5 16        	lda	$16                     ; 0x16 <__rc6>
     aa1: 69 08        	adc	#$8
     aa3: 64 19        	stz	$19                     ; 0x19 <__rc9>
     aa5: a6 12        	ldx	$12                     ; 0x12 <__rc2>
     aa7: e6 18        	inc	$18                     ; 0x18 <__rc8>
     aa9: c6 18        	dec	$18                     ; 0x18 <__rc8>
     aab: d0 d3        	bne	$a80 <f256main+0x20b>
     aad: a5 17        	lda	$17                     ; 0x17 <__rc7>
     aaf: f0 2c        	beq	$add <f256main+0x268>
     ab1: a6 14        	ldx	$14                     ; 0x14 <__rc4>
     ab3: a5 15        	lda	$15                     ; 0x15 <__rc5>
     ab5: 46 12        	lsr	$12                     ; 0x12 <__rc2>
     ab7: 85 15        	sta	$15                     ; 0x15 <__rc5>
     ab9: a9 00        	lda	#$0
     abb: 6a           	ror
     abc: 85 14        	sta	$14                     ; 0x14 <__rc4>
     abe: 8a           	txa
     abf: 4a           	lsr
     ac0: 05 14        	ora	$14                     ; 0x14 <__rc4>
     ac2: 85 16        	sta	$16                     ; 0x16 <__rc6>
     ac4: a9 00        	lda	#$0
     ac6: 6a           	ror
     ac7: 85 14        	sta	$14                     ; 0x14 <__rc4>
     ac9: a5 15        	lda	$15                     ; 0x15 <__rc5>
     acb: 4a           	lsr
     acc: 05 14        	ora	$14                     ; 0x14 <__rc4>
     ace: c8           	iny
     acf: a6 16        	ldx	$16                     ; 0x16 <__rc6>
     ad1: 48           	pha
     ad2: a5 16        	lda	$16                     ; 0x16 <__rc6>
     ad4: 85 14        	sta	$14                     ; 0x14 <__rc4>
     ad6: 68           	pla
     ad7: 85 15        	sta	$15                     ; 0x15 <__rc5>
     ad9: c0 00        	cpy	#$0
     adb: d0 d8        	bne	$ab5 <f256main+0x240>
     add: a5 13        	lda	$13                     ; 0x13 <__rc3>
     adf: 30 0e        	bmi	$aef <f256main+0x27a>
     ae1: a6 15        	ldx	$15                     ; 0x15 <__rc5>
     ae3: 86 2f        	stx	$2f                     ; 0x2f <__rc31>
     ae5: a6 14        	ldx	$14                     ; 0x14 <__rc4>
     ae7: 80 02        	bra	$aeb <f256main+0x276>
     ae9: a2 80        	ldx	#$80
     aeb: 86 28        	stx	$28                     ; 0x28 <__rc24>
     aed: 80 0d        	bra	$afc <f256main+0x287>
     aef: 38           	sec
     af0: a9 00        	lda	#$0
     af2: e5 15        	sbc	$15                     ; 0x15 <__rc5>
     af4: 85 2f        	sta	$2f                     ; 0x2f <__rc31>
     af6: a9 00        	lda	#$0
     af8: e5 14        	sbc	$14                     ; 0x14 <__rc4>
     afa: 85 28        	sta	$28                     ; 0x28 <__rc24>
     afc: 64 29        	stz	$29                     ; 0x29 <__rc25>
     afe: 18           	clc
     aff: a5 2b        	lda	$2b                     ; 0x2b <__rc27>
     b01: 69 04        	adc	#$4
     b03: 85 12        	sta	$12                     ; 0x12 <__rc2>
     b05: a5 2c        	lda	$2c                     ; 0x2c <__rc28>
     b07: 69 00        	adc	#$0
     b09: 85 13        	sta	$13                     ; 0x13 <__rc3>
     b0b: a0 04        	ldy	#$4
     b0d: b1 24        	lda	($24),y                 ; 0x24 <__rc20>
     b0f: 85 1a        	sta	$1a                     ; 0x1a <__rc10>
     b11: a0 01        	ldy	#$1
     b13: b1 12        	lda	($12),y                 ; 0x12 <__rc2>
     b15: aa           	tax
     b16: c8           	iny
     b17: b1 12        	lda	($12),y                 ; 0x12 <__rc2>
     b19: 85 14        	sta	$14                     ; 0x14 <__rc4>
     b1b: c8           	iny
     b1c: b1 12        	lda	($12),y                 ; 0x12 <__rc2>
     b1e: a8           	tay
     b1f: a5 14        	lda	$14                     ; 0x14 <__rc4>
     b21: 5a           	phy
     b22: a0 11        	ldy	#$11
     b24: 91 10        	sta	($10),y                 ; 0x10 <__rc0>
     b26: 7a           	ply
     b27: 85 12        	sta	$12                     ; 0x12 <__rc2>
     b29: 84 13        	sty	$13                     ; 0x13 <__rc3>
     b2b: 98           	tya
     b2c: a0 0e        	ldy	#$e
     b2e: 91 10        	sta	($10),y                 ; 0x10 <__rc0>
     b30: 64 14        	stz	$14                     ; 0x14 <__rc4>
     b32: 64 15        	stz	$15                     ; 0x15 <__rc5>
     b34: a4 26        	ldy	$26                     ; 0x26 <__rc22>
     b36: 84 16        	sty	$16                     ; 0x16 <__rc6>
     b38: a4 27        	ldy	$27                     ; 0x27 <__rc23>
     b3a: 84 17        	sty	$17                     ; 0x17 <__rc7>
     b3c: 8a           	txa
     b3d: a0 0f        	ldy	#$f
     b3f: 91 10        	sta	($10),y                 ; 0x10 <__rc0>
     b41: a5 1a        	lda	$1a                     ; 0x1a <__rc10>
     b43: c8           	iny
     b44: 91 10        	sta	($10),y                 ; 0x10 <__rc0>
     b46: 20 27 04     	jsr	$427 <mathFloatMul>
     b49: a8           	tay
     b4a: a5 12        	lda	$12                     ; 0x12 <__rc2>
     b4c: 85 14        	sta	$14                     ; 0x14 <__rc4>
     b4e: a5 12        	lda	$12                     ; 0x12 <__rc2>
     b50: 0a           	asl
     b51: a5 13        	lda	$13                     ; 0x13 <__rc3>
     b53: 2a           	rol
     b54: 18           	clc
     b55: 85 12        	sta	$12                     ; 0x12 <__rc2>
     b57: 69 81        	adc	#$81
     b59: 64 2c        	stz	$2c                     ; 0x2c <__rc28>
     b5b: 64 2d        	stz	$2d                     ; 0x2d <__rc29>
     b5d: 10 03        	bpl	$b62 <f256main+0x2ed>
     b5f: 4c 0c 0c     	jmp	$c0c <f256main+0x397>
     b62: c9 0f        	cmp	#$f
     b64: 90 12        	bcc	$b78 <f256main+0x303>
     b66: a5 13        	lda	$13                     ; 0x13 <__rc3>
     b68: 10 03        	bpl	$b6d <f256main+0x2f8>
     b6a: 4c f9 0b     	jmp	$bf9 <f256main+0x384>
     b6d: a2 7f        	ldx	#$7f
     b6f: 86 2d        	stx	$2d                     ; 0x2d <__rc29>
     b71: a2 ff        	ldx	#$ff
     b73: 86 2c        	stx	$2c                     ; 0x2c <__rc28>
     b75: 4c 0c 0c     	jmp	$c0c <f256main+0x397>
     b78: a5 14        	lda	$14                     ; 0x14 <__rc4>
     b7a: 09 80        	ora	#$80
     b7c: 85 19        	sta	$19                     ; 0x19 <__rc9>
     b7e: a5 12        	lda	$12                     ; 0x12 <__rc2>
     b80: 85 14        	sta	$14                     ; 0x14 <__rc4>
     b82: 38           	sec
     b83: a9 9e        	lda	#$9e
     b85: e5 12        	sbc	$12                     ; 0x12 <__rc2>
     b87: 85 17        	sta	$17                     ; 0x17 <__rc7>
     b89: 18           	clc
     b8a: a5 14        	lda	$14                     ; 0x14 <__rc4>
     b8c: 69 6a        	adc	#$6a
     b8e: 84 14        	sty	$14                     ; 0x14 <__rc4>
     b90: a4 19        	ldy	$19                     ; 0x19 <__rc9>
     b92: 84 12        	sty	$12                     ; 0x12 <__rc2>
     b94: a4 14        	ldy	$14                     ; 0x14 <__rc4>
     b96: 84 15        	sty	$15                     ; 0x15 <__rc5>
     b98: 86 14        	stx	$14                     ; 0x14 <__rc4>
     b9a: 85 16        	sta	$16                     ; 0x16 <__rc6>
     b9c: a8           	tay
     b9d: 18           	clc
     b9e: a5 17        	lda	$17                     ; 0x17 <__rc7>
     ba0: 69 f8        	adc	#$f8
     ba2: 85 17        	sta	$17                     ; 0x17 <__rc7>
     ba4: c9 08        	cmp	#$8
     ba6: a2 01        	ldx	#$1
     ba8: b0 02        	bcs	$bac <f256main+0x337>
     baa: a2 00        	ldx	#$0
     bac: 86 18        	stx	$18                     ; 0x18 <__rc8>
     bae: 18           	clc
     baf: a5 16        	lda	$16                     ; 0x16 <__rc6>
     bb1: 69 08        	adc	#$8
     bb3: 64 19        	stz	$19                     ; 0x19 <__rc9>
     bb5: a6 12        	ldx	$12                     ; 0x12 <__rc2>
     bb7: e6 18        	inc	$18                     ; 0x18 <__rc8>
     bb9: c6 18        	dec	$18                     ; 0x18 <__rc8>
     bbb: d0 d3        	bne	$b90 <f256main+0x31b>
     bbd: a5 17        	lda	$17                     ; 0x17 <__rc7>
     bbf: f0 2c        	beq	$bed <f256main+0x378>
     bc1: a6 14        	ldx	$14                     ; 0x14 <__rc4>
     bc3: a5 15        	lda	$15                     ; 0x15 <__rc5>
     bc5: 46 12        	lsr	$12                     ; 0x12 <__rc2>
     bc7: 85 15        	sta	$15                     ; 0x15 <__rc5>
     bc9: a9 00        	lda	#$0
     bcb: 6a           	ror
     bcc: 85 14        	sta	$14                     ; 0x14 <__rc4>
     bce: 8a           	txa
     bcf: 4a           	lsr
     bd0: 05 14        	ora	$14                     ; 0x14 <__rc4>
     bd2: 85 16        	sta	$16                     ; 0x16 <__rc6>
     bd4: a9 00        	lda	#$0
     bd6: 6a           	ror
     bd7: 85 14        	sta	$14                     ; 0x14 <__rc4>
     bd9: a5 15        	lda	$15                     ; 0x15 <__rc5>
     bdb: 4a           	lsr
     bdc: 05 14        	ora	$14                     ; 0x14 <__rc4>
     bde: c8           	iny
     bdf: a6 16        	ldx	$16                     ; 0x16 <__rc6>
     be1: 48           	pha
     be2: a5 16        	lda	$16                     ; 0x16 <__rc6>
     be4: 85 14        	sta	$14                     ; 0x14 <__rc4>
     be6: 68           	pla
     be7: 85 15        	sta	$15                     ; 0x15 <__rc5>
     be9: c0 00        	cpy	#$0
     beb: d0 d8        	bne	$bc5 <f256main+0x350>
     bed: a5 13        	lda	$13                     ; 0x13 <__rc3>
     bef: 30 0e        	bmi	$bff <f256main+0x38a>
     bf1: a6 15        	ldx	$15                     ; 0x15 <__rc5>
     bf3: 86 2c        	stx	$2c                     ; 0x2c <__rc28>
     bf5: a6 14        	ldx	$14                     ; 0x14 <__rc4>
     bf7: 80 02        	bra	$bfb <f256main+0x386>
     bf9: a2 80        	ldx	#$80
     bfb: 86 2d        	stx	$2d                     ; 0x2d <__rc29>
     bfd: 80 0d        	bra	$c0c <f256main+0x397>
     bff: 38           	sec
     c00: a9 00        	lda	#$0
     c02: e5 15        	sbc	$15                     ; 0x15 <__rc5>
     c04: 85 2c        	sta	$2c                     ; 0x2c <__rc28>
     c06: a9 00        	lda	#$0
     c08: e5 14        	sbc	$14                     ; 0x14 <__rc4>
     c0a: 85 2d        	sta	$2d                     ; 0x2d <__rc29>
     c0c: a5 2a        	lda	$2a                     ; 0x2a <__rc26>
     c0e: 0a           	asl
     c0f: a6 2e        	ldx	$2e                     ; 0x2e <__rc30>
     c11: 86 13        	stx	$13                     ; 0x13 <__rc3>
     c13: 26 13        	rol	$13                     ; 0x13 <__rc3>
     c15: 0a           	asl
     c16: 85 12        	sta	$12                     ; 0x12 <__rc2>
     c18: 26 13        	rol	$13                     ; 0x13 <__rc3>
     c1a: a9 ad        	lda	#$ad
     c1c: 18           	clc
     c1d: 65 12        	adc	$12                     ; 0x12 <__rc2>
     c1f: aa           	tax
     c20: a9 2c        	lda	#$2c
     c22: 65 13        	adc	$13                     ; 0x13 <__rc3>
     c24: 86 2e        	stx	$2e                     ; 0x2e <__rc30>
     c26: 86 24        	stx	$24                     ; 0x24 <__rc20>
     c28: 85 2b        	sta	$2b                     ; 0x2b <__rc27>
     c2a: 85 25        	sta	$25                     ; 0x25 <__rc21>
     c2c: b2 24        	lda	($24)                   ; 0x24 <__rc20>
     c2e: 85 1a        	sta	$1a                     ; 0x1a <__rc10>
     c30: a0 01        	ldy	#$1
     c32: b1 24        	lda	($24),y                 ; 0x24 <__rc20>
     c34: aa           	tax
     c35: c8           	iny
     c36: b1 24        	lda	($24),y                 ; 0x24 <__rc20>
     c38: 85 12        	sta	$12                     ; 0x12 <__rc2>
     c3a: c8           	iny
     c3b: b1 24        	lda	($24),y                 ; 0x24 <__rc20>
     c3d: a8           	tay
     c3e: a5 12        	lda	$12                     ; 0x12 <__rc2>
     c40: 5a           	phy
     c41: a0 07        	ldy	#$7
     c43: 91 10        	sta	($10),y                 ; 0x10 <__rc0>
     c45: 7a           	ply
     c46: 84 13        	sty	$13                     ; 0x13 <__rc3>
     c48: 98           	tya
     c49: a0 06        	ldy	#$6
     c4b: 91 10        	sta	($10),y                 ; 0x10 <__rc0>
     c4d: 64 14        	stz	$14                     ; 0x14 <__rc4>
     c4f: 64 15        	stz	$15                     ; 0x15 <__rc5>
     c51: a4 26        	ldy	$26                     ; 0x26 <__rc22>
     c53: 84 16        	sty	$16                     ; 0x16 <__rc6>
     c55: a4 27        	ldy	$27                     ; 0x27 <__rc23>
     c57: 84 17        	sty	$17                     ; 0x17 <__rc7>
     c59: 8a           	txa
     c5a: a0 05        	ldy	#$5
     c5c: 91 10        	sta	($10),y                 ; 0x10 <__rc0>
     c5e: a5 1a        	lda	$1a                     ; 0x1a <__rc10>
     c60: 88           	dey
     c61: 91 10        	sta	($10),y                 ; 0x10 <__rc0>
     c63: 20 27 04     	jsr	$427 <mathFloatMul>
     c66: a8           	tay
     c67: a5 12        	lda	$12                     ; 0x12 <__rc2>
     c69: 85 14        	sta	$14                     ; 0x14 <__rc4>
     c6b: a5 12        	lda	$12                     ; 0x12 <__rc2>
     c6d: 0a           	asl
     c6e: a5 13        	lda	$13                     ; 0x13 <__rc3>
     c70: 2a           	rol
     c71: 18           	clc
     c72: 85 12        	sta	$12                     ; 0x12 <__rc2>
     c74: 69 81        	adc	#$81
     c76: 64 16        	stz	$16                     ; 0x16 <__rc6>
     c78: 10 03        	bpl	$c7d <f256main+0x408>
     c7a: 4c 29 0d     	jmp	$d29 <f256main+0x4b4>
     c7d: c9 0f        	cmp	#$f
     c7f: 90 10        	bcc	$c91 <f256main+0x41c>
     c81: a5 13        	lda	$13                     ; 0x13 <__rc3>
     c83: 10 03        	bpl	$c88 <f256main+0x413>
     c85: 4c 14 0d     	jmp	$d14 <f256main+0x49f>
     c88: a0 7f        	ldy	#$7f
     c8a: a2 ff        	ldx	#$ff
     c8c: 86 29        	stx	$29                     ; 0x29 <__rc25>
     c8e: 4c 18 0d     	jmp	$d18 <f256main+0x4a3>
     c91: a5 14        	lda	$14                     ; 0x14 <__rc4>
     c93: 09 80        	ora	#$80
     c95: 85 19        	sta	$19                     ; 0x19 <__rc9>
     c97: a5 12        	lda	$12                     ; 0x12 <__rc2>
     c99: 85 14        	sta	$14                     ; 0x14 <__rc4>
     c9b: 38           	sec
     c9c: a9 9e        	lda	#$9e
     c9e: e5 12        	sbc	$12                     ; 0x12 <__rc2>
     ca0: 85 17        	sta	$17                     ; 0x17 <__rc7>
     ca2: 18           	clc
     ca3: a5 14        	lda	$14                     ; 0x14 <__rc4>
     ca5: 69 6a        	adc	#$6a
     ca7: 84 14        	sty	$14                     ; 0x14 <__rc4>
     ca9: a4 19        	ldy	$19                     ; 0x19 <__rc9>
     cab: 84 12        	sty	$12                     ; 0x12 <__rc2>
     cad: a4 14        	ldy	$14                     ; 0x14 <__rc4>
     caf: 84 15        	sty	$15                     ; 0x15 <__rc5>
     cb1: 86 14        	stx	$14                     ; 0x14 <__rc4>
     cb3: 85 16        	sta	$16                     ; 0x16 <__rc6>
     cb5: a8           	tay
     cb6: 18           	clc
     cb7: a5 17        	lda	$17                     ; 0x17 <__rc7>
     cb9: 69 f8        	adc	#$f8
     cbb: 85 17        	sta	$17                     ; 0x17 <__rc7>
     cbd: c9 08        	cmp	#$8
     cbf: a2 01        	ldx	#$1
     cc1: b0 02        	bcs	$cc5 <f256main+0x450>
     cc3: a2 00        	ldx	#$0
     cc5: 86 18        	stx	$18                     ; 0x18 <__rc8>
     cc7: 18           	clc
     cc8: a5 16        	lda	$16                     ; 0x16 <__rc6>
     cca: 69 08        	adc	#$8
     ccc: 64 19        	stz	$19                     ; 0x19 <__rc9>
     cce: a6 12        	ldx	$12                     ; 0x12 <__rc2>
     cd0: e6 18        	inc	$18                     ; 0x18 <__rc8>
     cd2: c6 18        	dec	$18                     ; 0x18 <__rc8>
     cd4: d0 d3        	bne	$ca9 <f256main+0x434>
     cd6: a5 17        	lda	$17                     ; 0x17 <__rc7>
     cd8: f0 2c        	beq	$d06 <f256main+0x491>
     cda: a6 14        	ldx	$14                     ; 0x14 <__rc4>
     cdc: a5 15        	lda	$15                     ; 0x15 <__rc5>
     cde: 46 12        	lsr	$12                     ; 0x12 <__rc2>
     ce0: 85 15        	sta	$15                     ; 0x15 <__rc5>
     ce2: a9 00        	lda	#$0
     ce4: 6a           	ror
     ce5: 85 14        	sta	$14                     ; 0x14 <__rc4>
     ce7: 8a           	txa
     ce8: 4a           	lsr
     ce9: 05 14        	ora	$14                     ; 0x14 <__rc4>
     ceb: 85 16        	sta	$16                     ; 0x16 <__rc6>
     ced: a9 00        	lda	#$0
     cef: 6a           	ror
     cf0: 85 14        	sta	$14                     ; 0x14 <__rc4>
     cf2: a5 15        	lda	$15                     ; 0x15 <__rc5>
     cf4: 4a           	lsr
     cf5: 05 14        	ora	$14                     ; 0x14 <__rc4>
     cf7: c8           	iny
     cf8: a6 16        	ldx	$16                     ; 0x16 <__rc6>
     cfa: 48           	pha
     cfb: a5 16        	lda	$16                     ; 0x16 <__rc6>
     cfd: 85 14        	sta	$14                     ; 0x14 <__rc4>
     cff: 68           	pla
     d00: 85 15        	sta	$15                     ; 0x15 <__rc5>
     d02: c0 00        	cpy	#$0
     d04: d0 d8        	bne	$cde <f256main+0x469>
     d06: a5 13        	lda	$13                     ; 0x13 <__rc3>
     d08: 30 12        	bmi	$d1c <f256main+0x4a7>
     d0a: a6 15        	ldx	$15                     ; 0x15 <__rc5>
     d0c: 86 29        	stx	$29                     ; 0x29 <__rc25>
     d0e: a6 14        	ldx	$14                     ; 0x14 <__rc4>
     d10: 86 16        	stx	$16                     ; 0x16 <__rc6>
     d12: 80 15        	bra	$d29 <f256main+0x4b4>
     d14: a0 80        	ldy	#$80
     d16: 64 29        	stz	$29                     ; 0x29 <__rc25>
     d18: 84 16        	sty	$16                     ; 0x16 <__rc6>
     d1a: 80 0d        	bra	$d29 <f256main+0x4b4>
     d1c: 38           	sec
     d1d: a9 00        	lda	#$0
     d1f: e5 15        	sbc	$15                     ; 0x15 <__rc5>
     d21: 85 29        	sta	$29                     ; 0x29 <__rc25>
     d23: a9 00        	lda	#$0
     d25: e5 14        	sbc	$14                     ; 0x14 <__rc4>
     d27: 85 16        	sta	$16                     ; 0x16 <__rc6>
     d29: 18           	clc
     d2a: a5 2f        	lda	$2f                     ; 0x2f <__rc31>
     d2c: 69 a0        	adc	#$a0
     d2e: 85 2f        	sta	$2f                     ; 0x2f <__rc31>
     d30: a5 28        	lda	$28                     ; 0x28 <__rc24>
     d32: 69 00        	adc	#$0
     d34: 85 28        	sta	$28                     ; 0x28 <__rc24>
     d36: 18           	clc
     d37: a5 2c        	lda	$2c                     ; 0x2c <__rc28>
     d39: 69 78        	adc	#$78
     d3b: 85 2c        	sta	$2c                     ; 0x2c <__rc28>
     d3d: a5 2d        	lda	$2d                     ; 0x2d <__rc29>
     d3f: 69 00        	adc	#$0
     d41: 85 2d        	sta	$2d                     ; 0x2d <__rc29>
     d43: 18           	clc
     d44: a5 29        	lda	$29                     ; 0x29 <__rc25>
     d46: 69 a0        	adc	#$a0
     d48: 85 29        	sta	$29                     ; 0x29 <__rc25>
     d4a: 64 12        	stz	$12                     ; 0x12 <__rc2>
     d4c: a9 00        	lda	#$0
     d4e: a0 14        	ldy	#$14
     d50: 91 10        	sta	($10),y                 ; 0x10 <__rc0>
     d52: a5 16        	lda	$16                     ; 0x16 <__rc6>
     d54: 69 00        	adc	#$0
     d56: 85 2a        	sta	$2a                     ; 0x2a <__rc26>
     d58: 18           	clc
     d59: a5 2e        	lda	$2e                     ; 0x2e <__rc30>
     d5b: 69 04        	adc	#$4
     d5d: 85 12        	sta	$12                     ; 0x12 <__rc2>
     d5f: a5 2b        	lda	$2b                     ; 0x2b <__rc27>
     d61: 69 00        	adc	#$0
     d63: 85 13        	sta	$13                     ; 0x13 <__rc3>
     d65: a0 04        	ldy	#$4
     d67: b1 24        	lda	($24),y                 ; 0x24 <__rc20>
     d69: 85 1a        	sta	$1a                     ; 0x1a <__rc10>
     d6b: a0 01        	ldy	#$1
     d6d: b1 12        	lda	($12),y                 ; 0x12 <__rc2>
     d6f: aa           	tax
     d70: c8           	iny
     d71: b1 12        	lda	($12),y                 ; 0x12 <__rc2>
     d73: 85 14        	sta	$14                     ; 0x14 <__rc4>
     d75: c8           	iny
     d76: b1 12        	lda	($12),y                 ; 0x12 <__rc2>
     d78: a8           	tay
     d79: a5 14        	lda	$14                     ; 0x14 <__rc4>
     d7b: 5a           	phy
     d7c: a0 03        	ldy	#$3
     d7e: 91 10        	sta	($10),y                 ; 0x10 <__rc0>
     d80: 7a           	ply
     d81: 85 12        	sta	$12                     ; 0x12 <__rc2>
     d83: 84 2e        	sty	$2e                     ; 0x2e <__rc30>
     d85: 84 13        	sty	$13                     ; 0x13 <__rc3>
     d87: 64 14        	stz	$14                     ; 0x14 <__rc4>
     d89: 64 15        	stz	$15                     ; 0x15 <__rc5>
     d8b: a4 26        	ldy	$26                     ; 0x26 <__rc22>
     d8d: 84 16        	sty	$16                     ; 0x16 <__rc6>
     d8f: a4 27        	ldy	$27                     ; 0x27 <__rc23>
     d91: 84 17        	sty	$17                     ; 0x17 <__rc7>
     d93: 8a           	txa
     d94: a0 02        	ldy	#$2
     d96: 91 10        	sta	($10),y                 ; 0x10 <__rc0>
     d98: a5 1a        	lda	$1a                     ; 0x1a <__rc10>
     d9a: 85 2b        	sta	$2b                     ; 0x2b <__rc27>
     d9c: 20 27 04     	jsr	$427 <mathFloatMul>
     d9f: a8           	tay
     da0: a5 12        	lda	$12                     ; 0x12 <__rc2>
     da2: 85 14        	sta	$14                     ; 0x14 <__rc4>
     da4: a5 12        	lda	$12                     ; 0x12 <__rc2>
     da6: 0a           	asl
     da7: a5 13        	lda	$13                     ; 0x13 <__rc3>
     da9: 2a           	rol
     daa: 18           	clc
     dab: 85 12        	sta	$12                     ; 0x12 <__rc2>
     dad: 69 81        	adc	#$81
     daf: 64 15        	stz	$15                     ; 0x15 <__rc5>
     db1: 64 16        	stz	$16                     ; 0x16 <__rc6>
     db3: 10 03        	bpl	$db8 <f256main+0x543>
     db5: 4c 60 0e     	jmp	$e60 <f256main+0x5eb>
     db8: c9 0f        	cmp	#$f
     dba: 90 0e        	bcc	$dca <f256main+0x555>
     dbc: a5 13        	lda	$13                     ; 0x13 <__rc3>
     dbe: 10 03        	bpl	$dc3 <f256main+0x54e>
     dc0: 4c 49 0e     	jmp	$e49 <f256main+0x5d4>
     dc3: a0 7f        	ldy	#$7f
     dc5: a2 ff        	ldx	#$ff
     dc7: 4c 4d 0e     	jmp	$e4d <f256main+0x5d8>
     dca: a5 14        	lda	$14                     ; 0x14 <__rc4>
     dcc: 09 80        	ora	#$80
     dce: 85 19        	sta	$19                     ; 0x19 <__rc9>
     dd0: a5 12        	lda	$12                     ; 0x12 <__rc2>
     dd2: 85 14        	sta	$14                     ; 0x14 <__rc4>
     dd4: 38           	sec
     dd5: a9 9e        	lda	#$9e
     dd7: e5 12        	sbc	$12                     ; 0x12 <__rc2>
     dd9: 85 17        	sta	$17                     ; 0x17 <__rc7>
     ddb: 18           	clc
     ddc: a5 14        	lda	$14                     ; 0x14 <__rc4>
     dde: 69 6a        	adc	#$6a
     de0: 84 14        	sty	$14                     ; 0x14 <__rc4>
     de2: a4 19        	ldy	$19                     ; 0x19 <__rc9>
     de4: 84 12        	sty	$12                     ; 0x12 <__rc2>
     de6: a4 14        	ldy	$14                     ; 0x14 <__rc4>
     de8: 84 15        	sty	$15                     ; 0x15 <__rc5>
     dea: 86 14        	stx	$14                     ; 0x14 <__rc4>
     dec: 85 16        	sta	$16                     ; 0x16 <__rc6>
     dee: a8           	tay
     def: 18           	clc
     df0: a5 17        	lda	$17                     ; 0x17 <__rc7>
     df2: 69 f8        	adc	#$f8
     df4: 85 17        	sta	$17                     ; 0x17 <__rc7>
     df6: c9 08        	cmp	#$8
     df8: a2 01        	ldx	#$1
     dfa: b0 02        	bcs	$dfe <f256main+0x589>
     dfc: a2 00        	ldx	#$0
     dfe: 86 18        	stx	$18                     ; 0x18 <__rc8>
     e00: 18           	clc
     e01: a5 16        	lda	$16                     ; 0x16 <__rc6>
     e03: 69 08        	adc	#$8
     e05: 64 19        	stz	$19                     ; 0x19 <__rc9>
     e07: a6 12        	ldx	$12                     ; 0x12 <__rc2>
     e09: e6 18        	inc	$18                     ; 0x18 <__rc8>
     e0b: c6 18        	dec	$18                     ; 0x18 <__rc8>
     e0d: d0 d3        	bne	$de2 <f256main+0x56d>
     e0f: a5 17        	lda	$17                     ; 0x17 <__rc7>
     e11: f0 2c        	beq	$e3f <f256main+0x5ca>
     e13: a6 14        	ldx	$14                     ; 0x14 <__rc4>
     e15: a5 15        	lda	$15                     ; 0x15 <__rc5>
     e17: 46 12        	lsr	$12                     ; 0x12 <__rc2>
     e19: 85 15        	sta	$15                     ; 0x15 <__rc5>
     e1b: a9 00        	lda	#$0
     e1d: 6a           	ror
     e1e: 85 14        	sta	$14                     ; 0x14 <__rc4>
     e20: 8a           	txa
     e21: 4a           	lsr
     e22: 05 14        	ora	$14                     ; 0x14 <__rc4>
     e24: 85 16        	sta	$16                     ; 0x16 <__rc6>
     e26: a9 00        	lda	#$0
     e28: 6a           	ror
     e29: 85 14        	sta	$14                     ; 0x14 <__rc4>
     e2b: a5 15        	lda	$15                     ; 0x15 <__rc5>
     e2d: 4a           	lsr
     e2e: 05 14        	ora	$14                     ; 0x14 <__rc4>
     e30: c8           	iny
     e31: a6 16        	ldx	$16                     ; 0x16 <__rc6>
     e33: 48           	pha
     e34: a5 16        	lda	$16                     ; 0x16 <__rc6>
     e36: 85 14        	sta	$14                     ; 0x14 <__rc4>
     e38: 68           	pla
     e39: 85 15        	sta	$15                     ; 0x15 <__rc5>
     e3b: c0 00        	cpy	#$0
     e3d: d0 d8        	bne	$e17 <f256main+0x5a2>
     e3f: a5 13        	lda	$13                     ; 0x13 <__rc3>
     e41: 30 10        	bmi	$e53 <f256main+0x5de>
     e43: a6 14        	ldx	$14                     ; 0x14 <__rc4>
     e45: 86 16        	stx	$16                     ; 0x16 <__rc6>
     e47: 80 17        	bra	$e60 <f256main+0x5eb>
     e49: a0 80        	ldy	#$80
     e4b: a2 00        	ldx	#$0
     e4d: 86 15        	stx	$15                     ; 0x15 <__rc5>
     e4f: 84 16        	sty	$16                     ; 0x16 <__rc6>
     e51: 80 0d        	bra	$e60 <f256main+0x5eb>
     e53: 38           	sec
     e54: a9 00        	lda	#$0
     e56: e5 15        	sbc	$15                     ; 0x15 <__rc5>
     e58: 85 15        	sta	$15                     ; 0x15 <__rc5>
     e5a: a9 00        	lda	#$0
     e5c: e5 14        	sbc	$14                     ; 0x14 <__rc4>
     e5e: 85 16        	sta	$16                     ; 0x16 <__rc6>
     e60: 18           	clc
     e61: a5 15        	lda	$15                     ; 0x15 <__rc5>
     e63: 69 78        	adc	#$78
     e65: aa           	tax
     e66: a5 16        	lda	$16                     ; 0x16 <__rc6>
     e68: 69 00        	adc	#$0
     e6a: a4 2c        	ldy	$2c                     ; 0x2c <__rc28>
     e6c: 84 12        	sty	$12                     ; 0x12 <__rc2>
     e6e: a4 2d        	ldy	$2d                     ; 0x2d <__rc29>
     e70: 84 13        	sty	$13                     ; 0x13 <__rc3>
     e72: a4 29        	ldy	$29                     ; 0x29 <__rc25>
     e74: 84 14        	sty	$14                     ; 0x14 <__rc4>
     e76: a4 2a        	ldy	$2a                     ; 0x2a <__rc26>
     e78: 84 15        	sty	$15                     ; 0x15 <__rc5>
     e7a: 86 16        	stx	$16                     ; 0x16 <__rc6>
     e7c: 85 17        	sta	$17                     ; 0x17 <__rc7>
     e7e: a6 28        	ldx	$28                     ; 0x28 <__rc24>
     e80: a5 2f        	lda	$2f                     ; 0x2f <__rc31>
     e82: 20 f6 16     	jsr	$16f6 <bitmapLine>
     e85: a0 07        	ldy	#$7
     e87: b1 10        	lda	($10),y                 ; 0x10 <__rc0>
     e89: 85 12        	sta	$12                     ; 0x12 <__rc2>
     e8b: 88           	dey
     e8c: b1 10        	lda	($10),y                 ; 0x10 <__rc0>
     e8e: 85 13        	sta	$13                     ; 0x13 <__rc3>
     e90: 64 14        	stz	$14                     ; 0x14 <__rc4>
     e92: 64 15        	stz	$15                     ; 0x15 <__rc5>
     e94: a6 26        	ldx	$26                     ; 0x26 <__rc22>
     e96: 86 16        	stx	$16                     ; 0x16 <__rc6>
     e98: a6 27        	ldx	$27                     ; 0x27 <__rc23>
     e9a: 86 17        	stx	$17                     ; 0x17 <__rc7>
     e9c: 88           	dey
     e9d: b1 10        	lda	($10),y                 ; 0x10 <__rc0>
     e9f: aa           	tax
     ea0: 88           	dey
     ea1: b1 10        	lda	($10),y                 ; 0x10 <__rc0>
     ea3: 20 27 04     	jsr	$427 <mathFloatMul>
     ea6: a8           	tay
     ea7: a5 12        	lda	$12                     ; 0x12 <__rc2>
     ea9: 85 14        	sta	$14                     ; 0x14 <__rc4>
     eab: a5 12        	lda	$12                     ; 0x12 <__rc2>
     ead: 0a           	asl
     eae: a5 13        	lda	$13                     ; 0x13 <__rc3>
     eb0: 2a           	rol
     eb1: 18           	clc
     eb2: 85 12        	sta	$12                     ; 0x12 <__rc2>
     eb4: 69 81        	adc	#$81
     eb6: 64 28        	stz	$28                     ; 0x28 <__rc24>
     eb8: 10 03        	bpl	$ebd <f256main+0x648>
     eba: 4c 74 0f     	jmp	$f74 <f256main+0x6ff>
     ebd: c9 0f        	cmp	#$f
     ebf: 90 11        	bcc	$ed2 <f256main+0x65d>
     ec1: a5 13        	lda	$13                     ; 0x13 <__rc3>
     ec3: 10 03        	bpl	$ec8 <f256main+0x653>
     ec5: 4c 57 0f     	jmp	$f57 <f256main+0x6e2>
     ec8: a2 7f        	ldx	#$7f
     eca: 86 28        	stx	$28                     ; 0x28 <__rc24>
     ecc: a2 ff        	ldx	#$ff
     ece: 8a           	txa
     ecf: 4c 5f 0f     	jmp	$f5f <f256main+0x6ea>
     ed2: a5 14        	lda	$14                     ; 0x14 <__rc4>
     ed4: 09 80        	ora	#$80
     ed6: 85 19        	sta	$19                     ; 0x19 <__rc9>
     ed8: a5 12        	lda	$12                     ; 0x12 <__rc2>
     eda: 85 14        	sta	$14                     ; 0x14 <__rc4>
     edc: 38           	sec
     edd: a9 9e        	lda	#$9e
     edf: e5 12        	sbc	$12                     ; 0x12 <__rc2>
     ee1: 85 17        	sta	$17                     ; 0x17 <__rc7>
     ee3: 18           	clc
     ee4: a5 14        	lda	$14                     ; 0x14 <__rc4>
     ee6: 69 6a        	adc	#$6a
     ee8: 84 14        	sty	$14                     ; 0x14 <__rc4>
     eea: a4 19        	ldy	$19                     ; 0x19 <__rc9>
     eec: 84 12        	sty	$12                     ; 0x12 <__rc2>
     eee: a4 14        	ldy	$14                     ; 0x14 <__rc4>
     ef0: 84 15        	sty	$15                     ; 0x15 <__rc5>
     ef2: 86 14        	stx	$14                     ; 0x14 <__rc4>
     ef4: 85 16        	sta	$16                     ; 0x16 <__rc6>
     ef6: a8           	tay
     ef7: 18           	clc
     ef8: a5 17        	lda	$17                     ; 0x17 <__rc7>
     efa: 69 f8        	adc	#$f8
     efc: 85 17        	sta	$17                     ; 0x17 <__rc7>
     efe: c9 08        	cmp	#$8
     f00: a2 01        	ldx	#$1
     f02: b0 02        	bcs	$f06 <f256main+0x691>
     f04: a2 00        	ldx	#$0
     f06: 86 18        	stx	$18                     ; 0x18 <__rc8>
     f08: 18           	clc
     f09: a5 16        	lda	$16                     ; 0x16 <__rc6>
     f0b: 69 08        	adc	#$8
     f0d: 64 19        	stz	$19                     ; 0x19 <__rc9>
     f0f: a6 12        	ldx	$12                     ; 0x12 <__rc2>
     f11: e6 18        	inc	$18                     ; 0x18 <__rc8>
     f13: c6 18        	dec	$18                     ; 0x18 <__rc8>
     f15: d0 d3        	bne	$eea <f256main+0x675>
     f17: a5 17        	lda	$17                     ; 0x17 <__rc7>
     f19: f0 2c        	beq	$f47 <f256main+0x6d2>
     f1b: a6 14        	ldx	$14                     ; 0x14 <__rc4>
     f1d: a5 15        	lda	$15                     ; 0x15 <__rc5>
     f1f: 46 12        	lsr	$12                     ; 0x12 <__rc2>
     f21: 85 15        	sta	$15                     ; 0x15 <__rc5>
     f23: a9 00        	lda	#$0
     f25: 6a           	ror
     f26: 85 14        	sta	$14                     ; 0x14 <__rc4>
     f28: 8a           	txa
     f29: 4a           	lsr
     f2a: 05 14        	ora	$14                     ; 0x14 <__rc4>
     f2c: 85 16        	sta	$16                     ; 0x16 <__rc6>
     f2e: a9 00        	lda	#$0
     f30: 6a           	ror
     f31: 85 14        	sta	$14                     ; 0x14 <__rc4>
     f33: a5 15        	lda	$15                     ; 0x15 <__rc5>
     f35: 4a           	lsr
     f36: 05 14        	ora	$14                     ; 0x14 <__rc4>
     f38: c8           	iny
     f39: a6 16        	ldx	$16                     ; 0x16 <__rc6>
     f3b: 48           	pha
     f3c: a5 16        	lda	$16                     ; 0x16 <__rc6>
     f3e: 85 14        	sta	$14                     ; 0x14 <__rc4>
     f40: 68           	pla
     f41: 85 15        	sta	$15                     ; 0x15 <__rc5>
     f43: c0 00        	cpy	#$0
     f45: d0 d8        	bne	$f1f <f256main+0x6aa>
     f47: a5 13        	lda	$13                     ; 0x13 <__rc3>
     f49: 30 1a        	bmi	$f65 <f256main+0x6f0>
     f4b: a5 15        	lda	$15                     ; 0x15 <__rc5>
     f4d: a0 14        	ldy	#$14
     f4f: 91 10        	sta	($10),y                 ; 0x10 <__rc0>
     f51: a6 14        	ldx	$14                     ; 0x14 <__rc4>
     f53: 86 28        	stx	$28                     ; 0x28 <__rc24>
     f55: 80 1d        	bra	$f74 <f256main+0x6ff>
     f57: a2 80        	ldx	#$80
     f59: 86 28        	stx	$28                     ; 0x28 <__rc24>
     f5b: 64 12        	stz	$12                     ; 0x12 <__rc2>
     f5d: a9 00        	lda	#$0
     f5f: a0 14        	ldy	#$14
     f61: 91 10        	sta	($10),y                 ; 0x10 <__rc0>
     f63: 80 0f        	bra	$f74 <f256main+0x6ff>
     f65: 38           	sec
     f66: a9 00        	lda	#$0
     f68: e5 15        	sbc	$15                     ; 0x15 <__rc5>
     f6a: a0 14        	ldy	#$14
     f6c: 91 10        	sta	($10),y                 ; 0x10 <__rc0>
     f6e: a9 00        	lda	#$0
     f70: e5 14        	sbc	$14                     ; 0x14 <__rc4>
     f72: 85 28        	sta	$28                     ; 0x28 <__rc24>
     f74: 64 29        	stz	$29                     ; 0x29 <__rc25>
     f76: a0 03        	ldy	#$3
     f78: b1 10        	lda	($10),y                 ; 0x10 <__rc0>
     f7a: 85 12        	sta	$12                     ; 0x12 <__rc2>
     f7c: a6 2e        	ldx	$2e                     ; 0x2e <__rc30>
     f7e: 86 13        	stx	$13                     ; 0x13 <__rc3>
     f80: 64 14        	stz	$14                     ; 0x14 <__rc4>
     f82: 64 15        	stz	$15                     ; 0x15 <__rc5>
     f84: a6 26        	ldx	$26                     ; 0x26 <__rc22>
     f86: 86 16        	stx	$16                     ; 0x16 <__rc6>
     f88: a6 27        	ldx	$27                     ; 0x27 <__rc23>
     f8a: 86 17        	stx	$17                     ; 0x17 <__rc7>
     f8c: 88           	dey
     f8d: b1 10        	lda	($10),y                 ; 0x10 <__rc0>
     f8f: aa           	tax
     f90: a5 2b        	lda	$2b                     ; 0x2b <__rc27>
     f92: 20 27 04     	jsr	$427 <mathFloatMul>
     f95: a8           	tay
     f96: a5 12        	lda	$12                     ; 0x12 <__rc2>
     f98: 85 14        	sta	$14                     ; 0x14 <__rc4>
     f9a: a5 12        	lda	$12                     ; 0x12 <__rc2>
     f9c: 0a           	asl
     f9d: a5 13        	lda	$13                     ; 0x13 <__rc3>
     f9f: 2a           	rol
     fa0: 85 12        	sta	$12                     ; 0x12 <__rc2>
     fa2: 18           	clc
     fa3: 69 81        	adc	#$81
     fa5: 64 2c        	stz	$2c                     ; 0x2c <__rc28>
     fa7: 64 2d        	stz	$2d                     ; 0x2d <__rc29>
     fa9: 10 03        	bpl	$fae <f256main+0x739>
     fab: 4c 5c 10     	jmp	$105c <f256main+0x7e7>
     fae: c9 0f        	cmp	#$f
     fb0: 90 12        	bcc	$fc4 <f256main+0x74f>
     fb2: a5 13        	lda	$13                     ; 0x13 <__rc3>
     fb4: 10 03        	bpl	$fb9 <f256main+0x744>
     fb6: 4c 49 10     	jmp	$1049 <f256main+0x7d4>
     fb9: a2 7f        	ldx	#$7f
     fbb: 86 2d        	stx	$2d                     ; 0x2d <__rc29>
     fbd: a2 ff        	ldx	#$ff
     fbf: 86 2c        	stx	$2c                     ; 0x2c <__rc28>
     fc1: 4c 5c 10     	jmp	$105c <f256main+0x7e7>
     fc4: a5 14        	lda	$14                     ; 0x14 <__rc4>
     fc6: 09 80        	ora	#$80
     fc8: 85 14        	sta	$14                     ; 0x14 <__rc4>
     fca: a5 12        	lda	$12                     ; 0x12 <__rc2>
     fcc: 85 15        	sta	$15                     ; 0x15 <__rc5>
     fce: 38           	sec
     fcf: a9 9e        	lda	#$9e
     fd1: e5 12        	sbc	$12                     ; 0x12 <__rc2>
     fd3: 85 17        	sta	$17                     ; 0x17 <__rc7>
     fd5: a5 14        	lda	$14                     ; 0x14 <__rc4>
     fd7: 85 19        	sta	$19                     ; 0x19 <__rc9>
     fd9: 18           	clc
     fda: a5 15        	lda	$15                     ; 0x15 <__rc5>
     fdc: 69 6a        	adc	#$6a
     fde: 84 14        	sty	$14                     ; 0x14 <__rc4>
     fe0: a4 19        	ldy	$19                     ; 0x19 <__rc9>
     fe2: 84 12        	sty	$12                     ; 0x12 <__rc2>
     fe4: a4 14        	ldy	$14                     ; 0x14 <__rc4>
     fe6: 84 15        	sty	$15                     ; 0x15 <__rc5>
     fe8: 86 14        	stx	$14                     ; 0x14 <__rc4>
     fea: 85 16        	sta	$16                     ; 0x16 <__rc6>
     fec: a8           	tay
     fed: 18           	clc
     fee: a5 17        	lda	$17                     ; 0x17 <__rc7>
     ff0: 69 f8        	adc	#$f8
     ff2: 85 17        	sta	$17                     ; 0x17 <__rc7>
     ff4: c9 08        	cmp	#$8
     ff6: a2 01        	ldx	#$1
     ff8: b0 02        	bcs	$ffc <f256main+0x787>
     ffa: a2 00        	ldx	#$0
     ffc: 86 18        	stx	$18                     ; 0x18 <__rc8>
     ffe: 18           	clc
     fff: a5 16        	lda	$16                     ; 0x16 <__rc6>
    1001: 69 08        	adc	#$8
    1003: 64 19        	stz	$19                     ; 0x19 <__rc9>
    1005: a6 12        	ldx	$12                     ; 0x12 <__rc2>
    1007: e6 18        	inc	$18                     ; 0x18 <__rc8>
    1009: c6 18        	dec	$18                     ; 0x18 <__rc8>
    100b: d0 d3        	bne	$fe0 <f256main+0x76b>
    100d: a5 17        	lda	$17                     ; 0x17 <__rc7>
    100f: f0 2c        	beq	$103d <f256main+0x7c8>
    1011: a6 14        	ldx	$14                     ; 0x14 <__rc4>
    1013: a5 15        	lda	$15                     ; 0x15 <__rc5>
    1015: 46 12        	lsr	$12                     ; 0x12 <__rc2>
    1017: 85 15        	sta	$15                     ; 0x15 <__rc5>
    1019: a9 00        	lda	#$0
    101b: 6a           	ror
    101c: 85 14        	sta	$14                     ; 0x14 <__rc4>
    101e: 8a           	txa
    101f: 4a           	lsr
    1020: 05 14        	ora	$14                     ; 0x14 <__rc4>
    1022: 85 16        	sta	$16                     ; 0x16 <__rc6>
    1024: a9 00        	lda	#$0
    1026: 6a           	ror
    1027: 85 14        	sta	$14                     ; 0x14 <__rc4>
    1029: a5 15        	lda	$15                     ; 0x15 <__rc5>
    102b: 4a           	lsr
    102c: 05 14        	ora	$14                     ; 0x14 <__rc4>
    102e: c8           	iny
    102f: a6 16        	ldx	$16                     ; 0x16 <__rc6>
    1031: 48           	pha
    1032: a5 16        	lda	$16                     ; 0x16 <__rc6>
    1034: 85 14        	sta	$14                     ; 0x14 <__rc4>
    1036: 68           	pla
    1037: 85 15        	sta	$15                     ; 0x15 <__rc5>
    1039: c0 00        	cpy	#$0
    103b: d0 d8        	bne	$1015 <f256main+0x7a0>
    103d: a5 13        	lda	$13                     ; 0x13 <__rc3>
    103f: 30 0e        	bmi	$104f <f256main+0x7da>
    1041: a6 15        	ldx	$15                     ; 0x15 <__rc5>
    1043: 86 2c        	stx	$2c                     ; 0x2c <__rc28>
    1045: a6 14        	ldx	$14                     ; 0x14 <__rc4>
    1047: 80 02        	bra	$104b <f256main+0x7d6>
    1049: a2 80        	ldx	#$80
    104b: 86 2d        	stx	$2d                     ; 0x2d <__rc29>
    104d: 80 0d        	bra	$105c <f256main+0x7e7>
    104f: 38           	sec
    1050: a9 00        	lda	#$0
    1052: e5 15        	sbc	$15                     ; 0x15 <__rc5>
    1054: 85 2c        	sta	$2c                     ; 0x2c <__rc28>
    1056: a9 00        	lda	#$0
    1058: e5 14        	sbc	$14                     ; 0x14 <__rc4>
    105a: 85 2d        	sta	$2d                     ; 0x2d <__rc29>
    105c: a0 09        	ldy	#$9
    105e: b1 10        	lda	($10),y                 ; 0x10 <__rc0>
    1060: 0a           	asl
    1061: 48           	pha
    1062: 88           	dey
    1063: b1 10        	lda	($10),y                 ; 0x10 <__rc0>
    1065: 85 13        	sta	$13                     ; 0x13 <__rc3>
    1067: 68           	pla
    1068: 26 13        	rol	$13                     ; 0x13 <__rc3>
    106a: 0a           	asl
    106b: 85 12        	sta	$12                     ; 0x12 <__rc2>
    106d: 26 13        	rol	$13                     ; 0x13 <__rc3>
    106f: a9 ad        	lda	#$ad
    1071: 18           	clc
    1072: 65 12        	adc	$12                     ; 0x12 <__rc2>
    1074: aa           	tax
    1075: a9 2c        	lda	#$2c
    1077: 65 13        	adc	$13                     ; 0x13 <__rc3>
    1079: 86 2e        	stx	$2e                     ; 0x2e <__rc30>
    107b: 86 24        	stx	$24                     ; 0x24 <__rc20>
    107d: 85 2f        	sta	$2f                     ; 0x2f <__rc31>
    107f: 85 25        	sta	$25                     ; 0x25 <__rc21>
    1081: b2 24        	lda	($24)                   ; 0x24 <__rc20>
    1083: 85 1a        	sta	$1a                     ; 0x1a <__rc10>
    1085: a0 01        	ldy	#$1
    1087: b1 24        	lda	($24),y                 ; 0x24 <__rc20>
    1089: aa           	tax
    108a: c8           	iny
    108b: b1 24        	lda	($24),y                 ; 0x24 <__rc20>
    108d: 85 12        	sta	$12                     ; 0x12 <__rc2>
    108f: c8           	iny
    1090: b1 24        	lda	($24),y                 ; 0x24 <__rc20>
    1092: a8           	tay
    1093: a5 12        	lda	$12                     ; 0x12 <__rc2>
    1095: 5a           	phy
    1096: a0 09        	ldy	#$9
    1098: 91 10        	sta	($10),y                 ; 0x10 <__rc0>
    109a: 7a           	ply
    109b: 84 13        	sty	$13                     ; 0x13 <__rc3>
    109d: 98           	tya
    109e: a0 08        	ldy	#$8
    10a0: 91 10        	sta	($10),y                 ; 0x10 <__rc0>
    10a2: 64 14        	stz	$14                     ; 0x14 <__rc4>
    10a4: 64 15        	stz	$15                     ; 0x15 <__rc5>
    10a6: a4 26        	ldy	$26                     ; 0x26 <__rc22>
    10a8: 84 16        	sty	$16                     ; 0x16 <__rc6>
    10aa: a4 27        	ldy	$27                     ; 0x27 <__rc23>
    10ac: 84 17        	sty	$17                     ; 0x17 <__rc7>
    10ae: 8a           	txa
    10af: a0 06        	ldy	#$6
    10b1: 91 10        	sta	($10),y                 ; 0x10 <__rc0>
    10b3: a5 1a        	lda	$1a                     ; 0x1a <__rc10>
    10b5: c8           	iny
    10b6: 91 10        	sta	($10),y                 ; 0x10 <__rc0>
    10b8: 20 27 04     	jsr	$427 <mathFloatMul>
    10bb: a8           	tay
    10bc: a5 12        	lda	$12                     ; 0x12 <__rc2>
    10be: 85 14        	sta	$14                     ; 0x14 <__rc4>
    10c0: a5 12        	lda	$12                     ; 0x12 <__rc2>
    10c2: 0a           	asl
    10c3: a5 13        	lda	$13                     ; 0x13 <__rc3>
    10c5: 2a           	rol
    10c6: 18           	clc
    10c7: 85 12        	sta	$12                     ; 0x12 <__rc2>
    10c9: 69 81        	adc	#$81
    10cb: 64 16        	stz	$16                     ; 0x16 <__rc6>
    10cd: 10 03        	bpl	$10d2 <f256main+0x85d>
    10cf: 4c 7e 11     	jmp	$117e <f256main+0x909>
    10d2: c9 0f        	cmp	#$f
    10d4: 90 10        	bcc	$10e6 <f256main+0x871>
    10d6: a5 13        	lda	$13                     ; 0x13 <__rc3>
    10d8: 10 03        	bpl	$10dd <f256main+0x868>
    10da: 4c 69 11     	jmp	$1169 <f256main+0x8f4>
    10dd: a0 7f        	ldy	#$7f
    10df: a2 ff        	ldx	#$ff
    10e1: 86 29        	stx	$29                     ; 0x29 <__rc25>
    10e3: 4c 6d 11     	jmp	$116d <f256main+0x8f8>
    10e6: a5 14        	lda	$14                     ; 0x14 <__rc4>
    10e8: 09 80        	ora	#$80
    10ea: 85 19        	sta	$19                     ; 0x19 <__rc9>
    10ec: a5 12        	lda	$12                     ; 0x12 <__rc2>
    10ee: 85 14        	sta	$14                     ; 0x14 <__rc4>
    10f0: 38           	sec
    10f1: a9 9e        	lda	#$9e
    10f3: e5 12        	sbc	$12                     ; 0x12 <__rc2>
    10f5: 85 17        	sta	$17                     ; 0x17 <__rc7>
    10f7: 18           	clc
    10f8: a5 14        	lda	$14                     ; 0x14 <__rc4>
    10fa: 69 6a        	adc	#$6a
    10fc: 84 14        	sty	$14                     ; 0x14 <__rc4>
    10fe: a4 19        	ldy	$19                     ; 0x19 <__rc9>
    1100: 84 12        	sty	$12                     ; 0x12 <__rc2>
    1102: a4 14        	ldy	$14                     ; 0x14 <__rc4>
    1104: 84 15        	sty	$15                     ; 0x15 <__rc5>
    1106: 86 14        	stx	$14                     ; 0x14 <__rc4>
    1108: 85 16        	sta	$16                     ; 0x16 <__rc6>
    110a: a8           	tay
    110b: 18           	clc
    110c: a5 17        	lda	$17                     ; 0x17 <__rc7>
    110e: 69 f8        	adc	#$f8
    1110: 85 17        	sta	$17                     ; 0x17 <__rc7>
    1112: c9 08        	cmp	#$8
    1114: a2 01        	ldx	#$1
    1116: b0 02        	bcs	$111a <f256main+0x8a5>
    1118: a2 00        	ldx	#$0
    111a: 86 18        	stx	$18                     ; 0x18 <__rc8>
    111c: 18           	clc
    111d: a5 16        	lda	$16                     ; 0x16 <__rc6>
    111f: 69 08        	adc	#$8
    1121: 64 19        	stz	$19                     ; 0x19 <__rc9>
    1123: a6 12        	ldx	$12                     ; 0x12 <__rc2>
    1125: e6 18        	inc	$18                     ; 0x18 <__rc8>
    1127: c6 18        	dec	$18                     ; 0x18 <__rc8>
    1129: d0 d3        	bne	$10fe <f256main+0x889>
    112b: a5 17        	lda	$17                     ; 0x17 <__rc7>
    112d: f0 2c        	beq	$115b <f256main+0x8e6>
    112f: a6 14        	ldx	$14                     ; 0x14 <__rc4>
    1131: a5 15        	lda	$15                     ; 0x15 <__rc5>
    1133: 46 12        	lsr	$12                     ; 0x12 <__rc2>
    1135: 85 15        	sta	$15                     ; 0x15 <__rc5>
    1137: a9 00        	lda	#$0
    1139: 6a           	ror
    113a: 85 14        	sta	$14                     ; 0x14 <__rc4>
    113c: 8a           	txa
    113d: 4a           	lsr
    113e: 05 14        	ora	$14                     ; 0x14 <__rc4>
    1140: 85 16        	sta	$16                     ; 0x16 <__rc6>
    1142: a9 00        	lda	#$0
    1144: 6a           	ror
    1145: 85 14        	sta	$14                     ; 0x14 <__rc4>
    1147: a5 15        	lda	$15                     ; 0x15 <__rc5>
    1149: 4a           	lsr
    114a: 05 14        	ora	$14                     ; 0x14 <__rc4>
    114c: c8           	iny
    114d: a6 16        	ldx	$16                     ; 0x16 <__rc6>
    114f: 48           	pha
    1150: a5 16        	lda	$16                     ; 0x16 <__rc6>
    1152: 85 14        	sta	$14                     ; 0x14 <__rc4>
    1154: 68           	pla
    1155: 85 15        	sta	$15                     ; 0x15 <__rc5>
    1157: c0 00        	cpy	#$0
    1159: d0 d8        	bne	$1133 <f256main+0x8be>
    115b: a5 13        	lda	$13                     ; 0x13 <__rc3>
    115d: 30 12        	bmi	$1171 <f256main+0x8fc>
    115f: a6 15        	ldx	$15                     ; 0x15 <__rc5>
    1161: 86 29        	stx	$29                     ; 0x29 <__rc25>
    1163: a6 14        	ldx	$14                     ; 0x14 <__rc4>
    1165: 86 16        	stx	$16                     ; 0x16 <__rc6>
    1167: 80 15        	bra	$117e <f256main+0x909>
    1169: a0 80        	ldy	#$80
    116b: 64 29        	stz	$29                     ; 0x29 <__rc25>
    116d: 84 16        	sty	$16                     ; 0x16 <__rc6>
    116f: 80 0d        	bra	$117e <f256main+0x909>
    1171: 38           	sec
    1172: a9 00        	lda	#$0
    1174: e5 15        	sbc	$15                     ; 0x15 <__rc5>
    1176: 85 29        	sta	$29                     ; 0x29 <__rc25>
    1178: a9 00        	lda	#$0
    117a: e5 14        	sbc	$14                     ; 0x14 <__rc4>
    117c: 85 16        	sta	$16                     ; 0x16 <__rc6>
    117e: 18           	clc
    117f: a0 14        	ldy	#$14
    1181: b1 10        	lda	($10),y                 ; 0x10 <__rc0>
    1183: 69 a0        	adc	#$a0
    1185: 85 2a        	sta	$2a                     ; 0x2a <__rc26>
    1187: a5 28        	lda	$28                     ; 0x28 <__rc24>
    1189: 69 00        	adc	#$0
    118b: 85 28        	sta	$28                     ; 0x28 <__rc24>
    118d: 18           	clc
    118e: a5 2c        	lda	$2c                     ; 0x2c <__rc28>
    1190: 69 78        	adc	#$78
    1192: 85 2c        	sta	$2c                     ; 0x2c <__rc28>
    1194: a5 2d        	lda	$2d                     ; 0x2d <__rc29>
    1196: 69 00        	adc	#$0
    1198: 85 2d        	sta	$2d                     ; 0x2d <__rc29>
    119a: 18           	clc
    119b: a5 29        	lda	$29                     ; 0x29 <__rc25>
    119d: 69 a0        	adc	#$a0
    119f: 85 29        	sta	$29                     ; 0x29 <__rc25>
    11a1: 64 12        	stz	$12                     ; 0x12 <__rc2>
    11a3: a9 00        	lda	#$0
    11a5: 91 10        	sta	($10),y                 ; 0x10 <__rc0>
    11a7: a5 16        	lda	$16                     ; 0x16 <__rc6>
    11a9: 69 00        	adc	#$0
    11ab: 85 2b        	sta	$2b                     ; 0x2b <__rc27>
    11ad: 18           	clc
    11ae: a5 2e        	lda	$2e                     ; 0x2e <__rc30>
    11b0: 69 04        	adc	#$4
    11b2: 85 12        	sta	$12                     ; 0x12 <__rc2>
    11b4: a5 2f        	lda	$2f                     ; 0x2f <__rc31>
    11b6: 69 00        	adc	#$0
    11b8: 85 13        	sta	$13                     ; 0x13 <__rc3>
    11ba: a0 04        	ldy	#$4
    11bc: b1 24        	lda	($24),y                 ; 0x24 <__rc20>
    11be: 85 18        	sta	$18                     ; 0x18 <__rc8>
    11c0: a0 01        	ldy	#$1
    11c2: b1 12        	lda	($12),y                 ; 0x12 <__rc2>
    11c4: aa           	tax
    11c5: c8           	iny
    11c6: b1 12        	lda	($12),y                 ; 0x12 <__rc2>
    11c8: 85 14        	sta	$14                     ; 0x14 <__rc4>
    11ca: c8           	iny
    11cb: b1 12        	lda	($12),y                 ; 0x12 <__rc2>
    11cd: a8           	tay
    11ce: a5 14        	lda	$14                     ; 0x14 <__rc4>
    11d0: 5a           	phy
    11d1: a0 05        	ldy	#$5
    11d3: 91 10        	sta	($10),y                 ; 0x10 <__rc0>
    11d5: 7a           	ply
    11d6: 85 12        	sta	$12                     ; 0x12 <__rc2>
    11d8: 84 2f        	sty	$2f                     ; 0x2f <__rc31>
    11da: 84 13        	sty	$13                     ; 0x13 <__rc3>
    11dc: 64 14        	stz	$14                     ; 0x14 <__rc4>
    11de: 64 15        	stz	$15                     ; 0x15 <__rc5>
    11e0: a4 26        	ldy	$26                     ; 0x26 <__rc22>
    11e2: 84 16        	sty	$16                     ; 0x16 <__rc6>
    11e4: a4 26        	ldy	$26                     ; 0x26 <__rc22>
    11e6: 84 24        	sty	$24                     ; 0x24 <__rc20>
    11e8: a4 27        	ldy	$27                     ; 0x27 <__rc23>
    11ea: 84 17        	sty	$17                     ; 0x17 <__rc7>
    11ec: a4 27        	ldy	$27                     ; 0x27 <__rc23>
    11ee: 84 25        	sty	$25                     ; 0x25 <__rc21>
    11f0: 86 2e        	stx	$2e                     ; 0x2e <__rc30>
    11f2: a5 18        	lda	$18                     ; 0x18 <__rc8>
    11f4: a0 04        	ldy	#$4
    11f6: 91 10        	sta	($10),y                 ; 0x10 <__rc0>
    11f8: 20 27 04     	jsr	$427 <mathFloatMul>
    11fb: a8           	tay
    11fc: a5 12        	lda	$12                     ; 0x12 <__rc2>
    11fe: 85 14        	sta	$14                     ; 0x14 <__rc4>
    1200: a5 12        	lda	$12                     ; 0x12 <__rc2>
    1202: 0a           	asl
    1203: a5 13        	lda	$13                     ; 0x13 <__rc3>
    1205: 2a           	rol
    1206: 18           	clc
    1207: 85 12        	sta	$12                     ; 0x12 <__rc2>
    1209: 69 81        	adc	#$81
    120b: 64 15        	stz	$15                     ; 0x15 <__rc5>
    120d: 64 16        	stz	$16                     ; 0x16 <__rc6>
    120f: 10 03        	bpl	$1214 <f256main+0x99f>
    1211: 4c bc 12     	jmp	$12bc <f256main+0xa47>
    1214: c9 0f        	cmp	#$f
    1216: 90 0e        	bcc	$1226 <f256main+0x9b1>
    1218: a5 13        	lda	$13                     ; 0x13 <__rc3>
    121a: 10 03        	bpl	$121f <f256main+0x9aa>
    121c: 4c a5 12     	jmp	$12a5 <f256main+0xa30>
    121f: a0 7f        	ldy	#$7f
    1221: a2 ff        	ldx	#$ff
    1223: 4c a9 12     	jmp	$12a9 <f256main+0xa34>
    1226: a5 14        	lda	$14                     ; 0x14 <__rc4>
    1228: 09 80        	ora	#$80
    122a: 85 19        	sta	$19                     ; 0x19 <__rc9>
    122c: a5 12        	lda	$12                     ; 0x12 <__rc2>
    122e: 85 14        	sta	$14                     ; 0x14 <__rc4>
    1230: 38           	sec
    1231: a9 9e        	lda	#$9e
    1233: e5 12        	sbc	$12                     ; 0x12 <__rc2>
    1235: 85 17        	sta	$17                     ; 0x17 <__rc7>
    1237: 18           	clc
    1238: a5 14        	lda	$14                     ; 0x14 <__rc4>
    123a: 69 6a        	adc	#$6a
    123c: 84 14        	sty	$14                     ; 0x14 <__rc4>
    123e: a4 19        	ldy	$19                     ; 0x19 <__rc9>
    1240: 84 12        	sty	$12                     ; 0x12 <__rc2>
    1242: a4 14        	ldy	$14                     ; 0x14 <__rc4>
    1244: 84 15        	sty	$15                     ; 0x15 <__rc5>
    1246: 86 14        	stx	$14                     ; 0x14 <__rc4>
    1248: 85 16        	sta	$16                     ; 0x16 <__rc6>
    124a: a8           	tay
    124b: 18           	clc
    124c: a5 17        	lda	$17                     ; 0x17 <__rc7>
    124e: 69 f8        	adc	#$f8
    1250: 85 17        	sta	$17                     ; 0x17 <__rc7>
    1252: c9 08        	cmp	#$8
    1254: a2 01        	ldx	#$1
    1256: b0 02        	bcs	$125a <f256main+0x9e5>
    1258: a2 00        	ldx	#$0
    125a: 86 18        	stx	$18                     ; 0x18 <__rc8>
    125c: 18           	clc
    125d: a5 16        	lda	$16                     ; 0x16 <__rc6>
    125f: 69 08        	adc	#$8
    1261: 64 19        	stz	$19                     ; 0x19 <__rc9>
    1263: a6 12        	ldx	$12                     ; 0x12 <__rc2>
    1265: e6 18        	inc	$18                     ; 0x18 <__rc8>
    1267: c6 18        	dec	$18                     ; 0x18 <__rc8>
    1269: d0 d3        	bne	$123e <f256main+0x9c9>
    126b: a5 17        	lda	$17                     ; 0x17 <__rc7>
    126d: f0 2c        	beq	$129b <f256main+0xa26>
    126f: a6 14        	ldx	$14                     ; 0x14 <__rc4>
    1271: a5 15        	lda	$15                     ; 0x15 <__rc5>
    1273: 46 12        	lsr	$12                     ; 0x12 <__rc2>
    1275: 85 15        	sta	$15                     ; 0x15 <__rc5>
    1277: a9 00        	lda	#$0
    1279: 6a           	ror
    127a: 85 14        	sta	$14                     ; 0x14 <__rc4>
    127c: 8a           	txa
    127d: 4a           	lsr
    127e: 05 14        	ora	$14                     ; 0x14 <__rc4>
    1280: 85 16        	sta	$16                     ; 0x16 <__rc6>
    1282: a9 00        	lda	#$0
    1284: 6a           	ror
    1285: 85 14        	sta	$14                     ; 0x14 <__rc4>
    1287: a5 15        	lda	$15                     ; 0x15 <__rc5>
    1289: 4a           	lsr
    128a: 05 14        	ora	$14                     ; 0x14 <__rc4>
    128c: c8           	iny
    128d: a6 16        	ldx	$16                     ; 0x16 <__rc6>
    128f: 48           	pha
    1290: a5 16        	lda	$16                     ; 0x16 <__rc6>
    1292: 85 14        	sta	$14                     ; 0x14 <__rc4>
    1294: 68           	pla
    1295: 85 15        	sta	$15                     ; 0x15 <__rc5>
    1297: c0 00        	cpy	#$0
    1299: d0 d8        	bne	$1273 <f256main+0x9fe>
    129b: a5 13        	lda	$13                     ; 0x13 <__rc3>
    129d: 30 10        	bmi	$12af <f256main+0xa3a>
    129f: a6 14        	ldx	$14                     ; 0x14 <__rc4>
    12a1: 86 16        	stx	$16                     ; 0x16 <__rc6>
    12a3: 80 17        	bra	$12bc <f256main+0xa47>
    12a5: a0 80        	ldy	#$80
    12a7: a2 00        	ldx	#$0
    12a9: 86 15        	stx	$15                     ; 0x15 <__rc5>
    12ab: 84 16        	sty	$16                     ; 0x16 <__rc6>
    12ad: 80 0d        	bra	$12bc <f256main+0xa47>
    12af: 38           	sec
    12b0: a9 00        	lda	#$0
    12b2: e5 15        	sbc	$15                     ; 0x15 <__rc5>
    12b4: 85 15        	sta	$15                     ; 0x15 <__rc5>
    12b6: a9 00        	lda	#$0
    12b8: e5 14        	sbc	$14                     ; 0x14 <__rc4>
    12ba: 85 16        	sta	$16                     ; 0x16 <__rc6>
    12bc: 18           	clc
    12bd: a5 15        	lda	$15                     ; 0x15 <__rc5>
    12bf: 69 78        	adc	#$78
    12c1: aa           	tax
    12c2: a5 16        	lda	$16                     ; 0x16 <__rc6>
    12c4: 69 00        	adc	#$0
    12c6: a4 2c        	ldy	$2c                     ; 0x2c <__rc28>
    12c8: 84 12        	sty	$12                     ; 0x12 <__rc2>
    12ca: a4 2d        	ldy	$2d                     ; 0x2d <__rc29>
    12cc: 84 13        	sty	$13                     ; 0x13 <__rc3>
    12ce: a4 29        	ldy	$29                     ; 0x29 <__rc25>
    12d0: 84 14        	sty	$14                     ; 0x14 <__rc4>
    12d2: a4 2b        	ldy	$2b                     ; 0x2b <__rc27>
    12d4: 84 15        	sty	$15                     ; 0x15 <__rc5>
    12d6: 86 16        	stx	$16                     ; 0x16 <__rc6>
    12d8: 85 17        	sta	$17                     ; 0x17 <__rc7>
    12da: a6 28        	ldx	$28                     ; 0x28 <__rc24>
    12dc: a5 2a        	lda	$2a                     ; 0x2a <__rc26>
    12de: 20 f6 16     	jsr	$16f6 <bitmapLine>
    12e1: a0 09        	ldy	#$9
    12e3: b1 10        	lda	($10),y                 ; 0x10 <__rc0>
    12e5: 85 12        	sta	$12                     ; 0x12 <__rc2>
    12e7: 88           	dey
    12e8: b1 10        	lda	($10),y                 ; 0x10 <__rc0>
    12ea: 85 13        	sta	$13                     ; 0x13 <__rc3>
    12ec: 64 14        	stz	$14                     ; 0x14 <__rc4>
    12ee: 64 15        	stz	$15                     ; 0x15 <__rc5>
    12f0: a6 26        	ldx	$26                     ; 0x26 <__rc22>
    12f2: 86 16        	stx	$16                     ; 0x16 <__rc6>
    12f4: a6 27        	ldx	$27                     ; 0x27 <__rc23>
    12f6: 86 17        	stx	$17                     ; 0x17 <__rc7>
    12f8: a0 06        	ldy	#$6
    12fa: b1 10        	lda	($10),y                 ; 0x10 <__rc0>
    12fc: aa           	tax
    12fd: c8           	iny
    12fe: b1 10        	lda	($10),y                 ; 0x10 <__rc0>
    1300: 20 27 04     	jsr	$427 <mathFloatMul>
    1303: a8           	tay
    1304: a5 12        	lda	$12                     ; 0x12 <__rc2>
    1306: 85 14        	sta	$14                     ; 0x14 <__rc4>
    1308: a5 12        	lda	$12                     ; 0x12 <__rc2>
    130a: 0a           	asl
    130b: a5 13        	lda	$13                     ; 0x13 <__rc3>
    130d: 2a           	rol
    130e: 85 12        	sta	$12                     ; 0x12 <__rc2>
    1310: 18           	clc
    1311: 69 81        	adc	#$81
    1313: 64 26        	stz	$26                     ; 0x26 <__rc22>
    1315: 10 03        	bpl	$131a <f256main+0xaa5>
    1317: 4c d5 13     	jmp	$13d5 <f256main+0xb60>
    131a: c9 0f        	cmp	#$f
    131c: 90 11        	bcc	$132f <f256main+0xaba>
    131e: a5 13        	lda	$13                     ; 0x13 <__rc3>
    1320: 10 03        	bpl	$1325 <f256main+0xab0>
    1322: 4c b8 13     	jmp	$13b8 <f256main+0xb43>
    1325: a2 7f        	ldx	#$7f
    1327: 86 26        	stx	$26                     ; 0x26 <__rc22>
    1329: a2 ff        	ldx	#$ff
    132b: 8a           	txa
    132c: 4c c0 13     	jmp	$13c0 <f256main+0xb4b>
    132f: a5 14        	lda	$14                     ; 0x14 <__rc4>
    1331: 09 80        	ora	#$80
    1333: 85 14        	sta	$14                     ; 0x14 <__rc4>
    1335: a5 12        	lda	$12                     ; 0x12 <__rc2>
    1337: 85 15        	sta	$15                     ; 0x15 <__rc5>
    1339: 38           	sec
    133a: a9 9e        	lda	#$9e
    133c: e5 12        	sbc	$12                     ; 0x12 <__rc2>
    133e: 85 17        	sta	$17                     ; 0x17 <__rc7>
    1340: a5 14        	lda	$14                     ; 0x14 <__rc4>
    1342: 85 19        	sta	$19                     ; 0x19 <__rc9>
    1344: 18           	clc
    1345: a5 15        	lda	$15                     ; 0x15 <__rc5>
    1347: 69 6a        	adc	#$6a
    1349: 84 14        	sty	$14                     ; 0x14 <__rc4>
    134b: a4 19        	ldy	$19                     ; 0x19 <__rc9>
    134d: 84 12        	sty	$12                     ; 0x12 <__rc2>
    134f: a4 14        	ldy	$14                     ; 0x14 <__rc4>
    1351: 84 15        	sty	$15                     ; 0x15 <__rc5>
    1353: 86 14        	stx	$14                     ; 0x14 <__rc4>
    1355: 85 16        	sta	$16                     ; 0x16 <__rc6>
    1357: a8           	tay
    1358: 18           	clc
    1359: a5 17        	lda	$17                     ; 0x17 <__rc7>
    135b: 69 f8        	adc	#$f8
    135d: 85 17        	sta	$17                     ; 0x17 <__rc7>
    135f: c9 08        	cmp	#$8
    1361: a2 01        	ldx	#$1
    1363: b0 02        	bcs	$1367 <f256main+0xaf2>
    1365: a2 00        	ldx	#$0
    1367: 86 18        	stx	$18                     ; 0x18 <__rc8>
    1369: 18           	clc
    136a: a5 16        	lda	$16                     ; 0x16 <__rc6>
    136c: 69 08        	adc	#$8
    136e: 64 19        	stz	$19                     ; 0x19 <__rc9>
    1370: a6 12        	ldx	$12                     ; 0x12 <__rc2>
    1372: e6 18        	inc	$18                     ; 0x18 <__rc8>
    1374: c6 18        	dec	$18                     ; 0x18 <__rc8>
    1376: d0 d3        	bne	$134b <f256main+0xad6>
    1378: a5 17        	lda	$17                     ; 0x17 <__rc7>
    137a: f0 2c        	beq	$13a8 <f256main+0xb33>
    137c: a6 14        	ldx	$14                     ; 0x14 <__rc4>
    137e: a5 15        	lda	$15                     ; 0x15 <__rc5>
    1380: 46 12        	lsr	$12                     ; 0x12 <__rc2>
    1382: 85 15        	sta	$15                     ; 0x15 <__rc5>
    1384: a9 00        	lda	#$0
    1386: 6a           	ror
    1387: 85 14        	sta	$14                     ; 0x14 <__rc4>
    1389: 8a           	txa
    138a: 4a           	lsr
    138b: 05 14        	ora	$14                     ; 0x14 <__rc4>
    138d: 85 16        	sta	$16                     ; 0x16 <__rc6>
    138f: a9 00        	lda	#$0
    1391: 6a           	ror
    1392: 85 14        	sta	$14                     ; 0x14 <__rc4>
    1394: a5 15        	lda	$15                     ; 0x15 <__rc5>
    1396: 4a           	lsr
    1397: 05 14        	ora	$14                     ; 0x14 <__rc4>
    1399: c8           	iny
    139a: a6 16        	ldx	$16                     ; 0x16 <__rc6>
    139c: 48           	pha
    139d: a5 16        	lda	$16                     ; 0x16 <__rc6>
    139f: 85 14        	sta	$14                     ; 0x14 <__rc4>
    13a1: 68           	pla
    13a2: 85 15        	sta	$15                     ; 0x15 <__rc5>
    13a4: c0 00        	cpy	#$0
    13a6: d0 d8        	bne	$1380 <f256main+0xb0b>
    13a8: a5 13        	lda	$13                     ; 0x13 <__rc3>
    13aa: 30 1a        	bmi	$13c6 <f256main+0xb51>
    13ac: a5 15        	lda	$15                     ; 0x15 <__rc5>
    13ae: a0 14        	ldy	#$14
    13b0: 91 10        	sta	($10),y                 ; 0x10 <__rc0>
    13b2: a6 14        	ldx	$14                     ; 0x14 <__rc4>
    13b4: 86 26        	stx	$26                     ; 0x26 <__rc22>
    13b6: 80 1d        	bra	$13d5 <f256main+0xb60>
    13b8: a2 80        	ldx	#$80
    13ba: 86 26        	stx	$26                     ; 0x26 <__rc22>
    13bc: 64 12        	stz	$12                     ; 0x12 <__rc2>
    13be: a9 00        	lda	#$0
    13c0: a0 14        	ldy	#$14
    13c2: 91 10        	sta	($10),y                 ; 0x10 <__rc0>
    13c4: 80 0f        	bra	$13d5 <f256main+0xb60>
    13c6: 38           	sec
    13c7: a9 00        	lda	#$0
    13c9: e5 15        	sbc	$15                     ; 0x15 <__rc5>
    13cb: a0 14        	ldy	#$14
    13cd: 91 10        	sta	($10),y                 ; 0x10 <__rc0>
    13cf: a9 00        	lda	#$0
    13d1: e5 14        	sbc	$14                     ; 0x14 <__rc4>
    13d3: 85 26        	sta	$26                     ; 0x26 <__rc22>
    13d5: 64 27        	stz	$27                     ; 0x27 <__rc23>
    13d7: a0 05        	ldy	#$5
    13d9: b1 10        	lda	($10),y                 ; 0x10 <__rc0>
    13db: 85 12        	sta	$12                     ; 0x12 <__rc2>
    13dd: a6 2f        	ldx	$2f                     ; 0x2f <__rc31>
    13df: 86 13        	stx	$13                     ; 0x13 <__rc3>
    13e1: 64 14        	stz	$14                     ; 0x14 <__rc4>
    13e3: 64 15        	stz	$15                     ; 0x15 <__rc5>
    13e5: a6 24        	ldx	$24                     ; 0x24 <__rc20>
    13e7: 86 16        	stx	$16                     ; 0x16 <__rc6>
    13e9: a6 25        	ldx	$25                     ; 0x25 <__rc21>
    13eb: 86 17        	stx	$17                     ; 0x17 <__rc7>
    13ed: a6 2e        	ldx	$2e                     ; 0x2e <__rc30>
    13ef: 88           	dey
    13f0: b1 10        	lda	($10),y                 ; 0x10 <__rc0>
    13f2: 20 27 04     	jsr	$427 <mathFloatMul>
    13f5: a8           	tay
    13f6: a5 12        	lda	$12                     ; 0x12 <__rc2>
    13f8: 85 14        	sta	$14                     ; 0x14 <__rc4>
    13fa: a5 12        	lda	$12                     ; 0x12 <__rc2>
    13fc: 0a           	asl
    13fd: a5 13        	lda	$13                     ; 0x13 <__rc3>
    13ff: 2a           	rol
    1400: 18           	clc
    1401: 85 12        	sta	$12                     ; 0x12 <__rc2>
    1403: 69 81        	adc	#$81
    1405: 64 2a        	stz	$2a                     ; 0x2a <__rc26>
    1407: 64 2c        	stz	$2c                     ; 0x2c <__rc28>
    1409: 10 03        	bpl	$140e <f256main+0xb99>
    140b: 4c b8 14     	jmp	$14b8 <f256main+0xc43>
    140e: c9 0f        	cmp	#$f
    1410: 90 12        	bcc	$1424 <f256main+0xbaf>
    1412: a5 13        	lda	$13                     ; 0x13 <__rc3>
    1414: 10 03        	bpl	$1419 <f256main+0xba4>
    1416: 4c a5 14     	jmp	$14a5 <f256main+0xc30>
    1419: a2 7f        	ldx	#$7f
    141b: 86 2c        	stx	$2c                     ; 0x2c <__rc28>
    141d: a2 ff        	ldx	#$ff
    141f: 86 2a        	stx	$2a                     ; 0x2a <__rc26>
    1421: 4c b8 14     	jmp	$14b8 <f256main+0xc43>
    1424: a5 14        	lda	$14                     ; 0x14 <__rc4>
    1426: 09 80        	ora	#$80
    1428: 85 19        	sta	$19                     ; 0x19 <__rc9>
    142a: a5 12        	lda	$12                     ; 0x12 <__rc2>
    142c: 85 14        	sta	$14                     ; 0x14 <__rc4>
    142e: 38           	sec
    142f: a9 9e        	lda	#$9e
    1431: e5 12        	sbc	$12                     ; 0x12 <__rc2>
    1433: 85 17        	sta	$17                     ; 0x17 <__rc7>
    1435: 18           	clc
    1436: a5 14        	lda	$14                     ; 0x14 <__rc4>
    1438: 69 6a        	adc	#$6a
    143a: 84 14        	sty	$14                     ; 0x14 <__rc4>
    143c: a4 19        	ldy	$19                     ; 0x19 <__rc9>
    143e: 84 12        	sty	$12                     ; 0x12 <__rc2>
    1440: a4 14        	ldy	$14                     ; 0x14 <__rc4>
    1442: 84 15        	sty	$15                     ; 0x15 <__rc5>
    1444: 86 14        	stx	$14                     ; 0x14 <__rc4>
    1446: 85 16        	sta	$16                     ; 0x16 <__rc6>
    1448: a8           	tay
    1449: 18           	clc
    144a: a5 17        	lda	$17                     ; 0x17 <__rc7>
    144c: 69 f8        	adc	#$f8
    144e: 85 17        	sta	$17                     ; 0x17 <__rc7>
    1450: c9 08        	cmp	#$8
    1452: a2 01        	ldx	#$1
    1454: b0 02        	bcs	$1458 <f256main+0xbe3>
    1456: a2 00        	ldx	#$0
    1458: 86 18        	stx	$18                     ; 0x18 <__rc8>
    145a: 18           	clc
    145b: a5 16        	lda	$16                     ; 0x16 <__rc6>
    145d: 69 08        	adc	#$8
    145f: 64 19        	stz	$19                     ; 0x19 <__rc9>
    1461: a6 12        	ldx	$12                     ; 0x12 <__rc2>
    1463: e6 18        	inc	$18                     ; 0x18 <__rc8>
    1465: c6 18        	dec	$18                     ; 0x18 <__rc8>
    1467: d0 d3        	bne	$143c <f256main+0xbc7>
    1469: a5 17        	lda	$17                     ; 0x17 <__rc7>
    146b: f0 2c        	beq	$1499 <f256main+0xc24>
    146d: a6 14        	ldx	$14                     ; 0x14 <__rc4>
    146f: a5 15        	lda	$15                     ; 0x15 <__rc5>
    1471: 46 12        	lsr	$12                     ; 0x12 <__rc2>
    1473: 85 15        	sta	$15                     ; 0x15 <__rc5>
    1475: a9 00        	lda	#$0
    1477: 6a           	ror
    1478: 85 14        	sta	$14                     ; 0x14 <__rc4>
    147a: 8a           	txa
    147b: 4a           	lsr
    147c: 05 14        	ora	$14                     ; 0x14 <__rc4>
    147e: 85 16        	sta	$16                     ; 0x16 <__rc6>
    1480: a9 00        	lda	#$0
    1482: 6a           	ror
    1483: 85 14        	sta	$14                     ; 0x14 <__rc4>
    1485: a5 15        	lda	$15                     ; 0x15 <__rc5>
    1487: 4a           	lsr
    1488: 05 14        	ora	$14                     ; 0x14 <__rc4>
    148a: c8           	iny
    148b: a6 16        	ldx	$16                     ; 0x16 <__rc6>
    148d: 48           	pha
    148e: a5 16        	lda	$16                     ; 0x16 <__rc6>
    1490: 85 14        	sta	$14                     ; 0x14 <__rc4>
    1492: 68           	pla
    1493: 85 15        	sta	$15                     ; 0x15 <__rc5>
    1495: c0 00        	cpy	#$0
    1497: d0 d8        	bne	$1471 <f256main+0xbfc>
    1499: a5 13        	lda	$13                     ; 0x13 <__rc3>
    149b: 30 0e        	bmi	$14ab <f256main+0xc36>
    149d: a6 15        	ldx	$15                     ; 0x15 <__rc5>
    149f: 86 2a        	stx	$2a                     ; 0x2a <__rc26>
    14a1: a6 14        	ldx	$14                     ; 0x14 <__rc4>
    14a3: 80 02        	bra	$14a7 <f256main+0xc32>
    14a5: a2 80        	ldx	#$80
    14a7: 86 2c        	stx	$2c                     ; 0x2c <__rc28>
    14a9: 80 0d        	bra	$14b8 <f256main+0xc43>
    14ab: 38           	sec
    14ac: a9 00        	lda	#$0
    14ae: e5 15        	sbc	$15                     ; 0x15 <__rc5>
    14b0: 85 2a        	sta	$2a                     ; 0x2a <__rc26>
    14b2: a9 00        	lda	#$0
    14b4: e5 14        	sbc	$14                     ; 0x14 <__rc4>
    14b6: 85 2c        	sta	$2c                     ; 0x2c <__rc28>
    14b8: a0 0d        	ldy	#$d
    14ba: b1 10        	lda	($10),y                 ; 0x10 <__rc0>
    14bc: 85 12        	sta	$12                     ; 0x12 <__rc2>
    14be: 88           	dey
    14bf: b1 10        	lda	($10),y                 ; 0x10 <__rc0>
    14c1: 85 13        	sta	$13                     ; 0x13 <__rc3>
    14c3: 64 14        	stz	$14                     ; 0x14 <__rc4>
    14c5: 64 15        	stz	$15                     ; 0x15 <__rc5>
    14c7: a6 24        	ldx	$24                     ; 0x24 <__rc20>
    14c9: 86 16        	stx	$16                     ; 0x16 <__rc6>
    14cb: a6 25        	ldx	$25                     ; 0x25 <__rc21>
    14cd: 86 17        	stx	$17                     ; 0x17 <__rc7>
    14cf: a0 0a        	ldy	#$a
    14d1: b1 10        	lda	($10),y                 ; 0x10 <__rc0>
    14d3: aa           	tax
    14d4: c8           	iny
    14d5: b1 10        	lda	($10),y                 ; 0x10 <__rc0>
    14d7: 20 27 04     	jsr	$427 <mathFloatMul>
    14da: a8           	tay
    14db: a5 12        	lda	$12                     ; 0x12 <__rc2>
    14dd: 85 14        	sta	$14                     ; 0x14 <__rc4>
    14df: a5 12        	lda	$12                     ; 0x12 <__rc2>
    14e1: 0a           	asl
    14e2: a5 13        	lda	$13                     ; 0x13 <__rc3>
    14e4: 2a           	rol
    14e5: 18           	clc
    14e6: 85 12        	sta	$12                     ; 0x12 <__rc2>
    14e8: 69 81        	adc	#$81
    14ea: 64 15        	stz	$15                     ; 0x15 <__rc5>
    14ec: 10 03        	bpl	$14f1 <f256main+0xc7c>
    14ee: 4c 9d 15     	jmp	$159d <f256main+0xd28>
    14f1: c9 0f        	cmp	#$f
    14f3: 90 10        	bcc	$1505 <f256main+0xc90>
    14f5: a5 13        	lda	$13                     ; 0x13 <__rc3>
    14f7: 10 03        	bpl	$14fc <f256main+0xc87>
    14f9: 4c 88 15     	jmp	$1588 <f256main+0xd13>
    14fc: a0 7f        	ldy	#$7f
    14fe: a2 ff        	ldx	#$ff
    1500: 86 27        	stx	$27                     ; 0x27 <__rc23>
    1502: 4c 8c 15     	jmp	$158c <f256main+0xd17>
    1505: a5 14        	lda	$14                     ; 0x14 <__rc4>
    1507: 09 80        	ora	#$80
    1509: 85 19        	sta	$19                     ; 0x19 <__rc9>
    150b: a5 12        	lda	$12                     ; 0x12 <__rc2>
    150d: 85 14        	sta	$14                     ; 0x14 <__rc4>
    150f: 38           	sec
    1510: a9 9e        	lda	#$9e
    1512: e5 12        	sbc	$12                     ; 0x12 <__rc2>
    1514: 85 17        	sta	$17                     ; 0x17 <__rc7>
    1516: 18           	clc
    1517: a5 14        	lda	$14                     ; 0x14 <__rc4>
    1519: 69 6a        	adc	#$6a
    151b: 84 14        	sty	$14                     ; 0x14 <__rc4>
    151d: a4 19        	ldy	$19                     ; 0x19 <__rc9>
    151f: 84 12        	sty	$12                     ; 0x12 <__rc2>
    1521: a4 14        	ldy	$14                     ; 0x14 <__rc4>
    1523: 84 15        	sty	$15                     ; 0x15 <__rc5>
    1525: 86 14        	stx	$14                     ; 0x14 <__rc4>
    1527: 85 16        	sta	$16                     ; 0x16 <__rc6>
    1529: a8           	tay
    152a: 18           	clc
    152b: a5 17        	lda	$17                     ; 0x17 <__rc7>
    152d: 69 f8        	adc	#$f8
    152f: 85 17        	sta	$17                     ; 0x17 <__rc7>
    1531: c9 08        	cmp	#$8
    1533: a2 01        	ldx	#$1
    1535: b0 02        	bcs	$1539 <f256main+0xcc4>
    1537: a2 00        	ldx	#$0
    1539: 86 18        	stx	$18                     ; 0x18 <__rc8>
    153b: 18           	clc
    153c: a5 16        	lda	$16                     ; 0x16 <__rc6>
    153e: 69 08        	adc	#$8
    1540: 64 19        	stz	$19                     ; 0x19 <__rc9>
    1542: a6 12        	ldx	$12                     ; 0x12 <__rc2>
    1544: e6 18        	inc	$18                     ; 0x18 <__rc8>
    1546: c6 18        	dec	$18                     ; 0x18 <__rc8>
    1548: d0 d3        	bne	$151d <f256main+0xca8>
    154a: a5 17        	lda	$17                     ; 0x17 <__rc7>
    154c: f0 2c        	beq	$157a <f256main+0xd05>
    154e: a6 14        	ldx	$14                     ; 0x14 <__rc4>
    1550: a5 15        	lda	$15                     ; 0x15 <__rc5>
    1552: 46 12        	lsr	$12                     ; 0x12 <__rc2>
    1554: 85 15        	sta	$15                     ; 0x15 <__rc5>
    1556: a9 00        	lda	#$0
    1558: 6a           	ror
    1559: 85 14        	sta	$14                     ; 0x14 <__rc4>
    155b: 8a           	txa
    155c: 4a           	lsr
    155d: 05 14        	ora	$14                     ; 0x14 <__rc4>
    155f: 85 16        	sta	$16                     ; 0x16 <__rc6>
    1561: a9 00        	lda	#$0
    1563: 6a           	ror
    1564: 85 14        	sta	$14                     ; 0x14 <__rc4>
    1566: a5 15        	lda	$15                     ; 0x15 <__rc5>
    1568: 4a           	lsr
    1569: 05 14        	ora	$14                     ; 0x14 <__rc4>
    156b: c8           	iny
    156c: a6 16        	ldx	$16                     ; 0x16 <__rc6>
    156e: 48           	pha
    156f: a5 16        	lda	$16                     ; 0x16 <__rc6>
    1571: 85 14        	sta	$14                     ; 0x14 <__rc4>
    1573: 68           	pla
    1574: 85 15        	sta	$15                     ; 0x15 <__rc5>
    1576: c0 00        	cpy	#$0
    1578: d0 d8        	bne	$1552 <f256main+0xcdd>
    157a: a5 13        	lda	$13                     ; 0x13 <__rc3>
    157c: 30 12        	bmi	$1590 <f256main+0xd1b>
    157e: a6 15        	ldx	$15                     ; 0x15 <__rc5>
    1580: 86 27        	stx	$27                     ; 0x27 <__rc23>
    1582: a6 14        	ldx	$14                     ; 0x14 <__rc4>
    1584: 86 15        	stx	$15                     ; 0x15 <__rc5>
    1586: 80 15        	bra	$159d <f256main+0xd28>
    1588: a0 80        	ldy	#$80
    158a: 64 27        	stz	$27                     ; 0x27 <__rc23>
    158c: 84 15        	sty	$15                     ; 0x15 <__rc5>
    158e: 80 0d        	bra	$159d <f256main+0xd28>
    1590: 38           	sec
    1591: a9 00        	lda	#$0
    1593: e5 15        	sbc	$15                     ; 0x15 <__rc5>
    1595: 85 27        	sta	$27                     ; 0x27 <__rc23>
    1597: a9 00        	lda	#$0
    1599: e5 14        	sbc	$14                     ; 0x14 <__rc4>
    159b: 85 15        	sta	$15                     ; 0x15 <__rc5>
    159d: 18           	clc
    159e: a0 14        	ldy	#$14
    15a0: b1 10        	lda	($10),y                 ; 0x10 <__rc0>
    15a2: 69 a0        	adc	#$a0
    15a4: 85 28        	sta	$28                     ; 0x28 <__rc24>
    15a6: a5 26        	lda	$26                     ; 0x26 <__rc22>
    15a8: 69 00        	adc	#$0
    15aa: 85 29        	sta	$29                     ; 0x29 <__rc25>
    15ac: 18           	clc
    15ad: a5 2a        	lda	$2a                     ; 0x2a <__rc26>
    15af: 69 78        	adc	#$78
    15b1: 85 2b        	sta	$2b                     ; 0x2b <__rc27>
    15b3: a5 2c        	lda	$2c                     ; 0x2c <__rc28>
    15b5: 69 00        	adc	#$0
    15b7: 85 2c        	sta	$2c                     ; 0x2c <__rc28>
    15b9: 18           	clc
    15ba: a5 27        	lda	$27                     ; 0x27 <__rc23>
    15bc: 69 a0        	adc	#$a0
    15be: 85 2a        	sta	$2a                     ; 0x2a <__rc26>
    15c0: a5 15        	lda	$15                     ; 0x15 <__rc5>
    15c2: 69 00        	adc	#$0
    15c4: 85 2d        	sta	$2d                     ; 0x2d <__rc29>
    15c6: a0 11        	ldy	#$11
    15c8: b1 10        	lda	($10),y                 ; 0x10 <__rc0>
    15ca: 85 12        	sta	$12                     ; 0x12 <__rc2>
    15cc: a0 0e        	ldy	#$e
    15ce: b1 10        	lda	($10),y                 ; 0x10 <__rc0>
    15d0: 85 13        	sta	$13                     ; 0x13 <__rc3>
    15d2: 64 14        	stz	$14                     ; 0x14 <__rc4>
    15d4: 64 15        	stz	$15                     ; 0x15 <__rc5>
    15d6: a6 24        	ldx	$24                     ; 0x24 <__rc20>
    15d8: 86 16        	stx	$16                     ; 0x16 <__rc6>
    15da: a6 24        	ldx	$24                     ; 0x24 <__rc20>
    15dc: 86 26        	stx	$26                     ; 0x26 <__rc22>
    15de: a6 25        	ldx	$25                     ; 0x25 <__rc21>
    15e0: 86 17        	stx	$17                     ; 0x17 <__rc7>
    15e2: a6 25        	ldx	$25                     ; 0x25 <__rc21>
    15e4: 86 27        	stx	$27                     ; 0x27 <__rc23>
    15e6: c8           	iny
    15e7: b1 10        	lda	($10),y                 ; 0x10 <__rc0>
    15e9: aa           	tax
    15ea: c8           	iny
    15eb: b1 10        	lda	($10),y                 ; 0x10 <__rc0>
    15ed: 20 27 04     	jsr	$427 <mathFloatMul>
    15f0: a8           	tay
    15f1: a5 12        	lda	$12                     ; 0x12 <__rc2>
    15f3: 85 14        	sta	$14                     ; 0x14 <__rc4>
    15f5: a5 12        	lda	$12                     ; 0x12 <__rc2>
    15f7: 0a           	asl
    15f8: a5 13        	lda	$13                     ; 0x13 <__rc3>
    15fa: 2a           	rol
    15fb: 18           	clc
    15fc: 85 12        	sta	$12                     ; 0x12 <__rc2>
    15fe: 69 81        	adc	#$81
    1600: 30 12        	bmi	$1614 <f256main+0xd9f>
    1602: c9 0f        	cmp	#$f
    1604: 90 15        	bcc	$161b <f256main+0xda6>
    1606: a5 13        	lda	$13                     ; 0x13 <__rc3>
    1608: 10 03        	bpl	$160d <f256main+0xd98>
    160a: 4c a3 16     	jmp	$16a3 <f256main+0xe2e>
    160d: a2 7f        	ldx	#$7f
    160f: a9 ff        	lda	#$ff
    1611: 4c a7 16     	jmp	$16a7 <f256main+0xe32>
    1614: 64 15        	stz	$15                     ; 0x15 <__rc5>
    1616: 64 14        	stz	$14                     ; 0x14 <__rc4>
    1618: 4c ab 16     	jmp	$16ab <f256main+0xe36>
    161b: a5 14        	lda	$14                     ; 0x14 <__rc4>
    161d: 09 80        	ora	#$80
    161f: 85 19        	sta	$19                     ; 0x19 <__rc9>
    1621: a5 12        	lda	$12                     ; 0x12 <__rc2>
    1623: 85 14        	sta	$14                     ; 0x14 <__rc4>
    1625: 38           	sec
    1626: a9 9e        	lda	#$9e
    1628: e5 12        	sbc	$12                     ; 0x12 <__rc2>
    162a: 85 17        	sta	$17                     ; 0x17 <__rc7>
    162c: 18           	clc
    162d: a5 14        	lda	$14                     ; 0x14 <__rc4>
    162f: 69 6a        	adc	#$6a
    1631: 84 14        	sty	$14                     ; 0x14 <__rc4>
    1633: a4 19        	ldy	$19                     ; 0x19 <__rc9>
    1635: 84 12        	sty	$12                     ; 0x12 <__rc2>
    1637: a4 14        	ldy	$14                     ; 0x14 <__rc4>
    1639: 84 15        	sty	$15                     ; 0x15 <__rc5>
    163b: 86 14        	stx	$14                     ; 0x14 <__rc4>
    163d: 85 16        	sta	$16                     ; 0x16 <__rc6>
    163f: a8           	tay
    1640: 18           	clc
    1641: a5 17        	lda	$17                     ; 0x17 <__rc7>
    1643: 69 f8        	adc	#$f8
    1645: 85 17        	sta	$17                     ; 0x17 <__rc7>
    1647: c9 08        	cmp	#$8
    1649: a2 01        	ldx	#$1
    164b: b0 02        	bcs	$164f <f256main+0xdda>
    164d: a2 00        	ldx	#$0
    164f: 86 18        	stx	$18                     ; 0x18 <__rc8>
    1651: 18           	clc
    1652: a5 16        	lda	$16                     ; 0x16 <__rc6>
    1654: 69 08        	adc	#$8
    1656: 64 19        	stz	$19                     ; 0x19 <__rc9>
    1658: a6 12        	ldx	$12                     ; 0x12 <__rc2>
    165a: e6 18        	inc	$18                     ; 0x18 <__rc8>
    165c: c6 18        	dec	$18                     ; 0x18 <__rc8>
    165e: d0 d3        	bne	$1633 <f256main+0xdbe>
    1660: a5 17        	lda	$17                     ; 0x17 <__rc7>
    1662: f0 2c        	beq	$1690 <f256main+0xe1b>
    1664: a6 14        	ldx	$14                     ; 0x14 <__rc4>
    1666: a5 15        	lda	$15                     ; 0x15 <__rc5>
    1668: 46 12        	lsr	$12                     ; 0x12 <__rc2>
    166a: 85 15        	sta	$15                     ; 0x15 <__rc5>
    166c: a9 00        	lda	#$0
    166e: 6a           	ror
    166f: 85 14        	sta	$14                     ; 0x14 <__rc4>
    1671: 8a           	txa
    1672: 4a           	lsr
    1673: 05 14        	ora	$14                     ; 0x14 <__rc4>
    1675: 85 16        	sta	$16                     ; 0x16 <__rc6>
    1677: a9 00        	lda	#$0
    1679: 6a           	ror
    167a: 85 14        	sta	$14                     ; 0x14 <__rc4>
    167c: a5 15        	lda	$15                     ; 0x15 <__rc5>
    167e: 4a           	lsr
    167f: 05 14        	ora	$14                     ; 0x14 <__rc4>
    1681: c8           	iny
    1682: a6 16        	ldx	$16                     ; 0x16 <__rc6>
    1684: 48           	pha
    1685: a5 16        	lda	$16                     ; 0x16 <__rc6>
    1687: 85 14        	sta	$14                     ; 0x14 <__rc4>
    1689: 68           	pla
    168a: 85 15        	sta	$15                     ; 0x15 <__rc5>
    168c: c0 00        	cpy	#$0
    168e: d0 d8        	bne	$1668 <f256main+0xdf3>
    1690: a5 13        	lda	$13                     ; 0x13 <__rc3>
    1692: 10 17        	bpl	$16ab <f256main+0xe36>
    1694: 38           	sec
    1695: a9 00        	lda	#$0
    1697: e5 15        	sbc	$15                     ; 0x15 <__rc5>
    1699: 85 15        	sta	$15                     ; 0x15 <__rc5>
    169b: a9 00        	lda	#$0
    169d: e5 14        	sbc	$14                     ; 0x14 <__rc4>
    169f: 85 14        	sta	$14                     ; 0x14 <__rc4>
    16a1: 80 08        	bra	$16ab <f256main+0xe36>
    16a3: a2 80        	ldx	#$80
    16a5: a9 00        	lda	#$0
    16a7: 85 15        	sta	$15                     ; 0x15 <__rc5>
    16a9: 86 14        	stx	$14                     ; 0x14 <__rc4>
    16ab: 18           	clc
    16ac: a5 15        	lda	$15                     ; 0x15 <__rc5>
    16ae: 69 78        	adc	#$78
    16b0: 85 16        	sta	$16                     ; 0x16 <__rc6>
    16b2: a5 14        	lda	$14                     ; 0x14 <__rc4>
    16b4: 69 00        	adc	#$0
    16b6: a6 2b        	ldx	$2b                     ; 0x2b <__rc27>
    16b8: 86 12        	stx	$12                     ; 0x12 <__rc2>
    16ba: a6 2c        	ldx	$2c                     ; 0x2c <__rc28>
    16bc: 86 13        	stx	$13                     ; 0x13 <__rc3>
    16be: a6 2a        	ldx	$2a                     ; 0x2a <__rc26>
    16c0: 86 14        	stx	$14                     ; 0x14 <__rc4>
    16c2: a6 2d        	ldx	$2d                     ; 0x2d <__rc29>
    16c4: 86 15        	stx	$15                     ; 0x15 <__rc5>
    16c6: 85 17        	sta	$17                     ; 0x17 <__rc7>
    16c8: a6 29        	ldx	$29                     ; 0x29 <__rc25>
    16ca: a5 28        	lda	$28                     ; 0x28 <__rc24>
    16cc: 20 f6 16     	jsr	$16f6 <bitmapLine>
    16cf: 18           	clc
    16d0: a0 13        	ldy	#$13
    16d2: b1 10        	lda	($10),y                 ; 0x10 <__rc0>
    16d4: aa           	tax
    16d5: 69 06        	adc	#$6
    16d7: 85 14        	sta	$14                     ; 0x14 <__rc4>
    16d9: 88           	dey
    16da: b1 10        	lda	($10),y                 ; 0x10 <__rc0>
    16dc: a8           	tay
    16dd: 69 00        	adc	#$0
    16df: 85 12        	sta	$12                     ; 0x12 <__rc2>
    16e1: c0 06        	cpy	#$6
    16e3: d0 04        	bne	$16e9 <f256main+0xe74>
    16e5: e0 f6        	cpx	#$f6
    16e7: 80 02        	bra	$16eb <f256main+0xe76>
    16e9: c0 06        	cpy	#$6
    16eb: a5 14        	lda	$14                     ; 0x14 <__rc4>
    16ed: a6 12        	ldx	$12                     ; 0x12 <__rc2>
    16ef: b0 03        	bcs	$16f4 <f256main+0xe7f>
    16f1: 4c 6d 09     	jmp	$96d <f256main+0xf8>
    16f4: 80 fe        	bra	$16f4 <f256main+0xe7f>

000016f6 <bitmapLine>:
    16f6: 48           	pha
    16f7: 18           	clc
    16f8: a5 10        	lda	$10                     ; 0x10 <__rc0>
    16fa: 69 fd        	adc	#$fd
    16fc: 85 10        	sta	$10                     ; 0x10 <__rc0>
    16fe: a5 11        	lda	$11                     ; 0x11 <__rc1>
    1700: 69 ff        	adc	#$ff
    1702: 85 11        	sta	$11                     ; 0x11 <__rc1>
    1704: 68           	pla
    1705: a4 24        	ldy	$24                     ; 0x24 <__rc20>
    1707: 5a           	phy
    1708: a4 25        	ldy	$25                     ; 0x25 <__rc21>
    170a: 5a           	phy
    170b: a4 26        	ldy	$26                     ; 0x26 <__rc22>
    170d: 5a           	phy
    170e: a4 27        	ldy	$27                     ; 0x27 <__rc23>
    1710: 5a           	phy
    1711: 48           	pha
    1712: a5 28        	lda	$28                     ; 0x28 <__rc24>
    1714: a0 02        	ldy	#$2
    1716: 91 10        	sta	($10),y                 ; 0x10 <__rc0>
    1718: a5 29        	lda	$29                     ; 0x29 <__rc25>
    171a: 88           	dey
    171b: 91 10        	sta	($10),y                 ; 0x10 <__rc0>
    171d: a5 2a        	lda	$2a                     ; 0x2a <__rc26>
    171f: 88           	dey
    1720: 91 10        	sta	($10),y                 ; 0x10 <__rc0>
    1722: 68           	pla
    1723: 85 19        	sta	$19                     ; 0x19 <__rc9>
    1725: 86 18        	stx	$18                     ; 0x18 <__rc8>
    1727: a6 12        	ldx	$12                     ; 0x12 <__rc2>
    1729: 86 23        	stx	$23                     ; 0x23 <__rc19>
    172b: a5 14        	lda	$14                     ; 0x14 <__rc4>
    172d: a4 15        	ldy	$15                     ; 0x15 <__rc5>
    172f: a6 0f        	ldx	$f                      ; 0xf <__zp_bss_size+0x5>
    1731: 86 1e        	stx	$1e                     ; 0x1e <__rc14>
    1733: 78           	sei
    1734: a6 18        	ldx	$18                     ; 0x18 <__rc8>
    1736: 86 1f        	stx	$1f                     ; 0x1f <__rc15>
    1738: 84 26        	sty	$26                     ; 0x26 <__rc22>
    173a: 85 27        	sta	$27                     ; 0x27 <__rc23>
    173c: c4 18        	cpy	$18                     ; 0x18 <__rc8>
    173e: d0 1b        	bne	$175b <bitmapLine+0x65>
    1740: c5 19        	cmp	$19                     ; 0x19 <__rc9>
    1742: b0 1b        	bcs	$175f <bitmapLine+0x69>
    1744: 38           	sec
    1745: a6 19        	ldx	$19                     ; 0x19 <__rc9>
    1747: a5 19        	lda	$19                     ; 0x19 <__rc9>
    1749: e5 27        	sbc	$27                     ; 0x27 <__rc23>
    174b: 85 1b        	sta	$1b                     ; 0x1b <__rc11>
    174d: a5 18        	lda	$18                     ; 0x18 <__rc8>
    174f: e5 26        	sbc	$26                     ; 0x26 <__rc22>
    1751: a0 ff        	ldy	#$ff
    1753: 84 12        	sty	$12                     ; 0x12 <__rc2>
    1755: 84 22        	sty	$22                     ; 0x22 <__rc18>
    1757: 85 1a        	sta	$1a                     ; 0x1a <__rc10>
    1759: 80 16        	bra	$1771 <bitmapLine+0x7b>
    175b: c4 18        	cpy	$18                     ; 0x18 <__rc8>
    175d: 90 e5        	bcc	$1744 <bitmapLine+0x4e>
    175f: 38           	sec
    1760: a6 19        	ldx	$19                     ; 0x19 <__rc9>
    1762: e5 19        	sbc	$19                     ; 0x19 <__rc9>
    1764: 85 1b        	sta	$1b                     ; 0x1b <__rc11>
    1766: 98           	tya
    1767: e5 1f        	sbc	$1f                     ; 0x1f <__rc15>
    1769: a0 01        	ldy	#$1
    176b: 84 12        	sty	$12                     ; 0x12 <__rc2>
    176d: 85 1a        	sta	$1a                     ; 0x1a <__rc10>
    176f: 64 22        	stz	$22                     ; 0x22 <__rc18>
    1771: a4 13        	ldy	$13                     ; 0x13 <__rc3>
    1773: 84 14        	sty	$14                     ; 0x14 <__rc4>
    1775: a5 17        	lda	$17                     ; 0x17 <__rc7>
    1777: c5 14        	cmp	$14                     ; 0x14 <__rc4>
    1779: d0 08        	bne	$1783 <bitmapLine+0x8d>
    177b: a5 23        	lda	$23                     ; 0x23 <__rc19>
    177d: 85 14        	sta	$14                     ; 0x14 <__rc4>
    177f: a5 16        	lda	$16                     ; 0x16 <__rc6>
    1781: 80 02        	bra	$1785 <bitmapLine+0x8f>
    1783: 84 14        	sty	$14                     ; 0x14 <__rc4>
    1785: c5 14        	cmp	$14                     ; 0x14 <__rc4>
    1787: b0 1c        	bcs	$17a5 <bitmapLine+0xaf>
    1789: 38           	sec
    178a: a5 16        	lda	$16                     ; 0x16 <__rc6>
    178c: 85 14        	sta	$14                     ; 0x14 <__rc4>
    178e: a5 23        	lda	$23                     ; 0x23 <__rc19>
    1790: e5 14        	sbc	$14                     ; 0x14 <__rc4>
    1792: 85 1d        	sta	$1d                     ; 0x1d <__rc13>
    1794: a5 17        	lda	$17                     ; 0x17 <__rc7>
    1796: 85 14        	sta	$14                     ; 0x14 <__rc4>
    1798: 98           	tya
    1799: e5 14        	sbc	$14                     ; 0x14 <__rc4>
    179b: a0 ff        	ldy	#$ff
    179d: 84 14        	sty	$14                     ; 0x14 <__rc4>
    179f: 84 15        	sty	$15                     ; 0x15 <__rc5>
    17a1: 85 1c        	sta	$1c                     ; 0x1c <__rc12>
    17a3: 80 19        	bra	$17be <bitmapLine+0xc8>
    17a5: 38           	sec
    17a6: a5 23        	lda	$23                     ; 0x23 <__rc19>
    17a8: 85 14        	sta	$14                     ; 0x14 <__rc4>
    17aa: a5 16        	lda	$16                     ; 0x16 <__rc6>
    17ac: e5 14        	sbc	$14                     ; 0x14 <__rc4>
    17ae: 85 1d        	sta	$1d                     ; 0x1d <__rc13>
    17b0: 84 14        	sty	$14                     ; 0x14 <__rc4>
    17b2: a5 17        	lda	$17                     ; 0x17 <__rc7>
    17b4: e5 14        	sbc	$14                     ; 0x14 <__rc4>
    17b6: a0 01        	ldy	#$1
    17b8: 84 14        	sty	$14                     ; 0x14 <__rc4>
    17ba: 85 1c        	sta	$1c                     ; 0x1c <__rc12>
    17bc: 64 15        	stz	$15                     ; 0x15 <__rc5>
    17be: a4 1b        	ldy	$1b                     ; 0x1b <__rc11>
    17c0: c4 1d        	cpy	$1d                     ; 0x1d <__rc13>
    17c2: a5 1a        	lda	$1a                     ; 0x1a <__rc10>
    17c4: e5 1c        	sbc	$1c                     ; 0x1c <__rc12>
    17c6: 50 02        	bvc	$17ca <bitmapLine+0xd4>
    17c8: 49 80        	eor	#$80
    17ca: a4 1b        	ldy	$1b                     ; 0x1b <__rc11>
    17cc: 84 24        	sty	$24                     ; 0x24 <__rc20>
    17ce: 06 24        	asl	$24                     ; 0x24 <__rc20>
    17d0: a4 1a        	ldy	$1a                     ; 0x1a <__rc10>
    17d2: 84 25        	sty	$25                     ; 0x25 <__rc21>
    17d4: 26 25        	rol	$25                     ; 0x25 <__rc21>
    17d6: a4 1d        	ldy	$1d                     ; 0x1d <__rc13>
    17d8: 84 18        	sty	$18                     ; 0x18 <__rc8>
    17da: 06 18        	asl	$18                     ; 0x18 <__rc8>
    17dc: a4 1c        	ldy	$1c                     ; 0x1c <__rc12>
    17de: 84 19        	sty	$19                     ; 0x19 <__rc9>
    17e0: 26 19        	rol	$19                     ; 0x19 <__rc9>
    17e2: a8           	tay
    17e3: 10 20        	bpl	$1805 <bitmapLine+0x10f>
    17e5: a4 17        	ldy	$17                     ; 0x17 <__rc7>
    17e7: 84 1a        	sty	$1a                     ; 0x1a <__rc10>
    17e9: a4 13        	ldy	$13                     ; 0x13 <__rc3>
    17eb: c4 1a        	cpy	$1a                     ; 0x1a <__rc10>
    17ed: f0 03        	beq	$17f2 <bitmapLine+0xfc>
    17ef: 4c 43 19     	jmp	$1943 <bitmapLine+0x24d>
    17f2: a5 16        	lda	$16                     ; 0x16 <__rc6>
    17f4: 85 1a        	sta	$1a                     ; 0x1a <__rc10>
    17f6: 8a           	txa
    17f7: a6 23        	ldx	$23                     ; 0x23 <__rc19>
    17f9: e4 1a        	cpx	$1a                     ; 0x1a <__rc10>
    17fb: f0 03        	beq	$1800 <bitmapLine+0x10a>
    17fd: 4c 44 19     	jmp	$1944 <bitmapLine+0x24e>
    1800: 85 15        	sta	$15                     ; 0x15 <__rc5>
    1802: 4c 64 1a     	jmp	$1a64 <bitmapLine+0x36e>
    1805: a4 1f        	ldy	$1f                     ; 0x1f <__rc15>
    1807: c4 26        	cpy	$26                     ; 0x26 <__rc22>
    1809: d0 17        	bne	$1822 <bitmapLine+0x12c>
    180b: e4 27        	cpx	$27                     ; 0x27 <__rc23>
    180d: d0 13        	bne	$1822 <bitmapLine+0x12c>
    180f: a5 13        	lda	$13                     ; 0x13 <__rc3>
    1811: a6 23        	ldx	$23                     ; 0x23 <__rc19>
    1813: 86 16        	stx	$16                     ; 0x16 <__rc6>
    1815: 85 17        	sta	$17                     ; 0x17 <__rc7>
    1817: a6 27        	ldx	$27                     ; 0x27 <__rc23>
    1819: 86 15        	stx	$15                     ; 0x15 <__rc5>
    181b: a6 26        	ldx	$26                     ; 0x26 <__rc22>
    181d: 86 1f        	stx	$1f                     ; 0x1f <__rc15>
    181f: 4c 64 1a     	jmp	$1a64 <bitmapLine+0x36e>
    1822: 38           	sec
    1823: a5 18        	lda	$18                     ; 0x18 <__rc8>
    1825: e5 1b        	sbc	$1b                     ; 0x1b <__rc11>
    1827: 85 16        	sta	$16                     ; 0x16 <__rc6>
    1829: a5 19        	lda	$19                     ; 0x19 <__rc9>
    182b: e5 1a        	sbc	$1a                     ; 0x1a <__rc10>
    182d: 85 17        	sta	$17                     ; 0x17 <__rc7>
    182f: 84 1f        	sty	$1f                     ; 0x1f <__rc15>
    1831: 86 1d        	stx	$1d                     ; 0x1d <__rc13>
    1833: a6 62        	ldx	$62                     ; 0x62 <_BITMAP_BASE.0>
    1835: 86 1a        	stx	$1a                     ; 0x1a <__rc10>
    1837: a6 63        	ldx	$63                     ; 0x63 <_BITMAP_BASE.0+0x1>
    1839: 86 1b        	stx	$1b                     ; 0x1b <__rc11>
    183b: a6 64        	ldx	$64                     ; 0x64 <_BITMAP_BASE.0+0x2>
    183d: 86 1c        	stx	$1c                     ; 0x1c <__rc12>
    183f: a5 67        	lda	$67                     ; 0x67 <_MAX_X>
    1841: 29 01        	and	#$1
    1843: f0 06        	beq	$184b <bitmapLine+0x155>
    1845: a2 40        	ldx	#$40
    1847: a0 01        	ldy	#$1
    1849: 80 04        	bra	$184f <bitmapLine+0x159>
    184b: a2 00        	ldx	#$0
    184d: a0 00        	ldy	#$0
    184f: a5 23        	lda	$23                     ; 0x23 <__rc19>
    1851: 8d 00 de     	sta	$de00                   ; 0xde00 <end_block9+0x61aa>
    1854: a5 13        	lda	$13                     ; 0x13 <__rc3>
    1856: 8d 01 de     	sta	$de01                   ; 0xde01 <end_block9+0x61ab>
    1859: 8e 02 de     	stx	$de02                   ; 0xde02 <end_block9+0x61ac>
    185c: 8c 03 de     	sty	$de03                   ; 0xde03 <end_block9+0x61ad>
    185f: ae 10 de     	ldx	$de10                   ; 0xde10 <end_block9+0x61ba>
    1862: 86 29        	stx	$29                     ; 0x29 <__rc25>
    1864: ac 11 de     	ldy	$de11                   ; 0xde11 <end_block9+0x61bb>
    1867: ad 12 de     	lda	$de12                   ; 0xde12 <end_block9+0x61bc>
    186a: ae 13 de     	ldx	$de13                   ; 0xde13 <end_block9+0x61bd>
    186d: 86 28        	stx	$28                     ; 0x28 <__rc24>
    186f: a6 29        	ldx	$29                     ; 0x29 <__rc25>
    1871: 8e 08 de     	stx	$de08                   ; 0xde08 <end_block9+0x61b2>
    1874: 8c 09 de     	sty	$de09                   ; 0xde09 <end_block9+0x61b3>
    1877: 8d 0a de     	sta	$de0a                   ; 0xde0a <end_block9+0x61b4>
    187a: a6 28        	ldx	$28                     ; 0x28 <__rc24>
    187c: 8e 0b de     	stx	$de0b                   ; 0xde0b <end_block9+0x61b5>
    187f: a6 1d        	ldx	$1d                     ; 0x1d <__rc13>
    1881: 8e 0c de     	stx	$de0c                   ; 0xde0c <end_block9+0x61b6>
    1884: a6 1f        	ldx	$1f                     ; 0x1f <__rc15>
    1886: 8e 0d de     	stx	$de0d                   ; 0xde0d <end_block9+0x61b7>
    1889: 9c 0e de     	stz	$de0e                   ; 0xde0e <end_block9+0x61b8>
    188c: 9c 0f de     	stz	$de0f                   ; 0xde0f <end_block9+0x61b9>
    188f: ad 18 de     	lda	$de18                   ; 0xde18 <end_block9+0x61c2>
    1892: ae 19 de     	ldx	$de19                   ; 0xde19 <end_block9+0x61c3>
    1895: 86 29        	stx	$29                     ; 0x29 <__rc25>
    1897: ac 1a de     	ldy	$de1a                   ; 0xde1a <end_block9+0x61c4>
    189a: ae 1b de     	ldx	$de1b                   ; 0xde1b <end_block9+0x61c5>
    189d: 18           	clc
    189e: a2 00        	ldx	#$0
    18a0: 86 28        	stx	$28                     ; 0x28 <__rc24>
    18a2: 65 1a        	adc	$1a                     ; 0x1a <__rc10>
    18a4: 85 2a        	sta	$2a                     ; 0x2a <__rc26>
    18a6: a5 29        	lda	$29                     ; 0x29 <__rc25>
    18a8: 65 1b        	adc	$1b                     ; 0x1b <__rc11>
    18aa: aa           	tax
    18ab: 98           	tya
    18ac: 65 1c        	adc	$1c                     ; 0x1c <__rc12>
    18ae: 86 1b        	stx	$1b                     ; 0x1b <__rc11>
    18b0: 86 1a        	stx	$1a                     ; 0x1a <__rc10>
    18b2: 06 1a        	asl	$1a                     ; 0x1a <__rc10>
    18b4: 2a           	rol
    18b5: 06 1a        	asl	$1a                     ; 0x1a <__rc10>
    18b7: 2a           	rol
    18b8: 06 1a        	asl	$1a                     ; 0x1a <__rc10>
    18ba: 2a           	rol
    18bb: 85 0f        	sta	$f                      ; 0xf <__zp_bss_size+0x5>
    18bd: a5 66        	lda	$66                     ; 0x66 <_color>
    18bf: 4a           	lsr
    18c0: a9 00        	lda	#$0
    18c2: 6a           	ror
    18c3: 10 04        	bpl	$18c9 <bitmapLine+0x1d3>
    18c5: a2 ff        	ldx	#$ff
    18c7: 80 02        	bra	$18cb <bitmapLine+0x1d5>
    18c9: a2 00        	ldx	#$0
    18cb: 0a           	asl
    18cc: 8a           	txa
    18cd: 2a           	rol
    18ce: aa           	tax
    18cf: a5 1b        	lda	$1b                     ; 0x1b <__rc11>
    18d1: 09 e0        	ora	#$e0
    18d3: a4 2a        	ldy	$2a                     ; 0x2a <__rc26>
    18d5: 84 1a        	sty	$1a                     ; 0x1a <__rc10>
    18d7: 85 1b        	sta	$1b                     ; 0x1b <__rc11>
    18d9: 8a           	txa
    18da: 92 1a        	sta	($1a)                   ; 0x1a <__rc10>
    18dc: a4 17        	ldy	$17                     ; 0x17 <__rc7>
    18de: 30 1e        	bmi	$18fe <bitmapLine+0x208>
    18e0: a5 23        	lda	$23                     ; 0x23 <__rc19>
    18e2: 18           	clc
    18e3: a2 00        	ldx	#$0
    18e5: 65 14        	adc	$14                     ; 0x14 <__rc4>
    18e7: 85 23        	sta	$23                     ; 0x23 <__rc19>
    18e9: a5 13        	lda	$13                     ; 0x13 <__rc3>
    18eb: 65 15        	adc	$15                     ; 0x15 <__rc5>
    18ed: 85 13        	sta	$13                     ; 0x13 <__rc3>
    18ef: 38           	sec
    18f0: a5 16        	lda	$16                     ; 0x16 <__rc6>
    18f2: e5 24        	sbc	$24                     ; 0x24 <__rc20>
    18f4: 85 16        	sta	$16                     ; 0x16 <__rc6>
    18f6: 98           	tya
    18f7: e5 25        	sbc	$25                     ; 0x25 <__rc21>
    18f9: a8           	tay
    18fa: a5 16        	lda	$16                     ; 0x16 <__rc6>
    18fc: 80 04        	bra	$1902 <bitmapLine+0x20c>
    18fe: a5 16        	lda	$16                     ; 0x16 <__rc6>
    1900: a6 28        	ldx	$28                     ; 0x28 <__rc24>
    1902: e0 01        	cpx	#$1
    1904: 65 18        	adc	$18                     ; 0x18 <__rc8>
    1906: 85 16        	sta	$16                     ; 0x16 <__rc6>
    1908: 98           	tya
    1909: 65 19        	adc	$19                     ; 0x19 <__rc9>
    190b: 85 17        	sta	$17                     ; 0x17 <__rc7>
    190d: a5 1d        	lda	$1d                     ; 0x1d <__rc13>
    190f: e0 01        	cpx	#$1
    1911: 65 12        	adc	$12                     ; 0x12 <__rc2>
    1913: 85 1a        	sta	$1a                     ; 0x1a <__rc10>
    1915: a5 1f        	lda	$1f                     ; 0x1f <__rc15>
    1917: 65 22        	adc	$22                     ; 0x22 <__rc18>
    1919: 85 1b        	sta	$1b                     ; 0x1b <__rc11>
    191b: a6 1a        	ldx	$1a                     ; 0x1a <__rc10>
    191d: a8           	tay
    191e: a5 26        	lda	$26                     ; 0x26 <__rc22>
    1920: c5 1b        	cmp	$1b                     ; 0x1b <__rc11>
    1922: f0 03        	beq	$1927 <bitmapLine+0x231>
    1924: 4c 2f 18     	jmp	$182f <bitmapLine+0x139>
    1927: 85 1f        	sta	$1f                     ; 0x1f <__rc15>
    1929: a6 1a        	ldx	$1a                     ; 0x1a <__rc10>
    192b: a4 1b        	ldy	$1b                     ; 0x1b <__rc11>
    192d: a5 27        	lda	$27                     ; 0x27 <__rc23>
    192f: c5 1a        	cmp	$1a                     ; 0x1a <__rc10>
    1931: f0 03        	beq	$1936 <bitmapLine+0x240>
    1933: 4c 2f 18     	jmp	$182f <bitmapLine+0x139>
    1936: a6 23        	ldx	$23                     ; 0x23 <__rc19>
    1938: 86 16        	stx	$16                     ; 0x16 <__rc6>
    193a: a6 13        	ldx	$13                     ; 0x13 <__rc3>
    193c: 86 17        	stx	$17                     ; 0x17 <__rc7>
    193e: a6 27        	ldx	$27                     ; 0x27 <__rc23>
    1940: 4c 62 1a     	jmp	$1a62 <bitmapLine+0x36c>
    1943: 8a           	txa
    1944: 85 28        	sta	$28                     ; 0x28 <__rc24>
    1946: 38           	sec
    1947: a5 24        	lda	$24                     ; 0x24 <__rc20>
    1949: e5 1d        	sbc	$1d                     ; 0x1d <__rc13>
    194b: 85 26        	sta	$26                     ; 0x26 <__rc22>
    194d: a5 25        	lda	$25                     ; 0x25 <__rc21>
    194f: e5 1c        	sbc	$1c                     ; 0x1c <__rc12>
    1951: 85 27        	sta	$27                     ; 0x27 <__rc23>
    1953: 84 13        	sty	$13                     ; 0x13 <__rc3>
    1955: a6 28        	ldx	$28                     ; 0x28 <__rc24>
    1957: 86 1d        	stx	$1d                     ; 0x1d <__rc13>
    1959: a4 62        	ldy	$62                     ; 0x62 <_BITMAP_BASE.0>
    195b: 84 1a        	sty	$1a                     ; 0x1a <__rc10>
    195d: a4 63        	ldy	$63                     ; 0x63 <_BITMAP_BASE.0+0x1>
    195f: 84 1b        	sty	$1b                     ; 0x1b <__rc11>
    1961: a4 64        	ldy	$64                     ; 0x64 <_BITMAP_BASE.0+0x2>
    1963: 84 1c        	sty	$1c                     ; 0x1c <__rc12>
    1965: a5 67        	lda	$67                     ; 0x67 <_MAX_X>
    1967: 29 01        	and	#$1
    1969: f0 06        	beq	$1971 <bitmapLine+0x27b>
    196b: a9 40        	lda	#$40
    196d: a0 01        	ldy	#$1
    196f: 80 03        	bra	$1974 <bitmapLine+0x27e>
    1971: a9 00        	lda	#$0
    1973: a8           	tay
    1974: a6 23        	ldx	$23                     ; 0x23 <__rc19>
    1976: 8e 00 de     	stx	$de00                   ; 0xde00 <end_block9+0x61aa>
    1979: a6 13        	ldx	$13                     ; 0x13 <__rc3>
    197b: 8e 01 de     	stx	$de01                   ; 0xde01 <end_block9+0x61ab>
    197e: 8d 02 de     	sta	$de02                   ; 0xde02 <end_block9+0x61ac>
    1981: 8c 03 de     	sty	$de03                   ; 0xde03 <end_block9+0x61ad>
    1984: ac 10 de     	ldy	$de10                   ; 0xde10 <end_block9+0x61ba>
    1987: ad 11 de     	lda	$de11                   ; 0xde11 <end_block9+0x61bb>
    198a: ae 12 de     	ldx	$de12                   ; 0xde12 <end_block9+0x61bc>
    198d: 86 29        	stx	$29                     ; 0x29 <__rc25>
    198f: ae 13 de     	ldx	$de13                   ; 0xde13 <end_block9+0x61bd>
    1992: 86 28        	stx	$28                     ; 0x28 <__rc24>
    1994: 8c 08 de     	sty	$de08                   ; 0xde08 <end_block9+0x61b2>
    1997: 8d 09 de     	sta	$de09                   ; 0xde09 <end_block9+0x61b3>
    199a: a6 29        	ldx	$29                     ; 0x29 <__rc25>
    199c: 8e 0a de     	stx	$de0a                   ; 0xde0a <end_block9+0x61b4>
    199f: a6 28        	ldx	$28                     ; 0x28 <__rc24>
    19a1: 8e 0b de     	stx	$de0b                   ; 0xde0b <end_block9+0x61b5>
    19a4: a6 1d        	ldx	$1d                     ; 0x1d <__rc13>
    19a6: 8e 0c de     	stx	$de0c                   ; 0xde0c <end_block9+0x61b6>
    19a9: a6 1f        	ldx	$1f                     ; 0x1f <__rc15>
    19ab: 8e 0d de     	stx	$de0d                   ; 0xde0d <end_block9+0x61b7>
    19ae: 9c 0e de     	stz	$de0e                   ; 0xde0e <end_block9+0x61b8>
    19b1: 9c 0f de     	stz	$de0f                   ; 0xde0f <end_block9+0x61b9>
    19b4: ad 18 de     	lda	$de18                   ; 0xde18 <end_block9+0x61c2>
    19b7: ae 19 de     	ldx	$de19                   ; 0xde19 <end_block9+0x61c3>
    19ba: 86 28        	stx	$28                     ; 0x28 <__rc24>
    19bc: ac 1a de     	ldy	$de1a                   ; 0xde1a <end_block9+0x61c4>
    19bf: ae 1b de     	ldx	$de1b                   ; 0xde1b <end_block9+0x61c5>
    19c2: 18           	clc
    19c3: a2 00        	ldx	#$0
    19c5: 86 29        	stx	$29                     ; 0x29 <__rc25>
    19c7: 65 1a        	adc	$1a                     ; 0x1a <__rc10>
    19c9: 85 2a        	sta	$2a                     ; 0x2a <__rc26>
    19cb: a5 28        	lda	$28                     ; 0x28 <__rc24>
    19cd: 65 1b        	adc	$1b                     ; 0x1b <__rc11>
    19cf: aa           	tax
    19d0: 98           	tya
    19d1: 65 1c        	adc	$1c                     ; 0x1c <__rc12>
    19d3: 86 1b        	stx	$1b                     ; 0x1b <__rc11>
    19d5: 86 1a        	stx	$1a                     ; 0x1a <__rc10>
    19d7: 06 1a        	asl	$1a                     ; 0x1a <__rc10>
    19d9: 2a           	rol
    19da: 06 1a        	asl	$1a                     ; 0x1a <__rc10>
    19dc: 2a           	rol
    19dd: 06 1a        	asl	$1a                     ; 0x1a <__rc10>
    19df: 2a           	rol
    19e0: 85 0f        	sta	$f                      ; 0xf <__zp_bss_size+0x5>
    19e2: a5 66        	lda	$66                     ; 0x66 <_color>
    19e4: 4a           	lsr
    19e5: a9 00        	lda	#$0
    19e7: 6a           	ror
    19e8: 10 04        	bpl	$19ee <bitmapLine+0x2f8>
    19ea: a2 ff        	ldx	#$ff
    19ec: 80 02        	bra	$19f0 <bitmapLine+0x2fa>
    19ee: a2 00        	ldx	#$0
    19f0: 0a           	asl
    19f1: 8a           	txa
    19f2: 2a           	rol
    19f3: aa           	tax
    19f4: a5 1b        	lda	$1b                     ; 0x1b <__rc11>
    19f6: 09 e0        	ora	#$e0
    19f8: a4 2a        	ldy	$2a                     ; 0x2a <__rc26>
    19fa: 84 1a        	sty	$1a                     ; 0x1a <__rc10>
    19fc: 85 1b        	sta	$1b                     ; 0x1b <__rc11>
    19fe: 8a           	txa
    19ff: 92 1a        	sta	($1a)                   ; 0x1a <__rc10>
    1a01: a4 27        	ldy	$27                     ; 0x27 <__rc23>
    1a03: 30 1e        	bmi	$1a23 <bitmapLine+0x32d>
    1a05: a5 1d        	lda	$1d                     ; 0x1d <__rc13>
    1a07: 18           	clc
    1a08: a2 00        	ldx	#$0
    1a0a: 65 12        	adc	$12                     ; 0x12 <__rc2>
    1a0c: 85 28        	sta	$28                     ; 0x28 <__rc24>
    1a0e: a5 1f        	lda	$1f                     ; 0x1f <__rc15>
    1a10: 65 22        	adc	$22                     ; 0x22 <__rc18>
    1a12: 85 1f        	sta	$1f                     ; 0x1f <__rc15>
    1a14: 38           	sec
    1a15: a5 26        	lda	$26                     ; 0x26 <__rc22>
    1a17: e5 18        	sbc	$18                     ; 0x18 <__rc8>
    1a19: 85 1a        	sta	$1a                     ; 0x1a <__rc10>
    1a1b: 98           	tya
    1a1c: e5 19        	sbc	$19                     ; 0x19 <__rc9>
    1a1e: a8           	tay
    1a1f: a5 1a        	lda	$1a                     ; 0x1a <__rc10>
    1a21: 80 08        	bra	$1a2b <bitmapLine+0x335>
    1a23: a6 1d        	ldx	$1d                     ; 0x1d <__rc13>
    1a25: 86 28        	stx	$28                     ; 0x28 <__rc24>
    1a27: a5 26        	lda	$26                     ; 0x26 <__rc22>
    1a29: a6 29        	ldx	$29                     ; 0x29 <__rc25>
    1a2b: e0 01        	cpx	#$1
    1a2d: 65 24        	adc	$24                     ; 0x24 <__rc20>
    1a2f: 85 26        	sta	$26                     ; 0x26 <__rc22>
    1a31: 98           	tya
    1a32: 65 25        	adc	$25                     ; 0x25 <__rc21>
    1a34: 85 27        	sta	$27                     ; 0x27 <__rc23>
    1a36: a5 23        	lda	$23                     ; 0x23 <__rc19>
    1a38: e0 01        	cpx	#$1
    1a3a: 65 14        	adc	$14                     ; 0x14 <__rc4>
    1a3c: 85 1a        	sta	$1a                     ; 0x1a <__rc10>
    1a3e: a5 13        	lda	$13                     ; 0x13 <__rc3>
    1a40: 65 15        	adc	$15                     ; 0x15 <__rc5>
    1a42: 85 1b        	sta	$1b                     ; 0x1b <__rc11>
    1a44: a6 1a        	ldx	$1a                     ; 0x1a <__rc10>
    1a46: 86 23        	stx	$23                     ; 0x23 <__rc19>
    1a48: a8           	tay
    1a49: a6 17        	ldx	$17                     ; 0x17 <__rc7>
    1a4b: e4 1b        	cpx	$1b                     ; 0x1b <__rc11>
    1a4d: f0 03        	beq	$1a52 <bitmapLine+0x35c>
    1a4f: 4c 53 19     	jmp	$1953 <bitmapLine+0x25d>
    1a52: a6 1a        	ldx	$1a                     ; 0x1a <__rc10>
    1a54: 86 23        	stx	$23                     ; 0x23 <__rc19>
    1a56: a8           	tay
    1a57: a6 16        	ldx	$16                     ; 0x16 <__rc6>
    1a59: e4 1a        	cpx	$1a                     ; 0x1a <__rc10>
    1a5b: f0 03        	beq	$1a60 <bitmapLine+0x36a>
    1a5d: 4c 53 19     	jmp	$1953 <bitmapLine+0x25d>
    1a60: a6 28        	ldx	$28                     ; 0x28 <__rc24>
    1a62: 86 15        	stx	$15                     ; 0x15 <__rc5>
    1a64: a6 62        	ldx	$62                     ; 0x62 <_BITMAP_BASE.0>
    1a66: 86 12        	stx	$12                     ; 0x12 <__rc2>
    1a68: a6 63        	ldx	$63                     ; 0x63 <_BITMAP_BASE.0+0x1>
    1a6a: 86 13        	stx	$13                     ; 0x13 <__rc3>
    1a6c: a6 64        	ldx	$64                     ; 0x64 <_BITMAP_BASE.0+0x2>
    1a6e: 86 14        	stx	$14                     ; 0x14 <__rc4>
    1a70: a5 67        	lda	$67                     ; 0x67 <_MAX_X>
    1a72: 29 01        	and	#$1
    1a74: f0 06        	beq	$1a7c <bitmapLine+0x386>
    1a76: a9 40        	lda	#$40
    1a78: a0 01        	ldy	#$1
    1a7a: 80 03        	bra	$1a7f <bitmapLine+0x389>
    1a7c: a9 00        	lda	#$0
    1a7e: a8           	tay
    1a7f: a6 16        	ldx	$16                     ; 0x16 <__rc6>
    1a81: 8e 00 de     	stx	$de00                   ; 0xde00 <end_block9+0x61aa>
    1a84: a6 17        	ldx	$17                     ; 0x17 <__rc7>
    1a86: 8e 01 de     	stx	$de01                   ; 0xde01 <end_block9+0x61ab>
    1a89: 8d 02 de     	sta	$de02                   ; 0xde02 <end_block9+0x61ac>
    1a8c: 8c 03 de     	sty	$de03                   ; 0xde03 <end_block9+0x61ad>
    1a8f: ae 10 de     	ldx	$de10                   ; 0xde10 <end_block9+0x61ba>
    1a92: ac 11 de     	ldy	$de11                   ; 0xde11 <end_block9+0x61bb>
    1a95: 84 17        	sty	$17                     ; 0x17 <__rc7>
    1a97: ad 12 de     	lda	$de12                   ; 0xde12 <end_block9+0x61bc>
    1a9a: ac 13 de     	ldy	$de13                   ; 0xde13 <end_block9+0x61bd>
    1a9d: 8e 08 de     	stx	$de08                   ; 0xde08 <end_block9+0x61b2>
    1aa0: a6 17        	ldx	$17                     ; 0x17 <__rc7>
    1aa2: 8e 09 de     	stx	$de09                   ; 0xde09 <end_block9+0x61b3>
    1aa5: 8d 0a de     	sta	$de0a                   ; 0xde0a <end_block9+0x61b4>
    1aa8: 8c 0b de     	sty	$de0b                   ; 0xde0b <end_block9+0x61b5>
    1aab: a6 15        	ldx	$15                     ; 0x15 <__rc5>
    1aad: 8e 0c de     	stx	$de0c                   ; 0xde0c <end_block9+0x61b6>
    1ab0: a6 1f        	ldx	$1f                     ; 0x1f <__rc15>
    1ab2: 8e 0d de     	stx	$de0d                   ; 0xde0d <end_block9+0x61b7>
    1ab5: 9c 0e de     	stz	$de0e                   ; 0xde0e <end_block9+0x61b8>
    1ab8: 9c 0f de     	stz	$de0f                   ; 0xde0f <end_block9+0x61b9>
    1abb: ad 18 de     	lda	$de18                   ; 0xde18 <end_block9+0x61c2>
    1abe: ae 19 de     	ldx	$de19                   ; 0xde19 <end_block9+0x61c3>
    1ac1: 86 15        	stx	$15                     ; 0x15 <__rc5>
    1ac3: ae 1a de     	ldx	$de1a                   ; 0xde1a <end_block9+0x61c4>
    1ac6: 86 16        	stx	$16                     ; 0x16 <__rc6>
    1ac8: ae 1b de     	ldx	$de1b                   ; 0xde1b <end_block9+0x61c5>
    1acb: 18           	clc
    1acc: 65 12        	adc	$12                     ; 0x12 <__rc2>
    1ace: aa           	tax
    1acf: a5 15        	lda	$15                     ; 0x15 <__rc5>
    1ad1: 65 13        	adc	$13                     ; 0x13 <__rc3>
    1ad3: a8           	tay
    1ad4: a5 16        	lda	$16                     ; 0x16 <__rc6>
    1ad6: 65 14        	adc	$14                     ; 0x14 <__rc4>
    1ad8: 84 13        	sty	$13                     ; 0x13 <__rc3>
    1ada: 84 12        	sty	$12                     ; 0x12 <__rc2>
    1adc: 06 12        	asl	$12                     ; 0x12 <__rc2>
    1ade: 2a           	rol
    1adf: 06 12        	asl	$12                     ; 0x12 <__rc2>
    1ae1: 2a           	rol
    1ae2: 06 12        	asl	$12                     ; 0x12 <__rc2>
    1ae4: 2a           	rol
    1ae5: 85 0f        	sta	$f                      ; 0xf <__zp_bss_size+0x5>
    1ae7: a5 66        	lda	$66                     ; 0x66 <_color>
    1ae9: 4a           	lsr
    1aea: a9 00        	lda	#$0
    1aec: 6a           	ror
    1aed: 10 04        	bpl	$1af3 <bitmapLine+0x3fd>
    1aef: a0 ff        	ldy	#$ff
    1af1: 80 02        	bra	$1af5 <bitmapLine+0x3ff>
    1af3: a0 00        	ldy	#$0
    1af5: 0a           	asl
    1af6: 98           	tya
    1af7: 2a           	rol
    1af8: a8           	tay
    1af9: a5 13        	lda	$13                     ; 0x13 <__rc3>
    1afb: 09 e0        	ora	#$e0
    1afd: 86 12        	stx	$12                     ; 0x12 <__rc2>
    1aff: 85 13        	sta	$13                     ; 0x13 <__rc3>
    1b01: 98           	tya
    1b02: 92 12        	sta	($12)                   ; 0x12 <__rc2>
    1b04: a6 1e        	ldx	$1e                     ; 0x1e <__rc14>
    1b06: 86 0f        	stx	$f                      ; 0xf <__zp_bss_size+0x5>
    1b08: 58           	cli
    1b09: a0 00        	ldy	#$0
    1b0b: b1 10        	lda	($10),y                 ; 0x10 <__rc0>
    1b0d: 85 2a        	sta	$2a                     ; 0x2a <__rc26>
    1b0f: c8           	iny
    1b10: b1 10        	lda	($10),y                 ; 0x10 <__rc0>
    1b12: 85 29        	sta	$29                     ; 0x29 <__rc25>
    1b14: c8           	iny
    1b15: b1 10        	lda	($10),y                 ; 0x10 <__rc0>
    1b17: 85 28        	sta	$28                     ; 0x28 <__rc24>
    1b19: fa           	plx
    1b1a: 86 27        	stx	$27                     ; 0x27 <__rc23>
    1b1c: fa           	plx
    1b1d: 86 26        	stx	$26                     ; 0x26 <__rc22>
    1b1f: fa           	plx
    1b20: 86 25        	stx	$25                     ; 0x25 <__rc21>
    1b22: fa           	plx
    1b23: 86 24        	stx	$24                     ; 0x24 <__rc20>
    1b25: 18           	clc
    1b26: a5 10        	lda	$10                     ; 0x10 <__rc0>
    1b28: 69 03        	adc	#$3
    1b2a: 85 10        	sta	$10                     ; 0x10 <__rc0>
    1b2c: a5 11        	lda	$11                     ; 0x11 <__rc1>
    1b2e: 69 00        	adc	#$0
    1b30: 85 11        	sta	$11                     ; 0x11 <__rc1>
    1b32: 60           	rts

00001b33 <exit>:
    1b33: 20 47 03     	jsr	$347 <_fini>
    1b36: 80 fe        	bra	$1b36 <exit+0x3>

00001b38 <_ZN12_GLOBAL__N_13putEcP6Status>:
    1b38: 85 18        	sta	$18                     ; 0x18 <__rc8>
    1b3a: a6 13        	ldx	$13                     ; 0x13 <__rc3>
    1b3c: 18           	clc
    1b3d: a5 12        	lda	$12                     ; 0x12 <__rc2>
    1b3f: 69 05        	adc	#$5
    1b41: a8           	tay
    1b42: a5 13        	lda	$13                     ; 0x13 <__rc3>
    1b44: 86 15        	stx	$15                     ; 0x15 <__rc5>
    1b46: 69 00        	adc	#$0
    1b48: 18           	clc
    1b49: 84 16        	sty	$16                     ; 0x16 <__rc6>
    1b4b: a0 05        	ldy	#$5
    1b4d: 85 17        	sta	$17                     ; 0x17 <__rc7>
    1b4f: b1 12        	lda	($12),y                 ; 0x12 <__rc2>
    1b51: aa           	tax
    1b52: a5 12        	lda	$12                     ; 0x12 <__rc2>
    1b54: 69 03        	adc	#$3
    1b56: 85 14        	sta	$14                     ; 0x14 <__rc4>
    1b58: a5 15        	lda	$15                     ; 0x15 <__rc5>
    1b5a: 69 00        	adc	#$0
    1b5c: 85 15        	sta	$15                     ; 0x15 <__rc5>
    1b5e: a0 01        	ldy	#$1
    1b60: b1 16        	lda	($16),y                 ; 0x16 <__rc6>
    1b62: d1 14        	cmp	($14),y                 ; 0x14 <__rc4>
    1b64: d0 11        	bne	$1b77 <_ZN12_GLOBAL__N_13putEcP6Status+0x3f>
    1b66: a0 03        	ldy	#$3
    1b68: 85 17        	sta	$17                     ; 0x17 <__rc7>
    1b6a: b1 12        	lda	($12),y                 ; 0x12 <__rc2>
    1b6c: 85 14        	sta	$14                     ; 0x14 <__rc4>
    1b6e: 86 16        	stx	$16                     ; 0x16 <__rc6>
    1b70: e4 14        	cpx	$14                     ; 0x14 <__rc4>
    1b72: 90 0e        	bcc	$1b82 <_ZN12_GLOBAL__N_13putEcP6Status+0x4a>
    1b74: 4c e3 1b     	jmp	$1be3 <_ZN12_GLOBAL__N_13putEcP6Status+0xab>
    1b77: 86 16        	stx	$16                     ; 0x16 <__rc6>
    1b79: d1 14        	cmp	($14),y                 ; 0x14 <__rc4>
    1b7b: 85 17        	sta	$17                     ; 0x17 <__rc7>
    1b7d: 90 03        	bcc	$1b82 <_ZN12_GLOBAL__N_13putEcP6Status+0x4a>
    1b7f: 4c e3 1b     	jmp	$1be3 <_ZN12_GLOBAL__N_13putEcP6Status+0xab>
    1b82: a5 12        	lda	$12                     ; 0x12 <__rc2>
    1b84: 18           	clc
    1b85: 69 0f        	adc	#$f
    1b87: 85 14        	sta	$14                     ; 0x14 <__rc4>
    1b89: a5 13        	lda	$13                     ; 0x13 <__rc3>
    1b8b: 69 00        	adc	#$0
    1b8d: 85 15        	sta	$15                     ; 0x15 <__rc5>
    1b8f: a0 01        	ldy	#$1
    1b91: b1 14        	lda	($14),y                 ; 0x14 <__rc4>
    1b93: a2 00        	ldx	#$0
    1b95: 86 14        	stx	$14                     ; 0x14 <__rc4>
    1b97: a2 00        	ldx	#$0
    1b99: 86 15        	stx	$15                     ; 0x15 <__rc5>
    1b9b: c5 15        	cmp	$15                     ; 0x15 <__rc5>
    1b9d: d0 2d        	bne	$1bcc <_ZN12_GLOBAL__N_13putEcP6Status+0x94>
    1b9f: a0 0f        	ldy	#$f
    1ba1: b1 12        	lda	($12),y                 ; 0x12 <__rc2>
    1ba3: c5 14        	cmp	$14                     ; 0x14 <__rc4>
    1ba5: d0 25        	bne	$1bcc <_ZN12_GLOBAL__N_13putEcP6Status+0x94>
    1ba7: a5 12        	lda	$12                     ; 0x12 <__rc2>
    1ba9: 18           	clc
    1baa: 69 09        	adc	#$9
    1bac: 85 14        	sta	$14                     ; 0x14 <__rc4>
    1bae: a5 13        	lda	$13                     ; 0x13 <__rc3>
    1bb0: 69 00        	adc	#$0
    1bb2: a0 09        	ldy	#$9
    1bb4: 85 15        	sta	$15                     ; 0x15 <__rc5>
    1bb6: 18           	clc
    1bb7: a5 16        	lda	$16                     ; 0x16 <__rc6>
    1bb9: 71 12        	adc	($12),y                 ; 0x12 <__rc2>
    1bbb: aa           	tax
    1bbc: a0 01        	ldy	#$1
    1bbe: a5 17        	lda	$17                     ; 0x17 <__rc7>
    1bc0: 71 14        	adc	($14),y                 ; 0x14 <__rc4>
    1bc2: 86 14        	stx	$14                     ; 0x14 <__rc4>
    1bc4: 85 15        	sta	$15                     ; 0x15 <__rc5>
    1bc6: a5 18        	lda	$18                     ; 0x18 <__rc8>
    1bc8: 92 14        	sta	($14)                   ; 0x14 <__rc4>
    1bca: 80 17        	bra	$1be3 <_ZN12_GLOBAL__N_13putEcP6Status+0xab>
    1bcc: a6 12        	ldx	$12                     ; 0x12 <__rc2>
    1bce: 86 c1        	stx	$c1                     ; 0xc1 <__zp_data_size+0x91>
    1bd0: a6 13        	ldx	$13                     ; 0x13 <__rc3>
    1bd2: 86 c2        	stx	$c2                     ; 0xc2 <__zp_data_size+0x92>
    1bd4: a2 00        	ldx	#$0
    1bd6: a5 18        	lda	$18                     ; 0x18 <__rc8>
    1bd8: 20 4f 2a     	jsr	$2a4f <putchar>
    1bdb: a6 c1        	ldx	$c1                     ; 0xc1 <__zp_data_size+0x91>
    1bdd: 86 12        	stx	$12                     ; 0x12 <__rc2>
    1bdf: a6 c2        	ldx	$c2                     ; 0xc2 <__zp_data_size+0x92>
    1be1: 86 13        	stx	$13                     ; 0x13 <__rc3>
    1be3: a0 05        	ldy	#$5
    1be5: a5 12        	lda	$12                     ; 0x12 <__rc2>
    1be7: 18           	clc
    1be8: 69 05        	adc	#$5
    1bea: 85 14        	sta	$14                     ; 0x14 <__rc4>
    1bec: a5 13        	lda	$13                     ; 0x13 <__rc3>
    1bee: 69 00        	adc	#$0
    1bf0: 85 15        	sta	$15                     ; 0x15 <__rc5>
    1bf2: b1 12        	lda	($12),y                 ; 0x12 <__rc2>
    1bf4: aa           	tax
    1bf5: 84 16        	sty	$16                     ; 0x16 <__rc6>
    1bf7: a0 01        	ldy	#$1
    1bf9: b1 14        	lda	($14),y                 ; 0x14 <__rc4>
    1bfb: 84 17        	sty	$17                     ; 0x17 <__rc7>
    1bfd: e8           	inx
    1bfe: d0 01        	bne	$1c01 <_ZN12_GLOBAL__N_13putEcP6Status+0xc9>
    1c00: 1a           	inc
    1c01: 85 18        	sta	$18                     ; 0x18 <__rc8>
    1c03: 8a           	txa
    1c04: a4 16        	ldy	$16                     ; 0x16 <__rc6>
    1c06: 91 12        	sta	($12),y                 ; 0x12 <__rc2>
    1c08: a4 17        	ldy	$17                     ; 0x17 <__rc7>
    1c0a: a5 18        	lda	$18                     ; 0x18 <__rc8>
    1c0c: 91 14        	sta	($14),y                 ; 0x14 <__rc4>
    1c0e: 60           	rts

00001c0f <_ZN12_GLOBAL__N_112print_stringEPKcP6Status>:
    1c0f: a6 12        	ldx	$12                     ; 0x12 <__rc2>
    1c11: 86 b8        	stx	$b8                     ; 0xb8 <__zp_data_size+0x88>
    1c13: a6 13        	ldx	$13                     ; 0x13 <__rc3>
    1c15: 86 b9        	stx	$b9                     ; 0xb9 <__zp_data_size+0x89>
    1c17: a6 14        	ldx	$14                     ; 0x14 <__rc4>
    1c19: 86 ba        	stx	$ba                     ; 0xba <__zp_data_size+0x8a>
    1c1b: a6 15        	ldx	$15                     ; 0x15 <__rc5>
    1c1d: 86 bb        	stx	$bb                     ; 0xbb <__zp_data_size+0x8b>
    1c1f: a5 ba        	lda	$ba                     ; 0xba <__zp_data_size+0x8a>
    1c21: 18           	clc
    1c22: 69 0d        	adc	#$d
    1c24: 85 12        	sta	$12                     ; 0x12 <__rc2>
    1c26: a5 bb        	lda	$bb                     ; 0xbb <__zp_data_size+0x8b>
    1c28: 69 00        	adc	#$0
    1c2a: 85 13        	sta	$13                     ; 0x13 <__rc3>
    1c2c: a0 01        	ldy	#$1
    1c2e: b1 12        	lda	($12),y                 ; 0x12 <__rc2>
    1c30: 30 14        	bmi	$1c46 <_ZN12_GLOBAL__N_112print_stringEPKcP6Status+0x37>
    1c32: a0 0d        	ldy	#$d
    1c34: aa           	tax
    1c35: b1 ba        	lda	($ba),y                 ; 0xba <__zp_data_size+0x8a>
    1c37: 86 bd        	stx	$bd                     ; 0xbd <__zp_data_size+0x8d>
    1c39: e0 00        	cpx	#$0
    1c3b: d0 0e        	bne	$1c4b <_ZN12_GLOBAL__N_112print_stringEPKcP6Status+0x3c>
    1c3d: aa           	tax
    1c3e: d0 0b        	bne	$1c4b <_ZN12_GLOBAL__N_112print_stringEPKcP6Status+0x3c>
    1c40: 64 bc        	stz	$bc                     ; 0xbc <__zp_data_size+0x8c>
    1c42: 64 bd        	stz	$bd                     ; 0xbd <__zp_data_size+0x8d>
    1c44: 80 36        	bra	$1c7c <_ZN12_GLOBAL__N_112print_stringEPKcP6Status+0x6d>
    1c46: a9 ff        	lda	#$ff
    1c48: aa           	tax
    1c49: 86 bd        	stx	$bd                     ; 0xbd <__zp_data_size+0x8d>
    1c4b: 85 bc        	sta	$bc                     ; 0xbc <__zp_data_size+0x8c>
    1c4d: 64 12        	stz	$12                     ; 0x12 <__rc2>
    1c4f: a4 b8        	ldy	$b8                     ; 0xb8 <__zp_data_size+0x88>
    1c51: a6 b9        	ldx	$b9                     ; 0xb9 <__zp_data_size+0x89>
    1c53: 86 16        	stx	$16                     ; 0x16 <__rc6>
    1c55: 64 13        	stz	$13                     ; 0x13 <__rc3>
    1c57: 98           	tya
    1c58: 18           	clc
    1c59: 65 12        	adc	$12                     ; 0x12 <__rc2>
    1c5b: 85 14        	sta	$14                     ; 0x14 <__rc4>
    1c5d: a5 b9        	lda	$b9                     ; 0xb9 <__zp_data_size+0x89>
    1c5f: 65 13        	adc	$13                     ; 0x13 <__rc3>
    1c61: 85 15        	sta	$15                     ; 0x15 <__rc5>
    1c63: b2 14        	lda	($14)                   ; 0x14 <__rc4>
    1c65: d0 03        	bne	$1c6a <_ZN12_GLOBAL__N_112print_stringEPKcP6Status+0x5b>
    1c67: 4c 13 1d     	jmp	$1d13 <_ZN12_GLOBAL__N_112print_stringEPKcP6Status+0x104>
    1c6a: e6 12        	inc	$12                     ; 0x12 <__rc2>
    1c6c: d0 02        	bne	$1c70 <_ZN12_GLOBAL__N_112print_stringEPKcP6Status+0x61>
    1c6e: e6 13        	inc	$13                     ; 0x13 <__rc3>
    1c70: a6 bd        	ldx	$bd                     ; 0xbd <__zp_data_size+0x8d>
    1c72: e4 13        	cpx	$13                     ; 0x13 <__rc3>
    1c74: d0 e1        	bne	$1c57 <_ZN12_GLOBAL__N_112print_stringEPKcP6Status+0x48>
    1c76: a6 bc        	ldx	$bc                     ; 0xbc <__zp_data_size+0x8c>
    1c78: e4 12        	cpx	$12                     ; 0x12 <__rc2>
    1c7a: d0 db        	bne	$1c57 <_ZN12_GLOBAL__N_112print_stringEPKcP6Status+0x48>
    1c7c: a0 01        	ldy	#$1
    1c7e: b1 ba        	lda	($ba),y                 ; 0xba <__zp_data_size+0x8a>
    1c80: 29 01        	and	#$1
    1c82: f0 03        	beq	$1c87 <_ZN12_GLOBAL__N_112print_stringEPKcP6Status+0x78>
    1c84: 4c e5 1c     	jmp	$1ce5 <_ZN12_GLOBAL__N_112print_stringEPKcP6Status+0xd6>
    1c87: a5 ba        	lda	$ba                     ; 0xba <__zp_data_size+0x8a>
    1c89: 18           	clc
    1c8a: 69 0b        	adc	#$b
    1c8c: 85 14        	sta	$14                     ; 0x14 <__rc4>
    1c8e: a5 bb        	lda	$bb                     ; 0xbb <__zp_data_size+0x8b>
    1c90: 69 00        	adc	#$0
    1c92: 85 15        	sta	$15                     ; 0x15 <__rc5>
    1c94: 84 12        	sty	$12                     ; 0x12 <__rc2>
    1c96: a0 0b        	ldy	#$b
    1c98: b1 ba        	lda	($ba),y                 ; 0xba <__zp_data_size+0x8a>
    1c9a: 85 13        	sta	$13                     ; 0x13 <__rc3>
    1c9c: a4 12        	ldy	$12                     ; 0x12 <__rc2>
    1c9e: b1 14        	lda	($14),y                 ; 0x14 <__rc4>
    1ca0: 85 12        	sta	$12                     ; 0x12 <__rc2>
    1ca2: a6 bd        	ldx	$bd                     ; 0xbd <__zp_data_size+0x8d>
    1ca4: e4 12        	cpx	$12                     ; 0x12 <__rc2>
    1ca6: d0 08        	bne	$1cb0 <_ZN12_GLOBAL__N_112print_stringEPKcP6Status+0xa1>
    1ca8: a6 bc        	ldx	$bc                     ; 0xbc <__zp_data_size+0x8c>
    1caa: e4 13        	cpx	$13                     ; 0x13 <__rc3>
    1cac: 90 06        	bcc	$1cb4 <_ZN12_GLOBAL__N_112print_stringEPKcP6Status+0xa5>
    1cae: 80 35        	bra	$1ce5 <_ZN12_GLOBAL__N_112print_stringEPKcP6Status+0xd6>
    1cb0: e4 12        	cpx	$12                     ; 0x12 <__rc2>
    1cb2: b0 31        	bcs	$1ce5 <_ZN12_GLOBAL__N_112print_stringEPKcP6Status+0xd6>
    1cb4: 38           	sec
    1cb5: a5 bc        	lda	$bc                     ; 0xbc <__zp_data_size+0x8c>
    1cb7: e5 13        	sbc	$13                     ; 0x13 <__rc3>
    1cb9: a8           	tay
    1cba: a5 bd        	lda	$bd                     ; 0xbd <__zp_data_size+0x8d>
    1cbc: e5 12        	sbc	$12                     ; 0x12 <__rc2>
    1cbe: 85 bf        	sta	$bf                     ; 0xbf <__zp_data_size+0x8f>
    1cc0: a2 20        	ldx	#$20
    1cc2: 86 c0        	stx	$c0                     ; 0xc0 <__zp_data_size+0x90>
    1cc4: a6 ba        	ldx	$ba                     ; 0xba <__zp_data_size+0x8a>
    1cc6: 86 12        	stx	$12                     ; 0x12 <__rc2>
    1cc8: a6 bb        	ldx	$bb                     ; 0xbb <__zp_data_size+0x8b>
    1cca: 86 13        	stx	$13                     ; 0x13 <__rc3>
    1ccc: 84 be        	sty	$be                     ; 0xbe <__zp_data_size+0x8e>
    1cce: a5 c0        	lda	$c0                     ; 0xc0 <__zp_data_size+0x90>
    1cd0: 20 38 1b     	jsr	$1b38 <_ZN12_GLOBAL__N_13putEcP6Status>
    1cd3: a6 bf        	ldx	$bf                     ; 0xbf <__zp_data_size+0x8f>
    1cd5: e6 be        	inc	$be                     ; 0xbe <__zp_data_size+0x8e>
    1cd7: d0 01        	bne	$1cda <_ZN12_GLOBAL__N_112print_stringEPKcP6Status+0xcb>
    1cd9: e8           	inx
    1cda: 86 bf        	stx	$bf                     ; 0xbf <__zp_data_size+0x8f>
    1cdc: a4 be        	ldy	$be                     ; 0xbe <__zp_data_size+0x8e>
    1cde: 8a           	txa
    1cdf: d0 e3        	bne	$1cc4 <_ZN12_GLOBAL__N_112print_stringEPKcP6Status+0xb5>
    1ce1: a5 be        	lda	$be                     ; 0xbe <__zp_data_size+0x8e>
    1ce3: d0 df        	bne	$1cc4 <_ZN12_GLOBAL__N_112print_stringEPKcP6Status+0xb5>
    1ce5: a5 bd        	lda	$bd                     ; 0xbd <__zp_data_size+0x8d>
    1ce7: d0 04        	bne	$1ced <_ZN12_GLOBAL__N_112print_stringEPKcP6Status+0xde>
    1ce9: a5 bc        	lda	$bc                     ; 0xbc <__zp_data_size+0x8c>
    1ceb: f0 25        	beq	$1d12 <_ZN12_GLOBAL__N_112print_stringEPKcP6Status+0x103>
    1ced: a2 ff        	ldx	#$ff
    1cef: c6 bc        	dec	$bc                     ; 0xbc <__zp_data_size+0x8c>
    1cf1: e4 bc        	cpx	$bc                     ; 0xbc <__zp_data_size+0x8c>
    1cf3: d0 02        	bne	$1cf7 <_ZN12_GLOBAL__N_112print_stringEPKcP6Status+0xe8>
    1cf5: c6 bd        	dec	$bd                     ; 0xbd <__zp_data_size+0x8d>
    1cf7: b2 b8        	lda	($b8)                   ; 0xb8 <__zp_data_size+0x88>
    1cf9: e6 b8        	inc	$b8                     ; 0xb8 <__zp_data_size+0x88>
    1cfb: d0 02        	bne	$1cff <_ZN12_GLOBAL__N_112print_stringEPKcP6Status+0xf0>
    1cfd: e6 b9        	inc	$b9                     ; 0xb9 <__zp_data_size+0x89>
    1cff: a6 ba        	ldx	$ba                     ; 0xba <__zp_data_size+0x8a>
    1d01: 86 12        	stx	$12                     ; 0x12 <__rc2>
    1d03: a6 bb        	ldx	$bb                     ; 0xbb <__zp_data_size+0x8b>
    1d05: 86 13        	stx	$13                     ; 0x13 <__rc3>
    1d07: 20 38 1b     	jsr	$1b38 <_ZN12_GLOBAL__N_13putEcP6Status>
    1d0a: a5 bd        	lda	$bd                     ; 0xbd <__zp_data_size+0x8d>
    1d0c: d0 df        	bne	$1ced <_ZN12_GLOBAL__N_112print_stringEPKcP6Status+0xde>
    1d0e: a5 bc        	lda	$bc                     ; 0xbc <__zp_data_size+0x8c>
    1d10: d0 db        	bne	$1ced <_ZN12_GLOBAL__N_112print_stringEPKcP6Status+0xde>
    1d12: 60           	rts
    1d13: a6 12        	ldx	$12                     ; 0x12 <__rc2>
    1d15: 86 bc        	stx	$bc                     ; 0xbc <__zp_data_size+0x8c>
    1d17: a6 13        	ldx	$13                     ; 0x13 <__rc3>
    1d19: 86 bd        	stx	$bd                     ; 0xbd <__zp_data_size+0x8d>
    1d1b: 4c 7c 1c     	jmp	$1c7c <_ZN12_GLOBAL__N_112print_stringEPKcP6Status+0x6d>

00001d1e <printf>:
    1d1e: 18           	clc
    1d1f: a6 10        	ldx	$10                     ; 0x10 <__rc0>
    1d21: a4 11        	ldy	$11                     ; 0x11 <__rc1>
    1d23: 86 ad        	stx	$ad                     ; 0xad <__zp_data_size+0x7d>
    1d25: 84 ae        	sty	$ae                     ; 0xae <__zp_data_size+0x7e>
    1d27: a6 ad        	ldx	$ad                     ; 0xad <__zp_data_size+0x7d>
    1d29: a4 ae        	ldy	$ae                     ; 0xae <__zp_data_size+0x7e>
    1d2b: 86 98        	stx	$98                     ; 0x98 <__zp_data_size+0x68>
    1d2d: 84 99        	sty	$99                     ; 0x99 <__zp_data_size+0x69>
    1d2f: a2 ff        	ldx	#$ff
    1d31: 86 9d        	stx	$9d                     ; 0x9d <__zp_data_size+0x6d>
    1d33: 86 9e        	stx	$9e                     ; 0x9e <__zp_data_size+0x6e>
    1d35: 64 9f        	stz	$9f                     ; 0x9f <__zp_data_size+0x6f>
    1d37: 64 a0        	stz	$a0                     ; 0xa0 <__zp_data_size+0x70>
    1d39: e8           	inx
    1d3a: 86 12        	stx	$12                     ; 0x12 <__rc2>
    1d3c: a2 00        	ldx	#$0
    1d3e: 86 13        	stx	$13                     ; 0x13 <__rc3>
    1d40: a6 12        	ldx	$12                     ; 0x12 <__rc2>
    1d42: a4 13        	ldy	$13                     ; 0x13 <__rc3>
    1d44: 86 a3        	stx	$a3                     ; 0xa3 <__zp_data_size+0x73>
    1d46: 84 a4        	sty	$a4                     ; 0xa4 <__zp_data_size+0x74>
    1d48: a2 02        	ldx	#$2
    1d4a: 86 a9        	stx	$a9                     ; 0xa9 <__zp_data_size+0x79>
    1d4c: 64 aa        	stz	$aa                     ; 0xaa <__zp_data_size+0x7a>
    1d4e: a6 98        	ldx	$98                     ; 0x98 <__zp_data_size+0x68>
    1d50: a4 99        	ldy	$99                     ; 0x99 <__zp_data_size+0x69>
    1d52: 86 ab        	stx	$ab                     ; 0xab <__zp_data_size+0x7b>
    1d54: 84 ac        	sty	$ac                     ; 0xac <__zp_data_size+0x7c>
    1d56: a2 8f        	ldx	#$8f
    1d58: a0 00        	ldy	#$0
    1d5a: 86 12        	stx	$12                     ; 0x12 <__rc2>
    1d5c: 84 13        	sty	$13                     ; 0x13 <__rc3>
    1d5e: a0 01        	ldy	#$1
    1d60: a9 76        	lda	#$76
    1d62: 18           	clc
    1d63: 69 02        	adc	#$2
    1d65: 85 b6        	sta	$b6                     ; 0xb6 <__zp_data_size+0x86>
    1d67: a9 00        	lda	#$0
    1d69: 69 00        	adc	#$0
    1d6b: 85 b7        	sta	$b7                     ; 0xb7 <__zp_data_size+0x87>
    1d6d: e6 12        	inc	$12                     ; 0x12 <__rc2>
    1d6f: d0 02        	bne	$1d73 <printf+0x55>
    1d71: e6 13        	inc	$13                     ; 0x13 <__rc3>
    1d73: a6 12        	ldx	$12                     ; 0x12 <__rc2>
    1d75: 86 b2        	stx	$b2                     ; 0xb2 <__zp_data_size+0x82>
    1d77: a6 13        	ldx	$13                     ; 0x13 <__rc3>
    1d79: 86 b3        	stx	$b3                     ; 0xb3 <__zp_data_size+0x83>
    1d7b: a2 45        	ldx	#$45
    1d7d: 86 6e        	stx	$6e                     ; 0x6e <__zp_data_size+0x3e>
    1d7f: a2 7c        	ldx	#$7c
    1d81: 86 6f        	stx	$6f                     ; 0x6f <__zp_data_size+0x3f>
    1d83: a6 6e        	ldx	$6e                     ; 0x6e <__zp_data_size+0x3e>
    1d85: 86 6c        	stx	$6c                     ; 0x6c <__zp_data_size+0x3c>
    1d87: a6 6f        	ldx	$6f                     ; 0x6f <__zp_data_size+0x3f>
    1d89: 86 6d        	stx	$6d                     ; 0x6d <__zp_data_size+0x3d>
    1d8b: b2 6e        	lda	($6e)                   ; 0x6e <__zp_data_size+0x3e>
    1d8d: c9 25        	cmp	#$25
    1d8f: f0 26        	beq	$1db7 <printf+0x99>
    1d91: a2 00        	ldx	#$0
    1d93: c9 00        	cmp	#$0
    1d95: d0 03        	bne	$1d9a <printf+0x7c>
    1d97: 4c 4e 2a     	jmp	$2a4e <printf+0xd30>
    1d9a: 84 6e        	sty	$6e                     ; 0x6e <__zp_data_size+0x3e>
    1d9c: 20 4f 2a     	jsr	$2a4f <putchar>
    1d9f: a4 6e        	ldy	$6e                     ; 0x6e <__zp_data_size+0x3e>
    1da1: e6 6c        	inc	$6c                     ; 0x6c <__zp_data_size+0x3c>
    1da3: d0 02        	bne	$1da7 <printf+0x89>
    1da5: e6 6d        	inc	$6d                     ; 0x6d <__zp_data_size+0x3d>
    1da7: e6 9f        	inc	$9f                     ; 0x9f <__zp_data_size+0x6f>
    1da9: d0 02        	bne	$1dad <printf+0x8f>
    1dab: e6 a0        	inc	$a0                     ; 0xa0 <__zp_data_size+0x70>
    1dad: a6 6c        	ldx	$6c                     ; 0x6c <__zp_data_size+0x3c>
    1daf: 86 6e        	stx	$6e                     ; 0x6e <__zp_data_size+0x3e>
    1db1: a6 6d        	ldx	$6d                     ; 0x6d <__zp_data_size+0x3d>
    1db3: 86 6f        	stx	$6f                     ; 0x6f <__zp_data_size+0x3f>
    1db5: 80 cc        	bra	$1d83 <printf+0x65>
    1db7: a6 6e        	ldx	$6e                     ; 0x6e <__zp_data_size+0x3e>
    1db9: 86 12        	stx	$12                     ; 0x12 <__rc2>
    1dbb: a6 6f        	ldx	$6f                     ; 0x6f <__zp_data_size+0x3f>
    1dbd: 86 13        	stx	$13                     ; 0x13 <__rc3>
    1dbf: e6 12        	inc	$12                     ; 0x12 <__rc2>
    1dc1: d0 02        	bne	$1dc5 <printf+0xa7>
    1dc3: e6 13        	inc	$13                     ; 0x13 <__rc3>
    1dc5: b1 6c        	lda	($6c),y                 ; 0x6c <__zp_data_size+0x3c>
    1dc7: c9 25        	cmp	#$25
    1dc9: d0 18        	bne	$1de3 <printf+0xc5>
    1dcb: a2 01        	ldx	#$1
    1dcd: 86 13        	stx	$13                     ; 0x13 <__rc3>
    1dcf: a5 9f        	lda	$9f                     ; 0x9f <__zp_data_size+0x6f>
    1dd1: a4 a0        	ldy	$a0                     ; 0xa0 <__zp_data_size+0x70>
    1dd3: c4 9e        	cpy	$9e                     ; 0x9e <__zp_data_size+0x6e>
    1dd5: f0 03        	beq	$1dda <printf+0xbc>
    1dd7: 4c f3 1e     	jmp	$1ef3 <printf+0x1d5>
    1dda: a6 9d        	ldx	$9d                     ; 0x9d <__zp_data_size+0x6d>
    1ddc: 86 12        	stx	$12                     ; 0x12 <__rc2>
    1dde: c5 12        	cmp	$12                     ; 0x12 <__rc2>
    1de0: 4c f5 1e     	jmp	$1ef5 <printf+0x1d7>
    1de3: a2 01        	ldx	#$1
    1de5: 86 15        	stx	$15                     ; 0x15 <__rc5>
    1de7: 64 9b        	stz	$9b                     ; 0x9b <__zp_data_size+0x6b>
    1de9: 64 9c        	stz	$9c                     ; 0x9c <__zp_data_size+0x6c>
    1deb: 64 9a        	stz	$9a                     ; 0x9a <__zp_data_size+0x6a>
    1ded: 64 a5        	stz	$a5                     ; 0xa5 <__zp_data_size+0x75>
    1def: 64 a6        	stz	$a6                     ; 0xa6 <__zp_data_size+0x76>
    1df1: a2 ff        	ldx	#$ff
    1df3: 86 a7        	stx	$a7                     ; 0xa7 <__zp_data_size+0x77>
    1df5: 86 a8        	stx	$a8                     ; 0xa8 <__zp_data_size+0x78>
    1df7: 64 6a        	stz	$6a                     ; 0x6a <__zp_data_size+0x3a>
    1df9: 80 33        	bra	$1e2e <printf+0x110>
    1dfb: a2 02        	ldx	#$2
    1dfd: 80 15        	bra	$1e14 <printf+0xf6>
    1dff: e0 20        	cpx	#$20
    1e01: f0 15        	beq	$1e18 <printf+0xfa>
    1e03: 86 16        	stx	$16                     ; 0x16 <__rc6>
    1e05: e0 23        	cpx	#$23
    1e07: f0 03        	beq	$1e0c <printf+0xee>
    1e09: 4c 8b 1e     	jmp	$1e8b <printf+0x16d>
    1e0c: a5 6a        	lda	$6a                     ; 0x6a <__zp_data_size+0x3a>
    1e0e: a2 04        	ldx	#$4
    1e10: 80 02        	bra	$1e14 <printf+0xf6>
    1e12: a2 10        	ldx	#$10
    1e14: 86 14        	stx	$14                     ; 0x14 <__rc4>
    1e16: 80 06        	bra	$1e1e <printf+0x100>
    1e18: a2 08        	ldx	#$8
    1e1a: 86 14        	stx	$14                     ; 0x14 <__rc4>
    1e1c: a5 6a        	lda	$6a                     ; 0x6a <__zp_data_size+0x3a>
    1e1e: 05 14        	ora	$14                     ; 0x14 <__rc4>
    1e20: 85 6a        	sta	$6a                     ; 0x6a <__zp_data_size+0x3a>
    1e22: 85 9b        	sta	$9b                     ; 0x9b <__zp_data_size+0x6b>
    1e24: a2 00        	ldx	#$0
    1e26: 86 9c        	stx	$9c                     ; 0x9c <__zp_data_size+0x6c>
    1e28: e6 12        	inc	$12                     ; 0x12 <__rc2>
    1e2a: d0 02        	bne	$1e2e <printf+0x110>
    1e2c: e6 13        	inc	$13                     ; 0x13 <__rc3>
    1e2e: b2 12        	lda	($12)                   ; 0x12 <__rc2>
    1e30: aa           	tax
    1e31: 18           	clc
    1e32: 69 d6        	adc	#$d6
    1e34: c9 07        	cmp	#$7
    1e36: b0 c7        	bcs	$1dff <printf+0xe1>
    1e38: 86 16        	stx	$16                     ; 0x16 <__rc6>
    1e3a: 0a           	asl
    1e3b: aa           	tax
    1e3c: a0 01        	ldy	#$1
    1e3e: 84 14        	sty	$14                     ; 0x14 <__rc4>
    1e40: a5 6a        	lda	$6a                     ; 0x6a <__zp_data_size+0x3a>
    1e42: 7c 73 2c     	jmp	($2c73,x)               ; 0x2c73 <__BLOCK_SIZE+0xc73>
    1e45: a5 ab        	lda	$ab                     ; 0xab <__zp_data_size+0x7b>
    1e47: a6 ac        	ldx	$ac                     ; 0xac <__zp_data_size+0x7c>
    1e49: 85 16        	sta	$16                     ; 0x16 <__rc6>
    1e4b: 86 17        	stx	$17                     ; 0x17 <__rc7>
    1e4d: 18           	clc
    1e4e: 69 02        	adc	#$2
    1e50: a8           	tay
    1e51: 8a           	txa
    1e52: 69 00        	adc	#$0
    1e54: 84 ab        	sty	$ab                     ; 0xab <__zp_data_size+0x7b>
    1e56: 85 ac        	sta	$ac                     ; 0xac <__zp_data_size+0x7c>
    1e58: b2 16        	lda	($16)                   ; 0x16 <__rc6>
    1e5a: 85 15        	sta	$15                     ; 0x15 <__rc5>
    1e5c: a0 01        	ldy	#$1
    1e5e: b1 16        	lda	($16),y                 ; 0x16 <__rc6>
    1e60: 85 14        	sta	$14                     ; 0x14 <__rc4>
    1e62: 10 15        	bpl	$1e79 <printf+0x15b>
    1e64: a5 6a        	lda	$6a                     ; 0x6a <__zp_data_size+0x3a>
    1e66: 09 01        	ora	#$1
    1e68: 85 6a        	sta	$6a                     ; 0x6a <__zp_data_size+0x3a>
    1e6a: 85 9b        	sta	$9b                     ; 0x9b <__zp_data_size+0x6b>
    1e6c: a2 00        	ldx	#$0
    1e6e: 86 9c        	stx	$9c                     ; 0x9c <__zp_data_size+0x6c>
    1e70: 8a           	txa
    1e71: 38           	sec
    1e72: e5 15        	sbc	$15                     ; 0x15 <__rc5>
    1e74: 85 15        	sta	$15                     ; 0x15 <__rc5>
    1e76: 8a           	txa
    1e77: e5 14        	sbc	$14                     ; 0x14 <__rc4>
    1e79: a6 15        	ldx	$15                     ; 0x15 <__rc5>
    1e7b: 86 a5        	stx	$a5                     ; 0xa5 <__zp_data_size+0x75>
    1e7d: 85 a6        	sta	$a6                     ; 0xa6 <__zp_data_size+0x76>
    1e7f: e6 12        	inc	$12                     ; 0x12 <__rc2>
    1e81: f0 03        	beq	$1e86 <printf+0x168>
    1e83: 4c 56 1f     	jmp	$1f56 <printf+0x238>
    1e86: e6 13        	inc	$13                     ; 0x13 <__rc3>
    1e88: 4c 56 1f     	jmp	$1f56 <printf+0x238>
    1e8b: a5 16        	lda	$16                     ; 0x16 <__rc6>
    1e8d: 18           	clc
    1e8e: 69 d0        	adc	#$d0
    1e90: c9 0a        	cmp	#$a
    1e92: 90 03        	bcc	$1e97 <printf+0x179>
    1e94: 4c 48 1f     	jmp	$1f48 <printf+0x22a>
    1e97: a6 16        	ldx	$16                     ; 0x16 <__rc6>
    1e99: 86 14        	stx	$14                     ; 0x14 <__rc4>
    1e9b: 64 16        	stz	$16                     ; 0x16 <__rc6>
    1e9d: 64 15        	stz	$15                     ; 0x15 <__rc5>
    1e9f: 64 17        	stz	$17                     ; 0x17 <__rc7>
    1ea1: a0 01        	ldy	#$1
    1ea3: a2 00        	ldx	#$0
    1ea5: 06 16        	asl	$16                     ; 0x16 <__rc6>
    1ea7: 26 17        	rol	$17                     ; 0x17 <__rc7>
    1ea9: a5 16        	lda	$16                     ; 0x16 <__rc6>
    1eab: 0a           	asl
    1eac: 85 18        	sta	$18                     ; 0x18 <__rc8>
    1eae: a5 17        	lda	$17                     ; 0x17 <__rc7>
    1eb0: 2a           	rol
    1eb1: 06 18        	asl	$18                     ; 0x18 <__rc8>
    1eb3: 2a           	rol
    1eb4: 85 19        	sta	$19                     ; 0x19 <__rc9>
    1eb6: a5 18        	lda	$18                     ; 0x18 <__rc8>
    1eb8: 18           	clc
    1eb9: 65 16        	adc	$16                     ; 0x16 <__rc6>
    1ebb: 85 16        	sta	$16                     ; 0x16 <__rc6>
    1ebd: a5 19        	lda	$19                     ; 0x19 <__rc9>
    1ebf: 65 17        	adc	$17                     ; 0x17 <__rc7>
    1ec1: 85 17        	sta	$17                     ; 0x17 <__rc7>
    1ec3: a5 16        	lda	$16                     ; 0x16 <__rc6>
    1ec5: 18           	clc
    1ec6: 65 14        	adc	$14                     ; 0x14 <__rc4>
    1ec8: 85 14        	sta	$14                     ; 0x14 <__rc4>
    1eca: a5 17        	lda	$17                     ; 0x17 <__rc7>
    1ecc: 65 15        	adc	$15                     ; 0x15 <__rc5>
    1ece: 85 15        	sta	$15                     ; 0x15 <__rc5>
    1ed0: 18           	clc
    1ed1: a5 14        	lda	$14                     ; 0x14 <__rc4>
    1ed3: 69 d0        	adc	#$d0
    1ed5: 85 16        	sta	$16                     ; 0x16 <__rc6>
    1ed7: a5 15        	lda	$15                     ; 0x15 <__rc5>
    1ed9: 69 ff        	adc	#$ff
    1edb: 85 17        	sta	$17                     ; 0x17 <__rc7>
    1edd: b1 12        	lda	($12),y                 ; 0x12 <__rc2>
    1edf: 85 14        	sta	$14                     ; 0x14 <__rc4>
    1ee1: 18           	clc
    1ee2: 69 d0        	adc	#$d0
    1ee4: e6 12        	inc	$12                     ; 0x12 <__rc2>
    1ee6: d0 02        	bne	$1eea <printf+0x1cc>
    1ee8: e6 13        	inc	$13                     ; 0x13 <__rc3>
    1eea: c9 0a        	cmp	#$a
    1eec: 64 15        	stz	$15                     ; 0x15 <__rc5>
    1eee: 90 b5        	bcc	$1ea5 <printf+0x187>
    1ef0: 4c 4e 1f     	jmp	$1f4e <printf+0x230>
    1ef3: c4 9e        	cpy	$9e                     ; 0x9e <__zp_data_size+0x6e>
    1ef5: 84 16        	sty	$16                     ; 0x16 <__rc6>
    1ef7: a4 13        	ldy	$13                     ; 0x13 <__rc3>
    1ef9: b0 37        	bcs	$1f32 <printf+0x214>
    1efb: a2 01        	ldx	#$1
    1efd: 86 14        	stx	$14                     ; 0x14 <__rc4>
    1eff: a6 aa        	ldx	$aa                     ; 0xaa <__zp_data_size+0x7a>
    1f01: a0 00        	ldy	#$0
    1f03: 84 12        	sty	$12                     ; 0x12 <__rc2>
    1f05: a0 00        	ldy	#$0
    1f07: 84 13        	sty	$13                     ; 0x13 <__rc3>
    1f09: e4 13        	cpx	$13                     ; 0x13 <__rc3>
    1f0b: d0 19        	bne	$1f26 <printf+0x208>
    1f0d: a6 a9        	ldx	$a9                     ; 0xa9 <__zp_data_size+0x79>
    1f0f: e4 12        	cpx	$12                     ; 0x12 <__rc2>
    1f11: d0 13        	bne	$1f26 <printf+0x208>
    1f13: a4 14        	ldy	$14                     ; 0x14 <__rc4>
    1f15: 18           	clc
    1f16: 65 a3        	adc	$a3                     ; 0xa3 <__zp_data_size+0x73>
    1f18: 85 12        	sta	$12                     ; 0x12 <__rc2>
    1f1a: a5 16        	lda	$16                     ; 0x16 <__rc6>
    1f1c: 65 a4        	adc	$a4                     ; 0xa4 <__zp_data_size+0x74>
    1f1e: 85 13        	sta	$13                     ; 0x13 <__rc3>
    1f20: a9 25        	lda	#$25
    1f22: 92 12        	sta	($12)                   ; 0x12 <__rc2>
    1f24: 80 0c        	bra	$1f32 <printf+0x214>
    1f26: a2 01        	ldx	#$1
    1f28: 86 6e        	stx	$6e                     ; 0x6e <__zp_data_size+0x3e>
    1f2a: ca           	dex
    1f2b: a9 25        	lda	#$25
    1f2d: 20 4f 2a     	jsr	$2a4f <putchar>
    1f30: a4 6e        	ldy	$6e                     ; 0x6e <__zp_data_size+0x3e>
    1f32: e6 9f        	inc	$9f                     ; 0x9f <__zp_data_size+0x6f>
    1f34: d0 02        	bne	$1f38 <printf+0x21a>
    1f36: e6 a0        	inc	$a0                     ; 0xa0 <__zp_data_size+0x70>
    1f38: a5 6c        	lda	$6c                     ; 0x6c <__zp_data_size+0x3c>
    1f3a: 18           	clc
    1f3b: 69 02        	adc	#$2
    1f3d: 85 6e        	sta	$6e                     ; 0x6e <__zp_data_size+0x3e>
    1f3f: a5 6d        	lda	$6d                     ; 0x6d <__zp_data_size+0x3d>
    1f41: 69 00        	adc	#$0
    1f43: 85 6f        	sta	$6f                     ; 0x6f <__zp_data_size+0x3f>
    1f45: 4c 83 1d     	jmp	$1d83 <printf+0x65>
    1f48: 64 16        	stz	$16                     ; 0x16 <__rc6>
    1f4a: 64 17        	stz	$17                     ; 0x17 <__rc7>
    1f4c: a4 15        	ldy	$15                     ; 0x15 <__rc5>
    1f4e: a6 16        	ldx	$16                     ; 0x16 <__rc6>
    1f50: 86 a5        	stx	$a5                     ; 0xa5 <__zp_data_size+0x75>
    1f52: a5 17        	lda	$17                     ; 0x17 <__rc7>
    1f54: 85 a6        	sta	$a6                     ; 0xa6 <__zp_data_size+0x76>
    1f56: 86 1a        	stx	$1a                     ; 0x1a <__rc10>
    1f58: 85 1e        	sta	$1e                     ; 0x1e <__rc14>
    1f5a: b2 12        	lda	($12)                   ; 0x12 <__rc2>
    1f5c: a2 ff        	ldx	#$ff
    1f5e: c9 2e        	cmp	#$2e
    1f60: d0 39        	bne	$1f9b <printf+0x27d>
    1f62: b1 12        	lda	($12),y                 ; 0x12 <__rc2>
    1f64: c9 2a        	cmp	#$2a
    1f66: d0 38        	bne	$1fa0 <printf+0x282>
    1f68: a5 ab        	lda	$ab                     ; 0xab <__zp_data_size+0x7b>
    1f6a: a6 ac        	ldx	$ac                     ; 0xac <__zp_data_size+0x7c>
    1f6c: 85 14        	sta	$14                     ; 0x14 <__rc4>
    1f6e: 86 15        	stx	$15                     ; 0x15 <__rc5>
    1f70: 18           	clc
    1f71: 69 02        	adc	#$2
    1f73: 85 16        	sta	$16                     ; 0x16 <__rc6>
    1f75: 8a           	txa
    1f76: 69 00        	adc	#$0
    1f78: a6 16        	ldx	$16                     ; 0x16 <__rc6>
    1f7a: 86 ab        	stx	$ab                     ; 0xab <__zp_data_size+0x7b>
    1f7c: 85 ac        	sta	$ac                     ; 0xac <__zp_data_size+0x7c>
    1f7e: a5 12        	lda	$12                     ; 0x12 <__rc2>
    1f80: 18           	clc
    1f81: 69 02        	adc	#$2
    1f83: 85 12        	sta	$12                     ; 0x12 <__rc2>
    1f85: a5 13        	lda	$13                     ; 0x13 <__rc3>
    1f87: 69 00        	adc	#$0
    1f89: 85 13        	sta	$13                     ; 0x13 <__rc3>
    1f8b: b2 14        	lda	($14)                   ; 0x14 <__rc4>
    1f8d: aa           	tax
    1f8e: b1 14        	lda	($14),y                 ; 0x14 <__rc4>
    1f90: 86 18        	stx	$18                     ; 0x18 <__rc8>
    1f92: 86 a7        	stx	$a7                     ; 0xa7 <__zp_data_size+0x77>
    1f94: 85 19        	sta	$19                     ; 0x19 <__rc9>
    1f96: 85 a8        	sta	$a8                     ; 0xa8 <__zp_data_size+0x78>
    1f98: 4c 5e 20     	jmp	$205e <printf+0x340>
    1f9b: 86 18        	stx	$18                     ; 0x18 <__rc8>
    1f9d: 4c 6e 20     	jmp	$206e <printf+0x350>
    1fa0: 18           	clc
    1fa1: 85 17        	sta	$17                     ; 0x17 <__rc7>
    1fa3: 69 d0        	adc	#$d0
    1fa5: c9 0a        	cmp	#$a
    1fa7: 90 03        	bcc	$1fac <printf+0x28e>
    1fa9: 4c 50 20     	jmp	$2050 <printf+0x332>
    1fac: 64 16        	stz	$16                     ; 0x16 <__rc6>
    1fae: a2 01        	ldx	#$1
    1fb0: 64 18        	stz	$18                     ; 0x18 <__rc8>
    1fb2: 64 19        	stz	$19                     ; 0x19 <__rc9>
    1fb4: 84 1b        	sty	$1b                     ; 0x1b <__rc11>
    1fb6: 64 1c        	stz	$1c                     ; 0x1c <__rc12>
    1fb8: 18           	clc
    1fb9: a0 01        	ldy	#$1
    1fbb: b0 02        	bcs	$1fbf <printf+0x2a1>
    1fbd: a0 00        	ldy	#$0
    1fbf: 84 1d        	sty	$1d                     ; 0x1d <__rc13>
    1fc1: a4 1c        	ldy	$1c                     ; 0x1c <__rc12>
    1fc3: 84 14        	sty	$14                     ; 0x14 <__rc4>
    1fc5: 86 15        	stx	$15                     ; 0x15 <__rc5>
    1fc7: 06 18        	asl	$18                     ; 0x18 <__rc8>
    1fc9: 26 19        	rol	$19                     ; 0x19 <__rc9>
    1fcb: a5 18        	lda	$18                     ; 0x18 <__rc8>
    1fcd: 0a           	asl
    1fce: a8           	tay
    1fcf: a5 19        	lda	$19                     ; 0x19 <__rc9>
    1fd1: 2a           	rol
    1fd2: 84 1f        	sty	$1f                     ; 0x1f <__rc15>
    1fd4: 06 1f        	asl	$1f                     ; 0x1f <__rc15>
    1fd6: 2a           	rol
    1fd7: 85 22        	sta	$22                     ; 0x22 <__rc18>
    1fd9: a5 1f        	lda	$1f                     ; 0x1f <__rc15>
    1fdb: a4 1d        	ldy	$1d                     ; 0x1d <__rc13>
    1fdd: c0 01        	cpy	#$1
    1fdf: 65 18        	adc	$18                     ; 0x18 <__rc8>
    1fe1: 85 18        	sta	$18                     ; 0x18 <__rc8>
    1fe3: a5 22        	lda	$22                     ; 0x22 <__rc18>
    1fe5: 65 19        	adc	$19                     ; 0x19 <__rc9>
    1fe7: 85 19        	sta	$19                     ; 0x19 <__rc9>
    1fe9: a5 18        	lda	$18                     ; 0x18 <__rc8>
    1feb: a4 1d        	ldy	$1d                     ; 0x1d <__rc13>
    1fed: c0 01        	cpy	#$1
    1fef: 65 17        	adc	$17                     ; 0x17 <__rc7>
    1ff1: 85 17        	sta	$17                     ; 0x17 <__rc7>
    1ff3: a5 19        	lda	$19                     ; 0x19 <__rc9>
    1ff5: 65 16        	adc	$16                     ; 0x16 <__rc6>
    1ff7: 85 16        	sta	$16                     ; 0x16 <__rc6>
    1ff9: 18           	clc
    1ffa: a5 17        	lda	$17                     ; 0x17 <__rc7>
    1ffc: 69 d0        	adc	#$d0
    1ffe: 85 18        	sta	$18                     ; 0x18 <__rc8>
    2000: a5 16        	lda	$16                     ; 0x16 <__rc6>
    2002: 69 ff        	adc	#$ff
    2004: 85 19        	sta	$19                     ; 0x19 <__rc9>
    2006: e8           	inx
    2007: d0 02        	bne	$200b <printf+0x2ed>
    2009: e6 1c        	inc	$1c                     ; 0x1c <__rc12>
    200b: a5 12        	lda	$12                     ; 0x12 <__rc2>
    200d: a4 1d        	ldy	$1d                     ; 0x1d <__rc13>
    200f: c0 01        	cpy	#$1
    2011: 65 15        	adc	$15                     ; 0x15 <__rc5>
    2013: a8           	tay
    2014: a5 13        	lda	$13                     ; 0x13 <__rc3>
    2016: 65 14        	adc	$14                     ; 0x14 <__rc4>
    2018: 84 16        	sty	$16                     ; 0x16 <__rc6>
    201a: 85 17        	sta	$17                     ; 0x17 <__rc7>
    201c: a4 1b        	ldy	$1b                     ; 0x1b <__rc11>
    201e: b1 16        	lda	($16),y                 ; 0x16 <__rc6>
    2020: 85 17        	sta	$17                     ; 0x17 <__rc7>
    2022: 18           	clc
    2023: 69 d0        	adc	#$d0
    2025: c9 0a        	cmp	#$a
    2027: 64 16        	stz	$16                     ; 0x16 <__rc6>
    2029: b0 03        	bcs	$202e <printf+0x310>
    202b: 4c c1 1f     	jmp	$1fc1 <printf+0x2a3>
    202e: a5 12        	lda	$12                     ; 0x12 <__rc2>
    2030: a6 1d        	ldx	$1d                     ; 0x1d <__rc13>
    2032: e0 01        	cpx	#$1
    2034: 65 15        	adc	$15                     ; 0x15 <__rc5>
    2036: 85 12        	sta	$12                     ; 0x12 <__rc2>
    2038: a5 13        	lda	$13                     ; 0x13 <__rc3>
    203a: 65 14        	adc	$14                     ; 0x14 <__rc4>
    203c: 85 13        	sta	$13                     ; 0x13 <__rc3>
    203e: e6 12        	inc	$12                     ; 0x12 <__rc2>
    2040: d0 02        	bne	$2044 <printf+0x326>
    2042: e6 13        	inc	$13                     ; 0x13 <__rc3>
    2044: a6 18        	ldx	$18                     ; 0x18 <__rc8>
    2046: 86 a7        	stx	$a7                     ; 0xa7 <__zp_data_size+0x77>
    2048: a6 19        	ldx	$19                     ; 0x19 <__rc9>
    204a: 86 a8        	stx	$a8                     ; 0xa8 <__zp_data_size+0x78>
    204c: a4 1b        	ldy	$1b                     ; 0x1b <__rc11>
    204e: 80 0e        	bra	$205e <printf+0x340>
    2050: e6 12        	inc	$12                     ; 0x12 <__rc2>
    2052: d0 02        	bne	$2056 <printf+0x338>
    2054: e6 13        	inc	$13                     ; 0x13 <__rc3>
    2056: 64 18        	stz	$18                     ; 0x18 <__rc8>
    2058: 64 a7        	stz	$a7                     ; 0xa7 <__zp_data_size+0x77>
    205a: 64 a8        	stz	$a8                     ; 0xa8 <__zp_data_size+0x78>
    205c: 64 19        	stz	$19                     ; 0x19 <__rc9>
    205e: a5 6a        	lda	$6a                     ; 0x6a <__zp_data_size+0x3a>
    2060: 29 ef        	and	#$ef
    2062: 85 6a        	sta	$6a                     ; 0x6a <__zp_data_size+0x3a>
    2064: 85 9b        	sta	$9b                     ; 0x9b <__zp_data_size+0x6b>
    2066: a2 00        	ldx	#$0
    2068: 86 9c        	stx	$9c                     ; 0x9c <__zp_data_size+0x6c>
    206a: b2 12        	lda	($12)                   ; 0x12 <__rc2>
    206c: a6 19        	ldx	$19                     ; 0x19 <__rc9>
    206e: 86 14        	stx	$14                     ; 0x14 <__rc4>
    2070: a6 12        	ldx	$12                     ; 0x12 <__rc2>
    2072: 86 6e        	stx	$6e                     ; 0x6e <__zp_data_size+0x3e>
    2074: a6 13        	ldx	$13                     ; 0x13 <__rc3>
    2076: 86 6f        	stx	$6f                     ; 0x6f <__zp_data_size+0x3f>
    2078: e6 6e        	inc	$6e                     ; 0x6e <__zp_data_size+0x3e>
    207a: d0 02        	bne	$207e <printf+0x360>
    207c: e6 6f        	inc	$6f                     ; 0x6f <__zp_data_size+0x3f>
    207e: 38           	sec
    207f: aa           	tax
    2080: e9 6c        	sbc	#$6c
    2082: 50 02        	bvc	$2086 <printf+0x368>
    2084: 49 80        	eor	#$80
    2086: c9 00        	cmp	#$0
    2088: 10 1f        	bpl	$20a9 <printf+0x38b>
    208a: e0 4c        	cpx	#$4c
    208c: f0 35        	beq	$20c3 <printf+0x3a5>
    208e: e0 68        	cpx	#$68
    2090: d0 03        	bne	$2095 <printf+0x377>
    2092: 4c 3e 21     	jmp	$213e <printf+0x420>
    2095: da           	phx
    2096: 7a           	ply
    2097: a9 01        	lda	#$1
    2099: a2 08        	ldx	#$8
    209b: c0 6a        	cpy	#$6a
    209d: d0 20        	bne	$20bf <printf+0x3a1>
    209f: a4 6e        	ldy	$6e                     ; 0x6e <__zp_data_size+0x3e>
    20a1: 84 12        	sty	$12                     ; 0x12 <__rc2>
    20a3: a4 6f        	ldy	$6f                     ; 0x6f <__zp_data_size+0x3f>
    20a5: 84 13        	sty	$13                     ; 0x13 <__rc3>
    20a7: 80 50        	bra	$20f9 <printf+0x3db>
    20a9: e0 6c        	cpx	#$6c
    20ab: f0 31        	beq	$20de <printf+0x3c0>
    20ad: e0 74        	cpx	#$74
    20af: f0 1e        	beq	$20cf <printf+0x3b1>
    20b1: a9 01        	lda	#$1
    20b3: e0 7a        	cpx	#$7a
    20b5: d0 08        	bne	$20bf <printf+0x3a1>
    20b7: a6 6e        	ldx	$6e                     ; 0x6e <__zp_data_size+0x3e>
    20b9: 86 12        	stx	$12                     ; 0x12 <__rc2>
    20bb: a6 6f        	ldx	$6f                     ; 0x6f <__zp_data_size+0x3f>
    20bd: 86 13        	stx	$13                     ; 0x13 <__rc3>
    20bf: a2 02        	ldx	#$2
    20c1: 80 17        	bra	$20da <printf+0x3bc>
    20c3: a5 6a        	lda	$6a                     ; 0x6a <__zp_data_size+0x3a>
    20c5: 09 40        	ora	#$40
    20c7: 85 6a        	sta	$6a                     ; 0x6a <__zp_data_size+0x3a>
    20c9: 85 9b        	sta	$9b                     ; 0x9b <__zp_data_size+0x6b>
    20cb: a2 00        	ldx	#$0
    20cd: 86 9c        	stx	$9c                     ; 0x9c <__zp_data_size+0x6c>
    20cf: a6 6e        	ldx	$6e                     ; 0x6e <__zp_data_size+0x3e>
    20d1: 86 12        	stx	$12                     ; 0x12 <__rc2>
    20d3: a6 6f        	ldx	$6f                     ; 0x6f <__zp_data_size+0x3f>
    20d5: 86 13        	stx	$13                     ; 0x13 <__rc3>
    20d7: a2 02        	ldx	#$2
    20d9: 98           	tya
    20da: a0 02        	ldy	#$2
    20dc: 80 1d        	bra	$20fb <printf+0x3dd>
    20de: b1 12        	lda	($12),y                 ; 0x12 <__rc2>
    20e0: a2 04        	ldx	#$4
    20e2: c9 6c        	cmp	#$6c
    20e4: f0 03        	beq	$20e9 <printf+0x3cb>
    20e6: 4c 5b 21     	jmp	$215b <printf+0x43d>
    20e9: a5 12        	lda	$12                     ; 0x12 <__rc2>
    20eb: 18           	clc
    20ec: 69 02        	adc	#$2
    20ee: 85 12        	sta	$12                     ; 0x12 <__rc2>
    20f0: a5 13        	lda	$13                     ; 0x13 <__rc3>
    20f2: 69 00        	adc	#$0
    20f4: 85 13        	sta	$13                     ; 0x13 <__rc3>
    20f6: a2 08        	ldx	#$8
    20f8: 98           	tya
    20f9: a0 08        	ldy	#$8
    20fb: 84 6b        	sty	$6b                     ; 0x6b <__zp_data_size+0x3b>
    20fd: a8           	tay
    20fe: b2 12        	lda	($12)                   ; 0x12 <__rc2>
    2100: 5a           	phy
    2101: a4 12        	ldy	$12                     ; 0x12 <__rc2>
    2103: 84 6e        	sty	$6e                     ; 0x6e <__zp_data_size+0x3e>
    2105: a4 13        	ldy	$13                     ; 0x13 <__rc3>
    2107: 84 6f        	sty	$6f                     ; 0x6f <__zp_data_size+0x3f>
    2109: 7a           	ply
    210a: 86 74        	stx	$74                     ; 0x74 <__zp_data_size+0x44>
    210c: aa           	tax
    210d: 18           	clc
    210e: 69 9d        	adc	#$9d
    2110: c9 16        	cmp	#$16
    2112: b0 4c        	bcs	$2160 <printf+0x442>
    2114: 0a           	asl
    2115: aa           	tax
    2116: 7c 81 2c     	jmp	($2c81,x)               ; 0x2c81 <__BLOCK_SIZE+0xc81>
    2119: a6 6c        	ldx	$6c                     ; 0x6c <__zp_data_size+0x3c>
    211b: 86 b0        	stx	$b0                     ; 0xb0 <__zp_data_size+0x80>
    211d: a6 6d        	ldx	$6d                     ; 0x6d <__zp_data_size+0x3d>
    211f: 86 b1        	stx	$b1                     ; 0xb1 <__zp_data_size+0x81>
    2121: a6 14        	ldx	$14                     ; 0x14 <__rc4>
    2123: 86 b4        	stx	$b4                     ; 0xb4 <__zp_data_size+0x84>
    2125: a6 18        	ldx	$18                     ; 0x18 <__rc8>
    2127: 86 af        	stx	$af                     ; 0xaf <__zp_data_size+0x7f>
    2129: a6 1e        	ldx	$1e                     ; 0x1e <__rc14>
    212b: 86 b5        	stx	$b5                     ; 0xb5 <__zp_data_size+0x85>
    212d: a6 1a        	ldx	$1a                     ; 0x1a <__rc10>
    212f: 86 73        	stx	$73                     ; 0x73 <__zp_data_size+0x43>
    2131: a0 0a        	ldy	#$a
    2133: a2 0a        	ldx	#$a
    2135: 86 75        	stx	$75                     ; 0x75 <__zp_data_size+0x45>
    2137: 84 9a        	sty	$9a                     ; 0x9a <__zp_data_size+0x6a>
    2139: 64 72        	stz	$72                     ; 0x72 <__zp_data_size+0x42>
    213b: 4c ad 22     	jmp	$22ad <printf+0x58f>
    213e: b1 12        	lda	($12),y                 ; 0x12 <__rc2>
    2140: a2 02        	ldx	#$2
    2142: c9 68        	cmp	#$68
    2144: d0 15        	bne	$215b <printf+0x43d>
    2146: a5 12        	lda	$12                     ; 0x12 <__rc2>
    2148: 18           	clc
    2149: 69 02        	adc	#$2
    214b: 85 12        	sta	$12                     ; 0x12 <__rc2>
    214d: a5 13        	lda	$13                     ; 0x13 <__rc3>
    214f: 69 00        	adc	#$0
    2151: 85 13        	sta	$13                     ; 0x13 <__rc3>
    2153: a2 01        	ldx	#$1
    2155: 86 6b        	stx	$6b                     ; 0x6b <__zp_data_size+0x3b>
    2157: e8           	inx
    2158: 4c fe 20     	jmp	$20fe <printf+0x3e0>
    215b: 86 6b        	stx	$6b                     ; 0x6b <__zp_data_size+0x3b>
    215d: 4c 0a 21     	jmp	$210a <printf+0x3ec>
    2160: e0 58        	cpx	#$58
    2162: f0 03        	beq	$2167 <printf+0x449>
    2164: 4c 03 2a     	jmp	$2a03 <printf+0xce5>
    2167: a6 6c        	ldx	$6c                     ; 0x6c <__zp_data_size+0x3c>
    2169: 86 b0        	stx	$b0                     ; 0xb0 <__zp_data_size+0x80>
    216b: a6 6d        	ldx	$6d                     ; 0x6d <__zp_data_size+0x3d>
    216d: 86 b1        	stx	$b1                     ; 0xb1 <__zp_data_size+0x81>
    216f: a6 14        	ldx	$14                     ; 0x14 <__rc4>
    2171: 86 b4        	stx	$b4                     ; 0xb4 <__zp_data_size+0x84>
    2173: a6 18        	ldx	$18                     ; 0x18 <__rc8>
    2175: 86 af        	stx	$af                     ; 0xaf <__zp_data_size+0x7f>
    2177: a6 1e        	ldx	$1e                     ; 0x1e <__rc14>
    2179: 86 b5        	stx	$b5                     ; 0xb5 <__zp_data_size+0x85>
    217b: a6 1a        	ldx	$1a                     ; 0x1a <__rc10>
    217d: 86 73        	stx	$73                     ; 0x73 <__zp_data_size+0x43>
    217f: a2 10        	ldx	#$10
    2181: 86 9a        	stx	$9a                     ; 0x9a <__zp_data_size+0x6a>
    2183: a9 00        	lda	#$0
    2185: 09 01        	ora	#$1
    2187: a6 6a        	ldx	$6a                     ; 0x6a <__zp_data_size+0x3a>
    2189: 80 49        	bra	$21d4 <printf+0x4b6>
    218b: a6 6c        	ldx	$6c                     ; 0x6c <__zp_data_size+0x3c>
    218d: 86 b0        	stx	$b0                     ; 0xb0 <__zp_data_size+0x80>
    218f: a6 6d        	ldx	$6d                     ; 0x6d <__zp_data_size+0x3d>
    2191: 86 b1        	stx	$b1                     ; 0xb1 <__zp_data_size+0x81>
    2193: a6 14        	ldx	$14                     ; 0x14 <__rc4>
    2195: 86 b4        	stx	$b4                     ; 0xb4 <__zp_data_size+0x84>
    2197: a6 18        	ldx	$18                     ; 0x18 <__rc8>
    2199: 86 af        	stx	$af                     ; 0xaf <__zp_data_size+0x7f>
    219b: a6 1e        	ldx	$1e                     ; 0x1e <__rc14>
    219d: 86 b5        	stx	$b5                     ; 0xb5 <__zp_data_size+0x85>
    219f: a6 1a        	ldx	$1a                     ; 0x1a <__rc10>
    21a1: 86 73        	stx	$73                     ; 0x73 <__zp_data_size+0x43>
    21a3: a2 10        	ldx	#$10
    21a5: 86 9a        	stx	$9a                     ; 0x9a <__zp_data_size+0x6a>
    21a7: a5 6a        	lda	$6a                     ; 0x6a <__zp_data_size+0x3a>
    21a9: 09 84        	ora	#$84
    21ab: 80 20        	bra	$21cd <printf+0x4af>
    21ad: a6 6c        	ldx	$6c                     ; 0x6c <__zp_data_size+0x3c>
    21af: 86 b0        	stx	$b0                     ; 0xb0 <__zp_data_size+0x80>
    21b1: a6 6d        	ldx	$6d                     ; 0x6d <__zp_data_size+0x3d>
    21b3: 86 b1        	stx	$b1                     ; 0xb1 <__zp_data_size+0x81>
    21b5: a6 14        	ldx	$14                     ; 0x14 <__rc4>
    21b7: 86 b4        	stx	$b4                     ; 0xb4 <__zp_data_size+0x84>
    21b9: a6 18        	ldx	$18                     ; 0x18 <__rc8>
    21bb: 86 af        	stx	$af                     ; 0xaf <__zp_data_size+0x7f>
    21bd: a6 1e        	ldx	$1e                     ; 0x1e <__rc14>
    21bf: 86 b5        	stx	$b5                     ; 0xb5 <__zp_data_size+0x85>
    21c1: a6 1a        	ldx	$1a                     ; 0x1a <__rc10>
    21c3: 86 73        	stx	$73                     ; 0x73 <__zp_data_size+0x43>
    21c5: a2 10        	ldx	#$10
    21c7: 86 9a        	stx	$9a                     ; 0x9a <__zp_data_size+0x6a>
    21c9: a5 6a        	lda	$6a                     ; 0x6a <__zp_data_size+0x3a>
    21cb: 09 80        	ora	#$80
    21cd: aa           	tax
    21ce: a9 00        	lda	#$0
    21d0: 09 01        	ora	#$1
    21d2: 86 6a        	stx	$6a                     ; 0x6a <__zp_data_size+0x3a>
    21d4: 86 9b        	stx	$9b                     ; 0x9b <__zp_data_size+0x6b>
    21d6: 85 72        	sta	$72                     ; 0x72 <__zp_data_size+0x42>
    21d8: 85 9c        	sta	$9c                     ; 0x9c <__zp_data_size+0x6c>
    21da: a2 10        	ldx	#$10
    21dc: 86 75        	stx	$75                     ; 0x75 <__zp_data_size+0x45>
    21de: 4c ad 22     	jmp	$22ad <printf+0x58f>
    21e1: a5 ab        	lda	$ab                     ; 0xab <__zp_data_size+0x7b>
    21e3: a6 ac        	ldx	$ac                     ; 0xac <__zp_data_size+0x7c>
    21e5: 85 12        	sta	$12                     ; 0x12 <__rc2>
    21e7: 86 13        	stx	$13                     ; 0x13 <__rc3>
    21e9: 18           	clc
    21ea: 69 02        	adc	#$2
    21ec: 85 14        	sta	$14                     ; 0x14 <__rc4>
    21ee: 8a           	txa
    21ef: 69 00        	adc	#$0
    21f1: a6 14        	ldx	$14                     ; 0x14 <__rc4>
    21f3: 86 ab        	stx	$ab                     ; 0xab <__zp_data_size+0x7b>
    21f5: 85 ac        	sta	$ac                     ; 0xac <__zp_data_size+0x7c>
    21f7: b2 12        	lda	($12)                   ; 0x12 <__rc2>
    21f9: aa           	tax
    21fa: b1 12        	lda	($12),y                 ; 0x12 <__rc2>
    21fc: 86 12        	stx	$12                     ; 0x12 <__rc2>
    21fe: 85 13        	sta	$13                     ; 0x13 <__rc3>
    2200: a5 9f        	lda	$9f                     ; 0x9f <__zp_data_size+0x6f>
    2202: a6 a0        	ldx	$a0                     ; 0xa0 <__zp_data_size+0x70>
    2204: 92 12        	sta	($12)                   ; 0x12 <__rc2>
    2206: 8a           	txa
    2207: 91 12        	sta	($12),y                 ; 0x12 <__rc2>
    2209: 4c eb 29     	jmp	$29eb <printf+0xccd>
    220c: a5 ab        	lda	$ab                     ; 0xab <__zp_data_size+0x7b>
    220e: a6 ac        	ldx	$ac                     ; 0xac <__zp_data_size+0x7c>
    2210: 85 12        	sta	$12                     ; 0x12 <__rc2>
    2212: 86 13        	stx	$13                     ; 0x13 <__rc3>
    2214: 18           	clc
    2215: 69 02        	adc	#$2
    2217: 85 14        	sta	$14                     ; 0x14 <__rc4>
    2219: 8a           	txa
    221a: 69 00        	adc	#$0
    221c: a6 14        	ldx	$14                     ; 0x14 <__rc4>
    221e: 86 ab        	stx	$ab                     ; 0xab <__zp_data_size+0x7b>
    2220: 85 ac        	sta	$ac                     ; 0xac <__zp_data_size+0x7c>
    2222: b2 12        	lda	($12)                   ; 0x12 <__rc2>
    2224: aa           	tax
    2225: b1 12        	lda	($12),y                 ; 0x12 <__rc2>
    2227: 86 12        	stx	$12                     ; 0x12 <__rc2>
    2229: 85 13        	sta	$13                     ; 0x13 <__rc3>
    222b: 80 42        	bra	$226f <printf+0x551>
    222d: a6 6c        	ldx	$6c                     ; 0x6c <__zp_data_size+0x3c>
    222f: 86 b0        	stx	$b0                     ; 0xb0 <__zp_data_size+0x80>
    2231: a6 6d        	ldx	$6d                     ; 0x6d <__zp_data_size+0x3d>
    2233: 86 b1        	stx	$b1                     ; 0xb1 <__zp_data_size+0x81>
    2235: a6 14        	ldx	$14                     ; 0x14 <__rc4>
    2237: 86 b4        	stx	$b4                     ; 0xb4 <__zp_data_size+0x84>
    2239: a6 18        	ldx	$18                     ; 0x18 <__rc8>
    223b: 86 af        	stx	$af                     ; 0xaf <__zp_data_size+0x7f>
    223d: a6 1e        	ldx	$1e                     ; 0x1e <__rc14>
    223f: 86 b5        	stx	$b5                     ; 0xb5 <__zp_data_size+0x85>
    2241: a6 1a        	ldx	$1a                     ; 0x1a <__rc10>
    2243: 86 73        	stx	$73                     ; 0x73 <__zp_data_size+0x43>
    2245: a0 08        	ldy	#$8
    2247: a2 08        	ldx	#$8
    2249: 80 52        	bra	$229d <printf+0x57f>
    224b: a5 ab        	lda	$ab                     ; 0xab <__zp_data_size+0x7b>
    224d: a6 ac        	ldx	$ac                     ; 0xac <__zp_data_size+0x7c>
    224f: 85 12        	sta	$12                     ; 0x12 <__rc2>
    2251: 86 13        	stx	$13                     ; 0x13 <__rc3>
    2253: 18           	clc
    2254: 69 02        	adc	#$2
    2256: 85 14        	sta	$14                     ; 0x14 <__rc4>
    2258: 8a           	txa
    2259: 69 00        	adc	#$0
    225b: a6 14        	ldx	$14                     ; 0x14 <__rc4>
    225d: 86 ab        	stx	$ab                     ; 0xab <__zp_data_size+0x7b>
    225f: 85 ac        	sta	$ac                     ; 0xac <__zp_data_size+0x7c>
    2261: b2 12        	lda	($12)                   ; 0x12 <__rc2>
    2263: 85 8d        	sta	$8d                     ; 0x8d <__zp_data_size+0x5d>
    2265: 64 8e        	stz	$8e                     ; 0x8e <__zp_data_size+0x5e>
    2267: a2 8d        	ldx	#$8d
    2269: 86 12        	stx	$12                     ; 0x12 <__rc2>
    226b: a2 00        	ldx	#$0
    226d: 86 13        	stx	$13                     ; 0x13 <__rc3>
    226f: a2 9a        	ldx	#$9a
    2271: 86 14        	stx	$14                     ; 0x14 <__rc4>
    2273: a2 00        	ldx	#$0
    2275: 86 15        	stx	$15                     ; 0x15 <__rc5>
    2277: 84 70        	sty	$70                     ; 0x70 <__zp_data_size+0x40>
    2279: 20 0f 1c     	jsr	$1c0f <_ZN12_GLOBAL__N_112print_stringEPKcP6Status>
    227c: a4 70        	ldy	$70                     ; 0x70 <__zp_data_size+0x40>
    227e: 4c eb 29     	jmp	$29eb <printf+0xccd>
    2281: a6 6c        	ldx	$6c                     ; 0x6c <__zp_data_size+0x3c>
    2283: 86 b0        	stx	$b0                     ; 0xb0 <__zp_data_size+0x80>
    2285: a6 6d        	ldx	$6d                     ; 0x6d <__zp_data_size+0x3d>
    2287: 86 b1        	stx	$b1                     ; 0xb1 <__zp_data_size+0x81>
    2289: a6 14        	ldx	$14                     ; 0x14 <__rc4>
    228b: 86 b4        	stx	$b4                     ; 0xb4 <__zp_data_size+0x84>
    228d: a6 18        	ldx	$18                     ; 0x18 <__rc8>
    228f: 86 af        	stx	$af                     ; 0xaf <__zp_data_size+0x7f>
    2291: a6 1e        	ldx	$1e                     ; 0x1e <__rc14>
    2293: 86 b5        	stx	$b5                     ; 0xb5 <__zp_data_size+0x85>
    2295: a6 1a        	ldx	$1a                     ; 0x1a <__rc10>
    2297: 86 73        	stx	$73                     ; 0x73 <__zp_data_size+0x43>
    2299: a0 0a        	ldy	#$a
    229b: a2 0a        	ldx	#$a
    229d: 86 75        	stx	$75                     ; 0x75 <__zp_data_size+0x45>
    229f: 84 9a        	sty	$9a                     ; 0x9a <__zp_data_size+0x6a>
    22a1: a9 00        	lda	#$0
    22a3: 09 01        	ora	#$1
    22a5: a6 6a        	ldx	$6a                     ; 0x6a <__zp_data_size+0x3a>
    22a7: 86 9b        	stx	$9b                     ; 0x9b <__zp_data_size+0x6b>
    22a9: 85 72        	sta	$72                     ; 0x72 <__zp_data_size+0x42>
    22ab: 85 9c        	sta	$9c                     ; 0x9c <__zp_data_size+0x6c>
    22ad: a5 6b        	lda	$6b                     ; 0x6b <__zp_data_size+0x3b>
    22af: 85 8f        	sta	$8f                     ; 0x8f <__zp_data_size+0x5f>
    22b1: a4 ab        	ldy	$ab                     ; 0xab <__zp_data_size+0x7b>
    22b3: a6 ac        	ldx	$ac                     ; 0xac <__zp_data_size+0x7c>
    22b5: 86 70        	stx	$70                     ; 0x70 <__zp_data_size+0x40>
    22b7: 84 14        	sty	$14                     ; 0x14 <__rc4>
    22b9: 84 6c        	sty	$6c                     ; 0x6c <__zp_data_size+0x3c>
    22bb: 86 15        	stx	$15                     ; 0x15 <__rc5>
    22bd: a6 b2        	ldx	$b2                     ; 0xb2 <__zp_data_size+0x82>
    22bf: 86 12        	stx	$12                     ; 0x12 <__rc2>
    22c1: a6 b3        	ldx	$b3                     ; 0xb3 <__zp_data_size+0x83>
    22c3: 86 13        	stx	$13                     ; 0x13 <__rc3>
    22c5: a2 00        	ldx	#$0
    22c7: 85 71        	sta	$71                     ; 0x71 <__zp_data_size+0x41>
    22c9: 20 27 2c     	jsr	$2c27 <memcpy>
    22cc: 18           	clc
    22cd: a5 6c        	lda	$6c                     ; 0x6c <__zp_data_size+0x3c>
    22cf: 65 74        	adc	$74                     ; 0x74 <__zp_data_size+0x44>
    22d1: aa           	tax
    22d2: a5 70        	lda	$70                     ; 0x70 <__zp_data_size+0x40>
    22d4: 69 00        	adc	#$0
    22d6: 86 ab        	stx	$ab                     ; 0xab <__zp_data_size+0x7b>
    22d8: 85 ac        	sta	$ac                     ; 0xac <__zp_data_size+0x7c>
    22da: a5 72        	lda	$72                     ; 0x72 <__zp_data_size+0x42>
    22dc: 29 01        	and	#$1
    22de: a0 00        	ldy	#$0
    22e0: aa           	tax
    22e1: f0 03        	beq	$22e6 <printf+0x5c8>
    22e3: 4c 38 23     	jmp	$2338 <printf+0x61a>
    22e6: a6 71        	ldx	$71                     ; 0x71 <__zp_data_size+0x41>
    22e8: b5 8f        	lda	$8f,x                   ; 0x8f <__zp_data_size+0x5f>
    22ea: aa           	tax
    22eb: a5 73        	lda	$73                     ; 0x73 <__zp_data_size+0x43>
    22ed: 85 17        	sta	$17                     ; 0x17 <__rc7>
    22ef: a5 b5        	lda	$b5                     ; 0xb5 <__zp_data_size+0x85>
    22f1: 85 1a        	sta	$1a                     ; 0x1a <__rc10>
    22f3: a5 b4        	lda	$b4                     ; 0xb4 <__zp_data_size+0x84>
    22f5: 85 71        	sta	$71                     ; 0x71 <__zp_data_size+0x41>
    22f7: a5 b0        	lda	$b0                     ; 0xb0 <__zp_data_size+0x80>
    22f9: 85 6c        	sta	$6c                     ; 0x6c <__zp_data_size+0x3c>
    22fb: a5 b1        	lda	$b1                     ; 0xb1 <__zp_data_size+0x81>
    22fd: 85 6d        	sta	$6d                     ; 0x6d <__zp_data_size+0x3d>
    22ff: 8a           	txa
    2300: 10 4a        	bpl	$234c <printf+0x62e>
    2302: a2 00        	ldx	#$0
    2304: 64 12        	stz	$12                     ; 0x12 <__rc2>
    2306: a9 00        	lda	#$0
    2308: 38           	sec
    2309: f5 90        	sbc	$90,x                   ; 0x90 <__zp_data_size+0x60>
    230b: a0 01        	ldy	#$1
    230d: 84 14        	sty	$14                     ; 0x14 <__rc4>
    230f: 88           	dey
    2310: b0 02        	bcs	$2314 <printf+0x5f6>
    2312: a0 01        	ldy	#$1
    2314: 38           	sec
    2315: e5 12        	sbc	$12                     ; 0x12 <__rc2>
    2317: 85 13        	sta	$13                     ; 0x13 <__rc3>
    2319: 64 12        	stz	$12                     ; 0x12 <__rc2>
    231b: b0 04        	bcs	$2321 <printf+0x603>
    231d: a5 14        	lda	$14                     ; 0x14 <__rc4>
    231f: 85 12        	sta	$12                     ; 0x12 <__rc2>
    2321: 98           	tya
    2322: 05 12        	ora	$12                     ; 0x12 <__rc2>
    2324: 85 12        	sta	$12                     ; 0x12 <__rc2>
    2326: a5 13        	lda	$13                     ; 0x13 <__rc3>
    2328: 9d 90 00     	sta	$90,x                   ; 0x90 <__zp_data_size+0x60>
    232b: e8           	inx
    232c: 86 13        	stx	$13                     ; 0x13 <__rc3>
    232e: a4 6b        	ldy	$6b                     ; 0x6b <__zp_data_size+0x3b>
    2330: c4 13        	cpy	$13                     ; 0x13 <__rc3>
    2332: d0 d2        	bne	$2306 <printf+0x5e8>
    2334: a0 01        	ldy	#$1
    2336: 80 14        	bra	$234c <printf+0x62e>
    2338: a6 73        	ldx	$73                     ; 0x73 <__zp_data_size+0x43>
    233a: 86 17        	stx	$17                     ; 0x17 <__rc7>
    233c: a6 b5        	ldx	$b5                     ; 0xb5 <__zp_data_size+0x85>
    233e: 86 1a        	stx	$1a                     ; 0x1a <__rc10>
    2340: a6 b4        	ldx	$b4                     ; 0xb4 <__zp_data_size+0x84>
    2342: 86 71        	stx	$71                     ; 0x71 <__zp_data_size+0x41>
    2344: a6 b0        	ldx	$b0                     ; 0xb0 <__zp_data_size+0x80>
    2346: 86 6c        	stx	$6c                     ; 0x6c <__zp_data_size+0x3c>
    2348: a6 b1        	ldx	$b1                     ; 0xb1 <__zp_data_size+0x81>
    234a: 86 6d        	stx	$6d                     ; 0x6d <__zp_data_size+0x3d>
    234c: 84 18        	sty	$18                     ; 0x18 <__rc8>
    234e: a5 6b        	lda	$6b                     ; 0x6b <__zp_data_size+0x3b>
    2350: 0a           	asl
    2351: 0a           	asl
    2352: 0a           	asl
    2353: 85 12        	sta	$12                     ; 0x12 <__rc2>
    2355: a2 00        	ldx	#$0
    2357: 8a           	txa
    2358: 4c 0f 24     	jmp	$240f <printf+0x6f1>
    235b: a4 13        	ldy	$13                     ; 0x13 <__rc3>
    235d: 99 78 00     	sta	$78,y                   ; 0x78 <__zp_data_size+0x48>
    2360: a4 15        	ldy	$15                     ; 0x15 <__rc5>
    2362: c4 13        	cpy	$13                     ; 0x13 <__rc3>
    2364: f0 38        	beq	$239e <printf+0x680>
    2366: e6 13        	inc	$13                     ; 0x13 <__rc3>
    2368: a4 13        	ldy	$13                     ; 0x13 <__rc3>
    236a: b9 78 00     	lda	$78,y                   ; 0x78 <__zp_data_size+0x48>
    236d: 0a           	asl
    236e: e0 00        	cpx	#$0
    2370: f0 02        	beq	$2374 <printf+0x656>
    2372: 09 01        	ora	#$1
    2374: a4 75        	ldy	$75                     ; 0x75 <__zp_data_size+0x45>
    2376: 84 14        	sty	$14                     ; 0x14 <__rc4>
    2378: c5 14        	cmp	$14                     ; 0x14 <__rc4>
    237a: a2 01        	ldx	#$1
    237c: b0 02        	bcs	$2380 <printf+0x662>
    237e: a2 00        	ldx	#$0
    2380: 90 d9        	bcc	$235b <printf+0x63d>
    2382: 84 14        	sty	$14                     ; 0x14 <__rc4>
    2384: 38           	sec
    2385: e5 14        	sbc	$14                     ; 0x14 <__rc4>
    2387: a4 13        	ldy	$13                     ; 0x13 <__rc3>
    2389: 99 78 00     	sta	$78,y                   ; 0x78 <__zp_data_size+0x48>
    238c: a4 15        	ldy	$15                     ; 0x15 <__rc5>
    238e: c4 13        	cpy	$13                     ; 0x13 <__rc3>
    2390: d0 d4        	bne	$2366 <printf+0x648>
    2392: a4 74        	ldy	$74                     ; 0x74 <__zp_data_size+0x44>
    2394: a6 74        	ldx	$74                     ; 0x74 <__zp_data_size+0x44>
    2396: e8           	inx
    2397: a9 01        	lda	#$1
    2399: 99 78 00     	sta	$78,y                   ; 0x78 <__zp_data_size+0x48>
    239c: 86 74        	stx	$74                     ; 0x74 <__zp_data_size+0x44>
    239e: a6 6b        	ldx	$6b                     ; 0x6b <__zp_data_size+0x3b>
    23a0: b5 8f        	lda	$8f,x                   ; 0x8f <__zp_data_size+0x5f>
    23a2: aa           	tax
    23a3: 10 41        	bpl	$23e6 <printf+0x6c8>
    23a5: a5 74        	lda	$74                     ; 0x74 <__zp_data_size+0x44>
    23a7: f0 2f        	beq	$23d8 <printf+0x6ba>
    23a9: a2 00        	ldx	#$0
    23ab: a4 75        	ldy	$75                     ; 0x75 <__zp_data_size+0x45>
    23ad: 84 14        	sty	$14                     ; 0x14 <__rc4>
    23af: b5 78        	lda	$78,x                   ; 0x78 <__zp_data_size+0x48>
    23b1: 1a           	inc
    23b2: f6 78        	inc	$78,x                   ; 0x78 <__zp_data_size+0x48>
    23b4: c5 14        	cmp	$14                     ; 0x14 <__rc4>
    23b6: 90 2e        	bcc	$23e6 <printf+0x6c8>
    23b8: a4 75        	ldy	$75                     ; 0x75 <__zp_data_size+0x45>
    23ba: 84 13        	sty	$13                     ; 0x13 <__rc3>
    23bc: 38           	sec
    23bd: e5 13        	sbc	$13                     ; 0x13 <__rc3>
    23bf: 9d 78 00     	sta	$78,x                   ; 0x78 <__zp_data_size+0x48>
    23c2: e8           	inx
    23c3: 86 13        	stx	$13                     ; 0x13 <__rc3>
    23c5: a4 74        	ldy	$74                     ; 0x74 <__zp_data_size+0x44>
    23c7: c4 13        	cpy	$13                     ; 0x13 <__rc3>
    23c9: d0 e4        	bne	$23af <printf+0x691>
    23cb: 80 0d        	bra	$23da <printf+0x6bc>
    23cd: a6 6b        	ldx	$6b                     ; 0x6b <__zp_data_size+0x3b>
    23cf: b5 8f        	lda	$8f,x                   ; 0x8f <__zp_data_size+0x5f>
    23d1: aa           	tax
    23d2: 64 74        	stz	$74                     ; 0x74 <__zp_data_size+0x44>
    23d4: 30 04        	bmi	$23da <printf+0x6bc>
    23d6: 80 0e        	bra	$23e6 <printf+0x6c8>
    23d8: 64 74        	stz	$74                     ; 0x74 <__zp_data_size+0x44>
    23da: a4 74        	ldy	$74                     ; 0x74 <__zp_data_size+0x44>
    23dc: a6 74        	ldx	$74                     ; 0x74 <__zp_data_size+0x44>
    23de: e8           	inx
    23df: a9 01        	lda	#$1
    23e1: 99 78 00     	sta	$78,y                   ; 0x78 <__zp_data_size+0x48>
    23e4: 86 74        	stx	$74                     ; 0x74 <__zp_data_size+0x44>
    23e6: a2 01        	ldx	#$1
    23e8: 86 16        	stx	$16                     ; 0x16 <__rc6>
    23ea: 64 13        	stz	$13                     ; 0x13 <__rc3>
    23ec: ca           	dex
    23ed: a4 6b        	ldy	$6b                     ; 0x6b <__zp_data_size+0x3b>
    23ef: b5 90        	lda	$90,x                   ; 0x90 <__zp_data_size+0x60>
    23f1: 0a           	asl
    23f2: 64 14        	stz	$14                     ; 0x14 <__rc4>
    23f4: 26 14        	rol	$14                     ; 0x14 <__rc4>
    23f6: 05 13        	ora	$13                     ; 0x13 <__rc3>
    23f8: 9d 90 00     	sta	$90,x                   ; 0x90 <__zp_data_size+0x60>
    23fb: e8           	inx
    23fc: 86 15        	stx	$15                     ; 0x15 <__rc5>
    23fe: a5 14        	lda	$14                     ; 0x14 <__rc4>
    2400: 85 13        	sta	$13                     ; 0x13 <__rc3>
    2402: c4 15        	cpy	$15                     ; 0x15 <__rc5>
    2404: d0 e9        	bne	$23ef <printf+0x6d1>
    2406: a5 19        	lda	$19                     ; 0x19 <__rc9>
    2408: 1a           	inc
    2409: c5 12        	cmp	$12                     ; 0x12 <__rc2>
    240b: a6 74        	ldx	$74                     ; 0x74 <__zp_data_size+0x44>
    240d: b0 12        	bcs	$2421 <printf+0x703>
    240f: 85 19        	sta	$19                     ; 0x19 <__rc9>
    2411: 8a           	txa
    2412: f0 b9        	beq	$23cd <printf+0x6af>
    2414: 8a           	txa
    2415: 86 74        	stx	$74                     ; 0x74 <__zp_data_size+0x44>
    2417: 3a           	dec
    2418: 85 15        	sta	$15                     ; 0x15 <__rc5>
    241a: a2 00        	ldx	#$0
    241c: 64 13        	stz	$13                     ; 0x13 <__rc3>
    241e: 4c 68 23     	jmp	$2368 <printf+0x64a>
    2421: a4 16        	ldy	$16                     ; 0x16 <__rc6>
    2423: a5 71        	lda	$71                     ; 0x71 <__zp_data_size+0x41>
    2425: 30 06        	bmi	$242d <printf+0x70f>
    2427: a5 af        	lda	$af                     ; 0xaf <__zp_data_size+0x7f>
    2429: 85 70        	sta	$70                     ; 0x70 <__zp_data_size+0x40>
    242b: 80 08        	bra	$2435 <printf+0x717>
    242d: a2 01        	ldx	#$1
    242f: 64 71        	stz	$71                     ; 0x71 <__zp_data_size+0x41>
    2431: 86 70        	stx	$70                     ; 0x70 <__zp_data_size+0x40>
    2433: a6 74        	ldx	$74                     ; 0x74 <__zp_data_size+0x44>
    2435: a5 6a        	lda	$6a                     ; 0x6a <__zp_data_size+0x3a>
    2437: 29 04        	and	#$4
    2439: f0 2f        	beq	$246a <printf+0x74c>
    243b: a5 75        	lda	$75                     ; 0x75 <__zp_data_size+0x45>
    243d: c9 10        	cmp	#$10
    243f: f0 14        	beq	$2455 <printf+0x737>
    2441: c9 08        	cmp	#$8
    2443: d0 25        	bne	$246a <printf+0x74c>
    2445: a2 00        	ldx	#$0
    2447: e4 71        	cpx	$71                     ; 0x71 <__zp_data_size+0x41>
    2449: f0 03        	beq	$244e <printf+0x730>
    244b: 4c 11 2a     	jmp	$2a11 <printf+0xcf3>
    244e: a6 74        	ldx	$74                     ; 0x74 <__zp_data_size+0x44>
    2450: e4 70        	cpx	$70                     ; 0x70 <__zp_data_size+0x40>
    2452: 4c 13 2a     	jmp	$2a13 <printf+0xcf5>
    2455: 8a           	txa
    2456: f0 12        	beq	$246a <printf+0x74c>
    2458: a5 6a        	lda	$6a                     ; 0x6a <__zp_data_size+0x3a>
    245a: a6 70        	ldx	$70                     ; 0x70 <__zp_data_size+0x40>
    245c: 29 80        	and	#$80
    245e: d0 03        	bne	$2463 <printf+0x745>
    2460: 4c 2c 2a     	jmp	$2a2c <printf+0xd0e>
    2463: 86 af        	stx	$af                     ; 0xaf <__zp_data_size+0x7f>
    2465: a2 78        	ldx	#$78
    2467: 4c 30 2a     	jmp	$2a30 <printf+0xd12>
    246a: a6 6a        	ldx	$6a                     ; 0x6a <__zp_data_size+0x3a>
    246c: a9 2d        	lda	#$2d
    246e: 85 b0        	sta	$b0                     ; 0xb0 <__zp_data_size+0x80>
    2470: a5 18        	lda	$18                     ; 0x18 <__rc8>
    2472: d0 22        	bne	$2496 <printf+0x778>
    2474: 86 12        	stx	$12                     ; 0x12 <__rc2>
    2476: 8a           	txa
    2477: 29 02        	and	#$2
    2479: a2 2b        	ldx	#$2b
    247b: 86 b0        	stx	$b0                     ; 0xb0 <__zp_data_size+0x80>
    247d: aa           	tax
    247e: d0 16        	bne	$2496 <printf+0x778>
    2480: a6 70        	ldx	$70                     ; 0x70 <__zp_data_size+0x40>
    2482: 86 af        	stx	$af                     ; 0xaf <__zp_data_size+0x7f>
    2484: a5 12        	lda	$12                     ; 0x12 <__rc2>
    2486: 29 08        	and	#$8
    2488: f0 03        	beq	$248d <printf+0x76f>
    248a: 4c 0a 2a     	jmp	$2a0a <printf+0xcec>
    248d: a2 01        	ldx	#$1
    248f: 86 73        	stx	$73                     ; 0x73 <__zp_data_size+0x43>
    2491: 64 16        	stz	$16                     ; 0x16 <__rc6>
    2493: ca           	dex
    2494: 80 08        	bra	$249e <printf+0x780>
    2496: a6 70        	ldx	$70                     ; 0x70 <__zp_data_size+0x40>
    2498: 86 af        	stx	$af                     ; 0xaf <__zp_data_size+0x7f>
    249a: a2 00        	ldx	#$0
    249c: 86 73        	stx	$73                     ; 0x73 <__zp_data_size+0x43>
    249e: 86 70        	stx	$70                     ; 0x70 <__zp_data_size+0x40>
    24a0: a5 71        	lda	$71                     ; 0x71 <__zp_data_size+0x41>
    24a2: d0 08        	bne	$24ac <printf+0x78e>
    24a4: a5 af        	lda	$af                     ; 0xaf <__zp_data_size+0x7f>
    24a6: c5 74        	cmp	$74                     ; 0x74 <__zp_data_size+0x44>
    24a8: 85 12        	sta	$12                     ; 0x12 <__rc2>
    24aa: 80 08        	bra	$24b4 <printf+0x796>
    24ac: a6 71        	ldx	$71                     ; 0x71 <__zp_data_size+0x41>
    24ae: e0 00        	cpx	#$0
    24b0: a6 af        	ldx	$af                     ; 0xaf <__zp_data_size+0x7f>
    24b2: 86 12        	stx	$12                     ; 0x12 <__rc2>
    24b4: a6 71        	ldx	$71                     ; 0x71 <__zp_data_size+0x41>
    24b6: 86 13        	stx	$13                     ; 0x13 <__rc3>
    24b8: b0 06        	bcs	$24c0 <printf+0x7a2>
    24ba: a6 74        	ldx	$74                     ; 0x74 <__zp_data_size+0x44>
    24bc: 86 12        	stx	$12                     ; 0x12 <__rc2>
    24be: 64 13        	stz	$13                     ; 0x13 <__rc3>
    24c0: a5 16        	lda	$16                     ; 0x16 <__rc6>
    24c2: 18           	clc
    24c3: 65 12        	adc	$12                     ; 0x12 <__rc2>
    24c5: aa           	tax
    24c6: 85 14        	sta	$14                     ; 0x14 <__rc4>
    24c8: a5 13        	lda	$13                     ; 0x13 <__rc3>
    24ca: 69 00        	adc	#$0
    24cc: 85 15        	sta	$15                     ; 0x15 <__rc5>
    24ce: c5 1a        	cmp	$1a                     ; 0x1a <__rc10>
    24d0: d0 04        	bne	$24d6 <printf+0x7b8>
    24d2: e4 17        	cpx	$17                     ; 0x17 <__rc7>
    24d4: 80 02        	bra	$24d8 <printf+0x7ba>
    24d6: c5 1a        	cmp	$1a                     ; 0x1a <__rc10>
    24d8: 64 75        	stz	$75                     ; 0x75 <__zp_data_size+0x45>
    24da: 64 6b        	stz	$6b                     ; 0x6b <__zp_data_size+0x3b>
    24dc: a6 74        	ldx	$74                     ; 0x74 <__zp_data_size+0x44>
    24de: 90 03        	bcc	$24e3 <printf+0x7c5>
    24e0: 4c 99 25     	jmp	$2599 <printf+0x87b>
    24e3: a5 6a        	lda	$6a                     ; 0x6a <__zp_data_size+0x3a>
    24e5: 29 11        	and	#$11
    24e7: f0 10        	beq	$24f9 <printf+0x7db>
    24e9: a5 17        	lda	$17                     ; 0x17 <__rc7>
    24eb: 38           	sec
    24ec: e5 14        	sbc	$14                     ; 0x14 <__rc4>
    24ee: 85 75        	sta	$75                     ; 0x75 <__zp_data_size+0x45>
    24f0: a5 1a        	lda	$1a                     ; 0x1a <__rc10>
    24f2: e5 15        	sbc	$15                     ; 0x15 <__rc5>
    24f4: 85 6b        	sta	$6b                     ; 0x6b <__zp_data_size+0x3b>
    24f6: 4c 99 25     	jmp	$2599 <printf+0x87b>
    24f9: a2 01        	ldx	#$1
    24fb: 86 14        	stx	$14                     ; 0x14 <__rc4>
    24fd: a6 9f        	ldx	$9f                     ; 0x9f <__zp_data_size+0x6f>
    24ff: 86 15        	stx	$15                     ; 0x15 <__rc5>
    2501: 38           	sec
    2502: a5 16        	lda	$16                     ; 0x16 <__rc6>
    2504: e5 17        	sbc	$17                     ; 0x17 <__rc7>
    2506: aa           	tax
    2507: a9 00        	lda	#$0
    2509: e5 1a        	sbc	$1a                     ; 0x1a <__rc10>
    250b: a8           	tay
    250c: 18           	clc
    250d: 8a           	txa
    250e: 65 12        	adc	$12                     ; 0x12 <__rc2>
    2510: 85 6a        	sta	$6a                     ; 0x6a <__zp_data_size+0x3a>
    2512: 98           	tya
    2513: 65 13        	adc	$13                     ; 0x13 <__rc3>
    2515: a4 a0        	ldy	$a0                     ; 0xa0 <__zp_data_size+0x70>
    2517: 4c 79 25     	jmp	$2579 <printf+0x85b>
    251a: 84 16        	sty	$16                     ; 0x16 <__rc6>
    251c: c4 9e        	cpy	$9e                     ; 0x9e <__zp_data_size+0x6e>
    251e: b0 3b        	bcs	$255b <printf+0x83d>
    2520: a6 aa        	ldx	$aa                     ; 0xaa <__zp_data_size+0x7a>
    2522: a0 00        	ldy	#$0
    2524: 84 12        	sty	$12                     ; 0x12 <__rc2>
    2526: a0 00        	ldy	#$0
    2528: 84 13        	sty	$13                     ; 0x13 <__rc3>
    252a: e4 13        	cpx	$13                     ; 0x13 <__rc3>
    252c: d0 1d        	bne	$254b <printf+0x82d>
    252e: a6 a9        	ldx	$a9                     ; 0xa9 <__zp_data_size+0x79>
    2530: e4 12        	cpx	$12                     ; 0x12 <__rc2>
    2532: d0 17        	bne	$254b <printf+0x82d>
    2534: a2 01        	ldx	#$1
    2536: 86 14        	stx	$14                     ; 0x14 <__rc4>
    2538: 18           	clc
    2539: a5 15        	lda	$15                     ; 0x15 <__rc5>
    253b: 65 a3        	adc	$a3                     ; 0xa3 <__zp_data_size+0x73>
    253d: 85 12        	sta	$12                     ; 0x12 <__rc2>
    253f: a5 16        	lda	$16                     ; 0x16 <__rc6>
    2541: 65 a4        	adc	$a4                     ; 0xa4 <__zp_data_size+0x74>
    2543: 85 13        	sta	$13                     ; 0x13 <__rc3>
    2545: a9 20        	lda	#$20
    2547: 92 12        	sta	($12)                   ; 0x12 <__rc2>
    2549: 80 0e        	bra	$2559 <printf+0x83b>
    254b: a2 01        	ldx	#$1
    254d: 86 72        	stx	$72                     ; 0x72 <__zp_data_size+0x42>
    254f: ca           	dex
    2550: a9 20        	lda	#$20
    2552: 20 4f 2a     	jsr	$2a4f <putchar>
    2555: a6 72        	ldx	$72                     ; 0x72 <__zp_data_size+0x42>
    2557: 86 14        	stx	$14                     ; 0x14 <__rc4>
    2559: a5 6b        	lda	$6b                     ; 0x6b <__zp_data_size+0x3b>
    255b: a6 9f        	ldx	$9f                     ; 0x9f <__zp_data_size+0x6f>
    255d: a4 a0        	ldy	$a0                     ; 0xa0 <__zp_data_size+0x70>
    255f: e8           	inx
    2560: d0 01        	bne	$2563 <printf+0x845>
    2562: c8           	iny
    2563: 86 15        	stx	$15                     ; 0x15 <__rc5>
    2565: 86 9f        	stx	$9f                     ; 0x9f <__zp_data_size+0x6f>
    2567: 84 a0        	sty	$a0                     ; 0xa0 <__zp_data_size+0x70>
    2569: a6 6a        	ldx	$6a                     ; 0x6a <__zp_data_size+0x3a>
    256b: e8           	inx
    256c: d0 01        	bne	$256f <printf+0x851>
    256e: 1a           	inc
    256f: 86 6a        	stx	$6a                     ; 0x6a <__zp_data_size+0x3a>
    2571: c9 00        	cmp	#$0
    2573: d0 04        	bne	$2579 <printf+0x85b>
    2575: e0 00        	cpx	#$0
    2577: f0 18        	beq	$2591 <printf+0x873>
    2579: 85 6b        	sta	$6b                     ; 0x6b <__zp_data_size+0x3b>
    257b: c4 9e        	cpy	$9e                     ; 0x9e <__zp_data_size+0x6e>
    257d: f0 03        	beq	$2582 <printf+0x864>
    257f: 4c 1a 25     	jmp	$251a <printf+0x7fc>
    2582: 84 16        	sty	$16                     ; 0x16 <__rc6>
    2584: a6 9d        	ldx	$9d                     ; 0x9d <__zp_data_size+0x6d>
    2586: 86 12        	stx	$12                     ; 0x12 <__rc2>
    2588: a6 15        	ldx	$15                     ; 0x15 <__rc5>
    258a: e4 12        	cpx	$12                     ; 0x12 <__rc2>
    258c: b0 cd        	bcs	$255b <printf+0x83d>
    258e: 4c 20 25     	jmp	$2520 <printf+0x802>
    2591: 64 75        	stz	$75                     ; 0x75 <__zp_data_size+0x45>
    2593: 64 6b        	stz	$6b                     ; 0x6b <__zp_data_size+0x3b>
    2595: a6 74        	ldx	$74                     ; 0x74 <__zp_data_size+0x44>
    2597: a4 14        	ldy	$14                     ; 0x14 <__rc4>
    2599: a5 73        	lda	$73                     ; 0x73 <__zp_data_size+0x43>
    259b: f0 03        	beq	$25a0 <printf+0x882>
    259d: 4c 01 26     	jmp	$2601 <printf+0x8e3>
    25a0: a6 9f        	ldx	$9f                     ; 0x9f <__zp_data_size+0x6f>
    25a2: a5 a0        	lda	$a0                     ; 0xa0 <__zp_data_size+0x70>
    25a4: c5 9e        	cmp	$9e                     ; 0x9e <__zp_data_size+0x6e>
    25a6: d0 10        	bne	$25b8 <printf+0x89a>
    25a8: 86 13        	stx	$13                     ; 0x13 <__rc3>
    25aa: a6 9d        	ldx	$9d                     ; 0x9d <__zp_data_size+0x6d>
    25ac: 86 12        	stx	$12                     ; 0x12 <__rc2>
    25ae: a6 13        	ldx	$13                     ; 0x13 <__rc3>
    25b0: 86 15        	stx	$15                     ; 0x15 <__rc5>
    25b2: e4 12        	cpx	$12                     ; 0x12 <__rc2>
    25b4: 90 08        	bcc	$25be <printf+0x8a0>
    25b6: 80 41        	bra	$25f9 <printf+0x8db>
    25b8: 86 15        	stx	$15                     ; 0x15 <__rc5>
    25ba: c5 9e        	cmp	$9e                     ; 0x9e <__zp_data_size+0x6e>
    25bc: b0 3b        	bcs	$25f9 <printf+0x8db>
    25be: a2 01        	ldx	#$1
    25c0: 86 14        	stx	$14                     ; 0x14 <__rc4>
    25c2: a6 aa        	ldx	$aa                     ; 0xaa <__zp_data_size+0x7a>
    25c4: a0 00        	ldy	#$0
    25c6: 84 12        	sty	$12                     ; 0x12 <__rc2>
    25c8: a0 00        	ldy	#$0
    25ca: 84 13        	sty	$13                     ; 0x13 <__rc3>
    25cc: e4 13        	cpx	$13                     ; 0x13 <__rc3>
    25ce: d0 1d        	bne	$25ed <printf+0x8cf>
    25d0: a6 a9        	ldx	$a9                     ; 0xa9 <__zp_data_size+0x79>
    25d2: e4 12        	cpx	$12                     ; 0x12 <__rc2>
    25d4: d0 17        	bne	$25ed <printf+0x8cf>
    25d6: a4 14        	ldy	$14                     ; 0x14 <__rc4>
    25d8: 18           	clc
    25d9: 85 16        	sta	$16                     ; 0x16 <__rc6>
    25db: a5 15        	lda	$15                     ; 0x15 <__rc5>
    25dd: 65 a3        	adc	$a3                     ; 0xa3 <__zp_data_size+0x73>
    25df: 85 12        	sta	$12                     ; 0x12 <__rc2>
    25e1: a5 16        	lda	$16                     ; 0x16 <__rc6>
    25e3: 65 a4        	adc	$a4                     ; 0xa4 <__zp_data_size+0x74>
    25e5: 85 13        	sta	$13                     ; 0x13 <__rc3>
    25e7: a5 b0        	lda	$b0                     ; 0xb0 <__zp_data_size+0x80>
    25e9: 92 12        	sta	($12)                   ; 0x12 <__rc2>
    25eb: 80 0c        	bra	$25f9 <printf+0x8db>
    25ed: a2 01        	ldx	#$1
    25ef: 86 72        	stx	$72                     ; 0x72 <__zp_data_size+0x42>
    25f1: ca           	dex
    25f2: a5 b0        	lda	$b0                     ; 0xb0 <__zp_data_size+0x80>
    25f4: 20 4f 2a     	jsr	$2a4f <putchar>
    25f7: a4 72        	ldy	$72                     ; 0x72 <__zp_data_size+0x42>
    25f9: e6 9f        	inc	$9f                     ; 0x9f <__zp_data_size+0x6f>
    25fb: d0 02        	bne	$25ff <printf+0x8e1>
    25fd: e6 a0        	inc	$a0                     ; 0xa0 <__zp_data_size+0x70>
    25ff: a6 74        	ldx	$74                     ; 0x74 <__zp_data_size+0x44>
    2601: a5 70        	lda	$70                     ; 0x70 <__zp_data_size+0x40>
    2603: d0 03        	bne	$2608 <printf+0x8ea>
    2605: 4c 69 26     	jmp	$2669 <printf+0x94b>
    2608: a6 9f        	ldx	$9f                     ; 0x9f <__zp_data_size+0x6f>
    260a: a5 a0        	lda	$a0                     ; 0xa0 <__zp_data_size+0x70>
    260c: c5 9e        	cmp	$9e                     ; 0x9e <__zp_data_size+0x6e>
    260e: d0 10        	bne	$2620 <printf+0x902>
    2610: 86 13        	stx	$13                     ; 0x13 <__rc3>
    2612: a6 9d        	ldx	$9d                     ; 0x9d <__zp_data_size+0x6d>
    2614: 86 12        	stx	$12                     ; 0x12 <__rc2>
    2616: a6 13        	ldx	$13                     ; 0x13 <__rc3>
    2618: 86 15        	stx	$15                     ; 0x15 <__rc5>
    261a: e4 12        	cpx	$12                     ; 0x12 <__rc2>
    261c: 90 08        	bcc	$2626 <printf+0x908>
    261e: 80 41        	bra	$2661 <printf+0x943>
    2620: 86 15        	stx	$15                     ; 0x15 <__rc5>
    2622: c5 9e        	cmp	$9e                     ; 0x9e <__zp_data_size+0x6e>
    2624: b0 3b        	bcs	$2661 <printf+0x943>
    2626: a2 01        	ldx	#$1
    2628: 86 14        	stx	$14                     ; 0x14 <__rc4>
    262a: a6 aa        	ldx	$aa                     ; 0xaa <__zp_data_size+0x7a>
    262c: a0 00        	ldy	#$0
    262e: 84 12        	sty	$12                     ; 0x12 <__rc2>
    2630: a0 00        	ldy	#$0
    2632: 84 13        	sty	$13                     ; 0x13 <__rc3>
    2634: e4 13        	cpx	$13                     ; 0x13 <__rc3>
    2636: d0 1d        	bne	$2655 <printf+0x937>
    2638: a6 a9        	ldx	$a9                     ; 0xa9 <__zp_data_size+0x79>
    263a: e4 12        	cpx	$12                     ; 0x12 <__rc2>
    263c: d0 17        	bne	$2655 <printf+0x937>
    263e: a4 14        	ldy	$14                     ; 0x14 <__rc4>
    2640: 18           	clc
    2641: 85 16        	sta	$16                     ; 0x16 <__rc6>
    2643: a5 15        	lda	$15                     ; 0x15 <__rc5>
    2645: 65 a3        	adc	$a3                     ; 0xa3 <__zp_data_size+0x73>
    2647: 85 12        	sta	$12                     ; 0x12 <__rc2>
    2649: a5 16        	lda	$16                     ; 0x16 <__rc6>
    264b: 65 a4        	adc	$a4                     ; 0xa4 <__zp_data_size+0x74>
    264d: 85 13        	sta	$13                     ; 0x13 <__rc3>
    264f: a5 b4        	lda	$b4                     ; 0xb4 <__zp_data_size+0x84>
    2651: 92 12        	sta	($12)                   ; 0x12 <__rc2>
    2653: 80 0c        	bra	$2661 <printf+0x943>
    2655: a2 01        	ldx	#$1
    2657: 86 72        	stx	$72                     ; 0x72 <__zp_data_size+0x42>
    2659: ca           	dex
    265a: a5 b4        	lda	$b4                     ; 0xb4 <__zp_data_size+0x84>
    265c: 20 4f 2a     	jsr	$2a4f <putchar>
    265f: a4 72        	ldy	$72                     ; 0x72 <__zp_data_size+0x42>
    2661: e6 9f        	inc	$9f                     ; 0x9f <__zp_data_size+0x6f>
    2663: d0 02        	bne	$2667 <printf+0x949>
    2665: e6 a0        	inc	$a0                     ; 0xa0 <__zp_data_size+0x70>
    2667: a6 74        	ldx	$74                     ; 0x74 <__zp_data_size+0x44>
    2669: a9 10        	lda	#$10
    266b: 25 9b        	and	$9b                     ; 0x9b <__zp_data_size+0x6b>
    266d: d0 07        	bne	$2676 <printf+0x958>
    266f: a5 af        	lda	$af                     ; 0xaf <__zp_data_size+0x7f>
    2671: 85 73        	sta	$73                     ; 0x73 <__zp_data_size+0x43>
    2673: 4c 28 27     	jmp	$2728 <printf+0xa0a>
    2676: 86 13        	stx	$13                     ; 0x13 <__rc3>
    2678: a5 9b        	lda	$9b                     ; 0x9b <__zp_data_size+0x6b>
    267a: 29 01        	and	#$1
    267c: a6 af        	ldx	$af                     ; 0xaf <__zp_data_size+0x7f>
    267e: 86 73        	stx	$73                     ; 0x73 <__zp_data_size+0x43>
    2680: aa           	tax
    2681: f0 03        	beq	$2686 <printf+0x968>
    2683: 4c 1e 27     	jmp	$271e <printf+0xa00>
    2686: a5 75        	lda	$75                     ; 0x75 <__zp_data_size+0x45>
    2688: a6 6b        	ldx	$6b                     ; 0x6b <__zp_data_size+0x3b>
    268a: 86 12        	stx	$12                     ; 0x12 <__rc2>
    268c: a6 12        	ldx	$12                     ; 0x12 <__rc2>
    268e: d0 06        	bne	$2696 <printf+0x978>
    2690: aa           	tax
    2691: d0 03        	bne	$2696 <printf+0x978>
    2693: 4c 45 2a     	jmp	$2a45 <printf+0xd27>
    2696: a6 9f        	ldx	$9f                     ; 0x9f <__zp_data_size+0x6f>
    2698: 86 15        	stx	$15                     ; 0x15 <__rc5>
    269a: a5 a0        	lda	$a0                     ; 0xa0 <__zp_data_size+0x70>
    269c: 4c 0a 27     	jmp	$270a <printf+0x9ec>
    269f: c5 9e        	cmp	$9e                     ; 0x9e <__zp_data_size+0x6e>
    26a1: b0 39        	bcs	$26dc <printf+0x9be>
    26a3: a2 01        	ldx	#$1
    26a5: 86 14        	stx	$14                     ; 0x14 <__rc4>
    26a7: a6 aa        	ldx	$aa                     ; 0xaa <__zp_data_size+0x7a>
    26a9: a0 00        	ldy	#$0
    26ab: 84 12        	sty	$12                     ; 0x12 <__rc2>
    26ad: a0 00        	ldy	#$0
    26af: 84 13        	sty	$13                     ; 0x13 <__rc3>
    26b1: e4 13        	cpx	$13                     ; 0x13 <__rc3>
    26b3: d0 1b        	bne	$26d0 <printf+0x9b2>
    26b5: a6 a9        	ldx	$a9                     ; 0xa9 <__zp_data_size+0x79>
    26b7: e4 12        	cpx	$12                     ; 0x12 <__rc2>
    26b9: d0 15        	bne	$26d0 <printf+0x9b2>
    26bb: a4 14        	ldy	$14                     ; 0x14 <__rc4>
    26bd: 18           	clc
    26be: aa           	tax
    26bf: a5 15        	lda	$15                     ; 0x15 <__rc5>
    26c1: 65 a3        	adc	$a3                     ; 0xa3 <__zp_data_size+0x73>
    26c3: 85 12        	sta	$12                     ; 0x12 <__rc2>
    26c5: 8a           	txa
    26c6: 65 a4        	adc	$a4                     ; 0xa4 <__zp_data_size+0x74>
    26c8: 85 13        	sta	$13                     ; 0x13 <__rc3>
    26ca: a9 30        	lda	#$30
    26cc: 92 12        	sta	($12)                   ; 0x12 <__rc2>
    26ce: 80 0c        	bra	$26dc <printf+0x9be>
    26d0: a2 01        	ldx	#$1
    26d2: 86 72        	stx	$72                     ; 0x72 <__zp_data_size+0x42>
    26d4: ca           	dex
    26d5: a9 30        	lda	#$30
    26d7: 20 4f 2a     	jsr	$2a4f <putchar>
    26da: a4 72        	ldy	$72                     ; 0x72 <__zp_data_size+0x42>
    26dc: a6 9f        	ldx	$9f                     ; 0x9f <__zp_data_size+0x6f>
    26de: a5 a0        	lda	$a0                     ; 0xa0 <__zp_data_size+0x70>
    26e0: e8           	inx
    26e1: d0 01        	bne	$26e4 <printf+0x9c6>
    26e3: 1a           	inc
    26e4: 86 15        	stx	$15                     ; 0x15 <__rc5>
    26e6: 86 9f        	stx	$9f                     ; 0x9f <__zp_data_size+0x6f>
    26e8: 85 a0        	sta	$a0                     ; 0xa0 <__zp_data_size+0x70>
    26ea: a6 75        	ldx	$75                     ; 0x75 <__zp_data_size+0x45>
    26ec: 86 12        	stx	$12                     ; 0x12 <__rc2>
    26ee: a6 6b        	ldx	$6b                     ; 0x6b <__zp_data_size+0x3b>
    26f0: 86 13        	stx	$13                     ; 0x13 <__rc3>
    26f2: a2 ff        	ldx	#$ff
    26f4: c6 12        	dec	$12                     ; 0x12 <__rc2>
    26f6: e4 12        	cpx	$12                     ; 0x12 <__rc2>
    26f8: d0 02        	bne	$26fc <printf+0x9de>
    26fa: c6 13        	dec	$13                     ; 0x13 <__rc3>
    26fc: a6 12        	ldx	$12                     ; 0x12 <__rc2>
    26fe: 86 75        	stx	$75                     ; 0x75 <__zp_data_size+0x45>
    2700: a6 13        	ldx	$13                     ; 0x13 <__rc3>
    2702: 86 6b        	stx	$6b                     ; 0x6b <__zp_data_size+0x3b>
    2704: d0 04        	bne	$270a <printf+0x9ec>
    2706: a6 12        	ldx	$12                     ; 0x12 <__rc2>
    2708: f0 18        	beq	$2722 <printf+0xa04>
    270a: c5 9e        	cmp	$9e                     ; 0x9e <__zp_data_size+0x6e>
    270c: f0 03        	beq	$2711 <printf+0x9f3>
    270e: 4c 9f 26     	jmp	$269f <printf+0x981>
    2711: a6 9d        	ldx	$9d                     ; 0x9d <__zp_data_size+0x6d>
    2713: 86 12        	stx	$12                     ; 0x12 <__rc2>
    2715: a6 15        	ldx	$15                     ; 0x15 <__rc5>
    2717: e4 12        	cpx	$12                     ; 0x12 <__rc2>
    2719: b0 c1        	bcs	$26dc <printf+0x9be>
    271b: 4c a3 26     	jmp	$26a3 <printf+0x985>
    271e: a6 13        	ldx	$13                     ; 0x13 <__rc3>
    2720: 80 06        	bra	$2728 <printf+0xa0a>
    2722: 64 75        	stz	$75                     ; 0x75 <__zp_data_size+0x45>
    2724: 64 6b        	stz	$6b                     ; 0x6b <__zp_data_size+0x3b>
    2726: a6 74        	ldx	$74                     ; 0x74 <__zp_data_size+0x44>
    2728: a9 00        	lda	#$0
    272a: c5 71        	cmp	$71                     ; 0x71 <__zp_data_size+0x41>
    272c: d0 07        	bne	$2735 <printf+0xa17>
    272e: e4 73        	cpx	$73                     ; 0x73 <__zp_data_size+0x43>
    2730: 90 0a        	bcc	$273c <printf+0xa1e>
    2732: 4c bf 27     	jmp	$27bf <printf+0xaa1>
    2735: c5 71        	cmp	$71                     ; 0x71 <__zp_data_size+0x41>
    2737: 90 03        	bcc	$273c <printf+0xa1e>
    2739: 4c bf 27     	jmp	$27bf <printf+0xaa1>
    273c: a6 9f        	ldx	$9f                     ; 0x9f <__zp_data_size+0x6f>
    273e: 86 15        	stx	$15                     ; 0x15 <__rc5>
    2740: a5 a0        	lda	$a0                     ; 0xa0 <__zp_data_size+0x70>
    2742: a2 ff        	ldx	#$ff
    2744: c6 73        	dec	$73                     ; 0x73 <__zp_data_size+0x43>
    2746: e4 73        	cpx	$73                     ; 0x73 <__zp_data_size+0x43>
    2748: d0 02        	bne	$274c <printf+0xa2e>
    274a: c6 71        	dec	$71                     ; 0x71 <__zp_data_size+0x41>
    274c: c5 9e        	cmp	$9e                     ; 0x9e <__zp_data_size+0x6e>
    274e: d0 0c        	bne	$275c <printf+0xa3e>
    2750: a6 9d        	ldx	$9d                     ; 0x9d <__zp_data_size+0x6d>
    2752: 86 12        	stx	$12                     ; 0x12 <__rc2>
    2754: a6 15        	ldx	$15                     ; 0x15 <__rc5>
    2756: e4 12        	cpx	$12                     ; 0x12 <__rc2>
    2758: 90 06        	bcc	$2760 <printf+0xa42>
    275a: 80 3d        	bra	$2799 <printf+0xa7b>
    275c: c5 9e        	cmp	$9e                     ; 0x9e <__zp_data_size+0x6e>
    275e: b0 39        	bcs	$2799 <printf+0xa7b>
    2760: a2 01        	ldx	#$1
    2762: 86 14        	stx	$14                     ; 0x14 <__rc4>
    2764: a6 aa        	ldx	$aa                     ; 0xaa <__zp_data_size+0x7a>
    2766: a0 00        	ldy	#$0
    2768: 84 12        	sty	$12                     ; 0x12 <__rc2>
    276a: a0 00        	ldy	#$0
    276c: 84 13        	sty	$13                     ; 0x13 <__rc3>
    276e: e4 13        	cpx	$13                     ; 0x13 <__rc3>
    2770: d0 1b        	bne	$278d <printf+0xa6f>
    2772: a6 a9        	ldx	$a9                     ; 0xa9 <__zp_data_size+0x79>
    2774: e4 12        	cpx	$12                     ; 0x12 <__rc2>
    2776: d0 15        	bne	$278d <printf+0xa6f>
    2778: a4 14        	ldy	$14                     ; 0x14 <__rc4>
    277a: 18           	clc
    277b: aa           	tax
    277c: a5 15        	lda	$15                     ; 0x15 <__rc5>
    277e: 65 a3        	adc	$a3                     ; 0xa3 <__zp_data_size+0x73>
    2780: 85 12        	sta	$12                     ; 0x12 <__rc2>
    2782: 8a           	txa
    2783: 65 a4        	adc	$a4                     ; 0xa4 <__zp_data_size+0x74>
    2785: 85 13        	sta	$13                     ; 0x13 <__rc3>
    2787: a9 30        	lda	#$30
    2789: 92 12        	sta	($12)                   ; 0x12 <__rc2>
    278b: 80 0c        	bra	$2799 <printf+0xa7b>
    278d: a2 01        	ldx	#$1
    278f: 86 72        	stx	$72                     ; 0x72 <__zp_data_size+0x42>
    2791: ca           	dex
    2792: a9 30        	lda	#$30
    2794: 20 4f 2a     	jsr	$2a4f <putchar>
    2797: a4 72        	ldy	$72                     ; 0x72 <__zp_data_size+0x42>
    2799: a6 9f        	ldx	$9f                     ; 0x9f <__zp_data_size+0x6f>
    279b: a5 a0        	lda	$a0                     ; 0xa0 <__zp_data_size+0x70>
    279d: e8           	inx
    279e: d0 01        	bne	$27a1 <printf+0xa83>
    27a0: 1a           	inc
    27a1: 86 15        	stx	$15                     ; 0x15 <__rc5>
    27a3: 86 9f        	stx	$9f                     ; 0x9f <__zp_data_size+0x6f>
    27a5: 85 a0        	sta	$a0                     ; 0xa0 <__zp_data_size+0x70>
    27a7: a2 00        	ldx	#$0
    27a9: e4 71        	cpx	$71                     ; 0x71 <__zp_data_size+0x41>
    27ab: d0 09        	bne	$27b6 <printf+0xa98>
    27ad: a6 74        	ldx	$74                     ; 0x74 <__zp_data_size+0x44>
    27af: e4 73        	cpx	$73                     ; 0x73 <__zp_data_size+0x43>
    27b1: b0 0c        	bcs	$27bf <printf+0xaa1>
    27b3: 4c 42 27     	jmp	$2742 <printf+0xa24>
    27b6: e4 71        	cpx	$71                     ; 0x71 <__zp_data_size+0x41>
    27b8: a6 74        	ldx	$74                     ; 0x74 <__zp_data_size+0x44>
    27ba: b0 03        	bcs	$27bf <printf+0xaa1>
    27bc: 4c 42 27     	jmp	$2742 <printf+0xa24>
    27bf: 8a           	txa
    27c0: d0 03        	bne	$27c5 <printf+0xaa7>
    27c2: 4c f6 28     	jmp	$28f6 <printf+0xbd8>
    27c5: ca           	dex
    27c6: d0 03        	bne	$27cb <printf+0xaad>
    27c8: 4c 78 28     	jmp	$2878 <printf+0xb5a>
    27cb: 86 72        	stx	$72                     ; 0x72 <__zp_data_size+0x42>
    27cd: a6 b6        	ldx	$b6                     ; 0xb6 <__zp_data_size+0x86>
    27cf: 8a           	txa
    27d0: 18           	clc
    27d1: 65 72        	adc	$72                     ; 0x72 <__zp_data_size+0x42>
    27d3: 85 70        	sta	$70                     ; 0x70 <__zp_data_size+0x40>
    27d5: a5 b7        	lda	$b7                     ; 0xb7 <__zp_data_size+0x87>
    27d7: 69 00        	adc	#$0
    27d9: 85 71        	sta	$71                     ; 0x71 <__zp_data_size+0x41>
    27db: 4c 66 28     	jmp	$2866 <printf+0xb48>
    27de: 85 13        	sta	$13                     ; 0x13 <__rc3>
    27e0: a9 80        	lda	#$80
    27e2: 25 9b        	and	$9b                     ; 0x9b <__zp_data_size+0x6b>
    27e4: f0 04        	beq	$27ea <printf+0xacc>
    27e6: a2 61        	ldx	#$61
    27e8: 80 02        	bra	$27ec <printf+0xace>
    27ea: a2 41        	ldx	#$41
    27ec: 86 12        	stx	$12                     ; 0x12 <__rc2>
    27ee: a2 01        	ldx	#$1
    27f0: 86 14        	stx	$14                     ; 0x14 <__rc4>
    27f2: 18           	clc
    27f3: a5 13        	lda	$13                     ; 0x13 <__rc3>
    27f5: 65 12        	adc	$12                     ; 0x12 <__rc2>
    27f7: 18           	clc
    27f8: 69 f6        	adc	#$f6
    27fa: a4 9f        	ldy	$9f                     ; 0x9f <__zp_data_size+0x6f>
    27fc: a6 a0        	ldx	$a0                     ; 0xa0 <__zp_data_size+0x70>
    27fe: e4 9e        	cpx	$9e                     ; 0x9e <__zp_data_size+0x6e>
    2800: d0 0c        	bne	$280e <printf+0xaf0>
    2802: 86 16        	stx	$16                     ; 0x16 <__rc6>
    2804: a6 9d        	ldx	$9d                     ; 0x9d <__zp_data_size+0x6d>
    2806: 86 12        	stx	$12                     ; 0x12 <__rc2>
    2808: 84 15        	sty	$15                     ; 0x15 <__rc5>
    280a: c4 12        	cpy	$12                     ; 0x12 <__rc2>
    280c: 80 06        	bra	$2814 <printf+0xaf6>
    280e: 84 15        	sty	$15                     ; 0x15 <__rc5>
    2810: 86 16        	stx	$16                     ; 0x16 <__rc6>
    2812: e4 9e        	cpx	$9e                     ; 0x9e <__zp_data_size+0x6e>
    2814: a4 14        	ldy	$14                     ; 0x14 <__rc4>
    2816: b0 38        	bcs	$2850 <printf+0xb32>
    2818: 85 14        	sta	$14                     ; 0x14 <__rc4>
    281a: a9 01        	lda	#$1
    281c: a6 aa        	ldx	$aa                     ; 0xaa <__zp_data_size+0x7a>
    281e: a0 00        	ldy	#$0
    2820: 84 12        	sty	$12                     ; 0x12 <__rc2>
    2822: a0 00        	ldy	#$0
    2824: 84 13        	sty	$13                     ; 0x13 <__rc3>
    2826: e4 13        	cpx	$13                     ; 0x13 <__rc3>
    2828: d0 1a        	bne	$2844 <printf+0xb26>
    282a: a6 a9        	ldx	$a9                     ; 0xa9 <__zp_data_size+0x79>
    282c: e4 12        	cpx	$12                     ; 0x12 <__rc2>
    282e: d0 14        	bne	$2844 <printf+0xb26>
    2830: a8           	tay
    2831: 18           	clc
    2832: a5 15        	lda	$15                     ; 0x15 <__rc5>
    2834: 65 a3        	adc	$a3                     ; 0xa3 <__zp_data_size+0x73>
    2836: 85 12        	sta	$12                     ; 0x12 <__rc2>
    2838: a5 16        	lda	$16                     ; 0x16 <__rc6>
    283a: 65 a4        	adc	$a4                     ; 0xa4 <__zp_data_size+0x74>
    283c: 85 13        	sta	$13                     ; 0x13 <__rc3>
    283e: a5 14        	lda	$14                     ; 0x14 <__rc4>
    2840: 92 12        	sta	($12)                   ; 0x12 <__rc2>
    2842: 80 0c        	bra	$2850 <printf+0xb32>
    2844: a2 01        	ldx	#$1
    2846: 86 73        	stx	$73                     ; 0x73 <__zp_data_size+0x43>
    2848: ca           	dex
    2849: a5 14        	lda	$14                     ; 0x14 <__rc4>
    284b: 20 4f 2a     	jsr	$2a4f <putchar>
    284e: a4 73        	ldy	$73                     ; 0x73 <__zp_data_size+0x43>
    2850: e6 9f        	inc	$9f                     ; 0x9f <__zp_data_size+0x6f>
    2852: d0 02        	bne	$2856 <printf+0xb38>
    2854: e6 a0        	inc	$a0                     ; 0xa0 <__zp_data_size+0x70>
    2856: c6 72        	dec	$72                     ; 0x72 <__zp_data_size+0x42>
    2858: a2 ff        	ldx	#$ff
    285a: c6 70        	dec	$70                     ; 0x70 <__zp_data_size+0x40>
    285c: e4 70        	cpx	$70                     ; 0x70 <__zp_data_size+0x40>
    285e: d0 02        	bne	$2862 <printf+0xb44>
    2860: c6 71        	dec	$71                     ; 0x71 <__zp_data_size+0x41>
    2862: a5 72        	lda	$72                     ; 0x72 <__zp_data_size+0x42>
    2864: f0 12        	beq	$2878 <printf+0xb5a>
    2866: b2 70        	lda	($70)                   ; 0x70 <__zp_data_size+0x40>
    2868: c9 0a        	cmp	#$a
    286a: 90 03        	bcc	$286f <printf+0xb51>
    286c: 4c de 27     	jmp	$27de <printf+0xac0>
    286f: a2 01        	ldx	#$1
    2871: 86 14        	stx	$14                     ; 0x14 <__rc4>
    2873: 09 30        	ora	#$30
    2875: 4c fa 27     	jmp	$27fa <printf+0xadc>
    2878: a5 78        	lda	$78                     ; 0x78 <__zp_data_size+0x48>
    287a: c9 0a        	cmp	#$a
    287c: b0 04        	bcs	$2882 <printf+0xb64>
    287e: 09 30        	ora	#$30
    2880: 80 18        	bra	$289a <printf+0xb7c>
    2882: 85 13        	sta	$13                     ; 0x13 <__rc3>
    2884: a9 80        	lda	#$80
    2886: 25 9b        	and	$9b                     ; 0x9b <__zp_data_size+0x6b>
    2888: f0 04        	beq	$288e <printf+0xb70>
    288a: a2 61        	ldx	#$61
    288c: 80 02        	bra	$2890 <printf+0xb72>
    288e: a2 41        	ldx	#$41
    2890: 86 12        	stx	$12                     ; 0x12 <__rc2>
    2892: 18           	clc
    2893: a5 13        	lda	$13                     ; 0x13 <__rc3>
    2895: 65 12        	adc	$12                     ; 0x12 <__rc2>
    2897: 18           	clc
    2898: 69 f6        	adc	#$f6
    289a: a6 9f        	ldx	$9f                     ; 0x9f <__zp_data_size+0x6f>
    289c: 86 15        	stx	$15                     ; 0x15 <__rc5>
    289e: a6 a0        	ldx	$a0                     ; 0xa0 <__zp_data_size+0x70>
    28a0: e4 9e        	cpx	$9e                     ; 0x9e <__zp_data_size+0x6e>
    28a2: d0 0e        	bne	$28b2 <printf+0xb94>
    28a4: 86 16        	stx	$16                     ; 0x16 <__rc6>
    28a6: a6 9d        	ldx	$9d                     ; 0x9d <__zp_data_size+0x6d>
    28a8: 86 12        	stx	$12                     ; 0x12 <__rc2>
    28aa: a6 15        	ldx	$15                     ; 0x15 <__rc5>
    28ac: e4 12        	cpx	$12                     ; 0x12 <__rc2>
    28ae: 90 08        	bcc	$28b8 <printf+0xb9a>
    28b0: 80 3e        	bra	$28f0 <printf+0xbd2>
    28b2: 86 16        	stx	$16                     ; 0x16 <__rc6>
    28b4: e4 9e        	cpx	$9e                     ; 0x9e <__zp_data_size+0x6e>
    28b6: b0 38        	bcs	$28f0 <printf+0xbd2>
    28b8: 85 14        	sta	$14                     ; 0x14 <__rc4>
    28ba: a9 01        	lda	#$1
    28bc: a6 aa        	ldx	$aa                     ; 0xaa <__zp_data_size+0x7a>
    28be: a0 00        	ldy	#$0
    28c0: 84 12        	sty	$12                     ; 0x12 <__rc2>
    28c2: a0 00        	ldy	#$0
    28c4: 84 13        	sty	$13                     ; 0x13 <__rc3>
    28c6: e4 13        	cpx	$13                     ; 0x13 <__rc3>
    28c8: d0 1a        	bne	$28e4 <printf+0xbc6>
    28ca: a6 a9        	ldx	$a9                     ; 0xa9 <__zp_data_size+0x79>
    28cc: e4 12        	cpx	$12                     ; 0x12 <__rc2>
    28ce: d0 14        	bne	$28e4 <printf+0xbc6>
    28d0: a8           	tay
    28d1: 18           	clc
    28d2: a5 15        	lda	$15                     ; 0x15 <__rc5>
    28d4: 65 a3        	adc	$a3                     ; 0xa3 <__zp_data_size+0x73>
    28d6: 85 12        	sta	$12                     ; 0x12 <__rc2>
    28d8: a5 16        	lda	$16                     ; 0x16 <__rc6>
    28da: 65 a4        	adc	$a4                     ; 0xa4 <__zp_data_size+0x74>
    28dc: 85 13        	sta	$13                     ; 0x13 <__rc3>
    28de: a5 14        	lda	$14                     ; 0x14 <__rc4>
    28e0: 92 12        	sta	($12)                   ; 0x12 <__rc2>
    28e2: 80 0c        	bra	$28f0 <printf+0xbd2>
    28e4: a2 01        	ldx	#$1
    28e6: 86 70        	stx	$70                     ; 0x70 <__zp_data_size+0x40>
    28e8: ca           	dex
    28e9: a5 14        	lda	$14                     ; 0x14 <__rc4>
    28eb: 20 4f 2a     	jsr	$2a4f <putchar>
    28ee: a4 70        	ldy	$70                     ; 0x70 <__zp_data_size+0x40>
    28f0: e6 9f        	inc	$9f                     ; 0x9f <__zp_data_size+0x6f>
    28f2: d0 02        	bne	$28f6 <printf+0xbd8>
    28f4: e6 a0        	inc	$a0                     ; 0xa0 <__zp_data_size+0x70>
    28f6: a5 9b        	lda	$9b                     ; 0x9b <__zp_data_size+0x6b>
    28f8: 29 01        	and	#$1
    28fa: d0 27        	bne	$2923 <printf+0xc05>
    28fc: a6 9f        	ldx	$9f                     ; 0x9f <__zp_data_size+0x6f>
    28fe: 86 15        	stx	$15                     ; 0x15 <__rc5>
    2900: a5 a0        	lda	$a0                     ; 0xa0 <__zp_data_size+0x70>
    2902: a6 9d        	ldx	$9d                     ; 0x9d <__zp_data_size+0x6d>
    2904: 86 14        	stx	$14                     ; 0x14 <__rc4>
    2906: a6 9e        	ldx	$9e                     ; 0x9e <__zp_data_size+0x6e>
    2908: 86 12        	stx	$12                     ; 0x12 <__rc2>
    290a: 86 13        	stx	$13                     ; 0x13 <__rc3>
    290c: c5 12        	cmp	$12                     ; 0x12 <__rc2>
    290e: f0 03        	beq	$2913 <printf+0xbf5>
    2910: 4c c3 29     	jmp	$29c3 <printf+0xca5>
    2913: a5 14        	lda	$14                     ; 0x14 <__rc4>
    2915: 85 12        	sta	$12                     ; 0x12 <__rc2>
    2917: a6 15        	ldx	$15                     ; 0x15 <__rc5>
    2919: e4 12        	cpx	$12                     ; 0x12 <__rc2>
    291b: 90 03        	bcc	$2920 <printf+0xc02>
    291d: 4c cb 29     	jmp	$29cb <printf+0xcad>
    2920: 4c eb 29     	jmp	$29eb <printf+0xccd>
    2923: a6 9f        	ldx	$9f                     ; 0x9f <__zp_data_size+0x6f>
    2925: 86 15        	stx	$15                     ; 0x15 <__rc5>
    2927: a5 a0        	lda	$a0                     ; 0xa0 <__zp_data_size+0x70>
    2929: a6 75        	ldx	$75                     ; 0x75 <__zp_data_size+0x45>
    292b: 5a           	phy
    292c: a4 6b        	ldy	$6b                     ; 0x6b <__zp_data_size+0x3b>
    292e: 84 12        	sty	$12                     ; 0x12 <__rc2>
    2930: 7a           	ply
    2931: e6 12        	inc	$12                     ; 0x12 <__rc2>
    2933: c6 12        	dec	$12                     ; 0x12 <__rc2>
    2935: f0 03        	beq	$293a <printf+0xc1c>
    2937: 4c af 29     	jmp	$29af <printf+0xc91>
    293a: e0 00        	cpx	#$0
    293c: f0 c4        	beq	$2902 <printf+0xbe4>
    293e: 4c af 29     	jmp	$29af <printf+0xc91>
    2941: c5 9e        	cmp	$9e                     ; 0x9e <__zp_data_size+0x6e>
    2943: b0 39        	bcs	$297e <printf+0xc60>
    2945: a2 01        	ldx	#$1
    2947: 86 14        	stx	$14                     ; 0x14 <__rc4>
    2949: a6 aa        	ldx	$aa                     ; 0xaa <__zp_data_size+0x7a>
    294b: a0 00        	ldy	#$0
    294d: 84 12        	sty	$12                     ; 0x12 <__rc2>
    294f: a0 00        	ldy	#$0
    2951: 84 13        	sty	$13                     ; 0x13 <__rc3>
    2953: e4 13        	cpx	$13                     ; 0x13 <__rc3>
    2955: d0 1b        	bne	$2972 <printf+0xc54>
    2957: a6 a9        	ldx	$a9                     ; 0xa9 <__zp_data_size+0x79>
    2959: e4 12        	cpx	$12                     ; 0x12 <__rc2>
    295b: d0 15        	bne	$2972 <printf+0xc54>
    295d: a4 14        	ldy	$14                     ; 0x14 <__rc4>
    295f: 18           	clc
    2960: aa           	tax
    2961: a5 15        	lda	$15                     ; 0x15 <__rc5>
    2963: 65 a3        	adc	$a3                     ; 0xa3 <__zp_data_size+0x73>
    2965: 85 12        	sta	$12                     ; 0x12 <__rc2>
    2967: 8a           	txa
    2968: 65 a4        	adc	$a4                     ; 0xa4 <__zp_data_size+0x74>
    296a: 85 13        	sta	$13                     ; 0x13 <__rc3>
    296c: a9 20        	lda	#$20
    296e: 92 12        	sta	($12)                   ; 0x12 <__rc2>
    2970: 80 0c        	bra	$297e <printf+0xc60>
    2972: a2 01        	ldx	#$1
    2974: 86 70        	stx	$70                     ; 0x70 <__zp_data_size+0x40>
    2976: ca           	dex
    2977: a9 20        	lda	#$20
    2979: 20 4f 2a     	jsr	$2a4f <putchar>
    297c: a4 70        	ldy	$70                     ; 0x70 <__zp_data_size+0x40>
    297e: a6 9f        	ldx	$9f                     ; 0x9f <__zp_data_size+0x6f>
    2980: a5 a0        	lda	$a0                     ; 0xa0 <__zp_data_size+0x70>
    2982: e8           	inx
    2983: d0 01        	bne	$2986 <printf+0xc68>
    2985: 1a           	inc
    2986: 86 15        	stx	$15                     ; 0x15 <__rc5>
    2988: 86 9f        	stx	$9f                     ; 0x9f <__zp_data_size+0x6f>
    298a: 85 a0        	sta	$a0                     ; 0xa0 <__zp_data_size+0x70>
    298c: a6 75        	ldx	$75                     ; 0x75 <__zp_data_size+0x45>
    298e: 86 12        	stx	$12                     ; 0x12 <__rc2>
    2990: a6 6b        	ldx	$6b                     ; 0x6b <__zp_data_size+0x3b>
    2992: 86 13        	stx	$13                     ; 0x13 <__rc3>
    2994: a2 ff        	ldx	#$ff
    2996: c6 12        	dec	$12                     ; 0x12 <__rc2>
    2998: e4 12        	cpx	$12                     ; 0x12 <__rc2>
    299a: d0 02        	bne	$299e <printf+0xc80>
    299c: c6 13        	dec	$13                     ; 0x13 <__rc3>
    299e: a6 12        	ldx	$12                     ; 0x12 <__rc2>
    29a0: 86 75        	stx	$75                     ; 0x75 <__zp_data_size+0x45>
    29a2: a6 13        	ldx	$13                     ; 0x13 <__rc3>
    29a4: 86 6b        	stx	$6b                     ; 0x6b <__zp_data_size+0x3b>
    29a6: d0 07        	bne	$29af <printf+0xc91>
    29a8: a6 12        	ldx	$12                     ; 0x12 <__rc2>
    29aa: d0 03        	bne	$29af <printf+0xc91>
    29ac: 4c 02 29     	jmp	$2902 <printf+0xbe4>
    29af: c5 9e        	cmp	$9e                     ; 0x9e <__zp_data_size+0x6e>
    29b1: f0 03        	beq	$29b6 <printf+0xc98>
    29b3: 4c 41 29     	jmp	$2941 <printf+0xc23>
    29b6: a6 9d        	ldx	$9d                     ; 0x9d <__zp_data_size+0x6d>
    29b8: 86 12        	stx	$12                     ; 0x12 <__rc2>
    29ba: a6 15        	ldx	$15                     ; 0x15 <__rc5>
    29bc: e4 12        	cpx	$12                     ; 0x12 <__rc2>
    29be: b0 be        	bcs	$297e <printf+0xc60>
    29c0: 4c 45 29     	jmp	$2945 <printf+0xc27>
    29c3: 86 12        	stx	$12                     ; 0x12 <__rc2>
    29c5: c5 12        	cmp	$12                     ; 0x12 <__rc2>
    29c7: a5 14        	lda	$14                     ; 0x14 <__rc4>
    29c9: 90 20        	bcc	$29eb <printf+0xccd>
    29cb: a6 13        	ldx	$13                     ; 0x13 <__rc3>
    29cd: d0 03        	bne	$29d2 <printf+0xcb4>
    29cf: aa           	tax
    29d0: f0 19        	beq	$29eb <printf+0xccd>
    29d2: 18           	clc
    29d3: 65 a3        	adc	$a3                     ; 0xa3 <__zp_data_size+0x73>
    29d5: 85 12        	sta	$12                     ; 0x12 <__rc2>
    29d7: a5 13        	lda	$13                     ; 0x13 <__rc3>
    29d9: 65 a4        	adc	$a4                     ; 0xa4 <__zp_data_size+0x74>
    29db: 85 13        	sta	$13                     ; 0x13 <__rc3>
    29dd: a2 ff        	ldx	#$ff
    29df: c6 12        	dec	$12                     ; 0x12 <__rc2>
    29e1: e4 12        	cpx	$12                     ; 0x12 <__rc2>
    29e3: d0 02        	bne	$29e7 <printf+0xcc9>
    29e5: c6 13        	dec	$13                     ; 0x13 <__rc3>
    29e7: a9 00        	lda	#$0
    29e9: 92 12        	sta	($12)                   ; 0x12 <__rc2>
    29eb: e6 6e        	inc	$6e                     ; 0x6e <__zp_data_size+0x3e>
    29ed: d0 02        	bne	$29f1 <printf+0xcd3>
    29ef: e6 6f        	inc	$6f                     ; 0x6f <__zp_data_size+0x3f>
    29f1: a6 6f        	ldx	$6f                     ; 0x6f <__zp_data_size+0x3f>
    29f3: e4 6d        	cpx	$6d                     ; 0x6d <__zp_data_size+0x3d>
    29f5: f0 03        	beq	$29fa <printf+0xcdc>
    29f7: 4c 83 1d     	jmp	$1d83 <printf+0x65>
    29fa: a6 6e        	ldx	$6e                     ; 0x6e <__zp_data_size+0x3e>
    29fc: e4 6c        	cpx	$6c                     ; 0x6c <__zp_data_size+0x3c>
    29fe: f0 03        	beq	$2a03 <printf+0xce5>
    2a00: 4c 83 1d     	jmp	$1d83 <printf+0x65>
    2a03: b2 6c        	lda	($6c)                   ; 0x6c <__zp_data_size+0x3c>
    2a05: a2 00        	ldx	#$0
    2a07: 4c 9a 1d     	jmp	$1d9a <printf+0x7c>
    2a0a: a2 20        	ldx	#$20
    2a0c: 86 b0        	stx	$b0                     ; 0xb0 <__zp_data_size+0x80>
    2a0e: 4c 9a 24     	jmp	$249a <printf+0x77c>
    2a11: e4 71        	cpx	$71                     ; 0x71 <__zp_data_size+0x41>
    2a13: a6 6a        	ldx	$6a                     ; 0x6a <__zp_data_size+0x3a>
    2a15: b0 03        	bcs	$2a1a <printf+0xcfc>
    2a17: 4c 6c 24     	jmp	$246c <printf+0x74e>
    2a1a: a5 74        	lda	$74                     ; 0x74 <__zp_data_size+0x44>
    2a1c: 85 70        	sta	$70                     ; 0x70 <__zp_data_size+0x40>
    2a1e: 64 71        	stz	$71                     ; 0x71 <__zp_data_size+0x41>
    2a20: e6 70        	inc	$70                     ; 0x70 <__zp_data_size+0x40>
    2a22: f0 03        	beq	$2a27 <printf+0xd09>
    2a24: 4c 6c 24     	jmp	$246c <printf+0x74e>
    2a27: e6 71        	inc	$71                     ; 0x71 <__zp_data_size+0x41>
    2a29: 4c 6c 24     	jmp	$246c <printf+0x74e>
    2a2c: 86 af        	stx	$af                     ; 0xaf <__zp_data_size+0x7f>
    2a2e: a2 58        	ldx	#$58
    2a30: 86 b4        	stx	$b4                     ; 0xb4 <__zp_data_size+0x84>
    2a32: a2 01        	ldx	#$1
    2a34: 86 70        	stx	$70                     ; 0x70 <__zp_data_size+0x40>
    2a36: a2 30        	ldx	#$30
    2a38: 86 b0        	stx	$b0                     ; 0xb0 <__zp_data_size+0x80>
    2a3a: a2 02        	ldx	#$2
    2a3c: 86 16        	stx	$16                     ; 0x16 <__rc6>
    2a3e: a2 00        	ldx	#$0
    2a40: 86 73        	stx	$73                     ; 0x73 <__zp_data_size+0x43>
    2a42: 4c a0 24     	jmp	$24a0 <printf+0x782>
    2a45: a6 13        	ldx	$13                     ; 0x13 <__rc3>
    2a47: 64 75        	stz	$75                     ; 0x75 <__zp_data_size+0x45>
    2a49: 64 6b        	stz	$6b                     ; 0x6b <__zp_data_size+0x3b>
    2a4b: 4c 28 27     	jmp	$2728 <printf+0xa0a>
    2a4e: 60           	rts

00002a4f <putchar>:
    2a4f: 86 12        	stx	$12                     ; 0x12 <__rc2>
    2a51: 85 c4        	sta	$c4                     ; 0xc4 <__zp_data_size+0x94>
    2a53: 85 68        	sta	$68                     ; 0x68 <__putchar.s>
    2a55: a6 01        	ldx	$1                      ; 0x1 <__data_size+0x1>
    2a57: 86 c3        	stx	$c3                     ; 0xc3 <__zp_data_size+0x93>
    2a59: a6 61        	ldx	$61                     ; 0x61 <_row>
    2a5b: a0 50        	ldy	#$50
    2a5d: 98           	tya
    2a5e: 85 c6        	sta	$c6                     ; 0xc6 <__zp_data_size+0x96>
    2a60: 8c 00 de     	sty	$de00                   ; 0xde00 <end_block9+0x61aa>
    2a63: 9c 01 de     	stz	$de01                   ; 0xde01 <end_block9+0x61ab>
    2a66: 8e 02 de     	stx	$de02                   ; 0xde02 <end_block9+0x61ac>
    2a69: 9c 03 de     	stz	$de03                   ; 0xde03 <end_block9+0x61ad>
    2a6c: ae 10 de     	ldx	$de10                   ; 0xde10 <end_block9+0x61ba>
    2a6f: 86 13        	stx	$13                     ; 0x13 <__rc3>
    2a71: ac 11 de     	ldy	$de11                   ; 0xde11 <end_block9+0x61bb>
    2a74: ad 12 de     	lda	$de12                   ; 0xde12 <end_block9+0x61bc>
    2a77: ae 13 de     	ldx	$de13                   ; 0xde13 <end_block9+0x61bd>
    2a7a: 86 1a        	stx	$1a                     ; 0x1a <__rc10>
    2a7c: 9c 08 de     	stz	$de08                   ; 0xde08 <end_block9+0x61b2>
    2a7f: a2 c0        	ldx	#$c0
    2a81: 8e 09 de     	stx	$de09                   ; 0xde09 <end_block9+0x61b3>
    2a84: 9c 0a de     	stz	$de0a                   ; 0xde0a <end_block9+0x61b4>
    2a87: 9c 0b de     	stz	$de0b                   ; 0xde0b <end_block9+0x61b5>
    2a8a: a6 13        	ldx	$13                     ; 0x13 <__rc3>
    2a8c: 8e 0c de     	stx	$de0c                   ; 0xde0c <end_block9+0x61b6>
    2a8f: 8c 0d de     	sty	$de0d                   ; 0xde0d <end_block9+0x61b7>
    2a92: 64 13        	stz	$13                     ; 0x13 <__rc3>
    2a94: a2 00        	ldx	#$0
    2a96: 86 14        	stx	$14                     ; 0x14 <__rc4>
    2a98: a2 c0        	ldx	#$c0
    2a9a: 86 15        	stx	$15                     ; 0x15 <__rc5>
    2a9c: a2 11        	ldx	#$11
    2a9e: 86 16        	stx	$16                     ; 0x16 <__rc6>
    2aa0: a2 c9        	ldx	#$c9
    2aa2: 86 17        	stx	$17                     ; 0x17 <__rc7>
    2aa4: a2 10        	ldx	#$10
    2aa6: 86 18        	stx	$18                     ; 0x18 <__rc8>
    2aa8: a2 c9        	ldx	#$c9
    2aaa: 86 19        	stx	$19                     ; 0x19 <__rc9>
    2aac: 8d 0e de     	sta	$de0e                   ; 0xde0e <end_block9+0x61b8>
    2aaf: a6 1a        	ldx	$1a                     ; 0x1a <__rc10>
    2ab1: 8e 0f de     	stx	$de0f                   ; 0xde0f <end_block9+0x61b9>
    2ab4: ad 18 de     	lda	$de18                   ; 0xde18 <end_block9+0x61c2>
    2ab7: ac 19 de     	ldy	$de19                   ; 0xde19 <end_block9+0x61c3>
    2aba: ae 1a de     	ldx	$de1a                   ; 0xde1a <end_block9+0x61c4>
    2abd: ae 1b de     	ldx	$de1b                   ; 0xde1b <end_block9+0x61c5>
    2ac0: 85 1c        	sta	$1c                     ; 0x1c <__rc12>
    2ac2: 84 1d        	sty	$1d                     ; 0x1d <__rc13>
    2ac4: 64 1a        	stz	$1a                     ; 0x1a <__rc10>
    2ac6: a2 f0        	ldx	#$f0
    2ac8: 86 c5        	stx	$c5                     ; 0xc5 <__zp_data_size+0x95>
    2aca: a2 20        	ldx	#$20
    2acc: 86 1b        	stx	$1b                     ; 0x1b <__rc11>
    2ace: 80 13        	bra	$2ae3 <putchar+0x94>
    2ad0: a5 1c        	lda	$1c                     ; 0x1c <__rc12>
    2ad2: 18           	clc
    2ad3: 69 50        	adc	#$50
    2ad5: 85 1c        	sta	$1c                     ; 0x1c <__rc12>
    2ad7: a5 1d        	lda	$1d                     ; 0x1d <__rc13>
    2ad9: 69 00        	adc	#$0
    2adb: 85 1d        	sta	$1d                     ; 0x1d <__rc13>
    2add: e6 13        	inc	$13                     ; 0x13 <__rc3>
    2adf: d0 02        	bne	$2ae3 <putchar+0x94>
    2ae1: e6 1a        	inc	$1a                     ; 0x1a <__rc10>
    2ae3: a9 68        	lda	#$68
    2ae5: 18           	clc
    2ae6: 65 13        	adc	$13                     ; 0x13 <__rc3>
    2ae8: 85 1e        	sta	$1e                     ; 0x1e <__rc14>
    2aea: a9 00        	lda	#$0
    2aec: 65 1a        	adc	$1a                     ; 0x1a <__rc10>
    2aee: 85 1f        	sta	$1f                     ; 0x1f <__rc15>
    2af0: b2 1e        	lda	($1e)                   ; 0x1e <__rc14>
    2af2: c9 0a        	cmp	#$a
    2af4: f0 2a        	beq	$2b20 <putchar+0xd1>
    2af6: c9 0d        	cmp	#$d
    2af8: f0 26        	beq	$2b20 <putchar+0xd1>
    2afa: aa           	tax
    2afb: d0 03        	bne	$2b00 <putchar+0xb1>
    2afd: 4c 0c 2c     	jmp	$2c0c <putchar+0x1bd>
    2b00: a2 03        	ldx	#$3
    2b02: 86 01        	stx	$1                      ; 0x1 <__data_size+0x1>
    2b04: a4 60        	ldy	$60                     ; 0x60 <_col>
    2b06: a9 f0        	lda	#$f0
    2b08: aa           	tax
    2b09: 86 c5        	stx	$c5                     ; 0xc5 <__zp_data_size+0x95>
    2b0b: 91 1c        	sta	($1c),y                 ; 0x1c <__rc12>
    2b0d: a2 02        	ldx	#$2
    2b0f: 86 01        	stx	$1                      ; 0x1 <__data_size+0x1>
    2b11: b2 1e        	lda	($1e)                   ; 0x1e <__rc14>
    2b13: a4 60        	ldy	$60                     ; 0x60 <_col>
    2b15: 91 1c        	sta	($1c),y                 ; 0x1c <__rc12>
    2b17: a6 60        	ldx	$60                     ; 0x60 <_col>
    2b19: e8           	inx
    2b1a: e6 60        	inc	$60                     ; 0x60 <_col>
    2b1c: e0 50        	cpx	#$50
    2b1e: d0 bd        	bne	$2add <putchar+0x8e>
    2b20: 64 60        	stz	$60                     ; 0x60 <_col>
    2b22: a6 61        	ldx	$61                     ; 0x61 <_row>
    2b24: e8           	inx
    2b25: e6 61        	inc	$61                     ; 0x61 <_row>
    2b27: e0 1e        	cpx	#$1e
    2b29: f0 03        	beq	$2b2e <putchar+0xdf>
    2b2b: 4c d0 2a     	jmp	$2ad0 <putchar+0x81>
    2b2e: a2 03        	ldx	#$3
    2b30: 86 01        	stx	$1                      ; 0x1 <__data_size+0x1>
    2b32: a2 01        	ldx	#$1
    2b34: 86 1b        	stx	$1b                     ; 0x1b <__rc11>
    2b36: a2 09        	ldx	#$9
    2b38: a0 10        	ldy	#$10
    2b3a: a9 00        	lda	#$0
    2b3c: 85 1c        	sta	$1c                     ; 0x1c <__rc12>
    2b3e: a9 c0        	lda	#$c0
    2b40: 85 1d        	sta	$1d                     ; 0x1d <__rc13>
    2b42: 84 1e        	sty	$1e                     ; 0x1e <__rc14>
    2b44: a4 c6        	ldy	$c6                     ; 0xc6 <__zp_data_size+0x96>
    2b46: b1 1c        	lda	($1c),y                 ; 0x1c <__rc12>
    2b48: 92 1c        	sta	($1c)                   ; 0x1c <__rc12>
    2b4a: a9 ff        	lda	#$ff
    2b4c: c6 1e        	dec	$1e                     ; 0x1e <__rc14>
    2b4e: c5 1e        	cmp	$1e                     ; 0x1e <__rc14>
    2b50: d0 01        	bne	$2b53 <putchar+0x104>
    2b52: ca           	dex
    2b53: e6 1c        	inc	$1c                     ; 0x1c <__rc12>
    2b55: d0 02        	bne	$2b59 <putchar+0x10a>
    2b57: e6 1d        	inc	$1d                     ; 0x1d <__rc13>
    2b59: 8a           	txa
    2b5a: d0 ea        	bne	$2b46 <putchar+0xf7>
    2b5c: a5 1e        	lda	$1e                     ; 0x1e <__rc14>
    2b5e: d0 e6        	bne	$2b46 <putchar+0xf7>
    2b60: a2 50        	ldx	#$50
    2b62: 86 c6        	stx	$c6                     ; 0xc6 <__zp_data_size+0x96>
    2b64: a2 02        	ldx	#$2
    2b66: 86 01        	stx	$1                      ; 0x1 <__data_size+0x1>
    2b68: a2 00        	ldx	#$0
    2b6a: a5 1b        	lda	$1b                     ; 0x1b <__rc11>
    2b6c: d0 c6        	bne	$2b34 <putchar+0xe5>
    2b6e: a2 03        	ldx	#$3
    2b70: 86 01        	stx	$1                      ; 0x1 <__data_size+0x1>
    2b72: a2 50        	ldx	#$50
    2b74: a0 11        	ldy	#$11
    2b76: 84 1c        	sty	$1c                     ; 0x1c <__rc12>
    2b78: a0 c9        	ldy	#$c9
    2b7a: 84 1d        	sty	$1d                     ; 0x1d <__rc13>
    2b7c: a0 10        	ldy	#$10
    2b7e: 84 1e        	sty	$1e                     ; 0x1e <__rc14>
    2b80: a0 c9        	ldy	#$c9
    2b82: 84 1f        	sty	$1f                     ; 0x1f <__rc15>
    2b84: a5 c5        	lda	$c5                     ; 0xc5 <__zp_data_size+0x95>
    2b86: a4 1e        	ldy	$1e                     ; 0x1e <__rc14>
    2b88: 84 22        	sty	$22                     ; 0x22 <__rc18>
    2b8a: a4 1f        	ldy	$1f                     ; 0x1f <__rc15>
    2b8c: 84 23        	sty	$23                     ; 0x23 <__rc19>
    2b8e: a4 1c        	ldy	$1c                     ; 0x1c <__rc12>
    2b90: 84 1e        	sty	$1e                     ; 0x1e <__rc14>
    2b92: a4 1d        	ldy	$1d                     ; 0x1d <__rc13>
    2b94: 84 1f        	sty	$1f                     ; 0x1f <__rc15>
    2b96: 92 22        	sta	($22)                   ; 0x22 <__rc18>
    2b98: e6 1c        	inc	$1c                     ; 0x1c <__rc12>
    2b9a: d0 02        	bne	$2b9e <putchar+0x14f>
    2b9c: e6 1d        	inc	$1d                     ; 0x1d <__rc13>
    2b9e: ca           	dex
    2b9f: d0 e5        	bne	$2b86 <putchar+0x137>
    2ba1: a2 f0        	ldx	#$f0
    2ba3: 86 c5        	stx	$c5                     ; 0xc5 <__zp_data_size+0x95>
    2ba5: a2 02        	ldx	#$2
    2ba7: 86 01        	stx	$1                      ; 0x1 <__data_size+0x1>
    2ba9: a2 50        	ldx	#$50
    2bab: a0 11        	ldy	#$11
    2bad: 84 1c        	sty	$1c                     ; 0x1c <__rc12>
    2baf: a0 c9        	ldy	#$c9
    2bb1: 84 1d        	sty	$1d                     ; 0x1d <__rc13>
    2bb3: a0 10        	ldy	#$10
    2bb5: 84 1e        	sty	$1e                     ; 0x1e <__rc14>
    2bb7: a0 c9        	ldy	#$c9
    2bb9: 84 1f        	sty	$1f                     ; 0x1f <__rc15>
    2bbb: a4 1e        	ldy	$1e                     ; 0x1e <__rc14>
    2bbd: 84 22        	sty	$22                     ; 0x22 <__rc18>
    2bbf: a4 1f        	ldy	$1f                     ; 0x1f <__rc15>
    2bc1: 84 23        	sty	$23                     ; 0x23 <__rc19>
    2bc3: a4 1c        	ldy	$1c                     ; 0x1c <__rc12>
    2bc5: 84 1e        	sty	$1e                     ; 0x1e <__rc14>
    2bc7: a4 1d        	ldy	$1d                     ; 0x1d <__rc13>
    2bc9: 84 1f        	sty	$1f                     ; 0x1f <__rc15>
    2bcb: a9 20        	lda	#$20
    2bcd: a8           	tay
    2bce: 92 22        	sta	($22)                   ; 0x22 <__rc18>
    2bd0: e6 1c        	inc	$1c                     ; 0x1c <__rc12>
    2bd2: d0 02        	bne	$2bd6 <putchar+0x187>
    2bd4: e6 1d        	inc	$1d                     ; 0x1d <__rc13>
    2bd6: ca           	dex
    2bd7: d0 e2        	bne	$2bbb <putchar+0x16c>
    2bd9: 84 1b        	sty	$1b                     ; 0x1b <__rc11>
    2bdb: c6 61        	dec	$61                     ; 0x61 <_row>
    2bdd: 9c 08 de     	stz	$de08                   ; 0xde08 <end_block9+0x61b2>
    2be0: a2 c0        	ldx	#$c0
    2be2: 8e 09 de     	stx	$de09                   ; 0xde09 <end_block9+0x61b3>
    2be5: 9c 0a de     	stz	$de0a                   ; 0xde0a <end_block9+0x61b4>
    2be8: 9c 0b de     	stz	$de0b                   ; 0xde0b <end_block9+0x61b5>
    2beb: a2 1d        	ldx	#$1d
    2bed: 8e 0c de     	stx	$de0c                   ; 0xde0c <end_block9+0x61b6>
    2bf0: 9c 0d de     	stz	$de0d                   ; 0xde0d <end_block9+0x61b7>
    2bf3: 9c 0e de     	stz	$de0e                   ; 0xde0e <end_block9+0x61b8>
    2bf6: 9c 0f de     	stz	$de0f                   ; 0xde0f <end_block9+0x61b9>
    2bf9: ad 18 de     	lda	$de18                   ; 0xde18 <end_block9+0x61c2>
    2bfc: ac 19 de     	ldy	$de19                   ; 0xde19 <end_block9+0x61c3>
    2bff: ae 1a de     	ldx	$de1a                   ; 0xde1a <end_block9+0x61c4>
    2c02: ae 1b de     	ldx	$de1b                   ; 0xde1b <end_block9+0x61c5>
    2c05: 85 1c        	sta	$1c                     ; 0x1c <__rc12>
    2c07: 84 1d        	sty	$1d                     ; 0x1d <__rc13>
    2c09: 4c dd 2a     	jmp	$2add <putchar+0x8e>
    2c0c: a6 c3        	ldx	$c3                     ; 0xc3 <__zp_data_size+0x93>
    2c0e: 86 01        	stx	$1                      ; 0x1 <__data_size+0x1>
    2c10: a6 60        	ldx	$60                     ; 0x60 <_col>
    2c12: a4 61        	ldy	$61                     ; 0x61 <_row>
    2c14: 8e 14 d0     	stx	$d014                   ; 0xd014 <end_block9+0x53be>
    2c17: 9c 15 d0     	stz	$d015                   ; 0xd015 <end_block9+0x53bf>
    2c1a: 84 61        	sty	$61                     ; 0x61 <_row>
    2c1c: 8c 16 d0     	sty	$d016                   ; 0xd016 <end_block9+0x53c0>
    2c1f: 9c 17 d0     	stz	$d017                   ; 0xd017 <end_block9+0x53c1>
    2c22: a6 12        	ldx	$12                     ; 0x12 <__rc2>
    2c24: a5 c4        	lda	$c4                     ; 0xc4 <__zp_data_size+0x94>
    2c26: 60           	rts

00002c27 <memcpy>:
    2c27: a8           	tay
    2c28: 8a           	txa
    2c29: d0 03        	bne	$2c2e <memcpy+0x7>
    2c2b: 98           	tya
    2c2c: f0 24        	beq	$2c52 <memcpy+0x2b>
    2c2e: a5 12        	lda	$12                     ; 0x12 <__rc2>
    2c30: 85 16        	sta	$16                     ; 0x16 <__rc6>
    2c32: a5 13        	lda	$13                     ; 0x13 <__rc3>
    2c34: 85 17        	sta	$17                     ; 0x17 <__rc7>
    2c36: b2 14        	lda	($14)                   ; 0x14 <__rc4>
    2c38: 92 16        	sta	($16)                   ; 0x16 <__rc6>
    2c3a: e6 16        	inc	$16                     ; 0x16 <__rc6>
    2c3c: d0 02        	bne	$2c40 <memcpy+0x19>
    2c3e: e6 17        	inc	$17                     ; 0x17 <__rc7>
    2c40: e6 14        	inc	$14                     ; 0x14 <__rc4>
    2c42: d0 02        	bne	$2c46 <memcpy+0x1f>
    2c44: e6 15        	inc	$15                     ; 0x15 <__rc5>
    2c46: 88           	dey
    2c47: c0 ff        	cpy	#$ff
    2c49: d0 01        	bne	$2c4c <memcpy+0x25>
    2c4b: ca           	dex
    2c4c: 8a           	txa
    2c4d: d0 e7        	bne	$2c36 <memcpy+0xf>
    2c4f: 98           	tya
    2c50: d0 e4        	bne	$2c36 <memcpy+0xf>
    2c52: 60           	rts

00002c53 <__memset>:
    2c53: a4 14        	ldy	$14                     ; 0x14 <__rc4>
    2c55: d0 04        	bne	$2c5b <__memset+0x8>
    2c57: e0 00        	cpx	#$0
    2c59: f0 17        	beq	$2c72 <__memset+0x1f>
    2c5b: 92 12        	sta	($12)                   ; 0x12 <__rc2>
    2c5d: e6 12        	inc	$12                     ; 0x12 <__rc2>
    2c5f: d0 02        	bne	$2c63 <__memset+0x10>
    2c61: e6 13        	inc	$13                     ; 0x13 <__rc3>
    2c63: ca           	dex
    2c64: e0 ff        	cpx	#$ff
    2c66: d0 02        	bne	$2c6a <__memset+0x17>
    2c68: c6 14        	dec	$14                     ; 0x14 <__rc4>
    2c6a: a4 14        	ldy	$14                     ; 0x14 <__rc4>
    2c6c: d0 ed        	bne	$2c5b <__memset+0x8>
    2c6e: e0 00        	cpx	#$0
    2c70: d0 e9        	bne	$2c5b <__memset+0x8>
    2c72: 60           	rts
