
skull.elf:	file format elf32-mos

SYMBOL TABLE:
00000000 l    df *ABS*	00000000 zero-bss.c
00000000 l    df *ABS*	00000000 zero-zp-bss.c
00000000 l    df *ABS*	00000000 copy-zp-data.c
00000000 l    df *ABS*	00000000 ld-temp.o
0000068d l     F .text	00000014 midiShutUp
000006a1 l     F .text	00000023 resetInstruments
000006c4 l     F .text	000003e6 f256Init
000030b5 l     O .bss	00000007 kernelEventData
00003084 l     O .rodata	00000030 textColors
000000de l     O .zp.bss	00000001 _col
000000df l     O .zp.bss	00000001 _row
000000e0 l     O .zp.bss	00000001 _active
000000e1 l     O .zp.bss	00000001 _color
000030bd l     O .bss	0000000c _BITMAP_BASE
000030bc l     O .bss	00000001 kernelError
00000ab0 l     F .text	00001272 f256main
00001d22 l     F .text	000000ad bitmapClear
00000030 l     O .zp.data	00000060 skull_vertices
000000d8 l     O .zp.bss	00000002 theOne.0
00003040 l     F .text	00000032 __mulhi3
00002d28 l     F .text	000002cc malloc
000000dc l     O .zp.bss	00000002 theOne.8
000000da l     O .zp.bss	00000002 theOne.7
00001dcf l     F .text	0000020e rotateX
00001fdd l     F .text	00000d46 redraw
00000090 l     O .zp.data	00000048 skull_indices
000000e2 l     O .zp.bss	00000001 _ZN12_GLOBAL__N_111initializedE
000003c0 l     F .text	0000014b _ZN12_GLOBAL__N_19FreeChunk6insertEPvj
000000e5 l     O .zp.bss	00000002 _ZN12_GLOBAL__N_19free_listE
000000e3 l     O .zp.bss	00000002 _ZN12_GLOBAL__N_19free_sizeE
000030b4 g     O .bss	00000001 g_fp_last_status
000005ea g       .text	00000000 mathFloatMul
00000639 g       .text	00000000 mathFloatDiv
00000599 g       .text	00000000 mathFloatSub
00000548 g       .text	00000000 mathFloatAdd
00000014 g       *ABS*	00000000 __rc4
00000013 g       *ABS*	00000000 __rc3
00000015 g       *ABS*	00000000 __rc5
00000012 g       *ABS*	00000000 __rc2
00000017 g       *ABS*	00000000 __rc7
00000016 g       *ABS*	00000000 __rc6
00000aaa g     F .text	00000006 main
0005561a g       .canyon	00000000 canyon_end
00050000 g       .canyon	00000000 canyon_start
000003bc g       .text	00000000 __after_main
000003a8 g       .text	00000000 __do_init_stack
000003b6 g       .text	00000000 __do_copy_zp_data
00000531 g     F .text	00000017 __copy_zp_data
000003b0 g       .text	00000000 __do_zero_bss
0000050b g     F .text	00000013 __zero_bss
000003b3 g       .text	00000000 __do_zero_zp_bss
0000051e g     F .text	00000013 __zero_zp_bss
00002d23 g     F .text	00000005 exit
000003bf g       .text	00000000 _fini
00003020  w    F .text	00000020 __memset
00001000  w      *ABS*	00000000 __heap_default_limit
000030ca g       .noinit	00000000 __heap_start
00002ff4  w    F .text	0000002c memcpy
00000010 g       *ABS*	00000000 __rc0
00000018 g       *ABS*	00000000 __rc8
0000001a g       *ABS*	00000000 __rc10
0000001c g       *ABS*	00000000 __rc12
0000001e g       *ABS*	00000000 __rc14
00000020 g       *ABS*	00000000 __rc16
00000022 g       *ABS*	00000000 __rc18
00000024 g       *ABS*	00000000 __rc20
00000026 g       *ABS*	00000000 __rc22
00000028 g       *ABS*	00000000 __rc24
0000002a g       *ABS*	00000000 __rc26
0000002c g       *ABS*	00000000 __rc28
0000002e g       *ABS*	00000000 __rc30
0000002f g       *ABS*	00000000 __rc31
00000300 g       *ABS*	00000000 __f256_start
0000a000 g       *ABS*	00000000 __stack
0000a000 g       *ABS*	00000000 __SLOT_ADDR
0800a000 g       *ABS*	00000000 __block8_lma
00002000 g       *ABS*	00000000 __BLOCK_SIZE
0900a000 g       *ABS*	00000000 __block9_lma
0a00a000 g       *ABS*	00000000 __block10_lma
0b00a000 g       *ABS*	00000000 __block11_lma
0c00a000 g       *ABS*	00000000 __block12_lma
0d00a000 g       *ABS*	00000000 __block13_lma
0e00a000 g       *ABS*	00000000 __block14_lma
0f00a000 g       *ABS*	00000000 __block15_lma
1000a000 g       *ABS*	00000000 __block16_lma
1100a000 g       *ABS*	00000000 __block17_lma
1200a000 g       *ABS*	00000000 __block18_lma
1300a000 g       *ABS*	00000000 __block19_lma
1400a000 g       *ABS*	00000000 __block20_lma
1500a000 g       *ABS*	00000000 __block21_lma
1600a000 g       *ABS*	00000000 __block22_lma
1700a000 g       *ABS*	00000000 __block23_lma
00050000 g       *ABS*	00000000 __canyon_lma
0000561a g       *ABS*	00000000 __canyon_size
000030b4 g       .bss	00000000 __bss_start
0005561a g       .canyon	00000000 end_canyon
000003a8 g       .text	00000000 _start
0000002d g       *ABS*	00000000 __rc29
0000002b g       *ABS*	00000000 __rc27
00000029 g       *ABS*	00000000 __rc25
00000027 g       *ABS*	00000000 __rc23
00000025 g       *ABS*	00000000 __rc21
00000023 g       *ABS*	00000000 __rc19
00000021 g       *ABS*	00000000 __rc17
0000001f g       *ABS*	00000000 __rc15
0000001d g       *ABS*	00000000 __rc13
0000001b g       *ABS*	00000000 __rc11
00000019 g       *ABS*	00000000 __rc9
00000011 g       *ABS*	00000000 __rc1
00000030 g       .zp.data	00000000 __zp_data_start
00000300 g       *ABS*	00000000 __zp_data_load_start
000000a8 g       *ABS*	00000000 __zp_data_size
000000d8 g       .zp.bss	00000000 __zp_bss_start
0000000f g       *ABS*	00000000 __zp_bss_size
000003a8 g       .text	00000000 _init
00003072 g       .text	00000000 __init_array_start
00003072 g       .text	00000000 __init_array_end
00003072 g       .text	00000000 __fini_array_start
00003072 g       .text	00000000 __fini_array_end
000030b4 g       .data	00000000 __data_start
000030b4 g       .data	00000000 __data_end
000030b4 g       *ABS*	00000000 __data_load_start
00000000 g       *ABS*	00000000 __data_size
000030c9 g       .bss	00000000 __bss_end
00000015 g       *ABS*	00000000 __bss_size
000030c9 g       .noinit	00000000 end_block8
000030c9 g       .noinit	00000000 end_block9
000030c9 g       .noinit	00000000 end_block10
000030c9 g       .noinit	00000000 end_block11
000030c9 g       .noinit	00000000 end_block12
000030c9 g       .noinit	00000000 end_block13
000030c9 g       .noinit	00000000 end_block14
000030c9 g       .noinit	00000000 end_block15
000030c9 g       .noinit	00000000 end_block16
000030c9 g       .noinit	00000000 end_block17
000030c9 g       .noinit	00000000 end_block18
000030c9 g       .noinit	00000000 end_block19
000030c9 g       .noinit	00000000 end_block20
000030c9 g       .noinit	00000000 end_block21
000030c9 g       .noinit	00000000 end_block22
000030c9 g       .noinit	00000000 end_block23

Disassembly of section .text:

000003a8 <_start>:
     3a8: a9 00        	lda	#$0
     3aa: 85 10        	sta	$10                     ; 0x10 <__rc0>
     3ac: a9 a0        	lda	#$a0
     3ae: 85 11        	sta	$11                     ; 0x11 <__rc1>

000003b0 <__do_zero_bss>:
     3b0: 20 0b 05     	jsr	$50b <__zero_bss>

000003b3 <__do_zero_zp_bss>:
     3b3: 20 1e 05     	jsr	$51e <__zero_zp_bss>

000003b6 <__do_copy_zp_data>:
     3b6: 20 31 05     	jsr	$531 <__copy_zp_data>
     3b9: 20 aa 0a     	jsr	$aaa <main>

000003bc <__after_main>:
     3bc: 4c 23 2d     	jmp	$2d23 <exit>

000003bf <_fini>:
     3bf: 60           	rts

000003c0 <_ZN12_GLOBAL__N_19FreeChunk6insertEPvj>:
     3c0: 85 16        	sta	$16                     ; 0x16 <__rc6>
     3c2: 29 fe        	and	#$fe
     3c4: 85 14        	sta	$14                     ; 0x14 <__rc4>
     3c6: a0 01        	ldy	#$1
     3c8: 98           	tya
     3c9: 32 12        	and	($12)                   ; 0x12 <__rc2>
     3cb: 05 14        	ora	$14                     ; 0x14 <__rc4>
     3cd: 92 12        	sta	($12)                   ; 0x12 <__rc2>
     3cf: a5 12        	lda	$12                     ; 0x12 <__rc2>
     3d1: 18           	clc
     3d2: 65 14        	adc	$14                     ; 0x14 <__rc4>
     3d4: 85 15        	sta	$15                     ; 0x15 <__rc5>
     3d6: 8a           	txa
     3d7: 65 13        	adc	$13                     ; 0x13 <__rc3>
     3d9: 85 14        	sta	$14                     ; 0x14 <__rc4>
     3db: 18           	clc
     3dc: a5 15        	lda	$15                     ; 0x15 <__rc5>
     3de: 69 fe        	adc	#$fe
     3e0: 85 17        	sta	$17                     ; 0x17 <__rc7>
     3e2: a5 14        	lda	$14                     ; 0x14 <__rc4>
     3e4: 69 ff        	adc	#$ff
     3e6: 85 15        	sta	$15                     ; 0x15 <__rc5>
     3e8: a5 17        	lda	$17                     ; 0x17 <__rc7>
     3ea: 85 14        	sta	$14                     ; 0x14 <__rc4>
     3ec: 8a           	txa
     3ed: 91 12        	sta	($12),y                 ; 0x12 <__rc2>
     3ef: a5 16        	lda	$16                     ; 0x16 <__rc6>
     3f1: 92 14        	sta	($14)                   ; 0x14 <__rc4>
     3f3: 8a           	txa
     3f4: 91 14        	sta	($14),y                 ; 0x14 <__rc4>
     3f6: a2 01        	ldx	#$1
     3f8: 86 18        	stx	$18                     ; 0x18 <__rc8>
     3fa: b1 12        	lda	($12),y                 ; 0x12 <__rc2>
     3fc: 85 14        	sta	$14                     ; 0x14 <__rc4>
     3fe: a9 fe        	lda	#$fe
     400: 32 12        	and	($12)                   ; 0x12 <__rc2>
     402: 18           	clc
     403: 65 e3        	adc	$e3                     ; 0xe3 <_ZN12_GLOBAL__N_19free_sizeE>
     405: aa           	tax
     406: a5 14        	lda	$14                     ; 0x14 <__rc4>
     408: 65 e4        	adc	$e4                     ; 0xe4 <_ZN12_GLOBAL__N_19free_sizeE+0x1>
     40a: a8           	tay
     40b: 18           	clc
     40c: 8a           	txa
     40d: 69 fe        	adc	#$fe
     40f: aa           	tax
     410: 98           	tya
     411: 69 ff        	adc	#$ff
     413: 86 e3        	stx	$e3                     ; 0xe3 <_ZN12_GLOBAL__N_19free_sizeE>
     415: 85 e4        	sta	$e4                     ; 0xe4 <_ZN12_GLOBAL__N_19free_sizeE+0x1>
     417: a6 e5        	ldx	$e5                     ; 0xe5 <_ZN12_GLOBAL__N_19free_listE>
     419: 86 16        	stx	$16                     ; 0x16 <__rc6>
     41b: a4 e6        	ldy	$e6                     ; 0xe6 <_ZN12_GLOBAL__N_19free_listE+0x1>
     41d: a2 00        	ldx	#$0
     41f: 86 14        	stx	$14                     ; 0x14 <__rc4>
     421: a2 00        	ldx	#$0
     423: 86 15        	stx	$15                     ; 0x15 <__rc5>
     425: 84 17        	sty	$17                     ; 0x17 <__rc7>
     427: c4 15        	cpy	$15                     ; 0x15 <__rc5>
     429: d0 3c        	bne	$467 <_ZN12_GLOBAL__N_19FreeChunk6insertEPvj+0xa7>
     42b: a6 16        	ldx	$16                     ; 0x16 <__rc6>
     42d: e4 14        	cpx	$14                     ; 0x14 <__rc4>
     42f: d0 36        	bne	$467 <_ZN12_GLOBAL__N_19FreeChunk6insertEPvj+0xa7>
     431: a0 04        	ldy	#$4
     433: a5 12        	lda	$12                     ; 0x12 <__rc2>
     435: 18           	clc
     436: 69 04        	adc	#$4
     438: 85 14        	sta	$14                     ; 0x14 <__rc4>
     43a: a5 13        	lda	$13                     ; 0x13 <__rc3>
     43c: 69 00        	adc	#$0
     43e: 18           	clc
     43f: 85 15        	sta	$15                     ; 0x15 <__rc5>
     441: a5 12        	lda	$12                     ; 0x12 <__rc2>
     443: 91 12        	sta	($12),y                 ; 0x12 <__rc2>
     445: a0 02        	ldy	#$2
     447: 85 17        	sta	$17                     ; 0x17 <__rc7>
     449: 69 02        	adc	#$2
     44b: 85 16        	sta	$16                     ; 0x16 <__rc6>
     44d: a5 17        	lda	$17                     ; 0x17 <__rc7>
     44f: 91 12        	sta	($12),y                 ; 0x12 <__rc2>
     451: a5 13        	lda	$13                     ; 0x13 <__rc3>
     453: 69 00        	adc	#$0
     455: 85 17        	sta	$17                     ; 0x17 <__rc7>
     457: 88           	dey
     458: a5 13        	lda	$13                     ; 0x13 <__rc3>
     45a: 91 14        	sta	($14),y                 ; 0x14 <__rc4>
     45c: 91 16        	sta	($16),y                 ; 0x16 <__rc6>
     45e: a6 12        	ldx	$12                     ; 0x12 <__rc2>
     460: 86 e5        	stx	$e5                     ; 0xe5 <_ZN12_GLOBAL__N_19free_listE>
     462: a6 13        	ldx	$13                     ; 0x13 <__rc3>
     464: 86 e6        	stx	$e6                     ; 0xe6 <_ZN12_GLOBAL__N_19free_listE+0x1>
     466: 60           	rts
     467: a6 12        	ldx	$12                     ; 0x12 <__rc2>
     469: a5 12        	lda	$12                     ; 0x12 <__rc2>
     46b: 18           	clc
     46c: 69 02        	adc	#$2
     46e: 85 14        	sta	$14                     ; 0x14 <__rc4>
     470: a4 16        	ldy	$16                     ; 0x16 <__rc6>
     472: a5 13        	lda	$13                     ; 0x13 <__rc3>
     474: 69 00        	adc	#$0
     476: 85 15        	sta	$15                     ; 0x15 <__rc5>
     478: 84 19        	sty	$19                     ; 0x19 <__rc9>
     47a: a4 17        	ldy	$17                     ; 0x17 <__rc7>
     47c: 84 1a        	sty	$1a                     ; 0x1a <__rc10>
     47e: a0 02        	ldy	#$2
     480: a5 19        	lda	$19                     ; 0x19 <__rc9>
     482: 91 12        	sta	($12),y                 ; 0x12 <__rc2>
     484: 84 1d        	sty	$1d                     ; 0x1d <__rc13>
     486: a4 18        	ldy	$18                     ; 0x18 <__rc8>
     488: a5 1a        	lda	$1a                     ; 0x1a <__rc10>
     48a: 91 14        	sta	($14),y                 ; 0x14 <__rc4>
     48c: 84 1e        	sty	$1e                     ; 0x1e <__rc14>
     48e: 18           	clc
     48f: a5 19        	lda	$19                     ; 0x19 <__rc9>
     491: 69 04        	adc	#$4
     493: 85 18        	sta	$18                     ; 0x18 <__rc8>
     495: a5 1a        	lda	$1a                     ; 0x1a <__rc10>
     497: 69 00        	adc	#$0
     499: 85 19        	sta	$19                     ; 0x19 <__rc9>
     49b: 8a           	txa
     49c: 18           	clc
     49d: 69 04        	adc	#$4
     49f: 85 1a        	sta	$1a                     ; 0x1a <__rc10>
     4a1: a5 13        	lda	$13                     ; 0x13 <__rc3>
     4a3: 69 00        	adc	#$0
     4a5: 85 1b        	sta	$1b                     ; 0x1b <__rc11>
     4a7: a0 04        	ldy	#$4
     4a9: b1 16        	lda	($16),y                 ; 0x16 <__rc6>
     4ab: 85 16        	sta	$16                     ; 0x16 <__rc6>
     4ad: 85 22        	sta	$22                     ; 0x22 <__rc18>
     4af: a4 1e        	ldy	$1e                     ; 0x1e <__rc14>
     4b1: b1 18        	lda	($18),y                 ; 0x18 <__rc8>
     4b3: 85 17        	sta	$17                     ; 0x17 <__rc7>
     4b5: 85 19        	sta	$19                     ; 0x19 <__rc9>
     4b7: a0 04        	ldy	#$4
     4b9: a5 22        	lda	$22                     ; 0x22 <__rc18>
     4bb: 91 12        	sta	($12),y                 ; 0x12 <__rc2>
     4bd: 84 1f        	sty	$1f                     ; 0x1f <__rc15>
     4bf: a4 1e        	ldy	$1e                     ; 0x1e <__rc14>
     4c1: a5 19        	lda	$19                     ; 0x19 <__rc9>
     4c3: 91 1a        	sta	($1a),y                 ; 0x1a <__rc10>
     4c5: 84 1a        	sty	$1a                     ; 0x1a <__rc10>
     4c7: 18           	clc
     4c8: a5 22        	lda	$22                     ; 0x22 <__rc18>
     4ca: 69 02        	adc	#$2
     4cc: 85 18        	sta	$18                     ; 0x18 <__rc8>
     4ce: a5 19        	lda	$19                     ; 0x19 <__rc9>
     4d0: 69 00        	adc	#$0
     4d2: 85 19        	sta	$19                     ; 0x19 <__rc9>
     4d4: 8a           	txa
     4d5: a4 1d        	ldy	$1d                     ; 0x1d <__rc13>
     4d7: 91 16        	sta	($16),y                 ; 0x16 <__rc6>
     4d9: a5 13        	lda	$13                     ; 0x13 <__rc3>
     4db: a4 1a        	ldy	$1a                     ; 0x1a <__rc10>
     4dd: 91 18        	sta	($18),y                 ; 0x18 <__rc8>
     4df: a4 1d        	ldy	$1d                     ; 0x1d <__rc13>
     4e1: b1 12        	lda	($12),y                 ; 0x12 <__rc2>
     4e3: 85 16        	sta	$16                     ; 0x16 <__rc6>
     4e5: 85 19        	sta	$19                     ; 0x19 <__rc9>
     4e7: a4 1a        	ldy	$1a                     ; 0x1a <__rc10>
     4e9: b1 14        	lda	($14),y                 ; 0x14 <__rc4>
     4eb: 84 18        	sty	$18                     ; 0x18 <__rc8>
     4ed: 85 17        	sta	$17                     ; 0x17 <__rc7>
     4ef: 85 14        	sta	$14                     ; 0x14 <__rc4>
     4f1: 8a           	txa
     4f2: a4 1f        	ldy	$1f                     ; 0x1f <__rc15>
     4f4: 91 16        	sta	($16),y                 ; 0x16 <__rc6>
     4f6: 18           	clc
     4f7: a5 19        	lda	$19                     ; 0x19 <__rc9>
     4f9: 69 04        	adc	#$4
     4fb: a8           	tay
     4fc: a5 14        	lda	$14                     ; 0x14 <__rc4>
     4fe: 69 00        	adc	#$0
     500: 84 14        	sty	$14                     ; 0x14 <__rc4>
     502: 85 15        	sta	$15                     ; 0x15 <__rc5>
     504: a5 13        	lda	$13                     ; 0x13 <__rc3>
     506: a4 18        	ldy	$18                     ; 0x18 <__rc8>
     508: 91 14        	sta	($14),y                 ; 0x14 <__rc4>
     50a: 60           	rts

0000050b <__zero_bss>:
     50b: a2 15        	ldx	#$15
     50d: a0 00        	ldy	#$0
     50f: a9 b4        	lda	#$b4
     511: 85 12        	sta	$12                     ; 0x12 <__rc2>
     513: a9 30        	lda	#$30
     515: 85 13        	sta	$13                     ; 0x13 <__rc3>
     517: a9 00        	lda	#$0
     519: 84 14        	sty	$14                     ; 0x14 <__rc4>
     51b: 4c 20 30     	jmp	$3020 <__memset>

0000051e <__zero_zp_bss>:
     51e: a2 0f        	ldx	#$f
     520: a0 00        	ldy	#$0
     522: a9 d8        	lda	#$d8
     524: 85 12        	sta	$12                     ; 0x12 <__rc2>
     526: a9 00        	lda	#$0
     528: 85 13        	sta	$13                     ; 0x13 <__rc3>
     52a: a9 00        	lda	#$0
     52c: 84 14        	sty	$14                     ; 0x14 <__rc4>
     52e: 4c 20 30     	jmp	$3020 <__memset>

00000531 <__copy_zp_data>:
     531: a9 a8        	lda	#$a8
     533: a2 00        	ldx	#$0
     535: a0 30        	ldy	#$30
     537: 84 12        	sty	$12                     ; 0x12 <__rc2>
     539: a0 00        	ldy	#$0
     53b: 84 13        	sty	$13                     ; 0x13 <__rc3>
     53d: a0 00        	ldy	#$0
     53f: 84 14        	sty	$14                     ; 0x14 <__rc4>
     541: a0 03        	ldy	#$3
     543: 84 15        	sty	$15                     ; 0x15 <__rc5>
     545: 4c f4 2f     	jmp	$2ff4 <memcpy>

00000548 <mathFloatAdd>:
     548: 8d 88 de     	sta	$de88                   ; 0xde88 <__heap_start+0xadbe>
     54b: 8e 89 de     	stx	$de89                   ; 0xde89 <__heap_start+0xadbf>
     54e: a9 40        	lda	#$40
     550: 8d 80 de     	sta	$de80                   ; 0xde80 <__heap_start+0xadb6>
     553: a9 02        	lda	#$2
     555: 8d 81 de     	sta	$de81                   ; 0xde81 <__heap_start+0xadb7>
     558: a5 12        	lda	$12                     ; 0x12 <__rc2>
     55a: 8d 8a de     	sta	$de8a                   ; 0xde8a <__heap_start+0xadc0>
     55d: a5 13        	lda	$13                     ; 0x13 <__rc3>
     55f: 8d 8b de     	sta	$de8b                   ; 0xde8b <__heap_start+0xadc1>
     562: a5 14        	lda	$14                     ; 0x14 <__rc4>
     564: 8d 8c de     	sta	$de8c                   ; 0xde8c <__heap_start+0xadc2>
     567: a5 15        	lda	$15                     ; 0x15 <__rc5>
     569: 8d 8d de     	sta	$de8d                   ; 0xde8d <__heap_start+0xadc3>
     56c: a5 16        	lda	$16                     ; 0x16 <__rc6>
     56e: 8d 8e de     	sta	$de8e                   ; 0xde8e <__heap_start+0xadc4>
     571: a5 17        	lda	$17                     ; 0x17 <__rc7>
     573: 8d 8f de     	sta	$de8f                   ; 0xde8f <__heap_start+0xadc5>
     576: a9 0a        	lda	#$a
     578: 8d 82 de     	sta	$de82                   ; 0xde82 <__heap_start+0xadb8>
     57b: ea           	nop
     57c: ea           	nop
     57d: ea           	nop
     57e: ea           	nop
     57f: ea           	nop
     580: ad 86 de     	lda	$de86                   ; 0xde86 <__heap_start+0xadbc>
     583: 29 0f        	and	#$f
     585: 8d b4 30     	sta	$30b4                   ; 0x30b4 <g_fp_last_status>
     588: ad 8a de     	lda	$de8a                   ; 0xde8a <__heap_start+0xadc0>
     58b: 85 12        	sta	$12                     ; 0x12 <__rc2>
     58d: ad 8b de     	lda	$de8b                   ; 0xde8b <__heap_start+0xadc1>
     590: 85 13        	sta	$13                     ; 0x13 <__rc3>
     592: ad 88 de     	lda	$de88                   ; 0xde88 <__heap_start+0xadbe>
     595: ae 89 de     	ldx	$de89                   ; 0xde89 <__heap_start+0xadbf>
     598: 60           	rts

00000599 <mathFloatSub>:
     599: 8d 88 de     	sta	$de88                   ; 0xde88 <__heap_start+0xadbe>
     59c: 8e 89 de     	stx	$de89                   ; 0xde89 <__heap_start+0xadbf>
     59f: a9 48        	lda	#$48
     5a1: 8d 80 de     	sta	$de80                   ; 0xde80 <__heap_start+0xadb6>
     5a4: a9 02        	lda	#$2
     5a6: 8d 81 de     	sta	$de81                   ; 0xde81 <__heap_start+0xadb7>
     5a9: a5 12        	lda	$12                     ; 0x12 <__rc2>
     5ab: 8d 8a de     	sta	$de8a                   ; 0xde8a <__heap_start+0xadc0>
     5ae: a5 13        	lda	$13                     ; 0x13 <__rc3>
     5b0: 8d 8b de     	sta	$de8b                   ; 0xde8b <__heap_start+0xadc1>
     5b3: a5 14        	lda	$14                     ; 0x14 <__rc4>
     5b5: 8d 8c de     	sta	$de8c                   ; 0xde8c <__heap_start+0xadc2>
     5b8: a5 15        	lda	$15                     ; 0x15 <__rc5>
     5ba: 8d 8d de     	sta	$de8d                   ; 0xde8d <__heap_start+0xadc3>
     5bd: a5 16        	lda	$16                     ; 0x16 <__rc6>
     5bf: 8d 8e de     	sta	$de8e                   ; 0xde8e <__heap_start+0xadc4>
     5c2: a5 17        	lda	$17                     ; 0x17 <__rc7>
     5c4: 8d 8f de     	sta	$de8f                   ; 0xde8f <__heap_start+0xadc5>
     5c7: a9 0a        	lda	#$a
     5c9: 8d 82 de     	sta	$de82                   ; 0xde82 <__heap_start+0xadb8>
     5cc: ea           	nop
     5cd: ea           	nop
     5ce: ea           	nop
     5cf: ea           	nop
     5d0: ea           	nop
     5d1: ad 86 de     	lda	$de86                   ; 0xde86 <__heap_start+0xadbc>
     5d4: 29 0f        	and	#$f
     5d6: 8d b4 30     	sta	$30b4                   ; 0x30b4 <g_fp_last_status>
     5d9: ad 8a de     	lda	$de8a                   ; 0xde8a <__heap_start+0xadc0>
     5dc: 85 12        	sta	$12                     ; 0x12 <__rc2>
     5de: ad 8b de     	lda	$de8b                   ; 0xde8b <__heap_start+0xadc1>
     5e1: 85 13        	sta	$13                     ; 0x13 <__rc3>
     5e3: ad 88 de     	lda	$de88                   ; 0xde88 <__heap_start+0xadbe>
     5e6: ae 89 de     	ldx	$de89                   ; 0xde89 <__heap_start+0xadbf>
     5e9: 60           	rts

000005ea <mathFloatMul>:
     5ea: 8d 88 de     	sta	$de88                   ; 0xde88 <__heap_start+0xadbe>
     5ed: 8e 89 de     	stx	$de89                   ; 0xde89 <__heap_start+0xadbf>
     5f0: a9 00        	lda	#$0
     5f2: 8d 80 de     	sta	$de80                   ; 0xde80 <__heap_start+0xadb6>
     5f5: 8d 81 de     	sta	$de81                   ; 0xde81 <__heap_start+0xadb7>
     5f8: a5 12        	lda	$12                     ; 0x12 <__rc2>
     5fa: 8d 8a de     	sta	$de8a                   ; 0xde8a <__heap_start+0xadc0>
     5fd: a5 13        	lda	$13                     ; 0x13 <__rc3>
     5ff: 8d 8b de     	sta	$de8b                   ; 0xde8b <__heap_start+0xadc1>
     602: a5 14        	lda	$14                     ; 0x14 <__rc4>
     604: 8d 8c de     	sta	$de8c                   ; 0xde8c <__heap_start+0xadc2>
     607: a5 15        	lda	$15                     ; 0x15 <__rc5>
     609: 8d 8d de     	sta	$de8d                   ; 0xde8d <__heap_start+0xadc3>
     60c: a5 16        	lda	$16                     ; 0x16 <__rc6>
     60e: 8d 8e de     	sta	$de8e                   ; 0xde8e <__heap_start+0xadc4>
     611: a5 17        	lda	$17                     ; 0x17 <__rc7>
     613: 8d 8f de     	sta	$de8f                   ; 0xde8f <__heap_start+0xadc5>
     616: a9 0a        	lda	#$a
     618: 8d 82 de     	sta	$de82                   ; 0xde82 <__heap_start+0xadb8>
     61b: ea           	nop
     61c: ea           	nop
     61d: ea           	nop
     61e: ea           	nop
     61f: ea           	nop
     620: ad 84 de     	lda	$de84                   ; 0xde84 <__heap_start+0xadba>
     623: 29 0f        	and	#$f
     625: 8d b4 30     	sta	$30b4                   ; 0x30b4 <g_fp_last_status>
     628: ad 8a de     	lda	$de8a                   ; 0xde8a <__heap_start+0xadc0>
     62b: 85 12        	sta	$12                     ; 0x12 <__rc2>
     62d: ad 8b de     	lda	$de8b                   ; 0xde8b <__heap_start+0xadc1>
     630: 85 13        	sta	$13                     ; 0x13 <__rc3>
     632: ad 88 de     	lda	$de88                   ; 0xde88 <__heap_start+0xadbe>
     635: ae 89 de     	ldx	$de89                   ; 0xde89 <__heap_start+0xadbf>
     638: 60           	rts

00000639 <mathFloatDiv>:
     639: 8d 88 de     	sta	$de88                   ; 0xde88 <__heap_start+0xadbe>
     63c: 8e 89 de     	stx	$de89                   ; 0xde89 <__heap_start+0xadbf>
     63f: a9 00        	lda	#$0
     641: 8d 80 de     	sta	$de80                   ; 0xde80 <__heap_start+0xadb6>
     644: a9 01        	lda	#$1
     646: 8d 81 de     	sta	$de81                   ; 0xde81 <__heap_start+0xadb7>
     649: a5 12        	lda	$12                     ; 0x12 <__rc2>
     64b: 8d 8a de     	sta	$de8a                   ; 0xde8a <__heap_start+0xadc0>
     64e: a5 13        	lda	$13                     ; 0x13 <__rc3>
     650: 8d 8b de     	sta	$de8b                   ; 0xde8b <__heap_start+0xadc1>
     653: a5 14        	lda	$14                     ; 0x14 <__rc4>
     655: 8d 8c de     	sta	$de8c                   ; 0xde8c <__heap_start+0xadc2>
     658: a5 15        	lda	$15                     ; 0x15 <__rc5>
     65a: 8d 8d de     	sta	$de8d                   ; 0xde8d <__heap_start+0xadc3>
     65d: a5 16        	lda	$16                     ; 0x16 <__rc6>
     65f: 8d 8e de     	sta	$de8e                   ; 0xde8e <__heap_start+0xadc4>
     662: a5 17        	lda	$17                     ; 0x17 <__rc7>
     664: 8d 8f de     	sta	$de8f                   ; 0xde8f <__heap_start+0xadc5>
     667: a9 0a        	lda	#$a
     669: 8d 82 de     	sta	$de82                   ; 0xde82 <__heap_start+0xadb8>
     66c: ea           	nop
     66d: ea           	nop
     66e: ea           	nop
     66f: ea           	nop
     670: ea           	nop
     671: ea           	nop
     672: ea           	nop
     673: ea           	nop
     674: ad 85 de     	lda	$de85                   ; 0xde85 <__heap_start+0xadbb>
     677: 29 1f        	and	#$1f
     679: 8d b4 30     	sta	$30b4                   ; 0x30b4 <g_fp_last_status>
     67c: ad 8a de     	lda	$de8a                   ; 0xde8a <__heap_start+0xadc0>
     67f: 85 12        	sta	$12                     ; 0x12 <__rc2>
     681: ad 8b de     	lda	$de8b                   ; 0xde8b <__heap_start+0xadc1>
     684: 85 13        	sta	$13                     ; 0x13 <__rc3>
     686: ad 88 de     	lda	$de88                   ; 0xde88 <__heap_start+0xadbe>
     689: ae 89 de     	ldx	$de89                   ; 0xde89 <__heap_start+0xadbf>
     68c: 60           	rts

0000068d <midiShutUp>:
     68d: aa           	tax
     68e: f0 04        	beq	$694 <midiShutUp+0x7>
     690: a2 b1        	ldx	#$b1
     692: 80 02        	bra	$696 <midiShutUp+0x9>
     694: a2 a1        	ldx	#$a1
     696: 86 12        	stx	$12                     ; 0x12 <__rc2>
     698: a2 dd        	ldx	#$dd
     69a: 86 13        	stx	$13                     ; 0x13 <__rc3>
     69c: a9 ff        	lda	#$ff
     69e: 92 12        	sta	($12)                   ; 0x12 <__rc2>
     6a0: 60           	rts

000006a1 <resetInstruments>:
     6a1: aa           	tax
     6a2: f0 04        	beq	$6a8 <resetInstruments+0x7>
     6a4: a2 b1        	ldx	#$b1
     6a6: 80 02        	bra	$6aa <resetInstruments+0x9>
     6a8: a2 a1        	ldx	#$a1
     6aa: 86 12        	stx	$12                     ; 0x12 <__rc2>
     6ac: a2 dd        	ldx	#$dd
     6ae: 86 13        	stx	$13                     ; 0x13 <__rc3>
     6b0: a9 c0        	lda	#$c0
     6b2: 92 12        	sta	($12)                   ; 0x12 <__rc2>
     6b4: aa           	tax
     6b5: a9 00        	lda	#$0
     6b7: 92 12        	sta	($12)                   ; 0x12 <__rc2>
     6b9: 8a           	txa
     6ba: 1a           	inc
     6bb: c9 d0        	cmp	#$d0
     6bd: d0 f3        	bne	$6b2 <resetInstruments+0x11>
     6bf: a9 ff        	lda	#$ff
     6c1: 92 12        	sta	($12)                   ; 0x12 <__rc2>
     6c3: 60           	rts

000006c4 <f256Init>:
     6c4: 64 14        	stz	$14                     ; 0x14 <__rc4>
     6c6: a2 00        	ldx	#$0
     6c8: 86 12        	stx	$12                     ; 0x12 <__rc2>
     6ca: a2 c0        	ldx	#$c0
     6cc: 86 13        	stx	$13                     ; 0x13 <__rc3>
     6ce: 64 01        	stz	$1                      ; 0x1 <__data_size+0x1>
     6d0: a2 3f        	ldx	#$3f
     6d2: 8e 00 d0     	stx	$d000                   ; 0xd000 <__heap_start+0x9f36>
     6d5: a2 b3        	ldx	#$b3
     6d7: 86 00        	stx	$0                      ; 0x0 <__data_size>
     6d9: 64 08        	stz	$8                      ; 0x8 <__data_size+0x8>
     6db: a2 01        	ldx	#$1
     6dd: 86 09        	stx	$9                      ; 0x9 <__data_size+0x9>
     6df: e8           	inx
     6e0: 86 0a        	stx	$a                      ; 0xa <__data_size+0xa>
     6e2: e8           	inx
     6e3: 86 0b        	stx	$b                      ; 0xb <__data_size+0xb>
     6e5: e8           	inx
     6e6: 86 0c        	stx	$c                      ; 0xc <__data_size+0xc>
     6e8: e8           	inx
     6e9: 86 0d        	stx	$d                      ; 0xd <__data_size+0xd>
     6eb: a2 b5        	ldx	#$b5
     6ed: a0 30        	ldy	#$30
     6ef: 86 f0        	stx	$f0                     ; 0xf0 <__zp_data_size+0x48>
     6f1: 84 f1        	sty	$f1                     ; 0xf1 <__zp_data_size+0x49>
     6f3: a2 00        	ldx	#$0
     6f5: 86 18        	stx	$18                     ; 0x18 <__rc8>
     6f7: ca           	dex
     6f8: 86 19        	stx	$19                     ; 0x19 <__rc9>
     6fa: 8a           	txa
     6fb: 0a           	asl
     6fc: 0a           	asl
     6fd: 18           	clc
     6fe: 69 d4        	adc	#$d4
     700: 85 1a        	sta	$1a                     ; 0x1a <__rc10>
     702: a0 00        	ldy	#$0
     704: 64 17        	stz	$17                     ; 0x17 <__rc7>
     706: 64 16        	stz	$16                     ; 0x16 <__rc6>
     708: a6 19        	ldx	$19                     ; 0x19 <__rc9>
     70a: e0 03        	cpx	#$3
     70c: a6 01        	ldx	$1                      ; 0x1 <__data_size+0x1>
     70e: 86 1c        	stx	$1c                     ; 0x1c <__rc12>
     710: a2 d0        	ldx	#$d0
     712: 84 1b        	sty	$1b                     ; 0x1b <__rc11>
     714: b0 02        	bcs	$718 <f256Init+0x54>
     716: a6 1a        	ldx	$1a                     ; 0x1a <__rc10>
     718: 86 15        	stx	$15                     ; 0x15 <__rc5>
     71a: a5 17        	lda	$17                     ; 0x17 <__rc7>
     71c: 18           	clc
     71d: 65 14        	adc	$14                     ; 0x14 <__rc4>
     71f: a8           	tay
     720: a6 17        	ldx	$17                     ; 0x17 <__rc7>
     722: a5 16        	lda	$16                     ; 0x16 <__rc6>
     724: 85 1d        	sta	$1d                     ; 0x1d <__rc13>
     726: a5 16        	lda	$16                     ; 0x16 <__rc6>
     728: 65 15        	adc	$15                     ; 0x15 <__rc5>
     72a: 84 16        	sty	$16                     ; 0x16 <__rc6>
     72c: a0 01        	ldy	#$1
     72e: 84 01        	sty	$1                      ; 0x1 <__data_size+0x1>
     730: 85 17        	sta	$17                     ; 0x17 <__rc7>
     732: a5 1b        	lda	$1b                     ; 0x1b <__rc11>
     734: 92 16        	sta	($16)                   ; 0x16 <__rc6>
     736: 91 16        	sta	($16),y                 ; 0x16 <__rc6>
     738: c8           	iny
     739: 91 16        	sta	($16),y                 ; 0x16 <__rc6>
     73b: 85 15        	sta	$15                     ; 0x15 <__rc5>
     73d: c8           	iny
     73e: a9 ff        	lda	#$ff
     740: 91 16        	sta	($16),y                 ; 0x16 <__rc6>
     742: 8a           	txa
     743: a6 1c        	ldx	$1c                     ; 0x1c <__rc12>
     745: 86 01        	stx	$1                      ; 0x1 <__data_size+0x1>
     747: 18           	clc
     748: 69 04        	adc	#$4
     74a: 85 17        	sta	$17                     ; 0x17 <__rc7>
     74c: a5 1d        	lda	$1d                     ; 0x1d <__rc13>
     74e: 69 00        	adc	#$0
     750: e6 15        	inc	$15                     ; 0x15 <__rc5>
     752: a4 15        	ldy	$15                     ; 0x15 <__rc5>
     754: 85 16        	sta	$16                     ; 0x16 <__rc6>
     756: c9 04        	cmp	#$4
     758: f0 03        	beq	$75d <f256Init+0x99>
     75a: 4c 08 07     	jmp	$708 <f256Init+0x44>
     75d: a5 17        	lda	$17                     ; 0x17 <__rc7>
     75f: f0 03        	beq	$764 <f256Init+0xa0>
     761: 4c 08 07     	jmp	$708 <f256Init+0x44>
     764: a6 18        	ldx	$18                     ; 0x18 <__rc8>
     766: e8           	inx
     767: e0 04        	cpx	#$4
     769: f0 03        	beq	$76e <f256Init+0xaa>
     76b: 4c f5 06     	jmp	$6f5 <f256Init+0x31>
     76e: ad 02 d0     	lda	$d002                   ; 0xd002 <__heap_start+0x9f38>
     771: 29 f0        	and	#$f0
     773: 8d 02 d0     	sta	$d002                   ; 0xd002 <__heap_start+0x9f38>
     776: ad 02 d0     	lda	$d002                   ; 0xd002 <__heap_start+0x9f38>
     779: 29 0f        	and	#$f
     77b: 09 10        	ora	#$10
     77d: 8d 02 d0     	sta	$d002                   ; 0xd002 <__heap_start+0x9f38>
     780: a2 02        	ldx	#$2
     782: 8e 03 d0     	stx	$d003                   ; 0xd003 <__heap_start+0x9f39>
     785: ad 01 d0     	lda	$d001                   ; 0xd001 <__heap_start+0x9f37>
     788: 29 f9        	and	#$f9
     78a: 09 04        	ora	#$4
     78c: 8d 01 d0     	sta	$d001                   ; 0xd001 <__heap_start+0x9f37>
     78f: 64 14        	stz	$14                     ; 0x14 <__rc4>
     791: 9c 10 d0     	stz	$d010                   ; 0xd010 <__heap_start+0x9f46>
     794: a2 00        	ldx	#$0
     796: 64 15        	stz	$15                     ; 0x15 <__rc5>
     798: 86 18        	stx	$18                     ; 0x18 <__rc8>
     79a: a4 18        	ldy	$18                     ; 0x18 <__rc8>
     79c: be 84 30     	ldx	$3084,y                 ; 0x3084 <textColors>
     79f: 86 19        	stx	$19                     ; 0x19 <__rc9>
     7a1: be 85 30     	ldx	$3085,y                 ; 0x3085 <textColors+0x1>
     7a4: 86 1a        	stx	$1a                     ; 0x1a <__rc10>
     7a6: be 86 30     	ldx	$3086,y                 ; 0x3086 <textColors+0x2>
     7a9: 86 1b        	stx	$1b                     ; 0x1b <__rc11>
     7ab: a6 15        	ldx	$15                     ; 0x15 <__rc5>
     7ad: 8e 00 de     	stx	$de00                   ; 0xde00 <__heap_start+0xad36>
     7b0: 86 17        	stx	$17                     ; 0x17 <__rc7>
     7b2: 9c 01 de     	stz	$de01                   ; 0xde01 <__heap_start+0xad37>
     7b5: a2 04        	ldx	#$4
     7b7: 8e 02 de     	stx	$de02                   ; 0xde02 <__heap_start+0xad38>
     7ba: 86 1d        	stx	$1d                     ; 0x1d <__rc13>
     7bc: 9c 03 de     	stz	$de03                   ; 0xde03 <__heap_start+0xad39>
     7bf: ad 10 de     	lda	$de10                   ; 0xde10 <__heap_start+0xad46>
     7c2: ac 11 de     	ldy	$de11                   ; 0xde11 <__heap_start+0xad47>
     7c5: 84 15        	sty	$15                     ; 0x15 <__rc5>
     7c7: ac 12 de     	ldy	$de12                   ; 0xde12 <__heap_start+0xad48>
     7ca: ac 13 de     	ldy	$de13                   ; 0xde13 <__heap_start+0xad49>
     7cd: a2 00        	ldx	#$0
     7cf: 18           	clc
     7d0: 65 14        	adc	$14                     ; 0x14 <__rc4>
     7d2: a8           	tay
     7d3: 86 1f        	stx	$1f                     ; 0x1f <__rc15>
     7d5: a6 17        	ldx	$17                     ; 0x17 <__rc7>
     7d7: a9 d8        	lda	#$d8
     7d9: 65 15        	adc	$15                     ; 0x15 <__rc5>
     7db: 84 16        	sty	$16                     ; 0x16 <__rc6>
     7dd: 85 17        	sta	$17                     ; 0x17 <__rc7>
     7df: a5 1b        	lda	$1b                     ; 0x1b <__rc11>
     7e1: 92 16        	sta	($16)                   ; 0x16 <__rc6>
     7e3: a0 01        	ldy	#$1
     7e5: a5 1a        	lda	$1a                     ; 0x1a <__rc10>
     7e7: 91 16        	sta	($16),y                 ; 0x16 <__rc6>
     7e9: 84 1c        	sty	$1c                     ; 0x1c <__rc12>
     7eb: c8           	iny
     7ec: a5 19        	lda	$19                     ; 0x19 <__rc9>
     7ee: 91 16        	sta	($16),y                 ; 0x16 <__rc6>
     7f0: 84 1e        	sty	$1e                     ; 0x1e <__rc14>
     7f2: c8           	iny
     7f3: a9 ff        	lda	#$ff
     7f5: 91 16        	sta	($16),y                 ; 0x16 <__rc6>
     7f7: 85 23        	sta	$23                     ; 0x23 <__rc19>
     7f9: 84 22        	sty	$22                     ; 0x22 <__rc18>
     7fb: 8e 00 de     	stx	$de00                   ; 0xde00 <__heap_start+0xad36>
     7fe: 9c 01 de     	stz	$de01                   ; 0xde01 <__heap_start+0xad37>
     801: a4 1d        	ldy	$1d                     ; 0x1d <__rc13>
     803: 8c 02 de     	sty	$de02                   ; 0xde02 <__heap_start+0xad38>
     806: 9c 03 de     	stz	$de03                   ; 0xde03 <__heap_start+0xad39>
     809: ad 10 de     	lda	$de10                   ; 0xde10 <__heap_start+0xad46>
     80c: 85 15        	sta	$15                     ; 0x15 <__rc5>
     80e: ad 11 de     	lda	$de11                   ; 0xde11 <__heap_start+0xad47>
     811: 85 16        	sta	$16                     ; 0x16 <__rc6>
     813: a9 40        	lda	#$40
     815: a4 1f        	ldy	$1f                     ; 0x1f <__rc15>
     817: c0 01        	cpy	#$1
     819: 65 15        	adc	$15                     ; 0x15 <__rc5>
     81b: a8           	tay
     81c: a9 d8        	lda	#$d8
     81e: 65 16        	adc	$16                     ; 0x16 <__rc6>
     820: 85 17        	sta	$17                     ; 0x17 <__rc7>
     822: 84 16        	sty	$16                     ; 0x16 <__rc6>
     824: ad 12 de     	lda	$de12                   ; 0xde12 <__heap_start+0xad48>
     827: ad 13 de     	lda	$de13                   ; 0xde13 <__heap_start+0xad49>
     82a: a5 1b        	lda	$1b                     ; 0x1b <__rc11>
     82c: 92 16        	sta	($16)                   ; 0x16 <__rc6>
     82e: a5 1a        	lda	$1a                     ; 0x1a <__rc10>
     830: a4 1c        	ldy	$1c                     ; 0x1c <__rc12>
     832: 91 16        	sta	($16),y                 ; 0x16 <__rc6>
     834: a5 19        	lda	$19                     ; 0x19 <__rc9>
     836: a4 1e        	ldy	$1e                     ; 0x1e <__rc14>
     838: 91 16        	sta	($16),y                 ; 0x16 <__rc6>
     83a: a4 22        	ldy	$22                     ; 0x22 <__rc18>
     83c: a5 23        	lda	$23                     ; 0x23 <__rc19>
     83e: 91 16        	sta	($16),y                 ; 0x16 <__rc6>
     840: e8           	inx
     841: 86 15        	stx	$15                     ; 0x15 <__rc5>
     843: 18           	clc
     844: a5 18        	lda	$18                     ; 0x18 <__rc8>
     846: 69 03        	adc	#$3
     848: aa           	tax
     849: c9 30        	cmp	#$30
     84b: f0 03        	beq	$850 <f256Init+0x18c>
     84d: 4c 98 07     	jmp	$798 <f256Init+0xd4>
     850: a6 01        	ldx	$1                      ; 0x1 <__data_size+0x1>
     852: 86 18        	stx	$18                     ; 0x18 <__rc8>
     854: a2 50        	ldx	#$50
     856: 8e 00 de     	stx	$de00                   ; 0xde00 <__heap_start+0xad36>
     859: 9c 01 de     	stz	$de01                   ; 0xde01 <__heap_start+0xad37>
     85c: a2 1e        	ldx	#$1e
     85e: 8e 02 de     	stx	$de02                   ; 0xde02 <__heap_start+0xad38>
     861: 9c 03 de     	stz	$de03                   ; 0xde03 <__heap_start+0xad39>
     864: ae 10 de     	ldx	$de10                   ; 0xde10 <__heap_start+0xad46>
     867: ac 11 de     	ldy	$de11                   ; 0xde11 <__heap_start+0xad47>
     86a: ad 12 de     	lda	$de12                   ; 0xde12 <__heap_start+0xad48>
     86d: ad 13 de     	lda	$de13                   ; 0xde13 <__heap_start+0xad49>
     870: a9 02        	lda	#$2
     872: 85 01        	sta	$1                      ; 0x1 <__data_size+0x1>
     874: e0 01        	cpx	#$1
     876: 98           	tya
     877: e9 00        	sbc	#$0
     879: 50 02        	bvc	$87d <f256Init+0x1b9>
     87b: 49 80        	eor	#$80
     87d: c9 00        	cmp	#$0
     87f: 30 48        	bmi	$8c9 <f256Init+0x205>
     881: a9 20        	lda	#$20
     883: 86 19        	stx	$19                     ; 0x19 <__rc9>
     885: 86 14        	stx	$14                     ; 0x14 <__rc4>
     887: 84 15        	sty	$15                     ; 0x15 <__rc5>
     889: a2 00        	ldx	#$0
     88b: 86 16        	stx	$16                     ; 0x16 <__rc6>
     88d: a2 c0        	ldx	#$c0
     88f: 86 17        	stx	$17                     ; 0x17 <__rc7>
     891: 92 16        	sta	($16)                   ; 0x16 <__rc6>
     893: e6 16        	inc	$16                     ; 0x16 <__rc6>
     895: d0 02        	bne	$899 <f256Init+0x1d5>
     897: e6 17        	inc	$17                     ; 0x17 <__rc7>
     899: a2 ff        	ldx	#$ff
     89b: c6 14        	dec	$14                     ; 0x14 <__rc4>
     89d: e4 14        	cpx	$14                     ; 0x14 <__rc4>
     89f: d0 02        	bne	$8a3 <f256Init+0x1df>
     8a1: c6 15        	dec	$15                     ; 0x15 <__rc5>
     8a3: a6 15        	ldx	$15                     ; 0x15 <__rc5>
     8a5: d0 ea        	bne	$891 <f256Init+0x1cd>
     8a7: a6 14        	ldx	$14                     ; 0x14 <__rc4>
     8a9: d0 e6        	bne	$891 <f256Init+0x1cd>
     8ab: a2 03        	ldx	#$3
     8ad: 86 01        	stx	$1                      ; 0x1 <__data_size+0x1>
     8af: a6 19        	ldx	$19                     ; 0x19 <__rc9>
     8b1: a9 f0        	lda	#$f0
     8b3: 92 12        	sta	($12)                   ; 0x12 <__rc2>
     8b5: e6 12        	inc	$12                     ; 0x12 <__rc2>
     8b7: d0 02        	bne	$8bb <f256Init+0x1f7>
     8b9: e6 13        	inc	$13                     ; 0x13 <__rc3>
     8bb: ca           	dex
     8bc: e0 ff        	cpx	#$ff
     8be: d0 01        	bne	$8c1 <f256Init+0x1fd>
     8c0: 88           	dey
     8c1: 98           	tya
     8c2: d0 ed        	bne	$8b1 <f256Init+0x1ed>
     8c4: 8a           	txa
     8c5: d0 ea        	bne	$8b1 <f256Init+0x1ed>
     8c7: 80 04        	bra	$8cd <f256Init+0x209>
     8c9: a2 03        	ldx	#$3
     8cb: 86 01        	stx	$1                      ; 0x1 <__data_size+0x1>
     8cd: a6 18        	ldx	$18                     ; 0x18 <__rc8>
     8cf: 86 01        	stx	$1                      ; 0x1 <__data_size+0x1>
     8d1: 64 de        	stz	$de                     ; 0xde <_col>
     8d3: 9c 14 d0     	stz	$d014                   ; 0xd014 <__heap_start+0x9f4a>
     8d6: 9c 15 d0     	stz	$d015                   ; 0xd015 <__heap_start+0x9f4b>
     8d9: 64 df        	stz	$df                     ; 0xdf <_row>
     8db: 9c 16 d0     	stz	$d016                   ; 0xd016 <__heap_start+0x9f4c>
     8de: 9c 17 d0     	stz	$d017                   ; 0xd017 <__heap_start+0x9f4d>
     8e1: a2 40        	ldx	#$40
     8e3: 8e 00 de     	stx	$de00                   ; 0xde00 <__heap_start+0xad36>
     8e6: a0 01        	ldy	#$1
     8e8: 8c 01 de     	sty	$de01                   ; 0xde01 <__heap_start+0xad37>
     8eb: a2 f0        	ldx	#$f0
     8ed: 8e 02 de     	stx	$de02                   ; 0xde02 <__heap_start+0xad38>
     8f0: 9c 03 de     	stz	$de03                   ; 0xde03 <__heap_start+0xad39>
     8f3: ae 10 de     	ldx	$de10                   ; 0xde10 <__heap_start+0xad46>
     8f6: 86 17        	stx	$17                     ; 0x17 <__rc7>
     8f8: ae 11 de     	ldx	$de11                   ; 0xde11 <__heap_start+0xad47>
     8fb: 86 12        	stx	$12                     ; 0x12 <__rc2>
     8fd: ae 12 de     	ldx	$de12                   ; 0xde12 <__heap_start+0xad48>
     900: 86 13        	stx	$13                     ; 0x13 <__rc3>
     902: ae 13 de     	ldx	$de13                   ; 0xde13 <__heap_start+0xad49>
     905: 86 14        	stx	$14                     ; 0x14 <__rc4>
     907: 64 e0        	stz	$e0                     ; 0xe0 <_active>
     909: 84 e1        	sty	$e1                     ; 0xe1 <_color>
     90b: a4 12        	ldy	$12                     ; 0x12 <__rc2>
     90d: 84 15        	sty	$15                     ; 0x15 <__rc5>
     90f: 06 15        	asl	$15                     ; 0x15 <__rc5>
     911: a5 13        	lda	$13                     ; 0x13 <__rc3>
     913: 2a           	rol
     914: 86 16        	stx	$16                     ; 0x16 <__rc6>
     916: 26 16        	rol	$16                     ; 0x16 <__rc6>
     918: 06 15        	asl	$15                     ; 0x15 <__rc5>
     91a: 2a           	rol
     91b: 26 16        	rol	$16                     ; 0x16 <__rc6>
     91d: 06 15        	asl	$15                     ; 0x15 <__rc5>
     91f: 2a           	rol
     920: 26 16        	rol	$16                     ; 0x16 <__rc6>
     922: 85 15        	sta	$15                     ; 0x15 <__rc5>
     924: 8d 00 de     	sta	$de00                   ; 0xde00 <__heap_start+0xad36>
     927: a5 16        	lda	$16                     ; 0x16 <__rc6>
     929: 8d 01 de     	sta	$de01                   ; 0xde01 <__heap_start+0xad37>
     92c: 9c 02 de     	stz	$de02                   ; 0xde02 <__heap_start+0xad38>
     92f: a2 20        	ldx	#$20
     931: 8e 03 de     	stx	$de03                   ; 0xde03 <__heap_start+0xad39>
     934: ae 10 de     	ldx	$de10                   ; 0xde10 <__heap_start+0xad46>
     937: 86 16        	stx	$16                     ; 0x16 <__rc6>
     939: ae 11 de     	ldx	$de11                   ; 0xde11 <__heap_start+0xad47>
     93c: 86 18        	stx	$18                     ; 0x18 <__rc8>
     93e: ac 12 de     	ldy	$de12                   ; 0xde12 <__heap_start+0xad48>
     941: ae 13 de     	ldx	$de13                   ; 0xde13 <__heap_start+0xad49>
     944: e4 14        	cpx	$14                     ; 0x14 <__rc4>
     946: d0 14        	bne	$95c <f256Init+0x298>
     948: c4 13        	cpy	$13                     ; 0x13 <__rc3>
     94a: d0 10        	bne	$95c <f256Init+0x298>
     94c: a6 18        	ldx	$18                     ; 0x18 <__rc8>
     94e: e4 12        	cpx	$12                     ; 0x12 <__rc2>
     950: d0 0a        	bne	$95c <f256Init+0x298>
     952: a6 16        	ldx	$16                     ; 0x16 <__rc6>
     954: e4 17        	cpx	$17                     ; 0x17 <__rc7>
     956: d0 04        	bne	$95c <f256Init+0x298>
     958: a6 15        	ldx	$15                     ; 0x15 <__rc5>
     95a: 80 06        	bra	$962 <f256Init+0x29e>
     95c: a6 15        	ldx	$15                     ; 0x15 <__rc5>
     95e: e8           	inx
     95f: d0 01        	bne	$962 <f256Init+0x29e>
     961: 1a           	inc
     962: 8e 00 de     	stx	$de00                   ; 0xde00 <__heap_start+0xad36>
     965: 8d 01 de     	sta	$de01                   ; 0xde01 <__heap_start+0xad37>
     968: 9c 02 de     	stz	$de02                   ; 0xde02 <__heap_start+0xad38>
     96b: a2 20        	ldx	#$20
     96d: 8e 03 de     	stx	$de03                   ; 0xde03 <__heap_start+0xad39>
     970: ae 10 de     	ldx	$de10                   ; 0xde10 <__heap_start+0xad46>
     973: 86 12        	stx	$12                     ; 0x12 <__rc2>
     975: ae 11 de     	ldx	$de11                   ; 0xde11 <__heap_start+0xad47>
     978: 86 13        	stx	$13                     ; 0x13 <__rc3>
     97a: ae 12 de     	ldx	$de12                   ; 0xde12 <__heap_start+0xad48>
     97d: 86 14        	stx	$14                     ; 0x14 <__rc4>
     97f: ae 13 de     	ldx	$de13                   ; 0xde13 <__heap_start+0xad49>
     982: 86 15        	stx	$15                     ; 0x15 <__rc5>
     984: a9 00        	lda	#$0
     986: 38           	sec
     987: e5 12        	sbc	$12                     ; 0x12 <__rc2>
     989: 85 19        	sta	$19                     ; 0x19 <__rc9>
     98b: a9 00        	lda	#$0
     98d: e5 13        	sbc	$13                     ; 0x13 <__rc3>
     98f: aa           	tax
     990: a9 08        	lda	#$8
     992: e5 14        	sbc	$14                     ; 0x14 <__rc4>
     994: 85 16        	sta	$16                     ; 0x16 <__rc6>
     996: a9 00        	lda	#$0
     998: e5 15        	sbc	$15                     ; 0x15 <__rc5>
     99a: 8e be 30     	stx	$30be                   ; 0x30be <_BITMAP_BASE+0x1>
     99d: a4 16        	ldy	$16                     ; 0x16 <__rc6>
     99f: 8c bf 30     	sty	$30bf                   ; 0x30bf <_BITMAP_BASE+0x2>
     9a2: 8d c0 30     	sta	$30c0                   ; 0x30c0 <_BITMAP_BASE+0x3>
     9a5: a8           	tay
     9a6: a5 19        	lda	$19                     ; 0x19 <__rc9>
     9a8: 38           	sec
     9a9: e5 12        	sbc	$12                     ; 0x12 <__rc2>
     9ab: 85 18        	sta	$18                     ; 0x18 <__rc8>
     9ad: 8a           	txa
     9ae: e5 13        	sbc	$13                     ; 0x13 <__rc3>
     9b0: 85 1a        	sta	$1a                     ; 0x1a <__rc10>
     9b2: a5 16        	lda	$16                     ; 0x16 <__rc6>
     9b4: e5 14        	sbc	$14                     ; 0x14 <__rc4>
     9b6: 85 16        	sta	$16                     ; 0x16 <__rc6>
     9b8: 98           	tya
     9b9: e5 15        	sbc	$15                     ; 0x15 <__rc5>
     9bb: 85 17        	sta	$17                     ; 0x17 <__rc7>
     9bd: 38           	sec
     9be: a4 18        	ldy	$18                     ; 0x18 <__rc8>
     9c0: 8c c1 30     	sty	$30c1                   ; 0x30c1 <_BITMAP_BASE+0x4>
     9c3: a6 1a        	ldx	$1a                     ; 0x1a <__rc10>
     9c5: 8e c2 30     	stx	$30c2                   ; 0x30c2 <_BITMAP_BASE+0x5>
     9c8: a4 16        	ldy	$16                     ; 0x16 <__rc6>
     9ca: 8c c3 30     	sty	$30c3                   ; 0x30c3 <_BITMAP_BASE+0x6>
     9cd: 8d c4 30     	sta	$30c4                   ; 0x30c4 <_BITMAP_BASE+0x7>
     9d0: a5 18        	lda	$18                     ; 0x18 <__rc8>
     9d2: e5 12        	sbc	$12                     ; 0x12 <__rc2>
     9d4: 85 18        	sta	$18                     ; 0x18 <__rc8>
     9d6: a5 1a        	lda	$1a                     ; 0x1a <__rc10>
     9d8: e5 13        	sbc	$13                     ; 0x13 <__rc3>
     9da: a8           	tay
     9db: a5 16        	lda	$16                     ; 0x16 <__rc6>
     9dd: e5 14        	sbc	$14                     ; 0x14 <__rc4>
     9df: 85 12        	sta	$12                     ; 0x12 <__rc2>
     9e1: a5 17        	lda	$17                     ; 0x17 <__rc7>
     9e3: e5 15        	sbc	$15                     ; 0x15 <__rc5>
     9e5: a6 18        	ldx	$18                     ; 0x18 <__rc8>
     9e7: 8e c5 30     	stx	$30c5                   ; 0x30c5 <_BITMAP_BASE+0x8>
     9ea: 8c c6 30     	sty	$30c6                   ; 0x30c6 <_BITMAP_BASE+0x9>
     9ed: a6 19        	ldx	$19                     ; 0x19 <__rc9>
     9ef: 8e bd 30     	stx	$30bd                   ; 0x30bd <_BITMAP_BASE>
     9f2: a4 12        	ldy	$12                     ; 0x12 <__rc2>
     9f4: 8c c7 30     	sty	$30c7                   ; 0x30c7 <_BITMAP_BASE+0xa>
     9f7: 8d c8 30     	sta	$30c8                   ; 0x30c8 <_BITMAP_BASE+0xb>
     9fa: 8e 01 d1     	stx	$d101                   ; 0xd101 <__heap_start+0xa037>
     9fd: ae be 30     	ldx	$30be                   ; 0x30be <_BITMAP_BASE+0x1>
     a00: 8e 02 d1     	stx	$d102                   ; 0xd102 <__heap_start+0xa038>
     a03: ae bf 30     	ldx	$30bf                   ; 0x30bf <_BITMAP_BASE+0x2>
     a06: 8e 03 d1     	stx	$d103                   ; 0xd103 <__heap_start+0xa039>
     a09: ae c1 30     	ldx	$30c1                   ; 0x30c1 <_BITMAP_BASE+0x4>
     a0c: 8e 09 d1     	stx	$d109                   ; 0xd109 <__heap_start+0xa03f>
     a0f: ae c2 30     	ldx	$30c2                   ; 0x30c2 <_BITMAP_BASE+0x5>
     a12: 8e 0a d1     	stx	$d10a                   ; 0xd10a <__heap_start+0xa040>
     a15: ae c3 30     	ldx	$30c3                   ; 0x30c3 <_BITMAP_BASE+0x6>
     a18: 8e 0b d1     	stx	$d10b                   ; 0xd10b <__heap_start+0xa041>
     a1b: ae c5 30     	ldx	$30c5                   ; 0x30c5 <_BITMAP_BASE+0x8>
     a1e: 8e 11 d1     	stx	$d111                   ; 0xd111 <__heap_start+0xa047>
     a21: ae c6 30     	ldx	$30c6                   ; 0x30c6 <_BITMAP_BASE+0x9>
     a24: 8e 12 d1     	stx	$d112                   ; 0xd112 <__heap_start+0xa048>
     a27: ae c7 30     	ldx	$30c7                   ; 0x30c7 <_BITMAP_BASE+0xa>
     a2a: 8e 13 d1     	stx	$d113                   ; 0xd113 <__heap_start+0xa049>
     a2d: 9c 00 d1     	stz	$d100                   ; 0xd100 <__heap_start+0xa036>
     a30: 9c 08 d1     	stz	$d108                   ; 0xd108 <__heap_start+0xa03e>
     a33: 9c 10 d1     	stz	$d110                   ; 0xd110 <__heap_start+0xa046>
     a36: a2 10        	ldx	#$10
     a38: 8e 00 d2     	stx	$d200                   ; 0xd200 <__heap_start+0xa136>
     a3b: 8e 0c d2     	stx	$d20c                   ; 0xd20c <__heap_start+0xa142>
     a3e: 8e 18 d2     	stx	$d218                   ; 0xd218 <__heap_start+0xa14e>
     a41: a0 d9        	ldy	#$d9
     a43: a2 40        	ldx	#$40
     a45: 64 12        	stz	$12                     ; 0x12 <__rc2>
     a47: 84 13        	sty	$13                     ; 0x13 <__rc3>
     a49: a9 00        	lda	#$0
     a4b: 92 12        	sta	($12)                   ; 0x12 <__rc2>
     a4d: ca           	dex
     a4e: 18           	clc
     a4f: a5 12        	lda	$12                     ; 0x12 <__rc2>
     a51: 69 08        	adc	#$8
     a53: 85 12        	sta	$12                     ; 0x12 <__rc2>
     a55: 98           	tya
     a56: 69 00        	adc	#$0
     a58: a8           	tay
     a59: 8a           	txa
     a5a: d0 eb        	bne	$a47 <f256Init+0x383>
     a5c: a2 e7        	ldx	#$e7
     a5e: a0 00        	ldy	#$0
     a60: 86 fb        	stx	$fb                     ; 0xfb <__zp_data_size+0x53>
     a62: 84 fc        	sty	$fc                     ; 0xfc <__zp_data_size+0x54>
     a64: a2 08        	ldx	#$8
     a66: 86 fd        	stx	$fd                     ; 0xfd <__zp_data_size+0x55>
     a68: a2 ef        	ldx	#$ef
     a6a: a0 00        	ldy	#$0
     a6c: 86 12        	stx	$12                     ; 0x12 <__rc2>
     a6e: 84 13        	sty	$13                     ; 0x13 <__rc3>
     a70: a2 bc        	ldx	#$bc
     a72: 86 14        	stx	$14                     ; 0x14 <__rc4>
     a74: a2 30        	ldx	#$30
     a76: 86 15        	stx	$15                     ; 0x15 <__rc5>
     a78: 20 dc ff     	jsr	$ffdc <__heap_start+0xcf12>
     a7b: 92 12        	sta	($12)                   ; 0x12 <__rc2>
     a7d: a9 00        	lda	#$0
     a7f: 6a           	ror
     a80: 85 14        	sta	$14                     ; 0x14 <__rc4>
     a82: a6 ed        	ldx	$ed                     ; 0xed <__zp_data_size+0x45>
     a84: a4 ee        	ldy	$ee                     ; 0xee <__zp_data_size+0x46>
     a86: 8e 00 de     	stx	$de00                   ; 0xde00 <__heap_start+0xad36>
     a89: 9c 01 de     	stz	$de01                   ; 0xde01 <__heap_start+0xad37>
     a8c: 8c 02 de     	sty	$de02                   ; 0xde02 <__heap_start+0xad38>
     a8f: 9c 03 de     	stz	$de03                   ; 0xde03 <__heap_start+0xad39>
     a92: ae 10 de     	ldx	$de10                   ; 0xde10 <__heap_start+0xad46>
     a95: ac 11 de     	ldy	$de11                   ; 0xde11 <__heap_start+0xad47>
     a98: ad 12 de     	lda	$de12                   ; 0xde12 <__heap_start+0xad48>
     a9b: ad 13 de     	lda	$de13                   ; 0xde13 <__heap_start+0xad49>
     a9e: 8e a4 d6     	stx	$d6a4                   ; 0xd6a4 <__heap_start+0xa5da>
     aa1: 8c a5 d6     	sty	$d6a5                   ; 0xd6a5 <__heap_start+0xa5db>
     aa4: a2 03        	ldx	#$3
     aa6: 8e a6 d6     	stx	$d6a6                   ; 0xd6a6 <__heap_start+0xa5dc>
     aa9: 60           	rts

00000aaa <main>:
     aaa: 20 c4 06     	jsr	$6c4 <f256Init>
     aad: 20 b0 0a     	jsr	$ab0 <f256main>

00000ab0 <f256main>:
     ab0: 18           	clc
     ab1: a5 10        	lda	$10                     ; 0x10 <__rc0>
     ab3: 69 fa        	adc	#$fa
     ab5: 85 10        	sta	$10                     ; 0x10 <__rc0>
     ab7: a5 11        	lda	$11                     ; 0x11 <__rc1>
     ab9: 69 ff        	adc	#$ff
     abb: 85 11        	sta	$11                     ; 0x11 <__rc1>
     abd: 64 24        	stz	$24                     ; 0x24 <__rc20>
     abf: 64 01        	stz	$1                      ; 0x1 <__data_size+0x1>
     ac1: a2 0f        	ldx	#$f
     ac3: 8e 00 d0     	stx	$d000                   ; 0xd000 <__heap_start+0x9f36>
     ac6: 9c 01 d0     	stz	$d001                   ; 0xd001 <__heap_start+0x9f37>
     ac9: e8           	inx
     aca: 8e 02 d0     	stx	$d002                   ; 0xd002 <__heap_start+0x9f38>
     acd: a2 02        	ldx	#$2
     acf: 8e 03 d0     	stx	$d003                   ; 0xd003 <__heap_start+0x9f39>
     ad2: 9c 0d d0     	stz	$d00d                   ; 0xd00d <__heap_start+0x9f43>
     ad5: 9c 0e d0     	stz	$d00e                   ; 0xd00e <__heap_start+0x9f44>
     ad8: 9c 0f d0     	stz	$d00f                   ; 0xd00f <__heap_start+0x9f45>
     adb: ad 02 d0     	lda	$d002                   ; 0xd002 <__heap_start+0x9f38>
     ade: 29 f0        	and	#$f0
     ae0: 8d 02 d0     	sta	$d002                   ; 0xd002 <__heap_start+0x9f38>
     ae3: ad 02 d0     	lda	$d002                   ; 0xd002 <__heap_start+0x9f38>
     ae6: 29 0f        	and	#$f
     ae8: 09 10        	ora	#$10
     aea: 8d 02 d0     	sta	$d002                   ; 0xd002 <__heap_start+0x9f38>
     aed: 9c bd 30     	stz	$30bd                   ; 0x30bd <_BITMAP_BASE>
     af0: 9c be 30     	stz	$30be                   ; 0x30be <_BITMAP_BASE+0x1>
     af3: ca           	dex
     af4: 8e bf 30     	stx	$30bf                   ; 0x30bf <_BITMAP_BASE+0x2>
     af7: 9c c0 30     	stz	$30c0                   ; 0x30c0 <_BITMAP_BASE+0x3>
     afa: 9c 01 d1     	stz	$d101                   ; 0xd101 <__heap_start+0xa037>
     afd: 9c 02 d1     	stz	$d102                   ; 0xd102 <__heap_start+0xa038>
     b00: 8e 03 d1     	stx	$d103                   ; 0xd103 <__heap_start+0xa039>
     b03: 86 25        	stx	$25                     ; 0x25 <__rc21>
     b05: 9c c1 30     	stz	$30c1                   ; 0x30c1 <_BITMAP_BASE+0x4>
     b08: 9c c2 30     	stz	$30c2                   ; 0x30c2 <_BITMAP_BASE+0x5>
     b0b: a2 03        	ldx	#$3
     b0d: 8e c3 30     	stx	$30c3                   ; 0x30c3 <_BITMAP_BASE+0x6>
     b10: 9c c4 30     	stz	$30c4                   ; 0x30c4 <_BITMAP_BASE+0x7>
     b13: 9c 09 d1     	stz	$d109                   ; 0xd109 <__heap_start+0xa03f>
     b16: 9c 0a d1     	stz	$d10a                   ; 0xd10a <__heap_start+0xa040>
     b19: 8e 0b d1     	stx	$d10b                   ; 0xd10b <__heap_start+0xa041>
     b1c: 64 e0        	stz	$e0                     ; 0xe0 <_active>
     b1e: ad 00 d1     	lda	$d100                   ; 0xd100 <__heap_start+0xa036>
     b21: 29 f9        	and	#$f9
     b23: 8d 00 d1     	sta	$d100                   ; 0xd100 <__heap_start+0xa036>
     b26: 64 e1        	stz	$e1                     ; 0xe1 <_color>
     b28: 20 22 1d     	jsr	$1d22 <bitmapClear>
     b2b: a6 25        	ldx	$25                     ; 0x25 <__rc21>
     b2d: 86 e0        	stx	$e0                     ; 0xe0 <_active>
     b2f: ad 08 d1     	lda	$d108                   ; 0xd108 <__heap_start+0xa03e>
     b32: 29 f9        	and	#$f9
     b34: 8d 08 d1     	sta	$d108                   ; 0xd108 <__heap_start+0xa03e>
     b37: 64 e1        	stz	$e1                     ; 0xe1 <_color>
     b39: 20 22 1d     	jsr	$1d22 <bitmapClear>
     b3c: 64 e0        	stz	$e0                     ; 0xe0 <_active>
     b3e: a6 25        	ldx	$25                     ; 0x25 <__rc21>
     b40: 86 e1        	stx	$e1                     ; 0xe1 <_color>
     b42: 8e 00 d1     	stx	$d100                   ; 0xd100 <__heap_start+0xa036>
     b45: a2 cd        	ldx	#$cd
     b47: 86 25        	stx	$25                     ; 0x25 <__rc21>
     b49: ca           	dex
     b4a: 86 26        	stx	$26                     ; 0x26 <__rc22>
     b4c: a2 4c        	ldx	#$4c
     b4e: 86 27        	stx	$27                     ; 0x27 <__rc23>
     b50: a2 3e        	ldx	#$3e
     b52: 86 28        	stx	$28                     ; 0x28 <__rc24>
     b54: a6 24        	ldx	$24                     ; 0x24 <__rc20>
     b56: b4 30        	ldy	$30,x                   ; 0x30 <skull_vertices>
     b58: 84 18        	sty	$18                     ; 0x18 <__rc8>
     b5a: b4 31        	ldy	$31,x                   ; 0x31 <skull_vertices+0x1>
     b5c: 84 19        	sty	$19                     ; 0x19 <__rc9>
     b5e: b4 32        	ldy	$32,x                   ; 0x32 <skull_vertices+0x2>
     b60: b5 33        	lda	$33,x                   ; 0x33 <skull_vertices+0x3>
     b62: 86 29        	stx	$29                     ; 0x29 <__rc25>
     b64: 84 12        	sty	$12                     ; 0x12 <__rc2>
     b66: 85 13        	sta	$13                     ; 0x13 <__rc3>
     b68: a6 25        	ldx	$25                     ; 0x25 <__rc21>
     b6a: 86 14        	stx	$14                     ; 0x14 <__rc4>
     b6c: a6 26        	ldx	$26                     ; 0x26 <__rc22>
     b6e: 86 15        	stx	$15                     ; 0x15 <__rc5>
     b70: a6 27        	ldx	$27                     ; 0x27 <__rc23>
     b72: 86 16        	stx	$16                     ; 0x16 <__rc6>
     b74: a6 28        	ldx	$28                     ; 0x28 <__rc24>
     b76: 86 17        	stx	$17                     ; 0x17 <__rc7>
     b78: a6 19        	ldx	$19                     ; 0x19 <__rc9>
     b7a: a5 18        	lda	$18                     ; 0x18 <__rc8>
     b7c: 20 ea 05     	jsr	$5ea <mathFloatMul>
     b7f: 86 14        	stx	$14                     ; 0x14 <__rc4>
     b81: a6 29        	ldx	$29                     ; 0x29 <__rc25>
     b83: 9d 30 00     	sta	$30,x                   ; 0x30 <skull_vertices>
     b86: a5 14        	lda	$14                     ; 0x14 <__rc4>
     b88: 9d 31 00     	sta	$31,x                   ; 0x31 <skull_vertices+0x1>
     b8b: a5 12        	lda	$12                     ; 0x12 <__rc2>
     b8d: 9d 32 00     	sta	$32,x                   ; 0x32 <skull_vertices+0x2>
     b90: a5 13        	lda	$13                     ; 0x13 <__rc3>
     b92: 9d 33 00     	sta	$33,x                   ; 0x33 <skull_vertices+0x3>
     b95: 18           	clc
     b96: a5 24        	lda	$24                     ; 0x24 <__rc20>
     b98: 69 04        	adc	#$4
     b9a: 85 24        	sta	$24                     ; 0x24 <__rc20>
     b9c: c9 60        	cmp	#$60
     b9e: d0 b4        	bne	$b54 <f256main+0xa4>
     ba0: a9 00        	lda	#$0
     ba2: 20 a1 06     	jsr	$6a1 <resetInstruments>
     ba5: a9 00        	lda	#$0
     ba7: 20 8d 06     	jsr	$68d <midiShutUp>
     baa: a4 0f        	ldy	$f                      ; 0xf <__zp_bss_size>
     bac: 78           	sei
     bad: a9 28        	lda	#$28
     baf: 85 0f        	sta	$f                      ; 0xf <__zp_bss_size>
     bb1: ae 0a e0     	ldx	$e00a                   ; 0xe00a <__heap_start+0xaf40>
     bb4: 84 0f        	sty	$f                      ; 0xf <__zp_bss_size>
     bb6: 58           	cli
     bb7: a4 0f        	ldy	$f                      ; 0xf <__zp_bss_size>
     bb9: 78           	sei
     bba: 85 0f        	sta	$f                      ; 0xf <__zp_bss_size>
     bbc: 85 24        	sta	$24                     ; 0x24 <__rc20>
     bbe: ad 0b e0     	lda	$e00b                   ; 0xe00b <__heap_start+0xaf41>
     bc1: 84 0f        	sty	$f                      ; 0xf <__zp_bss_size>
     bc3: 58           	cli
     bc4: 85 d8        	sta	$d8                     ; 0xd8 <theOne.0>
     bc6: 86 d9        	stx	$d9                     ; 0xd9 <theOne.0+0x1>
     bc8: a0 19        	ldy	#$19
     bca: 64 13        	stz	$13                     ; 0x13 <__rc3>
     bcc: 84 12        	sty	$12                     ; 0x12 <__rc2>
     bce: 20 40 30     	jsr	$3040 <__mulhi3>
     bd1: 20 28 2d     	jsr	$2d28 <malloc>
     bd4: a6 12        	ldx	$12                     ; 0x12 <__rc2>
     bd6: a4 13        	ldy	$13                     ; 0x13 <__rc3>
     bd8: 86 dc        	stx	$dc                     ; 0xdc <theOne.8>
     bda: 84 dd        	sty	$dd                     ; 0xdd <theOne.8+0x1>
     bdc: 64 da        	stz	$da                     ; 0xda <theOne.7>
     bde: 64 db        	stz	$db                     ; 0xdb <theOne.7+0x1>
     be0: a6 0f        	ldx	$f                      ; 0xf <__zp_bss_size>
     be2: 78           	sei
     be3: a5 24        	lda	$24                     ; 0x24 <__rc20>
     be5: 85 0f        	sta	$f                      ; 0xf <__zp_bss_size>
     be7: ac 0c e0     	ldy	$e00c                   ; 0xe00c <__heap_start+0xaf42>
     bea: 86 0f        	stx	$f                      ; 0xf <__zp_bss_size>
     bec: 58           	cli
     bed: a6 0f        	ldx	$f                      ; 0xf <__zp_bss_size>
     bef: 78           	sei
     bf0: 85 0f        	sta	$f                      ; 0xf <__zp_bss_size>
     bf2: ac 0d e0     	ldy	$e00d                   ; 0xe00d <__heap_start+0xaf43>
     bf5: 86 0f        	stx	$f                      ; 0xf <__zp_bss_size>
     bf7: 58           	cli
     bf8: a6 d8        	ldx	$d8                     ; 0xd8 <theOne.0>
     bfa: a5 d9        	lda	$d9                     ; 0xd9 <theOne.0+0x1>
     bfc: d0 07        	bne	$c05 <f256main+0x155>
     bfe: e0 00        	cpx	#$0
     c00: d0 03        	bne	$c05 <f256main+0x155>
     c02: 4c ec 14     	jmp	$14ec <f256main+0xa3c>
     c05: a4 dc        	ldy	$dc                     ; 0xdc <theOne.8>
     c07: 84 24        	sty	$24                     ; 0x24 <__rc20>
     c09: a4 dd        	ldy	$dd                     ; 0xdd <theOne.8+0x1>
     c0b: 84 25        	sty	$25                     ; 0x25 <__rc21>
     c0d: a0 17        	ldy	#$17
     c0f: 84 15        	sty	$15                     ; 0x15 <__rc5>
     c11: 86 26        	stx	$26                     ; 0x26 <__rc22>
     c13: 85 27        	sta	$27                     ; 0x27 <__rc23>
     c15: a6 24        	ldx	$24                     ; 0x24 <__rc20>
     c17: 86 12        	stx	$12                     ; 0x12 <__rc2>
     c19: a6 25        	ldx	$25                     ; 0x25 <__rc21>
     c1b: 86 13        	stx	$13                     ; 0x13 <__rc3>
     c1d: 64 14        	stz	$14                     ; 0x14 <__rc4>
     c1f: a9 00        	lda	#$0
     c21: a6 15        	ldx	$15                     ; 0x15 <__rc5>
     c23: a4 15        	ldy	$15                     ; 0x15 <__rc5>
     c25: 84 28        	sty	$28                     ; 0x28 <__rc24>
     c27: 20 20 30     	jsr	$3020 <__memset>
     c2a: a2 17        	ldx	#$17
     c2c: 86 15        	stx	$15                     ; 0x15 <__rc5>
     c2e: a9 01        	lda	#$1
     c30: a4 28        	ldy	$28                     ; 0x28 <__rc24>
     c32: 91 24        	sta	($24),y                 ; 0x24 <__rc20>
     c34: a0 18        	ldy	#$18
     c36: 3a           	dec
     c37: 91 24        	sta	($24),y                 ; 0x24 <__rc20>
     c39: a5 24        	lda	$24                     ; 0x24 <__rc20>
     c3b: 18           	clc
     c3c: 69 19        	adc	#$19
     c3e: 85 24        	sta	$24                     ; 0x24 <__rc20>
     c40: a5 25        	lda	$25                     ; 0x25 <__rc21>
     c42: 69 00        	adc	#$0
     c44: a2 ff        	ldx	#$ff
     c46: c6 26        	dec	$26                     ; 0x26 <__rc22>
     c48: e4 26        	cpx	$26                     ; 0x26 <__rc22>
     c4a: d0 02        	bne	$c4e <f256main+0x19e>
     c4c: c6 27        	dec	$27                     ; 0x27 <__rc23>
     c4e: 85 25        	sta	$25                     ; 0x25 <__rc21>
     c50: a5 27        	lda	$27                     ; 0x27 <__rc23>
     c52: d0 c1        	bne	$c15 <f256main+0x165>
     c54: a5 26        	lda	$26                     ; 0x26 <__rc22>
     c56: d0 bd        	bne	$c15 <f256main+0x165>
     c58: a9 0e        	lda	#$e
     c5a: a2 08        	ldx	#$8
     c5c: 86 18        	stx	$18                     ; 0x18 <__rc8>
     c5e: 64 19        	stz	$19                     ; 0x19 <__rc9>
     c60: 64 16        	stz	$16                     ; 0x16 <__rc6>
     c62: 64 13        	stz	$13                     ; 0x13 <__rc3>
     c64: 64 12        	stz	$12                     ; 0x12 <__rc2>
     c66: a2 00        	ldx	#$0
     c68: 64 27        	stz	$27                     ; 0x27 <__rc23>
     c6a: a4 16        	ldy	$16                     ; 0x16 <__rc6>
     c6c: 84 14        	sty	$14                     ; 0x14 <__rc4>
     c6e: 85 15        	sta	$15                     ; 0x15 <__rc5>
     c70: 18           	clc
     c71: 69 04        	adc	#$4
     c73: 85 17        	sta	$17                     ; 0x17 <__rc7>
     c75: a5 16        	lda	$16                     ; 0x16 <__rc6>
     c77: 69 00        	adc	#$0
     c79: 85 1b        	sta	$1b                     ; 0x1b <__rc11>
     c7b: a5 13        	lda	$13                     ; 0x13 <__rc3>
     c7d: 69 05        	adc	#$5
     c7f: a4 1b        	ldy	$1b                     ; 0x1b <__rc11>
     c81: 84 16        	sty	$16                     ; 0x16 <__rc6>
     c83: 06 16        	asl	$16                     ; 0x16 <__rc6>
     c85: 2a           	rol
     c86: 06 16        	asl	$16                     ; 0x16 <__rc6>
     c88: 2a           	rol
     c89: 06 16        	asl	$16                     ; 0x16 <__rc6>
     c8b: 2a           	rol
     c8c: 86 1a        	stx	$1a                     ; 0x1a <__rc10>
     c8e: a6 0f        	ldx	$f                      ; 0xf <__zp_bss_size>
     c90: 78           	sei
     c91: 85 0f        	sta	$f                      ; 0xf <__zp_bss_size>
     c93: a5 1b        	lda	$1b                     ; 0x1b <__rc11>
     c95: 09 e0        	ora	#$e0
     c97: a4 17        	ldy	$17                     ; 0x17 <__rc7>
     c99: 84 16        	sty	$16                     ; 0x16 <__rc6>
     c9b: 85 17        	sta	$17                     ; 0x17 <__rc7>
     c9d: b2 16        	lda	($16)                   ; 0x16 <__rc6>
     c9f: 85 1c        	sta	$1c                     ; 0x1c <__rc12>
     ca1: 86 0f        	stx	$f                      ; 0xf <__zp_bss_size>
     ca3: 18           	clc
     ca4: a5 15        	lda	$15                     ; 0x15 <__rc5>
     ca6: 69 05        	adc	#$5
     ca8: 85 17        	sta	$17                     ; 0x17 <__rc7>
     caa: a5 14        	lda	$14                     ; 0x14 <__rc4>
     cac: 69 00        	adc	#$0
     cae: 85 1b        	sta	$1b                     ; 0x1b <__rc11>
     cb0: a5 13        	lda	$13                     ; 0x13 <__rc3>
     cb2: 69 05        	adc	#$5
     cb4: a6 1b        	ldx	$1b                     ; 0x1b <__rc11>
     cb6: 86 16        	stx	$16                     ; 0x16 <__rc6>
     cb8: 06 16        	asl	$16                     ; 0x16 <__rc6>
     cba: 2a           	rol
     cbb: 06 16        	asl	$16                     ; 0x16 <__rc6>
     cbd: 2a           	rol
     cbe: 06 16        	asl	$16                     ; 0x16 <__rc6>
     cc0: 2a           	rol
     cc1: 58           	cli
     cc2: a6 0f        	ldx	$f                      ; 0xf <__zp_bss_size>
     cc4: 78           	sei
     cc5: 85 0f        	sta	$f                      ; 0xf <__zp_bss_size>
     cc7: a5 1b        	lda	$1b                     ; 0x1b <__rc11>
     cc9: 09 e0        	ora	#$e0
     ccb: a4 17        	ldy	$17                     ; 0x17 <__rc7>
     ccd: 84 16        	sty	$16                     ; 0x16 <__rc6>
     ccf: 85 17        	sta	$17                     ; 0x17 <__rc7>
     cd1: b2 16        	lda	($16)                   ; 0x16 <__rc6>
     cd3: 85 1d        	sta	$1d                     ; 0x1d <__rc13>
     cd5: 86 0f        	stx	$f                      ; 0xf <__zp_bss_size>
     cd7: 18           	clc
     cd8: a5 15        	lda	$15                     ; 0x15 <__rc5>
     cda: 69 06        	adc	#$6
     cdc: 85 17        	sta	$17                     ; 0x17 <__rc7>
     cde: a5 14        	lda	$14                     ; 0x14 <__rc4>
     ce0: 69 00        	adc	#$0
     ce2: 85 1b        	sta	$1b                     ; 0x1b <__rc11>
     ce4: a5 13        	lda	$13                     ; 0x13 <__rc3>
     ce6: 69 05        	adc	#$5
     ce8: a6 1b        	ldx	$1b                     ; 0x1b <__rc11>
     cea: 86 16        	stx	$16                     ; 0x16 <__rc6>
     cec: 06 16        	asl	$16                     ; 0x16 <__rc6>
     cee: 2a           	rol
     cef: 06 16        	asl	$16                     ; 0x16 <__rc6>
     cf1: 2a           	rol
     cf2: 06 16        	asl	$16                     ; 0x16 <__rc6>
     cf4: 2a           	rol
     cf5: 58           	cli
     cf6: a6 0f        	ldx	$f                      ; 0xf <__zp_bss_size>
     cf8: 78           	sei
     cf9: 85 0f        	sta	$f                      ; 0xf <__zp_bss_size>
     cfb: a4 17        	ldy	$17                     ; 0x17 <__rc7>
     cfd: 84 16        	sty	$16                     ; 0x16 <__rc6>
     cff: a5 1b        	lda	$1b                     ; 0x1b <__rc11>
     d01: 09 e0        	ora	#$e0
     d03: 85 17        	sta	$17                     ; 0x17 <__rc7>
     d05: b2 16        	lda	($16)                   ; 0x16 <__rc6>
     d07: 85 22        	sta	$22                     ; 0x22 <__rc18>
     d09: 86 0f        	stx	$f                      ; 0xf <__zp_bss_size>
     d0b: 18           	clc
     d0c: a5 15        	lda	$15                     ; 0x15 <__rc5>
     d0e: 69 07        	adc	#$7
     d10: 85 17        	sta	$17                     ; 0x17 <__rc7>
     d12: a5 14        	lda	$14                     ; 0x14 <__rc4>
     d14: 69 00        	adc	#$0
     d16: 85 1b        	sta	$1b                     ; 0x1b <__rc11>
     d18: a5 13        	lda	$13                     ; 0x13 <__rc3>
     d1a: 69 05        	adc	#$5
     d1c: a6 1b        	ldx	$1b                     ; 0x1b <__rc11>
     d1e: 86 16        	stx	$16                     ; 0x16 <__rc6>
     d20: 06 16        	asl	$16                     ; 0x16 <__rc6>
     d22: 2a           	rol
     d23: 06 16        	asl	$16                     ; 0x16 <__rc6>
     d25: 2a           	rol
     d26: 06 16        	asl	$16                     ; 0x16 <__rc6>
     d28: 2a           	rol
     d29: 58           	cli
     d2a: a6 0f        	ldx	$f                      ; 0xf <__zp_bss_size>
     d2c: 78           	sei
     d2d: 85 0f        	sta	$f                      ; 0xf <__zp_bss_size>
     d2f: a4 17        	ldy	$17                     ; 0x17 <__rc7>
     d31: 84 16        	sty	$16                     ; 0x16 <__rc6>
     d33: a5 1b        	lda	$1b                     ; 0x1b <__rc11>
     d35: 09 e0        	ora	#$e0
     d37: 85 17        	sta	$17                     ; 0x17 <__rc7>
     d39: b2 16        	lda	($16)                   ; 0x16 <__rc6>
     d3b: 85 25        	sta	$25                     ; 0x25 <__rc21>
     d3d: 86 0f        	stx	$f                      ; 0xf <__zp_bss_size>
     d3f: 58           	cli
     d40: a6 dc        	ldx	$dc                     ; 0xdc <theOne.8>
     d42: 86 1e        	stx	$1e                     ; 0x1e <__rc14>
     d44: a6 dd        	ldx	$dd                     ; 0xdd <theOne.8+0x1>
     d46: 86 1f        	stx	$1f                     ; 0x1f <__rc15>
     d48: 18           	clc
     d49: a6 18        	ldx	$18                     ; 0x18 <__rc8>
     d4b: 86 24        	stx	$24                     ; 0x24 <__rc20>
     d4d: a5 18        	lda	$18                     ; 0x18 <__rc8>
     d4f: 65 dc        	adc	$dc                     ; 0xdc <theOne.8>
     d51: aa           	tax
     d52: a4 19        	ldy	$19                     ; 0x19 <__rc9>
     d54: 84 23        	sty	$23                     ; 0x23 <__rc19>
     d56: a5 19        	lda	$19                     ; 0x19 <__rc9>
     d58: 65 dd        	adc	$dd                     ; 0xdd <theOne.8+0x1>
     d5a: 86 16        	stx	$16                     ; 0x16 <__rc6>
     d5c: 85 17        	sta	$17                     ; 0x17 <__rc7>
     d5e: 85 19        	sta	$19                     ; 0x19 <__rc9>
     d60: 18           	clc
     d61: 8a           	txa
     d62: 69 f8        	adc	#$f8
     d64: 85 18        	sta	$18                     ; 0x18 <__rc8>
     d66: a5 19        	lda	$19                     ; 0x19 <__rc9>
     d68: 69 ff        	adc	#$ff
     d6a: 85 19        	sta	$19                     ; 0x19 <__rc9>
     d6c: 18           	clc
     d6d: a5 15        	lda	$15                     ; 0x15 <__rc5>
     d6f: 69 08        	adc	#$8
     d71: aa           	tax
     d72: a5 14        	lda	$14                     ; 0x14 <__rc4>
     d74: 69 00        	adc	#$0
     d76: 85 1b        	sta	$1b                     ; 0x1b <__rc11>
     d78: a5 13        	lda	$13                     ; 0x13 <__rc3>
     d7a: 69 05        	adc	#$5
     d7c: 85 26        	sta	$26                     ; 0x26 <__rc22>
     d7e: a5 12        	lda	$12                     ; 0x12 <__rc2>
     d80: 69 00        	adc	#$0
     d82: 85 29        	sta	$29                     ; 0x29 <__rc25>
     d84: 8a           	txa
     d85: 92 16        	sta	($16)                   ; 0x16 <__rc6>
     d87: a0 01        	ldy	#$1
     d89: a5 1b        	lda	$1b                     ; 0x1b <__rc11>
     d8b: 91 16        	sta	($16),y                 ; 0x16 <__rc6>
     d8d: 84 28        	sty	$28                     ; 0x28 <__rc24>
     d8f: c8           	iny
     d90: a5 26        	lda	$26                     ; 0x26 <__rc22>
     d92: 91 16        	sta	($16),y                 ; 0x16 <__rc6>
     d94: 84 26        	sty	$26                     ; 0x26 <__rc22>
     d96: c8           	iny
     d97: a5 29        	lda	$29                     ; 0x29 <__rc25>
     d99: 91 16        	sta	($16),y                 ; 0x16 <__rc6>
     d9b: 84 16        	sty	$16                     ; 0x16 <__rc6>
     d9d: a5 25        	lda	$25                     ; 0x25 <__rc21>
     d9f: 92 18        	sta	($18)                   ; 0x18 <__rc8>
     da1: a5 22        	lda	$22                     ; 0x22 <__rc18>
     da3: a4 28        	ldy	$28                     ; 0x28 <__rc24>
     da5: 91 18        	sta	($18),y                 ; 0x18 <__rc8>
     da7: a5 1d        	lda	$1d                     ; 0x1d <__rc13>
     da9: a4 26        	ldy	$26                     ; 0x26 <__rc22>
     dab: 91 18        	sta	($18),y                 ; 0x18 <__rc8>
     dad: a5 1c        	lda	$1c                     ; 0x1c <__rc12>
     daf: a4 16        	ldy	$16                     ; 0x16 <__rc6>
     db1: 91 18        	sta	($18),y                 ; 0x18 <__rc8>
     db3: 85 16        	sta	$16                     ; 0x16 <__rc6>
     db5: 18           	clc
     db6: a5 25        	lda	$25                     ; 0x25 <__rc21>
     db8: 65 15        	adc	$15                     ; 0x15 <__rc5>
     dba: 85 15        	sta	$15                     ; 0x15 <__rc5>
     dbc: a5 22        	lda	$22                     ; 0x22 <__rc18>
     dbe: 65 14        	adc	$14                     ; 0x14 <__rc4>
     dc0: a8           	tay
     dc1: a5 1d        	lda	$1d                     ; 0x1d <__rc13>
     dc3: 65 13        	adc	$13                     ; 0x13 <__rc3>
     dc5: aa           	tax
     dc6: a5 16        	lda	$16                     ; 0x16 <__rc6>
     dc8: 65 12        	adc	$12                     ; 0x12 <__rc2>
     dca: 85 12        	sta	$12                     ; 0x12 <__rc2>
     dcc: 18           	clc
     dcd: a5 15        	lda	$15                     ; 0x15 <__rc5>
     dcf: 69 08        	adc	#$8
     dd1: 85 17        	sta	$17                     ; 0x17 <__rc7>
     dd3: 98           	tya
     dd4: 69 00        	adc	#$0
     dd6: 85 16        	sta	$16                     ; 0x16 <__rc6>
     dd8: 8a           	txa
     dd9: 69 00        	adc	#$0
     ddb: 85 13        	sta	$13                     ; 0x13 <__rc3>
     ddd: a5 12        	lda	$12                     ; 0x12 <__rc2>
     ddf: 69 00        	adc	#$0
     de1: 85 12        	sta	$12                     ; 0x12 <__rc2>
     de3: a4 27        	ldy	$27                     ; 0x27 <__rc23>
     de5: a6 1a        	ldx	$1a                     ; 0x1a <__rc10>
     de7: e8           	inx
     de8: d0 01        	bne	$deb <f256main+0x33b>
     dea: c8           	iny
     deb: a5 d8        	lda	$d8                     ; 0xd8 <theOne.0>
     ded: 85 14        	sta	$14                     ; 0x14 <__rc4>
     def: a5 d9        	lda	$d9                     ; 0xd9 <theOne.0+0x1>
     df1: 85 15        	sta	$15                     ; 0x15 <__rc5>
     df3: 18           	clc
     df4: a5 24        	lda	$24                     ; 0x24 <__rc20>
     df6: 69 19        	adc	#$19
     df8: 85 18        	sta	$18                     ; 0x18 <__rc8>
     dfa: a5 23        	lda	$23                     ; 0x23 <__rc19>
     dfc: 69 00        	adc	#$0
     dfe: 85 19        	sta	$19                     ; 0x19 <__rc9>
     e00: 84 27        	sty	$27                     ; 0x27 <__rc23>
     e02: c4 15        	cpy	$15                     ; 0x15 <__rc5>
     e04: d0 04        	bne	$e0a <f256main+0x35a>
     e06: e4 14        	cpx	$14                     ; 0x14 <__rc4>
     e08: 80 02        	bra	$e0c <f256main+0x35c>
     e0a: c4 15        	cpy	$15                     ; 0x15 <__rc5>
     e0c: a5 17        	lda	$17                     ; 0x17 <__rc7>
     e0e: b0 03        	bcs	$e13 <f256main+0x363>
     e10: 4c 6a 0c     	jmp	$c6a <f256main+0x1ba>
     e13: a5 15        	lda	$15                     ; 0x15 <__rc5>
     e15: d0 07        	bne	$e1e <f256main+0x36e>
     e17: a5 14        	lda	$14                     ; 0x14 <__rc4>
     e19: d0 03        	bne	$e1e <f256main+0x36e>
     e1b: 4c ec 14     	jmp	$14ec <f256main+0xa3c>
     e1e: a6 1e        	ldx	$1e                     ; 0x1e <__rc14>
     e20: 86 12        	stx	$12                     ; 0x12 <__rc2>
     e22: a6 1f        	ldx	$1f                     ; 0x1f <__rc15>
     e24: 86 13        	stx	$13                     ; 0x13 <__rc3>
     e26: a2 01        	ldx	#$1
     e28: 86 1c        	stx	$1c                     ; 0x1c <__rc12>
     e2a: a2 19        	ldx	#$19
     e2c: 64 17        	stz	$17                     ; 0x17 <__rc7>
     e2e: 64 28        	stz	$28                     ; 0x28 <__rc24>
     e30: 64 29        	stz	$29                     ; 0x29 <__rc25>
     e32: a9 00        	lda	#$0
     e34: 85 2a        	sta	$2a                     ; 0x2a <__rc26>
     e36: a4 17        	ldy	$17                     ; 0x17 <__rc7>
     e38: a5 17        	lda	$17                     ; 0x17 <__rc7>
     e3a: 18           	clc
     e3b: 5a           	phy
     e3c: a0 01        	ldy	#$1
     e3e: b0 02        	bcs	$e42 <f256main+0x392>
     e40: a0 00        	ldy	#$0
     e42: 84 1d        	sty	$1d                     ; 0x1d <__rc13>
     e44: 7a           	ply
     e45: 65 12        	adc	$12                     ; 0x12 <__rc2>
     e47: 85 16        	sta	$16                     ; 0x16 <__rc6>
     e49: 84 18        	sty	$18                     ; 0x18 <__rc8>
     e4b: a5 28        	lda	$28                     ; 0x28 <__rc24>
     e4d: 65 13        	adc	$13                     ; 0x13 <__rc3>
     e4f: 85 17        	sta	$17                     ; 0x17 <__rc7>
     e51: a0 18        	ldy	#$18
     e53: b1 16        	lda	($16),y                 ; 0x16 <__rc6>
     e55: f0 09        	beq	$e60 <f256main+0x3b0>
     e57: a2 19        	ldx	#$19
     e59: 86 26        	stx	$26                     ; 0x26 <__rc22>
     e5b: a5 18        	lda	$18                     ; 0x18 <__rc8>
     e5d: 4c e9 13     	jmp	$13e9 <f256main+0x939>
     e60: a5 18        	lda	$18                     ; 0x18 <__rc8>
     e62: a0 05        	ldy	#$5
     e64: 91 10        	sta	($10),y                 ; 0x10 <__rc0>
     e66: a4 1d        	ldy	$1d                     ; 0x1d <__rc13>
     e68: c0 01        	cpy	#$1
     e6a: 65 12        	adc	$12                     ; 0x12 <__rc2>
     e6c: 85 18        	sta	$18                     ; 0x18 <__rc8>
     e6e: a5 28        	lda	$28                     ; 0x28 <__rc24>
     e70: 65 13        	adc	$13                     ; 0x13 <__rc3>
     e72: a8           	tay
     e73: a5 18        	lda	$18                     ; 0x18 <__rc8>
     e75: 85 1d        	sta	$1d                     ; 0x1d <__rc13>
     e77: 18           	clc
     e78: 69 04        	adc	#$4
     e7a: 85 18        	sta	$18                     ; 0x18 <__rc8>
     e7c: 98           	tya
     e7d: 84 1e        	sty	$1e                     ; 0x1e <__rc14>
     e7f: 69 00        	adc	#$0
     e81: 85 19        	sta	$19                     ; 0x19 <__rc9>
     e83: a0 03        	ldy	#$3
     e85: b1 18        	lda	($18),y                 ; 0x18 <__rc8>
     e87: d1 16        	cmp	($16),y                 ; 0x16 <__rc6>
     e89: d0 2b        	bne	$eb6 <f256main+0x406>
     e8b: 84 1b        	sty	$1b                     ; 0x1b <__rc11>
     e8d: a0 02        	ldy	#$2
     e8f: b1 18        	lda	($18),y                 ; 0x18 <__rc8>
     e91: 85 1f        	sta	$1f                     ; 0x1f <__rc15>
     e93: b1 16        	lda	($16),y                 ; 0x16 <__rc6>
     e95: 85 1a        	sta	$1a                     ; 0x1a <__rc10>
     e97: a4 1f        	ldy	$1f                     ; 0x1f <__rc15>
     e99: c4 1a        	cpy	$1a                     ; 0x1a <__rc10>
     e9b: f0 03        	beq	$ea0 <f256main+0x3f0>
     e9d: 4c d2 13     	jmp	$13d2 <f256main+0x922>
     ea0: a0 01        	ldy	#$1
     ea2: b1 18        	lda	($18),y                 ; 0x18 <__rc8>
     ea4: 85 19        	sta	$19                     ; 0x19 <__rc9>
     ea6: b1 16        	lda	($16),y                 ; 0x16 <__rc6>
     ea8: 85 18        	sta	$18                     ; 0x18 <__rc8>
     eaa: a5 19        	lda	$19                     ; 0x19 <__rc9>
     eac: c5 18        	cmp	$18                     ; 0x18 <__rc8>
     eae: f0 03        	beq	$eb3 <f256main+0x403>
     eb0: 4c ba 17     	jmp	$17ba <f256main+0xd0a>
     eb3: 4c 9f 17     	jmp	$179f <f256main+0xcef>
     eb6: d1 16        	cmp	($16),y                 ; 0x16 <__rc6>
     eb8: 90 03        	bcc	$ebd <f256main+0x40d>
     eba: 4c db 13     	jmp	$13db <f256main+0x92b>
     ebd: 86 12        	stx	$12                     ; 0x12 <__rc2>
     ebf: a2 18        	ldx	#$18
     ec1: 86 24        	stx	$24                     ; 0x24 <__rc20>
     ec3: 64 de        	stz	$de                     ; 0xde <_col>
     ec5: 9c 14 d0     	stz	$d014                   ; 0xd014 <__heap_start+0x9f4a>
     ec8: 9c 15 d0     	stz	$d015                   ; 0xd015 <__heap_start+0x9f4b>
     ecb: a5 29        	lda	$29                     ; 0x29 <__rc25>
     ecd: 18           	clc
     ece: 69 0f        	adc	#$f
     ed0: 85 df        	sta	$df                     ; 0xdf <_row>
     ed2: 8d 16 d0     	sta	$d016                   ; 0xd016 <__heap_start+0x9f4c>
     ed5: 9c 17 d0     	stz	$d017                   ; 0xd017 <__heap_start+0x9f4d>
     ed8: a6 dc        	ldx	$dc                     ; 0xdc <theOne.8>
     eda: 86 2c        	stx	$2c                     ; 0x2c <__rc28>
     edc: a6 dd        	ldx	$dd                     ; 0xdd <theOne.8+0x1>
     ede: 86 2b        	stx	$2b                     ; 0x2b <__rc27>
     ee0: 5a           	phy
     ee1: a6 12        	ldx	$12                     ; 0x12 <__rc2>
     ee3: 86 26        	stx	$26                     ; 0x26 <__rc22>
     ee5: 64 13        	stz	$13                     ; 0x13 <__rc3>
     ee7: a2 00        	ldx	#$0
     ee9: a5 29        	lda	$29                     ; 0x29 <__rc25>
     eeb: a4 1c        	ldy	$1c                     ; 0x1c <__rc12>
     eed: 84 27        	sty	$27                     ; 0x27 <__rc23>
     eef: 7a           	ply
     ef0: 84 25        	sty	$25                     ; 0x25 <__rc21>
     ef2: 20 40 30     	jsr	$3040 <__mulhi3>
     ef5: 85 12        	sta	$12                     ; 0x12 <__rc2>
     ef7: 86 13        	stx	$13                     ; 0x13 <__rc3>
     ef9: a5 2c        	lda	$2c                     ; 0x2c <__rc28>
     efb: 85 16        	sta	$16                     ; 0x16 <__rc6>
     efd: 18           	clc
     efe: 65 12        	adc	$12                     ; 0x12 <__rc2>
     f00: a8           	tay
     f01: a5 2b        	lda	$2b                     ; 0x2b <__rc27>
     f03: 85 17        	sta	$17                     ; 0x17 <__rc7>
     f05: 65 13        	adc	$13                     ; 0x13 <__rc3>
     f07: aa           	tax
     f08: 84 14        	sty	$14                     ; 0x14 <__rc4>
     f0a: 85 15        	sta	$15                     ; 0x15 <__rc5>
     f0c: 84 1c        	sty	$1c                     ; 0x1c <__rc12>
     f0e: 98           	tya
     f0f: 18           	clc
     f10: 69 04        	adc	#$4
     f12: a8           	tay
     f13: 8a           	txa
     f14: 86 1d        	stx	$1d                     ; 0x1d <__rc13>
     f16: 69 00        	adc	#$0
     f18: 84 1e        	sty	$1e                     ; 0x1e <__rc14>
     f1a: 84 12        	sty	$12                     ; 0x12 <__rc2>
     f1c: 85 1f        	sta	$1f                     ; 0x1f <__rc15>
     f1e: 85 13        	sta	$13                     ; 0x13 <__rc3>
     f20: a0 04        	ldy	#$4
     f22: b1 14        	lda	($14),y                 ; 0x14 <__rc4>
     f24: 85 18        	sta	$18                     ; 0x18 <__rc8>
     f26: a2 01        	ldx	#$1
     f28: 86 1a        	stx	$1a                     ; 0x1a <__rc10>
     f2a: a4 27        	ldy	$27                     ; 0x27 <__rc23>
     f2c: b1 12        	lda	($12),y                 ; 0x12 <__rc2>
     f2e: aa           	tax
     f2f: a0 02        	ldy	#$2
     f31: 84 22        	sty	$22                     ; 0x22 <__rc18>
     f33: b1 12        	lda	($12),y                 ; 0x12 <__rc2>
     f35: 85 19        	sta	$19                     ; 0x19 <__rc9>
     f37: a4 25        	ldy	$25                     ; 0x25 <__rc21>
     f39: b1 12        	lda	($12),y                 ; 0x12 <__rc2>
     f3b: d1 14        	cmp	($14),y                 ; 0x14 <__rc4>
     f3d: f0 03        	beq	$f42 <f256main+0x492>
     f3f: 4c 1d 14     	jmp	$141d <f256main+0x96d>
     f42: 85 1b        	sta	$1b                     ; 0x1b <__rc11>
     f44: 86 13        	stx	$13                     ; 0x13 <__rc3>
     f46: a4 22        	ldy	$22                     ; 0x22 <__rc18>
     f48: b1 14        	lda	($14),y                 ; 0x14 <__rc4>
     f4a: 85 12        	sta	$12                     ; 0x12 <__rc2>
     f4c: a6 19        	ldx	$19                     ; 0x19 <__rc9>
     f4e: e4 12        	cpx	$12                     ; 0x12 <__rc2>
     f50: f0 03        	beq	$f55 <f256main+0x4a5>
     f52: 4c e5 17     	jmp	$17e5 <f256main+0xd35>
     f55: 4c c1 17     	jmp	$17c1 <f256main+0xd11>
     f58: a5 25        	lda	$25                     ; 0x25 <__rc21>
     f5a: 05 2c        	ora	$2c                     ; 0x2c <__rc28>
     f5c: a8           	tay
     f5d: 5a           	phy
     f5e: a0 04        	ldy	#$4
     f60: b1 10        	lda	($10),y                 ; 0x10 <__rc0>
     f62: 7a           	ply
     f63: 05 2d        	ora	$2d                     ; 0x2d <__rc29>
     f65: 85 15        	sta	$15                     ; 0x15 <__rc5>
     f67: a5 27        	lda	$27                     ; 0x27 <__rc23>
     f69: 05 24        	ora	$24                     ; 0x24 <__rc20>
     f6b: 85 27        	sta	$27                     ; 0x27 <__rc23>
     f6d: 98           	tya
     f6e: 05 12        	ora	$12                     ; 0x12 <__rc2>
     f70: a8           	tay
     f71: a5 15        	lda	$15                     ; 0x15 <__rc5>
     f73: 05 13        	ora	$13                     ; 0x13 <__rc3>
     f75: 85 25        	sta	$25                     ; 0x25 <__rc21>
     f77: 98           	tya
     f78: 05 14        	ora	$14                     ; 0x14 <__rc4>
     f7a: 85 2c        	sta	$2c                     ; 0x2c <__rc28>
     f7c: a4 dc        	ldy	$dc                     ; 0xdc <theOne.8>
     f7e: 84 2d        	sty	$2d                     ; 0x2d <__rc29>
     f80: a4 dd        	ldy	$dd                     ; 0xdd <theOne.8+0x1>
     f82: 84 24        	sty	$24                     ; 0x24 <__rc20>
     f84: a4 26        	ldy	$26                     ; 0x26 <__rc22>
     f86: 84 12        	sty	$12                     ; 0x12 <__rc2>
     f88: 64 13        	stz	$13                     ; 0x13 <__rc3>
     f8a: a5 18        	lda	$18                     ; 0x18 <__rc8>
     f8c: 20 40 30     	jsr	$3040 <__mulhi3>
     f8f: 86 18        	stx	$18                     ; 0x18 <__rc8>
     f91: 85 12        	sta	$12                     ; 0x12 <__rc2>
     f93: 85 19        	sta	$19                     ; 0x19 <__rc9>
     f95: 86 13        	stx	$13                     ; 0x13 <__rc3>
     f97: 18           	clc
     f98: a5 2d        	lda	$2d                     ; 0x2d <__rc29>
     f9a: 65 12        	adc	$12                     ; 0x12 <__rc2>
     f9c: 85 17        	sta	$17                     ; 0x17 <__rc7>
     f9e: a5 24        	lda	$24                     ; 0x24 <__rc20>
     fa0: 65 13        	adc	$13                     ; 0x13 <__rc3>
     fa2: aa           	tax
     fa3: a5 17        	lda	$17                     ; 0x17 <__rc7>
     fa5: 18           	clc
     fa6: 69 0c        	adc	#$c
     fa8: 85 12        	sta	$12                     ; 0x12 <__rc2>
     faa: 8a           	txa
     fab: 69 00        	adc	#$0
     fad: 85 13        	sta	$13                     ; 0x13 <__rc3>
     faf: a4 17        	ldy	$17                     ; 0x17 <__rc7>
     fb1: 84 14        	sty	$14                     ; 0x14 <__rc4>
     fb3: 86 15        	stx	$15                     ; 0x15 <__rc5>
     fb5: a0 0c        	ldy	#$c
     fb7: a5 2c        	lda	$2c                     ; 0x2c <__rc28>
     fb9: 91 14        	sta	($14),y                 ; 0x14 <__rc4>
     fbb: a0 01        	ldy	#$1
     fbd: a5 25        	lda	$25                     ; 0x25 <__rc21>
     fbf: 91 12        	sta	($12),y                 ; 0x12 <__rc2>
     fc1: 84 1a        	sty	$1a                     ; 0x1a <__rc10>
     fc3: c8           	iny
     fc4: a5 27        	lda	$27                     ; 0x27 <__rc23>
     fc6: 91 12        	sta	($12),y                 ; 0x12 <__rc2>
     fc8: 84 1d        	sty	$1d                     ; 0x1d <__rc13>
     fca: c8           	iny
     fcb: a5 2b        	lda	$2b                     ; 0x2b <__rc27>
     fcd: 91 12        	sta	($12),y                 ; 0x12 <__rc2>
     fcf: 84 1b        	sty	$1b                     ; 0x1b <__rc11>
     fd1: a5 17        	lda	$17                     ; 0x17 <__rc7>
     fd3: 18           	clc
     fd4: 69 08        	adc	#$8
     fd6: 85 12        	sta	$12                     ; 0x12 <__rc2>
     fd8: 8a           	txa
     fd9: 69 00        	adc	#$0
     fdb: 85 13        	sta	$13                     ; 0x13 <__rc3>
     fdd: a0 08        	ldy	#$8
     fdf: b1 14        	lda	($14),y                 ; 0x14 <__rc4>
     fe1: 85 16        	sta	$16                     ; 0x16 <__rc6>
     fe3: 84 23        	sty	$23                     ; 0x23 <__rc19>
     fe5: a4 1a        	ldy	$1a                     ; 0x1a <__rc10>
     fe7: b1 12        	lda	($12),y                 ; 0x12 <__rc2>
     fe9: 85 1f        	sta	$1f                     ; 0x1f <__rc15>
     feb: a4 1a        	ldy	$1a                     ; 0x1a <__rc10>
     fed: 84 1c        	sty	$1c                     ; 0x1c <__rc12>
     fef: a4 1d        	ldy	$1d                     ; 0x1d <__rc13>
     ff1: b1 12        	lda	($12),y                 ; 0x12 <__rc2>
     ff3: 85 1d        	sta	$1d                     ; 0x1d <__rc13>
     ff5: 84 1e        	sty	$1e                     ; 0x1e <__rc14>
     ff7: 18           	clc
     ff8: a5 17        	lda	$17                     ; 0x17 <__rc7>
     ffa: 69 04        	adc	#$4
     ffc: 85 12        	sta	$12                     ; 0x12 <__rc2>
     ffe: 8a           	txa
     fff: 69 00        	adc	#$0
    1001: 85 13        	sta	$13                     ; 0x13 <__rc3>
    1003: 18           	clc
    1004: a0 04        	ldy	#$4
    1006: a5 16        	lda	$16                     ; 0x16 <__rc6>
    1008: 71 14        	adc	($14),y                 ; 0x14 <__rc4>
    100a: 85 14        	sta	$14                     ; 0x14 <__rc4>
    100c: 84 1a        	sty	$1a                     ; 0x1a <__rc10>
    100e: a4 1c        	ldy	$1c                     ; 0x1c <__rc12>
    1010: a5 1f        	lda	$1f                     ; 0x1f <__rc15>
    1012: 71 12        	adc	($12),y                 ; 0x12 <__rc2>
    1014: 85 15        	sta	$15                     ; 0x15 <__rc5>
    1016: a5 1d        	lda	$1d                     ; 0x1d <__rc13>
    1018: a4 1e        	ldy	$1e                     ; 0x1e <__rc14>
    101a: 71 12        	adc	($12),y                 ; 0x12 <__rc2>
    101c: a6 1e        	ldx	$1e                     ; 0x1e <__rc14>
    101e: 86 1d        	stx	$1d                     ; 0x1d <__rc13>
    1020: 85 13        	sta	$13                     ; 0x13 <__rc3>
    1022: a6 0f        	ldx	$f                      ; 0xf <__zp_bss_size>
    1024: 78           	sei
    1025: a5 15        	lda	$15                     ; 0x15 <__rc5>
    1027: 85 12        	sta	$12                     ; 0x12 <__rc2>
    1029: 06 12        	asl	$12                     ; 0x12 <__rc2>
    102b: 26 13        	rol	$13                     ; 0x13 <__rc3>
    102d: 06 12        	asl	$12                     ; 0x12 <__rc2>
    102f: 26 13        	rol	$13                     ; 0x13 <__rc3>
    1031: 06 12        	asl	$12                     ; 0x12 <__rc2>
    1033: 26 13        	rol	$13                     ; 0x13 <__rc3>
    1035: a4 13        	ldy	$13                     ; 0x13 <__rc3>
    1037: 84 0f        	sty	$f                      ; 0xf <__zp_bss_size>
    1039: 09 e0        	ora	#$e0
    103b: a4 14        	ldy	$14                     ; 0x14 <__rc4>
    103d: 84 12        	sty	$12                     ; 0x12 <__rc2>
    103f: 85 13        	sta	$13                     ; 0x13 <__rc3>
    1041: b2 12        	lda	($12)                   ; 0x12 <__rc2>
    1043: 85 1e        	sta	$1e                     ; 0x1e <__rc14>
    1045: 86 0f        	stx	$f                      ; 0xf <__zp_bss_size>
    1047: 58           	cli
    1048: a5 19        	lda	$19                     ; 0x19 <__rc9>
    104a: 18           	clc
    104b: 65 dc        	adc	$dc                     ; 0xdc <theOne.8>
    104d: aa           	tax
    104e: a5 18        	lda	$18                     ; 0x18 <__rc8>
    1050: 65 dd        	adc	$dd                     ; 0xdd <theOne.8+0x1>
    1052: 86 12        	stx	$12                     ; 0x12 <__rc2>
    1054: 85 13        	sta	$13                     ; 0x13 <__rc3>
    1056: a8           	tay
    1057: 8a           	txa
    1058: 18           	clc
    1059: 69 08        	adc	#$8
    105b: 85 14        	sta	$14                     ; 0x14 <__rc4>
    105d: 98           	tya
    105e: 69 00        	adc	#$0
    1060: 85 15        	sta	$15                     ; 0x15 <__rc5>
    1062: 18           	clc
    1063: 8a           	txa
    1064: 69 04        	adc	#$4
    1066: 85 16        	sta	$16                     ; 0x16 <__rc6>
    1068: 98           	tya
    1069: 69 00        	adc	#$0
    106b: 85 17        	sta	$17                     ; 0x17 <__rc7>
    106d: a4 1a        	ldy	$1a                     ; 0x1a <__rc10>
    106f: b1 12        	lda	($12),y                 ; 0x12 <__rc2>
    1071: 85 1f        	sta	$1f                     ; 0x1f <__rc15>
    1073: a4 1c        	ldy	$1c                     ; 0x1c <__rc12>
    1075: b1 16        	lda	($16),y                 ; 0x16 <__rc6>
    1077: 85 22        	sta	$22                     ; 0x22 <__rc18>
    1079: a4 1d        	ldy	$1d                     ; 0x1d <__rc13>
    107b: b1 16        	lda	($16),y                 ; 0x16 <__rc6>
    107d: aa           	tax
    107e: a4 1b        	ldy	$1b                     ; 0x1b <__rc11>
    1080: b1 16        	lda	($16),y                 ; 0x16 <__rc6>
    1082: 85 17        	sta	$17                     ; 0x17 <__rc7>
    1084: 18           	clc
    1085: a4 23        	ldy	$23                     ; 0x23 <__rc19>
    1087: a5 1f        	lda	$1f                     ; 0x1f <__rc15>
    1089: 71 12        	adc	($12),y                 ; 0x12 <__rc2>
    108b: 85 13        	sta	$13                     ; 0x13 <__rc3>
    108d: a4 1c        	ldy	$1c                     ; 0x1c <__rc12>
    108f: a5 22        	lda	$22                     ; 0x22 <__rc18>
    1091: 71 14        	adc	($14),y                 ; 0x14 <__rc4>
    1093: 85 12        	sta	$12                     ; 0x12 <__rc2>
    1095: 84 22        	sty	$22                     ; 0x22 <__rc18>
    1097: a4 1d        	ldy	$1d                     ; 0x1d <__rc13>
    1099: 8a           	txa
    109a: 71 14        	adc	($14),y                 ; 0x14 <__rc4>
    109c: 85 16        	sta	$16                     ; 0x16 <__rc6>
    109e: 84 1c        	sty	$1c                     ; 0x1c <__rc12>
    10a0: a5 17        	lda	$17                     ; 0x17 <__rc7>
    10a2: a4 1b        	ldy	$1b                     ; 0x1b <__rc11>
    10a4: 71 14        	adc	($14),y                 ; 0x14 <__rc4>
    10a6: aa           	tax
    10a7: a5 12        	lda	$12                     ; 0x12 <__rc2>
    10a9: e6 13        	inc	$13                     ; 0x13 <__rc3>
    10ab: d0 03        	bne	$10b0 <f256main+0x600>
    10ad: 4c f3 17     	jmp	$17f3 <f256main+0xd43>
    10b0: a6 0f        	ldx	$f                      ; 0xf <__zp_bss_size>
    10b2: 78           	sei
    10b3: 85 12        	sta	$12                     ; 0x12 <__rc2>
    10b5: 06 12        	asl	$12                     ; 0x12 <__rc2>
    10b7: a4 16        	ldy	$16                     ; 0x16 <__rc6>
    10b9: 84 14        	sty	$14                     ; 0x14 <__rc4>
    10bb: 26 14        	rol	$14                     ; 0x14 <__rc4>
    10bd: 06 12        	asl	$12                     ; 0x12 <__rc2>
    10bf: 26 14        	rol	$14                     ; 0x14 <__rc4>
    10c1: 06 12        	asl	$12                     ; 0x12 <__rc2>
    10c3: 26 14        	rol	$14                     ; 0x14 <__rc4>
    10c5: a4 14        	ldy	$14                     ; 0x14 <__rc4>
    10c7: 84 0f        	sty	$f                      ; 0xf <__zp_bss_size>
    10c9: 09 e0        	ora	#$e0
    10cb: a4 13        	ldy	$13                     ; 0x13 <__rc3>
    10cd: 84 12        	sty	$12                     ; 0x12 <__rc2>
    10cf: 85 13        	sta	$13                     ; 0x13 <__rc3>
    10d1: b2 12        	lda	($12)                   ; 0x12 <__rc2>
    10d3: 85 1d        	sta	$1d                     ; 0x1d <__rc13>
    10d5: 86 0f        	stx	$f                      ; 0xf <__zp_bss_size>
    10d7: 58           	cli
    10d8: a5 19        	lda	$19                     ; 0x19 <__rc9>
    10da: 18           	clc
    10db: 65 dc        	adc	$dc                     ; 0xdc <theOne.8>
    10dd: aa           	tax
    10de: a5 18        	lda	$18                     ; 0x18 <__rc8>
    10e0: 65 dd        	adc	$dd                     ; 0xdd <theOne.8+0x1>
    10e2: a8           	tay
    10e3: 8a           	txa
    10e4: 18           	clc
    10e5: 69 08        	adc	#$8
    10e7: 85 14        	sta	$14                     ; 0x14 <__rc4>
    10e9: 98           	tya
    10ea: 69 00        	adc	#$0
    10ec: 86 12        	stx	$12                     ; 0x12 <__rc2>
    10ee: 84 13        	sty	$13                     ; 0x13 <__rc3>
    10f0: 85 15        	sta	$15                     ; 0x15 <__rc5>
    10f2: 18           	clc
    10f3: 8a           	txa
    10f4: 69 04        	adc	#$4
    10f6: 85 16        	sta	$16                     ; 0x16 <__rc6>
    10f8: 98           	tya
    10f9: 69 00        	adc	#$0
    10fb: 85 17        	sta	$17                     ; 0x17 <__rc7>
    10fd: a4 1a        	ldy	$1a                     ; 0x1a <__rc10>
    10ff: b1 12        	lda	($12),y                 ; 0x12 <__rc2>
    1101: aa           	tax
    1102: 84 1f        	sty	$1f                     ; 0x1f <__rc15>
    1104: a4 22        	ldy	$22                     ; 0x22 <__rc18>
    1106: b1 16        	lda	($16),y                 ; 0x16 <__rc6>
    1108: 85 22        	sta	$22                     ; 0x22 <__rc18>
    110a: 84 1a        	sty	$1a                     ; 0x1a <__rc10>
    110c: a4 1c        	ldy	$1c                     ; 0x1c <__rc12>
    110e: b1 16        	lda	($16),y                 ; 0x16 <__rc6>
    1110: 85 16        	sta	$16                     ; 0x16 <__rc6>
    1112: 18           	clc
    1113: a4 23        	ldy	$23                     ; 0x23 <__rc19>
    1115: 8a           	txa
    1116: 71 12        	adc	($12),y                 ; 0x12 <__rc2>
    1118: 85 12        	sta	$12                     ; 0x12 <__rc2>
    111a: a4 1a        	ldy	$1a                     ; 0x1a <__rc10>
    111c: a5 22        	lda	$22                     ; 0x22 <__rc18>
    111e: 71 14        	adc	($14),y                 ; 0x14 <__rc4>
    1120: 85 17        	sta	$17                     ; 0x17 <__rc7>
    1122: a5 16        	lda	$16                     ; 0x16 <__rc6>
    1124: a4 1c        	ldy	$1c                     ; 0x1c <__rc12>
    1126: 71 14        	adc	($14),y                 ; 0x14 <__rc4>
    1128: 85 13        	sta	$13                     ; 0x13 <__rc3>
    112a: 18           	clc
    112b: a5 12        	lda	$12                     ; 0x12 <__rc2>
    112d: 69 02        	adc	#$2
    112f: 85 14        	sta	$14                     ; 0x14 <__rc4>
    1131: a5 17        	lda	$17                     ; 0x17 <__rc7>
    1133: 69 00        	adc	#$0
    1135: aa           	tax
    1136: a5 13        	lda	$13                     ; 0x13 <__rc3>
    1138: 69 00        	adc	#$0
    113a: 85 13        	sta	$13                     ; 0x13 <__rc3>
    113c: 8a           	txa
    113d: 86 12        	stx	$12                     ; 0x12 <__rc2>
    113f: 06 12        	asl	$12                     ; 0x12 <__rc2>
    1141: 26 13        	rol	$13                     ; 0x13 <__rc3>
    1143: 06 12        	asl	$12                     ; 0x12 <__rc2>
    1145: 26 13        	rol	$13                     ; 0x13 <__rc3>
    1147: 06 12        	asl	$12                     ; 0x12 <__rc2>
    1149: 26 13        	rol	$13                     ; 0x13 <__rc3>
    114b: a4 13        	ldy	$13                     ; 0x13 <__rc3>
    114d: a6 0f        	ldx	$f                      ; 0xf <__zp_bss_size>
    114f: 78           	sei
    1150: 84 0f        	sty	$f                      ; 0xf <__zp_bss_size>
    1152: 09 e0        	ora	#$e0
    1154: a4 14        	ldy	$14                     ; 0x14 <__rc4>
    1156: 84 12        	sty	$12                     ; 0x12 <__rc2>
    1158: 85 13        	sta	$13                     ; 0x13 <__rc3>
    115a: b2 12        	lda	($12)                   ; 0x12 <__rc2>
    115c: 85 22        	sta	$22                     ; 0x22 <__rc18>
    115e: 86 0f        	stx	$f                      ; 0xf <__zp_bss_size>
    1160: 58           	cli
    1161: a5 19        	lda	$19                     ; 0x19 <__rc9>
    1163: 18           	clc
    1164: 65 dc        	adc	$dc                     ; 0xdc <theOne.8>
    1166: aa           	tax
    1167: a5 18        	lda	$18                     ; 0x18 <__rc8>
    1169: 65 dd        	adc	$dd                     ; 0xdd <theOne.8+0x1>
    116b: a8           	tay
    116c: 8a           	txa
    116d: 18           	clc
    116e: 69 08        	adc	#$8
    1170: 85 12        	sta	$12                     ; 0x12 <__rc2>
    1172: 98           	tya
    1173: 69 00        	adc	#$0
    1175: 86 14        	stx	$14                     ; 0x14 <__rc4>
    1177: 84 15        	sty	$15                     ; 0x15 <__rc5>
    1179: 85 13        	sta	$13                     ; 0x13 <__rc3>
    117b: 18           	clc
    117c: 8a           	txa
    117d: 69 04        	adc	#$4
    117f: 85 16        	sta	$16                     ; 0x16 <__rc6>
    1181: 98           	tya
    1182: 69 00        	adc	#$0
    1184: 85 17        	sta	$17                     ; 0x17 <__rc7>
    1186: a4 1f        	ldy	$1f                     ; 0x1f <__rc15>
    1188: b1 14        	lda	($14),y                 ; 0x14 <__rc4>
    118a: aa           	tax
    118b: a4 1a        	ldy	$1a                     ; 0x1a <__rc10>
    118d: b1 16        	lda	($16),y                 ; 0x16 <__rc6>
    118f: 84 24        	sty	$24                     ; 0x24 <__rc20>
    1191: 85 1a        	sta	$1a                     ; 0x1a <__rc10>
    1193: a4 1c        	ldy	$1c                     ; 0x1c <__rc12>
    1195: b1 16        	lda	($16),y                 ; 0x16 <__rc6>
    1197: 84 17        	sty	$17                     ; 0x17 <__rc7>
    1199: 85 16        	sta	$16                     ; 0x16 <__rc6>
    119b: 18           	clc
    119c: a4 23        	ldy	$23                     ; 0x23 <__rc19>
    119e: 8a           	txa
    119f: 71 14        	adc	($14),y                 ; 0x14 <__rc4>
    11a1: 85 14        	sta	$14                     ; 0x14 <__rc4>
    11a3: a6 23        	ldx	$23                     ; 0x23 <__rc19>
    11a5: 86 25        	stx	$25                     ; 0x25 <__rc21>
    11a7: a5 1a        	lda	$1a                     ; 0x1a <__rc10>
    11a9: a4 24        	ldy	$24                     ; 0x24 <__rc20>
    11ab: 71 12        	adc	($12),y                 ; 0x12 <__rc2>
    11ad: 85 15        	sta	$15                     ; 0x15 <__rc5>
    11af: 84 1c        	sty	$1c                     ; 0x1c <__rc12>
    11b1: a5 16        	lda	$16                     ; 0x16 <__rc6>
    11b3: a4 17        	ldy	$17                     ; 0x17 <__rc7>
    11b5: 71 12        	adc	($12),y                 ; 0x12 <__rc2>
    11b7: 85 12        	sta	$12                     ; 0x12 <__rc2>
    11b9: 84 24        	sty	$24                     ; 0x24 <__rc20>
    11bb: 18           	clc
    11bc: a5 14        	lda	$14                     ; 0x14 <__rc4>
    11be: 69 03        	adc	#$3
    11c0: 85 14        	sta	$14                     ; 0x14 <__rc4>
    11c2: a5 15        	lda	$15                     ; 0x15 <__rc5>
    11c4: 69 00        	adc	#$0
    11c6: aa           	tax
    11c7: a5 12        	lda	$12                     ; 0x12 <__rc2>
    11c9: 69 00        	adc	#$0
    11cb: 85 13        	sta	$13                     ; 0x13 <__rc3>
    11cd: 8a           	txa
    11ce: 86 12        	stx	$12                     ; 0x12 <__rc2>
    11d0: 06 12        	asl	$12                     ; 0x12 <__rc2>
    11d2: 26 13        	rol	$13                     ; 0x13 <__rc3>
    11d4: 06 12        	asl	$12                     ; 0x12 <__rc2>
    11d6: 26 13        	rol	$13                     ; 0x13 <__rc3>
    11d8: 06 12        	asl	$12                     ; 0x12 <__rc2>
    11da: 26 13        	rol	$13                     ; 0x13 <__rc3>
    11dc: a4 13        	ldy	$13                     ; 0x13 <__rc3>
    11de: a6 0f        	ldx	$f                      ; 0xf <__zp_bss_size>
    11e0: 78           	sei
    11e1: 84 0f        	sty	$f                      ; 0xf <__zp_bss_size>
    11e3: 09 e0        	ora	#$e0
    11e5: a4 14        	ldy	$14                     ; 0x14 <__rc4>
    11e7: 84 12        	sty	$12                     ; 0x12 <__rc2>
    11e9: 85 13        	sta	$13                     ; 0x13 <__rc3>
    11eb: b2 12        	lda	($12)                   ; 0x12 <__rc2>
    11ed: a0 02        	ldy	#$2
    11ef: 91 10        	sta	($10),y                 ; 0x10 <__rc0>
    11f1: 86 0f        	stx	$f                      ; 0xf <__zp_bss_size>
    11f3: 58           	cli
    11f4: a5 19        	lda	$19                     ; 0x19 <__rc9>
    11f6: 18           	clc
    11f7: 65 dc        	adc	$dc                     ; 0xdc <theOne.8>
    11f9: aa           	tax
    11fa: a5 18        	lda	$18                     ; 0x18 <__rc8>
    11fc: 65 dd        	adc	$dd                     ; 0xdd <theOne.8+0x1>
    11fe: a8           	tay
    11ff: 8a           	txa
    1200: 18           	clc
    1201: 69 08        	adc	#$8
    1203: 85 12        	sta	$12                     ; 0x12 <__rc2>
    1205: 98           	tya
    1206: 69 00        	adc	#$0
    1208: 85 13        	sta	$13                     ; 0x13 <__rc3>
    120a: 86 14        	stx	$14                     ; 0x14 <__rc4>
    120c: 84 15        	sty	$15                     ; 0x15 <__rc5>
    120e: 18           	clc
    120f: 8a           	txa
    1210: 69 04        	adc	#$4
    1212: 85 16        	sta	$16                     ; 0x16 <__rc6>
    1214: 98           	tya
    1215: 69 00        	adc	#$0
    1217: 85 17        	sta	$17                     ; 0x17 <__rc7>
    1219: a4 1f        	ldy	$1f                     ; 0x1f <__rc15>
    121b: b1 14        	lda	($14),y                 ; 0x14 <__rc4>
    121d: 85 1f        	sta	$1f                     ; 0x1f <__rc15>
    121f: 84 1a        	sty	$1a                     ; 0x1a <__rc10>
    1221: a4 1c        	ldy	$1c                     ; 0x1c <__rc12>
    1223: b1 16        	lda	($16),y                 ; 0x16 <__rc6>
    1225: 84 27        	sty	$27                     ; 0x27 <__rc23>
    1227: 85 23        	sta	$23                     ; 0x23 <__rc19>
    1229: a4 24        	ldy	$24                     ; 0x24 <__rc20>
    122b: b1 16        	lda	($16),y                 ; 0x16 <__rc6>
    122d: 85 16        	sta	$16                     ; 0x16 <__rc6>
    122f: 18           	clc
    1230: a4 25        	ldy	$25                     ; 0x25 <__rc21>
    1232: a5 1f        	lda	$1f                     ; 0x1f <__rc15>
    1234: 71 14        	adc	($14),y                 ; 0x14 <__rc4>
    1236: 85 14        	sta	$14                     ; 0x14 <__rc4>
    1238: 84 1c        	sty	$1c                     ; 0x1c <__rc12>
    123a: a5 23        	lda	$23                     ; 0x23 <__rc19>
    123c: a4 27        	ldy	$27                     ; 0x27 <__rc23>
    123e: 71 12        	adc	($12),y                 ; 0x12 <__rc2>
    1240: 85 15        	sta	$15                     ; 0x15 <__rc5>
    1242: 84 1f        	sty	$1f                     ; 0x1f <__rc15>
    1244: a4 24        	ldy	$24                     ; 0x24 <__rc20>
    1246: a5 16        	lda	$16                     ; 0x16 <__rc6>
    1248: 71 12        	adc	($12),y                 ; 0x12 <__rc2>
    124a: 85 12        	sta	$12                     ; 0x12 <__rc2>
    124c: 84 25        	sty	$25                     ; 0x25 <__rc21>
    124e: 18           	clc
    124f: a5 14        	lda	$14                     ; 0x14 <__rc4>
    1251: 69 04        	adc	#$4
    1253: 85 14        	sta	$14                     ; 0x14 <__rc4>
    1255: a5 15        	lda	$15                     ; 0x15 <__rc5>
    1257: 69 00        	adc	#$0
    1259: aa           	tax
    125a: a5 12        	lda	$12                     ; 0x12 <__rc2>
    125c: 69 00        	adc	#$0
    125e: 85 13        	sta	$13                     ; 0x13 <__rc3>
    1260: 8a           	txa
    1261: 86 12        	stx	$12                     ; 0x12 <__rc2>
    1263: 06 12        	asl	$12                     ; 0x12 <__rc2>
    1265: 26 13        	rol	$13                     ; 0x13 <__rc3>
    1267: 06 12        	asl	$12                     ; 0x12 <__rc2>
    1269: 26 13        	rol	$13                     ; 0x13 <__rc3>
    126b: 06 12        	asl	$12                     ; 0x12 <__rc2>
    126d: 26 13        	rol	$13                     ; 0x13 <__rc3>
    126f: a4 13        	ldy	$13                     ; 0x13 <__rc3>
    1271: a6 0f        	ldx	$f                      ; 0xf <__zp_bss_size>
    1273: 78           	sei
    1274: 84 0f        	sty	$f                      ; 0xf <__zp_bss_size>
    1276: a4 14        	ldy	$14                     ; 0x14 <__rc4>
    1278: 84 12        	sty	$12                     ; 0x12 <__rc2>
    127a: 09 e0        	ora	#$e0
    127c: 85 13        	sta	$13                     ; 0x13 <__rc3>
    127e: b2 12        	lda	($12)                   ; 0x12 <__rc2>
    1280: a0 01        	ldy	#$1
    1282: 91 10        	sta	($10),y                 ; 0x10 <__rc0>
    1284: 86 0f        	stx	$f                      ; 0xf <__zp_bss_size>
    1286: 58           	cli
    1287: a5 19        	lda	$19                     ; 0x19 <__rc9>
    1289: 18           	clc
    128a: 65 dc        	adc	$dc                     ; 0xdc <theOne.8>
    128c: aa           	tax
    128d: a5 18        	lda	$18                     ; 0x18 <__rc8>
    128f: 65 dd        	adc	$dd                     ; 0xdd <theOne.8+0x1>
    1291: a8           	tay
    1292: 8a           	txa
    1293: 18           	clc
    1294: 69 08        	adc	#$8
    1296: 85 12        	sta	$12                     ; 0x12 <__rc2>
    1298: 98           	tya
    1299: 69 00        	adc	#$0
    129b: 85 13        	sta	$13                     ; 0x13 <__rc3>
    129d: 86 14        	stx	$14                     ; 0x14 <__rc4>
    129f: 84 15        	sty	$15                     ; 0x15 <__rc5>
    12a1: 18           	clc
    12a2: 8a           	txa
    12a3: 69 04        	adc	#$4
    12a5: 85 16        	sta	$16                     ; 0x16 <__rc6>
    12a7: 98           	tya
    12a8: 69 00        	adc	#$0
    12aa: 85 17        	sta	$17                     ; 0x17 <__rc7>
    12ac: a4 1a        	ldy	$1a                     ; 0x1a <__rc10>
    12ae: b1 14        	lda	($14),y                 ; 0x14 <__rc4>
    12b0: aa           	tax
    12b1: a4 1f        	ldy	$1f                     ; 0x1f <__rc15>
    12b3: b1 16        	lda	($16),y                 ; 0x16 <__rc6>
    12b5: 85 24        	sta	$24                     ; 0x24 <__rc20>
    12b7: a4 25        	ldy	$25                     ; 0x25 <__rc21>
    12b9: b1 16        	lda	($16),y                 ; 0x16 <__rc6>
    12bb: 85 23        	sta	$23                     ; 0x23 <__rc19>
    12bd: 18           	clc
    12be: a4 1c        	ldy	$1c                     ; 0x1c <__rc12>
    12c0: 8a           	txa
    12c1: 71 14        	adc	($14),y                 ; 0x14 <__rc4>
    12c3: 85 14        	sta	$14                     ; 0x14 <__rc4>
    12c5: a6 1b        	ldx	$1b                     ; 0x1b <__rc11>
    12c7: 86 16        	stx	$16                     ; 0x16 <__rc6>
    12c9: a4 1f        	ldy	$1f                     ; 0x1f <__rc15>
    12cb: a5 24        	lda	$24                     ; 0x24 <__rc20>
    12cd: 71 12        	adc	($12),y                 ; 0x12 <__rc2>
    12cf: 85 15        	sta	$15                     ; 0x15 <__rc5>
    12d1: 84 17        	sty	$17                     ; 0x17 <__rc7>
    12d3: a4 25        	ldy	$25                     ; 0x25 <__rc21>
    12d5: a5 23        	lda	$23                     ; 0x23 <__rc19>
    12d7: 71 12        	adc	($12),y                 ; 0x12 <__rc2>
    12d9: 85 12        	sta	$12                     ; 0x12 <__rc2>
    12db: 84 2c        	sty	$2c                     ; 0x2c <__rc28>
    12dd: 18           	clc
    12de: a5 14        	lda	$14                     ; 0x14 <__rc4>
    12e0: 69 05        	adc	#$5
    12e2: 85 14        	sta	$14                     ; 0x14 <__rc4>
    12e4: a5 15        	lda	$15                     ; 0x15 <__rc5>
    12e6: 69 00        	adc	#$0
    12e8: aa           	tax
    12e9: a5 12        	lda	$12                     ; 0x12 <__rc2>
    12eb: 69 00        	adc	#$0
    12ed: 85 13        	sta	$13                     ; 0x13 <__rc3>
    12ef: 8a           	txa
    12f0: 86 12        	stx	$12                     ; 0x12 <__rc2>
    12f2: 06 12        	asl	$12                     ; 0x12 <__rc2>
    12f4: 26 13        	rol	$13                     ; 0x13 <__rc3>
    12f6: 06 12        	asl	$12                     ; 0x12 <__rc2>
    12f8: 26 13        	rol	$13                     ; 0x13 <__rc3>
    12fa: 06 12        	asl	$12                     ; 0x12 <__rc2>
    12fc: 26 13        	rol	$13                     ; 0x13 <__rc3>
    12fe: a4 13        	ldy	$13                     ; 0x13 <__rc3>
    1300: a6 0f        	ldx	$f                      ; 0xf <__zp_bss_size>
    1302: 78           	sei
    1303: 84 0f        	sty	$f                      ; 0xf <__zp_bss_size>
    1305: a4 14        	ldy	$14                     ; 0x14 <__rc4>
    1307: 84 12        	sty	$12                     ; 0x12 <__rc2>
    1309: 09 e0        	ora	#$e0
    130b: 85 13        	sta	$13                     ; 0x13 <__rc3>
    130d: b2 12        	lda	($12)                   ; 0x12 <__rc2>
    130f: a0 00        	ldy	#$0
    1311: 91 10        	sta	($10),y                 ; 0x10 <__rc0>
    1313: 86 0f        	stx	$f                      ; 0xf <__zp_bss_size>
    1315: 58           	cli
    1316: a6 dc        	ldx	$dc                     ; 0xdc <theOne.8>
    1318: 86 27        	stx	$27                     ; 0x27 <__rc23>
    131a: a6 dd        	ldx	$dd                     ; 0xdd <theOne.8+0x1>
    131c: 86 2b        	stx	$2b                     ; 0x2b <__rc27>
    131e: 18           	clc
    131f: a5 19        	lda	$19                     ; 0x19 <__rc9>
    1321: 65 dc        	adc	$dc                     ; 0xdc <theOne.8>
    1323: aa           	tax
    1324: a5 18        	lda	$18                     ; 0x18 <__rc8>
    1326: 65 dd        	adc	$dd                     ; 0xdd <theOne.8+0x1>
    1328: 86 14        	stx	$14                     ; 0x14 <__rc4>
    132a: 85 15        	sta	$15                     ; 0x15 <__rc5>
    132c: a8           	tay
    132d: 18           	clc
    132e: 8a           	txa
    132f: 69 04        	adc	#$4
    1331: aa           	tax
    1332: 98           	tya
    1333: 69 00        	adc	#$0
    1335: 85 18        	sta	$18                     ; 0x18 <__rc8>
    1337: a0 10        	ldy	#$10
    1339: a5 1e        	lda	$1e                     ; 0x1e <__rc14>
    133b: 91 14        	sta	($14),y                 ; 0x14 <__rc4>
    133d: c8           	iny
    133e: a5 1d        	lda	$1d                     ; 0x1d <__rc13>
    1340: 85 1f        	sta	$1f                     ; 0x1f <__rc15>
    1342: 84 2f        	sty	$2f                     ; 0x2f <__rc31>
    1344: 91 14        	sta	($14),y                 ; 0x14 <__rc4>
    1346: c8           	iny
    1347: a5 22        	lda	$22                     ; 0x22 <__rc18>
    1349: 84 2d        	sty	$2d                     ; 0x2d <__rc29>
    134b: 91 14        	sta	($14),y                 ; 0x14 <__rc4>
    134d: 8a           	txa
    134e: a0 03        	ldy	#$3
    1350: 91 10        	sta	($10),y                 ; 0x10 <__rc0>
    1352: 86 12        	stx	$12                     ; 0x12 <__rc2>
    1354: a6 18        	ldx	$18                     ; 0x18 <__rc8>
    1356: 86 13        	stx	$13                     ; 0x13 <__rc3>
    1358: a5 18        	lda	$18                     ; 0x18 <__rc8>
    135a: c8           	iny
    135b: 91 10        	sta	($10),y                 ; 0x10 <__rc0>
    135d: a4 1a        	ldy	$1a                     ; 0x1a <__rc10>
    135f: b1 14        	lda	($14),y                 ; 0x14 <__rc4>
    1361: 85 18        	sta	$18                     ; 0x18 <__rc8>
    1363: a4 17        	ldy	$17                     ; 0x17 <__rc7>
    1365: b1 12        	lda	($12),y                 ; 0x12 <__rc2>
    1367: aa           	tax
    1368: a4 2c        	ldy	$2c                     ; 0x2c <__rc28>
    136a: b1 12        	lda	($12),y                 ; 0x12 <__rc2>
    136c: 85 1b        	sta	$1b                     ; 0x1b <__rc11>
    136e: a4 16        	ldy	$16                     ; 0x16 <__rc6>
    1370: b1 12        	lda	($12),y                 ; 0x12 <__rc2>
    1372: a8           	tay
    1373: a5 18        	lda	$18                     ; 0x18 <__rc8>
    1375: 85 19        	sta	$19                     ; 0x19 <__rc9>
    1377: 86 1d        	stx	$1d                     ; 0x1d <__rc13>
    1379: 86 23        	stx	$23                     ; 0x23 <__rc19>
    137b: a6 1b        	ldx	$1b                     ; 0x1b <__rc11>
    137d: 86 1c        	stx	$1c                     ; 0x1c <__rc12>
    137f: a6 1b        	ldx	$1b                     ; 0x1b <__rc11>
    1381: 86 18        	stx	$18                     ; 0x18 <__rc8>
    1383: 84 24        	sty	$24                     ; 0x24 <__rc20>
    1385: 5a           	phy
    1386: fa           	plx
    1387: 1a           	inc
    1388: d0 03        	bne	$138d <f256main+0x8dd>
    138a: 4c 04 18     	jmp	$1804 <f256main+0xd54>
    138d: a4 1a        	ldy	$1a                     ; 0x1a <__rc10>
    138f: 85 2e        	sta	$2e                     ; 0x2e <__rc30>
    1391: 91 14        	sta	($14),y                 ; 0x14 <__rc4>
    1393: a4 18        	ldy	$18                     ; 0x18 <__rc8>
    1395: 84 25        	sty	$25                     ; 0x25 <__rc21>
    1397: a4 17        	ldy	$17                     ; 0x17 <__rc7>
    1399: 84 1b        	sty	$1b                     ; 0x1b <__rc11>
    139b: a5 23        	lda	$23                     ; 0x23 <__rc19>
    139d: 85 18        	sta	$18                     ; 0x18 <__rc8>
    139f: 91 12        	sta	($12),y                 ; 0x12 <__rc2>
    13a1: a4 2c        	ldy	$2c                     ; 0x2c <__rc28>
    13a3: 84 23        	sty	$23                     ; 0x23 <__rc19>
    13a5: a5 25        	lda	$25                     ; 0x25 <__rc21>
    13a7: 85 17        	sta	$17                     ; 0x17 <__rc7>
    13a9: 91 12        	sta	($12),y                 ; 0x12 <__rc2>
    13ab: a4 16        	ldy	$16                     ; 0x16 <__rc6>
    13ad: 8a           	txa
    13ae: 91 12        	sta	($12),y                 ; 0x12 <__rc2>
    13b0: a5 1e        	lda	$1e                     ; 0x1e <__rc14>
    13b2: 10 03        	bpl	$13b7 <f256main+0x907>
    13b4: 4c 2e 18     	jmp	$182e <f256main+0xd7e>
    13b7: 4c ef 16     	jmp	$16ef <f256main+0xc3f>
    13ba: a6 27        	ldx	$27                     ; 0x27 <__rc23>
    13bc: 86 12        	stx	$12                     ; 0x12 <__rc2>
    13be: a6 2b        	ldx	$2b                     ; 0x2b <__rc27>
    13c0: 86 13        	stx	$13                     ; 0x13 <__rc3>
    13c2: a0 05        	ldy	#$5
    13c4: b1 10        	lda	($10),y                 ; 0x10 <__rc0>
    13c6: a4 1e        	ldy	$1e                     ; 0x1e <__rc14>
    13c8: c0 ff        	cpy	#$ff
    13ca: d0 03        	bne	$13cf <f256main+0x91f>
    13cc: 4c 3b 18     	jmp	$183b <f256main+0xd8b>
    13cf: 4c 3b 17     	jmp	$173b <f256main+0xc8b>
    13d2: c4 1a        	cpy	$1a                     ; 0x1a <__rc10>
    13d4: a4 1b        	ldy	$1b                     ; 0x1b <__rc11>
    13d6: b0 03        	bcs	$13db <f256main+0x92b>
    13d8: 4c bd 0e     	jmp	$ebd <f256main+0x40d>
    13db: a2 19        	ldx	#$19
    13dd: 86 26        	stx	$26                     ; 0x26 <__rc22>
    13df: a9 01        	lda	#$1
    13e1: a0 18        	ldy	#$18
    13e3: 91 16        	sta	($16),y                 ; 0x16 <__rc6>
    13e5: a0 05        	ldy	#$5
    13e7: b1 10        	lda	($10),y                 ; 0x10 <__rc0>
    13e9: a6 29        	ldx	$29                     ; 0x29 <__rc25>
    13eb: 86 27        	stx	$27                     ; 0x27 <__rc23>
    13ed: a6 2a        	ldx	$2a                     ; 0x2a <__rc26>
    13ef: e6 27        	inc	$27                     ; 0x27 <__rc23>
    13f1: d0 01        	bne	$13f4 <f256main+0x944>
    13f3: e8           	inx
    13f4: 86 16        	stx	$16                     ; 0x16 <__rc6>
    13f6: 18           	clc
    13f7: 69 19        	adc	#$19
    13f9: 85 17        	sta	$17                     ; 0x17 <__rc7>
    13fb: a6 27        	ldx	$27                     ; 0x27 <__rc23>
    13fd: a5 28        	lda	$28                     ; 0x28 <__rc24>
    13ff: 69 00        	adc	#$0
    1401: 85 28        	sta	$28                     ; 0x28 <__rc24>
    1403: a5 16        	lda	$16                     ; 0x16 <__rc6>
    1405: c5 15        	cmp	$15                     ; 0x15 <__rc5>
    1407: d0 06        	bne	$140f <f256main+0x95f>
    1409: 86 29        	stx	$29                     ; 0x29 <__rc25>
    140b: e4 14        	cpx	$14                     ; 0x14 <__rc4>
    140d: 80 04        	bra	$1413 <f256main+0x963>
    140f: 86 29        	stx	$29                     ; 0x29 <__rc25>
    1411: c5 15        	cmp	$15                     ; 0x15 <__rc5>
    1413: a6 26        	ldx	$26                     ; 0x26 <__rc22>
    1415: b0 03        	bcs	$141a <f256main+0x96a>
    1417: 4c 34 0e     	jmp	$e34 <f256main+0x384>
    141a: 4c ec 14     	jmp	$14ec <f256main+0xa3c>
    141d: 85 1b        	sta	$1b                     ; 0x1b <__rc11>
    141f: d1 14        	cmp	($14),y                 ; 0x14 <__rc4>
    1421: a4 24        	ldy	$24                     ; 0x24 <__rc20>
    1423: 8a           	txa
    1424: 90 2a        	bcc	$1450 <f256main+0x9a0>
    1426: a6 16        	ldx	$16                     ; 0x16 <__rc6>
    1428: 86 12        	stx	$12                     ; 0x12 <__rc2>
    142a: a6 17        	ldx	$17                     ; 0x17 <__rc7>
    142c: 86 13        	stx	$13                     ; 0x13 <__rc3>
    142e: a9 01        	lda	#$1
    1430: 91 14        	sta	($14),y                 ; 0x14 <__rc4>
    1432: e6 da        	inc	$da                     ; 0xda <theOne.7>
    1434: d0 03        	bne	$1439 <f256main+0x989>
    1436: 4c 16 18     	jmp	$1816 <f256main+0xd66>
    1439: a0 05        	ldy	#$5
    143b: b1 10        	lda	($10),y                 ; 0x10 <__rc0>
    143d: a6 29        	ldx	$29                     ; 0x29 <__rc25>
    143f: 86 27        	stx	$27                     ; 0x27 <__rc23>
    1441: a6 d8        	ldx	$d8                     ; 0xd8 <theOne.0>
    1443: a4 d9        	ldy	$d9                     ; 0xd9 <theOne.0+0x1>
    1445: 86 14        	stx	$14                     ; 0x14 <__rc4>
    1447: 84 15        	sty	$15                     ; 0x15 <__rc5>
    1449: a6 1a        	ldx	$1a                     ; 0x1a <__rc10>
    144b: 86 1c        	stx	$1c                     ; 0x1c <__rc12>
    144d: 4c ed 13     	jmp	$13ed <f256main+0x93d>
    1450: aa           	tax
    1451: a4 1e        	ldy	$1e                     ; 0x1e <__rc14>
    1453: 84 16        	sty	$16                     ; 0x16 <__rc6>
    1455: a4 1f        	ldy	$1f                     ; 0x1f <__rc15>
    1457: 84 17        	sty	$17                     ; 0x17 <__rc7>
    1459: 18           	clc
    145a: a5 1c        	lda	$1c                     ; 0x1c <__rc12>
    145c: 69 08        	adc	#$8
    145e: 85 12        	sta	$12                     ; 0x12 <__rc2>
    1460: a5 1d        	lda	$1d                     ; 0x1d <__rc13>
    1462: 69 00        	adc	#$0
    1464: 85 13        	sta	$13                     ; 0x13 <__rc3>
    1466: a5 18        	lda	$18                     ; 0x18 <__rc8>
    1468: 86 1a        	stx	$1a                     ; 0x1a <__rc10>
    146a: a4 19        	ldy	$19                     ; 0x19 <__rc9>
    146c: 84 1c        	sty	$1c                     ; 0x1c <__rc12>
    146e: 1a           	inc
    146f: d0 03        	bne	$1474 <f256main+0x9c4>
    1471: 4c 1b 18     	jmp	$181b <f256main+0xd6b>
    1474: a0 04        	ldy	#$4
    1476: 84 24        	sty	$24                     ; 0x24 <__rc20>
    1478: 91 14        	sta	($14),y                 ; 0x14 <__rc4>
    147a: a0 01        	ldy	#$1
    147c: a5 1a        	lda	$1a                     ; 0x1a <__rc10>
    147e: 91 16        	sta	($16),y                 ; 0x16 <__rc6>
    1480: 84 1d        	sty	$1d                     ; 0x1d <__rc13>
    1482: c8           	iny
    1483: 84 1a        	sty	$1a                     ; 0x1a <__rc10>
    1485: a5 1c        	lda	$1c                     ; 0x1c <__rc12>
    1487: 91 16        	sta	($16),y                 ; 0x16 <__rc6>
    1489: c8           	iny
    148a: a5 1b        	lda	$1b                     ; 0x1b <__rc11>
    148c: 91 16        	sta	($16),y                 ; 0x16 <__rc6>
    148e: 18           	clc
    148f: a0 08        	ldy	#$8
    1491: a5 18        	lda	$18                     ; 0x18 <__rc8>
    1493: 71 14        	adc	($14),y                 ; 0x14 <__rc4>
    1495: 85 14        	sta	$14                     ; 0x14 <__rc4>
    1497: 8a           	txa
    1498: a4 1d        	ldy	$1d                     ; 0x1d <__rc13>
    149a: 71 12        	adc	($12),y                 ; 0x12 <__rc2>
    149c: 85 15        	sta	$15                     ; 0x15 <__rc5>
    149e: a5 19        	lda	$19                     ; 0x19 <__rc9>
    14a0: a4 1a        	ldy	$1a                     ; 0x1a <__rc10>
    14a2: 71 12        	adc	($12),y                 ; 0x12 <__rc2>
    14a4: 85 12        	sta	$12                     ; 0x12 <__rc2>
    14a6: a6 0f        	ldx	$f                      ; 0xf <__zp_bss_size>
    14a8: 78           	sei
    14a9: a5 15        	lda	$15                     ; 0x15 <__rc5>
    14ab: 0a           	asl
    14ac: 26 12        	rol	$12                     ; 0x12 <__rc2>
    14ae: 0a           	asl
    14af: 26 12        	rol	$12                     ; 0x12 <__rc2>
    14b1: 0a           	asl
    14b2: a5 12        	lda	$12                     ; 0x12 <__rc2>
    14b4: 2a           	rol
    14b5: 85 0f        	sta	$f                      ; 0xf <__zp_bss_size>
    14b7: a5 15        	lda	$15                     ; 0x15 <__rc5>
    14b9: 09 e0        	ora	#$e0
    14bb: a4 14        	ldy	$14                     ; 0x14 <__rc4>
    14bd: 84 12        	sty	$12                     ; 0x12 <__rc2>
    14bf: 85 13        	sta	$13                     ; 0x13 <__rc3>
    14c1: b2 12        	lda	($12)                   ; 0x12 <__rc2>
    14c3: 86 0f        	stx	$f                      ; 0xf <__zp_bss_size>
    14c5: 58           	cli
    14c6: aa           	tax
    14c7: 10 03        	bpl	$14cc <f256main+0xa1c>
    14c9: 4c a8 18     	jmp	$18a8 <f256main+0xdf8>
    14cc: 85 25        	sta	$25                     ; 0x25 <__rc21>
    14ce: 64 12        	stz	$12                     ; 0x12 <__rc2>
    14d0: a9 00        	lda	#$0
    14d2: a0 04        	ldy	#$4
    14d4: 91 10        	sta	($10),y                 ; 0x10 <__rc0>
    14d6: 64 27        	stz	$27                     ; 0x27 <__rc23>
    14d8: 64 2b        	stz	$2b                     ; 0x2b <__rc27>
    14da: 64 2d        	stz	$2d                     ; 0x2d <__rc29>
    14dc: 64 24        	stz	$24                     ; 0x24 <__rc20>
    14de: 64 2c        	stz	$2c                     ; 0x2c <__rc28>
    14e0: 64 13        	stz	$13                     ; 0x13 <__rc3>
    14e2: 64 14        	stz	$14                     ; 0x14 <__rc4>
    14e4: aa           	tax
    14e5: a4 29        	ldy	$29                     ; 0x29 <__rc25>
    14e7: 84 18        	sty	$18                     ; 0x18 <__rc8>
    14e9: 4c 58 0f     	jmp	$f58 <f256main+0x4a8>
    14ec: a2 ff        	ldx	#$ff
    14ee: 8e 01 df     	stx	$df01                   ; 0xdf01 <__heap_start+0xae37>
    14f1: a2 80        	ldx	#$80
    14f3: 8e 0c df     	stx	$df0c                   ; 0xdf0c <__heap_start+0xae42>
    14f6: a2 57        	ldx	#$57
    14f8: 8e 0d df     	stx	$df0d                   ; 0xdf0d <__heap_start+0xae43>
    14fb: 20 cf 1d     	jsr	$1dcf <rotateX>
    14fe: 20 cf 1d     	jsr	$1dcf <rotateX>
    1501: 20 cf 1d     	jsr	$1dcf <rotateX>
    1504: 20 cf 1d     	jsr	$1dcf <rotateX>
    1507: 20 cf 1d     	jsr	$1dcf <rotateX>
    150a: a9 00        	lda	#$0
    150c: 20 dd 1f     	jsr	$1fdd <redraw>
    150f: a2 01        	ldx	#$1
    1511: 8e 00 d1     	stx	$d100                   ; 0xd100 <__heap_start+0xa036>
    1514: 8e 08 d1     	stx	$d108                   ; 0xd108 <__heap_start+0xa03e>
    1517: 64 12        	stz	$12                     ; 0x12 <__rc2>
    1519: a9 00        	lda	#$0
    151b: a8           	tay
    151c: 91 10        	sta	($10),y                 ; 0x10 <__rc0>
    151e: 80 51        	bra	$1571 <f256main+0xac1>
    1520: c0 01        	cpy	#$1
    1522: b0 03        	bcs	$1527 <f256main+0xa77>
    1524: 4c db 16     	jmp	$16db <f256main+0xc2b>
    1527: a2 03        	ldx	#$3
    1529: 64 12        	stz	$12                     ; 0x12 <__rc2>
    152b: a9 00        	lda	#$0
    152d: a8           	tay
    152e: 91 10        	sta	($10),y                 ; 0x10 <__rc0>
    1530: 80 22        	bra	$1554 <f256main+0xaa4>
    1532: a9 04        	lda	#$4
    1534: 20 dd 1f     	jsr	$1fdd <redraw>
    1537: ae 1a d0     	ldx	$d01a                   ; 0xd01a <__heap_start+0x9f50>
    153a: ac 1b d0     	ldy	$d01b                   ; 0xd01b <__heap_start+0x9f51>
    153d: c0 01        	cpy	#$1
    153f: d0 06        	bne	$1547 <f256main+0xa97>
    1541: e0 e2        	cpx	#$e2
    1543: 90 f2        	bcc	$1537 <f256main+0xa87>
    1545: 80 04        	bra	$154b <f256main+0xa9b>
    1547: c0 01        	cpy	#$1
    1549: 90 ec        	bcc	$1537 <f256main+0xa87>
    154b: a2 04        	ldx	#$4
    154d: 8a           	txa
    154e: a0 00        	ldy	#$0
    1550: 91 10        	sta	($10),y                 ; 0x10 <__rc0>
    1552: a2 01        	ldx	#$1
    1554: a0 45        	ldy	#$45
    1556: 8c 00 df     	sty	$df00                   ; 0xdf00 <__heap_start+0xae36>
    1559: a0 ff        	ldy	#$ff
    155b: 8c 01 df     	sty	$df01                   ; 0xdf01 <__heap_start+0xae37>
    155e: 9c 08 df     	stz	$df08                   ; 0xdf08 <__heap_start+0xae3e>
    1561: a0 7d        	ldy	#$7d
    1563: 8c 09 df     	sty	$df09                   ; 0xdf09 <__heap_start+0xae3f>
    1566: 8e 0a df     	stx	$df0a                   ; 0xdf0a <__heap_start+0xae40>
    1569: ad 00 df     	lda	$df00                   ; 0xdf00 <__heap_start+0xae36>
    156c: 09 c5        	ora	#$c5
    156e: 8d 00 df     	sta	$df00                   ; 0xdf00 <__heap_start+0xae36>
    1571: a2 fd        	ldx	#$fd
    1573: 64 12        	stz	$12                     ; 0x12 <__rc2>
    1575: 8a           	txa
    1576: a0 05        	ldy	#$5
    1578: 91 10        	sta	($10),y                 ; 0x10 <__rc0>
    157a: a4 12        	ldy	$12                     ; 0x12 <__rc2>
    157c: 98           	tya
    157d: 5a           	phy
    157e: a0 04        	ldy	#$4
    1580: 91 10        	sta	($10),y                 ; 0x10 <__rc0>
    1582: 7a           	ply
    1583: b9 30 00     	lda	$30,y                   ; 0x30 <skull_vertices>
    1586: b6 31        	ldx	$31,y                   ; 0x31 <skull_vertices+0x1>
    1588: 86 15        	stx	$15                     ; 0x15 <__rc5>
    158a: b6 32        	ldx	$32,y                   ; 0x32 <skull_vertices+0x2>
    158c: 86 16        	stx	$16                     ; 0x16 <__rc6>
    158e: b6 33        	ldx	$33,y                   ; 0x33 <skull_vertices+0x3>
    1590: 86 17        	stx	$17                     ; 0x17 <__rc7>
    1592: 84 24        	sty	$24                     ; 0x24 <__rc20>
    1594: 85 14        	sta	$14                     ; 0x14 <__rc4>
    1596: a2 7e        	ldx	#$7e
    1598: 86 2a        	stx	$2a                     ; 0x2a <__rc26>
    159a: 86 12        	stx	$12                     ; 0x12 <__rc2>
    159c: a2 3f        	ldx	#$3f
    159e: 86 2b        	stx	$2b                     ; 0x2b <__rc27>
    15a0: 86 13        	stx	$13                     ; 0x13 <__rc3>
    15a2: a2 98        	ldx	#$98
    15a4: 86 29        	stx	$29                     ; 0x29 <__rc25>
    15a6: a9 fe        	lda	#$fe
    15a8: 20 ea 05     	jsr	$5ea <mathFloatMul>
    15ab: 85 2d        	sta	$2d                     ; 0x2d <__rc29>
    15ad: 86 25        	stx	$25                     ; 0x25 <__rc21>
    15af: a6 12        	ldx	$12                     ; 0x12 <__rc2>
    15b1: 86 26        	stx	$26                     ; 0x26 <__rc22>
    15b3: a6 13        	ldx	$13                     ; 0x13 <__rc3>
    15b5: 86 27        	stx	$27                     ; 0x27 <__rc23>
    15b7: a4 24        	ldy	$24                     ; 0x24 <__rc20>
    15b9: b9 38 00     	lda	$38,y                   ; 0x38 <skull_vertices+0x8>
    15bc: b6 39        	ldx	$39,y                   ; 0x39 <skull_vertices+0x9>
    15be: 86 15        	stx	$15                     ; 0x15 <__rc5>
    15c0: b6 3a        	ldx	$3a,y                   ; 0x3a <skull_vertices+0xa>
    15c2: 86 16        	stx	$16                     ; 0x16 <__rc6>
    15c4: b6 3b        	ldx	$3b,y                   ; 0x3b <skull_vertices+0xb>
    15c6: 86 17        	stx	$17                     ; 0x17 <__rc7>
    15c8: 84 28        	sty	$28                     ; 0x28 <__rc24>
    15ca: 85 14        	sta	$14                     ; 0x14 <__rc4>
    15cc: a2 d6        	ldx	#$d6
    15ce: 86 2e        	stx	$2e                     ; 0x2e <__rc30>
    15d0: 86 12        	stx	$12                     ; 0x12 <__rc2>
    15d2: a2 3d        	ldx	#$3d
    15d4: 86 2f        	stx	$2f                     ; 0x2f <__rc31>
    15d6: 86 13        	stx	$13                     ; 0x13 <__rc3>
    15d8: a2 12        	ldx	#$12
    15da: 86 24        	stx	$24                     ; 0x24 <__rc20>
    15dc: a0 c7        	ldy	#$c7
    15de: 84 2c        	sty	$2c                     ; 0x2c <__rc28>
    15e0: 98           	tya
    15e1: 20 ea 05     	jsr	$5ea <mathFloatMul>
    15e4: 85 14        	sta	$14                     ; 0x14 <__rc4>
    15e6: 86 15        	stx	$15                     ; 0x15 <__rc5>
    15e8: a6 12        	ldx	$12                     ; 0x12 <__rc2>
    15ea: a4 13        	ldy	$13                     ; 0x13 <__rc3>
    15ec: a5 26        	lda	$26                     ; 0x26 <__rc22>
    15ee: 85 12        	sta	$12                     ; 0x12 <__rc2>
    15f0: a5 27        	lda	$27                     ; 0x27 <__rc23>
    15f2: 85 13        	sta	$13                     ; 0x13 <__rc3>
    15f4: 86 16        	stx	$16                     ; 0x16 <__rc6>
    15f6: 84 17        	sty	$17                     ; 0x17 <__rc7>
    15f8: a6 25        	ldx	$25                     ; 0x25 <__rc21>
    15fa: a5 2d        	lda	$2d                     ; 0x2d <__rc29>
    15fc: 20 99 05     	jsr	$599 <mathFloatSub>
    15ff: a0 03        	ldy	#$3
    1601: 91 10        	sta	($10),y                 ; 0x10 <__rc0>
    1603: 8a           	txa
    1604: a0 01        	ldy	#$1
    1606: 91 10        	sta	($10),y                 ; 0x10 <__rc0>
    1608: a6 12        	ldx	$12                     ; 0x12 <__rc2>
    160a: 86 2d        	stx	$2d                     ; 0x2d <__rc29>
    160c: a5 13        	lda	$13                     ; 0x13 <__rc3>
    160e: c8           	iny
    160f: 91 10        	sta	($10),y                 ; 0x10 <__rc0>
    1611: a4 28        	ldy	$28                     ; 0x28 <__rc24>
    1613: b9 30 00     	lda	$30,y                   ; 0x30 <skull_vertices>
    1616: b6 31        	ldx	$31,y                   ; 0x31 <skull_vertices+0x1>
    1618: 86 15        	stx	$15                     ; 0x15 <__rc5>
    161a: b6 32        	ldx	$32,y                   ; 0x32 <skull_vertices+0x2>
    161c: 86 16        	stx	$16                     ; 0x16 <__rc6>
    161e: b6 33        	ldx	$33,y                   ; 0x33 <skull_vertices+0x3>
    1620: 85 14        	sta	$14                     ; 0x14 <__rc4>
    1622: a4 2e        	ldy	$2e                     ; 0x2e <__rc30>
    1624: 84 12        	sty	$12                     ; 0x12 <__rc2>
    1626: a4 2f        	ldy	$2f                     ; 0x2f <__rc31>
    1628: 84 13        	sty	$13                     ; 0x13 <__rc3>
    162a: 86 17        	stx	$17                     ; 0x17 <__rc7>
    162c: a6 24        	ldx	$24                     ; 0x24 <__rc20>
    162e: a5 2c        	lda	$2c                     ; 0x2c <__rc28>
    1630: 20 ea 05     	jsr	$5ea <mathFloatMul>
    1633: 85 24        	sta	$24                     ; 0x24 <__rc20>
    1635: 86 25        	stx	$25                     ; 0x25 <__rc21>
    1637: a6 12        	ldx	$12                     ; 0x12 <__rc2>
    1639: 86 26        	stx	$26                     ; 0x26 <__rc22>
    163b: a6 13        	ldx	$13                     ; 0x13 <__rc3>
    163d: 86 27        	stx	$27                     ; 0x27 <__rc23>
    163f: a4 28        	ldy	$28                     ; 0x28 <__rc24>
    1641: b9 38 00     	lda	$38,y                   ; 0x38 <skull_vertices+0x8>
    1644: b6 39        	ldx	$39,y                   ; 0x39 <skull_vertices+0x9>
    1646: 86 15        	stx	$15                     ; 0x15 <__rc5>
    1648: b6 3a        	ldx	$3a,y                   ; 0x3a <skull_vertices+0xa>
    164a: 86 16        	stx	$16                     ; 0x16 <__rc6>
    164c: b6 3b        	ldx	$3b,y                   ; 0x3b <skull_vertices+0xb>
    164e: 84 2c        	sty	$2c                     ; 0x2c <__rc28>
    1650: 85 14        	sta	$14                     ; 0x14 <__rc4>
    1652: a4 2a        	ldy	$2a                     ; 0x2a <__rc26>
    1654: 84 12        	sty	$12                     ; 0x12 <__rc2>
    1656: a4 2b        	ldy	$2b                     ; 0x2b <__rc27>
    1658: 84 13        	sty	$13                     ; 0x13 <__rc3>
    165a: 86 17        	stx	$17                     ; 0x17 <__rc7>
    165c: a6 29        	ldx	$29                     ; 0x29 <__rc25>
    165e: a9 fe        	lda	#$fe
    1660: 20 ea 05     	jsr	$5ea <mathFloatMul>
    1663: 85 14        	sta	$14                     ; 0x14 <__rc4>
    1665: 86 15        	stx	$15                     ; 0x15 <__rc5>
    1667: a6 12        	ldx	$12                     ; 0x12 <__rc2>
    1669: a4 13        	ldy	$13                     ; 0x13 <__rc3>
    166b: a5 26        	lda	$26                     ; 0x26 <__rc22>
    166d: 85 12        	sta	$12                     ; 0x12 <__rc2>
    166f: a5 27        	lda	$27                     ; 0x27 <__rc23>
    1671: 85 13        	sta	$13                     ; 0x13 <__rc3>
    1673: 86 16        	stx	$16                     ; 0x16 <__rc6>
    1675: 84 17        	sty	$17                     ; 0x17 <__rc7>
    1677: a6 25        	ldx	$25                     ; 0x25 <__rc21>
    1679: a5 24        	lda	$24                     ; 0x24 <__rc20>
    167b: 20 48 05     	jsr	$548 <mathFloatAdd>
    167e: a8           	tay
    167f: 86 14        	stx	$14                     ; 0x14 <__rc4>
    1681: a6 2c        	ldx	$2c                     ; 0x2c <__rc28>
    1683: 5a           	phy
    1684: a0 03        	ldy	#$3
    1686: b1 10        	lda	($10),y                 ; 0x10 <__rc0>
    1688: 9d 30 00     	sta	$30,x                   ; 0x30 <skull_vertices>
    168b: a0 01        	ldy	#$1
    168d: b1 10        	lda	($10),y                 ; 0x10 <__rc0>
    168f: 9d 31 00     	sta	$31,x                   ; 0x31 <skull_vertices+0x1>
    1692: a5 2d        	lda	$2d                     ; 0x2d <__rc29>
    1694: 9d 32 00     	sta	$32,x                   ; 0x32 <skull_vertices+0x2>
    1697: c8           	iny
    1698: b1 10        	lda	($10),y                 ; 0x10 <__rc0>
    169a: 7a           	ply
    169b: 9d 33 00     	sta	$33,x                   ; 0x33 <skull_vertices+0x3>
    169e: 98           	tya
    169f: 9d 38 00     	sta	$38,x                   ; 0x38 <skull_vertices+0x8>
    16a2: a0 05        	ldy	#$5
    16a4: b1 10        	lda	($10),y                 ; 0x10 <__rc0>
    16a6: a8           	tay
    16a7: a5 14        	lda	$14                     ; 0x14 <__rc4>
    16a9: 9d 39 00     	sta	$39,x                   ; 0x39 <skull_vertices+0x9>
    16ac: a5 12        	lda	$12                     ; 0x12 <__rc2>
    16ae: 9d 3a 00     	sta	$3a,x                   ; 0x3a <skull_vertices+0xa>
    16b1: a5 13        	lda	$13                     ; 0x13 <__rc3>
    16b3: 9d 3b 00     	sta	$3b,x                   ; 0x3b <skull_vertices+0xb>
    16b6: 18           	clc
    16b7: 5a           	phy
    16b8: a0 04        	ldy	#$4
    16ba: b1 10        	lda	($10),y                 ; 0x10 <__rc0>
    16bc: 7a           	ply
    16bd: 69 0c        	adc	#$c
    16bf: 85 12        	sta	$12                     ; 0x12 <__rc2>
    16c1: 18           	clc
    16c2: 98           	tya
    16c3: 69 03        	adc	#$3
    16c5: aa           	tax
    16c6: c9 15        	cmp	#$15
    16c8: b0 03        	bcs	$16cd <f256main+0xc1d>
    16ca: 4c 75 15     	jmp	$1575 <f256main+0xac5>
    16cd: a0 00        	ldy	#$0
    16cf: b1 10        	lda	($10),y                 ; 0x10 <__rc0>
    16d1: d0 03        	bne	$16d6 <f256main+0xc26>
    16d3: 4c 32 15     	jmp	$1532 <f256main+0xa82>
    16d6: a9 00        	lda	#$0
    16d8: 20 dd 1f     	jsr	$1fdd <redraw>
    16db: ae 1a d0     	ldx	$d01a                   ; 0xd01a <__heap_start+0x9f50>
    16de: ac 1b d0     	ldy	$d01b                   ; 0xd01b <__heap_start+0x9f51>
    16e1: c0 01        	cpy	#$1
    16e3: f0 03        	beq	$16e8 <f256main+0xc38>
    16e5: 4c 20 15     	jmp	$1520 <f256main+0xa70>
    16e8: e0 e2        	cpx	#$e2
    16ea: 90 ef        	bcc	$16db <f256main+0xc2b>
    16ec: 4c 27 15     	jmp	$1527 <f256main+0xa77>
    16ef: 84 25        	sty	$25                     ; 0x25 <__rc21>
    16f1: a2 04        	ldx	#$4
    16f3: 86 2c        	stx	$2c                     ; 0x2c <__rc28>
    16f5: a4 1a        	ldy	$1a                     ; 0x1a <__rc10>
    16f7: a5 19        	lda	$19                     ; 0x19 <__rc9>
    16f9: 91 14        	sta	($14),y                 ; 0x14 <__rc4>
    16fb: 85 2e        	sta	$2e                     ; 0x2e <__rc30>
    16fd: a9 01        	lda	#$1
    16ff: 85 1a        	sta	$1a                     ; 0x1a <__rc10>
    1701: a4 1b        	ldy	$1b                     ; 0x1b <__rc11>
    1703: a5 1d        	lda	$1d                     ; 0x1d <__rc13>
    1705: 91 12        	sta	($12),y                 ; 0x12 <__rc2>
    1707: 85 18        	sta	$18                     ; 0x18 <__rc8>
    1709: a4 23        	ldy	$23                     ; 0x23 <__rc19>
    170b: a5 1c        	lda	$1c                     ; 0x1c <__rc12>
    170d: 91 12        	sta	($12),y                 ; 0x12 <__rc2>
    170f: 85 17        	sta	$17                     ; 0x17 <__rc7>
    1711: a4 25        	ldy	$25                     ; 0x25 <__rc21>
    1713: a5 24        	lda	$24                     ; 0x24 <__rc20>
    1715: 91 12        	sta	($12),y                 ; 0x12 <__rc2>
    1717: 85 16        	sta	$16                     ; 0x16 <__rc6>
    1719: a0 16        	ldy	#$16
    171b: b1 14        	lda	($14),y                 ; 0x14 <__rc4>
    171d: a0 10        	ldy	#$10
    171f: 91 14        	sta	($14),y                 ; 0x14 <__rc4>
    1721: aa           	tax
    1722: a5 1e        	lda	$1e                     ; 0x1e <__rc14>
    1724: a4 2f        	ldy	$2f                     ; 0x2f <__rc31>
    1726: 91 14        	sta	($14),y                 ; 0x14 <__rc4>
    1728: 85 12        	sta	$12                     ; 0x12 <__rc2>
    172a: a5 1f        	lda	$1f                     ; 0x1f <__rc15>
    172c: a4 2d        	ldy	$2d                     ; 0x2d <__rc29>
    172e: 91 14        	sta	($14),y                 ; 0x14 <__rc4>
    1730: 85 22        	sta	$22                     ; 0x22 <__rc18>
    1732: a4 12        	ldy	$12                     ; 0x12 <__rc2>
    1734: 84 1f        	sty	$1f                     ; 0x1f <__rc15>
    1736: 86 1e        	stx	$1e                     ; 0x1e <__rc14>
    1738: 4c ba 13     	jmp	$13ba <f256main+0x90a>
    173b: a6 29        	ldx	$29                     ; 0x29 <__rc25>
    173d: 86 27        	stx	$27                     ; 0x27 <__rc23>
    173f: a4 1e        	ldy	$1e                     ; 0x1e <__rc14>
    1741: c0 c0        	cpy	#$c0
    1743: a4 2c        	ldy	$2c                     ; 0x2c <__rc28>
    1745: b0 03        	bcs	$174a <f256main+0xc9a>
    1747: 4c ab 19     	jmp	$19ab <f256main+0xefb>
    174a: a6 1e        	ldx	$1e                     ; 0x1e <__rc14>
    174c: e0 e0        	cpx	#$e0
    174e: 90 03        	bcc	$1753 <f256main+0xca3>
    1750: 4c 00 1a     	jmp	$1a00 <f256main+0xf50>
    1753: a6 18        	ldx	$18                     ; 0x18 <__rc8>
    1755: 86 1c        	stx	$1c                     ; 0x1c <__rc12>
    1757: a6 17        	ldx	$17                     ; 0x17 <__rc7>
    1759: 86 1d        	stx	$1d                     ; 0x1d <__rc13>
    175b: a6 16        	ldx	$16                     ; 0x16 <__rc6>
    175d: 86 1f        	stx	$1f                     ; 0x1f <__rc15>
    175f: 84 21        	sty	$21                     ; 0x21 <__rc17>
    1761: a0 03        	ldy	#$3
    1763: b1 10        	lda	($10),y                 ; 0x10 <__rc0>
    1765: 85 16        	sta	$16                     ; 0x16 <__rc6>
    1767: a5 2e        	lda	$2e                     ; 0x2e <__rc30>
    1769: 48           	pha
    176a: c8           	iny
    176b: b1 10        	lda	($10),y                 ; 0x10 <__rc0>
    176d: a4 21        	ldy	$21                     ; 0x21 <__rc17>
    176f: 85 17        	sta	$17                     ; 0x17 <__rc7>
    1771: 68           	pla
    1772: 1a           	inc
    1773: d0 0a        	bne	$177f <f256main+0xccf>
    1775: e6 1c        	inc	$1c                     ; 0x1c <__rc12>
    1777: d0 06        	bne	$177f <f256main+0xccf>
    1779: e6 1d        	inc	$1d                     ; 0x1d <__rc13>
    177b: d0 02        	bne	$177f <f256main+0xccf>
    177d: e6 1f        	inc	$1f                     ; 0x1f <__rc15>
    177f: 91 14        	sta	($14),y                 ; 0x14 <__rc4>
    1781: a0 01        	ldy	#$1
    1783: a2 01        	ldx	#$1
    1785: 86 1a        	stx	$1a                     ; 0x1a <__rc10>
    1787: a5 1c        	lda	$1c                     ; 0x1c <__rc12>
    1789: 91 16        	sta	($16),y                 ; 0x16 <__rc6>
    178b: c8           	iny
    178c: a5 1d        	lda	$1d                     ; 0x1d <__rc13>
    178e: 91 16        	sta	($16),y                 ; 0x16 <__rc6>
    1790: c8           	iny
    1791: a5 1f        	lda	$1f                     ; 0x1f <__rc15>
    1793: 91 16        	sta	($16),y                 ; 0x16 <__rc6>
    1795: a0 16        	ldy	#$16
    1797: a5 1e        	lda	$1e                     ; 0x1e <__rc14>
    1799: 91 14        	sta	($14),y                 ; 0x14 <__rc4>
    179b: 8a           	txa
    179c: 4c 4f 1a     	jmp	$1a4f <f256main+0xf9f>
    179f: a5 1d        	lda	$1d                     ; 0x1d <__rc13>
    17a1: 85 18        	sta	$18                     ; 0x18 <__rc8>
    17a3: a5 1e        	lda	$1e                     ; 0x1e <__rc14>
    17a5: 85 19        	sta	$19                     ; 0x19 <__rc9>
    17a7: 84 1c        	sty	$1c                     ; 0x1c <__rc12>
    17a9: a0 04        	ldy	#$4
    17ab: b1 18        	lda	($18),y                 ; 0x18 <__rc8>
    17ad: 85 19        	sta	$19                     ; 0x19 <__rc9>
    17af: b2 16        	lda	($16)                   ; 0x16 <__rc6>
    17b1: 85 18        	sta	$18                     ; 0x18 <__rc8>
    17b3: a4 19        	ldy	$19                     ; 0x19 <__rc9>
    17b5: c4 18        	cpy	$18                     ; 0x18 <__rc8>
    17b7: 4c d4 13     	jmp	$13d4 <f256main+0x924>
    17ba: 84 1c        	sty	$1c                     ; 0x1c <__rc12>
    17bc: c5 18        	cmp	$18                     ; 0x18 <__rc8>
    17be: 4c d4 13     	jmp	$13d4 <f256main+0x924>
    17c1: a0 18        	ldy	#$18
    17c3: 84 22        	sty	$22                     ; 0x22 <__rc18>
    17c5: a0 01        	ldy	#$1
    17c7: a2 01        	ldx	#$1
    17c9: 86 1a        	stx	$1a                     ; 0x1a <__rc10>
    17cb: b1 14        	lda	($14),y                 ; 0x14 <__rc4>
    17cd: 85 12        	sta	$12                     ; 0x12 <__rc2>
    17cf: a5 13        	lda	$13                     ; 0x13 <__rc3>
    17d1: c5 12        	cmp	$12                     ; 0x12 <__rc2>
    17d3: f0 03        	beq	$17d8 <f256main+0xd28>
    17d5: 4c b5 19     	jmp	$19b5 <f256main+0xf05>
    17d8: b2 14        	lda	($14)                   ; 0x14 <__rc4>
    17da: 85 12        	sta	$12                     ; 0x12 <__rc2>
    17dc: a5 13        	lda	$13                     ; 0x13 <__rc3>
    17de: a6 18        	ldx	$18                     ; 0x18 <__rc8>
    17e0: e4 12        	cpx	$12                     ; 0x12 <__rc2>
    17e2: 4c b7 19     	jmp	$19b7 <f256main+0xf07>
    17e5: a4 24        	ldy	$24                     ; 0x24 <__rc20>
    17e7: e4 12        	cpx	$12                     ; 0x12 <__rc2>
    17e9: a5 13        	lda	$13                     ; 0x13 <__rc3>
    17eb: 90 03        	bcc	$17f0 <f256main+0xd40>
    17ed: 4c 26 14     	jmp	$1426 <f256main+0x976>
    17f0: 4c 50 14     	jmp	$1450 <f256main+0x9a0>
    17f3: 1a           	inc
    17f4: f0 03        	beq	$17f9 <f256main+0xd49>
    17f6: 4c b0 10     	jmp	$10b0 <f256main+0x600>
    17f9: e6 16        	inc	$16                     ; 0x16 <__rc6>
    17fb: f0 03        	beq	$1800 <f256main+0xd50>
    17fd: 4c b0 10     	jmp	$10b0 <f256main+0x600>
    1800: e8           	inx
    1801: 4c b0 10     	jmp	$10b0 <f256main+0x600>
    1804: e6 23        	inc	$23                     ; 0x23 <__rc19>
    1806: f0 03        	beq	$180b <f256main+0xd5b>
    1808: 4c 8d 13     	jmp	$138d <f256main+0x8dd>
    180b: e6 18        	inc	$18                     ; 0x18 <__rc8>
    180d: f0 03        	beq	$1812 <f256main+0xd62>
    180f: 4c 8d 13     	jmp	$138d <f256main+0x8dd>
    1812: e8           	inx
    1813: 4c 8d 13     	jmp	$138d <f256main+0x8dd>
    1816: e6 db        	inc	$db                     ; 0xdb <theOne.7+0x1>
    1818: 4c 39 14     	jmp	$1439 <f256main+0x989>
    181b: e6 1a        	inc	$1a                     ; 0x1a <__rc10>
    181d: f0 03        	beq	$1822 <f256main+0xd72>
    181f: 4c 74 14     	jmp	$1474 <f256main+0x9c4>
    1822: e6 1c        	inc	$1c                     ; 0x1c <__rc12>
    1824: f0 03        	beq	$1829 <f256main+0xd79>
    1826: 4c 74 14     	jmp	$1474 <f256main+0x9c4>
    1829: e6 1b        	inc	$1b                     ; 0x1b <__rc11>
    182b: 4c 74 14     	jmp	$1474 <f256main+0x9c4>
    182e: 86 16        	stx	$16                     ; 0x16 <__rc6>
    1830: a0 01        	ldy	#$1
    1832: 84 1a        	sty	$1a                     ; 0x1a <__rc10>
    1834: a0 04        	ldy	#$4
    1836: 84 2c        	sty	$2c                     ; 0x2c <__rc28>
    1838: 4c ba 13     	jmp	$13ba <f256main+0x90a>
    183b: a9 ff        	lda	#$ff
    183d: a0 10        	ldy	#$10
    183f: 91 14        	sta	($14),y                 ; 0x14 <__rc4>
    1841: c8           	iny
    1842: a5 1f        	lda	$1f                     ; 0x1f <__rc15>
    1844: 91 14        	sta	($14),y                 ; 0x14 <__rc4>
    1846: c8           	iny
    1847: a5 22        	lda	$22                     ; 0x22 <__rc18>
    1849: 91 14        	sta	($14),y                 ; 0x14 <__rc4>
    184b: 38           	sec
    184c: a5 1f        	lda	$1f                     ; 0x1f <__rc15>
    184e: e9 20        	sbc	#$20
    1850: a4 2c        	ldy	$2c                     ; 0x2c <__rc28>
    1852: 50 02        	bvc	$1856 <f256main+0xda6>
    1854: 49 80        	eor	#$80
    1856: aa           	tax
    1857: 30 03        	bmi	$185c <f256main+0xdac>
    1859: 4c c1 19     	jmp	$19c1 <f256main+0xf11>
    185c: a6 1f        	ldx	$1f                     ; 0x1f <__rc15>
    185e: ca           	dex
    185f: e0 07        	cpx	#$7
    1861: 90 03        	bcc	$1866 <f256main+0xdb6>
    1863: 4c 89 1c     	jmp	$1c89 <f256main+0x11d9>
    1866: 18           	clc
    1867: a5 22        	lda	$22                     ; 0x22 <__rc18>
    1869: 65 2e        	adc	$2e                     ; 0x2e <__rc30>
    186b: 85 19        	sta	$19                     ; 0x19 <__rc9>
    186d: a9 00        	lda	#$0
    186f: 65 18        	adc	$18                     ; 0x18 <__rc8>
    1871: aa           	tax
    1872: a9 00        	lda	#$0
    1874: 65 17        	adc	$17                     ; 0x17 <__rc7>
    1876: 85 17        	sta	$17                     ; 0x17 <__rc7>
    1878: a9 00        	lda	#$0
    187a: 65 16        	adc	$16                     ; 0x16 <__rc6>
    187c: 85 16        	sta	$16                     ; 0x16 <__rc6>
    187e: 18           	clc
    187f: a5 19        	lda	$19                     ; 0x19 <__rc9>
    1881: 69 02        	adc	#$2
    1883: 85 1a        	sta	$1a                     ; 0x1a <__rc10>
    1885: 8a           	txa
    1886: 69 00        	adc	#$0
    1888: 85 1b        	sta	$1b                     ; 0x1b <__rc11>
    188a: a5 17        	lda	$17                     ; 0x17 <__rc7>
    188c: 69 00        	adc	#$0
    188e: 85 1c        	sta	$1c                     ; 0x1c <__rc12>
    1890: a5 16        	lda	$16                     ; 0x16 <__rc6>
    1892: 69 00        	adc	#$0
    1894: 85 1d        	sta	$1d                     ; 0x1d <__rc13>
    1896: 5a           	phy
    1897: a0 03        	ldy	#$3
    1899: b1 10        	lda	($10),y                 ; 0x10 <__rc0>
    189b: 85 16        	sta	$16                     ; 0x16 <__rc6>
    189d: c8           	iny
    189e: b1 10        	lda	($10),y                 ; 0x10 <__rc0>
    18a0: 7a           	ply
    18a1: 85 17        	sta	$17                     ; 0x17 <__rc7>
    18a3: a5 1a        	lda	$1a                     ; 0x1a <__rc10>
    18a5: 4c b6 1c     	jmp	$1cb6 <f256main+0x1206>
    18a8: 4a           	lsr
    18a9: aa           	tax
    18aa: a9 00        	lda	#$0
    18ac: 6a           	ror
    18ad: 29 80        	and	#$80
    18af: 85 25        	sta	$25                     ; 0x25 <__rc21>
    18b1: 8a           	txa
    18b2: 29 3f        	and	#$3f
    18b4: a0 04        	ldy	#$4
    18b6: 91 10        	sta	($10),y                 ; 0x10 <__rc0>
    18b8: a6 dc        	ldx	$dc                     ; 0xdc <theOne.8>
    18ba: 86 2b        	stx	$2b                     ; 0x2b <__rc27>
    18bc: a6 dd        	ldx	$dd                     ; 0xdd <theOne.8+0x1>
    18be: 86 27        	stx	$27                     ; 0x27 <__rc23>
    18c0: a6 26        	ldx	$26                     ; 0x26 <__rc22>
    18c2: 86 12        	stx	$12                     ; 0x12 <__rc2>
    18c4: 64 13        	stz	$13                     ; 0x13 <__rc3>
    18c6: a2 00        	ldx	#$0
    18c8: a5 29        	lda	$29                     ; 0x29 <__rc25>
    18ca: 20 40 30     	jsr	$3040 <__mulhi3>
    18cd: a4 24        	ldy	$24                     ; 0x24 <__rc20>
    18cf: 85 12        	sta	$12                     ; 0x12 <__rc2>
    18d1: 86 13        	stx	$13                     ; 0x13 <__rc3>
    18d3: 18           	clc
    18d4: a5 2b        	lda	$2b                     ; 0x2b <__rc27>
    18d6: 65 12        	adc	$12                     ; 0x12 <__rc2>
    18d8: 85 16        	sta	$16                     ; 0x16 <__rc6>
    18da: a5 27        	lda	$27                     ; 0x27 <__rc23>
    18dc: 65 13        	adc	$13                     ; 0x13 <__rc3>
    18de: aa           	tax
    18df: 5a           	phy
    18e0: a4 16        	ldy	$16                     ; 0x16 <__rc6>
    18e2: 84 12        	sty	$12                     ; 0x12 <__rc2>
    18e4: 7a           	ply
    18e5: 85 13        	sta	$13                     ; 0x13 <__rc3>
    18e7: a5 16        	lda	$16                     ; 0x16 <__rc6>
    18e9: 18           	clc
    18ea: 69 08        	adc	#$8
    18ec: 85 14        	sta	$14                     ; 0x14 <__rc4>
    18ee: 8a           	txa
    18ef: 69 00        	adc	#$0
    18f1: 85 15        	sta	$15                     ; 0x15 <__rc5>
    18f3: 18           	clc
    18f4: a5 16        	lda	$16                     ; 0x16 <__rc6>
    18f6: 69 04        	adc	#$4
    18f8: 85 16        	sta	$16                     ; 0x16 <__rc6>
    18fa: 8a           	txa
    18fb: 69 00        	adc	#$0
    18fd: 85 17        	sta	$17                     ; 0x17 <__rc7>
    18ff: b1 12        	lda	($12),y                 ; 0x12 <__rc2>
    1901: 84 19        	sty	$19                     ; 0x19 <__rc9>
    1903: 85 18        	sta	$18                     ; 0x18 <__rc8>
    1905: a0 01        	ldy	#$1
    1907: b1 16        	lda	($16),y                 ; 0x16 <__rc6>
    1909: 85 1b        	sta	$1b                     ; 0x1b <__rc11>
    190b: 84 1c        	sty	$1c                     ; 0x1c <__rc12>
    190d: c8           	iny
    190e: b1 16        	lda	($16),y                 ; 0x16 <__rc6>
    1910: 85 23        	sta	$23                     ; 0x23 <__rc19>
    1912: 84 1a        	sty	$1a                     ; 0x1a <__rc10>
    1914: c8           	iny
    1915: b1 16        	lda	($16),y                 ; 0x16 <__rc6>
    1917: 84 1d        	sty	$1d                     ; 0x1d <__rc13>
    1919: a6 18        	ldx	$18                     ; 0x18 <__rc8>
    191b: 86 1e        	stx	$1e                     ; 0x1e <__rc14>
    191d: a6 1b        	ldx	$1b                     ; 0x1b <__rc11>
    191f: 86 1f        	stx	$1f                     ; 0x1f <__rc15>
    1921: a6 23        	ldx	$23                     ; 0x23 <__rc19>
    1923: 86 22        	stx	$22                     ; 0x22 <__rc18>
    1925: a6 23        	ldx	$23                     ; 0x23 <__rc19>
    1927: e6 1e        	inc	$1e                     ; 0x1e <__rc14>
    1929: d0 09        	bne	$1934 <f256main+0xe84>
    192b: e6 1f        	inc	$1f                     ; 0x1f <__rc15>
    192d: d0 05        	bne	$1934 <f256main+0xe84>
    192f: e6 22        	inc	$22                     ; 0x22 <__rc18>
    1931: d0 01        	bne	$1934 <f256main+0xe84>
    1933: 1a           	inc
    1934: 85 23        	sta	$23                     ; 0x23 <__rc19>
    1936: a4 19        	ldy	$19                     ; 0x19 <__rc9>
    1938: 84 24        	sty	$24                     ; 0x24 <__rc20>
    193a: a5 1e        	lda	$1e                     ; 0x1e <__rc14>
    193c: 91 12        	sta	($12),y                 ; 0x12 <__rc2>
    193e: a4 1c        	ldy	$1c                     ; 0x1c <__rc12>
    1940: a5 1f        	lda	$1f                     ; 0x1f <__rc15>
    1942: 91 16        	sta	($16),y                 ; 0x16 <__rc6>
    1944: a4 1a        	ldy	$1a                     ; 0x1a <__rc10>
    1946: a5 22        	lda	$22                     ; 0x22 <__rc18>
    1948: 91 16        	sta	($16),y                 ; 0x16 <__rc6>
    194a: a4 1d        	ldy	$1d                     ; 0x1d <__rc13>
    194c: a5 23        	lda	$23                     ; 0x23 <__rc19>
    194e: 91 16        	sta	($16),y                 ; 0x16 <__rc6>
    1950: 18           	clc
    1951: a0 08        	ldy	#$8
    1953: a5 18        	lda	$18                     ; 0x18 <__rc8>
    1955: 71 12        	adc	($12),y                 ; 0x12 <__rc2>
    1957: 85 16        	sta	$16                     ; 0x16 <__rc6>
    1959: a5 1b        	lda	$1b                     ; 0x1b <__rc11>
    195b: a4 1c        	ldy	$1c                     ; 0x1c <__rc12>
    195d: 71 14        	adc	($14),y                 ; 0x14 <__rc4>
    195f: 85 12        	sta	$12                     ; 0x12 <__rc2>
    1961: 8a           	txa
    1962: a4 1a        	ldy	$1a                     ; 0x1a <__rc10>
    1964: 71 14        	adc	($14),y                 ; 0x14 <__rc4>
    1966: 85 13        	sta	$13                     ; 0x13 <__rc3>
    1968: a5 12        	lda	$12                     ; 0x12 <__rc2>
    196a: 06 12        	asl	$12                     ; 0x12 <__rc2>
    196c: 26 13        	rol	$13                     ; 0x13 <__rc3>
    196e: 06 12        	asl	$12                     ; 0x12 <__rc2>
    1970: 26 13        	rol	$13                     ; 0x13 <__rc3>
    1972: 06 12        	asl	$12                     ; 0x12 <__rc2>
    1974: 26 13        	rol	$13                     ; 0x13 <__rc3>
    1976: a4 13        	ldy	$13                     ; 0x13 <__rc3>
    1978: a6 0f        	ldx	$f                      ; 0xf <__zp_bss_size>
    197a: 78           	sei
    197b: 84 0f        	sty	$f                      ; 0xf <__zp_bss_size>
    197d: a4 16        	ldy	$16                     ; 0x16 <__rc6>
    197f: 84 12        	sty	$12                     ; 0x12 <__rc2>
    1981: 09 e0        	ora	#$e0
    1983: 85 13        	sta	$13                     ; 0x13 <__rc3>
    1985: b2 12        	lda	($12)                   ; 0x12 <__rc2>
    1987: 86 0f        	stx	$f                      ; 0xf <__zp_bss_size>
    1989: 58           	cli
    198a: aa           	tax
    198b: 10 03        	bpl	$1990 <f256main+0xee0>
    198d: 4c 56 1a     	jmp	$1a56 <f256main+0xfa6>
    1990: a2 19        	ldx	#$19
    1992: 85 2c        	sta	$2c                     ; 0x2c <__rc28>
    1994: a5 29        	lda	$29                     ; 0x29 <__rc25>
    1996: 86 26        	stx	$26                     ; 0x26 <__rc22>
    1998: 64 2b        	stz	$2b                     ; 0x2b <__rc27>
    199a: 64 2d        	stz	$2d                     ; 0x2d <__rc29>
    199c: 64 24        	stz	$24                     ; 0x24 <__rc20>
    199e: 64 12        	stz	$12                     ; 0x12 <__rc2>
    19a0: 64 27        	stz	$27                     ; 0x27 <__rc23>
    19a2: 64 13        	stz	$13                     ; 0x13 <__rc3>
    19a4: 64 14        	stz	$14                     ; 0x14 <__rc4>
    19a6: a2 00        	ldx	#$0
    19a8: 4c 84 1c     	jmp	$1c84 <f256main+0x11d4>
    19ab: a6 1e        	ldx	$1e                     ; 0x1e <__rc14>
    19ad: 10 03        	bpl	$19b2 <f256main+0xf02>
    19af: 4c 09 1a     	jmp	$1a09 <f256main+0xf59>
    19b2: 4c 41 14     	jmp	$1441 <f256main+0x991>
    19b5: c5 12        	cmp	$12                     ; 0x12 <__rc2>
    19b7: a4 22        	ldy	$22                     ; 0x22 <__rc18>
    19b9: 90 03        	bcc	$19be <f256main+0xf0e>
    19bb: 4c 26 14     	jmp	$1426 <f256main+0x976>
    19be: 4c 50 14     	jmp	$1450 <f256main+0x9a0>
    19c1: 18           	clc
    19c2: a5 1f        	lda	$1f                     ; 0x1f <__rc15>
    19c4: 69 af        	adc	#$af
    19c6: c9 09        	cmp	#$9
    19c8: 90 03        	bcc	$19cd <f256main+0xf1d>
    19ca: 4c 52 1b     	jmp	$1b52 <f256main+0x10a2>
    19cd: 0a           	asl
    19ce: aa           	tax
    19cf: a0 05        	ldy	#$5
    19d1: b1 10        	lda	($10),y                 ; 0x10 <__rc0>
    19d3: a4 29        	ldy	$29                     ; 0x29 <__rc25>
    19d5: 84 27        	sty	$27                     ; 0x27 <__rc23>
    19d7: 7c 72 30     	jmp	($3072,x)               ; 0x3072 <__BLOCK_SIZE+0x1072>
    19da: a0 13        	ldy	#$13
    19dc: 5a           	phy
    19dd: a0 02        	ldy	#$2
    19df: b1 10        	lda	($10),y                 ; 0x10 <__rc0>
    19e1: 7a           	ply
    19e2: 91 14        	sta	($14),y                 ; 0x14 <__rc4>
    19e4: a0 14        	ldy	#$14
    19e6: 5a           	phy
    19e7: a0 01        	ldy	#$1
    19e9: b1 10        	lda	($10),y                 ; 0x10 <__rc0>
    19eb: 7a           	ply
    19ec: 91 14        	sta	($14),y                 ; 0x14 <__rc4>
    19ee: a0 15        	ldy	#$15
    19f0: 5a           	phy
    19f1: a0 00        	ldy	#$0
    19f3: b1 10        	lda	($10),y                 ; 0x10 <__rc0>
    19f5: 7a           	ply
    19f6: 91 14        	sta	($14),y                 ; 0x14 <__rc4>
    19f8: a5 2e        	lda	$2e                     ; 0x2e <__rc30>
    19fa: 18           	clc
    19fb: 69 05        	adc	#$5
    19fd: 4c e2 1c     	jmp	$1ce2 <f256main+0x1232>
    1a00: a6 1e        	ldx	$1e                     ; 0x1e <__rc14>
    1a02: e0 f0        	cpx	#$f0
    1a04: 90 03        	bcc	$1a09 <f256main+0xf59>
    1a06: 4c 41 14     	jmp	$1441 <f256main+0x991>
    1a09: 84 1a        	sty	$1a                     ; 0x1a <__rc10>
    1a0b: a0 16        	ldy	#$16
    1a0d: a5 1e        	lda	$1e                     ; 0x1e <__rc14>
    1a0f: 91 14        	sta	($14),y                 ; 0x14 <__rc4>
    1a11: a5 2e        	lda	$2e                     ; 0x2e <__rc30>
    1a13: 18           	clc
    1a14: 69 02        	adc	#$2
    1a16: aa           	tax
    1a17: a5 18        	lda	$18                     ; 0x18 <__rc8>
    1a19: 69 00        	adc	#$0
    1a1b: 85 1b        	sta	$1b                     ; 0x1b <__rc11>
    1a1d: a5 17        	lda	$17                     ; 0x17 <__rc7>
    1a1f: 69 00        	adc	#$0
    1a21: 85 1c        	sta	$1c                     ; 0x1c <__rc12>
    1a23: a5 16        	lda	$16                     ; 0x16 <__rc6>
    1a25: 69 00        	adc	#$0
    1a27: 85 1d        	sta	$1d                     ; 0x1d <__rc13>
    1a29: a0 03        	ldy	#$3
    1a2b: b1 10        	lda	($10),y                 ; 0x10 <__rc0>
    1a2d: 85 16        	sta	$16                     ; 0x16 <__rc6>
    1a2f: c8           	iny
    1a30: b1 10        	lda	($10),y                 ; 0x10 <__rc0>
    1a32: 85 17        	sta	$17                     ; 0x17 <__rc7>
    1a34: a4 1a        	ldy	$1a                     ; 0x1a <__rc10>
    1a36: 8a           	txa
    1a37: 91 14        	sta	($14),y                 ; 0x14 <__rc4>
    1a39: a0 01        	ldy	#$1
    1a3b: a2 01        	ldx	#$1
    1a3d: 86 1a        	stx	$1a                     ; 0x1a <__rc10>
    1a3f: a5 1b        	lda	$1b                     ; 0x1b <__rc11>
    1a41: 91 16        	sta	($16),y                 ; 0x16 <__rc6>
    1a43: c8           	iny
    1a44: a5 1c        	lda	$1c                     ; 0x1c <__rc12>
    1a46: 91 16        	sta	($16),y                 ; 0x16 <__rc6>
    1a48: c8           	iny
    1a49: a5 1d        	lda	$1d                     ; 0x1d <__rc13>
    1a4b: 91 16        	sta	($16),y                 ; 0x16 <__rc6>
    1a4d: a9 00        	lda	#$0
    1a4f: a0 17        	ldy	#$17
    1a51: 91 14        	sta	($14),y                 ; 0x14 <__rc4>
    1a53: 4c 17 1d     	jmp	$1d17 <f256main+0x1267>
    1a56: 4a           	lsr
    1a57: aa           	tax
    1a58: 64 14        	stz	$14                     ; 0x14 <__rc4>
    1a5a: 66 14        	ror	$14                     ; 0x14 <__rc4>
    1a5c: a0 04        	ldy	#$4
    1a5e: b1 10        	lda	($10),y                 ; 0x10 <__rc0>
    1a60: 85 27        	sta	$27                     ; 0x27 <__rc23>
    1a62: 46 27        	lsr	$27                     ; 0x27 <__rc23>
    1a64: 66 25        	ror	$25                     ; 0x25 <__rc21>
    1a66: a5 25        	lda	$25                     ; 0x25 <__rc21>
    1a68: 91 10        	sta	($10),y                 ; 0x10 <__rc0>
    1a6a: 64 25        	stz	$25                     ; 0x25 <__rc21>
    1a6c: 66 25        	ror	$25                     ; 0x25 <__rc21>
    1a6e: 64 13        	stz	$13                     ; 0x13 <__rc3>
    1a70: a5 14        	lda	$14                     ; 0x14 <__rc4>
    1a72: 29 80        	and	#$80
    1a74: 85 2c        	sta	$2c                     ; 0x2c <__rc28>
    1a76: 8a           	txa
    1a77: 29 3f        	and	#$3f
    1a79: 85 2d        	sta	$2d                     ; 0x2d <__rc29>
    1a7b: a6 dc        	ldx	$dc                     ; 0xdc <theOne.8>
    1a7d: 86 2e        	stx	$2e                     ; 0x2e <__rc30>
    1a7f: a6 dd        	ldx	$dd                     ; 0xdd <theOne.8+0x1>
    1a81: 86 2b        	stx	$2b                     ; 0x2b <__rc27>
    1a83: a2 19        	ldx	#$19
    1a85: 86 12        	stx	$12                     ; 0x12 <__rc2>
    1a87: a2 00        	ldx	#$0
    1a89: a5 29        	lda	$29                     ; 0x29 <__rc25>
    1a8b: 88           	dey
    1a8c: 91 10        	sta	($10),y                 ; 0x10 <__rc0>
    1a8e: 20 40 30     	jsr	$3040 <__mulhi3>
    1a91: a4 24        	ldy	$24                     ; 0x24 <__rc20>
    1a93: 85 12        	sta	$12                     ; 0x12 <__rc2>
    1a95: 86 13        	stx	$13                     ; 0x13 <__rc3>
    1a97: 18           	clc
    1a98: a5 2e        	lda	$2e                     ; 0x2e <__rc30>
    1a9a: 65 12        	adc	$12                     ; 0x12 <__rc2>
    1a9c: 85 16        	sta	$16                     ; 0x16 <__rc6>
    1a9e: a5 2b        	lda	$2b                     ; 0x2b <__rc27>
    1aa0: 65 13        	adc	$13                     ; 0x13 <__rc3>
    1aa2: aa           	tax
    1aa3: 5a           	phy
    1aa4: a4 16        	ldy	$16                     ; 0x16 <__rc6>
    1aa6: 84 12        	sty	$12                     ; 0x12 <__rc2>
    1aa8: 7a           	ply
    1aa9: 85 13        	sta	$13                     ; 0x13 <__rc3>
    1aab: a5 16        	lda	$16                     ; 0x16 <__rc6>
    1aad: 18           	clc
    1aae: 69 08        	adc	#$8
    1ab0: 85 14        	sta	$14                     ; 0x14 <__rc4>
    1ab2: 8a           	txa
    1ab3: 69 00        	adc	#$0
    1ab5: 85 15        	sta	$15                     ; 0x15 <__rc5>
    1ab7: 18           	clc
    1ab8: a5 16        	lda	$16                     ; 0x16 <__rc6>
    1aba: 69 04        	adc	#$4
    1abc: 85 16        	sta	$16                     ; 0x16 <__rc6>
    1abe: 8a           	txa
    1abf: 69 00        	adc	#$0
    1ac1: 85 17        	sta	$17                     ; 0x17 <__rc7>
    1ac3: b1 12        	lda	($12),y                 ; 0x12 <__rc2>
    1ac5: 84 18        	sty	$18                     ; 0x18 <__rc8>
    1ac7: 85 19        	sta	$19                     ; 0x19 <__rc9>
    1ac9: a0 01        	ldy	#$1
    1acb: b1 16        	lda	($16),y                 ; 0x16 <__rc6>
    1acd: 85 1f        	sta	$1f                     ; 0x1f <__rc15>
    1acf: 84 1c        	sty	$1c                     ; 0x1c <__rc12>
    1ad1: c8           	iny
    1ad2: b1 16        	lda	($16),y                 ; 0x16 <__rc6>
    1ad4: 84 1b        	sty	$1b                     ; 0x1b <__rc11>
    1ad6: 85 1a        	sta	$1a                     ; 0x1a <__rc10>
    1ad8: c8           	iny
    1ad9: b1 16        	lda	($16),y                 ; 0x16 <__rc6>
    1adb: 85 1d        	sta	$1d                     ; 0x1d <__rc13>
    1add: 84 1e        	sty	$1e                     ; 0x1e <__rc14>
    1adf: a6 1f        	ldx	$1f                     ; 0x1f <__rc15>
    1ae1: a4 1a        	ldy	$1a                     ; 0x1a <__rc10>
    1ae3: 84 22        	sty	$22                     ; 0x22 <__rc18>
    1ae5: a5 19        	lda	$19                     ; 0x19 <__rc9>
    1ae7: 1a           	inc
    1ae8: d0 0a        	bne	$1af4 <f256main+0x1044>
    1aea: e6 1f        	inc	$1f                     ; 0x1f <__rc15>
    1aec: d0 06        	bne	$1af4 <f256main+0x1044>
    1aee: e6 22        	inc	$22                     ; 0x22 <__rc18>
    1af0: d0 02        	bne	$1af4 <f256main+0x1044>
    1af2: e6 1d        	inc	$1d                     ; 0x1d <__rc13>
    1af4: a4 18        	ldy	$18                     ; 0x18 <__rc8>
    1af6: 91 12        	sta	($12),y                 ; 0x12 <__rc2>
    1af8: a4 1c        	ldy	$1c                     ; 0x1c <__rc12>
    1afa: a5 1f        	lda	$1f                     ; 0x1f <__rc15>
    1afc: 91 16        	sta	($16),y                 ; 0x16 <__rc6>
    1afe: a4 1b        	ldy	$1b                     ; 0x1b <__rc11>
    1b00: a5 22        	lda	$22                     ; 0x22 <__rc18>
    1b02: 91 16        	sta	($16),y                 ; 0x16 <__rc6>
    1b04: a5 1d        	lda	$1d                     ; 0x1d <__rc13>
    1b06: a4 1e        	ldy	$1e                     ; 0x1e <__rc14>
    1b08: 91 16        	sta	($16),y                 ; 0x16 <__rc6>
    1b0a: 18           	clc
    1b0b: a0 08        	ldy	#$8
    1b0d: a5 19        	lda	$19                     ; 0x19 <__rc9>
    1b0f: 71 12        	adc	($12),y                 ; 0x12 <__rc2>
    1b11: 85 12        	sta	$12                     ; 0x12 <__rc2>
    1b13: 8a           	txa
    1b14: a4 1c        	ldy	$1c                     ; 0x1c <__rc12>
    1b16: 71 14        	adc	($14),y                 ; 0x14 <__rc4>
    1b18: 85 16        	sta	$16                     ; 0x16 <__rc6>
    1b1a: a5 1a        	lda	$1a                     ; 0x1a <__rc10>
    1b1c: a4 1b        	ldy	$1b                     ; 0x1b <__rc11>
    1b1e: 71 14        	adc	($14),y                 ; 0x14 <__rc4>
    1b20: 85 13        	sta	$13                     ; 0x13 <__rc3>
    1b22: a5 16        	lda	$16                     ; 0x16 <__rc6>
    1b24: 0a           	asl
    1b25: 26 13        	rol	$13                     ; 0x13 <__rc3>
    1b27: 0a           	asl
    1b28: 26 13        	rol	$13                     ; 0x13 <__rc3>
    1b2a: 0a           	asl
    1b2b: a5 13        	lda	$13                     ; 0x13 <__rc3>
    1b2d: 2a           	rol
    1b2e: a6 0f        	ldx	$f                      ; 0xf <__zp_bss_size>
    1b30: 78           	sei
    1b31: 85 0f        	sta	$f                      ; 0xf <__zp_bss_size>
    1b33: a5 16        	lda	$16                     ; 0x16 <__rc6>
    1b35: 09 e0        	ora	#$e0
    1b37: 85 13        	sta	$13                     ; 0x13 <__rc3>
    1b39: b2 12        	lda	($12)                   ; 0x12 <__rc2>
    1b3b: 86 0f        	stx	$f                      ; 0xf <__zp_bss_size>
    1b3d: 58           	cli
    1b3e: aa           	tax
    1b3f: 30 2e        	bmi	$1b6f <f256main+0x10bf>
    1b41: a2 19        	ldx	#$19
    1b43: 86 26        	stx	$26                     ; 0x26 <__rc22>
    1b45: 64 24        	stz	$24                     ; 0x24 <__rc20>
    1b47: 85 12        	sta	$12                     ; 0x12 <__rc2>
    1b49: 64 13        	stz	$13                     ; 0x13 <__rc3>
    1b4b: 64 2b        	stz	$2b                     ; 0x2b <__rc27>
    1b4d: 64 14        	stz	$14                     ; 0x14 <__rc4>
    1b4f: 4c 7e 1c     	jmp	$1c7e <f256main+0x11ce>
    1b52: a6 1f        	ldx	$1f                     ; 0x1f <__rc15>
    1b54: 18           	clc
    1b55: a5 1f        	lda	$1f                     ; 0x1f <__rc15>
    1b57: 69 e0        	adc	#$e0
    1b59: c9 02        	cmp	#$2
    1b5b: b0 03        	bcs	$1b60 <f256main+0x10b0>
    1b5d: 4c 90 1c     	jmp	$1c90 <f256main+0x11e0>
    1b60: e0 2f        	cpx	#$2f
    1b62: f0 03        	beq	$1b67 <f256main+0x10b7>
    1b64: 4c 39 14     	jmp	$1439 <f256main+0x989>
    1b67: a5 2e        	lda	$2e                     ; 0x2e <__rc30>
    1b69: 18           	clc
    1b6a: 69 02        	adc	#$2
    1b6c: 4c 95 1c     	jmp	$1c95 <f256main+0x11e5>
    1b6f: 4a           	lsr
    1b70: 64 14        	stz	$14                     ; 0x14 <__rc4>
    1b72: 66 14        	ror	$14                     ; 0x14 <__rc4>
    1b74: a6 2d        	ldx	$2d                     ; 0x2d <__rc29>
    1b76: 86 24        	stx	$24                     ; 0x24 <__rc20>
    1b78: 46 24        	lsr	$24                     ; 0x24 <__rc20>
    1b7a: a8           	tay
    1b7b: a6 2c        	ldx	$2c                     ; 0x2c <__rc28>
    1b7d: 86 2d        	stx	$2d                     ; 0x2d <__rc29>
    1b7f: 66 2d        	ror	$2d                     ; 0x2d <__rc29>
    1b81: 64 2c        	stz	$2c                     ; 0x2c <__rc28>
    1b83: 66 2c        	ror	$2c                     ; 0x2c <__rc28>
    1b85: a6 27        	ldx	$27                     ; 0x27 <__rc23>
    1b87: 86 2b        	stx	$2b                     ; 0x2b <__rc27>
    1b89: 5a           	phy
    1b8a: a0 04        	ldy	#$4
    1b8c: b1 10        	lda	($10),y                 ; 0x10 <__rc0>
    1b8e: 85 27        	sta	$27                     ; 0x27 <__rc23>
    1b90: 46 2b        	lsr	$2b                     ; 0x2b <__rc27>
    1b92: 66 27        	ror	$27                     ; 0x27 <__rc23>
    1b94: 66 25        	ror	$25                     ; 0x25 <__rc21>
    1b96: a5 25        	lda	$25                     ; 0x25 <__rc21>
    1b98: 91 10        	sta	($10),y                 ; 0x10 <__rc0>
    1b9a: 64 25        	stz	$25                     ; 0x25 <__rc21>
    1b9c: 66 25        	ror	$25                     ; 0x25 <__rc21>
    1b9e: a2 19        	ldx	#$19
    1ba0: a5 14        	lda	$14                     ; 0x14 <__rc4>
    1ba2: 29 80        	and	#$80
    1ba4: a0 02        	ldy	#$2
    1ba6: 91 10        	sta	($10),y                 ; 0x10 <__rc0>
    1ba8: 7a           	ply
    1ba9: 98           	tya
    1baa: 29 3f        	and	#$3f
    1bac: a0 01        	ldy	#$1
    1bae: 91 10        	sta	($10),y                 ; 0x10 <__rc0>
    1bb0: a4 dc        	ldy	$dc                     ; 0xdc <theOne.8>
    1bb2: 84 2e        	sty	$2e                     ; 0x2e <__rc30>
    1bb4: a4 dd        	ldy	$dd                     ; 0xdd <theOne.8+0x1>
    1bb6: 84 2f        	sty	$2f                     ; 0x2f <__rc31>
    1bb8: 86 26        	stx	$26                     ; 0x26 <__rc22>
    1bba: 86 12        	stx	$12                     ; 0x12 <__rc2>
    1bbc: 64 13        	stz	$13                     ; 0x13 <__rc3>
    1bbe: a2 00        	ldx	#$0
    1bc0: a0 03        	ldy	#$3
    1bc2: b1 10        	lda	($10),y                 ; 0x10 <__rc0>
    1bc4: 20 40 30     	jsr	$3040 <__mulhi3>
    1bc7: 85 12        	sta	$12                     ; 0x12 <__rc2>
    1bc9: 86 13        	stx	$13                     ; 0x13 <__rc3>
    1bcb: 18           	clc
    1bcc: a5 2e        	lda	$2e                     ; 0x2e <__rc30>
    1bce: 65 12        	adc	$12                     ; 0x12 <__rc2>
    1bd0: a8           	tay
    1bd1: a5 2f        	lda	$2f                     ; 0x2f <__rc31>
    1bd3: 65 13        	adc	$13                     ; 0x13 <__rc3>
    1bd5: aa           	tax
    1bd6: 98           	tya
    1bd7: 18           	clc
    1bd8: 69 08        	adc	#$8
    1bda: 85 12        	sta	$12                     ; 0x12 <__rc2>
    1bdc: 8a           	txa
    1bdd: 69 00        	adc	#$0
    1bdf: 84 14        	sty	$14                     ; 0x14 <__rc4>
    1be1: 86 15        	stx	$15                     ; 0x15 <__rc5>
    1be3: 85 13        	sta	$13                     ; 0x13 <__rc3>
    1be5: 18           	clc
    1be6: 98           	tya
    1be7: 69 04        	adc	#$4
    1be9: 85 16        	sta	$16                     ; 0x16 <__rc6>
    1beb: 8a           	txa
    1bec: 69 00        	adc	#$0
    1bee: 85 17        	sta	$17                     ; 0x17 <__rc7>
    1bf0: a0 04        	ldy	#$4
    1bf2: b1 14        	lda	($14),y                 ; 0x14 <__rc4>
    1bf4: 85 18        	sta	$18                     ; 0x18 <__rc8>
    1bf6: a0 01        	ldy	#$1
    1bf8: b1 16        	lda	($16),y                 ; 0x16 <__rc6>
    1bfa: 85 1e        	sta	$1e                     ; 0x1e <__rc14>
    1bfc: 84 1b        	sty	$1b                     ; 0x1b <__rc11>
    1bfe: c8           	iny
    1bff: b1 16        	lda	($16),y                 ; 0x16 <__rc6>
    1c01: 84 1a        	sty	$1a                     ; 0x1a <__rc10>
    1c03: 85 19        	sta	$19                     ; 0x19 <__rc9>
    1c05: c8           	iny
    1c06: b1 16        	lda	($16),y                 ; 0x16 <__rc6>
    1c08: 85 1c        	sta	$1c                     ; 0x1c <__rc12>
    1c0a: 84 1d        	sty	$1d                     ; 0x1d <__rc13>
    1c0c: a6 1e        	ldx	$1e                     ; 0x1e <__rc14>
    1c0e: a4 19        	ldy	$19                     ; 0x19 <__rc9>
    1c10: 84 1f        	sty	$1f                     ; 0x1f <__rc15>
    1c12: a5 18        	lda	$18                     ; 0x18 <__rc8>
    1c14: 1a           	inc
    1c15: d0 0a        	bne	$1c21 <f256main+0x1171>
    1c17: e6 1e        	inc	$1e                     ; 0x1e <__rc14>
    1c19: d0 06        	bne	$1c21 <f256main+0x1171>
    1c1b: e6 1f        	inc	$1f                     ; 0x1f <__rc15>
    1c1d: d0 02        	bne	$1c21 <f256main+0x1171>
    1c1f: e6 1c        	inc	$1c                     ; 0x1c <__rc12>
    1c21: a0 04        	ldy	#$4
    1c23: 91 14        	sta	($14),y                 ; 0x14 <__rc4>
    1c25: a4 1b        	ldy	$1b                     ; 0x1b <__rc11>
    1c27: a5 1e        	lda	$1e                     ; 0x1e <__rc14>
    1c29: 91 16        	sta	($16),y                 ; 0x16 <__rc6>
    1c2b: a4 1a        	ldy	$1a                     ; 0x1a <__rc10>
    1c2d: a5 1f        	lda	$1f                     ; 0x1f <__rc15>
    1c2f: 91 16        	sta	($16),y                 ; 0x16 <__rc6>
    1c31: a5 1c        	lda	$1c                     ; 0x1c <__rc12>
    1c33: a4 1d        	ldy	$1d                     ; 0x1d <__rc13>
    1c35: 91 16        	sta	($16),y                 ; 0x16 <__rc6>
    1c37: 18           	clc
    1c38: a0 08        	ldy	#$8
    1c3a: a5 18        	lda	$18                     ; 0x18 <__rc8>
    1c3c: 71 14        	adc	($14),y                 ; 0x14 <__rc4>
    1c3e: 85 15        	sta	$15                     ; 0x15 <__rc5>
    1c40: 8a           	txa
    1c41: a4 1b        	ldy	$1b                     ; 0x1b <__rc11>
    1c43: 71 12        	adc	($12),y                 ; 0x12 <__rc2>
    1c45: 85 14        	sta	$14                     ; 0x14 <__rc4>
    1c47: a5 19        	lda	$19                     ; 0x19 <__rc9>
    1c49: a4 1a        	ldy	$1a                     ; 0x1a <__rc10>
    1c4b: 71 12        	adc	($12),y                 ; 0x12 <__rc2>
    1c4d: 85 12        	sta	$12                     ; 0x12 <__rc2>
    1c4f: a5 14        	lda	$14                     ; 0x14 <__rc4>
    1c51: 0a           	asl
    1c52: 26 12        	rol	$12                     ; 0x12 <__rc2>
    1c54: 0a           	asl
    1c55: 26 12        	rol	$12                     ; 0x12 <__rc2>
    1c57: 0a           	asl
    1c58: a5 12        	lda	$12                     ; 0x12 <__rc2>
    1c5a: 2a           	rol
    1c5b: a6 0f        	ldx	$f                      ; 0xf <__zp_bss_size>
    1c5d: 78           	sei
    1c5e: 85 0f        	sta	$f                      ; 0xf <__zp_bss_size>
    1c60: a4 15        	ldy	$15                     ; 0x15 <__rc5>
    1c62: 84 12        	sty	$12                     ; 0x12 <__rc2>
    1c64: a5 14        	lda	$14                     ; 0x14 <__rc4>
    1c66: 09 e0        	ora	#$e0
    1c68: 85 13        	sta	$13                     ; 0x13 <__rc3>
    1c6a: b2 12        	lda	($12)                   ; 0x12 <__rc2>
    1c6c: 86 0f        	stx	$f                      ; 0xf <__zp_bss_size>
    1c6e: 48           	pha
    1c6f: a0 02        	ldy	#$2
    1c71: b1 10        	lda	($10),y                 ; 0x10 <__rc0>
    1c73: 85 12        	sta	$12                     ; 0x12 <__rc2>
    1c75: 88           	dey
    1c76: b1 10        	lda	($10),y                 ; 0x10 <__rc0>
    1c78: 85 13        	sta	$13                     ; 0x13 <__rc3>
    1c7a: 68           	pla
    1c7b: 85 14        	sta	$14                     ; 0x14 <__rc4>
    1c7d: 58           	cli
    1c7e: a2 00        	ldx	#$0
    1c80: a0 03        	ldy	#$3
    1c82: b1 10        	lda	($10),y                 ; 0x10 <__rc0>
    1c84: 85 18        	sta	$18                     ; 0x18 <__rc8>
    1c86: 4c 58 0f     	jmp	$f58 <f256main+0x4a8>
    1c89: a5 1f        	lda	$1f                     ; 0x1f <__rc15>
    1c8b: f0 03        	beq	$1c90 <f256main+0x11e0>
    1c8d: 4c 39 14     	jmp	$1439 <f256main+0x989>
    1c90: a5 2e        	lda	$2e                     ; 0x2e <__rc30>
    1c92: 18           	clc
    1c93: 69 03        	adc	#$3
    1c95: aa           	tax
    1c96: a5 18        	lda	$18                     ; 0x18 <__rc8>
    1c98: 69 00        	adc	#$0
    1c9a: 85 1b        	sta	$1b                     ; 0x1b <__rc11>
    1c9c: a5 17        	lda	$17                     ; 0x17 <__rc7>
    1c9e: 69 00        	adc	#$0
    1ca0: 85 1c        	sta	$1c                     ; 0x1c <__rc12>
    1ca2: a5 16        	lda	$16                     ; 0x16 <__rc6>
    1ca4: 69 00        	adc	#$0
    1ca6: 85 1d        	sta	$1d                     ; 0x1d <__rc13>
    1ca8: 5a           	phy
    1ca9: a0 03        	ldy	#$3
    1cab: b1 10        	lda	($10),y                 ; 0x10 <__rc0>
    1cad: 85 16        	sta	$16                     ; 0x16 <__rc6>
    1caf: c8           	iny
    1cb0: b1 10        	lda	($10),y                 ; 0x10 <__rc0>
    1cb2: 7a           	ply
    1cb3: 85 17        	sta	$17                     ; 0x17 <__rc7>
    1cb5: 8a           	txa
    1cb6: 91 14        	sta	($14),y                 ; 0x14 <__rc4>
    1cb8: a0 01        	ldy	#$1
    1cba: a2 01        	ldx	#$1
    1cbc: 86 1a        	stx	$1a                     ; 0x1a <__rc10>
    1cbe: a5 1b        	lda	$1b                     ; 0x1b <__rc11>
    1cc0: 91 16        	sta	($16),y                 ; 0x16 <__rc6>
    1cc2: c8           	iny
    1cc3: a5 1c        	lda	$1c                     ; 0x1c <__rc12>
    1cc5: 91 16        	sta	($16),y                 ; 0x16 <__rc6>
    1cc7: c8           	iny
    1cc8: a5 1d        	lda	$1d                     ; 0x1d <__rc13>
    1cca: 91 16        	sta	($16),y                 ; 0x16 <__rc6>
    1ccc: 4c 39 14     	jmp	$1439 <f256main+0x989>
    1ccf: a5 2e        	lda	$2e                     ; 0x2e <__rc30>
    1cd1: 18           	clc
    1cd2: 69 06        	adc	#$6
    1cd4: 80 0c        	bra	$1ce2 <f256main+0x1232>
    1cd6: a5 2e        	lda	$2e                     ; 0x2e <__rc30>
    1cd8: 18           	clc
    1cd9: 69 04        	adc	#$4
    1cdb: 80 05        	bra	$1ce2 <f256main+0x1232>
    1cdd: a5 2e        	lda	$2e                     ; 0x2e <__rc30>
    1cdf: 18           	clc
    1ce0: 69 07        	adc	#$7
    1ce2: aa           	tax
    1ce3: a5 18        	lda	$18                     ; 0x18 <__rc8>
    1ce5: 69 00        	adc	#$0
    1ce7: 85 1b        	sta	$1b                     ; 0x1b <__rc11>
    1ce9: a5 17        	lda	$17                     ; 0x17 <__rc7>
    1ceb: 69 00        	adc	#$0
    1ced: 85 1c        	sta	$1c                     ; 0x1c <__rc12>
    1cef: a5 16        	lda	$16                     ; 0x16 <__rc6>
    1cf1: 69 00        	adc	#$0
    1cf3: 85 1d        	sta	$1d                     ; 0x1d <__rc13>
    1cf5: a0 03        	ldy	#$3
    1cf7: b1 10        	lda	($10),y                 ; 0x10 <__rc0>
    1cf9: 85 16        	sta	$16                     ; 0x16 <__rc6>
    1cfb: c8           	iny
    1cfc: b1 10        	lda	($10),y                 ; 0x10 <__rc0>
    1cfe: 85 17        	sta	$17                     ; 0x17 <__rc7>
    1d00: 8a           	txa
    1d01: 91 14        	sta	($14),y                 ; 0x14 <__rc4>
    1d03: a0 01        	ldy	#$1
    1d05: a2 01        	ldx	#$1
    1d07: 86 1a        	stx	$1a                     ; 0x1a <__rc10>
    1d09: a5 1b        	lda	$1b                     ; 0x1b <__rc11>
    1d0b: 91 16        	sta	($16),y                 ; 0x16 <__rc6>
    1d0d: c8           	iny
    1d0e: a5 1c        	lda	$1c                     ; 0x1c <__rc12>
    1d10: 91 16        	sta	($16),y                 ; 0x16 <__rc6>
    1d12: c8           	iny
    1d13: a5 1d        	lda	$1d                     ; 0x1d <__rc13>
    1d15: 91 16        	sta	($16),y                 ; 0x16 <__rc6>
    1d17: a6 29        	ldx	$29                     ; 0x29 <__rc25>
    1d19: 86 27        	stx	$27                     ; 0x27 <__rc23>
    1d1b: a0 05        	ldy	#$5
    1d1d: b1 10        	lda	($10),y                 ; 0x10 <__rc0>
    1d1f: 4c 41 14     	jmp	$1441 <f256main+0x991>

00001d22 <bitmapClear>:
    1d22: a0 00        	ldy	#$0
    1d24: a2 00        	ldx	#$0
    1d26: 86 12        	stx	$12                     ; 0x12 <__rc2>
    1d28: a2 e0        	ldx	#$e0
    1d2a: 86 13        	stx	$13                     ; 0x13 <__rc3>
    1d2c: a9 01        	lda	#$1
    1d2e: 25 e0        	and	$e0                     ; 0xe0 <_active>
    1d30: 0a           	asl
    1d31: 0a           	asl
    1d32: aa           	tax
    1d33: bd be 30     	lda	$30be,x                 ; 0x30be <_BITMAP_BASE+0x1>
    1d36: 48           	pha
    1d37: bd bf 30     	lda	$30bf,x                 ; 0x30bf <_BITMAP_BASE+0x2>
    1d3a: aa           	tax
    1d3b: 68           	pla
    1d3c: 86 14        	stx	$14                     ; 0x14 <__rc4>
    1d3e: 0a           	asl
    1d3f: 26 14        	rol	$14                     ; 0x14 <__rc4>
    1d41: 0a           	asl
    1d42: 26 14        	rol	$14                     ; 0x14 <__rc4>
    1d44: 0a           	asl
    1d45: a5 14        	lda	$14                     ; 0x14 <__rc4>
    1d47: 2a           	rol
    1d48: a6 0f        	ldx	$f                      ; 0xf <__zp_bss_size>
    1d4a: 86 18        	stx	$18                     ; 0x18 <__rc8>
    1d4c: 78           	sei
    1d4d: 80 37        	bra	$1d86 <bitmapClear+0x64>
    1d4f: a9 00        	lda	#$0
    1d51: 06 14        	asl	$14                     ; 0x14 <__rc4>
    1d53: 2a           	rol
    1d54: a2 20        	ldx	#$20
    1d56: 64 14        	stz	$14                     ; 0x14 <__rc4>
    1d58: 5a           	phy
    1d59: a0 00        	ldy	#$0
    1d5b: 84 16        	sty	$16                     ; 0x16 <__rc6>
    1d5d: a0 e0        	ldy	#$e0
    1d5f: 84 17        	sty	$17                     ; 0x17 <__rc7>
    1d61: 7a           	ply
    1d62: 86 15        	stx	$15                     ; 0x15 <__rc5>
    1d64: 92 16        	sta	($16)                   ; 0x16 <__rc6>
    1d66: a2 ff        	ldx	#$ff
    1d68: c6 14        	dec	$14                     ; 0x14 <__rc4>
    1d6a: e4 14        	cpx	$14                     ; 0x14 <__rc4>
    1d6c: d0 02        	bne	$1d70 <bitmapClear+0x4e>
    1d6e: c6 15        	dec	$15                     ; 0x15 <__rc5>
    1d70: e6 16        	inc	$16                     ; 0x16 <__rc6>
    1d72: d0 02        	bne	$1d76 <bitmapClear+0x54>
    1d74: e6 17        	inc	$17                     ; 0x17 <__rc7>
    1d76: a6 15        	ldx	$15                     ; 0x15 <__rc5>
    1d78: d0 ea        	bne	$1d64 <bitmapClear+0x42>
    1d7a: a6 14        	ldx	$14                     ; 0x14 <__rc4>
    1d7c: d0 e6        	bne	$1d64 <bitmapClear+0x42>
    1d7e: a5 19        	lda	$19                     ; 0x19 <__rc9>
    1d80: 1a           	inc
    1d81: c8           	iny
    1d82: c0 09        	cpy	#$9
    1d84: f0 11        	beq	$1d97 <bitmapClear+0x75>
    1d86: 85 19        	sta	$19                     ; 0x19 <__rc9>
    1d88: 85 0f        	sta	$f                      ; 0xf <__zp_bss_size>
    1d8a: a5 e1        	lda	$e1                     ; 0xe1 <_color>
    1d8c: 4a           	lsr
    1d8d: 64 14        	stz	$14                     ; 0x14 <__rc4>
    1d8f: 66 14        	ror	$14                     ; 0x14 <__rc4>
    1d91: 10 bc        	bpl	$1d4f <bitmapClear+0x2d>
    1d93: a9 ff        	lda	#$ff
    1d95: 80 ba        	bra	$1d51 <bitmapClear+0x2f>
    1d97: 85 0f        	sta	$f                      ; 0xf <__zp_bss_size>
    1d99: a6 e1        	ldx	$e1                     ; 0xe1 <_color>
    1d9b: 86 14        	stx	$14                     ; 0x14 <__rc4>
    1d9d: a9 00        	lda	#$0
    1d9f: 46 14        	lsr	$14                     ; 0x14 <__rc4>
    1da1: 64 14        	stz	$14                     ; 0x14 <__rc4>
    1da3: 66 14        	ror	$14                     ; 0x14 <__rc4>
    1da5: 10 02        	bpl	$1da9 <bitmapClear+0x87>
    1da7: a9 ff        	lda	#$ff
    1da9: 06 14        	asl	$14                     ; 0x14 <__rc4>
    1dab: 2a           	rol
    1dac: a2 14        	ldx	#$14
    1dae: a0 00        	ldy	#$0
    1db0: 86 14        	stx	$14                     ; 0x14 <__rc4>
    1db2: 92 12        	sta	($12)                   ; 0x12 <__rc2>
    1db4: 88           	dey
    1db5: c0 ff        	cpy	#$ff
    1db7: d0 02        	bne	$1dbb <bitmapClear+0x99>
    1db9: c6 14        	dec	$14                     ; 0x14 <__rc4>
    1dbb: e6 12        	inc	$12                     ; 0x12 <__rc2>
    1dbd: d0 02        	bne	$1dc1 <bitmapClear+0x9f>
    1dbf: e6 13        	inc	$13                     ; 0x13 <__rc3>
    1dc1: a6 14        	ldx	$14                     ; 0x14 <__rc4>
    1dc3: d0 ed        	bne	$1db2 <bitmapClear+0x90>
    1dc5: c0 00        	cpy	#$0
    1dc7: d0 e9        	bne	$1db2 <bitmapClear+0x90>
    1dc9: a6 18        	ldx	$18                     ; 0x18 <__rc8>
    1dcb: 86 0f        	stx	$f                      ; 0xf <__zp_bss_size>
    1dcd: 58           	cli
    1dce: 60           	rts

00001dcf <rotateX>:
    1dcf: 18           	clc
    1dd0: a5 10        	lda	$10                     ; 0x10 <__rc0>
    1dd2: 69 f1        	adc	#$f1
    1dd4: 85 10        	sta	$10                     ; 0x10 <__rc0>
    1dd6: a5 11        	lda	$11                     ; 0x11 <__rc1>
    1dd8: 69 ff        	adc	#$ff
    1dda: 85 11        	sta	$11                     ; 0x11 <__rc1>
    1ddc: a6 24        	ldx	$24                     ; 0x24 <__rc20>
    1dde: da           	phx
    1ddf: a6 25        	ldx	$25                     ; 0x25 <__rc21>
    1de1: da           	phx
    1de2: a6 26        	ldx	$26                     ; 0x26 <__rc22>
    1de4: da           	phx
    1de5: a6 27        	ldx	$27                     ; 0x27 <__rc23>
    1de7: da           	phx
    1de8: a5 28        	lda	$28                     ; 0x28 <__rc24>
    1dea: a0 07        	ldy	#$7
    1dec: 91 10        	sta	($10),y                 ; 0x10 <__rc0>
    1dee: a5 29        	lda	$29                     ; 0x29 <__rc25>
    1df0: 88           	dey
    1df1: 91 10        	sta	($10),y                 ; 0x10 <__rc0>
    1df3: a5 2a        	lda	$2a                     ; 0x2a <__rc26>
    1df5: 88           	dey
    1df6: 91 10        	sta	($10),y                 ; 0x10 <__rc0>
    1df8: a5 2b        	lda	$2b                     ; 0x2b <__rc27>
    1dfa: 88           	dey
    1dfb: 91 10        	sta	($10),y                 ; 0x10 <__rc0>
    1dfd: a5 2c        	lda	$2c                     ; 0x2c <__rc28>
    1dff: 88           	dey
    1e00: 91 10        	sta	($10),y                 ; 0x10 <__rc0>
    1e02: a5 2d        	lda	$2d                     ; 0x2d <__rc29>
    1e04: 88           	dey
    1e05: 91 10        	sta	($10),y                 ; 0x10 <__rc0>
    1e07: a5 2e        	lda	$2e                     ; 0x2e <__rc30>
    1e09: 88           	dey
    1e0a: 91 10        	sta	($10),y                 ; 0x10 <__rc0>
    1e0c: a5 2f        	lda	$2f                     ; 0x2f <__rc31>
    1e0e: 88           	dey
    1e0f: 91 10        	sta	($10),y                 ; 0x10 <__rc0>
    1e11: a0 00        	ldy	#$0
    1e13: a2 fd        	ldx	#$fd
    1e15: 8a           	txa
    1e16: 5a           	phy
    1e17: a0 0e        	ldy	#$e
    1e19: 91 10        	sta	($10),y                 ; 0x10 <__rc0>
    1e1b: 7a           	ply
    1e1c: e8           	inx
    1e1d: 86 2b        	stx	$2b                     ; 0x2b <__rc27>
    1e1f: a2 98        	ldx	#$98
    1e21: 86 2d        	stx	$2d                     ; 0x2d <__rc29>
    1e23: a2 7e        	ldx	#$7e
    1e25: 86 2f        	stx	$2f                     ; 0x2f <__rc31>
    1e27: a2 3f        	ldx	#$3f
    1e29: 86 28        	stx	$28                     ; 0x28 <__rc24>
    1e2b: 98           	tya
    1e2c: 5a           	phy
    1e2d: a0 0d        	ldy	#$d
    1e2f: 91 10        	sta	($10),y                 ; 0x10 <__rc0>
    1e31: 7a           	ply
    1e32: b9 34 00     	lda	$34,y                   ; 0x34 <skull_vertices+0x4>
    1e35: b6 35        	ldx	$35,y                   ; 0x35 <skull_vertices+0x5>
    1e37: 86 15        	stx	$15                     ; 0x15 <__rc5>
    1e39: b6 36        	ldx	$36,y                   ; 0x36 <skull_vertices+0x6>
    1e3b: 86 16        	stx	$16                     ; 0x16 <__rc6>
    1e3d: b6 37        	ldx	$37,y                   ; 0x37 <skull_vertices+0x7>
    1e3f: 84 24        	sty	$24                     ; 0x24 <__rc20>
    1e41: 85 14        	sta	$14                     ; 0x14 <__rc4>
    1e43: a4 2f        	ldy	$2f                     ; 0x2f <__rc31>
    1e45: 84 2e        	sty	$2e                     ; 0x2e <__rc30>
    1e47: a4 2f        	ldy	$2f                     ; 0x2f <__rc31>
    1e49: 84 12        	sty	$12                     ; 0x12 <__rc2>
    1e4b: a4 28        	ldy	$28                     ; 0x28 <__rc24>
    1e4d: 84 29        	sty	$29                     ; 0x29 <__rc25>
    1e4f: a4 28        	ldy	$28                     ; 0x28 <__rc24>
    1e51: 84 13        	sty	$13                     ; 0x13 <__rc3>
    1e53: 86 17        	stx	$17                     ; 0x17 <__rc7>
    1e55: a6 2d        	ldx	$2d                     ; 0x2d <__rc29>
    1e57: 86 2c        	stx	$2c                     ; 0x2c <__rc28>
    1e59: a6 2d        	ldx	$2d                     ; 0x2d <__rc29>
    1e5b: a4 2b        	ldy	$2b                     ; 0x2b <__rc27>
    1e5d: 84 2a        	sty	$2a                     ; 0x2a <__rc26>
    1e5f: a5 2b        	lda	$2b                     ; 0x2b <__rc27>
    1e61: 20 ea 05     	jsr	$5ea <mathFloatMul>
    1e64: a0 0c        	ldy	#$c
    1e66: 91 10        	sta	($10),y                 ; 0x10 <__rc0>
    1e68: 86 25        	stx	$25                     ; 0x25 <__rc21>
    1e6a: a6 12        	ldx	$12                     ; 0x12 <__rc2>
    1e6c: 86 26        	stx	$26                     ; 0x26 <__rc22>
    1e6e: a6 13        	ldx	$13                     ; 0x13 <__rc3>
    1e70: 86 27        	stx	$27                     ; 0x27 <__rc23>
    1e72: a4 24        	ldy	$24                     ; 0x24 <__rc20>
    1e74: b9 38 00     	lda	$38,y                   ; 0x38 <skull_vertices+0x8>
    1e77: b6 39        	ldx	$39,y                   ; 0x39 <skull_vertices+0x9>
    1e79: 86 15        	stx	$15                     ; 0x15 <__rc5>
    1e7b: b6 3a        	ldx	$3a,y                   ; 0x3a <skull_vertices+0xa>
    1e7d: 86 16        	stx	$16                     ; 0x16 <__rc6>
    1e7f: b6 3b        	ldx	$3b,y                   ; 0x3b <skull_vertices+0xb>
    1e81: 86 17        	stx	$17                     ; 0x17 <__rc7>
    1e83: 85 14        	sta	$14                     ; 0x14 <__rc4>
    1e85: a2 d6        	ldx	#$d6
    1e87: 86 2d        	stx	$2d                     ; 0x2d <__rc29>
    1e89: 86 12        	stx	$12                     ; 0x12 <__rc2>
    1e8b: a2 3d        	ldx	#$3d
    1e8d: 86 2f        	stx	$2f                     ; 0x2f <__rc31>
    1e8f: 86 13        	stx	$13                     ; 0x13 <__rc3>
    1e91: a2 12        	ldx	#$12
    1e93: 86 2b        	stx	$2b                     ; 0x2b <__rc27>
    1e95: a0 c7        	ldy	#$c7
    1e97: 84 28        	sty	$28                     ; 0x28 <__rc24>
    1e99: 98           	tya
    1e9a: 20 ea 05     	jsr	$5ea <mathFloatMul>
    1e9d: 85 14        	sta	$14                     ; 0x14 <__rc4>
    1e9f: 86 15        	stx	$15                     ; 0x15 <__rc5>
    1ea1: a6 12        	ldx	$12                     ; 0x12 <__rc2>
    1ea3: a4 13        	ldy	$13                     ; 0x13 <__rc3>
    1ea5: a5 26        	lda	$26                     ; 0x26 <__rc22>
    1ea7: 85 12        	sta	$12                     ; 0x12 <__rc2>
    1ea9: a5 27        	lda	$27                     ; 0x27 <__rc23>
    1eab: 85 13        	sta	$13                     ; 0x13 <__rc3>
    1ead: 86 16        	stx	$16                     ; 0x16 <__rc6>
    1eaf: 84 17        	sty	$17                     ; 0x17 <__rc7>
    1eb1: a6 25        	ldx	$25                     ; 0x25 <__rc21>
    1eb3: a0 0c        	ldy	#$c
    1eb5: b1 10        	lda	($10),y                 ; 0x10 <__rc0>
    1eb7: 20 99 05     	jsr	$599 <mathFloatSub>
    1eba: a0 0c        	ldy	#$c
    1ebc: 91 10        	sta	($10),y                 ; 0x10 <__rc0>
    1ebe: 8a           	txa
    1ebf: 88           	dey
    1ec0: 91 10        	sta	($10),y                 ; 0x10 <__rc0>
    1ec2: a5 12        	lda	$12                     ; 0x12 <__rc2>
    1ec4: 88           	dey
    1ec5: 91 10        	sta	($10),y                 ; 0x10 <__rc0>
    1ec7: a5 13        	lda	$13                     ; 0x13 <__rc3>
    1ec9: 88           	dey
    1eca: 91 10        	sta	($10),y                 ; 0x10 <__rc0>
    1ecc: a4 24        	ldy	$24                     ; 0x24 <__rc20>
    1ece: b9 34 00     	lda	$34,y                   ; 0x34 <skull_vertices+0x4>
    1ed1: b6 35        	ldx	$35,y                   ; 0x35 <skull_vertices+0x5>
    1ed3: 86 15        	stx	$15                     ; 0x15 <__rc5>
    1ed5: b6 36        	ldx	$36,y                   ; 0x36 <skull_vertices+0x6>
    1ed7: 86 16        	stx	$16                     ; 0x16 <__rc6>
    1ed9: b6 37        	ldx	$37,y                   ; 0x37 <skull_vertices+0x7>
    1edb: 85 14        	sta	$14                     ; 0x14 <__rc4>
    1edd: a4 2d        	ldy	$2d                     ; 0x2d <__rc29>
    1edf: 84 12        	sty	$12                     ; 0x12 <__rc2>
    1ee1: a4 2f        	ldy	$2f                     ; 0x2f <__rc31>
    1ee3: 84 13        	sty	$13                     ; 0x13 <__rc3>
    1ee5: 86 17        	stx	$17                     ; 0x17 <__rc7>
    1ee7: a6 2b        	ldx	$2b                     ; 0x2b <__rc27>
    1ee9: a5 28        	lda	$28                     ; 0x28 <__rc24>
    1eeb: 20 ea 05     	jsr	$5ea <mathFloatMul>
    1eee: a0 08        	ldy	#$8
    1ef0: 91 10        	sta	($10),y                 ; 0x10 <__rc0>
    1ef2: 86 25        	stx	$25                     ; 0x25 <__rc21>
    1ef4: a6 12        	ldx	$12                     ; 0x12 <__rc2>
    1ef6: 86 26        	stx	$26                     ; 0x26 <__rc22>
    1ef8: a6 13        	ldx	$13                     ; 0x13 <__rc3>
    1efa: 86 27        	stx	$27                     ; 0x27 <__rc23>
    1efc: a4 24        	ldy	$24                     ; 0x24 <__rc20>
    1efe: b9 38 00     	lda	$38,y                   ; 0x38 <skull_vertices+0x8>
    1f01: b6 39        	ldx	$39,y                   ; 0x39 <skull_vertices+0x9>
    1f03: 86 15        	stx	$15                     ; 0x15 <__rc5>
    1f05: b6 3a        	ldx	$3a,y                   ; 0x3a <skull_vertices+0xa>
    1f07: 86 16        	stx	$16                     ; 0x16 <__rc6>
    1f09: b6 3b        	ldx	$3b,y                   ; 0x3b <skull_vertices+0xb>
    1f0b: 85 14        	sta	$14                     ; 0x14 <__rc4>
    1f0d: a4 2e        	ldy	$2e                     ; 0x2e <__rc30>
    1f0f: 84 2f        	sty	$2f                     ; 0x2f <__rc31>
    1f11: a4 2e        	ldy	$2e                     ; 0x2e <__rc30>
    1f13: 84 12        	sty	$12                     ; 0x12 <__rc2>
    1f15: a4 29        	ldy	$29                     ; 0x29 <__rc25>
    1f17: 84 28        	sty	$28                     ; 0x28 <__rc24>
    1f19: a4 29        	ldy	$29                     ; 0x29 <__rc25>
    1f1b: 84 13        	sty	$13                     ; 0x13 <__rc3>
    1f1d: 86 17        	stx	$17                     ; 0x17 <__rc7>
    1f1f: a6 2c        	ldx	$2c                     ; 0x2c <__rc28>
    1f21: 86 2d        	stx	$2d                     ; 0x2d <__rc29>
    1f23: a6 2c        	ldx	$2c                     ; 0x2c <__rc28>
    1f25: a4 2a        	ldy	$2a                     ; 0x2a <__rc26>
    1f27: 84 2b        	sty	$2b                     ; 0x2b <__rc27>
    1f29: a5 2a        	lda	$2a                     ; 0x2a <__rc26>
    1f2b: 20 ea 05     	jsr	$5ea <mathFloatMul>
    1f2e: 85 14        	sta	$14                     ; 0x14 <__rc4>
    1f30: 86 15        	stx	$15                     ; 0x15 <__rc5>
    1f32: a6 12        	ldx	$12                     ; 0x12 <__rc2>
    1f34: a4 13        	ldy	$13                     ; 0x13 <__rc3>
    1f36: a5 26        	lda	$26                     ; 0x26 <__rc22>
    1f38: 85 12        	sta	$12                     ; 0x12 <__rc2>
    1f3a: a5 27        	lda	$27                     ; 0x27 <__rc23>
    1f3c: 85 13        	sta	$13                     ; 0x13 <__rc3>
    1f3e: 86 16        	stx	$16                     ; 0x16 <__rc6>
    1f40: 84 17        	sty	$17                     ; 0x17 <__rc7>
    1f42: a6 25        	ldx	$25                     ; 0x25 <__rc21>
    1f44: a0 08        	ldy	#$8
    1f46: b1 10        	lda	($10),y                 ; 0x10 <__rc0>
    1f48: 20 48 05     	jsr	$548 <mathFloatAdd>
    1f4b: a8           	tay
    1f4c: 86 14        	stx	$14                     ; 0x14 <__rc4>
    1f4e: a6 24        	ldx	$24                     ; 0x24 <__rc20>
    1f50: 5a           	phy
    1f51: a0 0c        	ldy	#$c
    1f53: b1 10        	lda	($10),y                 ; 0x10 <__rc0>
    1f55: 9d 34 00     	sta	$34,x                   ; 0x34 <skull_vertices+0x4>
    1f58: 88           	dey
    1f59: b1 10        	lda	($10),y                 ; 0x10 <__rc0>
    1f5b: 9d 35 00     	sta	$35,x                   ; 0x35 <skull_vertices+0x5>
    1f5e: 88           	dey
    1f5f: b1 10        	lda	($10),y                 ; 0x10 <__rc0>
    1f61: 9d 36 00     	sta	$36,x                   ; 0x36 <skull_vertices+0x6>
    1f64: 88           	dey
    1f65: b1 10        	lda	($10),y                 ; 0x10 <__rc0>
    1f67: 7a           	ply
    1f68: 9d 37 00     	sta	$37,x                   ; 0x37 <skull_vertices+0x7>
    1f6b: 98           	tya
    1f6c: 9d 38 00     	sta	$38,x                   ; 0x38 <skull_vertices+0x8>
    1f6f: a0 0d        	ldy	#$d
    1f71: b1 10        	lda	($10),y                 ; 0x10 <__rc0>
    1f73: a8           	tay
    1f74: a5 14        	lda	$14                     ; 0x14 <__rc4>
    1f76: 9d 39 00     	sta	$39,x                   ; 0x39 <skull_vertices+0x9>
    1f79: a5 12        	lda	$12                     ; 0x12 <__rc2>
    1f7b: 9d 3a 00     	sta	$3a,x                   ; 0x3a <skull_vertices+0xa>
    1f7e: a5 13        	lda	$13                     ; 0x13 <__rc3>
    1f80: 9d 3b 00     	sta	$3b,x                   ; 0x3b <skull_vertices+0xb>
    1f83: 18           	clc
    1f84: 98           	tya
    1f85: 69 0c        	adc	#$c
    1f87: a8           	tay
    1f88: 18           	clc
    1f89: 5a           	phy
    1f8a: a0 0e        	ldy	#$e
    1f8c: b1 10        	lda	($10),y                 ; 0x10 <__rc0>
    1f8e: 69 03        	adc	#$3
    1f90: 91 10        	sta	($10),y                 ; 0x10 <__rc0>
    1f92: 7a           	ply
    1f93: c9 15        	cmp	#$15
    1f95: b0 03        	bcs	$1f9a <rotateX+0x1cb>
    1f97: 4c 2b 1e     	jmp	$1e2b <rotateX+0x5c>
    1f9a: a0 00        	ldy	#$0
    1f9c: b1 10        	lda	($10),y                 ; 0x10 <__rc0>
    1f9e: 85 2f        	sta	$2f                     ; 0x2f <__rc31>
    1fa0: c8           	iny
    1fa1: b1 10        	lda	($10),y                 ; 0x10 <__rc0>
    1fa3: 85 2e        	sta	$2e                     ; 0x2e <__rc30>
    1fa5: c8           	iny
    1fa6: b1 10        	lda	($10),y                 ; 0x10 <__rc0>
    1fa8: 85 2d        	sta	$2d                     ; 0x2d <__rc29>
    1faa: c8           	iny
    1fab: b1 10        	lda	($10),y                 ; 0x10 <__rc0>
    1fad: 85 2c        	sta	$2c                     ; 0x2c <__rc28>
    1faf: c8           	iny
    1fb0: b1 10        	lda	($10),y                 ; 0x10 <__rc0>
    1fb2: 85 2b        	sta	$2b                     ; 0x2b <__rc27>
    1fb4: c8           	iny
    1fb5: b1 10        	lda	($10),y                 ; 0x10 <__rc0>
    1fb7: 85 2a        	sta	$2a                     ; 0x2a <__rc26>
    1fb9: c8           	iny
    1fba: b1 10        	lda	($10),y                 ; 0x10 <__rc0>
    1fbc: 85 29        	sta	$29                     ; 0x29 <__rc25>
    1fbe: c8           	iny
    1fbf: b1 10        	lda	($10),y                 ; 0x10 <__rc0>
    1fc1: 85 28        	sta	$28                     ; 0x28 <__rc24>
    1fc3: fa           	plx
    1fc4: 86 27        	stx	$27                     ; 0x27 <__rc23>
    1fc6: fa           	plx
    1fc7: 86 26        	stx	$26                     ; 0x26 <__rc22>
    1fc9: fa           	plx
    1fca: 86 25        	stx	$25                     ; 0x25 <__rc21>
    1fcc: fa           	plx
    1fcd: 86 24        	stx	$24                     ; 0x24 <__rc20>
    1fcf: 18           	clc
    1fd0: a5 10        	lda	$10                     ; 0x10 <__rc0>
    1fd2: 69 0f        	adc	#$f
    1fd4: 85 10        	sta	$10                     ; 0x10 <__rc0>
    1fd6: a5 11        	lda	$11                     ; 0x11 <__rc1>
    1fd8: 69 00        	adc	#$0
    1fda: 85 11        	sta	$11                     ; 0x11 <__rc1>
    1fdc: 60           	rts

00001fdd <redraw>:
    1fdd: 48           	pha
    1fde: 18           	clc
    1fdf: a5 10        	lda	$10                     ; 0x10 <__rc0>
    1fe1: 69 f6        	adc	#$f6
    1fe3: 85 10        	sta	$10                     ; 0x10 <__rc0>
    1fe5: a5 11        	lda	$11                     ; 0x11 <__rc1>
    1fe7: 69 ff        	adc	#$ff
    1fe9: 85 11        	sta	$11                     ; 0x11 <__rc1>
    1feb: 68           	pla
    1fec: a6 24        	ldx	$24                     ; 0x24 <__rc20>
    1fee: da           	phx
    1fef: a6 25        	ldx	$25                     ; 0x25 <__rc21>
    1ff1: da           	phx
    1ff2: a6 26        	ldx	$26                     ; 0x26 <__rc22>
    1ff4: da           	phx
    1ff5: a6 27        	ldx	$27                     ; 0x27 <__rc23>
    1ff7: da           	phx
    1ff8: 48           	pha
    1ff9: a5 28        	lda	$28                     ; 0x28 <__rc24>
    1ffb: a0 07        	ldy	#$7
    1ffd: 91 10        	sta	($10),y                 ; 0x10 <__rc0>
    1fff: a5 29        	lda	$29                     ; 0x29 <__rc25>
    2001: 88           	dey
    2002: 91 10        	sta	($10),y                 ; 0x10 <__rc0>
    2004: a5 2a        	lda	$2a                     ; 0x2a <__rc26>
    2006: 88           	dey
    2007: 91 10        	sta	($10),y                 ; 0x10 <__rc0>
    2009: a5 2b        	lda	$2b                     ; 0x2b <__rc27>
    200b: 88           	dey
    200c: 91 10        	sta	($10),y                 ; 0x10 <__rc0>
    200e: a5 2c        	lda	$2c                     ; 0x2c <__rc28>
    2010: 88           	dey
    2011: 91 10        	sta	($10),y                 ; 0x10 <__rc0>
    2013: a5 2d        	lda	$2d                     ; 0x2d <__rc29>
    2015: 88           	dey
    2016: 91 10        	sta	($10),y                 ; 0x10 <__rc0>
    2018: a5 2e        	lda	$2e                     ; 0x2e <__rc30>
    201a: 88           	dey
    201b: 91 10        	sta	($10),y                 ; 0x10 <__rc0>
    201d: a5 2f        	lda	$2f                     ; 0x2f <__rc31>
    201f: 88           	dey
    2020: 91 10        	sta	($10),y                 ; 0x10 <__rc0>
    2022: 68           	pla
    2023: 85 12        	sta	$12                     ; 0x12 <__rc2>
    2025: c8           	iny
    2026: a2 01        	ldx	#$1
    2028: 86 1b        	stx	$1b                     ; 0x1b <__rc11>
    202a: 8c 0a d0     	sty	$d00a                   ; 0xd00a <__heap_start+0x9f40>
    202d: 09 01        	ora	#$1
    202f: 85 28        	sta	$28                     ; 0x28 <__rc24>
    2031: a5 12        	lda	$12                     ; 0x12 <__rc2>
    2033: 09 03        	ora	#$3
    2035: 85 26        	sta	$26                     ; 0x26 <__rc22>
    2037: 64 14        	stz	$14                     ; 0x14 <__rc4>
    2039: ca           	dex
    203a: 86 1a        	stx	$1a                     ; 0x1a <__rc10>
    203c: a2 08        	ldx	#$8
    203e: 86 15        	stx	$15                     ; 0x15 <__rc5>
    2040: a2 43        	ldx	#$43
    2042: 86 18        	stx	$18                     ; 0x18 <__rc8>
    2044: a9 00        	lda	#$0
    2046: 64 12        	stz	$12                     ; 0x12 <__rc2>
    2048: 48           	pha
    2049: a9 00        	lda	#$0
    204b: a0 09        	ldy	#$9
    204d: 91 10        	sta	($10),y                 ; 0x10 <__rc0>
    204f: 88           	dey
    2050: 91 10        	sta	($10),y                 ; 0x10 <__rc0>
    2052: 68           	pla
    2053: a2 03        	ldx	#$3
    2055: 86 17        	stx	$17                     ; 0x17 <__rc7>
    2057: 80 2c        	bra	$2085 <redraw+0xa8>
    2059: c0 00        	cpy	#$0
    205b: 90 03        	bcc	$2060 <redraw+0x83>
    205d: 4c dd 2c     	jmp	$2cdd <redraw+0xd00>
    2060: 18           	clc
    2061: 5a           	phy
    2062: a0 09        	ldy	#$9
    2064: b1 10        	lda	($10),y                 ; 0x10 <__rc0>
    2066: 69 03        	adc	#$3
    2068: 91 10        	sta	($10),y                 ; 0x10 <__rc0>
    206a: 7a           	ply
    206b: 98           	tya
    206c: 69 00        	adc	#$0
    206e: a0 08        	ldy	#$8
    2070: 91 10        	sta	($10),y                 ; 0x10 <__rc0>
    2072: 18           	clc
    2073: a5 2b        	lda	$2b                     ; 0x2b <__rc27>
    2075: 69 06        	adc	#$6
    2077: 64 14        	stz	$14                     ; 0x14 <__rc4>
    2079: a2 08        	ldx	#$8
    207b: 86 15        	stx	$15                     ; 0x15 <__rc5>
    207d: a0 43        	ldy	#$43
    207f: 84 18        	sty	$18                     ; 0x18 <__rc8>
    2081: a6 13        	ldx	$13                     ; 0x13 <__rc3>
    2083: 86 17        	stx	$17                     ; 0x17 <__rc7>
    2085: 85 2b        	sta	$2b                     ; 0x2b <__rc27>
    2087: aa           	tax
    2088: b5 90        	lda	$90,x                   ; 0x90 <skull_indices>
    208a: b4 91        	ldy	$91,x                   ; 0x91 <skull_indices+0x1>
    208c: 84 12        	sty	$12                     ; 0x12 <__rc2>
    208e: 0a           	asl
    208f: 26 12        	rol	$12                     ; 0x12 <__rc2>
    2091: a4 12        	ldy	$12                     ; 0x12 <__rc2>
    2093: 84 13        	sty	$13                     ; 0x13 <__rc3>
    2095: 0a           	asl
    2096: 85 12        	sta	$12                     ; 0x12 <__rc2>
    2098: 26 13        	rol	$13                     ; 0x13 <__rc3>
    209a: a9 30        	lda	#$30
    209c: a4 1a        	ldy	$1a                     ; 0x1a <__rc10>
    209e: c0 01        	cpy	#$1
    20a0: 65 12        	adc	$12                     ; 0x12 <__rc2>
    20a2: 85 24        	sta	$24                     ; 0x24 <__rc20>
    20a4: a9 00        	lda	#$0
    20a6: 65 13        	adc	$13                     ; 0x13 <__rc3>
    20a8: 85 13        	sta	$13                     ; 0x13 <__rc3>
    20aa: a5 24        	lda	$24                     ; 0x24 <__rc20>
    20ac: 18           	clc
    20ad: 69 08        	adc	#$8
    20af: 85 12        	sta	$12                     ; 0x12 <__rc2>
    20b1: a4 13        	ldy	$13                     ; 0x13 <__rc3>
    20b3: 84 25        	sty	$25                     ; 0x25 <__rc21>
    20b5: a5 13        	lda	$13                     ; 0x13 <__rc3>
    20b7: 69 00        	adc	#$0
    20b9: b4 92        	ldy	$92,x                   ; 0x92 <skull_indices+0x2>
    20bb: 84 2d        	sty	$2d                     ; 0x2d <__rc29>
    20bd: a4 12        	ldy	$12                     ; 0x12 <__rc2>
    20bf: 84 1c        	sty	$1c                     ; 0x1c <__rc12>
    20c1: b4 93        	ldy	$93,x                   ; 0x93 <skull_indices+0x3>
    20c3: 84 2c        	sty	$2c                     ; 0x2c <__rc28>
    20c5: 85 1d        	sta	$1d                     ; 0x1d <__rc13>
    20c7: b4 94        	ldy	$94,x                   ; 0x94 <skull_indices+0x4>
    20c9: 84 2a        	sty	$2a                     ; 0x2a <__rc26>
    20cb: b5 95        	lda	$95,x                   ; 0x95 <skull_indices+0x5>
    20cd: aa           	tax
    20ce: 86 29        	stx	$29                     ; 0x29 <__rc25>
    20d0: a6 13        	ldx	$13                     ; 0x13 <__rc3>
    20d2: 86 2f        	stx	$2f                     ; 0x2f <__rc31>
    20d4: a4 15        	ldy	$15                     ; 0x15 <__rc5>
    20d6: b1 24        	lda	($24),y                 ; 0x24 <__rc20>
    20d8: 85 19        	sta	$19                     ; 0x19 <__rc9>
    20da: a2 01        	ldx	#$1
    20dc: 86 27        	stx	$27                     ; 0x27 <__rc23>
    20de: a4 1b        	ldy	$1b                     ; 0x1b <__rc11>
    20e0: b1 1c        	lda	($1c),y                 ; 0x1c <__rc12>
    20e2: aa           	tax
    20e3: a0 02        	ldy	#$2
    20e5: b1 1c        	lda	($1c),y                 ; 0x1c <__rc12>
    20e7: 85 12        	sta	$12                     ; 0x12 <__rc2>
    20e9: 84 16        	sty	$16                     ; 0x16 <__rc6>
    20eb: a4 17        	ldy	$17                     ; 0x17 <__rc7>
    20ed: b1 1c        	lda	($1c),y                 ; 0x1c <__rc12>
    20ef: 85 13        	sta	$13                     ; 0x13 <__rc3>
    20f1: 64 15        	stz	$15                     ; 0x15 <__rc5>
    20f3: a4 18        	ldy	$18                     ; 0x18 <__rc8>
    20f5: 84 17        	sty	$17                     ; 0x17 <__rc7>
    20f7: a5 19        	lda	$19                     ; 0x19 <__rc9>
    20f9: 20 48 05     	jsr	$548 <mathFloatAdd>
    20fc: a8           	tay
    20fd: a5 12        	lda	$12                     ; 0x12 <__rc2>
    20ff: 85 14        	sta	$14                     ; 0x14 <__rc4>
    2101: a5 12        	lda	$12                     ; 0x12 <__rc2>
    2103: 0a           	asl
    2104: a5 13        	lda	$13                     ; 0x13 <__rc3>
    2106: 2a           	rol
    2107: 85 12        	sta	$12                     ; 0x12 <__rc2>
    2109: 18           	clc
    210a: 69 81        	adc	#$81
    210c: 64 1c        	stz	$1c                     ; 0x1c <__rc12>
    210e: 10 03        	bpl	$2113 <redraw+0x136>
    2110: 4c b7 21     	jmp	$21b7 <redraw+0x1da>
    2113: c9 0f        	cmp	#$f
    2115: 90 16        	bcc	$212d <redraw+0x150>
    2117: a9 00        	lda	#$0
    2119: a6 13        	ldx	$13                     ; 0x13 <__rc3>
    211b: 30 02        	bmi	$211f <redraw+0x142>
    211d: a9 01        	lda	#$1
    211f: 4a           	lsr
    2120: a9 00        	lda	#$0
    2122: 6a           	ror
    2123: 30 03        	bmi	$2128 <redraw+0x14b>
    2125: 4c 99 21     	jmp	$2199 <redraw+0x1bc>
    2128: a2 ff        	ldx	#$ff
    212a: 4c 9b 21     	jmp	$219b <redraw+0x1be>
    212d: a5 14        	lda	$14                     ; 0x14 <__rc4>
    212f: 09 80        	ora	#$80
    2131: 85 14        	sta	$14                     ; 0x14 <__rc4>
    2133: a5 12        	lda	$12                     ; 0x12 <__rc2>
    2135: 85 15        	sta	$15                     ; 0x15 <__rc5>
    2137: 38           	sec
    2138: a9 9e        	lda	#$9e
    213a: e5 12        	sbc	$12                     ; 0x12 <__rc2>
    213c: 85 16        	sta	$16                     ; 0x16 <__rc6>
    213e: a5 14        	lda	$14                     ; 0x14 <__rc4>
    2140: 85 19        	sta	$19                     ; 0x19 <__rc9>
    2142: 18           	clc
    2143: a5 15        	lda	$15                     ; 0x15 <__rc5>
    2145: 69 6a        	adc	#$6a
    2147: 84 14        	sty	$14                     ; 0x14 <__rc4>
    2149: a4 19        	ldy	$19                     ; 0x19 <__rc9>
    214b: 84 12        	sty	$12                     ; 0x12 <__rc2>
    214d: a4 14        	ldy	$14                     ; 0x14 <__rc4>
    214f: 84 17        	sty	$17                     ; 0x17 <__rc7>
    2151: 86 14        	stx	$14                     ; 0x14 <__rc4>
    2153: 85 15        	sta	$15                     ; 0x15 <__rc5>
    2155: a8           	tay
    2156: 18           	clc
    2157: a5 16        	lda	$16                     ; 0x16 <__rc6>
    2159: 69 f8        	adc	#$f8
    215b: 85 16        	sta	$16                     ; 0x16 <__rc6>
    215d: c9 08        	cmp	#$8
    215f: a2 01        	ldx	#$1
    2161: b0 02        	bcs	$2165 <redraw+0x188>
    2163: a2 00        	ldx	#$0
    2165: 86 18        	stx	$18                     ; 0x18 <__rc8>
    2167: 18           	clc
    2168: a5 15        	lda	$15                     ; 0x15 <__rc5>
    216a: 69 08        	adc	#$8
    216c: 64 19        	stz	$19                     ; 0x19 <__rc9>
    216e: a6 12        	ldx	$12                     ; 0x12 <__rc2>
    2170: e6 18        	inc	$18                     ; 0x18 <__rc8>
    2172: c6 18        	dec	$18                     ; 0x18 <__rc8>
    2174: d0 d3        	bne	$2149 <redraw+0x16c>
    2176: a5 16        	lda	$16                     ; 0x16 <__rc6>
    2178: f0 28        	beq	$21a2 <redraw+0x1c5>
    217a: a6 14        	ldx	$14                     ; 0x14 <__rc4>
    217c: 46 12        	lsr	$12                     ; 0x12 <__rc2>
    217e: 64 14        	stz	$14                     ; 0x14 <__rc4>
    2180: 66 14        	ror	$14                     ; 0x14 <__rc4>
    2182: 8a           	txa
    2183: 4a           	lsr
    2184: 05 14        	ora	$14                     ; 0x14 <__rc4>
    2186: aa           	tax
    2187: a5 17        	lda	$17                     ; 0x17 <__rc7>
    2189: 64 14        	stz	$14                     ; 0x14 <__rc4>
    218b: 66 14        	ror	$14                     ; 0x14 <__rc4>
    218d: 4a           	lsr
    218e: 05 14        	ora	$14                     ; 0x14 <__rc4>
    2190: c8           	iny
    2191: 85 17        	sta	$17                     ; 0x17 <__rc7>
    2193: 85 14        	sta	$14                     ; 0x14 <__rc4>
    2195: d0 e5        	bne	$217c <redraw+0x19f>
    2197: 80 0d        	bra	$21a6 <redraw+0x1c9>
    2199: a2 00        	ldx	#$0
    219b: 0a           	asl
    219c: 86 1c        	stx	$1c                     ; 0x1c <__rc12>
    219e: 26 1c        	rol	$1c                     ; 0x1c <__rc12>
    21a0: 80 15        	bra	$21b7 <redraw+0x1da>
    21a2: a6 17        	ldx	$17                     ; 0x17 <__rc7>
    21a4: 86 14        	stx	$14                     ; 0x14 <__rc4>
    21a6: a5 13        	lda	$13                     ; 0x13 <__rc3>
    21a8: 30 06        	bmi	$21b0 <redraw+0x1d3>
    21aa: a6 14        	ldx	$14                     ; 0x14 <__rc4>
    21ac: 86 1c        	stx	$1c                     ; 0x1c <__rc12>
    21ae: 80 07        	bra	$21b7 <redraw+0x1da>
    21b0: a9 00        	lda	#$0
    21b2: 38           	sec
    21b3: e5 14        	sbc	$14                     ; 0x14 <__rc4>
    21b5: 85 1c        	sta	$1c                     ; 0x1c <__rc12>
    21b7: a0 02        	ldy	#$2
    21b9: b1 24        	lda	($24),y                 ; 0x24 <__rc20>
    21bb: 85 12        	sta	$12                     ; 0x12 <__rc2>
    21bd: c8           	iny
    21be: b1 24        	lda	($24),y                 ; 0x24 <__rc20>
    21c0: aa           	tax
    21c1: a5 12        	lda	$12                     ; 0x12 <__rc2>
    21c3: 85 14        	sta	$14                     ; 0x14 <__rc4>
    21c5: 0a           	asl
    21c6: 8a           	txa
    21c7: 86 16        	stx	$16                     ; 0x16 <__rc6>
    21c9: 2a           	rol
    21ca: aa           	tax
    21cb: 18           	clc
    21cc: 69 81        	adc	#$81
    21ce: 64 12        	stz	$12                     ; 0x12 <__rc2>
    21d0: 64 19        	stz	$19                     ; 0x19 <__rc9>
    21d2: 64 1a        	stz	$1a                     ; 0x1a <__rc10>
    21d4: 10 03        	bpl	$21d9 <redraw+0x1fc>
    21d6: 4c 8c 22     	jmp	$228c <redraw+0x2af>
    21d9: c9 0f        	cmp	#$f
    21db: 90 12        	bcc	$21ef <redraw+0x212>
    21dd: a5 16        	lda	$16                     ; 0x16 <__rc6>
    21df: 10 03        	bpl	$21e4 <redraw+0x207>
    21e1: 4c 69 22     	jmp	$2269 <redraw+0x28c>
    21e4: a2 7f        	ldx	#$7f
    21e6: 86 1a        	stx	$1a                     ; 0x1a <__rc10>
    21e8: a2 ff        	ldx	#$ff
    21ea: 86 19        	stx	$19                     ; 0x19 <__rc9>
    21ec: 4c 8c 22     	jmp	$228c <redraw+0x2af>
    21ef: a4 27        	ldy	$27                     ; 0x27 <__rc23>
    21f1: b2 24        	lda	($24)                   ; 0x24 <__rc20>
    21f3: 85 15        	sta	$15                     ; 0x15 <__rc5>
    21f5: 86 13        	stx	$13                     ; 0x13 <__rc3>
    21f7: 38           	sec
    21f8: a9 9e        	lda	#$9e
    21fa: e5 13        	sbc	$13                     ; 0x13 <__rc3>
    21fc: 85 17        	sta	$17                     ; 0x17 <__rc7>
    21fe: 18           	clc
    21ff: 8a           	txa
    2200: 69 6a        	adc	#$6a
    2202: 85 18        	sta	$18                     ; 0x18 <__rc8>
    2204: b1 24        	lda	($24),y                 ; 0x24 <__rc20>
    2206: 85 19        	sta	$19                     ; 0x19 <__rc9>
    2208: a5 14        	lda	$14                     ; 0x14 <__rc4>
    220a: 09 80        	ora	#$80
    220c: 85 13        	sta	$13                     ; 0x13 <__rc3>
    220e: a4 15        	ldy	$15                     ; 0x15 <__rc5>
    2210: 5a           	phy
    2211: a6 19        	ldx	$19                     ; 0x19 <__rc9>
    2213: 86 15        	stx	$15                     ; 0x15 <__rc5>
    2215: a6 18        	ldx	$18                     ; 0x18 <__rc8>
    2217: 18           	clc
    2218: a5 17        	lda	$17                     ; 0x17 <__rc7>
    221a: 69 f8        	adc	#$f8
    221c: 85 17        	sta	$17                     ; 0x17 <__rc7>
    221e: c9 08        	cmp	#$8
    2220: a0 01        	ldy	#$1
    2222: b0 02        	bcs	$2226 <redraw+0x249>
    2224: a0 00        	ldy	#$0
    2226: 84 14        	sty	$14                     ; 0x14 <__rc4>
    2228: 18           	clc
    2229: a5 18        	lda	$18                     ; 0x18 <__rc8>
    222b: 69 08        	adc	#$8
    222d: 85 18        	sta	$18                     ; 0x18 <__rc8>
    222f: a9 00        	lda	#$0
    2231: a4 13        	ldy	$13                     ; 0x13 <__rc3>
    2233: 84 19        	sty	$19                     ; 0x19 <__rc9>
    2235: 7a           	ply
    2236: e6 14        	inc	$14                     ; 0x14 <__rc4>
    2238: c6 14        	dec	$14                     ; 0x14 <__rc4>
    223a: d0 d0        	bne	$220c <redraw+0x22f>
    223c: a5 15        	lda	$15                     ; 0x15 <__rc5>
    223e: e6 17        	inc	$17                     ; 0x17 <__rc7>
    2240: c6 17        	dec	$17                     ; 0x17 <__rc7>
    2242: f0 29        	beq	$226d <redraw+0x290>
    2244: 85 17        	sta	$17                     ; 0x17 <__rc7>
    2246: 98           	tya
    2247: 46 13        	lsr	$13                     ; 0x13 <__rc3>
    2249: 64 14        	stz	$14                     ; 0x14 <__rc4>
    224b: 66 14        	ror	$14                     ; 0x14 <__rc4>
    224d: 85 18        	sta	$18                     ; 0x18 <__rc8>
    224f: a5 17        	lda	$17                     ; 0x17 <__rc7>
    2251: 4a           	lsr
    2252: 05 14        	ora	$14                     ; 0x14 <__rc4>
    2254: a8           	tay
    2255: a5 18        	lda	$18                     ; 0x18 <__rc8>
    2257: 64 14        	stz	$14                     ; 0x14 <__rc4>
    2259: 66 14        	ror	$14                     ; 0x14 <__rc4>
    225b: 4a           	lsr
    225c: 05 14        	ora	$14                     ; 0x14 <__rc4>
    225e: e8           	inx
    225f: 84 17        	sty	$17                     ; 0x17 <__rc7>
    2261: 84 14        	sty	$14                     ; 0x14 <__rc4>
    2263: 85 15        	sta	$15                     ; 0x15 <__rc5>
    2265: d0 e0        	bne	$2247 <redraw+0x26a>
    2267: 80 08        	bra	$2271 <redraw+0x294>
    2269: a2 80        	ldx	#$80
    226b: 80 0e        	bra	$227b <redraw+0x29e>
    226d: 85 14        	sta	$14                     ; 0x14 <__rc4>
    226f: 84 15        	sty	$15                     ; 0x15 <__rc5>
    2271: a5 16        	lda	$16                     ; 0x16 <__rc6>
    2273: 30 0a        	bmi	$227f <redraw+0x2a2>
    2275: a6 15        	ldx	$15                     ; 0x15 <__rc5>
    2277: 86 19        	stx	$19                     ; 0x19 <__rc9>
    2279: a6 14        	ldx	$14                     ; 0x14 <__rc4>
    227b: 86 1a        	stx	$1a                     ; 0x1a <__rc10>
    227d: 80 0d        	bra	$228c <redraw+0x2af>
    227f: a9 00        	lda	#$0
    2281: 38           	sec
    2282: e5 15        	sbc	$15                     ; 0x15 <__rc5>
    2284: 85 19        	sta	$19                     ; 0x19 <__rc9>
    2286: a9 00        	lda	#$0
    2288: e5 14        	sbc	$14                     ; 0x14 <__rc4>
    228a: 85 1a        	sta	$1a                     ; 0x1a <__rc10>
    228c: a2 01        	ldx	#$1
    228e: 86 1b        	stx	$1b                     ; 0x1b <__rc11>
    2290: 18           	clc
    2291: a5 24        	lda	$24                     ; 0x24 <__rc20>
    2293: 69 04        	adc	#$4
    2295: aa           	tax
    2296: a5 2f        	lda	$2f                     ; 0x2f <__rc31>
    2298: 69 00        	adc	#$0
    229a: 86 1d        	stx	$1d                     ; 0x1d <__rc13>
    229c: 86 14        	stx	$14                     ; 0x14 <__rc4>
    229e: 85 1e        	sta	$1e                     ; 0x1e <__rc14>
    22a0: 85 15        	sta	$15                     ; 0x15 <__rc5>
    22a2: a0 02        	ldy	#$2
    22a4: b1 14        	lda	($14),y                 ; 0x14 <__rc4>
    22a6: 85 13        	sta	$13                     ; 0x13 <__rc3>
    22a8: c8           	iny
    22a9: b1 14        	lda	($14),y                 ; 0x14 <__rc4>
    22ab: aa           	tax
    22ac: a5 13        	lda	$13                     ; 0x13 <__rc3>
    22ae: 0a           	asl
    22af: 8a           	txa
    22b0: 86 16        	stx	$16                     ; 0x16 <__rc6>
    22b2: 2a           	rol
    22b3: aa           	tax
    22b4: 18           	clc
    22b5: 69 81        	adc	#$81
    22b7: 10 03        	bpl	$22bc <redraw+0x2df>
    22b9: 4c 5e 23     	jmp	$235e <redraw+0x381>
    22bc: c9 0f        	cmp	#$f
    22be: 90 17        	bcc	$22d7 <redraw+0x2fa>
    22c0: a9 00        	lda	#$0
    22c2: a6 16        	ldx	$16                     ; 0x16 <__rc6>
    22c4: 30 02        	bmi	$22c8 <redraw+0x2eb>
    22c6: a9 01        	lda	#$1
    22c8: 4a           	lsr
    22c9: 64 12        	stz	$12                     ; 0x12 <__rc2>
    22cb: 66 12        	ror	$12                     ; 0x12 <__rc2>
    22cd: 30 03        	bmi	$22d2 <redraw+0x2f5>
    22cf: 4c 44 23     	jmp	$2344 <redraw+0x367>
    22d2: a9 ff        	lda	#$ff
    22d4: 4c 46 23     	jmp	$2346 <redraw+0x369>
    22d7: a0 04        	ldy	#$4
    22d9: b1 24        	lda	($24),y                 ; 0x24 <__rc20>
    22db: 85 17        	sta	$17                     ; 0x17 <__rc7>
    22dd: 86 12        	stx	$12                     ; 0x12 <__rc2>
    22df: 38           	sec
    22e0: a9 9e        	lda	#$9e
    22e2: e5 12        	sbc	$12                     ; 0x12 <__rc2>
    22e4: 85 18        	sta	$18                     ; 0x18 <__rc8>
    22e6: 18           	clc
    22e7: 8a           	txa
    22e8: 69 6a        	adc	#$6a
    22ea: 85 12        	sta	$12                     ; 0x12 <__rc2>
    22ec: a0 01        	ldy	#$1
    22ee: b1 14        	lda	($14),y                 ; 0x14 <__rc4>
    22f0: a8           	tay
    22f1: a5 13        	lda	$13                     ; 0x13 <__rc3>
    22f3: 09 80        	ora	#$80
    22f5: 85 13        	sta	$13                     ; 0x13 <__rc3>
    22f7: a6 17        	ldx	$17                     ; 0x17 <__rc7>
    22f9: 86 14        	stx	$14                     ; 0x14 <__rc4>
    22fb: 84 17        	sty	$17                     ; 0x17 <__rc7>
    22fd: a6 12        	ldx	$12                     ; 0x12 <__rc2>
    22ff: 18           	clc
    2300: a5 18        	lda	$18                     ; 0x18 <__rc8>
    2302: 69 f8        	adc	#$f8
    2304: 85 18        	sta	$18                     ; 0x18 <__rc8>
    2306: c9 08        	cmp	#$8
    2308: a0 01        	ldy	#$1
    230a: b0 02        	bcs	$230e <redraw+0x331>
    230c: a0 00        	ldy	#$0
    230e: 84 15        	sty	$15                     ; 0x15 <__rc5>
    2310: 18           	clc
    2311: a5 12        	lda	$12                     ; 0x12 <__rc2>
    2313: 69 08        	adc	#$8
    2315: 85 12        	sta	$12                     ; 0x12 <__rc2>
    2317: a9 00        	lda	#$0
    2319: a4 13        	ldy	$13                     ; 0x13 <__rc3>
    231b: e6 15        	inc	$15                     ; 0x15 <__rc5>
    231d: c6 15        	dec	$15                     ; 0x15 <__rc5>
    231f: d0 d4        	bne	$22f5 <redraw+0x318>
    2321: a5 18        	lda	$18                     ; 0x18 <__rc8>
    2323: f0 26        	beq	$234b <redraw+0x36e>
    2325: a4 17        	ldy	$17                     ; 0x17 <__rc7>
    2327: 46 13        	lsr	$13                     ; 0x13 <__rc3>
    2329: 64 12        	stz	$12                     ; 0x12 <__rc2>
    232b: 66 12        	ror	$12                     ; 0x12 <__rc2>
    232d: 98           	tya
    232e: 4a           	lsr
    232f: 05 12        	ora	$12                     ; 0x12 <__rc2>
    2331: a8           	tay
    2332: a5 14        	lda	$14                     ; 0x14 <__rc4>
    2334: 64 12        	stz	$12                     ; 0x12 <__rc2>
    2336: 66 12        	ror	$12                     ; 0x12 <__rc2>
    2338: 4a           	lsr
    2339: 05 12        	ora	$12                     ; 0x12 <__rc2>
    233b: e8           	inx
    233c: 85 14        	sta	$14                     ; 0x14 <__rc4>
    233e: 85 12        	sta	$12                     ; 0x12 <__rc2>
    2340: d0 e5        	bne	$2327 <redraw+0x34a>
    2342: 80 0b        	bra	$234f <redraw+0x372>
    2344: a9 00        	lda	#$0
    2346: 06 12        	asl	$12                     ; 0x12 <__rc2>
    2348: 2a           	rol
    2349: 80 11        	bra	$235c <redraw+0x37f>
    234b: a6 14        	ldx	$14                     ; 0x14 <__rc4>
    234d: 86 12        	stx	$12                     ; 0x12 <__rc2>
    234f: a2 01        	ldx	#$1
    2351: 86 1b        	stx	$1b                     ; 0x1b <__rc11>
    2353: a5 16        	lda	$16                     ; 0x16 <__rc6>
    2355: 10 07        	bpl	$235e <redraw+0x381>
    2357: a9 00        	lda	#$0
    2359: 38           	sec
    235a: e5 12        	sbc	$12                     ; 0x12 <__rc2>
    235c: 85 12        	sta	$12                     ; 0x12 <__rc2>
    235e: 06 2d        	asl	$2d                     ; 0x2d <__rc29>
    2360: 26 2c        	rol	$2c                     ; 0x2c <__rc28>
    2362: 06 2d        	asl	$2d                     ; 0x2d <__rc29>
    2364: 26 2c        	rol	$2c                     ; 0x2c <__rc28>
    2366: a9 30        	lda	#$30
    2368: 18           	clc
    2369: 65 2d        	adc	$2d                     ; 0x2d <__rc29>
    236b: aa           	tax
    236c: a9 00        	lda	#$0
    236e: 65 2c        	adc	$2c                     ; 0x2c <__rc28>
    2370: 86 1f        	stx	$1f                     ; 0x1f <__rc15>
    2372: 86 14        	stx	$14                     ; 0x14 <__rc4>
    2374: 85 22        	sta	$22                     ; 0x22 <__rc18>
    2376: 85 15        	sta	$15                     ; 0x15 <__rc5>
    2378: a0 02        	ldy	#$2
    237a: b1 14        	lda	($14),y                 ; 0x14 <__rc4>
    237c: 85 13        	sta	$13                     ; 0x13 <__rc3>
    237e: c8           	iny
    237f: b1 14        	lda	($14),y                 ; 0x14 <__rc4>
    2381: aa           	tax
    2382: a5 13        	lda	$13                     ; 0x13 <__rc3>
    2384: 85 17        	sta	$17                     ; 0x17 <__rc7>
    2386: 0a           	asl
    2387: 8a           	txa
    2388: 86 23        	stx	$23                     ; 0x23 <__rc19>
    238a: 2a           	rol
    238b: aa           	tax
    238c: 18           	clc
    238d: 69 81        	adc	#$81
    238f: 64 13        	stz	$13                     ; 0x13 <__rc3>
    2391: 64 16        	stz	$16                     ; 0x16 <__rc6>
    2393: a0 00        	ldy	#$0
    2395: c9 00        	cmp	#$0
    2397: 10 03        	bpl	$239c <redraw+0x3bf>
    2399: 4c 4e 24     	jmp	$244e <redraw+0x471>
    239c: c9 0f        	cmp	#$f
    239e: 90 0e        	bcc	$23ae <redraw+0x3d1>
    23a0: a5 23        	lda	$23                     ; 0x23 <__rc19>
    23a2: 10 03        	bpl	$23a7 <redraw+0x3ca>
    23a4: 4c 26 24     	jmp	$2426 <redraw+0x449>
    23a7: a0 7f        	ldy	#$7f
    23a9: a2 ff        	ldx	#$ff
    23ab: 4c 2a 24     	jmp	$242a <redraw+0x44d>
    23ae: b2 14        	lda	($14)                   ; 0x14 <__rc4>
    23b0: 85 18        	sta	$18                     ; 0x18 <__rc8>
    23b2: 86 16        	stx	$16                     ; 0x16 <__rc6>
    23b4: 38           	sec
    23b5: a9 9e        	lda	#$9e
    23b7: e5 16        	sbc	$16                     ; 0x16 <__rc6>
    23b9: 85 1b        	sta	$1b                     ; 0x1b <__rc11>
    23bb: 18           	clc
    23bc: 8a           	txa
    23bd: 69 6a        	adc	#$6a
    23bf: 85 27        	sta	$27                     ; 0x27 <__rc23>
    23c1: a0 01        	ldy	#$1
    23c3: b1 14        	lda	($14),y                 ; 0x14 <__rc4>
    23c5: aa           	tax
    23c6: a5 17        	lda	$17                     ; 0x17 <__rc7>
    23c8: 09 80        	ora	#$80
    23ca: 85 17        	sta	$17                     ; 0x17 <__rc7>
    23cc: 8a           	txa
    23cd: a6 17        	ldx	$17                     ; 0x17 <__rc7>
    23cf: 86 16        	stx	$16                     ; 0x16 <__rc6>
    23d1: a4 18        	ldy	$18                     ; 0x18 <__rc8>
    23d3: 85 18        	sta	$18                     ; 0x18 <__rc8>
    23d5: a6 27        	ldx	$27                     ; 0x27 <__rc23>
    23d7: 18           	clc
    23d8: a5 1b        	lda	$1b                     ; 0x1b <__rc11>
    23da: 69 f8        	adc	#$f8
    23dc: 85 1b        	sta	$1b                     ; 0x1b <__rc11>
    23de: c9 08        	cmp	#$8
    23e0: a9 01        	lda	#$1
    23e2: b0 02        	bcs	$23e6 <redraw+0x409>
    23e4: a9 00        	lda	#$0
    23e6: 85 2c        	sta	$2c                     ; 0x2c <__rc28>
    23e8: 18           	clc
    23e9: a5 27        	lda	$27                     ; 0x27 <__rc23>
    23eb: 69 08        	adc	#$8
    23ed: 85 27        	sta	$27                     ; 0x27 <__rc23>
    23ef: 64 17        	stz	$17                     ; 0x17 <__rc7>
    23f1: a5 16        	lda	$16                     ; 0x16 <__rc6>
    23f3: e6 2c        	inc	$2c                     ; 0x2c <__rc28>
    23f5: c6 2c        	dec	$2c                     ; 0x2c <__rc28>
    23f7: d0 d4        	bne	$23cd <redraw+0x3f0>
    23f9: a5 18        	lda	$18                     ; 0x18 <__rc8>
    23fb: e6 1b        	inc	$1b                     ; 0x1b <__rc11>
    23fd: c6 1b        	dec	$1b                     ; 0x1b <__rc11>
    23ff: f0 2d        	beq	$242e <redraw+0x451>
    2401: 85 1b        	sta	$1b                     ; 0x1b <__rc11>
    2403: 98           	tya
    2404: 46 16        	lsr	$16                     ; 0x16 <__rc6>
    2406: 64 17        	stz	$17                     ; 0x17 <__rc7>
    2408: 66 17        	ror	$17                     ; 0x17 <__rc7>
    240a: 85 27        	sta	$27                     ; 0x27 <__rc23>
    240c: a5 1b        	lda	$1b                     ; 0x1b <__rc11>
    240e: 4a           	lsr
    240f: 05 17        	ora	$17                     ; 0x17 <__rc7>
    2411: a8           	tay
    2412: a5 27        	lda	$27                     ; 0x27 <__rc23>
    2414: 64 17        	stz	$17                     ; 0x17 <__rc7>
    2416: 66 17        	ror	$17                     ; 0x17 <__rc7>
    2418: 4a           	lsr
    2419: 05 17        	ora	$17                     ; 0x17 <__rc7>
    241b: e8           	inx
    241c: 84 1b        	sty	$1b                     ; 0x1b <__rc11>
    241e: 84 17        	sty	$17                     ; 0x17 <__rc7>
    2420: 85 18        	sta	$18                     ; 0x18 <__rc8>
    2422: d0 e0        	bne	$2404 <redraw+0x427>
    2424: 80 0c        	bra	$2432 <redraw+0x455>
    2426: a0 80        	ldy	#$80
    2428: a2 00        	ldx	#$0
    242a: 86 16        	stx	$16                     ; 0x16 <__rc6>
    242c: 80 20        	bra	$244e <redraw+0x471>
    242e: 85 17        	sta	$17                     ; 0x17 <__rc7>
    2430: 84 18        	sty	$18                     ; 0x18 <__rc8>
    2432: a2 01        	ldx	#$1
    2434: 86 1b        	stx	$1b                     ; 0x1b <__rc11>
    2436: a5 23        	lda	$23                     ; 0x23 <__rc19>
    2438: 30 08        	bmi	$2442 <redraw+0x465>
    243a: a6 18        	ldx	$18                     ; 0x18 <__rc8>
    243c: 86 16        	stx	$16                     ; 0x16 <__rc6>
    243e: a4 17        	ldy	$17                     ; 0x17 <__rc7>
    2440: 80 0c        	bra	$244e <redraw+0x471>
    2442: a9 00        	lda	#$0
    2444: 38           	sec
    2445: e5 18        	sbc	$18                     ; 0x18 <__rc8>
    2447: 85 16        	sta	$16                     ; 0x16 <__rc6>
    2449: a9 00        	lda	#$0
    244b: e5 17        	sbc	$17                     ; 0x17 <__rc7>
    244d: a8           	tay
    244e: 18           	clc
    244f: a5 19        	lda	$19                     ; 0x19 <__rc9>
    2451: 69 a0        	adc	#$a0
    2453: 85 18        	sta	$18                     ; 0x18 <__rc8>
    2455: a5 1a        	lda	$1a                     ; 0x1a <__rc10>
    2457: 69 00        	adc	#$0
    2459: 85 19        	sta	$19                     ; 0x19 <__rc9>
    245b: 18           	clc
    245c: a5 16        	lda	$16                     ; 0x16 <__rc6>
    245e: 69 a0        	adc	#$a0
    2460: 85 23        	sta	$23                     ; 0x23 <__rc19>
    2462: 98           	tya
    2463: 69 00        	adc	#$0
    2465: 85 27        	sta	$27                     ; 0x27 <__rc23>
    2467: 18           	clc
    2468: a5 1f        	lda	$1f                     ; 0x1f <__rc15>
    246a: 69 04        	adc	#$4
    246c: aa           	tax
    246d: a5 22        	lda	$22                     ; 0x22 <__rc18>
    246f: 69 00        	adc	#$0
    2471: 86 1a        	stx	$1a                     ; 0x1a <__rc10>
    2473: 86 16        	stx	$16                     ; 0x16 <__rc6>
    2475: 85 22        	sta	$22                     ; 0x22 <__rc18>
    2477: 85 17        	sta	$17                     ; 0x17 <__rc7>
    2479: a0 02        	ldy	#$2
    247b: b1 16        	lda	($16),y                 ; 0x16 <__rc6>
    247d: 85 1f        	sta	$1f                     ; 0x1f <__rc15>
    247f: c8           	iny
    2480: b1 16        	lda	($16),y                 ; 0x16 <__rc6>
    2482: aa           	tax
    2483: a5 1f        	lda	$1f                     ; 0x1f <__rc15>
    2485: 85 2c        	sta	$2c                     ; 0x2c <__rc28>
    2487: 0a           	asl
    2488: 8a           	txa
    2489: 86 1f        	stx	$1f                     ; 0x1f <__rc15>
    248b: 2a           	rol
    248c: aa           	tax
    248d: 18           	clc
    248e: 69 81        	adc	#$81
    2490: 10 03        	bpl	$2495 <redraw+0x4b8>
    2492: 4c 37 25     	jmp	$2537 <redraw+0x55a>
    2495: c9 0f        	cmp	#$f
    2497: 90 17        	bcc	$24b0 <redraw+0x4d3>
    2499: a9 00        	lda	#$0
    249b: a6 1f        	ldx	$1f                     ; 0x1f <__rc15>
    249d: 30 02        	bmi	$24a1 <redraw+0x4c4>
    249f: a9 01        	lda	#$1
    24a1: 4a           	lsr
    24a2: 64 13        	stz	$13                     ; 0x13 <__rc3>
    24a4: 66 13        	ror	$13                     ; 0x13 <__rc3>
    24a6: 30 03        	bmi	$24ab <redraw+0x4ce>
    24a8: 4c 1d 25     	jmp	$251d <redraw+0x540>
    24ab: a9 ff        	lda	#$ff
    24ad: 4c 1f 25     	jmp	$251f <redraw+0x542>
    24b0: a0 04        	ldy	#$4
    24b2: b1 14        	lda	($14),y                 ; 0x14 <__rc4>
    24b4: 85 1b        	sta	$1b                     ; 0x1b <__rc11>
    24b6: 86 13        	stx	$13                     ; 0x13 <__rc3>
    24b8: 38           	sec
    24b9: a9 9e        	lda	#$9e
    24bb: e5 13        	sbc	$13                     ; 0x13 <__rc3>
    24bd: 85 2d        	sta	$2d                     ; 0x2d <__rc29>
    24bf: 18           	clc
    24c0: 8a           	txa
    24c1: 69 6a        	adc	#$6a
    24c3: 85 13        	sta	$13                     ; 0x13 <__rc3>
    24c5: a0 01        	ldy	#$1
    24c7: b1 16        	lda	($16),y                 ; 0x16 <__rc6>
    24c9: a8           	tay
    24ca: a5 2c        	lda	$2c                     ; 0x2c <__rc28>
    24cc: 09 80        	ora	#$80
    24ce: 85 16        	sta	$16                     ; 0x16 <__rc6>
    24d0: a6 1b        	ldx	$1b                     ; 0x1b <__rc11>
    24d2: 86 17        	stx	$17                     ; 0x17 <__rc7>
    24d4: 84 1b        	sty	$1b                     ; 0x1b <__rc11>
    24d6: a6 13        	ldx	$13                     ; 0x13 <__rc3>
    24d8: 18           	clc
    24d9: a5 2d        	lda	$2d                     ; 0x2d <__rc29>
    24db: 69 f8        	adc	#$f8
    24dd: 85 2d        	sta	$2d                     ; 0x2d <__rc29>
    24df: c9 08        	cmp	#$8
    24e1: a0 01        	ldy	#$1
    24e3: b0 02        	bcs	$24e7 <redraw+0x50a>
    24e5: a0 00        	ldy	#$0
    24e7: 84 2c        	sty	$2c                     ; 0x2c <__rc28>
    24e9: 18           	clc
    24ea: a5 13        	lda	$13                     ; 0x13 <__rc3>
    24ec: 69 08        	adc	#$8
    24ee: 85 13        	sta	$13                     ; 0x13 <__rc3>
    24f0: a9 00        	lda	#$0
    24f2: a4 16        	ldy	$16                     ; 0x16 <__rc6>
    24f4: e6 2c        	inc	$2c                     ; 0x2c <__rc28>
    24f6: c6 2c        	dec	$2c                     ; 0x2c <__rc28>
    24f8: d0 d4        	bne	$24ce <redraw+0x4f1>
    24fa: a5 2d        	lda	$2d                     ; 0x2d <__rc29>
    24fc: f0 26        	beq	$2524 <redraw+0x547>
    24fe: a4 1b        	ldy	$1b                     ; 0x1b <__rc11>
    2500: 46 16        	lsr	$16                     ; 0x16 <__rc6>
    2502: 64 13        	stz	$13                     ; 0x13 <__rc3>
    2504: 66 13        	ror	$13                     ; 0x13 <__rc3>
    2506: 98           	tya
    2507: 4a           	lsr
    2508: 05 13        	ora	$13                     ; 0x13 <__rc3>
    250a: a8           	tay
    250b: a5 17        	lda	$17                     ; 0x17 <__rc7>
    250d: 64 13        	stz	$13                     ; 0x13 <__rc3>
    250f: 66 13        	ror	$13                     ; 0x13 <__rc3>
    2511: 4a           	lsr
    2512: 05 13        	ora	$13                     ; 0x13 <__rc3>
    2514: e8           	inx
    2515: 85 17        	sta	$17                     ; 0x17 <__rc7>
    2517: 85 13        	sta	$13                     ; 0x13 <__rc3>
    2519: d0 e5        	bne	$2500 <redraw+0x523>
    251b: 80 0b        	bra	$2528 <redraw+0x54b>
    251d: a9 00        	lda	#$0
    251f: 06 13        	asl	$13                     ; 0x13 <__rc3>
    2521: 2a           	rol
    2522: 80 11        	bra	$2535 <redraw+0x558>
    2524: a6 17        	ldx	$17                     ; 0x17 <__rc7>
    2526: 86 13        	stx	$13                     ; 0x13 <__rc3>
    2528: a2 01        	ldx	#$1
    252a: 86 1b        	stx	$1b                     ; 0x1b <__rc11>
    252c: a5 1f        	lda	$1f                     ; 0x1f <__rc15>
    252e: 10 07        	bpl	$2537 <redraw+0x55a>
    2530: a9 00        	lda	#$0
    2532: 38           	sec
    2533: e5 13        	sbc	$13                     ; 0x13 <__rc3>
    2535: 85 13        	sta	$13                     ; 0x13 <__rc3>
    2537: 38           	sec
    2538: a9 8c        	lda	#$8c
    253a: e5 12        	sbc	$12                     ; 0x12 <__rc2>
    253c: a8           	tay
    253d: 38           	sec
    253e: a9 8c        	lda	#$8c
    2540: e5 13        	sbc	$13                     ; 0x13 <__rc3>
    2542: a6 28        	ldx	$28                     ; 0x28 <__rc24>
    2544: 8e 80 d1     	stx	$d180                   ; 0xd180 <__heap_start+0xa0b6>
    2547: 9c 82 d1     	stz	$d182                   ; 0xd182 <__heap_start+0xa0b8>
    254a: 9c 83 d1     	stz	$d183                   ; 0xd183 <__heap_start+0xa0b9>
    254d: a6 1c        	ldx	$1c                     ; 0x1c <__rc12>
    254f: 8e 81 d1     	stx	$d181                   ; 0xd181 <__heap_start+0xa0b7>
    2552: a6 18        	ldx	$18                     ; 0x18 <__rc8>
    2554: 8e 82 d1     	stx	$d182                   ; 0xd182 <__heap_start+0xa0b8>
    2557: a6 19        	ldx	$19                     ; 0x19 <__rc9>
    2559: 8e 83 d1     	stx	$d183                   ; 0xd183 <__heap_start+0xa0b9>
    255c: a6 23        	ldx	$23                     ; 0x23 <__rc19>
    255e: 8e 84 d1     	stx	$d184                   ; 0xd184 <__heap_start+0xa0ba>
    2561: a6 27        	ldx	$27                     ; 0x27 <__rc23>
    2563: 8e 85 d1     	stx	$d185                   ; 0xd185 <__heap_start+0xa0bb>
    2566: 8c 86 d1     	sty	$d186                   ; 0xd186 <__heap_start+0xa0bc>
    2569: 8d 87 d1     	sta	$d187                   ; 0xd187 <__heap_start+0xa0bd>
    256c: a6 26        	ldx	$26                     ; 0x26 <__rc22>
    256e: 8e 80 d1     	stx	$d180                   ; 0xd180 <__heap_start+0xa0b6>
    2571: ae 80 d1     	ldx	$d180                   ; 0xd180 <__heap_start+0xa0b6>
    2574: 10 fb        	bpl	$2571 <redraw+0x594>
    2576: a0 02        	ldy	#$2
    2578: b1 14        	lda	($14),y                 ; 0x14 <__rc4>
    257a: 85 12        	sta	$12                     ; 0x12 <__rc2>
    257c: c8           	iny
    257d: b1 14        	lda	($14),y                 ; 0x14 <__rc4>
    257f: aa           	tax
    2580: a5 12        	lda	$12                     ; 0x12 <__rc2>
    2582: 85 13        	sta	$13                     ; 0x13 <__rc3>
    2584: 0a           	asl
    2585: 8a           	txa
    2586: 86 18        	stx	$18                     ; 0x18 <__rc8>
    2588: 2a           	rol
    2589: aa           	tax
    258a: 18           	clc
    258b: 69 81        	adc	#$81
    258d: 64 16        	stz	$16                     ; 0x16 <__rc6>
    258f: 64 19        	stz	$19                     ; 0x19 <__rc9>
    2591: 64 1f        	stz	$1f                     ; 0x1f <__rc15>
    2593: 10 03        	bpl	$2598 <redraw+0x5bb>
    2595: 4c 53 26     	jmp	$2653 <redraw+0x676>
    2598: c9 0f        	cmp	#$f
    259a: 90 12        	bcc	$25ae <redraw+0x5d1>
    259c: a5 18        	lda	$18                     ; 0x18 <__rc8>
    259e: 10 03        	bpl	$25a3 <redraw+0x5c6>
    25a0: 4c 28 26     	jmp	$2628 <redraw+0x64b>
    25a3: a2 7f        	ldx	#$7f
    25a5: 86 1f        	stx	$1f                     ; 0x1f <__rc15>
    25a7: a2 ff        	ldx	#$ff
    25a9: 86 19        	stx	$19                     ; 0x19 <__rc9>
    25ab: 4c 53 26     	jmp	$2653 <redraw+0x676>
    25ae: b2 14        	lda	($14)                   ; 0x14 <__rc4>
    25b0: 85 17        	sta	$17                     ; 0x17 <__rc7>
    25b2: 86 12        	stx	$12                     ; 0x12 <__rc2>
    25b4: 38           	sec
    25b5: a9 9e        	lda	#$9e
    25b7: e5 12        	sbc	$12                     ; 0x12 <__rc2>
    25b9: 85 19        	sta	$19                     ; 0x19 <__rc9>
    25bb: 18           	clc
    25bc: 8a           	txa
    25bd: 69 6a        	adc	#$6a
    25bf: 85 1b        	sta	$1b                     ; 0x1b <__rc11>
    25c1: a0 01        	ldy	#$1
    25c3: b1 14        	lda	($14),y                 ; 0x14 <__rc4>
    25c5: 85 1f        	sta	$1f                     ; 0x1f <__rc15>
    25c7: a5 13        	lda	$13                     ; 0x13 <__rc3>
    25c9: 09 80        	ora	#$80
    25cb: 85 12        	sta	$12                     ; 0x12 <__rc2>
    25cd: a4 17        	ldy	$17                     ; 0x17 <__rc7>
    25cf: 5a           	phy
    25d0: a6 1f        	ldx	$1f                     ; 0x1f <__rc15>
    25d2: 86 17        	stx	$17                     ; 0x17 <__rc7>
    25d4: a6 1b        	ldx	$1b                     ; 0x1b <__rc11>
    25d6: 18           	clc
    25d7: a5 19        	lda	$19                     ; 0x19 <__rc9>
    25d9: 69 f8        	adc	#$f8
    25db: 85 19        	sta	$19                     ; 0x19 <__rc9>
    25dd: c9 08        	cmp	#$8
    25df: a0 01        	ldy	#$1
    25e1: b0 02        	bcs	$25e5 <redraw+0x608>
    25e3: a0 00        	ldy	#$0
    25e5: 84 13        	sty	$13                     ; 0x13 <__rc3>
    25e7: 18           	clc
    25e8: a5 1b        	lda	$1b                     ; 0x1b <__rc11>
    25ea: 69 08        	adc	#$8
    25ec: 85 1b        	sta	$1b                     ; 0x1b <__rc11>
    25ee: a9 00        	lda	#$0
    25f0: a4 12        	ldy	$12                     ; 0x12 <__rc2>
    25f2: 84 1f        	sty	$1f                     ; 0x1f <__rc15>
    25f4: 7a           	ply
    25f5: e6 13        	inc	$13                     ; 0x13 <__rc3>
    25f7: c6 13        	dec	$13                     ; 0x13 <__rc3>
    25f9: d0 d0        	bne	$25cb <redraw+0x5ee>
    25fb: a5 17        	lda	$17                     ; 0x17 <__rc7>
    25fd: e6 19        	inc	$19                     ; 0x19 <__rc9>
    25ff: c6 19        	dec	$19                     ; 0x19 <__rc9>
    2601: f0 2d        	beq	$2630 <redraw+0x653>
    2603: 85 19        	sta	$19                     ; 0x19 <__rc9>
    2605: 98           	tya
    2606: 46 12        	lsr	$12                     ; 0x12 <__rc2>
    2608: 64 13        	stz	$13                     ; 0x13 <__rc3>
    260a: 66 13        	ror	$13                     ; 0x13 <__rc3>
    260c: 85 1b        	sta	$1b                     ; 0x1b <__rc11>
    260e: a5 19        	lda	$19                     ; 0x19 <__rc9>
    2610: 4a           	lsr
    2611: 05 13        	ora	$13                     ; 0x13 <__rc3>
    2613: a8           	tay
    2614: a5 1b        	lda	$1b                     ; 0x1b <__rc11>
    2616: 64 13        	stz	$13                     ; 0x13 <__rc3>
    2618: 66 13        	ror	$13                     ; 0x13 <__rc3>
    261a: 4a           	lsr
    261b: 05 13        	ora	$13                     ; 0x13 <__rc3>
    261d: e8           	inx
    261e: 84 19        	sty	$19                     ; 0x19 <__rc9>
    2620: 84 13        	sty	$13                     ; 0x13 <__rc3>
    2622: 85 17        	sta	$17                     ; 0x17 <__rc7>
    2624: d0 e0        	bne	$2606 <redraw+0x629>
    2626: 80 0c        	bra	$2634 <redraw+0x657>
    2628: a2 80        	ldx	#$80
    262a: 86 1f        	stx	$1f                     ; 0x1f <__rc15>
    262c: 64 19        	stz	$19                     ; 0x19 <__rc9>
    262e: 80 23        	bra	$2653 <redraw+0x676>
    2630: 85 13        	sta	$13                     ; 0x13 <__rc3>
    2632: 84 17        	sty	$17                     ; 0x17 <__rc7>
    2634: a2 01        	ldx	#$1
    2636: 86 1b        	stx	$1b                     ; 0x1b <__rc11>
    2638: a5 18        	lda	$18                     ; 0x18 <__rc8>
    263a: 30 0a        	bmi	$2646 <redraw+0x669>
    263c: a6 17        	ldx	$17                     ; 0x17 <__rc7>
    263e: 86 19        	stx	$19                     ; 0x19 <__rc9>
    2640: a6 13        	ldx	$13                     ; 0x13 <__rc3>
    2642: 86 1f        	stx	$1f                     ; 0x1f <__rc15>
    2644: 80 0d        	bra	$2653 <redraw+0x676>
    2646: a9 00        	lda	#$0
    2648: 38           	sec
    2649: e5 17        	sbc	$17                     ; 0x17 <__rc7>
    264b: 85 19        	sta	$19                     ; 0x19 <__rc9>
    264d: a9 00        	lda	#$0
    264f: e5 13        	sbc	$13                     ; 0x13 <__rc3>
    2651: 85 1f        	sta	$1f                     ; 0x1f <__rc15>
    2653: a6 1a        	ldx	$1a                     ; 0x1a <__rc10>
    2655: 86 12        	stx	$12                     ; 0x12 <__rc2>
    2657: a6 22        	ldx	$22                     ; 0x22 <__rc18>
    2659: 86 13        	stx	$13                     ; 0x13 <__rc3>
    265b: a0 02        	ldy	#$2
    265d: b1 12        	lda	($12),y                 ; 0x12 <__rc2>
    265f: 85 17        	sta	$17                     ; 0x17 <__rc7>
    2661: c8           	iny
    2662: b1 12        	lda	($12),y                 ; 0x12 <__rc2>
    2664: aa           	tax
    2665: a5 17        	lda	$17                     ; 0x17 <__rc7>
    2667: 85 18        	sta	$18                     ; 0x18 <__rc8>
    2669: 0a           	asl
    266a: 8a           	txa
    266b: 86 17        	stx	$17                     ; 0x17 <__rc7>
    266d: 2a           	rol
    266e: 18           	clc
    266f: aa           	tax
    2670: 69 81        	adc	#$81
    2672: 10 03        	bpl	$2677 <redraw+0x69a>
    2674: 4c 19 27     	jmp	$2719 <redraw+0x73c>
    2677: c9 0f        	cmp	#$f
    2679: 90 17        	bcc	$2692 <redraw+0x6b5>
    267b: a9 00        	lda	#$0
    267d: a6 17        	ldx	$17                     ; 0x17 <__rc7>
    267f: 30 02        	bmi	$2683 <redraw+0x6a6>
    2681: a9 01        	lda	#$1
    2683: 4a           	lsr
    2684: 64 12        	stz	$12                     ; 0x12 <__rc2>
    2686: 66 12        	ror	$12                     ; 0x12 <__rc2>
    2688: 30 03        	bmi	$268d <redraw+0x6b0>
    268a: 4c ff 26     	jmp	$26ff <redraw+0x722>
    268d: a9 ff        	lda	#$ff
    268f: 4c 01 27     	jmp	$2701 <redraw+0x724>
    2692: a0 04        	ldy	#$4
    2694: b1 14        	lda	($14),y                 ; 0x14 <__rc4>
    2696: 85 15        	sta	$15                     ; 0x15 <__rc5>
    2698: 86 14        	stx	$14                     ; 0x14 <__rc4>
    269a: 38           	sec
    269b: a9 9e        	lda	#$9e
    269d: e5 14        	sbc	$14                     ; 0x14 <__rc4>
    269f: 85 16        	sta	$16                     ; 0x16 <__rc6>
    26a1: 18           	clc
    26a2: 8a           	txa
    26a3: 69 6a        	adc	#$6a
    26a5: 85 14        	sta	$14                     ; 0x14 <__rc4>
    26a7: a0 01        	ldy	#$1
    26a9: b1 12        	lda	($12),y                 ; 0x12 <__rc2>
    26ab: a8           	tay
    26ac: a5 18        	lda	$18                     ; 0x18 <__rc8>
    26ae: 09 80        	ora	#$80
    26b0: 85 12        	sta	$12                     ; 0x12 <__rc2>
    26b2: a6 15        	ldx	$15                     ; 0x15 <__rc5>
    26b4: 86 18        	stx	$18                     ; 0x18 <__rc8>
    26b6: 84 15        	sty	$15                     ; 0x15 <__rc5>
    26b8: a6 14        	ldx	$14                     ; 0x14 <__rc4>
    26ba: 18           	clc
    26bb: a5 16        	lda	$16                     ; 0x16 <__rc6>
    26bd: 69 f8        	adc	#$f8
    26bf: 85 16        	sta	$16                     ; 0x16 <__rc6>
    26c1: c9 08        	cmp	#$8
    26c3: a0 01        	ldy	#$1
    26c5: b0 02        	bcs	$26c9 <redraw+0x6ec>
    26c7: a0 00        	ldy	#$0
    26c9: 84 13        	sty	$13                     ; 0x13 <__rc3>
    26cb: 18           	clc
    26cc: a5 14        	lda	$14                     ; 0x14 <__rc4>
    26ce: 69 08        	adc	#$8
    26d0: 85 14        	sta	$14                     ; 0x14 <__rc4>
    26d2: a9 00        	lda	#$0
    26d4: a4 12        	ldy	$12                     ; 0x12 <__rc2>
    26d6: e6 13        	inc	$13                     ; 0x13 <__rc3>
    26d8: c6 13        	dec	$13                     ; 0x13 <__rc3>
    26da: d0 d4        	bne	$26b0 <redraw+0x6d3>
    26dc: a5 16        	lda	$16                     ; 0x16 <__rc6>
    26de: f0 26        	beq	$2706 <redraw+0x729>
    26e0: a4 15        	ldy	$15                     ; 0x15 <__rc5>
    26e2: 46 12        	lsr	$12                     ; 0x12 <__rc2>
    26e4: 64 13        	stz	$13                     ; 0x13 <__rc3>
    26e6: 66 13        	ror	$13                     ; 0x13 <__rc3>
    26e8: 98           	tya
    26e9: 4a           	lsr
    26ea: 05 13        	ora	$13                     ; 0x13 <__rc3>
    26ec: a8           	tay
    26ed: a5 18        	lda	$18                     ; 0x18 <__rc8>
    26ef: 64 13        	stz	$13                     ; 0x13 <__rc3>
    26f1: 66 13        	ror	$13                     ; 0x13 <__rc3>
    26f3: 4a           	lsr
    26f4: 05 13        	ora	$13                     ; 0x13 <__rc3>
    26f6: e8           	inx
    26f7: 85 18        	sta	$18                     ; 0x18 <__rc8>
    26f9: 85 16        	sta	$16                     ; 0x16 <__rc6>
    26fb: d0 e5        	bne	$26e2 <redraw+0x705>
    26fd: 80 0b        	bra	$270a <redraw+0x72d>
    26ff: a9 00        	lda	#$0
    2701: 06 12        	asl	$12                     ; 0x12 <__rc2>
    2703: 2a           	rol
    2704: 80 11        	bra	$2717 <redraw+0x73a>
    2706: a6 18        	ldx	$18                     ; 0x18 <__rc8>
    2708: 86 16        	stx	$16                     ; 0x16 <__rc6>
    270a: a2 01        	ldx	#$1
    270c: 86 1b        	stx	$1b                     ; 0x1b <__rc11>
    270e: a5 17        	lda	$17                     ; 0x17 <__rc7>
    2710: 10 07        	bpl	$2719 <redraw+0x73c>
    2712: a9 00        	lda	#$0
    2714: 38           	sec
    2715: e5 16        	sbc	$16                     ; 0x16 <__rc6>
    2717: 85 16        	sta	$16                     ; 0x16 <__rc6>
    2719: 06 2a        	asl	$2a                     ; 0x2a <__rc26>
    271b: 26 29        	rol	$29                     ; 0x29 <__rc25>
    271d: 06 2a        	asl	$2a                     ; 0x2a <__rc26>
    271f: 26 29        	rol	$29                     ; 0x29 <__rc25>
    2721: a9 30        	lda	#$30
    2723: 18           	clc
    2724: a2 00        	ldx	#$0
    2726: 86 1a        	stx	$1a                     ; 0x1a <__rc10>
    2728: 65 2a        	adc	$2a                     ; 0x2a <__rc26>
    272a: aa           	tax
    272b: a9 00        	lda	#$0
    272d: 65 29        	adc	$29                     ; 0x29 <__rc25>
    272f: 86 22        	stx	$22                     ; 0x22 <__rc18>
    2731: 86 12        	stx	$12                     ; 0x12 <__rc2>
    2733: 85 23        	sta	$23                     ; 0x23 <__rc19>
    2735: 85 13        	sta	$13                     ; 0x13 <__rc3>
    2737: a0 02        	ldy	#$2
    2739: b1 12        	lda	($12),y                 ; 0x12 <__rc2>
    273b: 85 14        	sta	$14                     ; 0x14 <__rc4>
    273d: c8           	iny
    273e: b1 12        	lda	($12),y                 ; 0x12 <__rc2>
    2740: aa           	tax
    2741: a5 14        	lda	$14                     ; 0x14 <__rc4>
    2743: 85 17        	sta	$17                     ; 0x17 <__rc7>
    2745: 0a           	asl
    2746: 8a           	txa
    2747: 86 27        	stx	$27                     ; 0x27 <__rc23>
    2749: 2a           	rol
    274a: 18           	clc
    274b: aa           	tax
    274c: 69 81        	adc	#$81
    274e: 64 14        	stz	$14                     ; 0x14 <__rc4>
    2750: 64 18        	stz	$18                     ; 0x18 <__rc8>
    2752: a0 00        	ldy	#$0
    2754: c9 00        	cmp	#$0
    2756: 10 03        	bpl	$275b <redraw+0x77e>
    2758: 4c 09 28     	jmp	$2809 <redraw+0x82c>
    275b: c9 0f        	cmp	#$f
    275d: 90 0e        	bcc	$276d <redraw+0x790>
    275f: a5 27        	lda	$27                     ; 0x27 <__rc23>
    2761: 10 03        	bpl	$2766 <redraw+0x789>
    2763: 4c e5 27     	jmp	$27e5 <redraw+0x808>
    2766: a0 7f        	ldy	#$7f
    2768: a2 ff        	ldx	#$ff
    276a: 4c e9 27     	jmp	$27e9 <redraw+0x80c>
    276d: b2 12        	lda	($12)                   ; 0x12 <__rc2>
    276f: 85 18        	sta	$18                     ; 0x18 <__rc8>
    2771: 86 15        	stx	$15                     ; 0x15 <__rc5>
    2773: 38           	sec
    2774: a9 9e        	lda	#$9e
    2776: e5 15        	sbc	$15                     ; 0x15 <__rc5>
    2778: 85 1b        	sta	$1b                     ; 0x1b <__rc11>
    277a: 18           	clc
    277b: 8a           	txa
    277c: 69 6a        	adc	#$6a
    277e: 85 29        	sta	$29                     ; 0x29 <__rc25>
    2780: a0 01        	ldy	#$1
    2782: b1 12        	lda	($12),y                 ; 0x12 <__rc2>
    2784: aa           	tax
    2785: a5 17        	lda	$17                     ; 0x17 <__rc7>
    2787: 09 80        	ora	#$80
    2789: 85 17        	sta	$17                     ; 0x17 <__rc7>
    278b: 8a           	txa
    278c: a6 17        	ldx	$17                     ; 0x17 <__rc7>
    278e: 86 15        	stx	$15                     ; 0x15 <__rc5>
    2790: a4 18        	ldy	$18                     ; 0x18 <__rc8>
    2792: 85 18        	sta	$18                     ; 0x18 <__rc8>
    2794: a6 29        	ldx	$29                     ; 0x29 <__rc25>
    2796: 18           	clc
    2797: a5 1b        	lda	$1b                     ; 0x1b <__rc11>
    2799: 69 f8        	adc	#$f8
    279b: 85 1b        	sta	$1b                     ; 0x1b <__rc11>
    279d: c9 08        	cmp	#$8
    279f: a9 01        	lda	#$1
    27a1: b0 02        	bcs	$27a5 <redraw+0x7c8>
    27a3: a9 00        	lda	#$0
    27a5: 85 2a        	sta	$2a                     ; 0x2a <__rc26>
    27a7: 18           	clc
    27a8: a5 29        	lda	$29                     ; 0x29 <__rc25>
    27aa: 69 08        	adc	#$8
    27ac: 85 29        	sta	$29                     ; 0x29 <__rc25>
    27ae: 64 17        	stz	$17                     ; 0x17 <__rc7>
    27b0: a5 15        	lda	$15                     ; 0x15 <__rc5>
    27b2: e6 2a        	inc	$2a                     ; 0x2a <__rc26>
    27b4: c6 2a        	dec	$2a                     ; 0x2a <__rc26>
    27b6: d0 d4        	bne	$278c <redraw+0x7af>
    27b8: a5 18        	lda	$18                     ; 0x18 <__rc8>
    27ba: e6 1b        	inc	$1b                     ; 0x1b <__rc11>
    27bc: c6 1b        	dec	$1b                     ; 0x1b <__rc11>
    27be: f0 2d        	beq	$27ed <redraw+0x810>
    27c0: 85 1b        	sta	$1b                     ; 0x1b <__rc11>
    27c2: 98           	tya
    27c3: 46 15        	lsr	$15                     ; 0x15 <__rc5>
    27c5: 64 17        	stz	$17                     ; 0x17 <__rc7>
    27c7: 66 17        	ror	$17                     ; 0x17 <__rc7>
    27c9: 85 29        	sta	$29                     ; 0x29 <__rc25>
    27cb: a5 1b        	lda	$1b                     ; 0x1b <__rc11>
    27cd: 4a           	lsr
    27ce: 05 17        	ora	$17                     ; 0x17 <__rc7>
    27d0: a8           	tay
    27d1: a5 29        	lda	$29                     ; 0x29 <__rc25>
    27d3: 64 17        	stz	$17                     ; 0x17 <__rc7>
    27d5: 66 17        	ror	$17                     ; 0x17 <__rc7>
    27d7: 4a           	lsr
    27d8: 05 17        	ora	$17                     ; 0x17 <__rc7>
    27da: e8           	inx
    27db: 84 1b        	sty	$1b                     ; 0x1b <__rc11>
    27dd: 84 17        	sty	$17                     ; 0x17 <__rc7>
    27df: 85 18        	sta	$18                     ; 0x18 <__rc8>
    27e1: d0 e0        	bne	$27c3 <redraw+0x7e6>
    27e3: 80 0c        	bra	$27f1 <redraw+0x814>
    27e5: a0 80        	ldy	#$80
    27e7: a2 00        	ldx	#$0
    27e9: 86 18        	stx	$18                     ; 0x18 <__rc8>
    27eb: 80 1c        	bra	$2809 <redraw+0x82c>
    27ed: 85 17        	sta	$17                     ; 0x17 <__rc7>
    27ef: 84 18        	sty	$18                     ; 0x18 <__rc8>
    27f1: a2 01        	ldx	#$1
    27f3: 86 1b        	stx	$1b                     ; 0x1b <__rc11>
    27f5: a5 27        	lda	$27                     ; 0x27 <__rc23>
    27f7: 30 04        	bmi	$27fd <redraw+0x820>
    27f9: a4 17        	ldy	$17                     ; 0x17 <__rc7>
    27fb: 80 0c        	bra	$2809 <redraw+0x82c>
    27fd: a9 00        	lda	#$0
    27ff: 38           	sec
    2800: e5 18        	sbc	$18                     ; 0x18 <__rc8>
    2802: 85 18        	sta	$18                     ; 0x18 <__rc8>
    2804: a9 00        	lda	#$0
    2806: e5 17        	sbc	$17                     ; 0x17 <__rc7>
    2808: a8           	tay
    2809: 18           	clc
    280a: a5 19        	lda	$19                     ; 0x19 <__rc9>
    280c: 69 a0        	adc	#$a0
    280e: 85 17        	sta	$17                     ; 0x17 <__rc7>
    2810: a5 1f        	lda	$1f                     ; 0x1f <__rc15>
    2812: 69 00        	adc	#$0
    2814: 85 1f        	sta	$1f                     ; 0x1f <__rc15>
    2816: 18           	clc
    2817: a5 18        	lda	$18                     ; 0x18 <__rc8>
    2819: 69 a0        	adc	#$a0
    281b: 85 27        	sta	$27                     ; 0x27 <__rc23>
    281d: 98           	tya
    281e: 69 00        	adc	#$0
    2820: 85 29        	sta	$29                     ; 0x29 <__rc25>
    2822: 18           	clc
    2823: a5 22        	lda	$22                     ; 0x22 <__rc18>
    2825: 69 04        	adc	#$4
    2827: aa           	tax
    2828: a5 23        	lda	$23                     ; 0x23 <__rc19>
    282a: 69 00        	adc	#$0
    282c: 86 22        	stx	$22                     ; 0x22 <__rc18>
    282e: 86 18        	stx	$18                     ; 0x18 <__rc8>
    2830: 85 23        	sta	$23                     ; 0x23 <__rc19>
    2832: 85 19        	sta	$19                     ; 0x19 <__rc9>
    2834: a0 02        	ldy	#$2
    2836: b1 18        	lda	($18),y                 ; 0x18 <__rc8>
    2838: 85 15        	sta	$15                     ; 0x15 <__rc5>
    283a: c8           	iny
    283b: b1 18        	lda	($18),y                 ; 0x18 <__rc8>
    283d: aa           	tax
    283e: a5 15        	lda	$15                     ; 0x15 <__rc5>
    2840: 0a           	asl
    2841: 8a           	txa
    2842: 86 2a        	stx	$2a                     ; 0x2a <__rc26>
    2844: 2a           	rol
    2845: aa           	tax
    2846: 18           	clc
    2847: 69 81        	adc	#$81
    2849: 10 03        	bpl	$284e <redraw+0x871>
    284b: 4c f0 28     	jmp	$28f0 <redraw+0x913>
    284e: c9 0f        	cmp	#$f
    2850: 90 17        	bcc	$2869 <redraw+0x88c>
    2852: a9 00        	lda	#$0
    2854: a6 2a        	ldx	$2a                     ; 0x2a <__rc26>
    2856: 30 02        	bmi	$285a <redraw+0x87d>
    2858: a9 01        	lda	#$1
    285a: 4a           	lsr
    285b: 64 14        	stz	$14                     ; 0x14 <__rc4>
    285d: 66 14        	ror	$14                     ; 0x14 <__rc4>
    285f: 30 03        	bmi	$2864 <redraw+0x887>
    2861: 4c d6 28     	jmp	$28d6 <redraw+0x8f9>
    2864: a9 ff        	lda	#$ff
    2866: 4c d8 28     	jmp	$28d8 <redraw+0x8fb>
    2869: a0 04        	ldy	#$4
    286b: b1 12        	lda	($12),y                 ; 0x12 <__rc2>
    286d: 85 1b        	sta	$1b                     ; 0x1b <__rc11>
    286f: 86 14        	stx	$14                     ; 0x14 <__rc4>
    2871: 38           	sec
    2872: a9 9e        	lda	#$9e
    2874: e5 14        	sbc	$14                     ; 0x14 <__rc4>
    2876: 85 2c        	sta	$2c                     ; 0x2c <__rc28>
    2878: 18           	clc
    2879: 8a           	txa
    287a: 69 6a        	adc	#$6a
    287c: 85 14        	sta	$14                     ; 0x14 <__rc4>
    287e: a0 01        	ldy	#$1
    2880: b1 18        	lda	($18),y                 ; 0x18 <__rc8>
    2882: a8           	tay
    2883: a5 15        	lda	$15                     ; 0x15 <__rc5>
    2885: 09 80        	ora	#$80
    2887: 85 15        	sta	$15                     ; 0x15 <__rc5>
    2889: a6 1b        	ldx	$1b                     ; 0x1b <__rc11>
    288b: 86 18        	stx	$18                     ; 0x18 <__rc8>
    288d: 84 1b        	sty	$1b                     ; 0x1b <__rc11>
    288f: a6 14        	ldx	$14                     ; 0x14 <__rc4>
    2891: 18           	clc
    2892: a5 2c        	lda	$2c                     ; 0x2c <__rc28>
    2894: 69 f8        	adc	#$f8
    2896: 85 2c        	sta	$2c                     ; 0x2c <__rc28>
    2898: c9 08        	cmp	#$8
    289a: a0 01        	ldy	#$1
    289c: b0 02        	bcs	$28a0 <redraw+0x8c3>
    289e: a0 00        	ldy	#$0
    28a0: 84 19        	sty	$19                     ; 0x19 <__rc9>
    28a2: 18           	clc
    28a3: a5 14        	lda	$14                     ; 0x14 <__rc4>
    28a5: 69 08        	adc	#$8
    28a7: 85 14        	sta	$14                     ; 0x14 <__rc4>
    28a9: a9 00        	lda	#$0
    28ab: a4 15        	ldy	$15                     ; 0x15 <__rc5>
    28ad: e6 19        	inc	$19                     ; 0x19 <__rc9>
    28af: c6 19        	dec	$19                     ; 0x19 <__rc9>
    28b1: d0 d4        	bne	$2887 <redraw+0x8aa>
    28b3: a5 2c        	lda	$2c                     ; 0x2c <__rc28>
    28b5: f0 26        	beq	$28dd <redraw+0x900>
    28b7: a4 1b        	ldy	$1b                     ; 0x1b <__rc11>
    28b9: 46 15        	lsr	$15                     ; 0x15 <__rc5>
    28bb: 64 14        	stz	$14                     ; 0x14 <__rc4>
    28bd: 66 14        	ror	$14                     ; 0x14 <__rc4>
    28bf: 98           	tya
    28c0: 4a           	lsr
    28c1: 05 14        	ora	$14                     ; 0x14 <__rc4>
    28c3: a8           	tay
    28c4: a5 18        	lda	$18                     ; 0x18 <__rc8>
    28c6: 64 14        	stz	$14                     ; 0x14 <__rc4>
    28c8: 66 14        	ror	$14                     ; 0x14 <__rc4>
    28ca: 4a           	lsr
    28cb: 05 14        	ora	$14                     ; 0x14 <__rc4>
    28cd: e8           	inx
    28ce: 85 18        	sta	$18                     ; 0x18 <__rc8>
    28d0: 85 14        	sta	$14                     ; 0x14 <__rc4>
    28d2: d0 e5        	bne	$28b9 <redraw+0x8dc>
    28d4: 80 0b        	bra	$28e1 <redraw+0x904>
    28d6: a9 00        	lda	#$0
    28d8: 06 14        	asl	$14                     ; 0x14 <__rc4>
    28da: 2a           	rol
    28db: 80 11        	bra	$28ee <redraw+0x911>
    28dd: a6 18        	ldx	$18                     ; 0x18 <__rc8>
    28df: 86 14        	stx	$14                     ; 0x14 <__rc4>
    28e1: a2 01        	ldx	#$1
    28e3: 86 1b        	stx	$1b                     ; 0x1b <__rc11>
    28e5: a5 2a        	lda	$2a                     ; 0x2a <__rc26>
    28e7: 10 07        	bpl	$28f0 <redraw+0x913>
    28e9: a9 00        	lda	#$0
    28eb: 38           	sec
    28ec: e5 14        	sbc	$14                     ; 0x14 <__rc4>
    28ee: 85 14        	sta	$14                     ; 0x14 <__rc4>
    28f0: 38           	sec
    28f1: a9 8c        	lda	#$8c
    28f3: e5 16        	sbc	$16                     ; 0x16 <__rc6>
    28f5: a8           	tay
    28f6: 38           	sec
    28f7: a9 8c        	lda	#$8c
    28f9: e5 14        	sbc	$14                     ; 0x14 <__rc4>
    28fb: a6 28        	ldx	$28                     ; 0x28 <__rc24>
    28fd: 8e 80 d1     	stx	$d180                   ; 0xd180 <__heap_start+0xa0b6>
    2900: 9c 82 d1     	stz	$d182                   ; 0xd182 <__heap_start+0xa0b8>
    2903: 9c 83 d1     	stz	$d183                   ; 0xd183 <__heap_start+0xa0b9>
    2906: a6 1c        	ldx	$1c                     ; 0x1c <__rc12>
    2908: 8e 81 d1     	stx	$d181                   ; 0xd181 <__heap_start+0xa0b7>
    290b: a6 17        	ldx	$17                     ; 0x17 <__rc7>
    290d: 8e 82 d1     	stx	$d182                   ; 0xd182 <__heap_start+0xa0b8>
    2910: a6 1f        	ldx	$1f                     ; 0x1f <__rc15>
    2912: 8e 83 d1     	stx	$d183                   ; 0xd183 <__heap_start+0xa0b9>
    2915: a6 27        	ldx	$27                     ; 0x27 <__rc23>
    2917: 8e 84 d1     	stx	$d184                   ; 0xd184 <__heap_start+0xa0ba>
    291a: a6 29        	ldx	$29                     ; 0x29 <__rc25>
    291c: 8e 85 d1     	stx	$d185                   ; 0xd185 <__heap_start+0xa0bb>
    291f: 8c 86 d1     	sty	$d186                   ; 0xd186 <__heap_start+0xa0bc>
    2922: 8d 87 d1     	sta	$d187                   ; 0xd187 <__heap_start+0xa0bd>
    2925: a6 26        	ldx	$26                     ; 0x26 <__rc22>
    2927: 8e 80 d1     	stx	$d180                   ; 0xd180 <__heap_start+0xa0b6>
    292a: ae 80 d1     	ldx	$d180                   ; 0xd180 <__heap_start+0xa0b6>
    292d: 10 fb        	bpl	$292a <redraw+0x94d>
    292f: a0 02        	ldy	#$2
    2931: b1 12        	lda	($12),y                 ; 0x12 <__rc2>
    2933: 85 14        	sta	$14                     ; 0x14 <__rc4>
    2935: c8           	iny
    2936: b1 12        	lda	($12),y                 ; 0x12 <__rc2>
    2938: aa           	tax
    2939: a5 14        	lda	$14                     ; 0x14 <__rc4>
    293b: 85 16        	sta	$16                     ; 0x16 <__rc6>
    293d: 0a           	asl
    293e: 8a           	txa
    293f: 86 1f        	stx	$1f                     ; 0x1f <__rc15>
    2941: 2a           	rol
    2942: aa           	tax
    2943: 18           	clc
    2944: 69 81        	adc	#$81
    2946: 64 14        	stz	$14                     ; 0x14 <__rc4>
    2948: 64 18        	stz	$18                     ; 0x18 <__rc8>
    294a: 64 19        	stz	$19                     ; 0x19 <__rc9>
    294c: 10 03        	bpl	$2951 <redraw+0x974>
    294e: 4c 0c 2a     	jmp	$2a0c <redraw+0xa2f>
    2951: c9 0f        	cmp	#$f
    2953: 90 12        	bcc	$2967 <redraw+0x98a>
    2955: a5 1f        	lda	$1f                     ; 0x1f <__rc15>
    2957: 10 03        	bpl	$295c <redraw+0x97f>
    2959: 4c e1 29     	jmp	$29e1 <redraw+0xa04>
    295c: a2 7f        	ldx	#$7f
    295e: 86 19        	stx	$19                     ; 0x19 <__rc9>
    2960: a2 ff        	ldx	#$ff
    2962: 86 18        	stx	$18                     ; 0x18 <__rc8>
    2964: 4c 0c 2a     	jmp	$2a0c <redraw+0xa2f>
    2967: b2 12        	lda	($12)                   ; 0x12 <__rc2>
    2969: 85 17        	sta	$17                     ; 0x17 <__rc7>
    296b: 86 15        	stx	$15                     ; 0x15 <__rc5>
    296d: 38           	sec
    296e: a9 9e        	lda	#$9e
    2970: e5 15        	sbc	$15                     ; 0x15 <__rc5>
    2972: 85 18        	sta	$18                     ; 0x18 <__rc8>
    2974: 18           	clc
    2975: 8a           	txa
    2976: 69 6a        	adc	#$6a
    2978: 85 19        	sta	$19                     ; 0x19 <__rc9>
    297a: a0 01        	ldy	#$1
    297c: b1 12        	lda	($12),y                 ; 0x12 <__rc2>
    297e: 85 1b        	sta	$1b                     ; 0x1b <__rc11>
    2980: a5 16        	lda	$16                     ; 0x16 <__rc6>
    2982: 09 80        	ora	#$80
    2984: 85 15        	sta	$15                     ; 0x15 <__rc5>
    2986: a4 17        	ldy	$17                     ; 0x17 <__rc7>
    2988: 5a           	phy
    2989: a6 1b        	ldx	$1b                     ; 0x1b <__rc11>
    298b: 86 17        	stx	$17                     ; 0x17 <__rc7>
    298d: a6 19        	ldx	$19                     ; 0x19 <__rc9>
    298f: 18           	clc
    2990: a5 18        	lda	$18                     ; 0x18 <__rc8>
    2992: 69 f8        	adc	#$f8
    2994: 85 18        	sta	$18                     ; 0x18 <__rc8>
    2996: c9 08        	cmp	#$8
    2998: a0 01        	ldy	#$1
    299a: b0 02        	bcs	$299e <redraw+0x9c1>
    299c: a0 00        	ldy	#$0
    299e: 84 16        	sty	$16                     ; 0x16 <__rc6>
    29a0: 18           	clc
    29a1: a5 19        	lda	$19                     ; 0x19 <__rc9>
    29a3: 69 08        	adc	#$8
    29a5: 85 19        	sta	$19                     ; 0x19 <__rc9>
    29a7: a9 00        	lda	#$0
    29a9: a4 15        	ldy	$15                     ; 0x15 <__rc5>
    29ab: 84 1b        	sty	$1b                     ; 0x1b <__rc11>
    29ad: 7a           	ply
    29ae: e6 16        	inc	$16                     ; 0x16 <__rc6>
    29b0: c6 16        	dec	$16                     ; 0x16 <__rc6>
    29b2: d0 d0        	bne	$2984 <redraw+0x9a7>
    29b4: a5 17        	lda	$17                     ; 0x17 <__rc7>
    29b6: e6 18        	inc	$18                     ; 0x18 <__rc8>
    29b8: c6 18        	dec	$18                     ; 0x18 <__rc8>
    29ba: f0 2d        	beq	$29e9 <redraw+0xa0c>
    29bc: 85 18        	sta	$18                     ; 0x18 <__rc8>
    29be: 98           	tya
    29bf: 46 15        	lsr	$15                     ; 0x15 <__rc5>
    29c1: 64 16        	stz	$16                     ; 0x16 <__rc6>
    29c3: 66 16        	ror	$16                     ; 0x16 <__rc6>
    29c5: 85 19        	sta	$19                     ; 0x19 <__rc9>
    29c7: a5 18        	lda	$18                     ; 0x18 <__rc8>
    29c9: 4a           	lsr
    29ca: 05 16        	ora	$16                     ; 0x16 <__rc6>
    29cc: a8           	tay
    29cd: a5 19        	lda	$19                     ; 0x19 <__rc9>
    29cf: 64 16        	stz	$16                     ; 0x16 <__rc6>
    29d1: 66 16        	ror	$16                     ; 0x16 <__rc6>
    29d3: 4a           	lsr
    29d4: 05 16        	ora	$16                     ; 0x16 <__rc6>
    29d6: e8           	inx
    29d7: 84 18        	sty	$18                     ; 0x18 <__rc8>
    29d9: 84 16        	sty	$16                     ; 0x16 <__rc6>
    29db: 85 17        	sta	$17                     ; 0x17 <__rc7>
    29dd: d0 e0        	bne	$29bf <redraw+0x9e2>
    29df: 80 0c        	bra	$29ed <redraw+0xa10>
    29e1: a2 80        	ldx	#$80
    29e3: 86 19        	stx	$19                     ; 0x19 <__rc9>
    29e5: 64 18        	stz	$18                     ; 0x18 <__rc8>
    29e7: 80 23        	bra	$2a0c <redraw+0xa2f>
    29e9: 85 16        	sta	$16                     ; 0x16 <__rc6>
    29eb: 84 17        	sty	$17                     ; 0x17 <__rc7>
    29ed: a2 01        	ldx	#$1
    29ef: 86 1b        	stx	$1b                     ; 0x1b <__rc11>
    29f1: a5 1f        	lda	$1f                     ; 0x1f <__rc15>
    29f3: 30 0a        	bmi	$29ff <redraw+0xa22>
    29f5: a6 17        	ldx	$17                     ; 0x17 <__rc7>
    29f7: 86 18        	stx	$18                     ; 0x18 <__rc8>
    29f9: a6 16        	ldx	$16                     ; 0x16 <__rc6>
    29fb: 86 19        	stx	$19                     ; 0x19 <__rc9>
    29fd: 80 0d        	bra	$2a0c <redraw+0xa2f>
    29ff: a9 00        	lda	#$0
    2a01: 38           	sec
    2a02: e5 17        	sbc	$17                     ; 0x17 <__rc7>
    2a04: 85 18        	sta	$18                     ; 0x18 <__rc8>
    2a06: a9 00        	lda	#$0
    2a08: e5 16        	sbc	$16                     ; 0x16 <__rc6>
    2a0a: 85 19        	sta	$19                     ; 0x19 <__rc9>
    2a0c: a6 22        	ldx	$22                     ; 0x22 <__rc18>
    2a0e: 86 16        	stx	$16                     ; 0x16 <__rc6>
    2a10: a6 23        	ldx	$23                     ; 0x23 <__rc19>
    2a12: 86 17        	stx	$17                     ; 0x17 <__rc7>
    2a14: a0 02        	ldy	#$2
    2a16: b1 16        	lda	($16),y                 ; 0x16 <__rc6>
    2a18: 85 15        	sta	$15                     ; 0x15 <__rc5>
    2a1a: c8           	iny
    2a1b: b1 16        	lda	($16),y                 ; 0x16 <__rc6>
    2a1d: aa           	tax
    2a1e: a5 15        	lda	$15                     ; 0x15 <__rc5>
    2a20: 85 1f        	sta	$1f                     ; 0x1f <__rc15>
    2a22: 0a           	asl
    2a23: 8a           	txa
    2a24: 86 15        	stx	$15                     ; 0x15 <__rc5>
    2a26: 2a           	rol
    2a27: aa           	tax
    2a28: 18           	clc
    2a29: 69 81        	adc	#$81
    2a2b: 10 03        	bpl	$2a30 <redraw+0xa53>
    2a2d: 4c d2 2a     	jmp	$2ad2 <redraw+0xaf5>
    2a30: c9 0f        	cmp	#$f
    2a32: 90 17        	bcc	$2a4b <redraw+0xa6e>
    2a34: a9 00        	lda	#$0
    2a36: a6 15        	ldx	$15                     ; 0x15 <__rc5>
    2a38: 30 02        	bmi	$2a3c <redraw+0xa5f>
    2a3a: a9 01        	lda	#$1
    2a3c: 4a           	lsr
    2a3d: 64 12        	stz	$12                     ; 0x12 <__rc2>
    2a3f: 66 12        	ror	$12                     ; 0x12 <__rc2>
    2a41: 30 03        	bmi	$2a46 <redraw+0xa69>
    2a43: 4c b8 2a     	jmp	$2ab8 <redraw+0xadb>
    2a46: a9 ff        	lda	#$ff
    2a48: 4c ba 2a     	jmp	$2aba <redraw+0xadd>
    2a4b: a0 04        	ldy	#$4
    2a4d: b1 12        	lda	($12),y                 ; 0x12 <__rc2>
    2a4f: 85 13        	sta	$13                     ; 0x13 <__rc3>
    2a51: 86 12        	stx	$12                     ; 0x12 <__rc2>
    2a53: 38           	sec
    2a54: a9 9e        	lda	#$9e
    2a56: e5 12        	sbc	$12                     ; 0x12 <__rc2>
    2a58: 85 1b        	sta	$1b                     ; 0x1b <__rc11>
    2a5a: 18           	clc
    2a5b: 8a           	txa
    2a5c: 69 6a        	adc	#$6a
    2a5e: 85 14        	sta	$14                     ; 0x14 <__rc4>
    2a60: a0 01        	ldy	#$1
    2a62: b1 16        	lda	($16),y                 ; 0x16 <__rc6>
    2a64: a8           	tay
    2a65: a5 1f        	lda	$1f                     ; 0x1f <__rc15>
    2a67: 09 80        	ora	#$80
    2a69: 85 12        	sta	$12                     ; 0x12 <__rc2>
    2a6b: a6 13        	ldx	$13                     ; 0x13 <__rc3>
    2a6d: 86 16        	stx	$16                     ; 0x16 <__rc6>
    2a6f: 84 13        	sty	$13                     ; 0x13 <__rc3>
    2a71: a6 14        	ldx	$14                     ; 0x14 <__rc4>
    2a73: 18           	clc
    2a74: a5 1b        	lda	$1b                     ; 0x1b <__rc11>
    2a76: 69 f8        	adc	#$f8
    2a78: 85 1b        	sta	$1b                     ; 0x1b <__rc11>
    2a7a: c9 08        	cmp	#$8
    2a7c: a0 01        	ldy	#$1
    2a7e: b0 02        	bcs	$2a82 <redraw+0xaa5>
    2a80: a0 00        	ldy	#$0
    2a82: 84 17        	sty	$17                     ; 0x17 <__rc7>
    2a84: 18           	clc
    2a85: a5 14        	lda	$14                     ; 0x14 <__rc4>
    2a87: 69 08        	adc	#$8
    2a89: 85 14        	sta	$14                     ; 0x14 <__rc4>
    2a8b: a9 00        	lda	#$0
    2a8d: a4 12        	ldy	$12                     ; 0x12 <__rc2>
    2a8f: e6 17        	inc	$17                     ; 0x17 <__rc7>
    2a91: c6 17        	dec	$17                     ; 0x17 <__rc7>
    2a93: d0 d4        	bne	$2a69 <redraw+0xa8c>
    2a95: a5 1b        	lda	$1b                     ; 0x1b <__rc11>
    2a97: f0 26        	beq	$2abf <redraw+0xae2>
    2a99: a4 13        	ldy	$13                     ; 0x13 <__rc3>
    2a9b: 46 12        	lsr	$12                     ; 0x12 <__rc2>
    2a9d: 64 13        	stz	$13                     ; 0x13 <__rc3>
    2a9f: 66 13        	ror	$13                     ; 0x13 <__rc3>
    2aa1: 98           	tya
    2aa2: 4a           	lsr
    2aa3: 05 13        	ora	$13                     ; 0x13 <__rc3>
    2aa5: a8           	tay
    2aa6: a5 16        	lda	$16                     ; 0x16 <__rc6>
    2aa8: 64 13        	stz	$13                     ; 0x13 <__rc3>
    2aaa: 66 13        	ror	$13                     ; 0x13 <__rc3>
    2aac: 4a           	lsr
    2aad: 05 13        	ora	$13                     ; 0x13 <__rc3>
    2aaf: e8           	inx
    2ab0: 85 16        	sta	$16                     ; 0x16 <__rc6>
    2ab2: 85 14        	sta	$14                     ; 0x14 <__rc4>
    2ab4: d0 e5        	bne	$2a9b <redraw+0xabe>
    2ab6: 80 0b        	bra	$2ac3 <redraw+0xae6>
    2ab8: a9 00        	lda	#$0
    2aba: 06 12        	asl	$12                     ; 0x12 <__rc2>
    2abc: 2a           	rol
    2abd: 80 11        	bra	$2ad0 <redraw+0xaf3>
    2abf: a6 16        	ldx	$16                     ; 0x16 <__rc6>
    2ac1: 86 14        	stx	$14                     ; 0x14 <__rc4>
    2ac3: a2 01        	ldx	#$1
    2ac5: 86 1b        	stx	$1b                     ; 0x1b <__rc11>
    2ac7: a5 15        	lda	$15                     ; 0x15 <__rc5>
    2ac9: 10 07        	bpl	$2ad2 <redraw+0xaf5>
    2acb: a9 00        	lda	#$0
    2acd: 38           	sec
    2ace: e5 14        	sbc	$14                     ; 0x14 <__rc4>
    2ad0: 85 14        	sta	$14                     ; 0x14 <__rc4>
    2ad2: a0 02        	ldy	#$2
    2ad4: b1 24        	lda	($24),y                 ; 0x24 <__rc20>
    2ad6: 85 12        	sta	$12                     ; 0x12 <__rc2>
    2ad8: c8           	iny
    2ad9: b1 24        	lda	($24),y                 ; 0x24 <__rc20>
    2adb: aa           	tax
    2adc: a5 12        	lda	$12                     ; 0x12 <__rc2>
    2ade: 85 15        	sta	$15                     ; 0x15 <__rc5>
    2ae0: 0a           	asl
    2ae1: 8a           	txa
    2ae2: 86 17        	stx	$17                     ; 0x17 <__rc7>
    2ae4: 2a           	rol
    2ae5: aa           	tax
    2ae6: 18           	clc
    2ae7: 69 81        	adc	#$81
    2ae9: 64 12        	stz	$12                     ; 0x12 <__rc2>
    2aeb: 64 16        	stz	$16                     ; 0x16 <__rc6>
    2aed: a0 00        	ldy	#$0
    2aef: c9 00        	cmp	#$0
    2af1: 10 03        	bpl	$2af6 <redraw+0xb19>
    2af3: 4c a6 2b     	jmp	$2ba6 <redraw+0xbc9>
    2af6: c9 0f        	cmp	#$f
    2af8: 90 0e        	bcc	$2b08 <redraw+0xb2b>
    2afa: a5 17        	lda	$17                     ; 0x17 <__rc7>
    2afc: 10 03        	bpl	$2b01 <redraw+0xb24>
    2afe: 4c 82 2b     	jmp	$2b82 <redraw+0xba5>
    2b01: a0 7f        	ldy	#$7f
    2b03: a2 ff        	ldx	#$ff
    2b05: 4c 86 2b     	jmp	$2b86 <redraw+0xba9>
    2b08: b2 24        	lda	($24)                   ; 0x24 <__rc20>
    2b0a: 85 16        	sta	$16                     ; 0x16 <__rc6>
    2b0c: 86 13        	stx	$13                     ; 0x13 <__rc3>
    2b0e: 38           	sec
    2b0f: a9 9e        	lda	#$9e
    2b11: e5 13        	sbc	$13                     ; 0x13 <__rc3>
    2b13: 85 1b        	sta	$1b                     ; 0x1b <__rc11>
    2b15: 18           	clc
    2b16: 8a           	txa
    2b17: 69 6a        	adc	#$6a
    2b19: 85 1f        	sta	$1f                     ; 0x1f <__rc15>
    2b1b: a0 01        	ldy	#$1
    2b1d: b1 24        	lda	($24),y                 ; 0x24 <__rc20>
    2b1f: 85 22        	sta	$22                     ; 0x22 <__rc18>
    2b21: a5 15        	lda	$15                     ; 0x15 <__rc5>
    2b23: 09 80        	ora	#$80
    2b25: 85 13        	sta	$13                     ; 0x13 <__rc3>
    2b27: a4 16        	ldy	$16                     ; 0x16 <__rc6>
    2b29: 5a           	phy
    2b2a: a6 22        	ldx	$22                     ; 0x22 <__rc18>
    2b2c: 86 16        	stx	$16                     ; 0x16 <__rc6>
    2b2e: a6 1f        	ldx	$1f                     ; 0x1f <__rc15>
    2b30: 18           	clc
    2b31: a5 1b        	lda	$1b                     ; 0x1b <__rc11>
    2b33: 69 f8        	adc	#$f8
    2b35: 85 1b        	sta	$1b                     ; 0x1b <__rc11>
    2b37: c9 08        	cmp	#$8
    2b39: a0 01        	ldy	#$1
    2b3b: b0 02        	bcs	$2b3f <redraw+0xb62>
    2b3d: a0 00        	ldy	#$0
    2b3f: 84 15        	sty	$15                     ; 0x15 <__rc5>
    2b41: 18           	clc
    2b42: a5 1f        	lda	$1f                     ; 0x1f <__rc15>
    2b44: 69 08        	adc	#$8
    2b46: 85 1f        	sta	$1f                     ; 0x1f <__rc15>
    2b48: a9 00        	lda	#$0
    2b4a: a4 13        	ldy	$13                     ; 0x13 <__rc3>
    2b4c: 84 22        	sty	$22                     ; 0x22 <__rc18>
    2b4e: 7a           	ply
    2b4f: e6 15        	inc	$15                     ; 0x15 <__rc5>
    2b51: c6 15        	dec	$15                     ; 0x15 <__rc5>
    2b53: d0 d0        	bne	$2b25 <redraw+0xb48>
    2b55: a5 16        	lda	$16                     ; 0x16 <__rc6>
    2b57: e6 1b        	inc	$1b                     ; 0x1b <__rc11>
    2b59: c6 1b        	dec	$1b                     ; 0x1b <__rc11>
    2b5b: f0 2d        	beq	$2b8a <redraw+0xbad>
    2b5d: 85 1b        	sta	$1b                     ; 0x1b <__rc11>
    2b5f: 98           	tya
    2b60: 46 13        	lsr	$13                     ; 0x13 <__rc3>
    2b62: 64 15        	stz	$15                     ; 0x15 <__rc5>
    2b64: 66 15        	ror	$15                     ; 0x15 <__rc5>
    2b66: 85 1f        	sta	$1f                     ; 0x1f <__rc15>
    2b68: a5 1b        	lda	$1b                     ; 0x1b <__rc11>
    2b6a: 4a           	lsr
    2b6b: 05 15        	ora	$15                     ; 0x15 <__rc5>
    2b6d: a8           	tay
    2b6e: a5 1f        	lda	$1f                     ; 0x1f <__rc15>
    2b70: 64 15        	stz	$15                     ; 0x15 <__rc5>
    2b72: 66 15        	ror	$15                     ; 0x15 <__rc5>
    2b74: 4a           	lsr
    2b75: 05 15        	ora	$15                     ; 0x15 <__rc5>
    2b77: e8           	inx
    2b78: 84 1b        	sty	$1b                     ; 0x1b <__rc11>
    2b7a: 84 15        	sty	$15                     ; 0x15 <__rc5>
    2b7c: 85 16        	sta	$16                     ; 0x16 <__rc6>
    2b7e: d0 e0        	bne	$2b60 <redraw+0xb83>
    2b80: 80 0c        	bra	$2b8e <redraw+0xbb1>
    2b82: a0 80        	ldy	#$80
    2b84: a2 00        	ldx	#$0
    2b86: 86 16        	stx	$16                     ; 0x16 <__rc6>
    2b88: 80 1c        	bra	$2ba6 <redraw+0xbc9>
    2b8a: 85 15        	sta	$15                     ; 0x15 <__rc5>
    2b8c: 84 16        	sty	$16                     ; 0x16 <__rc6>
    2b8e: a2 01        	ldx	#$1
    2b90: 86 1b        	stx	$1b                     ; 0x1b <__rc11>
    2b92: a5 17        	lda	$17                     ; 0x17 <__rc7>
    2b94: 30 04        	bmi	$2b9a <redraw+0xbbd>
    2b96: a4 15        	ldy	$15                     ; 0x15 <__rc5>
    2b98: 80 0c        	bra	$2ba6 <redraw+0xbc9>
    2b9a: a9 00        	lda	#$0
    2b9c: 38           	sec
    2b9d: e5 16        	sbc	$16                     ; 0x16 <__rc6>
    2b9f: 85 16        	sta	$16                     ; 0x16 <__rc6>
    2ba1: a9 00        	lda	#$0
    2ba3: e5 15        	sbc	$15                     ; 0x15 <__rc5>
    2ba5: a8           	tay
    2ba6: 18           	clc
    2ba7: a5 18        	lda	$18                     ; 0x18 <__rc8>
    2ba9: 69 a0        	adc	#$a0
    2bab: 85 18        	sta	$18                     ; 0x18 <__rc8>
    2bad: a5 19        	lda	$19                     ; 0x19 <__rc9>
    2baf: 69 00        	adc	#$0
    2bb1: 85 19        	sta	$19                     ; 0x19 <__rc9>
    2bb3: 18           	clc
    2bb4: a5 16        	lda	$16                     ; 0x16 <__rc6>
    2bb6: 69 a0        	adc	#$a0
    2bb8: 85 1f        	sta	$1f                     ; 0x1f <__rc15>
    2bba: 98           	tya
    2bbb: 69 00        	adc	#$0
    2bbd: 85 22        	sta	$22                     ; 0x22 <__rc18>
    2bbf: a6 1d        	ldx	$1d                     ; 0x1d <__rc13>
    2bc1: 86 16        	stx	$16                     ; 0x16 <__rc6>
    2bc3: a6 1e        	ldx	$1e                     ; 0x1e <__rc14>
    2bc5: 86 17        	stx	$17                     ; 0x17 <__rc7>
    2bc7: a0 02        	ldy	#$2
    2bc9: b1 16        	lda	($16),y                 ; 0x16 <__rc6>
    2bcb: 85 13        	sta	$13                     ; 0x13 <__rc3>
    2bcd: c8           	iny
    2bce: b1 16        	lda	($16),y                 ; 0x16 <__rc6>
    2bd0: aa           	tax
    2bd1: a5 13        	lda	$13                     ; 0x13 <__rc3>
    2bd3: 0a           	asl
    2bd4: 8a           	txa
    2bd5: 86 1d        	stx	$1d                     ; 0x1d <__rc13>
    2bd7: 2a           	rol
    2bd8: aa           	tax
    2bd9: 18           	clc
    2bda: 69 81        	adc	#$81
    2bdc: 10 03        	bpl	$2be1 <redraw+0xc04>
    2bde: 4c 83 2c     	jmp	$2c83 <redraw+0xca6>
    2be1: c9 0f        	cmp	#$f
    2be3: 90 17        	bcc	$2bfc <redraw+0xc1f>
    2be5: a9 00        	lda	#$0
    2be7: a6 1d        	ldx	$1d                     ; 0x1d <__rc13>
    2be9: 30 02        	bmi	$2bed <redraw+0xc10>
    2beb: a9 01        	lda	#$1
    2bed: 4a           	lsr
    2bee: 64 12        	stz	$12                     ; 0x12 <__rc2>
    2bf0: 66 12        	ror	$12                     ; 0x12 <__rc2>
    2bf2: 30 03        	bmi	$2bf7 <redraw+0xc1a>
    2bf4: 4c 69 2c     	jmp	$2c69 <redraw+0xc8c>
    2bf7: a9 ff        	lda	#$ff
    2bf9: 4c 6b 2c     	jmp	$2c6b <redraw+0xc8e>
    2bfc: a0 04        	ldy	#$4
    2bfe: b1 24        	lda	($24),y                 ; 0x24 <__rc20>
    2c00: 85 15        	sta	$15                     ; 0x15 <__rc5>
    2c02: 86 12        	stx	$12                     ; 0x12 <__rc2>
    2c04: 38           	sec
    2c05: a9 9e        	lda	#$9e
    2c07: e5 12        	sbc	$12                     ; 0x12 <__rc2>
    2c09: 85 1b        	sta	$1b                     ; 0x1b <__rc11>
    2c0b: 18           	clc
    2c0c: 8a           	txa
    2c0d: 69 6a        	adc	#$6a
    2c0f: 85 12        	sta	$12                     ; 0x12 <__rc2>
    2c11: a0 01        	ldy	#$1
    2c13: b1 16        	lda	($16),y                 ; 0x16 <__rc6>
    2c15: a8           	tay
    2c16: a5 13        	lda	$13                     ; 0x13 <__rc3>
    2c18: 09 80        	ora	#$80
    2c1a: 85 13        	sta	$13                     ; 0x13 <__rc3>
    2c1c: a6 15        	ldx	$15                     ; 0x15 <__rc5>
    2c1e: 86 16        	stx	$16                     ; 0x16 <__rc6>
    2c20: 84 15        	sty	$15                     ; 0x15 <__rc5>
    2c22: a6 12        	ldx	$12                     ; 0x12 <__rc2>
    2c24: 18           	clc
    2c25: a5 1b        	lda	$1b                     ; 0x1b <__rc11>
    2c27: 69 f8        	adc	#$f8
    2c29: 85 1b        	sta	$1b                     ; 0x1b <__rc11>
    2c2b: c9 08        	cmp	#$8
    2c2d: a0 01        	ldy	#$1
    2c2f: b0 02        	bcs	$2c33 <redraw+0xc56>
    2c31: a0 00        	ldy	#$0
    2c33: 84 17        	sty	$17                     ; 0x17 <__rc7>
    2c35: 18           	clc
    2c36: a5 12        	lda	$12                     ; 0x12 <__rc2>
    2c38: 69 08        	adc	#$8
    2c3a: 85 12        	sta	$12                     ; 0x12 <__rc2>
    2c3c: a9 00        	lda	#$0
    2c3e: a4 13        	ldy	$13                     ; 0x13 <__rc3>
    2c40: e6 17        	inc	$17                     ; 0x17 <__rc7>
    2c42: c6 17        	dec	$17                     ; 0x17 <__rc7>
    2c44: d0 d4        	bne	$2c1a <redraw+0xc3d>
    2c46: a5 1b        	lda	$1b                     ; 0x1b <__rc11>
    2c48: f0 26        	beq	$2c70 <redraw+0xc93>
    2c4a: a4 15        	ldy	$15                     ; 0x15 <__rc5>
    2c4c: 46 13        	lsr	$13                     ; 0x13 <__rc3>
    2c4e: 64 12        	stz	$12                     ; 0x12 <__rc2>
    2c50: 66 12        	ror	$12                     ; 0x12 <__rc2>
    2c52: 98           	tya
    2c53: 4a           	lsr
    2c54: 05 12        	ora	$12                     ; 0x12 <__rc2>
    2c56: a8           	tay
    2c57: a5 16        	lda	$16                     ; 0x16 <__rc6>
    2c59: 64 12        	stz	$12                     ; 0x12 <__rc2>
    2c5b: 66 12        	ror	$12                     ; 0x12 <__rc2>
    2c5d: 4a           	lsr
    2c5e: 05 12        	ora	$12                     ; 0x12 <__rc2>
    2c60: e8           	inx
    2c61: 85 16        	sta	$16                     ; 0x16 <__rc6>
    2c63: 85 12        	sta	$12                     ; 0x12 <__rc2>
    2c65: d0 e5        	bne	$2c4c <redraw+0xc6f>
    2c67: 80 0b        	bra	$2c74 <redraw+0xc97>
    2c69: a9 00        	lda	#$0
    2c6b: 06 12        	asl	$12                     ; 0x12 <__rc2>
    2c6d: 2a           	rol
    2c6e: 80 11        	bra	$2c81 <redraw+0xca4>
    2c70: a6 16        	ldx	$16                     ; 0x16 <__rc6>
    2c72: 86 12        	stx	$12                     ; 0x12 <__rc2>
    2c74: a2 01        	ldx	#$1
    2c76: 86 1b        	stx	$1b                     ; 0x1b <__rc11>
    2c78: a5 1d        	lda	$1d                     ; 0x1d <__rc13>
    2c7a: 10 07        	bpl	$2c83 <redraw+0xca6>
    2c7c: a9 00        	lda	#$0
    2c7e: 38           	sec
    2c7f: e5 12        	sbc	$12                     ; 0x12 <__rc2>
    2c81: 85 12        	sta	$12                     ; 0x12 <__rc2>
    2c83: a2 03        	ldx	#$3
    2c85: 86 13        	stx	$13                     ; 0x13 <__rc3>
    2c87: 38           	sec
    2c88: a9 8c        	lda	#$8c
    2c8a: e5 14        	sbc	$14                     ; 0x14 <__rc4>
    2c8c: a8           	tay
    2c8d: 38           	sec
    2c8e: a9 8c        	lda	#$8c
    2c90: e5 12        	sbc	$12                     ; 0x12 <__rc2>
    2c92: a6 28        	ldx	$28                     ; 0x28 <__rc24>
    2c94: 8e 80 d1     	stx	$d180                   ; 0xd180 <__heap_start+0xa0b6>
    2c97: 9c 82 d1     	stz	$d182                   ; 0xd182 <__heap_start+0xa0b8>
    2c9a: 9c 83 d1     	stz	$d183                   ; 0xd183 <__heap_start+0xa0b9>
    2c9d: a6 1c        	ldx	$1c                     ; 0x1c <__rc12>
    2c9f: 8e 81 d1     	stx	$d181                   ; 0xd181 <__heap_start+0xa0b7>
    2ca2: a6 18        	ldx	$18                     ; 0x18 <__rc8>
    2ca4: 8e 82 d1     	stx	$d182                   ; 0xd182 <__heap_start+0xa0b8>
    2ca7: a6 19        	ldx	$19                     ; 0x19 <__rc9>
    2ca9: 8e 83 d1     	stx	$d183                   ; 0xd183 <__heap_start+0xa0b9>
    2cac: a6 1f        	ldx	$1f                     ; 0x1f <__rc15>
    2cae: 8e 84 d1     	stx	$d184                   ; 0xd184 <__heap_start+0xa0ba>
    2cb1: a6 22        	ldx	$22                     ; 0x22 <__rc18>
    2cb3: 8e 85 d1     	stx	$d185                   ; 0xd185 <__heap_start+0xa0bb>
    2cb6: 8c 86 d1     	sty	$d186                   ; 0xd186 <__heap_start+0xa0bc>
    2cb9: 8d 87 d1     	sta	$d187                   ; 0xd187 <__heap_start+0xa0bd>
    2cbc: a6 26        	ldx	$26                     ; 0x26 <__rc22>
    2cbe: 8e 80 d1     	stx	$d180                   ; 0xd180 <__heap_start+0xa0b6>
    2cc1: ae 80 d1     	ldx	$d180                   ; 0xd180 <__heap_start+0xa0b6>
    2cc4: 10 fb        	bpl	$2cc1 <redraw+0xce4>
    2cc6: a0 08        	ldy	#$8
    2cc8: b1 10        	lda	($10),y                 ; 0x10 <__rc0>
    2cca: a8           	tay
    2ccb: f0 03        	beq	$2cd0 <redraw+0xcf3>
    2ccd: 4c 59 20     	jmp	$2059 <redraw+0x7c>
    2cd0: 5a           	phy
    2cd1: a0 09        	ldy	#$9
    2cd3: b1 10        	lda	($10),y                 ; 0x10 <__rc0>
    2cd5: 7a           	ply
    2cd6: c9 19        	cmp	#$19
    2cd8: b0 03        	bcs	$2cdd <redraw+0xd00>
    2cda: 4c 60 20     	jmp	$2060 <redraw+0x83>
    2cdd: 9c 0a d0     	stz	$d00a                   ; 0xd00a <__heap_start+0x9f40>
    2ce0: a0 00        	ldy	#$0
    2ce2: b1 10        	lda	($10),y                 ; 0x10 <__rc0>
    2ce4: 85 2f        	sta	$2f                     ; 0x2f <__rc31>
    2ce6: c8           	iny
    2ce7: b1 10        	lda	($10),y                 ; 0x10 <__rc0>
    2ce9: 85 2e        	sta	$2e                     ; 0x2e <__rc30>
    2ceb: c8           	iny
    2cec: b1 10        	lda	($10),y                 ; 0x10 <__rc0>
    2cee: 85 2d        	sta	$2d                     ; 0x2d <__rc29>
    2cf0: c8           	iny
    2cf1: b1 10        	lda	($10),y                 ; 0x10 <__rc0>
    2cf3: 85 2c        	sta	$2c                     ; 0x2c <__rc28>
    2cf5: c8           	iny
    2cf6: b1 10        	lda	($10),y                 ; 0x10 <__rc0>
    2cf8: 85 2b        	sta	$2b                     ; 0x2b <__rc27>
    2cfa: c8           	iny
    2cfb: b1 10        	lda	($10),y                 ; 0x10 <__rc0>
    2cfd: 85 2a        	sta	$2a                     ; 0x2a <__rc26>
    2cff: c8           	iny
    2d00: b1 10        	lda	($10),y                 ; 0x10 <__rc0>
    2d02: 85 29        	sta	$29                     ; 0x29 <__rc25>
    2d04: c8           	iny
    2d05: b1 10        	lda	($10),y                 ; 0x10 <__rc0>
    2d07: 85 28        	sta	$28                     ; 0x28 <__rc24>
    2d09: fa           	plx
    2d0a: 86 27        	stx	$27                     ; 0x27 <__rc23>
    2d0c: fa           	plx
    2d0d: 86 26        	stx	$26                     ; 0x26 <__rc22>
    2d0f: fa           	plx
    2d10: 86 25        	stx	$25                     ; 0x25 <__rc21>
    2d12: fa           	plx
    2d13: 86 24        	stx	$24                     ; 0x24 <__rc20>
    2d15: 18           	clc
    2d16: a5 10        	lda	$10                     ; 0x10 <__rc0>
    2d18: 69 0a        	adc	#$a
    2d1a: 85 10        	sta	$10                     ; 0x10 <__rc0>
    2d1c: a5 11        	lda	$11                     ; 0x11 <__rc1>
    2d1e: 69 00        	adc	#$0
    2d20: 85 11        	sta	$11                     ; 0x11 <__rc1>
    2d22: 60           	rts

00002d23 <exit>:
    2d23: 20 bf 03     	jsr	$3bf <_fini>
    2d26: 80 fe        	bra	$2d26 <exit+0x3>

00002d28 <malloc>:
    2d28: a8           	tay
    2d29: 8a           	txa
    2d2a: a2 00        	ldx	#$0
    2d2c: 86 12        	stx	$12                     ; 0x12 <__rc2>
    2d2e: a2 00        	ldx	#$0
    2d30: 86 13        	stx	$13                     ; 0x13 <__rc3>
    2d32: aa           	tax
    2d33: d0 07        	bne	$2d3c <malloc+0x14>
    2d35: c0 00        	cpy	#$0
    2d37: d0 03        	bne	$2d3c <malloc+0x14>
    2d39: 4c 4a 2e     	jmp	$2e4a <malloc+0x122>
    2d3c: 84 16        	sty	$16                     ; 0x16 <__rc6>
    2d3e: aa           	tax
    2d3f: d0 0e        	bne	$2d4f <malloc+0x27>
    2d41: a6 16        	ldx	$16                     ; 0x16 <__rc6>
    2d43: e0 07        	cpx	#$7
    2d45: b0 0c        	bcs	$2d53 <malloc+0x2b>
    2d47: a2 08        	ldx	#$8
    2d49: 86 e7        	stx	$e7                     ; 0xe7 <__zp_data_size+0x3f>
    2d4b: a9 00        	lda	#$0
    2d4d: 80 31        	bra	$2d80 <malloc+0x58>
    2d4f: c9 00        	cmp	#$0
    2d51: 90 f4        	bcc	$2d47 <malloc+0x1f>
    2d53: a8           	tay
    2d54: a5 16        	lda	$16                     ; 0x16 <__rc6>
    2d56: 29 01        	and	#$1
    2d58: a2 02        	ldx	#$2
    2d5a: 64 14        	stz	$14                     ; 0x14 <__rc4>
    2d5c: c9 00        	cmp	#$0
    2d5e: f0 02        	beq	$2d62 <malloc+0x3a>
    2d60: a2 03        	ldx	#$3
    2d62: 86 15        	stx	$15                     ; 0x15 <__rc5>
    2d64: 18           	clc
    2d65: a5 16        	lda	$16                     ; 0x16 <__rc6>
    2d67: 65 15        	adc	$15                     ; 0x15 <__rc5>
    2d69: aa           	tax
    2d6a: 98           	tya
    2d6b: 65 14        	adc	$14                     ; 0x14 <__rc4>
    2d6d: 90 03        	bcc	$2d72 <malloc+0x4a>
    2d6f: 4c 4a 2e     	jmp	$2e4a <malloc+0x122>
    2d72: 86 14        	stx	$14                     ; 0x14 <__rc4>
    2d74: 86 e7        	stx	$e7                     ; 0xe7 <__zp_data_size+0x3f>
    2d76: aa           	tax
    2d77: d0 07        	bne	$2d80 <malloc+0x58>
    2d79: a6 14        	ldx	$14                     ; 0x14 <__rc4>
    2d7b: d0 03        	bne	$2d80 <malloc+0x58>
    2d7d: 4c 4a 2e     	jmp	$2e4a <malloc+0x122>
    2d80: 85 ea        	sta	$ea                     ; 0xea <__zp_data_size+0x42>
    2d82: a5 e2        	lda	$e2                     ; 0xe2 <_ZN12_GLOBAL__N_111initializedE>
    2d84: 29 01        	and	#$1
    2d86: d0 39        	bne	$2dc1 <malloc+0x99>
    2d88: a9 00        	lda	#$0
    2d8a: a2 10        	ldx	#$10
    2d8c: a0 ca        	ldy	#$ca
    2d8e: 84 14        	sty	$14                     ; 0x14 <__rc4>
    2d90: a0 30        	ldy	#$30
    2d92: 84 15        	sty	$15                     ; 0x15 <__rc5>
    2d94: a4 12        	ldy	$12                     ; 0x12 <__rc2>
    2d96: 84 e8        	sty	$e8                     ; 0xe8 <__zp_data_size+0x40>
    2d98: a4 13        	ldy	$13                     ; 0x13 <__rc3>
    2d9a: 84 e9        	sty	$e9                     ; 0xe9 <__zp_data_size+0x41>
    2d9c: a0 ca        	ldy	#$ca
    2d9e: 84 12        	sty	$12                     ; 0x12 <__rc2>
    2da0: a0 30        	ldy	#$30
    2da2: 84 13        	sty	$13                     ; 0x13 <__rc3>
    2da4: 20 c0 03     	jsr	$3c0 <_ZN12_GLOBAL__N_19FreeChunk6insertEPvj>
    2da7: a6 e8        	ldx	$e8                     ; 0xe8 <__zp_data_size+0x40>
    2da9: 86 12        	stx	$12                     ; 0x12 <__rc2>
    2dab: a6 e9        	ldx	$e9                     ; 0xe9 <__zp_data_size+0x41>
    2dad: 86 13        	stx	$13                     ; 0x13 <__rc3>
    2daf: ae cb 30     	ldx	$30cb                   ; 0x30cb <__heap_start+0x1>
    2db2: a9 fe        	lda	#$fe
    2db4: 2d ca 30     	and	$30ca                   ; 0x30ca <__heap_start>
    2db7: 8d ca 30     	sta	$30ca                   ; 0x30ca <__heap_start>
    2dba: 8e cb 30     	stx	$30cb                   ; 0x30cb <__heap_start+0x1>
    2dbd: a2 01        	ldx	#$1
    2dbf: 86 e2        	stx	$e2                     ; 0xe2 <_ZN12_GLOBAL__N_111initializedE>
    2dc1: a5 e5        	lda	$e5                     ; 0xe5 <_ZN12_GLOBAL__N_19free_listE>
    2dc3: a6 e6        	ldx	$e6                     ; 0xe6 <_ZN12_GLOBAL__N_19free_listE+0x1>
    2dc5: a0 00        	ldy	#$0
    2dc7: 84 14        	sty	$14                     ; 0x14 <__rc4>
    2dc9: a0 00        	ldy	#$0
    2dcb: 84 15        	sty	$15                     ; 0x15 <__rc5>
    2dcd: 86 1d        	stx	$1d                     ; 0x1d <__rc13>
    2dcf: e4 15        	cpx	$15                     ; 0x15 <__rc5>
    2dd1: d0 07        	bne	$2dda <malloc+0xb2>
    2dd3: c5 14        	cmp	$14                     ; 0x14 <__rc4>
    2dd5: d0 03        	bne	$2dda <malloc+0xb2>
    2dd7: 4c 4a 2e     	jmp	$2e4a <malloc+0x122>
    2dda: a0 00        	ldy	#$0
    2ddc: a2 10        	ldx	#$10
    2dde: 85 18        	sta	$18                     ; 0x18 <__rc8>
    2de0: 84 14        	sty	$14                     ; 0x14 <__rc4>
    2de2: 86 15        	stx	$15                     ; 0x15 <__rc5>
    2de4: 18           	clc
    2de5: a9 ca        	lda	#$ca
    2de7: 65 14        	adc	$14                     ; 0x14 <__rc4>
    2de9: 85 14        	sta	$14                     ; 0x14 <__rc4>
    2deb: a9 30        	lda	#$30
    2ded: 65 15        	adc	$15                     ; 0x15 <__rc5>
    2def: a6 14        	ldx	$14                     ; 0x14 <__rc4>
    2df1: 86 eb        	stx	$eb                     ; 0xeb <__zp_data_size+0x43>
    2df3: a6 18        	ldx	$18                     ; 0x18 <__rc8>
    2df5: 86 e8        	stx	$e8                     ; 0xe8 <__zp_data_size+0x40>
    2df7: 85 17        	sta	$17                     ; 0x17 <__rc7>
    2df9: a6 18        	ldx	$18                     ; 0x18 <__rc8>
    2dfb: 86 14        	stx	$14                     ; 0x14 <__rc4>
    2dfd: a6 1d        	ldx	$1d                     ; 0x1d <__rc13>
    2dff: 86 15        	stx	$15                     ; 0x15 <__rc5>
    2e01: a0 01        	ldy	#$1
    2e03: a6 ea        	ldx	$ea                     ; 0xea <__zp_data_size+0x42>
    2e05: 86 18        	stx	$18                     ; 0x18 <__rc8>
    2e07: b1 14        	lda	($14),y                 ; 0x14 <__rc4>
    2e09: 85 19        	sta	$19                     ; 0x19 <__rc9>
    2e0b: aa           	tax
    2e0c: a9 fe        	lda	#$fe
    2e0e: 32 14        	and	($14)                   ; 0x14 <__rc4>
    2e10: 85 1a        	sta	$1a                     ; 0x1a <__rc10>
    2e12: e4 18        	cpx	$18                     ; 0x18 <__rc8>
    2e14: d0 0a        	bne	$2e20 <malloc+0xf8>
    2e16: a6 e7        	ldx	$e7                     ; 0xe7 <__zp_data_size+0x3f>
    2e18: 86 1b        	stx	$1b                     ; 0x1b <__rc11>
    2e1a: c5 1b        	cmp	$1b                     ; 0x1b <__rc11>
    2e1c: b0 2d        	bcs	$2e4b <malloc+0x123>
    2e1e: 80 04        	bra	$2e24 <malloc+0xfc>
    2e20: e4 18        	cpx	$18                     ; 0x18 <__rc8>
    2e22: b0 27        	bcs	$2e4b <malloc+0x123>
    2e24: a5 14        	lda	$14                     ; 0x14 <__rc4>
    2e26: 18           	clc
    2e27: 69 02        	adc	#$2
    2e29: 85 1a        	sta	$1a                     ; 0x1a <__rc10>
    2e2b: a5 15        	lda	$15                     ; 0x15 <__rc5>
    2e2d: 69 00        	adc	#$0
    2e2f: 85 1b        	sta	$1b                     ; 0x1b <__rc11>
    2e31: a0 02        	ldy	#$2
    2e33: b1 14        	lda	($14),y                 ; 0x14 <__rc4>
    2e35: 85 14        	sta	$14                     ; 0x14 <__rc4>
    2e37: 88           	dey
    2e38: b1 1a        	lda	($1a),y                 ; 0x1a <__rc10>
    2e3a: 85 15        	sta	$15                     ; 0x15 <__rc5>
    2e3c: c5 1d        	cmp	$1d                     ; 0x1d <__rc13>
    2e3e: d0 c7        	bne	$2e07 <malloc+0xdf>
    2e40: a5 14        	lda	$14                     ; 0x14 <__rc4>
    2e42: a6 e8        	ldx	$e8                     ; 0xe8 <__zp_data_size+0x40>
    2e44: 86 19        	stx	$19                     ; 0x19 <__rc9>
    2e46: c5 19        	cmp	$19                     ; 0x19 <__rc9>
    2e48: d0 bd        	bne	$2e07 <malloc+0xdf>
    2e4a: 60           	rts
    2e4b: a5 e3        	lda	$e3                     ; 0xe3 <_ZN12_GLOBAL__N_19free_sizeE>
    2e4d: a6 e4        	ldx	$e4                     ; 0xe4 <_ZN12_GLOBAL__N_19free_sizeE+0x1>
    2e4f: 86 12        	stx	$12                     ; 0x12 <__rc2>
    2e51: 38           	sec
    2e52: e5 1a        	sbc	$1a                     ; 0x1a <__rc10>
    2e54: aa           	tax
    2e55: a5 12        	lda	$12                     ; 0x12 <__rc2>
    2e57: e5 19        	sbc	$19                     ; 0x19 <__rc9>
    2e59: 85 12        	sta	$12                     ; 0x12 <__rc2>
    2e5b: 18           	clc
    2e5c: 8a           	txa
    2e5d: 69 02        	adc	#$2
    2e5f: 85 13        	sta	$13                     ; 0x13 <__rc3>
    2e61: a5 12        	lda	$12                     ; 0x12 <__rc2>
    2e63: 69 00        	adc	#$0
    2e65: a6 13        	ldx	$13                     ; 0x13 <__rc3>
    2e67: 86 e3        	stx	$e3                     ; 0xe3 <_ZN12_GLOBAL__N_19free_sizeE>
    2e69: 85 e4        	sta	$e4                     ; 0xe4 <_ZN12_GLOBAL__N_19free_sizeE+0x1>
    2e6b: a0 02        	ldy	#$2
    2e6d: a5 14        	lda	$14                     ; 0x14 <__rc4>
    2e6f: 18           	clc
    2e70: 69 02        	adc	#$2
    2e72: 85 12        	sta	$12                     ; 0x12 <__rc2>
    2e74: a5 15        	lda	$15                     ; 0x15 <__rc5>
    2e76: 69 00        	adc	#$0
    2e78: 85 13        	sta	$13                     ; 0x13 <__rc3>
    2e7a: b1 14        	lda	($14),y                 ; 0x14 <__rc4>
    2e7c: 85 1e        	sta	$1e                     ; 0x1e <__rc14>
    2e7e: 88           	dey
    2e7f: b1 12        	lda	($12),y                 ; 0x12 <__rc2>
    2e81: 85 1f        	sta	$1f                     ; 0x1f <__rc15>
    2e83: c5 15        	cmp	$15                     ; 0x15 <__rc5>
    2e85: d0 15        	bne	$2e9c <malloc+0x174>
    2e87: a5 ea        	lda	$ea                     ; 0xea <__zp_data_size+0x42>
    2e89: a6 1e        	ldx	$1e                     ; 0x1e <__rc14>
    2e8b: e4 14        	cpx	$14                     ; 0x14 <__rc4>
    2e8d: d0 0d        	bne	$2e9c <malloc+0x174>
    2e8f: 85 1a        	sta	$1a                     ; 0x1a <__rc10>
    2e91: a2 00        	ldx	#$0
    2e93: 86 18        	stx	$18                     ; 0x18 <__rc8>
    2e95: a2 00        	ldx	#$0
    2e97: 86 19        	stx	$19                     ; 0x19 <__rc9>
    2e99: 4c 1f 2f     	jmp	$2f1f <malloc+0x1f7>
    2e9c: 18           	clc
    2e9d: a5 14        	lda	$14                     ; 0x14 <__rc4>
    2e9f: 69 04        	adc	#$4
    2ea1: 85 18        	sta	$18                     ; 0x18 <__rc8>
    2ea3: a5 15        	lda	$15                     ; 0x15 <__rc5>
    2ea5: 69 00        	adc	#$0
    2ea7: 85 19        	sta	$19                     ; 0x19 <__rc9>
    2ea9: a0 04        	ldy	#$4
    2eab: b1 14        	lda	($14),y                 ; 0x14 <__rc4>
    2ead: 85 16        	sta	$16                     ; 0x16 <__rc6>
    2eaf: 18           	clc
    2eb0: 69 02        	adc	#$2
    2eb2: 85 1a        	sta	$1a                     ; 0x1a <__rc10>
    2eb4: a0 01        	ldy	#$1
    2eb6: b1 18        	lda	($18),y                 ; 0x18 <__rc8>
    2eb8: aa           	tax
    2eb9: 84 22        	sty	$22                     ; 0x22 <__rc18>
    2ebb: 69 00        	adc	#$0
    2ebd: a4 1a        	ldy	$1a                     ; 0x1a <__rc10>
    2ebf: 84 18        	sty	$18                     ; 0x18 <__rc8>
    2ec1: 85 19        	sta	$19                     ; 0x19 <__rc9>
    2ec3: a4 16        	ldy	$16                     ; 0x16 <__rc6>
    2ec5: 84 1a        	sty	$1a                     ; 0x1a <__rc10>
    2ec7: 86 1b        	stx	$1b                     ; 0x1b <__rc11>
    2ec9: a5 1e        	lda	$1e                     ; 0x1e <__rc14>
    2ecb: a0 02        	ldy	#$2
    2ecd: 91 1a        	sta	($1a),y                 ; 0x1a <__rc10>
    2ecf: 84 1e        	sty	$1e                     ; 0x1e <__rc14>
    2ed1: a5 1f        	lda	$1f                     ; 0x1f <__rc15>
    2ed3: a4 22        	ldy	$22                     ; 0x22 <__rc18>
    2ed5: 91 18        	sta	($18),y                 ; 0x18 <__rc8>
    2ed7: 18           	clc
    2ed8: a5 14        	lda	$14                     ; 0x14 <__rc4>
    2eda: 69 02        	adc	#$2
    2edc: 85 1a        	sta	$1a                     ; 0x1a <__rc10>
    2ede: a5 15        	lda	$15                     ; 0x15 <__rc5>
    2ee0: 69 00        	adc	#$0
    2ee2: 85 1b        	sta	$1b                     ; 0x1b <__rc11>
    2ee4: a4 1e        	ldy	$1e                     ; 0x1e <__rc14>
    2ee6: b1 14        	lda	($14),y                 ; 0x14 <__rc4>
    2ee8: 85 18        	sta	$18                     ; 0x18 <__rc8>
    2eea: 85 1e        	sta	$1e                     ; 0x1e <__rc14>
    2eec: a4 22        	ldy	$22                     ; 0x22 <__rc18>
    2eee: b1 1a        	lda	($1a),y                 ; 0x1a <__rc10>
    2ef0: 84 1c        	sty	$1c                     ; 0x1c <__rc12>
    2ef2: 85 19        	sta	$19                     ; 0x19 <__rc9>
    2ef4: 85 1a        	sta	$1a                     ; 0x1a <__rc10>
    2ef6: a5 16        	lda	$16                     ; 0x16 <__rc6>
    2ef8: a0 04        	ldy	#$4
    2efa: 91 18        	sta	($18),y                 ; 0x18 <__rc8>
    2efc: 18           	clc
    2efd: a5 1e        	lda	$1e                     ; 0x1e <__rc14>
    2eff: 69 04        	adc	#$4
    2f01: a8           	tay
    2f02: a5 1a        	lda	$1a                     ; 0x1a <__rc10>
    2f04: 69 00        	adc	#$0
    2f06: 84 1a        	sty	$1a                     ; 0x1a <__rc10>
    2f08: 85 1b        	sta	$1b                     ; 0x1b <__rc11>
    2f0a: 8a           	txa
    2f0b: a4 1c        	ldy	$1c                     ; 0x1c <__rc12>
    2f0d: 91 1a        	sta	($1a),y                 ; 0x1a <__rc10>
    2f0f: a5 ea        	lda	$ea                     ; 0xea <__zp_data_size+0x42>
    2f11: 85 1a        	sta	$1a                     ; 0x1a <__rc10>
    2f13: a6 1d        	ldx	$1d                     ; 0x1d <__rc13>
    2f15: e4 15        	cpx	$15                     ; 0x15 <__rc5>
    2f17: d0 0e        	bne	$2f27 <malloc+0x1ff>
    2f19: a6 e8        	ldx	$e8                     ; 0xe8 <__zp_data_size+0x40>
    2f1b: e4 14        	cpx	$14                     ; 0x14 <__rc4>
    2f1d: d0 08        	bne	$2f27 <malloc+0x1ff>
    2f1f: a6 18        	ldx	$18                     ; 0x18 <__rc8>
    2f21: a4 19        	ldy	$19                     ; 0x19 <__rc9>
    2f23: 86 e5        	stx	$e5                     ; 0xe5 <_ZN12_GLOBAL__N_19free_listE>
    2f25: 84 e6        	sty	$e6                     ; 0xe6 <_ZN12_GLOBAL__N_19free_listE+0x1>
    2f27: a0 01        	ldy	#$1
    2f29: b1 14        	lda	($14),y                 ; 0x14 <__rc4>
    2f2b: 85 16        	sta	$16                     ; 0x16 <__rc6>
    2f2d: a9 fe        	lda	#$fe
    2f2f: 32 14        	and	($14)                   ; 0x14 <__rc4>
    2f31: 38           	sec
    2f32: a6 e7        	ldx	$e7                     ; 0xe7 <__zp_data_size+0x3f>
    2f34: 86 18        	stx	$18                     ; 0x18 <__rc8>
    2f36: a8           	tay
    2f37: e5 18        	sbc	$18                     ; 0x18 <__rc8>
    2f39: 85 19        	sta	$19                     ; 0x19 <__rc9>
    2f3b: a5 16        	lda	$16                     ; 0x16 <__rc6>
    2f3d: a6 16        	ldx	$16                     ; 0x16 <__rc6>
    2f3f: e5 1a        	sbc	$1a                     ; 0x1a <__rc10>
    2f41: f0 03        	beq	$2f46 <malloc+0x21e>
    2f43: 4c d2 2f     	jmp	$2fd2 <malloc+0x2aa>
    2f46: 85 16        	sta	$16                     ; 0x16 <__rc6>
    2f48: a5 19        	lda	$19                     ; 0x19 <__rc9>
    2f4a: c9 08        	cmp	#$8
    2f4c: 86 18        	stx	$18                     ; 0x18 <__rc8>
    2f4e: b0 03        	bcs	$2f53 <malloc+0x22b>
    2f50: 4c b5 2f     	jmp	$2fb5 <malloc+0x28d>
    2f53: a6 17        	ldx	$17                     ; 0x17 <__rc7>
    2f55: 86 ee        	stx	$ee                     ; 0xee <__zp_data_size+0x46>
    2f57: a6 eb        	ldx	$eb                     ; 0xeb <__zp_data_size+0x43>
    2f59: 86 eb        	stx	$eb                     ; 0xeb <__zp_data_size+0x43>
    2f5b: a6 12        	ldx	$12                     ; 0x12 <__rc2>
    2f5d: 86 e8        	stx	$e8                     ; 0xe8 <__zp_data_size+0x40>
    2f5f: a6 13        	ldx	$13                     ; 0x13 <__rc3>
    2f61: 86 e9        	stx	$e9                     ; 0xe9 <__zp_data_size+0x41>
    2f63: a8           	tay
    2f64: 18           	clc
    2f65: a6 e7        	ldx	$e7                     ; 0xe7 <__zp_data_size+0x3f>
    2f67: 86 e7        	stx	$e7                     ; 0xe7 <__zp_data_size+0x3f>
    2f69: 8a           	txa
    2f6a: 65 14        	adc	$14                     ; 0x14 <__rc4>
    2f6c: 85 12        	sta	$12                     ; 0x12 <__rc2>
    2f6e: a5 1a        	lda	$1a                     ; 0x1a <__rc10>
    2f70: a6 1a        	ldx	$1a                     ; 0x1a <__rc10>
    2f72: 86 ea        	stx	$ea                     ; 0xea <__zp_data_size+0x42>
    2f74: 65 15        	adc	$15                     ; 0x15 <__rc5>
    2f76: 85 13        	sta	$13                     ; 0x13 <__rc3>
    2f78: a6 16        	ldx	$16                     ; 0x16 <__rc6>
    2f7a: 98           	tya
    2f7b: a4 14        	ldy	$14                     ; 0x14 <__rc4>
    2f7d: 84 ec        	sty	$ec                     ; 0xec <__zp_data_size+0x44>
    2f7f: a4 15        	ldy	$15                     ; 0x15 <__rc5>
    2f81: 84 ed        	sty	$ed                     ; 0xed <__zp_data_size+0x45>
    2f83: 20 c0 03     	jsr	$3c0 <_ZN12_GLOBAL__N_19FreeChunk6insertEPvj>
    2f86: a6 ec        	ldx	$ec                     ; 0xec <__zp_data_size+0x44>
    2f88: 86 14        	stx	$14                     ; 0x14 <__rc4>
    2f8a: a6 ed        	ldx	$ed                     ; 0xed <__zp_data_size+0x45>
    2f8c: 86 15        	stx	$15                     ; 0x15 <__rc5>
    2f8e: a5 e7        	lda	$e7                     ; 0xe7 <__zp_data_size+0x3f>
    2f90: 29 fe        	and	#$fe
    2f92: 85 12        	sta	$12                     ; 0x12 <__rc2>
    2f94: a0 01        	ldy	#$1
    2f96: 98           	tya
    2f97: 32 14        	and	($14)                   ; 0x14 <__rc4>
    2f99: 05 12        	ora	$12                     ; 0x12 <__rc2>
    2f9b: 92 14        	sta	($14)                   ; 0x14 <__rc4>
    2f9d: a5 ea        	lda	$ea                     ; 0xea <__zp_data_size+0x42>
    2f9f: 91 14        	sta	($14),y                 ; 0x14 <__rc4>
    2fa1: a4 12        	ldy	$12                     ; 0x12 <__rc2>
    2fa3: 85 18        	sta	$18                     ; 0x18 <__rc8>
    2fa5: a6 e8        	ldx	$e8                     ; 0xe8 <__zp_data_size+0x40>
    2fa7: 86 12        	stx	$12                     ; 0x12 <__rc2>
    2fa9: a6 e9        	ldx	$e9                     ; 0xe9 <__zp_data_size+0x41>
    2fab: 86 13        	stx	$13                     ; 0x13 <__rc3>
    2fad: a6 eb        	ldx	$eb                     ; 0xeb <__zp_data_size+0x43>
    2faf: 86 eb        	stx	$eb                     ; 0xeb <__zp_data_size+0x43>
    2fb1: a6 ee        	ldx	$ee                     ; 0xee <__zp_data_size+0x46>
    2fb3: 86 17        	stx	$17                     ; 0x17 <__rc7>
    2fb5: 18           	clc
    2fb6: 98           	tya
    2fb7: 65 14        	adc	$14                     ; 0x14 <__rc4>
    2fb9: 85 16        	sta	$16                     ; 0x16 <__rc6>
    2fbb: a5 15        	lda	$15                     ; 0x15 <__rc5>
    2fbd: 65 18        	adc	$18                     ; 0x18 <__rc8>
    2fbf: 85 15        	sta	$15                     ; 0x15 <__rc5>
    2fc1: c5 17        	cmp	$17                     ; 0x17 <__rc7>
    2fc3: d0 1a        	bne	$2fdf <malloc+0x2b7>
    2fc5: a6 eb        	ldx	$eb                     ; 0xeb <__zp_data_size+0x43>
    2fc7: 86 14        	stx	$14                     ; 0x14 <__rc4>
    2fc9: a6 16        	ldx	$16                     ; 0x16 <__rc6>
    2fcb: e4 14        	cpx	$14                     ; 0x14 <__rc4>
    2fcd: d0 12        	bne	$2fe1 <malloc+0x2b9>
    2fcf: 4c 4a 2e     	jmp	$2e4a <malloc+0x122>
    2fd2: 85 16        	sta	$16                     ; 0x16 <__rc6>
    2fd4: c9 00        	cmp	#$0
    2fd6: 86 18        	stx	$18                     ; 0x18 <__rc8>
    2fd8: a5 19        	lda	$19                     ; 0x19 <__rc9>
    2fda: 90 d9        	bcc	$2fb5 <malloc+0x28d>
    2fdc: 4c 53 2f     	jmp	$2f53 <malloc+0x22b>
    2fdf: a6 16        	ldx	$16                     ; 0x16 <__rc6>
    2fe1: 86 14        	stx	$14                     ; 0x14 <__rc4>
    2fe3: a0 01        	ldy	#$1
    2fe5: b1 14        	lda	($14),y                 ; 0x14 <__rc4>
    2fe7: 85 16        	sta	$16                     ; 0x16 <__rc6>
    2fe9: a9 fe        	lda	#$fe
    2feb: 32 14        	and	($14)                   ; 0x14 <__rc4>
    2fed: 92 14        	sta	($14)                   ; 0x14 <__rc4>
    2fef: a5 16        	lda	$16                     ; 0x16 <__rc6>
    2ff1: 91 14        	sta	($14),y                 ; 0x14 <__rc4>
    2ff3: 60           	rts

00002ff4 <memcpy>:
    2ff4: a8           	tay
    2ff5: 8a           	txa
    2ff6: d0 03        	bne	$2ffb <memcpy+0x7>
    2ff8: 98           	tya
    2ff9: f0 24        	beq	$301f <memcpy+0x2b>
    2ffb: a5 12        	lda	$12                     ; 0x12 <__rc2>
    2ffd: 85 16        	sta	$16                     ; 0x16 <__rc6>
    2fff: a5 13        	lda	$13                     ; 0x13 <__rc3>
    3001: 85 17        	sta	$17                     ; 0x17 <__rc7>
    3003: b2 14        	lda	($14)                   ; 0x14 <__rc4>
    3005: 92 16        	sta	($16)                   ; 0x16 <__rc6>
    3007: e6 16        	inc	$16                     ; 0x16 <__rc6>
    3009: d0 02        	bne	$300d <memcpy+0x19>
    300b: e6 17        	inc	$17                     ; 0x17 <__rc7>
    300d: e6 14        	inc	$14                     ; 0x14 <__rc4>
    300f: d0 02        	bne	$3013 <memcpy+0x1f>
    3011: e6 15        	inc	$15                     ; 0x15 <__rc5>
    3013: 88           	dey
    3014: c0 ff        	cpy	#$ff
    3016: d0 01        	bne	$3019 <memcpy+0x25>
    3018: ca           	dex
    3019: 8a           	txa
    301a: d0 e7        	bne	$3003 <memcpy+0xf>
    301c: 98           	tya
    301d: d0 e4        	bne	$3003 <memcpy+0xf>
    301f: 60           	rts

00003020 <__memset>:
    3020: a4 14        	ldy	$14                     ; 0x14 <__rc4>
    3022: d0 04        	bne	$3028 <__memset+0x8>
    3024: e0 00        	cpx	#$0
    3026: f0 17        	beq	$303f <__memset+0x1f>
    3028: 92 12        	sta	($12)                   ; 0x12 <__rc2>
    302a: e6 12        	inc	$12                     ; 0x12 <__rc2>
    302c: d0 02        	bne	$3030 <__memset+0x10>
    302e: e6 13        	inc	$13                     ; 0x13 <__rc3>
    3030: ca           	dex
    3031: e0 ff        	cpx	#$ff
    3033: d0 02        	bne	$3037 <__memset+0x17>
    3035: c6 14        	dec	$14                     ; 0x14 <__rc4>
    3037: a4 14        	ldy	$14                     ; 0x14 <__rc4>
    3039: d0 ed        	bne	$3028 <__memset+0x8>
    303b: e0 00        	cpx	#$0
    303d: d0 e9        	bne	$3028 <__memset+0x8>
    303f: 60           	rts

00003040 <__mulhi3>:
    3040: a4 13        	ldy	$13                     ; 0x13 <__rc3>
    3042: d0 04        	bne	$3048 <__mulhi3+0x8>
    3044: a4 12        	ldy	$12                     ; 0x12 <__rc2>
    3046: f0 25        	beq	$306d <__mulhi3+0x2d>
    3048: 85 14        	sta	$14                     ; 0x14 <__rc4>
    304a: 86 15        	stx	$15                     ; 0x15 <__rc5>
    304c: a0 00        	ldy	#$0
    304e: 98           	tya
    304f: 46 13        	lsr	$13                     ; 0x13 <__rc3>
    3051: 66 12        	ror	$12                     ; 0x12 <__rc2>
    3053: 90 09        	bcc	$305e <__mulhi3+0x1e>
    3055: aa           	tax
    3056: 98           	tya
    3057: 18           	clc
    3058: 65 14        	adc	$14                     ; 0x14 <__rc4>
    305a: a8           	tay
    305b: 8a           	txa
    305c: 65 15        	adc	$15                     ; 0x15 <__rc5>
    305e: 06 14        	asl	$14                     ; 0x14 <__rc4>
    3060: 26 15        	rol	$15                     ; 0x15 <__rc5>
    3062: a6 13        	ldx	$13                     ; 0x13 <__rc3>
    3064: d0 e9        	bne	$304f <__mulhi3+0xf>
    3066: a6 12        	ldx	$12                     ; 0x12 <__rc2>
    3068: d0 e5        	bne	$304f <__mulhi3+0xf>
    306a: aa           	tax
    306b: 98           	tya
    306c: 60           	rts
    306d: a0 00        	ldy	#$0
    306f: 98           	tya
    3070: 80 f8        	bra	$306a <__mulhi3+0x2a>
