
overlay2.elf:	file format elf32-mos

SYMBOL TABLE:
00000000 l    df *ABS*	00000000 zero-bss.c
00000000 l    df *ABS*	00000000 zero-zp-bss.c
00000000 l    df *ABS*	00000000 ld-temp.o
0000033b l     F .text	0000003f doSomething
0800a000 l     F .block8	000010f4 FAR8_doSomething
000007af l     F .text	000001e7 putchar
000009e6 l     O .bss	00000007 kernelEventData
000009b6 l     O .rodata	00000030 textColors
00000030 l     O .zp.bss	00000001 _col
00000031 l     O .zp.bss	00000001 _row
000009ee l     O .bss	00000004 _BITMAP_BASE.0
000009f2 l     O .bss	00000004 _BITMAP_BASE.1
000009f6 l     O .bss	00000004 _BITMAP_BASE.2
000009ed l     O .bss	00000001 kernelError
00000032 l     O .zp.bss	00000002 __putchar.s
0000037a g     F .text	00000430 main
00000311 g       .text	00000000 __after_main
00000300 g       .text	00000000 __do_init_stack
00000308 g       .text	00000000 __do_zero_bss
00000315 g     F .text	00000013 __zero_bss
0000030b g       .text	00000000 __do_zero_zp_bss
00000328 g     F .text	00000013 __zero_zp_bss
000007aa g     F .text	00000005 exit
00000314 g       .text	00000000 _fini
00000996  w    F .text	00000020 __memset
00001000  w      *ABS*	00000000 __heap_default_limit
000009fa g       .noinit	00000000 __heap_start
00000010 g       *ABS*	00000000 __rc0
00000012 g       *ABS*	00000000 __rc2
00000014 g       *ABS*	00000000 __rc4
00000016 g       *ABS*	00000000 __rc6
00000018 g       *ABS*	00000000 __rc8
0000001a g       *ABS*	00000000 __rc10
0000001c g       *ABS*	00000000 __rc12
0000001e g       *ABS*	00000000 __rc14
00000020 g       *ABS*	00000000 __rc16
00000022 g       *ABS*	00000000 __rc18
00000024 g       *ABS*	00000000 __rc20
00000026 g       *ABS*	00000000 __rc22
00000028 g       *ABS*	00000000 __rc24
0000002a g       *ABS*	00000000 __rc26
0000002c g       *ABS*	00000000 __rc28
0000002e g       *ABS*	00000000 __rc30
0000002f g       *ABS*	00000000 __rc31
00000300 g       *ABS*	00000000 __f256_start
0000a000 g       *ABS*	00000000 __stack
0000a000 g       *ABS*	00000000 __SLOT_ADDR
0800a000 g       *ABS*	00000000 __block8_lma
00002000 g       *ABS*	00000000 __BLOCK_SIZE
0900a000 g       *ABS*	00000000 __block9_lma
0a00a000 g       *ABS*	00000000 __block10_lma
0b00a000 g       *ABS*	00000000 __block11_lma
0c00a000 g       *ABS*	00000000 __block12_lma
0d00a000 g       *ABS*	00000000 __block13_lma
0e00a000 g       *ABS*	00000000 __block14_lma
0f00a000 g       *ABS*	00000000 __block15_lma
1000a000 g       *ABS*	00000000 __block16_lma
1100a000 g       *ABS*	00000000 __block17_lma
1200a000 g       *ABS*	00000000 __block18_lma
1300a000 g       *ABS*	00000000 __block19_lma
1400a000 g       *ABS*	00000000 __block20_lma
1500a000 g       *ABS*	00000000 __block21_lma
1600a000 g       *ABS*	00000000 __block22_lma
1700a000 g       *ABS*	00000000 __block23_lma
000009e6 g       .bss	00000000 __bss_start
0800b0f4 g       .block8	00000000 end_block8
00000300 g       .text	00000000 _start
0000002d g       *ABS*	00000000 __rc29
0000002b g       *ABS*	00000000 __rc27
00000029 g       *ABS*	00000000 __rc25
00000027 g       *ABS*	00000000 __rc23
00000025 g       *ABS*	00000000 __rc21
00000023 g       *ABS*	00000000 __rc19
00000021 g       *ABS*	00000000 __rc17
0000001f g       *ABS*	00000000 __rc15
0000001d g       *ABS*	00000000 __rc13
0000001b g       *ABS*	00000000 __rc11
00000019 g       *ABS*	00000000 __rc9
00000017 g       *ABS*	00000000 __rc7
00000015 g       *ABS*	00000000 __rc5
00000013 g       *ABS*	00000000 __rc3
00000011 g       *ABS*	00000000 __rc1
00000030 g       .zp.data	00000000 __zp_data_start
00000300 g       *ABS*	00000000 __zp_data_load_start
00000000 g       *ABS*	00000000 __zp_data_size
00000030 g       .zp.bss	00000000 __zp_bss_start
00000004 g       *ABS*	00000000 __zp_bss_size
00000300 g       .text	00000000 _init
000009b6 g       .text	00000000 __init_array_start
000009b6 g       .text	00000000 __init_array_end
000009b6 g       .text	00000000 __fini_array_start
000009b6 g       .text	00000000 __fini_array_end
000009e6 g       .data	00000000 __data_start
000009e6 g       .data	00000000 __data_end
000009e6 g       *ABS*	00000000 __data_load_start
00000000 g       *ABS*	00000000 __data_size
000009fa g       .bss	00000000 __bss_end
00000014 g       *ABS*	00000000 __bss_size
0800b0f4 g       .block8	00000000 end_block9
0800b0f4 g       .block8	00000000 end_block10
0800b0f4 g       .block8	00000000 end_block11
0800b0f4 g       .block8	00000000 end_block12
0800b0f4 g       .block8	00000000 end_block13
0800b0f4 g       .block8	00000000 end_block14
0800b0f4 g       .block8	00000000 end_block15
0800b0f4 g       .block8	00000000 end_block16
0800b0f4 g       .block8	00000000 end_block17
0800b0f4 g       .block8	00000000 end_block18
0800b0f4 g       .block8	00000000 end_block19
0800b0f4 g       .block8	00000000 end_block20
0800b0f4 g       .block8	00000000 end_block21
0800b0f4 g       .block8	00000000 end_block22
0800b0f4 g       .block8	00000000 end_block23

Disassembly of section .text:

00000300 <_start>:
     300: a9 00        	lda	#$0
     302: 85 10        	sta	$10                     ; 0x10 <__rc0>
     304: a9 a0        	lda	#$a0
     306: 85 11        	sta	$11                     ; 0x11 <__rc1>

00000308 <__do_zero_bss>:
     308: 20 15 03     	jsr	$315 <__zero_bss>

0000030b <__do_zero_zp_bss>:
     30b: 20 28 03     	jsr	$328 <__zero_zp_bss>
     30e: 20 7a 03     	jsr	$37a <main>

00000311 <__after_main>:
     311: 4c aa 07     	jmp	$7aa <exit>

00000314 <_fini>:
     314: 60           	rts

00000315 <__zero_bss>:
     315: a2 14        	ldx	#$14
     317: a0 00        	ldy	#$0
     319: a9 e6        	lda	#$e6
     31b: 85 12        	sta	$12                     ; 0x12 <__rc2>
     31d: a9 09        	lda	#$9
     31f: 85 13        	sta	$13                     ; 0x13 <__rc3>
     321: a9 00        	lda	#$0
     323: 84 14        	sty	$14                     ; 0x14 <__rc4>
     325: 4c 96 09     	jmp	$996 <__memset>

00000328 <__zero_zp_bss>:
     328: a2 04        	ldx	#$4
     32a: a0 00        	ldy	#$0
     32c: a9 30        	lda	#$30
     32e: 85 12        	sta	$12                     ; 0x12 <__rc2>
     330: a9 00        	lda	#$0
     332: 85 13        	sta	$13                     ; 0x13 <__rc3>
     334: a9 00        	lda	#$0
     336: 84 14        	sty	$14                     ; 0x14 <__rc4>
     338: 4c 96 09     	jmp	$996 <__memset>

0000033b <doSomething>:
     33b: 18           	clc
     33c: a5 10        	lda	$10                     ; 0x10 <__rc0>
     33e: 69 ff        	adc	#$ff
     340: 85 10        	sta	$10                     ; 0x10 <__rc0>
     342: a5 11        	lda	$11                     ; 0x11 <__rc1>
     344: 69 ff        	adc	#$ff
     346: 85 11        	sta	$11                     ; 0x11 <__rc1>
     348: a6 24        	ldx	$24                     ; 0x24 <__rc20>
     34a: da           	phx
     34b: a6 25        	ldx	$25                     ; 0x25 <__rc21>
     34d: da           	phx
     34e: a5 0d        	lda	$d                      ; 0xd <__zp_bss_size+0x9>
     350: 18           	clc
     351: a6 10        	ldx	$10                     ; 0x10 <__rc0>
     353: 86 24        	stx	$24                     ; 0x24 <__rc20>
     355: a6 11        	ldx	$11                     ; 0x11 <__rc1>
     357: 86 25        	stx	$25                     ; 0x25 <__rc21>
     359: 92 24        	sta	($24)                   ; 0x24 <__rc20>
     35b: a2 08        	ldx	#$8
     35d: 86 0d        	stx	$d                      ; 0xd <__zp_bss_size+0x9>
     35f: 20 00 a0     	jsr	$a000 <__heap_start+0x9606>
     362: b2 24        	lda	($24)                   ; 0x24 <__rc20>
     364: 85 0d        	sta	$d                      ; 0xd <__zp_bss_size+0x9>
     366: fa           	plx
     367: 86 25        	stx	$25                     ; 0x25 <__rc21>
     369: fa           	plx
     36a: 86 24        	stx	$24                     ; 0x24 <__rc20>
     36c: 18           	clc
     36d: a5 10        	lda	$10                     ; 0x10 <__rc0>
     36f: 69 01        	adc	#$1
     371: 85 10        	sta	$10                     ; 0x10 <__rc0>
     373: a5 11        	lda	$11                     ; 0x11 <__rc1>
     375: 69 00        	adc	#$0
     377: 85 11        	sta	$11                     ; 0x11 <__rc1>
     379: 60           	rts

0000037a <main>:
     37a: 64 1c        	stz	$1c                     ; 0x1c <__rc12>
     37c: a2 00        	ldx	#$0
     37e: 86 1a        	stx	$1a                     ; 0x1a <__rc10>
     380: a2 d0        	ldx	#$d0
     382: 86 1b        	stx	$1b                     ; 0x1b <__rc11>
     384: a2 00        	ldx	#$0
     386: 86 16        	stx	$16                     ; 0x16 <__rc6>
     388: a2 d8        	ldx	#$d8
     38a: 86 17        	stx	$17                     ; 0x17 <__rc7>
     38c: a2 00        	ldx	#$0
     38e: 86 18        	stx	$18                     ; 0x18 <__rc8>
     390: a2 d4        	ldx	#$d4
     392: 86 19        	stx	$19                     ; 0x19 <__rc9>
     394: a2 00        	ldx	#$0
     396: 86 14        	stx	$14                     ; 0x14 <__rc4>
     398: a2 dc        	ldx	#$dc
     39a: 86 15        	stx	$15                     ; 0x15 <__rc5>
     39c: a2 00        	ldx	#$0
     39e: 86 12        	stx	$12                     ; 0x12 <__rc2>
     3a0: a2 c0        	ldx	#$c0
     3a2: 86 13        	stx	$13                     ; 0x13 <__rc3>
     3a4: 64 01        	stz	$1                      ; 0x1 <__zp_data_size+0x1>
     3a6: a2 3f        	ldx	#$3f
     3a8: 8e 00 d0     	stx	$d000                   ; 0xd000 <__heap_start+0xc606>
     3ab: a2 b3        	ldx	#$b3
     3ad: 86 00        	stx	$0                      ; 0x0 <__zp_data_size>
     3af: 64 08        	stz	$8                      ; 0x8 <__zp_bss_size+0x4>
     3b1: a2 01        	ldx	#$1
     3b3: 86 09        	stx	$9                      ; 0x9 <__zp_bss_size+0x5>
     3b5: e8           	inx
     3b6: 86 0a        	stx	$a                      ; 0xa <__zp_bss_size+0x6>
     3b8: e8           	inx
     3b9: 86 0b        	stx	$b                      ; 0xb <__zp_bss_size+0x7>
     3bb: e8           	inx
     3bc: 86 0c        	stx	$c                      ; 0xc <__zp_bss_size+0x8>
     3be: e8           	inx
     3bf: 86 0d        	stx	$d                      ; 0xd <__zp_bss_size+0x9>
     3c1: a2 e6        	ldx	#$e6
     3c3: a9 09        	lda	#$9
     3c5: 86 f0        	stx	$f0                     ; 0xf0 <__rc31+0xc1>
     3c7: 85 f1        	sta	$f1                     ; 0xf1 <__rc31+0xc2>
     3c9: a6 01        	ldx	$1                      ; 0x1 <__zp_data_size+0x1>
     3cb: a0 01        	ldy	#$1
     3cd: 84 01        	sty	$1                      ; 0x1 <__zp_data_size+0x1>
     3cf: a5 1c        	lda	$1c                     ; 0x1c <__rc12>
     3d1: 92 1a        	sta	($1a)                   ; 0x1a <__rc10>
     3d3: 91 1a        	sta	($1a),y                 ; 0x1a <__rc10>
     3d5: c8           	iny
     3d6: 91 1a        	sta	($1a),y                 ; 0x1a <__rc10>
     3d8: c8           	iny
     3d9: a9 ff        	lda	#$ff
     3db: 91 1a        	sta	($1a),y                 ; 0x1a <__rc10>
     3dd: 86 01        	stx	$1                      ; 0x1 <__zp_data_size+0x1>
     3df: a5 1a        	lda	$1a                     ; 0x1a <__rc10>
     3e1: 18           	clc
     3e2: 69 04        	adc	#$4
     3e4: 85 1a        	sta	$1a                     ; 0x1a <__rc10>
     3e6: a5 1b        	lda	$1b                     ; 0x1b <__rc11>
     3e8: 69 00        	adc	#$0
     3ea: e6 1c        	inc	$1c                     ; 0x1c <__rc12>
     3ec: 85 1b        	sta	$1b                     ; 0x1b <__rc11>
     3ee: d0 d9        	bne	$3c9 <main+0x4f>
     3f0: a9 00        	lda	#$0
     3f2: a6 01        	ldx	$1                      ; 0x1 <__zp_data_size+0x1>
     3f4: a0 01        	ldy	#$1
     3f6: 84 01        	sty	$1                      ; 0x1 <__zp_data_size+0x1>
     3f8: 92 18        	sta	($18)                   ; 0x18 <__rc8>
     3fa: 91 18        	sta	($18),y                 ; 0x18 <__rc8>
     3fc: c8           	iny
     3fd: 91 18        	sta	($18),y                 ; 0x18 <__rc8>
     3ff: c8           	iny
     400: 85 1a        	sta	$1a                     ; 0x1a <__rc10>
     402: a9 ff        	lda	#$ff
     404: 91 18        	sta	($18),y                 ; 0x18 <__rc8>
     406: 86 01        	stx	$1                      ; 0x1 <__zp_data_size+0x1>
     408: a5 18        	lda	$18                     ; 0x18 <__rc8>
     40a: 18           	clc
     40b: 69 04        	adc	#$4
     40d: 85 18        	sta	$18                     ; 0x18 <__rc8>
     40f: a5 19        	lda	$19                     ; 0x19 <__rc9>
     411: 69 00        	adc	#$0
     413: e6 1a        	inc	$1a                     ; 0x1a <__rc10>
     415: 85 19        	sta	$19                     ; 0x19 <__rc9>
     417: a5 1a        	lda	$1a                     ; 0x1a <__rc10>
     419: d0 d7        	bne	$3f2 <main+0x78>
     41b: a9 00        	lda	#$0
     41d: a6 01        	ldx	$1                      ; 0x1 <__zp_data_size+0x1>
     41f: a0 01        	ldy	#$1
     421: 84 01        	sty	$1                      ; 0x1 <__zp_data_size+0x1>
     423: 92 16        	sta	($16)                   ; 0x16 <__rc6>
     425: 91 16        	sta	($16),y                 ; 0x16 <__rc6>
     427: c8           	iny
     428: 91 16        	sta	($16),y                 ; 0x16 <__rc6>
     42a: c8           	iny
     42b: 85 18        	sta	$18                     ; 0x18 <__rc8>
     42d: a9 ff        	lda	#$ff
     42f: 91 16        	sta	($16),y                 ; 0x16 <__rc6>
     431: 86 01        	stx	$1                      ; 0x1 <__zp_data_size+0x1>
     433: a5 16        	lda	$16                     ; 0x16 <__rc6>
     435: 18           	clc
     436: 69 04        	adc	#$4
     438: 85 16        	sta	$16                     ; 0x16 <__rc6>
     43a: a5 17        	lda	$17                     ; 0x17 <__rc7>
     43c: 69 00        	adc	#$0
     43e: e6 18        	inc	$18                     ; 0x18 <__rc8>
     440: 85 17        	sta	$17                     ; 0x17 <__rc7>
     442: a5 18        	lda	$18                     ; 0x18 <__rc8>
     444: d0 d7        	bne	$41d <main+0xa3>
     446: a9 00        	lda	#$0
     448: a6 01        	ldx	$1                      ; 0x1 <__zp_data_size+0x1>
     44a: a0 01        	ldy	#$1
     44c: 84 01        	sty	$1                      ; 0x1 <__zp_data_size+0x1>
     44e: 92 14        	sta	($14)                   ; 0x14 <__rc4>
     450: 91 14        	sta	($14),y                 ; 0x14 <__rc4>
     452: c8           	iny
     453: 91 14        	sta	($14),y                 ; 0x14 <__rc4>
     455: c8           	iny
     456: 85 16        	sta	$16                     ; 0x16 <__rc6>
     458: a9 ff        	lda	#$ff
     45a: 91 14        	sta	($14),y                 ; 0x14 <__rc4>
     45c: 86 01        	stx	$1                      ; 0x1 <__zp_data_size+0x1>
     45e: a5 14        	lda	$14                     ; 0x14 <__rc4>
     460: 18           	clc
     461: 69 04        	adc	#$4
     463: 85 14        	sta	$14                     ; 0x14 <__rc4>
     465: a5 15        	lda	$15                     ; 0x15 <__rc5>
     467: 69 00        	adc	#$0
     469: e6 16        	inc	$16                     ; 0x16 <__rc6>
     46b: 85 15        	sta	$15                     ; 0x15 <__rc5>
     46d: a5 16        	lda	$16                     ; 0x16 <__rc6>
     46f: d0 d7        	bne	$448 <main+0xce>
     471: ad 02 d0     	lda	$d002                   ; 0xd002 <__heap_start+0xc608>
     474: 29 f0        	and	#$f0
     476: 8d 02 d0     	sta	$d002                   ; 0xd002 <__heap_start+0xc608>
     479: ad 02 d0     	lda	$d002                   ; 0xd002 <__heap_start+0xc608>
     47c: 29 0f        	and	#$f
     47e: 09 10        	ora	#$10
     480: 8d 02 d0     	sta	$d002                   ; 0xd002 <__heap_start+0xc608>
     483: a2 02        	ldx	#$2
     485: 8e 03 d0     	stx	$d003                   ; 0xd003 <__heap_start+0xc609>
     488: ad 01 d0     	lda	$d001                   ; 0xd001 <__heap_start+0xc607>
     48b: 29 f9        	and	#$f9
     48d: 09 04        	ora	#$4
     48f: 8d 01 d0     	sta	$d001                   ; 0xd001 <__heap_start+0xc607>
     492: 64 14        	stz	$14                     ; 0x14 <__rc4>
     494: 9c 10 d0     	stz	$d010                   ; 0xd010 <__heap_start+0xc616>
     497: a2 00        	ldx	#$0
     499: 64 15        	stz	$15                     ; 0x15 <__rc5>
     49b: 86 18        	stx	$18                     ; 0x18 <__rc8>
     49d: a4 18        	ldy	$18                     ; 0x18 <__rc8>
     49f: be b6 09     	ldx	$9b6,y                  ; 0x9b6 <textColors>
     4a2: 86 19        	stx	$19                     ; 0x19 <__rc9>
     4a4: be b7 09     	ldx	$9b7,y                  ; 0x9b7 <textColors+0x1>
     4a7: 86 1a        	stx	$1a                     ; 0x1a <__rc10>
     4a9: be b8 09     	ldx	$9b8,y                  ; 0x9b8 <textColors+0x2>
     4ac: 86 1b        	stx	$1b                     ; 0x1b <__rc11>
     4ae: a6 15        	ldx	$15                     ; 0x15 <__rc5>
     4b0: 8e 00 de     	stx	$de00                   ; 0xde00 <__heap_start+0xd406>
     4b3: 86 17        	stx	$17                     ; 0x17 <__rc7>
     4b5: 9c 01 de     	stz	$de01                   ; 0xde01 <__heap_start+0xd407>
     4b8: a2 04        	ldx	#$4
     4ba: 8e 02 de     	stx	$de02                   ; 0xde02 <__heap_start+0xd408>
     4bd: 9c 03 de     	stz	$de03                   ; 0xde03 <__heap_start+0xd409>
     4c0: ad 10 de     	lda	$de10                   ; 0xde10 <__heap_start+0xd416>
     4c3: ac 11 de     	ldy	$de11                   ; 0xde11 <__heap_start+0xd417>
     4c6: 84 15        	sty	$15                     ; 0x15 <__rc5>
     4c8: ac 12 de     	ldy	$de12                   ; 0xde12 <__heap_start+0xd418>
     4cb: ac 13 de     	ldy	$de13                   ; 0xde13 <__heap_start+0xd419>
     4ce: 18           	clc
     4cf: 65 14        	adc	$14                     ; 0x14 <__rc4>
     4d1: 85 16        	sta	$16                     ; 0x16 <__rc6>
     4d3: a6 17        	ldx	$17                     ; 0x17 <__rc7>
     4d5: a9 d8        	lda	#$d8
     4d7: 65 15        	adc	$15                     ; 0x15 <__rc5>
     4d9: 85 17        	sta	$17                     ; 0x17 <__rc7>
     4db: a5 1b        	lda	$1b                     ; 0x1b <__rc11>
     4dd: 92 16        	sta	($16)                   ; 0x16 <__rc6>
     4df: a0 01        	ldy	#$1
     4e1: a5 1a        	lda	$1a                     ; 0x1a <__rc10>
     4e3: 91 16        	sta	($16),y                 ; 0x16 <__rc6>
     4e5: c8           	iny
     4e6: a5 19        	lda	$19                     ; 0x19 <__rc9>
     4e8: 91 16        	sta	($16),y                 ; 0x16 <__rc6>
     4ea: c8           	iny
     4eb: a9 ff        	lda	#$ff
     4ed: 91 16        	sta	($16),y                 ; 0x16 <__rc6>
     4ef: 8e 00 de     	stx	$de00                   ; 0xde00 <__heap_start+0xd406>
     4f2: 9c 01 de     	stz	$de01                   ; 0xde01 <__heap_start+0xd407>
     4f5: c8           	iny
     4f6: 8c 02 de     	sty	$de02                   ; 0xde02 <__heap_start+0xd408>
     4f9: 9c 03 de     	stz	$de03                   ; 0xde03 <__heap_start+0xd409>
     4fc: ad 10 de     	lda	$de10                   ; 0xde10 <__heap_start+0xd416>
     4ff: 85 15        	sta	$15                     ; 0x15 <__rc5>
     501: ad 11 de     	lda	$de11                   ; 0xde11 <__heap_start+0xd417>
     504: 85 16        	sta	$16                     ; 0x16 <__rc6>
     506: a9 40        	lda	#$40
     508: 18           	clc
     509: 65 15        	adc	$15                     ; 0x15 <__rc5>
     50b: a8           	tay
     50c: a9 d8        	lda	#$d8
     50e: 65 16        	adc	$16                     ; 0x16 <__rc6>
     510: 85 17        	sta	$17                     ; 0x17 <__rc7>
     512: 84 16        	sty	$16                     ; 0x16 <__rc6>
     514: ad 12 de     	lda	$de12                   ; 0xde12 <__heap_start+0xd418>
     517: ad 13 de     	lda	$de13                   ; 0xde13 <__heap_start+0xd419>
     51a: a5 1b        	lda	$1b                     ; 0x1b <__rc11>
     51c: 92 16        	sta	($16)                   ; 0x16 <__rc6>
     51e: a5 1a        	lda	$1a                     ; 0x1a <__rc10>
     520: a0 01        	ldy	#$1
     522: 91 16        	sta	($16),y                 ; 0x16 <__rc6>
     524: a5 19        	lda	$19                     ; 0x19 <__rc9>
     526: c8           	iny
     527: 91 16        	sta	($16),y                 ; 0x16 <__rc6>
     529: c8           	iny
     52a: a9 ff        	lda	#$ff
     52c: 91 16        	sta	($16),y                 ; 0x16 <__rc6>
     52e: e8           	inx
     52f: 86 15        	stx	$15                     ; 0x15 <__rc5>
     531: 18           	clc
     532: a5 18        	lda	$18                     ; 0x18 <__rc8>
     534: 69 03        	adc	#$3
     536: aa           	tax
     537: c9 30        	cmp	#$30
     539: f0 03        	beq	$53e <main+0x1c4>
     53b: 4c 9b 04     	jmp	$49b <main+0x121>
     53e: a6 01        	ldx	$1                      ; 0x1 <__zp_data_size+0x1>
     540: 86 18        	stx	$18                     ; 0x18 <__rc8>
     542: a2 50        	ldx	#$50
     544: 8e 00 de     	stx	$de00                   ; 0xde00 <__heap_start+0xd406>
     547: 9c 01 de     	stz	$de01                   ; 0xde01 <__heap_start+0xd407>
     54a: a2 1e        	ldx	#$1e
     54c: 8e 02 de     	stx	$de02                   ; 0xde02 <__heap_start+0xd408>
     54f: 9c 03 de     	stz	$de03                   ; 0xde03 <__heap_start+0xd409>
     552: ae 10 de     	ldx	$de10                   ; 0xde10 <__heap_start+0xd416>
     555: ac 11 de     	ldy	$de11                   ; 0xde11 <__heap_start+0xd417>
     558: ad 12 de     	lda	$de12                   ; 0xde12 <__heap_start+0xd418>
     55b: ad 13 de     	lda	$de13                   ; 0xde13 <__heap_start+0xd419>
     55e: a9 02        	lda	#$2
     560: 85 01        	sta	$1                      ; 0x1 <__zp_data_size+0x1>
     562: e0 01        	cpx	#$1
     564: 98           	tya
     565: e9 00        	sbc	#$0
     567: 50 02        	bvc	$56b <main+0x1f1>
     569: 49 80        	eor	#$80
     56b: c9 00        	cmp	#$0
     56d: 10 03        	bpl	$572 <main+0x1f8>
     56f: 4c c9 05     	jmp	$5c9 <main+0x24f>
     572: a9 20        	lda	#$20
     574: 86 19        	stx	$19                     ; 0x19 <__rc9>
     576: 86 14        	stx	$14                     ; 0x14 <__rc4>
     578: 84 15        	sty	$15                     ; 0x15 <__rc5>
     57a: a2 00        	ldx	#$0
     57c: 86 16        	stx	$16                     ; 0x16 <__rc6>
     57e: a2 c0        	ldx	#$c0
     580: 86 17        	stx	$17                     ; 0x17 <__rc7>
     582: 80 04        	bra	$588 <main+0x20e>
     584: a6 15        	ldx	$15                     ; 0x15 <__rc5>
     586: f0 14        	beq	$59c <main+0x222>
     588: 92 16        	sta	($16)                   ; 0x16 <__rc6>
     58a: e6 16        	inc	$16                     ; 0x16 <__rc6>
     58c: d0 02        	bne	$590 <main+0x216>
     58e: e6 17        	inc	$17                     ; 0x17 <__rc7>
     590: a2 ff        	ldx	#$ff
     592: c6 14        	dec	$14                     ; 0x14 <__rc4>
     594: e4 14        	cpx	$14                     ; 0x14 <__rc4>
     596: d0 ec        	bne	$584 <main+0x20a>
     598: c6 15        	dec	$15                     ; 0x15 <__rc5>
     59a: 80 e8        	bra	$584 <main+0x20a>
     59c: a6 14        	ldx	$14                     ; 0x14 <__rc4>
     59e: d0 e8        	bne	$588 <main+0x20e>
     5a0: a2 03        	ldx	#$3
     5a2: 86 01        	stx	$1                      ; 0x1 <__zp_data_size+0x1>
     5a4: a6 19        	ldx	$19                     ; 0x19 <__rc9>
     5a6: 80 03        	bra	$5ab <main+0x231>
     5a8: 98           	tya
     5a9: f0 19        	beq	$5c4 <main+0x24a>
     5ab: a9 f0        	lda	#$f0
     5ad: 92 12        	sta	($12)                   ; 0x12 <__rc2>
     5af: e6 12        	inc	$12                     ; 0x12 <__rc2>
     5b1: f0 07        	beq	$5ba <main+0x240>
     5b3: ca           	dex
     5b4: e0 ff        	cpx	#$ff
     5b6: d0 f0        	bne	$5a8 <main+0x22e>
     5b8: 80 07        	bra	$5c1 <main+0x247>
     5ba: e6 13        	inc	$13                     ; 0x13 <__rc3>
     5bc: ca           	dex
     5bd: e0 ff        	cpx	#$ff
     5bf: d0 e7        	bne	$5a8 <main+0x22e>
     5c1: 88           	dey
     5c2: 80 e4        	bra	$5a8 <main+0x22e>
     5c4: 8a           	txa
     5c5: d0 e4        	bne	$5ab <main+0x231>
     5c7: 80 04        	bra	$5cd <main+0x253>
     5c9: a2 03        	ldx	#$3
     5cb: 86 01        	stx	$1                      ; 0x1 <__zp_data_size+0x1>
     5cd: a6 18        	ldx	$18                     ; 0x18 <__rc8>
     5cf: 86 01        	stx	$1                      ; 0x1 <__zp_data_size+0x1>
     5d1: 64 30        	stz	$30                     ; 0x30 <_col>
     5d3: 9c 14 d0     	stz	$d014                   ; 0xd014 <__heap_start+0xc61a>
     5d6: 9c 15 d0     	stz	$d015                   ; 0xd015 <__heap_start+0xc61b>
     5d9: 64 31        	stz	$31                     ; 0x31 <_row>
     5db: 9c 16 d0     	stz	$d016                   ; 0xd016 <__heap_start+0xc61c>
     5de: 9c 17 d0     	stz	$d017                   ; 0xd017 <__heap_start+0xc61d>
     5e1: a2 40        	ldx	#$40
     5e3: 8e 00 de     	stx	$de00                   ; 0xde00 <__heap_start+0xd406>
     5e6: a2 01        	ldx	#$1
     5e8: 8e 01 de     	stx	$de01                   ; 0xde01 <__heap_start+0xd407>
     5eb: a2 f0        	ldx	#$f0
     5ed: 8e 02 de     	stx	$de02                   ; 0xde02 <__heap_start+0xd408>
     5f0: 9c 03 de     	stz	$de03                   ; 0xde03 <__heap_start+0xd409>
     5f3: ae 10 de     	ldx	$de10                   ; 0xde10 <__heap_start+0xd416>
     5f6: 86 17        	stx	$17                     ; 0x17 <__rc7>
     5f8: ae 11 de     	ldx	$de11                   ; 0xde11 <__heap_start+0xd417>
     5fb: 86 12        	stx	$12                     ; 0x12 <__rc2>
     5fd: ae 12 de     	ldx	$de12                   ; 0xde12 <__heap_start+0xd418>
     600: 86 13        	stx	$13                     ; 0x13 <__rc3>
     602: ae 13 de     	ldx	$de13                   ; 0xde13 <__heap_start+0xd419>
     605: 86 14        	stx	$14                     ; 0x14 <__rc4>
     607: a4 12        	ldy	$12                     ; 0x12 <__rc2>
     609: 84 15        	sty	$15                     ; 0x15 <__rc5>
     60b: 06 15        	asl	$15                     ; 0x15 <__rc5>
     60d: a5 13        	lda	$13                     ; 0x13 <__rc3>
     60f: 2a           	rol
     610: 86 16        	stx	$16                     ; 0x16 <__rc6>
     612: 26 16        	rol	$16                     ; 0x16 <__rc6>
     614: 06 15        	asl	$15                     ; 0x15 <__rc5>
     616: 2a           	rol
     617: 26 16        	rol	$16                     ; 0x16 <__rc6>
     619: 06 15        	asl	$15                     ; 0x15 <__rc5>
     61b: 2a           	rol
     61c: 26 16        	rol	$16                     ; 0x16 <__rc6>
     61e: 85 15        	sta	$15                     ; 0x15 <__rc5>
     620: 8d 00 de     	sta	$de00                   ; 0xde00 <__heap_start+0xd406>
     623: a5 16        	lda	$16                     ; 0x16 <__rc6>
     625: 8d 01 de     	sta	$de01                   ; 0xde01 <__heap_start+0xd407>
     628: 9c 02 de     	stz	$de02                   ; 0xde02 <__heap_start+0xd408>
     62b: a2 20        	ldx	#$20
     62d: 8e 03 de     	stx	$de03                   ; 0xde03 <__heap_start+0xd409>
     630: ae 10 de     	ldx	$de10                   ; 0xde10 <__heap_start+0xd416>
     633: 86 16        	stx	$16                     ; 0x16 <__rc6>
     635: ae 11 de     	ldx	$de11                   ; 0xde11 <__heap_start+0xd417>
     638: 86 18        	stx	$18                     ; 0x18 <__rc8>
     63a: ac 12 de     	ldy	$de12                   ; 0xde12 <__heap_start+0xd418>
     63d: ae 13 de     	ldx	$de13                   ; 0xde13 <__heap_start+0xd419>
     640: e4 14        	cpx	$14                     ; 0x14 <__rc4>
     642: d0 14        	bne	$658 <main+0x2de>
     644: c4 13        	cpy	$13                     ; 0x13 <__rc3>
     646: d0 10        	bne	$658 <main+0x2de>
     648: a6 18        	ldx	$18                     ; 0x18 <__rc8>
     64a: e4 12        	cpx	$12                     ; 0x12 <__rc2>
     64c: d0 0a        	bne	$658 <main+0x2de>
     64e: a6 16        	ldx	$16                     ; 0x16 <__rc6>
     650: e4 17        	cpx	$17                     ; 0x17 <__rc7>
     652: d0 04        	bne	$658 <main+0x2de>
     654: a6 15        	ldx	$15                     ; 0x15 <__rc5>
     656: 80 06        	bra	$65e <main+0x2e4>
     658: a6 15        	ldx	$15                     ; 0x15 <__rc5>
     65a: e8           	inx
     65b: d0 01        	bne	$65e <main+0x2e4>
     65d: 1a           	inc
     65e: 8e 00 de     	stx	$de00                   ; 0xde00 <__heap_start+0xd406>
     661: 8d 01 de     	sta	$de01                   ; 0xde01 <__heap_start+0xd407>
     664: 9c 02 de     	stz	$de02                   ; 0xde02 <__heap_start+0xd408>
     667: a2 20        	ldx	#$20
     669: 8e 03 de     	stx	$de03                   ; 0xde03 <__heap_start+0xd409>
     66c: ae 10 de     	ldx	$de10                   ; 0xde10 <__heap_start+0xd416>
     66f: 86 12        	stx	$12                     ; 0x12 <__rc2>
     671: ae 11 de     	ldx	$de11                   ; 0xde11 <__heap_start+0xd417>
     674: 86 13        	stx	$13                     ; 0x13 <__rc3>
     676: ae 12 de     	ldx	$de12                   ; 0xde12 <__heap_start+0xd418>
     679: 86 14        	stx	$14                     ; 0x14 <__rc4>
     67b: ae 13 de     	ldx	$de13                   ; 0xde13 <__heap_start+0xd419>
     67e: 86 15        	stx	$15                     ; 0x15 <__rc5>
     680: 38           	sec
     681: a9 00        	lda	#$0
     683: e5 12        	sbc	$12                     ; 0x12 <__rc2>
     685: 85 19        	sta	$19                     ; 0x19 <__rc9>
     687: a9 00        	lda	#$0
     689: e5 13        	sbc	$13                     ; 0x13 <__rc3>
     68b: aa           	tax
     68c: a9 08        	lda	#$8
     68e: e5 14        	sbc	$14                     ; 0x14 <__rc4>
     690: 85 16        	sta	$16                     ; 0x16 <__rc6>
     692: a9 00        	lda	#$0
     694: e5 15        	sbc	$15                     ; 0x15 <__rc5>
     696: 8e ef 09     	stx	$9ef                    ; 0x9ef <_BITMAP_BASE.0+0x1>
     699: a4 16        	ldy	$16                     ; 0x16 <__rc6>
     69b: 8c f0 09     	sty	$9f0                    ; 0x9f0 <_BITMAP_BASE.0+0x2>
     69e: 8d f1 09     	sta	$9f1                    ; 0x9f1 <_BITMAP_BASE.0+0x3>
     6a1: a8           	tay
     6a2: 38           	sec
     6a3: a5 19        	lda	$19                     ; 0x19 <__rc9>
     6a5: e5 12        	sbc	$12                     ; 0x12 <__rc2>
     6a7: 85 18        	sta	$18                     ; 0x18 <__rc8>
     6a9: 8a           	txa
     6aa: e5 13        	sbc	$13                     ; 0x13 <__rc3>
     6ac: 85 1a        	sta	$1a                     ; 0x1a <__rc10>
     6ae: a5 16        	lda	$16                     ; 0x16 <__rc6>
     6b0: e5 14        	sbc	$14                     ; 0x14 <__rc4>
     6b2: 85 16        	sta	$16                     ; 0x16 <__rc6>
     6b4: 98           	tya
     6b5: e5 15        	sbc	$15                     ; 0x15 <__rc5>
     6b7: 85 17        	sta	$17                     ; 0x17 <__rc7>
     6b9: 38           	sec
     6ba: a4 18        	ldy	$18                     ; 0x18 <__rc8>
     6bc: 8c f2 09     	sty	$9f2                    ; 0x9f2 <_BITMAP_BASE.1>
     6bf: a6 1a        	ldx	$1a                     ; 0x1a <__rc10>
     6c1: 8e f3 09     	stx	$9f3                    ; 0x9f3 <_BITMAP_BASE.1+0x1>
     6c4: a4 16        	ldy	$16                     ; 0x16 <__rc6>
     6c6: 8c f4 09     	sty	$9f4                    ; 0x9f4 <_BITMAP_BASE.1+0x2>
     6c9: 8d f5 09     	sta	$9f5                    ; 0x9f5 <_BITMAP_BASE.1+0x3>
     6cc: a5 18        	lda	$18                     ; 0x18 <__rc8>
     6ce: e5 12        	sbc	$12                     ; 0x12 <__rc2>
     6d0: 85 18        	sta	$18                     ; 0x18 <__rc8>
     6d2: a5 1a        	lda	$1a                     ; 0x1a <__rc10>
     6d4: e5 13        	sbc	$13                     ; 0x13 <__rc3>
     6d6: a8           	tay
     6d7: a5 16        	lda	$16                     ; 0x16 <__rc6>
     6d9: e5 14        	sbc	$14                     ; 0x14 <__rc4>
     6db: 85 12        	sta	$12                     ; 0x12 <__rc2>
     6dd: a5 17        	lda	$17                     ; 0x17 <__rc7>
     6df: e5 15        	sbc	$15                     ; 0x15 <__rc5>
     6e1: a6 18        	ldx	$18                     ; 0x18 <__rc8>
     6e3: 8e f6 09     	stx	$9f6                    ; 0x9f6 <_BITMAP_BASE.2>
     6e6: 8c f7 09     	sty	$9f7                    ; 0x9f7 <_BITMAP_BASE.2+0x1>
     6e9: a6 19        	ldx	$19                     ; 0x19 <__rc9>
     6eb: 8e ee 09     	stx	$9ee                    ; 0x9ee <_BITMAP_BASE.0>
     6ee: a4 12        	ldy	$12                     ; 0x12 <__rc2>
     6f0: 8c f8 09     	sty	$9f8                    ; 0x9f8 <_BITMAP_BASE.2+0x2>
     6f3: 8d f9 09     	sta	$9f9                    ; 0x9f9 <_BITMAP_BASE.2+0x3>
     6f6: 8e 01 d1     	stx	$d101                   ; 0xd101 <__heap_start+0xc707>
     6f9: ae ef 09     	ldx	$9ef                    ; 0x9ef <_BITMAP_BASE.0+0x1>
     6fc: 8e 02 d1     	stx	$d102                   ; 0xd102 <__heap_start+0xc708>
     6ff: ae f0 09     	ldx	$9f0                    ; 0x9f0 <_BITMAP_BASE.0+0x2>
     702: 8e 03 d1     	stx	$d103                   ; 0xd103 <__heap_start+0xc709>
     705: ae f2 09     	ldx	$9f2                    ; 0x9f2 <_BITMAP_BASE.1>
     708: 8e 09 d1     	stx	$d109                   ; 0xd109 <__heap_start+0xc70f>
     70b: ae f3 09     	ldx	$9f3                    ; 0x9f3 <_BITMAP_BASE.1+0x1>
     70e: 8e 0a d1     	stx	$d10a                   ; 0xd10a <__heap_start+0xc710>
     711: ae f4 09     	ldx	$9f4                    ; 0x9f4 <_BITMAP_BASE.1+0x2>
     714: 8e 0b d1     	stx	$d10b                   ; 0xd10b <__heap_start+0xc711>
     717: ae f6 09     	ldx	$9f6                    ; 0x9f6 <_BITMAP_BASE.2>
     71a: 8e 11 d1     	stx	$d111                   ; 0xd111 <__heap_start+0xc717>
     71d: ae f7 09     	ldx	$9f7                    ; 0x9f7 <_BITMAP_BASE.2+0x1>
     720: 8e 12 d1     	stx	$d112                   ; 0xd112 <__heap_start+0xc718>
     723: ae f8 09     	ldx	$9f8                    ; 0x9f8 <_BITMAP_BASE.2+0x2>
     726: 8e 13 d1     	stx	$d113                   ; 0xd113 <__heap_start+0xc719>
     729: 9c 00 d1     	stz	$d100                   ; 0xd100 <__heap_start+0xc706>
     72c: 9c 08 d1     	stz	$d108                   ; 0xd108 <__heap_start+0xc70e>
     72f: 9c 10 d1     	stz	$d110                   ; 0xd110 <__heap_start+0xc716>
     732: a2 10        	ldx	#$10
     734: 8e 00 d2     	stx	$d200                   ; 0xd200 <__heap_start+0xc806>
     737: 8e 0c d2     	stx	$d20c                   ; 0xd20c <__heap_start+0xc812>
     73a: 8e 18 d2     	stx	$d218                   ; 0xd218 <__heap_start+0xc81e>
     73d: a0 d9        	ldy	#$d9
     73f: a2 40        	ldx	#$40
     741: 64 12        	stz	$12                     ; 0x12 <__rc2>
     743: 84 13        	sty	$13                     ; 0x13 <__rc3>
     745: a9 00        	lda	#$0
     747: 92 12        	sta	($12)                   ; 0x12 <__rc2>
     749: ca           	dex
     74a: 18           	clc
     74b: a5 12        	lda	$12                     ; 0x12 <__rc2>
     74d: 69 08        	adc	#$8
     74f: 85 12        	sta	$12                     ; 0x12 <__rc2>
     751: 98           	tya
     752: 69 00        	adc	#$0
     754: a8           	tay
     755: 8a           	txa
     756: d0 eb        	bne	$743 <main+0x3c9>
     758: a2 34        	ldx	#$34
     75a: a0 00        	ldy	#$0
     75c: 86 fb        	stx	$fb                     ; 0xfb <__rc31+0xcc>
     75e: 84 fc        	sty	$fc                     ; 0xfc <__rc31+0xcd>
     760: a2 08        	ldx	#$8
     762: 86 fd        	stx	$fd                     ; 0xfd <__rc31+0xce>
     764: a2 3c        	ldx	#$3c
     766: a0 00        	ldy	#$0
     768: 86 12        	stx	$12                     ; 0x12 <__rc2>
     76a: 84 13        	sty	$13                     ; 0x13 <__rc3>
     76c: a2 ed        	ldx	#$ed
     76e: 86 14        	stx	$14                     ; 0x14 <__rc4>
     770: a2 09        	ldx	#$9
     772: 86 15        	stx	$15                     ; 0x15 <__rc5>
     774: 20 dc ff     	jsr	$ffdc <__heap_start+0xf5e2>
     777: 92 12        	sta	($12)                   ; 0x12 <__rc2>
     779: a9 00        	lda	#$0
     77b: 6a           	ror
     77c: 85 14        	sta	$14                     ; 0x14 <__rc4>
     77e: a6 3a        	ldx	$3a                     ; 0x3a <__rc31+0xb>
     780: a4 3b        	ldy	$3b                     ; 0x3b <__rc31+0xc>
     782: 8e 00 de     	stx	$de00                   ; 0xde00 <__heap_start+0xd406>
     785: 9c 01 de     	stz	$de01                   ; 0xde01 <__heap_start+0xd407>
     788: 8c 02 de     	sty	$de02                   ; 0xde02 <__heap_start+0xd408>
     78b: 9c 03 de     	stz	$de03                   ; 0xde03 <__heap_start+0xd409>
     78e: ae 10 de     	ldx	$de10                   ; 0xde10 <__heap_start+0xd416>
     791: ac 11 de     	ldy	$de11                   ; 0xde11 <__heap_start+0xd417>
     794: ad 12 de     	lda	$de12                   ; 0xde12 <__heap_start+0xd418>
     797: ad 13 de     	lda	$de13                   ; 0xde13 <__heap_start+0xd419>
     79a: 8e a4 d6     	stx	$d6a4                   ; 0xd6a4 <__heap_start+0xccaa>
     79d: 8c a5 d6     	sty	$d6a5                   ; 0xd6a5 <__heap_start+0xccab>
     7a0: a2 03        	ldx	#$3
     7a2: 8e a6 d6     	stx	$d6a6                   ; 0xd6a6 <__heap_start+0xccac>
     7a5: 20 3b 03     	jsr	$33b <doSomething>
     7a8: 80 fe        	bra	$7a8 <main+0x42e>

000007aa <exit>:
     7aa: 20 14 03     	jsr	$314 <_fini>
     7ad: 80 fe        	bra	$7ad <exit+0x3>

000007af <putchar>:
     7af: 86 12        	stx	$12                     ; 0x12 <__rc2>
     7b1: 85 3d        	sta	$3d                     ; 0x3d <__rc31+0xe>
     7b3: 85 32        	sta	$32                     ; 0x32 <__putchar.s>
     7b5: a6 01        	ldx	$1                      ; 0x1 <__zp_data_size+0x1>
     7b7: 86 3e        	stx	$3e                     ; 0x3e <__rc31+0xf>
     7b9: a6 31        	ldx	$31                     ; 0x31 <_row>
     7bb: a0 50        	ldy	#$50
     7bd: 8c 00 de     	sty	$de00                   ; 0xde00 <__heap_start+0xd406>
     7c0: 9c 01 de     	stz	$de01                   ; 0xde01 <__heap_start+0xd407>
     7c3: 8e 02 de     	stx	$de02                   ; 0xde02 <__heap_start+0xd408>
     7c6: 9c 03 de     	stz	$de03                   ; 0xde03 <__heap_start+0xd409>
     7c9: ae 10 de     	ldx	$de10                   ; 0xde10 <__heap_start+0xd416>
     7cc: ad 11 de     	lda	$de11                   ; 0xde11 <__heap_start+0xd417>
     7cf: ac 12 de     	ldy	$de12                   ; 0xde12 <__heap_start+0xd418>
     7d2: 84 1a        	sty	$1a                     ; 0x1a <__rc10>
     7d4: ac 13 de     	ldy	$de13                   ; 0xde13 <__heap_start+0xd419>
     7d7: 84 1b        	sty	$1b                     ; 0x1b <__rc11>
     7d9: 9c 08 de     	stz	$de08                   ; 0xde08 <__heap_start+0xd40e>
     7dc: a0 c0        	ldy	#$c0
     7de: 8c 09 de     	sty	$de09                   ; 0xde09 <__heap_start+0xd40f>
     7e1: 9c 0a de     	stz	$de0a                   ; 0xde0a <__heap_start+0xd410>
     7e4: 9c 0b de     	stz	$de0b                   ; 0xde0b <__heap_start+0xd411>
     7e7: 8e 0c de     	stx	$de0c                   ; 0xde0c <__heap_start+0xd412>
     7ea: 8d 0d de     	sta	$de0d                   ; 0xde0d <__heap_start+0xd413>
     7ed: 64 13        	stz	$13                     ; 0x13 <__rc3>
     7ef: a2 00        	ldx	#$0
     7f1: 86 14        	stx	$14                     ; 0x14 <__rc4>
     7f3: a2 c0        	ldx	#$c0
     7f5: 86 15        	stx	$15                     ; 0x15 <__rc5>
     7f7: a2 11        	ldx	#$11
     7f9: 86 16        	stx	$16                     ; 0x16 <__rc6>
     7fb: a2 c9        	ldx	#$c9
     7fd: 86 17        	stx	$17                     ; 0x17 <__rc7>
     7ff: a2 10        	ldx	#$10
     801: 86 18        	stx	$18                     ; 0x18 <__rc8>
     803: a2 c9        	ldx	#$c9
     805: 86 19        	stx	$19                     ; 0x19 <__rc9>
     807: a6 1a        	ldx	$1a                     ; 0x1a <__rc10>
     809: 8e 0e de     	stx	$de0e                   ; 0xde0e <__heap_start+0xd414>
     80c: a6 1b        	ldx	$1b                     ; 0x1b <__rc11>
     80e: 8e 0f de     	stx	$de0f                   ; 0xde0f <__heap_start+0xd415>
     811: ac 18 de     	ldy	$de18                   ; 0xde18 <__heap_start+0xd41e>
     814: ad 19 de     	lda	$de19                   ; 0xde19 <__heap_start+0xd41f>
     817: ae 1a de     	ldx	$de1a                   ; 0xde1a <__heap_start+0xd420>
     81a: ae 1b de     	ldx	$de1b                   ; 0xde1b <__heap_start+0xd421>
     81d: 84 1c        	sty	$1c                     ; 0x1c <__rc12>
     81f: 85 1d        	sta	$1d                     ; 0x1d <__rc13>
     821: 64 1a        	stz	$1a                     ; 0x1a <__rc10>
     823: 80 13        	bra	$838 <putchar+0x89>
     825: a5 1c        	lda	$1c                     ; 0x1c <__rc12>
     827: 18           	clc
     828: 69 50        	adc	#$50
     82a: 85 1c        	sta	$1c                     ; 0x1c <__rc12>
     82c: a5 1d        	lda	$1d                     ; 0x1d <__rc13>
     82e: 69 00        	adc	#$0
     830: 85 1d        	sta	$1d                     ; 0x1d <__rc13>
     832: e6 13        	inc	$13                     ; 0x13 <__rc3>
     834: d0 02        	bne	$838 <putchar+0x89>
     836: e6 1a        	inc	$1a                     ; 0x1a <__rc10>
     838: a9 32        	lda	#$32
     83a: 18           	clc
     83b: 65 13        	adc	$13                     ; 0x13 <__rc3>
     83d: 85 1e        	sta	$1e                     ; 0x1e <__rc14>
     83f: a9 00        	lda	#$0
     841: 65 1a        	adc	$1a                     ; 0x1a <__rc10>
     843: 85 1f        	sta	$1f                     ; 0x1f <__rc15>
     845: b2 1e        	lda	($1e)                   ; 0x1e <__rc14>
     847: c9 0a        	cmp	#$a
     849: f0 26        	beq	$871 <putchar+0xc2>
     84b: c9 0d        	cmp	#$d
     84d: f0 22        	beq	$871 <putchar+0xc2>
     84f: aa           	tax
     850: d0 03        	bne	$855 <putchar+0xa6>
     852: 4c 7b 09     	jmp	$97b <putchar+0x1cc>
     855: a2 03        	ldx	#$3
     857: 86 01        	stx	$1                      ; 0x1 <__zp_data_size+0x1>
     859: a4 30        	ldy	$30                     ; 0x30 <_col>
     85b: a9 f0        	lda	#$f0
     85d: 91 1c        	sta	($1c),y                 ; 0x1c <__rc12>
     85f: ca           	dex
     860: 86 01        	stx	$1                      ; 0x1 <__zp_data_size+0x1>
     862: b2 1e        	lda	($1e)                   ; 0x1e <__rc14>
     864: a4 30        	ldy	$30                     ; 0x30 <_col>
     866: 91 1c        	sta	($1c),y                 ; 0x1c <__rc12>
     868: a6 30        	ldx	$30                     ; 0x30 <_col>
     86a: e8           	inx
     86b: e6 30        	inc	$30                     ; 0x30 <_col>
     86d: e0 50        	cpx	#$50
     86f: d0 c1        	bne	$832 <putchar+0x83>
     871: 64 30        	stz	$30                     ; 0x30 <_col>
     873: a6 31        	ldx	$31                     ; 0x31 <_row>
     875: e8           	inx
     876: e6 31        	inc	$31                     ; 0x31 <_row>
     878: e0 1e        	cpx	#$1e
     87a: f0 03        	beq	$87f <putchar+0xd0>
     87c: 4c 25 08     	jmp	$825 <putchar+0x76>
     87f: a2 03        	ldx	#$3
     881: 86 01        	stx	$1                      ; 0x1 <__zp_data_size+0x1>
     883: a2 09        	ldx	#$9
     885: a0 50        	ldy	#$50
     887: a9 10        	lda	#$10
     889: 5a           	phy
     88a: a0 00        	ldy	#$0
     88c: 84 1c        	sty	$1c                     ; 0x1c <__rc12>
     88e: a0 c0        	ldy	#$c0
     890: 84 1d        	sty	$1d                     ; 0x1d <__rc13>
     892: 7a           	ply
     893: 85 1b        	sta	$1b                     ; 0x1b <__rc11>
     895: b1 1c        	lda	($1c),y                 ; 0x1c <__rc12>
     897: 92 1c        	sta	($1c)                   ; 0x1c <__rc12>
     899: a9 ff        	lda	#$ff
     89b: c6 1b        	dec	$1b                     ; 0x1b <__rc11>
     89d: c5 1b        	cmp	$1b                     ; 0x1b <__rc11>
     89f: d0 01        	bne	$8a2 <putchar+0xf3>
     8a1: ca           	dex
     8a2: e6 1c        	inc	$1c                     ; 0x1c <__rc12>
     8a4: d0 02        	bne	$8a8 <putchar+0xf9>
     8a6: e6 1d        	inc	$1d                     ; 0x1d <__rc13>
     8a8: 8a           	txa
     8a9: d0 ea        	bne	$895 <putchar+0xe6>
     8ab: a5 1b        	lda	$1b                     ; 0x1b <__rc11>
     8ad: d0 e6        	bne	$895 <putchar+0xe6>
     8af: a2 02        	ldx	#$2
     8b1: 86 01        	stx	$1                      ; 0x1 <__zp_data_size+0x1>
     8b3: a2 09        	ldx	#$9
     8b5: a9 10        	lda	#$10
     8b7: 5a           	phy
     8b8: a0 00        	ldy	#$0
     8ba: 84 1c        	sty	$1c                     ; 0x1c <__rc12>
     8bc: a0 c0        	ldy	#$c0
     8be: 84 1d        	sty	$1d                     ; 0x1d <__rc13>
     8c0: 7a           	ply
     8c1: 85 1b        	sta	$1b                     ; 0x1b <__rc11>
     8c3: b1 1c        	lda	($1c),y                 ; 0x1c <__rc12>
     8c5: 92 1c        	sta	($1c)                   ; 0x1c <__rc12>
     8c7: a9 ff        	lda	#$ff
     8c9: c6 1b        	dec	$1b                     ; 0x1b <__rc11>
     8cb: c5 1b        	cmp	$1b                     ; 0x1b <__rc11>
     8cd: d0 01        	bne	$8d0 <putchar+0x121>
     8cf: ca           	dex
     8d0: e6 1c        	inc	$1c                     ; 0x1c <__rc12>
     8d2: d0 02        	bne	$8d6 <putchar+0x127>
     8d4: e6 1d        	inc	$1d                     ; 0x1d <__rc13>
     8d6: 8a           	txa
     8d7: d0 ea        	bne	$8c3 <putchar+0x114>
     8d9: a5 1b        	lda	$1b                     ; 0x1b <__rc11>
     8db: d0 e6        	bne	$8c3 <putchar+0x114>
     8dd: a2 02        	ldx	#$2
     8df: 86 01        	stx	$1                      ; 0x1 <__zp_data_size+0x1>
     8e1: e8           	inx
     8e2: 86 01        	stx	$1                      ; 0x1 <__zp_data_size+0x1>
     8e4: a2 50        	ldx	#$50
     8e6: a0 11        	ldy	#$11
     8e8: 84 1c        	sty	$1c                     ; 0x1c <__rc12>
     8ea: a0 c9        	ldy	#$c9
     8ec: 84 1d        	sty	$1d                     ; 0x1d <__rc13>
     8ee: a0 10        	ldy	#$10
     8f0: 84 1e        	sty	$1e                     ; 0x1e <__rc14>
     8f2: a0 c9        	ldy	#$c9
     8f4: 84 1f        	sty	$1f                     ; 0x1f <__rc15>
     8f6: a9 f0        	lda	#$f0
     8f8: a4 1c        	ldy	$1c                     ; 0x1c <__rc12>
     8fa: 84 22        	sty	$22                     ; 0x22 <__rc18>
     8fc: a4 1d        	ldy	$1d                     ; 0x1d <__rc13>
     8fe: 84 23        	sty	$23                     ; 0x23 <__rc19>
     900: 92 1e        	sta	($1e)                   ; 0x1e <__rc14>
     902: e6 1c        	inc	$1c                     ; 0x1c <__rc12>
     904: d0 02        	bne	$908 <putchar+0x159>
     906: e6 1d        	inc	$1d                     ; 0x1d <__rc13>
     908: ca           	dex
     909: a4 22        	ldy	$22                     ; 0x22 <__rc18>
     90b: 84 1e        	sty	$1e                     ; 0x1e <__rc14>
     90d: a4 23        	ldy	$23                     ; 0x23 <__rc19>
     90f: 84 1f        	sty	$1f                     ; 0x1f <__rc15>
     911: e0 00        	cpx	#$0
     913: d0 e3        	bne	$8f8 <putchar+0x149>
     915: a2 02        	ldx	#$2
     917: 86 01        	stx	$1                      ; 0x1 <__zp_data_size+0x1>
     919: a2 50        	ldx	#$50
     91b: a0 11        	ldy	#$11
     91d: 84 1c        	sty	$1c                     ; 0x1c <__rc12>
     91f: a0 c9        	ldy	#$c9
     921: 84 1d        	sty	$1d                     ; 0x1d <__rc13>
     923: a0 10        	ldy	#$10
     925: 84 1e        	sty	$1e                     ; 0x1e <__rc14>
     927: a0 c9        	ldy	#$c9
     929: 84 1f        	sty	$1f                     ; 0x1f <__rc15>
     92b: a9 20        	lda	#$20
     92d: a4 1c        	ldy	$1c                     ; 0x1c <__rc12>
     92f: 84 22        	sty	$22                     ; 0x22 <__rc18>
     931: a4 1d        	ldy	$1d                     ; 0x1d <__rc13>
     933: 84 23        	sty	$23                     ; 0x23 <__rc19>
     935: 92 1e        	sta	($1e)                   ; 0x1e <__rc14>
     937: e6 1c        	inc	$1c                     ; 0x1c <__rc12>
     939: d0 02        	bne	$93d <putchar+0x18e>
     93b: e6 1d        	inc	$1d                     ; 0x1d <__rc13>
     93d: ca           	dex
     93e: a4 22        	ldy	$22                     ; 0x22 <__rc18>
     940: 84 1e        	sty	$1e                     ; 0x1e <__rc14>
     942: a4 23        	ldy	$23                     ; 0x23 <__rc19>
     944: 84 1f        	sty	$1f                     ; 0x1f <__rc15>
     946: e0 00        	cpx	#$0
     948: d0 e3        	bne	$92d <putchar+0x17e>
     94a: c6 31        	dec	$31                     ; 0x31 <_row>
     94c: 9c 08 de     	stz	$de08                   ; 0xde08 <__heap_start+0xd40e>
     94f: a2 c0        	ldx	#$c0
     951: 8e 09 de     	stx	$de09                   ; 0xde09 <__heap_start+0xd40f>
     954: 9c 0a de     	stz	$de0a                   ; 0xde0a <__heap_start+0xd410>
     957: 9c 0b de     	stz	$de0b                   ; 0xde0b <__heap_start+0xd411>
     95a: a2 1d        	ldx	#$1d
     95c: 8e 0c de     	stx	$de0c                   ; 0xde0c <__heap_start+0xd412>
     95f: 9c 0d de     	stz	$de0d                   ; 0xde0d <__heap_start+0xd413>
     962: 9c 0e de     	stz	$de0e                   ; 0xde0e <__heap_start+0xd414>
     965: 9c 0f de     	stz	$de0f                   ; 0xde0f <__heap_start+0xd415>
     968: ae 18 de     	ldx	$de18                   ; 0xde18 <__heap_start+0xd41e>
     96b: ac 19 de     	ldy	$de19                   ; 0xde19 <__heap_start+0xd41f>
     96e: ad 1a de     	lda	$de1a                   ; 0xde1a <__heap_start+0xd420>
     971: ad 1b de     	lda	$de1b                   ; 0xde1b <__heap_start+0xd421>
     974: 86 1c        	stx	$1c                     ; 0x1c <__rc12>
     976: 84 1d        	sty	$1d                     ; 0x1d <__rc13>
     978: 4c 32 08     	jmp	$832 <putchar+0x83>
     97b: a6 3e        	ldx	$3e                     ; 0x3e <__rc31+0xf>
     97d: 86 01        	stx	$1                      ; 0x1 <__zp_data_size+0x1>
     97f: a6 30        	ldx	$30                     ; 0x30 <_col>
     981: a4 31        	ldy	$31                     ; 0x31 <_row>
     983: 8e 14 d0     	stx	$d014                   ; 0xd014 <__heap_start+0xc61a>
     986: 9c 15 d0     	stz	$d015                   ; 0xd015 <__heap_start+0xc61b>
     989: 84 31        	sty	$31                     ; 0x31 <_row>
     98b: 8c 16 d0     	sty	$d016                   ; 0xd016 <__heap_start+0xc61c>
     98e: 9c 17 d0     	stz	$d017                   ; 0xd017 <__heap_start+0xc61d>
     991: a6 12        	ldx	$12                     ; 0x12 <__rc2>
     993: a5 3d        	lda	$3d                     ; 0x3d <__rc31+0xe>
     995: 60           	rts

00000996 <__memset>:
     996: a4 14        	ldy	$14                     ; 0x14 <__rc4>
     998: d0 04        	bne	$99e <__memset+0x8>
     99a: e0 00        	cpx	#$0
     99c: f0 17        	beq	$9b5 <__memset+0x1f>
     99e: 92 12        	sta	($12)                   ; 0x12 <__rc2>
     9a0: e6 12        	inc	$12                     ; 0x12 <__rc2>
     9a2: d0 02        	bne	$9a6 <__memset+0x10>
     9a4: e6 13        	inc	$13                     ; 0x13 <__rc3>
     9a6: ca           	dex
     9a7: e0 ff        	cpx	#$ff
     9a9: d0 02        	bne	$9ad <__memset+0x17>
     9ab: c6 14        	dec	$14                     ; 0x14 <__rc4>
     9ad: a4 14        	ldy	$14                     ; 0x14 <__rc4>
     9af: d0 ed        	bne	$99e <__memset+0x8>
     9b1: e0 00        	cpx	#$0
     9b3: d0 e9        	bne	$99e <__memset+0x8>
     9b5: 60           	rts

Disassembly of section .block8:

0800a000 <FAR8_doSomething>:
 800a000: a2 00        	ldx	#$0
 800a002: a9 2a        	lda	#$2a
 800a004: 20 af 07     	jsr	$7af <__heap_start+0x7fffdb5>
 800a007: a2 00        	ldx	#$0
 800a009: a9 2a        	lda	#$2a
 800a00b: 20 af 07     	jsr	$7af <__heap_start+0x7fffdb5>
 800a00e: a2 00        	ldx	#$0
 800a010: a9 2a        	lda	#$2a
 800a012: 20 af 07     	jsr	$7af <__heap_start+0x7fffdb5>
 800a015: a2 00        	ldx	#$0
 800a017: a9 2a        	lda	#$2a
 800a019: 20 af 07     	jsr	$7af <__heap_start+0x7fffdb5>
 800a01c: a2 00        	ldx	#$0
 800a01e: a9 2a        	lda	#$2a
 800a020: 20 af 07     	jsr	$7af <__heap_start+0x7fffdb5>
 800a023: a2 00        	ldx	#$0
 800a025: a9 2a        	lda	#$2a
 800a027: 20 af 07     	jsr	$7af <__heap_start+0x7fffdb5>
 800a02a: a2 00        	ldx	#$0
 800a02c: a9 2a        	lda	#$2a
 800a02e: 20 af 07     	jsr	$7af <__heap_start+0x7fffdb5>
 800a031: a2 00        	ldx	#$0
 800a033: a9 2a        	lda	#$2a
 800a035: 20 af 07     	jsr	$7af <__heap_start+0x7fffdb5>
 800a038: a2 00        	ldx	#$0
 800a03a: a9 2a        	lda	#$2a
 800a03c: 20 af 07     	jsr	$7af <__heap_start+0x7fffdb5>
 800a03f: a2 00        	ldx	#$0
 800a041: a9 2a        	lda	#$2a
 800a043: 20 af 07     	jsr	$7af <__heap_start+0x7fffdb5>
 800a046: a2 00        	ldx	#$0
 800a048: a9 2a        	lda	#$2a
 800a04a: 20 af 07     	jsr	$7af <__heap_start+0x7fffdb5>
 800a04d: a2 00        	ldx	#$0
 800a04f: a9 2a        	lda	#$2a
 800a051: 20 af 07     	jsr	$7af <__heap_start+0x7fffdb5>
 800a054: a2 00        	ldx	#$0
 800a056: a9 2a        	lda	#$2a
 800a058: 20 af 07     	jsr	$7af <__heap_start+0x7fffdb5>
 800a05b: a2 00        	ldx	#$0
 800a05d: a9 2a        	lda	#$2a
 800a05f: 20 af 07     	jsr	$7af <__heap_start+0x7fffdb5>
 800a062: a2 00        	ldx	#$0
 800a064: a9 2a        	lda	#$2a
 800a066: 20 af 07     	jsr	$7af <__heap_start+0x7fffdb5>
 800a069: a2 00        	ldx	#$0
 800a06b: a9 2a        	lda	#$2a
 800a06d: 20 af 07     	jsr	$7af <__heap_start+0x7fffdb5>
 800a070: a2 00        	ldx	#$0
 800a072: a9 2a        	lda	#$2a
 800a074: 20 af 07     	jsr	$7af <__heap_start+0x7fffdb5>
 800a077: a2 00        	ldx	#$0
 800a079: a9 2a        	lda	#$2a
 800a07b: 20 af 07     	jsr	$7af <__heap_start+0x7fffdb5>
 800a07e: a2 00        	ldx	#$0
 800a080: a9 2a        	lda	#$2a
 800a082: 20 af 07     	jsr	$7af <__heap_start+0x7fffdb5>
 800a085: a2 00        	ldx	#$0
 800a087: a9 2a        	lda	#$2a
 800a089: 20 af 07     	jsr	$7af <__heap_start+0x7fffdb5>
 800a08c: a2 00        	ldx	#$0
 800a08e: a9 2a        	lda	#$2a
 800a090: 20 af 07     	jsr	$7af <__heap_start+0x7fffdb5>
 800a093: a2 00        	ldx	#$0
 800a095: a9 2a        	lda	#$2a
 800a097: 20 af 07     	jsr	$7af <__heap_start+0x7fffdb5>
 800a09a: a2 00        	ldx	#$0
 800a09c: a9 2a        	lda	#$2a
 800a09e: 20 af 07     	jsr	$7af <__heap_start+0x7fffdb5>
 800a0a1: a2 00        	ldx	#$0
 800a0a3: a9 2a        	lda	#$2a
 800a0a5: 20 af 07     	jsr	$7af <__heap_start+0x7fffdb5>
 800a0a8: a2 00        	ldx	#$0
 800a0aa: a9 2a        	lda	#$2a
 800a0ac: 20 af 07     	jsr	$7af <__heap_start+0x7fffdb5>
 800a0af: a2 00        	ldx	#$0
 800a0b1: a9 2a        	lda	#$2a
 800a0b3: 20 af 07     	jsr	$7af <__heap_start+0x7fffdb5>
 800a0b6: a2 00        	ldx	#$0
 800a0b8: a9 2a        	lda	#$2a
 800a0ba: 20 af 07     	jsr	$7af <__heap_start+0x7fffdb5>
 800a0bd: a2 00        	ldx	#$0
 800a0bf: a9 2a        	lda	#$2a
 800a0c1: 20 af 07     	jsr	$7af <__heap_start+0x7fffdb5>
 800a0c4: a2 00        	ldx	#$0
 800a0c6: a9 2a        	lda	#$2a
 800a0c8: 20 af 07     	jsr	$7af <__heap_start+0x7fffdb5>
 800a0cb: a2 00        	ldx	#$0
 800a0cd: a9 2a        	lda	#$2a
 800a0cf: 20 af 07     	jsr	$7af <__heap_start+0x7fffdb5>
 800a0d2: a2 00        	ldx	#$0
 800a0d4: a9 0a        	lda	#$a
 800a0d6: 20 af 07     	jsr	$7af <__heap_start+0x7fffdb5>
 800a0d9: a2 00        	ldx	#$0
 800a0db: a9 2a        	lda	#$2a
 800a0dd: 20 af 07     	jsr	$7af <__heap_start+0x7fffdb5>
 800a0e0: a2 00        	ldx	#$0
 800a0e2: a9 20        	lda	#$20
 800a0e4: 20 af 07     	jsr	$7af <__heap_start+0x7fffdb5>
 800a0e7: a2 00        	ldx	#$0
 800a0e9: a9 20        	lda	#$20
 800a0eb: 20 af 07     	jsr	$7af <__heap_start+0x7fffdb5>
 800a0ee: a2 00        	ldx	#$0
 800a0f0: a9 20        	lda	#$20
 800a0f2: 20 af 07     	jsr	$7af <__heap_start+0x7fffdb5>
 800a0f5: a2 00        	ldx	#$0
 800a0f7: a9 20        	lda	#$20
 800a0f9: 20 af 07     	jsr	$7af <__heap_start+0x7fffdb5>
 800a0fc: a2 00        	ldx	#$0
 800a0fe: a9 20        	lda	#$20
 800a100: 20 af 07     	jsr	$7af <__heap_start+0x7fffdb5>
 800a103: a2 00        	ldx	#$0
 800a105: a9 20        	lda	#$20
 800a107: 20 af 07     	jsr	$7af <__heap_start+0x7fffdb5>
 800a10a: a2 00        	ldx	#$0
 800a10c: a9 20        	lda	#$20
 800a10e: 20 af 07     	jsr	$7af <__heap_start+0x7fffdb5>
 800a111: a2 00        	ldx	#$0
 800a113: a9 20        	lda	#$20
 800a115: 20 af 07     	jsr	$7af <__heap_start+0x7fffdb5>
 800a118: a2 00        	ldx	#$0
 800a11a: a9 20        	lda	#$20
 800a11c: 20 af 07     	jsr	$7af <__heap_start+0x7fffdb5>
 800a11f: a2 00        	ldx	#$0
 800a121: a9 20        	lda	#$20
 800a123: 20 af 07     	jsr	$7af <__heap_start+0x7fffdb5>
 800a126: a2 00        	ldx	#$0
 800a128: a9 20        	lda	#$20
 800a12a: 20 af 07     	jsr	$7af <__heap_start+0x7fffdb5>
 800a12d: a2 00        	ldx	#$0
 800a12f: a9 20        	lda	#$20
 800a131: 20 af 07     	jsr	$7af <__heap_start+0x7fffdb5>
 800a134: a2 00        	ldx	#$0
 800a136: a9 20        	lda	#$20
 800a138: 20 af 07     	jsr	$7af <__heap_start+0x7fffdb5>
 800a13b: a2 00        	ldx	#$0
 800a13d: a9 20        	lda	#$20
 800a13f: 20 af 07     	jsr	$7af <__heap_start+0x7fffdb5>
 800a142: a2 00        	ldx	#$0
 800a144: a9 20        	lda	#$20
 800a146: 20 af 07     	jsr	$7af <__heap_start+0x7fffdb5>
 800a149: a2 00        	ldx	#$0
 800a14b: a9 20        	lda	#$20
 800a14d: 20 af 07     	jsr	$7af <__heap_start+0x7fffdb5>
 800a150: a2 00        	ldx	#$0
 800a152: a9 20        	lda	#$20
 800a154: 20 af 07     	jsr	$7af <__heap_start+0x7fffdb5>
 800a157: a2 00        	ldx	#$0
 800a159: a9 20        	lda	#$20
 800a15b: 20 af 07     	jsr	$7af <__heap_start+0x7fffdb5>
 800a15e: a2 00        	ldx	#$0
 800a160: a9 20        	lda	#$20
 800a162: 20 af 07     	jsr	$7af <__heap_start+0x7fffdb5>
 800a165: a2 00        	ldx	#$0
 800a167: a9 20        	lda	#$20
 800a169: 20 af 07     	jsr	$7af <__heap_start+0x7fffdb5>
 800a16c: a2 00        	ldx	#$0
 800a16e: a9 20        	lda	#$20
 800a170: 20 af 07     	jsr	$7af <__heap_start+0x7fffdb5>
 800a173: a2 00        	ldx	#$0
 800a175: a9 20        	lda	#$20
 800a177: 20 af 07     	jsr	$7af <__heap_start+0x7fffdb5>
 800a17a: a2 00        	ldx	#$0
 800a17c: a9 20        	lda	#$20
 800a17e: 20 af 07     	jsr	$7af <__heap_start+0x7fffdb5>
 800a181: a2 00        	ldx	#$0
 800a183: a9 20        	lda	#$20
 800a185: 20 af 07     	jsr	$7af <__heap_start+0x7fffdb5>
 800a188: a2 00        	ldx	#$0
 800a18a: a9 20        	lda	#$20
 800a18c: 20 af 07     	jsr	$7af <__heap_start+0x7fffdb5>
 800a18f: a2 00        	ldx	#$0
 800a191: a9 20        	lda	#$20
 800a193: 20 af 07     	jsr	$7af <__heap_start+0x7fffdb5>
 800a196: a2 00        	ldx	#$0
 800a198: a9 20        	lda	#$20
 800a19a: 20 af 07     	jsr	$7af <__heap_start+0x7fffdb5>
 800a19d: a2 00        	ldx	#$0
 800a19f: a9 20        	lda	#$20
 800a1a1: 20 af 07     	jsr	$7af <__heap_start+0x7fffdb5>
 800a1a4: a2 00        	ldx	#$0
 800a1a6: a9 2a        	lda	#$2a
 800a1a8: 20 af 07     	jsr	$7af <__heap_start+0x7fffdb5>
 800a1ab: a2 00        	ldx	#$0
 800a1ad: a9 0a        	lda	#$a
 800a1af: 20 af 07     	jsr	$7af <__heap_start+0x7fffdb5>
 800a1b2: a2 00        	ldx	#$0
 800a1b4: a9 2a        	lda	#$2a
 800a1b6: 20 af 07     	jsr	$7af <__heap_start+0x7fffdb5>
 800a1b9: a2 00        	ldx	#$0
 800a1bb: a9 20        	lda	#$20
 800a1bd: 20 af 07     	jsr	$7af <__heap_start+0x7fffdb5>
 800a1c0: a2 00        	ldx	#$0
 800a1c2: a9 20        	lda	#$20
 800a1c4: 20 af 07     	jsr	$7af <__heap_start+0x7fffdb5>
 800a1c7: a2 00        	ldx	#$0
 800a1c9: a9 20        	lda	#$20
 800a1cb: 20 af 07     	jsr	$7af <__heap_start+0x7fffdb5>
 800a1ce: a2 00        	ldx	#$0
 800a1d0: a9 20        	lda	#$20
 800a1d2: 20 af 07     	jsr	$7af <__heap_start+0x7fffdb5>
 800a1d5: a2 00        	ldx	#$0
 800a1d7: a9 20        	lda	#$20
 800a1d9: 20 af 07     	jsr	$7af <__heap_start+0x7fffdb5>
 800a1dc: a9 57        	lda	#$57
 800a1de: a2 00        	ldx	#$0
 800a1e0: 20 af 07     	jsr	$7af <__heap_start+0x7fffdb5>
 800a1e3: a2 00        	ldx	#$0
 800a1e5: a9 65        	lda	#$65
 800a1e7: 20 af 07     	jsr	$7af <__heap_start+0x7fffdb5>
 800a1ea: a2 00        	ldx	#$0
 800a1ec: a9 6c        	lda	#$6c
 800a1ee: 20 af 07     	jsr	$7af <__heap_start+0x7fffdb5>
 800a1f1: a2 00        	ldx	#$0
 800a1f3: a9 63        	lda	#$63
 800a1f5: 20 af 07     	jsr	$7af <__heap_start+0x7fffdb5>
 800a1f8: a2 00        	ldx	#$0
 800a1fa: a9 6f        	lda	#$6f
 800a1fc: 20 af 07     	jsr	$7af <__heap_start+0x7fffdb5>
 800a1ff: a2 00        	ldx	#$0
 800a201: a9 6d        	lda	#$6d
 800a203: 20 af 07     	jsr	$7af <__heap_start+0x7fffdb5>
 800a206: a2 00        	ldx	#$0
 800a208: a9 65        	lda	#$65
 800a20a: 20 af 07     	jsr	$7af <__heap_start+0x7fffdb5>
 800a20d: a2 00        	ldx	#$0
 800a20f: a9 20        	lda	#$20
 800a211: 20 af 07     	jsr	$7af <__heap_start+0x7fffdb5>
 800a214: a2 00        	ldx	#$0
 800a216: a9 74        	lda	#$74
 800a218: 20 af 07     	jsr	$7af <__heap_start+0x7fffdb5>
 800a21b: a2 00        	ldx	#$0
 800a21d: a9 6f        	lda	#$6f
 800a21f: 20 af 07     	jsr	$7af <__heap_start+0x7fffdb5>
 800a222: a2 00        	ldx	#$0
 800a224: a9 20        	lda	#$20
 800a226: 20 af 07     	jsr	$7af <__heap_start+0x7fffdb5>
 800a229: a2 00        	ldx	#$0
 800a22b: a9 50        	lda	#$50
 800a22d: 20 af 07     	jsr	$7af <__heap_start+0x7fffdb5>
 800a230: a9 47        	lda	#$47
 800a232: a2 00        	ldx	#$0
 800a234: 20 af 07     	jsr	$7af <__heap_start+0x7fffdb5>
 800a237: a9 5a        	lda	#$5a
 800a239: a2 00        	ldx	#$0
 800a23b: 20 af 07     	jsr	$7af <__heap_start+0x7fffdb5>
 800a23e: a2 00        	ldx	#$0
 800a240: a9 20        	lda	#$20
 800a242: 20 af 07     	jsr	$7af <__heap_start+0x7fffdb5>
 800a245: a9 42        	lda	#$42
 800a247: a2 00        	ldx	#$0
 800a249: 20 af 07     	jsr	$7af <__heap_start+0x7fffdb5>
 800a24c: a2 00        	ldx	#$0
 800a24e: a9 6f        	lda	#$6f
 800a250: 20 af 07     	jsr	$7af <__heap_start+0x7fffdb5>
 800a253: a2 00        	ldx	#$0
 800a255: a9 78        	lda	#$78
 800a257: 20 af 07     	jsr	$7af <__heap_start+0x7fffdb5>
 800a25a: a2 00        	ldx	#$0
 800a25c: a9 20        	lda	#$20
 800a25e: 20 af 07     	jsr	$7af <__heap_start+0x7fffdb5>
 800a261: a2 00        	ldx	#$0
 800a263: a9 20        	lda	#$20
 800a265: 20 af 07     	jsr	$7af <__heap_start+0x7fffdb5>
 800a268: a2 00        	ldx	#$0
 800a26a: a9 20        	lda	#$20
 800a26c: 20 af 07     	jsr	$7af <__heap_start+0x7fffdb5>
 800a26f: a2 00        	ldx	#$0
 800a271: a9 20        	lda	#$20
 800a273: 20 af 07     	jsr	$7af <__heap_start+0x7fffdb5>
 800a276: a2 00        	ldx	#$0
 800a278: a9 20        	lda	#$20
 800a27a: 20 af 07     	jsr	$7af <__heap_start+0x7fffdb5>
 800a27d: a2 00        	ldx	#$0
 800a27f: a9 2a        	lda	#$2a
 800a281: 20 af 07     	jsr	$7af <__heap_start+0x7fffdb5>
 800a284: a2 00        	ldx	#$0
 800a286: a9 0a        	lda	#$a
 800a288: 20 af 07     	jsr	$7af <__heap_start+0x7fffdb5>
 800a28b: a2 00        	ldx	#$0
 800a28d: a9 2a        	lda	#$2a
 800a28f: 20 af 07     	jsr	$7af <__heap_start+0x7fffdb5>
 800a292: a2 00        	ldx	#$0
 800a294: a9 20        	lda	#$20
 800a296: 20 af 07     	jsr	$7af <__heap_start+0x7fffdb5>
 800a299: a2 00        	ldx	#$0
 800a29b: a9 20        	lda	#$20
 800a29d: 20 af 07     	jsr	$7af <__heap_start+0x7fffdb5>
 800a2a0: a2 00        	ldx	#$0
 800a2a2: a9 20        	lda	#$20
 800a2a4: 20 af 07     	jsr	$7af <__heap_start+0x7fffdb5>
 800a2a7: a2 00        	ldx	#$0
 800a2a9: a9 20        	lda	#$20
 800a2ab: 20 af 07     	jsr	$7af <__heap_start+0x7fffdb5>
 800a2ae: a2 00        	ldx	#$0
 800a2b0: a9 20        	lda	#$20
 800a2b2: 20 af 07     	jsr	$7af <__heap_start+0x7fffdb5>
 800a2b5: a2 00        	ldx	#$0
 800a2b7: a9 20        	lda	#$20
 800a2b9: 20 af 07     	jsr	$7af <__heap_start+0x7fffdb5>
 800a2bc: a2 00        	ldx	#$0
 800a2be: a9 20        	lda	#$20
 800a2c0: 20 af 07     	jsr	$7af <__heap_start+0x7fffdb5>
 800a2c3: a2 00        	ldx	#$0
 800a2c5: a9 20        	lda	#$20
 800a2c7: 20 af 07     	jsr	$7af <__heap_start+0x7fffdb5>
 800a2ca: a2 00        	ldx	#$0
 800a2cc: a9 20        	lda	#$20
 800a2ce: 20 af 07     	jsr	$7af <__heap_start+0x7fffdb5>
 800a2d1: a2 00        	ldx	#$0
 800a2d3: a9 20        	lda	#$20
 800a2d5: 20 af 07     	jsr	$7af <__heap_start+0x7fffdb5>
 800a2d8: a2 00        	ldx	#$0
 800a2da: a9 20        	lda	#$20
 800a2dc: 20 af 07     	jsr	$7af <__heap_start+0x7fffdb5>
 800a2df: a2 00        	ldx	#$0
 800a2e1: a9 20        	lda	#$20
 800a2e3: 20 af 07     	jsr	$7af <__heap_start+0x7fffdb5>
 800a2e6: a2 00        	ldx	#$0
 800a2e8: a9 20        	lda	#$20
 800a2ea: 20 af 07     	jsr	$7af <__heap_start+0x7fffdb5>
 800a2ed: a2 00        	ldx	#$0
 800a2ef: a9 20        	lda	#$20
 800a2f1: 20 af 07     	jsr	$7af <__heap_start+0x7fffdb5>
 800a2f4: a2 00        	ldx	#$0
 800a2f6: a9 20        	lda	#$20
 800a2f8: 20 af 07     	jsr	$7af <__heap_start+0x7fffdb5>
 800a2fb: a2 00        	ldx	#$0
 800a2fd: a9 20        	lda	#$20
 800a2ff: 20 af 07     	jsr	$7af <__heap_start+0x7fffdb5>
 800a302: a2 00        	ldx	#$0
 800a304: a9 20        	lda	#$20
 800a306: 20 af 07     	jsr	$7af <__heap_start+0x7fffdb5>
 800a309: a2 00        	ldx	#$0
 800a30b: a9 20        	lda	#$20
 800a30d: 20 af 07     	jsr	$7af <__heap_start+0x7fffdb5>
 800a310: a2 00        	ldx	#$0
 800a312: a9 20        	lda	#$20
 800a314: 20 af 07     	jsr	$7af <__heap_start+0x7fffdb5>
 800a317: a2 00        	ldx	#$0
 800a319: a9 20        	lda	#$20
 800a31b: 20 af 07     	jsr	$7af <__heap_start+0x7fffdb5>
 800a31e: a2 00        	ldx	#$0
 800a320: a9 20        	lda	#$20
 800a322: 20 af 07     	jsr	$7af <__heap_start+0x7fffdb5>
 800a325: a2 00        	ldx	#$0
 800a327: a9 20        	lda	#$20
 800a329: 20 af 07     	jsr	$7af <__heap_start+0x7fffdb5>
 800a32c: a2 00        	ldx	#$0
 800a32e: a9 20        	lda	#$20
 800a330: 20 af 07     	jsr	$7af <__heap_start+0x7fffdb5>
 800a333: a2 00        	ldx	#$0
 800a335: a9 20        	lda	#$20
 800a337: 20 af 07     	jsr	$7af <__heap_start+0x7fffdb5>
 800a33a: a2 00        	ldx	#$0
 800a33c: a9 20        	lda	#$20
 800a33e: 20 af 07     	jsr	$7af <__heap_start+0x7fffdb5>
 800a341: a2 00        	ldx	#$0
 800a343: a9 20        	lda	#$20
 800a345: 20 af 07     	jsr	$7af <__heap_start+0x7fffdb5>
 800a348: a2 00        	ldx	#$0
 800a34a: a9 20        	lda	#$20
 800a34c: 20 af 07     	jsr	$7af <__heap_start+0x7fffdb5>
 800a34f: a2 00        	ldx	#$0
 800a351: a9 20        	lda	#$20
 800a353: 20 af 07     	jsr	$7af <__heap_start+0x7fffdb5>
 800a356: a2 00        	ldx	#$0
 800a358: a9 2a        	lda	#$2a
 800a35a: 20 af 07     	jsr	$7af <__heap_start+0x7fffdb5>
 800a35d: a2 00        	ldx	#$0
 800a35f: a9 0a        	lda	#$a
 800a361: 20 af 07     	jsr	$7af <__heap_start+0x7fffdb5>
 800a364: a2 00        	ldx	#$0
 800a366: a9 2a        	lda	#$2a
 800a368: 20 af 07     	jsr	$7af <__heap_start+0x7fffdb5>
 800a36b: a2 00        	ldx	#$0
 800a36d: a9 20        	lda	#$20
 800a36f: 20 af 07     	jsr	$7af <__heap_start+0x7fffdb5>
 800a372: a2 00        	ldx	#$0
 800a374: a9 20        	lda	#$20
 800a376: 20 af 07     	jsr	$7af <__heap_start+0x7fffdb5>
 800a379: a9 54        	lda	#$54
 800a37b: a2 00        	ldx	#$0
 800a37d: 20 af 07     	jsr	$7af <__heap_start+0x7fffdb5>
 800a380: a2 00        	ldx	#$0
 800a382: a9 68        	lda	#$68
 800a384: 20 af 07     	jsr	$7af <__heap_start+0x7fffdb5>
 800a387: a2 00        	ldx	#$0
 800a389: a9 69        	lda	#$69
 800a38b: 20 af 07     	jsr	$7af <__heap_start+0x7fffdb5>
 800a38e: a2 00        	ldx	#$0
 800a390: a9 73        	lda	#$73
 800a392: 20 af 07     	jsr	$7af <__heap_start+0x7fffdb5>
 800a395: a2 00        	ldx	#$0
 800a397: a9 20        	lda	#$20
 800a399: 20 af 07     	jsr	$7af <__heap_start+0x7fffdb5>
 800a39c: a2 00        	ldx	#$0
 800a39e: a9 69        	lda	#$69
 800a3a0: 20 af 07     	jsr	$7af <__heap_start+0x7fffdb5>
 800a3a3: a2 00        	ldx	#$0
 800a3a5: a9 73        	lda	#$73
 800a3a7: 20 af 07     	jsr	$7af <__heap_start+0x7fffdb5>
 800a3aa: a2 00        	ldx	#$0
 800a3ac: a9 20        	lda	#$20
 800a3ae: 20 af 07     	jsr	$7af <__heap_start+0x7fffdb5>
 800a3b1: a2 00        	ldx	#$0
 800a3b3: a9 61        	lda	#$61
 800a3b5: 20 af 07     	jsr	$7af <__heap_start+0x7fffdb5>
 800a3b8: a2 00        	ldx	#$0
 800a3ba: a9 20        	lda	#$20
 800a3bc: 20 af 07     	jsr	$7af <__heap_start+0x7fffdb5>
 800a3bf: a2 00        	ldx	#$0
 800a3c1: a9 74        	lda	#$74
 800a3c3: 20 af 07     	jsr	$7af <__heap_start+0x7fffdb5>
 800a3c6: a2 00        	ldx	#$0
 800a3c8: a9 65        	lda	#$65
 800a3ca: 20 af 07     	jsr	$7af <__heap_start+0x7fffdb5>
 800a3cd: a2 00        	ldx	#$0
 800a3cf: a9 73        	lda	#$73
 800a3d1: 20 af 07     	jsr	$7af <__heap_start+0x7fffdb5>
 800a3d4: a2 00        	ldx	#$0
 800a3d6: a9 74        	lda	#$74
 800a3d8: 20 af 07     	jsr	$7af <__heap_start+0x7fffdb5>
 800a3db: a2 00        	ldx	#$0
 800a3dd: a9 20        	lda	#$20
 800a3df: 20 af 07     	jsr	$7af <__heap_start+0x7fffdb5>
 800a3e2: a2 00        	ldx	#$0
 800a3e4: a9 6d        	lda	#$6d
 800a3e6: 20 af 07     	jsr	$7af <__heap_start+0x7fffdb5>
 800a3e9: a2 00        	ldx	#$0
 800a3eb: a9 65        	lda	#$65
 800a3ed: 20 af 07     	jsr	$7af <__heap_start+0x7fffdb5>
 800a3f0: a2 00        	ldx	#$0
 800a3f2: a9 73        	lda	#$73
 800a3f4: 20 af 07     	jsr	$7af <__heap_start+0x7fffdb5>
 800a3f7: a2 00        	ldx	#$0
 800a3f9: a9 73        	lda	#$73
 800a3fb: 20 af 07     	jsr	$7af <__heap_start+0x7fffdb5>
 800a3fe: a2 00        	ldx	#$0
 800a400: a9 61        	lda	#$61
 800a402: 20 af 07     	jsr	$7af <__heap_start+0x7fffdb5>
 800a405: a2 00        	ldx	#$0
 800a407: a9 67        	lda	#$67
 800a409: 20 af 07     	jsr	$7af <__heap_start+0x7fffdb5>
 800a40c: a2 00        	ldx	#$0
 800a40e: a9 65        	lda	#$65
 800a410: 20 af 07     	jsr	$7af <__heap_start+0x7fffdb5>
 800a413: a2 00        	ldx	#$0
 800a415: a9 2e        	lda	#$2e
 800a417: 20 af 07     	jsr	$7af <__heap_start+0x7fffdb5>
 800a41a: a2 00        	ldx	#$0
 800a41c: a9 20        	lda	#$20
 800a41e: 20 af 07     	jsr	$7af <__heap_start+0x7fffdb5>
 800a421: a2 00        	ldx	#$0
 800a423: a9 20        	lda	#$20
 800a425: 20 af 07     	jsr	$7af <__heap_start+0x7fffdb5>
 800a428: a2 00        	ldx	#$0
 800a42a: a9 20        	lda	#$20
 800a42c: 20 af 07     	jsr	$7af <__heap_start+0x7fffdb5>
 800a42f: a2 00        	ldx	#$0
 800a431: a9 2a        	lda	#$2a
 800a433: 20 af 07     	jsr	$7af <__heap_start+0x7fffdb5>
 800a436: a2 00        	ldx	#$0
 800a438: a9 0a        	lda	#$a
 800a43a: 20 af 07     	jsr	$7af <__heap_start+0x7fffdb5>
 800a43d: a2 00        	ldx	#$0
 800a43f: a9 2a        	lda	#$2a
 800a441: 20 af 07     	jsr	$7af <__heap_start+0x7fffdb5>
 800a444: a2 00        	ldx	#$0
 800a446: a9 20        	lda	#$20
 800a448: 20 af 07     	jsr	$7af <__heap_start+0x7fffdb5>
 800a44b: a2 00        	ldx	#$0
 800a44d: a9 20        	lda	#$20
 800a44f: 20 af 07     	jsr	$7af <__heap_start+0x7fffdb5>
 800a452: a9 49        	lda	#$49
 800a454: a2 00        	ldx	#$0
 800a456: 20 af 07     	jsr	$7af <__heap_start+0x7fffdb5>
 800a459: a2 00        	ldx	#$0
 800a45b: a9 74        	lda	#$74
 800a45d: 20 af 07     	jsr	$7af <__heap_start+0x7fffdb5>
 800a460: a2 00        	ldx	#$0
 800a462: a9 20        	lda	#$20
 800a464: 20 af 07     	jsr	$7af <__heap_start+0x7fffdb5>
 800a467: a2 00        	ldx	#$0
 800a469: a9 73        	lda	#$73
 800a46b: 20 af 07     	jsr	$7af <__heap_start+0x7fffdb5>
 800a46e: a2 00        	ldx	#$0
 800a470: a9 69        	lda	#$69
 800a472: 20 af 07     	jsr	$7af <__heap_start+0x7fffdb5>
 800a475: a2 00        	ldx	#$0
 800a477: a9 6d        	lda	#$6d
 800a479: 20 af 07     	jsr	$7af <__heap_start+0x7fffdb5>
 800a47c: a2 00        	ldx	#$0
 800a47e: a9 75        	lda	#$75
 800a480: 20 af 07     	jsr	$7af <__heap_start+0x7fffdb5>
 800a483: a2 00        	ldx	#$0
 800a485: a9 6c        	lda	#$6c
 800a487: 20 af 07     	jsr	$7af <__heap_start+0x7fffdb5>
 800a48a: a2 00        	ldx	#$0
 800a48c: a9 61        	lda	#$61
 800a48e: 20 af 07     	jsr	$7af <__heap_start+0x7fffdb5>
 800a491: a2 00        	ldx	#$0
 800a493: a9 74        	lda	#$74
 800a495: 20 af 07     	jsr	$7af <__heap_start+0x7fffdb5>
 800a498: a2 00        	ldx	#$0
 800a49a: a9 65        	lda	#$65
 800a49c: 20 af 07     	jsr	$7af <__heap_start+0x7fffdb5>
 800a49f: a2 00        	ldx	#$0
 800a4a1: a9 73        	lda	#$73
 800a4a3: 20 af 07     	jsr	$7af <__heap_start+0x7fffdb5>
 800a4a6: a2 00        	ldx	#$0
 800a4a8: a9 20        	lda	#$20
 800a4aa: 20 af 07     	jsr	$7af <__heap_start+0x7fffdb5>
 800a4ad: a2 00        	ldx	#$0
 800a4af: a9 61        	lda	#$61
 800a4b1: 20 af 07     	jsr	$7af <__heap_start+0x7fffdb5>
 800a4b4: a2 00        	ldx	#$0
 800a4b6: a9 20        	lda	#$20
 800a4b8: 20 af 07     	jsr	$7af <__heap_start+0x7fffdb5>
 800a4bb: a2 00        	ldx	#$0
 800a4bd: a9 74        	lda	#$74
 800a4bf: 20 af 07     	jsr	$7af <__heap_start+0x7fffdb5>
 800a4c2: a2 00        	ldx	#$0
 800a4c4: a9 65        	lda	#$65
 800a4c6: 20 af 07     	jsr	$7af <__heap_start+0x7fffdb5>
 800a4c9: a2 00        	ldx	#$0
 800a4cb: a9 78        	lda	#$78
 800a4cd: 20 af 07     	jsr	$7af <__heap_start+0x7fffdb5>
 800a4d0: a2 00        	ldx	#$0
 800a4d2: a9 74        	lda	#$74
 800a4d4: 20 af 07     	jsr	$7af <__heap_start+0x7fffdb5>
 800a4d7: a2 00        	ldx	#$0
 800a4d9: a9 20        	lda	#$20
 800a4db: 20 af 07     	jsr	$7af <__heap_start+0x7fffdb5>
 800a4de: a9 62        	lda	#$62
 800a4e0: a2 00        	ldx	#$0
 800a4e2: 20 af 07     	jsr	$7af <__heap_start+0x7fffdb5>
 800a4e5: a2 00        	ldx	#$0
 800a4e7: a9 6f        	lda	#$6f
 800a4e9: 20 af 07     	jsr	$7af <__heap_start+0x7fffdb5>
 800a4ec: a2 00        	ldx	#$0
 800a4ee: a9 78        	lda	#$78
 800a4f0: 20 af 07     	jsr	$7af <__heap_start+0x7fffdb5>
 800a4f3: a2 00        	ldx	#$0
 800a4f5: a9 2e        	lda	#$2e
 800a4f7: 20 af 07     	jsr	$7af <__heap_start+0x7fffdb5>
 800a4fa: a2 00        	ldx	#$0
 800a4fc: a9 20        	lda	#$20
 800a4fe: 20 af 07     	jsr	$7af <__heap_start+0x7fffdb5>
 800a501: a2 00        	ldx	#$0
 800a503: a9 20        	lda	#$20
 800a505: 20 af 07     	jsr	$7af <__heap_start+0x7fffdb5>
 800a508: a2 00        	ldx	#$0
 800a50a: a9 2a        	lda	#$2a
 800a50c: 20 af 07     	jsr	$7af <__heap_start+0x7fffdb5>
 800a50f: a2 00        	ldx	#$0
 800a511: a9 0a        	lda	#$a
 800a513: 20 af 07     	jsr	$7af <__heap_start+0x7fffdb5>
 800a516: a2 00        	ldx	#$0
 800a518: a9 2a        	lda	#$2a
 800a51a: 20 af 07     	jsr	$7af <__heap_start+0x7fffdb5>
 800a51d: a2 00        	ldx	#$0
 800a51f: a9 20        	lda	#$20
 800a521: 20 af 07     	jsr	$7af <__heap_start+0x7fffdb5>
 800a524: a2 00        	ldx	#$0
 800a526: a9 20        	lda	#$20
 800a528: 20 af 07     	jsr	$7af <__heap_start+0x7fffdb5>
 800a52b: a2 00        	ldx	#$0
 800a52d: a9 20        	lda	#$20
 800a52f: 20 af 07     	jsr	$7af <__heap_start+0x7fffdb5>
 800a532: a2 00        	ldx	#$0
 800a534: a9 20        	lda	#$20
 800a536: 20 af 07     	jsr	$7af <__heap_start+0x7fffdb5>
 800a539: a2 00        	ldx	#$0
 800a53b: a9 20        	lda	#$20
 800a53d: 20 af 07     	jsr	$7af <__heap_start+0x7fffdb5>
 800a540: a2 00        	ldx	#$0
 800a542: a9 20        	lda	#$20
 800a544: 20 af 07     	jsr	$7af <__heap_start+0x7fffdb5>
 800a547: a2 00        	ldx	#$0
 800a549: a9 20        	lda	#$20
 800a54b: 20 af 07     	jsr	$7af <__heap_start+0x7fffdb5>
 800a54e: a2 00        	ldx	#$0
 800a550: a9 20        	lda	#$20
 800a552: 20 af 07     	jsr	$7af <__heap_start+0x7fffdb5>
 800a555: a2 00        	ldx	#$0
 800a557: a9 20        	lda	#$20
 800a559: 20 af 07     	jsr	$7af <__heap_start+0x7fffdb5>
 800a55c: a2 00        	ldx	#$0
 800a55e: a9 20        	lda	#$20
 800a560: 20 af 07     	jsr	$7af <__heap_start+0x7fffdb5>
 800a563: a2 00        	ldx	#$0
 800a565: a9 20        	lda	#$20
 800a567: 20 af 07     	jsr	$7af <__heap_start+0x7fffdb5>
 800a56a: a2 00        	ldx	#$0
 800a56c: a9 20        	lda	#$20
 800a56e: 20 af 07     	jsr	$7af <__heap_start+0x7fffdb5>
 800a571: a2 00        	ldx	#$0
 800a573: a9 20        	lda	#$20
 800a575: 20 af 07     	jsr	$7af <__heap_start+0x7fffdb5>
 800a578: a2 00        	ldx	#$0
 800a57a: a9 20        	lda	#$20
 800a57c: 20 af 07     	jsr	$7af <__heap_start+0x7fffdb5>
 800a57f: a2 00        	ldx	#$0
 800a581: a9 20        	lda	#$20
 800a583: 20 af 07     	jsr	$7af <__heap_start+0x7fffdb5>
 800a586: a2 00        	ldx	#$0
 800a588: a9 20        	lda	#$20
 800a58a: 20 af 07     	jsr	$7af <__heap_start+0x7fffdb5>
 800a58d: a2 00        	ldx	#$0
 800a58f: a9 20        	lda	#$20
 800a591: 20 af 07     	jsr	$7af <__heap_start+0x7fffdb5>
 800a594: a2 00        	ldx	#$0
 800a596: a9 20        	lda	#$20
 800a598: 20 af 07     	jsr	$7af <__heap_start+0x7fffdb5>
 800a59b: a2 00        	ldx	#$0
 800a59d: a9 20        	lda	#$20
 800a59f: 20 af 07     	jsr	$7af <__heap_start+0x7fffdb5>
 800a5a2: a2 00        	ldx	#$0
 800a5a4: a9 20        	lda	#$20
 800a5a6: 20 af 07     	jsr	$7af <__heap_start+0x7fffdb5>
 800a5a9: a2 00        	ldx	#$0
 800a5ab: a9 20        	lda	#$20
 800a5ad: 20 af 07     	jsr	$7af <__heap_start+0x7fffdb5>
 800a5b0: a2 00        	ldx	#$0
 800a5b2: a9 20        	lda	#$20
 800a5b4: 20 af 07     	jsr	$7af <__heap_start+0x7fffdb5>
 800a5b7: a2 00        	ldx	#$0
 800a5b9: a9 20        	lda	#$20
 800a5bb: 20 af 07     	jsr	$7af <__heap_start+0x7fffdb5>
 800a5be: a2 00        	ldx	#$0
 800a5c0: a9 20        	lda	#$20
 800a5c2: 20 af 07     	jsr	$7af <__heap_start+0x7fffdb5>
 800a5c5: a2 00        	ldx	#$0
 800a5c7: a9 20        	lda	#$20
 800a5c9: 20 af 07     	jsr	$7af <__heap_start+0x7fffdb5>
 800a5cc: a2 00        	ldx	#$0
 800a5ce: a9 20        	lda	#$20
 800a5d0: 20 af 07     	jsr	$7af <__heap_start+0x7fffdb5>
 800a5d3: a2 00        	ldx	#$0
 800a5d5: a9 20        	lda	#$20
 800a5d7: 20 af 07     	jsr	$7af <__heap_start+0x7fffdb5>
 800a5da: a2 00        	ldx	#$0
 800a5dc: a9 20        	lda	#$20
 800a5de: 20 af 07     	jsr	$7af <__heap_start+0x7fffdb5>
 800a5e1: a2 00        	ldx	#$0
 800a5e3: a9 2a        	lda	#$2a
 800a5e5: 20 af 07     	jsr	$7af <__heap_start+0x7fffdb5>
 800a5e8: a2 00        	ldx	#$0
 800a5ea: a9 0a        	lda	#$a
 800a5ec: 20 af 07     	jsr	$7af <__heap_start+0x7fffdb5>
 800a5ef: a2 00        	ldx	#$0
 800a5f1: a9 2a        	lda	#$2a
 800a5f3: 20 af 07     	jsr	$7af <__heap_start+0x7fffdb5>
 800a5f6: a2 00        	ldx	#$0
 800a5f8: a9 20        	lda	#$20
 800a5fa: 20 af 07     	jsr	$7af <__heap_start+0x7fffdb5>
 800a5fd: a2 00        	ldx	#$0
 800a5ff: a9 20        	lda	#$20
 800a601: 20 af 07     	jsr	$7af <__heap_start+0x7fffdb5>
 800a604: a9 59        	lda	#$59
 800a606: a2 00        	ldx	#$0
 800a608: 20 af 07     	jsr	$7af <__heap_start+0x7fffdb5>
 800a60b: a2 00        	ldx	#$0
 800a60d: a9 6f        	lda	#$6f
 800a60f: 20 af 07     	jsr	$7af <__heap_start+0x7fffdb5>
 800a612: a2 00        	ldx	#$0
 800a614: a9 75        	lda	#$75
 800a616: 20 af 07     	jsr	$7af <__heap_start+0x7fffdb5>
 800a619: a2 00        	ldx	#$0
 800a61b: a9 20        	lda	#$20
 800a61d: 20 af 07     	jsr	$7af <__heap_start+0x7fffdb5>
 800a620: a2 00        	ldx	#$0
 800a622: a9 63        	lda	#$63
 800a624: 20 af 07     	jsr	$7af <__heap_start+0x7fffdb5>
 800a627: a2 00        	ldx	#$0
 800a629: a9 61        	lda	#$61
 800a62b: 20 af 07     	jsr	$7af <__heap_start+0x7fffdb5>
 800a62e: a2 00        	ldx	#$0
 800a630: a9 6e        	lda	#$6e
 800a632: 20 af 07     	jsr	$7af <__heap_start+0x7fffdb5>
 800a635: a2 00        	ldx	#$0
 800a637: a9 20        	lda	#$20
 800a639: 20 af 07     	jsr	$7af <__heap_start+0x7fffdb5>
 800a63c: a2 00        	ldx	#$0
 800a63e: a9 63        	lda	#$63
 800a640: 20 af 07     	jsr	$7af <__heap_start+0x7fffdb5>
 800a643: a2 00        	ldx	#$0
 800a645: a9 68        	lda	#$68
 800a647: 20 af 07     	jsr	$7af <__heap_start+0x7fffdb5>
 800a64a: a2 00        	ldx	#$0
 800a64c: a9 61        	lda	#$61
 800a64e: 20 af 07     	jsr	$7af <__heap_start+0x7fffdb5>
 800a651: a2 00        	ldx	#$0
 800a653: a9 6e        	lda	#$6e
 800a655: 20 af 07     	jsr	$7af <__heap_start+0x7fffdb5>
 800a658: a2 00        	ldx	#$0
 800a65a: a9 67        	lda	#$67
 800a65c: 20 af 07     	jsr	$7af <__heap_start+0x7fffdb5>
 800a65f: a2 00        	ldx	#$0
 800a661: a9 65        	lda	#$65
 800a663: 20 af 07     	jsr	$7af <__heap_start+0x7fffdb5>
 800a666: a2 00        	ldx	#$0
 800a668: a9 20        	lda	#$20
 800a66a: 20 af 07     	jsr	$7af <__heap_start+0x7fffdb5>
 800a66d: a2 00        	ldx	#$0
 800a66f: a9 74        	lda	#$74
 800a671: 20 af 07     	jsr	$7af <__heap_start+0x7fffdb5>
 800a674: a2 00        	ldx	#$0
 800a676: a9 68        	lda	#$68
 800a678: 20 af 07     	jsr	$7af <__heap_start+0x7fffdb5>
 800a67b: a2 00        	ldx	#$0
 800a67d: a9 65        	lda	#$65
 800a67f: 20 af 07     	jsr	$7af <__heap_start+0x7fffdb5>
 800a682: a2 00        	ldx	#$0
 800a684: a9 20        	lda	#$20
 800a686: 20 af 07     	jsr	$7af <__heap_start+0x7fffdb5>
 800a689: a2 00        	ldx	#$0
 800a68b: a9 74        	lda	#$74
 800a68d: 20 af 07     	jsr	$7af <__heap_start+0x7fffdb5>
 800a690: a2 00        	ldx	#$0
 800a692: a9 65        	lda	#$65
 800a694: 20 af 07     	jsr	$7af <__heap_start+0x7fffdb5>
 800a697: a2 00        	ldx	#$0
 800a699: a9 78        	lda	#$78
 800a69b: 20 af 07     	jsr	$7af <__heap_start+0x7fffdb5>
 800a69e: a2 00        	ldx	#$0
 800a6a0: a9 74        	lda	#$74
 800a6a2: 20 af 07     	jsr	$7af <__heap_start+0x7fffdb5>
 800a6a5: a2 00        	ldx	#$0
 800a6a7: a9 20        	lda	#$20
 800a6a9: 20 af 07     	jsr	$7af <__heap_start+0x7fffdb5>
 800a6ac: a2 00        	ldx	#$0
 800a6ae: a9 20        	lda	#$20
 800a6b0: 20 af 07     	jsr	$7af <__heap_start+0x7fffdb5>
 800a6b3: a2 00        	ldx	#$0
 800a6b5: a9 20        	lda	#$20
 800a6b7: 20 af 07     	jsr	$7af <__heap_start+0x7fffdb5>
 800a6ba: a2 00        	ldx	#$0
 800a6bc: a9 2a        	lda	#$2a
 800a6be: 20 af 07     	jsr	$7af <__heap_start+0x7fffdb5>
 800a6c1: a2 00        	ldx	#$0
 800a6c3: a9 0a        	lda	#$a
 800a6c5: 20 af 07     	jsr	$7af <__heap_start+0x7fffdb5>
 800a6c8: a2 00        	ldx	#$0
 800a6ca: a9 2a        	lda	#$2a
 800a6cc: 20 af 07     	jsr	$7af <__heap_start+0x7fffdb5>
 800a6cf: a2 00        	ldx	#$0
 800a6d1: a9 20        	lda	#$20
 800a6d3: 20 af 07     	jsr	$7af <__heap_start+0x7fffdb5>
 800a6d6: a2 00        	ldx	#$0
 800a6d8: a9 20        	lda	#$20
 800a6da: 20 af 07     	jsr	$7af <__heap_start+0x7fffdb5>
 800a6dd: a2 00        	ldx	#$0
 800a6df: a9 6f        	lda	#$6f
 800a6e1: 20 af 07     	jsr	$7af <__heap_start+0x7fffdb5>
 800a6e4: a2 00        	ldx	#$0
 800a6e6: a9 72        	lda	#$72
 800a6e8: 20 af 07     	jsr	$7af <__heap_start+0x7fffdb5>
 800a6eb: a2 00        	ldx	#$0
 800a6ed: a9 20        	lda	#$20
 800a6ef: 20 af 07     	jsr	$7af <__heap_start+0x7fffdb5>
 800a6f2: a2 00        	ldx	#$0
 800a6f4: a9 6d        	lda	#$6d
 800a6f6: 20 af 07     	jsr	$7af <__heap_start+0x7fffdb5>
 800a6f9: a2 00        	ldx	#$0
 800a6fb: a9 61        	lda	#$61
 800a6fd: 20 af 07     	jsr	$7af <__heap_start+0x7fffdb5>
 800a700: a2 00        	ldx	#$0
 800a702: a9 6b        	lda	#$6b
 800a704: 20 af 07     	jsr	$7af <__heap_start+0x7fffdb5>
 800a707: a2 00        	ldx	#$0
 800a709: a9 65        	lda	#$65
 800a70b: 20 af 07     	jsr	$7af <__heap_start+0x7fffdb5>
 800a70e: a2 00        	ldx	#$0
 800a710: a9 20        	lda	#$20
 800a712: 20 af 07     	jsr	$7af <__heap_start+0x7fffdb5>
 800a715: a2 00        	ldx	#$0
 800a717: a9 69        	lda	#$69
 800a719: 20 af 07     	jsr	$7af <__heap_start+0x7fffdb5>
 800a71c: a2 00        	ldx	#$0
 800a71e: a9 74        	lda	#$74
 800a720: 20 af 07     	jsr	$7af <__heap_start+0x7fffdb5>
 800a723: a2 00        	ldx	#$0
 800a725: a9 20        	lda	#$20
 800a727: 20 af 07     	jsr	$7af <__heap_start+0x7fffdb5>
 800a72a: a2 00        	ldx	#$0
 800a72c: a9 69        	lda	#$69
 800a72e: 20 af 07     	jsr	$7af <__heap_start+0x7fffdb5>
 800a731: a2 00        	ldx	#$0
 800a733: a9 6e        	lda	#$6e
 800a735: 20 af 07     	jsr	$7af <__heap_start+0x7fffdb5>
 800a738: a2 00        	ldx	#$0
 800a73a: a9 74        	lda	#$74
 800a73c: 20 af 07     	jsr	$7af <__heap_start+0x7fffdb5>
 800a73f: a2 00        	ldx	#$0
 800a741: a9 65        	lda	#$65
 800a743: 20 af 07     	jsr	$7af <__heap_start+0x7fffdb5>
 800a746: a2 00        	ldx	#$0
 800a748: a9 72        	lda	#$72
 800a74a: 20 af 07     	jsr	$7af <__heap_start+0x7fffdb5>
 800a74d: a2 00        	ldx	#$0
 800a74f: a9 61        	lda	#$61
 800a751: 20 af 07     	jsr	$7af <__heap_start+0x7fffdb5>
 800a754: a2 00        	ldx	#$0
 800a756: a9 63        	lda	#$63
 800a758: 20 af 07     	jsr	$7af <__heap_start+0x7fffdb5>
 800a75b: a2 00        	ldx	#$0
 800a75d: a9 74        	lda	#$74
 800a75f: 20 af 07     	jsr	$7af <__heap_start+0x7fffdb5>
 800a762: a2 00        	ldx	#$0
 800a764: a9 69        	lda	#$69
 800a766: 20 af 07     	jsr	$7af <__heap_start+0x7fffdb5>
 800a769: a9 76        	lda	#$76
 800a76b: a2 00        	ldx	#$0
 800a76d: 20 af 07     	jsr	$7af <__heap_start+0x7fffdb5>
 800a770: a2 00        	ldx	#$0
 800a772: a9 65        	lda	#$65
 800a774: 20 af 07     	jsr	$7af <__heap_start+0x7fffdb5>
 800a777: a2 00        	ldx	#$0
 800a779: a9 2e        	lda	#$2e
 800a77b: 20 af 07     	jsr	$7af <__heap_start+0x7fffdb5>
 800a77e: a2 00        	ldx	#$0
 800a780: a9 20        	lda	#$20
 800a782: 20 af 07     	jsr	$7af <__heap_start+0x7fffdb5>
 800a785: a2 00        	ldx	#$0
 800a787: a9 20        	lda	#$20
 800a789: 20 af 07     	jsr	$7af <__heap_start+0x7fffdb5>
 800a78c: a2 00        	ldx	#$0
 800a78e: a9 20        	lda	#$20
 800a790: 20 af 07     	jsr	$7af <__heap_start+0x7fffdb5>
 800a793: a2 00        	ldx	#$0
 800a795: a9 2a        	lda	#$2a
 800a797: 20 af 07     	jsr	$7af <__heap_start+0x7fffdb5>
 800a79a: a2 00        	ldx	#$0
 800a79c: a9 0a        	lda	#$a
 800a79e: 20 af 07     	jsr	$7af <__heap_start+0x7fffdb5>
 800a7a1: a2 00        	ldx	#$0
 800a7a3: a9 2a        	lda	#$2a
 800a7a5: 20 af 07     	jsr	$7af <__heap_start+0x7fffdb5>
 800a7a8: a2 00        	ldx	#$0
 800a7aa: a9 20        	lda	#$20
 800a7ac: 20 af 07     	jsr	$7af <__heap_start+0x7fffdb5>
 800a7af: a2 00        	ldx	#$0
 800a7b1: a9 20        	lda	#$20
 800a7b3: 20 af 07     	jsr	$7af <__heap_start+0x7fffdb5>
 800a7b6: a2 00        	ldx	#$0
 800a7b8: a9 20        	lda	#$20
 800a7ba: 20 af 07     	jsr	$7af <__heap_start+0x7fffdb5>
 800a7bd: a2 00        	ldx	#$0
 800a7bf: a9 20        	lda	#$20
 800a7c1: 20 af 07     	jsr	$7af <__heap_start+0x7fffdb5>
 800a7c4: a2 00        	ldx	#$0
 800a7c6: a9 20        	lda	#$20
 800a7c8: 20 af 07     	jsr	$7af <__heap_start+0x7fffdb5>
 800a7cb: a2 00        	ldx	#$0
 800a7cd: a9 20        	lda	#$20
 800a7cf: 20 af 07     	jsr	$7af <__heap_start+0x7fffdb5>
 800a7d2: a2 00        	ldx	#$0
 800a7d4: a9 20        	lda	#$20
 800a7d6: 20 af 07     	jsr	$7af <__heap_start+0x7fffdb5>
 800a7d9: a2 00        	ldx	#$0
 800a7db: a9 20        	lda	#$20
 800a7dd: 20 af 07     	jsr	$7af <__heap_start+0x7fffdb5>
 800a7e0: a2 00        	ldx	#$0
 800a7e2: a9 20        	lda	#$20
 800a7e4: 20 af 07     	jsr	$7af <__heap_start+0x7fffdb5>
 800a7e7: a2 00        	ldx	#$0
 800a7e9: a9 20        	lda	#$20
 800a7eb: 20 af 07     	jsr	$7af <__heap_start+0x7fffdb5>
 800a7ee: a2 00        	ldx	#$0
 800a7f0: a9 20        	lda	#$20
 800a7f2: 20 af 07     	jsr	$7af <__heap_start+0x7fffdb5>
 800a7f5: a2 00        	ldx	#$0
 800a7f7: a9 20        	lda	#$20
 800a7f9: 20 af 07     	jsr	$7af <__heap_start+0x7fffdb5>
 800a7fc: a2 00        	ldx	#$0
 800a7fe: a9 20        	lda	#$20
 800a800: 20 af 07     	jsr	$7af <__heap_start+0x7fffdb5>
 800a803: a2 00        	ldx	#$0
 800a805: a9 20        	lda	#$20
 800a807: 20 af 07     	jsr	$7af <__heap_start+0x7fffdb5>
 800a80a: a2 00        	ldx	#$0
 800a80c: a9 20        	lda	#$20
 800a80e: 20 af 07     	jsr	$7af <__heap_start+0x7fffdb5>
 800a811: a2 00        	ldx	#$0
 800a813: a9 20        	lda	#$20
 800a815: 20 af 07     	jsr	$7af <__heap_start+0x7fffdb5>
 800a818: a2 00        	ldx	#$0
 800a81a: a9 20        	lda	#$20
 800a81c: 20 af 07     	jsr	$7af <__heap_start+0x7fffdb5>
 800a81f: a2 00        	ldx	#$0
 800a821: a9 20        	lda	#$20
 800a823: 20 af 07     	jsr	$7af <__heap_start+0x7fffdb5>
 800a826: a2 00        	ldx	#$0
 800a828: a9 20        	lda	#$20
 800a82a: 20 af 07     	jsr	$7af <__heap_start+0x7fffdb5>
 800a82d: a2 00        	ldx	#$0
 800a82f: a9 20        	lda	#$20
 800a831: 20 af 07     	jsr	$7af <__heap_start+0x7fffdb5>
 800a834: a2 00        	ldx	#$0
 800a836: a9 20        	lda	#$20
 800a838: 20 af 07     	jsr	$7af <__heap_start+0x7fffdb5>
 800a83b: a2 00        	ldx	#$0
 800a83d: a9 20        	lda	#$20
 800a83f: 20 af 07     	jsr	$7af <__heap_start+0x7fffdb5>
 800a842: a2 00        	ldx	#$0
 800a844: a9 20        	lda	#$20
 800a846: 20 af 07     	jsr	$7af <__heap_start+0x7fffdb5>
 800a849: a2 00        	ldx	#$0
 800a84b: a9 20        	lda	#$20
 800a84d: 20 af 07     	jsr	$7af <__heap_start+0x7fffdb5>
 800a850: a2 00        	ldx	#$0
 800a852: a9 20        	lda	#$20
 800a854: 20 af 07     	jsr	$7af <__heap_start+0x7fffdb5>
 800a857: a2 00        	ldx	#$0
 800a859: a9 20        	lda	#$20
 800a85b: 20 af 07     	jsr	$7af <__heap_start+0x7fffdb5>
 800a85e: a2 00        	ldx	#$0
 800a860: a9 20        	lda	#$20
 800a862: 20 af 07     	jsr	$7af <__heap_start+0x7fffdb5>
 800a865: a2 00        	ldx	#$0
 800a867: a9 20        	lda	#$20
 800a869: 20 af 07     	jsr	$7af <__heap_start+0x7fffdb5>
 800a86c: a2 00        	ldx	#$0
 800a86e: a9 2a        	lda	#$2a
 800a870: 20 af 07     	jsr	$7af <__heap_start+0x7fffdb5>
 800a873: a2 00        	ldx	#$0
 800a875: a9 0a        	lda	#$a
 800a877: 20 af 07     	jsr	$7af <__heap_start+0x7fffdb5>
 800a87a: a2 00        	ldx	#$0
 800a87c: a9 2a        	lda	#$2a
 800a87e: 20 af 07     	jsr	$7af <__heap_start+0x7fffdb5>
 800a881: a2 00        	ldx	#$0
 800a883: a9 20        	lda	#$20
 800a885: 20 af 07     	jsr	$7af <__heap_start+0x7fffdb5>
 800a888: a2 00        	ldx	#$0
 800a88a: a9 20        	lda	#$20
 800a88c: 20 af 07     	jsr	$7af <__heap_start+0x7fffdb5>
 800a88f: a2 00        	ldx	#$0
 800a891: a9 53        	lda	#$53
 800a893: 20 af 07     	jsr	$7af <__heap_start+0x7fffdb5>
 800a896: a2 00        	ldx	#$0
 800a898: a9 65        	lda	#$65
 800a89a: 20 af 07     	jsr	$7af <__heap_start+0x7fffdb5>
 800a89d: a2 00        	ldx	#$0
 800a89f: a9 67        	lda	#$67
 800a8a1: 20 af 07     	jsr	$7af <__heap_start+0x7fffdb5>
 800a8a4: a2 00        	ldx	#$0
 800a8a6: a9 6d        	lda	#$6d
 800a8a8: 20 af 07     	jsr	$7af <__heap_start+0x7fffdb5>
 800a8ab: a2 00        	ldx	#$0
 800a8ad: a9 65        	lda	#$65
 800a8af: 20 af 07     	jsr	$7af <__heap_start+0x7fffdb5>
 800a8b2: a2 00        	ldx	#$0
 800a8b4: a9 6e        	lda	#$6e
 800a8b6: 20 af 07     	jsr	$7af <__heap_start+0x7fffdb5>
 800a8b9: a2 00        	ldx	#$0
 800a8bb: a9 74        	lda	#$74
 800a8bd: 20 af 07     	jsr	$7af <__heap_start+0x7fffdb5>
 800a8c0: a2 00        	ldx	#$0
 800a8c2: a9 20        	lda	#$20
 800a8c4: 20 af 07     	jsr	$7af <__heap_start+0x7fffdb5>
 800a8c7: a2 00        	ldx	#$0
 800a8c9: a9 6c        	lda	#$6c
 800a8cb: 20 af 07     	jsr	$7af <__heap_start+0x7fffdb5>
 800a8ce: a2 00        	ldx	#$0
 800a8d0: a9 6f        	lda	#$6f
 800a8d2: 20 af 07     	jsr	$7af <__heap_start+0x7fffdb5>
 800a8d5: a2 00        	ldx	#$0
 800a8d7: a9 61        	lda	#$61
 800a8d9: 20 af 07     	jsr	$7af <__heap_start+0x7fffdb5>
 800a8dc: a2 00        	ldx	#$0
 800a8de: a9 64        	lda	#$64
 800a8e0: 20 af 07     	jsr	$7af <__heap_start+0x7fffdb5>
 800a8e3: a2 00        	ldx	#$0
 800a8e5: a9 69        	lda	#$69
 800a8e7: 20 af 07     	jsr	$7af <__heap_start+0x7fffdb5>
 800a8ea: a2 00        	ldx	#$0
 800a8ec: a9 6e        	lda	#$6e
 800a8ee: 20 af 07     	jsr	$7af <__heap_start+0x7fffdb5>
 800a8f1: a2 00        	ldx	#$0
 800a8f3: a9 67        	lda	#$67
 800a8f5: 20 af 07     	jsr	$7af <__heap_start+0x7fffdb5>
 800a8f8: a2 00        	ldx	#$0
 800a8fa: a9 20        	lda	#$20
 800a8fc: 20 af 07     	jsr	$7af <__heap_start+0x7fffdb5>
 800a8ff: a2 00        	ldx	#$0
 800a901: a9 63        	lda	#$63
 800a903: 20 af 07     	jsr	$7af <__heap_start+0x7fffdb5>
 800a906: a2 00        	ldx	#$0
 800a908: a9 6f        	lda	#$6f
 800a90a: 20 af 07     	jsr	$7af <__heap_start+0x7fffdb5>
 800a90d: a2 00        	ldx	#$0
 800a90f: a9 6d        	lda	#$6d
 800a911: 20 af 07     	jsr	$7af <__heap_start+0x7fffdb5>
 800a914: a2 00        	ldx	#$0
 800a916: a9 70        	lda	#$70
 800a918: 20 af 07     	jsr	$7af <__heap_start+0x7fffdb5>
 800a91b: a2 00        	ldx	#$0
 800a91d: a9 6c        	lda	#$6c
 800a91f: 20 af 07     	jsr	$7af <__heap_start+0x7fffdb5>
 800a922: a2 00        	ldx	#$0
 800a924: a9 65        	lda	#$65
 800a926: 20 af 07     	jsr	$7af <__heap_start+0x7fffdb5>
 800a929: a2 00        	ldx	#$0
 800a92b: a9 74        	lda	#$74
 800a92d: 20 af 07     	jsr	$7af <__heap_start+0x7fffdb5>
 800a930: a2 00        	ldx	#$0
 800a932: a9 65        	lda	#$65
 800a934: 20 af 07     	jsr	$7af <__heap_start+0x7fffdb5>
 800a937: a2 00        	ldx	#$0
 800a939: a9 2e        	lda	#$2e
 800a93b: 20 af 07     	jsr	$7af <__heap_start+0x7fffdb5>
 800a93e: a2 00        	ldx	#$0
 800a940: a9 20        	lda	#$20
 800a942: 20 af 07     	jsr	$7af <__heap_start+0x7fffdb5>
 800a945: a2 00        	ldx	#$0
 800a947: a9 2a        	lda	#$2a
 800a949: 20 af 07     	jsr	$7af <__heap_start+0x7fffdb5>
 800a94c: a2 00        	ldx	#$0
 800a94e: a9 0a        	lda	#$a
 800a950: 20 af 07     	jsr	$7af <__heap_start+0x7fffdb5>
 800a953: a2 00        	ldx	#$0
 800a955: a9 2a        	lda	#$2a
 800a957: 20 af 07     	jsr	$7af <__heap_start+0x7fffdb5>
 800a95a: a2 00        	ldx	#$0
 800a95c: a9 20        	lda	#$20
 800a95e: 20 af 07     	jsr	$7af <__heap_start+0x7fffdb5>
 800a961: a2 00        	ldx	#$0
 800a963: a9 20        	lda	#$20
 800a965: 20 af 07     	jsr	$7af <__heap_start+0x7fffdb5>
 800a968: a9 4d        	lda	#$4d
 800a96a: a2 00        	ldx	#$0
 800a96c: 20 af 07     	jsr	$7af <__heap_start+0x7fffdb5>
 800a96f: a2 00        	ldx	#$0
 800a971: a9 65        	lda	#$65
 800a973: 20 af 07     	jsr	$7af <__heap_start+0x7fffdb5>
 800a976: a2 00        	ldx	#$0
 800a978: a9 6d        	lda	#$6d
 800a97a: 20 af 07     	jsr	$7af <__heap_start+0x7fffdb5>
 800a97d: a2 00        	ldx	#$0
 800a97f: a9 6f        	lda	#$6f
 800a981: 20 af 07     	jsr	$7af <__heap_start+0x7fffdb5>
 800a984: a2 00        	ldx	#$0
 800a986: a9 72        	lda	#$72
 800a988: 20 af 07     	jsr	$7af <__heap_start+0x7fffdb5>
 800a98b: a2 00        	ldx	#$0
 800a98d: a9 79        	lda	#$79
 800a98f: 20 af 07     	jsr	$7af <__heap_start+0x7fffdb5>
 800a992: a2 00        	ldx	#$0
 800a994: a9 20        	lda	#$20
 800a996: 20 af 07     	jsr	$7af <__heap_start+0x7fffdb5>
 800a999: a2 00        	ldx	#$0
 800a99b: a9 63        	lda	#$63
 800a99d: 20 af 07     	jsr	$7af <__heap_start+0x7fffdb5>
 800a9a0: a2 00        	ldx	#$0
 800a9a2: a9 68        	lda	#$68
 800a9a4: 20 af 07     	jsr	$7af <__heap_start+0x7fffdb5>
 800a9a7: a2 00        	ldx	#$0
 800a9a9: a9 65        	lda	#$65
 800a9ab: 20 af 07     	jsr	$7af <__heap_start+0x7fffdb5>
 800a9ae: a2 00        	ldx	#$0
 800a9b0: a9 63        	lda	#$63
 800a9b2: 20 af 07     	jsr	$7af <__heap_start+0x7fffdb5>
 800a9b5: a2 00        	ldx	#$0
 800a9b7: a9 6b        	lda	#$6b
 800a9b9: 20 af 07     	jsr	$7af <__heap_start+0x7fffdb5>
 800a9bc: a2 00        	ldx	#$0
 800a9be: a9 73        	lda	#$73
 800a9c0: 20 af 07     	jsr	$7af <__heap_start+0x7fffdb5>
 800a9c3: a2 00        	ldx	#$0
 800a9c5: a9 20        	lda	#$20
 800a9c7: 20 af 07     	jsr	$7af <__heap_start+0x7fffdb5>
 800a9ca: a2 00        	ldx	#$0
 800a9cc: a9 70        	lda	#$70
 800a9ce: 20 af 07     	jsr	$7af <__heap_start+0x7fffdb5>
 800a9d1: a2 00        	ldx	#$0
 800a9d3: a9 61        	lda	#$61
 800a9d5: 20 af 07     	jsr	$7af <__heap_start+0x7fffdb5>
 800a9d8: a2 00        	ldx	#$0
 800a9da: a9 73        	lda	#$73
 800a9dc: 20 af 07     	jsr	$7af <__heap_start+0x7fffdb5>
 800a9df: a2 00        	ldx	#$0
 800a9e1: a9 73        	lda	#$73
 800a9e3: 20 af 07     	jsr	$7af <__heap_start+0x7fffdb5>
 800a9e6: a2 00        	ldx	#$0
 800a9e8: a9 65        	lda	#$65
 800a9ea: 20 af 07     	jsr	$7af <__heap_start+0x7fffdb5>
 800a9ed: a2 00        	ldx	#$0
 800a9ef: a9 64        	lda	#$64
 800a9f1: 20 af 07     	jsr	$7af <__heap_start+0x7fffdb5>
 800a9f4: a2 00        	ldx	#$0
 800a9f6: a9 2e        	lda	#$2e
 800a9f8: 20 af 07     	jsr	$7af <__heap_start+0x7fffdb5>
 800a9fb: a2 00        	ldx	#$0
 800a9fd: a9 20        	lda	#$20
 800a9ff: 20 af 07     	jsr	$7af <__heap_start+0x7fffdb5>
 800aa02: a2 00        	ldx	#$0
 800aa04: a9 20        	lda	#$20
 800aa06: 20 af 07     	jsr	$7af <__heap_start+0x7fffdb5>
 800aa09: a2 00        	ldx	#$0
 800aa0b: a9 20        	lda	#$20
 800aa0d: 20 af 07     	jsr	$7af <__heap_start+0x7fffdb5>
 800aa10: a2 00        	ldx	#$0
 800aa12: a9 20        	lda	#$20
 800aa14: 20 af 07     	jsr	$7af <__heap_start+0x7fffdb5>
 800aa17: a2 00        	ldx	#$0
 800aa19: a9 20        	lda	#$20
 800aa1b: 20 af 07     	jsr	$7af <__heap_start+0x7fffdb5>
 800aa1e: a2 00        	ldx	#$0
 800aa20: a9 2a        	lda	#$2a
 800aa22: 20 af 07     	jsr	$7af <__heap_start+0x7fffdb5>
 800aa25: a2 00        	ldx	#$0
 800aa27: a9 0a        	lda	#$a
 800aa29: 20 af 07     	jsr	$7af <__heap_start+0x7fffdb5>
 800aa2c: a2 00        	ldx	#$0
 800aa2e: a9 2a        	lda	#$2a
 800aa30: 20 af 07     	jsr	$7af <__heap_start+0x7fffdb5>
 800aa33: a2 00        	ldx	#$0
 800aa35: a9 20        	lda	#$20
 800aa37: 20 af 07     	jsr	$7af <__heap_start+0x7fffdb5>
 800aa3a: a2 00        	ldx	#$0
 800aa3c: a9 20        	lda	#$20
 800aa3e: 20 af 07     	jsr	$7af <__heap_start+0x7fffdb5>
 800aa41: a2 00        	ldx	#$0
 800aa43: a9 20        	lda	#$20
 800aa45: 20 af 07     	jsr	$7af <__heap_start+0x7fffdb5>
 800aa48: a2 00        	ldx	#$0
 800aa4a: a9 20        	lda	#$20
 800aa4c: 20 af 07     	jsr	$7af <__heap_start+0x7fffdb5>
 800aa4f: a2 00        	ldx	#$0
 800aa51: a9 20        	lda	#$20
 800aa53: 20 af 07     	jsr	$7af <__heap_start+0x7fffdb5>
 800aa56: a2 00        	ldx	#$0
 800aa58: a9 20        	lda	#$20
 800aa5a: 20 af 07     	jsr	$7af <__heap_start+0x7fffdb5>
 800aa5d: a2 00        	ldx	#$0
 800aa5f: a9 20        	lda	#$20
 800aa61: 20 af 07     	jsr	$7af <__heap_start+0x7fffdb5>
 800aa64: a2 00        	ldx	#$0
 800aa66: a9 20        	lda	#$20
 800aa68: 20 af 07     	jsr	$7af <__heap_start+0x7fffdb5>
 800aa6b: a2 00        	ldx	#$0
 800aa6d: a9 20        	lda	#$20
 800aa6f: 20 af 07     	jsr	$7af <__heap_start+0x7fffdb5>
 800aa72: a2 00        	ldx	#$0
 800aa74: a9 20        	lda	#$20
 800aa76: 20 af 07     	jsr	$7af <__heap_start+0x7fffdb5>
 800aa79: a2 00        	ldx	#$0
 800aa7b: a9 20        	lda	#$20
 800aa7d: 20 af 07     	jsr	$7af <__heap_start+0x7fffdb5>
 800aa80: a2 00        	ldx	#$0
 800aa82: a9 20        	lda	#$20
 800aa84: 20 af 07     	jsr	$7af <__heap_start+0x7fffdb5>
 800aa87: a2 00        	ldx	#$0
 800aa89: a9 20        	lda	#$20
 800aa8b: 20 af 07     	jsr	$7af <__heap_start+0x7fffdb5>
 800aa8e: a2 00        	ldx	#$0
 800aa90: a9 20        	lda	#$20
 800aa92: 20 af 07     	jsr	$7af <__heap_start+0x7fffdb5>
 800aa95: a2 00        	ldx	#$0
 800aa97: a9 20        	lda	#$20
 800aa99: 20 af 07     	jsr	$7af <__heap_start+0x7fffdb5>
 800aa9c: a2 00        	ldx	#$0
 800aa9e: a9 20        	lda	#$20
 800aaa0: 20 af 07     	jsr	$7af <__heap_start+0x7fffdb5>
 800aaa3: a2 00        	ldx	#$0
 800aaa5: a9 20        	lda	#$20
 800aaa7: 20 af 07     	jsr	$7af <__heap_start+0x7fffdb5>
 800aaaa: a2 00        	ldx	#$0
 800aaac: a9 20        	lda	#$20
 800aaae: 20 af 07     	jsr	$7af <__heap_start+0x7fffdb5>
 800aab1: a2 00        	ldx	#$0
 800aab3: a9 20        	lda	#$20
 800aab5: 20 af 07     	jsr	$7af <__heap_start+0x7fffdb5>
 800aab8: a2 00        	ldx	#$0
 800aaba: a9 20        	lda	#$20
 800aabc: 20 af 07     	jsr	$7af <__heap_start+0x7fffdb5>
 800aabf: a2 00        	ldx	#$0
 800aac1: a9 20        	lda	#$20
 800aac3: 20 af 07     	jsr	$7af <__heap_start+0x7fffdb5>
 800aac6: a2 00        	ldx	#$0
 800aac8: a9 20        	lda	#$20
 800aaca: 20 af 07     	jsr	$7af <__heap_start+0x7fffdb5>
 800aacd: a2 00        	ldx	#$0
 800aacf: a9 20        	lda	#$20
 800aad1: 20 af 07     	jsr	$7af <__heap_start+0x7fffdb5>
 800aad4: a2 00        	ldx	#$0
 800aad6: a9 20        	lda	#$20
 800aad8: 20 af 07     	jsr	$7af <__heap_start+0x7fffdb5>
 800aadb: a2 00        	ldx	#$0
 800aadd: a9 20        	lda	#$20
 800aadf: 20 af 07     	jsr	$7af <__heap_start+0x7fffdb5>
 800aae2: a2 00        	ldx	#$0
 800aae4: a9 20        	lda	#$20
 800aae6: 20 af 07     	jsr	$7af <__heap_start+0x7fffdb5>
 800aae9: a2 00        	ldx	#$0
 800aaeb: a9 20        	lda	#$20
 800aaed: 20 af 07     	jsr	$7af <__heap_start+0x7fffdb5>
 800aaf0: a2 00        	ldx	#$0
 800aaf2: a9 20        	lda	#$20
 800aaf4: 20 af 07     	jsr	$7af <__heap_start+0x7fffdb5>
 800aaf7: a2 00        	ldx	#$0
 800aaf9: a9 2a        	lda	#$2a
 800aafb: 20 af 07     	jsr	$7af <__heap_start+0x7fffdb5>
 800aafe: a2 00        	ldx	#$0
 800ab00: a9 0a        	lda	#$a
 800ab02: 20 af 07     	jsr	$7af <__heap_start+0x7fffdb5>
 800ab05: a2 00        	ldx	#$0
 800ab07: a9 2a        	lda	#$2a
 800ab09: 20 af 07     	jsr	$7af <__heap_start+0x7fffdb5>
 800ab0c: a2 00        	ldx	#$0
 800ab0e: a9 20        	lda	#$20
 800ab10: 20 af 07     	jsr	$7af <__heap_start+0x7fffdb5>
 800ab13: a2 00        	ldx	#$0
 800ab15: a9 20        	lda	#$20
 800ab17: 20 af 07     	jsr	$7af <__heap_start+0x7fffdb5>
 800ab1a: a2 00        	ldx	#$0
 800ab1c: a9 53        	lda	#$53
 800ab1e: 20 af 07     	jsr	$7af <__heap_start+0x7fffdb5>
 800ab21: a2 00        	ldx	#$0
 800ab23: a9 74        	lda	#$74
 800ab25: 20 af 07     	jsr	$7af <__heap_start+0x7fffdb5>
 800ab28: a2 00        	ldx	#$0
 800ab2a: a9 61        	lda	#$61
 800ab2c: 20 af 07     	jsr	$7af <__heap_start+0x7fffdb5>
 800ab2f: a2 00        	ldx	#$0
 800ab31: a9 72        	lda	#$72
 800ab33: 20 af 07     	jsr	$7af <__heap_start+0x7fffdb5>
 800ab36: a2 00        	ldx	#$0
 800ab38: a9 74        	lda	#$74
 800ab3a: 20 af 07     	jsr	$7af <__heap_start+0x7fffdb5>
 800ab3d: a2 00        	ldx	#$0
 800ab3f: a9 69        	lda	#$69
 800ab41: 20 af 07     	jsr	$7af <__heap_start+0x7fffdb5>
 800ab44: a2 00        	ldx	#$0
 800ab46: a9 6e        	lda	#$6e
 800ab48: 20 af 07     	jsr	$7af <__heap_start+0x7fffdb5>
 800ab4b: a2 00        	ldx	#$0
 800ab4d: a9 67        	lda	#$67
 800ab4f: 20 af 07     	jsr	$7af <__heap_start+0x7fffdb5>
 800ab52: a2 00        	ldx	#$0
 800ab54: a9 20        	lda	#$20
 800ab56: 20 af 07     	jsr	$7af <__heap_start+0x7fffdb5>
 800ab59: a2 00        	ldx	#$0
 800ab5b: a9 65        	lda	#$65
 800ab5d: 20 af 07     	jsr	$7af <__heap_start+0x7fffdb5>
 800ab60: a2 00        	ldx	#$0
 800ab62: a9 78        	lda	#$78
 800ab64: 20 af 07     	jsr	$7af <__heap_start+0x7fffdb5>
 800ab67: a2 00        	ldx	#$0
 800ab69: a9 65        	lda	#$65
 800ab6b: 20 af 07     	jsr	$7af <__heap_start+0x7fffdb5>
 800ab6e: a2 00        	ldx	#$0
 800ab70: a9 63        	lda	#$63
 800ab72: 20 af 07     	jsr	$7af <__heap_start+0x7fffdb5>
 800ab75: a2 00        	ldx	#$0
 800ab77: a9 75        	lda	#$75
 800ab79: 20 af 07     	jsr	$7af <__heap_start+0x7fffdb5>
 800ab7c: a2 00        	ldx	#$0
 800ab7e: a9 74        	lda	#$74
 800ab80: 20 af 07     	jsr	$7af <__heap_start+0x7fffdb5>
 800ab83: a2 00        	ldx	#$0
 800ab85: a9 69        	lda	#$69
 800ab87: 20 af 07     	jsr	$7af <__heap_start+0x7fffdb5>
 800ab8a: a2 00        	ldx	#$0
 800ab8c: a9 6f        	lda	#$6f
 800ab8e: 20 af 07     	jsr	$7af <__heap_start+0x7fffdb5>
 800ab91: a2 00        	ldx	#$0
 800ab93: a9 6e        	lda	#$6e
 800ab95: 20 af 07     	jsr	$7af <__heap_start+0x7fffdb5>
 800ab98: a2 00        	ldx	#$0
 800ab9a: a9 20        	lda	#$20
 800ab9c: 20 af 07     	jsr	$7af <__heap_start+0x7fffdb5>
 800ab9f: a2 00        	ldx	#$0
 800aba1: a9 61        	lda	#$61
 800aba3: 20 af 07     	jsr	$7af <__heap_start+0x7fffdb5>
 800aba6: a2 00        	ldx	#$0
 800aba8: a9 74        	lda	#$74
 800abaa: 20 af 07     	jsr	$7af <__heap_start+0x7fffdb5>
 800abad: a2 00        	ldx	#$0
 800abaf: a9 20        	lda	#$20
 800abb1: 20 af 07     	jsr	$7af <__heap_start+0x7fffdb5>
 800abb4: a2 00        	ldx	#$0
 800abb6: a9 20        	lda	#$20
 800abb8: 20 af 07     	jsr	$7af <__heap_start+0x7fffdb5>
 800abbb: a2 00        	ldx	#$0
 800abbd: a9 20        	lda	#$20
 800abbf: 20 af 07     	jsr	$7af <__heap_start+0x7fffdb5>
 800abc2: a2 00        	ldx	#$0
 800abc4: a9 20        	lda	#$20
 800abc6: 20 af 07     	jsr	$7af <__heap_start+0x7fffdb5>
 800abc9: a2 00        	ldx	#$0
 800abcb: a9 20        	lda	#$20
 800abcd: 20 af 07     	jsr	$7af <__heap_start+0x7fffdb5>
 800abd0: a2 00        	ldx	#$0
 800abd2: a9 2a        	lda	#$2a
 800abd4: 20 af 07     	jsr	$7af <__heap_start+0x7fffdb5>
 800abd7: a2 00        	ldx	#$0
 800abd9: a9 0a        	lda	#$a
 800abdb: 20 af 07     	jsr	$7af <__heap_start+0x7fffdb5>
 800abde: a2 00        	ldx	#$0
 800abe0: a9 2a        	lda	#$2a
 800abe2: 20 af 07     	jsr	$7af <__heap_start+0x7fffdb5>
 800abe5: a2 00        	ldx	#$0
 800abe7: a9 20        	lda	#$20
 800abe9: 20 af 07     	jsr	$7af <__heap_start+0x7fffdb5>
 800abec: a2 00        	ldx	#$0
 800abee: a9 20        	lda	#$20
 800abf0: 20 af 07     	jsr	$7af <__heap_start+0x7fffdb5>
 800abf3: a2 00        	ldx	#$0
 800abf5: a9 61        	lda	#$61
 800abf7: 20 af 07     	jsr	$7af <__heap_start+0x7fffdb5>
 800abfa: a2 00        	ldx	#$0
 800abfc: a9 64        	lda	#$64
 800abfe: 20 af 07     	jsr	$7af <__heap_start+0x7fffdb5>
 800ac01: a2 00        	ldx	#$0
 800ac03: a9 64        	lda	#$64
 800ac05: 20 af 07     	jsr	$7af <__heap_start+0x7fffdb5>
 800ac08: a2 00        	ldx	#$0
 800ac0a: a9 72        	lda	#$72
 800ac0c: 20 af 07     	jsr	$7af <__heap_start+0x7fffdb5>
 800ac0f: a2 00        	ldx	#$0
 800ac11: a9 65        	lda	#$65
 800ac13: 20 af 07     	jsr	$7af <__heap_start+0x7fffdb5>
 800ac16: a2 00        	ldx	#$0
 800ac18: a9 73        	lda	#$73
 800ac1a: 20 af 07     	jsr	$7af <__heap_start+0x7fffdb5>
 800ac1d: a2 00        	ldx	#$0
 800ac1f: a9 73        	lda	#$73
 800ac21: 20 af 07     	jsr	$7af <__heap_start+0x7fffdb5>
 800ac24: a2 00        	ldx	#$0
 800ac26: a9 20        	lda	#$20
 800ac28: 20 af 07     	jsr	$7af <__heap_start+0x7fffdb5>
 800ac2b: a2 00        	ldx	#$0
 800ac2d: a9 30        	lda	#$30
 800ac2f: 20 af 07     	jsr	$7af <__heap_start+0x7fffdb5>
 800ac32: a2 00        	ldx	#$0
 800ac34: a9 78        	lda	#$78
 800ac36: 20 af 07     	jsr	$7af <__heap_start+0x7fffdb5>
 800ac39: a9 33        	lda	#$33
 800ac3b: a2 00        	ldx	#$0
 800ac3d: 20 af 07     	jsr	$7af <__heap_start+0x7fffdb5>
 800ac40: a2 00        	ldx	#$0
 800ac42: a9 30        	lda	#$30
 800ac44: 20 af 07     	jsr	$7af <__heap_start+0x7fffdb5>
 800ac47: a2 00        	ldx	#$0
 800ac49: a9 30        	lda	#$30
 800ac4b: 20 af 07     	jsr	$7af <__heap_start+0x7fffdb5>
 800ac4e: a2 00        	ldx	#$0
 800ac50: a9 20        	lda	#$20
 800ac52: 20 af 07     	jsr	$7af <__heap_start+0x7fffdb5>
 800ac55: a2 00        	ldx	#$0
 800ac57: a9 20        	lda	#$20
 800ac59: 20 af 07     	jsr	$7af <__heap_start+0x7fffdb5>
 800ac5c: a2 00        	ldx	#$0
 800ac5e: a9 20        	lda	#$20
 800ac60: 20 af 07     	jsr	$7af <__heap_start+0x7fffdb5>
 800ac63: a2 00        	ldx	#$0
 800ac65: a9 2e        	lda	#$2e
 800ac67: 20 af 07     	jsr	$7af <__heap_start+0x7fffdb5>
 800ac6a: a2 00        	ldx	#$0
 800ac6c: a9 20        	lda	#$20
 800ac6e: 20 af 07     	jsr	$7af <__heap_start+0x7fffdb5>
 800ac71: a2 00        	ldx	#$0
 800ac73: a9 20        	lda	#$20
 800ac75: 20 af 07     	jsr	$7af <__heap_start+0x7fffdb5>
 800ac78: a2 00        	ldx	#$0
 800ac7a: a9 20        	lda	#$20
 800ac7c: 20 af 07     	jsr	$7af <__heap_start+0x7fffdb5>
 800ac7f: a2 00        	ldx	#$0
 800ac81: a9 20        	lda	#$20
 800ac83: 20 af 07     	jsr	$7af <__heap_start+0x7fffdb5>
 800ac86: a2 00        	ldx	#$0
 800ac88: a9 20        	lda	#$20
 800ac8a: 20 af 07     	jsr	$7af <__heap_start+0x7fffdb5>
 800ac8d: a2 00        	ldx	#$0
 800ac8f: a9 20        	lda	#$20
 800ac91: 20 af 07     	jsr	$7af <__heap_start+0x7fffdb5>
 800ac94: a2 00        	ldx	#$0
 800ac96: a9 20        	lda	#$20
 800ac98: 20 af 07     	jsr	$7af <__heap_start+0x7fffdb5>
 800ac9b: a2 00        	ldx	#$0
 800ac9d: a9 20        	lda	#$20
 800ac9f: 20 af 07     	jsr	$7af <__heap_start+0x7fffdb5>
 800aca2: a2 00        	ldx	#$0
 800aca4: a9 20        	lda	#$20
 800aca6: 20 af 07     	jsr	$7af <__heap_start+0x7fffdb5>
 800aca9: a2 00        	ldx	#$0
 800acab: a9 2a        	lda	#$2a
 800acad: 20 af 07     	jsr	$7af <__heap_start+0x7fffdb5>
 800acb0: a2 00        	ldx	#$0
 800acb2: a9 0a        	lda	#$a
 800acb4: 20 af 07     	jsr	$7af <__heap_start+0x7fffdb5>
 800acb7: a2 00        	ldx	#$0
 800acb9: a9 2a        	lda	#$2a
 800acbb: 20 af 07     	jsr	$7af <__heap_start+0x7fffdb5>
 800acbe: a2 00        	ldx	#$0
 800acc0: a9 20        	lda	#$20
 800acc2: 20 af 07     	jsr	$7af <__heap_start+0x7fffdb5>
 800acc5: a2 00        	ldx	#$0
 800acc7: a9 20        	lda	#$20
 800acc9: 20 af 07     	jsr	$7af <__heap_start+0x7fffdb5>
 800accc: a2 00        	ldx	#$0
 800acce: a9 20        	lda	#$20
 800acd0: 20 af 07     	jsr	$7af <__heap_start+0x7fffdb5>
 800acd3: a2 00        	ldx	#$0
 800acd5: a9 20        	lda	#$20
 800acd7: 20 af 07     	jsr	$7af <__heap_start+0x7fffdb5>
 800acda: a2 00        	ldx	#$0
 800acdc: a9 20        	lda	#$20
 800acde: 20 af 07     	jsr	$7af <__heap_start+0x7fffdb5>
 800ace1: a2 00        	ldx	#$0
 800ace3: a9 20        	lda	#$20
 800ace5: 20 af 07     	jsr	$7af <__heap_start+0x7fffdb5>
 800ace8: a2 00        	ldx	#$0
 800acea: a9 20        	lda	#$20
 800acec: 20 af 07     	jsr	$7af <__heap_start+0x7fffdb5>
 800acef: a2 00        	ldx	#$0
 800acf1: a9 20        	lda	#$20
 800acf3: 20 af 07     	jsr	$7af <__heap_start+0x7fffdb5>
 800acf6: a2 00        	ldx	#$0
 800acf8: a9 20        	lda	#$20
 800acfa: 20 af 07     	jsr	$7af <__heap_start+0x7fffdb5>
 800acfd: a2 00        	ldx	#$0
 800acff: a9 20        	lda	#$20
 800ad01: 20 af 07     	jsr	$7af <__heap_start+0x7fffdb5>
 800ad04: a2 00        	ldx	#$0
 800ad06: a9 20        	lda	#$20
 800ad08: 20 af 07     	jsr	$7af <__heap_start+0x7fffdb5>
 800ad0b: a2 00        	ldx	#$0
 800ad0d: a9 20        	lda	#$20
 800ad0f: 20 af 07     	jsr	$7af <__heap_start+0x7fffdb5>
 800ad12: a2 00        	ldx	#$0
 800ad14: a9 20        	lda	#$20
 800ad16: 20 af 07     	jsr	$7af <__heap_start+0x7fffdb5>
 800ad19: a2 00        	ldx	#$0
 800ad1b: a9 20        	lda	#$20
 800ad1d: 20 af 07     	jsr	$7af <__heap_start+0x7fffdb5>
 800ad20: a2 00        	ldx	#$0
 800ad22: a9 20        	lda	#$20
 800ad24: 20 af 07     	jsr	$7af <__heap_start+0x7fffdb5>
 800ad27: a2 00        	ldx	#$0
 800ad29: a9 20        	lda	#$20
 800ad2b: 20 af 07     	jsr	$7af <__heap_start+0x7fffdb5>
 800ad2e: a2 00        	ldx	#$0
 800ad30: a9 20        	lda	#$20
 800ad32: 20 af 07     	jsr	$7af <__heap_start+0x7fffdb5>
 800ad35: a2 00        	ldx	#$0
 800ad37: a9 20        	lda	#$20
 800ad39: 20 af 07     	jsr	$7af <__heap_start+0x7fffdb5>
 800ad3c: a2 00        	ldx	#$0
 800ad3e: a9 20        	lda	#$20
 800ad40: 20 af 07     	jsr	$7af <__heap_start+0x7fffdb5>
 800ad43: a2 00        	ldx	#$0
 800ad45: a9 20        	lda	#$20
 800ad47: 20 af 07     	jsr	$7af <__heap_start+0x7fffdb5>
 800ad4a: a2 00        	ldx	#$0
 800ad4c: a9 20        	lda	#$20
 800ad4e: 20 af 07     	jsr	$7af <__heap_start+0x7fffdb5>
 800ad51: a2 00        	ldx	#$0
 800ad53: a9 20        	lda	#$20
 800ad55: 20 af 07     	jsr	$7af <__heap_start+0x7fffdb5>
 800ad58: a2 00        	ldx	#$0
 800ad5a: a9 20        	lda	#$20
 800ad5c: 20 af 07     	jsr	$7af <__heap_start+0x7fffdb5>
 800ad5f: a2 00        	ldx	#$0
 800ad61: a9 20        	lda	#$20
 800ad63: 20 af 07     	jsr	$7af <__heap_start+0x7fffdb5>
 800ad66: a2 00        	ldx	#$0
 800ad68: a9 20        	lda	#$20
 800ad6a: 20 af 07     	jsr	$7af <__heap_start+0x7fffdb5>
 800ad6d: a2 00        	ldx	#$0
 800ad6f: a9 20        	lda	#$20
 800ad71: 20 af 07     	jsr	$7af <__heap_start+0x7fffdb5>
 800ad74: a2 00        	ldx	#$0
 800ad76: a9 20        	lda	#$20
 800ad78: 20 af 07     	jsr	$7af <__heap_start+0x7fffdb5>
 800ad7b: a2 00        	ldx	#$0
 800ad7d: a9 20        	lda	#$20
 800ad7f: 20 af 07     	jsr	$7af <__heap_start+0x7fffdb5>
 800ad82: a2 00        	ldx	#$0
 800ad84: a9 2a        	lda	#$2a
 800ad86: 20 af 07     	jsr	$7af <__heap_start+0x7fffdb5>
 800ad89: a2 00        	ldx	#$0
 800ad8b: a9 0a        	lda	#$a
 800ad8d: 20 af 07     	jsr	$7af <__heap_start+0x7fffdb5>
 800ad90: a2 00        	ldx	#$0
 800ad92: a9 2a        	lda	#$2a
 800ad94: 20 af 07     	jsr	$7af <__heap_start+0x7fffdb5>
 800ad97: a2 00        	ldx	#$0
 800ad99: a9 20        	lda	#$20
 800ad9b: 20 af 07     	jsr	$7af <__heap_start+0x7fffdb5>
 800ad9e: a2 00        	ldx	#$0
 800ada0: a9 20        	lda	#$20
 800ada2: 20 af 07     	jsr	$7af <__heap_start+0x7fffdb5>
 800ada5: a9 45        	lda	#$45
 800ada7: a2 00        	ldx	#$0
 800ada9: 20 af 07     	jsr	$7af <__heap_start+0x7fffdb5>
 800adac: a2 00        	ldx	#$0
 800adae: a9 78        	lda	#$78
 800adb0: 20 af 07     	jsr	$7af <__heap_start+0x7fffdb5>
 800adb3: a2 00        	ldx	#$0
 800adb5: a9 65        	lda	#$65
 800adb7: 20 af 07     	jsr	$7af <__heap_start+0x7fffdb5>
 800adba: a2 00        	ldx	#$0
 800adbc: a9 63        	lda	#$63
 800adbe: 20 af 07     	jsr	$7af <__heap_start+0x7fffdb5>
 800adc1: a2 00        	ldx	#$0
 800adc3: a9 75        	lda	#$75
 800adc5: 20 af 07     	jsr	$7af <__heap_start+0x7fffdb5>
 800adc8: a2 00        	ldx	#$0
 800adca: a9 74        	lda	#$74
 800adcc: 20 af 07     	jsr	$7af <__heap_start+0x7fffdb5>
 800adcf: a2 00        	ldx	#$0
 800add1: a9 69        	lda	#$69
 800add3: 20 af 07     	jsr	$7af <__heap_start+0x7fffdb5>
 800add6: a2 00        	ldx	#$0
 800add8: a9 6f        	lda	#$6f
 800adda: 20 af 07     	jsr	$7af <__heap_start+0x7fffdb5>
 800addd: a2 00        	ldx	#$0
 800addf: a9 6e        	lda	#$6e
 800ade1: 20 af 07     	jsr	$7af <__heap_start+0x7fffdb5>
 800ade4: a2 00        	ldx	#$0
 800ade6: a9 20        	lda	#$20
 800ade8: 20 af 07     	jsr	$7af <__heap_start+0x7fffdb5>
 800adeb: a9 66        	lda	#$66
 800aded: a2 00        	ldx	#$0
 800adef: 20 af 07     	jsr	$7af <__heap_start+0x7fffdb5>
 800adf2: a2 00        	ldx	#$0
 800adf4: a9 69        	lda	#$69
 800adf6: 20 af 07     	jsr	$7af <__heap_start+0x7fffdb5>
 800adf9: a2 00        	ldx	#$0
 800adfb: a9 6e        	lda	#$6e
 800adfd: 20 af 07     	jsr	$7af <__heap_start+0x7fffdb5>
 800ae00: a2 00        	ldx	#$0
 800ae02: a9 69        	lda	#$69
 800ae04: 20 af 07     	jsr	$7af <__heap_start+0x7fffdb5>
 800ae07: a2 00        	ldx	#$0
 800ae09: a9 73        	lda	#$73
 800ae0b: 20 af 07     	jsr	$7af <__heap_start+0x7fffdb5>
 800ae0e: a2 00        	ldx	#$0
 800ae10: a9 68        	lda	#$68
 800ae12: 20 af 07     	jsr	$7af <__heap_start+0x7fffdb5>
 800ae15: a2 00        	ldx	#$0
 800ae17: a9 65        	lda	#$65
 800ae19: 20 af 07     	jsr	$7af <__heap_start+0x7fffdb5>
 800ae1c: a2 00        	ldx	#$0
 800ae1e: a9 64        	lda	#$64
 800ae20: 20 af 07     	jsr	$7af <__heap_start+0x7fffdb5>
 800ae23: a2 00        	ldx	#$0
 800ae25: a9 2e        	lda	#$2e
 800ae27: 20 af 07     	jsr	$7af <__heap_start+0x7fffdb5>
 800ae2a: a2 00        	ldx	#$0
 800ae2c: a9 20        	lda	#$20
 800ae2e: 20 af 07     	jsr	$7af <__heap_start+0x7fffdb5>
 800ae31: a2 00        	ldx	#$0
 800ae33: a9 20        	lda	#$20
 800ae35: 20 af 07     	jsr	$7af <__heap_start+0x7fffdb5>
 800ae38: a2 00        	ldx	#$0
 800ae3a: a9 20        	lda	#$20
 800ae3c: 20 af 07     	jsr	$7af <__heap_start+0x7fffdb5>
 800ae3f: a2 00        	ldx	#$0
 800ae41: a9 20        	lda	#$20
 800ae43: 20 af 07     	jsr	$7af <__heap_start+0x7fffdb5>
 800ae46: a2 00        	ldx	#$0
 800ae48: a9 20        	lda	#$20
 800ae4a: 20 af 07     	jsr	$7af <__heap_start+0x7fffdb5>
 800ae4d: a2 00        	ldx	#$0
 800ae4f: a9 20        	lda	#$20
 800ae51: 20 af 07     	jsr	$7af <__heap_start+0x7fffdb5>
 800ae54: a2 00        	ldx	#$0
 800ae56: a9 20        	lda	#$20
 800ae58: 20 af 07     	jsr	$7af <__heap_start+0x7fffdb5>
 800ae5b: a2 00        	ldx	#$0
 800ae5d: a9 2a        	lda	#$2a
 800ae5f: 20 af 07     	jsr	$7af <__heap_start+0x7fffdb5>
 800ae62: a2 00        	ldx	#$0
 800ae64: a9 0a        	lda	#$a
 800ae66: 20 af 07     	jsr	$7af <__heap_start+0x7fffdb5>
 800ae69: a2 00        	ldx	#$0
 800ae6b: a9 2a        	lda	#$2a
 800ae6d: 20 af 07     	jsr	$7af <__heap_start+0x7fffdb5>
 800ae70: a2 00        	ldx	#$0
 800ae72: a9 20        	lda	#$20
 800ae74: 20 af 07     	jsr	$7af <__heap_start+0x7fffdb5>
 800ae77: a2 00        	ldx	#$0
 800ae79: a9 20        	lda	#$20
 800ae7b: 20 af 07     	jsr	$7af <__heap_start+0x7fffdb5>
 800ae7e: a2 00        	ldx	#$0
 800ae80: a9 50        	lda	#$50
 800ae82: 20 af 07     	jsr	$7af <__heap_start+0x7fffdb5>
 800ae85: a2 00        	ldx	#$0
 800ae87: a9 72        	lda	#$72
 800ae89: 20 af 07     	jsr	$7af <__heap_start+0x7fffdb5>
 800ae8c: a2 00        	ldx	#$0
 800ae8e: a9 65        	lda	#$65
 800ae90: 20 af 07     	jsr	$7af <__heap_start+0x7fffdb5>
 800ae93: a2 00        	ldx	#$0
 800ae95: a9 73        	lda	#$73
 800ae97: 20 af 07     	jsr	$7af <__heap_start+0x7fffdb5>
 800ae9a: a2 00        	ldx	#$0
 800ae9c: a9 73        	lda	#$73
 800ae9e: 20 af 07     	jsr	$7af <__heap_start+0x7fffdb5>
 800aea1: a2 00        	ldx	#$0
 800aea3: a9 20        	lda	#$20
 800aea5: 20 af 07     	jsr	$7af <__heap_start+0x7fffdb5>
 800aea8: a2 00        	ldx	#$0
 800aeaa: a9 61        	lda	#$61
 800aeac: 20 af 07     	jsr	$7af <__heap_start+0x7fffdb5>
 800aeaf: a2 00        	ldx	#$0
 800aeb1: a9 6e        	lda	#$6e
 800aeb3: 20 af 07     	jsr	$7af <__heap_start+0x7fffdb5>
 800aeb6: a2 00        	ldx	#$0
 800aeb8: a9 79        	lda	#$79
 800aeba: 20 af 07     	jsr	$7af <__heap_start+0x7fffdb5>
 800aebd: a2 00        	ldx	#$0
 800aebf: a9 20        	lda	#$20
 800aec1: 20 af 07     	jsr	$7af <__heap_start+0x7fffdb5>
 800aec4: a2 00        	ldx	#$0
 800aec6: a9 6b        	lda	#$6b
 800aec8: 20 af 07     	jsr	$7af <__heap_start+0x7fffdb5>
 800aecb: a2 00        	ldx	#$0
 800aecd: a9 65        	lda	#$65
 800aecf: 20 af 07     	jsr	$7af <__heap_start+0x7fffdb5>
 800aed2: a2 00        	ldx	#$0
 800aed4: a9 79        	lda	#$79
 800aed6: 20 af 07     	jsr	$7af <__heap_start+0x7fffdb5>
 800aed9: a2 00        	ldx	#$0
 800aedb: a9 20        	lda	#$20
 800aedd: 20 af 07     	jsr	$7af <__heap_start+0x7fffdb5>
 800aee0: a2 00        	ldx	#$0
 800aee2: a9 74        	lda	#$74
 800aee4: 20 af 07     	jsr	$7af <__heap_start+0x7fffdb5>
 800aee7: a2 00        	ldx	#$0
 800aee9: a9 6f        	lda	#$6f
 800aeeb: 20 af 07     	jsr	$7af <__heap_start+0x7fffdb5>
 800aeee: a2 00        	ldx	#$0
 800aef0: a9 20        	lda	#$20
 800aef2: 20 af 07     	jsr	$7af <__heap_start+0x7fffdb5>
 800aef5: a2 00        	ldx	#$0
 800aef7: a9 65        	lda	#$65
 800aef9: 20 af 07     	jsr	$7af <__heap_start+0x7fffdb5>
 800aefc: a2 00        	ldx	#$0
 800aefe: a9 78        	lda	#$78
 800af00: 20 af 07     	jsr	$7af <__heap_start+0x7fffdb5>
 800af03: a2 00        	ldx	#$0
 800af05: a9 69        	lda	#$69
 800af07: 20 af 07     	jsr	$7af <__heap_start+0x7fffdb5>
 800af0a: a2 00        	ldx	#$0
 800af0c: a9 74        	lda	#$74
 800af0e: 20 af 07     	jsr	$7af <__heap_start+0x7fffdb5>
 800af11: a2 00        	ldx	#$0
 800af13: a9 2e        	lda	#$2e
 800af15: 20 af 07     	jsr	$7af <__heap_start+0x7fffdb5>
 800af18: a2 00        	ldx	#$0
 800af1a: a9 20        	lda	#$20
 800af1c: 20 af 07     	jsr	$7af <__heap_start+0x7fffdb5>
 800af1f: a2 00        	ldx	#$0
 800af21: a9 20        	lda	#$20
 800af23: 20 af 07     	jsr	$7af <__heap_start+0x7fffdb5>
 800af26: a2 00        	ldx	#$0
 800af28: a9 20        	lda	#$20
 800af2a: 20 af 07     	jsr	$7af <__heap_start+0x7fffdb5>
 800af2d: a2 00        	ldx	#$0
 800af2f: a9 20        	lda	#$20
 800af31: 20 af 07     	jsr	$7af <__heap_start+0x7fffdb5>
 800af34: a2 00        	ldx	#$0
 800af36: a9 2a        	lda	#$2a
 800af38: 20 af 07     	jsr	$7af <__heap_start+0x7fffdb5>
 800af3b: a2 00        	ldx	#$0
 800af3d: a9 0a        	lda	#$a
 800af3f: 20 af 07     	jsr	$7af <__heap_start+0x7fffdb5>
 800af42: a2 00        	ldx	#$0
 800af44: a9 2a        	lda	#$2a
 800af46: 20 af 07     	jsr	$7af <__heap_start+0x7fffdb5>
 800af49: a2 00        	ldx	#$0
 800af4b: a9 20        	lda	#$20
 800af4d: 20 af 07     	jsr	$7af <__heap_start+0x7fffdb5>
 800af50: a2 00        	ldx	#$0
 800af52: a9 20        	lda	#$20
 800af54: 20 af 07     	jsr	$7af <__heap_start+0x7fffdb5>
 800af57: a2 00        	ldx	#$0
 800af59: a9 20        	lda	#$20
 800af5b: 20 af 07     	jsr	$7af <__heap_start+0x7fffdb5>
 800af5e: a2 00        	ldx	#$0
 800af60: a9 20        	lda	#$20
 800af62: 20 af 07     	jsr	$7af <__heap_start+0x7fffdb5>
 800af65: a2 00        	ldx	#$0
 800af67: a9 20        	lda	#$20
 800af69: 20 af 07     	jsr	$7af <__heap_start+0x7fffdb5>
 800af6c: a2 00        	ldx	#$0
 800af6e: a9 20        	lda	#$20
 800af70: 20 af 07     	jsr	$7af <__heap_start+0x7fffdb5>
 800af73: a2 00        	ldx	#$0
 800af75: a9 20        	lda	#$20
 800af77: 20 af 07     	jsr	$7af <__heap_start+0x7fffdb5>
 800af7a: a2 00        	ldx	#$0
 800af7c: a9 20        	lda	#$20
 800af7e: 20 af 07     	jsr	$7af <__heap_start+0x7fffdb5>
 800af81: a2 00        	ldx	#$0
 800af83: a9 20        	lda	#$20
 800af85: 20 af 07     	jsr	$7af <__heap_start+0x7fffdb5>
 800af88: a2 00        	ldx	#$0
 800af8a: a9 20        	lda	#$20
 800af8c: 20 af 07     	jsr	$7af <__heap_start+0x7fffdb5>
 800af8f: a2 00        	ldx	#$0
 800af91: a9 20        	lda	#$20
 800af93: 20 af 07     	jsr	$7af <__heap_start+0x7fffdb5>
 800af96: a2 00        	ldx	#$0
 800af98: a9 20        	lda	#$20
 800af9a: 20 af 07     	jsr	$7af <__heap_start+0x7fffdb5>
 800af9d: a2 00        	ldx	#$0
 800af9f: a9 20        	lda	#$20
 800afa1: 20 af 07     	jsr	$7af <__heap_start+0x7fffdb5>
 800afa4: a2 00        	ldx	#$0
 800afa6: a9 20        	lda	#$20
 800afa8: 20 af 07     	jsr	$7af <__heap_start+0x7fffdb5>
 800afab: a2 00        	ldx	#$0
 800afad: a9 20        	lda	#$20
 800afaf: 20 af 07     	jsr	$7af <__heap_start+0x7fffdb5>
 800afb2: a2 00        	ldx	#$0
 800afb4: a9 20        	lda	#$20
 800afb6: 20 af 07     	jsr	$7af <__heap_start+0x7fffdb5>
 800afb9: a2 00        	ldx	#$0
 800afbb: a9 20        	lda	#$20
 800afbd: 20 af 07     	jsr	$7af <__heap_start+0x7fffdb5>
 800afc0: a2 00        	ldx	#$0
 800afc2: a9 20        	lda	#$20
 800afc4: 20 af 07     	jsr	$7af <__heap_start+0x7fffdb5>
 800afc7: a2 00        	ldx	#$0
 800afc9: a9 20        	lda	#$20
 800afcb: 20 af 07     	jsr	$7af <__heap_start+0x7fffdb5>
 800afce: a2 00        	ldx	#$0
 800afd0: a9 20        	lda	#$20
 800afd2: 20 af 07     	jsr	$7af <__heap_start+0x7fffdb5>
 800afd5: a2 00        	ldx	#$0
 800afd7: a9 20        	lda	#$20
 800afd9: 20 af 07     	jsr	$7af <__heap_start+0x7fffdb5>
 800afdc: a2 00        	ldx	#$0
 800afde: a9 20        	lda	#$20
 800afe0: 20 af 07     	jsr	$7af <__heap_start+0x7fffdb5>
 800afe3: a2 00        	ldx	#$0
 800afe5: a9 20        	lda	#$20
 800afe7: 20 af 07     	jsr	$7af <__heap_start+0x7fffdb5>
 800afea: a2 00        	ldx	#$0
 800afec: a9 20        	lda	#$20
 800afee: 20 af 07     	jsr	$7af <__heap_start+0x7fffdb5>
 800aff1: a2 00        	ldx	#$0
 800aff3: a9 20        	lda	#$20
 800aff5: 20 af 07     	jsr	$7af <__heap_start+0x7fffdb5>
 800aff8: a2 00        	ldx	#$0
 800affa: a9 20        	lda	#$20
 800affc: 20 af 07     	jsr	$7af <__heap_start+0x7fffdb5>
 800afff: a2 00        	ldx	#$0
 800b001: a9 20        	lda	#$20
 800b003: 20 af 07     	jsr	$7af <__heap_start+0x7fffdb5>
 800b006: a2 00        	ldx	#$0
 800b008: a9 20        	lda	#$20
 800b00a: 20 af 07     	jsr	$7af <__heap_start+0x7fffdb5>
 800b00d: a2 00        	ldx	#$0
 800b00f: a9 2a        	lda	#$2a
 800b011: 20 af 07     	jsr	$7af <__heap_start+0x7fffdb5>
 800b014: a2 00        	ldx	#$0
 800b016: a9 0a        	lda	#$a
 800b018: 20 af 07     	jsr	$7af <__heap_start+0x7fffdb5>
 800b01b: a2 00        	ldx	#$0
 800b01d: a9 2a        	lda	#$2a
 800b01f: 20 af 07     	jsr	$7af <__heap_start+0x7fffdb5>
 800b022: a2 00        	ldx	#$0
 800b024: a9 2a        	lda	#$2a
 800b026: 20 af 07     	jsr	$7af <__heap_start+0x7fffdb5>
 800b029: a2 00        	ldx	#$0
 800b02b: a9 2a        	lda	#$2a
 800b02d: 20 af 07     	jsr	$7af <__heap_start+0x7fffdb5>
 800b030: a2 00        	ldx	#$0
 800b032: a9 2a        	lda	#$2a
 800b034: 20 af 07     	jsr	$7af <__heap_start+0x7fffdb5>
 800b037: a2 00        	ldx	#$0
 800b039: a9 2a        	lda	#$2a
 800b03b: 20 af 07     	jsr	$7af <__heap_start+0x7fffdb5>
 800b03e: a2 00        	ldx	#$0
 800b040: a9 2a        	lda	#$2a
 800b042: 20 af 07     	jsr	$7af <__heap_start+0x7fffdb5>
 800b045: a2 00        	ldx	#$0
 800b047: a9 2a        	lda	#$2a
 800b049: 20 af 07     	jsr	$7af <__heap_start+0x7fffdb5>
 800b04c: a2 00        	ldx	#$0
 800b04e: a9 2a        	lda	#$2a
 800b050: 20 af 07     	jsr	$7af <__heap_start+0x7fffdb5>
 800b053: a2 00        	ldx	#$0
 800b055: a9 2a        	lda	#$2a
 800b057: 20 af 07     	jsr	$7af <__heap_start+0x7fffdb5>
 800b05a: a2 00        	ldx	#$0
 800b05c: a9 2a        	lda	#$2a
 800b05e: 20 af 07     	jsr	$7af <__heap_start+0x7fffdb5>
 800b061: a2 00        	ldx	#$0
 800b063: a9 2a        	lda	#$2a
 800b065: 20 af 07     	jsr	$7af <__heap_start+0x7fffdb5>
 800b068: a2 00        	ldx	#$0
 800b06a: a9 2a        	lda	#$2a
 800b06c: 20 af 07     	jsr	$7af <__heap_start+0x7fffdb5>
 800b06f: a2 00        	ldx	#$0
 800b071: a9 2a        	lda	#$2a
 800b073: 20 af 07     	jsr	$7af <__heap_start+0x7fffdb5>
 800b076: a2 00        	ldx	#$0
 800b078: a9 2a        	lda	#$2a
 800b07a: 20 af 07     	jsr	$7af <__heap_start+0x7fffdb5>
 800b07d: a2 00        	ldx	#$0
 800b07f: a9 2a        	lda	#$2a
 800b081: 20 af 07     	jsr	$7af <__heap_start+0x7fffdb5>
 800b084: a2 00        	ldx	#$0
 800b086: a9 2a        	lda	#$2a
 800b088: 20 af 07     	jsr	$7af <__heap_start+0x7fffdb5>
 800b08b: a2 00        	ldx	#$0
 800b08d: a9 2a        	lda	#$2a
 800b08f: 20 af 07     	jsr	$7af <__heap_start+0x7fffdb5>
 800b092: a2 00        	ldx	#$0
 800b094: a9 2a        	lda	#$2a
 800b096: 20 af 07     	jsr	$7af <__heap_start+0x7fffdb5>
 800b099: a2 00        	ldx	#$0
 800b09b: a9 2a        	lda	#$2a
 800b09d: 20 af 07     	jsr	$7af <__heap_start+0x7fffdb5>
 800b0a0: a2 00        	ldx	#$0
 800b0a2: a9 2a        	lda	#$2a
 800b0a4: 20 af 07     	jsr	$7af <__heap_start+0x7fffdb5>
 800b0a7: a2 00        	ldx	#$0
 800b0a9: a9 2a        	lda	#$2a
 800b0ab: 20 af 07     	jsr	$7af <__heap_start+0x7fffdb5>
 800b0ae: a2 00        	ldx	#$0
 800b0b0: a9 2a        	lda	#$2a
 800b0b2: 20 af 07     	jsr	$7af <__heap_start+0x7fffdb5>
 800b0b5: a2 00        	ldx	#$0
 800b0b7: a9 2a        	lda	#$2a
 800b0b9: 20 af 07     	jsr	$7af <__heap_start+0x7fffdb5>
 800b0bc: a2 00        	ldx	#$0
 800b0be: a9 2a        	lda	#$2a
 800b0c0: 20 af 07     	jsr	$7af <__heap_start+0x7fffdb5>
 800b0c3: a2 00        	ldx	#$0
 800b0c5: a9 2a        	lda	#$2a
 800b0c7: 20 af 07     	jsr	$7af <__heap_start+0x7fffdb5>
 800b0ca: a2 00        	ldx	#$0
 800b0cc: a9 2a        	lda	#$2a
 800b0ce: 20 af 07     	jsr	$7af <__heap_start+0x7fffdb5>
 800b0d1: a2 00        	ldx	#$0
 800b0d3: a9 2a        	lda	#$2a
 800b0d5: 20 af 07     	jsr	$7af <__heap_start+0x7fffdb5>
 800b0d8: a2 00        	ldx	#$0
 800b0da: a9 2a        	lda	#$2a
 800b0dc: 20 af 07     	jsr	$7af <__heap_start+0x7fffdb5>
 800b0df: a2 00        	ldx	#$0
 800b0e1: a9 2a        	lda	#$2a
 800b0e3: 20 af 07     	jsr	$7af <__heap_start+0x7fffdb5>
 800b0e6: a2 00        	ldx	#$0
 800b0e8: a9 2a        	lda	#$2a
 800b0ea: 20 af 07     	jsr	$7af <__heap_start+0x7fffdb5>
 800b0ed: a2 00        	ldx	#$0
 800b0ef: a9 0a        	lda	#$a
 800b0f1: 4c af 07     	jmp	$7af <__heap_start+0x7fffdb5>
