
FusionDrive.elf:	file format elf32-mos

SYMBOL TABLE:
00000000 l    df *ABS*	00000000 zero-bss.c
00000000 l    df *ABS*	00000000 zero-zp-bss.c
00000000 l    df *ABS*	00000000 copy-zp-data.c
00000000 l    df *ABS*	00000000 ld-temp.o
000004ba l     F .text	00000393 f256Init
00000062 l     O .zp.bss	00000007 kernelEventData
00000030 l     O .zp.data	00000030 textColors
00002fc7 l     O .bss	00000001 _col
00002fc8 l     O .bss	00000001 _row
00000069 l     O .zp.bss	00000004 _BITMAP_BASE.0
00002fc9 l     O .bss	00000040 _spriteCtl
00003009 l     O .bss	00000001 kernelError
00000853 l     F .text	00000e47 f256main
00000079 l     O .zp.bss	00000001 carTimer.1
0000007a l     O .zp.bss	00000001 laneTimer.1
0000007b l     O .zp.bss	00000001 laneTimer.2
00000073 l     O .zp.bss	00000002 theBigList.1
00000075 l     O .zp.bss	00000002 theBigList.2
00002d4c l     F .text	00000074 strstr
0000006d l     O .zp.bss	00000002 trackcount
00002a53 l     F .text	000002ad malloc
00000077 l     O .zp.bss	00000002 parsers
0000169a l     F .text	0000113a parse
000027d4 l     F .text	00000119 adjustOffsets
000028ed l     F .text	00000161 updateCarPos
0000006f l     O .zp.bss	00000004 tick
00002dc0 l     F .text	00000070 __mulsi3
00002e30 l     F .text	0000016f __udivsi3
00000060 l     O .zp.data	00000002 carX
0000007c l     O .zp.bss	00000001 _ZN12_GLOBAL__N_111initializedE
0000034a l     F .text	00000133 _ZN12_GLOBAL__N_19FreeChunk6insertEPvj
0000007f l     O .zp.bss	00000002 _ZN12_GLOBAL__N_19free_listE
0000007d l     O .zp.bss	00000002 _ZN12_GLOBAL__N_19free_sizeE
0000084d g     F .text	00000006 main
00045187 g       .midifile	00000000 midifile_end
00010800 g       .carL	00000000 carL_end
00020000 g       .backbmp	00000000 backbmp_start
00038000 g       .midifile	00000000 midifile_start
00010400 g       .palback	00000000 palback_end
00010000 g       .palback	00000000 palback_start
00010400 g       .carL	00000000 carL_start
00010c00 g       .carR	00000000 carR_end
00010800 g       .carR	00000000 carR_start
00032c00 g       .backbmp	00000000 backbmp_end
00000346 g       .text	00000000 __after_main
00000332 g       .text	00000000 __do_init_stack
00000340 g       .text	00000000 __do_copy_zp_data
000004a3 g     F .text	00000017 __copy_zp_data
0000033a g       .text	00000000 __do_zero_bss
0000047d g     F .text	00000013 __zero_bss
0000033d g       .text	00000000 __do_zero_zp_bss
00000490 g     F .text	00000013 __zero_zp_bss
00002a4e g     F .text	00000005 exit
00000349 g       .text	00000000 _fini
00002f9f g       .rodata	00000000 __set_v
00002d2c  w    F .text	00000020 __memset
00001000  w      *ABS*	00000000 __heap_default_limit
0000300a g       .noinit	00000000 __heap_start
00002d00  w    F .text	0000002c memcpy
00000010 g       *ABS*	00000000 __rc0
00000012 g       *ABS*	00000000 __rc2
00000014 g       *ABS*	00000000 __rc4
00000016 g       *ABS*	00000000 __rc6
00000018 g       *ABS*	00000000 __rc8
0000001a g       *ABS*	00000000 __rc10
0000001c g       *ABS*	00000000 __rc12
0000001e g       *ABS*	00000000 __rc14
00000020 g       *ABS*	00000000 __rc16
00000022 g       *ABS*	00000000 __rc18
00000024 g       *ABS*	00000000 __rc20
00000026 g       *ABS*	00000000 __rc22
00000028 g       *ABS*	00000000 __rc24
0000002a g       *ABS*	00000000 __rc26
0000002c g       *ABS*	00000000 __rc28
0000002e g       *ABS*	00000000 __rc30
0000002f g       *ABS*	00000000 __rc31
00000300 g       *ABS*	00000000 __f256_start
0000a000 g       *ABS*	00000000 __stack
0000a000 g       *ABS*	00000000 __SLOT_ADDR
0800a000 g       *ABS*	00000000 __block8_lma
00002000 g       *ABS*	00000000 __BLOCK_SIZE
0900a000 g       *ABS*	00000000 __block9_lma
0a00a000 g       *ABS*	00000000 __block10_lma
0b00a000 g       *ABS*	00000000 __block11_lma
0c00a000 g       *ABS*	00000000 __block12_lma
0d00a000 g       *ABS*	00000000 __block13_lma
0e00a000 g       *ABS*	00000000 __block14_lma
0f00a000 g       *ABS*	00000000 __block15_lma
1000a000 g       *ABS*	00000000 __block16_lma
1100a000 g       *ABS*	00000000 __block17_lma
1200a000 g       *ABS*	00000000 __block18_lma
1300a000 g       *ABS*	00000000 __block19_lma
1400a000 g       *ABS*	00000000 __block20_lma
1500a000 g       *ABS*	00000000 __block21_lma
1600a000 g       *ABS*	00000000 __block22_lma
1700a000 g       *ABS*	00000000 __block23_lma
00010000 g       *ABS*	00000000 __palback_lma
00000400 g       *ABS*	00000000 __palback_size
00010400 g       *ABS*	00000000 __carL_lma
00000400 g       *ABS*	00000000 __carL_size
00010800 g       *ABS*	00000000 __carR_lma
00000400 g       *ABS*	00000000 __carR_size
00020000 g       *ABS*	00000000 __backbmp_lma
00012c00 g       *ABS*	00000000 __backbmp_size
00038000 g       *ABS*	00000000 __midifile_lma
0000d187 g       *ABS*	00000000 __midifile_size
00002fc7 g       .bss	00000000 __bss_start
00010400 g       .palback	00000000 end_palback
00010800 g       .carL	00000000 end_carL
00010c00 g       .carR	00000000 end_carR
00032c00 g       .backbmp	00000000 end_backbmp
00045187 g       .midifile	00000000 end_midifile
00000332 g       .text	00000000 _start
0000002d g       *ABS*	00000000 __rc29
0000002b g       *ABS*	00000000 __rc27
00000029 g       *ABS*	00000000 __rc25
00000027 g       *ABS*	00000000 __rc23
00000025 g       *ABS*	00000000 __rc21
00000023 g       *ABS*	00000000 __rc19
00000021 g       *ABS*	00000000 __rc17
0000001f g       *ABS*	00000000 __rc15
0000001d g       *ABS*	00000000 __rc13
0000001b g       *ABS*	00000000 __rc11
00000019 g       *ABS*	00000000 __rc9
00000017 g       *ABS*	00000000 __rc7
00000015 g       *ABS*	00000000 __rc5
00000013 g       *ABS*	00000000 __rc3
00000011 g       *ABS*	00000000 __rc1
00000030 g       .zp.data	00000000 __zp_data_start
00000300 g       *ABS*	00000000 __zp_data_load_start
00000032 g       *ABS*	00000000 __zp_data_size
00000062 g       .zp.bss	00000000 __zp_bss_start
0000001f g       *ABS*	00000000 __zp_bss_size
00000332 g       .text	00000000 _init
00002f9f g       .text	00000000 __init_array_start
00002f9f g       .text	00000000 __init_array_end
00002f9f g       .text	00000000 __fini_array_start
00002f9f g       .text	00000000 __fini_array_end
00002fc7 g       .data	00000000 __data_start
00002fc7 g       .data	00000000 __data_end
00002fc7 g       *ABS*	00000000 __data_load_start
00000000 g       *ABS*	00000000 __data_size
0000300a g       .bss	00000000 __bss_end
00000043 g       *ABS*	00000000 __bss_size
0000300a g       .noinit	00000000 end_block8
0000300a g       .noinit	00000000 end_block9
0000300a g       .noinit	00000000 end_block10
0000300a g       .noinit	00000000 end_block11
0000300a g       .noinit	00000000 end_block12
0000300a g       .noinit	00000000 end_block13
0000300a g       .noinit	00000000 end_block14
0000300a g       .noinit	00000000 end_block15
0000300a g       .noinit	00000000 end_block16
0000300a g       .noinit	00000000 end_block17
0000300a g       .noinit	00000000 end_block18
0000300a g       .noinit	00000000 end_block19
0000300a g       .noinit	00000000 end_block20
0000300a g       .noinit	00000000 end_block21
0000300a g       .noinit	00000000 end_block22
0000300a g       .noinit	00000000 end_block23

Disassembly of section .text:

00000332 <_start>:
     332: a9 00        	lda	#$0
     334: 85 10        	sta	$10                     ; 0x2010 <parse+0x976>
     336: a9 a0        	lda	#$a0
     338: 85 11        	sta	$11                     ; 0x2011 <parse+0x977>

0000033a <__do_zero_bss>:
     33a: 20 7d 04     	jsr	$47d <__zero_bss>

0000033d <__do_zero_zp_bss>:
     33d: 20 90 04     	jsr	$490 <__zero_zp_bss>

00000340 <__do_copy_zp_data>:
     340: 20 a3 04     	jsr	$4a3 <__copy_zp_data>
     343: 20 4d 08     	jsr	$84d <main>

00000346 <__after_main>:
     346: 4c 4e 2a     	jmp	$2a4e <exit>

00000349 <_fini>:
     349: 60           	rts

0000034a <_ZN12_GLOBAL__N_19FreeChunk6insertEPvj>:
     34a: 85 16        	sta	$16                     ; 0x2016 <parse+0x97c>
     34c: 29 fe        	and	#$fe
     34e: 85 14        	sta	$14                     ; 0x2014 <parse+0x97a>
     350: a0 01        	ldy	#$1
     352: 98           	tya
     353: 32 12        	and	($12)                   ; 0x2012 <parse+0x978>
     355: 05 14        	ora	$14                     ; 0x2014 <parse+0x97a>
     357: 92 12        	sta	($12)                   ; 0x2012 <parse+0x978>
     359: a5 12        	lda	$12                     ; 0x2012 <parse+0x978>
     35b: 18           	clc
     35c: 65 14        	adc	$14                     ; 0x2014 <parse+0x97a>
     35e: 85 15        	sta	$15                     ; 0x2015 <parse+0x97b>
     360: 8a           	txa
     361: 65 13        	adc	$13                     ; 0x2013 <parse+0x979>
     363: 85 14        	sta	$14                     ; 0x2014 <parse+0x97a>
     365: 18           	clc
     366: a5 15        	lda	$15                     ; 0x2015 <parse+0x97b>
     368: 69 fe        	adc	#$fe
     36a: 85 17        	sta	$17                     ; 0x2017 <parse+0x97d>
     36c: a5 14        	lda	$14                     ; 0x2014 <parse+0x97a>
     36e: 69 ff        	adc	#$ff
     370: 85 15        	sta	$15                     ; 0x2015 <parse+0x97b>
     372: a5 17        	lda	$17                     ; 0x2017 <parse+0x97d>
     374: 85 14        	sta	$14                     ; 0x2014 <parse+0x97a>
     376: 8a           	txa
     377: 91 12        	sta	($12),y                 ; 0x2012 <parse+0x978>
     379: a5 16        	lda	$16                     ; 0x2016 <parse+0x97c>
     37b: 92 14        	sta	($14)                   ; 0x2014 <parse+0x97a>
     37d: 8a           	txa
     37e: 91 14        	sta	($14),y                 ; 0x2014 <parse+0x97a>
     380: b1 12        	lda	($12),y                 ; 0x2012 <parse+0x978>
     382: 85 14        	sta	$14                     ; 0x2014 <parse+0x97a>
     384: a9 fe        	lda	#$fe
     386: 32 12        	and	($12)                   ; 0x2012 <parse+0x978>
     388: 18           	clc
     389: 65 7d        	adc	$7d                     ; 0x207d <parse+0x9e3>
     38b: aa           	tax
     38c: a5 14        	lda	$14                     ; 0x2014 <parse+0x97a>
     38e: 65 7e        	adc	$7e                     ; 0x207e <parse+0x9e4>
     390: a8           	tay
     391: 18           	clc
     392: 8a           	txa
     393: 69 fe        	adc	#$fe
     395: aa           	tax
     396: 98           	tya
     397: 69 ff        	adc	#$ff
     399: 86 7d        	stx	$7d                     ; 0x207d <parse+0x9e3>
     39b: 85 7e        	sta	$7e                     ; 0x207e <parse+0x9e4>
     39d: a6 7f        	ldx	$7f                     ; 0x207f <parse+0x9e5>
     39f: 86 16        	stx	$16                     ; 0x2016 <parse+0x97c>
     3a1: a4 80        	ldy	$80                     ; 0x2080 <parse+0x9e6>
     3a3: a2 00        	ldx	#$0
     3a5: 86 14        	stx	$14                     ; 0x2014 <parse+0x97a>
     3a7: a2 00        	ldx	#$0
     3a9: 86 15        	stx	$15                     ; 0x2015 <parse+0x97b>
     3ab: 84 18        	sty	$18                     ; 0x2018 <parse+0x97e>
     3ad: c4 15        	cpy	$15                     ; 0x2015 <parse+0x97b>
     3af: d0 31        	bne	$3e2 <_ZN12_GLOBAL__N_19FreeChunk6insertEPvj+0x98>
     3b1: a6 16        	ldx	$16                     ; 0x2016 <parse+0x97c>
     3b3: e4 14        	cpx	$14                     ; 0x2014 <parse+0x97a>
     3b5: d0 2b        	bne	$3e2 <_ZN12_GLOBAL__N_19FreeChunk6insertEPvj+0x98>
     3b7: a0 02        	ldy	#$2
     3b9: 18           	clc
     3ba: a5 12        	lda	$12                     ; 0x2012 <parse+0x978>
     3bc: 69 02        	adc	#$2
     3be: 85 14        	sta	$14                     ; 0x2014 <parse+0x97a>
     3c0: a5 12        	lda	$12                     ; 0x2012 <parse+0x978>
     3c2: 91 12        	sta	($12),y                 ; 0x2012 <parse+0x978>
     3c4: a5 13        	lda	$13                     ; 0x2013 <parse+0x979>
     3c6: 69 00        	adc	#$0
     3c8: 85 15        	sta	$15                     ; 0x2015 <parse+0x97b>
     3ca: 88           	dey
     3cb: a5 13        	lda	$13                     ; 0x2013 <parse+0x979>
     3cd: 91 14        	sta	($14),y                 ; 0x2014 <parse+0x97a>
     3cf: a2 7f        	ldx	#$7f
     3d1: 86 16        	stx	$16                     ; 0x2016 <parse+0x97c>
     3d3: a2 00        	ldx	#$0
     3d5: 86 17        	stx	$17                     ; 0x2017 <parse+0x97d>
     3d7: a6 12        	ldx	$12                     ; 0x2012 <parse+0x978>
     3d9: 86 14        	stx	$14                     ; 0x2014 <parse+0x97a>
     3db: a6 13        	ldx	$13                     ; 0x2013 <parse+0x979>
     3dd: 86 15        	stx	$15                     ; 0x2015 <parse+0x97b>
     3df: 4c 5b 04     	jmp	$45b <_ZN12_GLOBAL__N_19FreeChunk6insertEPvj+0x111>
     3e2: a5 12        	lda	$12                     ; 0x2012 <parse+0x978>
     3e4: 18           	clc
     3e5: 69 02        	adc	#$2
     3e7: 85 14        	sta	$14                     ; 0x2014 <parse+0x97a>
     3e9: a4 13        	ldy	$13                     ; 0x2013 <parse+0x979>
     3eb: a6 16        	ldx	$16                     ; 0x2016 <parse+0x97c>
     3ed: 86 19        	stx	$19                     ; 0x2019 <parse+0x97f>
     3ef: a5 13        	lda	$13                     ; 0x2013 <parse+0x979>
     3f1: 84 1a        	sty	$1a                     ; 0x201a <parse+0x980>
     3f3: 69 00        	adc	#$0
     3f5: a6 14        	ldx	$14                     ; 0x2014 <parse+0x97a>
     3f7: 86 16        	stx	$16                     ; 0x2016 <parse+0x97c>
     3f9: 85 17        	sta	$17                     ; 0x2017 <parse+0x97d>
     3fb: a6 19        	ldx	$19                     ; 0x2019 <parse+0x97f>
     3fd: 86 14        	stx	$14                     ; 0x2014 <parse+0x97a>
     3ff: a4 18        	ldy	$18                     ; 0x2018 <parse+0x97e>
     401: 84 15        	sty	$15                     ; 0x2015 <parse+0x97b>
     403: 84 1b        	sty	$1b                     ; 0x201b <parse+0x981>
     405: a0 02        	ldy	#$2
     407: a5 19        	lda	$19                     ; 0x2019 <parse+0x97f>
     409: 91 12        	sta	($12),y                 ; 0x2012 <parse+0x978>
     40b: 88           	dey
     40c: a5 1b        	lda	$1b                     ; 0x201b <parse+0x981>
     40e: 91 16        	sta	($16),y                 ; 0x2016 <parse+0x97c>
     410: 18           	clc
     411: a5 19        	lda	$19                     ; 0x2019 <parse+0x97f>
     413: 69 04        	adc	#$4
     415: 85 18        	sta	$18                     ; 0x2018 <parse+0x97e>
     417: a5 1b        	lda	$1b                     ; 0x201b <parse+0x981>
     419: 69 00        	adc	#$0
     41b: 85 19        	sta	$19                     ; 0x2019 <parse+0x97f>
     41d: a0 04        	ldy	#$4
     41f: b1 14        	lda	($14),y                 ; 0x2014 <parse+0x97a>
     421: 85 14        	sta	$14                     ; 0x2014 <parse+0x97a>
     423: 85 1b        	sta	$1b                     ; 0x201b <parse+0x981>
     425: a0 01        	ldy	#$1
     427: b1 18        	lda	($18),y                 ; 0x2018 <parse+0x97e>
     429: 85 15        	sta	$15                     ; 0x2015 <parse+0x97b>
     42b: a8           	tay
     42c: 18           	clc
     42d: a5 1b        	lda	$1b                     ; 0x201b <parse+0x981>
     42f: 69 02        	adc	#$2
     431: 85 18        	sta	$18                     ; 0x2018 <parse+0x97e>
     433: 98           	tya
     434: 69 00        	adc	#$0
     436: 85 19        	sta	$19                     ; 0x2019 <parse+0x97f>
     438: a5 12        	lda	$12                     ; 0x2012 <parse+0x978>
     43a: a0 02        	ldy	#$2
     43c: 91 14        	sta	($14),y                 ; 0x2014 <parse+0x97a>
     43e: a5 1a        	lda	$1a                     ; 0x201a <parse+0x980>
     440: 88           	dey
     441: 91 18        	sta	($18),y                 ; 0x2018 <parse+0x97e>
     443: c8           	iny
     444: b1 12        	lda	($12),y                 ; 0x2012 <parse+0x978>
     446: 85 18        	sta	$18                     ; 0x2018 <parse+0x97e>
     448: 88           	dey
     449: b1 16        	lda	($16),y                 ; 0x2016 <parse+0x97c>
     44b: 85 16        	sta	$16                     ; 0x2016 <parse+0x97c>
     44d: 18           	clc
     44e: a5 18        	lda	$18                     ; 0x2018 <parse+0x97e>
     450: 69 04        	adc	#$4
     452: aa           	tax
     453: a5 16        	lda	$16                     ; 0x2016 <parse+0x97c>
     455: 69 00        	adc	#$0
     457: 86 16        	stx	$16                     ; 0x2016 <parse+0x97c>
     459: 85 17        	sta	$17                     ; 0x2017 <parse+0x97d>
     45b: 18           	clc
     45c: a5 12        	lda	$12                     ; 0x2012 <parse+0x978>
     45e: 69 04        	adc	#$4
     460: 85 18        	sta	$18                     ; 0x2018 <parse+0x97e>
     462: a5 13        	lda	$13                     ; 0x2013 <parse+0x979>
     464: 69 00        	adc	#$0
     466: a0 04        	ldy	#$4
     468: 85 19        	sta	$19                     ; 0x2019 <parse+0x97f>
     46a: a5 14        	lda	$14                     ; 0x2014 <parse+0x97a>
     46c: 91 12        	sta	($12),y                 ; 0x2012 <parse+0x978>
     46e: a5 15        	lda	$15                     ; 0x2015 <parse+0x97b>
     470: a0 01        	ldy	#$1
     472: 91 18        	sta	($18),y                 ; 0x2018 <parse+0x97e>
     474: a5 13        	lda	$13                     ; 0x2013 <parse+0x979>
     476: 91 16        	sta	($16),y                 ; 0x2016 <parse+0x97c>
     478: a5 12        	lda	$12                     ; 0x2012 <parse+0x978>
     47a: 92 16        	sta	($16)                   ; 0x2016 <parse+0x97c>
     47c: 60           	rts

0000047d <__zero_bss>:
     47d: a2 43        	ldx	#$43
     47f: a0 00        	ldy	#$0
     481: a9 c7        	lda	#$c7
     483: 85 12        	sta	$12                     ; 0x2012 <parse+0x978>
     485: a9 2f        	lda	#$2f
     487: 85 13        	sta	$13                     ; 0x2013 <parse+0x979>
     489: a9 00        	lda	#$0
     48b: 84 14        	sty	$14                     ; 0x2014 <parse+0x97a>
     48d: 4c 2c 2d     	jmp	$2d2c <__memset>

00000490 <__zero_zp_bss>:
     490: a2 1f        	ldx	#$1f
     492: a0 00        	ldy	#$0
     494: a9 62        	lda	#$62
     496: 85 12        	sta	$12                     ; 0x2012 <parse+0x978>
     498: a9 00        	lda	#$0
     49a: 85 13        	sta	$13                     ; 0x2013 <parse+0x979>
     49c: a9 00        	lda	#$0
     49e: 84 14        	sty	$14                     ; 0x2014 <parse+0x97a>
     4a0: 4c 2c 2d     	jmp	$2d2c <__memset>

000004a3 <__copy_zp_data>:
     4a3: a9 32        	lda	#$32
     4a5: a2 00        	ldx	#$0
     4a7: a0 30        	ldy	#$30
     4a9: 84 12        	sty	$12                     ; 0x2012 <parse+0x978>
     4ab: a0 00        	ldy	#$0
     4ad: 84 13        	sty	$13                     ; 0x2013 <parse+0x979>
     4af: a0 00        	ldy	#$0
     4b1: 84 14        	sty	$14                     ; 0x2014 <parse+0x97a>
     4b3: a0 03        	ldy	#$3
     4b5: 84 15        	sty	$15                     ; 0x2015 <parse+0x97b>
     4b7: 4c 00 2d     	jmp	$2d00 <memcpy>

000004ba <f256Init>:
     4ba: 64 14        	stz	$14                     ; 0x2014 <parse+0x97a>
     4bc: a2 00        	ldx	#$0
     4be: 86 12        	stx	$12                     ; 0x2012 <parse+0x978>
     4c0: a2 c0        	ldx	#$c0
     4c2: 86 13        	stx	$13                     ; 0x2013 <parse+0x979>
     4c4: 64 01        	stz	$1                      ; 0x2001 <parse+0x967>
     4c6: a2 3f        	ldx	#$3f
     4c8: 8e 00 d0     	stx	$d000                   ; 0xd000 <end_block9+0x9ff6>
     4cb: a2 b3        	ldx	#$b3
     4cd: 86 00        	stx	$0                      ; 0x2000 <parse+0x966>
     4cf: 64 08        	stz	$8                      ; 0x2008 <parse+0x96e>
     4d1: a2 01        	ldx	#$1
     4d3: 86 09        	stx	$9                      ; 0x2009 <parse+0x96f>
     4d5: e8           	inx
     4d6: 86 0a        	stx	$a                      ; 0x200a <parse+0x970>
     4d8: e8           	inx
     4d9: 86 0b        	stx	$b                      ; 0x200b <parse+0x971>
     4db: e8           	inx
     4dc: 86 0c        	stx	$c                      ; 0x200c <parse+0x972>
     4de: e8           	inx
     4df: 86 0d        	stx	$d                      ; 0x200d <parse+0x973>
     4e1: a2 62        	ldx	#$62
     4e3: a0 00        	ldy	#$0
     4e5: 86 f0        	stx	$f0                     ; 0x20f0 <parse+0xa56>
     4e7: 84 f1        	sty	$f1                     ; 0x20f1 <parse+0xa57>
     4e9: a2 00        	ldx	#$0
     4eb: 86 18        	stx	$18                     ; 0x2018 <parse+0x97e>
     4ed: ca           	dex
     4ee: 86 19        	stx	$19                     ; 0x2019 <parse+0x97f>
     4f0: 8a           	txa
     4f1: 0a           	asl
     4f2: 0a           	asl
     4f3: 18           	clc
     4f4: 69 d4        	adc	#$d4
     4f6: 85 1a        	sta	$1a                     ; 0x201a <parse+0x980>
     4f8: a0 00        	ldy	#$0
     4fa: 64 17        	stz	$17                     ; 0x2017 <parse+0x97d>
     4fc: 64 16        	stz	$16                     ; 0x2016 <parse+0x97c>
     4fe: a6 19        	ldx	$19                     ; 0x2019 <parse+0x97f>
     500: e0 03        	cpx	#$3
     502: a6 01        	ldx	$1                      ; 0x2001 <parse+0x967>
     504: 86 1c        	stx	$1c                     ; 0x201c <parse+0x982>
     506: a2 d0        	ldx	#$d0
     508: 84 1b        	sty	$1b                     ; 0x201b <parse+0x981>
     50a: b0 02        	bcs	$50e <f256Init+0x54>
     50c: a6 1a        	ldx	$1a                     ; 0x201a <parse+0x980>
     50e: 86 15        	stx	$15                     ; 0x2015 <parse+0x97b>
     510: a5 17        	lda	$17                     ; 0x2017 <parse+0x97d>
     512: 18           	clc
     513: 65 14        	adc	$14                     ; 0x2014 <parse+0x97a>
     515: a8           	tay
     516: a6 17        	ldx	$17                     ; 0x2017 <parse+0x97d>
     518: a5 16        	lda	$16                     ; 0x2016 <parse+0x97c>
     51a: 85 1d        	sta	$1d                     ; 0x201d <parse+0x983>
     51c: a5 16        	lda	$16                     ; 0x2016 <parse+0x97c>
     51e: 65 15        	adc	$15                     ; 0x2015 <parse+0x97b>
     520: 84 16        	sty	$16                     ; 0x2016 <parse+0x97c>
     522: a0 01        	ldy	#$1
     524: 84 01        	sty	$1                      ; 0x2001 <parse+0x967>
     526: 85 17        	sta	$17                     ; 0x2017 <parse+0x97d>
     528: a5 1b        	lda	$1b                     ; 0x201b <parse+0x981>
     52a: 92 16        	sta	($16)                   ; 0x2016 <parse+0x97c>
     52c: 91 16        	sta	($16),y                 ; 0x2016 <parse+0x97c>
     52e: c8           	iny
     52f: 91 16        	sta	($16),y                 ; 0x2016 <parse+0x97c>
     531: 85 15        	sta	$15                     ; 0x2015 <parse+0x97b>
     533: c8           	iny
     534: a9 ff        	lda	#$ff
     536: 91 16        	sta	($16),y                 ; 0x2016 <parse+0x97c>
     538: 8a           	txa
     539: a6 1c        	ldx	$1c                     ; 0x201c <parse+0x982>
     53b: 86 01        	stx	$1                      ; 0x2001 <parse+0x967>
     53d: 18           	clc
     53e: 69 04        	adc	#$4
     540: 85 17        	sta	$17                     ; 0x2017 <parse+0x97d>
     542: a5 1d        	lda	$1d                     ; 0x201d <parse+0x983>
     544: 69 00        	adc	#$0
     546: e6 15        	inc	$15                     ; 0x2015 <parse+0x97b>
     548: a4 15        	ldy	$15                     ; 0x2015 <parse+0x97b>
     54a: 85 16        	sta	$16                     ; 0x2016 <parse+0x97c>
     54c: c9 04        	cmp	#$4
     54e: f0 03        	beq	$553 <f256Init+0x99>
     550: 4c fe 04     	jmp	$4fe <f256Init+0x44>
     553: a5 17        	lda	$17                     ; 0x2017 <parse+0x97d>
     555: f0 03        	beq	$55a <f256Init+0xa0>
     557: 4c fe 04     	jmp	$4fe <f256Init+0x44>
     55a: a6 18        	ldx	$18                     ; 0x2018 <parse+0x97e>
     55c: e8           	inx
     55d: e0 04        	cpx	#$4
     55f: f0 03        	beq	$564 <f256Init+0xaa>
     561: 4c eb 04     	jmp	$4eb <f256Init+0x31>
     564: ad 02 d0     	lda	$d002                   ; 0xd002 <end_block9+0x9ff8>
     567: 29 f0        	and	#$f0
     569: 8d 02 d0     	sta	$d002                   ; 0xd002 <end_block9+0x9ff8>
     56c: ad 02 d0     	lda	$d002                   ; 0xd002 <end_block9+0x9ff8>
     56f: 29 0f        	and	#$f
     571: 09 10        	ora	#$10
     573: 8d 02 d0     	sta	$d002                   ; 0xd002 <end_block9+0x9ff8>
     576: a2 02        	ldx	#$2
     578: 8e 03 d0     	stx	$d003                   ; 0xd003 <end_block9+0x9ff9>
     57b: ad 01 d0     	lda	$d001                   ; 0xd001 <end_block9+0x9ff7>
     57e: 29 f9        	and	#$f9
     580: 09 04        	ora	#$4
     582: 8d 01 d0     	sta	$d001                   ; 0xd001 <end_block9+0x9ff7>
     585: 64 14        	stz	$14                     ; 0x2014 <parse+0x97a>
     587: 9c 10 d0     	stz	$d010                   ; 0xd010 <end_block9+0xa006>
     58a: a2 00        	ldx	#$0
     58c: 64 15        	stz	$15                     ; 0x2015 <parse+0x97b>
     58e: 86 18        	stx	$18                     ; 0x2018 <parse+0x97e>
     590: a4 18        	ldy	$18                     ; 0x2018 <parse+0x97e>
     592: b6 30        	ldx	$30,y                   ; 0x2030 <parse+0x996>
     594: 86 19        	stx	$19                     ; 0x2019 <parse+0x97f>
     596: b6 31        	ldx	$31,y                   ; 0x2031 <parse+0x997>
     598: 86 1a        	stx	$1a                     ; 0x201a <parse+0x980>
     59a: b6 32        	ldx	$32,y                   ; 0x2032 <parse+0x998>
     59c: 86 1b        	stx	$1b                     ; 0x201b <parse+0x981>
     59e: a6 15        	ldx	$15                     ; 0x2015 <parse+0x97b>
     5a0: 8e 00 de     	stx	$de00                   ; 0xde00 <end_block9+0xadf6>
     5a3: 86 17        	stx	$17                     ; 0x2017 <parse+0x97d>
     5a5: 9c 01 de     	stz	$de01                   ; 0xde01 <end_block9+0xadf7>
     5a8: a2 04        	ldx	#$4
     5aa: 8e 02 de     	stx	$de02                   ; 0xde02 <end_block9+0xadf8>
     5ad: 9c 03 de     	stz	$de03                   ; 0xde03 <end_block9+0xadf9>
     5b0: ad 10 de     	lda	$de10                   ; 0xde10 <end_block9+0xae06>
     5b3: ac 11 de     	ldy	$de11                   ; 0xde11 <end_block9+0xae07>
     5b6: 84 15        	sty	$15                     ; 0x2015 <parse+0x97b>
     5b8: ac 12 de     	ldy	$de12                   ; 0xde12 <end_block9+0xae08>
     5bb: ac 13 de     	ldy	$de13                   ; 0xde13 <end_block9+0xae09>
     5be: 18           	clc
     5bf: 65 14        	adc	$14                     ; 0x2014 <parse+0x97a>
     5c1: 85 16        	sta	$16                     ; 0x2016 <parse+0x97c>
     5c3: a6 17        	ldx	$17                     ; 0x2017 <parse+0x97d>
     5c5: a9 d8        	lda	#$d8
     5c7: 65 15        	adc	$15                     ; 0x2015 <parse+0x97b>
     5c9: 85 17        	sta	$17                     ; 0x2017 <parse+0x97d>
     5cb: a5 1b        	lda	$1b                     ; 0x201b <parse+0x981>
     5cd: 92 16        	sta	($16)                   ; 0x2016 <parse+0x97c>
     5cf: a0 01        	ldy	#$1
     5d1: a5 1a        	lda	$1a                     ; 0x201a <parse+0x980>
     5d3: 91 16        	sta	($16),y                 ; 0x2016 <parse+0x97c>
     5d5: c8           	iny
     5d6: a5 19        	lda	$19                     ; 0x2019 <parse+0x97f>
     5d8: 91 16        	sta	($16),y                 ; 0x2016 <parse+0x97c>
     5da: c8           	iny
     5db: a9 ff        	lda	#$ff
     5dd: 91 16        	sta	($16),y                 ; 0x2016 <parse+0x97c>
     5df: 8e 00 de     	stx	$de00                   ; 0xde00 <end_block9+0xadf6>
     5e2: 9c 01 de     	stz	$de01                   ; 0xde01 <end_block9+0xadf7>
     5e5: c8           	iny
     5e6: 8c 02 de     	sty	$de02                   ; 0xde02 <end_block9+0xadf8>
     5e9: 9c 03 de     	stz	$de03                   ; 0xde03 <end_block9+0xadf9>
     5ec: ad 10 de     	lda	$de10                   ; 0xde10 <end_block9+0xae06>
     5ef: 85 15        	sta	$15                     ; 0x2015 <parse+0x97b>
     5f1: ad 11 de     	lda	$de11                   ; 0xde11 <end_block9+0xae07>
     5f4: 85 16        	sta	$16                     ; 0x2016 <parse+0x97c>
     5f6: a9 40        	lda	#$40
     5f8: 18           	clc
     5f9: 65 15        	adc	$15                     ; 0x2015 <parse+0x97b>
     5fb: a8           	tay
     5fc: a9 d8        	lda	#$d8
     5fe: 65 16        	adc	$16                     ; 0x2016 <parse+0x97c>
     600: 85 17        	sta	$17                     ; 0x2017 <parse+0x97d>
     602: 84 16        	sty	$16                     ; 0x2016 <parse+0x97c>
     604: ad 12 de     	lda	$de12                   ; 0xde12 <end_block9+0xae08>
     607: ad 13 de     	lda	$de13                   ; 0xde13 <end_block9+0xae09>
     60a: a5 1b        	lda	$1b                     ; 0x201b <parse+0x981>
     60c: 92 16        	sta	($16)                   ; 0x2016 <parse+0x97c>
     60e: a5 1a        	lda	$1a                     ; 0x201a <parse+0x980>
     610: a0 01        	ldy	#$1
     612: 91 16        	sta	($16),y                 ; 0x2016 <parse+0x97c>
     614: a5 19        	lda	$19                     ; 0x2019 <parse+0x97f>
     616: c8           	iny
     617: 91 16        	sta	($16),y                 ; 0x2016 <parse+0x97c>
     619: c8           	iny
     61a: a9 ff        	lda	#$ff
     61c: 91 16        	sta	($16),y                 ; 0x2016 <parse+0x97c>
     61e: e8           	inx
     61f: 86 15        	stx	$15                     ; 0x2015 <parse+0x97b>
     621: 18           	clc
     622: a5 18        	lda	$18                     ; 0x2018 <parse+0x97e>
     624: 69 03        	adc	#$3
     626: aa           	tax
     627: c9 30        	cmp	#$30
     629: f0 03        	beq	$62e <f256Init+0x174>
     62b: 4c 8e 05     	jmp	$58e <f256Init+0xd4>
     62e: a6 01        	ldx	$1                      ; 0x2001 <parse+0x967>
     630: 86 18        	stx	$18                     ; 0x2018 <parse+0x97e>
     632: a2 50        	ldx	#$50
     634: 8e 00 de     	stx	$de00                   ; 0xde00 <end_block9+0xadf6>
     637: 9c 01 de     	stz	$de01                   ; 0xde01 <end_block9+0xadf7>
     63a: a2 1e        	ldx	#$1e
     63c: 8e 02 de     	stx	$de02                   ; 0xde02 <end_block9+0xadf8>
     63f: 9c 03 de     	stz	$de03                   ; 0xde03 <end_block9+0xadf9>
     642: ae 10 de     	ldx	$de10                   ; 0xde10 <end_block9+0xae06>
     645: ac 11 de     	ldy	$de11                   ; 0xde11 <end_block9+0xae07>
     648: ad 12 de     	lda	$de12                   ; 0xde12 <end_block9+0xae08>
     64b: ad 13 de     	lda	$de13                   ; 0xde13 <end_block9+0xae09>
     64e: a9 02        	lda	#$2
     650: 85 01        	sta	$1                      ; 0x2001 <parse+0x967>
     652: e0 01        	cpx	#$1
     654: 98           	tya
     655: e9 00        	sbc	#$0
     657: 50 02        	bvc	$65b <f256Init+0x1a1>
     659: 49 80        	eor	#$80
     65b: c9 00        	cmp	#$0
     65d: 30 48        	bmi	$6a7 <f256Init+0x1ed>
     65f: a9 20        	lda	#$20
     661: 86 19        	stx	$19                     ; 0x2019 <parse+0x97f>
     663: 86 14        	stx	$14                     ; 0x2014 <parse+0x97a>
     665: 84 15        	sty	$15                     ; 0x2015 <parse+0x97b>
     667: a2 00        	ldx	#$0
     669: 86 16        	stx	$16                     ; 0x2016 <parse+0x97c>
     66b: a2 c0        	ldx	#$c0
     66d: 86 17        	stx	$17                     ; 0x2017 <parse+0x97d>
     66f: 92 16        	sta	($16)                   ; 0x2016 <parse+0x97c>
     671: e6 16        	inc	$16                     ; 0x2016 <parse+0x97c>
     673: d0 02        	bne	$677 <f256Init+0x1bd>
     675: e6 17        	inc	$17                     ; 0x2017 <parse+0x97d>
     677: a2 ff        	ldx	#$ff
     679: c6 14        	dec	$14                     ; 0x2014 <parse+0x97a>
     67b: e4 14        	cpx	$14                     ; 0x2014 <parse+0x97a>
     67d: d0 02        	bne	$681 <f256Init+0x1c7>
     67f: c6 15        	dec	$15                     ; 0x2015 <parse+0x97b>
     681: a6 15        	ldx	$15                     ; 0x2015 <parse+0x97b>
     683: d0 ea        	bne	$66f <f256Init+0x1b5>
     685: a6 14        	ldx	$14                     ; 0x2014 <parse+0x97a>
     687: d0 e6        	bne	$66f <f256Init+0x1b5>
     689: a2 03        	ldx	#$3
     68b: 86 01        	stx	$1                      ; 0x2001 <parse+0x967>
     68d: a6 19        	ldx	$19                     ; 0x2019 <parse+0x97f>
     68f: a9 f0        	lda	#$f0
     691: 92 12        	sta	($12)                   ; 0x2012 <parse+0x978>
     693: e6 12        	inc	$12                     ; 0x2012 <parse+0x978>
     695: d0 02        	bne	$699 <f256Init+0x1df>
     697: e6 13        	inc	$13                     ; 0x2013 <parse+0x979>
     699: ca           	dex
     69a: e0 ff        	cpx	#$ff
     69c: d0 01        	bne	$69f <f256Init+0x1e5>
     69e: 88           	dey
     69f: 98           	tya
     6a0: d0 ed        	bne	$68f <f256Init+0x1d5>
     6a2: 8a           	txa
     6a3: d0 ea        	bne	$68f <f256Init+0x1d5>
     6a5: 80 04        	bra	$6ab <f256Init+0x1f1>
     6a7: a2 03        	ldx	#$3
     6a9: 86 01        	stx	$1                      ; 0x2001 <parse+0x967>
     6ab: a6 18        	ldx	$18                     ; 0x2018 <parse+0x97e>
     6ad: 86 01        	stx	$1                      ; 0x2001 <parse+0x967>
     6af: 9c c7 2f     	stz	$2fc7                   ; 0x2fc7 <_col>
     6b2: 9c 14 d0     	stz	$d014                   ; 0xd014 <end_block9+0xa00a>
     6b5: 9c 15 d0     	stz	$d015                   ; 0xd015 <end_block9+0xa00b>
     6b8: 9c c8 2f     	stz	$2fc8                   ; 0x2fc8 <_row>
     6bb: 9c 16 d0     	stz	$d016                   ; 0xd016 <end_block9+0xa00c>
     6be: 9c 17 d0     	stz	$d017                   ; 0xd017 <end_block9+0xa00d>
     6c1: a2 40        	ldx	#$40
     6c3: 8e 00 de     	stx	$de00                   ; 0xde00 <end_block9+0xadf6>
     6c6: a2 01        	ldx	#$1
     6c8: 8e 01 de     	stx	$de01                   ; 0xde01 <end_block9+0xadf7>
     6cb: a2 f0        	ldx	#$f0
     6cd: 8e 02 de     	stx	$de02                   ; 0xde02 <end_block9+0xadf8>
     6d0: 9c 03 de     	stz	$de03                   ; 0xde03 <end_block9+0xadf9>
     6d3: ae 10 de     	ldx	$de10                   ; 0xde10 <end_block9+0xae06>
     6d6: 86 17        	stx	$17                     ; 0x2017 <parse+0x97d>
     6d8: ae 11 de     	ldx	$de11                   ; 0xde11 <end_block9+0xae07>
     6db: 86 12        	stx	$12                     ; 0x2012 <parse+0x978>
     6dd: ae 12 de     	ldx	$de12                   ; 0xde12 <end_block9+0xae08>
     6e0: 86 13        	stx	$13                     ; 0x2013 <parse+0x979>
     6e2: ae 13 de     	ldx	$de13                   ; 0xde13 <end_block9+0xae09>
     6e5: 86 14        	stx	$14                     ; 0x2014 <parse+0x97a>
     6e7: a4 12        	ldy	$12                     ; 0x2012 <parse+0x978>
     6e9: 84 15        	sty	$15                     ; 0x2015 <parse+0x97b>
     6eb: 06 15        	asl	$15                     ; 0x2015 <parse+0x97b>
     6ed: a5 13        	lda	$13                     ; 0x2013 <parse+0x979>
     6ef: 2a           	rol
     6f0: 86 16        	stx	$16                     ; 0x2016 <parse+0x97c>
     6f2: 26 16        	rol	$16                     ; 0x2016 <parse+0x97c>
     6f4: 06 15        	asl	$15                     ; 0x2015 <parse+0x97b>
     6f6: 2a           	rol
     6f7: 26 16        	rol	$16                     ; 0x2016 <parse+0x97c>
     6f9: 06 15        	asl	$15                     ; 0x2015 <parse+0x97b>
     6fb: 2a           	rol
     6fc: 26 16        	rol	$16                     ; 0x2016 <parse+0x97c>
     6fe: 85 15        	sta	$15                     ; 0x2015 <parse+0x97b>
     700: 8d 00 de     	sta	$de00                   ; 0xde00 <end_block9+0xadf6>
     703: a5 16        	lda	$16                     ; 0x2016 <parse+0x97c>
     705: 8d 01 de     	sta	$de01                   ; 0xde01 <end_block9+0xadf7>
     708: 9c 02 de     	stz	$de02                   ; 0xde02 <end_block9+0xadf8>
     70b: a2 20        	ldx	#$20
     70d: 8e 03 de     	stx	$de03                   ; 0xde03 <end_block9+0xadf9>
     710: ae 10 de     	ldx	$de10                   ; 0xde10 <end_block9+0xae06>
     713: 86 16        	stx	$16                     ; 0x2016 <parse+0x97c>
     715: ae 11 de     	ldx	$de11                   ; 0xde11 <end_block9+0xae07>
     718: 86 18        	stx	$18                     ; 0x2018 <parse+0x97e>
     71a: ac 12 de     	ldy	$de12                   ; 0xde12 <end_block9+0xae08>
     71d: ae 13 de     	ldx	$de13                   ; 0xde13 <end_block9+0xae09>
     720: e4 14        	cpx	$14                     ; 0x2014 <parse+0x97a>
     722: d0 14        	bne	$738 <f256Init+0x27e>
     724: c4 13        	cpy	$13                     ; 0x2013 <parse+0x979>
     726: d0 10        	bne	$738 <f256Init+0x27e>
     728: a6 18        	ldx	$18                     ; 0x2018 <parse+0x97e>
     72a: e4 12        	cpx	$12                     ; 0x2012 <parse+0x978>
     72c: d0 0a        	bne	$738 <f256Init+0x27e>
     72e: a6 16        	ldx	$16                     ; 0x2016 <parse+0x97c>
     730: e4 17        	cpx	$17                     ; 0x2017 <parse+0x97d>
     732: d0 04        	bne	$738 <f256Init+0x27e>
     734: a6 15        	ldx	$15                     ; 0x2015 <parse+0x97b>
     736: 80 06        	bra	$73e <f256Init+0x284>
     738: a6 15        	ldx	$15                     ; 0x2015 <parse+0x97b>
     73a: e8           	inx
     73b: d0 01        	bne	$73e <f256Init+0x284>
     73d: 1a           	inc
     73e: 8e 00 de     	stx	$de00                   ; 0xde00 <end_block9+0xadf6>
     741: 8d 01 de     	sta	$de01                   ; 0xde01 <end_block9+0xadf7>
     744: 9c 02 de     	stz	$de02                   ; 0xde02 <end_block9+0xadf8>
     747: a2 20        	ldx	#$20
     749: 8e 03 de     	stx	$de03                   ; 0xde03 <end_block9+0xadf9>
     74c: ae 10 de     	ldx	$de10                   ; 0xde10 <end_block9+0xae06>
     74f: 86 12        	stx	$12                     ; 0x2012 <parse+0x978>
     751: ae 11 de     	ldx	$de11                   ; 0xde11 <end_block9+0xae07>
     754: 86 13        	stx	$13                     ; 0x2013 <parse+0x979>
     756: ae 12 de     	ldx	$de12                   ; 0xde12 <end_block9+0xae08>
     759: 86 14        	stx	$14                     ; 0x2014 <parse+0x97a>
     75b: ae 13 de     	ldx	$de13                   ; 0xde13 <end_block9+0xae09>
     75e: 86 15        	stx	$15                     ; 0x2015 <parse+0x97b>
     760: a9 00        	lda	#$0
     762: 38           	sec
     763: e5 12        	sbc	$12                     ; 0x2012 <parse+0x978>
     765: 85 17        	sta	$17                     ; 0x2017 <parse+0x97d>
     767: a9 00        	lda	#$0
     769: e5 13        	sbc	$13                     ; 0x2013 <parse+0x979>
     76b: aa           	tax
     76c: a9 08        	lda	#$8
     76e: e5 14        	sbc	$14                     ; 0x2014 <parse+0x97a>
     770: 85 16        	sta	$16                     ; 0x2016 <parse+0x97c>
     772: a9 00        	lda	#$0
     774: e5 15        	sbc	$15                     ; 0x2015 <parse+0x97b>
     776: 86 6a        	stx	$6a                     ; 0x206a <parse+0x9d0>
     778: a4 16        	ldy	$16                     ; 0x2016 <parse+0x97c>
     77a: 84 6b        	sty	$6b                     ; 0x206b <parse+0x9d1>
     77c: 85 6c        	sta	$6c                     ; 0x206c <parse+0x9d2>
     77e: a5 17        	lda	$17                     ; 0x2017 <parse+0x97d>
     780: 38           	sec
     781: e5 12        	sbc	$12                     ; 0x2012 <parse+0x978>
     783: a8           	tay
     784: 8a           	txa
     785: e5 13        	sbc	$13                     ; 0x2013 <parse+0x979>
     787: 85 18        	sta	$18                     ; 0x2018 <parse+0x97e>
     789: a5 16        	lda	$16                     ; 0x2016 <parse+0x97c>
     78b: e5 14        	sbc	$14                     ; 0x2014 <parse+0x97a>
     78d: 85 15        	sta	$15                     ; 0x2015 <parse+0x97b>
     78f: 98           	tya
     790: 84 16        	sty	$16                     ; 0x2016 <parse+0x97c>
     792: 38           	sec
     793: e5 12        	sbc	$12                     ; 0x2012 <parse+0x978>
     795: 85 12        	sta	$12                     ; 0x2012 <parse+0x978>
     797: a5 18        	lda	$18                     ; 0x2018 <parse+0x97e>
     799: e5 13        	sbc	$13                     ; 0x2013 <parse+0x979>
     79b: 85 13        	sta	$13                     ; 0x2013 <parse+0x979>
     79d: a4 15        	ldy	$15                     ; 0x2015 <parse+0x97b>
     79f: a5 15        	lda	$15                     ; 0x2015 <parse+0x97b>
     7a1: e5 14        	sbc	$14                     ; 0x2014 <parse+0x97a>
     7a3: a6 17        	ldx	$17                     ; 0x2017 <parse+0x97d>
     7a5: 86 69        	stx	$69                     ; 0x2069 <parse+0x9cf>
     7a7: 8e 01 d1     	stx	$d101                   ; 0xd101 <end_block9+0xa0f7>
     7aa: a6 6a        	ldx	$6a                     ; 0x206a <parse+0x9d0>
     7ac: 8e 02 d1     	stx	$d102                   ; 0xd102 <end_block9+0xa0f8>
     7af: a6 6b        	ldx	$6b                     ; 0x206b <parse+0x9d1>
     7b1: 8e 03 d1     	stx	$d103                   ; 0xd103 <end_block9+0xa0f9>
     7b4: a6 16        	ldx	$16                     ; 0x2016 <parse+0x97c>
     7b6: 8e 09 d1     	stx	$d109                   ; 0xd109 <end_block9+0xa0ff>
     7b9: a6 18        	ldx	$18                     ; 0x2018 <parse+0x97e>
     7bb: 8e 0a d1     	stx	$d10a                   ; 0xd10a <end_block9+0xa100>
     7be: 8c 0b d1     	sty	$d10b                   ; 0xd10b <end_block9+0xa101>
     7c1: a6 12        	ldx	$12                     ; 0x2012 <parse+0x978>
     7c3: 8e 11 d1     	stx	$d111                   ; 0xd111 <end_block9+0xa107>
     7c6: a6 13        	ldx	$13                     ; 0x2013 <parse+0x979>
     7c8: 8e 12 d1     	stx	$d112                   ; 0xd112 <end_block9+0xa108>
     7cb: 8d 13 d1     	sta	$d113                   ; 0xd113 <end_block9+0xa109>
     7ce: 9c 00 d1     	stz	$d100                   ; 0xd100 <end_block9+0xa0f6>
     7d1: 9c 08 d1     	stz	$d108                   ; 0xd108 <end_block9+0xa0fe>
     7d4: 9c 10 d1     	stz	$d110                   ; 0xd110 <end_block9+0xa106>
     7d7: a2 10        	ldx	#$10
     7d9: 8e 00 d2     	stx	$d200                   ; 0xd200 <end_block9+0xa1f6>
     7dc: 8e 0c d2     	stx	$d20c                   ; 0xd20c <end_block9+0xa202>
     7df: 8e 18 d2     	stx	$d218                   ; 0xd218 <end_block9+0xa20e>
     7e2: a0 d9        	ldy	#$d9
     7e4: 64 12        	stz	$12                     ; 0x2012 <parse+0x978>
     7e6: a2 00        	ldx	#$0
     7e8: 84 13        	sty	$13                     ; 0x2013 <parse+0x979>
     7ea: bd c9 2f     	lda	$2fc9,x                 ; 0x2fc9 <_spriteCtl>
     7ed: 92 12        	sta	($12)                   ; 0x2012 <parse+0x978>
     7ef: a5 12        	lda	$12                     ; 0x2012 <parse+0x978>
     7f1: e8           	inx
     7f2: 18           	clc
     7f3: 69 08        	adc	#$8
     7f5: 85 12        	sta	$12                     ; 0x2012 <parse+0x978>
     7f7: 98           	tya
     7f8: 69 00        	adc	#$0
     7fa: a8           	tay
     7fb: e0 40        	cpx	#$40
     7fd: d0 e9        	bne	$7e8 <f256Init+0x32e>
     7ff: a2 81        	ldx	#$81
     801: a0 00        	ldy	#$0
     803: 86 fb        	stx	$fb                     ; 0x20fb <parse+0xa61>
     805: 84 fc        	sty	$fc                     ; 0x20fc <parse+0xa62>
     807: a2 08        	ldx	#$8
     809: 86 fd        	stx	$fd                     ; 0x20fd <parse+0xa63>
     80b: a2 89        	ldx	#$89
     80d: a0 00        	ldy	#$0
     80f: 86 12        	stx	$12                     ; 0x2012 <parse+0x978>
     811: 84 13        	sty	$13                     ; 0x2013 <parse+0x979>
     813: a2 09        	ldx	#$9
     815: 86 14        	stx	$14                     ; 0x2014 <parse+0x97a>
     817: a2 30        	ldx	#$30
     819: 86 15        	stx	$15                     ; 0x2015 <parse+0x97b>
     81b: 20 dc ff     	jsr	$ffdc <end_block9+0xcfd2>
     81e: 92 12        	sta	($12)                   ; 0x2012 <parse+0x978>
     820: a9 00        	lda	#$0
     822: 6a           	ror
     823: 85 14        	sta	$14                     ; 0x2014 <parse+0x97a>
     825: a6 87        	ldx	$87                     ; 0x2087 <parse+0x9ed>
     827: a4 88        	ldy	$88                     ; 0x2088 <parse+0x9ee>
     829: 8e 00 de     	stx	$de00                   ; 0xde00 <end_block9+0xadf6>
     82c: 9c 01 de     	stz	$de01                   ; 0xde01 <end_block9+0xadf7>
     82f: 8c 02 de     	sty	$de02                   ; 0xde02 <end_block9+0xadf8>
     832: 9c 03 de     	stz	$de03                   ; 0xde03 <end_block9+0xadf9>
     835: ae 10 de     	ldx	$de10                   ; 0xde10 <end_block9+0xae06>
     838: ac 11 de     	ldy	$de11                   ; 0xde11 <end_block9+0xae07>
     83b: ad 12 de     	lda	$de12                   ; 0xde12 <end_block9+0xae08>
     83e: ad 13 de     	lda	$de13                   ; 0xde13 <end_block9+0xae09>
     841: 8e a4 d6     	stx	$d6a4                   ; 0xd6a4 <end_block9+0xa69a>
     844: 8c a5 d6     	sty	$d6a5                   ; 0xd6a5 <end_block9+0xa69b>
     847: a2 03        	ldx	#$3
     849: 8e a6 d6     	stx	$d6a6                   ; 0xd6a6 <end_block9+0xa69c>
     84c: 60           	rts

0000084d <main>:
     84d: 20 ba 04     	jsr	$4ba <f256Init>
     850: 20 53 08     	jsr	$853 <f256main>

00000853 <f256main>:
     853: 18           	clc
     854: a5 10        	lda	$10                     ; 0x2010 <parse+0x976>
     856: 69 68        	adc	#$68
     858: 85 10        	sta	$10                     ; 0x2010 <parse+0x976>
     85a: a5 11        	lda	$11                     ; 0x2011 <parse+0x977>
     85c: 69 fe        	adc	#$fe
     85e: 85 11        	sta	$11                     ; 0x2011 <parse+0x977>
     860: 64 01        	stz	$1                      ; 0x2001 <parse+0x967>
     862: a2 2c        	ldx	#$2c
     864: 8e 00 d0     	stx	$d000                   ; 0xd000 <end_block9+0x9ff6>
     867: a2 14        	ldx	#$14
     869: 8e 01 d0     	stx	$d001                   ; 0xd001 <end_block9+0x9ff7>
     86c: a2 01        	ldx	#$1
     86e: 8e 02 d0     	stx	$d002                   ; 0xd002 <end_block9+0x9ff8>
     871: a0 02        	ldy	#$2
     873: 8c 03 d0     	sty	$d003                   ; 0xd003 <end_block9+0x9ff9>
     876: 9c 0d d0     	stz	$d00d                   ; 0xd00d <end_block9+0xa003>
     879: 9c 0e d0     	stz	$d00e                   ; 0xd00e <end_block9+0xa004>
     87c: 9c 0f d0     	stz	$d00f                   ; 0xd00f <end_block9+0xa005>
     87f: 86 01        	stx	$1                      ; 0x2001 <parse+0x967>
     881: a0 fc        	ldy	#$fc
     883: a9 ff        	lda	#$ff
     885: 85 12        	sta	$12                     ; 0x2012 <parse+0x978>
     887: 85 13        	sta	$13                     ; 0x2013 <parse+0x979>
     889: a5 0f        	lda	$f                      ; 0x200f <parse+0x975>
     88b: 85 17        	sta	$17                     ; 0x2017 <parse+0x97d>
     88d: 78           	sei
     88e: a9 08        	lda	#$8
     890: 85 0f        	sta	$f                      ; 0x200f <parse+0x975>
     892: 18           	clc
     893: 8a           	txa
     894: 69 ff        	adc	#$ff
     896: 85 16        	sta	$16                     ; 0x2016 <parse+0x97c>
     898: a9 01        	lda	#$1
     89a: b0 02        	bcs	$89e <f256main+0x4b>
     89c: a9 00        	lda	#$0
     89e: 85 18        	sta	$18                     ; 0x2018 <parse+0x97e>
     8a0: 98           	tya
     8a1: 69 e3        	adc	#$e3
     8a3: 5a           	phy
     8a4: a4 16        	ldy	$16                     ; 0x2016 <parse+0x97c>
     8a6: 84 14        	sty	$14                     ; 0x2014 <parse+0x97a>
     8a8: 7a           	ply
     8a9: 85 15        	sta	$15                     ; 0x2015 <parse+0x97b>
     8ab: b2 14        	lda	($14)                   ; 0x2014 <parse+0x97a>
     8ad: 85 19        	sta	$19                     ; 0x2019 <parse+0x97f>
     8af: a5 17        	lda	$17                     ; 0x2017 <parse+0x97d>
     8b1: 85 0f        	sta	$f                      ; 0x200f <parse+0x975>
     8b3: 98           	tya
     8b4: 5a           	phy
     8b5: a4 18        	ldy	$18                     ; 0x2018 <parse+0x97e>
     8b7: c0 01        	cpy	#$1
     8b9: 7a           	ply
     8ba: 69 d3        	adc	#$d3
     8bc: 58           	cli
     8bd: 85 15        	sta	$15                     ; 0x2015 <parse+0x97b>
     8bf: a5 19        	lda	$19                     ; 0x2019 <parse+0x97f>
     8c1: 92 14        	sta	($14)                   ; 0x2014 <parse+0x97a>
     8c3: e8           	inx
     8c4: d0 c3        	bne	$889 <f256main+0x36>
     8c6: c8           	iny
     8c7: d0 c0        	bne	$889 <f256main+0x36>
     8c9: e6 12        	inc	$12                     ; 0x2012 <parse+0x978>
     8cb: d0 bc        	bne	$889 <f256main+0x36>
     8cd: e6 13        	inc	$13                     ; 0x2013 <parse+0x979>
     8cf: d0 b8        	bne	$889 <f256main+0x36>
     8d1: 64 14        	stz	$14                     ; 0x2014 <parse+0x97a>
     8d3: 64 01        	stz	$1                      ; 0x2001 <parse+0x967>
     8d5: 64 69        	stz	$69                     ; 0x2069 <parse+0x9cf>
     8d7: 64 6a        	stz	$6a                     ; 0x206a <parse+0x9d0>
     8d9: a2 02        	ldx	#$2
     8db: 86 6b        	stx	$6b                     ; 0x206b <parse+0x9d1>
     8dd: 64 6c        	stz	$6c                     ; 0x206c <parse+0x9d2>
     8df: 9c 01 d1     	stz	$d101                   ; 0xd101 <end_block9+0xa0f7>
     8e2: 9c 02 d1     	stz	$d102                   ; 0xd102 <end_block9+0xa0f8>
     8e5: 8e 03 d1     	stx	$d103                   ; 0xd103 <end_block9+0xa0f9>
     8e8: ad 00 d1     	lda	$d100                   ; 0xd100 <end_block9+0xa0f6>
     8eb: 29 f9        	and	#$f9
     8ed: 8d 00 d1     	sta	$d100                   ; 0xd100 <end_block9+0xa0f6>
     8f0: ca           	dex
     8f1: 8e 00 d1     	stx	$d100                   ; 0xd100 <end_block9+0xa0f6>
     8f4: 9c 08 d1     	stz	$d108                   ; 0xd108 <end_block9+0xa0fe>
     8f7: 9c 10 d1     	stz	$d110                   ; 0xd110 <end_block9+0xa106>
     8fa: 9c c9 2f     	stz	$2fc9                   ; 0x2fc9 <_spriteCtl>
     8fd: 9c 00 d9     	stz	$d900                   ; 0xd900 <end_block9+0xa8f6>
     900: 9c 01 d9     	stz	$d901                   ; 0xd901 <end_block9+0xa8f7>
     903: a0 04        	ldy	#$4
     905: 8c 02 d9     	sty	$d902                   ; 0xd902 <end_block9+0xa8f8>
     908: 8e 03 d9     	stx	$d903                   ; 0xd903 <end_block9+0xa8f9>
     90b: 8a           	txa
     90c: 0d c9 2f     	ora	$2fc9                   ; 0x2fc9 <_spriteCtl>
     90f: 8d 00 d9     	sta	$d900                   ; 0xd900 <end_block9+0xa8f6>
     912: 9c ca 2f     	stz	$2fca                   ; 0x2fca <_spriteCtl+0x1>
     915: 9c 08 d9     	stz	$d908                   ; 0xd908 <end_block9+0xa8fe>
     918: 9c 09 d9     	stz	$d909                   ; 0xd909 <end_block9+0xa8ff>
     91b: a0 08        	ldy	#$8
     91d: 8c 0a d9     	sty	$d90a                   ; 0xd90a <end_block9+0xa900>
     920: 8e 0b d9     	stx	$d90b                   ; 0xd90b <end_block9+0xa901>
     923: 8a           	txa
     924: 0d ca 2f     	ora	$2fca                   ; 0x2fca <_spriteCtl+0x1>
     927: 8d 08 d9     	sta	$d908                   ; 0xd908 <end_block9+0xa8fe>
     92a: a0 a0        	ldy	#$a0
     92c: 8c 04 d9     	sty	$d904                   ; 0xd904 <end_block9+0xa8fa>
     92f: 9c 05 d9     	stz	$d905                   ; 0xd905 <end_block9+0xa8fb>
     932: a0 dc        	ldy	#$dc
     934: 8c 06 d9     	sty	$d906                   ; 0xd906 <end_block9+0xa8fc>
     937: 9c 07 d9     	stz	$d907                   ; 0xd907 <end_block9+0xa8fd>
     93a: a9 c0        	lda	#$c0
     93c: 8d 0c d9     	sta	$d90c                   ; 0xd90c <end_block9+0xa902>
     93f: 9c 0d d9     	stz	$d90d                   ; 0xd90d <end_block9+0xa903>
     942: 8c 0e d9     	sty	$d90e                   ; 0xd90e <end_block9+0xa904>
     945: 9c 0f d9     	stz	$d90f                   ; 0xd90f <end_block9+0xa905>
     948: 8e 80 d8     	stx	$d880                   ; 0xd880 <end_block9+0xa876>
     94b: 64 01        	stz	$1                      ; 0x2001 <parse+0x967>
     94d: a0 ff        	ldy	#$ff
     94f: 8c a1 dd     	sty	$dda1                   ; 0xdda1 <end_block9+0xad97>
     952: a0 80        	ldy	#$80
     954: 84 f3        	sty	$f3                     ; 0x20f3 <parse+0xa59>
     956: 18           	clc
     957: a5 10        	lda	$10                     ; 0x2010 <parse+0x976>
     959: 69 08        	adc	#$8
     95b: 85 12        	sta	$12                     ; 0x2012 <parse+0x978>
     95d: a5 11        	lda	$11                     ; 0x2011 <parse+0x977>
     95f: 69 00        	adc	#$0
     961: 85 13        	sta	$13                     ; 0x2013 <parse+0x979>
     963: a9 09        	lda	#$9
     965: 85 16        	sta	$16                     ; 0x2016 <parse+0x97c>
     967: a9 30        	lda	#$30
     969: 85 17        	sta	$17                     ; 0x2017 <parse+0x97d>
     96b: 20 f0 ff     	jsr	$fff0 <end_block9+0xcfe6>
     96e: 92 12        	sta	($12)                   ; 0x2012 <parse+0x978>
     970: a9 00        	lda	#$0
     972: 6a           	ror
     973: 85 16        	sta	$16                     ; 0x2016 <parse+0x97c>
     975: b2 12        	lda	($12)                   ; 0x2012 <parse+0x978>
     977: 1a           	inc
     978: 85 79        	sta	$79                     ; 0x2079 <parse+0x9df>
     97a: 64 f3        	stz	$f3                     ; 0x20f3 <parse+0xa59>
     97c: a5 79        	lda	$79                     ; 0x2079 <parse+0x9df>
     97e: 85 f4        	sta	$f4                     ; 0x20f4 <parse+0xa5a>
     980: 64 f5        	stz	$f5                     ; 0x20f5 <parse+0xa5b>
     982: 20 f0 ff     	jsr	$fff0 <end_block9+0xcfe6>
     985: 92 12        	sta	($12)                   ; 0x2012 <parse+0x978>
     987: a9 00        	lda	#$0
     989: 6a           	ror
     98a: 85 16        	sta	$16                     ; 0x2016 <parse+0x97c>
     98c: 84 f3        	sty	$f3                     ; 0x20f3 <parse+0xa59>
     98e: 20 f0 ff     	jsr	$fff0 <end_block9+0xcfe6>
     991: 92 12        	sta	($12)                   ; 0x2012 <parse+0x978>
     993: a9 00        	lda	#$0
     995: 6a           	ror
     996: 85 16        	sta	$16                     ; 0x2016 <parse+0x97c>
     998: a9 03        	lda	#$3
     99a: 18           	clc
     99b: 72 12        	adc	($12)                   ; 0x2012 <parse+0x978>
     99d: 85 7a        	sta	$7a                     ; 0x207a <parse+0x9e0>
     99f: 86 7b        	stx	$7b                     ; 0x207b <parse+0x9e1>
     9a1: 64 f3        	stz	$f3                     ; 0x20f3 <parse+0xa59>
     9a3: a4 7a        	ldy	$7a                     ; 0x207a <parse+0x9e0>
     9a5: 84 f4        	sty	$f4                     ; 0x20f4 <parse+0xa5a>
     9a7: 86 f5        	stx	$f5                     ; 0x20f5 <parse+0xa5b>
     9a9: 20 f0 ff     	jsr	$fff0 <end_block9+0xcfe6>
     9ac: 92 12        	sta	($12)                   ; 0x2012 <parse+0x978>
     9ae: a9 00        	lda	#$0
     9b0: 6a           	ror
     9b1: 85 16        	sta	$16                     ; 0x2016 <parse+0x97c>
     9b3: 64 73        	stz	$73                     ; 0x2073 <parse+0x9d9>
     9b5: 64 74        	stz	$74                     ; 0x2074 <parse+0x9da>
     9b7: a0 00        	ldy	#$0
     9b9: 84 16        	sty	$16                     ; 0x2016 <parse+0x97c>
     9bb: a0 00        	ldy	#$0
     9bd: 84 17        	sty	$17                     ; 0x2017 <parse+0x97d>
     9bf: a4 16        	ldy	$16                     ; 0x2016 <parse+0x97c>
     9c1: a5 17        	lda	$17                     ; 0x2017 <parse+0x97d>
     9c3: 84 75        	sty	$75                     ; 0x2075 <parse+0x9db>
     9c5: 85 76        	sta	$76                     ; 0x2076 <parse+0x9dc>
     9c7: a0 02        	ldy	#$2
     9c9: 8c 50 d6     	sty	$d650                   ; 0xd650 <end_block9+0xa646>
     9cc: a0 09        	ldy	#$9
     9ce: 8c 50 d6     	sty	$d650                   ; 0xd650 <end_block9+0xa646>
     9d1: a0 10        	ldy	#$10
     9d3: 8c 60 d6     	sty	$d660                   ; 0xd660 <end_block9+0xa656>
     9d6: 8e 54 d6     	stx	$d654                   ; 0xd654 <end_block9+0xa64a>
     9d9: 9c 55 d6     	stz	$d655                   ; 0xd655 <end_block9+0xa64b>
     9dc: 9c 56 d6     	stz	$d656                   ; 0xd656 <end_block9+0xa64c>
     9df: 9c 57 d6     	stz	$d657                   ; 0xd657 <end_block9+0xa64d>
     9e2: a0 90        	ldy	#$90
     9e4: a9 e0        	lda	#$e0
     9e6: 85 15        	sta	$15                     ; 0x2015 <parse+0x97b>
     9e8: a5 12        	lda	$12                     ; 0x2012 <parse+0x978>
     9ea: 85 16        	sta	$16                     ; 0x2016 <parse+0x97c>
     9ec: a5 13        	lda	$13                     ; 0x2013 <parse+0x979>
     9ee: 85 17        	sta	$17                     ; 0x2017 <parse+0x97d>
     9f0: 84 18        	sty	$18                     ; 0x2018 <parse+0x97e>
     9f2: a4 0f        	ldy	$f                      ; 0x200f <parse+0x975>
     9f4: 78           	sei
     9f5: a9 1c        	lda	#$1c
     9f7: 85 0f        	sta	$f                      ; 0x200f <parse+0x975>
     9f9: b2 14        	lda	($14)                   ; 0x2014 <parse+0x97a>
     9fb: 84 0f        	sty	$f                      ; 0x200f <parse+0x975>
     9fd: 58           	cli
     9fe: 92 16        	sta	($16)                   ; 0x2016 <parse+0x97c>
     a00: a0 ff        	ldy	#$ff
     a02: c6 18        	dec	$18                     ; 0x2018 <parse+0x97e>
     a04: c4 18        	cpy	$18                     ; 0x2018 <parse+0x97e>
     a06: d0 01        	bne	$a09 <f256main+0x1b6>
     a08: ca           	dex
     a09: e6 16        	inc	$16                     ; 0x2016 <parse+0x97c>
     a0b: d0 02        	bne	$a0f <f256main+0x1bc>
     a0d: e6 17        	inc	$17                     ; 0x2017 <parse+0x97d>
     a0f: e6 14        	inc	$14                     ; 0x2014 <parse+0x97a>
     a11: d0 02        	bne	$a15 <f256main+0x1c2>
     a13: e6 15        	inc	$15                     ; 0x2015 <parse+0x97b>
     a15: 8a           	txa
     a16: d0 da        	bne	$9f2 <f256main+0x19f>
     a18: a5 18        	lda	$18                     ; 0x2018 <parse+0x97e>
     a1a: d0 d6        	bne	$9f2 <f256main+0x19f>
     a1c: a2 c2        	ldx	#$c2
     a1e: 86 14        	stx	$14                     ; 0x2014 <parse+0x97a>
     a20: a2 2f        	ldx	#$2f
     a22: 86 15        	stx	$15                     ; 0x2015 <parse+0x97b>
     a24: 20 4c 2d     	jsr	$2d4c <strstr>
     a27: a2 00        	ldx	#$0
     a29: 86 14        	stx	$14                     ; 0x2014 <parse+0x97a>
     a2b: a2 00        	ldx	#$0
     a2d: 86 15        	stx	$15                     ; 0x2015 <parse+0x97b>
     a2f: a6 13        	ldx	$13                     ; 0x2013 <parse+0x979>
     a31: e4 15        	cpx	$15                     ; 0x2015 <parse+0x97b>
     a33: d0 06        	bne	$a3b <f256main+0x1e8>
     a35: a6 12        	ldx	$12                     ; 0x2012 <parse+0x978>
     a37: e4 14        	cpx	$14                     ; 0x2014 <parse+0x97a>
     a39: f0 21        	beq	$a5c <f256main+0x209>
     a3b: 18           	clc
     a3c: a5 10        	lda	$10                     ; 0x2010 <parse+0x976>
     a3e: 69 08        	adc	#$8
     a40: 85 14        	sta	$14                     ; 0x2014 <parse+0x97a>
     a42: a5 11        	lda	$11                     ; 0x2011 <parse+0x977>
     a44: 69 00        	adc	#$0
     a46: 85 15        	sta	$15                     ; 0x2015 <parse+0x97b>
     a48: a5 12        	lda	$12                     ; 0x2012 <parse+0x978>
     a4a: 38           	sec
     a4b: e5 14        	sbc	$14                     ; 0x2014 <parse+0x97a>
     a4d: aa           	tax
     a4e: a5 13        	lda	$13                     ; 0x2013 <parse+0x979>
     a50: e5 15        	sbc	$15                     ; 0x2015 <parse+0x97b>
     a52: 85 25        	sta	$25                     ; 0x2025 <parse+0x98b>
     a54: c9 ff        	cmp	#$ff
     a56: d0 0b        	bne	$a63 <f256main+0x210>
     a58: e0 ff        	cpx	#$ff
     a5a: d0 07        	bne	$a63 <f256main+0x210>
     a5c: a0 ff        	ldy	#$ff
     a5e: a2 ff        	ldx	#$ff
     a60: 4c 9f 0d     	jmp	$d9f <f256main+0x54c>
     a63: 18           	clc
     a64: 8a           	txa
     a65: 69 08        	adc	#$8
     a67: 85 15        	sta	$15                     ; 0x2015 <parse+0x97b>
     a69: a5 25        	lda	$25                     ; 0x2025 <parse+0x98b>
     a6b: 69 80        	adc	#$80
     a6d: 85 16        	sta	$16                     ; 0x2016 <parse+0x97c>
     a6f: a9 00        	lda	#$0
     a71: 69 03        	adc	#$3
     a73: 85 17        	sta	$17                     ; 0x2017 <parse+0x97d>
     a75: 18           	clc
     a76: 8a           	txa
     a77: 69 09        	adc	#$9
     a79: 85 13        	sta	$13                     ; 0x2013 <parse+0x979>
     a7b: a5 25        	lda	$25                     ; 0x2025 <parse+0x98b>
     a7d: 69 80        	adc	#$80
     a7f: 85 18        	sta	$18                     ; 0x2018 <parse+0x97e>
     a81: da           	phx
     a82: 7a           	ply
     a83: a9 00        	lda	#$0
     a85: 69 03        	adc	#$3
     a87: 5a           	phy
     a88: a6 18        	ldx	$18                     ; 0x2018 <parse+0x97e>
     a8a: 86 12        	stx	$12                     ; 0x2012 <parse+0x978>
     a8c: 06 12        	asl	$12                     ; 0x2012 <parse+0x978>
     a8e: 2a           	rol
     a8f: 06 12        	asl	$12                     ; 0x2012 <parse+0x978>
     a91: 2a           	rol
     a92: 06 12        	asl	$12                     ; 0x2012 <parse+0x978>
     a94: 2a           	rol
     a95: a6 0f        	ldx	$f                      ; 0x200f <parse+0x975>
     a97: 78           	sei
     a98: 85 0f        	sta	$f                      ; 0x200f <parse+0x975>
     a9a: a5 18        	lda	$18                     ; 0x2018 <parse+0x97e>
     a9c: 09 e0        	ora	#$e0
     a9e: a4 13        	ldy	$13                     ; 0x2013 <parse+0x979>
     aa0: 84 12        	sty	$12                     ; 0x2012 <parse+0x978>
     aa2: 85 13        	sta	$13                     ; 0x2013 <parse+0x979>
     aa4: b2 12        	lda	($12)                   ; 0x2012 <parse+0x978>
     aa6: 86 0f        	stx	$f                      ; 0x200f <parse+0x975>
     aa8: 58           	cli
     aa9: a6 0f        	ldx	$f                      ; 0x200f <parse+0x975>
     aab: 78           	sei
     aac: a5 16        	lda	$16                     ; 0x2016 <parse+0x97c>
     aae: 0a           	asl
     aaf: 26 17        	rol	$17                     ; 0x2017 <parse+0x97d>
     ab1: 0a           	asl
     ab2: 26 17        	rol	$17                     ; 0x2017 <parse+0x97d>
     ab4: 0a           	asl
     ab5: a5 17        	lda	$17                     ; 0x2017 <parse+0x97d>
     ab7: 2a           	rol
     ab8: 85 0f        	sta	$f                      ; 0x200f <parse+0x975>
     aba: a5 16        	lda	$16                     ; 0x2016 <parse+0x97c>
     abc: 09 e0        	ora	#$e0
     abe: a4 15        	ldy	$15                     ; 0x2015 <parse+0x97b>
     ac0: 84 12        	sty	$12                     ; 0x2012 <parse+0x978>
     ac2: 7a           	ply
     ac3: 85 13        	sta	$13                     ; 0x2013 <parse+0x979>
     ac5: b2 12        	lda	($12)                   ; 0x2012 <parse+0x978>
     ac7: 86 0f        	stx	$f                      ; 0x200f <parse+0x975>
     ac9: 18           	clc
     aca: 98           	tya
     acb: 69 0a        	adc	#$a
     acd: 85 15        	sta	$15                     ; 0x2015 <parse+0x97b>
     acf: a5 25        	lda	$25                     ; 0x2025 <parse+0x98b>
     ad1: 69 80        	adc	#$80
     ad3: 85 16        	sta	$16                     ; 0x2016 <parse+0x97c>
     ad5: a9 00        	lda	#$0
     ad7: 69 03        	adc	#$3
     ad9: 85 17        	sta	$17                     ; 0x2017 <parse+0x97d>
     adb: 18           	clc
     adc: 84 24        	sty	$24                     ; 0x2024 <parse+0x98a>
     ade: 98           	tya
     adf: 69 0b        	adc	#$b
     ae1: a8           	tay
     ae2: a5 25        	lda	$25                     ; 0x2025 <parse+0x98b>
     ae4: 69 80        	adc	#$80
     ae6: 85 13        	sta	$13                     ; 0x2013 <parse+0x979>
     ae8: a9 00        	lda	#$0
     aea: 69 03        	adc	#$3
     aec: a6 13        	ldx	$13                     ; 0x2013 <parse+0x979>
     aee: 86 12        	stx	$12                     ; 0x2012 <parse+0x978>
     af0: 06 12        	asl	$12                     ; 0x2012 <parse+0x978>
     af2: 2a           	rol
     af3: 06 12        	asl	$12                     ; 0x2012 <parse+0x978>
     af5: 2a           	rol
     af6: 06 12        	asl	$12                     ; 0x2012 <parse+0x978>
     af8: 2a           	rol
     af9: 58           	cli
     afa: a6 0f        	ldx	$f                      ; 0x200f <parse+0x975>
     afc: 78           	sei
     afd: 85 0f        	sta	$f                      ; 0x200f <parse+0x975>
     aff: 84 12        	sty	$12                     ; 0x2012 <parse+0x978>
     b01: a5 13        	lda	$13                     ; 0x2013 <parse+0x979>
     b03: 09 e0        	ora	#$e0
     b05: 85 13        	sta	$13                     ; 0x2013 <parse+0x979>
     b07: b2 12        	lda	($12)                   ; 0x2012 <parse+0x978>
     b09: a8           	tay
     b0a: 86 0f        	stx	$f                      ; 0x200f <parse+0x975>
     b0c: 58           	cli
     b0d: a5 16        	lda	$16                     ; 0x2016 <parse+0x97c>
     b0f: 0a           	asl
     b10: 26 17        	rol	$17                     ; 0x2017 <parse+0x97d>
     b12: 0a           	asl
     b13: 26 17        	rol	$17                     ; 0x2017 <parse+0x97d>
     b15: 0a           	asl
     b16: a5 17        	lda	$17                     ; 0x2017 <parse+0x97d>
     b18: 2a           	rol
     b19: a6 0f        	ldx	$f                      ; 0x200f <parse+0x975>
     b1b: 78           	sei
     b1c: 85 0f        	sta	$f                      ; 0x200f <parse+0x975>
     b1e: 84 12        	sty	$12                     ; 0x2012 <parse+0x978>
     b20: a5 16        	lda	$16                     ; 0x2016 <parse+0x97c>
     b22: 09 e0        	ora	#$e0
     b24: 5a           	phy
     b25: a4 15        	ldy	$15                     ; 0x2015 <parse+0x97b>
     b27: 84 14        	sty	$14                     ; 0x2014 <parse+0x97a>
     b29: 7a           	ply
     b2a: 85 15        	sta	$15                     ; 0x2015 <parse+0x97b>
     b2c: b2 14        	lda	($14)                   ; 0x2014 <parse+0x97a>
     b2e: 85 13        	sta	$13                     ; 0x2013 <parse+0x979>
     b30: 86 0f        	stx	$f                      ; 0x200f <parse+0x975>
     b32: 58           	cli
     b33: 84 6d        	sty	$6d                     ; 0x206d <parse+0x9d3>
     b35: 85 6e        	sta	$6e                     ; 0x206e <parse+0x9d4>
     b37: 84 73        	sty	$73                     ; 0x2073 <parse+0x9d9>
     b39: 85 74        	sta	$74                     ; 0x2074 <parse+0x9da>
     b3b: 98           	tya
     b3c: 0a           	asl
     b3d: aa           	tax
     b3e: a5 13        	lda	$13                     ; 0x2013 <parse+0x979>
     b40: 2a           	rol
     b41: 86 14        	stx	$14                     ; 0x2014 <parse+0x97a>
     b43: 06 14        	asl	$14                     ; 0x2014 <parse+0x97a>
     b45: 2a           	rol
     b46: 06 14        	asl	$14                     ; 0x2014 <parse+0x97a>
     b48: 2a           	rol
     b49: aa           	tax
     b4a: 38           	sec
     b4b: a5 14        	lda	$14                     ; 0x2014 <parse+0x97a>
     b4d: e5 12        	sbc	$12                     ; 0x2012 <parse+0x978>
     b4f: a8           	tay
     b50: 8a           	txa
     b51: e5 13        	sbc	$13                     ; 0x2013 <parse+0x979>
     b53: aa           	tax
     b54: 98           	tya
     b55: 20 53 2a     	jsr	$2a53 <malloc>
     b58: a6 12        	ldx	$12                     ; 0x2012 <parse+0x978>
     b5a: a4 13        	ldy	$13                     ; 0x2013 <parse+0x979>
     b5c: 86 75        	stx	$75                     ; 0x2075 <parse+0x9db>
     b5e: 84 76        	sty	$76                     ; 0x2076 <parse+0x9dc>
     b60: a6 6d        	ldx	$6d                     ; 0x206d <parse+0x9d3>
     b62: 86 12        	stx	$12                     ; 0x2012 <parse+0x978>
     b64: a5 6e        	lda	$6e                     ; 0x206e <parse+0x9d4>
     b66: 06 12        	asl	$12                     ; 0x2012 <parse+0x978>
     b68: 2a           	rol
     b69: aa           	tax
     b6a: a5 12        	lda	$12                     ; 0x2012 <parse+0x978>
     b6c: 20 53 2a     	jsr	$2a53 <malloc>
     b6f: a6 12        	ldx	$12                     ; 0x2012 <parse+0x978>
     b71: a4 13        	ldy	$13                     ; 0x2013 <parse+0x979>
     b73: 86 77        	stx	$77                     ; 0x2077 <parse+0x9dd>
     b75: 84 78        	sty	$78                     ; 0x2078 <parse+0x9de>
     b77: a6 6d        	ldx	$6d                     ; 0x206d <parse+0x9d3>
     b79: a4 6e        	ldy	$6e                     ; 0x206e <parse+0x9d4>
     b7b: d0 06        	bne	$b83 <f256main+0x330>
     b7d: 8a           	txa
     b7e: d0 03        	bne	$b83 <f256main+0x330>
     b80: 4c ff 0c     	jmp	$cff <f256main+0x4ac>
     b83: 18           	clc
     b84: a5 24        	lda	$24                     ; 0x2024 <parse+0x98a>
     b86: 69 0e        	adc	#$e
     b88: 85 17        	sta	$17                     ; 0x2017 <parse+0x97d>
     b8a: a5 25        	lda	$25                     ; 0x2025 <parse+0x98b>
     b8c: 69 00        	adc	#$0
     b8e: 85 14        	sta	$14                     ; 0x2014 <parse+0x97a>
     b90: a9 00        	lda	#$0
     b92: 69 00        	adc	#$0
     b94: 85 13        	sta	$13                     ; 0x2013 <parse+0x979>
     b96: a9 00        	lda	#$0
     b98: 69 00        	adc	#$0
     b9a: 85 18        	sta	$18                     ; 0x2018 <parse+0x97e>
     b9c: 64 16        	stz	$16                     ; 0x2016 <parse+0x97c>
     b9e: 64 15        	stz	$15                     ; 0x2015 <parse+0x97b>
     ba0: 64 1c        	stz	$1c                     ; 0x201c <parse+0x982>
     ba2: a2 00        	ldx	#$0
     ba4: a4 13        	ldy	$13                     ; 0x2013 <parse+0x979>
     ba6: 84 12        	sty	$12                     ; 0x2012 <parse+0x978>
     ba8: a4 14        	ldy	$14                     ; 0x2014 <parse+0x97a>
     baa: 84 13        	sty	$13                     ; 0x2013 <parse+0x979>
     bac: a4 17        	ldy	$17                     ; 0x2017 <parse+0x97d>
     bae: 84 14        	sty	$14                     ; 0x2014 <parse+0x97a>
     bb0: 18           	clc
     bb1: a4 16        	ldy	$16                     ; 0x2016 <parse+0x97c>
     bb3: a5 16        	lda	$16                     ; 0x2016 <parse+0x97c>
     bb5: 65 77        	adc	$77                     ; 0x2077 <parse+0x9dd>
     bb7: 85 16        	sta	$16                     ; 0x2016 <parse+0x97c>
     bb9: 84 19        	sty	$19                     ; 0x2019 <parse+0x97f>
     bbb: a4 15        	ldy	$15                     ; 0x2015 <parse+0x97b>
     bbd: 84 1a        	sty	$1a                     ; 0x201a <parse+0x980>
     bbf: a5 15        	lda	$15                     ; 0x2015 <parse+0x97b>
     bc1: 65 78        	adc	$78                     ; 0x2078 <parse+0x9de>
     bc3: 85 17        	sta	$17                     ; 0x2017 <parse+0x97d>
     bc5: a9 00        	lda	#$0
     bc7: 92 16        	sta	($16)                   ; 0x2016 <parse+0x97c>
     bc9: a0 01        	ldy	#$1
     bcb: 91 16        	sta	($16),y                 ; 0x2016 <parse+0x97c>
     bcd: a4 1c        	ldy	$1c                     ; 0x201c <parse+0x982>
     bcf: 84 15        	sty	$15                     ; 0x2015 <parse+0x97b>
     bd1: e6 15        	inc	$15                     ; 0x2015 <parse+0x97b>
     bd3: d0 01        	bne	$bd6 <f256main+0x383>
     bd5: e8           	inx
     bd6: a5 14        	lda	$14                     ; 0x2014 <parse+0x97a>
     bd8: 18           	clc
     bd9: 69 04        	adc	#$4
     bdb: 85 17        	sta	$17                     ; 0x2017 <parse+0x97d>
     bdd: a5 13        	lda	$13                     ; 0x2013 <parse+0x979>
     bdf: 69 80        	adc	#$80
     be1: 85 1b        	sta	$1b                     ; 0x201b <parse+0x981>
     be3: a5 12        	lda	$12                     ; 0x2012 <parse+0x978>
     be5: 69 03        	adc	#$3
     be7: a4 0f        	ldy	$f                      ; 0x200f <parse+0x975>
     be9: 78           	sei
     bea: 5a           	phy
     beb: a4 1b        	ldy	$1b                     ; 0x201b <parse+0x981>
     bed: 84 16        	sty	$16                     ; 0x2016 <parse+0x97c>
     bef: 06 16        	asl	$16                     ; 0x2016 <parse+0x97c>
     bf1: 2a           	rol
     bf2: 06 16        	asl	$16                     ; 0x2016 <parse+0x97c>
     bf4: 2a           	rol
     bf5: 06 16        	asl	$16                     ; 0x2016 <parse+0x97c>
     bf7: 2a           	rol
     bf8: 85 0f        	sta	$f                      ; 0x200f <parse+0x975>
     bfa: a5 1b        	lda	$1b                     ; 0x201b <parse+0x981>
     bfc: 09 e0        	ora	#$e0
     bfe: a4 17        	ldy	$17                     ; 0x2017 <parse+0x97d>
     c00: 84 16        	sty	$16                     ; 0x2016 <parse+0x97c>
     c02: 7a           	ply
     c03: 85 17        	sta	$17                     ; 0x2017 <parse+0x97d>
     c05: b2 16        	lda	($16)                   ; 0x2016 <parse+0x97c>
     c07: 84 0f        	sty	$f                      ; 0x200f <parse+0x975>
     c09: 58           	cli
     c0a: a5 14        	lda	$14                     ; 0x2014 <parse+0x97a>
     c0c: 18           	clc
     c0d: 69 05        	adc	#$5
     c0f: 85 17        	sta	$17                     ; 0x2017 <parse+0x97d>
     c11: a5 13        	lda	$13                     ; 0x2013 <parse+0x979>
     c13: 69 80        	adc	#$80
     c15: 85 1b        	sta	$1b                     ; 0x201b <parse+0x981>
     c17: a5 12        	lda	$12                     ; 0x2012 <parse+0x978>
     c19: 69 03        	adc	#$3
     c1b: a4 0f        	ldy	$f                      ; 0x200f <parse+0x975>
     c1d: 78           	sei
     c1e: 5a           	phy
     c1f: a4 1b        	ldy	$1b                     ; 0x201b <parse+0x981>
     c21: 84 16        	sty	$16                     ; 0x2016 <parse+0x97c>
     c23: 06 16        	asl	$16                     ; 0x2016 <parse+0x97c>
     c25: 2a           	rol
     c26: 06 16        	asl	$16                     ; 0x2016 <parse+0x97c>
     c28: 2a           	rol
     c29: 06 16        	asl	$16                     ; 0x2016 <parse+0x97c>
     c2b: 2a           	rol
     c2c: 85 0f        	sta	$f                      ; 0x200f <parse+0x975>
     c2e: a5 1b        	lda	$1b                     ; 0x201b <parse+0x981>
     c30: 09 e0        	ora	#$e0
     c32: a4 17        	ldy	$17                     ; 0x2017 <parse+0x97d>
     c34: 84 16        	sty	$16                     ; 0x2016 <parse+0x97c>
     c36: 7a           	ply
     c37: 85 17        	sta	$17                     ; 0x2017 <parse+0x97d>
     c39: b2 16        	lda	($16)                   ; 0x2016 <parse+0x97c>
     c3b: 85 1b        	sta	$1b                     ; 0x201b <parse+0x981>
     c3d: 84 0f        	sty	$f                      ; 0x200f <parse+0x975>
     c3f: 58           	cli
     c40: a5 14        	lda	$14                     ; 0x2014 <parse+0x97a>
     c42: 18           	clc
     c43: 69 06        	adc	#$6
     c45: 85 17        	sta	$17                     ; 0x2017 <parse+0x97d>
     c47: a5 13        	lda	$13                     ; 0x2013 <parse+0x979>
     c49: 69 80        	adc	#$80
     c4b: 85 1c        	sta	$1c                     ; 0x201c <parse+0x982>
     c4d: a5 12        	lda	$12                     ; 0x2012 <parse+0x978>
     c4f: 69 03        	adc	#$3
     c51: a4 0f        	ldy	$f                      ; 0x200f <parse+0x975>
     c53: 78           	sei
     c54: 5a           	phy
     c55: a4 1c        	ldy	$1c                     ; 0x201c <parse+0x982>
     c57: 84 16        	sty	$16                     ; 0x2016 <parse+0x97c>
     c59: 06 16        	asl	$16                     ; 0x2016 <parse+0x97c>
     c5b: 2a           	rol
     c5c: 06 16        	asl	$16                     ; 0x2016 <parse+0x97c>
     c5e: 2a           	rol
     c5f: 06 16        	asl	$16                     ; 0x2016 <parse+0x97c>
     c61: 2a           	rol
     c62: 85 0f        	sta	$f                      ; 0x200f <parse+0x975>
     c64: a5 1c        	lda	$1c                     ; 0x201c <parse+0x982>
     c66: 09 e0        	ora	#$e0
     c68: a4 17        	ldy	$17                     ; 0x2017 <parse+0x97d>
     c6a: 84 16        	sty	$16                     ; 0x2016 <parse+0x97c>
     c6c: 7a           	ply
     c6d: 85 17        	sta	$17                     ; 0x2017 <parse+0x97d>
     c6f: b2 16        	lda	($16)                   ; 0x2016 <parse+0x97c>
     c71: 85 1d        	sta	$1d                     ; 0x201d <parse+0x983>
     c73: 84 0f        	sty	$f                      ; 0x200f <parse+0x975>
     c75: 58           	cli
     c76: a5 14        	lda	$14                     ; 0x2014 <parse+0x97a>
     c78: 18           	clc
     c79: 69 07        	adc	#$7
     c7b: 85 17        	sta	$17                     ; 0x2017 <parse+0x97d>
     c7d: a5 13        	lda	$13                     ; 0x2013 <parse+0x979>
     c7f: 69 80        	adc	#$80
     c81: 85 1e        	sta	$1e                     ; 0x201e <parse+0x984>
     c83: a5 12        	lda	$12                     ; 0x2012 <parse+0x978>
     c85: 69 03        	adc	#$3
     c87: a4 1e        	ldy	$1e                     ; 0x201e <parse+0x984>
     c89: 84 16        	sty	$16                     ; 0x2016 <parse+0x97c>
     c8b: 06 16        	asl	$16                     ; 0x2016 <parse+0x97c>
     c8d: 2a           	rol
     c8e: 06 16        	asl	$16                     ; 0x2016 <parse+0x97c>
     c90: 2a           	rol
     c91: 06 16        	asl	$16                     ; 0x2016 <parse+0x97c>
     c93: 2a           	rol
     c94: a4 0f        	ldy	$f                      ; 0x200f <parse+0x975>
     c96: 78           	sei
     c97: 85 0f        	sta	$f                      ; 0x200f <parse+0x975>
     c99: a5 15        	lda	$15                     ; 0x2015 <parse+0x97b>
     c9b: 85 1c        	sta	$1c                     ; 0x201c <parse+0x982>
     c9d: a5 17        	lda	$17                     ; 0x2017 <parse+0x97d>
     c9f: 85 16        	sta	$16                     ; 0x2016 <parse+0x97c>
     ca1: a5 1e        	lda	$1e                     ; 0x201e <parse+0x984>
     ca3: 09 e0        	ora	#$e0
     ca5: 85 17        	sta	$17                     ; 0x2017 <parse+0x97d>
     ca7: b2 16        	lda	($16)                   ; 0x2016 <parse+0x97c>
     ca9: 84 0f        	sty	$f                      ; 0x200f <parse+0x975>
     cab: 58           	cli
     cac: 18           	clc
     cad: 65 14        	adc	$14                     ; 0x2014 <parse+0x97a>
     caf: 85 14        	sta	$14                     ; 0x2014 <parse+0x97a>
     cb1: a5 1d        	lda	$1d                     ; 0x201d <parse+0x983>
     cb3: 65 13        	adc	$13                     ; 0x2013 <parse+0x979>
     cb5: a8           	tay
     cb6: a5 1b        	lda	$1b                     ; 0x201b <parse+0x981>
     cb8: 65 12        	adc	$12                     ; 0x2012 <parse+0x978>
     cba: 85 12        	sta	$12                     ; 0x2012 <parse+0x978>
     cbc: a5 18        	lda	$18                     ; 0x2018 <parse+0x97e>
     cbe: 69 00        	adc	#$0
     cc0: 85 15        	sta	$15                     ; 0x2015 <parse+0x97b>
     cc2: 18           	clc
     cc3: a5 14        	lda	$14                     ; 0x2014 <parse+0x97a>
     cc5: 69 08        	adc	#$8
     cc7: 85 17        	sta	$17                     ; 0x2017 <parse+0x97d>
     cc9: 98           	tya
     cca: 69 00        	adc	#$0
     ccc: 85 14        	sta	$14                     ; 0x2014 <parse+0x97a>
     cce: a5 12        	lda	$12                     ; 0x2012 <parse+0x978>
     cd0: 69 00        	adc	#$0
     cd2: 85 13        	sta	$13                     ; 0x2013 <parse+0x979>
     cd4: a5 15        	lda	$15                     ; 0x2015 <parse+0x97b>
     cd6: 69 00        	adc	#$0
     cd8: 85 18        	sta	$18                     ; 0x2018 <parse+0x97e>
     cda: a5 19        	lda	$19                     ; 0x2019 <parse+0x97f>
     cdc: 18           	clc
     cdd: 69 02        	adc	#$2
     cdf: 85 16        	sta	$16                     ; 0x2016 <parse+0x97c>
     ce1: a5 1a        	lda	$1a                     ; 0x201a <parse+0x980>
     ce3: 69 00        	adc	#$0
     ce5: 85 15        	sta	$15                     ; 0x2015 <parse+0x97b>
     ce7: e4 6e        	cpx	$6e                     ; 0x206e <parse+0x9d4>
     ce9: d0 0d        	bne	$cf8 <f256main+0x4a5>
     ceb: a4 6d        	ldy	$6d                     ; 0x206d <parse+0x9d3>
     ced: 84 12        	sty	$12                     ; 0x2012 <parse+0x978>
     cef: a4 1c        	ldy	$1c                     ; 0x201c <parse+0x982>
     cf1: c4 12        	cpy	$12                     ; 0x2012 <parse+0x978>
     cf3: b0 0a        	bcs	$cff <f256main+0x4ac>
     cf5: 4c a4 0b     	jmp	$ba4 <f256main+0x351>
     cf8: e4 6e        	cpx	$6e                     ; 0x206e <parse+0x9d4>
     cfa: b0 03        	bcs	$cff <f256main+0x4ac>
     cfc: 4c a4 0b     	jmp	$ba4 <f256main+0x351>
     cff: a6 73        	ldx	$73                     ; 0x2073 <parse+0x9d9>
     d01: 86 12        	stx	$12                     ; 0x2012 <parse+0x978>
     d03: a6 74        	ldx	$74                     ; 0x2074 <parse+0x9da>
     d05: 86 13        	stx	$13                     ; 0x2013 <parse+0x979>
     d07: a5 13        	lda	$13                     ; 0x2013 <parse+0x979>
     d09: d0 07        	bne	$d12 <f256main+0x4bf>
     d0b: a5 12        	lda	$12                     ; 0x2012 <parse+0x978>
     d0d: d0 03        	bne	$d12 <f256main+0x4bf>
     d0f: 4c 9b 0d     	jmp	$d9b <f256main+0x548>
     d12: a6 75        	ldx	$75                     ; 0x2075 <parse+0x9db>
     d14: a4 76        	ldy	$76                     ; 0x2076 <parse+0x9dc>
     d16: 86 16        	stx	$16                     ; 0x2016 <parse+0x97c>
     d18: 84 17        	sty	$17                     ; 0x2017 <parse+0x97d>
     d1a: 64 1b        	stz	$1b                     ; 0x201b <parse+0x981>
     d1c: a2 00        	ldx	#$0
     d1e: 64 15        	stz	$15                     ; 0x2015 <parse+0x97b>
     d20: 64 14        	stz	$14                     ; 0x2014 <parse+0x97a>
     d22: a4 16        	ldy	$16                     ; 0x2016 <parse+0x97c>
     d24: 84 18        	sty	$18                     ; 0x2018 <parse+0x97e>
     d26: a4 17        	ldy	$17                     ; 0x2017 <parse+0x97d>
     d28: 84 19        	sty	$19                     ; 0x2019 <parse+0x97f>
     d2a: 18           	clc
     d2b: a5 16        	lda	$16                     ; 0x2016 <parse+0x97c>
     d2d: 69 03        	adc	#$3
     d2f: 85 1a        	sta	$1a                     ; 0x201a <parse+0x980>
     d31: a5 17        	lda	$17                     ; 0x2017 <parse+0x97d>
     d33: 69 00        	adc	#$0
     d35: 85 1e        	sta	$1e                     ; 0x201e <parse+0x984>
     d37: e6 18        	inc	$18                     ; 0x2018 <parse+0x97e>
     d39: d0 02        	bne	$d3d <f256main+0x4ea>
     d3b: e6 19        	inc	$19                     ; 0x2019 <parse+0x97f>
     d3d: a9 00        	lda	#$0
     d3f: a0 01        	ldy	#$1
     d41: 91 18        	sta	($18),y                 ; 0x2018 <parse+0x97e>
     d43: a5 1b        	lda	$1b                     ; 0x201b <parse+0x981>
     d45: 92 16        	sta	($16)                   ; 0x2016 <parse+0x97c>
     d47: 85 18        	sta	$18                     ; 0x2018 <parse+0x97e>
     d49: a9 00        	lda	#$0
     d4b: 91 16        	sta	($16),y                 ; 0x2016 <parse+0x97c>
     d4d: a4 1e        	ldy	$1e                     ; 0x201e <parse+0x984>
     d4f: 84 1b        	sty	$1b                     ; 0x201b <parse+0x981>
     d51: a0 03        	ldy	#$3
     d53: 91 16        	sta	($16),y                 ; 0x2016 <parse+0x97c>
     d55: a0 01        	ldy	#$1
     d57: 91 1a        	sta	($1a),y                 ; 0x201a <parse+0x980>
     d59: c8           	iny
     d5a: 91 1a        	sta	($1a),y                 ; 0x201a <parse+0x980>
     d5c: c8           	iny
     d5d: 91 1a        	sta	($1a),y                 ; 0x201a <parse+0x980>
     d5f: 18           	clc
     d60: a5 16        	lda	$16                     ; 0x2016 <parse+0x97c>
     d62: 69 07        	adc	#$7
     d64: 85 16        	sta	$16                     ; 0x2016 <parse+0x97c>
     d66: a5 17        	lda	$17                     ; 0x2017 <parse+0x97d>
     d68: 69 00        	adc	#$0
     d6a: e6 18        	inc	$18                     ; 0x2018 <parse+0x97e>
     d6c: d0 09        	bne	$d77 <f256main+0x524>
     d6e: e8           	inx
     d6f: d0 06        	bne	$d77 <f256main+0x524>
     d71: e6 15        	inc	$15                     ; 0x2015 <parse+0x97b>
     d73: d0 02        	bne	$d77 <f256main+0x524>
     d75: e6 14        	inc	$14                     ; 0x2014 <parse+0x97a>
     d77: a4 18        	ldy	$18                     ; 0x2018 <parse+0x97e>
     d79: 84 1b        	sty	$1b                     ; 0x201b <parse+0x981>
     d7b: 85 17        	sta	$17                     ; 0x2017 <parse+0x97d>
     d7d: a5 14        	lda	$14                     ; 0x2014 <parse+0x97a>
     d7f: f0 03        	beq	$d84 <f256main+0x531>
     d81: 4c 22 0d     	jmp	$d22 <f256main+0x4cf>
     d84: a5 15        	lda	$15                     ; 0x2015 <parse+0x97b>
     d86: f0 03        	beq	$d8b <f256main+0x538>
     d88: 4c 22 0d     	jmp	$d22 <f256main+0x4cf>
     d8b: e4 13        	cpx	$13                     ; 0x2013 <parse+0x979>
     d8d: f0 03        	beq	$d92 <f256main+0x53f>
     d8f: 4c 22 0d     	jmp	$d22 <f256main+0x4cf>
     d92: a4 18        	ldy	$18                     ; 0x2018 <parse+0x97e>
     d94: c4 12        	cpy	$12                     ; 0x2012 <parse+0x978>
     d96: f0 03        	beq	$d9b <f256main+0x548>
     d98: 4c 22 0d     	jmp	$d22 <f256main+0x4cf>
     d9b: a4 24        	ldy	$24                     ; 0x2024 <parse+0x98a>
     d9d: a6 25        	ldx	$25                     ; 0x2025 <parse+0x98b>
     d9f: 64 12        	stz	$12                     ; 0x2012 <parse+0x978>
     da1: 84 24        	sty	$24                     ; 0x2024 <parse+0x98a>
     da3: 86 25        	stx	$25                     ; 0x2025 <parse+0x98b>
     da5: 98           	tya
     da6: 20 9a 16     	jsr	$169a <parse>
     da9: 20 d4 27     	jsr	$27d4 <adjustOffsets>
     dac: a2 01        	ldx	#$1
     dae: 86 12        	stx	$12                     ; 0x2012 <parse+0x978>
     db0: a6 25        	ldx	$25                     ; 0x2025 <parse+0x98b>
     db2: a5 24        	lda	$24                     ; 0x2024 <parse+0x98a>
     db4: 20 9a 16     	jsr	$169a <parse>
     db7: a6 73        	ldx	$73                     ; 0x2073 <parse+0x9d9>
     db9: 86 16        	stx	$16                     ; 0x2016 <parse+0x97c>
     dbb: a5 74        	lda	$74                     ; 0x2074 <parse+0x9da>
     dbd: 85 12        	sta	$12                     ; 0x2012 <parse+0x978>
     dbf: a5 16        	lda	$16                     ; 0x2016 <parse+0x97c>
     dc1: a0 04        	ldy	#$4
     dc3: 91 10        	sta	($10),y                 ; 0x2010 <parse+0x976>
     dc5: 0a           	asl
     dc6: 48           	pha
     dc7: a5 12        	lda	$12                     ; 0x2012 <parse+0x978>
     dc9: a0 07        	ldy	#$7
     dcb: 91 10        	sta	($10),y                 ; 0x2010 <parse+0x976>
     dcd: 68           	pla
     dce: 26 12        	rol	$12                     ; 0x2012 <parse+0x978>
     dd0: 0a           	asl
     dd1: 26 12        	rol	$12                     ; 0x2012 <parse+0x978>
     dd3: a6 12        	ldx	$12                     ; 0x2012 <parse+0x978>
     dd5: 20 53 2a     	jsr	$2a53 <malloc>
     dd8: a6 73        	ldx	$73                     ; 0x2073 <parse+0x9d9>
     dda: a4 74        	ldy	$74                     ; 0x2074 <parse+0x9da>
     ddc: 64 16        	stz	$16                     ; 0x2016 <parse+0x97c>
     dde: a9 00        	lda	#$0
     de0: c0 00        	cpy	#$0
     de2: d0 04        	bne	$de8 <f256main+0x595>
     de4: e0 00        	cpx	#$0
     de6: f0 d5        	beq	$dbd <f256main+0x56a>
     de8: 5a           	phy
     de9: a4 12        	ldy	$12                     ; 0x2012 <parse+0x978>
     deb: 84 1a        	sty	$1a                     ; 0x201a <parse+0x980>
     ded: a4 13        	ldy	$13                     ; 0x2013 <parse+0x979>
     def: 84 1b        	sty	$1b                     ; 0x201b <parse+0x981>
     df1: a5 75        	lda	$75                     ; 0x2075 <parse+0x9db>
     df3: 85 14        	sta	$14                     ; 0x2014 <parse+0x97a>
     df5: a5 76        	lda	$76                     ; 0x2076 <parse+0x9dc>
     df7: 85 15        	sta	$15                     ; 0x2015 <parse+0x97b>
     df9: a4 14        	ldy	$14                     ; 0x2014 <parse+0x97a>
     dfb: 84 16        	sty	$16                     ; 0x2016 <parse+0x97c>
     dfd: 7a           	ply
     dfe: 85 17        	sta	$17                     ; 0x2017 <parse+0x97d>
     e00: e6 16        	inc	$16                     ; 0x2016 <parse+0x97c>
     e02: d0 02        	bne	$e06 <f256main+0x5b3>
     e04: e6 17        	inc	$17                     ; 0x2017 <parse+0x97d>
     e06: a9 00        	lda	#$0
     e08: 86 18        	stx	$18                     ; 0x2018 <parse+0x97e>
     e0a: 84 19        	sty	$19                     ; 0x2019 <parse+0x97f>
     e0c: 84 12        	sty	$12                     ; 0x2012 <parse+0x978>
     e0e: 64 1c        	stz	$1c                     ; 0x201c <parse+0x982>
     e10: a0 01        	ldy	#$1
     e12: 18           	clc
     e13: 72 16        	adc	($16)                   ; 0x2016 <parse+0x97c>
     e15: 85 2e        	sta	$2e                     ; 0x202e <parse+0x994>
     e17: a5 1c        	lda	$1c                     ; 0x201c <parse+0x982>
     e19: 71 16        	adc	($16),y                 ; 0x2016 <parse+0x97c>
     e1b: 85 1c        	sta	$1c                     ; 0x201c <parse+0x982>
     e1d: a5 16        	lda	$16                     ; 0x2016 <parse+0x97c>
     e1f: 18           	clc
     e20: 69 07        	adc	#$7
     e22: 85 16        	sta	$16                     ; 0x2016 <parse+0x97c>
     e24: a5 17        	lda	$17                     ; 0x2017 <parse+0x97d>
     e26: 69 00        	adc	#$0
     e28: 85 17        	sta	$17                     ; 0x2017 <parse+0x97d>
     e2a: ca           	dex
     e2b: e0 ff        	cpx	#$ff
     e2d: d0 02        	bne	$e31 <f256main+0x5de>
     e2f: c6 12        	dec	$12                     ; 0x2012 <parse+0x978>
     e31: a5 2e        	lda	$2e                     ; 0x202e <parse+0x994>
     e33: e6 12        	inc	$12                     ; 0x2012 <parse+0x978>
     e35: c6 12        	dec	$12                     ; 0x2012 <parse+0x978>
     e37: d0 d9        	bne	$e12 <f256main+0x5bf>
     e39: e0 00        	cpx	#$0
     e3b: d0 d5        	bne	$e12 <f256main+0x5bf>
     e3d: 48           	pha
     e3e: a5 1c        	lda	$1c                     ; 0x201c <parse+0x982>
     e40: a0 03        	ldy	#$3
     e42: 91 10        	sta	($10),y                 ; 0x2010 <parse+0x976>
     e44: 68           	pla
     e45: a6 18        	ldx	$18                     ; 0x2018 <parse+0x97e>
     e47: a4 19        	ldy	$19                     ; 0x2019 <parse+0x97f>
     e49: e6 1c        	inc	$1c                     ; 0x201c <parse+0x982>
     e4b: c6 1c        	dec	$1c                     ; 0x201c <parse+0x982>
     e4d: d0 07        	bne	$e56 <f256main+0x603>
     e4f: c9 00        	cmp	#$0
     e51: d0 03        	bne	$e56 <f256main+0x603>
     e53: 4c 21 16     	jmp	$1621 <f256main+0xdce>
     e56: a5 1a        	lda	$1a                     ; 0x201a <parse+0x980>
     e58: a0 05        	ldy	#$5
     e5a: 91 10        	sta	($10),y                 ; 0x2010 <parse+0x976>
     e5c: a5 1b        	lda	$1b                     ; 0x201b <parse+0x981>
     e5e: c8           	iny
     e5f: 91 10        	sta	($10),y                 ; 0x2010 <parse+0x976>
     e61: a0 01        	ldy	#$1
     e63: 5a           	phy
     e64: a0 04        	ldy	#$4
     e66: b1 10        	lda	($10),y                 ; 0x2010 <parse+0x976>
     e68: 85 12        	sta	$12                     ; 0x2012 <parse+0x978>
     e6a: a0 07        	ldy	#$7
     e6c: b1 10        	lda	($10),y                 ; 0x2010 <parse+0x976>
     e6e: 7a           	ply
     e6f: 85 13        	sta	$13                     ; 0x2013 <parse+0x979>
     e71: a5 13        	lda	$13                     ; 0x2013 <parse+0x979>
     e73: d0 07        	bne	$e7c <f256main+0x629>
     e75: a5 12        	lda	$12                     ; 0x2012 <parse+0x978>
     e77: d0 03        	bne	$e7c <f256main+0x629>
     e79: 4c a4 0f     	jmp	$fa4 <f256main+0x751>
     e7c: a2 03        	ldx	#$3
     e7e: 64 1a        	stz	$1a                     ; 0x201a <parse+0x980>
     e80: 5a           	phy
     e81: a0 05        	ldy	#$5
     e83: b1 10        	lda	($10),y                 ; 0x2010 <parse+0x976>
     e85: 85 12        	sta	$12                     ; 0x2012 <parse+0x978>
     e87: c8           	iny
     e88: b1 10        	lda	($10),y                 ; 0x2010 <parse+0x976>
     e8a: 85 13        	sta	$13                     ; 0x2013 <parse+0x979>
     e8c: a0 04        	ldy	#$4
     e8e: b1 10        	lda	($10),y                 ; 0x2010 <parse+0x976>
     e90: 85 16        	sta	$16                     ; 0x2016 <parse+0x97c>
     e92: a0 07        	ldy	#$7
     e94: b1 10        	lda	($10),y                 ; 0x2010 <parse+0x976>
     e96: 7a           	ply
     e97: 85 17        	sta	$17                     ; 0x2017 <parse+0x97d>
     e99: 8a           	txa
     e9a: 18           	clc
     e9b: 65 14        	adc	$14                     ; 0x2014 <parse+0x97a>
     e9d: 85 18        	sta	$18                     ; 0x2018 <parse+0x97e>
     e9f: 86 1c        	stx	$1c                     ; 0x201c <parse+0x982>
     ea1: a6 1a        	ldx	$1a                     ; 0x201a <parse+0x980>
     ea3: 86 1b        	stx	$1b                     ; 0x201b <parse+0x981>
     ea5: a5 1a        	lda	$1a                     ; 0x201a <parse+0x980>
     ea7: 65 15        	adc	$15                     ; 0x2015 <parse+0x97b>
     ea9: aa           	tax
     eaa: 18           	clc
     eab: a5 18        	lda	$18                     ; 0x2018 <parse+0x97e>
     ead: 69 fe        	adc	#$fe
     eaf: 85 18        	sta	$18                     ; 0x2018 <parse+0x97e>
     eb1: 8a           	txa
     eb2: 69 ff        	adc	#$ff
     eb4: 85 19        	sta	$19                     ; 0x2019 <parse+0x97f>
     eb6: b2 18        	lda	($18)                   ; 0x2018 <parse+0x97e>
     eb8: 85 1a        	sta	$1a                     ; 0x201a <parse+0x980>
     eba: b1 18        	lda	($18),y                 ; 0x2018 <parse+0x97e>
     ebc: d0 07        	bne	$ec5 <f256main+0x672>
     ebe: a5 1a        	lda	$1a                     ; 0x201a <parse+0x980>
     ec0: d0 03        	bne	$ec5 <f256main+0x672>
     ec2: 4c 9a 0f     	jmp	$f9a <f256main+0x747>
     ec5: a5 1c        	lda	$1c                     ; 0x201c <parse+0x982>
     ec7: 18           	clc
     ec8: 65 14        	adc	$14                     ; 0x2014 <parse+0x97a>
     eca: 85 14        	sta	$14                     ; 0x2014 <parse+0x97a>
     ecc: a5 1b        	lda	$1b                     ; 0x201b <parse+0x981>
     ece: 65 15        	adc	$15                     ; 0x2015 <parse+0x97b>
     ed0: 85 15        	sta	$15                     ; 0x2015 <parse+0x97b>
     ed2: b2 14        	lda	($14)                   ; 0x2014 <parse+0x97a>
     ed4: aa           	tax
     ed5: a0 01        	ldy	#$1
     ed7: b1 14        	lda	($14),y                 ; 0x2014 <parse+0x97a>
     ed9: 85 18        	sta	$18                     ; 0x2018 <parse+0x97e>
     edb: c8           	iny
     edc: b1 14        	lda	($14),y                 ; 0x2014 <parse+0x97a>
     ede: 85 19        	sta	$19                     ; 0x2019 <parse+0x97f>
     ee0: 8a           	txa
     ee1: 18           	clc
     ee2: 69 00        	adc	#$0
     ee4: a5 18        	lda	$18                     ; 0x2018 <parse+0x97e>
     ee6: 69 80        	adc	#$80
     ee8: 85 14        	sta	$14                     ; 0x2014 <parse+0x97a>
     eea: a5 19        	lda	$19                     ; 0x2019 <parse+0x97f>
     eec: 69 05        	adc	#$5
     eee: 06 14        	asl	$14                     ; 0x2014 <parse+0x97a>
     ef0: 2a           	rol
     ef1: 06 14        	asl	$14                     ; 0x2014 <parse+0x97a>
     ef3: 2a           	rol
     ef4: a4 0f        	ldy	$f                      ; 0x200f <parse+0x975>
     ef6: 84 1e        	sty	$1e                     ; 0x201e <parse+0x984>
     ef8: 78           	sei
     ef9: 06 14        	asl	$14                     ; 0x2014 <parse+0x97a>
     efb: 2a           	rol
     efc: 85 0f        	sta	$f                      ; 0x200f <parse+0x975>
     efe: a5 18        	lda	$18                     ; 0x2018 <parse+0x97e>
     f00: 09 e0        	ora	#$e0
     f02: 86 14        	stx	$14                     ; 0x2014 <parse+0x97a>
     f04: 85 15        	sta	$15                     ; 0x2015 <parse+0x97b>
     f06: b2 14        	lda	($14)                   ; 0x2014 <parse+0x97a>
     f08: 85 1a        	sta	$1a                     ; 0x201a <parse+0x980>
     f0a: a0 01        	ldy	#$1
     f0c: b1 14        	lda	($14),y                 ; 0x2014 <parse+0x97a>
     f0e: 85 1d        	sta	$1d                     ; 0x201d <parse+0x983>
     f10: a4 1e        	ldy	$1e                     ; 0x201e <parse+0x984>
     f12: 84 0f        	sty	$f                      ; 0x200f <parse+0x975>
     f14: 58           	cli
     f15: 18           	clc
     f16: 8a           	txa
     f17: 69 02        	adc	#$2
     f19: 85 14        	sta	$14                     ; 0x2014 <parse+0x97a>
     f1b: a5 18        	lda	$18                     ; 0x2018 <parse+0x97e>
     f1d: 69 80        	adc	#$80
     f1f: 85 15        	sta	$15                     ; 0x2015 <parse+0x97b>
     f21: a5 19        	lda	$19                     ; 0x2019 <parse+0x97f>
     f23: 69 05        	adc	#$5
     f25: 85 18        	sta	$18                     ; 0x2018 <parse+0x97e>
     f27: a5 15        	lda	$15                     ; 0x2015 <parse+0x97b>
     f29: 0a           	asl
     f2a: 26 18        	rol	$18                     ; 0x2018 <parse+0x97e>
     f2c: 0a           	asl
     f2d: 26 18        	rol	$18                     ; 0x2018 <parse+0x97e>
     f2f: 0a           	asl
     f30: a5 18        	lda	$18                     ; 0x2018 <parse+0x97e>
     f32: 2a           	rol
     f33: a6 0f        	ldx	$f                      ; 0x200f <parse+0x975>
     f35: 78           	sei
     f36: 85 0f        	sta	$f                      ; 0x200f <parse+0x975>
     f38: a5 15        	lda	$15                     ; 0x2015 <parse+0x97b>
     f3a: 09 e0        	ora	#$e0
     f3c: 85 15        	sta	$15                     ; 0x2015 <parse+0x97b>
     f3e: b2 14        	lda	($14)                   ; 0x2014 <parse+0x97a>
     f40: 85 18        	sta	$18                     ; 0x2018 <parse+0x97e>
     f42: a0 01        	ldy	#$1
     f44: b1 14        	lda	($14),y                 ; 0x2014 <parse+0x97a>
     f46: 85 19        	sta	$19                     ; 0x2019 <parse+0x97f>
     f48: 86 0f        	stx	$f                      ; 0x200f <parse+0x975>
     f4a: 58           	cli
     f4b: a6 75        	ldx	$75                     ; 0x2075 <parse+0x9db>
     f4d: 86 14        	stx	$14                     ; 0x2014 <parse+0x97a>
     f4f: a6 76        	ldx	$76                     ; 0x2076 <parse+0x9dc>
     f51: 86 15        	stx	$15                     ; 0x2015 <parse+0x97b>
     f53: a5 18        	lda	$18                     ; 0x2018 <parse+0x97e>
     f55: 92 12        	sta	($12)                   ; 0x2012 <parse+0x978>
     f57: a5 19        	lda	$19                     ; 0x2019 <parse+0x97f>
     f59: a0 01        	ldy	#$1
     f5b: 91 12        	sta	($12),y                 ; 0x2012 <parse+0x978>
     f5d: c8           	iny
     f5e: a5 1a        	lda	$1a                     ; 0x201a <parse+0x980>
     f60: 91 12        	sta	($12),y                 ; 0x2012 <parse+0x978>
     f62: c8           	iny
     f63: a5 1d        	lda	$1d                     ; 0x201d <parse+0x983>
     f65: 91 12        	sta	($12),y                 ; 0x2012 <parse+0x978>
     f67: a5 12        	lda	$12                     ; 0x2012 <parse+0x978>
     f69: 18           	clc
     f6a: 69 04        	adc	#$4
     f6c: 85 12        	sta	$12                     ; 0x2012 <parse+0x978>
     f6e: a5 13        	lda	$13                     ; 0x2013 <parse+0x979>
     f70: 69 00        	adc	#$0
     f72: a2 ff        	ldx	#$ff
     f74: c6 16        	dec	$16                     ; 0x2016 <parse+0x97c>
     f76: e4 16        	cpx	$16                     ; 0x2016 <parse+0x97c>
     f78: d0 02        	bne	$f7c <f256main+0x729>
     f7a: c6 17        	dec	$17                     ; 0x2017 <parse+0x97d>
     f7c: 85 13        	sta	$13                     ; 0x2013 <parse+0x979>
     f7e: 18           	clc
     f7f: a5 1c        	lda	$1c                     ; 0x201c <parse+0x982>
     f81: 69 07        	adc	#$7
     f83: aa           	tax
     f84: a5 1b        	lda	$1b                     ; 0x201b <parse+0x981>
     f86: 69 00        	adc	#$0
     f88: a0 01        	ldy	#$1
     f8a: 85 1a        	sta	$1a                     ; 0x201a <parse+0x980>
     f8c: a5 17        	lda	$17                     ; 0x2017 <parse+0x97d>
     f8e: f0 03        	beq	$f93 <f256main+0x740>
     f90: 4c 99 0e     	jmp	$e99 <f256main+0x646>
     f93: a5 16        	lda	$16                     ; 0x2016 <parse+0x97c>
     f95: f0 0d        	beq	$fa4 <f256main+0x751>
     f97: 4c 99 0e     	jmp	$e99 <f256main+0x646>
     f9a: 64 18        	stz	$18                     ; 0x2018 <parse+0x97e>
     f9c: 64 19        	stz	$19                     ; 0x2019 <parse+0x97f>
     f9e: 64 1a        	stz	$1a                     ; 0x201a <parse+0x980>
     fa0: 64 1d        	stz	$1d                     ; 0x201d <parse+0x983>
     fa2: 80 af        	bra	$f53 <f256main+0x700>
     fa4: 64 26        	stz	$26                     ; 0x2026 <parse+0x98c>
     fa6: 64 27        	stz	$27                     ; 0x2027 <parse+0x98d>
     fa8: a0 04        	ldy	#$4
     faa: b1 10        	lda	($10),y                 ; 0x2010 <parse+0x976>
     fac: 85 12        	sta	$12                     ; 0x2012 <parse+0x978>
     fae: a0 07        	ldy	#$7
     fb0: b1 10        	lda	($10),y                 ; 0x2010 <parse+0x976>
     fb2: 85 13        	sta	$13                     ; 0x2013 <parse+0x979>
     fb4: a5 13        	lda	$13                     ; 0x2013 <parse+0x979>
     fb6: d0 07        	bne	$fbf <f256main+0x76c>
     fb8: a5 12        	lda	$12                     ; 0x2012 <parse+0x978>
     fba: d0 03        	bne	$fbf <f256main+0x76c>
     fbc: 4c 72 12     	jmp	$1272 <f256main+0xa1f>
     fbf: a6 77        	ldx	$77                     ; 0x2077 <parse+0x9dd>
     fc1: a4 78        	ldy	$78                     ; 0x2078 <parse+0x9de>
     fc3: 86 16        	stx	$16                     ; 0x2016 <parse+0x97c>
     fc5: 84 17        	sty	$17                     ; 0x2017 <parse+0x97d>
     fc7: a6 75        	ldx	$75                     ; 0x2075 <parse+0x9db>
     fc9: a4 76        	ldy	$76                     ; 0x2076 <parse+0x9dc>
     fcb: 86 14        	stx	$14                     ; 0x2014 <parse+0x97a>
     fcd: 84 15        	sty	$15                     ; 0x2015 <parse+0x97b>
     fcf: a2 ff        	ldx	#$ff
     fd1: 64 12        	stz	$12                     ; 0x2012 <parse+0x978>
     fd3: a0 05        	ldy	#$5
     fd5: b1 10        	lda	($10),y                 ; 0x2010 <parse+0x976>
     fd7: 85 18        	sta	$18                     ; 0x2018 <parse+0x97e>
     fd9: c8           	iny
     fda: b1 10        	lda	($10),y                 ; 0x2010 <parse+0x976>
     fdc: 85 19        	sta	$19                     ; 0x2019 <parse+0x97f>
     fde: 64 13        	stz	$13                     ; 0x2013 <parse+0x979>
     fe0: 86 28        	stx	$28                     ; 0x2028 <parse+0x98e>
     fe2: 86 2f        	stx	$2f                     ; 0x202f <parse+0x995>
     fe4: 86 2a        	stx	$2a                     ; 0x202a <parse+0x990>
     fe6: 86 2b        	stx	$2b                     ; 0x202b <parse+0x991>
     fe8: a0 01        	ldy	#$1
     fea: b2 16        	lda	($16)                   ; 0x2016 <parse+0x97c>
     fec: 85 1f        	sta	$1f                     ; 0x201f <parse+0x985>
     fee: b1 16        	lda	($16),y                 ; 0x2016 <parse+0x97c>
     ff0: a6 14        	ldx	$14                     ; 0x2014 <parse+0x97a>
     ff2: 86 1a        	stx	$1a                     ; 0x201a <parse+0x980>
     ff4: a6 15        	ldx	$15                     ; 0x2015 <parse+0x97b>
     ff6: 86 1b        	stx	$1b                     ; 0x201b <parse+0x981>
     ff8: e6 1a        	inc	$1a                     ; 0x201a <parse+0x980>
     ffa: d0 02        	bne	$ffe <f256main+0x7ab>
     ffc: e6 1b        	inc	$1b                     ; 0x201b <parse+0x981>
     ffe: d1 1a        	cmp	($1a),y                 ; 0x201a <parse+0x980>
    1000: d0 0f        	bne	$1011 <f256main+0x7be>
    1002: aa           	tax
    1003: b1 14        	lda	($14),y                 ; 0x2014 <parse+0x97a>
    1005: 85 1a        	sta	$1a                     ; 0x201a <parse+0x980>
    1007: 8a           	txa
    1008: a6 1f        	ldx	$1f                     ; 0x201f <parse+0x985>
    100a: e4 1a        	cpx	$1a                     ; 0x201a <parse+0x980>
    100c: 90 0a        	bcc	$1018 <f256main+0x7c5>
    100e: 4c fa 10     	jmp	$10fa <f256main+0x8a7>
    1011: d1 1a        	cmp	($1a),y                 ; 0x201a <parse+0x980>
    1013: 90 03        	bcc	$1018 <f256main+0x7c5>
    1015: 4c fa 10     	jmp	$10fa <f256main+0x8a7>
    1018: 85 1b        	sta	$1b                     ; 0x201b <parse+0x981>
    101a: b2 18        	lda	($18)                   ; 0x2018 <parse+0x97e>
    101c: aa           	tax
    101d: a0 01        	ldy	#$1
    101f: b1 18        	lda	($18),y                 ; 0x2018 <parse+0x97e>
    1021: 85 23        	sta	$23                     ; 0x2023 <parse+0x989>
    1023: a4 1f        	ldy	$1f                     ; 0x201f <parse+0x985>
    1025: 84 1a        	sty	$1a                     ; 0x201a <parse+0x980>
    1027: 06 1a        	asl	$1a                     ; 0x201a <parse+0x980>
    1029: a4 1b        	ldy	$1b                     ; 0x201b <parse+0x981>
    102b: 84 1f        	sty	$1f                     ; 0x201f <parse+0x985>
    102d: 26 1f        	rol	$1f                     ; 0x201f <parse+0x985>
    102f: a9 00        	lda	#$0
    1031: 2a           	rol
    1032: 2c 9f 2f     	bit	$2f9f                   ; 0x2f9f <__set_v>
    1035: b0 01        	bcs	$1038 <f256main+0x7e5>
    1037: b8           	clv
    1038: 06 1a        	asl	$1a                     ; 0x201a <parse+0x980>
    103a: 26 1f        	rol	$1f                     ; 0x201f <parse+0x985>
    103c: 2a           	rol
    103d: a0 01        	ldy	#$1
    103f: b0 02        	bcs	$1043 <f256main+0x7f0>
    1041: a0 00        	ldy	#$0
    1043: 84 2d        	sty	$2d                     ; 0x202d <parse+0x993>
    1045: 06 1a        	asl	$1a                     ; 0x201a <parse+0x980>
    1047: a4 1a        	ldy	$1a                     ; 0x201a <parse+0x980>
    1049: 84 24        	sty	$24                     ; 0x2024 <parse+0x98a>
    104b: 26 1f        	rol	$1f                     ; 0x201f <parse+0x985>
    104d: 2a           	rol
    104e: a0 01        	ldy	#$1
    1050: b0 02        	bcs	$1054 <f256main+0x801>
    1052: a0 00        	ldy	#$0
    1054: 84 22        	sty	$22                     ; 0x2022 <parse+0x988>
    1056: 85 2c        	sta	$2c                     ; 0x202c <parse+0x992>
    1058: a0 02        	ldy	#$2
    105a: b1 18        	lda	($18),y                 ; 0x2018 <parse+0x97e>
    105c: 85 29        	sta	$29                     ; 0x2029 <parse+0x98f>
    105e: c8           	iny
    105f: b1 18        	lda	($18),y                 ; 0x2018 <parse+0x97e>
    1061: d0 03        	bne	$1066 <f256main+0x813>
    1063: 4c d8 15     	jmp	$15d8 <f256main+0xd85>
    1066: 86 1a        	stx	$1a                     ; 0x201a <parse+0x980>
    1068: a6 29        	ldx	$29                     ; 0x2029 <parse+0x98f>
    106a: 86 25        	stx	$25                     ; 0x2025 <parse+0x98b>
    106c: c5 2b        	cmp	$2b                     ; 0x202b <parse+0x991>
    106e: d0 19        	bne	$1089 <f256main+0x836>
    1070: 85 29        	sta	$29                     ; 0x2029 <parse+0x98f>
    1072: a0 01        	ldy	#$1
    1074: a6 25        	ldx	$25                     ; 0x2025 <parse+0x98b>
    1076: e4 2a        	cpx	$2a                     ; 0x202a <parse+0x990>
    1078: d0 1a        	bne	$1094 <f256main+0x841>
    107a: a6 23        	ldx	$23                     ; 0x2023 <parse+0x989>
    107c: e4 2f        	cpx	$2f                     ; 0x202f <parse+0x995>
    107e: d0 1b        	bne	$109b <f256main+0x848>
    1080: a6 1a        	ldx	$1a                     ; 0x201a <parse+0x980>
    1082: e4 28        	cpx	$28                     ; 0x2028 <parse+0x98e>
    1084: 90 1c        	bcc	$10a2 <f256main+0x84f>
    1086: 4c fa 10     	jmp	$10fa <f256main+0x8a7>
    1089: 85 29        	sta	$29                     ; 0x2029 <parse+0x98f>
    108b: c5 2b        	cmp	$2b                     ; 0x202b <parse+0x991>
    108d: a0 01        	ldy	#$1
    108f: 90 11        	bcc	$10a2 <f256main+0x84f>
    1091: 4c fa 10     	jmp	$10fa <f256main+0x8a7>
    1094: e4 2a        	cpx	$2a                     ; 0x202a <parse+0x990>
    1096: 90 0a        	bcc	$10a2 <f256main+0x84f>
    1098: 4c fa 10     	jmp	$10fa <f256main+0x8a7>
    109b: e4 2f        	cpx	$2f                     ; 0x202f <parse+0x995>
    109d: 90 03        	bcc	$10a2 <f256main+0x84f>
    109f: 4c fa 10     	jmp	$10fa <f256main+0x8a7>
    10a2: a9 00        	lda	#$0
    10a4: 38           	sec
    10a5: 70 01        	bvs	$10a8 <f256main+0x855>
    10a7: 18           	clc
    10a8: 2a           	rol
    10a9: a6 2d        	ldx	$2d                     ; 0x202d <parse+0x993>
    10ab: e0 01        	cpx	#$1
    10ad: 2a           	rol
    10ae: a6 22        	ldx	$22                     ; 0x2022 <parse+0x988>
    10b0: e0 01        	cpx	#$1
    10b2: 2a           	rol
    10b3: 85 1c        	sta	$1c                     ; 0x201c <parse+0x982>
    10b5: a6 1a        	ldx	$1a                     ; 0x201a <parse+0x980>
    10b7: 86 28        	stx	$28                     ; 0x2028 <parse+0x98e>
    10b9: a6 23        	ldx	$23                     ; 0x2023 <parse+0x989>
    10bb: 86 2f        	stx	$2f                     ; 0x202f <parse+0x995>
    10bd: a5 14        	lda	$14                     ; 0x2014 <parse+0x97a>
    10bf: 18           	clc
    10c0: 69 03        	adc	#$3
    10c2: 85 1a        	sta	$1a                     ; 0x201a <parse+0x980>
    10c4: a5 15        	lda	$15                     ; 0x2015 <parse+0x97b>
    10c6: 69 00        	adc	#$0
    10c8: 85 1b        	sta	$1b                     ; 0x201b <parse+0x981>
    10ca: 18           	clc
    10cb: a5 24        	lda	$24                     ; 0x2024 <parse+0x98a>
    10cd: a0 03        	ldy	#$3
    10cf: 71 14        	adc	($14),y                 ; 0x2014 <parse+0x97a>
    10d1: aa           	tax
    10d2: a5 1f        	lda	$1f                     ; 0x201f <parse+0x985>
    10d4: a0 01        	ldy	#$1
    10d6: 71 1a        	adc	($1a),y                 ; 0x201a <parse+0x980>
    10d8: 85 1d        	sta	$1d                     ; 0x201d <parse+0x983>
    10da: c8           	iny
    10db: a5 2c        	lda	$2c                     ; 0x202c <parse+0x992>
    10dd: 71 1a        	adc	($1a),y                 ; 0x201a <parse+0x980>
    10df: 85 1e        	sta	$1e                     ; 0x201e <parse+0x984>
    10e1: a5 1c        	lda	$1c                     ; 0x201c <parse+0x982>
    10e3: c8           	iny
    10e4: 71 1a        	adc	($1a),y                 ; 0x201a <parse+0x980>
    10e6: a0 01        	ldy	#$1
    10e8: 86 1c        	stx	$1c                     ; 0x201c <parse+0x982>
    10ea: a6 25        	ldx	$25                     ; 0x2025 <parse+0x98b>
    10ec: 86 2a        	stx	$2a                     ; 0x202a <parse+0x990>
    10ee: a6 29        	ldx	$29                     ; 0x2029 <parse+0x98f>
    10f0: 86 2b        	stx	$2b                     ; 0x202b <parse+0x991>
    10f2: a6 12        	ldx	$12                     ; 0x2012 <parse+0x978>
    10f4: 86 26        	stx	$26                     ; 0x2026 <parse+0x98c>
    10f6: a6 13        	ldx	$13                     ; 0x2013 <parse+0x979>
    10f8: 86 27        	stx	$27                     ; 0x2027 <parse+0x98d>
    10fa: e6 12        	inc	$12                     ; 0x2012 <parse+0x978>
    10fc: d0 02        	bne	$1100 <f256main+0x8ad>
    10fe: e6 13        	inc	$13                     ; 0x2013 <parse+0x979>
    1100: a5 18        	lda	$18                     ; 0x2018 <parse+0x97e>
    1102: 18           	clc
    1103: 69 04        	adc	#$4
    1105: 85 18        	sta	$18                     ; 0x2018 <parse+0x97e>
    1107: a5 19        	lda	$19                     ; 0x2019 <parse+0x97f>
    1109: 69 00        	adc	#$0
    110b: 85 19        	sta	$19                     ; 0x2019 <parse+0x97f>
    110d: a5 14        	lda	$14                     ; 0x2014 <parse+0x97a>
    110f: 18           	clc
    1110: 69 07        	adc	#$7
    1112: 85 14        	sta	$14                     ; 0x2014 <parse+0x97a>
    1114: a5 15        	lda	$15                     ; 0x2015 <parse+0x97b>
    1116: 69 00        	adc	#$0
    1118: 85 15        	sta	$15                     ; 0x2015 <parse+0x97b>
    111a: a5 16        	lda	$16                     ; 0x2016 <parse+0x97c>
    111c: 18           	clc
    111d: 69 02        	adc	#$2
    111f: 85 16        	sta	$16                     ; 0x2016 <parse+0x97c>
    1121: a5 17        	lda	$17                     ; 0x2017 <parse+0x97d>
    1123: 69 00        	adc	#$0
    1125: 85 17        	sta	$17                     ; 0x2017 <parse+0x97d>
    1127: 5a           	phy
    1128: a0 07        	ldy	#$7
    112a: b1 10        	lda	($10),y                 ; 0x2010 <parse+0x976>
    112c: 7a           	ply
    112d: c5 13        	cmp	$13                     ; 0x2013 <parse+0x979>
    112f: f0 03        	beq	$1134 <f256main+0x8e1>
    1131: 4c ea 0f     	jmp	$fea <f256main+0x797>
    1134: 5a           	phy
    1135: a0 04        	ldy	#$4
    1137: b1 10        	lda	($10),y                 ; 0x2010 <parse+0x976>
    1139: 7a           	ply
    113a: c5 12        	cmp	$12                     ; 0x2012 <parse+0x978>
    113c: f0 03        	beq	$1141 <f256main+0x8ee>
    113e: 4c ea 0f     	jmp	$fea <f256main+0x797>
    1141: a0 05        	ldy	#$5
    1143: b1 10        	lda	($10),y                 ; 0x2010 <parse+0x976>
    1145: 85 16        	sta	$16                     ; 0x2016 <parse+0x97c>
    1147: c8           	iny
    1148: b1 10        	lda	($10),y                 ; 0x2010 <parse+0x976>
    114a: 85 17        	sta	$17                     ; 0x2017 <parse+0x97d>
    114c: 18           	clc
    114d: a5 1c        	lda	$1c                     ; 0x201c <parse+0x982>
    114f: 69 04        	adc	#$4
    1151: 85 13        	sta	$13                     ; 0x2013 <parse+0x979>
    1153: a5 1d        	lda	$1d                     ; 0x201d <parse+0x983>
    1155: 69 80        	adc	#$80
    1157: 85 14        	sta	$14                     ; 0x2014 <parse+0x97a>
    1159: a5 1e        	lda	$1e                     ; 0x201e <parse+0x984>
    115b: 69 05        	adc	#$5
    115d: a6 14        	ldx	$14                     ; 0x2014 <parse+0x97a>
    115f: 86 12        	stx	$12                     ; 0x2012 <parse+0x978>
    1161: 06 12        	asl	$12                     ; 0x2012 <parse+0x978>
    1163: 2a           	rol
    1164: 06 12        	asl	$12                     ; 0x2012 <parse+0x978>
    1166: 2a           	rol
    1167: 06 12        	asl	$12                     ; 0x2012 <parse+0x978>
    1169: 2a           	rol
    116a: a6 0f        	ldx	$f                      ; 0x200f <parse+0x975>
    116c: 78           	sei
    116d: 85 0f        	sta	$f                      ; 0x200f <parse+0x975>
    116f: a5 14        	lda	$14                     ; 0x2014 <parse+0x97a>
    1171: 09 e0        	ora	#$e0
    1173: a4 13        	ldy	$13                     ; 0x2013 <parse+0x979>
    1175: 84 12        	sty	$12                     ; 0x2012 <parse+0x978>
    1177: 85 13        	sta	$13                     ; 0x2013 <parse+0x979>
    1179: b2 12        	lda	($12)                   ; 0x2012 <parse+0x978>
    117b: 85 15        	sta	$15                     ; 0x2015 <parse+0x97b>
    117d: 86 0f        	stx	$f                      ; 0x200f <parse+0x975>
    117f: 18           	clc
    1180: a5 1c        	lda	$1c                     ; 0x201c <parse+0x982>
    1182: 69 05        	adc	#$5
    1184: 85 13        	sta	$13                     ; 0x2013 <parse+0x979>
    1186: a5 1d        	lda	$1d                     ; 0x201d <parse+0x983>
    1188: 69 80        	adc	#$80
    118a: 85 14        	sta	$14                     ; 0x2014 <parse+0x97a>
    118c: a5 1e        	lda	$1e                     ; 0x201e <parse+0x984>
    118e: 69 05        	adc	#$5
    1190: a6 14        	ldx	$14                     ; 0x2014 <parse+0x97a>
    1192: 86 12        	stx	$12                     ; 0x2012 <parse+0x978>
    1194: 06 12        	asl	$12                     ; 0x2012 <parse+0x978>
    1196: 2a           	rol
    1197: 06 12        	asl	$12                     ; 0x2012 <parse+0x978>
    1199: 2a           	rol
    119a: 06 12        	asl	$12                     ; 0x2012 <parse+0x978>
    119c: 2a           	rol
    119d: 58           	cli
    119e: a6 0f        	ldx	$f                      ; 0x200f <parse+0x975>
    11a0: 78           	sei
    11a1: 85 0f        	sta	$f                      ; 0x200f <parse+0x975>
    11a3: a4 13        	ldy	$13                     ; 0x2013 <parse+0x979>
    11a5: 84 12        	sty	$12                     ; 0x2012 <parse+0x978>
    11a7: a5 14        	lda	$14                     ; 0x2014 <parse+0x97a>
    11a9: 09 e0        	ora	#$e0
    11ab: 85 13        	sta	$13                     ; 0x2013 <parse+0x979>
    11ad: b2 12        	lda	($12)                   ; 0x2012 <parse+0x978>
    11af: 85 2d        	sta	$2d                     ; 0x202d <parse+0x993>
    11b1: 86 0f        	stx	$f                      ; 0x200f <parse+0x975>
    11b3: 18           	clc
    11b4: a5 1c        	lda	$1c                     ; 0x201c <parse+0x982>
    11b6: 69 06        	adc	#$6
    11b8: 85 13        	sta	$13                     ; 0x2013 <parse+0x979>
    11ba: a5 1d        	lda	$1d                     ; 0x201d <parse+0x983>
    11bc: 69 80        	adc	#$80
    11be: 85 14        	sta	$14                     ; 0x2014 <parse+0x97a>
    11c0: a5 1e        	lda	$1e                     ; 0x201e <parse+0x984>
    11c2: 69 05        	adc	#$5
    11c4: a6 14        	ldx	$14                     ; 0x2014 <parse+0x97a>
    11c6: 86 12        	stx	$12                     ; 0x2012 <parse+0x978>
    11c8: 06 12        	asl	$12                     ; 0x2012 <parse+0x978>
    11ca: 2a           	rol
    11cb: 06 12        	asl	$12                     ; 0x2012 <parse+0x978>
    11cd: 2a           	rol
    11ce: 06 12        	asl	$12                     ; 0x2012 <parse+0x978>
    11d0: 2a           	rol
    11d1: 58           	cli
    11d2: a6 0f        	ldx	$f                      ; 0x200f <parse+0x975>
    11d4: 78           	sei
    11d5: 85 0f        	sta	$f                      ; 0x200f <parse+0x975>
    11d7: a4 13        	ldy	$13                     ; 0x2013 <parse+0x979>
    11d9: 84 12        	sty	$12                     ; 0x2012 <parse+0x978>
    11db: a5 14        	lda	$14                     ; 0x2014 <parse+0x97a>
    11dd: 09 e0        	ora	#$e0
    11df: 85 13        	sta	$13                     ; 0x2013 <parse+0x979>
    11e1: b2 12        	lda	($12)                   ; 0x2012 <parse+0x978>
    11e3: 85 18        	sta	$18                     ; 0x2018 <parse+0x97e>
    11e5: 86 0f        	stx	$f                      ; 0x200f <parse+0x975>
    11e7: 18           	clc
    11e8: a5 1c        	lda	$1c                     ; 0x201c <parse+0x982>
    11ea: 69 07        	adc	#$7
    11ec: 85 12        	sta	$12                     ; 0x2012 <parse+0x978>
    11ee: a5 1d        	lda	$1d                     ; 0x201d <parse+0x983>
    11f0: 69 80        	adc	#$80
    11f2: 85 13        	sta	$13                     ; 0x2013 <parse+0x979>
    11f4: a5 1e        	lda	$1e                     ; 0x201e <parse+0x984>
    11f6: 69 05        	adc	#$5
    11f8: 85 14        	sta	$14                     ; 0x2014 <parse+0x97a>
    11fa: a5 13        	lda	$13                     ; 0x2013 <parse+0x979>
    11fc: 0a           	asl
    11fd: 26 14        	rol	$14                     ; 0x2014 <parse+0x97a>
    11ff: 0a           	asl
    1200: 26 14        	rol	$14                     ; 0x2014 <parse+0x97a>
    1202: 0a           	asl
    1203: a5 14        	lda	$14                     ; 0x2014 <parse+0x97a>
    1205: 2a           	rol
    1206: 58           	cli
    1207: a6 0f        	ldx	$f                      ; 0x200f <parse+0x975>
    1209: 78           	sei
    120a: 85 0f        	sta	$f                      ; 0x200f <parse+0x975>
    120c: a5 13        	lda	$13                     ; 0x2013 <parse+0x979>
    120e: 09 e0        	ora	#$e0
    1210: 85 13        	sta	$13                     ; 0x2013 <parse+0x979>
    1212: b2 12        	lda	($12)                   ; 0x2012 <parse+0x978>
    1214: 86 0f        	stx	$f                      ; 0x200f <parse+0x975>
    1216: 58           	cli
    1217: a6 2b        	ldx	$2b                     ; 0x202b <parse+0x991>
    1219: d0 0f        	bne	$122a <f256main+0x9d7>
    121b: a6 2a        	ldx	$2a                     ; 0x202a <parse+0x990>
    121d: d0 0b        	bne	$122a <f256main+0x9d7>
    121f: a6 2f        	ldx	$2f                     ; 0x202f <parse+0x995>
    1221: d0 07        	bne	$122a <f256main+0x9d7>
    1223: a6 28        	ldx	$28                     ; 0x2028 <parse+0x98e>
    1225: d0 03        	bne	$122a <f256main+0x9d7>
    1227: 4c ed 15     	jmp	$15ed <f256main+0xd9a>
    122a: a6 18        	ldx	$18                     ; 0x2018 <parse+0x97e>
    122c: 86 25        	stx	$25                     ; 0x2025 <parse+0x98b>
    122e: 48           	pha
    122f: a5 27        	lda	$27                     ; 0x2027 <parse+0x98d>
    1231: a0 02        	ldy	#$2
    1233: 91 10        	sta	($10),y                 ; 0x2010 <parse+0x976>
    1235: a5 26        	lda	$26                     ; 0x2026 <parse+0x98c>
    1237: 88           	dey
    1238: 91 10        	sta	($10),y                 ; 0x2010 <parse+0x976>
    123a: a5 16        	lda	$16                     ; 0x2016 <parse+0x97c>
    123c: a0 05        	ldy	#$5
    123e: 91 10        	sta	($10),y                 ; 0x2010 <parse+0x976>
    1240: a5 17        	lda	$17                     ; 0x2017 <parse+0x97d>
    1242: c8           	iny
    1243: 91 10        	sta	($10),y                 ; 0x2010 <parse+0x976>
    1245: 68           	pla
    1246: a6 15        	ldx	$15                     ; 0x2015 <parse+0x97b>
    1248: 86 24        	stx	$24                     ; 0x2024 <parse+0x98a>
    124a: a6 2b        	ldx	$2b                     ; 0x202b <parse+0x991>
    124c: e0 01        	cpx	#$1
    124e: d0 10        	bne	$1260 <f256main+0xa0d>
    1250: a6 2a        	ldx	$2a                     ; 0x202a <parse+0x990>
    1252: d0 16        	bne	$126a <f256main+0xa17>
    1254: a6 2f        	ldx	$2f                     ; 0x202f <parse+0x995>
    1256: d0 27        	bne	$127f <f256main+0xa2c>
    1258: a0 00        	ldy	#$0
    125a: 91 10        	sta	($10),y                 ; 0x2010 <parse+0x976>
    125c: a6 28        	ldx	$28                     ; 0x2028 <parse+0x98e>
    125e: 80 25        	bra	$1285 <f256main+0xa32>
    1260: a0 00        	ldy	#$0
    1262: 91 10        	sta	($10),y                 ; 0x2010 <parse+0x976>
    1264: a6 2b        	ldx	$2b                     ; 0x202b <parse+0x991>
    1266: e0 01        	cpx	#$1
    1268: 80 1d        	bra	$1287 <f256main+0xa34>
    126a: a0 00        	ldy	#$0
    126c: 91 10        	sta	($10),y                 ; 0x2010 <parse+0x976>
    126e: a6 2a        	ldx	$2a                     ; 0x202a <parse+0x990>
    1270: 80 13        	bra	$1285 <f256main+0xa32>
    1272: a2 ff        	ldx	#$ff
    1274: 86 28        	stx	$28                     ; 0x2028 <parse+0x98e>
    1276: 86 2f        	stx	$2f                     ; 0x202f <parse+0x995>
    1278: 86 2a        	stx	$2a                     ; 0x202a <parse+0x990>
    127a: 86 2b        	stx	$2b                     ; 0x202b <parse+0x991>
    127c: 4c 41 11     	jmp	$1141 <f256main+0x8ee>
    127f: a0 00        	ldy	#$0
    1281: 91 10        	sta	($10),y                 ; 0x2010 <parse+0x976>
    1283: a6 2f        	ldx	$2f                     ; 0x202f <parse+0x995>
    1285: e0 00        	cpx	#$0
    1287: a5 28        	lda	$28                     ; 0x2028 <parse+0x98e>
    1289: a6 2f        	ldx	$2f                     ; 0x202f <parse+0x995>
    128b: 86 29        	stx	$29                     ; 0x2029 <parse+0x98f>
    128d: a6 2a        	ldx	$2a                     ; 0x202a <parse+0x990>
    128f: 86 26        	stx	$26                     ; 0x2026 <parse+0x98c>
    1291: a6 2b        	ldx	$2b                     ; 0x202b <parse+0x991>
    1293: 86 27        	stx	$27                     ; 0x2027 <parse+0x98d>
    1295: b0 0c        	bcs	$12a3 <f256main+0xa50>
    1297: 4c 14 13     	jmp	$1314 <f256main+0xac1>
    129a: a6 29        	ldx	$29                     ; 0x2029 <parse+0x98f>
    129c: e0 00        	cpx	#$0
    129e: b0 03        	bcs	$12a3 <f256main+0xa50>
    12a0: 4c 14 13     	jmp	$1314 <f256main+0xac1>
    12a3: 85 2c        	sta	$2c                     ; 0x202c <parse+0x992>
    12a5: a2 02        	ldx	#$2
    12a7: 8e 50 d6     	stx	$d650                   ; 0xd650 <end_block9+0xa646>
    12aa: a2 09        	ldx	#$9
    12ac: 8e 50 d6     	stx	$d650                   ; 0xd650 <end_block9+0xa646>
    12af: a2 10        	ldx	#$10
    12b1: 8e 60 d6     	stx	$d660                   ; 0xd660 <end_block9+0xa656>
    12b4: a2 01        	ldx	#$1
    12b6: 8e 54 d6     	stx	$d654                   ; 0xd654 <end_block9+0xa64a>
    12b9: a2 ff        	ldx	#$ff
    12bb: 8e 55 d6     	stx	$d655                   ; 0xd655 <end_block9+0xa64b>
    12be: 8e 56 d6     	stx	$d656                   ; 0xd656 <end_block9+0xa64c>
    12c1: 8e 57 d6     	stx	$d657                   ; 0xd657 <end_block9+0xa64d>
    12c4: 80 03        	bra	$12c9 <f256main+0xa76>
    12c6: 20 ed 28     	jsr	$28ed <updateCarPos>
    12c9: ad 60 d6     	lda	$d660                   ; 0xd660 <end_block9+0xa656>
    12cc: 29 10        	and	#$10
    12ce: f0 f6        	beq	$12c6 <f256main+0xa73>
    12d0: a2 10        	ldx	#$10
    12d2: 8e 60 d6     	stx	$d660                   ; 0xd660 <end_block9+0xa656>
    12d5: 18           	clc
    12d6: a5 2c        	lda	$2c                     ; 0x202c <parse+0x992>
    12d8: 69 01        	adc	#$1
    12da: 85 12        	sta	$12                     ; 0x2012 <parse+0x978>
    12dc: a5 29        	lda	$29                     ; 0x2029 <parse+0x98f>
    12de: 69 00        	adc	#$0
    12e0: 85 29        	sta	$29                     ; 0x2029 <parse+0x98f>
    12e2: a5 26        	lda	$26                     ; 0x2026 <parse+0x98c>
    12e4: 69 00        	adc	#$0
    12e6: 85 26        	sta	$26                     ; 0x2026 <parse+0x98c>
    12e8: a5 27        	lda	$27                     ; 0x2027 <parse+0x98d>
    12ea: 69 ff        	adc	#$ff
    12ec: c9 01        	cmp	#$1
    12ee: d0 15        	bne	$1305 <f256main+0xab2>
    12f0: 85 27        	sta	$27                     ; 0x2027 <parse+0x98d>
    12f2: a6 26        	ldx	$26                     ; 0x2026 <parse+0x98c>
    12f4: d0 15        	bne	$130b <f256main+0xab8>
    12f6: a5 12        	lda	$12                     ; 0x2012 <parse+0x978>
    12f8: a6 29        	ldx	$29                     ; 0x2029 <parse+0x98f>
    12fa: f0 03        	beq	$12ff <f256main+0xaac>
    12fc: 4c 9a 12     	jmp	$129a <f256main+0xa47>
    12ff: c9 00        	cmp	#$0
    1301: b0 a0        	bcs	$12a3 <f256main+0xa50>
    1303: 80 0f        	bra	$1314 <f256main+0xac1>
    1305: 85 27        	sta	$27                     ; 0x2027 <parse+0x98d>
    1307: c9 01        	cmp	#$1
    1309: 80 02        	bra	$130d <f256main+0xaba>
    130b: e0 00        	cpx	#$0
    130d: a5 12        	lda	$12                     ; 0x2012 <parse+0x978>
    130f: 90 03        	bcc	$1314 <f256main+0xac1>
    1311: 4c a3 12     	jmp	$12a3 <f256main+0xa50>
    1314: a2 02        	ldx	#$2
    1316: 8e 50 d6     	stx	$d650                   ; 0xd650 <end_block9+0xa646>
    1319: a2 09        	ldx	#$9
    131b: 8e 50 d6     	stx	$d650                   ; 0xd650 <end_block9+0xa646>
    131e: a2 10        	ldx	#$10
    1320: 8e 60 d6     	stx	$d660                   ; 0xd660 <end_block9+0xa656>
    1323: a2 01        	ldx	#$1
    1325: 8e 54 d6     	stx	$d654                   ; 0xd654 <end_block9+0xa64a>
    1328: 8d 55 d6     	sta	$d655                   ; 0xd655 <end_block9+0xa64b>
    132b: a6 29        	ldx	$29                     ; 0x2029 <parse+0x98f>
    132d: 8e 56 d6     	stx	$d656                   ; 0xd656 <end_block9+0xa64c>
    1330: a6 26        	ldx	$26                     ; 0x2026 <parse+0x98c>
    1332: 8e 57 d6     	stx	$d657                   ; 0xd657 <end_block9+0xa64d>
    1335: 80 03        	bra	$133a <f256main+0xae7>
    1337: 20 ed 28     	jsr	$28ed <updateCarPos>
    133a: ad 60 d6     	lda	$d660                   ; 0xd660 <end_block9+0xa656>
    133d: 29 10        	and	#$10
    133f: f0 f6        	beq	$1337 <f256main+0xae4>
    1341: a2 10        	ldx	#$10
    1343: 8e 60 d6     	stx	$d660                   ; 0xd660 <end_block9+0xa656>
    1346: a6 2d        	ldx	$2d                     ; 0x202d <parse+0x993>
    1348: 8e a1 dd     	stx	$dda1                   ; 0xdda1 <end_block9+0xad97>
    134b: a6 25        	ldx	$25                     ; 0x2025 <parse+0x98b>
    134d: 8e a1 dd     	stx	$dda1                   ; 0xdda1 <end_block9+0xad97>
    1350: a6 24        	ldx	$24                     ; 0x2024 <parse+0x98a>
    1352: a0 05        	ldy	#$5
    1354: b1 10        	lda	($10),y                 ; 0x2010 <parse+0x976>
    1356: 85 24        	sta	$24                     ; 0x2024 <parse+0x98a>
    1358: c8           	iny
    1359: b1 10        	lda	($10),y                 ; 0x2010 <parse+0x976>
    135b: 85 25        	sta	$25                     ; 0x2025 <parse+0x98b>
    135d: a0 01        	ldy	#$1
    135f: b1 10        	lda	($10),y                 ; 0x2010 <parse+0x976>
    1361: 85 26        	sta	$26                     ; 0x2026 <parse+0x98c>
    1363: c8           	iny
    1364: b1 10        	lda	($10),y                 ; 0x2010 <parse+0x976>
    1366: 85 27        	sta	$27                     ; 0x2027 <parse+0x98d>
    1368: e0 03        	cpx	#$3
    136a: d0 07        	bne	$1373 <f256main+0xb20>
    136c: a0 00        	ldy	#$0
    136e: b1 10        	lda	($10),y                 ; 0x2010 <parse+0x976>
    1370: 8d a1 dd     	sta	$dda1                   ; 0xdda1 <end_block9+0xad97>
    1373: a6 26        	ldx	$26                     ; 0x2026 <parse+0x98c>
    1375: 86 14        	stx	$14                     ; 0x2014 <parse+0x97a>
    1377: 06 14        	asl	$14                     ; 0x2014 <parse+0x97a>
    1379: a5 27        	lda	$27                     ; 0x2027 <parse+0x98d>
    137b: 2a           	rol
    137c: 85 16        	sta	$16                     ; 0x2016 <parse+0x97c>
    137e: 18           	clc
    137f: a5 14        	lda	$14                     ; 0x2014 <parse+0x97a>
    1381: 65 77        	adc	$77                     ; 0x2077 <parse+0x9dd>
    1383: 85 12        	sta	$12                     ; 0x2012 <parse+0x978>
    1385: a5 16        	lda	$16                     ; 0x2016 <parse+0x97c>
    1387: 65 78        	adc	$78                     ; 0x2078 <parse+0x9de>
    1389: 85 13        	sta	$13                     ; 0x2013 <parse+0x979>
    138b: b2 12        	lda	($12)                   ; 0x2012 <parse+0x978>
    138d: aa           	tax
    138e: 06 14        	asl	$14                     ; 0x2014 <parse+0x97a>
    1390: 26 16        	rol	$16                     ; 0x2016 <parse+0x97c>
    1392: a5 14        	lda	$14                     ; 0x2014 <parse+0x97a>
    1394: a4 14        	ldy	$14                     ; 0x2014 <parse+0x97a>
    1396: 84 17        	sty	$17                     ; 0x2017 <parse+0x97d>
    1398: 0a           	asl
    1399: a4 16        	ldy	$16                     ; 0x2016 <parse+0x97c>
    139b: 84 15        	sty	$15                     ; 0x2015 <parse+0x97b>
    139d: 26 15        	rol	$15                     ; 0x2015 <parse+0x97b>
    139f: 38           	sec
    13a0: e5 26        	sbc	$26                     ; 0x2026 <parse+0x98c>
    13a2: 85 14        	sta	$14                     ; 0x2014 <parse+0x97a>
    13a4: a5 15        	lda	$15                     ; 0x2015 <parse+0x97b>
    13a6: e5 27        	sbc	$27                     ; 0x2027 <parse+0x98d>
    13a8: 85 15        	sta	$15                     ; 0x2015 <parse+0x97b>
    13aa: a0 01        	ldy	#$1
    13ac: b1 12        	lda	($12),y                 ; 0x2012 <parse+0x978>
    13ae: e8           	inx
    13af: d0 01        	bne	$13b2 <f256main+0xb5f>
    13b1: 1a           	inc
    13b2: 85 19        	sta	$19                     ; 0x2019 <parse+0x97f>
    13b4: 8a           	txa
    13b5: 92 12        	sta	($12)                   ; 0x2012 <parse+0x978>
    13b7: a5 19        	lda	$19                     ; 0x2019 <parse+0x97f>
    13b9: 91 12        	sta	($12),y                 ; 0x2012 <parse+0x978>
    13bb: 18           	clc
    13bc: a5 14        	lda	$14                     ; 0x2014 <parse+0x97a>
    13be: 65 75        	adc	$75                     ; 0x2075 <parse+0x9db>
    13c0: 85 12        	sta	$12                     ; 0x2012 <parse+0x978>
    13c2: a5 15        	lda	$15                     ; 0x2015 <parse+0x97b>
    13c4: 65 76        	adc	$76                     ; 0x2076 <parse+0x9dc>
    13c6: a8           	tay
    13c7: a5 12        	lda	$12                     ; 0x2012 <parse+0x978>
    13c9: 85 14        	sta	$14                     ; 0x2014 <parse+0x97a>
    13cb: 84 15        	sty	$15                     ; 0x2015 <parse+0x97b>
    13cd: 18           	clc
    13ce: 69 03        	adc	#$3
    13d0: 85 12        	sta	$12                     ; 0x2012 <parse+0x978>
    13d2: 98           	tya
    13d3: 69 00        	adc	#$0
    13d5: 85 13        	sta	$13                     ; 0x2013 <parse+0x979>
    13d7: 8a           	txa
    13d8: 0a           	asl
    13d9: 85 18        	sta	$18                     ; 0x2018 <parse+0x97e>
    13db: a5 19        	lda	$19                     ; 0x2019 <parse+0x97f>
    13dd: 2a           	rol
    13de: 64 19        	stz	$19                     ; 0x2019 <parse+0x97f>
    13e0: 26 19        	rol	$19                     ; 0x2019 <parse+0x97f>
    13e2: 64 1a        	stz	$1a                     ; 0x201a <parse+0x980>
    13e4: 26 1a        	rol	$1a                     ; 0x201a <parse+0x980>
    13e6: 06 18        	asl	$18                     ; 0x2018 <parse+0x97e>
    13e8: 2a           	rol
    13e9: aa           	tax
    13ea: a5 19        	lda	$19                     ; 0x2019 <parse+0x97f>
    13ec: 2a           	rol
    13ed: 26 1a        	rol	$1a                     ; 0x201a <parse+0x980>
    13ef: 06 18        	asl	$18                     ; 0x2018 <parse+0x97e>
    13f1: 86 19        	stx	$19                     ; 0x2019 <parse+0x97f>
    13f3: 26 19        	rol	$19                     ; 0x2019 <parse+0x97f>
    13f5: 2a           	rol
    13f6: aa           	tax
    13f7: 26 1a        	rol	$1a                     ; 0x201a <parse+0x980>
    13f9: 18           	clc
    13fa: a0 03        	ldy	#$3
    13fc: a5 18        	lda	$18                     ; 0x2018 <parse+0x97e>
    13fe: 71 14        	adc	($14),y                 ; 0x2014 <parse+0x97a>
    1400: 85 14        	sta	$14                     ; 0x2014 <parse+0x97a>
    1402: a5 19        	lda	$19                     ; 0x2019 <parse+0x97f>
    1404: a0 01        	ldy	#$1
    1406: 71 12        	adc	($12),y                 ; 0x2012 <parse+0x978>
    1408: 85 15        	sta	$15                     ; 0x2015 <parse+0x97b>
    140a: c8           	iny
    140b: 8a           	txa
    140c: 71 12        	adc	($12),y                 ; 0x2012 <parse+0x978>
    140e: 85 18        	sta	$18                     ; 0x2018 <parse+0x97e>
    1410: c8           	iny
    1411: a5 1a        	lda	$1a                     ; 0x201a <parse+0x980>
    1413: 71 12        	adc	($12),y                 ; 0x2012 <parse+0x978>
    1415: a5 14        	lda	$14                     ; 0x2014 <parse+0x97a>
    1417: 18           	clc
    1418: 69 00        	adc	#$0
    141a: a5 15        	lda	$15                     ; 0x2015 <parse+0x97b>
    141c: 69 80        	adc	#$80
    141e: 85 12        	sta	$12                     ; 0x2012 <parse+0x978>
    1420: a5 18        	lda	$18                     ; 0x2018 <parse+0x97e>
    1422: 69 05        	adc	#$5
    1424: 06 12        	asl	$12                     ; 0x2012 <parse+0x978>
    1426: 2a           	rol
    1427: 06 12        	asl	$12                     ; 0x2012 <parse+0x978>
    1429: 2a           	rol
    142a: 06 12        	asl	$12                     ; 0x2012 <parse+0x978>
    142c: 2a           	rol
    142d: a6 0f        	ldx	$f                      ; 0x200f <parse+0x975>
    142f: 78           	sei
    1430: 85 0f        	sta	$f                      ; 0x200f <parse+0x975>
    1432: a5 15        	lda	$15                     ; 0x2015 <parse+0x97b>
    1434: 09 e0        	ora	#$e0
    1436: a4 14        	ldy	$14                     ; 0x2014 <parse+0x97a>
    1438: 84 12        	sty	$12                     ; 0x2012 <parse+0x978>
    143a: 85 13        	sta	$13                     ; 0x2013 <parse+0x979>
    143c: b2 12        	lda	($12)                   ; 0x2012 <parse+0x978>
    143e: 85 19        	sta	$19                     ; 0x2019 <parse+0x97f>
    1440: a0 01        	ldy	#$1
    1442: b1 12        	lda	($12),y                 ; 0x2012 <parse+0x978>
    1444: 85 1a        	sta	$1a                     ; 0x201a <parse+0x980>
    1446: 86 0f        	stx	$f                      ; 0x200f <parse+0x975>
    1448: a6 14        	ldx	$14                     ; 0x2014 <parse+0x97a>
    144a: 86 1c        	stx	$1c                     ; 0x201c <parse+0x982>
    144c: a5 14        	lda	$14                     ; 0x2014 <parse+0x97a>
    144e: 18           	clc
    144f: 69 02        	adc	#$2
    1451: 85 13        	sta	$13                     ; 0x2013 <parse+0x979>
    1453: a6 15        	ldx	$15                     ; 0x2015 <parse+0x97b>
    1455: 86 1d        	stx	$1d                     ; 0x201d <parse+0x983>
    1457: a5 15        	lda	$15                     ; 0x2015 <parse+0x97b>
    1459: 69 80        	adc	#$80
    145b: 85 14        	sta	$14                     ; 0x2014 <parse+0x97a>
    145d: a5 18        	lda	$18                     ; 0x2018 <parse+0x97e>
    145f: 85 1e        	sta	$1e                     ; 0x201e <parse+0x984>
    1461: 69 05        	adc	#$5
    1463: a6 14        	ldx	$14                     ; 0x2014 <parse+0x97a>
    1465: 86 12        	stx	$12                     ; 0x2012 <parse+0x978>
    1467: 06 12        	asl	$12                     ; 0x2012 <parse+0x978>
    1469: 2a           	rol
    146a: 06 12        	asl	$12                     ; 0x2012 <parse+0x978>
    146c: 2a           	rol
    146d: 06 12        	asl	$12                     ; 0x2012 <parse+0x978>
    146f: 2a           	rol
    1470: 58           	cli
    1471: a6 0f        	ldx	$f                      ; 0x200f <parse+0x975>
    1473: 78           	sei
    1474: 85 0f        	sta	$f                      ; 0x200f <parse+0x975>
    1476: a5 13        	lda	$13                     ; 0x2013 <parse+0x979>
    1478: 85 12        	sta	$12                     ; 0x2012 <parse+0x978>
    147a: a5 14        	lda	$14                     ; 0x2014 <parse+0x97a>
    147c: 09 e0        	ora	#$e0
    147e: 85 13        	sta	$13                     ; 0x2013 <parse+0x979>
    1480: b2 12        	lda	($12)                   ; 0x2012 <parse+0x978>
    1482: 85 18        	sta	$18                     ; 0x2018 <parse+0x97e>
    1484: b1 12        	lda	($12),y                 ; 0x2012 <parse+0x978>
    1486: 85 1b        	sta	$1b                     ; 0x201b <parse+0x981>
    1488: 86 0f        	stx	$f                      ; 0x200f <parse+0x975>
    148a: 18           	clc
    148b: a5 17        	lda	$17                     ; 0x2017 <parse+0x97d>
    148d: 65 24        	adc	$24                     ; 0x2024 <parse+0x98a>
    148f: 85 12        	sta	$12                     ; 0x2012 <parse+0x978>
    1491: a5 16        	lda	$16                     ; 0x2016 <parse+0x97c>
    1493: 48           	pha
    1494: 5a           	phy
    1495: a5 24        	lda	$24                     ; 0x2024 <parse+0x98a>
    1497: a0 05        	ldy	#$5
    1499: 91 10        	sta	($10),y                 ; 0x2010 <parse+0x976>
    149b: a5 25        	lda	$25                     ; 0x2025 <parse+0x98b>
    149d: c8           	iny
    149e: 91 10        	sta	($10),y                 ; 0x2010 <parse+0x976>
    14a0: 7a           	ply
    14a1: 68           	pla
    14a2: 65 25        	adc	$25                     ; 0x2025 <parse+0x98b>
    14a4: 85 13        	sta	$13                     ; 0x2013 <parse+0x979>
    14a6: 58           	cli
    14a7: a5 18        	lda	$18                     ; 0x2018 <parse+0x97e>
    14a9: 92 12        	sta	($12)                   ; 0x2012 <parse+0x978>
    14ab: a5 1b        	lda	$1b                     ; 0x201b <parse+0x981>
    14ad: 91 12        	sta	($12),y                 ; 0x2012 <parse+0x978>
    14af: a0 02        	ldy	#$2
    14b1: a5 19        	lda	$19                     ; 0x2019 <parse+0x97f>
    14b3: 91 12        	sta	($12),y                 ; 0x2012 <parse+0x978>
    14b5: c8           	iny
    14b6: a5 1a        	lda	$1a                     ; 0x201a <parse+0x980>
    14b8: 91 12        	sta	($12),y                 ; 0x2012 <parse+0x978>
    14ba: c8           	iny
    14bb: b1 10        	lda	($10),y                 ; 0x2010 <parse+0x976>
    14bd: 85 12        	sta	$12                     ; 0x2012 <parse+0x978>
    14bf: a0 07        	ldy	#$7
    14c1: b1 10        	lda	($10),y                 ; 0x2010 <parse+0x976>
    14c3: 85 13        	sta	$13                     ; 0x2013 <parse+0x979>
    14c5: a5 13        	lda	$13                     ; 0x2013 <parse+0x979>
    14c7: d0 07        	bne	$14d0 <f256main+0xc7d>
    14c9: a5 12        	lda	$12                     ; 0x2012 <parse+0x978>
    14cb: d0 03        	bne	$14d0 <f256main+0xc7d>
    14cd: 4c b2 15     	jmp	$15b2 <f256main+0xd5f>
    14d0: a6 77        	ldx	$77                     ; 0x2077 <parse+0x9dd>
    14d2: a4 78        	ldy	$78                     ; 0x2078 <parse+0x9de>
    14d4: 86 12        	stx	$12                     ; 0x2012 <parse+0x978>
    14d6: 84 13        	sty	$13                     ; 0x2013 <parse+0x979>
    14d8: a6 75        	ldx	$75                     ; 0x2075 <parse+0x9db>
    14da: a4 76        	ldy	$76                     ; 0x2076 <parse+0x9dc>
    14dc: 86 14        	stx	$14                     ; 0x2014 <parse+0x97a>
    14de: 84 15        	sty	$15                     ; 0x2015 <parse+0x97b>
    14e0: e6 14        	inc	$14                     ; 0x2014 <parse+0x97a>
    14e2: d0 02        	bne	$14e6 <f256main+0xc93>
    14e4: e6 15        	inc	$15                     ; 0x2015 <parse+0x97b>
    14e6: a0 04        	ldy	#$4
    14e8: b1 10        	lda	($10),y                 ; 0x2010 <parse+0x976>
    14ea: aa           	tax
    14eb: a0 07        	ldy	#$7
    14ed: b1 10        	lda	($10),y                 ; 0x2010 <parse+0x976>
    14ef: 85 1b        	sta	$1b                     ; 0x201b <parse+0x981>
    14f1: a4 26        	ldy	$26                     ; 0x2026 <parse+0x98c>
    14f3: 84 17        	sty	$17                     ; 0x2017 <parse+0x97d>
    14f5: a4 27        	ldy	$27                     ; 0x2027 <parse+0x98d>
    14f7: 84 16        	sty	$16                     ; 0x2016 <parse+0x97c>
    14f9: a0 05        	ldy	#$5
    14fb: b1 10        	lda	($10),y                 ; 0x2010 <parse+0x976>
    14fd: 85 18        	sta	$18                     ; 0x2018 <parse+0x97e>
    14ff: c8           	iny
    1500: b1 10        	lda	($10),y                 ; 0x2010 <parse+0x976>
    1502: 85 19        	sta	$19                     ; 0x2019 <parse+0x97f>
    1504: 4c 93 15     	jmp	$1593 <f256main+0xd40>
    1507: d1 14        	cmp	($14),y                 ; 0x2014 <parse+0x97a>
    1509: b0 49        	bcs	$1554 <f256main+0xd01>
    150b: a5 16        	lda	$16                     ; 0x2016 <parse+0x97c>
    150d: d0 04        	bne	$1513 <f256main+0xcc0>
    150f: a5 17        	lda	$17                     ; 0x2017 <parse+0x97d>
    1511: f0 41        	beq	$1554 <f256main+0xd01>
    1513: b2 18        	lda	($18)                   ; 0x2018 <parse+0x97e>
    1515: 85 23        	sta	$23                     ; 0x2023 <parse+0x989>
    1517: a0 01        	ldy	#$1
    1519: b1 18        	lda	($18),y                 ; 0x2018 <parse+0x97e>
    151b: 85 22        	sta	$22                     ; 0x2022 <parse+0x988>
    151d: c8           	iny
    151e: b1 18        	lda	($18),y                 ; 0x2018 <parse+0x97e>
    1520: 85 1a        	sta	$1a                     ; 0x201a <parse+0x980>
    1522: c8           	iny
    1523: b1 18        	lda	($18),y                 ; 0x2018 <parse+0x97e>
    1525: 85 1f        	sta	$1f                     ; 0x201f <parse+0x985>
    1527: 38           	sec
    1528: a5 23        	lda	$23                     ; 0x2023 <parse+0x989>
    152a: e5 28        	sbc	$28                     ; 0x2028 <parse+0x98e>
    152c: 85 23        	sta	$23                     ; 0x2023 <parse+0x989>
    152e: a5 22        	lda	$22                     ; 0x2022 <parse+0x988>
    1530: e5 2f        	sbc	$2f                     ; 0x202f <parse+0x995>
    1532: 85 22        	sta	$22                     ; 0x2022 <parse+0x988>
    1534: a5 1a        	lda	$1a                     ; 0x201a <parse+0x980>
    1536: e5 2a        	sbc	$2a                     ; 0x202a <parse+0x990>
    1538: 85 1a        	sta	$1a                     ; 0x201a <parse+0x980>
    153a: a5 1f        	lda	$1f                     ; 0x201f <parse+0x985>
    153c: e5 2b        	sbc	$2b                     ; 0x202b <parse+0x991>
    153e: 85 1f        	sta	$1f                     ; 0x201f <parse+0x985>
    1540: a5 23        	lda	$23                     ; 0x2023 <parse+0x989>
    1542: 92 18        	sta	($18)                   ; 0x2018 <parse+0x97e>
    1544: a5 22        	lda	$22                     ; 0x2022 <parse+0x988>
    1546: a0 01        	ldy	#$1
    1548: 91 18        	sta	($18),y                 ; 0x2018 <parse+0x97e>
    154a: c8           	iny
    154b: a5 1a        	lda	$1a                     ; 0x201a <parse+0x980>
    154d: 91 18        	sta	($18),y                 ; 0x2018 <parse+0x97e>
    154f: a5 1f        	lda	$1f                     ; 0x201f <parse+0x985>
    1551: c8           	iny
    1552: 91 18        	sta	($18),y                 ; 0x2018 <parse+0x97e>
    1554: a5 18        	lda	$18                     ; 0x2018 <parse+0x97e>
    1556: 18           	clc
    1557: 69 04        	adc	#$4
    1559: 85 18        	sta	$18                     ; 0x2018 <parse+0x97e>
    155b: a5 19        	lda	$19                     ; 0x2019 <parse+0x97f>
    155d: 69 00        	adc	#$0
    155f: 85 19        	sta	$19                     ; 0x2019 <parse+0x97f>
    1561: a9 ff        	lda	#$ff
    1563: c6 17        	dec	$17                     ; 0x2017 <parse+0x97d>
    1565: c5 17        	cmp	$17                     ; 0x2017 <parse+0x97d>
    1567: d0 02        	bne	$156b <f256main+0xd18>
    1569: c6 16        	dec	$16                     ; 0x2016 <parse+0x97c>
    156b: ca           	dex
    156c: e0 ff        	cpx	#$ff
    156e: d0 02        	bne	$1572 <f256main+0xd1f>
    1570: c6 1b        	dec	$1b                     ; 0x201b <parse+0x981>
    1572: a5 14        	lda	$14                     ; 0x2014 <parse+0x97a>
    1574: 18           	clc
    1575: 69 07        	adc	#$7
    1577: 85 14        	sta	$14                     ; 0x2014 <parse+0x97a>
    1579: a5 15        	lda	$15                     ; 0x2015 <parse+0x97b>
    157b: 69 00        	adc	#$0
    157d: 85 15        	sta	$15                     ; 0x2015 <parse+0x97b>
    157f: a5 12        	lda	$12                     ; 0x2012 <parse+0x978>
    1581: 18           	clc
    1582: 69 02        	adc	#$2
    1584: 85 12        	sta	$12                     ; 0x2012 <parse+0x978>
    1586: a5 13        	lda	$13                     ; 0x2013 <parse+0x979>
    1588: 69 00        	adc	#$0
    158a: 85 13        	sta	$13                     ; 0x2013 <parse+0x979>
    158c: a5 1b        	lda	$1b                     ; 0x201b <parse+0x981>
    158e: d0 03        	bne	$1593 <f256main+0xd40>
    1590: 8a           	txa
    1591: f0 1f        	beq	$15b2 <f256main+0xd5f>
    1593: a0 01        	ldy	#$1
    1595: b1 12        	lda	($12),y                 ; 0x2012 <parse+0x978>
    1597: d1 14        	cmp	($14),y                 ; 0x2014 <parse+0x97a>
    1599: f0 03        	beq	$159e <f256main+0xd4b>
    159b: 4c 07 15     	jmp	$1507 <f256main+0xcb4>
    159e: b2 12        	lda	($12)                   ; 0x2012 <parse+0x978>
    15a0: 85 1f        	sta	$1f                     ; 0x201f <parse+0x985>
    15a2: b2 14        	lda	($14)                   ; 0x2014 <parse+0x97a>
    15a4: 85 1a        	sta	$1a                     ; 0x201a <parse+0x980>
    15a6: a4 1f        	ldy	$1f                     ; 0x201f <parse+0x985>
    15a8: c4 1a        	cpy	$1a                     ; 0x201a <parse+0x980>
    15aa: b0 03        	bcs	$15af <f256main+0xd5c>
    15ac: 4c 0b 15     	jmp	$150b <f256main+0xcb8>
    15af: 4c 54 15     	jmp	$1554 <f256main+0xd01>
    15b2: a5 2e        	lda	$2e                     ; 0x202e <parse+0x994>
    15b4: 48           	pha
    15b5: a0 03        	ldy	#$3
    15b7: b1 10        	lda	($10),y                 ; 0x2010 <parse+0x976>
    15b9: 85 12        	sta	$12                     ; 0x2012 <parse+0x978>
    15bb: 68           	pla
    15bc: 3a           	dec
    15bd: c9 ff        	cmp	#$ff
    15bf: d0 02        	bne	$15c3 <f256main+0xd70>
    15c1: c6 12        	dec	$12                     ; 0x2012 <parse+0x978>
    15c3: 85 2e        	sta	$2e                     ; 0x202e <parse+0x994>
    15c5: 48           	pha
    15c6: a5 12        	lda	$12                     ; 0x2012 <parse+0x978>
    15c8: 91 10        	sta	($10),y                 ; 0x2010 <parse+0x976>
    15ca: 68           	pla
    15cb: a6 12        	ldx	$12                     ; 0x2012 <parse+0x978>
    15cd: f0 03        	beq	$15d2 <f256main+0xd7f>
    15cf: 4c a8 0f     	jmp	$fa8 <f256main+0x755>
    15d2: aa           	tax
    15d3: f0 39        	beq	$160e <f256main+0xdbb>
    15d5: 4c a8 0f     	jmp	$fa8 <f256main+0x755>
    15d8: e6 29        	inc	$29                     ; 0x2029 <parse+0x98f>
    15da: c6 29        	dec	$29                     ; 0x2029 <parse+0x98f>
    15dc: f0 03        	beq	$15e1 <f256main+0xd8e>
    15de: 4c 66 10     	jmp	$1066 <f256main+0x813>
    15e1: e6 23        	inc	$23                     ; 0x2023 <parse+0x989>
    15e3: c6 23        	dec	$23                     ; 0x2023 <parse+0x989>
    15e5: f0 03        	beq	$15ea <f256main+0xd97>
    15e7: 4c 66 10     	jmp	$1066 <f256main+0x813>
    15ea: 4c 5d 16     	jmp	$165d <f256main+0xe0a>
    15ed: a6 16        	ldx	$16                     ; 0x2016 <parse+0x97c>
    15ef: 86 24        	stx	$24                     ; 0x2024 <parse+0x98a>
    15f1: a6 17        	ldx	$17                     ; 0x2017 <parse+0x97d>
    15f3: 86 25        	stx	$25                     ; 0x2025 <parse+0x98b>
    15f5: a6 2d        	ldx	$2d                     ; 0x202d <parse+0x993>
    15f7: 8e a1 dd     	stx	$dda1                   ; 0xdda1 <end_block9+0xad97>
    15fa: a6 18        	ldx	$18                     ; 0x2018 <parse+0x97e>
    15fc: 8e a1 dd     	stx	$dda1                   ; 0xdda1 <end_block9+0xad97>
    15ff: a6 15        	ldx	$15                     ; 0x2015 <parse+0x97b>
    1601: e0 03        	cpx	#$3
    1603: d0 03        	bne	$1608 <f256main+0xdb5>
    1605: 8d a1 dd     	sta	$dda1                   ; 0xdda1 <end_block9+0xad97>
    1608: 20 ed 28     	jsr	$28ed <updateCarPos>
    160b: 4c 73 13     	jmp	$1373 <f256main+0xb20>
    160e: a6 73        	ldx	$73                     ; 0x2073 <parse+0x9d9>
    1610: a4 74        	ldy	$74                     ; 0x2074 <parse+0x9da>
    1612: 64 16        	stz	$16                     ; 0x2016 <parse+0x97c>
    1614: a9 00        	lda	#$0
    1616: c0 00        	cpy	#$0
    1618: d0 07        	bne	$1621 <f256main+0xdce>
    161a: e0 00        	cpx	#$0
    161c: d0 03        	bne	$1621 <f256main+0xdce>
    161e: 4c bd 0d     	jmp	$dbd <f256main+0x56a>
    1621: a5 77        	lda	$77                     ; 0x2077 <parse+0x9dd>
    1623: 85 14        	sta	$14                     ; 0x2014 <parse+0x97a>
    1625: a5 78        	lda	$78                     ; 0x2078 <parse+0x9de>
    1627: 85 15        	sta	$15                     ; 0x2015 <parse+0x97b>
    1629: 86 16        	stx	$16                     ; 0x2016 <parse+0x97c>
    162b: 86 13        	stx	$13                     ; 0x2013 <parse+0x979>
    162d: 84 12        	sty	$12                     ; 0x2012 <parse+0x978>
    162f: 84 17        	sty	$17                     ; 0x2017 <parse+0x97d>
    1631: a9 00        	lda	#$0
    1633: 92 14        	sta	($14)                   ; 0x2014 <parse+0x97a>
    1635: a0 01        	ldy	#$1
    1637: 91 14        	sta	($14),y                 ; 0x2014 <parse+0x97a>
    1639: a0 ff        	ldy	#$ff
    163b: c6 13        	dec	$13                     ; 0x2013 <parse+0x979>
    163d: c4 13        	cpy	$13                     ; 0x2013 <parse+0x979>
    163f: d0 02        	bne	$1643 <f256main+0xdf0>
    1641: c6 12        	dec	$12                     ; 0x2012 <parse+0x978>
    1643: a5 14        	lda	$14                     ; 0x2014 <parse+0x97a>
    1645: 18           	clc
    1646: 69 02        	adc	#$2
    1648: 85 14        	sta	$14                     ; 0x2014 <parse+0x97a>
    164a: a5 15        	lda	$15                     ; 0x2015 <parse+0x97b>
    164c: 69 00        	adc	#$0
    164e: 85 15        	sta	$15                     ; 0x2015 <parse+0x97b>
    1650: a5 12        	lda	$12                     ; 0x2012 <parse+0x978>
    1652: d0 dd        	bne	$1631 <f256main+0xdde>
    1654: a5 13        	lda	$13                     ; 0x2013 <parse+0x979>
    1656: d0 d9        	bne	$1631 <f256main+0xdde>
    1658: a5 17        	lda	$17                     ; 0x2017 <parse+0x97d>
    165a: 4c bd 0d     	jmp	$dbd <f256main+0x56a>
    165d: e0 00        	cpx	#$0
    165f: f0 03        	beq	$1664 <f256main+0xe11>
    1661: 4c 66 10     	jmp	$1066 <f256main+0x813>
    1664: a5 14        	lda	$14                     ; 0x2014 <parse+0x97a>
    1666: 18           	clc
    1667: 69 03        	adc	#$3
    1669: 85 16        	sta	$16                     ; 0x2016 <parse+0x97c>
    166b: a5 15        	lda	$15                     ; 0x2015 <parse+0x97b>
    166d: 69 00        	adc	#$0
    166f: 85 17        	sta	$17                     ; 0x2017 <parse+0x97d>
    1671: 18           	clc
    1672: a5 1a        	lda	$1a                     ; 0x201a <parse+0x980>
    1674: 71 14        	adc	($14),y                 ; 0x2014 <parse+0x97a>
    1676: 85 1c        	sta	$1c                     ; 0x201c <parse+0x982>
    1678: a0 01        	ldy	#$1
    167a: a5 1f        	lda	$1f                     ; 0x201f <parse+0x985>
    167c: 71 16        	adc	($16),y                 ; 0x2016 <parse+0x97c>
    167e: 85 1d        	sta	$1d                     ; 0x201d <parse+0x983>
    1680: c8           	iny
    1681: a5 2c        	lda	$2c                     ; 0x202c <parse+0x992>
    1683: 71 16        	adc	($16),y                 ; 0x2016 <parse+0x97c>
    1685: 64 28        	stz	$28                     ; 0x2028 <parse+0x98e>
    1687: 85 1e        	sta	$1e                     ; 0x201e <parse+0x984>
    1689: 64 2f        	stz	$2f                     ; 0x202f <parse+0x995>
    168b: 64 2a        	stz	$2a                     ; 0x202a <parse+0x990>
    168d: 64 2b        	stz	$2b                     ; 0x202b <parse+0x991>
    168f: a6 12        	ldx	$12                     ; 0x2012 <parse+0x978>
    1691: 86 26        	stx	$26                     ; 0x2026 <parse+0x98c>
    1693: a6 13        	ldx	$13                     ; 0x2013 <parse+0x979>
    1695: 86 27        	stx	$27                     ; 0x2027 <parse+0x98d>
    1697: 4c 41 11     	jmp	$1141 <f256main+0x8ee>

0000169a <parse>:
    169a: 48           	pha
    169b: 18           	clc
    169c: a5 10        	lda	$10                     ; 0x2010 <parse+0x976>
    169e: 69 e7        	adc	#$e7
    16a0: 85 10        	sta	$10                     ; 0x2010 <parse+0x976>
    16a2: a5 11        	lda	$11                     ; 0x2011 <parse+0x977>
    16a4: 69 ff        	adc	#$ff
    16a6: 85 11        	sta	$11                     ; 0x2011 <parse+0x977>
    16a8: 68           	pla
    16a9: a4 24        	ldy	$24                     ; 0x2024 <parse+0x98a>
    16ab: 5a           	phy
    16ac: a4 25        	ldy	$25                     ; 0x2025 <parse+0x98b>
    16ae: 5a           	phy
    16af: a4 26        	ldy	$26                     ; 0x2026 <parse+0x98c>
    16b1: 5a           	phy
    16b2: a4 27        	ldy	$27                     ; 0x2027 <parse+0x98d>
    16b4: 5a           	phy
    16b5: 48           	pha
    16b6: a5 28        	lda	$28                     ; 0x2028 <parse+0x98e>
    16b8: a0 07        	ldy	#$7
    16ba: 91 10        	sta	($10),y                 ; 0x2010 <parse+0x976>
    16bc: a5 29        	lda	$29                     ; 0x2029 <parse+0x98f>
    16be: 88           	dey
    16bf: 91 10        	sta	($10),y                 ; 0x2010 <parse+0x976>
    16c1: a5 2a        	lda	$2a                     ; 0x202a <parse+0x990>
    16c3: 88           	dey
    16c4: 91 10        	sta	($10),y                 ; 0x2010 <parse+0x976>
    16c6: a5 2b        	lda	$2b                     ; 0x202b <parse+0x991>
    16c8: 88           	dey
    16c9: 91 10        	sta	($10),y                 ; 0x2010 <parse+0x976>
    16cb: a5 2c        	lda	$2c                     ; 0x202c <parse+0x992>
    16cd: 88           	dey
    16ce: 91 10        	sta	($10),y                 ; 0x2010 <parse+0x976>
    16d0: a5 2d        	lda	$2d                     ; 0x202d <parse+0x993>
    16d2: 88           	dey
    16d3: 91 10        	sta	($10),y                 ; 0x2010 <parse+0x976>
    16d5: a5 2e        	lda	$2e                     ; 0x202e <parse+0x994>
    16d7: 88           	dey
    16d8: 91 10        	sta	($10),y                 ; 0x2010 <parse+0x976>
    16da: a5 2f        	lda	$2f                     ; 0x202f <parse+0x995>
    16dc: 88           	dey
    16dd: 91 10        	sta	($10),y                 ; 0x2010 <parse+0x976>
    16df: 68           	pla
    16e0: a8           	tay
    16e1: 86 16        	stx	$16                     ; 0x2016 <parse+0x97c>
    16e3: 48           	pha
    16e4: a5 12        	lda	$12                     ; 0x2012 <parse+0x978>
    16e6: 5a           	phy
    16e7: a0 14        	ldy	#$14
    16e9: 91 10        	sta	($10),y                 ; 0x2010 <parse+0x976>
    16eb: 7a           	ply
    16ec: 68           	pla
    16ed: 18           	clc
    16ee: 69 08        	adc	#$8
    16f0: 85 14        	sta	$14                     ; 0x2014 <parse+0x97a>
    16f2: 8a           	txa
    16f3: 69 80        	adc	#$80
    16f5: 85 15        	sta	$15                     ; 0x2015 <parse+0x97b>
    16f7: a9 00        	lda	#$0
    16f9: 69 03        	adc	#$3
    16fb: 85 17        	sta	$17                     ; 0x2017 <parse+0x97d>
    16fd: 18           	clc
    16fe: 98           	tya
    16ff: 69 09        	adc	#$9
    1701: 85 13        	sta	$13                     ; 0x2013 <parse+0x979>
    1703: 8a           	txa
    1704: 69 80        	adc	#$80
    1706: 85 18        	sta	$18                     ; 0x2018 <parse+0x97e>
    1708: a9 00        	lda	#$0
    170a: 69 03        	adc	#$3
    170c: 5a           	phy
    170d: a6 18        	ldx	$18                     ; 0x2018 <parse+0x97e>
    170f: 86 12        	stx	$12                     ; 0x2012 <parse+0x978>
    1711: 06 12        	asl	$12                     ; 0x2012 <parse+0x978>
    1713: 2a           	rol
    1714: 06 12        	asl	$12                     ; 0x2012 <parse+0x978>
    1716: 2a           	rol
    1717: 06 12        	asl	$12                     ; 0x2012 <parse+0x978>
    1719: 2a           	rol
    171a: a6 0f        	ldx	$f                      ; 0x200f <parse+0x975>
    171c: 78           	sei
    171d: 85 0f        	sta	$f                      ; 0x200f <parse+0x975>
    171f: a4 13        	ldy	$13                     ; 0x2013 <parse+0x979>
    1721: 84 12        	sty	$12                     ; 0x2012 <parse+0x978>
    1723: a5 18        	lda	$18                     ; 0x2018 <parse+0x97e>
    1725: 09 e0        	ora	#$e0
    1727: 85 13        	sta	$13                     ; 0x2013 <parse+0x979>
    1729: b2 12        	lda	($12)                   ; 0x2012 <parse+0x978>
    172b: 86 0f        	stx	$f                      ; 0x200f <parse+0x975>
    172d: 58           	cli
    172e: a5 15        	lda	$15                     ; 0x2015 <parse+0x97b>
    1730: 0a           	asl
    1731: 26 17        	rol	$17                     ; 0x2017 <parse+0x97d>
    1733: 0a           	asl
    1734: 26 17        	rol	$17                     ; 0x2017 <parse+0x97d>
    1736: 0a           	asl
    1737: a5 17        	lda	$17                     ; 0x2017 <parse+0x97d>
    1739: 2a           	rol
    173a: a6 0f        	ldx	$f                      ; 0x200f <parse+0x975>
    173c: 78           	sei
    173d: 85 0f        	sta	$f                      ; 0x200f <parse+0x975>
    173f: a5 15        	lda	$15                     ; 0x2015 <parse+0x97b>
    1741: 09 e0        	ora	#$e0
    1743: a4 14        	ldy	$14                     ; 0x2014 <parse+0x97a>
    1745: 84 12        	sty	$12                     ; 0x2012 <parse+0x978>
    1747: 7a           	ply
    1748: 85 13        	sta	$13                     ; 0x2013 <parse+0x979>
    174a: b2 12        	lda	($12)                   ; 0x2012 <parse+0x978>
    174c: 86 0f        	stx	$f                      ; 0x200f <parse+0x975>
    174e: 18           	clc
    174f: 98           	tya
    1750: 69 0a        	adc	#$a
    1752: 85 14        	sta	$14                     ; 0x2014 <parse+0x97a>
    1754: a5 16        	lda	$16                     ; 0x2016 <parse+0x97c>
    1756: 69 80        	adc	#$80
    1758: 85 15        	sta	$15                     ; 0x2015 <parse+0x97b>
    175a: a9 00        	lda	#$0
    175c: 69 03        	adc	#$3
    175e: 85 17        	sta	$17                     ; 0x2017 <parse+0x97d>
    1760: 18           	clc
    1761: 98           	tya
    1762: 69 0b        	adc	#$b
    1764: 85 13        	sta	$13                     ; 0x2013 <parse+0x979>
    1766: a5 16        	lda	$16                     ; 0x2016 <parse+0x97c>
    1768: 69 80        	adc	#$80
    176a: 85 18        	sta	$18                     ; 0x2018 <parse+0x97e>
    176c: a9 00        	lda	#$0
    176e: 69 03        	adc	#$3
    1770: 5a           	phy
    1771: a6 18        	ldx	$18                     ; 0x2018 <parse+0x97e>
    1773: 86 12        	stx	$12                     ; 0x2012 <parse+0x978>
    1775: 06 12        	asl	$12                     ; 0x2012 <parse+0x978>
    1777: 2a           	rol
    1778: 06 12        	asl	$12                     ; 0x2012 <parse+0x978>
    177a: 2a           	rol
    177b: 06 12        	asl	$12                     ; 0x2012 <parse+0x978>
    177d: 2a           	rol
    177e: 58           	cli
    177f: a6 0f        	ldx	$f                      ; 0x200f <parse+0x975>
    1781: 78           	sei
    1782: 85 0f        	sta	$f                      ; 0x200f <parse+0x975>
    1784: a4 13        	ldy	$13                     ; 0x2013 <parse+0x979>
    1786: 84 12        	sty	$12                     ; 0x2012 <parse+0x978>
    1788: a5 18        	lda	$18                     ; 0x2018 <parse+0x97e>
    178a: 09 e0        	ora	#$e0
    178c: 85 13        	sta	$13                     ; 0x2013 <parse+0x979>
    178e: b2 12        	lda	($12)                   ; 0x2012 <parse+0x978>
    1790: 85 18        	sta	$18                     ; 0x2018 <parse+0x97e>
    1792: 86 0f        	stx	$f                      ; 0x200f <parse+0x975>
    1794: a5 15        	lda	$15                     ; 0x2015 <parse+0x97b>
    1796: 0a           	asl
    1797: 26 17        	rol	$17                     ; 0x2017 <parse+0x97d>
    1799: 0a           	asl
    179a: 26 17        	rol	$17                     ; 0x2017 <parse+0x97d>
    179c: 0a           	asl
    179d: a5 17        	lda	$17                     ; 0x2017 <parse+0x97d>
    179f: 2a           	rol
    17a0: 58           	cli
    17a1: a6 0f        	ldx	$f                      ; 0x200f <parse+0x975>
    17a3: 78           	sei
    17a4: 85 0f        	sta	$f                      ; 0x200f <parse+0x975>
    17a6: a5 15        	lda	$15                     ; 0x2015 <parse+0x97b>
    17a8: 09 e0        	ora	#$e0
    17aa: a4 14        	ldy	$14                     ; 0x2014 <parse+0x97a>
    17ac: 84 12        	sty	$12                     ; 0x2012 <parse+0x978>
    17ae: 7a           	ply
    17af: 85 13        	sta	$13                     ; 0x2013 <parse+0x979>
    17b1: b2 12        	lda	($12)                   ; 0x2012 <parse+0x978>
    17b3: 86 0f        	stx	$f                      ; 0x200f <parse+0x975>
    17b5: 58           	cli
    17b6: a6 18        	ldx	$18                     ; 0x2018 <parse+0x97e>
    17b8: 86 6d        	stx	$6d                     ; 0x206d <parse+0x9d3>
    17ba: 85 6e        	sta	$6e                     ; 0x206e <parse+0x9d4>
    17bc: 18           	clc
    17bd: 98           	tya
    17be: 69 0c        	adc	#$c
    17c0: 85 15        	sta	$15                     ; 0x2015 <parse+0x97b>
    17c2: a5 16        	lda	$16                     ; 0x2016 <parse+0x97c>
    17c4: 69 80        	adc	#$80
    17c6: 85 17        	sta	$17                     ; 0x2017 <parse+0x97d>
    17c8: a9 00        	lda	#$0
    17ca: 69 03        	adc	#$3
    17cc: 85 18        	sta	$18                     ; 0x2018 <parse+0x97e>
    17ce: 18           	clc
    17cf: 84 14        	sty	$14                     ; 0x2014 <parse+0x97a>
    17d1: 98           	tya
    17d2: 69 0d        	adc	#$d
    17d4: 85 13        	sta	$13                     ; 0x2013 <parse+0x979>
    17d6: a4 16        	ldy	$16                     ; 0x2016 <parse+0x97c>
    17d8: a5 16        	lda	$16                     ; 0x2016 <parse+0x97c>
    17da: 69 80        	adc	#$80
    17dc: 85 16        	sta	$16                     ; 0x2016 <parse+0x97c>
    17de: a9 00        	lda	#$0
    17e0: 69 03        	adc	#$3
    17e2: a6 16        	ldx	$16                     ; 0x2016 <parse+0x97c>
    17e4: 86 12        	stx	$12                     ; 0x2012 <parse+0x978>
    17e6: 06 12        	asl	$12                     ; 0x2012 <parse+0x978>
    17e8: 2a           	rol
    17e9: 06 12        	asl	$12                     ; 0x2012 <parse+0x978>
    17eb: 2a           	rol
    17ec: 06 12        	asl	$12                     ; 0x2012 <parse+0x978>
    17ee: 2a           	rol
    17ef: a6 0f        	ldx	$f                      ; 0x200f <parse+0x975>
    17f1: 78           	sei
    17f2: 85 0f        	sta	$f                      ; 0x200f <parse+0x975>
    17f4: a5 13        	lda	$13                     ; 0x2013 <parse+0x979>
    17f6: 85 12        	sta	$12                     ; 0x2012 <parse+0x978>
    17f8: a5 16        	lda	$16                     ; 0x2016 <parse+0x97c>
    17fa: 09 e0        	ora	#$e0
    17fc: 85 13        	sta	$13                     ; 0x2013 <parse+0x979>
    17fe: b2 12        	lda	($12)                   ; 0x2012 <parse+0x978>
    1800: 5a           	phy
    1801: a0 13        	ldy	#$13
    1803: 91 10        	sta	($10),y                 ; 0x2010 <parse+0x976>
    1805: 86 0f        	stx	$f                      ; 0x200f <parse+0x975>
    1807: a5 17        	lda	$17                     ; 0x2017 <parse+0x97d>
    1809: 0a           	asl
    180a: 26 18        	rol	$18                     ; 0x2018 <parse+0x97e>
    180c: 0a           	asl
    180d: 26 18        	rol	$18                     ; 0x2018 <parse+0x97e>
    180f: 0a           	asl
    1810: a5 18        	lda	$18                     ; 0x2018 <parse+0x97e>
    1812: 2a           	rol
    1813: 58           	cli
    1814: a6 0f        	ldx	$f                      ; 0x200f <parse+0x975>
    1816: 78           	sei
    1817: 85 0f        	sta	$f                      ; 0x200f <parse+0x975>
    1819: a4 15        	ldy	$15                     ; 0x2015 <parse+0x97b>
    181b: 84 12        	sty	$12                     ; 0x2012 <parse+0x978>
    181d: a5 17        	lda	$17                     ; 0x2017 <parse+0x97d>
    181f: 09 e0        	ora	#$e0
    1821: 85 13        	sta	$13                     ; 0x2013 <parse+0x979>
    1823: b2 12        	lda	($12)                   ; 0x2012 <parse+0x978>
    1825: a0 12        	ldy	#$12
    1827: 91 10        	sta	($10),y                 ; 0x2010 <parse+0x976>
    1829: 7a           	ply
    182a: 86 0f        	stx	$f                      ; 0x200f <parse+0x975>
    182c: 58           	cli
    182d: a6 6d        	ldx	$6d                     ; 0x206d <parse+0x9d3>
    182f: a5 6e        	lda	$6e                     ; 0x206e <parse+0x9d4>
    1831: d0 06        	bne	$1839 <parse+0x19f>
    1833: 8a           	txa
    1834: d0 03        	bne	$1839 <parse+0x19f>
    1836: 4c 8a 1d     	jmp	$1d8a <parse+0x6f0>
    1839: 64 15        	stz	$15                     ; 0x2015 <parse+0x97b>
    183b: 18           	clc
    183c: a5 14        	lda	$14                     ; 0x2014 <parse+0x97a>
    183e: 69 0e        	adc	#$e
    1840: aa           	tax
    1841: 98           	tya
    1842: 69 00        	adc	#$0
    1844: 85 1e        	sta	$1e                     ; 0x201e <parse+0x984>
    1846: a9 00        	lda	#$0
    1848: 69 00        	adc	#$0
    184a: 85 1f        	sta	$1f                     ; 0x201f <parse+0x985>
    184c: a9 00        	lda	#$0
    184e: 69 00        	adc	#$0
    1850: 85 24        	sta	$24                     ; 0x2024 <parse+0x98a>
    1852: 64 18        	stz	$18                     ; 0x2018 <parse+0x97e>
    1854: a9 00        	lda	#$0
    1856: a0 18        	ldy	#$18
    1858: 91 10        	sta	($10),y                 ; 0x2010 <parse+0x976>
    185a: 86 13        	stx	$13                     ; 0x2013 <parse+0x979>
    185c: 18           	clc
    185d: a5 13        	lda	$13                     ; 0x2013 <parse+0x979>
    185f: 69 04        	adc	#$4
    1861: 85 16        	sta	$16                     ; 0x2016 <parse+0x97c>
    1863: a5 1e        	lda	$1e                     ; 0x201e <parse+0x984>
    1865: 69 80        	adc	#$80
    1867: 85 12        	sta	$12                     ; 0x2012 <parse+0x978>
    1869: a6 13        	ldx	$13                     ; 0x2013 <parse+0x979>
    186b: 86 14        	stx	$14                     ; 0x2014 <parse+0x97a>
    186d: a5 1f        	lda	$1f                     ; 0x201f <parse+0x985>
    186f: 69 03        	adc	#$3
    1871: a6 0f        	ldx	$f                      ; 0x200f <parse+0x975>
    1873: 78           	sei
    1874: a4 12        	ldy	$12                     ; 0x2012 <parse+0x978>
    1876: 84 13        	sty	$13                     ; 0x2013 <parse+0x979>
    1878: 06 13        	asl	$13                     ; 0x2013 <parse+0x979>
    187a: 2a           	rol
    187b: 06 13        	asl	$13                     ; 0x2013 <parse+0x979>
    187d: 2a           	rol
    187e: 06 13        	asl	$13                     ; 0x2013 <parse+0x979>
    1880: 2a           	rol
    1881: 85 0f        	sta	$f                      ; 0x200f <parse+0x975>
    1883: a5 12        	lda	$12                     ; 0x2012 <parse+0x978>
    1885: 09 e0        	ora	#$e0
    1887: 85 17        	sta	$17                     ; 0x2017 <parse+0x97d>
    1889: b2 16        	lda	($16)                   ; 0x2016 <parse+0x97c>
    188b: 85 1a        	sta	$1a                     ; 0x201a <parse+0x980>
    188d: 86 0f        	stx	$f                      ; 0x200f <parse+0x975>
    188f: 58           	cli
    1890: 18           	clc
    1891: a5 14        	lda	$14                     ; 0x2014 <parse+0x97a>
    1893: 69 05        	adc	#$5
    1895: 85 16        	sta	$16                     ; 0x2016 <parse+0x97c>
    1897: a5 1e        	lda	$1e                     ; 0x201e <parse+0x984>
    1899: 69 80        	adc	#$80
    189b: 85 12        	sta	$12                     ; 0x2012 <parse+0x978>
    189d: a5 1f        	lda	$1f                     ; 0x201f <parse+0x985>
    189f: 69 03        	adc	#$3
    18a1: a6 0f        	ldx	$f                      ; 0x200f <parse+0x975>
    18a3: 78           	sei
    18a4: a4 12        	ldy	$12                     ; 0x2012 <parse+0x978>
    18a6: 84 13        	sty	$13                     ; 0x2013 <parse+0x979>
    18a8: 06 13        	asl	$13                     ; 0x2013 <parse+0x979>
    18aa: 2a           	rol
    18ab: 06 13        	asl	$13                     ; 0x2013 <parse+0x979>
    18ad: 2a           	rol
    18ae: 06 13        	asl	$13                     ; 0x2013 <parse+0x979>
    18b0: 2a           	rol
    18b1: 85 0f        	sta	$f                      ; 0x200f <parse+0x975>
    18b3: a5 12        	lda	$12                     ; 0x2012 <parse+0x978>
    18b5: 09 e0        	ora	#$e0
    18b7: 85 17        	sta	$17                     ; 0x2017 <parse+0x97d>
    18b9: b2 16        	lda	($16)                   ; 0x2016 <parse+0x97c>
    18bb: 85 19        	sta	$19                     ; 0x2019 <parse+0x97f>
    18bd: 86 0f        	stx	$f                      ; 0x200f <parse+0x975>
    18bf: 58           	cli
    18c0: 18           	clc
    18c1: a5 14        	lda	$14                     ; 0x2014 <parse+0x97a>
    18c3: 69 06        	adc	#$6
    18c5: 85 16        	sta	$16                     ; 0x2016 <parse+0x97c>
    18c7: a5 1e        	lda	$1e                     ; 0x201e <parse+0x984>
    18c9: 69 80        	adc	#$80
    18cb: 85 12        	sta	$12                     ; 0x2012 <parse+0x978>
    18cd: a5 1f        	lda	$1f                     ; 0x201f <parse+0x985>
    18cf: 69 03        	adc	#$3
    18d1: a6 12        	ldx	$12                     ; 0x2012 <parse+0x978>
    18d3: 86 13        	stx	$13                     ; 0x2013 <parse+0x979>
    18d5: 06 13        	asl	$13                     ; 0x2013 <parse+0x979>
    18d7: 2a           	rol
    18d8: 06 13        	asl	$13                     ; 0x2013 <parse+0x979>
    18da: 2a           	rol
    18db: 06 13        	asl	$13                     ; 0x2013 <parse+0x979>
    18dd: 2a           	rol
    18de: a6 0f        	ldx	$f                      ; 0x200f <parse+0x975>
    18e0: 78           	sei
    18e1: 85 0f        	sta	$f                      ; 0x200f <parse+0x975>
    18e3: a5 12        	lda	$12                     ; 0x2012 <parse+0x978>
    18e5: 09 e0        	ora	#$e0
    18e7: 85 17        	sta	$17                     ; 0x2017 <parse+0x97d>
    18e9: b2 16        	lda	($16)                   ; 0x2016 <parse+0x97c>
    18eb: 85 12        	sta	$12                     ; 0x2012 <parse+0x978>
    18ed: 86 0f        	stx	$f                      ; 0x200f <parse+0x975>
    18ef: 18           	clc
    18f0: a5 14        	lda	$14                     ; 0x2014 <parse+0x97a>
    18f2: 69 07        	adc	#$7
    18f4: 85 16        	sta	$16                     ; 0x2016 <parse+0x97c>
    18f6: a5 1e        	lda	$1e                     ; 0x201e <parse+0x984>
    18f8: 69 80        	adc	#$80
    18fa: 85 17        	sta	$17                     ; 0x2017 <parse+0x97d>
    18fc: a5 1f        	lda	$1f                     ; 0x201f <parse+0x985>
    18fe: 69 03        	adc	#$3
    1900: a6 17        	ldx	$17                     ; 0x2017 <parse+0x97d>
    1902: 86 13        	stx	$13                     ; 0x2013 <parse+0x979>
    1904: 06 13        	asl	$13                     ; 0x2013 <parse+0x979>
    1906: 2a           	rol
    1907: 06 13        	asl	$13                     ; 0x2013 <parse+0x979>
    1909: 2a           	rol
    190a: 06 13        	asl	$13                     ; 0x2013 <parse+0x979>
    190c: 2a           	rol
    190d: 58           	cli
    190e: a6 0f        	ldx	$f                      ; 0x200f <parse+0x975>
    1910: 78           	sei
    1911: 85 0f        	sta	$f                      ; 0x200f <parse+0x975>
    1913: a5 17        	lda	$17                     ; 0x2017 <parse+0x97d>
    1915: 09 e0        	ora	#$e0
    1917: 85 17        	sta	$17                     ; 0x2017 <parse+0x97d>
    1919: b2 16        	lda	($16)                   ; 0x2016 <parse+0x97c>
    191b: 85 16        	sta	$16                     ; 0x2016 <parse+0x97c>
    191d: 86 0f        	stx	$f                      ; 0x200f <parse+0x975>
    191f: 18           	clc
    1920: a5 14        	lda	$14                     ; 0x2014 <parse+0x97a>
    1922: 69 08        	adc	#$8
    1924: 85 13        	sta	$13                     ; 0x2013 <parse+0x979>
    1926: a5 1e        	lda	$1e                     ; 0x201e <parse+0x984>
    1928: 69 00        	adc	#$0
    192a: 85 1e        	sta	$1e                     ; 0x201e <parse+0x984>
    192c: a5 1f        	lda	$1f                     ; 0x201f <parse+0x985>
    192e: 69 00        	adc	#$0
    1930: 85 17        	sta	$17                     ; 0x2017 <parse+0x97d>
    1932: a5 24        	lda	$24                     ; 0x2024 <parse+0x98a>
    1934: 69 00        	adc	#$0
    1936: a8           	tay
    1937: a6 13        	ldx	$13                     ; 0x2013 <parse+0x979>
    1939: 18           	clc
    193a: a5 16        	lda	$16                     ; 0x2016 <parse+0x97c>
    193c: 65 13        	adc	$13                     ; 0x2013 <parse+0x979>
    193e: 85 14        	sta	$14                     ; 0x2014 <parse+0x97a>
    1940: a5 12        	lda	$12                     ; 0x2012 <parse+0x978>
    1942: 65 1e        	adc	$1e                     ; 0x201e <parse+0x984>
    1944: 85 15        	sta	$15                     ; 0x2015 <parse+0x97b>
    1946: a5 17        	lda	$17                     ; 0x2017 <parse+0x97d>
    1948: 85 1f        	sta	$1f                     ; 0x201f <parse+0x985>
    194a: 85 13        	sta	$13                     ; 0x2013 <parse+0x979>
    194c: a5 19        	lda	$19                     ; 0x2019 <parse+0x97f>
    194e: 65 13        	adc	$13                     ; 0x2013 <parse+0x979>
    1950: 85 16        	sta	$16                     ; 0x2016 <parse+0x97c>
    1952: 84 13        	sty	$13                     ; 0x2013 <parse+0x979>
    1954: a5 1a        	lda	$1a                     ; 0x201a <parse+0x980>
    1956: 65 13        	adc	$13                     ; 0x2013 <parse+0x979>
    1958: 58           	cli
    1959: 85 29        	sta	$29                     ; 0x2029 <parse+0x98f>
    195b: c4 29        	cpy	$29                     ; 0x2029 <parse+0x98f>
    195d: d0 19        	bne	$1978 <parse+0x2de>
    195f: 84 24        	sty	$24                     ; 0x2024 <parse+0x98a>
    1961: a4 1f        	ldy	$1f                     ; 0x201f <parse+0x985>
    1963: c4 16        	cpy	$16                     ; 0x2016 <parse+0x97c>
    1965: d0 17        	bne	$197e <parse+0x2e4>
    1967: 8a           	txa
    1968: a6 1e        	ldx	$1e                     ; 0x201e <parse+0x984>
    196a: e4 15        	cpx	$15                     ; 0x2015 <parse+0x97b>
    196c: f0 03        	beq	$1971 <parse+0x2d7>
    196e: 4c 5c 1d     	jmp	$1d5c <parse+0x6c2>
    1971: c5 14        	cmp	$14                     ; 0x2014 <parse+0x97a>
    1973: 90 11        	bcc	$1986 <parse+0x2ec>
    1975: 4c 63 1d     	jmp	$1d63 <parse+0x6c9>
    1978: 84 24        	sty	$24                     ; 0x2024 <parse+0x98a>
    197a: c4 29        	cpy	$29                     ; 0x2029 <parse+0x98f>
    197c: 80 02        	bra	$1980 <parse+0x2e6>
    197e: c4 16        	cpy	$16                     ; 0x2016 <parse+0x97c>
    1980: 8a           	txa
    1981: 90 03        	bcc	$1986 <parse+0x2ec>
    1983: 4c 63 1d     	jmp	$1d63 <parse+0x6c9>
    1986: 48           	pha
    1987: a5 16        	lda	$16                     ; 0x2016 <parse+0x97c>
    1989: a0 15        	ldy	#$15
    198b: 91 10        	sta	($10),y                 ; 0x2010 <parse+0x976>
    198d: a5 15        	lda	$15                     ; 0x2015 <parse+0x97b>
    198f: a0 11        	ldy	#$11
    1991: 91 10        	sta	($10),y                 ; 0x2010 <parse+0x976>
    1993: a5 14        	lda	$14                     ; 0x2014 <parse+0x97a>
    1995: 88           	dey
    1996: 91 10        	sta	($10),y                 ; 0x2010 <parse+0x976>
    1998: 68           	pla
    1999: 64 13        	stz	$13                     ; 0x2013 <parse+0x979>
    199b: 48           	pha
    199c: a9 00        	lda	#$0
    199e: a0 0e        	ldy	#$e
    19a0: 91 10        	sta	($10),y                 ; 0x2010 <parse+0x976>
    19a2: c8           	iny
    19a3: 91 10        	sta	($10),y                 ; 0x2010 <parse+0x976>
    19a5: 68           	pla
    19a6: 64 16        	stz	$16                     ; 0x2016 <parse+0x97c>
    19a8: a8           	tay
    19a9: 18           	clc
    19aa: 69 00        	adc	#$0
    19ac: a6 1e        	ldx	$1e                     ; 0x201e <parse+0x984>
    19ae: 86 17        	stx	$17                     ; 0x2017 <parse+0x97d>
    19b0: a5 1e        	lda	$1e                     ; 0x201e <parse+0x984>
    19b2: 69 80        	adc	#$80
    19b4: 85 12        	sta	$12                     ; 0x2012 <parse+0x978>
    19b6: a5 1f        	lda	$1f                     ; 0x201f <parse+0x985>
    19b8: 69 03        	adc	#$3
    19ba: a6 0f        	ldx	$f                      ; 0x200f <parse+0x975>
    19bc: 78           	sei
    19bd: 06 12        	asl	$12                     ; 0x2012 <parse+0x978>
    19bf: 2a           	rol
    19c0: 06 12        	asl	$12                     ; 0x2012 <parse+0x978>
    19c2: 2a           	rol
    19c3: 06 12        	asl	$12                     ; 0x2012 <parse+0x978>
    19c5: 2a           	rol
    19c6: 85 0f        	sta	$f                      ; 0x200f <parse+0x975>
    19c8: a5 1e        	lda	$1e                     ; 0x201e <parse+0x984>
    19ca: 09 e0        	ora	#$e0
    19cc: 84 1c        	sty	$1c                     ; 0x201c <parse+0x982>
    19ce: 85 1d        	sta	$1d                     ; 0x201d <parse+0x983>
    19d0: b2 1c        	lda	($1c)                   ; 0x201c <parse+0x982>
    19d2: 86 0f        	stx	$f                      ; 0x200f <parse+0x975>
    19d4: 58           	cli
    19d5: a6 1f        	ldx	$1f                     ; 0x201f <parse+0x985>
    19d7: 86 25        	stx	$25                     ; 0x2025 <parse+0x98b>
    19d9: a6 24        	ldx	$24                     ; 0x2024 <parse+0x98a>
    19db: 86 22        	stx	$22                     ; 0x2022 <parse+0x988>
    19dd: 84 1d        	sty	$1d                     ; 0x201d <parse+0x983>
    19df: e6 1d        	inc	$1d                     ; 0x201d <parse+0x983>
    19e1: d0 0a        	bne	$19ed <parse+0x353>
    19e3: e6 1e        	inc	$1e                     ; 0x201e <parse+0x984>
    19e5: d0 06        	bne	$19ed <parse+0x353>
    19e7: e6 1f        	inc	$1f                     ; 0x201f <parse+0x985>
    19e9: d0 02        	bne	$19ed <parse+0x353>
    19eb: e6 22        	inc	$22                     ; 0x2022 <parse+0x988>
    19ed: aa           	tax
    19ee: 30 17        	bmi	$1a07 <parse+0x36d>
    19f0: a6 29        	ldx	$29                     ; 0x2029 <parse+0x98f>
    19f2: 86 12        	stx	$12                     ; 0x2012 <parse+0x978>
    19f4: 64 1c        	stz	$1c                     ; 0x201c <parse+0x982>
    19f6: 85 23        	sta	$23                     ; 0x2023 <parse+0x989>
    19f8: 64 1b        	stz	$1b                     ; 0x201b <parse+0x981>
    19fa: 64 17        	stz	$17                     ; 0x2017 <parse+0x97d>
    19fc: 64 27        	stz	$27                     ; 0x2027 <parse+0x98d>
    19fe: 64 15        	stz	$15                     ; 0x2015 <parse+0x97b>
    1a00: 64 24        	stz	$24                     ; 0x2024 <parse+0x98a>
    1a02: 64 14        	stz	$14                     ; 0x2014 <parse+0x97a>
    1a04: 4c 30 1b     	jmp	$1b30 <parse+0x496>
    1a07: 64 1b        	stz	$1b                     ; 0x201b <parse+0x981>
    1a09: 85 12        	sta	$12                     ; 0x2012 <parse+0x978>
    1a0b: 46 12        	lsr	$12                     ; 0x2012 <parse+0x978>
    1a0d: 64 13        	stz	$13                     ; 0x2013 <parse+0x979>
    1a0f: 66 13        	ror	$13                     ; 0x2013 <parse+0x979>
    1a11: 18           	clc
    1a12: 98           	tya
    1a13: 69 01        	adc	#$1
    1a15: 85 1c        	sta	$1c                     ; 0x201c <parse+0x982>
    1a17: a5 17        	lda	$17                     ; 0x2017 <parse+0x97d>
    1a19: 69 80        	adc	#$80
    1a1b: 85 14        	sta	$14                     ; 0x2014 <parse+0x97a>
    1a1d: 84 1f        	sty	$1f                     ; 0x201f <parse+0x985>
    1a1f: a6 17        	ldx	$17                     ; 0x2017 <parse+0x97d>
    1a21: 86 1e        	stx	$1e                     ; 0x201e <parse+0x984>
    1a23: a5 25        	lda	$25                     ; 0x2025 <parse+0x98b>
    1a25: 69 03        	adc	#$3
    1a27: a6 14        	ldx	$14                     ; 0x2014 <parse+0x97a>
    1a29: 86 17        	stx	$17                     ; 0x2017 <parse+0x97d>
    1a2b: 06 17        	asl	$17                     ; 0x2017 <parse+0x97d>
    1a2d: 2a           	rol
    1a2e: 06 17        	asl	$17                     ; 0x2017 <parse+0x97d>
    1a30: 2a           	rol
    1a31: 06 17        	asl	$17                     ; 0x2017 <parse+0x97d>
    1a33: 2a           	rol
    1a34: a6 0f        	ldx	$f                      ; 0x200f <parse+0x975>
    1a36: 78           	sei
    1a37: 85 0f        	sta	$f                      ; 0x200f <parse+0x975>
    1a39: a5 13        	lda	$13                     ; 0x2013 <parse+0x979>
    1a3b: 29 80        	and	#$80
    1a3d: 85 23        	sta	$23                     ; 0x2023 <parse+0x989>
    1a3f: a5 12        	lda	$12                     ; 0x2012 <parse+0x978>
    1a41: 29 3f        	and	#$3f
    1a43: a8           	tay
    1a44: a5 14        	lda	$14                     ; 0x2014 <parse+0x97a>
    1a46: 09 e0        	ora	#$e0
    1a48: 85 1d        	sta	$1d                     ; 0x201d <parse+0x983>
    1a4a: b2 1c        	lda	($1c)                   ; 0x201c <parse+0x982>
    1a4c: 86 0f        	stx	$f                      ; 0x200f <parse+0x975>
    1a4e: 58           	cli
    1a4f: aa           	tax
    1a50: 10 03        	bpl	$1a55 <parse+0x3bb>
    1a52: 4c b0 1a     	jmp	$1ab0 <parse+0x416>
    1a55: a6 29        	ldx	$29                     ; 0x2029 <parse+0x98f>
    1a57: 86 12        	stx	$12                     ; 0x2012 <parse+0x978>
    1a59: 85 14        	sta	$14                     ; 0x2014 <parse+0x97a>
    1a5b: 18           	clc
    1a5c: a5 1f        	lda	$1f                     ; 0x201f <parse+0x985>
    1a5e: 69 02        	adc	#$2
    1a60: 85 1d        	sta	$1d                     ; 0x201d <parse+0x983>
    1a62: a5 1e        	lda	$1e                     ; 0x201e <parse+0x984>
    1a64: 69 00        	adc	#$0
    1a66: 85 1e        	sta	$1e                     ; 0x201e <parse+0x984>
    1a68: a5 25        	lda	$25                     ; 0x2025 <parse+0x98b>
    1a6a: 69 00        	adc	#$0
    1a6c: 85 1f        	sta	$1f                     ; 0x201f <parse+0x985>
    1a6e: a5 24        	lda	$24                     ; 0x2024 <parse+0x98a>
    1a70: 69 00        	adc	#$0
    1a72: 85 22        	sta	$22                     ; 0x2022 <parse+0x988>
    1a74: 84 1c        	sty	$1c                     ; 0x201c <parse+0x982>
    1a76: 64 17        	stz	$17                     ; 0x2017 <parse+0x97d>
    1a78: 64 27        	stz	$27                     ; 0x2027 <parse+0x98d>
    1a7a: 64 15        	stz	$15                     ; 0x2015 <parse+0x97b>
    1a7c: 64 24        	stz	$24                     ; 0x2024 <parse+0x98a>
    1a7e: 4c 30 1b     	jmp	$1b30 <parse+0x496>
    1a81: a2 00        	ldx	#$0
    1a83: 1a           	inc
    1a84: d0 01        	bne	$1a87 <parse+0x3ed>
    1a86: e8           	inx
    1a87: 85 13        	sta	$13                     ; 0x2013 <parse+0x979>
    1a89: 86 17        	stx	$17                     ; 0x2017 <parse+0x97d>
    1a8b: 18           	clc
    1a8c: a5 1b        	lda	$1b                     ; 0x201b <parse+0x981>
    1a8e: 65 13        	adc	$13                     ; 0x2013 <parse+0x979>
    1a90: 85 14        	sta	$14                     ; 0x2014 <parse+0x97a>
    1a92: a5 1e        	lda	$1e                     ; 0x201e <parse+0x984>
    1a94: 65 17        	adc	$17                     ; 0x2017 <parse+0x97d>
    1a96: 85 1e        	sta	$1e                     ; 0x201e <parse+0x984>
    1a98: a5 1f        	lda	$1f                     ; 0x201f <parse+0x985>
    1a9a: 69 00        	adc	#$0
    1a9c: a8           	tay
    1a9d: a5 22        	lda	$22                     ; 0x2022 <parse+0x988>
    1a9f: 69 00        	adc	#$0
    1aa1: 4c fb 1c     	jmp	$1cfb <parse+0x661>
    1aa4: a6 13        	ldx	$13                     ; 0x2013 <parse+0x979>
    1aa6: 86 16        	stx	$16                     ; 0x2016 <parse+0x97c>
    1aa8: b0 03        	bcs	$1aad <parse+0x413>
    1aaa: 4c a8 19     	jmp	$19a8 <parse+0x30e>
    1aad: 4c 63 1d     	jmp	$1d63 <parse+0x6c9>
    1ab0: 4a           	lsr
    1ab1: 85 12        	sta	$12                     ; 0x2012 <parse+0x978>
    1ab3: 64 14        	stz	$14                     ; 0x2014 <parse+0x97a>
    1ab5: 66 14        	ror	$14                     ; 0x2014 <parse+0x97a>
    1ab7: 98           	tya
    1ab8: 4a           	lsr
    1ab9: a8           	tay
    1aba: a5 23        	lda	$23                     ; 0x2023 <parse+0x989>
    1abc: 6a           	ror
    1abd: 85 1b        	sta	$1b                     ; 0x201b <parse+0x981>
    1abf: 64 23        	stz	$23                     ; 0x2023 <parse+0x989>
    1ac1: 66 23        	ror	$23                     ; 0x2023 <parse+0x989>
    1ac3: 18           	clc
    1ac4: a5 1f        	lda	$1f                     ; 0x201f <parse+0x985>
    1ac6: 69 02        	adc	#$2
    1ac8: 85 1c        	sta	$1c                     ; 0x201c <parse+0x982>
    1aca: a5 1e        	lda	$1e                     ; 0x201e <parse+0x984>
    1acc: 69 80        	adc	#$80
    1ace: 85 13        	sta	$13                     ; 0x2013 <parse+0x979>
    1ad0: a5 25        	lda	$25                     ; 0x2025 <parse+0x98b>
    1ad2: 69 03        	adc	#$3
    1ad4: 5a           	phy
    1ad5: a6 13        	ldx	$13                     ; 0x2013 <parse+0x979>
    1ad7: 86 17        	stx	$17                     ; 0x2017 <parse+0x97d>
    1ad9: 06 17        	asl	$17                     ; 0x2017 <parse+0x97d>
    1adb: 2a           	rol
    1adc: 06 17        	asl	$17                     ; 0x2017 <parse+0x97d>
    1ade: 2a           	rol
    1adf: 06 17        	asl	$17                     ; 0x2017 <parse+0x97d>
    1ae1: 2a           	rol
    1ae2: a6 0f        	ldx	$f                      ; 0x200f <parse+0x975>
    1ae4: 78           	sei
    1ae5: 85 0f        	sta	$f                      ; 0x200f <parse+0x975>
    1ae7: a5 14        	lda	$14                     ; 0x2014 <parse+0x97a>
    1ae9: 64 17        	stz	$17                     ; 0x2017 <parse+0x97d>
    1aeb: 29 80        	and	#$80
    1aed: 85 14        	sta	$14                     ; 0x2014 <parse+0x97a>
    1aef: a5 12        	lda	$12                     ; 0x2012 <parse+0x978>
    1af1: 29 3f        	and	#$3f
    1af3: 85 27        	sta	$27                     ; 0x2027 <parse+0x98d>
    1af5: a5 13        	lda	$13                     ; 0x2013 <parse+0x979>
    1af7: 09 e0        	ora	#$e0
    1af9: 85 1d        	sta	$1d                     ; 0x201d <parse+0x983>
    1afb: b2 1c        	lda	($1c)                   ; 0x201c <parse+0x982>
    1afd: 86 0f        	stx	$f                      ; 0x200f <parse+0x975>
    1aff: 58           	cli
    1b00: aa           	tax
    1b01: a4 29        	ldy	$29                     ; 0x2029 <parse+0x98f>
    1b03: 84 12        	sty	$12                     ; 0x2012 <parse+0x978>
    1b05: 7a           	ply
    1b06: c9 00        	cmp	#$0
    1b08: 10 03        	bpl	$1b0d <parse+0x473>
    1b0a: 4c fc 1d     	jmp	$1dfc <parse+0x762>
    1b0d: a5 1b        	lda	$1b                     ; 0x201b <parse+0x981>
    1b0f: 85 1c        	sta	$1c                     ; 0x201c <parse+0x982>
    1b11: 18           	clc
    1b12: a5 1f        	lda	$1f                     ; 0x201f <parse+0x985>
    1b14: 69 03        	adc	#$3
    1b16: 85 1d        	sta	$1d                     ; 0x201d <parse+0x983>
    1b18: a5 1e        	lda	$1e                     ; 0x201e <parse+0x984>
    1b1a: 69 00        	adc	#$0
    1b1c: 85 1e        	sta	$1e                     ; 0x201e <parse+0x984>
    1b1e: a5 25        	lda	$25                     ; 0x2025 <parse+0x98b>
    1b20: 69 00        	adc	#$0
    1b22: 85 1f        	sta	$1f                     ; 0x201f <parse+0x985>
    1b24: a5 24        	lda	$24                     ; 0x2024 <parse+0x98a>
    1b26: 69 00        	adc	#$0
    1b28: 85 22        	sta	$22                     ; 0x2022 <parse+0x988>
    1b2a: 84 1b        	sty	$1b                     ; 0x201b <parse+0x981>
    1b2c: 64 15        	stz	$15                     ; 0x2015 <parse+0x97b>
    1b2e: 86 24        	stx	$24                     ; 0x2024 <parse+0x98a>
    1b30: 64 25        	stz	$25                     ; 0x2025 <parse+0x98b>
    1b32: 64 26        	stz	$26                     ; 0x2026 <parse+0x98c>
    1b34: 18           	clc
    1b35: a5 1d        	lda	$1d                     ; 0x201d <parse+0x983>
    1b37: 69 00        	adc	#$0
    1b39: a5 1e        	lda	$1e                     ; 0x201e <parse+0x984>
    1b3b: 69 80        	adc	#$80
    1b3d: 85 13        	sta	$13                     ; 0x2013 <parse+0x979>
    1b3f: a5 1f        	lda	$1f                     ; 0x201f <parse+0x985>
    1b41: 69 03        	adc	#$3
    1b43: a6 0f        	ldx	$f                      ; 0x200f <parse+0x975>
    1b45: 78           	sei
    1b46: 06 13        	asl	$13                     ; 0x2013 <parse+0x979>
    1b48: 2a           	rol
    1b49: 06 13        	asl	$13                     ; 0x2013 <parse+0x979>
    1b4b: 2a           	rol
    1b4c: 06 13        	asl	$13                     ; 0x2013 <parse+0x979>
    1b4e: 2a           	rol
    1b4f: 85 19        	sta	$19                     ; 0x2019 <parse+0x97f>
    1b51: 85 0f        	sta	$f                      ; 0x200f <parse+0x975>
    1b53: a5 1e        	lda	$1e                     ; 0x201e <parse+0x984>
    1b55: 09 e0        	ora	#$e0
    1b57: a4 1d        	ldy	$1d                     ; 0x201d <parse+0x983>
    1b59: 84 28        	sty	$28                     ; 0x2028 <parse+0x98e>
    1b5b: 85 29        	sta	$29                     ; 0x2029 <parse+0x98f>
    1b5d: b2 28        	lda	($28)                   ; 0x2028 <parse+0x98e>
    1b5f: 85 13        	sta	$13                     ; 0x2013 <parse+0x979>
    1b61: 86 0f        	stx	$f                      ; 0x200f <parse+0x975>
    1b63: 58           	cli
    1b64: 18           	clc
    1b65: a5 1d        	lda	$1d                     ; 0x201d <parse+0x983>
    1b67: 69 01        	adc	#$1
    1b69: a8           	tay
    1b6a: a5 1e        	lda	$1e                     ; 0x201e <parse+0x984>
    1b6c: 69 80        	adc	#$80
    1b6e: 85 2b        	sta	$2b                     ; 0x202b <parse+0x991>
    1b70: a5 1f        	lda	$1f                     ; 0x201f <parse+0x985>
    1b72: 69 03        	adc	#$3
    1b74: a6 2b        	ldx	$2b                     ; 0x202b <parse+0x991>
    1b76: 86 2a        	stx	$2a                     ; 0x202a <parse+0x990>
    1b78: 06 2a        	asl	$2a                     ; 0x202a <parse+0x990>
    1b7a: 2a           	rol
    1b7b: 06 2a        	asl	$2a                     ; 0x202a <parse+0x990>
    1b7d: 2a           	rol
    1b7e: 06 2a        	asl	$2a                     ; 0x202a <parse+0x990>
    1b80: 2a           	rol
    1b81: a6 0f        	ldx	$f                      ; 0x200f <parse+0x975>
    1b83: 78           	sei
    1b84: 85 1a        	sta	$1a                     ; 0x201a <parse+0x980>
    1b86: 85 0f        	sta	$f                      ; 0x200f <parse+0x975>
    1b88: a5 2b        	lda	$2b                     ; 0x202b <parse+0x991>
    1b8a: 09 e0        	ora	#$e0
    1b8c: 84 2a        	sty	$2a                     ; 0x202a <parse+0x990>
    1b8e: 85 2b        	sta	$2b                     ; 0x202b <parse+0x991>
    1b90: b2 2a        	lda	($2a)                   ; 0x202a <parse+0x990>
    1b92: 85 2e        	sta	$2e                     ; 0x202e <parse+0x994>
    1b94: 86 0f        	stx	$f                      ; 0x200f <parse+0x975>
    1b96: 18           	clc
    1b97: a5 1d        	lda	$1d                     ; 0x201d <parse+0x983>
    1b99: 69 02        	adc	#$2
    1b9b: a8           	tay
    1b9c: a5 1e        	lda	$1e                     ; 0x201e <parse+0x984>
    1b9e: 69 80        	adc	#$80
    1ba0: 85 2d        	sta	$2d                     ; 0x202d <parse+0x993>
    1ba2: a5 1f        	lda	$1f                     ; 0x201f <parse+0x985>
    1ba4: 69 03        	adc	#$3
    1ba6: a6 2d        	ldx	$2d                     ; 0x202d <parse+0x993>
    1ba8: 86 2c        	stx	$2c                     ; 0x202c <parse+0x992>
    1baa: 06 2c        	asl	$2c                     ; 0x202c <parse+0x992>
    1bac: 2a           	rol
    1bad: 06 2c        	asl	$2c                     ; 0x202c <parse+0x992>
    1baf: 2a           	rol
    1bb0: 06 2c        	asl	$2c                     ; 0x202c <parse+0x992>
    1bb2: 2a           	rol
    1bb3: 58           	cli
    1bb4: a6 0f        	ldx	$f                      ; 0x200f <parse+0x975>
    1bb6: 78           	sei
    1bb7: 85 0f        	sta	$f                      ; 0x200f <parse+0x975>
    1bb9: 84 2c        	sty	$2c                     ; 0x202c <parse+0x992>
    1bbb: a5 2d        	lda	$2d                     ; 0x202d <parse+0x993>
    1bbd: 09 e0        	ora	#$e0
    1bbf: 85 2d        	sta	$2d                     ; 0x202d <parse+0x993>
    1bc1: b2 2c        	lda	($2c)                   ; 0x202c <parse+0x992>
    1bc3: a0 17        	ldy	#$17
    1bc5: 91 10        	sta	($10),y                 ; 0x2010 <parse+0x976>
    1bc7: 86 0f        	stx	$f                      ; 0x200f <parse+0x975>
    1bc9: 58           	cli
    1bca: a4 1f        	ldy	$1f                     ; 0x201f <parse+0x985>
    1bcc: a6 22        	ldx	$22                     ; 0x2022 <parse+0x988>
    1bce: 86 2f        	stx	$2f                     ; 0x202f <parse+0x995>
    1bd0: a6 1e        	ldx	$1e                     ; 0x201e <parse+0x984>
    1bd2: a5 1d        	lda	$1d                     ; 0x201d <parse+0x983>
    1bd4: 1a           	inc
    1bd5: d0 08        	bne	$1bdf <parse+0x545>
    1bd7: e8           	inx
    1bd8: d0 05        	bne	$1bdf <parse+0x545>
    1bda: c8           	iny
    1bdb: d0 02        	bne	$1bdf <parse+0x545>
    1bdd: e6 2f        	inc	$2f                     ; 0x202f <parse+0x995>
    1bdf: e6 13        	inc	$13                     ; 0x2013 <parse+0x979>
    1be1: c6 13        	dec	$13                     ; 0x2013 <parse+0x979>
    1be3: 30 2e        	bmi	$1c13 <parse+0x579>
    1be5: a6 0f        	ldx	$f                      ; 0x200f <parse+0x975>
    1be7: 78           	sei
    1be8: a4 19        	ldy	$19                     ; 0x2019 <parse+0x97f>
    1bea: 84 0f        	sty	$f                      ; 0x200f <parse+0x975>
    1bec: b2 28        	lda	($28)                   ; 0x2028 <parse+0x98e>
    1bee: 85 2e        	sta	$2e                     ; 0x202e <parse+0x994>
    1bf0: 86 0f        	stx	$f                      ; 0x200f <parse+0x975>
    1bf2: 58           	cli
    1bf3: a6 0f        	ldx	$f                      ; 0x200f <parse+0x975>
    1bf5: 78           	sei
    1bf6: a4 1a        	ldy	$1a                     ; 0x201a <parse+0x980>
    1bf8: 84 0f        	sty	$f                      ; 0x200f <parse+0x975>
    1bfa: b2 2a        	lda	($2a)                   ; 0x202a <parse+0x990>
    1bfc: a0 17        	ldy	#$17
    1bfe: 91 10        	sta	($10),y                 ; 0x2010 <parse+0x976>
    1c00: 86 0f        	stx	$f                      ; 0x200f <parse+0x975>
    1c02: 58           	cli
    1c03: a5 1d        	lda	$1d                     ; 0x201d <parse+0x983>
    1c05: a6 1e        	ldx	$1e                     ; 0x201e <parse+0x984>
    1c07: a4 1f        	ldy	$1f                     ; 0x201f <parse+0x985>
    1c09: 48           	pha
    1c0a: a5 22        	lda	$22                     ; 0x2022 <parse+0x988>
    1c0c: 85 2f        	sta	$2f                     ; 0x202f <parse+0x995>
    1c0e: a5 16        	lda	$16                     ; 0x2016 <parse+0x97c>
    1c10: 85 13        	sta	$13                     ; 0x2013 <parse+0x979>
    1c12: 68           	pla
    1c13: 84 2d        	sty	$2d                     ; 0x202d <parse+0x993>
    1c15: 86 2c        	stx	$2c                     ; 0x202c <parse+0x992>
    1c17: a6 13        	ldx	$13                     ; 0x2013 <parse+0x979>
    1c19: e0 ff        	cpx	#$ff
    1c1b: f0 03        	beq	$1c20 <parse+0x586>
    1c1d: 4c f8 1f     	jmp	$1ff8 <parse+0x95e>
    1c20: 18           	clc
    1c21: 85 1b        	sta	$1b                     ; 0x201b <parse+0x981>
    1c23: 69 00        	adc	#$0
    1c25: a4 2c        	ldy	$2c                     ; 0x202c <parse+0x992>
    1c27: a5 2c        	lda	$2c                     ; 0x202c <parse+0x992>
    1c29: 69 80        	adc	#$80
    1c2b: 85 13        	sta	$13                     ; 0x2013 <parse+0x979>
    1c2d: 5a           	phy
    1c2e: a6 2d        	ldx	$2d                     ; 0x202d <parse+0x993>
    1c30: 86 17        	stx	$17                     ; 0x2017 <parse+0x97d>
    1c32: a5 2d        	lda	$2d                     ; 0x202d <parse+0x993>
    1c34: 69 03        	adc	#$3
    1c36: a6 0f        	ldx	$f                      ; 0x200f <parse+0x975>
    1c38: 78           	sei
    1c39: 06 13        	asl	$13                     ; 0x2013 <parse+0x979>
    1c3b: 2a           	rol
    1c3c: 06 13        	asl	$13                     ; 0x2013 <parse+0x979>
    1c3e: 2a           	rol
    1c3f: 06 13        	asl	$13                     ; 0x2013 <parse+0x979>
    1c41: 2a           	rol
    1c42: 85 0f        	sta	$f                      ; 0x200f <parse+0x975>
    1c44: a5 2c        	lda	$2c                     ; 0x202c <parse+0x992>
    1c46: 09 e0        	ora	#$e0
    1c48: a4 1b        	ldy	$1b                     ; 0x201b <parse+0x981>
    1c4a: 84 1c        	sty	$1c                     ; 0x201c <parse+0x982>
    1c4c: 7a           	ply
    1c4d: 85 1d        	sta	$1d                     ; 0x201d <parse+0x983>
    1c4f: b2 1c        	lda	($1c)                   ; 0x201c <parse+0x982>
    1c51: 86 0f        	stx	$f                      ; 0x200f <parse+0x975>
    1c53: 58           	cli
    1c54: a6 2f        	ldx	$2f                     ; 0x202f <parse+0x995>
    1c56: e6 1b        	inc	$1b                     ; 0x201b <parse+0x981>
    1c58: d0 08        	bne	$1c62 <parse+0x5c8>
    1c5a: c8           	iny
    1c5b: d0 05        	bne	$1c62 <parse+0x5c8>
    1c5d: e6 17        	inc	$17                     ; 0x2017 <parse+0x97d>
    1c5f: d0 01        	bne	$1c62 <parse+0x5c8>
    1c61: e8           	inx
    1c62: 86 22        	stx	$22                     ; 0x2022 <parse+0x988>
    1c64: a6 17        	ldx	$17                     ; 0x2017 <parse+0x97d>
    1c66: 86 1f        	stx	$1f                     ; 0x201f <parse+0x985>
    1c68: 84 1e        	sty	$1e                     ; 0x201e <parse+0x984>
    1c6a: 38           	sec
    1c6b: aa           	tax
    1c6c: e9 2f        	sbc	#$2f
    1c6e: a4 12        	ldy	$12                     ; 0x2012 <parse+0x978>
    1c70: 84 29        	sty	$29                     ; 0x2029 <parse+0x98f>
    1c72: 50 02        	bvc	$1c76 <parse+0x5dc>
    1c74: 49 80        	eor	#$80
    1c76: a8           	tay
    1c77: 10 0d        	bpl	$1c86 <parse+0x5ec>
    1c79: 8a           	txa
    1c7a: e0 08        	cpx	#$8
    1c7c: 90 03        	bcc	$1c81 <parse+0x5e7>
    1c7e: 4c dc 1c     	jmp	$1cdc <parse+0x642>
    1c81: 0a           	asl
    1c82: aa           	tax
    1c83: 7c a0 2f     	jmp	($2fa0,x)               ; 0x2fa0 <__set_v+0x1>
    1c86: e0 2f        	cpx	#$2f
    1c88: f0 0b        	beq	$1c95 <parse+0x5fb>
    1c8a: e0 7f        	cpx	#$7f
    1c8c: f0 03        	beq	$1c91 <parse+0x5f7>
    1c8e: 4c 39 22     	jmp	$2239 <parse+0xb9f>
    1c91: a5 22        	lda	$22                     ; 0x2022 <parse+0x988>
    1c93: 80 17        	bra	$1cac <parse+0x612>
    1c95: 18           	clc
    1c96: a5 1c        	lda	$1c                     ; 0x201c <parse+0x982>
    1c98: 69 02        	adc	#$2
    1c9a: 85 1b        	sta	$1b                     ; 0x201b <parse+0x981>
    1c9c: a5 2c        	lda	$2c                     ; 0x202c <parse+0x992>
    1c9e: 69 00        	adc	#$0
    1ca0: 85 1e        	sta	$1e                     ; 0x201e <parse+0x984>
    1ca2: a5 2d        	lda	$2d                     ; 0x202d <parse+0x993>
    1ca4: 69 00        	adc	#$0
    1ca6: 85 1f        	sta	$1f                     ; 0x201f <parse+0x985>
    1ca8: a5 2f        	lda	$2f                     ; 0x202f <parse+0x995>
    1caa: 69 00        	adc	#$0
    1cac: c5 29        	cmp	$29                     ; 0x2029 <parse+0x98f>
    1cae: d0 25        	bne	$1cd5 <parse+0x63b>
    1cb0: a6 1f        	ldx	$1f                     ; 0x201f <parse+0x985>
    1cb2: 48           	pha
    1cb3: a0 15        	ldy	#$15
    1cb5: b1 10        	lda	($10),y                 ; 0x2010 <parse+0x976>
    1cb7: 85 13        	sta	$13                     ; 0x2013 <parse+0x979>
    1cb9: 68           	pla
    1cba: e4 13        	cpx	$13                     ; 0x2013 <parse+0x979>
    1cbc: f0 03        	beq	$1cc1 <parse+0x627>
    1cbe: 4c 51 1d     	jmp	$1d51 <parse+0x6b7>
    1cc1: 85 24        	sta	$24                     ; 0x2024 <parse+0x98a>
    1cc3: a6 1e        	ldx	$1e                     ; 0x201e <parse+0x984>
    1cc5: a0 11        	ldy	#$11
    1cc7: b1 10        	lda	($10),y                 ; 0x2010 <parse+0x976>
    1cc9: 85 13        	sta	$13                     ; 0x2013 <parse+0x979>
    1ccb: e4 13        	cpx	$13                     ; 0x2013 <parse+0x979>
    1ccd: f0 03        	beq	$1cd2 <parse+0x638>
    1ccf: 4c 53 1d     	jmp	$1d53 <parse+0x6b9>
    1cd2: 4c 92 1e     	jmp	$1e92 <parse+0x7f8>
    1cd5: 85 24        	sta	$24                     ; 0x2024 <parse+0x98a>
    1cd7: c5 29        	cmp	$29                     ; 0x2029 <parse+0x98f>
    1cd9: 4c 55 1d     	jmp	$1d55 <parse+0x6bb>
    1cdc: a4 2c        	ldy	$2c                     ; 0x202c <parse+0x992>
    1cde: c9 20        	cmp	#$20
    1ce0: f0 03        	beq	$1ce5 <parse+0x64b>
    1ce2: 4c cd 1d     	jmp	$1dcd <parse+0x733>
    1ce5: 18           	clc
    1ce6: a5 1c        	lda	$1c                     ; 0x201c <parse+0x982>
    1ce8: 69 03        	adc	#$3
    1cea: aa           	tax
    1ceb: 98           	tya
    1cec: 69 00        	adc	#$0
    1cee: 85 1e        	sta	$1e                     ; 0x201e <parse+0x984>
    1cf0: a5 2d        	lda	$2d                     ; 0x202d <parse+0x993>
    1cf2: 69 00        	adc	#$0
    1cf4: a8           	tay
    1cf5: a5 2f        	lda	$2f                     ; 0x202f <parse+0x995>
    1cf7: 69 00        	adc	#$0
    1cf9: 86 14        	stx	$14                     ; 0x2014 <parse+0x97a>
    1cfb: a2 ff        	ldx	#$ff
    1cfd: 48           	pha
    1cfe: 8a           	txa
    1cff: 5a           	phy
    1d00: a0 16        	ldy	#$16
    1d02: 91 10        	sta	($10),y                 ; 0x2010 <parse+0x976>
    1d04: 7a           	ply
    1d05: 68           	pla
    1d06: c5 29        	cmp	$29                     ; 0x2029 <parse+0x98f>
    1d08: d0 2e        	bne	$1d38 <parse+0x69e>
    1d0a: 85 24        	sta	$24                     ; 0x2024 <parse+0x98a>
    1d0c: 5a           	phy
    1d0d: a0 15        	ldy	#$15
    1d0f: b1 10        	lda	($10),y                 ; 0x2010 <parse+0x976>
    1d11: 7a           	ply
    1d12: 85 13        	sta	$13                     ; 0x2013 <parse+0x979>
    1d14: c4 13        	cpy	$13                     ; 0x2013 <parse+0x979>
    1d16: d0 28        	bne	$1d40 <parse+0x6a6>
    1d18: a6 1e        	ldx	$1e                     ; 0x201e <parse+0x984>
    1d1a: 84 21        	sty	$21                     ; 0x2021 <parse+0x987>
    1d1c: a0 16        	ldy	#$16
    1d1e: b1 10        	lda	($10),y                 ; 0x2010 <parse+0x976>
    1d20: 85 13        	sta	$13                     ; 0x2013 <parse+0x979>
    1d22: a5 14        	lda	$14                     ; 0x2014 <parse+0x97a>
    1d24: 48           	pha
    1d25: a0 11        	ldy	#$11
    1d27: b1 10        	lda	($10),y                 ; 0x2010 <parse+0x976>
    1d29: a4 21        	ldy	$21                     ; 0x2021 <parse+0x987>
    1d2b: 85 14        	sta	$14                     ; 0x2014 <parse+0x97a>
    1d2d: 68           	pla
    1d2e: e4 14        	cpx	$14                     ; 0x2014 <parse+0x97a>
    1d30: f0 03        	beq	$1d35 <parse+0x69b>
    1d32: 4c f5 1d     	jmp	$1df5 <parse+0x75b>
    1d35: 4c e6 1d     	jmp	$1de6 <parse+0x74c>
    1d38: 84 1f        	sty	$1f                     ; 0x201f <parse+0x985>
    1d3a: 85 24        	sta	$24                     ; 0x2024 <parse+0x98a>
    1d3c: c5 29        	cmp	$29                     ; 0x2029 <parse+0x98f>
    1d3e: 80 04        	bra	$1d44 <parse+0x6aa>
    1d40: 84 1f        	sty	$1f                     ; 0x201f <parse+0x985>
    1d42: c4 13        	cpy	$13                     ; 0x2013 <parse+0x979>
    1d44: a0 16        	ldy	#$16
    1d46: b1 10        	lda	($10),y                 ; 0x2010 <parse+0x976>
    1d48: 85 16        	sta	$16                     ; 0x2016 <parse+0x97c>
    1d4a: a5 14        	lda	$14                     ; 0x2014 <parse+0x97a>
    1d4c: b0 15        	bcs	$1d63 <parse+0x6c9>
    1d4e: 4c a8 19     	jmp	$19a8 <parse+0x30e>
    1d51: 85 24        	sta	$24                     ; 0x2024 <parse+0x98a>
    1d53: e4 13        	cpx	$13                     ; 0x2013 <parse+0x979>
    1d55: a5 1b        	lda	$1b                     ; 0x201b <parse+0x981>
    1d57: b0 0a        	bcs	$1d63 <parse+0x6c9>
    1d59: 4c a8 19     	jmp	$19a8 <parse+0x30e>
    1d5c: e4 15        	cpx	$15                     ; 0x2015 <parse+0x97b>
    1d5e: b0 03        	bcs	$1d63 <parse+0x6c9>
    1d60: 4c 86 19     	jmp	$1986 <parse+0x2ec>
    1d63: 85 13        	sta	$13                     ; 0x2013 <parse+0x979>
    1d65: a0 18        	ldy	#$18
    1d67: b1 10        	lda	($10),y                 ; 0x2010 <parse+0x976>
    1d69: aa           	tax
    1d6a: e6 18        	inc	$18                     ; 0x2018 <parse+0x97e>
    1d6c: d0 01        	bne	$1d6f <parse+0x6d5>
    1d6e: e8           	inx
    1d6f: a5 18        	lda	$18                     ; 0x2018 <parse+0x97e>
    1d71: e4 6e        	cpx	$6e                     ; 0x206e <parse+0x9d4>
    1d73: d0 0b        	bne	$1d80 <parse+0x6e6>
    1d75: a4 6d        	ldy	$6d                     ; 0x206d <parse+0x9d3>
    1d77: 84 12        	sty	$12                     ; 0x2012 <parse+0x978>
    1d79: c5 12        	cmp	$12                     ; 0x2012 <parse+0x978>
    1d7b: 8a           	txa
    1d7c: a0 18        	ldy	#$18
    1d7e: 80 03        	bra	$1d83 <parse+0x6e9>
    1d80: e4 6e        	cpx	$6e                     ; 0x206e <parse+0x9d4>
    1d82: 8a           	txa
    1d83: 91 10        	sta	($10),y                 ; 0x2010 <parse+0x976>
    1d85: b0 03        	bcs	$1d8a <parse+0x6f0>
    1d87: 4c 5c 18     	jmp	$185c <parse+0x1c2>
    1d8a: a0 00        	ldy	#$0
    1d8c: b1 10        	lda	($10),y                 ; 0x2010 <parse+0x976>
    1d8e: 85 2f        	sta	$2f                     ; 0x202f <parse+0x995>
    1d90: c8           	iny
    1d91: b1 10        	lda	($10),y                 ; 0x2010 <parse+0x976>
    1d93: 85 2e        	sta	$2e                     ; 0x202e <parse+0x994>
    1d95: c8           	iny
    1d96: b1 10        	lda	($10),y                 ; 0x2010 <parse+0x976>
    1d98: 85 2d        	sta	$2d                     ; 0x202d <parse+0x993>
    1d9a: c8           	iny
    1d9b: b1 10        	lda	($10),y                 ; 0x2010 <parse+0x976>
    1d9d: 85 2c        	sta	$2c                     ; 0x202c <parse+0x992>
    1d9f: c8           	iny
    1da0: b1 10        	lda	($10),y                 ; 0x2010 <parse+0x976>
    1da2: 85 2b        	sta	$2b                     ; 0x202b <parse+0x991>
    1da4: c8           	iny
    1da5: b1 10        	lda	($10),y                 ; 0x2010 <parse+0x976>
    1da7: 85 2a        	sta	$2a                     ; 0x202a <parse+0x990>
    1da9: c8           	iny
    1daa: b1 10        	lda	($10),y                 ; 0x2010 <parse+0x976>
    1dac: 85 29        	sta	$29                     ; 0x2029 <parse+0x98f>
    1dae: c8           	iny
    1daf: b1 10        	lda	($10),y                 ; 0x2010 <parse+0x976>
    1db1: 85 28        	sta	$28                     ; 0x2028 <parse+0x98e>
    1db3: fa           	plx
    1db4: 86 27        	stx	$27                     ; 0x2027 <parse+0x98d>
    1db6: fa           	plx
    1db7: 86 26        	stx	$26                     ; 0x2026 <parse+0x98c>
    1db9: fa           	plx
    1dba: 86 25        	stx	$25                     ; 0x2025 <parse+0x98b>
    1dbc: fa           	plx
    1dbd: 86 24        	stx	$24                     ; 0x2024 <parse+0x98a>
    1dbf: 18           	clc
    1dc0: a5 10        	lda	$10                     ; 0x2010 <parse+0x976>
    1dc2: 69 19        	adc	#$19
    1dc4: 85 10        	sta	$10                     ; 0x2010 <parse+0x976>
    1dc6: a5 11        	lda	$11                     ; 0x2011 <parse+0x977>
    1dc8: 69 00        	adc	#$0
    1dca: 85 11        	sta	$11                     ; 0x2011 <parse+0x977>
    1dcc: 60           	rts
    1dcd: c9 21        	cmp	#$21
    1dcf: d0 03        	bne	$1dd4 <parse+0x73a>
    1dd1: 4c e5 1c     	jmp	$1ce5 <parse+0x64b>
    1dd4: a2 ff        	ldx	#$ff
    1dd6: 8a           	txa
    1dd7: a0 16        	ldy	#$16
    1dd9: 91 10        	sta	($10),y                 ; 0x2010 <parse+0x976>
    1ddb: a6 1b        	ldx	$1b                     ; 0x201b <parse+0x981>
    1ddd: 86 14        	stx	$14                     ; 0x2014 <parse+0x97a>
    1ddf: a4 17        	ldy	$17                     ; 0x2017 <parse+0x97d>
    1de1: a5 22        	lda	$22                     ; 0x2022 <parse+0x988>
    1de3: 4c 06 1d     	jmp	$1d06 <parse+0x66c>
    1de6: 84 1f        	sty	$1f                     ; 0x201f <parse+0x985>
    1de8: 48           	pha
    1de9: a0 10        	ldy	#$10
    1deb: b1 10        	lda	($10),y                 ; 0x2010 <parse+0x976>
    1ded: 85 14        	sta	$14                     ; 0x2014 <parse+0x97a>
    1def: 68           	pla
    1df0: c5 14        	cmp	$14                     ; 0x2014 <parse+0x97a>
    1df2: 4c a4 1a     	jmp	$1aa4 <parse+0x40a>
    1df5: 84 1f        	sty	$1f                     ; 0x201f <parse+0x985>
    1df7: e4 14        	cpx	$14                     ; 0x2014 <parse+0x97a>
    1df9: 4c a4 1a     	jmp	$1aa4 <parse+0x40a>
    1dfc: 85 13        	sta	$13                     ; 0x2013 <parse+0x979>
    1dfe: 46 13        	lsr	$13                     ; 0x2013 <parse+0x979>
    1e00: a9 00        	lda	#$0
    1e02: 6a           	ror
    1e03: 85 19        	sta	$19                     ; 0x2019 <parse+0x97f>
    1e05: a6 27        	ldx	$27                     ; 0x2027 <parse+0x98d>
    1e07: 86 15        	stx	$15                     ; 0x2015 <parse+0x97b>
    1e09: a6 14        	ldx	$14                     ; 0x2014 <parse+0x97a>
    1e0b: 86 27        	stx	$27                     ; 0x2027 <parse+0x98d>
    1e0d: 46 15        	lsr	$15                     ; 0x2015 <parse+0x97b>
    1e0f: 66 27        	ror	$27                     ; 0x2027 <parse+0x98d>
    1e11: 64 14        	stz	$14                     ; 0x2014 <parse+0x97a>
    1e13: 66 14        	ror	$14                     ; 0x2014 <parse+0x97a>
    1e15: 84 26        	sty	$26                     ; 0x2026 <parse+0x98c>
    1e17: 46 26        	lsr	$26                     ; 0x2026 <parse+0x98c>
    1e19: 66 1b        	ror	$1b                     ; 0x201b <parse+0x981>
    1e1b: 66 23        	ror	$23                     ; 0x2023 <parse+0x989>
    1e1d: 64 1c        	stz	$1c                     ; 0x201c <parse+0x982>
    1e1f: 66 1c        	ror	$1c                     ; 0x201c <parse+0x982>
    1e21: 18           	clc
    1e22: a5 1f        	lda	$1f                     ; 0x201f <parse+0x985>
    1e24: a4 1f        	ldy	$1f                     ; 0x201f <parse+0x985>
    1e26: 69 03        	adc	#$3
    1e28: 85 1d        	sta	$1d                     ; 0x201d <parse+0x983>
    1e2a: a5 1e        	lda	$1e                     ; 0x201e <parse+0x984>
    1e2c: a6 1e        	ldx	$1e                     ; 0x201e <parse+0x984>
    1e2e: 86 1a        	stx	$1a                     ; 0x201a <parse+0x980>
    1e30: 69 80        	adc	#$80
    1e32: 85 1f        	sta	$1f                     ; 0x201f <parse+0x985>
    1e34: a5 25        	lda	$25                     ; 0x2025 <parse+0x98b>
    1e36: 69 03        	adc	#$3
    1e38: a6 1f        	ldx	$1f                     ; 0x201f <parse+0x985>
    1e3a: 86 17        	stx	$17                     ; 0x2017 <parse+0x97d>
    1e3c: 06 17        	asl	$17                     ; 0x2017 <parse+0x97d>
    1e3e: 2a           	rol
    1e3f: 06 17        	asl	$17                     ; 0x2017 <parse+0x97d>
    1e41: 2a           	rol
    1e42: 06 17        	asl	$17                     ; 0x2017 <parse+0x97d>
    1e44: 2a           	rol
    1e45: a6 0f        	ldx	$f                      ; 0x200f <parse+0x975>
    1e47: 78           	sei
    1e48: 85 0f        	sta	$f                      ; 0x200f <parse+0x975>
    1e4a: a5 1d        	lda	$1d                     ; 0x201d <parse+0x983>
    1e4c: 85 1e        	sta	$1e                     ; 0x201e <parse+0x984>
    1e4e: a5 1f        	lda	$1f                     ; 0x201f <parse+0x985>
    1e50: 09 e0        	ora	#$e0
    1e52: 85 1f        	sta	$1f                     ; 0x201f <parse+0x985>
    1e54: b2 1e        	lda	($1e)                   ; 0x201e <parse+0x984>
    1e56: 85 28        	sta	$28                     ; 0x2028 <parse+0x98e>
    1e58: 86 0f        	stx	$f                      ; 0x200f <parse+0x975>
    1e5a: 18           	clc
    1e5b: 98           	tya
    1e5c: 69 04        	adc	#$4
    1e5e: 85 1d        	sta	$1d                     ; 0x201d <parse+0x983>
    1e60: a5 1a        	lda	$1a                     ; 0x201a <parse+0x980>
    1e62: 69 00        	adc	#$0
    1e64: 85 1e        	sta	$1e                     ; 0x201e <parse+0x984>
    1e66: a5 25        	lda	$25                     ; 0x2025 <parse+0x98b>
    1e68: 69 00        	adc	#$0
    1e6a: 85 1f        	sta	$1f                     ; 0x201f <parse+0x985>
    1e6c: a5 24        	lda	$24                     ; 0x2024 <parse+0x98a>
    1e6e: 69 00        	adc	#$0
    1e70: 85 22        	sta	$22                     ; 0x2022 <parse+0x988>
    1e72: a6 26        	ldx	$26                     ; 0x2026 <parse+0x98c>
    1e74: 86 17        	stx	$17                     ; 0x2017 <parse+0x97d>
    1e76: a5 19        	lda	$19                     ; 0x2019 <parse+0x97f>
    1e78: 29 80        	and	#$80
    1e7a: 85 24        	sta	$24                     ; 0x2024 <parse+0x98a>
    1e7c: a5 13        	lda	$13                     ; 0x2013 <parse+0x979>
    1e7e: 29 3f        	and	#$3f
    1e80: 85 25        	sta	$25                     ; 0x2025 <parse+0x98b>
    1e82: a6 28        	ldx	$28                     ; 0x2028 <parse+0x98e>
    1e84: 86 26        	stx	$26                     ; 0x2026 <parse+0x98c>
    1e86: 58           	cli
    1e87: a5 23        	lda	$23                     ; 0x2023 <parse+0x989>
    1e89: a6 1c        	ldx	$1c                     ; 0x201c <parse+0x982>
    1e8b: 86 23        	stx	$23                     ; 0x2023 <parse+0x989>
    1e8d: 85 1c        	sta	$1c                     ; 0x201c <parse+0x982>
    1e8f: 4c 34 1b     	jmp	$1b34 <parse+0x49a>
    1e92: a0 10        	ldy	#$10
    1e94: b1 10        	lda	($10),y                 ; 0x2010 <parse+0x976>
    1e96: 85 14        	sta	$14                     ; 0x2014 <parse+0x97a>
    1e98: a5 1b        	lda	$1b                     ; 0x201b <parse+0x981>
    1e9a: c5 14        	cmp	$14                     ; 0x2014 <parse+0x97a>
    1e9c: b0 03        	bcs	$1ea1 <parse+0x807>
    1e9e: 4c a8 19     	jmp	$19a8 <parse+0x30e>
    1ea1: 4c 63 1d     	jmp	$1d63 <parse+0x6c9>
    1ea4: 18           	clc
    1ea5: a5 1c        	lda	$1c                     ; 0x201c <parse+0x982>
    1ea7: 69 01        	adc	#$1
    1ea9: 85 1c        	sta	$1c                     ; 0x201c <parse+0x982>
    1eab: a5 2c        	lda	$2c                     ; 0x202c <parse+0x992>
    1ead: 69 80        	adc	#$80
    1eaf: a8           	tay
    1eb0: a5 2d        	lda	$2d                     ; 0x202d <parse+0x993>
    1eb2: 69 03        	adc	#$3
    1eb4: 85 12        	sta	$12                     ; 0x2012 <parse+0x978>
    1eb6: 98           	tya
    1eb7: 0a           	asl
    1eb8: 26 12        	rol	$12                     ; 0x2012 <parse+0x978>
    1eba: 0a           	asl
    1ebb: 26 12        	rol	$12                     ; 0x2012 <parse+0x978>
    1ebd: 0a           	asl
    1ebe: a5 12        	lda	$12                     ; 0x2012 <parse+0x978>
    1ec0: 2a           	rol
    1ec1: a6 0f        	ldx	$f                      ; 0x200f <parse+0x975>
    1ec3: 78           	sei
    1ec4: 85 0f        	sta	$f                      ; 0x200f <parse+0x975>
    1ec6: 98           	tya
    1ec7: 09 e0        	ora	#$e0
    1ec9: 85 1d        	sta	$1d                     ; 0x201d <parse+0x983>
    1ecb: b2 1c        	lda	($1c)                   ; 0x201c <parse+0x982>
    1ecd: 86 0f        	stx	$f                      ; 0x200f <parse+0x975>
    1ecf: 58           	cli
    1ed0: 4c 81 1a     	jmp	$1a81 <parse+0x3e7>
    1ed3: 18           	clc
    1ed4: a5 1c        	lda	$1c                     ; 0x201c <parse+0x982>
    1ed6: 69 01        	adc	#$1
    1ed8: 85 1c        	sta	$1c                     ; 0x201c <parse+0x982>
    1eda: a5 2c        	lda	$2c                     ; 0x202c <parse+0x992>
    1edc: 69 80        	adc	#$80
    1ede: a8           	tay
    1edf: a5 2d        	lda	$2d                     ; 0x202d <parse+0x993>
    1ee1: 69 03        	adc	#$3
    1ee3: 85 12        	sta	$12                     ; 0x2012 <parse+0x978>
    1ee5: 98           	tya
    1ee6: 0a           	asl
    1ee7: 26 12        	rol	$12                     ; 0x2012 <parse+0x978>
    1ee9: 0a           	asl
    1eea: 26 12        	rol	$12                     ; 0x2012 <parse+0x978>
    1eec: 0a           	asl
    1eed: a5 12        	lda	$12                     ; 0x2012 <parse+0x978>
    1eef: 2a           	rol
    1ef0: a6 0f        	ldx	$f                      ; 0x200f <parse+0x975>
    1ef2: 78           	sei
    1ef3: 85 0f        	sta	$f                      ; 0x200f <parse+0x975>
    1ef5: 98           	tya
    1ef6: 09 e0        	ora	#$e0
    1ef8: 85 1d        	sta	$1d                     ; 0x201d <parse+0x983>
    1efa: b2 1c        	lda	($1c)                   ; 0x201c <parse+0x982>
    1efc: 86 0f        	stx	$f                      ; 0x200f <parse+0x975>
    1efe: 58           	cli
    1eff: 4c 81 1a     	jmp	$1a81 <parse+0x3e7>
    1f02: 18           	clc
    1f03: a5 1c        	lda	$1c                     ; 0x201c <parse+0x982>
    1f05: 69 01        	adc	#$1
    1f07: 85 1c        	sta	$1c                     ; 0x201c <parse+0x982>
    1f09: a5 2c        	lda	$2c                     ; 0x202c <parse+0x992>
    1f0b: 69 80        	adc	#$80
    1f0d: a8           	tay
    1f0e: a5 2d        	lda	$2d                     ; 0x202d <parse+0x993>
    1f10: 69 03        	adc	#$3
    1f12: 85 12        	sta	$12                     ; 0x2012 <parse+0x978>
    1f14: 98           	tya
    1f15: 0a           	asl
    1f16: 26 12        	rol	$12                     ; 0x2012 <parse+0x978>
    1f18: 0a           	asl
    1f19: 26 12        	rol	$12                     ; 0x2012 <parse+0x978>
    1f1b: 0a           	asl
    1f1c: a5 12        	lda	$12                     ; 0x2012 <parse+0x978>
    1f1e: 2a           	rol
    1f1f: a6 0f        	ldx	$f                      ; 0x200f <parse+0x975>
    1f21: 78           	sei
    1f22: 85 0f        	sta	$f                      ; 0x200f <parse+0x975>
    1f24: 98           	tya
    1f25: 09 e0        	ora	#$e0
    1f27: 85 1d        	sta	$1d                     ; 0x201d <parse+0x983>
    1f29: b2 1c        	lda	($1c)                   ; 0x201c <parse+0x982>
    1f2b: 86 0f        	stx	$f                      ; 0x200f <parse+0x975>
    1f2d: 58           	cli
    1f2e: 4c 81 1a     	jmp	$1a81 <parse+0x3e7>
    1f31: 18           	clc
    1f32: a5 1c        	lda	$1c                     ; 0x201c <parse+0x982>
    1f34: 69 01        	adc	#$1
    1f36: 85 1c        	sta	$1c                     ; 0x201c <parse+0x982>
    1f38: a5 2c        	lda	$2c                     ; 0x202c <parse+0x992>
    1f3a: 69 80        	adc	#$80
    1f3c: a8           	tay
    1f3d: a5 2d        	lda	$2d                     ; 0x202d <parse+0x993>
    1f3f: 69 03        	adc	#$3
    1f41: 85 12        	sta	$12                     ; 0x2012 <parse+0x978>
    1f43: 98           	tya
    1f44: 0a           	asl
    1f45: 26 12        	rol	$12                     ; 0x2012 <parse+0x978>
    1f47: 0a           	asl
    1f48: 26 12        	rol	$12                     ; 0x2012 <parse+0x978>
    1f4a: 0a           	asl
    1f4b: a5 12        	lda	$12                     ; 0x2012 <parse+0x978>
    1f4d: 2a           	rol
    1f4e: a6 0f        	ldx	$f                      ; 0x200f <parse+0x975>
    1f50: 78           	sei
    1f51: 85 0f        	sta	$f                      ; 0x200f <parse+0x975>
    1f53: 98           	tya
    1f54: 09 e0        	ora	#$e0
    1f56: 85 1d        	sta	$1d                     ; 0x201d <parse+0x983>
    1f58: b2 1c        	lda	($1c)                   ; 0x201c <parse+0x982>
    1f5a: 86 0f        	stx	$f                      ; 0x200f <parse+0x975>
    1f5c: 58           	cli
    1f5d: 4c 81 1a     	jmp	$1a81 <parse+0x3e7>
    1f60: 18           	clc
    1f61: a5 1c        	lda	$1c                     ; 0x201c <parse+0x982>
    1f63: 69 03        	adc	#$3
    1f65: aa           	tax
    1f66: a5 2c        	lda	$2c                     ; 0x202c <parse+0x992>
    1f68: 4c ec 1c     	jmp	$1cec <parse+0x652>
    1f6b: 18           	clc
    1f6c: a5 1c        	lda	$1c                     ; 0x201c <parse+0x982>
    1f6e: 69 01        	adc	#$1
    1f70: 85 1c        	sta	$1c                     ; 0x201c <parse+0x982>
    1f72: a5 2c        	lda	$2c                     ; 0x202c <parse+0x992>
    1f74: 69 80        	adc	#$80
    1f76: a8           	tay
    1f77: a5 2d        	lda	$2d                     ; 0x202d <parse+0x993>
    1f79: 69 03        	adc	#$3
    1f7b: 85 12        	sta	$12                     ; 0x2012 <parse+0x978>
    1f7d: 98           	tya
    1f7e: 0a           	asl
    1f7f: 26 12        	rol	$12                     ; 0x2012 <parse+0x978>
    1f81: 0a           	asl
    1f82: 26 12        	rol	$12                     ; 0x2012 <parse+0x978>
    1f84: 0a           	asl
    1f85: a5 12        	lda	$12                     ; 0x2012 <parse+0x978>
    1f87: 2a           	rol
    1f88: a6 0f        	ldx	$f                      ; 0x200f <parse+0x975>
    1f8a: 78           	sei
    1f8b: 85 0f        	sta	$f                      ; 0x200f <parse+0x975>
    1f8d: 98           	tya
    1f8e: 09 e0        	ora	#$e0
    1f90: 85 1d        	sta	$1d                     ; 0x201d <parse+0x983>
    1f92: b2 1c        	lda	($1c)                   ; 0x201c <parse+0x982>
    1f94: 86 0f        	stx	$f                      ; 0x200f <parse+0x975>
    1f96: 58           	cli
    1f97: 4c 81 1a     	jmp	$1a81 <parse+0x3e7>
    1f9a: 18           	clc
    1f9b: a5 1c        	lda	$1c                     ; 0x201c <parse+0x982>
    1f9d: 69 01        	adc	#$1
    1f9f: 85 1c        	sta	$1c                     ; 0x201c <parse+0x982>
    1fa1: a5 2c        	lda	$2c                     ; 0x202c <parse+0x992>
    1fa3: 69 80        	adc	#$80
    1fa5: a8           	tay
    1fa6: a5 2d        	lda	$2d                     ; 0x202d <parse+0x993>
    1fa8: 69 03        	adc	#$3
    1faa: 85 12        	sta	$12                     ; 0x2012 <parse+0x978>
    1fac: 98           	tya
    1fad: 0a           	asl
    1fae: 26 12        	rol	$12                     ; 0x2012 <parse+0x978>
    1fb0: 0a           	asl
    1fb1: 26 12        	rol	$12                     ; 0x2012 <parse+0x978>
    1fb3: 0a           	asl
    1fb4: a5 12        	lda	$12                     ; 0x2012 <parse+0x978>
    1fb6: 2a           	rol
    1fb7: a6 0f        	ldx	$f                      ; 0x200f <parse+0x975>
    1fb9: 78           	sei
    1fba: 85 0f        	sta	$f                      ; 0x200f <parse+0x975>
    1fbc: 98           	tya
    1fbd: 09 e0        	ora	#$e0
    1fbf: 85 1d        	sta	$1d                     ; 0x201d <parse+0x983>
    1fc1: b2 1c        	lda	($1c)                   ; 0x201c <parse+0x982>
    1fc3: 86 0f        	stx	$f                      ; 0x200f <parse+0x975>
    1fc5: 58           	cli
    1fc6: 4c 81 1a     	jmp	$1a81 <parse+0x3e7>
    1fc9: 18           	clc
    1fca: a5 1c        	lda	$1c                     ; 0x201c <parse+0x982>
    1fcc: 69 01        	adc	#$1
    1fce: 85 1c        	sta	$1c                     ; 0x201c <parse+0x982>
    1fd0: a5 2c        	lda	$2c                     ; 0x202c <parse+0x992>
    1fd2: 69 80        	adc	#$80
    1fd4: a8           	tay
    1fd5: a5 2d        	lda	$2d                     ; 0x202d <parse+0x993>
    1fd7: 69 03        	adc	#$3
    1fd9: 85 12        	sta	$12                     ; 0x2012 <parse+0x978>
    1fdb: 98           	tya
    1fdc: 0a           	asl
    1fdd: 26 12        	rol	$12                     ; 0x2012 <parse+0x978>
    1fdf: 0a           	asl
    1fe0: 26 12        	rol	$12                     ; 0x2012 <parse+0x978>
    1fe2: 0a           	asl
    1fe3: a5 12        	lda	$12                     ; 0x2012 <parse+0x978>
    1fe5: 2a           	rol
    1fe6: a6 0f        	ldx	$f                      ; 0x200f <parse+0x975>
    1fe8: 78           	sei
    1fe9: 85 0f        	sta	$f                      ; 0x200f <parse+0x975>
    1feb: 98           	tya
    1fec: 09 e0        	ora	#$e0
    1fee: 85 1d        	sta	$1d                     ; 0x201d <parse+0x983>
    1ff0: b2 1c        	lda	($1c)                   ; 0x201c <parse+0x982>
    1ff2: 86 0f        	stx	$f                      ; 0x200f <parse+0x975>
    1ff4: 58           	cli
    1ff5: 4c 81 1a     	jmp	$1a81 <parse+0x3e7>
    1ff8: a0 0d        	ldy	#$d
    1ffa: 91 10        	sta	($10),y                 ; 0x2010 <parse+0x976>
    1ffc: a5 14        	lda	$14                     ; 0x2014 <parse+0x97a>
    1ffe: 05 23        	ora	$23                     ; 0x2023 <parse+0x989>
    2000: aa           	tax
    2001: a5 27        	lda	$27                     ; 0x2027 <parse+0x98d>
    2003: 05 1c        	ora	$1c                     ; 0x201c <parse+0x982>
    2005: a8           	tay
    2006: a5 15        	lda	$15                     ; 0x2015 <parse+0x97b>
    2008: 05 1b        	ora	$1b                     ; 0x201b <parse+0x981>
    200a: 5a           	phy
    200b: a0 0b        	ldy	#$b
    200d: 91 10        	sta	($10),y                 ; 0x2010 <parse+0x976>
    200f: 7a           	ply
    2010: 8a           	txa
    2011: 05 24        	ora	$24                     ; 0x2024 <parse+0x98a>
    2013: aa           	tax
    2014: 98           	tya
    2015: 05 25        	ora	$25                     ; 0x2025 <parse+0x98b>
    2017: a0 0c        	ldy	#$c
    2019: 91 10        	sta	($10),y                 ; 0x2010 <parse+0x976>
    201b: 8a           	txa
    201c: 05 26        	ora	$26                     ; 0x2026 <parse+0x98c>
    201e: 85 16        	sta	$16                     ; 0x2016 <parse+0x97c>
    2020: a5 18        	lda	$18                     ; 0x2018 <parse+0x97e>
    2022: 0a           	asl
    2023: 48           	pha
    2024: a0 18        	ldy	#$18
    2026: b1 10        	lda	($10),y                 ; 0x2010 <parse+0x976>
    2028: 85 14        	sta	$14                     ; 0x2014 <parse+0x97a>
    202a: 68           	pla
    202b: 26 14        	rol	$14                     ; 0x2014 <parse+0x97a>
    202d: 0a           	asl
    202e: 26 14        	rol	$14                     ; 0x2014 <parse+0x97a>
    2030: 0a           	asl
    2031: 85 1f        	sta	$1f                     ; 0x201f <parse+0x985>
    2033: 26 14        	rol	$14                     ; 0x2014 <parse+0x97a>
    2035: a4 14        	ldy	$14                     ; 0x2014 <parse+0x97a>
    2037: a6 13        	ldx	$13                     ; 0x2013 <parse+0x979>
    2039: e0 c0        	cpx	#$c0
    203b: 8a           	txa
    203c: 5a           	phy
    203d: a0 16        	ldy	#$16
    203f: 91 10        	sta	($10),y                 ; 0x2010 <parse+0x976>
    2041: 7a           	ply
    2042: a6 12        	ldx	$12                     ; 0x2012 <parse+0x978>
    2044: 86 29        	stx	$29                     ; 0x2029 <parse+0x98f>
    2046: b0 03        	bcs	$204b <parse+0x9b1>
    2048: 4c 78 23     	jmp	$2378 <parse+0xcde>
    204b: a6 13        	ldx	$13                     ; 0x2013 <parse+0x979>
    204d: e0 e0        	cpx	#$e0
    204f: 90 03        	bcc	$2054 <parse+0x9ba>
    2051: 4c 8d 23     	jmp	$238d <parse+0xcf3>
    2054: a6 75        	ldx	$75                     ; 0x2075 <parse+0x9db>
    2056: 86 1a        	stx	$1a                     ; 0x201a <parse+0x980>
    2058: a6 76        	ldx	$76                     ; 0x2076 <parse+0x9dc>
    205a: 86 19        	stx	$19                     ; 0x2019 <parse+0x97f>
    205c: 5a           	phy
    205d: a0 14        	ldy	#$14
    205f: b1 10        	lda	($10),y                 ; 0x2010 <parse+0x976>
    2061: 7a           	ply
    2062: c9 00        	cmp	#$0
    2064: d0 03        	bne	$2069 <parse+0x9cf>
    2066: 4c 58 27     	jmp	$2758 <parse+0x10be>
    2069: 38           	sec
    206a: a5 1f        	lda	$1f                     ; 0x201f <parse+0x985>
    206c: e5 18        	sbc	$18                     ; 0x2018 <parse+0x97e>
    206e: 85 13        	sta	$13                     ; 0x2013 <parse+0x979>
    2070: 98           	tya
    2071: 48           	pha
    2072: a0 18        	ldy	#$18
    2074: b1 10        	lda	($10),y                 ; 0x2010 <parse+0x976>
    2076: 85 12        	sta	$12                     ; 0x2012 <parse+0x978>
    2078: 68           	pla
    2079: e5 12        	sbc	$12                     ; 0x2012 <parse+0x978>
    207b: 85 1b        	sta	$1b                     ; 0x201b <parse+0x981>
    207d: 18           	clc
    207e: a5 1a        	lda	$1a                     ; 0x201a <parse+0x980>
    2080: 65 13        	adc	$13                     ; 0x2013 <parse+0x979>
    2082: aa           	tax
    2083: a5 19        	lda	$19                     ; 0x2019 <parse+0x97f>
    2085: 65 1b        	adc	$1b                     ; 0x201b <parse+0x981>
    2087: 86 1c        	stx	$1c                     ; 0x201c <parse+0x982>
    2089: 85 1d        	sta	$1d                     ; 0x201d <parse+0x983>
    208b: a8           	tay
    208c: 18           	clc
    208d: 8a           	txa
    208e: 69 03        	adc	#$3
    2090: 85 1e        	sta	$1e                     ; 0x201e <parse+0x984>
    2092: 98           	tya
    2093: 69 00        	adc	#$0
    2095: 85 1f        	sta	$1f                     ; 0x201f <parse+0x985>
    2097: a0 0e        	ldy	#$e
    2099: b1 10        	lda	($10),y                 ; 0x2010 <parse+0x976>
    209b: 0a           	asl
    209c: 48           	pha
    209d: c8           	iny
    209e: b1 10        	lda	($10),y                 ; 0x2010 <parse+0x976>
    20a0: 85 13        	sta	$13                     ; 0x2013 <parse+0x979>
    20a2: 68           	pla
    20a3: 26 13        	rol	$13                     ; 0x2013 <parse+0x979>
    20a5: 64 14        	stz	$14                     ; 0x2014 <parse+0x97a>
    20a7: 26 14        	rol	$14                     ; 0x2014 <parse+0x97a>
    20a9: 0a           	asl
    20aa: 26 13        	rol	$13                     ; 0x2013 <parse+0x979>
    20ac: 26 14        	rol	$14                     ; 0x2014 <parse+0x97a>
    20ae: 0a           	asl
    20af: a6 13        	ldx	$13                     ; 0x2013 <parse+0x979>
    20b1: 86 12        	stx	$12                     ; 0x2012 <parse+0x978>
    20b3: 26 12        	rol	$12                     ; 0x2012 <parse+0x978>
    20b5: a6 14        	ldx	$14                     ; 0x2014 <parse+0x97a>
    20b7: 86 13        	stx	$13                     ; 0x2013 <parse+0x979>
    20b9: 26 13        	rol	$13                     ; 0x2013 <parse+0x979>
    20bb: 18           	clc
    20bc: a0 03        	ldy	#$3
    20be: 71 1c        	adc	($1c),y                 ; 0x201c <parse+0x982>
    20c0: 85 27        	sta	$27                     ; 0x2027 <parse+0x98d>
    20c2: a0 01        	ldy	#$1
    20c4: a5 12        	lda	$12                     ; 0x2012 <parse+0x978>
    20c6: 71 1e        	adc	($1e),y                 ; 0x201e <parse+0x984>
    20c8: 85 28        	sta	$28                     ; 0x2028 <parse+0x98e>
    20ca: c8           	iny
    20cb: a5 13        	lda	$13                     ; 0x2013 <parse+0x979>
    20cd: 71 1e        	adc	($1e),y                 ; 0x201e <parse+0x984>
    20cf: 85 24        	sta	$24                     ; 0x2024 <parse+0x98a>
    20d1: a6 6f        	ldx	$6f                     ; 0x206f <parse+0x9d5>
    20d3: 86 1a        	stx	$1a                     ; 0x201a <parse+0x980>
    20d5: a6 16        	ldx	$16                     ; 0x2016 <parse+0x97c>
    20d7: 86 14        	stx	$14                     ; 0x2014 <parse+0x97a>
    20d9: a5 70        	lda	$70                     ; 0x2070 <parse+0x9d6>
    20db: a4 71        	ldy	$71                     ; 0x2071 <parse+0x9d7>
    20dd: a6 72        	ldx	$72                     ; 0x2072 <parse+0x9d8>
    20df: 48           	pha
    20e0: a5 18        	lda	$18                     ; 0x2018 <parse+0x97e>
    20e2: 85 25        	sta	$25                     ; 0x2025 <parse+0x98b>
    20e4: 68           	pla
    20e5: 84 12        	sty	$12                     ; 0x2012 <parse+0x978>
    20e7: 86 13        	stx	$13                     ; 0x2013 <parse+0x979>
    20e9: 48           	pha
    20ea: a0 0c        	ldy	#$c
    20ec: b1 10        	lda	($10),y                 ; 0x2010 <parse+0x976>
    20ee: 85 15        	sta	$15                     ; 0x2015 <parse+0x97b>
    20f0: 88           	dey
    20f1: b1 10        	lda	($10),y                 ; 0x2010 <parse+0x976>
    20f3: 85 16        	sta	$16                     ; 0x2016 <parse+0x97c>
    20f5: 68           	pla
    20f6: aa           	tax
    20f7: a5 1a        	lda	$1a                     ; 0x201a <parse+0x980>
    20f9: 20 c0 2d     	jsr	$2dc0 <__mulsi3>
    20fc: 85 16        	sta	$16                     ; 0x2016 <parse+0x97c>
    20fe: 86 17        	stx	$17                     ; 0x2017 <parse+0x97d>
    2100: a6 25        	ldx	$25                     ; 0x2025 <parse+0x98b>
    2102: 86 18        	stx	$18                     ; 0x2018 <parse+0x97e>
    2104: 18           	clc
    2105: a5 27        	lda	$27                     ; 0x2027 <parse+0x98d>
    2107: 69 00        	adc	#$0
    2109: a5 28        	lda	$28                     ; 0x2028 <parse+0x98e>
    210b: 69 80        	adc	#$80
    210d: 85 14        	sta	$14                     ; 0x2014 <parse+0x97a>
    210f: a5 24        	lda	$24                     ; 0x2024 <parse+0x98a>
    2111: 69 05        	adc	#$5
    2113: 06 14        	asl	$14                     ; 0x2014 <parse+0x97a>
    2115: 2a           	rol
    2116: 06 14        	asl	$14                     ; 0x2014 <parse+0x97a>
    2118: 2a           	rol
    2119: 06 14        	asl	$14                     ; 0x2014 <parse+0x97a>
    211b: 2a           	rol
    211c: a6 0f        	ldx	$f                      ; 0x200f <parse+0x975>
    211e: 78           	sei
    211f: 85 0f        	sta	$f                      ; 0x200f <parse+0x975>
    2121: a5 28        	lda	$28                     ; 0x2028 <parse+0x98e>
    2123: 09 e0        	ora	#$e0
    2125: a4 27        	ldy	$27                     ; 0x2027 <parse+0x98d>
    2127: 84 1c        	sty	$1c                     ; 0x201c <parse+0x982>
    2129: 85 1d        	sta	$1d                     ; 0x201d <parse+0x983>
    212b: a5 12        	lda	$12                     ; 0x2012 <parse+0x978>
    212d: 92 1c        	sta	($1c)                   ; 0x201c <parse+0x982>
    212f: a0 01        	ldy	#$1
    2131: a5 13        	lda	$13                     ; 0x2013 <parse+0x979>
    2133: 91 1c        	sta	($1c),y                 ; 0x201c <parse+0x982>
    2135: 86 0f        	stx	$f                      ; 0x200f <parse+0x975>
    2137: 18           	clc
    2138: a5 27        	lda	$27                     ; 0x2027 <parse+0x98d>
    213a: 69 02        	adc	#$2
    213c: 85 1c        	sta	$1c                     ; 0x201c <parse+0x982>
    213e: a5 28        	lda	$28                     ; 0x2028 <parse+0x98e>
    2140: 69 80        	adc	#$80
    2142: 85 12        	sta	$12                     ; 0x2012 <parse+0x978>
    2144: a5 24        	lda	$24                     ; 0x2024 <parse+0x98a>
    2146: 69 05        	adc	#$5
    2148: a6 12        	ldx	$12                     ; 0x2012 <parse+0x978>
    214a: 86 13        	stx	$13                     ; 0x2013 <parse+0x979>
    214c: 06 13        	asl	$13                     ; 0x2013 <parse+0x979>
    214e: 2a           	rol
    214f: 06 13        	asl	$13                     ; 0x2013 <parse+0x979>
    2151: 2a           	rol
    2152: 06 13        	asl	$13                     ; 0x2013 <parse+0x979>
    2154: 2a           	rol
    2155: 58           	cli
    2156: a6 0f        	ldx	$f                      ; 0x200f <parse+0x975>
    2158: 78           	sei
    2159: 85 0f        	sta	$f                      ; 0x200f <parse+0x975>
    215b: a5 12        	lda	$12                     ; 0x2012 <parse+0x978>
    215d: 09 e0        	ora	#$e0
    215f: 85 1d        	sta	$1d                     ; 0x201d <parse+0x983>
    2161: a5 16        	lda	$16                     ; 0x2016 <parse+0x97c>
    2163: 92 1c        	sta	($1c)                   ; 0x201c <parse+0x982>
    2165: a5 17        	lda	$17                     ; 0x2017 <parse+0x97d>
    2167: 91 1c        	sta	($1c),y                 ; 0x201c <parse+0x982>
    2169: 86 0f        	stx	$f                      ; 0x200f <parse+0x975>
    216b: 18           	clc
    216c: a5 27        	lda	$27                     ; 0x2027 <parse+0x98d>
    216e: 69 04        	adc	#$4
    2170: 85 1c        	sta	$1c                     ; 0x201c <parse+0x982>
    2172: a5 28        	lda	$28                     ; 0x2028 <parse+0x98e>
    2174: 69 80        	adc	#$80
    2176: a8           	tay
    2177: a5 24        	lda	$24                     ; 0x2024 <parse+0x98a>
    2179: 69 05        	adc	#$5
    217b: 84 13        	sty	$13                     ; 0x2013 <parse+0x979>
    217d: 06 13        	asl	$13                     ; 0x2013 <parse+0x979>
    217f: 2a           	rol
    2180: 06 13        	asl	$13                     ; 0x2013 <parse+0x979>
    2182: 2a           	rol
    2183: 06 13        	asl	$13                     ; 0x2013 <parse+0x979>
    2185: 2a           	rol
    2186: 58           	cli
    2187: a6 0f        	ldx	$f                      ; 0x200f <parse+0x975>
    2189: 78           	sei
    218a: 85 0f        	sta	$f                      ; 0x200f <parse+0x975>
    218c: 98           	tya
    218d: 09 e0        	ora	#$e0
    218f: 85 1d        	sta	$1d                     ; 0x201d <parse+0x983>
    2191: a9 02        	lda	#$2
    2193: 92 1c        	sta	($1c)                   ; 0x201c <parse+0x982>
    2195: 86 0f        	stx	$f                      ; 0x200f <parse+0x975>
    2197: 18           	clc
    2198: a5 27        	lda	$27                     ; 0x2027 <parse+0x98d>
    219a: 69 05        	adc	#$5
    219c: 85 1c        	sta	$1c                     ; 0x201c <parse+0x982>
    219e: a5 28        	lda	$28                     ; 0x2028 <parse+0x98e>
    21a0: 69 80        	adc	#$80
    21a2: a8           	tay
    21a3: a5 24        	lda	$24                     ; 0x2024 <parse+0x98a>
    21a5: 69 05        	adc	#$5
    21a7: 84 13        	sty	$13                     ; 0x2013 <parse+0x979>
    21a9: 06 13        	asl	$13                     ; 0x2013 <parse+0x979>
    21ab: 2a           	rol
    21ac: 06 13        	asl	$13                     ; 0x2013 <parse+0x979>
    21ae: 2a           	rol
    21af: 06 13        	asl	$13                     ; 0x2013 <parse+0x979>
    21b1: 2a           	rol
    21b2: 58           	cli
    21b3: a6 0f        	ldx	$f                      ; 0x200f <parse+0x975>
    21b5: 78           	sei
    21b6: 85 0f        	sta	$f                      ; 0x200f <parse+0x975>
    21b8: 98           	tya
    21b9: 09 e0        	ora	#$e0
    21bb: 85 1d        	sta	$1d                     ; 0x201d <parse+0x983>
    21bd: a0 16        	ldy	#$16
    21bf: b1 10        	lda	($10),y                 ; 0x2010 <parse+0x976>
    21c1: 92 1c        	sta	($1c)                   ; 0x201c <parse+0x982>
    21c3: 86 0f        	stx	$f                      ; 0x200f <parse+0x975>
    21c5: 18           	clc
    21c6: a5 27        	lda	$27                     ; 0x2027 <parse+0x98d>
    21c8: 69 06        	adc	#$6
    21ca: 85 1c        	sta	$1c                     ; 0x201c <parse+0x982>
    21cc: a5 28        	lda	$28                     ; 0x2028 <parse+0x98e>
    21ce: 69 80        	adc	#$80
    21d0: a8           	tay
    21d1: a5 24        	lda	$24                     ; 0x2024 <parse+0x98a>
    21d3: 69 05        	adc	#$5
    21d5: 84 13        	sty	$13                     ; 0x2013 <parse+0x979>
    21d7: 06 13        	asl	$13                     ; 0x2013 <parse+0x979>
    21d9: 2a           	rol
    21da: 06 13        	asl	$13                     ; 0x2013 <parse+0x979>
    21dc: 2a           	rol
    21dd: 06 13        	asl	$13                     ; 0x2013 <parse+0x979>
    21df: 2a           	rol
    21e0: 58           	cli
    21e1: a6 0f        	ldx	$f                      ; 0x200f <parse+0x975>
    21e3: 78           	sei
    21e4: 85 0f        	sta	$f                      ; 0x200f <parse+0x975>
    21e6: 98           	tya
    21e7: 09 e0        	ora	#$e0
    21e9: 85 1d        	sta	$1d                     ; 0x201d <parse+0x983>
    21eb: a5 2e        	lda	$2e                     ; 0x202e <parse+0x994>
    21ed: 92 1c        	sta	($1c)                   ; 0x201c <parse+0x982>
    21ef: 86 0f        	stx	$f                      ; 0x200f <parse+0x975>
    21f1: 58           	cli
    21f2: 18           	clc
    21f3: a5 27        	lda	$27                     ; 0x2027 <parse+0x98d>
    21f5: 69 07        	adc	#$7
    21f7: 85 1c        	sta	$1c                     ; 0x201c <parse+0x982>
    21f9: a5 28        	lda	$28                     ; 0x2028 <parse+0x98e>
    21fb: 69 80        	adc	#$80
    21fd: a8           	tay
    21fe: a5 24        	lda	$24                     ; 0x2024 <parse+0x98a>
    2200: 69 05        	adc	#$5
    2202: 85 13        	sta	$13                     ; 0x2013 <parse+0x979>
    2204: 98           	tya
    2205: 0a           	asl
    2206: 26 13        	rol	$13                     ; 0x2013 <parse+0x979>
    2208: 0a           	asl
    2209: 26 13        	rol	$13                     ; 0x2013 <parse+0x979>
    220b: 0a           	asl
    220c: a5 13        	lda	$13                     ; 0x2013 <parse+0x979>
    220e: 2a           	rol
    220f: a6 0f        	ldx	$f                      ; 0x200f <parse+0x975>
    2211: 78           	sei
    2212: 85 0f        	sta	$f                      ; 0x200f <parse+0x975>
    2214: 98           	tya
    2215: 09 e0        	ora	#$e0
    2217: 85 1d        	sta	$1d                     ; 0x201d <parse+0x983>
    2219: a9 00        	lda	#$0
    221b: 92 1c        	sta	($1c)                   ; 0x201c <parse+0x982>
    221d: 86 0f        	stx	$f                      ; 0x200f <parse+0x975>
    221f: 58           	cli
    2220: a0 0f        	ldy	#$f
    2222: b1 10        	lda	($10),y                 ; 0x2010 <parse+0x976>
    2224: aa           	tax
    2225: 88           	dey
    2226: b1 10        	lda	($10),y                 ; 0x2010 <parse+0x976>
    2228: a8           	tay
    2229: c8           	iny
    222a: d0 01        	bne	$222d <parse+0xb93>
    222c: e8           	inx
    222d: 98           	tya
    222e: a0 0e        	ldy	#$e
    2230: 91 10        	sta	($10),y                 ; 0x2010 <parse+0x976>
    2232: 8a           	txa
    2233: c8           	iny
    2234: 91 10        	sta	($10),y                 ; 0x2010 <parse+0x976>
    2236: 4c 98 27     	jmp	$2798 <parse+0x10fe>
    2239: 8a           	txa
    223a: 38           	sec
    223b: e9 51        	sbc	#$51
    223d: c9 09        	cmp	#$9
    223f: 90 03        	bcc	$2244 <parse+0xbaa>
    2241: 4c d4 1d     	jmp	$1dd4 <parse+0x73a>
    2244: 0a           	asl
    2245: aa           	tax
    2246: 7c b0 2f     	jmp	($2fb0,x)               ; 0x2fb0 <__set_v+0x11>
    2249: 18           	clc
    224a: a4 1c        	ldy	$1c                     ; 0x201c <parse+0x982>
    224c: a5 1c        	lda	$1c                     ; 0x201c <parse+0x982>
    224e: 69 01        	adc	#$1
    2250: 85 1c        	sta	$1c                     ; 0x201c <parse+0x982>
    2252: a6 2c        	ldx	$2c                     ; 0x202c <parse+0x992>
    2254: a5 2c        	lda	$2c                     ; 0x202c <parse+0x992>
    2256: 69 80        	adc	#$80
    2258: 85 12        	sta	$12                     ; 0x2012 <parse+0x978>
    225a: 86 14        	stx	$14                     ; 0x2014 <parse+0x97a>
    225c: a5 2d        	lda	$2d                     ; 0x202d <parse+0x993>
    225e: 69 03        	adc	#$3
    2260: a6 0f        	ldx	$f                      ; 0x200f <parse+0x975>
    2262: 78           	sei
    2263: 5a           	phy
    2264: a4 12        	ldy	$12                     ; 0x2012 <parse+0x978>
    2266: 84 13        	sty	$13                     ; 0x2013 <parse+0x979>
    2268: 7a           	ply
    2269: 06 13        	asl	$13                     ; 0x2013 <parse+0x979>
    226b: 2a           	rol
    226c: 06 13        	asl	$13                     ; 0x2013 <parse+0x979>
    226e: 2a           	rol
    226f: 06 13        	asl	$13                     ; 0x2013 <parse+0x979>
    2271: 2a           	rol
    2272: 85 0f        	sta	$f                      ; 0x200f <parse+0x975>
    2274: a5 12        	lda	$12                     ; 0x2012 <parse+0x978>
    2276: 09 e0        	ora	#$e0
    2278: 85 1d        	sta	$1d                     ; 0x201d <parse+0x983>
    227a: b2 1c        	lda	($1c)                   ; 0x201c <parse+0x982>
    227c: 86 0f        	stx	$f                      ; 0x200f <parse+0x975>
    227e: 58           	cli
    227f: 18           	clc
    2280: 98           	tya
    2281: 69 02        	adc	#$2
    2283: 85 1c        	sta	$1c                     ; 0x201c <parse+0x982>
    2285: a5 14        	lda	$14                     ; 0x2014 <parse+0x97a>
    2287: 69 80        	adc	#$80
    2289: 85 12        	sta	$12                     ; 0x2012 <parse+0x978>
    228b: a5 2d        	lda	$2d                     ; 0x202d <parse+0x993>
    228d: 69 03        	adc	#$3
    228f: a6 0f        	ldx	$f                      ; 0x200f <parse+0x975>
    2291: 78           	sei
    2292: 5a           	phy
    2293: a4 12        	ldy	$12                     ; 0x2012 <parse+0x978>
    2295: 84 13        	sty	$13                     ; 0x2013 <parse+0x979>
    2297: 7a           	ply
    2298: 06 13        	asl	$13                     ; 0x2013 <parse+0x979>
    229a: 2a           	rol
    229b: 06 13        	asl	$13                     ; 0x2013 <parse+0x979>
    229d: 2a           	rol
    229e: 06 13        	asl	$13                     ; 0x2013 <parse+0x979>
    22a0: 2a           	rol
    22a1: 85 0f        	sta	$f                      ; 0x200f <parse+0x975>
    22a3: a5 12        	lda	$12                     ; 0x2012 <parse+0x978>
    22a5: 09 e0        	ora	#$e0
    22a7: 85 1d        	sta	$1d                     ; 0x201d <parse+0x983>
    22a9: b2 1c        	lda	($1c)                   ; 0x201c <parse+0x982>
    22ab: 85 12        	sta	$12                     ; 0x2012 <parse+0x978>
    22ad: 86 0f        	stx	$f                      ; 0x200f <parse+0x975>
    22af: 58           	cli
    22b0: 18           	clc
    22b1: 98           	tya
    22b2: 69 03        	adc	#$3
    22b4: 85 1c        	sta	$1c                     ; 0x201c <parse+0x982>
    22b6: a5 14        	lda	$14                     ; 0x2014 <parse+0x97a>
    22b8: 69 80        	adc	#$80
    22ba: 85 15        	sta	$15                     ; 0x2015 <parse+0x97b>
    22bc: a5 2d        	lda	$2d                     ; 0x202d <parse+0x993>
    22be: 69 03        	adc	#$3
    22c0: a6 0f        	ldx	$f                      ; 0x200f <parse+0x975>
    22c2: 78           	sei
    22c3: 5a           	phy
    22c4: a4 15        	ldy	$15                     ; 0x2015 <parse+0x97b>
    22c6: 84 13        	sty	$13                     ; 0x2013 <parse+0x979>
    22c8: 7a           	ply
    22c9: 06 13        	asl	$13                     ; 0x2013 <parse+0x979>
    22cb: 2a           	rol
    22cc: 06 13        	asl	$13                     ; 0x2013 <parse+0x979>
    22ce: 2a           	rol
    22cf: 06 13        	asl	$13                     ; 0x2013 <parse+0x979>
    22d1: 2a           	rol
    22d2: 85 0f        	sta	$f                      ; 0x200f <parse+0x975>
    22d4: a5 15        	lda	$15                     ; 0x2015 <parse+0x97b>
    22d6: 09 e0        	ora	#$e0
    22d8: 85 1d        	sta	$1d                     ; 0x201d <parse+0x983>
    22da: b2 1c        	lda	($1c)                   ; 0x201c <parse+0x982>
    22dc: 85 19        	sta	$19                     ; 0x2019 <parse+0x97f>
    22de: 86 0f        	stx	$f                      ; 0x200f <parse+0x975>
    22e0: 58           	cli
    22e1: 18           	clc
    22e2: 98           	tya
    22e3: 69 04        	adc	#$4
    22e5: 85 1c        	sta	$1c                     ; 0x201c <parse+0x982>
    22e7: a5 14        	lda	$14                     ; 0x2014 <parse+0x97a>
    22e9: 69 80        	adc	#$80
    22eb: 85 15        	sta	$15                     ; 0x2015 <parse+0x97b>
    22ed: a5 2d        	lda	$2d                     ; 0x202d <parse+0x993>
    22ef: 69 03        	adc	#$3
    22f1: a6 15        	ldx	$15                     ; 0x2015 <parse+0x97b>
    22f3: 86 13        	stx	$13                     ; 0x2013 <parse+0x979>
    22f5: 06 13        	asl	$13                     ; 0x2013 <parse+0x979>
    22f7: 2a           	rol
    22f8: 06 13        	asl	$13                     ; 0x2013 <parse+0x979>
    22fa: 2a           	rol
    22fb: 06 13        	asl	$13                     ; 0x2013 <parse+0x979>
    22fd: 2a           	rol
    22fe: a6 0f        	ldx	$f                      ; 0x200f <parse+0x975>
    2300: 78           	sei
    2301: 85 0f        	sta	$f                      ; 0x200f <parse+0x975>
    2303: a5 15        	lda	$15                     ; 0x2015 <parse+0x97b>
    2305: 09 e0        	ora	#$e0
    2307: 85 1d        	sta	$1d                     ; 0x201d <parse+0x983>
    2309: b2 1c        	lda	($1c)                   ; 0x201c <parse+0x982>
    230b: 85 1a        	sta	$1a                     ; 0x201a <parse+0x980>
    230d: 86 0f        	stx	$f                      ; 0x200f <parse+0x975>
    230f: 18           	clc
    2310: 98           	tya
    2311: 69 05        	adc	#$5
    2313: 85 24        	sta	$24                     ; 0x2024 <parse+0x98a>
    2315: a5 14        	lda	$14                     ; 0x2014 <parse+0x97a>
    2317: 69 00        	adc	#$0
    2319: 85 27        	sta	$27                     ; 0x2027 <parse+0x98d>
    231b: a5 2d        	lda	$2d                     ; 0x202d <parse+0x993>
    231d: 69 00        	adc	#$0
    231f: 85 26        	sta	$26                     ; 0x2026 <parse+0x98c>
    2321: a5 2f        	lda	$2f                     ; 0x202f <parse+0x995>
    2323: 69 00        	adc	#$0
    2325: 85 25        	sta	$25                     ; 0x2025 <parse+0x98b>
    2327: 58           	cli
    2328: a5 18        	lda	$18                     ; 0x2018 <parse+0x97e>
    232a: a0 0a        	ldy	#$a
    232c: 91 10        	sta	($10),y                 ; 0x2010 <parse+0x976>
    232e: 64 13        	stz	$13                     ; 0x2013 <parse+0x979>
    2330: a0 13        	ldy	#$13
    2332: b1 10        	lda	($10),y                 ; 0x2010 <parse+0x976>
    2334: 85 14        	sta	$14                     ; 0x2014 <parse+0x97a>
    2336: 88           	dey
    2337: b1 10        	lda	($10),y                 ; 0x2010 <parse+0x976>
    2339: 85 15        	sta	$15                     ; 0x2015 <parse+0x97b>
    233b: 64 16        	stz	$16                     ; 0x2016 <parse+0x97c>
    233d: 64 17        	stz	$17                     ; 0x2017 <parse+0x97d>
    233f: a6 19        	ldx	$19                     ; 0x2019 <parse+0x97f>
    2341: a5 1a        	lda	$1a                     ; 0x201a <parse+0x980>
    2343: 20 30 2e     	jsr	$2e30 <__udivsi3>
    2346: a0 15        	ldy	#$15
    2348: 84 14        	sty	$14                     ; 0x2014 <parse+0x97a>
    234a: 64 15        	stz	$15                     ; 0x2015 <parse+0x97b>
    234c: 64 16        	stz	$16                     ; 0x2016 <parse+0x97c>
    234e: 64 17        	stz	$17                     ; 0x2017 <parse+0x97d>
    2350: 20 c0 2d     	jsr	$2dc0 <__mulsi3>
    2353: a4 12        	ldy	$12                     ; 0x2012 <parse+0x978>
    2355: 48           	pha
    2356: 5a           	phy
    2357: a0 0a        	ldy	#$a
    2359: b1 10        	lda	($10),y                 ; 0x2010 <parse+0x976>
    235b: 7a           	ply
    235c: 85 18        	sta	$18                     ; 0x2018 <parse+0x97e>
    235e: 68           	pla
    235f: 85 6f        	sta	$6f                     ; 0x206f <parse+0x9d5>
    2361: 86 70        	stx	$70                     ; 0x2070 <parse+0x9d6>
    2363: 84 71        	sty	$71                     ; 0x2071 <parse+0x9d7>
    2365: a6 13        	ldx	$13                     ; 0x2013 <parse+0x979>
    2367: 86 72        	stx	$72                     ; 0x2072 <parse+0x9d8>
    2369: a6 24        	ldx	$24                     ; 0x2024 <parse+0x98a>
    236b: 86 14        	stx	$14                     ; 0x2014 <parse+0x97a>
    236d: a6 27        	ldx	$27                     ; 0x2027 <parse+0x98d>
    236f: 86 1e        	stx	$1e                     ; 0x201e <parse+0x984>
    2371: a4 26        	ldy	$26                     ; 0x2026 <parse+0x98c>
    2373: a5 25        	lda	$25                     ; 0x2025 <parse+0x98b>
    2375: 4c fb 1c     	jmp	$1cfb <parse+0x661>
    2378: a5 13        	lda	$13                     ; 0x2013 <parse+0x979>
    237a: 30 17        	bmi	$2393 <parse+0xcf9>
    237c: a0 0d        	ldy	#$d
    237e: b1 10        	lda	($10),y                 ; 0x2010 <parse+0x976>
    2380: 85 14        	sta	$14                     ; 0x2014 <parse+0x97a>
    2382: a6 2c        	ldx	$2c                     ; 0x202c <parse+0x992>
    2384: 86 1e        	stx	$1e                     ; 0x201e <parse+0x984>
    2386: a4 2d        	ldy	$2d                     ; 0x202d <parse+0x993>
    2388: a5 2f        	lda	$2f                     ; 0x202f <parse+0x995>
    238a: 4c 06 1d     	jmp	$1d06 <parse+0x66c>
    238d: a6 13        	ldx	$13                     ; 0x2013 <parse+0x979>
    238f: e0 f0        	cpx	#$f0
    2391: b0 e9        	bcs	$237c <parse+0xce2>
    2393: 5a           	phy
    2394: a0 14        	ldy	#$14
    2396: b1 10        	lda	($10),y                 ; 0x2010 <parse+0x976>
    2398: 7a           	ply
    2399: aa           	tax
    239a: d0 03        	bne	$239f <parse+0xd05>
    239c: 4c ae 24     	jmp	$24ae <parse+0xe14>
    239f: 5a           	phy
    23a0: a0 16        	ldy	#$16
    23a2: b1 10        	lda	($10),y                 ; 0x2010 <parse+0x976>
    23a4: 7a           	ply
    23a5: 29 f0        	and	#$f0
    23a7: c9 90        	cmp	#$90
    23a9: f0 03        	beq	$23ae <parse+0xd14>
    23ab: 4c 07 25     	jmp	$2507 <parse+0xe6d>
    23ae: a6 16        	ldx	$16                     ; 0x2016 <parse+0x97c>
    23b0: 86 1e        	stx	$1e                     ; 0x201e <parse+0x984>
    23b2: 5a           	phy
    23b3: a0 17        	ldy	#$17
    23b5: b1 10        	lda	($10),y                 ; 0x2010 <parse+0x976>
    23b7: 7a           	ply
    23b8: aa           	tax
    23b9: d0 03        	bne	$23be <parse+0xd24>
    23bb: 4c b6 27     	jmp	$27b6 <parse+0x111c>
    23be: 38           	sec
    23bf: 5a           	phy
    23c0: a9 01        	lda	#$1
    23c2: a0 08        	ldy	#$8
    23c4: 91 10        	sta	($10),y                 ; 0x2010 <parse+0x976>
    23c6: 4c 13 25     	jmp	$2513 <parse+0xe79>
    23c9: 18           	clc
    23ca: a5 1c        	lda	$1c                     ; 0x201c <parse+0x982>
    23cc: 69 04        	adc	#$4
    23ce: 4c 65 1f     	jmp	$1f65 <parse+0x8cb>
    23d1: 18           	clc
    23d2: a5 1c        	lda	$1c                     ; 0x201c <parse+0x982>
    23d4: 69 07        	adc	#$7
    23d6: 4c 65 1f     	jmp	$1f65 <parse+0x8cb>
    23d9: 18           	clc
    23da: a4 1c        	ldy	$1c                     ; 0x201c <parse+0x982>
    23dc: a5 1c        	lda	$1c                     ; 0x201c <parse+0x982>
    23de: 69 02        	adc	#$2
    23e0: 85 1c        	sta	$1c                     ; 0x201c <parse+0x982>
    23e2: a6 2c        	ldx	$2c                     ; 0x202c <parse+0x992>
    23e4: a5 2c        	lda	$2c                     ; 0x202c <parse+0x992>
    23e6: 69 80        	adc	#$80
    23e8: 85 12        	sta	$12                     ; 0x2012 <parse+0x978>
    23ea: 86 15        	stx	$15                     ; 0x2015 <parse+0x97b>
    23ec: a5 2d        	lda	$2d                     ; 0x202d <parse+0x993>
    23ee: 69 03        	adc	#$3
    23f0: a6 12        	ldx	$12                     ; 0x2012 <parse+0x978>
    23f2: 86 13        	stx	$13                     ; 0x2013 <parse+0x979>
    23f4: 06 13        	asl	$13                     ; 0x2013 <parse+0x979>
    23f6: 2a           	rol
    23f7: 06 13        	asl	$13                     ; 0x2013 <parse+0x979>
    23f9: 2a           	rol
    23fa: 06 13        	asl	$13                     ; 0x2013 <parse+0x979>
    23fc: 2a           	rol
    23fd: a6 0f        	ldx	$f                      ; 0x200f <parse+0x975>
    23ff: 78           	sei
    2400: 85 0f        	sta	$f                      ; 0x200f <parse+0x975>
    2402: a5 12        	lda	$12                     ; 0x2012 <parse+0x978>
    2404: 09 e0        	ora	#$e0
    2406: 85 1d        	sta	$1d                     ; 0x201d <parse+0x983>
    2408: b2 1c        	lda	($1c)                   ; 0x201c <parse+0x982>
    240a: 86 0f        	stx	$f                      ; 0x200f <parse+0x975>
    240c: 18           	clc
    240d: 98           	tya
    240e: 69 03        	adc	#$3
    2410: 85 1c        	sta	$1c                     ; 0x201c <parse+0x982>
    2412: a5 15        	lda	$15                     ; 0x2015 <parse+0x97b>
    2414: 69 80        	adc	#$80
    2416: 85 12        	sta	$12                     ; 0x2012 <parse+0x978>
    2418: a5 2d        	lda	$2d                     ; 0x202d <parse+0x993>
    241a: 69 03        	adc	#$3
    241c: a6 12        	ldx	$12                     ; 0x2012 <parse+0x978>
    241e: 86 13        	stx	$13                     ; 0x2013 <parse+0x979>
    2420: 06 13        	asl	$13                     ; 0x2013 <parse+0x979>
    2422: 2a           	rol
    2423: 06 13        	asl	$13                     ; 0x2013 <parse+0x979>
    2425: 2a           	rol
    2426: 06 13        	asl	$13                     ; 0x2013 <parse+0x979>
    2428: 2a           	rol
    2429: 58           	cli
    242a: a6 0f        	ldx	$f                      ; 0x200f <parse+0x975>
    242c: 78           	sei
    242d: 85 0f        	sta	$f                      ; 0x200f <parse+0x975>
    242f: a5 12        	lda	$12                     ; 0x2012 <parse+0x978>
    2431: 09 e0        	ora	#$e0
    2433: 85 1d        	sta	$1d                     ; 0x201d <parse+0x983>
    2435: b2 1c        	lda	($1c)                   ; 0x201c <parse+0x982>
    2437: 86 0f        	stx	$f                      ; 0x200f <parse+0x975>
    2439: 18           	clc
    243a: 98           	tya
    243b: 69 04        	adc	#$4
    243d: 85 1c        	sta	$1c                     ; 0x201c <parse+0x982>
    243f: a5 15        	lda	$15                     ; 0x2015 <parse+0x97b>
    2441: 69 80        	adc	#$80
    2443: 85 12        	sta	$12                     ; 0x2012 <parse+0x978>
    2445: a5 2d        	lda	$2d                     ; 0x202d <parse+0x993>
    2447: 69 03        	adc	#$3
    2449: a6 12        	ldx	$12                     ; 0x2012 <parse+0x978>
    244b: 86 13        	stx	$13                     ; 0x2013 <parse+0x979>
    244d: 06 13        	asl	$13                     ; 0x2013 <parse+0x979>
    244f: 2a           	rol
    2450: 06 13        	asl	$13                     ; 0x2013 <parse+0x979>
    2452: 2a           	rol
    2453: 06 13        	asl	$13                     ; 0x2013 <parse+0x979>
    2455: 2a           	rol
    2456: 58           	cli
    2457: a6 0f        	ldx	$f                      ; 0x200f <parse+0x975>
    2459: 78           	sei
    245a: 85 0f        	sta	$f                      ; 0x200f <parse+0x975>
    245c: a5 12        	lda	$12                     ; 0x2012 <parse+0x978>
    245e: 09 e0        	ora	#$e0
    2460: 85 1d        	sta	$1d                     ; 0x201d <parse+0x983>
    2462: b2 1c        	lda	($1c)                   ; 0x201c <parse+0x982>
    2464: 86 0f        	stx	$f                      ; 0x200f <parse+0x975>
    2466: 18           	clc
    2467: 98           	tya
    2468: 69 05        	adc	#$5
    246a: 85 1c        	sta	$1c                     ; 0x201c <parse+0x982>
    246c: a5 15        	lda	$15                     ; 0x2015 <parse+0x97b>
    246e: 69 80        	adc	#$80
    2470: 85 12        	sta	$12                     ; 0x2012 <parse+0x978>
    2472: a5 2d        	lda	$2d                     ; 0x202d <parse+0x993>
    2474: 69 03        	adc	#$3
    2476: a6 12        	ldx	$12                     ; 0x2012 <parse+0x978>
    2478: 86 13        	stx	$13                     ; 0x2013 <parse+0x979>
    247a: 06 13        	asl	$13                     ; 0x2013 <parse+0x979>
    247c: 2a           	rol
    247d: 06 13        	asl	$13                     ; 0x2013 <parse+0x979>
    247f: 2a           	rol
    2480: 06 13        	asl	$13                     ; 0x2013 <parse+0x979>
    2482: 2a           	rol
    2483: 58           	cli
    2484: a6 0f        	ldx	$f                      ; 0x200f <parse+0x975>
    2486: 78           	sei
    2487: 85 0f        	sta	$f                      ; 0x200f <parse+0x975>
    2489: a5 12        	lda	$12                     ; 0x2012 <parse+0x978>
    248b: 09 e0        	ora	#$e0
    248d: 85 1d        	sta	$1d                     ; 0x201d <parse+0x983>
    248f: b2 1c        	lda	($1c)                   ; 0x201c <parse+0x982>
    2491: 86 0f        	stx	$f                      ; 0x200f <parse+0x975>
    2493: 58           	cli
    2494: 18           	clc
    2495: 98           	tya
    2496: 69 06        	adc	#$6
    2498: 85 14        	sta	$14                     ; 0x2014 <parse+0x97a>
    249a: a5 15        	lda	$15                     ; 0x2015 <parse+0x97b>
    249c: 69 00        	adc	#$0
    249e: 85 1e        	sta	$1e                     ; 0x201e <parse+0x984>
    24a0: a5 2d        	lda	$2d                     ; 0x202d <parse+0x993>
    24a2: 69 00        	adc	#$0
    24a4: aa           	tax
    24a5: a5 2f        	lda	$2f                     ; 0x202f <parse+0x995>
    24a7: 69 00        	adc	#$0
    24a9: da           	phx
    24aa: 7a           	ply
    24ab: 4c fb 1c     	jmp	$1cfb <parse+0x661>
    24ae: 38           	sec
    24af: a5 1f        	lda	$1f                     ; 0x201f <parse+0x985>
    24b1: e5 18        	sbc	$18                     ; 0x2018 <parse+0x97e>
    24b3: aa           	tax
    24b4: 98           	tya
    24b5: 48           	pha
    24b6: a0 18        	ldy	#$18
    24b8: b1 10        	lda	($10),y                 ; 0x2010 <parse+0x976>
    24ba: 85 12        	sta	$12                     ; 0x2012 <parse+0x978>
    24bc: 68           	pla
    24bd: e5 12        	sbc	$12                     ; 0x2012 <parse+0x978>
    24bf: a8           	tay
    24c0: 18           	clc
    24c1: 8a           	txa
    24c2: 65 75        	adc	$75                     ; 0x2075 <parse+0x9db>
    24c4: 85 1c        	sta	$1c                     ; 0x201c <parse+0x982>
    24c6: 98           	tya
    24c7: 65 76        	adc	$76                     ; 0x2076 <parse+0x9dc>
    24c9: 85 1d        	sta	$1d                     ; 0x201d <parse+0x983>
    24cb: a6 1c        	ldx	$1c                     ; 0x201c <parse+0x982>
    24cd: 86 1e        	stx	$1e                     ; 0x201e <parse+0x984>
    24cf: 85 1f        	sta	$1f                     ; 0x201f <parse+0x985>
    24d1: e6 1e        	inc	$1e                     ; 0x201e <parse+0x984>
    24d3: d0 02        	bne	$24d7 <parse+0xe3d>
    24d5: e6 1f        	inc	$1f                     ; 0x201f <parse+0x985>
    24d7: a0 01        	ldy	#$1
    24d9: b1 1c        	lda	($1c),y                 ; 0x201c <parse+0x982>
    24db: 85 12        	sta	$12                     ; 0x2012 <parse+0x978>
    24dd: b1 1e        	lda	($1e),y                 ; 0x201e <parse+0x984>
    24df: aa           	tax
    24e0: a5 12        	lda	$12                     ; 0x2012 <parse+0x978>
    24e2: 1a           	inc
    24e3: d0 01        	bne	$24e6 <parse+0xe4c>
    24e5: e8           	inx
    24e6: 91 1c        	sta	($1c),y                 ; 0x201c <parse+0x982>
    24e8: 8a           	txa
    24e9: 91 1e        	sta	($1e),y                 ; 0x201e <parse+0x984>
    24eb: 18           	clc
    24ec: a0 0d        	ldy	#$d
    24ee: b1 10        	lda	($10),y                 ; 0x2010 <parse+0x976>
    24f0: 69 02        	adc	#$2
    24f2: aa           	tax
    24f3: a5 2c        	lda	$2c                     ; 0x202c <parse+0x992>
    24f5: 69 00        	adc	#$0
    24f7: 85 1e        	sta	$1e                     ; 0x201e <parse+0x984>
    24f9: a5 2d        	lda	$2d                     ; 0x202d <parse+0x993>
    24fb: 69 00        	adc	#$0
    24fd: a8           	tay
    24fe: a5 2f        	lda	$2f                     ; 0x202f <parse+0x995>
    2500: 69 00        	adc	#$0
    2502: 86 14        	stx	$14                     ; 0x2014 <parse+0x97a>
    2504: 4c 06 1d     	jmp	$1d06 <parse+0x66c>
    2507: 38           	sec
    2508: 5a           	phy
    2509: a9 01        	lda	#$1
    250b: a0 08        	ldy	#$8
    250d: 91 10        	sta	($10),y                 ; 0x2010 <parse+0x976>
    250f: a6 16        	ldx	$16                     ; 0x2016 <parse+0x97c>
    2511: 86 1e        	stx	$1e                     ; 0x201e <parse+0x984>
    2513: a5 12        	lda	$12                     ; 0x2012 <parse+0x978>
    2515: a0 09        	ldy	#$9
    2517: 91 10        	sta	($10),y                 ; 0x2010 <parse+0x976>
    2519: 7a           	ply
    251a: 38           	sec
    251b: a5 18        	lda	$18                     ; 0x2018 <parse+0x97e>
    251d: 5a           	phy
    251e: a0 0a        	ldy	#$a
    2520: 91 10        	sta	($10),y                 ; 0x2010 <parse+0x976>
    2522: 7a           	ply
    2523: a5 1f        	lda	$1f                     ; 0x201f <parse+0x985>
    2525: e5 18        	sbc	$18                     ; 0x2018 <parse+0x97e>
    2527: aa           	tax
    2528: 98           	tya
    2529: 48           	pha
    252a: a0 18        	ldy	#$18
    252c: b1 10        	lda	($10),y                 ; 0x2010 <parse+0x976>
    252e: 85 12        	sta	$12                     ; 0x2012 <parse+0x978>
    2530: 68           	pla
    2531: e5 12        	sbc	$12                     ; 0x2012 <parse+0x978>
    2533: a8           	tay
    2534: 18           	clc
    2535: 8a           	txa
    2536: 65 75        	adc	$75                     ; 0x2075 <parse+0x9db>
    2538: aa           	tax
    2539: 98           	tya
    253a: 65 76        	adc	$76                     ; 0x2076 <parse+0x9dc>
    253c: 86 12        	stx	$12                     ; 0x2012 <parse+0x978>
    253e: 85 13        	sta	$13                     ; 0x2013 <parse+0x979>
    2540: a8           	tay
    2541: 18           	clc
    2542: 8a           	txa
    2543: 69 03        	adc	#$3
    2545: 85 14        	sta	$14                     ; 0x2014 <parse+0x97a>
    2547: 98           	tya
    2548: 69 00        	adc	#$0
    254a: 85 15        	sta	$15                     ; 0x2015 <parse+0x97b>
    254c: a0 0e        	ldy	#$e
    254e: b1 10        	lda	($10),y                 ; 0x2010 <parse+0x976>
    2550: 85 27        	sta	$27                     ; 0x2027 <parse+0x98d>
    2552: 0a           	asl
    2553: 48           	pha
    2554: c8           	iny
    2555: b1 10        	lda	($10),y                 ; 0x2010 <parse+0x976>
    2557: 85 24        	sta	$24                     ; 0x2024 <parse+0x98a>
    2559: 68           	pla
    255a: a6 24        	ldx	$24                     ; 0x2024 <parse+0x98a>
    255c: 86 16        	stx	$16                     ; 0x2016 <parse+0x97c>
    255e: 26 16        	rol	$16                     ; 0x2016 <parse+0x97c>
    2560: 64 18        	stz	$18                     ; 0x2018 <parse+0x97e>
    2562: 26 18        	rol	$18                     ; 0x2018 <parse+0x97e>
    2564: 0a           	asl
    2565: 26 16        	rol	$16                     ; 0x2016 <parse+0x97c>
    2567: 26 18        	rol	$18                     ; 0x2018 <parse+0x97e>
    2569: 0a           	asl
    256a: a6 16        	ldx	$16                     ; 0x2016 <parse+0x97c>
    256c: 86 19        	stx	$19                     ; 0x2019 <parse+0x97f>
    256e: 26 19        	rol	$19                     ; 0x2019 <parse+0x97f>
    2570: a6 18        	ldx	$18                     ; 0x2018 <parse+0x97e>
    2572: 86 16        	stx	$16                     ; 0x2016 <parse+0x97c>
    2574: 26 16        	rol	$16                     ; 0x2016 <parse+0x97c>
    2576: 18           	clc
    2577: a0 03        	ldy	#$3
    2579: 71 12        	adc	($12),y                 ; 0x2012 <parse+0x978>
    257b: 85 26        	sta	$26                     ; 0x2026 <parse+0x98c>
    257d: a0 01        	ldy	#$1
    257f: a5 19        	lda	$19                     ; 0x2019 <parse+0x97f>
    2581: 71 14        	adc	($14),y                 ; 0x2014 <parse+0x97a>
    2583: 85 28        	sta	$28                     ; 0x2028 <parse+0x98e>
    2585: c8           	iny
    2586: a5 16        	lda	$16                     ; 0x2016 <parse+0x97c>
    2588: 71 14        	adc	($14),y                 ; 0x2014 <parse+0x97a>
    258a: 85 25        	sta	$25                     ; 0x2025 <parse+0x98b>
    258c: a6 6f        	ldx	$6f                     ; 0x206f <parse+0x9d5>
    258e: 86 1a        	stx	$1a                     ; 0x201a <parse+0x980>
    2590: a5 70        	lda	$70                     ; 0x2070 <parse+0x9d6>
    2592: a4 71        	ldy	$71                     ; 0x2071 <parse+0x9d7>
    2594: a6 72        	ldx	$72                     ; 0x2072 <parse+0x9d8>
    2596: 84 12        	sty	$12                     ; 0x2012 <parse+0x978>
    2598: 86 13        	stx	$13                     ; 0x2013 <parse+0x979>
    259a: a6 1e        	ldx	$1e                     ; 0x201e <parse+0x984>
    259c: 86 14        	stx	$14                     ; 0x2014 <parse+0x97a>
    259e: 48           	pha
    259f: a0 0c        	ldy	#$c
    25a1: b1 10        	lda	($10),y                 ; 0x2010 <parse+0x976>
    25a3: 85 15        	sta	$15                     ; 0x2015 <parse+0x97b>
    25a5: 88           	dey
    25a6: b1 10        	lda	($10),y                 ; 0x2010 <parse+0x976>
    25a8: 85 16        	sta	$16                     ; 0x2016 <parse+0x97c>
    25aa: 68           	pla
    25ab: aa           	tax
    25ac: a5 1a        	lda	$1a                     ; 0x201a <parse+0x980>
    25ae: 20 c0 2d     	jsr	$2dc0 <__mulsi3>
    25b1: 85 14        	sta	$14                     ; 0x2014 <parse+0x97a>
    25b3: 86 15        	stx	$15                     ; 0x2015 <parse+0x97b>
    25b5: a4 12        	ldy	$12                     ; 0x2012 <parse+0x978>
    25b7: 18           	clc
    25b8: a5 26        	lda	$26                     ; 0x2026 <parse+0x98c>
    25ba: 69 00        	adc	#$0
    25bc: a5 28        	lda	$28                     ; 0x2028 <parse+0x98e>
    25be: 69 80        	adc	#$80
    25c0: 85 12        	sta	$12                     ; 0x2012 <parse+0x978>
    25c2: a5 25        	lda	$25                     ; 0x2025 <parse+0x98b>
    25c4: 69 05        	adc	#$5
    25c6: 06 12        	asl	$12                     ; 0x2012 <parse+0x978>
    25c8: 2a           	rol
    25c9: 06 12        	asl	$12                     ; 0x2012 <parse+0x978>
    25cb: 2a           	rol
    25cc: 06 12        	asl	$12                     ; 0x2012 <parse+0x978>
    25ce: 2a           	rol
    25cf: a6 0f        	ldx	$f                      ; 0x200f <parse+0x975>
    25d1: 78           	sei
    25d2: 85 0f        	sta	$f                      ; 0x200f <parse+0x975>
    25d4: a5 28        	lda	$28                     ; 0x2028 <parse+0x98e>
    25d6: 09 e0        	ora	#$e0
    25d8: 5a           	phy
    25d9: a4 26        	ldy	$26                     ; 0x2026 <parse+0x98c>
    25db: 84 16        	sty	$16                     ; 0x2016 <parse+0x97c>
    25dd: 7a           	ply
    25de: 85 17        	sta	$17                     ; 0x2017 <parse+0x97d>
    25e0: 98           	tya
    25e1: 92 16        	sta	($16)                   ; 0x2016 <parse+0x97c>
    25e3: a0 01        	ldy	#$1
    25e5: a5 13        	lda	$13                     ; 0x2013 <parse+0x979>
    25e7: 91 16        	sta	($16),y                 ; 0x2016 <parse+0x97c>
    25e9: 86 0f        	stx	$f                      ; 0x200f <parse+0x975>
    25eb: 18           	clc
    25ec: a5 26        	lda	$26                     ; 0x2026 <parse+0x98c>
    25ee: 69 02        	adc	#$2
    25f0: 85 13        	sta	$13                     ; 0x2013 <parse+0x979>
    25f2: a5 28        	lda	$28                     ; 0x2028 <parse+0x98e>
    25f4: 69 80        	adc	#$80
    25f6: 85 16        	sta	$16                     ; 0x2016 <parse+0x97c>
    25f8: a5 25        	lda	$25                     ; 0x2025 <parse+0x98b>
    25fa: 69 05        	adc	#$5
    25fc: a6 16        	ldx	$16                     ; 0x2016 <parse+0x97c>
    25fe: 86 12        	stx	$12                     ; 0x2012 <parse+0x978>
    2600: 06 12        	asl	$12                     ; 0x2012 <parse+0x978>
    2602: 2a           	rol
    2603: 06 12        	asl	$12                     ; 0x2012 <parse+0x978>
    2605: 2a           	rol
    2606: 06 12        	asl	$12                     ; 0x2012 <parse+0x978>
    2608: 2a           	rol
    2609: 58           	cli
    260a: a6 0f        	ldx	$f                      ; 0x200f <parse+0x975>
    260c: 78           	sei
    260d: 85 0f        	sta	$f                      ; 0x200f <parse+0x975>
    260f: a5 13        	lda	$13                     ; 0x2013 <parse+0x979>
    2611: 85 12        	sta	$12                     ; 0x2012 <parse+0x978>
    2613: a5 16        	lda	$16                     ; 0x2016 <parse+0x97c>
    2615: 09 e0        	ora	#$e0
    2617: 85 13        	sta	$13                     ; 0x2013 <parse+0x979>
    2619: a5 14        	lda	$14                     ; 0x2014 <parse+0x97a>
    261b: 92 12        	sta	($12)                   ; 0x2012 <parse+0x978>
    261d: a5 15        	lda	$15                     ; 0x2015 <parse+0x97b>
    261f: 91 12        	sta	($12),y                 ; 0x2012 <parse+0x978>
    2621: 86 0f        	stx	$f                      ; 0x200f <parse+0x975>
    2623: 18           	clc
    2624: a5 26        	lda	$26                     ; 0x2026 <parse+0x98c>
    2626: 69 04        	adc	#$4
    2628: a8           	tay
    2629: a5 28        	lda	$28                     ; 0x2028 <parse+0x98e>
    262b: 69 80        	adc	#$80
    262d: 85 13        	sta	$13                     ; 0x2013 <parse+0x979>
    262f: a5 25        	lda	$25                     ; 0x2025 <parse+0x98b>
    2631: 69 05        	adc	#$5
    2633: a6 13        	ldx	$13                     ; 0x2013 <parse+0x979>
    2635: 86 12        	stx	$12                     ; 0x2012 <parse+0x978>
    2637: 06 12        	asl	$12                     ; 0x2012 <parse+0x978>
    2639: 2a           	rol
    263a: 06 12        	asl	$12                     ; 0x2012 <parse+0x978>
    263c: 2a           	rol
    263d: 06 12        	asl	$12                     ; 0x2012 <parse+0x978>
    263f: 2a           	rol
    2640: 58           	cli
    2641: a6 0f        	ldx	$f                      ; 0x200f <parse+0x975>
    2643: 78           	sei
    2644: 85 0f        	sta	$f                      ; 0x200f <parse+0x975>
    2646: 84 12        	sty	$12                     ; 0x2012 <parse+0x978>
    2648: a5 13        	lda	$13                     ; 0x2013 <parse+0x979>
    264a: 09 e0        	ora	#$e0
    264c: 85 13        	sta	$13                     ; 0x2013 <parse+0x979>
    264e: a9 03        	lda	#$3
    2650: 92 12        	sta	($12)                   ; 0x2012 <parse+0x978>
    2652: 86 0f        	stx	$f                      ; 0x200f <parse+0x975>
    2654: 18           	clc
    2655: a5 26        	lda	$26                     ; 0x2026 <parse+0x98c>
    2657: 69 05        	adc	#$5
    2659: a8           	tay
    265a: a5 28        	lda	$28                     ; 0x2028 <parse+0x98e>
    265c: 69 80        	adc	#$80
    265e: 85 13        	sta	$13                     ; 0x2013 <parse+0x979>
    2660: a5 25        	lda	$25                     ; 0x2025 <parse+0x98b>
    2662: 69 05        	adc	#$5
    2664: a6 13        	ldx	$13                     ; 0x2013 <parse+0x979>
    2666: 86 12        	stx	$12                     ; 0x2012 <parse+0x978>
    2668: 06 12        	asl	$12                     ; 0x2012 <parse+0x978>
    266a: 2a           	rol
    266b: 06 12        	asl	$12                     ; 0x2012 <parse+0x978>
    266d: 2a           	rol
    266e: 06 12        	asl	$12                     ; 0x2012 <parse+0x978>
    2670: 2a           	rol
    2671: 58           	cli
    2672: a6 0f        	ldx	$f                      ; 0x200f <parse+0x975>
    2674: 78           	sei
    2675: 85 0f        	sta	$f                      ; 0x200f <parse+0x975>
    2677: 84 12        	sty	$12                     ; 0x2012 <parse+0x978>
    2679: a5 13        	lda	$13                     ; 0x2013 <parse+0x979>
    267b: 09 e0        	ora	#$e0
    267d: 85 13        	sta	$13                     ; 0x2013 <parse+0x979>
    267f: a0 16        	ldy	#$16
    2681: b1 10        	lda	($10),y                 ; 0x2010 <parse+0x976>
    2683: 85 16        	sta	$16                     ; 0x2016 <parse+0x97c>
    2685: 92 12        	sta	($12)                   ; 0x2012 <parse+0x978>
    2687: 86 0f        	stx	$f                      ; 0x200f <parse+0x975>
    2689: 18           	clc
    268a: a5 26        	lda	$26                     ; 0x2026 <parse+0x98c>
    268c: 69 06        	adc	#$6
    268e: a8           	tay
    268f: a5 28        	lda	$28                     ; 0x2028 <parse+0x98e>
    2691: 69 80        	adc	#$80
    2693: 85 13        	sta	$13                     ; 0x2013 <parse+0x979>
    2695: a5 25        	lda	$25                     ; 0x2025 <parse+0x98b>
    2697: 69 05        	adc	#$5
    2699: a6 13        	ldx	$13                     ; 0x2013 <parse+0x979>
    269b: 86 12        	stx	$12                     ; 0x2012 <parse+0x978>
    269d: 06 12        	asl	$12                     ; 0x2012 <parse+0x978>
    269f: 2a           	rol
    26a0: 06 12        	asl	$12                     ; 0x2012 <parse+0x978>
    26a2: 2a           	rol
    26a3: 06 12        	asl	$12                     ; 0x2012 <parse+0x978>
    26a5: 2a           	rol
    26a6: 58           	cli
    26a7: a6 0f        	ldx	$f                      ; 0x200f <parse+0x975>
    26a9: 78           	sei
    26aa: 85 0f        	sta	$f                      ; 0x200f <parse+0x975>
    26ac: 84 12        	sty	$12                     ; 0x2012 <parse+0x978>
    26ae: a5 13        	lda	$13                     ; 0x2013 <parse+0x979>
    26b0: 09 e0        	ora	#$e0
    26b2: 85 13        	sta	$13                     ; 0x2013 <parse+0x979>
    26b4: a5 2e        	lda	$2e                     ; 0x202e <parse+0x994>
    26b6: 92 12        	sta	($12)                   ; 0x2012 <parse+0x978>
    26b8: 86 0f        	stx	$f                      ; 0x200f <parse+0x975>
    26ba: 58           	cli
    26bb: 18           	clc
    26bc: a5 26        	lda	$26                     ; 0x2026 <parse+0x98c>
    26be: 69 07        	adc	#$7
    26c0: a8           	tay
    26c1: a5 28        	lda	$28                     ; 0x2028 <parse+0x98e>
    26c3: 69 80        	adc	#$80
    26c5: 85 13        	sta	$13                     ; 0x2013 <parse+0x979>
    26c7: a5 25        	lda	$25                     ; 0x2025 <parse+0x98b>
    26c9: 69 05        	adc	#$5
    26cb: 85 12        	sta	$12                     ; 0x2012 <parse+0x978>
    26cd: a5 13        	lda	$13                     ; 0x2013 <parse+0x979>
    26cf: 0a           	asl
    26d0: 26 12        	rol	$12                     ; 0x2012 <parse+0x978>
    26d2: 0a           	asl
    26d3: 26 12        	rol	$12                     ; 0x2012 <parse+0x978>
    26d5: 0a           	asl
    26d6: a5 12        	lda	$12                     ; 0x2012 <parse+0x978>
    26d8: 2a           	rol
    26d9: a6 0f        	ldx	$f                      ; 0x200f <parse+0x975>
    26db: 78           	sei
    26dc: 85 0f        	sta	$f                      ; 0x200f <parse+0x975>
    26de: 84 12        	sty	$12                     ; 0x2012 <parse+0x978>
    26e0: a5 13        	lda	$13                     ; 0x2013 <parse+0x979>
    26e2: 09 e0        	ora	#$e0
    26e4: 85 13        	sta	$13                     ; 0x2013 <parse+0x979>
    26e6: a0 17        	ldy	#$17
    26e8: b1 10        	lda	($10),y                 ; 0x2010 <parse+0x976>
    26ea: 92 12        	sta	($12)                   ; 0x2012 <parse+0x978>
    26ec: 86 0f        	stx	$f                      ; 0x200f <parse+0x975>
    26ee: 58           	cli
    26ef: 18           	clc
    26f0: a0 0d        	ldy	#$d
    26f2: b1 10        	lda	($10),y                 ; 0x2010 <parse+0x976>
    26f4: 69 02        	adc	#$2
    26f6: aa           	tax
    26f7: a5 2c        	lda	$2c                     ; 0x202c <parse+0x992>
    26f9: 69 00        	adc	#$0
    26fb: 85 1e        	sta	$1e                     ; 0x201e <parse+0x984>
    26fd: a5 2d        	lda	$2d                     ; 0x202d <parse+0x993>
    26ff: 69 00        	adc	#$0
    2701: a8           	tay
    2702: a5 2f        	lda	$2f                     ; 0x202f <parse+0x995>
    2704: 69 00        	adc	#$0
    2706: 85 17        	sta	$17                     ; 0x2017 <parse+0x97d>
    2708: e6 27        	inc	$27                     ; 0x2027 <parse+0x98d>
    270a: d0 02        	bne	$270e <parse+0x1074>
    270c: e6 24        	inc	$24                     ; 0x2024 <parse+0x98a>
    270e: 5a           	phy
    270f: a5 27        	lda	$27                     ; 0x2027 <parse+0x98d>
    2711: a0 0e        	ldy	#$e
    2713: 91 10        	sta	($10),y                 ; 0x2010 <parse+0x976>
    2715: a5 24        	lda	$24                     ; 0x2024 <parse+0x98a>
    2717: c8           	iny
    2718: 91 10        	sta	($10),y                 ; 0x2010 <parse+0x976>
    271a: a0 08        	ldy	#$8
    271c: b1 10        	lda	($10),y                 ; 0x2010 <parse+0x976>
    271e: 7a           	ply
    271f: 85 12        	sta	$12                     ; 0x2012 <parse+0x978>
    2721: a5 12        	lda	$12                     ; 0x2012 <parse+0x978>
    2723: f0 12        	beq	$2737 <parse+0x109d>
    2725: 86 14        	stx	$14                     ; 0x2014 <parse+0x97a>
    2727: a5 17        	lda	$17                     ; 0x2017 <parse+0x97d>
    2729: 48           	pha
    272a: 5a           	phy
    272b: a0 0a        	ldy	#$a
    272d: b1 10        	lda	($10),y                 ; 0x2010 <parse+0x976>
    272f: 85 18        	sta	$18                     ; 0x2018 <parse+0x97e>
    2731: 88           	dey
    2732: b1 10        	lda	($10),y                 ; 0x2010 <parse+0x976>
    2734: 7a           	ply
    2735: 80 1c        	bra	$2753 <parse+0x10b9>
    2737: a5 16        	lda	$16                     ; 0x2016 <parse+0x97c>
    2739: 29 0f        	and	#$f
    273b: 09 90        	ora	#$90
    273d: 84 21        	sty	$21                     ; 0x2021 <parse+0x987>
    273f: a0 16        	ldy	#$16
    2741: 91 10        	sta	($10),y                 ; 0x2010 <parse+0x976>
    2743: 86 14        	stx	$14                     ; 0x2014 <parse+0x97a>
    2745: a5 17        	lda	$17                     ; 0x2017 <parse+0x97d>
    2747: 48           	pha
    2748: a0 0a        	ldy	#$a
    274a: b1 10        	lda	($10),y                 ; 0x2010 <parse+0x976>
    274c: 85 18        	sta	$18                     ; 0x2018 <parse+0x97e>
    274e: 88           	dey
    274f: b1 10        	lda	($10),y                 ; 0x2010 <parse+0x976>
    2751: a4 21        	ldy	$21                     ; 0x2021 <parse+0x987>
    2753: 85 29        	sta	$29                     ; 0x2029 <parse+0x98f>
    2755: 4c 05 1d     	jmp	$1d05 <parse+0x66b>
    2758: 38           	sec
    2759: a5 1f        	lda	$1f                     ; 0x201f <parse+0x985>
    275b: e5 18        	sbc	$18                     ; 0x2018 <parse+0x97e>
    275d: 85 13        	sta	$13                     ; 0x2013 <parse+0x979>
    275f: 98           	tya
    2760: 48           	pha
    2761: a0 18        	ldy	#$18
    2763: b1 10        	lda	($10),y                 ; 0x2010 <parse+0x976>
    2765: 85 12        	sta	$12                     ; 0x2012 <parse+0x978>
    2767: 68           	pla
    2768: e5 12        	sbc	$12                     ; 0x2012 <parse+0x978>
    276a: 85 17        	sta	$17                     ; 0x2017 <parse+0x97d>
    276c: 18           	clc
    276d: a5 1a        	lda	$1a                     ; 0x201a <parse+0x980>
    276f: 65 13        	adc	$13                     ; 0x2013 <parse+0x979>
    2771: 85 1c        	sta	$1c                     ; 0x201c <parse+0x982>
    2773: 8a           	txa
    2774: 65 17        	adc	$17                     ; 0x2017 <parse+0x97d>
    2776: 85 1d        	sta	$1d                     ; 0x201d <parse+0x983>
    2778: a6 1c        	ldx	$1c                     ; 0x201c <parse+0x982>
    277a: 86 1e        	stx	$1e                     ; 0x201e <parse+0x984>
    277c: 85 1f        	sta	$1f                     ; 0x201f <parse+0x985>
    277e: e6 1e        	inc	$1e                     ; 0x201e <parse+0x984>
    2780: d0 02        	bne	$2784 <parse+0x10ea>
    2782: e6 1f        	inc	$1f                     ; 0x201f <parse+0x985>
    2784: a0 01        	ldy	#$1
    2786: b1 1c        	lda	($1c),y                 ; 0x201c <parse+0x982>
    2788: 85 12        	sta	$12                     ; 0x2012 <parse+0x978>
    278a: b1 1e        	lda	($1e),y                 ; 0x201e <parse+0x984>
    278c: aa           	tax
    278d: a5 12        	lda	$12                     ; 0x2012 <parse+0x978>
    278f: 1a           	inc
    2790: d0 01        	bne	$2793 <parse+0x10f9>
    2792: e8           	inx
    2793: 91 1c        	sta	($1c),y                 ; 0x201c <parse+0x982>
    2795: 8a           	txa
    2796: 91 1e        	sta	($1e),y                 ; 0x201e <parse+0x984>
    2798: a0 0d        	ldy	#$d
    279a: b1 10        	lda	($10),y                 ; 0x2010 <parse+0x976>
    279c: aa           	tax
    279d: a5 2f        	lda	$2f                     ; 0x202f <parse+0x995>
    279f: e8           	inx
    27a0: d0 09        	bne	$27ab <parse+0x1111>
    27a2: e6 2c        	inc	$2c                     ; 0x202c <parse+0x992>
    27a4: d0 05        	bne	$27ab <parse+0x1111>
    27a6: e6 2d        	inc	$2d                     ; 0x202d <parse+0x993>
    27a8: d0 01        	bne	$27ab <parse+0x1111>
    27aa: 1a           	inc
    27ab: 86 14        	stx	$14                     ; 0x2014 <parse+0x97a>
    27ad: a6 2c        	ldx	$2c                     ; 0x202c <parse+0x992>
    27af: 86 1e        	stx	$1e                     ; 0x201e <parse+0x984>
    27b1: a4 2d        	ldy	$2d                     ; 0x202d <parse+0x993>
    27b3: 4c 06 1d     	jmp	$1d06 <parse+0x66c>
    27b6: 5a           	phy
    27b7: a5 12        	lda	$12                     ; 0x2012 <parse+0x978>
    27b9: a0 09        	ldy	#$9
    27bb: 91 10        	sta	($10),y                 ; 0x2010 <parse+0x976>
    27bd: a0 16        	ldy	#$16
    27bf: b1 10        	lda	($10),y                 ; 0x2010 <parse+0x976>
    27c1: 29 8f        	and	#$8f
    27c3: 91 10        	sta	($10),y                 ; 0x2010 <parse+0x976>
    27c5: 18           	clc
    27c6: a9 00        	lda	#$0
    27c8: a0 08        	ldy	#$8
    27ca: 91 10        	sta	($10),y                 ; 0x2010 <parse+0x976>
    27cc: a2 7f        	ldx	#$7f
    27ce: 8a           	txa
    27cf: a0 17        	ldy	#$17
    27d1: 4c 17 25     	jmp	$2517 <parse+0xe7d>

000027d4 <adjustOffsets>:
    27d4: a6 73        	ldx	$73                     ; 0x2073 <parse+0x9d9>
    27d6: 86 12        	stx	$12                     ; 0x2012 <parse+0x978>
    27d8: a6 74        	ldx	$74                     ; 0x2074 <parse+0x9da>
    27da: 86 13        	stx	$13                     ; 0x2013 <parse+0x979>
    27dc: a5 13        	lda	$13                     ; 0x2013 <parse+0x979>
    27de: d0 07        	bne	$27e7 <adjustOffsets+0x13>
    27e0: a5 12        	lda	$12                     ; 0x2012 <parse+0x978>
    27e2: d0 03        	bne	$27e7 <adjustOffsets+0x13>
    27e4: 4c ec 28     	jmp	$28ec <adjustOffsets+0x118>
    27e7: a6 75        	ldx	$75                     ; 0x2075 <parse+0x9db>
    27e9: a4 76        	ldy	$76                     ; 0x2076 <parse+0x9dc>
    27eb: 86 23        	stx	$23                     ; 0x2023 <parse+0x989>
    27ed: 86 14        	stx	$14                     ; 0x2014 <parse+0x97a>
    27ef: 84 81        	sty	$81                     ; 0x2081 <parse+0x9e7>
    27f1: 84 15        	sty	$15                     ; 0x2015 <parse+0x97b>
    27f3: e6 14        	inc	$14                     ; 0x2014 <parse+0x97a>
    27f5: d0 02        	bne	$27f9 <adjustOffsets+0x25>
    27f7: e6 15        	inc	$15                     ; 0x2015 <parse+0x97b>
    27f9: 64 16        	stz	$16                     ; 0x2016 <parse+0x97c>
    27fb: 64 17        	stz	$17                     ; 0x2017 <parse+0x97d>
    27fd: a5 16        	lda	$16                     ; 0x2016 <parse+0x97c>
    27ff: 0a           	asl
    2800: a6 17        	ldx	$17                     ; 0x2017 <parse+0x97d>
    2802: 86 19        	stx	$19                     ; 0x2019 <parse+0x97f>
    2804: 26 19        	rol	$19                     ; 0x2019 <parse+0x97f>
    2806: 0a           	asl
    2807: 26 19        	rol	$19                     ; 0x2019 <parse+0x97f>
    2809: 0a           	asl
    280a: 26 19        	rol	$19                     ; 0x2019 <parse+0x97f>
    280c: 38           	sec
    280d: e5 16        	sbc	$16                     ; 0x2016 <parse+0x97c>
    280f: 85 18        	sta	$18                     ; 0x2018 <parse+0x97e>
    2811: a5 19        	lda	$19                     ; 0x2019 <parse+0x97f>
    2813: e5 17        	sbc	$17                     ; 0x2017 <parse+0x97d>
    2815: 85 19        	sta	$19                     ; 0x2019 <parse+0x97f>
    2817: a5 23        	lda	$23                     ; 0x2023 <parse+0x989>
    2819: 18           	clc
    281a: 65 18        	adc	$18                     ; 0x2018 <parse+0x97e>
    281c: aa           	tax
    281d: a5 81        	lda	$81                     ; 0x2081 <parse+0x9e7>
    281f: 65 19        	adc	$19                     ; 0x2019 <parse+0x97f>
    2821: 86 18        	stx	$18                     ; 0x2018 <parse+0x97e>
    2823: 85 19        	sta	$19                     ; 0x2019 <parse+0x97f>
    2825: 85 1b        	sta	$1b                     ; 0x201b <parse+0x981>
    2827: 18           	clc
    2828: 8a           	txa
    2829: 69 03        	adc	#$3
    282b: 85 1a        	sta	$1a                     ; 0x201a <parse+0x980>
    282d: a5 1b        	lda	$1b                     ; 0x201b <parse+0x981>
    282f: 69 00        	adc	#$0
    2831: 85 1b        	sta	$1b                     ; 0x201b <parse+0x981>
    2833: a9 00        	lda	#$0
    2835: a0 03        	ldy	#$3
    2837: 91 18        	sta	($18),y                 ; 0x2018 <parse+0x97e>
    2839: a0 01        	ldy	#$1
    283b: 91 1a        	sta	($1a),y                 ; 0x201a <parse+0x980>
    283d: c8           	iny
    283e: 91 1a        	sta	($1a),y                 ; 0x201a <parse+0x980>
    2840: c8           	iny
    2841: 91 1a        	sta	($1a),y                 ; 0x201a <parse+0x980>
    2843: a5 17        	lda	$17                     ; 0x2017 <parse+0x97d>
    2845: d0 07        	bne	$284e <adjustOffsets+0x7a>
    2847: a5 16        	lda	$16                     ; 0x2016 <parse+0x97c>
    2849: d0 03        	bne	$284e <adjustOffsets+0x7a>
    284b: 4c ce 28     	jmp	$28ce <adjustOffsets+0xfa>
    284e: 64 82        	stz	$82                     ; 0x2082 <parse+0x9e8>
    2850: a6 14        	ldx	$14                     ; 0x2014 <parse+0x97a>
    2852: 86 1e        	stx	$1e                     ; 0x201e <parse+0x984>
    2854: a6 15        	ldx	$15                     ; 0x2015 <parse+0x97b>
    2856: 86 1f        	stx	$1f                     ; 0x201f <parse+0x985>
    2858: a6 16        	ldx	$16                     ; 0x2016 <parse+0x97c>
    285a: a4 17        	ldy	$17                     ; 0x2017 <parse+0x97d>
    285c: 84 1c        	sty	$1c                     ; 0x201c <parse+0x982>
    285e: 64 83        	stz	$83                     ; 0x2083 <parse+0x9e9>
    2860: 64 84        	stz	$84                     ; 0x2084 <parse+0x9ea>
    2862: 64 85        	stz	$85                     ; 0x2085 <parse+0x9eb>
    2864: a0 01        	ldy	#$1
    2866: b2 1e        	lda	($1e)                   ; 0x201e <parse+0x984>
    2868: 85 22        	sta	$22                     ; 0x2022 <parse+0x988>
    286a: b1 1e        	lda	($1e),y                 ; 0x201e <parse+0x984>
    286c: 85 1d        	sta	$1d                     ; 0x201d <parse+0x983>
    286e: a5 22        	lda	$22                     ; 0x2022 <parse+0x988>
    2870: 0a           	asl
    2871: 26 1d        	rol	$1d                     ; 0x201d <parse+0x983>
    2873: 0a           	asl
    2874: 26 1d        	rol	$1d                     ; 0x201d <parse+0x983>
    2876: 5a           	phy
    2877: a4 1d        	ldy	$1d                     ; 0x201d <parse+0x983>
    2879: 84 22        	sty	$22                     ; 0x2022 <parse+0x988>
    287b: 7a           	ply
    287c: 0a           	asl
    287d: 85 1d        	sta	$1d                     ; 0x201d <parse+0x983>
    287f: 26 22        	rol	$22                     ; 0x2022 <parse+0x988>
    2881: a5 82        	lda	$82                     ; 0x2082 <parse+0x9e8>
    2883: 18           	clc
    2884: 65 1d        	adc	$1d                     ; 0x201d <parse+0x983>
    2886: 85 82        	sta	$82                     ; 0x2082 <parse+0x9e8>
    2888: a5 83        	lda	$83                     ; 0x2083 <parse+0x9e9>
    288a: 65 22        	adc	$22                     ; 0x2022 <parse+0x988>
    288c: 85 83        	sta	$83                     ; 0x2083 <parse+0x9e9>
    288e: a5 84        	lda	$84                     ; 0x2084 <parse+0x9ea>
    2890: 69 00        	adc	#$0
    2892: 85 84        	sta	$84                     ; 0x2084 <parse+0x9ea>
    2894: a5 85        	lda	$85                     ; 0x2085 <parse+0x9eb>
    2896: 69 00        	adc	#$0
    2898: 85 85        	sta	$85                     ; 0x2085 <parse+0x9eb>
    289a: a5 1e        	lda	$1e                     ; 0x201e <parse+0x984>
    289c: 18           	clc
    289d: 69 07        	adc	#$7
    289f: 85 1e        	sta	$1e                     ; 0x201e <parse+0x984>
    28a1: a5 1f        	lda	$1f                     ; 0x201f <parse+0x985>
    28a3: 69 00        	adc	#$0
    28a5: 85 1f        	sta	$1f                     ; 0x201f <parse+0x985>
    28a7: ca           	dex
    28a8: e0 ff        	cpx	#$ff
    28aa: d0 02        	bne	$28ae <adjustOffsets+0xda>
    28ac: c6 1c        	dec	$1c                     ; 0x201c <parse+0x982>
    28ae: a5 1c        	lda	$1c                     ; 0x201c <parse+0x982>
    28b0: d0 b4        	bne	$2866 <adjustOffsets+0x92>
    28b2: 8a           	txa
    28b3: f0 03        	beq	$28b8 <adjustOffsets+0xe4>
    28b5: 4c 66 28     	jmp	$2866 <adjustOffsets+0x92>
    28b8: a5 82        	lda	$82                     ; 0x2082 <parse+0x9e8>
    28ba: a0 03        	ldy	#$3
    28bc: 91 18        	sta	($18),y                 ; 0x2018 <parse+0x97e>
    28be: a5 83        	lda	$83                     ; 0x2083 <parse+0x9e9>
    28c0: a0 01        	ldy	#$1
    28c2: 91 1a        	sta	($1a),y                 ; 0x201a <parse+0x980>
    28c4: c8           	iny
    28c5: a5 84        	lda	$84                     ; 0x2084 <parse+0x9ea>
    28c7: 91 1a        	sta	($1a),y                 ; 0x201a <parse+0x980>
    28c9: a5 85        	lda	$85                     ; 0x2085 <parse+0x9eb>
    28cb: c8           	iny
    28cc: 91 1a        	sta	($1a),y                 ; 0x201a <parse+0x980>
    28ce: a5 17        	lda	$17                     ; 0x2017 <parse+0x97d>
    28d0: a6 16        	ldx	$16                     ; 0x2016 <parse+0x97c>
    28d2: e8           	inx
    28d3: d0 01        	bne	$28d6 <adjustOffsets+0x102>
    28d5: 1a           	inc
    28d6: 86 16        	stx	$16                     ; 0x2016 <parse+0x97c>
    28d8: 85 17        	sta	$17                     ; 0x2017 <parse+0x97d>
    28da: c5 13        	cmp	$13                     ; 0x2013 <parse+0x979>
    28dc: f0 03        	beq	$28e1 <adjustOffsets+0x10d>
    28de: 4c fd 27     	jmp	$27fd <adjustOffsets+0x29>
    28e1: 86 16        	stx	$16                     ; 0x2016 <parse+0x97c>
    28e3: 85 17        	sta	$17                     ; 0x2017 <parse+0x97d>
    28e5: e4 12        	cpx	$12                     ; 0x2012 <parse+0x978>
    28e7: f0 03        	beq	$28ec <adjustOffsets+0x118>
    28e9: 4c fd 27     	jmp	$27fd <adjustOffsets+0x29>
    28ec: 60           	rts

000028ed <updateCarPos>:
    28ed: a2 81        	ldx	#$81
    28ef: 8e 80 d8     	stx	$d880                   ; 0xd880 <end_block9+0xa876>
    28f2: 64 62        	stz	$62                     ; 0x2062 <parse+0x9c8>
    28f4: a2 85        	ldx	#$85
    28f6: a0 00        	ldy	#$0
    28f8: 86 12        	stx	$12                     ; 0x2012 <parse+0x978>
    28fa: 84 13        	sty	$13                     ; 0x2013 <parse+0x979>
    28fc: a2 09        	ldx	#$9
    28fe: 86 14        	stx	$14                     ; 0x2014 <parse+0x97a>
    2900: a2 30        	ldx	#$30
    2902: 86 15        	stx	$15                     ; 0x2015 <parse+0x97b>
    2904: 20 00 ff     	jsr	$ff00 <end_block9+0xcef6>
    2907: 92 12        	sta	($12)                   ; 0x2012 <parse+0x978>
    2909: a9 00        	lda	#$0
    290b: 6a           	ror
    290c: 85 14        	sta	$14                     ; 0x2014 <parse+0x97a>
    290e: a6 62        	ldx	$62                     ; 0x2062 <parse+0x9c8>
    2910: e0 52        	cpx	#$52
    2912: f0 03        	beq	$2917 <updateCarPos+0x2a>
    2914: 4c 48 2a     	jmp	$2a48 <updateCarPos+0x15b>
    2917: a6 66        	ldx	$66                     ; 0x2066 <parse+0x9cc>
    2919: e0 01        	cpx	#$1
    291b: d0 03        	bne	$2920 <updateCarPos+0x33>
    291d: 4c 96 29     	jmp	$2996 <updateCarPos+0xa9>
    2920: 8a           	txa
    2921: f0 03        	beq	$2926 <updateCarPos+0x39>
    2923: 4c 48 2a     	jmp	$2a48 <updateCarPos+0x15b>
    2926: a2 80        	ldx	#$80
    2928: 86 f3        	stx	$f3                     ; 0x20f3 <parse+0xa59>
    292a: a2 84        	ldx	#$84
    292c: a0 00        	ldy	#$0
    292e: 86 12        	stx	$12                     ; 0x2012 <parse+0x978>
    2930: 84 13        	sty	$13                     ; 0x2013 <parse+0x979>
    2932: a2 09        	ldx	#$9
    2934: 86 14        	stx	$14                     ; 0x2014 <parse+0x97a>
    2936: a2 30        	ldx	#$30
    2938: 86 15        	stx	$15                     ; 0x2015 <parse+0x97b>
    293a: 20 f0 ff     	jsr	$fff0 <end_block9+0xcfe6>
    293d: 92 12        	sta	($12)                   ; 0x2012 <parse+0x978>
    293f: a9 00        	lda	#$0
    2941: 6a           	ror
    2942: 85 14        	sta	$14                     ; 0x2014 <parse+0x97a>
    2944: a6 84        	ldx	$84                     ; 0x2084 <parse+0x9ea>
    2946: e8           	inx
    2947: 86 79        	stx	$79                     ; 0x2079 <parse+0x9df>
    2949: 64 f3        	stz	$f3                     ; 0x20f3 <parse+0xa59>
    294b: a6 79        	ldx	$79                     ; 0x2079 <parse+0x9df>
    294d: 86 f4        	stx	$f4                     ; 0x20f4 <parse+0xa5a>
    294f: 64 f5        	stz	$f5                     ; 0x20f5 <parse+0xa5b>
    2951: a2 83        	ldx	#$83
    2953: a0 00        	ldy	#$0
    2955: 86 12        	stx	$12                     ; 0x2012 <parse+0x978>
    2957: 84 13        	sty	$13                     ; 0x2013 <parse+0x979>
    2959: 20 f0 ff     	jsr	$fff0 <end_block9+0xcfe6>
    295c: 92 12        	sta	($12)                   ; 0x2012 <parse+0x978>
    295e: a9 00        	lda	#$0
    2960: 6a           	ror
    2961: 85 14        	sta	$14                     ; 0x2014 <parse+0x97a>
    2963: ad 80 d8     	lda	$d880                   ; 0xd880 <end_block9+0xa876>
    2966: 29 40        	and	#$40
    2968: f0 f9        	beq	$2963 <updateCarPos+0x76>
    296a: ae 84 d8     	ldx	$d884                   ; 0xd884 <end_block9+0xa87a>
    296d: e0 fd        	cpx	#$fd
    296f: f0 03        	beq	$2974 <updateCarPos+0x87>
    2971: 4c 09 2a     	jmp	$2a09 <updateCarPos+0x11c>
    2974: a6 60        	ldx	$60                     ; 0x2060 <parse+0x9c6>
    2976: a4 61        	ldy	$61                     ; 0x2061 <parse+0x9c7>
    2978: 84 12        	sty	$12                     ; 0x2012 <parse+0x978>
    297a: 18           	clc
    297b: 8a           	txa
    297c: 86 14        	stx	$14                     ; 0x2014 <parse+0x97a>
    297e: 69 fd        	adc	#$fd
    2980: aa           	tax
    2981: 98           	tya
    2982: 69 ff        	adc	#$ff
    2984: 86 60        	stx	$60                     ; 0x2060 <parse+0x9c6>
    2986: 85 61        	sta	$61                     ; 0x2061 <parse+0x9c7>
    2988: 8e 04 d9     	stx	$d904                   ; 0xd904 <end_block9+0xa8fa>
    298b: 18           	clc
    298c: 8d 05 d9     	sta	$d905                   ; 0xd905 <end_block9+0xa8fb>
    298f: a5 14        	lda	$14                     ; 0x2014 <parse+0x97a>
    2991: 69 1d        	adc	#$1d
    2993: 4c 2f 2a     	jmp	$2a2f <updateCarPos+0x142>
    2996: a2 01        	ldx	#$1
    2998: 86 01        	stx	$1                      ; 0x2001 <parse+0x967>
    299a: ae 48 d2     	ldx	$d248                   ; 0xd248 <end_block9+0xa23e>
    299d: 86 12        	stx	$12                     ; 0x2012 <parse+0x978>
    299f: ac 49 d2     	ldy	$d249                   ; 0xd249 <end_block9+0xa23f>
    29a2: ad 4a d2     	lda	$d24a                   ; 0xd24a <end_block9+0xa240>
    29a5: ae c0 d1     	ldx	$d1c0                   ; 0xd1c0 <end_block9+0xa1b6>
    29a8: 8e 48 d2     	stx	$d248                   ; 0xd248 <end_block9+0xa23e>
    29ab: ae c1 d1     	ldx	$d1c1                   ; 0xd1c1 <end_block9+0xa1b7>
    29ae: 8e 49 d2     	stx	$d249                   ; 0xd249 <end_block9+0xa23f>
    29b1: ae c2 d1     	ldx	$d1c2                   ; 0xd1c2 <end_block9+0xa1b8>
    29b4: 8e 4a d2     	stx	$d24a                   ; 0xd24a <end_block9+0xa240>
    29b7: a6 12        	ldx	$12                     ; 0x2012 <parse+0x978>
    29b9: 8e c0 d1     	stx	$d1c0                   ; 0xd1c0 <end_block9+0xa1b6>
    29bc: 8c c1 d1     	sty	$d1c1                   ; 0xd1c1 <end_block9+0xa1b7>
    29bf: 8d c2 d1     	sta	$d1c2                   ; 0xd1c2 <end_block9+0xa1b8>
    29c2: 64 01        	stz	$1                      ; 0x2001 <parse+0x967>
    29c4: a2 80        	ldx	#$80
    29c6: 86 f3        	stx	$f3                     ; 0x20f3 <parse+0xa59>
    29c8: a2 82        	ldx	#$82
    29ca: a0 00        	ldy	#$0
    29cc: 86 12        	stx	$12                     ; 0x2012 <parse+0x978>
    29ce: 84 13        	sty	$13                     ; 0x2013 <parse+0x979>
    29d0: a2 09        	ldx	#$9
    29d2: 86 14        	stx	$14                     ; 0x2014 <parse+0x97a>
    29d4: a2 30        	ldx	#$30
    29d6: 86 15        	stx	$15                     ; 0x2015 <parse+0x97b>
    29d8: 20 f0 ff     	jsr	$fff0 <end_block9+0xcfe6>
    29db: 92 12        	sta	($12)                   ; 0x2012 <parse+0x978>
    29dd: a9 00        	lda	#$0
    29df: 6a           	ror
    29e0: 85 14        	sta	$14                     ; 0x2014 <parse+0x97a>
    29e2: a9 03        	lda	#$3
    29e4: 18           	clc
    29e5: 65 82        	adc	$82                     ; 0x2082 <parse+0x9e8>
    29e7: 85 7a        	sta	$7a                     ; 0x207a <parse+0x9e0>
    29e9: 64 f3        	stz	$f3                     ; 0x20f3 <parse+0xa59>
    29eb: a6 7a        	ldx	$7a                     ; 0x207a <parse+0x9e0>
    29ed: 86 f4        	stx	$f4                     ; 0x20f4 <parse+0xa5a>
    29ef: a9 01        	lda	#$1
    29f1: 25 7b        	and	$7b                     ; 0x207b <parse+0x9e1>
    29f3: 85 f5        	sta	$f5                     ; 0x20f5 <parse+0xa5b>
    29f5: a2 81        	ldx	#$81
    29f7: a0 00        	ldy	#$0
    29f9: 86 12        	stx	$12                     ; 0x2012 <parse+0x978>
    29fb: 84 13        	sty	$13                     ; 0x2013 <parse+0x979>
    29fd: 20 f0 ff     	jsr	$fff0 <end_block9+0xcfe6>
    2a00: 92 12        	sta	($12)                   ; 0x2012 <parse+0x978>
    2a02: a9 00        	lda	#$0
    2a04: 6a           	ror
    2a05: 85 14        	sta	$14                     ; 0x2014 <parse+0x97a>
    2a07: 80 3f        	bra	$2a48 <updateCarPos+0x15b>
    2a09: ae 84 d8     	ldx	$d884                   ; 0xd884 <end_block9+0xa87a>
    2a0c: e0 fe        	cpx	#$fe
    2a0e: d0 38        	bne	$2a48 <updateCarPos+0x15b>
    2a10: a6 60        	ldx	$60                     ; 0x2060 <parse+0x9c6>
    2a12: a4 61        	ldy	$61                     ; 0x2061 <parse+0x9c7>
    2a14: 84 12        	sty	$12                     ; 0x2012 <parse+0x978>
    2a16: 18           	clc
    2a17: 8a           	txa
    2a18: 86 14        	stx	$14                     ; 0x2014 <parse+0x97a>
    2a1a: 69 03        	adc	#$3
    2a1c: aa           	tax
    2a1d: 98           	tya
    2a1e: 69 00        	adc	#$0
    2a20: 86 60        	stx	$60                     ; 0x2060 <parse+0x9c6>
    2a22: 85 61        	sta	$61                     ; 0x2061 <parse+0x9c7>
    2a24: 8e 04 d9     	stx	$d904                   ; 0xd904 <end_block9+0xa8fa>
    2a27: 18           	clc
    2a28: 8d 05 d9     	sta	$d905                   ; 0xd905 <end_block9+0xa8fb>
    2a2b: a5 14        	lda	$14                     ; 0x2014 <parse+0x97a>
    2a2d: 69 23        	adc	#$23
    2a2f: a8           	tay
    2a30: a5 12        	lda	$12                     ; 0x2012 <parse+0x978>
    2a32: 69 00        	adc	#$0
    2a34: a2 dc        	ldx	#$dc
    2a36: 8e 06 d9     	stx	$d906                   ; 0xd906 <end_block9+0xa8fc>
    2a39: 9c 07 d9     	stz	$d907                   ; 0xd907 <end_block9+0xa8fd>
    2a3c: 8c 0c d9     	sty	$d90c                   ; 0xd90c <end_block9+0xa902>
    2a3f: 8d 0d d9     	sta	$d90d                   ; 0xd90d <end_block9+0xa903>
    2a42: 8e 0e d9     	stx	$d90e                   ; 0xd90e <end_block9+0xa904>
    2a45: 9c 0f d9     	stz	$d90f                   ; 0xd90f <end_block9+0xa905>
    2a48: a2 01        	ldx	#$1
    2a4a: 8e 80 d8     	stx	$d880                   ; 0xd880 <end_block9+0xa876>
    2a4d: 60           	rts

00002a4e <exit>:
    2a4e: 20 49 03     	jsr	$349 <_fini>
    2a51: 80 fe        	bra	$2a51 <exit+0x3>

00002a53 <malloc>:
    2a53: a8           	tay
    2a54: 8a           	txa
    2a55: a2 00        	ldx	#$0
    2a57: 86 12        	stx	$12                     ; 0x2012 <parse+0x978>
    2a59: a2 00        	ldx	#$0
    2a5b: 86 13        	stx	$13                     ; 0x2013 <parse+0x979>
    2a5d: aa           	tax
    2a5e: d0 07        	bne	$2a67 <malloc+0x14>
    2a60: c0 00        	cpy	#$0
    2a62: d0 03        	bne	$2a67 <malloc+0x14>
    2a64: 4c 5f 2b     	jmp	$2b5f <malloc+0x10c>
    2a67: 84 16        	sty	$16                     ; 0x2016 <parse+0x97c>
    2a69: aa           	tax
    2a6a: d0 0e        	bne	$2a7a <malloc+0x27>
    2a6c: a6 16        	ldx	$16                     ; 0x2016 <parse+0x97c>
    2a6e: e0 07        	cpx	#$7
    2a70: b0 0c        	bcs	$2a7e <malloc+0x2b>
    2a72: a2 08        	ldx	#$8
    2a74: 86 81        	stx	$81                     ; 0x2081 <parse+0x9e7>
    2a76: a9 00        	lda	#$0
    2a78: 80 2f        	bra	$2aa9 <malloc+0x56>
    2a7a: c9 00        	cmp	#$0
    2a7c: 90 f4        	bcc	$2a72 <malloc+0x1f>
    2a7e: a8           	tay
    2a7f: a5 16        	lda	$16                     ; 0x2016 <parse+0x97c>
    2a81: 29 01        	and	#$1
    2a83: a2 02        	ldx	#$2
    2a85: 64 14        	stz	$14                     ; 0x2014 <parse+0x97a>
    2a87: c9 00        	cmp	#$0
    2a89: f0 02        	beq	$2a8d <malloc+0x3a>
    2a8b: a2 03        	ldx	#$3
    2a8d: 86 15        	stx	$15                     ; 0x2015 <parse+0x97b>
    2a8f: 18           	clc
    2a90: a5 16        	lda	$16                     ; 0x2016 <parse+0x97c>
    2a92: 65 15        	adc	$15                     ; 0x2015 <parse+0x97b>
    2a94: aa           	tax
    2a95: 98           	tya
    2a96: 65 14        	adc	$14                     ; 0x2014 <parse+0x97a>
    2a98: 90 03        	bcc	$2a9d <malloc+0x4a>
    2a9a: 4c 5f 2b     	jmp	$2b5f <malloc+0x10c>
    2a9d: 86 81        	stx	$81                     ; 0x2081 <parse+0x9e7>
    2a9f: a8           	tay
    2aa0: d0 07        	bne	$2aa9 <malloc+0x56>
    2aa2: e0 00        	cpx	#$0
    2aa4: d0 03        	bne	$2aa9 <malloc+0x56>
    2aa6: 4c 5f 2b     	jmp	$2b5f <malloc+0x10c>
    2aa9: 85 82        	sta	$82                     ; 0x2082 <parse+0x9e8>
    2aab: a5 7c        	lda	$7c                     ; 0x207c <parse+0x9e2>
    2aad: 29 01        	and	#$1
    2aaf: d0 29        	bne	$2ada <malloc+0x87>
    2ab1: a9 00        	lda	#$0
    2ab3: a2 10        	ldx	#$10
    2ab5: a0 0a        	ldy	#$a
    2ab7: 84 12        	sty	$12                     ; 0x2012 <parse+0x978>
    2ab9: a0 30        	ldy	#$30
    2abb: 84 13        	sty	$13                     ; 0x2013 <parse+0x979>
    2abd: 20 4a 03     	jsr	$34a <_ZN12_GLOBAL__N_19FreeChunk6insertEPvj>
    2ac0: a2 00        	ldx	#$0
    2ac2: 86 12        	stx	$12                     ; 0x2012 <parse+0x978>
    2ac4: a2 00        	ldx	#$0
    2ac6: 86 13        	stx	$13                     ; 0x2013 <parse+0x979>
    2ac8: ae 0b 30     	ldx	$300b                   ; 0x300b <end_block9+0x1>
    2acb: a9 fe        	lda	#$fe
    2acd: 2d 0a 30     	and	$300a                   ; 0x300a <end_block9>
    2ad0: 8d 0a 30     	sta	$300a                   ; 0x300a <end_block9>
    2ad3: 8e 0b 30     	stx	$300b                   ; 0x300b <end_block9+0x1>
    2ad6: a2 01        	ldx	#$1
    2ad8: 86 7c        	stx	$7c                     ; 0x207c <parse+0x9e2>
    2ada: a5 7f        	lda	$7f                     ; 0x207f <parse+0x9e5>
    2adc: a6 80        	ldx	$80                     ; 0x2080 <parse+0x9e6>
    2ade: a0 00        	ldy	#$0
    2ae0: 84 14        	sty	$14                     ; 0x2014 <parse+0x97a>
    2ae2: a0 00        	ldy	#$0
    2ae4: 84 15        	sty	$15                     ; 0x2015 <parse+0x97b>
    2ae6: 86 1d        	stx	$1d                     ; 0x201d <parse+0x983>
    2ae8: e4 15        	cpx	$15                     ; 0x2015 <parse+0x97b>
    2aea: d0 07        	bne	$2af3 <malloc+0xa0>
    2aec: c5 14        	cmp	$14                     ; 0x2014 <parse+0x97a>
    2aee: d0 03        	bne	$2af3 <malloc+0xa0>
    2af0: 4c 5f 2b     	jmp	$2b5f <malloc+0x10c>
    2af3: a0 00        	ldy	#$0
    2af5: a2 10        	ldx	#$10
    2af7: 85 18        	sta	$18                     ; 0x2018 <parse+0x97e>
    2af9: 84 14        	sty	$14                     ; 0x2014 <parse+0x97a>
    2afb: 86 15        	stx	$15                     ; 0x2015 <parse+0x97b>
    2afd: 18           	clc
    2afe: a9 0a        	lda	#$a
    2b00: 65 14        	adc	$14                     ; 0x2014 <parse+0x97a>
    2b02: 85 14        	sta	$14                     ; 0x2014 <parse+0x97a>
    2b04: a9 30        	lda	#$30
    2b06: 65 15        	adc	$15                     ; 0x2015 <parse+0x97b>
    2b08: a6 14        	ldx	$14                     ; 0x2014 <parse+0x97a>
    2b0a: 86 83        	stx	$83                     ; 0x2083 <parse+0x9e9>
    2b0c: 85 17        	sta	$17                     ; 0x2017 <parse+0x97d>
    2b0e: a6 18        	ldx	$18                     ; 0x2018 <parse+0x97e>
    2b10: 86 1c        	stx	$1c                     ; 0x201c <parse+0x982>
    2b12: a6 18        	ldx	$18                     ; 0x2018 <parse+0x97e>
    2b14: 86 14        	stx	$14                     ; 0x2014 <parse+0x97a>
    2b16: a6 1d        	ldx	$1d                     ; 0x201d <parse+0x983>
    2b18: 86 15        	stx	$15                     ; 0x2015 <parse+0x97b>
    2b1a: a0 01        	ldy	#$1
    2b1c: a6 82        	ldx	$82                     ; 0x2082 <parse+0x9e8>
    2b1e: 86 18        	stx	$18                     ; 0x2018 <parse+0x97e>
    2b20: b1 14        	lda	($14),y                 ; 0x2014 <parse+0x97a>
    2b22: 85 19        	sta	$19                     ; 0x2019 <parse+0x97f>
    2b24: aa           	tax
    2b25: a9 fe        	lda	#$fe
    2b27: 32 14        	and	($14)                   ; 0x2014 <parse+0x97a>
    2b29: 85 1a        	sta	$1a                     ; 0x201a <parse+0x980>
    2b2b: e4 18        	cpx	$18                     ; 0x2018 <parse+0x97e>
    2b2d: d0 0a        	bne	$2b39 <malloc+0xe6>
    2b2f: a6 81        	ldx	$81                     ; 0x2081 <parse+0x9e7>
    2b31: 86 1b        	stx	$1b                     ; 0x201b <parse+0x981>
    2b33: c5 1b        	cmp	$1b                     ; 0x201b <parse+0x981>
    2b35: b0 29        	bcs	$2b60 <malloc+0x10d>
    2b37: 80 04        	bra	$2b3d <malloc+0xea>
    2b39: e4 18        	cpx	$18                     ; 0x2018 <parse+0x97e>
    2b3b: b0 23        	bcs	$2b60 <malloc+0x10d>
    2b3d: a5 14        	lda	$14                     ; 0x2014 <parse+0x97a>
    2b3f: 18           	clc
    2b40: 69 02        	adc	#$2
    2b42: 85 1a        	sta	$1a                     ; 0x201a <parse+0x980>
    2b44: a5 15        	lda	$15                     ; 0x2015 <parse+0x97b>
    2b46: 69 00        	adc	#$0
    2b48: 85 1b        	sta	$1b                     ; 0x201b <parse+0x981>
    2b4a: a0 02        	ldy	#$2
    2b4c: b1 14        	lda	($14),y                 ; 0x2014 <parse+0x97a>
    2b4e: 85 14        	sta	$14                     ; 0x2014 <parse+0x97a>
    2b50: 88           	dey
    2b51: b1 1a        	lda	($1a),y                 ; 0x201a <parse+0x980>
    2b53: 85 15        	sta	$15                     ; 0x2015 <parse+0x97b>
    2b55: c5 1d        	cmp	$1d                     ; 0x201d <parse+0x983>
    2b57: d0 c7        	bne	$2b20 <malloc+0xcd>
    2b59: a5 14        	lda	$14                     ; 0x2014 <parse+0x97a>
    2b5b: c5 1c        	cmp	$1c                     ; 0x201c <parse+0x982>
    2b5d: d0 c1        	bne	$2b20 <malloc+0xcd>
    2b5f: 60           	rts
    2b60: a5 7d        	lda	$7d                     ; 0x207d <parse+0x9e3>
    2b62: a6 7e        	ldx	$7e                     ; 0x207e <parse+0x9e4>
    2b64: 86 12        	stx	$12                     ; 0x2012 <parse+0x978>
    2b66: 38           	sec
    2b67: e5 1a        	sbc	$1a                     ; 0x201a <parse+0x980>
    2b69: aa           	tax
    2b6a: a5 12        	lda	$12                     ; 0x2012 <parse+0x978>
    2b6c: e5 19        	sbc	$19                     ; 0x2019 <parse+0x97f>
    2b6e: 85 12        	sta	$12                     ; 0x2012 <parse+0x978>
    2b70: 18           	clc
    2b71: 8a           	txa
    2b72: 69 02        	adc	#$2
    2b74: 85 13        	sta	$13                     ; 0x2013 <parse+0x979>
    2b76: a5 12        	lda	$12                     ; 0x2012 <parse+0x978>
    2b78: 69 00        	adc	#$0
    2b7a: a6 13        	ldx	$13                     ; 0x2013 <parse+0x979>
    2b7c: 86 7d        	stx	$7d                     ; 0x207d <parse+0x9e3>
    2b7e: 85 7e        	sta	$7e                     ; 0x207e <parse+0x9e4>
    2b80: a0 02        	ldy	#$2
    2b82: a5 14        	lda	$14                     ; 0x2014 <parse+0x97a>
    2b84: 18           	clc
    2b85: 69 02        	adc	#$2
    2b87: 85 12        	sta	$12                     ; 0x2012 <parse+0x978>
    2b89: a5 15        	lda	$15                     ; 0x2015 <parse+0x97b>
    2b8b: 69 00        	adc	#$0
    2b8d: 85 13        	sta	$13                     ; 0x2013 <parse+0x979>
    2b8f: b1 14        	lda	($14),y                 ; 0x2014 <parse+0x97a>
    2b91: 85 1e        	sta	$1e                     ; 0x201e <parse+0x984>
    2b93: 88           	dey
    2b94: b1 12        	lda	($12),y                 ; 0x2012 <parse+0x978>
    2b96: 85 1f        	sta	$1f                     ; 0x201f <parse+0x985>
    2b98: c5 15        	cmp	$15                     ; 0x2015 <parse+0x97b>
    2b9a: d0 15        	bne	$2bb1 <malloc+0x15e>
    2b9c: a5 82        	lda	$82                     ; 0x2082 <parse+0x9e8>
    2b9e: a6 1e        	ldx	$1e                     ; 0x201e <parse+0x984>
    2ba0: e4 14        	cpx	$14                     ; 0x2014 <parse+0x97a>
    2ba2: d0 0d        	bne	$2bb1 <malloc+0x15e>
    2ba4: 85 1a        	sta	$1a                     ; 0x201a <parse+0x980>
    2ba6: a2 00        	ldx	#$0
    2ba8: 86 18        	stx	$18                     ; 0x2018 <parse+0x97e>
    2baa: a2 00        	ldx	#$0
    2bac: 86 19        	stx	$19                     ; 0x2019 <parse+0x97f>
    2bae: 4c 2b 2c     	jmp	$2c2b <malloc+0x1d8>
    2bb1: 18           	clc
    2bb2: a5 14        	lda	$14                     ; 0x2014 <parse+0x97a>
    2bb4: 69 04        	adc	#$4
    2bb6: 85 18        	sta	$18                     ; 0x2018 <parse+0x97e>
    2bb8: a5 15        	lda	$15                     ; 0x2015 <parse+0x97b>
    2bba: 69 00        	adc	#$0
    2bbc: 85 19        	sta	$19                     ; 0x2019 <parse+0x97f>
    2bbe: a0 04        	ldy	#$4
    2bc0: b1 14        	lda	($14),y                 ; 0x2014 <parse+0x97a>
    2bc2: 85 23        	sta	$23                     ; 0x2023 <parse+0x989>
    2bc4: 18           	clc
    2bc5: 69 02        	adc	#$2
    2bc7: 85 1a        	sta	$1a                     ; 0x201a <parse+0x980>
    2bc9: a0 01        	ldy	#$1
    2bcb: b1 18        	lda	($18),y                 ; 0x2018 <parse+0x97e>
    2bcd: 85 22        	sta	$22                     ; 0x2022 <parse+0x988>
    2bcf: 69 00        	adc	#$0
    2bd1: a6 1a        	ldx	$1a                     ; 0x201a <parse+0x980>
    2bd3: 86 18        	stx	$18                     ; 0x2018 <parse+0x97e>
    2bd5: 85 19        	sta	$19                     ; 0x2019 <parse+0x97f>
    2bd7: a6 23        	ldx	$23                     ; 0x2023 <parse+0x989>
    2bd9: 86 1a        	stx	$1a                     ; 0x201a <parse+0x980>
    2bdb: a6 22        	ldx	$22                     ; 0x2022 <parse+0x988>
    2bdd: 86 1b        	stx	$1b                     ; 0x201b <parse+0x981>
    2bdf: c8           	iny
    2be0: a5 1e        	lda	$1e                     ; 0x201e <parse+0x984>
    2be2: 91 1a        	sta	($1a),y                 ; 0x201a <parse+0x980>
    2be4: a5 1f        	lda	$1f                     ; 0x201f <parse+0x985>
    2be6: 88           	dey
    2be7: 91 18        	sta	($18),y                 ; 0x2018 <parse+0x97e>
    2be9: 18           	clc
    2bea: a5 14        	lda	$14                     ; 0x2014 <parse+0x97a>
    2bec: 69 02        	adc	#$2
    2bee: 85 1a        	sta	$1a                     ; 0x201a <parse+0x980>
    2bf0: a5 15        	lda	$15                     ; 0x2015 <parse+0x97b>
    2bf2: 69 00        	adc	#$0
    2bf4: 85 1b        	sta	$1b                     ; 0x201b <parse+0x981>
    2bf6: c8           	iny
    2bf7: b1 14        	lda	($14),y                 ; 0x2014 <parse+0x97a>
    2bf9: 85 18        	sta	$18                     ; 0x2018 <parse+0x97e>
    2bfb: aa           	tax
    2bfc: 88           	dey
    2bfd: b1 1a        	lda	($1a),y                 ; 0x201a <parse+0x980>
    2bff: 85 19        	sta	$19                     ; 0x2019 <parse+0x97f>
    2c01: 85 16        	sta	$16                     ; 0x2016 <parse+0x97c>
    2c03: a0 04        	ldy	#$4
    2c05: a5 23        	lda	$23                     ; 0x2023 <parse+0x989>
    2c07: 91 18        	sta	($18),y                 ; 0x2018 <parse+0x97e>
    2c09: 18           	clc
    2c0a: 8a           	txa
    2c0b: 69 04        	adc	#$4
    2c0d: 85 1a        	sta	$1a                     ; 0x201a <parse+0x980>
    2c0f: a5 16        	lda	$16                     ; 0x2016 <parse+0x97c>
    2c11: 69 00        	adc	#$0
    2c13: 85 1b        	sta	$1b                     ; 0x201b <parse+0x981>
    2c15: a5 22        	lda	$22                     ; 0x2022 <parse+0x988>
    2c17: a0 01        	ldy	#$1
    2c19: 91 1a        	sta	($1a),y                 ; 0x201a <parse+0x980>
    2c1b: a5 82        	lda	$82                     ; 0x2082 <parse+0x9e8>
    2c1d: 85 1a        	sta	$1a                     ; 0x201a <parse+0x980>
    2c1f: a6 1d        	ldx	$1d                     ; 0x201d <parse+0x983>
    2c21: e4 15        	cpx	$15                     ; 0x2015 <parse+0x97b>
    2c23: d0 0e        	bne	$2c33 <malloc+0x1e0>
    2c25: a6 1c        	ldx	$1c                     ; 0x201c <parse+0x982>
    2c27: e4 14        	cpx	$14                     ; 0x2014 <parse+0x97a>
    2c29: d0 08        	bne	$2c33 <malloc+0x1e0>
    2c2b: a6 18        	ldx	$18                     ; 0x2018 <parse+0x97e>
    2c2d: a4 19        	ldy	$19                     ; 0x2019 <parse+0x97f>
    2c2f: 86 7f        	stx	$7f                     ; 0x207f <parse+0x9e5>
    2c31: 84 80        	sty	$80                     ; 0x2080 <parse+0x9e6>
    2c33: a0 01        	ldy	#$1
    2c35: b1 14        	lda	($14),y                 ; 0x2014 <parse+0x97a>
    2c37: 85 16        	sta	$16                     ; 0x2016 <parse+0x97c>
    2c39: a9 fe        	lda	#$fe
    2c3b: 32 14        	and	($14)                   ; 0x2014 <parse+0x97a>
    2c3d: 38           	sec
    2c3e: a6 81        	ldx	$81                     ; 0x2081 <parse+0x9e7>
    2c40: 86 18        	stx	$18                     ; 0x2018 <parse+0x97e>
    2c42: a8           	tay
    2c43: e5 18        	sbc	$18                     ; 0x2018 <parse+0x97e>
    2c45: 85 19        	sta	$19                     ; 0x2019 <parse+0x97f>
    2c47: a5 16        	lda	$16                     ; 0x2016 <parse+0x97c>
    2c49: a6 16        	ldx	$16                     ; 0x2016 <parse+0x97c>
    2c4b: e5 1a        	sbc	$1a                     ; 0x201a <parse+0x980>
    2c4d: f0 03        	beq	$2c52 <malloc+0x1ff>
    2c4f: 4c de 2c     	jmp	$2cde <malloc+0x28b>
    2c52: 85 16        	sta	$16                     ; 0x2016 <parse+0x97c>
    2c54: a5 19        	lda	$19                     ; 0x2019 <parse+0x97f>
    2c56: c9 08        	cmp	#$8
    2c58: 86 18        	stx	$18                     ; 0x2018 <parse+0x97e>
    2c5a: b0 03        	bcs	$2c5f <malloc+0x20c>
    2c5c: 4c c1 2c     	jmp	$2cc1 <malloc+0x26e>
    2c5f: a6 17        	ldx	$17                     ; 0x2017 <parse+0x97d>
    2c61: 86 88        	stx	$88                     ; 0x2088 <parse+0x9ee>
    2c63: a6 83        	ldx	$83                     ; 0x2083 <parse+0x9e9>
    2c65: 86 83        	stx	$83                     ; 0x2083 <parse+0x9e9>
    2c67: a6 12        	ldx	$12                     ; 0x2012 <parse+0x978>
    2c69: 86 84        	stx	$84                     ; 0x2084 <parse+0x9ea>
    2c6b: a6 13        	ldx	$13                     ; 0x2013 <parse+0x979>
    2c6d: 86 85        	stx	$85                     ; 0x2085 <parse+0x9eb>
    2c6f: a8           	tay
    2c70: 18           	clc
    2c71: a6 81        	ldx	$81                     ; 0x2081 <parse+0x9e7>
    2c73: 86 81        	stx	$81                     ; 0x2081 <parse+0x9e7>
    2c75: 8a           	txa
    2c76: 65 14        	adc	$14                     ; 0x2014 <parse+0x97a>
    2c78: 85 12        	sta	$12                     ; 0x2012 <parse+0x978>
    2c7a: a5 1a        	lda	$1a                     ; 0x201a <parse+0x980>
    2c7c: a6 1a        	ldx	$1a                     ; 0x201a <parse+0x980>
    2c7e: 86 82        	stx	$82                     ; 0x2082 <parse+0x9e8>
    2c80: 65 15        	adc	$15                     ; 0x2015 <parse+0x97b>
    2c82: 85 13        	sta	$13                     ; 0x2013 <parse+0x979>
    2c84: a6 16        	ldx	$16                     ; 0x2016 <parse+0x97c>
    2c86: 98           	tya
    2c87: a4 14        	ldy	$14                     ; 0x2014 <parse+0x97a>
    2c89: 84 86        	sty	$86                     ; 0x2086 <parse+0x9ec>
    2c8b: a4 15        	ldy	$15                     ; 0x2015 <parse+0x97b>
    2c8d: 84 87        	sty	$87                     ; 0x2087 <parse+0x9ed>
    2c8f: 20 4a 03     	jsr	$34a <_ZN12_GLOBAL__N_19FreeChunk6insertEPvj>
    2c92: a6 86        	ldx	$86                     ; 0x2086 <parse+0x9ec>
    2c94: 86 14        	stx	$14                     ; 0x2014 <parse+0x97a>
    2c96: a6 87        	ldx	$87                     ; 0x2087 <parse+0x9ed>
    2c98: 86 15        	stx	$15                     ; 0x2015 <parse+0x97b>
    2c9a: a5 81        	lda	$81                     ; 0x2081 <parse+0x9e7>
    2c9c: 29 fe        	and	#$fe
    2c9e: 85 12        	sta	$12                     ; 0x2012 <parse+0x978>
    2ca0: a0 01        	ldy	#$1
    2ca2: 98           	tya
    2ca3: 32 14        	and	($14)                   ; 0x2014 <parse+0x97a>
    2ca5: 05 12        	ora	$12                     ; 0x2012 <parse+0x978>
    2ca7: 92 14        	sta	($14)                   ; 0x2014 <parse+0x97a>
    2ca9: a5 82        	lda	$82                     ; 0x2082 <parse+0x9e8>
    2cab: 91 14        	sta	($14),y                 ; 0x2014 <parse+0x97a>
    2cad: a4 12        	ldy	$12                     ; 0x2012 <parse+0x978>
    2caf: 85 18        	sta	$18                     ; 0x2018 <parse+0x97e>
    2cb1: a6 84        	ldx	$84                     ; 0x2084 <parse+0x9ea>
    2cb3: 86 12        	stx	$12                     ; 0x2012 <parse+0x978>
    2cb5: a6 85        	ldx	$85                     ; 0x2085 <parse+0x9eb>
    2cb7: 86 13        	stx	$13                     ; 0x2013 <parse+0x979>
    2cb9: a6 83        	ldx	$83                     ; 0x2083 <parse+0x9e9>
    2cbb: 86 83        	stx	$83                     ; 0x2083 <parse+0x9e9>
    2cbd: a6 88        	ldx	$88                     ; 0x2088 <parse+0x9ee>
    2cbf: 86 17        	stx	$17                     ; 0x2017 <parse+0x97d>
    2cc1: 18           	clc
    2cc2: 98           	tya
    2cc3: 65 14        	adc	$14                     ; 0x2014 <parse+0x97a>
    2cc5: 85 16        	sta	$16                     ; 0x2016 <parse+0x97c>
    2cc7: a5 15        	lda	$15                     ; 0x2015 <parse+0x97b>
    2cc9: 65 18        	adc	$18                     ; 0x2018 <parse+0x97e>
    2ccb: 85 15        	sta	$15                     ; 0x2015 <parse+0x97b>
    2ccd: c5 17        	cmp	$17                     ; 0x2017 <parse+0x97d>
    2ccf: d0 1a        	bne	$2ceb <malloc+0x298>
    2cd1: a6 83        	ldx	$83                     ; 0x2083 <parse+0x9e9>
    2cd3: 86 14        	stx	$14                     ; 0x2014 <parse+0x97a>
    2cd5: a6 16        	ldx	$16                     ; 0x2016 <parse+0x97c>
    2cd7: e4 14        	cpx	$14                     ; 0x2014 <parse+0x97a>
    2cd9: d0 12        	bne	$2ced <malloc+0x29a>
    2cdb: 4c 5f 2b     	jmp	$2b5f <malloc+0x10c>
    2cde: 85 16        	sta	$16                     ; 0x2016 <parse+0x97c>
    2ce0: c9 00        	cmp	#$0
    2ce2: 86 18        	stx	$18                     ; 0x2018 <parse+0x97e>
    2ce4: a5 19        	lda	$19                     ; 0x2019 <parse+0x97f>
    2ce6: 90 d9        	bcc	$2cc1 <malloc+0x26e>
    2ce8: 4c 5f 2c     	jmp	$2c5f <malloc+0x20c>
    2ceb: a6 16        	ldx	$16                     ; 0x2016 <parse+0x97c>
    2ced: 86 14        	stx	$14                     ; 0x2014 <parse+0x97a>
    2cef: a0 01        	ldy	#$1
    2cf1: b1 14        	lda	($14),y                 ; 0x2014 <parse+0x97a>
    2cf3: 85 16        	sta	$16                     ; 0x2016 <parse+0x97c>
    2cf5: a9 fe        	lda	#$fe
    2cf7: 32 14        	and	($14)                   ; 0x2014 <parse+0x97a>
    2cf9: 92 14        	sta	($14)                   ; 0x2014 <parse+0x97a>
    2cfb: a5 16        	lda	$16                     ; 0x2016 <parse+0x97c>
    2cfd: 91 14        	sta	($14),y                 ; 0x2014 <parse+0x97a>
    2cff: 60           	rts

00002d00 <memcpy>:
    2d00: a8           	tay
    2d01: 8a           	txa
    2d02: d0 03        	bne	$2d07 <memcpy+0x7>
    2d04: 98           	tya
    2d05: f0 24        	beq	$2d2b <memcpy+0x2b>
    2d07: a5 12        	lda	$12                     ; 0x2012 <parse+0x978>
    2d09: 85 16        	sta	$16                     ; 0x2016 <parse+0x97c>
    2d0b: a5 13        	lda	$13                     ; 0x2013 <parse+0x979>
    2d0d: 85 17        	sta	$17                     ; 0x2017 <parse+0x97d>
    2d0f: b2 14        	lda	($14)                   ; 0x2014 <parse+0x97a>
    2d11: 92 16        	sta	($16)                   ; 0x2016 <parse+0x97c>
    2d13: e6 16        	inc	$16                     ; 0x2016 <parse+0x97c>
    2d15: d0 02        	bne	$2d19 <memcpy+0x19>
    2d17: e6 17        	inc	$17                     ; 0x2017 <parse+0x97d>
    2d19: e6 14        	inc	$14                     ; 0x2014 <parse+0x97a>
    2d1b: d0 02        	bne	$2d1f <memcpy+0x1f>
    2d1d: e6 15        	inc	$15                     ; 0x2015 <parse+0x97b>
    2d1f: 88           	dey
    2d20: c0 ff        	cpy	#$ff
    2d22: d0 01        	bne	$2d25 <memcpy+0x25>
    2d24: ca           	dex
    2d25: 8a           	txa
    2d26: d0 e7        	bne	$2d0f <memcpy+0xf>
    2d28: 98           	tya
    2d29: d0 e4        	bne	$2d0f <memcpy+0xf>
    2d2b: 60           	rts

00002d2c <__memset>:
    2d2c: a4 14        	ldy	$14                     ; 0x2014 <parse+0x97a>
    2d2e: d0 04        	bne	$2d34 <__memset+0x8>
    2d30: e0 00        	cpx	#$0
    2d32: f0 17        	beq	$2d4b <__memset+0x1f>
    2d34: 92 12        	sta	($12)                   ; 0x2012 <parse+0x978>
    2d36: e6 12        	inc	$12                     ; 0x2012 <parse+0x978>
    2d38: d0 02        	bne	$2d3c <__memset+0x10>
    2d3a: e6 13        	inc	$13                     ; 0x2013 <parse+0x979>
    2d3c: ca           	dex
    2d3d: e0 ff        	cpx	#$ff
    2d3f: d0 02        	bne	$2d43 <__memset+0x17>
    2d41: c6 14        	dec	$14                     ; 0x2014 <parse+0x97a>
    2d43: a4 14        	ldy	$14                     ; 0x2014 <parse+0x97a>
    2d45: d0 ed        	bne	$2d34 <__memset+0x8>
    2d47: e0 00        	cpx	#$0
    2d49: d0 e9        	bne	$2d34 <__memset+0x8>
    2d4b: 60           	rts

00002d4c <strstr>:
    2d4c: a6 12        	ldx	$12                     ; 0x2012 <parse+0x978>
    2d4e: 86 16        	stx	$16                     ; 0x2016 <parse+0x97c>
    2d50: a6 13        	ldx	$13                     ; 0x2013 <parse+0x979>
    2d52: 86 17        	stx	$17                     ; 0x2017 <parse+0x97d>
    2d54: b2 12        	lda	($12)                   ; 0x2012 <parse+0x978>
    2d56: a2 00        	ldx	#$0
    2d58: 86 12        	stx	$12                     ; 0x2012 <parse+0x978>
    2d5a: a2 00        	ldx	#$0
    2d5c: 86 13        	stx	$13                     ; 0x2013 <parse+0x979>
    2d5e: aa           	tax
    2d5f: f0 4d        	beq	$2dae <strstr+0x62>
    2d61: b2 14        	lda	($14)                   ; 0x2014 <parse+0x97a>
    2d63: a0 01        	ldy	#$1
    2d65: a6 16        	ldx	$16                     ; 0x2016 <parse+0x97c>
    2d67: 86 18        	stx	$18                     ; 0x2018 <parse+0x97e>
    2d69: a6 17        	ldx	$17                     ; 0x2017 <parse+0x97d>
    2d6b: 86 19        	stx	$19                     ; 0x2019 <parse+0x97f>
    2d6d: aa           	tax
    2d6e: f0 48        	beq	$2db8 <strstr+0x6c>
    2d70: a6 14        	ldx	$14                     ; 0x2014 <parse+0x97a>
    2d72: 86 1a        	stx	$1a                     ; 0x201a <parse+0x980>
    2d74: a6 15        	ldx	$15                     ; 0x2015 <parse+0x97b>
    2d76: 86 1b        	stx	$1b                     ; 0x201b <parse+0x981>
    2d78: 85 1f        	sta	$1f                     ; 0x201f <parse+0x985>
    2d7a: 85 1e        	sta	$1e                     ; 0x201e <parse+0x984>
    2d7c: a6 18        	ldx	$18                     ; 0x2018 <parse+0x97e>
    2d7e: 86 1c        	stx	$1c                     ; 0x201c <parse+0x982>
    2d80: a6 19        	ldx	$19                     ; 0x2019 <parse+0x97f>
    2d82: 86 1d        	stx	$1d                     ; 0x201d <parse+0x983>
    2d84: b2 1c        	lda	($1c)                   ; 0x201c <parse+0x982>
    2d86: c5 1e        	cmp	$1e                     ; 0x201e <parse+0x984>
    2d88: d0 15        	bne	$2d9f <strstr+0x53>
    2d8a: e6 1c        	inc	$1c                     ; 0x201c <parse+0x982>
    2d8c: d0 02        	bne	$2d90 <strstr+0x44>
    2d8e: e6 1d        	inc	$1d                     ; 0x201d <parse+0x983>
    2d90: b1 1a        	lda	($1a),y                 ; 0x201a <parse+0x980>
    2d92: e6 1a        	inc	$1a                     ; 0x201a <parse+0x980>
    2d94: d0 02        	bne	$2d98 <strstr+0x4c>
    2d96: e6 1b        	inc	$1b                     ; 0x201b <parse+0x981>
    2d98: 85 1e        	sta	$1e                     ; 0x201e <parse+0x984>
    2d9a: aa           	tax
    2d9b: d0 e7        	bne	$2d84 <strstr+0x38>
    2d9d: 80 10        	bra	$2daf <strstr+0x63>
    2d9f: b1 18        	lda	($18),y                 ; 0x2018 <parse+0x97e>
    2da1: aa           	tax
    2da2: e6 18        	inc	$18                     ; 0x2018 <parse+0x97e>
    2da4: d0 02        	bne	$2da8 <strstr+0x5c>
    2da6: e6 19        	inc	$19                     ; 0x2019 <parse+0x97f>
    2da8: a5 1f        	lda	$1f                     ; 0x201f <parse+0x985>
    2daa: e0 00        	cpx	#$0
    2dac: d0 bf        	bne	$2d6d <strstr+0x21>
    2dae: 60           	rts
    2daf: a6 18        	ldx	$18                     ; 0x2018 <parse+0x97e>
    2db1: 86 12        	stx	$12                     ; 0x2012 <parse+0x978>
    2db3: a6 19        	ldx	$19                     ; 0x2019 <parse+0x97f>
    2db5: 86 13        	stx	$13                     ; 0x2013 <parse+0x979>
    2db7: 60           	rts
    2db8: a6 16        	ldx	$16                     ; 0x2016 <parse+0x97c>
    2dba: 86 12        	stx	$12                     ; 0x2012 <parse+0x978>
    2dbc: a6 17        	ldx	$17                     ; 0x2017 <parse+0x97d>
    2dbe: 80 f5        	bra	$2db5 <strstr+0x69>

00002dc0 <__mulsi3>:
    2dc0: a4 17        	ldy	$17                     ; 0x2017 <parse+0x97d>
    2dc2: d0 0f        	bne	$2dd3 <__mulsi3+0x13>
    2dc4: a4 16        	ldy	$16                     ; 0x2016 <parse+0x97c>
    2dc6: d0 0b        	bne	$2dd3 <__mulsi3+0x13>
    2dc8: a4 15        	ldy	$15                     ; 0x2015 <parse+0x97b>
    2dca: d0 07        	bne	$2dd3 <__mulsi3+0x13>
    2dcc: a4 14        	ldy	$14                     ; 0x2014 <parse+0x97a>
    2dce: d0 03        	bne	$2dd3 <__mulsi3+0x13>
    2dd0: 4c 27 2e     	jmp	$2e27 <__mulsi3+0x67>
    2dd3: 85 18        	sta	$18                     ; 0x2018 <parse+0x97e>
    2dd5: 86 19        	stx	$19                     ; 0x2019 <parse+0x97f>
    2dd7: a0 00        	ldy	#$0
    2dd9: a2 00        	ldx	#$0
    2ddb: 64 1a        	stz	$1a                     ; 0x201a <parse+0x980>
    2ddd: 98           	tya
    2dde: 46 17        	lsr	$17                     ; 0x2017 <parse+0x97d>
    2de0: 66 16        	ror	$16                     ; 0x2016 <parse+0x97c>
    2de2: 66 15        	ror	$15                     ; 0x2015 <parse+0x97b>
    2de4: 66 14        	ror	$14                     ; 0x2014 <parse+0x97a>
    2de6: 90 15        	bcc	$2dfd <__mulsi3+0x3d>
    2de8: 85 1b        	sta	$1b                     ; 0x201b <parse+0x981>
    2dea: 98           	tya
    2deb: 18           	clc
    2dec: 65 18        	adc	$18                     ; 0x2018 <parse+0x97e>
    2dee: a8           	tay
    2def: 8a           	txa
    2df0: 65 19        	adc	$19                     ; 0x2019 <parse+0x97f>
    2df2: aa           	tax
    2df3: a5 1a        	lda	$1a                     ; 0x201a <parse+0x980>
    2df5: 65 12        	adc	$12                     ; 0x2012 <parse+0x978>
    2df7: 85 1a        	sta	$1a                     ; 0x201a <parse+0x980>
    2df9: a5 1b        	lda	$1b                     ; 0x201b <parse+0x981>
    2dfb: 65 13        	adc	$13                     ; 0x2013 <parse+0x979>
    2dfd: 06 18        	asl	$18                     ; 0x2018 <parse+0x97e>
    2dff: 26 19        	rol	$19                     ; 0x2019 <parse+0x97f>
    2e01: 26 12        	rol	$12                     ; 0x2012 <parse+0x978>
    2e03: 26 13        	rol	$13                     ; 0x2013 <parse+0x979>
    2e05: e6 17        	inc	$17                     ; 0x2017 <parse+0x97d>
    2e07: c6 17        	dec	$17                     ; 0x2017 <parse+0x97d>
    2e09: d0 d3        	bne	$2dde <__mulsi3+0x1e>
    2e0b: e6 16        	inc	$16                     ; 0x2016 <parse+0x97c>
    2e0d: c6 16        	dec	$16                     ; 0x2016 <parse+0x97c>
    2e0f: d0 cd        	bne	$2dde <__mulsi3+0x1e>
    2e11: e6 15        	inc	$15                     ; 0x2015 <parse+0x97b>
    2e13: c6 15        	dec	$15                     ; 0x2015 <parse+0x97b>
    2e15: d0 c7        	bne	$2dde <__mulsi3+0x1e>
    2e17: e6 14        	inc	$14                     ; 0x2014 <parse+0x97a>
    2e19: c6 14        	dec	$14                     ; 0x2014 <parse+0x97a>
    2e1b: d0 c1        	bne	$2dde <__mulsi3+0x1e>
    2e1d: 5a           	phy
    2e1e: a4 1a        	ldy	$1a                     ; 0x201a <parse+0x980>
    2e20: 84 12        	sty	$12                     ; 0x2012 <parse+0x978>
    2e22: 7a           	ply
    2e23: 85 13        	sta	$13                     ; 0x2013 <parse+0x979>
    2e25: 98           	tya
    2e26: 60           	rts
    2e27: a0 00        	ldy	#$0
    2e29: a2 00        	ldx	#$0
    2e2b: 64 1a        	stz	$1a                     ; 0x201a <parse+0x980>
    2e2d: 98           	tya
    2e2e: 80 ed        	bra	$2e1d <__mulsi3+0x5d>

00002e30 <__udivsi3>:
    2e30: 64 18        	stz	$18                     ; 0x2018 <parse+0x97e>
    2e32: a4 17        	ldy	$17                     ; 0x2017 <parse+0x97d>
    2e34: d0 0c        	bne	$2e42 <__udivsi3+0x12>
    2e36: a4 16        	ldy	$16                     ; 0x2016 <parse+0x97c>
    2e38: d0 08        	bne	$2e42 <__udivsi3+0x12>
    2e3a: a4 15        	ldy	$15                     ; 0x2015 <parse+0x97b>
    2e3c: d0 04        	bne	$2e42 <__udivsi3+0x12>
    2e3e: a4 14        	ldy	$14                     ; 0x2014 <parse+0x97a>
    2e40: f0 27        	beq	$2e69 <__udivsi3+0x39>
    2e42: 86 1e        	stx	$1e                     ; 0x201e <parse+0x984>
    2e44: a6 12        	ldx	$12                     ; 0x2012 <parse+0x978>
    2e46: 86 1f        	stx	$1f                     ; 0x201f <parse+0x985>
    2e48: a6 13        	ldx	$13                     ; 0x2013 <parse+0x979>
    2e4a: 86 22        	stx	$22                     ; 0x2022 <parse+0x988>
    2e4c: e4 17        	cpx	$17                     ; 0x2017 <parse+0x97d>
    2e4e: d0 15        	bne	$2e65 <__udivsi3+0x35>
    2e50: a6 12        	ldx	$12                     ; 0x2012 <parse+0x978>
    2e52: e4 16        	cpx	$16                     ; 0x2016 <parse+0x97c>
    2e54: d0 1a        	bne	$2e70 <__udivsi3+0x40>
    2e56: a6 1e        	ldx	$1e                     ; 0x201e <parse+0x984>
    2e58: e4 15        	cpx	$15                     ; 0x2015 <parse+0x97b>
    2e5a: f0 03        	beq	$2e5f <__udivsi3+0x2f>
    2e5c: 4c 95 2f     	jmp	$2f95 <__udivsi3+0x165>
    2e5f: c5 14        	cmp	$14                     ; 0x2014 <parse+0x97a>
    2e61: 90 06        	bcc	$2e69 <__udivsi3+0x39>
    2e63: 80 0f        	bra	$2e74 <__udivsi3+0x44>
    2e65: e4 17        	cpx	$17                     ; 0x2017 <parse+0x97d>
    2e67: b0 0b        	bcs	$2e74 <__udivsi3+0x44>
    2e69: a2 00        	ldx	#$0
    2e6b: 86 81        	stx	$81                     ; 0x2081 <parse+0x9e7>
    2e6d: 4c da 2e     	jmp	$2eda <__udivsi3+0xaa>
    2e70: e4 16        	cpx	$16                     ; 0x2016 <parse+0x97c>
    2e72: 90 f5        	bcc	$2e69 <__udivsi3+0x39>
    2e74: a2 01        	ldx	#$1
    2e76: 86 81        	stx	$81                     ; 0x2081 <parse+0x9e7>
    2e78: a6 17        	ldx	$17                     ; 0x2017 <parse+0x97d>
    2e7a: 10 03        	bpl	$2e7f <__udivsi3+0x4f>
    2e7c: 4c da 2e     	jmp	$2eda <__udivsi3+0xaa>
    2e7f: 85 1d        	sta	$1d                     ; 0x201d <parse+0x983>
    2e81: a5 1e        	lda	$1e                     ; 0x201e <parse+0x984>
    2e83: a2 00        	ldx	#$0
    2e85: a4 14        	ldy	$14                     ; 0x2014 <parse+0x97a>
    2e87: 84 19        	sty	$19                     ; 0x2019 <parse+0x97f>
    2e89: a4 15        	ldy	$15                     ; 0x2015 <parse+0x97b>
    2e8b: 84 1a        	sty	$1a                     ; 0x201a <parse+0x980>
    2e8d: a4 16        	ldy	$16                     ; 0x2016 <parse+0x97c>
    2e8f: 84 1b        	sty	$1b                     ; 0x201b <parse+0x981>
    2e91: a4 17        	ldy	$17                     ; 0x2017 <parse+0x97d>
    2e93: 84 1c        	sty	$1c                     ; 0x201c <parse+0x982>
    2e95: 06 19        	asl	$19                     ; 0x2019 <parse+0x97f>
    2e97: 26 1a        	rol	$1a                     ; 0x201a <parse+0x980>
    2e99: 26 1b        	rol	$1b                     ; 0x201b <parse+0x981>
    2e9b: 26 1c        	rol	$1c                     ; 0x201c <parse+0x982>
    2e9d: a4 22        	ldy	$22                     ; 0x2022 <parse+0x988>
    2e9f: c4 1c        	cpy	$1c                     ; 0x201c <parse+0x982>
    2ea1: d0 12        	bne	$2eb5 <__udivsi3+0x85>
    2ea3: a4 12        	ldy	$12                     ; 0x2012 <parse+0x978>
    2ea5: c4 1b        	cpy	$1b                     ; 0x201b <parse+0x981>
    2ea7: d0 12        	bne	$2ebb <__udivsi3+0x8b>
    2ea9: c5 1a        	cmp	$1a                     ; 0x201a <parse+0x980>
    2eab: d0 14        	bne	$2ec1 <__udivsi3+0x91>
    2ead: a4 1d        	ldy	$1d                     ; 0x201d <parse+0x983>
    2eaf: c4 19        	cpy	$19                     ; 0x2019 <parse+0x97f>
    2eb1: 90 30        	bcc	$2ee3 <__udivsi3+0xb3>
    2eb3: 80 10        	bra	$2ec5 <__udivsi3+0x95>
    2eb5: c4 1c        	cpy	$1c                     ; 0x201c <parse+0x982>
    2eb7: 90 2a        	bcc	$2ee3 <__udivsi3+0xb3>
    2eb9: 80 0a        	bra	$2ec5 <__udivsi3+0x95>
    2ebb: c4 1b        	cpy	$1b                     ; 0x201b <parse+0x981>
    2ebd: 90 24        	bcc	$2ee3 <__udivsi3+0xb3>
    2ebf: 80 04        	bra	$2ec5 <__udivsi3+0x95>
    2ec1: c5 1a        	cmp	$1a                     ; 0x201a <parse+0x980>
    2ec3: 90 1e        	bcc	$2ee3 <__udivsi3+0xb3>
    2ec5: e8           	inx
    2ec6: a4 19        	ldy	$19                     ; 0x2019 <parse+0x97f>
    2ec8: 84 14        	sty	$14                     ; 0x2014 <parse+0x97a>
    2eca: a4 1a        	ldy	$1a                     ; 0x201a <parse+0x980>
    2ecc: 84 15        	sty	$15                     ; 0x2015 <parse+0x97b>
    2ece: a4 1b        	ldy	$1b                     ; 0x201b <parse+0x981>
    2ed0: 84 16        	sty	$16                     ; 0x2016 <parse+0x97c>
    2ed2: a4 1c        	ldy	$1c                     ; 0x201c <parse+0x982>
    2ed4: 84 17        	sty	$17                     ; 0x2017 <parse+0x97d>
    2ed6: 10 bd        	bpl	$2e95 <__udivsi3+0x65>
    2ed8: 80 19        	bra	$2ef3 <__udivsi3+0xc3>
    2eda: 64 12        	stz	$12                     ; 0x2012 <parse+0x978>
    2edc: 64 13        	stz	$13                     ; 0x2013 <parse+0x979>
    2ede: a6 18        	ldx	$18                     ; 0x2018 <parse+0x97e>
    2ee0: a5 81        	lda	$81                     ; 0x2081 <parse+0x9e7>
    2ee2: 60           	rts
    2ee3: a4 14        	ldy	$14                     ; 0x2014 <parse+0x97a>
    2ee5: 84 19        	sty	$19                     ; 0x2019 <parse+0x97f>
    2ee7: a4 15        	ldy	$15                     ; 0x2015 <parse+0x97b>
    2ee9: 84 1a        	sty	$1a                     ; 0x201a <parse+0x980>
    2eeb: a4 16        	ldy	$16                     ; 0x2016 <parse+0x97c>
    2eed: 84 1b        	sty	$1b                     ; 0x201b <parse+0x981>
    2eef: a4 17        	ldy	$17                     ; 0x2017 <parse+0x97d>
    2ef1: 84 1c        	sty	$1c                     ; 0x201c <parse+0x982>
    2ef3: 64 12        	stz	$12                     ; 0x2012 <parse+0x978>
    2ef5: 64 13        	stz	$13                     ; 0x2013 <parse+0x979>
    2ef7: 8a           	txa
    2ef8: f0 e4        	beq	$2ede <__udivsi3+0xae>
    2efa: 38           	sec
    2efb: a5 1d        	lda	$1d                     ; 0x201d <parse+0x983>
    2efd: e5 19        	sbc	$19                     ; 0x2019 <parse+0x97f>
    2eff: 85 14        	sta	$14                     ; 0x2014 <parse+0x97a>
    2f01: a5 1e        	lda	$1e                     ; 0x201e <parse+0x984>
    2f03: e5 1a        	sbc	$1a                     ; 0x201a <parse+0x980>
    2f05: 85 17        	sta	$17                     ; 0x2017 <parse+0x97d>
    2f07: a5 1f        	lda	$1f                     ; 0x201f <parse+0x985>
    2f09: e5 1b        	sbc	$1b                     ; 0x201b <parse+0x981>
    2f0b: 85 15        	sta	$15                     ; 0x2015 <parse+0x97b>
    2f0d: a5 22        	lda	$22                     ; 0x2022 <parse+0x988>
    2f0f: e5 1c        	sbc	$1c                     ; 0x201c <parse+0x982>
    2f11: a0 01        	ldy	#$1
    2f13: 84 81        	sty	$81                     ; 0x2081 <parse+0x9e7>
    2f15: 64 18        	stz	$18                     ; 0x2018 <parse+0x97e>
    2f17: 46 1c        	lsr	$1c                     ; 0x201c <parse+0x982>
    2f19: 66 1b        	ror	$1b                     ; 0x201b <parse+0x981>
    2f1b: 66 1a        	ror	$1a                     ; 0x201a <parse+0x980>
    2f1d: 66 19        	ror	$19                     ; 0x2019 <parse+0x97f>
    2f1f: a4 81        	ldy	$81                     ; 0x2081 <parse+0x9e7>
    2f21: 84 16        	sty	$16                     ; 0x2016 <parse+0x97c>
    2f23: 06 16        	asl	$16                     ; 0x2016 <parse+0x97c>
    2f25: a0 01        	ldy	#$1
    2f27: b0 02        	bcs	$2f2b <__udivsi3+0xfb>
    2f29: a0 00        	ldy	#$0
    2f2b: 84 1d        	sty	$1d                     ; 0x201d <parse+0x983>
    2f2d: a4 16        	ldy	$16                     ; 0x2016 <parse+0x97c>
    2f2f: 84 81        	sty	$81                     ; 0x2081 <parse+0x9e7>
    2f31: c5 1c        	cmp	$1c                     ; 0x201c <parse+0x982>
    2f33: d0 16        	bne	$2f4b <__udivsi3+0x11b>
    2f35: 85 16        	sta	$16                     ; 0x2016 <parse+0x97c>
    2f37: a4 15        	ldy	$15                     ; 0x2015 <parse+0x97b>
    2f39: a5 17        	lda	$17                     ; 0x2017 <parse+0x97d>
    2f3b: c4 1b        	cpy	$1b                     ; 0x201b <parse+0x981>
    2f3d: d0 4a        	bne	$2f89 <__udivsi3+0x159>
    2f3f: c5 1a        	cmp	$1a                     ; 0x201a <parse+0x980>
    2f41: d0 4c        	bne	$2f8f <__udivsi3+0x15f>
    2f43: a4 14        	ldy	$14                     ; 0x2014 <parse+0x97a>
    2f45: c4 19        	cpy	$19                     ; 0x2019 <parse+0x97f>
    2f47: b0 0a        	bcs	$2f53 <__udivsi3+0x123>
    2f49: 80 27        	bra	$2f72 <__udivsi3+0x142>
    2f4b: 85 16        	sta	$16                     ; 0x2016 <parse+0x97c>
    2f4d: c5 1c        	cmp	$1c                     ; 0x201c <parse+0x982>
    2f4f: a5 17        	lda	$17                     ; 0x2017 <parse+0x97d>
    2f51: 90 1f        	bcc	$2f72 <__udivsi3+0x142>
    2f53: a8           	tay
    2f54: 38           	sec
    2f55: a5 14        	lda	$14                     ; 0x2014 <parse+0x97a>
    2f57: e5 19        	sbc	$19                     ; 0x2019 <parse+0x97f>
    2f59: 85 14        	sta	$14                     ; 0x2014 <parse+0x97a>
    2f5b: 98           	tya
    2f5c: e5 1a        	sbc	$1a                     ; 0x201a <parse+0x980>
    2f5e: 85 17        	sta	$17                     ; 0x2017 <parse+0x97d>
    2f60: a5 15        	lda	$15                     ; 0x2015 <parse+0x97b>
    2f62: e5 1b        	sbc	$1b                     ; 0x201b <parse+0x981>
    2f64: 85 15        	sta	$15                     ; 0x2015 <parse+0x97b>
    2f66: a5 16        	lda	$16                     ; 0x2016 <parse+0x97c>
    2f68: e5 1c        	sbc	$1c                     ; 0x201c <parse+0x982>
    2f6a: 85 16        	sta	$16                     ; 0x2016 <parse+0x97c>
    2f6c: a5 81        	lda	$81                     ; 0x2081 <parse+0x9e7>
    2f6e: 09 01        	ora	#$1
    2f70: 85 81        	sta	$81                     ; 0x2081 <parse+0x9e7>
    2f72: a4 1d        	ldy	$1d                     ; 0x201d <parse+0x983>
    2f74: c0 01        	cpy	#$1
    2f76: 26 18        	rol	$18                     ; 0x2018 <parse+0x97e>
    2f78: 26 12        	rol	$12                     ; 0x2012 <parse+0x978>
    2f7a: 26 13        	rol	$13                     ; 0x2013 <parse+0x979>
    2f7c: ca           	dex
    2f7d: a5 16        	lda	$16                     ; 0x2016 <parse+0x97c>
    2f7f: e0 00        	cpx	#$0
    2f81: f0 03        	beq	$2f86 <__udivsi3+0x156>
    2f83: 4c 17 2f     	jmp	$2f17 <__udivsi3+0xe7>
    2f86: 4c de 2e     	jmp	$2ede <__udivsi3+0xae>
    2f89: c4 1b        	cpy	$1b                     ; 0x201b <parse+0x981>
    2f8b: b0 c6        	bcs	$2f53 <__udivsi3+0x123>
    2f8d: 80 e3        	bra	$2f72 <__udivsi3+0x142>
    2f8f: c5 1a        	cmp	$1a                     ; 0x201a <parse+0x980>
    2f91: b0 c0        	bcs	$2f53 <__udivsi3+0x123>
    2f93: 80 dd        	bra	$2f72 <__udivsi3+0x142>
    2f95: e4 15        	cpx	$15                     ; 0x2015 <parse+0x97b>
    2f97: b0 03        	bcs	$2f9c <__udivsi3+0x16c>
    2f99: 4c 69 2e     	jmp	$2e69 <__udivsi3+0x39>
    2f9c: 4c 74 2e     	jmp	$2e74 <__udivsi3+0x44>
