
FusionDrive.elf:	file format elf32-mos

SYMBOL TABLE:
00000000 l    df *ABS*	00000000 zero-bss.c
00000000 l    df *ABS*	00000000 zero-zp-bss.c
00000000 l    df *ABS*	00000000 copy-zp-data.c
00000000 l    df *ABS*	00000000 ld-temp.o
00000598 l     F .text	0000017c f256Init
00000065 l     O .zp.bss	00000002 kernelArgs
000000b0 l     O .zp.bss	00000007 kernelEventData
00000714 l     F .text	00000173 textReset
00000887 l     F .text	00000156 bitmapReset
0000007c l     O .zp.bss	00000003 _tileSize
00002a8a l     O .bss	00000040 _spriteCtl
0000007f l     O .zp.bss	00000008 _dirStream
000000af l     O .zp.bss	00000001 kernelError
00000062 l     O .zp.data	00000001 _ccolor
00000060 l     O .zp.data	00000001 _MAX_COL
00000061 l     O .zp.data	00000001 _MAX_ROW
00000030 l     O .zp.data	00000030 textColors
00000067 l     O .zp.bss	00000001 _col
00000068 l     O .zp.bss	00000001 _row
00000077 l     O .zp.bss	00000001 _MAX_X
00000078 l     O .zp.bss	00000001 _MAX_Y
00000075 l     O .zp.bss	00000001 _active
00000076 l     O .zp.bss	00000001 _color
00000069 l     O .zp.bss	0000000c _BITMAP_BASE
00000079 l     O .zp.bss	00000003 _BITMAP_CLUT
000009dd l     F .text	00000021 FAR_PEEK
00000a04 l     F .text	00000072 f256main
00000a76 l     F .text	000003b2 setup
00000e4b l     F .text	00000014 midiShutUp
00000087 l     O .zp.bss	00000003 carTimer
000026ab l     F .text	00000021 getTimerAbsolute
00002678 l     F .text	00000033 setTimer
0000008a l     O .zp.bss	00000003 laneTimer
0000008d l     O .zp.bss	00000003 carForceTimer
00000e5f l     F .text	00000043 resetInstruments
000010fd l     F .text	00000522 playEmbeddedDim
00000e28 l     F .text	00000023 midiShutAllChannels
00002ae9 l     O .bss	0000001f car_back_L
00002b08 l     O .bss	0000001f car_back_R
00000090 l     O .zp.bss	0000001f car_mid_L
00002b27 l     O .bss	0000001f car_mid_R
00002b46 l     O .bss	0000001f car_front_L
00002b65 l     O .bss	0000001f car_front_R
00002aca l     O .bss	0000001f car_yel_L
00000ea2 l     F .text	0000018c initMidiRecord
00002702 l     F .text	00000100 malloc
0000102e l     F .text	0000003a initBigList
00001068 l     F .text	00000095 getTotalLeft
000028b8 l     F .text	00000186 free
0000161f l     F .text	00000453 playmiditype0
00001a72 l     F .text	00000c06 playmidi
000026cc l     F .text	00000020 setTimer0
000026ec l     F .text	00000006 isTimer0Done
00002700 l     F .text	00000002 _Exit
000000b7 l     O .zp.bss	00000001 _ZN12_GLOBAL__N_111initializedE
00000063 l     O .zp.data	00000002 _ZN12_GLOBAL__N_110heap_limitE
0000034e l     F .text	00000135 _ZN12_GLOBAL__N_19FreeChunk6insertEPvj
000000b8 l     O .zp.bss	00000001 _ZN12_GLOBAL__N_19last_freeE
000000bb l     O .zp.bss	00000002 _ZN12_GLOBAL__N_19free_listE
00002802 l     F .text	000000b6 _ZN12_GLOBAL__N_119allocate_free_chunkEPNS_9FreeChunkEj
000000b9 l     O .zp.bss	00000002 _ZN12_GLOBAL__N_19free_sizeE
00000484 l     F .text	000000d7 _ZN12_GLOBAL__N_19FreeChunk6removeEv
000009fe g     F .text	00000006 main
00010c00 g       .carM	00000000 carM_start
00020000 g       .backbmp	00000000 backbmp_start
00013000 g       .yellow	00000000 yellow_end
00010400 g       .palback	00000000 palback_end
00011400 g       .carB	00000000 carB_start
00010000 g       .palback	00000000 palback_start
00032c00 g       .backbmp	00000000 backbmp_end
00050000 g       .music	00000000 music_start
000723dc g       .music	00000000 music_end
00010c00 g       .carF	00000000 carF_end
00011c00 g       .carB	00000000 carB_end
00011c00 g       .yellow	00000000 yellow_start
00010400 g       .carF	00000000 carF_start
00011400 g       .carM	00000000 carM_end
0000034a g       .text	00000000 __after_main
00000336 g       .text	00000000 __do_init_stack
00000344 g       .text	00000000 __do_copy_zp_data
00000581 g     F .text	00000017 __copy_zp_data
0000033e g       .text	00000000 __do_zero_bss
0000055b g     F .text	00000013 __zero_bss
00000341 g       .text	00000000 __do_zero_zp_bss
0000056e g     F .text	00000013 __zero_zp_bss
000026f2 g     F .text	0000000e exit
0000034d g       .text	00000000 _fini
00002a6a  w    F .text	00000020 __memset
00001000  w      *ABS*	00000000 __heap_default_limit
00002b84 g       .noinit	00000000 __heap_start
00002a3e  w    F .text	0000002c memcpy
00000010 g       *ABS*	00000000 __rc0
00000012 g       *ABS*	00000000 __rc2
00000014 g       *ABS*	00000000 __rc4
00000016 g       *ABS*	00000000 __rc6
00000018 g       *ABS*	00000000 __rc8
0000001a g       *ABS*	00000000 __rc10
0000001c g       *ABS*	00000000 __rc12
0000001e g       *ABS*	00000000 __rc14
00000020 g       *ABS*	00000000 __rc16
00000022 g       *ABS*	00000000 __rc18
00000024 g       *ABS*	00000000 __rc20
00000026 g       *ABS*	00000000 __rc22
00000028 g       *ABS*	00000000 __rc24
0000002a g       *ABS*	00000000 __rc26
0000002c g       *ABS*	00000000 __rc28
0000002e g       *ABS*	00000000 __rc30
0000002f g       *ABS*	00000000 __rc31
00000300 g       *ABS*	00000000 __f256_start
0000c000 g       *ABS*	00000000 __stack
0000c000 g       *ABS*	00000000 __SLOT_ADDR
0800c000 g       *ABS*	00000000 __block8_lma
00002000 g       *ABS*	00000000 __BLOCK_SIZE
0900c000 g       *ABS*	00000000 __block9_lma
0a00c000 g       *ABS*	00000000 __block10_lma
0b00c000 g       *ABS*	00000000 __block11_lma
0c00c000 g       *ABS*	00000000 __block12_lma
0d00c000 g       *ABS*	00000000 __block13_lma
0e00c000 g       *ABS*	00000000 __block14_lma
0f00c000 g       *ABS*	00000000 __block15_lma
1000c000 g       *ABS*	00000000 __block16_lma
1100c000 g       *ABS*	00000000 __block17_lma
1200c000 g       *ABS*	00000000 __block18_lma
1300c000 g       *ABS*	00000000 __block19_lma
1400c000 g       *ABS*	00000000 __block20_lma
1500c000 g       *ABS*	00000000 __block21_lma
1600c000 g       *ABS*	00000000 __block22_lma
1700c000 g       *ABS*	00000000 __block23_lma
00010000 g       *ABS*	00000000 __palback_lma
00000400 g       *ABS*	00000000 __palback_size
00010400 g       *ABS*	00000000 __carF_lma
00000800 g       *ABS*	00000000 __carF_size
00010c00 g       *ABS*	00000000 __carM_lma
00000800 g       *ABS*	00000000 __carM_size
00011400 g       *ABS*	00000000 __carB_lma
00000800 g       *ABS*	00000000 __carB_size
00011c00 g       *ABS*	00000000 __yellow_lma
00001400 g       *ABS*	00000000 __yellow_size
00020000 g       *ABS*	00000000 __backbmp_lma
00012c00 g       *ABS*	00000000 __backbmp_size
00050000 g       *ABS*	00000000 __music_lma
000223dc g       *ABS*	00000000 __music_size
00002a8a g       .bss	00000000 __bss_start
00010400 g       .palback	00000000 end_palback
00010c00 g       .carF	00000000 end_carF
00011400 g       .carM	00000000 end_carM
00011c00 g       .carB	00000000 end_carB
00013000 g       .yellow	00000000 end_yellow
00032c00 g       .backbmp	00000000 end_backbmp
000723dc g       .music	00000000 end_music
00000336 g       .text	00000000 _start
0000002d g       *ABS*	00000000 __rc29
0000002b g       *ABS*	00000000 __rc27
00000029 g       *ABS*	00000000 __rc25
00000027 g       *ABS*	00000000 __rc23
00000025 g       *ABS*	00000000 __rc21
00000023 g       *ABS*	00000000 __rc19
00000021 g       *ABS*	00000000 __rc17
0000001f g       *ABS*	00000000 __rc15
0000001d g       *ABS*	00000000 __rc13
0000001b g       *ABS*	00000000 __rc11
00000019 g       *ABS*	00000000 __rc9
00000017 g       *ABS*	00000000 __rc7
00000015 g       *ABS*	00000000 __rc5
00000013 g       *ABS*	00000000 __rc3
00000011 g       *ABS*	00000000 __rc1
00000030 g       .zp.data	00000000 __zp_data_start
00000300 g       *ABS*	00000000 __zp_data_load_start
00000035 g       *ABS*	00000000 __zp_data_size
00000065 g       .zp.bss	00000000 __zp_bss_start
00000058 g       *ABS*	00000000 __zp_bss_size
00000336 g       .text	00000000 _init
00002a8a g       .text	00000000 __init_array_start
00002a8a g       .text	00000000 __init_array_end
00002a8a g       .text	00000000 __fini_array_start
00002a8a g       .text	00000000 __fini_array_end
00002a8a g       .data	00000000 __data_start
00002a8a g       .data	00000000 __data_end
00002a8a g       *ABS*	00000000 __data_load_start
00000000 g       *ABS*	00000000 __data_size
00002b84 g       .bss	00000000 __bss_end
000000fa g       *ABS*	00000000 __bss_size
00002b84 g       .noinit	00000000 end_block8
00002b84 g       .noinit	00000000 end_block9
00002b84 g       .noinit	00000000 end_block10
00002b84 g       .noinit	00000000 end_block11
00002b84 g       .noinit	00000000 end_block12
00002b84 g       .noinit	00000000 end_block13
00002b84 g       .noinit	00000000 end_block14
00002b84 g       .noinit	00000000 end_block15
00002b84 g       .noinit	00000000 end_block16
00002b84 g       .noinit	00000000 end_block17
00002b84 g       .noinit	00000000 end_block18
00002b84 g       .noinit	00000000 end_block19
00002b84 g       .noinit	00000000 end_block20
00002b84 g       .noinit	00000000 end_block21
00002b84 g       .noinit	00000000 end_block22
00002b84 g       .noinit	00000000 end_block23

Disassembly of section .text:

00000336 <_start>:
     336: a9 00        	lda	#$0
     338: 85 10        	sta	$10                     ; 0x10 <__rc0>
     33a: a9 c0        	lda	#$c0
     33c: 85 11        	sta	$11                     ; 0x11 <__rc1>

0000033e <__do_zero_bss>:
     33e: 20 5b 05     	jsr	$55b <__zero_bss>

00000341 <__do_zero_zp_bss>:
     341: 20 6e 05     	jsr	$56e <__zero_zp_bss>

00000344 <__do_copy_zp_data>:
     344: 20 81 05     	jsr	$581 <__copy_zp_data>
     347: 20 fe 09     	jsr	$9fe <main>

0000034a <__after_main>:
     34a: 4c f2 26     	jmp	$26f2 <exit>

0000034d <_fini>:
     34d: 60           	rts

0000034e <_ZN12_GLOBAL__N_19FreeChunk6insertEPvj>:
     34e: 85 16        	sta	$16                     ; 0x16 <__rc6>
     350: 29 fe        	and	#$fe
     352: 85 14        	sta	$14                     ; 0x14 <__rc4>
     354: a0 01        	ldy	#$1
     356: 98           	tya
     357: 32 12        	and	($12)                   ; 0x12 <__rc2>
     359: 05 14        	ora	$14                     ; 0x14 <__rc4>
     35b: 92 12        	sta	($12)                   ; 0x12 <__rc2>
     35d: a5 12        	lda	$12                     ; 0x12 <__rc2>
     35f: 18           	clc
     360: 65 14        	adc	$14                     ; 0x14 <__rc4>
     362: 85 15        	sta	$15                     ; 0x15 <__rc5>
     364: 8a           	txa
     365: 65 13        	adc	$13                     ; 0x13 <__rc3>
     367: 85 14        	sta	$14                     ; 0x14 <__rc4>
     369: 18           	clc
     36a: a5 15        	lda	$15                     ; 0x15 <__rc5>
     36c: 69 fe        	adc	#$fe
     36e: 85 17        	sta	$17                     ; 0x17 <__rc7>
     370: a5 14        	lda	$14                     ; 0x14 <__rc4>
     372: 69 ff        	adc	#$ff
     374: 85 15        	sta	$15                     ; 0x15 <__rc5>
     376: a5 17        	lda	$17                     ; 0x17 <__rc7>
     378: 85 14        	sta	$14                     ; 0x14 <__rc4>
     37a: 8a           	txa
     37b: 91 12        	sta	($12),y                 ; 0x12 <__rc2>
     37d: a5 16        	lda	$16                     ; 0x16 <__rc6>
     37f: 92 14        	sta	($14)                   ; 0x14 <__rc4>
     381: 8a           	txa
     382: 91 14        	sta	($14),y                 ; 0x14 <__rc4>
     384: b1 12        	lda	($12),y                 ; 0x12 <__rc2>
     386: 85 14        	sta	$14                     ; 0x14 <__rc4>
     388: a9 fe        	lda	#$fe
     38a: 32 12        	and	($12)                   ; 0x12 <__rc2>
     38c: 18           	clc
     38d: 65 b9        	adc	$b9                     ; 0xb9 <_ZN12_GLOBAL__N_19free_sizeE>
     38f: aa           	tax
     390: a5 14        	lda	$14                     ; 0x14 <__rc4>
     392: 65 ba        	adc	$ba                     ; 0xba <_ZN12_GLOBAL__N_19free_sizeE+0x1>
     394: a8           	tay
     395: 18           	clc
     396: 8a           	txa
     397: 69 fe        	adc	#$fe
     399: aa           	tax
     39a: 98           	tya
     39b: 69 ff        	adc	#$ff
     39d: 86 b9        	stx	$b9                     ; 0xb9 <_ZN12_GLOBAL__N_19free_sizeE>
     39f: 85 ba        	sta	$ba                     ; 0xba <_ZN12_GLOBAL__N_19free_sizeE+0x1>
     3a1: a6 bb        	ldx	$bb                     ; 0xbb <_ZN12_GLOBAL__N_19free_listE>
     3a3: 86 16        	stx	$16                     ; 0x16 <__rc6>
     3a5: a4 bc        	ldy	$bc                     ; 0xbc <_ZN12_GLOBAL__N_19free_listE+0x1>
     3a7: a2 00        	ldx	#$0
     3a9: 86 14        	stx	$14                     ; 0x14 <__rc4>
     3ab: a2 00        	ldx	#$0
     3ad: 86 15        	stx	$15                     ; 0x15 <__rc5>
     3af: c4 15        	cpy	$15                     ; 0x15 <__rc5>
     3b1: d0 3c        	bne	$3ef <_ZN12_GLOBAL__N_19FreeChunk6insertEPvj+0xa1>
     3b3: a6 16        	ldx	$16                     ; 0x16 <__rc6>
     3b5: e4 14        	cpx	$14                     ; 0x14 <__rc4>
     3b7: d0 36        	bne	$3ef <_ZN12_GLOBAL__N_19FreeChunk6insertEPvj+0xa1>
     3b9: a0 04        	ldy	#$4
     3bb: a5 12        	lda	$12                     ; 0x12 <__rc2>
     3bd: 18           	clc
     3be: 69 04        	adc	#$4
     3c0: 85 14        	sta	$14                     ; 0x14 <__rc4>
     3c2: a5 13        	lda	$13                     ; 0x13 <__rc3>
     3c4: 69 00        	adc	#$0
     3c6: 18           	clc
     3c7: 85 15        	sta	$15                     ; 0x15 <__rc5>
     3c9: a5 12        	lda	$12                     ; 0x12 <__rc2>
     3cb: 91 12        	sta	($12),y                 ; 0x12 <__rc2>
     3cd: a0 02        	ldy	#$2
     3cf: 85 17        	sta	$17                     ; 0x17 <__rc7>
     3d1: 69 02        	adc	#$2
     3d3: 85 16        	sta	$16                     ; 0x16 <__rc6>
     3d5: a5 17        	lda	$17                     ; 0x17 <__rc7>
     3d7: 91 12        	sta	($12),y                 ; 0x12 <__rc2>
     3d9: a5 13        	lda	$13                     ; 0x13 <__rc3>
     3db: 69 00        	adc	#$0
     3dd: 85 17        	sta	$17                     ; 0x17 <__rc7>
     3df: 88           	dey
     3e0: a5 13        	lda	$13                     ; 0x13 <__rc3>
     3e2: 91 14        	sta	($14),y                 ; 0x14 <__rc4>
     3e4: 91 16        	sta	($16),y                 ; 0x16 <__rc6>
     3e6: a6 12        	ldx	$12                     ; 0x12 <__rc2>
     3e8: 86 bb        	stx	$bb                     ; 0xbb <_ZN12_GLOBAL__N_19free_listE>
     3ea: a6 13        	ldx	$13                     ; 0x13 <__rc3>
     3ec: 86 bc        	stx	$bc                     ; 0xbc <_ZN12_GLOBAL__N_19free_listE+0x1>
     3ee: 60           	rts
     3ef: a6 12        	ldx	$12                     ; 0x12 <__rc2>
     3f1: a5 12        	lda	$12                     ; 0x12 <__rc2>
     3f3: 18           	clc
     3f4: 69 02        	adc	#$2
     3f6: 85 14        	sta	$14                     ; 0x14 <__rc4>
     3f8: 84 18        	sty	$18                     ; 0x18 <__rc8>
     3fa: a5 13        	lda	$13                     ; 0x13 <__rc3>
     3fc: 69 00        	adc	#$0
     3fe: 85 15        	sta	$15                     ; 0x15 <__rc5>
     400: a5 16        	lda	$16                     ; 0x16 <__rc6>
     402: 84 17        	sty	$17                     ; 0x17 <__rc7>
     404: a0 02        	ldy	#$2
     406: 91 12        	sta	($12),y                 ; 0x12 <__rc2>
     408: 85 19        	sta	$19                     ; 0x19 <__rc9>
     40a: 88           	dey
     40b: a5 18        	lda	$18                     ; 0x18 <__rc8>
     40d: 91 14        	sta	($14),y                 ; 0x14 <__rc4>
     40f: 18           	clc
     410: a5 19        	lda	$19                     ; 0x19 <__rc9>
     412: 69 04        	adc	#$4
     414: a8           	tay
     415: a5 18        	lda	$18                     ; 0x18 <__rc8>
     417: 69 00        	adc	#$0
     419: 85 19        	sta	$19                     ; 0x19 <__rc9>
     41b: 84 18        	sty	$18                     ; 0x18 <__rc8>
     41d: 8a           	txa
     41e: 18           	clc
     41f: 69 04        	adc	#$4
     421: 85 1a        	sta	$1a                     ; 0x1a <__rc10>
     423: a5 13        	lda	$13                     ; 0x13 <__rc3>
     425: 69 00        	adc	#$0
     427: 85 1b        	sta	$1b                     ; 0x1b <__rc11>
     429: a0 04        	ldy	#$4
     42b: b1 16        	lda	($16),y                 ; 0x16 <__rc6>
     42d: 85 16        	sta	$16                     ; 0x16 <__rc6>
     42f: 85 1d        	sta	$1d                     ; 0x1d <__rc13>
     431: a0 01        	ldy	#$1
     433: b1 18        	lda	($18),y                 ; 0x18 <__rc8>
     435: 85 17        	sta	$17                     ; 0x17 <__rc7>
     437: 85 19        	sta	$19                     ; 0x19 <__rc9>
     439: a0 04        	ldy	#$4
     43b: a5 1d        	lda	$1d                     ; 0x1d <__rc13>
     43d: 91 12        	sta	($12),y                 ; 0x12 <__rc2>
     43f: a5 19        	lda	$19                     ; 0x19 <__rc9>
     441: a0 01        	ldy	#$1
     443: 91 1a        	sta	($1a),y                 ; 0x1a <__rc10>
     445: 18           	clc
     446: a5 1d        	lda	$1d                     ; 0x1d <__rc13>
     448: 69 02        	adc	#$2
     44a: 85 18        	sta	$18                     ; 0x18 <__rc8>
     44c: a5 19        	lda	$19                     ; 0x19 <__rc9>
     44e: 69 00        	adc	#$0
     450: 85 19        	sta	$19                     ; 0x19 <__rc9>
     452: 8a           	txa
     453: c8           	iny
     454: 91 16        	sta	($16),y                 ; 0x16 <__rc6>
     456: a5 13        	lda	$13                     ; 0x13 <__rc3>
     458: 88           	dey
     459: 91 18        	sta	($18),y                 ; 0x18 <__rc8>
     45b: c8           	iny
     45c: b1 12        	lda	($12),y                 ; 0x12 <__rc2>
     45e: 85 16        	sta	$16                     ; 0x16 <__rc6>
     460: 85 18        	sta	$18                     ; 0x18 <__rc8>
     462: 88           	dey
     463: b1 14        	lda	($14),y                 ; 0x14 <__rc4>
     465: 85 17        	sta	$17                     ; 0x17 <__rc7>
     467: 85 14        	sta	$14                     ; 0x14 <__rc4>
     469: 8a           	txa
     46a: a0 04        	ldy	#$4
     46c: 91 16        	sta	($16),y                 ; 0x16 <__rc6>
     46e: 18           	clc
     46f: a5 18        	lda	$18                     ; 0x18 <__rc8>
     471: 69 04        	adc	#$4
     473: a8           	tay
     474: a5 14        	lda	$14                     ; 0x14 <__rc4>
     476: 69 00        	adc	#$0
     478: 84 14        	sty	$14                     ; 0x14 <__rc4>
     47a: 85 15        	sta	$15                     ; 0x15 <__rc5>
     47c: a5 13        	lda	$13                     ; 0x13 <__rc3>
     47e: a0 01        	ldy	#$1
     480: 91 14        	sta	($14),y                 ; 0x14 <__rc4>
     482: 60           	rts
     483: 00           	brk

00000484 <_ZN12_GLOBAL__N_19FreeChunk6removeEv>:
     484: a0 01        	ldy	#$1
     486: a9 fe        	lda	#$fe
     488: 32 12        	and	($12)                   ; 0x12 <__rc2>
     48a: 85 14        	sta	$14                     ; 0x14 <__rc4>
     48c: a5 b9        	lda	$b9                     ; 0xb9 <_ZN12_GLOBAL__N_19free_sizeE>
     48e: a6 ba        	ldx	$ba                     ; 0xba <_ZN12_GLOBAL__N_19free_sizeE+0x1>
     490: 86 15        	stx	$15                     ; 0x15 <__rc5>
     492: 38           	sec
     493: e5 14        	sbc	$14                     ; 0x14 <__rc4>
     495: aa           	tax
     496: a5 15        	lda	$15                     ; 0x15 <__rc5>
     498: f1 12        	sbc	($12),y                 ; 0x12 <__rc2>
     49a: 85 14        	sta	$14                     ; 0x14 <__rc4>
     49c: 18           	clc
     49d: 8a           	txa
     49e: 69 02        	adc	#$2
     4a0: 85 15        	sta	$15                     ; 0x15 <__rc5>
     4a2: a5 14        	lda	$14                     ; 0x14 <__rc4>
     4a4: 69 00        	adc	#$0
     4a6: a6 15        	ldx	$15                     ; 0x15 <__rc5>
     4a8: 86 b9        	stx	$b9                     ; 0xb9 <_ZN12_GLOBAL__N_19free_sizeE>
     4aa: 85 ba        	sta	$ba                     ; 0xba <_ZN12_GLOBAL__N_19free_sizeE+0x1>
     4ac: a5 12        	lda	$12                     ; 0x12 <__rc2>
     4ae: 18           	clc
     4af: 69 02        	adc	#$2
     4b1: 85 14        	sta	$14                     ; 0x14 <__rc4>
     4b3: a5 13        	lda	$13                     ; 0x13 <__rc3>
     4b5: 69 00        	adc	#$0
     4b7: c8           	iny
     4b8: 85 15        	sta	$15                     ; 0x15 <__rc5>
     4ba: b1 12        	lda	($12),y                 ; 0x12 <__rc2>
     4bc: aa           	tax
     4bd: 88           	dey
     4be: b1 14        	lda	($14),y                 ; 0x14 <__rc4>
     4c0: 85 19        	sta	$19                     ; 0x19 <__rc9>
     4c2: c5 13        	cmp	$13                     ; 0x13 <__rc3>
     4c4: d0 0f        	bne	$4d5 <_ZN12_GLOBAL__N_19FreeChunk6removeEv+0x51>
     4c6: e4 12        	cpx	$12                     ; 0x12 <__rc2>
     4c8: d0 0b        	bne	$4d5 <_ZN12_GLOBAL__N_19FreeChunk6removeEv+0x51>
     4ca: a2 00        	ldx	#$0
     4cc: 86 14        	stx	$14                     ; 0x14 <__rc4>
     4ce: a2 00        	ldx	#$0
     4d0: 86 15        	stx	$15                     ; 0x15 <__rc5>
     4d2: 4c 52 05     	jmp	$552 <_ZN12_GLOBAL__N_19FreeChunk6removeEv+0xce>
     4d5: 86 18        	stx	$18                     ; 0x18 <__rc8>
     4d7: a6 12        	ldx	$12                     ; 0x12 <__rc2>
     4d9: a5 12        	lda	$12                     ; 0x12 <__rc2>
     4db: 86 1b        	stx	$1b                     ; 0x1b <__rc11>
     4dd: 18           	clc
     4de: 69 04        	adc	#$4
     4e0: 85 14        	sta	$14                     ; 0x14 <__rc4>
     4e2: a5 13        	lda	$13                     ; 0x13 <__rc3>
     4e4: 69 00        	adc	#$0
     4e6: a0 04        	ldy	#$4
     4e8: 85 15        	sta	$15                     ; 0x15 <__rc5>
     4ea: b1 12        	lda	($12),y                 ; 0x12 <__rc2>
     4ec: 85 1c        	sta	$1c                     ; 0x1c <__rc12>
     4ee: 18           	clc
     4ef: 69 02        	adc	#$2
     4f1: 85 16        	sta	$16                     ; 0x16 <__rc6>
     4f3: a0 01        	ldy	#$1
     4f5: b1 14        	lda	($14),y                 ; 0x14 <__rc4>
     4f7: aa           	tax
     4f8: 69 00        	adc	#$0
     4fa: a4 16        	ldy	$16                     ; 0x16 <__rc6>
     4fc: 84 14        	sty	$14                     ; 0x14 <__rc4>
     4fe: 85 15        	sta	$15                     ; 0x15 <__rc5>
     500: a4 1c        	ldy	$1c                     ; 0x1c <__rc12>
     502: 84 16        	sty	$16                     ; 0x16 <__rc6>
     504: 86 17        	stx	$17                     ; 0x17 <__rc7>
     506: a0 02        	ldy	#$2
     508: a5 18        	lda	$18                     ; 0x18 <__rc8>
     50a: 91 16        	sta	($16),y                 ; 0x16 <__rc6>
     50c: a5 19        	lda	$19                     ; 0x19 <__rc9>
     50e: 88           	dey
     50f: 91 14        	sta	($14),y                 ; 0x14 <__rc4>
     511: 18           	clc
     512: a5 1b        	lda	$1b                     ; 0x1b <__rc11>
     514: 69 02        	adc	#$2
     516: 85 14        	sta	$14                     ; 0x14 <__rc4>
     518: a5 13        	lda	$13                     ; 0x13 <__rc3>
     51a: 69 00        	adc	#$0
     51c: 85 15        	sta	$15                     ; 0x15 <__rc5>
     51e: c8           	iny
     51f: b1 12        	lda	($12),y                 ; 0x12 <__rc2>
     521: 85 16        	sta	$16                     ; 0x16 <__rc6>
     523: 88           	dey
     524: b1 14        	lda	($14),y                 ; 0x14 <__rc4>
     526: a4 16        	ldy	$16                     ; 0x16 <__rc6>
     528: 84 14        	sty	$14                     ; 0x14 <__rc4>
     52a: 85 15        	sta	$15                     ; 0x15 <__rc5>
     52c: 85 17        	sta	$17                     ; 0x17 <__rc7>
     52e: a0 04        	ldy	#$4
     530: a5 1c        	lda	$1c                     ; 0x1c <__rc12>
     532: 91 14        	sta	($14),y                 ; 0x14 <__rc4>
     534: 18           	clc
     535: a5 16        	lda	$16                     ; 0x16 <__rc6>
     537: 69 04        	adc	#$4
     539: 85 16        	sta	$16                     ; 0x16 <__rc6>
     53b: a5 17        	lda	$17                     ; 0x17 <__rc7>
     53d: 69 00        	adc	#$0
     53f: 85 17        	sta	$17                     ; 0x17 <__rc7>
     541: 8a           	txa
     542: a0 01        	ldy	#$1
     544: 91 16        	sta	($16),y                 ; 0x16 <__rc6>
     546: a6 bc        	ldx	$bc                     ; 0xbc <_ZN12_GLOBAL__N_19free_listE+0x1>
     548: e4 13        	cpx	$13                     ; 0x13 <__rc3>
     54a: d0 0e        	bne	$55a <_ZN12_GLOBAL__N_19FreeChunk6removeEv+0xd6>
     54c: a6 bb        	ldx	$bb                     ; 0xbb <_ZN12_GLOBAL__N_19free_listE>
     54e: e4 12        	cpx	$12                     ; 0x12 <__rc2>
     550: d0 08        	bne	$55a <_ZN12_GLOBAL__N_19FreeChunk6removeEv+0xd6>
     552: a6 14        	ldx	$14                     ; 0x14 <__rc4>
     554: a4 15        	ldy	$15                     ; 0x15 <__rc5>
     556: 86 bb        	stx	$bb                     ; 0xbb <_ZN12_GLOBAL__N_19free_listE>
     558: 84 bc        	sty	$bc                     ; 0xbc <_ZN12_GLOBAL__N_19free_listE+0x1>
     55a: 60           	rts

0000055b <__zero_bss>:
     55b: a2 fa        	ldx	#$fa
     55d: a0 00        	ldy	#$0
     55f: a9 8a        	lda	#$8a
     561: 85 12        	sta	$12                     ; 0x12 <__rc2>
     563: a9 2a        	lda	#$2a
     565: 85 13        	sta	$13                     ; 0x13 <__rc3>
     567: a9 00        	lda	#$0
     569: 84 14        	sty	$14                     ; 0x14 <__rc4>
     56b: 4c 6a 2a     	jmp	$2a6a <__memset>

0000056e <__zero_zp_bss>:
     56e: a2 58        	ldx	#$58
     570: a0 00        	ldy	#$0
     572: a9 65        	lda	#$65
     574: 85 12        	sta	$12                     ; 0x12 <__rc2>
     576: a9 00        	lda	#$0
     578: 85 13        	sta	$13                     ; 0x13 <__rc3>
     57a: a9 00        	lda	#$0
     57c: 84 14        	sty	$14                     ; 0x14 <__rc4>
     57e: 4c 6a 2a     	jmp	$2a6a <__memset>

00000581 <__copy_zp_data>:
     581: a9 35        	lda	#$35
     583: a2 00        	ldx	#$0
     585: a0 30        	ldy	#$30
     587: 84 12        	sty	$12                     ; 0x12 <__rc2>
     589: a0 00        	ldy	#$0
     58b: 84 13        	sty	$13                     ; 0x13 <__rc3>
     58d: a0 00        	ldy	#$0
     58f: 84 14        	sty	$14                     ; 0x14 <__rc4>
     591: a0 03        	ldy	#$3
     593: 84 15        	sty	$15                     ; 0x15 <__rc5>
     595: 4c 3e 2a     	jmp	$2a3e <memcpy>

00000598 <f256Init>:
     598: 64 12        	stz	$12                     ; 0x12 <__rc2>
     59a: 64 01        	stz	$1                      ; 0x1 <__data_size+0x1>
     59c: a2 3f        	ldx	#$3f
     59e: 8e 00 d0     	stx	$d000                   ; 0xd000 <end_block9+0xa47c>
     5a1: a2 b3        	ldx	#$b3
     5a3: 86 00        	stx	$0                      ; 0x0 <__data_size>
     5a5: 64 08        	stz	$8                      ; 0x8 <__data_size+0x8>
     5a7: a2 01        	ldx	#$1
     5a9: 86 09        	stx	$9                      ; 0x9 <__data_size+0x9>
     5ab: e8           	inx
     5ac: 86 0a        	stx	$a                      ; 0xa <__data_size+0xa>
     5ae: e8           	inx
     5af: 86 0b        	stx	$b                      ; 0xb <__data_size+0xb>
     5b1: e8           	inx
     5b2: 86 0c        	stx	$c                      ; 0xc <__data_size+0xc>
     5b4: e8           	inx
     5b5: 86 0d        	stx	$d                      ; 0xd <__data_size+0xd>
     5b7: a2 f0        	ldx	#$f0
     5b9: 86 65        	stx	$65                     ; 0x65 <kernelArgs>
     5bb: 64 66        	stz	$66                     ; 0x66 <kernelArgs+0x1>
     5bd: a2 b0        	ldx	#$b0
     5bf: a0 00        	ldy	#$0
     5c1: 86 f0        	stx	$f0                     ; 0xf0 <__zp_bss_size+0x98>
     5c3: 84 f1        	sty	$f1                     ; 0xf1 <__zp_bss_size+0x99>
     5c5: a2 00        	ldx	#$0
     5c7: 86 16        	stx	$16                     ; 0x16 <__rc6>
     5c9: ca           	dex
     5ca: 86 17        	stx	$17                     ; 0x17 <__rc7>
     5cc: 8a           	txa
     5cd: 0a           	asl
     5ce: 0a           	asl
     5cf: 18           	clc
     5d0: 69 d4        	adc	#$d4
     5d2: 85 18        	sta	$18                     ; 0x18 <__rc8>
     5d4: a0 00        	ldy	#$0
     5d6: 64 15        	stz	$15                     ; 0x15 <__rc5>
     5d8: 64 14        	stz	$14                     ; 0x14 <__rc4>
     5da: a6 17        	ldx	$17                     ; 0x17 <__rc7>
     5dc: e0 03        	cpx	#$3
     5de: a6 01        	ldx	$1                      ; 0x1 <__data_size+0x1>
     5e0: 86 1a        	stx	$1a                     ; 0x1a <__rc10>
     5e2: a2 d0        	ldx	#$d0
     5e4: 84 19        	sty	$19                     ; 0x19 <__rc9>
     5e6: b0 02        	bcs	$5ea <f256Init+0x52>
     5e8: a6 18        	ldx	$18                     ; 0x18 <__rc8>
     5ea: 86 13        	stx	$13                     ; 0x13 <__rc3>
     5ec: a5 15        	lda	$15                     ; 0x15 <__rc5>
     5ee: 18           	clc
     5ef: 65 12        	adc	$12                     ; 0x12 <__rc2>
     5f1: a8           	tay
     5f2: a6 15        	ldx	$15                     ; 0x15 <__rc5>
     5f4: a5 14        	lda	$14                     ; 0x14 <__rc4>
     5f6: 85 1b        	sta	$1b                     ; 0x1b <__rc11>
     5f8: a5 14        	lda	$14                     ; 0x14 <__rc4>
     5fa: 65 13        	adc	$13                     ; 0x13 <__rc3>
     5fc: 84 14        	sty	$14                     ; 0x14 <__rc4>
     5fe: a0 01        	ldy	#$1
     600: 84 01        	sty	$1                      ; 0x1 <__data_size+0x1>
     602: 85 15        	sta	$15                     ; 0x15 <__rc5>
     604: a5 19        	lda	$19                     ; 0x19 <__rc9>
     606: 92 14        	sta	($14)                   ; 0x14 <__rc4>
     608: 91 14        	sta	($14),y                 ; 0x14 <__rc4>
     60a: c8           	iny
     60b: 91 14        	sta	($14),y                 ; 0x14 <__rc4>
     60d: 85 13        	sta	$13                     ; 0x13 <__rc3>
     60f: c8           	iny
     610: a9 ff        	lda	#$ff
     612: 91 14        	sta	($14),y                 ; 0x14 <__rc4>
     614: 8a           	txa
     615: a6 1a        	ldx	$1a                     ; 0x1a <__rc10>
     617: 86 01        	stx	$1                      ; 0x1 <__data_size+0x1>
     619: 18           	clc
     61a: 69 04        	adc	#$4
     61c: 85 15        	sta	$15                     ; 0x15 <__rc5>
     61e: a5 1b        	lda	$1b                     ; 0x1b <__rc11>
     620: 69 00        	adc	#$0
     622: e6 13        	inc	$13                     ; 0x13 <__rc3>
     624: a4 13        	ldy	$13                     ; 0x13 <__rc3>
     626: 85 14        	sta	$14                     ; 0x14 <__rc4>
     628: c9 04        	cmp	#$4
     62a: f0 03        	beq	$62f <f256Init+0x97>
     62c: 4c da 05     	jmp	$5da <f256Init+0x42>
     62f: a5 15        	lda	$15                     ; 0x15 <__rc5>
     631: f0 03        	beq	$636 <f256Init+0x9e>
     633: 4c da 05     	jmp	$5da <f256Init+0x42>
     636: a6 16        	ldx	$16                     ; 0x16 <__rc6>
     638: e8           	inx
     639: e0 04        	cpx	#$4
     63b: f0 03        	beq	$640 <f256Init+0xa8>
     63d: 4c c7 05     	jmp	$5c7 <f256Init+0x2f>
     640: ad 02 d0     	lda	$d002                   ; 0xd002 <end_block9+0xa47e>
     643: 29 f0        	and	#$f0
     645: 8d 02 d0     	sta	$d002                   ; 0xd002 <end_block9+0xa47e>
     648: ad 02 d0     	lda	$d002                   ; 0xd002 <end_block9+0xa47e>
     64b: 29 0f        	and	#$f
     64d: 09 10        	ora	#$10
     64f: 8d 02 d0     	sta	$d002                   ; 0xd002 <end_block9+0xa47e>
     652: a2 02        	ldx	#$2
     654: 8e 03 d0     	stx	$d003                   ; 0xd003 <end_block9+0xa47f>
     657: 20 14 07     	jsr	$714 <textReset>
     65a: 20 87 08     	jsr	$887 <bitmapReset>
     65d: a9 10        	lda	#$10
     65f: a2 08        	ldx	#$8
     661: 86 7c        	stx	$7c                     ; 0x7c <_tileSize>
     663: 86 7d        	stx	$7d                     ; 0x7d <_tileSize+0x1>
     665: 86 7e        	stx	$7e                     ; 0x7e <_tileSize+0x2>
     667: 8d 00 d2     	sta	$d200                   ; 0xd200 <end_block9+0xa67c>
     66a: a4 7d        	ldy	$7d                     ; 0x7d <_tileSize+0x1>
     66c: aa           	tax
     66d: c0 08        	cpy	#$8
     66f: f0 02        	beq	$673 <f256Init+0xdb>
     671: a2 00        	ldx	#$0
     673: 8e 0c d2     	stx	$d20c                   ; 0xd20c <end_block9+0xa688>
     676: a6 7e        	ldx	$7e                     ; 0x7e <_tileSize+0x2>
     678: e0 08        	cpx	#$8
     67a: f0 02        	beq	$67e <f256Init+0xe6>
     67c: a9 00        	lda	#$0
     67e: 8d 18 d2     	sta	$d218                   ; 0xd218 <end_block9+0xa694>
     681: a0 d9        	ldy	#$d9
     683: a2 00        	ldx	#$0
     685: 64 12        	stz	$12                     ; 0x12 <__rc2>
     687: 84 13        	sty	$13                     ; 0x13 <__rc3>
     689: bd 8a 2a     	lda	$2a8a,x                 ; 0x2a8a <_spriteCtl>
     68c: 92 12        	sta	($12)                   ; 0x12 <__rc2>
     68e: e8           	inx
     68f: 18           	clc
     690: a5 12        	lda	$12                     ; 0x12 <__rc2>
     692: 69 08        	adc	#$8
     694: 85 12        	sta	$12                     ; 0x12 <__rc2>
     696: 98           	tya
     697: 69 00        	adc	#$0
     699: a8           	tay
     69a: e0 40        	cpx	#$40
     69c: d0 e9        	bne	$687 <f256Init+0xef>
     69e: 64 7f        	stz	$7f                     ; 0x7f <_dirStream>
     6a0: 64 80        	stz	$80                     ; 0x80 <_dirStream+0x1>
     6a2: 64 81        	stz	$81                     ; 0x81 <_dirStream+0x2>
     6a4: 64 82        	stz	$82                     ; 0x82 <_dirStream+0x3>
     6a6: 64 83        	stz	$83                     ; 0x83 <_dirStream+0x4>
     6a8: 64 84        	stz	$84                     ; 0x84 <_dirStream+0x5>
     6aa: 64 85        	stz	$85                     ; 0x85 <_dirStream+0x6>
     6ac: 64 86        	stz	$86                     ; 0x86 <_dirStream+0x7>
     6ae: a5 65        	lda	$65                     ; 0x65 <kernelArgs>
     6b0: a6 66        	ldx	$66                     ; 0x66 <kernelArgs+0x1>
     6b2: 85 12        	sta	$12                     ; 0x12 <__rc2>
     6b4: 86 13        	stx	$13                     ; 0x13 <__rc3>
     6b6: a0 0b        	ldy	#$b
     6b8: 18           	clc
     6b9: 69 0b        	adc	#$b
     6bb: 85 14        	sta	$14                     ; 0x14 <__rc4>
     6bd: 8a           	txa
     6be: 69 00        	adc	#$0
     6c0: 85 15        	sta	$15                     ; 0x15 <__rc5>
     6c2: a9 bd        	lda	#$bd
     6c4: 91 12        	sta	($12),y                 ; 0x12 <__rc2>
     6c6: a0 01        	ldy	#$1
     6c8: a9 00        	lda	#$0
     6ca: 91 14        	sta	($14),y                 ; 0x14 <__rc4>
     6cc: a0 0d        	ldy	#$d
     6ce: a9 08        	lda	#$8
     6d0: 91 12        	sta	($12),y                 ; 0x12 <__rc2>
     6d2: a2 c5        	ldx	#$c5
     6d4: a0 00        	ldy	#$0
     6d6: 86 12        	stx	$12                     ; 0x12 <__rc2>
     6d8: 84 13        	sty	$13                     ; 0x13 <__rc3>
     6da: a2 af        	ldx	#$af
     6dc: 86 14        	stx	$14                     ; 0x14 <__rc4>
     6de: a2 00        	ldx	#$0
     6e0: 86 15        	stx	$15                     ; 0x15 <__rc5>
     6e2: 20 dc ff     	jsr	$ffdc <end_block9+0xd458>
     6e5: 92 12        	sta	($12)                   ; 0x12 <__rc2>
     6e7: a9 00        	lda	#$0
     6e9: 6a           	ror
     6ea: 85 14        	sta	$14                     ; 0x14 <__rc4>
     6ec: a6 c3        	ldx	$c3                     ; 0xc3 <__zp_bss_size+0x6b>
     6ee: a4 c4        	ldy	$c4                     ; 0xc4 <__zp_bss_size+0x6c>
     6f0: 8e 00 de     	stx	$de00                   ; 0xde00 <end_block9+0xb27c>
     6f3: 9c 01 de     	stz	$de01                   ; 0xde01 <end_block9+0xb27d>
     6f6: 8c 02 de     	sty	$de02                   ; 0xde02 <end_block9+0xb27e>
     6f9: 9c 03 de     	stz	$de03                   ; 0xde03 <end_block9+0xb27f>
     6fc: ae 10 de     	ldx	$de10                   ; 0xde10 <end_block9+0xb28c>
     6ff: ac 11 de     	ldy	$de11                   ; 0xde11 <end_block9+0xb28d>
     702: ad 12 de     	lda	$de12                   ; 0xde12 <end_block9+0xb28e>
     705: ad 13 de     	lda	$de13                   ; 0xde13 <end_block9+0xb28f>
     708: 8e a4 d6     	stx	$d6a4                   ; 0xd6a4 <end_block9+0xab20>
     70b: 8c a5 d6     	sty	$d6a5                   ; 0xd6a5 <end_block9+0xab21>
     70e: a2 03        	ldx	#$3
     710: 8e a6 d6     	stx	$d6a6                   ; 0xd6a6 <end_block9+0xab22>
     713: 60           	rts

00000714 <textReset>:
     714: 64 14        	stz	$14                     ; 0x14 <__rc4>
     716: a2 00        	ldx	#$0
     718: 86 12        	stx	$12                     ; 0x12 <__rc2>
     71a: a2 c0        	ldx	#$c0
     71c: 86 13        	stx	$13                     ; 0x13 <__rc3>
     71e: a2 f0        	ldx	#$f0
     720: 86 62        	stx	$62                     ; 0x62 <_ccolor>
     722: ad 01 d0     	lda	$d001                   ; 0xd001 <end_block9+0xa47d>
     725: 29 f9        	and	#$f9
     727: 09 04        	ora	#$4
     729: 8d 01 d0     	sta	$d001                   ; 0xd001 <end_block9+0xa47d>
     72c: a2 50        	ldx	#$50
     72e: 86 60        	stx	$60                     ; 0x60 <_MAX_COL>
     730: a2 1e        	ldx	#$1e
     732: 86 61        	stx	$61                     ; 0x61 <_MAX_ROW>
     734: 9c 10 d0     	stz	$d010                   ; 0xd010 <end_block9+0xa48c>
     737: a0 00        	ldy	#$0
     739: a2 00        	ldx	#$0
     73b: 84 18        	sty	$18                     ; 0x18 <__rc8>
     73d: b9 30 00     	lda	$30,y                   ; 0x30 <textColors>
     740: 85 1b        	sta	$1b                     ; 0x1b <__rc11>
     742: b9 31 00     	lda	$31,y                   ; 0x31 <textColors+0x1>
     745: 85 1c        	sta	$1c                     ; 0x1c <__rc12>
     747: b9 32 00     	lda	$32,y                   ; 0x32 <textColors+0x2>
     74a: 85 1d        	sta	$1d                     ; 0x1d <__rc13>
     74c: 84 1a        	sty	$1a                     ; 0x1a <__rc10>
     74e: 8e 00 de     	stx	$de00                   ; 0xde00 <end_block9+0xb27c>
     751: 9c 01 de     	stz	$de01                   ; 0xde01 <end_block9+0xb27d>
     754: a0 04        	ldy	#$4
     756: 8c 02 de     	sty	$de02                   ; 0xde02 <end_block9+0xb27e>
     759: 9c 03 de     	stz	$de03                   ; 0xde03 <end_block9+0xb27f>
     75c: ac 10 de     	ldy	$de10                   ; 0xde10 <end_block9+0xb28c>
     75f: ad 11 de     	lda	$de11                   ; 0xde11 <end_block9+0xb28d>
     762: 85 15        	sta	$15                     ; 0x15 <__rc5>
     764: 18           	clc
     765: 98           	tya
     766: 65 14        	adc	$14                     ; 0x14 <__rc4>
     768: 85 16        	sta	$16                     ; 0x16 <__rc6>
     76a: a9 d8        	lda	#$d8
     76c: 65 15        	adc	$15                     ; 0x15 <__rc5>
     76e: 86 19        	stx	$19                     ; 0x19 <__rc9>
     770: ae 12 de     	ldx	$de12                   ; 0xde12 <end_block9+0xb28e>
     773: ae 13 de     	ldx	$de13                   ; 0xde13 <end_block9+0xb28f>
     776: 85 17        	sta	$17                     ; 0x17 <__rc7>
     778: a5 1d        	lda	$1d                     ; 0x1d <__rc13>
     77a: 92 16        	sta	($16)                   ; 0x16 <__rc6>
     77c: a0 01        	ldy	#$1
     77e: a5 1c        	lda	$1c                     ; 0x1c <__rc12>
     780: 91 16        	sta	($16),y                 ; 0x16 <__rc6>
     782: c8           	iny
     783: a5 1b        	lda	$1b                     ; 0x1b <__rc11>
     785: 91 16        	sta	($16),y                 ; 0x16 <__rc6>
     787: c8           	iny
     788: a9 ff        	lda	#$ff
     78a: 91 16        	sta	($16),y                 ; 0x16 <__rc6>
     78c: a6 1a        	ldx	$1a                     ; 0x1a <__rc10>
     78e: b4 30        	ldy	$30,x                   ; 0x30 <textColors>
     790: 84 1a        	sty	$1a                     ; 0x1a <__rc10>
     792: b4 31        	ldy	$31,x                   ; 0x31 <textColors+0x1>
     794: 84 1b        	sty	$1b                     ; 0x1b <__rc11>
     796: b5 32        	lda	$32,x                   ; 0x32 <textColors+0x2>
     798: aa           	tax
     799: 86 1c        	stx	$1c                     ; 0x1c <__rc12>
     79b: a6 19        	ldx	$19                     ; 0x19 <__rc9>
     79d: 8e 00 de     	stx	$de00                   ; 0xde00 <end_block9+0xb27c>
     7a0: 9c 01 de     	stz	$de01                   ; 0xde01 <end_block9+0xb27d>
     7a3: a2 04        	ldx	#$4
     7a5: 8e 02 de     	stx	$de02                   ; 0xde02 <end_block9+0xb27e>
     7a8: 9c 03 de     	stz	$de03                   ; 0xde03 <end_block9+0xb27f>
     7ab: ae 10 de     	ldx	$de10                   ; 0xde10 <end_block9+0xb28c>
     7ae: 86 15        	stx	$15                     ; 0x15 <__rc5>
     7b0: ae 11 de     	ldx	$de11                   ; 0xde11 <end_block9+0xb28d>
     7b3: 86 16        	stx	$16                     ; 0x16 <__rc6>
     7b5: a9 40        	lda	#$40
     7b7: 18           	clc
     7b8: 65 15        	adc	$15                     ; 0x15 <__rc5>
     7ba: aa           	tax
     7bb: a9 d8        	lda	#$d8
     7bd: 65 16        	adc	$16                     ; 0x16 <__rc6>
     7bf: 86 16        	stx	$16                     ; 0x16 <__rc6>
     7c1: ae 12 de     	ldx	$de12                   ; 0xde12 <end_block9+0xb28e>
     7c4: 85 17        	sta	$17                     ; 0x17 <__rc7>
     7c6: ae 13 de     	ldx	$de13                   ; 0xde13 <end_block9+0xb28f>
     7c9: a6 19        	ldx	$19                     ; 0x19 <__rc9>
     7cb: a5 1c        	lda	$1c                     ; 0x1c <__rc12>
     7cd: 92 16        	sta	($16)                   ; 0x16 <__rc6>
     7cf: a0 01        	ldy	#$1
     7d1: a5 1b        	lda	$1b                     ; 0x1b <__rc11>
     7d3: 91 16        	sta	($16),y                 ; 0x16 <__rc6>
     7d5: c8           	iny
     7d6: a5 1a        	lda	$1a                     ; 0x1a <__rc10>
     7d8: 91 16        	sta	($16),y                 ; 0x16 <__rc6>
     7da: a9 ff        	lda	#$ff
     7dc: c8           	iny
     7dd: 91 16        	sta	($16),y                 ; 0x16 <__rc6>
     7df: e8           	inx
     7e0: 18           	clc
     7e1: a5 18        	lda	$18                     ; 0x18 <__rc8>
     7e3: 69 03        	adc	#$3
     7e5: a8           	tay
     7e6: c9 30        	cmp	#$30
     7e8: f0 03        	beq	$7ed <textReset+0xd9>
     7ea: 4c 3b 07     	jmp	$73b <textReset+0x27>
     7ed: a6 01        	ldx	$1                      ; 0x1 <__data_size+0x1>
     7ef: 86 18        	stx	$18                     ; 0x18 <__rc8>
     7f1: a6 60        	ldx	$60                     ; 0x60 <_MAX_COL>
     7f3: a4 61        	ldy	$61                     ; 0x61 <_MAX_ROW>
     7f5: 8e 00 de     	stx	$de00                   ; 0xde00 <end_block9+0xb27c>
     7f8: 9c 01 de     	stz	$de01                   ; 0xde01 <end_block9+0xb27d>
     7fb: 8c 02 de     	sty	$de02                   ; 0xde02 <end_block9+0xb27e>
     7fe: 9c 03 de     	stz	$de03                   ; 0xde03 <end_block9+0xb27f>
     801: ae 10 de     	ldx	$de10                   ; 0xde10 <end_block9+0xb28c>
     804: ac 11 de     	ldy	$de11                   ; 0xde11 <end_block9+0xb28d>
     807: ad 12 de     	lda	$de12                   ; 0xde12 <end_block9+0xb28e>
     80a: ad 13 de     	lda	$de13                   ; 0xde13 <end_block9+0xb28f>
     80d: a9 02        	lda	#$2
     80f: 85 01        	sta	$1                      ; 0x1 <__data_size+0x1>
     811: e0 01        	cpx	#$1
     813: 98           	tya
     814: e9 00        	sbc	#$0
     816: 50 02        	bvc	$81a <textReset+0x106>
     818: 49 80        	eor	#$80
     81a: c9 00        	cmp	#$0
     81c: 30 50        	bmi	$86e <textReset+0x15a>
     81e: a9 20        	lda	#$20
     820: 86 19        	stx	$19                     ; 0x19 <__rc9>
     822: 86 14        	stx	$14                     ; 0x14 <__rc4>
     824: 84 15        	sty	$15                     ; 0x15 <__rc5>
     826: a2 00        	ldx	#$0
     828: 86 16        	stx	$16                     ; 0x16 <__rc6>
     82a: a2 c0        	ldx	#$c0
     82c: 86 17        	stx	$17                     ; 0x17 <__rc7>
     82e: 80 04        	bra	$834 <textReset+0x120>
     830: a6 15        	ldx	$15                     ; 0x15 <__rc5>
     832: f0 14        	beq	$848 <textReset+0x134>
     834: 92 16        	sta	($16)                   ; 0x16 <__rc6>
     836: e6 16        	inc	$16                     ; 0x16 <__rc6>
     838: d0 02        	bne	$83c <textReset+0x128>
     83a: e6 17        	inc	$17                     ; 0x17 <__rc7>
     83c: a2 ff        	ldx	#$ff
     83e: c6 14        	dec	$14                     ; 0x14 <__rc4>
     840: e4 14        	cpx	$14                     ; 0x14 <__rc4>
     842: d0 ec        	bne	$830 <textReset+0x11c>
     844: c6 15        	dec	$15                     ; 0x15 <__rc5>
     846: 80 e8        	bra	$830 <textReset+0x11c>
     848: a6 14        	ldx	$14                     ; 0x14 <__rc4>
     84a: d0 e8        	bne	$834 <textReset+0x120>
     84c: a2 03        	ldx	#$3
     84e: 86 01        	stx	$1                      ; 0x1 <__data_size+0x1>
     850: a6 19        	ldx	$19                     ; 0x19 <__rc9>
     852: 80 03        	bra	$857 <textReset+0x143>
     854: 98           	tya
     855: f0 12        	beq	$869 <textReset+0x155>
     857: a5 62        	lda	$62                     ; 0x62 <_ccolor>
     859: 92 12        	sta	($12)                   ; 0x12 <__rc2>
     85b: e6 12        	inc	$12                     ; 0x12 <__rc2>
     85d: d0 02        	bne	$861 <textReset+0x14d>
     85f: e6 13        	inc	$13                     ; 0x13 <__rc3>
     861: ca           	dex
     862: e0 ff        	cpx	#$ff
     864: d0 ee        	bne	$854 <textReset+0x140>
     866: 88           	dey
     867: 80 eb        	bra	$854 <textReset+0x140>
     869: 8a           	txa
     86a: d0 eb        	bne	$857 <textReset+0x143>
     86c: 80 04        	bra	$872 <textReset+0x15e>
     86e: a2 03        	ldx	#$3
     870: 86 01        	stx	$1                      ; 0x1 <__data_size+0x1>
     872: a6 18        	ldx	$18                     ; 0x18 <__rc8>
     874: 86 01        	stx	$1                      ; 0x1 <__data_size+0x1>
     876: 64 67        	stz	$67                     ; 0x67 <_col>
     878: 9c 14 d0     	stz	$d014                   ; 0xd014 <end_block9+0xa490>
     87b: 9c 15 d0     	stz	$d015                   ; 0xd015 <end_block9+0xa491>
     87e: 64 68        	stz	$68                     ; 0x68 <_row>
     880: 9c 16 d0     	stz	$d016                   ; 0xd016 <end_block9+0xa492>
     883: 9c 17 d0     	stz	$d017                   ; 0xd017 <end_block9+0xa493>
     886: 60           	rts

00000887 <bitmapReset>:
     887: a2 01        	ldx	#$1
     889: 86 77        	stx	$77                     ; 0x77 <_MAX_X>
     88b: 86 78        	stx	$78                     ; 0x78 <_MAX_Y>
     88d: a0 40        	ldy	#$40
     88f: 8c 00 de     	sty	$de00                   ; 0xde00 <end_block9+0xb27c>
     892: 8e 01 de     	stx	$de01                   ; 0xde01 <end_block9+0xb27d>
     895: a2 f0        	ldx	#$f0
     897: 8e 02 de     	stx	$de02                   ; 0xde02 <end_block9+0xb27e>
     89a: 9c 03 de     	stz	$de03                   ; 0xde03 <end_block9+0xb27f>
     89d: ae 10 de     	ldx	$de10                   ; 0xde10 <end_block9+0xb28c>
     8a0: 86 17        	stx	$17                     ; 0x17 <__rc7>
     8a2: ae 11 de     	ldx	$de11                   ; 0xde11 <end_block9+0xb28d>
     8a5: 86 12        	stx	$12                     ; 0x12 <__rc2>
     8a7: ae 12 de     	ldx	$de12                   ; 0xde12 <end_block9+0xb28e>
     8aa: 86 13        	stx	$13                     ; 0x13 <__rc3>
     8ac: ae 13 de     	ldx	$de13                   ; 0xde13 <end_block9+0xb28f>
     8af: 86 14        	stx	$14                     ; 0x14 <__rc4>
     8b1: 64 75        	stz	$75                     ; 0x75 <_active>
     8b3: a2 ff        	ldx	#$ff
     8b5: 86 76        	stx	$76                     ; 0x76 <_color>
     8b7: a6 12        	ldx	$12                     ; 0x12 <__rc2>
     8b9: 86 15        	stx	$15                     ; 0x15 <__rc5>
     8bb: 06 15        	asl	$15                     ; 0x15 <__rc5>
     8bd: a5 13        	lda	$13                     ; 0x13 <__rc3>
     8bf: 2a           	rol
     8c0: a6 14        	ldx	$14                     ; 0x14 <__rc4>
     8c2: 86 16        	stx	$16                     ; 0x16 <__rc6>
     8c4: 26 16        	rol	$16                     ; 0x16 <__rc6>
     8c6: 06 15        	asl	$15                     ; 0x15 <__rc5>
     8c8: 2a           	rol
     8c9: 26 16        	rol	$16                     ; 0x16 <__rc6>
     8cb: 06 15        	asl	$15                     ; 0x15 <__rc5>
     8cd: 2a           	rol
     8ce: 26 16        	rol	$16                     ; 0x16 <__rc6>
     8d0: 85 15        	sta	$15                     ; 0x15 <__rc5>
     8d2: 8d 00 de     	sta	$de00                   ; 0xde00 <end_block9+0xb27c>
     8d5: a5 16        	lda	$16                     ; 0x16 <__rc6>
     8d7: 8d 01 de     	sta	$de01                   ; 0xde01 <end_block9+0xb27d>
     8da: 9c 02 de     	stz	$de02                   ; 0xde02 <end_block9+0xb27e>
     8dd: a2 20        	ldx	#$20
     8df: 8e 03 de     	stx	$de03                   ; 0xde03 <end_block9+0xb27f>
     8e2: ae 10 de     	ldx	$de10                   ; 0xde10 <end_block9+0xb28c>
     8e5: 86 16        	stx	$16                     ; 0x16 <__rc6>
     8e7: ae 11 de     	ldx	$de11                   ; 0xde11 <end_block9+0xb28d>
     8ea: 86 18        	stx	$18                     ; 0x18 <__rc8>
     8ec: ac 12 de     	ldy	$de12                   ; 0xde12 <end_block9+0xb28e>
     8ef: ae 13 de     	ldx	$de13                   ; 0xde13 <end_block9+0xb28f>
     8f2: e4 14        	cpx	$14                     ; 0x14 <__rc4>
     8f4: d0 14        	bne	$90a <bitmapReset+0x83>
     8f6: c4 13        	cpy	$13                     ; 0x13 <__rc3>
     8f8: d0 10        	bne	$90a <bitmapReset+0x83>
     8fa: a6 18        	ldx	$18                     ; 0x18 <__rc8>
     8fc: e4 12        	cpx	$12                     ; 0x12 <__rc2>
     8fe: d0 0a        	bne	$90a <bitmapReset+0x83>
     900: a6 16        	ldx	$16                     ; 0x16 <__rc6>
     902: e4 17        	cpx	$17                     ; 0x17 <__rc7>
     904: d0 04        	bne	$90a <bitmapReset+0x83>
     906: a6 15        	ldx	$15                     ; 0x15 <__rc5>
     908: 80 06        	bra	$910 <bitmapReset+0x89>
     90a: a6 15        	ldx	$15                     ; 0x15 <__rc5>
     90c: e8           	inx
     90d: d0 01        	bne	$910 <bitmapReset+0x89>
     90f: 1a           	inc
     910: 8e 00 de     	stx	$de00                   ; 0xde00 <end_block9+0xb27c>
     913: 8d 01 de     	sta	$de01                   ; 0xde01 <end_block9+0xb27d>
     916: 9c 02 de     	stz	$de02                   ; 0xde02 <end_block9+0xb27e>
     919: a2 20        	ldx	#$20
     91b: 8e 03 de     	stx	$de03                   ; 0xde03 <end_block9+0xb27f>
     91e: ae 10 de     	ldx	$de10                   ; 0xde10 <end_block9+0xb28c>
     921: 86 12        	stx	$12                     ; 0x12 <__rc2>
     923: ae 11 de     	ldx	$de11                   ; 0xde11 <end_block9+0xb28d>
     926: 86 13        	stx	$13                     ; 0x13 <__rc3>
     928: ae 12 de     	ldx	$de12                   ; 0xde12 <end_block9+0xb28e>
     92b: 86 14        	stx	$14                     ; 0x14 <__rc4>
     92d: ae 13 de     	ldx	$de13                   ; 0xde13 <end_block9+0xb28f>
     930: 86 15        	stx	$15                     ; 0x15 <__rc5>
     932: a9 00        	lda	#$0
     934: 38           	sec
     935: e5 12        	sbc	$12                     ; 0x12 <__rc2>
     937: 85 1a        	sta	$1a                     ; 0x1a <__rc10>
     939: a9 00        	lda	#$0
     93b: e5 13        	sbc	$13                     ; 0x13 <__rc3>
     93d: 85 18        	sta	$18                     ; 0x18 <__rc8>
     93f: a9 08        	lda	#$8
     941: e5 14        	sbc	$14                     ; 0x14 <__rc4>
     943: a8           	tay
     944: a9 00        	lda	#$0
     946: e5 15        	sbc	$15                     ; 0x15 <__rc5>
     948: 85 16        	sta	$16                     ; 0x16 <__rc6>
     94a: a6 18        	ldx	$18                     ; 0x18 <__rc8>
     94c: 86 6a        	stx	$6a                     ; 0x6a <_BITMAP_BASE+0x1>
     94e: 84 6b        	sty	$6b                     ; 0x6b <_BITMAP_BASE+0x2>
     950: 85 6c        	sta	$6c                     ; 0x6c <_BITMAP_BASE+0x3>
     952: a5 1a        	lda	$1a                     ; 0x1a <__rc10>
     954: 38           	sec
     955: e5 12        	sbc	$12                     ; 0x12 <__rc2>
     957: 85 17        	sta	$17                     ; 0x17 <__rc7>
     959: a5 18        	lda	$18                     ; 0x18 <__rc8>
     95b: e5 13        	sbc	$13                     ; 0x13 <__rc3>
     95d: 85 18        	sta	$18                     ; 0x18 <__rc8>
     95f: 98           	tya
     960: e5 14        	sbc	$14                     ; 0x14 <__rc4>
     962: 85 19        	sta	$19                     ; 0x19 <__rc9>
     964: a5 16        	lda	$16                     ; 0x16 <__rc6>
     966: e5 15        	sbc	$15                     ; 0x15 <__rc5>
     968: 85 16        	sta	$16                     ; 0x16 <__rc6>
     96a: 38           	sec
     96b: a6 17        	ldx	$17                     ; 0x17 <__rc7>
     96d: 86 6d        	stx	$6d                     ; 0x6d <_BITMAP_BASE+0x4>
     96f: a4 18        	ldy	$18                     ; 0x18 <__rc8>
     971: 84 6e        	sty	$6e                     ; 0x6e <_BITMAP_BASE+0x5>
     973: a6 19        	ldx	$19                     ; 0x19 <__rc9>
     975: 86 6f        	stx	$6f                     ; 0x6f <_BITMAP_BASE+0x6>
     977: 85 70        	sta	$70                     ; 0x70 <_BITMAP_BASE+0x7>
     979: a5 17        	lda	$17                     ; 0x17 <__rc7>
     97b: e5 12        	sbc	$12                     ; 0x12 <__rc2>
     97d: 85 17        	sta	$17                     ; 0x17 <__rc7>
     97f: a5 18        	lda	$18                     ; 0x18 <__rc8>
     981: e5 13        	sbc	$13                     ; 0x13 <__rc3>
     983: aa           	tax
     984: a5 19        	lda	$19                     ; 0x19 <__rc9>
     986: e5 14        	sbc	$14                     ; 0x14 <__rc4>
     988: 85 13        	sta	$13                     ; 0x13 <__rc3>
     98a: a5 16        	lda	$16                     ; 0x16 <__rc6>
     98c: e5 15        	sbc	$15                     ; 0x15 <__rc5>
     98e: 85 12        	sta	$12                     ; 0x12 <__rc2>
     990: a5 17        	lda	$17                     ; 0x17 <__rc7>
     992: 85 71        	sta	$71                     ; 0x71 <_BITMAP_BASE+0x8>
     994: 86 72        	stx	$72                     ; 0x72 <_BITMAP_BASE+0x9>
     996: a6 13        	ldx	$13                     ; 0x13 <__rc3>
     998: 86 73        	stx	$73                     ; 0x73 <_BITMAP_BASE+0xa>
     99a: a6 12        	ldx	$12                     ; 0x12 <__rc2>
     99c: 86 74        	stx	$74                     ; 0x74 <_BITMAP_BASE+0xb>
     99e: a6 1a        	ldx	$1a                     ; 0x1a <__rc10>
     9a0: 86 69        	stx	$69                     ; 0x69 <_BITMAP_BASE>
     9a2: 64 79        	stz	$79                     ; 0x79 <_BITMAP_CLUT>
     9a4: 64 7a        	stz	$7a                     ; 0x7a <_BITMAP_CLUT+0x1>
     9a6: 64 7b        	stz	$7b                     ; 0x7b <_BITMAP_CLUT+0x2>
     9a8: 8e 01 d1     	stx	$d101                   ; 0xd101 <end_block9+0xa57d>
     9ab: a6 6a        	ldx	$6a                     ; 0x6a <_BITMAP_BASE+0x1>
     9ad: 8e 02 d1     	stx	$d102                   ; 0xd102 <end_block9+0xa57e>
     9b0: a6 6b        	ldx	$6b                     ; 0x6b <_BITMAP_BASE+0x2>
     9b2: 8e 03 d1     	stx	$d103                   ; 0xd103 <end_block9+0xa57f>
     9b5: a6 6d        	ldx	$6d                     ; 0x6d <_BITMAP_BASE+0x4>
     9b7: 8e 09 d1     	stx	$d109                   ; 0xd109 <end_block9+0xa585>
     9ba: a6 6e        	ldx	$6e                     ; 0x6e <_BITMAP_BASE+0x5>
     9bc: 8e 0a d1     	stx	$d10a                   ; 0xd10a <end_block9+0xa586>
     9bf: a6 6f        	ldx	$6f                     ; 0x6f <_BITMAP_BASE+0x6>
     9c1: 8e 0b d1     	stx	$d10b                   ; 0xd10b <end_block9+0xa587>
     9c4: a6 71        	ldx	$71                     ; 0x71 <_BITMAP_BASE+0x8>
     9c6: 8e 11 d1     	stx	$d111                   ; 0xd111 <end_block9+0xa58d>
     9c9: a6 72        	ldx	$72                     ; 0x72 <_BITMAP_BASE+0x9>
     9cb: 8e 12 d1     	stx	$d112                   ; 0xd112 <end_block9+0xa58e>
     9ce: a6 73        	ldx	$73                     ; 0x73 <_BITMAP_BASE+0xa>
     9d0: 8e 13 d1     	stx	$d113                   ; 0xd113 <end_block9+0xa58f>
     9d3: 9c 00 d1     	stz	$d100                   ; 0xd100 <end_block9+0xa57c>
     9d6: 9c 08 d1     	stz	$d108                   ; 0xd108 <end_block9+0xa584>
     9d9: 9c 10 d1     	stz	$d110                   ; 0xd110 <end_block9+0xa58c>
     9dc: 60           	rts

000009dd <FAR_PEEK>:
     9dd: 85 14        	sta	$14                     ; 0x14 <__rc4>
     9df: da           	phx
     9e0: 7a           	ply
     9e1: a5 12        	lda	$12                     ; 0x12 <__rc2>
     9e3: a6 0f        	ldx	$f                      ; 0xf <__data_size+0xf>
     9e5: 78           	sei
     9e6: 84 12        	sty	$12                     ; 0x12 <__rc2>
     9e8: 06 12        	asl	$12                     ; 0x12 <__rc2>
     9ea: 2a           	rol
     9eb: 06 12        	asl	$12                     ; 0x12 <__rc2>
     9ed: 2a           	rol
     9ee: 06 12        	asl	$12                     ; 0x12 <__rc2>
     9f0: 2a           	rol
     9f1: 85 0f        	sta	$f                      ; 0xf <__data_size+0xf>
     9f3: 98           	tya
     9f4: 09 e0        	ora	#$e0
     9f6: 85 15        	sta	$15                     ; 0x15 <__rc5>
     9f8: b2 14        	lda	($14)                   ; 0x14 <__rc4>
     9fa: 86 0f        	stx	$f                      ; 0xf <__data_size+0xf>
     9fc: 58           	cli
     9fd: 60           	rts

000009fe <main>:
     9fe: 20 98 05     	jsr	$598 <f256Init>
     a01: 20 04 0a     	jsr	$a04 <f256main>

00000a04 <f256main>:
     a04: 20 76 0a     	jsr	$a76 <setup>
     a07: a9 00        	lda	#$0
     a09: 20 4b 0e     	jsr	$e4b <midiShutUp>
     a0c: 64 87        	stz	$87                     ; 0x87 <carTimer>
     a0e: a9 00        	lda	#$0
     a10: 20 ab 26     	jsr	$26ab <getTimerAbsolute>
     a13: 1a           	inc
     a14: 85 88        	sta	$88                     ; 0x88 <carTimer+0x1>
     a16: 64 89        	stz	$89                     ; 0x89 <carTimer+0x2>
     a18: a2 87        	ldx	#$87
     a1a: 86 12        	stx	$12                     ; 0x12 <__rc2>
     a1c: a2 00        	ldx	#$0
     a1e: 86 13        	stx	$13                     ; 0x13 <__rc3>
     a20: 20 78 26     	jsr	$2678 <setTimer>
     a23: 64 8a        	stz	$8a                     ; 0x8a <laneTimer>
     a25: a9 00        	lda	#$0
     a27: 20 ab 26     	jsr	$26ab <getTimerAbsolute>
     a2a: 18           	clc
     a2b: 69 03        	adc	#$3
     a2d: 85 8b        	sta	$8b                     ; 0x8b <laneTimer+0x1>
     a2f: a2 01        	ldx	#$1
     a31: 86 8c        	stx	$8c                     ; 0x8c <laneTimer+0x2>
     a33: a2 8a        	ldx	#$8a
     a35: 86 12        	stx	$12                     ; 0x12 <__rc2>
     a37: a2 00        	ldx	#$0
     a39: 86 13        	stx	$13                     ; 0x13 <__rc3>
     a3b: 20 78 26     	jsr	$2678 <setTimer>
     a3e: 64 8d        	stz	$8d                     ; 0x8d <carForceTimer>
     a40: a9 00        	lda	#$0
     a42: 20 ab 26     	jsr	$26ab <getTimerAbsolute>
     a45: 18           	clc
     a46: 69 03        	adc	#$3
     a48: 85 8e        	sta	$8e                     ; 0x8e <carForceTimer+0x1>
     a4a: a2 02        	ldx	#$2
     a4c: 86 8f        	stx	$8f                     ; 0x8f <carForceTimer+0x2>
     a4e: a2 8d        	ldx	#$8d
     a50: 86 12        	stx	$12                     ; 0x12 <__rc2>
     a52: a2 00        	ldx	#$0
     a54: 86 13        	stx	$13                     ; 0x13 <__rc3>
     a56: 20 78 26     	jsr	$2678 <setTimer>
     a59: a9 00        	lda	#$0
     a5b: 20 5f 0e     	jsr	$e5f <resetInstruments>
     a5e: a9 00        	lda	#$0
     a60: 20 4b 0e     	jsr	$e4b <midiShutUp>
     a63: a2 05        	ldx	#$5
     a65: 86 12        	stx	$12                     ; 0x12 <__rc2>
     a67: 64 13        	stz	$13                     ; 0x13 <__rc3>
     a69: a2 00        	ldx	#$0
     a6b: 8a           	txa
     a6c: 20 fd 10     	jsr	$10fd <playEmbeddedDim>
     a6f: a9 00        	lda	#$0
     a71: 20 28 0e     	jsr	$e28 <midiShutAllChannels>
     a74: 80 fe        	bra	$a74 <f256main+0x70>

00000a76 <setup>:
     a76: 64 01        	stz	$1                      ; 0x1 <__data_size+0x1>
     a78: a2 2f        	ldx	#$2f
     a7a: 8e 00 d0     	stx	$d000                   ; 0xd000 <end_block9+0xa47c>
     a7d: a2 14        	ldx	#$14
     a7f: 8e 01 d0     	stx	$d001                   ; 0xd001 <end_block9+0xa47d>
     a82: a2 10        	ldx	#$10
     a84: 8e 02 d0     	stx	$d002                   ; 0xd002 <end_block9+0xa47e>
     a87: a2 02        	ldx	#$2
     a89: 8e 03 d0     	stx	$d003                   ; 0xd003 <end_block9+0xa47f>
     a8c: 9c 0d d0     	stz	$d00d                   ; 0xd00d <end_block9+0xa489>
     a8f: 9c 0e d0     	stz	$d00e                   ; 0xd00e <end_block9+0xa48a>
     a92: 9c 0f d0     	stz	$d00f                   ; 0xd00f <end_block9+0xa48b>
     a95: ca           	dex
     a96: 86 01        	stx	$1                      ; 0x1 <__data_size+0x1>
     a98: a0 fc        	ldy	#$fc
     a9a: a9 ff        	lda	#$ff
     a9c: 85 12        	sta	$12                     ; 0x12 <__rc2>
     a9e: 85 13        	sta	$13                     ; 0x13 <__rc3>
     aa0: 80 28        	bra	$aca <setup+0x54>
     aa2: 85 18        	sta	$18                     ; 0x18 <__rc8>
     aa4: 98           	tya
     aa5: 69 e3        	adc	#$e3
     aa7: 5a           	phy
     aa8: a4 16        	ldy	$16                     ; 0x16 <__rc6>
     aaa: 84 14        	sty	$14                     ; 0x14 <__rc4>
     aac: 7a           	ply
     aad: 85 15        	sta	$15                     ; 0x15 <__rc5>
     aaf: b2 14        	lda	($14)                   ; 0x14 <__rc4>
     ab1: 85 19        	sta	$19                     ; 0x19 <__rc9>
     ab3: a5 17        	lda	$17                     ; 0x17 <__rc7>
     ab5: 85 0f        	sta	$f                      ; 0xf <__data_size+0xf>
     ab7: 98           	tya
     ab8: 5a           	phy
     ab9: a4 18        	ldy	$18                     ; 0x18 <__rc8>
     abb: c0 01        	cpy	#$1
     abd: 7a           	ply
     abe: 69 d3        	adc	#$d3
     ac0: 58           	cli
     ac1: 85 15        	sta	$15                     ; 0x15 <__rc5>
     ac3: a5 19        	lda	$19                     ; 0x19 <__rc9>
     ac5: 92 14        	sta	($14)                   ; 0x14 <__rc4>
     ac7: e8           	inx
     ac8: f0 17        	beq	$ae1 <setup+0x6b>
     aca: a5 0f        	lda	$f                      ; 0xf <__data_size+0xf>
     acc: 85 17        	sta	$17                     ; 0x17 <__rc7>
     ace: 78           	sei
     acf: a9 08        	lda	#$8
     ad1: 85 0f        	sta	$f                      ; 0xf <__data_size+0xf>
     ad3: 18           	clc
     ad4: 8a           	txa
     ad5: 69 ff        	adc	#$ff
     ad7: 85 16        	sta	$16                     ; 0x16 <__rc6>
     ad9: a9 01        	lda	#$1
     adb: b0 c5        	bcs	$aa2 <setup+0x2c>
     add: a9 00        	lda	#$0
     adf: 80 c1        	bra	$aa2 <setup+0x2c>
     ae1: c8           	iny
     ae2: d0 e6        	bne	$aca <setup+0x54>
     ae4: e6 12        	inc	$12                     ; 0x12 <__rc2>
     ae6: d0 e2        	bne	$aca <setup+0x54>
     ae8: e6 13        	inc	$13                     ; 0x13 <__rc3>
     aea: d0 de        	bne	$aca <setup+0x54>
     aec: 64 01        	stz	$1                      ; 0x1 <__data_size+0x1>
     aee: a2 02        	ldx	#$2
     af0: 86 75        	stx	$75                     ; 0x75 <_active>
     af2: 64 71        	stz	$71                     ; 0x71 <_BITMAP_BASE+0x8>
     af4: 64 72        	stz	$72                     ; 0x72 <_BITMAP_BASE+0x9>
     af6: 86 73        	stx	$73                     ; 0x73 <_BITMAP_BASE+0xa>
     af8: 64 74        	stz	$74                     ; 0x74 <_BITMAP_BASE+0xb>
     afa: 9c 11 d1     	stz	$d111                   ; 0xd111 <end_block9+0xa58d>
     afd: 9c 12 d1     	stz	$d112                   ; 0xd112 <end_block9+0xa58e>
     b00: 8e 13 d1     	stx	$d113                   ; 0xd113 <end_block9+0xa58f>
     b03: a6 75        	ldx	$75                     ; 0x75 <_active>
     b05: 74 79        	stz	$79,x                   ; 0x79 <_BITMAP_CLUT>
     b07: e0 02        	cpx	#$2
     b09: f0 1b        	beq	$b26 <setup+0xb0>
     b0b: e0 01        	cpx	#$1
     b0d: f0 0d        	beq	$b1c <setup+0xa6>
     b0f: 8a           	txa
     b10: d0 1c        	bne	$b2e <setup+0xb8>
     b12: ad 00 d1     	lda	$d100                   ; 0xd100 <end_block9+0xa57c>
     b15: 29 f9        	and	#$f9
     b17: 8d 00 d1     	sta	$d100                   ; 0xd100 <end_block9+0xa57c>
     b1a: 80 12        	bra	$b2e <setup+0xb8>
     b1c: ad 08 d1     	lda	$d108                   ; 0xd108 <end_block9+0xa584>
     b1f: 29 f9        	and	#$f9
     b21: 8d 08 d1     	sta	$d108                   ; 0xd108 <end_block9+0xa584>
     b24: 80 08        	bra	$b2e <setup+0xb8>
     b26: ad 10 d1     	lda	$d110                   ; 0xd110 <end_block9+0xa58c>
     b29: 29 f9        	and	#$f9
     b2b: 8d 10 d1     	sta	$d110                   ; 0xd110 <end_block9+0xa58c>
     b2e: 9c 00 d1     	stz	$d100                   ; 0xd100 <end_block9+0xa57c>
     b31: 9c 08 d1     	stz	$d108                   ; 0xd108 <end_block9+0xa584>
     b34: a2 01        	ldx	#$1
     b36: 8a           	txa
     b37: 05 7b        	ora	$7b                     ; 0x7b <_BITMAP_CLUT+0x2>
     b39: 8d 10 d1     	sta	$d110                   ; 0xd110 <end_block9+0xa58c>
     b3c: a0 08        	ldy	#$8
     b3e: 8c 8a 2a     	sty	$2a8a                   ; 0x2a8a <_spriteCtl>
     b41: 8c 00 d9     	sty	$d900                   ; 0xd900 <end_block9+0xad7c>
     b44: 9c 01 d9     	stz	$d901                   ; 0xd901 <end_block9+0xad7d>
     b47: a9 14        	lda	#$14
     b49: 8d 02 d9     	sta	$d902                   ; 0xd902 <end_block9+0xad7e>
     b4c: 8e 03 d9     	stx	$d903                   ; 0xd903 <end_block9+0xad7f>
     b4f: a9 80        	lda	#$80
     b51: 8d 04 d9     	sta	$d904                   ; 0xd904 <end_block9+0xad80>
     b54: aa           	tax
     b55: 9c 05 d9     	stz	$d905                   ; 0xd905 <end_block9+0xad81>
     b58: a9 dc        	lda	#$dc
     b5a: 8d 06 d9     	sta	$d906                   ; 0xd906 <end_block9+0xad82>
     b5d: 9c 07 d9     	stz	$d907                   ; 0xd907 <end_block9+0xad83>
     b60: a9 01        	lda	#$1
     b62: 0d 8a 2a     	ora	$2a8a                   ; 0x2a8a <_spriteCtl>
     b65: 8d 00 d9     	sta	$d900                   ; 0xd900 <end_block9+0xad7c>
     b68: 9c e9 2a     	stz	$2ae9                   ; 0x2ae9 <car_back_L>
     b6b: 8e ea 2a     	stx	$2aea                   ; 0x2aea <car_back_L+0x1>
     b6e: 9c eb 2a     	stz	$2aeb                   ; 0x2aeb <car_back_L+0x2>
     b71: a9 dc        	lda	#$dc
     b73: 8d ec 2a     	sta	$2aec                   ; 0x2aec <car_back_L+0x3>
     b76: 9c ed 2a     	stz	$2aed                   ; 0x2aed <car_back_L+0x4>
     b79: 9c ee 2a     	stz	$2aee                   ; 0x2aee <car_back_L+0x5>
     b7c: 9c ef 2a     	stz	$2aef                   ; 0x2aef <car_back_L+0x6>
     b7f: 9c f2 2a     	stz	$2af2                   ; 0x2af2 <car_back_L+0x9>
     b82: a2 14        	ldx	#$14
     b84: 8e f3 2a     	stx	$2af3                   ; 0x2af3 <car_back_L+0xa>
     b87: a2 01        	ldx	#$1
     b89: 8e f4 2a     	stx	$2af4                   ; 0x2af4 <car_back_L+0xb>
     b8c: 9c f5 2a     	stz	$2af5                   ; 0x2af5 <car_back_L+0xc>
     b8f: 9c f6 2a     	stz	$2af6                   ; 0x2af6 <car_back_L+0xd>
     b92: 9c f7 2a     	stz	$2af7                   ; 0x2af7 <car_back_L+0xe>
     b95: 9c f8 2a     	stz	$2af8                   ; 0x2af8 <car_back_L+0xf>
     b98: 9c f9 2a     	stz	$2af9                   ; 0x2af9 <car_back_L+0x10>
     b9b: 9c fa 2a     	stz	$2afa                   ; 0x2afa <car_back_L+0x11>
     b9e: 8c 8b 2a     	sty	$2a8b                   ; 0x2a8b <_spriteCtl+0x1>
     ba1: 8c 08 d9     	sty	$d908                   ; 0xd908 <end_block9+0xad84>
     ba4: 9c 09 d9     	stz	$d909                   ; 0xd909 <end_block9+0xad85>
     ba7: a2 18        	ldx	#$18
     ba9: 8e 0a d9     	stx	$d90a                   ; 0xd90a <end_block9+0xad86>
     bac: a2 01        	ldx	#$1
     bae: 8e 0b d9     	stx	$d90b                   ; 0xd90b <end_block9+0xad87>
     bb1: a2 a0        	ldx	#$a0
     bb3: 8e 0c d9     	stx	$d90c                   ; 0xd90c <end_block9+0xad88>
     bb6: 9c 0d d9     	stz	$d90d                   ; 0xd90d <end_block9+0xad89>
     bb9: 8d 0e d9     	sta	$d90e                   ; 0xd90e <end_block9+0xad8a>
     bbc: 9c 0f d9     	stz	$d90f                   ; 0xd90f <end_block9+0xad8b>
     bbf: a9 01        	lda	#$1
     bc1: 0d 8b 2a     	ora	$2a8b                   ; 0x2a8b <_spriteCtl+0x1>
     bc4: 8d 08 d9     	sta	$d908                   ; 0xd908 <end_block9+0xad84>
     bc7: a2 01        	ldx	#$1
     bc9: 8e 08 2b     	stx	$2b08                   ; 0x2b08 <car_back_R>
     bcc: a9 a0        	lda	#$a0
     bce: 8d 09 2b     	sta	$2b09                   ; 0x2b09 <car_back_R+0x1>
     bd1: 9c 0a 2b     	stz	$2b0a                   ; 0x2b0a <car_back_R+0x2>
     bd4: a9 dc        	lda	#$dc
     bd6: 8d 0b 2b     	sta	$2b0b                   ; 0x2b0b <car_back_R+0x3>
     bd9: 9c 0c 2b     	stz	$2b0c                   ; 0x2b0c <car_back_R+0x4>
     bdc: 9c 0d 2b     	stz	$2b0d                   ; 0x2b0d <car_back_R+0x5>
     bdf: 9c 0e 2b     	stz	$2b0e                   ; 0x2b0e <car_back_R+0x6>
     be2: 9c 11 2b     	stz	$2b11                   ; 0x2b11 <car_back_R+0x9>
     be5: a9 18        	lda	#$18
     be7: 8d 12 2b     	sta	$2b12                   ; 0x2b12 <car_back_R+0xa>
     bea: 8e 13 2b     	stx	$2b13                   ; 0x2b13 <car_back_R+0xb>
     bed: 8a           	txa
     bee: 9c 14 2b     	stz	$2b14                   ; 0x2b14 <car_back_R+0xc>
     bf1: 9c 15 2b     	stz	$2b15                   ; 0x2b15 <car_back_R+0xd>
     bf4: 9c 16 2b     	stz	$2b16                   ; 0x2b16 <car_back_R+0xe>
     bf7: 9c 17 2b     	stz	$2b17                   ; 0x2b17 <car_back_R+0xf>
     bfa: 9c 18 2b     	stz	$2b18                   ; 0x2b18 <car_back_R+0x10>
     bfd: 9c 19 2b     	stz	$2b19                   ; 0x2b19 <car_back_R+0x11>
     c00: 8c 8c 2a     	sty	$2a8c                   ; 0x2a8c <_spriteCtl+0x2>
     c03: 8c 10 d9     	sty	$d910                   ; 0xd910 <end_block9+0xad8c>
     c06: 9c 11 d9     	stz	$d911                   ; 0xd911 <end_block9+0xad8d>
     c09: a2 0c        	ldx	#$c
     c0b: 8e 12 d9     	stx	$d912                   ; 0xd912 <end_block9+0xad8e>
     c0e: 8d 13 d9     	sta	$d913                   ; 0xd913 <end_block9+0xad8f>
     c11: a2 80        	ldx	#$80
     c13: 8e 14 d9     	stx	$d914                   ; 0xd914 <end_block9+0xad90>
     c16: 9c 15 d9     	stz	$d915                   ; 0xd915 <end_block9+0xad91>
     c19: a9 dc        	lda	#$dc
     c1b: 8d 16 d9     	sta	$d916                   ; 0xd916 <end_block9+0xad92>
     c1e: 9c 17 d9     	stz	$d917                   ; 0xd917 <end_block9+0xad93>
     c21: a9 01        	lda	#$1
     c23: 0d 8c 2a     	ora	$2a8c                   ; 0x2a8c <_spriteCtl+0x2>
     c26: 8d 10 d9     	sta	$d910                   ; 0xd910 <end_block9+0xad8c>
     c29: a9 02        	lda	#$2
     c2b: 85 90        	sta	$90                     ; 0x90 <car_mid_L>
     c2d: 86 91        	stx	$91                     ; 0x91 <car_mid_L+0x1>
     c2f: 64 92        	stz	$92                     ; 0x92 <car_mid_L+0x2>
     c31: a9 dc        	lda	#$dc
     c33: 85 93        	sta	$93                     ; 0x93 <car_mid_L+0x3>
     c35: 64 94        	stz	$94                     ; 0x94 <car_mid_L+0x4>
     c37: 64 95        	stz	$95                     ; 0x95 <car_mid_L+0x5>
     c39: 64 96        	stz	$96                     ; 0x96 <car_mid_L+0x6>
     c3b: 64 99        	stz	$99                     ; 0x99 <car_mid_L+0x9>
     c3d: a2 0c        	ldx	#$c
     c3f: 86 9a        	stx	$9a                     ; 0x9a <car_mid_L+0xa>
     c41: a2 01        	ldx	#$1
     c43: 86 9b        	stx	$9b                     ; 0x9b <car_mid_L+0xb>
     c45: 64 9c        	stz	$9c                     ; 0x9c <car_mid_L+0xc>
     c47: 64 9d        	stz	$9d                     ; 0x9d <car_mid_L+0xd>
     c49: 64 9e        	stz	$9e                     ; 0x9e <car_mid_L+0xe>
     c4b: 64 9f        	stz	$9f                     ; 0x9f <car_mid_L+0xf>
     c4d: 64 a0        	stz	$a0                     ; 0xa0 <car_mid_L+0x10>
     c4f: 64 a1        	stz	$a1                     ; 0xa1 <car_mid_L+0x11>
     c51: 8c 8d 2a     	sty	$2a8d                   ; 0x2a8d <_spriteCtl+0x3>
     c54: 8c 18 d9     	sty	$d918                   ; 0xd918 <end_block9+0xad94>
     c57: 9c 19 d9     	stz	$d919                   ; 0xd919 <end_block9+0xad95>
     c5a: a0 10        	ldy	#$10
     c5c: 8c 1a d9     	sty	$d91a                   ; 0xd91a <end_block9+0xad96>
     c5f: 8e 1b d9     	stx	$d91b                   ; 0xd91b <end_block9+0xad97>
     c62: a2 a0        	ldx	#$a0
     c64: 8e 1c d9     	stx	$d91c                   ; 0xd91c <end_block9+0xad98>
     c67: 9c 1d d9     	stz	$d91d                   ; 0xd91d <end_block9+0xad99>
     c6a: 8d 1e d9     	sta	$d91e                   ; 0xd91e <end_block9+0xad9a>
     c6d: 9c 1f d9     	stz	$d91f                   ; 0xd91f <end_block9+0xad9b>
     c70: a9 01        	lda	#$1
     c72: 0d 8d 2a     	ora	$2a8d                   ; 0x2a8d <_spriteCtl+0x3>
     c75: 8d 18 d9     	sta	$d918                   ; 0xd918 <end_block9+0xad94>
     c78: 8c 31 2b     	sty	$2b31                   ; 0x2b31 <car_mid_R+0xa>
     c7b: a0 03        	ldy	#$3
     c7d: 8c 27 2b     	sty	$2b27                   ; 0x2b27 <car_mid_R>
     c80: 8e 28 2b     	stx	$2b28                   ; 0x2b28 <car_mid_R+0x1>
     c83: 9c 29 2b     	stz	$2b29                   ; 0x2b29 <car_mid_R+0x2>
     c86: a2 dc        	ldx	#$dc
     c88: 8e 2a 2b     	stx	$2b2a                   ; 0x2b2a <car_mid_R+0x3>
     c8b: 9c 2b 2b     	stz	$2b2b                   ; 0x2b2b <car_mid_R+0x4>
     c8e: 9c 2c 2b     	stz	$2b2c                   ; 0x2b2c <car_mid_R+0x5>
     c91: 9c 2d 2b     	stz	$2b2d                   ; 0x2b2d <car_mid_R+0x6>
     c94: 9c 30 2b     	stz	$2b30                   ; 0x2b30 <car_mid_R+0x9>
     c97: a0 01        	ldy	#$1
     c99: 8c 32 2b     	sty	$2b32                   ; 0x2b32 <car_mid_R+0xb>
     c9c: 9c 33 2b     	stz	$2b33                   ; 0x2b33 <car_mid_R+0xc>
     c9f: 9c 34 2b     	stz	$2b34                   ; 0x2b34 <car_mid_R+0xd>
     ca2: 9c 35 2b     	stz	$2b35                   ; 0x2b35 <car_mid_R+0xe>
     ca5: 9c 36 2b     	stz	$2b36                   ; 0x2b36 <car_mid_R+0xf>
     ca8: 9c 37 2b     	stz	$2b37                   ; 0x2b37 <car_mid_R+0x10>
     cab: 9c 38 2b     	stz	$2b38                   ; 0x2b38 <car_mid_R+0x11>
     cae: a2 08        	ldx	#$8
     cb0: 8e 8e 2a     	stx	$2a8e                   ; 0x2a8e <_spriteCtl+0x4>
     cb3: 8e 20 d9     	stx	$d920                   ; 0xd920 <end_block9+0xad9c>
     cb6: 9c 21 d9     	stz	$d921                   ; 0xd921 <end_block9+0xad9d>
     cb9: a2 04        	ldx	#$4
     cbb: 8e 22 d9     	stx	$d922                   ; 0xd922 <end_block9+0xad9e>
     cbe: 8c 23 d9     	sty	$d923                   ; 0xd923 <end_block9+0xad9f>
     cc1: a9 80        	lda	#$80
     cc3: 8d 24 d9     	sta	$d924                   ; 0xd924 <end_block9+0xada0>
     cc6: 9c 25 d9     	stz	$d925                   ; 0xd925 <end_block9+0xada1>
     cc9: a0 dc        	ldy	#$dc
     ccb: 8c 26 d9     	sty	$d926                   ; 0xd926 <end_block9+0xada2>
     cce: 9c 27 d9     	stz	$d927                   ; 0xd927 <end_block9+0xada3>
     cd1: a9 01        	lda	#$1
     cd3: 0d 8e 2a     	ora	$2a8e                   ; 0x2a8e <_spriteCtl+0x4>
     cd6: 8d 20 d9     	sta	$d920                   ; 0xd920 <end_block9+0xad9c>
     cd9: 8e 46 2b     	stx	$2b46                   ; 0x2b46 <car_front_L>
     cdc: 8e 50 2b     	stx	$2b50                   ; 0x2b50 <car_front_L+0xa>
     cdf: a2 80        	ldx	#$80
     ce1: 8e 47 2b     	stx	$2b47                   ; 0x2b47 <car_front_L+0x1>
     ce4: 9c 48 2b     	stz	$2b48                   ; 0x2b48 <car_front_L+0x2>
     ce7: a2 dc        	ldx	#$dc
     ce9: 8e 49 2b     	stx	$2b49                   ; 0x2b49 <car_front_L+0x3>
     cec: 9c 4a 2b     	stz	$2b4a                   ; 0x2b4a <car_front_L+0x4>
     cef: 9c 4b 2b     	stz	$2b4b                   ; 0x2b4b <car_front_L+0x5>
     cf2: 9c 4c 2b     	stz	$2b4c                   ; 0x2b4c <car_front_L+0x6>
     cf5: 9c 4f 2b     	stz	$2b4f                   ; 0x2b4f <car_front_L+0x9>
     cf8: a9 01        	lda	#$1
     cfa: 8d 51 2b     	sta	$2b51                   ; 0x2b51 <car_front_L+0xb>
     cfd: 9c 52 2b     	stz	$2b52                   ; 0x2b52 <car_front_L+0xc>
     d00: 9c 53 2b     	stz	$2b53                   ; 0x2b53 <car_front_L+0xd>
     d03: 9c 54 2b     	stz	$2b54                   ; 0x2b54 <car_front_L+0xe>
     d06: 9c 55 2b     	stz	$2b55                   ; 0x2b55 <car_front_L+0xf>
     d09: 9c 56 2b     	stz	$2b56                   ; 0x2b56 <car_front_L+0x10>
     d0c: 9c 57 2b     	stz	$2b57                   ; 0x2b57 <car_front_L+0x11>
     d0f: a0 08        	ldy	#$8
     d11: 8c 8f 2a     	sty	$2a8f                   ; 0x2a8f <_spriteCtl+0x5>
     d14: 8c 28 d9     	sty	$d928                   ; 0xd928 <end_block9+0xada4>
     d17: 9c 29 d9     	stz	$d929                   ; 0xd929 <end_block9+0xada5>
     d1a: 8c 2a d9     	sty	$d92a                   ; 0xd92a <end_block9+0xada6>
     d1d: 8d 2b d9     	sta	$d92b                   ; 0xd92b <end_block9+0xada7>
     d20: a0 a0        	ldy	#$a0
     d22: 8c 2c d9     	sty	$d92c                   ; 0xd92c <end_block9+0xada8>
     d25: 9c 2d d9     	stz	$d92d                   ; 0xd92d <end_block9+0xada9>
     d28: 8e 2e d9     	stx	$d92e                   ; 0xd92e <end_block9+0xadaa>
     d2b: 9c 2f d9     	stz	$d92f                   ; 0xd92f <end_block9+0xadab>
     d2e: 0d 8f 2a     	ora	$2a8f                   ; 0x2a8f <_spriteCtl+0x5>
     d31: 8d 28 d9     	sta	$d928                   ; 0xd928 <end_block9+0xada4>
     d34: a2 05        	ldx	#$5
     d36: 8e 65 2b     	stx	$2b65                   ; 0x2b65 <car_front_R>
     d39: 8c 66 2b     	sty	$2b66                   ; 0x2b66 <car_front_R+0x1>
     d3c: 9c 67 2b     	stz	$2b67                   ; 0x2b67 <car_front_R+0x2>
     d3f: a2 dc        	ldx	#$dc
     d41: 8e 68 2b     	stx	$2b68                   ; 0x2b68 <car_front_R+0x3>
     d44: 9c 69 2b     	stz	$2b69                   ; 0x2b69 <car_front_R+0x4>
     d47: 9c 6a 2b     	stz	$2b6a                   ; 0x2b6a <car_front_R+0x5>
     d4a: 9c 6b 2b     	stz	$2b6b                   ; 0x2b6b <car_front_R+0x6>
     d4d: 9c 6e 2b     	stz	$2b6e                   ; 0x2b6e <car_front_R+0x9>
     d50: a0 08        	ldy	#$8
     d52: 8c 6f 2b     	sty	$2b6f                   ; 0x2b6f <car_front_R+0xa>
     d55: a2 01        	ldx	#$1
     d57: 8e 70 2b     	stx	$2b70                   ; 0x2b70 <car_front_R+0xb>
     d5a: 9c 71 2b     	stz	$2b71                   ; 0x2b71 <car_front_R+0xc>
     d5d: 9c 72 2b     	stz	$2b72                   ; 0x2b72 <car_front_R+0xd>
     d60: 9c 73 2b     	stz	$2b73                   ; 0x2b73 <car_front_R+0xe>
     d63: 9c 74 2b     	stz	$2b74                   ; 0x2b74 <car_front_R+0xf>
     d66: 9c 75 2b     	stz	$2b75                   ; 0x2b75 <car_front_R+0x10>
     d69: 9c 76 2b     	stz	$2b76                   ; 0x2b76 <car_front_R+0x11>
     d6c: 8c 90 2a     	sty	$2a90                   ; 0x2a90 <_spriteCtl+0x6>
     d6f: 8c 30 d9     	sty	$d930                   ; 0xd930 <end_block9+0xadac>
     d72: 9c 31 d9     	stz	$d931                   ; 0xd931 <end_block9+0xadad>
     d75: a0 1c        	ldy	#$1c
     d77: 8c 32 d9     	sty	$d932                   ; 0xd932 <end_block9+0xadae>
     d7a: 8e 33 d9     	stx	$d933                   ; 0xd933 <end_block9+0xadaf>
     d7d: a9 a5        	lda	#$a5
     d7f: 8d 34 d9     	sta	$d934                   ; 0xd934 <end_block9+0xadb0>
     d82: 9c 35 d9     	stz	$d935                   ; 0xd935 <end_block9+0xadb1>
     d85: a2 aa        	ldx	#$aa
     d87: 8e 36 d9     	stx	$d936                   ; 0xd936 <end_block9+0xadb2>
     d8a: 9c 37 d9     	stz	$d937                   ; 0xd937 <end_block9+0xadb3>
     d8d: ac 90 2a     	ldy	$2a90                   ; 0x2a90 <_spriteCtl+0x6>
     d90: 8c 30 d9     	sty	$d930                   ; 0xd930 <end_block9+0xadac>
     d93: a0 06        	ldy	#$6
     d95: 8c ca 2a     	sty	$2aca                   ; 0x2aca <car_yel_L>
     d98: 8d cb 2a     	sta	$2acb                   ; 0x2acb <car_yel_L+0x1>
     d9b: 8e cd 2a     	stx	$2acd                   ; 0x2acd <car_yel_L+0x3>
     d9e: a2 03        	ldx	#$3
     da0: 8e cf 2a     	stx	$2acf                   ; 0x2acf <car_yel_L+0x5>
     da3: a2 1c        	ldx	#$1c
     da5: 8e d4 2a     	stx	$2ad4                   ; 0x2ad4 <car_yel_L+0xa>
     da8: 9c cc 2a     	stz	$2acc                   ; 0x2acc <car_yel_L+0x2>
     dab: 9c ce 2a     	stz	$2ace                   ; 0x2ace <car_yel_L+0x4>
     dae: 9c d0 2a     	stz	$2ad0                   ; 0x2ad0 <car_yel_L+0x6>
     db1: 9c d3 2a     	stz	$2ad3                   ; 0x2ad3 <car_yel_L+0x9>
     db4: a2 01        	ldx	#$1
     db6: 8e d5 2a     	stx	$2ad5                   ; 0x2ad5 <car_yel_L+0xb>
     db9: 9c d6 2a     	stz	$2ad6                   ; 0x2ad6 <car_yel_L+0xc>
     dbc: 9c d7 2a     	stz	$2ad7                   ; 0x2ad7 <car_yel_L+0xd>
     dbf: 9c d8 2a     	stz	$2ad8                   ; 0x2ad8 <car_yel_L+0xe>
     dc2: 9c d9 2a     	stz	$2ad9                   ; 0x2ad9 <car_yel_L+0xf>
     dc5: 8e da 2a     	stx	$2ada                   ; 0x2ada <car_yel_L+0x10>
     dc8: 8a           	txa
     dc9: 9c db 2a     	stz	$2adb                   ; 0x2adb <car_yel_L+0x11>
     dcc: a2 80        	ldx	#$80
     dce: 8e 04 d9     	stx	$d904                   ; 0xd904 <end_block9+0xad80>
     dd1: 9c 05 d9     	stz	$d905                   ; 0xd905 <end_block9+0xad81>
     dd4: a0 dc        	ldy	#$dc
     dd6: 8c 06 d9     	sty	$d906                   ; 0xd906 <end_block9+0xad82>
     dd9: 9c 07 d9     	stz	$d907                   ; 0xd907 <end_block9+0xad83>
     ddc: a2 a0        	ldx	#$a0
     dde: 8e 0c d9     	stx	$d90c                   ; 0xd90c <end_block9+0xad88>
     de1: 9c 0d d9     	stz	$d90d                   ; 0xd90d <end_block9+0xad89>
     de4: 8c 0e d9     	sty	$d90e                   ; 0xd90e <end_block9+0xad8a>
     de7: 9c 0f d9     	stz	$d90f                   ; 0xd90f <end_block9+0xad8b>
     dea: a2 81        	ldx	#$81
     dec: 8e 14 d9     	stx	$d914                   ; 0xd914 <end_block9+0xad90>
     def: 9c 15 d9     	stz	$d915                   ; 0xd915 <end_block9+0xad91>
     df2: 8c 16 d9     	sty	$d916                   ; 0xd916 <end_block9+0xad92>
     df5: 9c 17 d9     	stz	$d917                   ; 0xd917 <end_block9+0xad93>
     df8: a2 a1        	ldx	#$a1
     dfa: 8e 1c d9     	stx	$d91c                   ; 0xd91c <end_block9+0xad98>
     dfd: 9c 1d d9     	stz	$d91d                   ; 0xd91d <end_block9+0xad99>
     e00: 8c 1e d9     	sty	$d91e                   ; 0xd91e <end_block9+0xad9a>
     e03: 9c 1f d9     	stz	$d91f                   ; 0xd91f <end_block9+0xad9b>
     e06: a2 82        	ldx	#$82
     e08: 8e 24 d9     	stx	$d924                   ; 0xd924 <end_block9+0xada0>
     e0b: 9c 25 d9     	stz	$d925                   ; 0xd925 <end_block9+0xada1>
     e0e: 8c 26 d9     	sty	$d926                   ; 0xd926 <end_block9+0xada2>
     e11: 9c 27 d9     	stz	$d927                   ; 0xd927 <end_block9+0xada3>
     e14: a2 a2        	ldx	#$a2
     e16: 8e 2c d9     	stx	$d92c                   ; 0xd92c <end_block9+0xada8>
     e19: 9c 2d d9     	stz	$d92d                   ; 0xd92d <end_block9+0xada9>
     e1c: 8c 2e d9     	sty	$d92e                   ; 0xd92e <end_block9+0xadaa>
     e1f: 9c 2f d9     	stz	$d92f                   ; 0xd92f <end_block9+0xadab>
     e22: 8d 80 d8     	sta	$d880                   ; 0xd880 <end_block9+0xacfc>
     e25: 64 01        	stz	$1                      ; 0x1 <__data_size+0x1>
     e27: 60           	rts

00000e28 <midiShutAllChannels>:
     e28: aa           	tax
     e29: f0 04        	beq	$e2f <midiShutAllChannels+0x7>
     e2b: a2 b1        	ldx	#$b1
     e2d: 80 02        	bra	$e31 <midiShutAllChannels+0x9>
     e2f: a2 a1        	ldx	#$a1
     e31: 86 12        	stx	$12                     ; 0x12 <__rc2>
     e33: a2 dd        	ldx	#$dd
     e35: 86 13        	stx	$13                     ; 0x13 <__rc3>
     e37: a9 b0        	lda	#$b0
     e39: 92 12        	sta	($12)                   ; 0x12 <__rc2>
     e3b: aa           	tax
     e3c: a9 7b        	lda	#$7b
     e3e: 92 12        	sta	($12)                   ; 0x12 <__rc2>
     e40: a9 00        	lda	#$0
     e42: 92 12        	sta	($12)                   ; 0x12 <__rc2>
     e44: e8           	inx
     e45: 8a           	txa
     e46: e0 c0        	cpx	#$c0
     e48: d0 ef        	bne	$e39 <midiShutAllChannels+0x11>
     e4a: 60           	rts

00000e4b <midiShutUp>:
     e4b: aa           	tax
     e4c: f0 04        	beq	$e52 <midiShutUp+0x7>
     e4e: a2 b1        	ldx	#$b1
     e50: 80 02        	bra	$e54 <midiShutUp+0x9>
     e52: a2 a1        	ldx	#$a1
     e54: 86 12        	stx	$12                     ; 0x12 <__rc2>
     e56: a2 dd        	ldx	#$dd
     e58: 86 13        	stx	$13                     ; 0x13 <__rc3>
     e5a: a9 ff        	lda	#$ff
     e5c: 92 12        	sta	($12)                   ; 0x12 <__rc2>
     e5e: 60           	rts

00000e5f <resetInstruments>:
     e5f: aa           	tax
     e60: a0 a1        	ldy	#$a1
     e62: 84 12        	sty	$12                     ; 0x12 <__rc2>
     e64: a0 dd        	ldy	#$dd
     e66: 84 13        	sty	$13                     ; 0x13 <__rc3>
     e68: a0 b1        	ldy	#$b1
     e6a: 84 14        	sty	$14                     ; 0x14 <__rc4>
     e6c: a0 dd        	ldy	#$dd
     e6e: 84 15        	sty	$15                     ; 0x15 <__rc5>
     e70: a0 a1        	ldy	#$a1
     e72: 84 16        	sty	$16                     ; 0x16 <__rc6>
     e74: a0 dd        	ldy	#$dd
     e76: 84 17        	sty	$17                     ; 0x17 <__rc7>
     e78: a8           	tay
     e79: f0 08        	beq	$e83 <resetInstruments+0x24>
     e7b: a0 b1        	ldy	#$b1
     e7d: 84 16        	sty	$16                     ; 0x16 <__rc6>
     e7f: a0 dd        	ldy	#$dd
     e81: 84 17        	sty	$17                     ; 0x17 <__rc7>
     e83: a9 c0        	lda	#$c0
     e85: 92 16        	sta	($16)                   ; 0x16 <__rc6>
     e87: a8           	tay
     e88: a9 00        	lda	#$0
     e8a: 92 16        	sta	($16)                   ; 0x16 <__rc6>
     e8c: 98           	tya
     e8d: 1a           	inc
     e8e: c9 d0        	cmp	#$d0
     e90: d0 f3        	bne	$e85 <resetInstruments+0x26>
     e92: 8a           	txa
     e93: f0 08        	beq	$e9d <resetInstruments+0x3e>
     e95: a2 b1        	ldx	#$b1
     e97: 86 12        	stx	$12                     ; 0x12 <__rc2>
     e99: a2 dd        	ldx	#$dd
     e9b: 86 13        	stx	$13                     ; 0x13 <__rc3>
     e9d: a9 ff        	lda	#$ff
     e9f: 92 12        	sta	($12)                   ; 0x12 <__rc2>
     ea1: 60           	rts

00000ea2 <initMidiRecord>:
     ea2: 85 c9        	sta	$c9                     ; 0xc9 <__zp_bss_size+0x71>
     ea4: 86 c7        	stx	$c7                     ; 0xc7 <__zp_bss_size+0x6f>
     ea6: a6 14        	ldx	$14                     ; 0x14 <__rc4>
     ea8: 86 c4        	stx	$c4                     ; 0xc4 <__zp_bss_size+0x6c>
     eaa: a6 15        	ldx	$15                     ; 0x15 <__rc5>
     eac: 86 c2        	stx	$c2                     ; 0xc2 <__zp_bss_size+0x6a>
     eae: a6 16        	ldx	$16                     ; 0x16 <__rc6>
     eb0: 86 c8        	stx	$c8                     ; 0xc8 <__zp_bss_size+0x70>
     eb2: a6 17        	ldx	$17                     ; 0x17 <__rc7>
     eb4: 86 c6        	stx	$c6                     ; 0xc6 <__zp_bss_size+0x6e>
     eb6: a6 18        	ldx	$18                     ; 0x18 <__rc8>
     eb8: 86 c5        	stx	$c5                     ; 0xc5 <__zp_bss_size+0x6d>
     eba: a6 19        	ldx	$19                     ; 0x19 <__rc9>
     ebc: 86 c3        	stx	$c3                     ; 0xc3 <__zp_bss_size+0x6b>
     ebe: a6 12        	ldx	$12                     ; 0x12 <__rc2>
     ec0: 86 14        	stx	$14                     ; 0x14 <__rc4>
     ec2: a6 13        	ldx	$13                     ; 0x13 <__rc3>
     ec4: 86 15        	stx	$15                     ; 0x15 <__rc5>
     ec6: a6 12        	ldx	$12                     ; 0x12 <__rc2>
     ec8: 86 c0        	stx	$c0                     ; 0xc0 <__zp_bss_size+0x68>
     eca: a6 13        	ldx	$13                     ; 0x13 <__rc3>
     ecc: 86 c1        	stx	$c1                     ; 0xc1 <__zp_bss_size+0x69>
     ece: a5 14        	lda	$14                     ; 0x14 <__rc4>
     ed0: a6 14        	ldx	$14                     ; 0x14 <__rc4>
     ed2: 86 ca        	stx	$ca                     ; 0xca <__zp_bss_size+0x72>
     ed4: 18           	clc
     ed5: 69 22        	adc	#$22
     ed7: a8           	tay
     ed8: a6 15        	ldx	$15                     ; 0x15 <__rc5>
     eda: 86 bf        	stx	$bf                     ; 0xbf <__zp_bss_size+0x67>
     edc: a5 bf        	lda	$bf                     ; 0xbf <__zp_bss_size+0x67>
     ede: 69 00        	adc	#$0
     ee0: 84 12        	sty	$12                     ; 0x12 <__rc2>
     ee2: 85 13        	sta	$13                     ; 0x13 <__rc3>
     ee4: a0 22        	ldy	#$22
     ee6: a9 00        	lda	#$0
     ee8: 91 14        	sta	($14),y                 ; 0x14 <__rc4>
     eea: a0 01        	ldy	#$1
     eec: 91 12        	sta	($12),y                 ; 0x12 <__rc2>
     eee: c8           	iny
     eef: 91 12        	sta	($12),y                 ; 0x12 <__rc2>
     ef1: c8           	iny
     ef2: 91 12        	sta	($12),y                 ; 0x12 <__rc2>
     ef4: aa           	tax
     ef5: a9 40        	lda	#$40
     ef7: 20 02 27     	jsr	$2702 <malloc>
     efa: a9 30        	lda	#$30
     efc: a0 0c        	ldy	#$c
     efe: a6 c0        	ldx	$c0                     ; 0xc0 <__zp_bss_size+0x68>
     f00: 86 16        	stx	$16                     ; 0x16 <__rc6>
     f02: a6 c1        	ldx	$c1                     ; 0xc1 <__zp_bss_size+0x69>
     f04: 86 17        	stx	$17                     ; 0x17 <__rc7>
     f06: 91 16        	sta	($16),y                 ; 0x16 <__rc6>
     f08: a9 43        	lda	#$43
     f0a: a0 14        	ldy	#$14
     f0c: 91 16        	sta	($16),y                 ; 0x16 <__rc6>
     f0e: a6 ca        	ldx	$ca                     ; 0xca <__zp_bss_size+0x72>
     f10: 8a           	txa
     f11: 18           	clc
     f12: 69 14        	adc	#$14
     f14: 85 14        	sta	$14                     ; 0x14 <__rc4>
     f16: a5 bf        	lda	$bf                     ; 0xbf <__zp_bss_size+0x67>
     f18: 69 00        	adc	#$0
     f1a: 85 15        	sta	$15                     ; 0x15 <__rc5>
     f1c: a0 04        	ldy	#$4
     f1e: a9 71        	lda	#$71
     f20: 91 14        	sta	($14),y                 ; 0x14 <__rc4>
     f22: a9 2a        	lda	#$2a
     f24: c8           	iny
     f25: 91 14        	sta	($14),y                 ; 0x14 <__rc4>
     f27: a5 12        	lda	$12                     ; 0x12 <__rc2>
     f29: c8           	iny
     f2a: 91 16        	sta	($16),y                 ; 0x16 <__rc6>
     f2c: a9 39        	lda	#$39
     f2e: 91 14        	sta	($14),y                 ; 0x14 <__rc4>
     f30: c8           	iny
     f31: a9 40        	lda	#$40
     f33: 91 14        	sta	($14),y                 ; 0x14 <__rc4>
     f35: a0 1c        	ldy	#$1c
     f37: a9 04        	lda	#$4
     f39: 91 16        	sta	($16),y                 ; 0x16 <__rc6>
     f3b: a9 02        	lda	#$2
     f3d: c8           	iny
     f3e: 91 16        	sta	($16),y                 ; 0x16 <__rc6>
     f40: a9 18        	lda	#$18
     f42: c8           	iny
     f43: 91 16        	sta	($16),y                 ; 0x16 <__rc6>
     f45: a9 08        	lda	#$8
     f47: c8           	iny
     f48: 91 16        	sta	($16),y                 ; 0x16 <__rc6>
     f4a: a8           	tay
     f4b: a9 00        	lda	#$0
     f4d: 91 16        	sta	($16),y                 ; 0x16 <__rc6>
     f4f: a0 0a        	ldy	#$a
     f51: 91 16        	sta	($16),y                 ; 0x16 <__rc6>
     f53: a0 10        	ldy	#$10
     f55: 91 16        	sta	($16),y                 ; 0x16 <__rc6>
     f57: a0 28        	ldy	#$28
     f59: 91 16        	sta	($16),y                 ; 0x16 <__rc6>
     f5b: a0 26        	ldy	#$26
     f5d: 91 16        	sta	($16),y                 ; 0x16 <__rc6>
     f5f: a0 2c        	ldy	#$2c
     f61: a5 c9        	lda	$c9                     ; 0xc9 <__zp_bss_size+0x71>
     f63: 91 16        	sta	($16),y                 ; 0x16 <__rc6>
     f65: a5 c8        	lda	$c8                     ; 0xc8 <__zp_bss_size+0x70>
     f67: a0 30        	ldy	#$30
     f69: 91 16        	sta	($16),y                 ; 0x16 <__rc6>
     f6b: 8a           	txa
     f6c: 18           	clc
     f6d: 69 06        	adc	#$6
     f6f: 85 16        	sta	$16                     ; 0x16 <__rc6>
     f71: a5 bf        	lda	$bf                     ; 0xbf <__zp_bss_size+0x67>
     f73: 69 00        	adc	#$0
     f75: 85 17        	sta	$17                     ; 0x17 <__rc7>
     f77: a5 13        	lda	$13                     ; 0x13 <__rc3>
     f79: a0 01        	ldy	#$1
     f7b: 91 16        	sta	($16),y                 ; 0x16 <__rc6>
     f7d: 8a           	txa
     f7e: 18           	clc
     f7f: 69 08        	adc	#$8
     f81: 85 12        	sta	$12                     ; 0x12 <__rc2>
     f83: a5 bf        	lda	$bf                     ; 0xbf <__zp_bss_size+0x67>
     f85: 69 00        	adc	#$0
     f87: 85 13        	sta	$13                     ; 0x13 <__rc3>
     f89: a5 12        	lda	$12                     ; 0x12 <__rc2>
     f8b: 85 c0        	sta	$c0                     ; 0xc0 <__zp_bss_size+0x68>
     f8d: a5 13        	lda	$13                     ; 0x13 <__rc3>
     f8f: 85 c1        	sta	$c1                     ; 0xc1 <__zp_bss_size+0x69>
     f91: 8a           	txa
     f92: 18           	clc
     f93: 69 0a        	adc	#$a
     f95: 85 18        	sta	$18                     ; 0x18 <__rc8>
     f97: a5 bf        	lda	$bf                     ; 0xbf <__zp_bss_size+0x67>
     f99: 69 00        	adc	#$0
     f9b: 85 19        	sta	$19                     ; 0x19 <__rc9>
     f9d: 8a           	txa
     f9e: 18           	clc
     f9f: 69 0c        	adc	#$c
     fa1: 85 16        	sta	$16                     ; 0x16 <__rc6>
     fa3: a5 bf        	lda	$bf                     ; 0xbf <__zp_bss_size+0x67>
     fa5: 69 00        	adc	#$0
     fa7: 85 17        	sta	$17                     ; 0x17 <__rc7>
     fa9: 8a           	txa
     faa: 18           	clc
     fab: 69 10        	adc	#$10
     fad: 85 1a        	sta	$1a                     ; 0x1a <__rc10>
     faf: a5 bf        	lda	$bf                     ; 0xbf <__zp_bss_size+0x67>
     fb1: 69 00        	adc	#$0
     fb3: 85 1b        	sta	$1b                     ; 0x1b <__rc11>
     fb5: a9 ad        	lda	#$ad
     fb7: 91 14        	sta	($14),y                 ; 0x14 <__rc4>
     fb9: 8a           	txa
     fba: 18           	clc
     fbb: 69 28        	adc	#$28
     fbd: 85 1c        	sta	$1c                     ; 0x1c <__rc12>
     fbf: a5 bf        	lda	$bf                     ; 0xbf <__zp_bss_size+0x67>
     fc1: 69 00        	adc	#$0
     fc3: 85 1d        	sta	$1d                     ; 0x1d <__rc13>
     fc5: 8a           	txa
     fc6: 18           	clc
     fc7: 69 26        	adc	#$26
     fc9: 85 1e        	sta	$1e                     ; 0x1e <__rc14>
     fcb: a5 bf        	lda	$bf                     ; 0xbf <__zp_bss_size+0x67>
     fcd: 69 00        	adc	#$0
     fcf: 85 1f        	sta	$1f                     ; 0x1f <__rc15>
     fd1: 8a           	txa
     fd2: 18           	clc
     fd3: 69 2c        	adc	#$2c
     fd5: 85 22        	sta	$22                     ; 0x22 <__rc18>
     fd7: a5 bf        	lda	$bf                     ; 0xbf <__zp_bss_size+0x67>
     fd9: 69 00        	adc	#$0
     fdb: 85 23        	sta	$23                     ; 0x23 <__rc19>
     fdd: a5 c7        	lda	$c7                     ; 0xc7 <__zp_bss_size+0x6f>
     fdf: 91 22        	sta	($22),y                 ; 0x22 <__rc18>
     fe1: 8a           	txa
     fe2: 18           	clc
     fe3: 69 30        	adc	#$30
     fe5: 85 12        	sta	$12                     ; 0x12 <__rc2>
     fe7: a5 bf        	lda	$bf                     ; 0xbf <__zp_bss_size+0x67>
     fe9: 69 00        	adc	#$0
     feb: 85 13        	sta	$13                     ; 0x13 <__rc3>
     fed: a5 c6        	lda	$c6                     ; 0xc6 <__zp_bss_size+0x6e>
     fef: 91 12        	sta	($12),y                 ; 0x12 <__rc2>
     ff1: a9 00        	lda	#$0
     ff3: a6 c0        	ldx	$c0                     ; 0xc0 <__zp_bss_size+0x68>
     ff5: 86 bd        	stx	$bd                     ; 0xbd <__zp_bss_size+0x65>
     ff7: a6 c1        	ldx	$c1                     ; 0xc1 <__zp_bss_size+0x69>
     ff9: 86 be        	stx	$be                     ; 0xbe <__zp_bss_size+0x66>
     ffb: 91 bd        	sta	($bd),y                 ; 0xbd <__zp_bss_size+0x65>
     ffd: 91 18        	sta	($18),y                 ; 0x18 <__rc8>
     fff: 91 16        	sta	($16),y                 ; 0x16 <__rc6>
    1001: 91 1a        	sta	($1a),y                 ; 0x1a <__rc10>
    1003: 91 1c        	sta	($1c),y                 ; 0x1c <__rc12>
    1005: 91 1e        	sta	($1e),y                 ; 0x1e <__rc14>
    1007: a9 69        	lda	#$69
    1009: c8           	iny
    100a: 91 14        	sta	($14),y                 ; 0x14 <__rc4>
    100c: a5 c4        	lda	$c4                     ; 0xc4 <__zp_bss_size+0x6c>
    100e: 91 22        	sta	($22),y                 ; 0x22 <__rc18>
    1010: a9 00        	lda	#$0
    1012: 91 16        	sta	($16),y                 ; 0x16 <__rc6>
    1014: 91 1a        	sta	($1a),y                 ; 0x1a <__rc10>
    1016: a5 c5        	lda	$c5                     ; 0xc5 <__zp_bss_size+0x6d>
    1018: 91 12        	sta	($12),y                 ; 0x12 <__rc2>
    101a: c8           	iny
    101b: a9 00        	lda	#$0
    101d: 91 16        	sta	($16),y                 ; 0x16 <__rc6>
    101f: 91 1a        	sta	($1a),y                 ; 0x1a <__rc10>
    1021: a9 de        	lda	#$de
    1023: 91 14        	sta	($14),y                 ; 0x14 <__rc4>
    1025: a5 c2        	lda	$c2                     ; 0xc2 <__zp_bss_size+0x6a>
    1027: 91 22        	sta	($22),y                 ; 0x22 <__rc18>
    1029: a5 c3        	lda	$c3                     ; 0xc3 <__zp_bss_size+0x6b>
    102b: 91 12        	sta	($12),y                 ; 0x12 <__rc2>
    102d: 60           	rts

0000102e <initBigList>:
    102e: a9 00        	lda	#$0
    1030: 92 12        	sta	($12)                   ; 0x12 <__rc2>
    1032: a6 12        	ldx	$12                     ; 0x12 <__rc2>
    1034: 86 14        	stx	$14                     ; 0x14 <__rc4>
    1036: a6 13        	ldx	$13                     ; 0x13 <__rc3>
    1038: 86 15        	stx	$15                     ; 0x15 <__rc5>
    103a: e6 14        	inc	$14                     ; 0x14 <__rc4>
    103c: d0 02        	bne	$1040 <initBigList+0x12>
    103e: e6 15        	inc	$15                     ; 0x15 <__rc5>
    1040: a0 01        	ldy	#$1
    1042: 91 12        	sta	($12),y                 ; 0x12 <__rc2>
    1044: 91 14        	sta	($14),y                 ; 0x14 <__rc4>
    1046: a5 12        	lda	$12                     ; 0x12 <__rc2>
    1048: 18           	clc
    1049: 69 03        	adc	#$3
    104b: 85 14        	sta	$14                     ; 0x14 <__rc4>
    104d: a5 13        	lda	$13                     ; 0x13 <__rc3>
    104f: 69 00        	adc	#$0
    1051: 85 15        	sta	$15                     ; 0x15 <__rc5>
    1053: a2 00        	ldx	#$0
    1055: 86 16        	stx	$16                     ; 0x16 <__rc6>
    1057: a2 00        	ldx	#$0
    1059: 86 17        	stx	$17                     ; 0x17 <__rc7>
    105b: a5 16        	lda	$16                     ; 0x16 <__rc6>
    105d: a0 03        	ldy	#$3
    105f: 91 12        	sta	($12),y                 ; 0x12 <__rc2>
    1061: a0 01        	ldy	#$1
    1063: a5 17        	lda	$17                     ; 0x17 <__rc7>
    1065: 91 14        	sta	($14),y                 ; 0x14 <__rc4>
    1067: 60           	rts

00001068 <getTotalLeft>:
    1068: a6 12        	ldx	$12                     ; 0x12 <__rc2>
    106a: 86 14        	stx	$14                     ; 0x14 <__rc4>
    106c: a6 13        	ldx	$13                     ; 0x13 <__rc3>
    106e: 86 15        	stx	$15                     ; 0x15 <__rc5>
    1070: e6 14        	inc	$14                     ; 0x14 <__rc4>
    1072: d0 02        	bne	$1076 <getTotalLeft+0xe>
    1074: e6 15        	inc	$15                     ; 0x15 <__rc5>
    1076: a0 01        	ldy	#$1
    1078: b1 12        	lda	($12),y                 ; 0x12 <__rc2>
    107a: 85 17        	sta	$17                     ; 0x17 <__rc7>
    107c: b1 14        	lda	($14),y                 ; 0x14 <__rc4>
    107e: d0 07        	bne	$1087 <getTotalLeft+0x1f>
    1080: a6 17        	ldx	$17                     ; 0x17 <__rc7>
    1082: d0 03        	bne	$1087 <getTotalLeft+0x1f>
    1084: 4c f2 10     	jmp	$10f2 <getTotalLeft+0x8a>
    1087: aa           	tax
    1088: a4 17        	ldy	$17                     ; 0x17 <__rc7>
    108a: 84 16        	sty	$16                     ; 0x16 <__rc6>
    108c: a5 12        	lda	$12                     ; 0x12 <__rc2>
    108e: 18           	clc
    108f: 69 03        	adc	#$3
    1091: 85 14        	sta	$14                     ; 0x14 <__rc4>
    1093: a5 13        	lda	$13                     ; 0x13 <__rc3>
    1095: 69 00        	adc	#$0
    1097: 85 15        	sta	$15                     ; 0x15 <__rc5>
    1099: a0 03        	ldy	#$3
    109b: b1 12        	lda	($12),y                 ; 0x12 <__rc2>
    109d: 85 18        	sta	$18                     ; 0x18 <__rc8>
    109f: a0 01        	ldy	#$1
    10a1: b1 14        	lda	($14),y                 ; 0x14 <__rc4>
    10a3: 85 19        	sta	$19                     ; 0x19 <__rc9>
    10a5: e6 18        	inc	$18                     ; 0x18 <__rc8>
    10a7: d0 02        	bne	$10ab <getTotalLeft+0x43>
    10a9: e6 19        	inc	$19                     ; 0x19 <__rc9>
    10ab: a9 00        	lda	#$0
    10ad: 64 15        	stz	$15                     ; 0x15 <__rc5>
    10af: 64 12        	stz	$12                     ; 0x12 <__rc2>
    10b1: 64 13        	stz	$13                     ; 0x13 <__rc3>
    10b3: 86 14        	stx	$14                     ; 0x14 <__rc4>
    10b5: 80 04        	bra	$10bb <getTotalLeft+0x53>
    10b7: a6 14        	ldx	$14                     ; 0x14 <__rc4>
    10b9: f0 30        	beq	$10eb <getTotalLeft+0x83>
    10bb: 18           	clc
    10bc: 72 18        	adc	($18)                   ; 0x18 <__rc8>
    10be: aa           	tax
    10bf: a5 15        	lda	$15                     ; 0x15 <__rc5>
    10c1: 71 18        	adc	($18),y                 ; 0x18 <__rc8>
    10c3: 85 15        	sta	$15                     ; 0x15 <__rc5>
    10c5: a5 12        	lda	$12                     ; 0x12 <__rc2>
    10c7: 69 00        	adc	#$0
    10c9: 85 12        	sta	$12                     ; 0x12 <__rc2>
    10cb: a5 13        	lda	$13                     ; 0x13 <__rc3>
    10cd: 69 00        	adc	#$0
    10cf: 85 13        	sta	$13                     ; 0x13 <__rc3>
    10d1: a5 18        	lda	$18                     ; 0x18 <__rc8>
    10d3: 18           	clc
    10d4: 69 07        	adc	#$7
    10d6: 85 18        	sta	$18                     ; 0x18 <__rc8>
    10d8: a5 19        	lda	$19                     ; 0x19 <__rc9>
    10da: 69 00        	adc	#$0
    10dc: 85 19        	sta	$19                     ; 0x19 <__rc9>
    10de: 8a           	txa
    10df: a2 ff        	ldx	#$ff
    10e1: c6 16        	dec	$16                     ; 0x16 <__rc6>
    10e3: e4 16        	cpx	$16                     ; 0x16 <__rc6>
    10e5: d0 d0        	bne	$10b7 <getTotalLeft+0x4f>
    10e7: c6 14        	dec	$14                     ; 0x14 <__rc4>
    10e9: 80 cc        	bra	$10b7 <getTotalLeft+0x4f>
    10eb: a6 16        	ldx	$16                     ; 0x16 <__rc6>
    10ed: d0 cc        	bne	$10bb <getTotalLeft+0x53>
    10ef: a6 15        	ldx	$15                     ; 0x15 <__rc5>
    10f1: 60           	rts
    10f2: a9 00        	lda	#$0
    10f4: 64 15        	stz	$15                     ; 0x15 <__rc5>
    10f6: 64 12        	stz	$12                     ; 0x12 <__rc2>
    10f8: 64 13        	stz	$13                     ; 0x13 <__rc3>
    10fa: a6 15        	ldx	$15                     ; 0x15 <__rc5>
    10fc: 60           	rts

000010fd <playEmbeddedDim>:
    10fd: 48           	pha
    10fe: 18           	clc
    10ff: a5 10        	lda	$10                     ; 0x10 <__rc0>
    1101: 69 b9        	adc	#$b9
    1103: 85 10        	sta	$10                     ; 0x10 <__rc0>
    1105: a5 11        	lda	$11                     ; 0x11 <__rc1>
    1107: 69 ff        	adc	#$ff
    1109: 85 11        	sta	$11                     ; 0x11 <__rc1>
    110b: 68           	pla
    110c: a4 24        	ldy	$24                     ; 0x24 <__rc20>
    110e: 5a           	phy
    110f: a4 25        	ldy	$25                     ; 0x25 <__rc21>
    1111: 5a           	phy
    1112: a4 26        	ldy	$26                     ; 0x26 <__rc22>
    1114: 5a           	phy
    1115: a4 27        	ldy	$27                     ; 0x27 <__rc23>
    1117: 5a           	phy
    1118: 48           	pha
    1119: a5 28        	lda	$28                     ; 0x28 <__rc24>
    111b: a0 07        	ldy	#$7
    111d: 91 10        	sta	($10),y                 ; 0x10 <__rc0>
    111f: a5 29        	lda	$29                     ; 0x29 <__rc25>
    1121: 88           	dey
    1122: 91 10        	sta	($10),y                 ; 0x10 <__rc0>
    1124: a5 2a        	lda	$2a                     ; 0x2a <__rc26>
    1126: 88           	dey
    1127: 91 10        	sta	($10),y                 ; 0x10 <__rc0>
    1129: a5 2b        	lda	$2b                     ; 0x2b <__rc27>
    112b: 88           	dey
    112c: 91 10        	sta	($10),y                 ; 0x10 <__rc0>
    112e: a5 2c        	lda	$2c                     ; 0x2c <__rc28>
    1130: 88           	dey
    1131: 91 10        	sta	($10),y                 ; 0x10 <__rc0>
    1133: a5 2d        	lda	$2d                     ; 0x2d <__rc29>
    1135: 88           	dey
    1136: 91 10        	sta	($10),y                 ; 0x10 <__rc0>
    1138: a5 2e        	lda	$2e                     ; 0x2e <__rc30>
    113a: 88           	dey
    113b: 91 10        	sta	($10),y                 ; 0x10 <__rc0>
    113d: a5 2f        	lda	$2f                     ; 0x2f <__rc31>
    113f: 88           	dey
    1140: 91 10        	sta	($10),y                 ; 0x10 <__rc0>
    1142: 68           	pla
    1143: 85 2d        	sta	$2d                     ; 0x2d <__rc29>
    1145: 86 2c        	stx	$2c                     ; 0x2c <__rc28>
    1147: a6 12        	ldx	$12                     ; 0x12 <__rc2>
    1149: 86 2b        	stx	$2b                     ; 0x2b <__rc27>
    114b: a6 13        	ldx	$13                     ; 0x13 <__rc3>
    114d: 86 2a        	stx	$2a                     ; 0x2a <__rc26>
    114f: 18           	clc
    1150: a5 10        	lda	$10                     ; 0x10 <__rc0>
    1152: 69 42        	adc	#$42
    1154: 85 29        	sta	$29                     ; 0x29 <__rc25>
    1156: a5 11        	lda	$11                     ; 0x11 <__rc1>
    1158: 69 00        	adc	#$0
    115a: 85 28        	sta	$28                     ; 0x28 <__rc24>
    115c: a6 29        	ldx	$29                     ; 0x29 <__rc25>
    115e: 86 24        	stx	$24                     ; 0x24 <__rc20>
    1160: 85 25        	sta	$25                     ; 0x25 <__rc21>
    1162: a6 24        	ldx	$24                     ; 0x24 <__rc20>
    1164: 86 12        	stx	$12                     ; 0x12 <__rc2>
    1166: 85 13        	sta	$13                     ; 0x13 <__rc3>
    1168: 20 2e 10     	jsr	$102e <initBigList>
    116b: a6 2b        	ldx	$2b                     ; 0x2b <__rc27>
    116d: 86 12        	stx	$12                     ; 0x12 <__rc2>
    116f: a6 2a        	ldx	$2a                     ; 0x2a <__rc26>
    1171: 86 13        	stx	$13                     ; 0x13 <__rc3>
    1173: a6 2c        	ldx	$2c                     ; 0x2c <__rc28>
    1175: a5 2d        	lda	$2d                     ; 0x2d <__rc29>
    1177: 20 dd 09     	jsr	$9dd <FAR_PEEK>
    117a: 85 26        	sta	$26                     ; 0x26 <__rc22>
    117c: a6 2a        	ldx	$2a                     ; 0x2a <__rc26>
    117e: 86 13        	stx	$13                     ; 0x13 <__rc3>
    1180: a5 2d        	lda	$2d                     ; 0x2d <__rc29>
    1182: a6 2b        	ldx	$2b                     ; 0x2b <__rc27>
    1184: 86 12        	stx	$12                     ; 0x12 <__rc2>
    1186: a6 2c        	ldx	$2c                     ; 0x2c <__rc28>
    1188: 1a           	inc
    1189: d0 09        	bne	$1194 <playEmbeddedDim+0x97>
    118b: e8           	inx
    118c: d0 06        	bne	$1194 <playEmbeddedDim+0x97>
    118e: e6 12        	inc	$12                     ; 0x12 <__rc2>
    1190: d0 02        	bne	$1194 <playEmbeddedDim+0x97>
    1192: e6 13        	inc	$13                     ; 0x13 <__rc3>
    1194: 20 dd 09     	jsr	$9dd <FAR_PEEK>
    1197: 85 27        	sta	$27                     ; 0x27 <__rc23>
    1199: a6 24        	ldx	$24                     ; 0x24 <__rc20>
    119b: 86 12        	stx	$12                     ; 0x12 <__rc2>
    119d: a6 25        	ldx	$25                     ; 0x25 <__rc21>
    119f: 86 13        	stx	$13                     ; 0x13 <__rc3>
    11a1: e6 12        	inc	$12                     ; 0x12 <__rc2>
    11a3: d0 02        	bne	$11a7 <playEmbeddedDim+0xaa>
    11a5: e6 13        	inc	$13                     ; 0x13 <__rc3>
    11a7: a0 01        	ldy	#$1
    11a9: a5 26        	lda	$26                     ; 0x26 <__rc22>
    11ab: 91 24        	sta	($24),y                 ; 0x24 <__rc20>
    11ad: a5 27        	lda	$27                     ; 0x27 <__rc23>
    11af: 91 12        	sta	($12),y                 ; 0x12 <__rc2>
    11b1: a5 26        	lda	$26                     ; 0x26 <__rc22>
    11b3: 0a           	asl
    11b4: aa           	tax
    11b5: a5 27        	lda	$27                     ; 0x27 <__rc23>
    11b7: 2a           	rol
    11b8: 86 12        	stx	$12                     ; 0x12 <__rc2>
    11ba: 06 12        	asl	$12                     ; 0x12 <__rc2>
    11bc: 2a           	rol
    11bd: 06 12        	asl	$12                     ; 0x12 <__rc2>
    11bf: 2a           	rol
    11c0: aa           	tax
    11c1: 38           	sec
    11c2: a5 12        	lda	$12                     ; 0x12 <__rc2>
    11c4: e5 26        	sbc	$26                     ; 0x26 <__rc22>
    11c6: a8           	tay
    11c7: 8a           	txa
    11c8: e5 27        	sbc	$27                     ; 0x27 <__rc23>
    11ca: aa           	tax
    11cb: 98           	tya
    11cc: 20 02 27     	jsr	$2702 <malloc>
    11cf: 18           	clc
    11d0: a5 29        	lda	$29                     ; 0x29 <__rc25>
    11d2: a0 0c        	ldy	#$c
    11d4: 91 10        	sta	($10),y                 ; 0x10 <__rc0>
    11d6: 69 03        	adc	#$3
    11d8: aa           	tax
    11d9: a5 28        	lda	$28                     ; 0x28 <__rc24>
    11db: c8           	iny
    11dc: 91 10        	sta	($10),y                 ; 0x10 <__rc0>
    11de: 69 00        	adc	#$0
    11e0: 86 14        	stx	$14                     ; 0x14 <__rc4>
    11e2: a0 03        	ldy	#$3
    11e4: 85 15        	sta	$15                     ; 0x15 <__rc5>
    11e6: a5 12        	lda	$12                     ; 0x12 <__rc2>
    11e8: 91 24        	sta	($24),y                 ; 0x24 <__rc20>
    11ea: a5 13        	lda	$13                     ; 0x13 <__rc3>
    11ec: a0 01        	ldy	#$1
    11ee: 91 14        	sta	($14),y                 ; 0x14 <__rc4>
    11f0: a5 2d        	lda	$2d                     ; 0x2d <__rc29>
    11f2: 18           	clc
    11f3: 69 02        	adc	#$2
    11f5: 85 16        	sta	$16                     ; 0x16 <__rc6>
    11f7: a5 2c        	lda	$2c                     ; 0x2c <__rc28>
    11f9: 69 00        	adc	#$0
    11fb: 85 17        	sta	$17                     ; 0x17 <__rc7>
    11fd: a5 2b        	lda	$2b                     ; 0x2b <__rc27>
    11ff: 69 00        	adc	#$0
    1201: 85 18        	sta	$18                     ; 0x18 <__rc8>
    1203: a5 2a        	lda	$2a                     ; 0x2a <__rc26>
    1205: 69 00        	adc	#$0
    1207: 85 19        	sta	$19                     ; 0x19 <__rc9>
    1209: a5 27        	lda	$27                     ; 0x27 <__rc23>
    120b: d0 07        	bne	$1214 <playEmbeddedDim+0x117>
    120d: a5 26        	lda	$26                     ; 0x26 <__rc22>
    120f: d0 03        	bne	$1214 <playEmbeddedDim+0x117>
    1211: 4c 47 13     	jmp	$1347 <playEmbeddedDim+0x24a>
    1214: a2 01        	ldx	#$1
    1216: 8a           	txa
    1217: a0 09        	ldy	#$9
    1219: 91 10        	sta	($10),y                 ; 0x10 <__rc0>
    121b: a5 27        	lda	$27                     ; 0x27 <__rc23>
    121d: c8           	iny
    121e: 91 10        	sta	($10),y                 ; 0x10 <__rc0>
    1220: a5 26        	lda	$26                     ; 0x26 <__rc22>
    1222: c8           	iny
    1223: 91 10        	sta	($10),y                 ; 0x10 <__rc0>
    1225: a4 19        	ldy	$19                     ; 0x19 <__rc9>
    1227: 84 26        	sty	$26                     ; 0x26 <__rc22>
    1229: a4 19        	ldy	$19                     ; 0x19 <__rc9>
    122b: 84 2b        	sty	$2b                     ; 0x2b <__rc27>
    122d: a4 18        	ldy	$18                     ; 0x18 <__rc8>
    122f: 84 29        	sty	$29                     ; 0x29 <__rc25>
    1231: a4 18        	ldy	$18                     ; 0x18 <__rc8>
    1233: 84 2d        	sty	$2d                     ; 0x2d <__rc29>
    1235: a4 17        	ldy	$17                     ; 0x17 <__rc7>
    1237: 84 27        	sty	$27                     ; 0x27 <__rc23>
    1239: a4 17        	ldy	$17                     ; 0x17 <__rc7>
    123b: 84 2e        	sty	$2e                     ; 0x2e <__rc30>
    123d: a4 16        	ldy	$16                     ; 0x16 <__rc6>
    123f: 84 2c        	sty	$2c                     ; 0x2c <__rc28>
    1241: a4 16        	ldy	$16                     ; 0x16 <__rc6>
    1243: 84 2f        	sty	$2f                     ; 0x2f <__rc31>
    1245: 86 28        	stx	$28                     ; 0x28 <__rc24>
    1247: c6 28        	dec	$28                     ; 0x28 <__rc24>
    1249: a6 18        	ldx	$18                     ; 0x18 <__rc8>
    124b: 86 12        	stx	$12                     ; 0x12 <__rc2>
    124d: a6 19        	ldx	$19                     ; 0x19 <__rc9>
    124f: 86 13        	stx	$13                     ; 0x13 <__rc3>
    1251: a6 17        	ldx	$17                     ; 0x17 <__rc7>
    1253: a5 16        	lda	$16                     ; 0x16 <__rc6>
    1255: 20 dd 09     	jsr	$9dd <FAR_PEEK>
    1258: 85 2a        	sta	$2a                     ; 0x2a <__rc26>
    125a: a5 2b        	lda	$2b                     ; 0x2b <__rc27>
    125c: a0 08        	ldy	#$8
    125e: 91 10        	sta	($10),y                 ; 0x10 <__rc0>
    1260: a6 2b        	ldx	$2b                     ; 0x2b <__rc27>
    1262: 86 13        	stx	$13                     ; 0x13 <__rc3>
    1264: a6 2f        	ldx	$2f                     ; 0x2f <__rc31>
    1266: 86 2b        	stx	$2b                     ; 0x2b <__rc27>
    1268: a5 2f        	lda	$2f                     ; 0x2f <__rc31>
    126a: a6 2d        	ldx	$2d                     ; 0x2d <__rc29>
    126c: 86 2f        	stx	$2f                     ; 0x2f <__rc31>
    126e: a6 2d        	ldx	$2d                     ; 0x2d <__rc29>
    1270: 86 12        	stx	$12                     ; 0x12 <__rc2>
    1272: a6 2e        	ldx	$2e                     ; 0x2e <__rc30>
    1274: 1a           	inc
    1275: d0 09        	bne	$1280 <playEmbeddedDim+0x183>
    1277: e8           	inx
    1278: d0 06        	bne	$1280 <playEmbeddedDim+0x183>
    127a: e6 12        	inc	$12                     ; 0x12 <__rc2>
    127c: d0 02        	bne	$1280 <playEmbeddedDim+0x183>
    127e: e6 13        	inc	$13                     ; 0x13 <__rc3>
    1280: 20 dd 09     	jsr	$9dd <FAR_PEEK>
    1283: aa           	tax
    1284: 18           	clc
    1285: a5 10        	lda	$10                     ; 0x10 <__rc0>
    1287: 69 42        	adc	#$42
    1289: 48           	pha
    128a: a5 11        	lda	$11                     ; 0x11 <__rc1>
    128c: 69 00        	adc	#$0
    128e: a8           	tay
    128f: 68           	pla
    1290: 85 12        	sta	$12                     ; 0x12 <__rc2>
    1292: 84 13        	sty	$13                     ; 0x13 <__rc3>
    1294: 18           	clc
    1295: 69 03        	adc	#$3
    1297: 85 14        	sta	$14                     ; 0x14 <__rc4>
    1299: 98           	tya
    129a: 69 00        	adc	#$0
    129c: 85 15        	sta	$15                     ; 0x15 <__rc5>
    129e: a5 28        	lda	$28                     ; 0x28 <__rc24>
    12a0: 0a           	asl
    12a1: a8           	tay
    12a2: a9 00        	lda	#$0
    12a4: 2a           	rol
    12a5: 84 16        	sty	$16                     ; 0x16 <__rc6>
    12a7: 06 16        	asl	$16                     ; 0x16 <__rc6>
    12a9: 2a           	rol
    12aa: 06 16        	asl	$16                     ; 0x16 <__rc6>
    12ac: 2a           	rol
    12ad: a8           	tay
    12ae: 38           	sec
    12af: a5 16        	lda	$16                     ; 0x16 <__rc6>
    12b1: e5 28        	sbc	$28                     ; 0x28 <__rc24>
    12b3: 85 16        	sta	$16                     ; 0x16 <__rc6>
    12b5: 98           	tya
    12b6: e9 00        	sbc	#$0
    12b8: 85 17        	sta	$17                     ; 0x17 <__rc7>
    12ba: 18           	clc
    12bb: a0 03        	ldy	#$3
    12bd: a5 16        	lda	$16                     ; 0x16 <__rc6>
    12bf: 71 12        	adc	($12),y                 ; 0x12 <__rc2>
    12c1: 85 12        	sta	$12                     ; 0x12 <__rc2>
    12c3: a0 01        	ldy	#$1
    12c5: a5 17        	lda	$17                     ; 0x17 <__rc7>
    12c7: 71 14        	adc	($14),y                 ; 0x14 <__rc4>
    12c9: 85 13        	sta	$13                     ; 0x13 <__rc3>
    12cb: 5a           	phy
    12cc: a0 09        	ldy	#$9
    12ce: b1 10        	lda	($10),y                 ; 0x10 <__rc0>
    12d0: 7a           	ply
    12d1: 85 16        	sta	$16                     ; 0x16 <__rc6>
    12d3: a5 2a        	lda	$2a                     ; 0x2a <__rc26>
    12d5: 91 12        	sta	($12),y                 ; 0x12 <__rc2>
    12d7: e6 12        	inc	$12                     ; 0x12 <__rc2>
    12d9: d0 02        	bne	$12dd <playEmbeddedDim+0x1e0>
    12db: e6 13        	inc	$13                     ; 0x13 <__rc3>
    12dd: 8a           	txa
    12de: 91 12        	sta	($12),y                 ; 0x12 <__rc2>
    12e0: a0 00        	ldy	#$0
    12e2: a6 16        	ldx	$16                     ; 0x16 <__rc6>
    12e4: 86 14        	stx	$14                     ; 0x14 <__rc4>
    12e6: a6 16        	ldx	$16                     ; 0x16 <__rc6>
    12e8: e8           	inx
    12e9: 18           	clc
    12ea: a5 2c        	lda	$2c                     ; 0x2c <__rc28>
    12ec: 69 02        	adc	#$2
    12ee: 85 16        	sta	$16                     ; 0x16 <__rc6>
    12f0: a5 27        	lda	$27                     ; 0x27 <__rc23>
    12f2: 48           	pha
    12f3: 5a           	phy
    12f4: a0 0a        	ldy	#$a
    12f6: b1 10        	lda	($10),y                 ; 0x10 <__rc0>
    12f8: 7a           	ply
    12f9: 85 27        	sta	$27                     ; 0x27 <__rc23>
    12fb: 68           	pla
    12fc: 69 00        	adc	#$0
    12fe: 85 17        	sta	$17                     ; 0x17 <__rc7>
    1300: a5 29        	lda	$29                     ; 0x29 <__rc25>
    1302: 69 00        	adc	#$0
    1304: 85 18        	sta	$18                     ; 0x18 <__rc8>
    1306: a5 26        	lda	$26                     ; 0x26 <__rc22>
    1308: 69 00        	adc	#$0
    130a: 85 19        	sta	$19                     ; 0x19 <__rc9>
    130c: c4 27        	cpy	$27                     ; 0x27 <__rc23>
    130e: d0 0f        	bne	$131f <playEmbeddedDim+0x222>
    1310: a0 0b        	ldy	#$b
    1312: b1 10        	lda	($10),y                 ; 0x10 <__rc0>
    1314: 85 26        	sta	$26                     ; 0x26 <__rc22>
    1316: a4 14        	ldy	$14                     ; 0x14 <__rc4>
    1318: c4 26        	cpy	$26                     ; 0x26 <__rc22>
    131a: b0 10        	bcs	$132c <playEmbeddedDim+0x22f>
    131c: 4c 16 12     	jmp	$1216 <playEmbeddedDim+0x119>
    131f: c4 27        	cpy	$27                     ; 0x27 <__rc23>
    1321: a0 0b        	ldy	#$b
    1323: b1 10        	lda	($10),y                 ; 0x10 <__rc0>
    1325: 85 26        	sta	$26                     ; 0x26 <__rc22>
    1327: b0 03        	bcs	$132c <playEmbeddedDim+0x22f>
    1329: 4c 16 12     	jmp	$1216 <playEmbeddedDim+0x119>
    132c: 18           	clc
    132d: a5 2b        	lda	$2b                     ; 0x2b <__rc27>
    132f: 69 02        	adc	#$2
    1331: 85 16        	sta	$16                     ; 0x16 <__rc6>
    1333: a5 2e        	lda	$2e                     ; 0x2e <__rc30>
    1335: 69 00        	adc	#$0
    1337: 85 17        	sta	$17                     ; 0x17 <__rc7>
    1339: a5 2f        	lda	$2f                     ; 0x2f <__rc31>
    133b: 69 00        	adc	#$0
    133d: 85 18        	sta	$18                     ; 0x18 <__rc8>
    133f: a0 08        	ldy	#$8
    1341: b1 10        	lda	($10),y                 ; 0x10 <__rc0>
    1343: 69 00        	adc	#$0
    1345: 85 19        	sta	$19                     ; 0x19 <__rc9>
    1347: a0 01        	ldy	#$1
    1349: b1 24        	lda	($24),y                 ; 0x24 <__rc20>
    134b: e6 24        	inc	$24                     ; 0x24 <__rc20>
    134d: d0 02        	bne	$1351 <playEmbeddedDim+0x254>
    134f: e6 25        	inc	$25                     ; 0x25 <__rc21>
    1351: aa           	tax
    1352: b1 24        	lda	($24),y                 ; 0x24 <__rc20>
    1354: 85 13        	sta	$13                     ; 0x13 <__rc3>
    1356: 8a           	txa
    1357: a0 09        	ldy	#$9
    1359: 91 10        	sta	($10),y                 ; 0x10 <__rc0>
    135b: a5 13        	lda	$13                     ; 0x13 <__rc3>
    135d: d0 06        	bne	$1365 <playEmbeddedDim+0x268>
    135f: 8a           	txa
    1360: d0 03        	bne	$1365 <playEmbeddedDim+0x268>
    1362: 4c af 14     	jmp	$14af <playEmbeddedDim+0x3b2>
    1365: a0 03        	ldy	#$3
    1367: 18           	clc
    1368: a5 10        	lda	$10                     ; 0x10 <__rc0>
    136a: 69 42        	adc	#$42
    136c: 48           	pha
    136d: a5 11        	lda	$11                     ; 0x11 <__rc1>
    136f: 69 00        	adc	#$0
    1371: aa           	tax
    1372: 68           	pla
    1373: 85 14        	sta	$14                     ; 0x14 <__rc4>
    1375: 86 15        	stx	$15                     ; 0x15 <__rc5>
    1377: 18           	clc
    1378: 69 03        	adc	#$3
    137a: 85 1a        	sta	$1a                     ; 0x1a <__rc10>
    137c: 8a           	txa
    137d: 69 00        	adc	#$0
    137f: 85 1b        	sta	$1b                     ; 0x1b <__rc11>
    1381: b1 14        	lda	($14),y                 ; 0x14 <__rc4>
    1383: 85 12        	sta	$12                     ; 0x12 <__rc2>
    1385: a0 01        	ldy	#$1
    1387: b1 1a        	lda	($1a),y                 ; 0x1a <__rc10>
    1389: a4 12        	ldy	$12                     ; 0x12 <__rc2>
    138b: 84 2b        	sty	$2b                     ; 0x2b <__rc27>
    138d: 84 14        	sty	$14                     ; 0x14 <__rc4>
    138f: 85 2e        	sta	$2e                     ; 0x2e <__rc30>
    1391: 85 15        	sta	$15                     ; 0x15 <__rc5>
    1393: e6 14        	inc	$14                     ; 0x14 <__rc4>
    1395: d0 02        	bne	$1399 <playEmbeddedDim+0x29c>
    1397: e6 15        	inc	$15                     ; 0x15 <__rc5>
    1399: 64 25        	stz	$25                     ; 0x25 <__rc21>
    139b: 64 28        	stz	$28                     ; 0x28 <__rc24>
    139d: a5 25        	lda	$25                     ; 0x25 <__rc21>
    139f: 0a           	asl
    13a0: a6 28        	ldx	$28                     ; 0x28 <__rc24>
    13a2: 86 12        	stx	$12                     ; 0x12 <__rc2>
    13a4: 26 12        	rol	$12                     ; 0x12 <__rc2>
    13a6: 0a           	asl
    13a7: 26 12        	rol	$12                     ; 0x12 <__rc2>
    13a9: 0a           	asl
    13aa: 26 12        	rol	$12                     ; 0x12 <__rc2>
    13ac: 38           	sec
    13ad: e5 25        	sbc	$25                     ; 0x25 <__rc21>
    13af: 85 1a        	sta	$1a                     ; 0x1a <__rc10>
    13b1: a5 12        	lda	$12                     ; 0x12 <__rc2>
    13b3: e5 28        	sbc	$28                     ; 0x28 <__rc24>
    13b5: 85 1b        	sta	$1b                     ; 0x1b <__rc11>
    13b7: a5 2b        	lda	$2b                     ; 0x2b <__rc27>
    13b9: 18           	clc
    13ba: 65 1a        	adc	$1a                     ; 0x1a <__rc10>
    13bc: aa           	tax
    13bd: a5 2e        	lda	$2e                     ; 0x2e <__rc30>
    13bf: 65 1b        	adc	$1b                     ; 0x1b <__rc11>
    13c1: 86 2c        	stx	$2c                     ; 0x2c <__rc28>
    13c3: 85 2d        	sta	$2d                     ; 0x2d <__rc29>
    13c5: a8           	tay
    13c6: 18           	clc
    13c7: 8a           	txa
    13c8: 69 03        	adc	#$3
    13ca: 85 1a        	sta	$1a                     ; 0x1a <__rc10>
    13cc: 98           	tya
    13cd: 69 00        	adc	#$0
    13cf: 85 1b        	sta	$1b                     ; 0x1b <__rc11>
    13d1: a0 03        	ldy	#$3
    13d3: a9 00        	lda	#$0
    13d5: 91 2c        	sta	($2c),y                 ; 0x2c <__rc28>
    13d7: a0 01        	ldy	#$1
    13d9: 91 1a        	sta	($1a),y                 ; 0x1a <__rc10>
    13db: c8           	iny
    13dc: 91 1a        	sta	($1a),y                 ; 0x1a <__rc10>
    13de: c8           	iny
    13df: 91 1a        	sta	($1a),y                 ; 0x1a <__rc10>
    13e1: a5 28        	lda	$28                     ; 0x28 <__rc24>
    13e3: d0 07        	bne	$13ec <playEmbeddedDim+0x2ef>
    13e5: a5 25        	lda	$25                     ; 0x25 <__rc21>
    13e7: d0 03        	bne	$13ec <playEmbeddedDim+0x2ef>
    13e9: 4c 8b 14     	jmp	$148b <playEmbeddedDim+0x38e>
    13ec: 64 29        	stz	$29                     ; 0x29 <__rc25>
    13ee: a6 14        	ldx	$14                     ; 0x14 <__rc4>
    13f0: 86 1e        	stx	$1e                     ; 0x1e <__rc14>
    13f2: a6 15        	ldx	$15                     ; 0x15 <__rc5>
    13f4: 86 1f        	stx	$1f                     ; 0x1f <__rc15>
    13f6: a6 25        	ldx	$25                     ; 0x25 <__rc21>
    13f8: a4 28        	ldy	$28                     ; 0x28 <__rc24>
    13fa: 84 1c        	sty	$1c                     ; 0x1c <__rc12>
    13fc: 64 2a        	stz	$2a                     ; 0x2a <__rc26>
    13fe: 64 2f        	stz	$2f                     ; 0x2f <__rc31>
    1400: 64 12        	stz	$12                     ; 0x12 <__rc2>
    1402: a0 01        	ldy	#$1
    1404: 80 07        	bra	$140d <playEmbeddedDim+0x310>
    1406: a5 1c        	lda	$1c                     ; 0x1c <__rc12>
    1408: d0 03        	bne	$140d <playEmbeddedDim+0x310>
    140a: 4c 6f 14     	jmp	$146f <playEmbeddedDim+0x372>
    140d: b2 1e        	lda	($1e)                   ; 0x1e <__rc14>
    140f: 85 22        	sta	$22                     ; 0x22 <__rc18>
    1411: b1 1e        	lda	($1e),y                 ; 0x1e <__rc14>
    1413: 85 1d        	sta	$1d                     ; 0x1d <__rc13>
    1415: a5 22        	lda	$22                     ; 0x22 <__rc18>
    1417: 0a           	asl
    1418: 26 1d        	rol	$1d                     ; 0x1d <__rc13>
    141a: 5a           	phy
    141b: a4 1d        	ldy	$1d                     ; 0x1d <__rc13>
    141d: 84 23        	sty	$23                     ; 0x23 <__rc19>
    141f: 64 1d        	stz	$1d                     ; 0x1d <__rc13>
    1421: 26 1d        	rol	$1d                     ; 0x1d <__rc13>
    1423: 64 22        	stz	$22                     ; 0x22 <__rc18>
    1425: 26 22        	rol	$22                     ; 0x22 <__rc18>
    1427: 0a           	asl
    1428: 26 23        	rol	$23                     ; 0x23 <__rc19>
    142a: a4 23        	ldy	$23                     ; 0x23 <__rc19>
    142c: 84 24        	sty	$24                     ; 0x24 <__rc20>
    142e: 7a           	ply
    142f: 26 1d        	rol	$1d                     ; 0x1d <__rc13>
    1431: 26 22        	rol	$22                     ; 0x22 <__rc18>
    1433: 0a           	asl
    1434: 85 23        	sta	$23                     ; 0x23 <__rc19>
    1436: 26 24        	rol	$24                     ; 0x24 <__rc20>
    1438: 26 1d        	rol	$1d                     ; 0x1d <__rc13>
    143a: 26 22        	rol	$22                     ; 0x22 <__rc18>
    143c: a5 29        	lda	$29                     ; 0x29 <__rc25>
    143e: 18           	clc
    143f: 65 23        	adc	$23                     ; 0x23 <__rc19>
    1441: 85 29        	sta	$29                     ; 0x29 <__rc25>
    1443: a5 2a        	lda	$2a                     ; 0x2a <__rc26>
    1445: 65 24        	adc	$24                     ; 0x24 <__rc20>
    1447: 85 2a        	sta	$2a                     ; 0x2a <__rc26>
    1449: a5 2f        	lda	$2f                     ; 0x2f <__rc31>
    144b: 65 1d        	adc	$1d                     ; 0x1d <__rc13>
    144d: 85 2f        	sta	$2f                     ; 0x2f <__rc31>
    144f: a5 12        	lda	$12                     ; 0x12 <__rc2>
    1451: 65 22        	adc	$22                     ; 0x22 <__rc18>
    1453: 85 12        	sta	$12                     ; 0x12 <__rc2>
    1455: a5 1e        	lda	$1e                     ; 0x1e <__rc14>
    1457: 18           	clc
    1458: 69 07        	adc	#$7
    145a: 85 1e        	sta	$1e                     ; 0x1e <__rc14>
    145c: a5 1f        	lda	$1f                     ; 0x1f <__rc15>
    145e: 69 00        	adc	#$0
    1460: 85 1f        	sta	$1f                     ; 0x1f <__rc15>
    1462: ca           	dex
    1463: e0 ff        	cpx	#$ff
    1465: f0 03        	beq	$146a <playEmbeddedDim+0x36d>
    1467: 4c 06 14     	jmp	$1406 <playEmbeddedDim+0x309>
    146a: c6 1c        	dec	$1c                     ; 0x1c <__rc12>
    146c: 4c 06 14     	jmp	$1406 <playEmbeddedDim+0x309>
    146f: 8a           	txa
    1470: f0 03        	beq	$1475 <playEmbeddedDim+0x378>
    1472: 4c 0d 14     	jmp	$140d <playEmbeddedDim+0x310>
    1475: a5 29        	lda	$29                     ; 0x29 <__rc25>
    1477: a0 03        	ldy	#$3
    1479: 91 2c        	sta	($2c),y                 ; 0x2c <__rc28>
    147b: a5 2a        	lda	$2a                     ; 0x2a <__rc26>
    147d: a0 01        	ldy	#$1
    147f: 91 1a        	sta	($1a),y                 ; 0x1a <__rc10>
    1481: c8           	iny
    1482: a5 2f        	lda	$2f                     ; 0x2f <__rc31>
    1484: 91 1a        	sta	($1a),y                 ; 0x1a <__rc10>
    1486: a5 12        	lda	$12                     ; 0x12 <__rc2>
    1488: c8           	iny
    1489: 91 1a        	sta	($1a),y                 ; 0x1a <__rc10>
    148b: a5 28        	lda	$28                     ; 0x28 <__rc24>
    148d: a6 25        	ldx	$25                     ; 0x25 <__rc21>
    148f: e8           	inx
    1490: d0 01        	bne	$1493 <playEmbeddedDim+0x396>
    1492: 1a           	inc
    1493: 86 25        	stx	$25                     ; 0x25 <__rc21>
    1495: 85 28        	sta	$28                     ; 0x28 <__rc24>
    1497: c5 13        	cmp	$13                     ; 0x13 <__rc3>
    1499: f0 03        	beq	$149e <playEmbeddedDim+0x3a1>
    149b: 4c 9d 13     	jmp	$139d <playEmbeddedDim+0x2a0>
    149e: 86 25        	stx	$25                     ; 0x25 <__rc21>
    14a0: 85 28        	sta	$28                     ; 0x28 <__rc24>
    14a2: a0 09        	ldy	#$9
    14a4: b1 10        	lda	($10),y                 ; 0x10 <__rc0>
    14a6: 85 12        	sta	$12                     ; 0x12 <__rc2>
    14a8: e4 12        	cpx	$12                     ; 0x12 <__rc2>
    14aa: f0 03        	beq	$14af <playEmbeddedDim+0x3b2>
    14ac: 4c 9d 13     	jmp	$139d <playEmbeddedDim+0x2a0>
    14af: 18           	clc
    14b0: a5 10        	lda	$10                     ; 0x10 <__rc0>
    14b2: 69 0e        	adc	#$e
    14b4: aa           	tax
    14b5: a5 11        	lda	$11                     ; 0x11 <__rc1>
    14b7: 69 00        	adc	#$0
    14b9: 85 28        	sta	$28                     ; 0x28 <__rc24>
    14bb: 86 24        	stx	$24                     ; 0x24 <__rc20>
    14bd: 86 29        	stx	$29                     ; 0x29 <__rc25>
    14bf: 85 25        	sta	$25                     ; 0x25 <__rc21>
    14c1: 86 12        	stx	$12                     ; 0x12 <__rc2>
    14c3: 85 13        	sta	$13                     ; 0x13 <__rc3>
    14c5: 64 14        	stz	$14                     ; 0x14 <__rc4>
    14c7: 64 15        	stz	$15                     ; 0x15 <__rc5>
    14c9: a2 00        	ldx	#$0
    14cb: 8a           	txa
    14cc: 20 a2 0e     	jsr	$ea2 <initMidiRecord>
    14cf: a0 20        	ldy	#$20
    14d1: 18           	clc
    14d2: a5 29        	lda	$29                     ; 0x29 <__rc25>
    14d4: 69 20        	adc	#$20
    14d6: 85 12        	sta	$12                     ; 0x12 <__rc2>
    14d8: a5 28        	lda	$28                     ; 0x28 <__rc24>
    14da: 69 00        	adc	#$0
    14dc: 85 13        	sta	$13                     ; 0x13 <__rc3>
    14de: b1 24        	lda	($24),y                 ; 0x24 <__rc20>
    14e0: 85 14        	sta	$14                     ; 0x14 <__rc4>
    14e2: a0 01        	ldy	#$1
    14e4: b1 12        	lda	($12),y                 ; 0x12 <__rc2>
    14e6: a2 00        	ldx	#$0
    14e8: 86 12        	stx	$12                     ; 0x12 <__rc2>
    14ea: a2 00        	ldx	#$0
    14ec: 86 13        	stx	$13                     ; 0x13 <__rc3>
    14ee: c5 13        	cmp	$13                     ; 0x13 <__rc3>
    14f0: d0 06        	bne	$14f8 <playEmbeddedDim+0x3fb>
    14f2: a6 14        	ldx	$14                     ; 0x14 <__rc4>
    14f4: e4 12        	cpx	$12                     ; 0x12 <__rc2>
    14f6: f0 09        	beq	$1501 <playEmbeddedDim+0x404>
    14f8: a6 14        	ldx	$14                     ; 0x14 <__rc4>
    14fa: 86 12        	stx	$12                     ; 0x12 <__rc2>
    14fc: 85 13        	sta	$13                     ; 0x13 <__rc3>
    14fe: 20 b8 28     	jsr	$28b8 <free>
    1501: a0 0c        	ldy	#$c
    1503: b1 10        	lda	($10),y                 ; 0x10 <__rc0>
    1505: 85 24        	sta	$24                     ; 0x24 <__rc20>
    1507: c8           	iny
    1508: b1 10        	lda	($10),y                 ; 0x10 <__rc0>
    150a: 85 25        	sta	$25                     ; 0x25 <__rc21>
    150c: a6 24        	ldx	$24                     ; 0x24 <__rc20>
    150e: 86 12        	stx	$12                     ; 0x12 <__rc2>
    1510: 85 13        	sta	$13                     ; 0x13 <__rc3>
    1512: e6 12        	inc	$12                     ; 0x12 <__rc2>
    1514: d0 02        	bne	$1518 <playEmbeddedDim+0x41b>
    1516: e6 13        	inc	$13                     ; 0x13 <__rc3>
    1518: a0 01        	ldy	#$1
    151a: b1 24        	lda	($24),y                 ; 0x24 <__rc20>
    151c: 85 14        	sta	$14                     ; 0x14 <__rc4>
    151e: b1 12        	lda	($12),y                 ; 0x12 <__rc2>
    1520: 06 14        	asl	$14                     ; 0x14 <__rc4>
    1522: 2a           	rol
    1523: aa           	tax
    1524: a5 14        	lda	$14                     ; 0x14 <__rc4>
    1526: 20 02 27     	jsr	$2702 <malloc>
    1529: a0 20        	ldy	#$20
    152b: 18           	clc
    152c: a5 10        	lda	$10                     ; 0x10 <__rc0>
    152e: 69 0e        	adc	#$e
    1530: 48           	pha
    1531: a5 11        	lda	$11                     ; 0x11 <__rc1>
    1533: 69 00        	adc	#$0
    1535: aa           	tax
    1536: 68           	pla
    1537: 85 14        	sta	$14                     ; 0x14 <__rc4>
    1539: 86 15        	stx	$15                     ; 0x15 <__rc5>
    153b: 18           	clc
    153c: 85 17        	sta	$17                     ; 0x17 <__rc7>
    153e: 69 20        	adc	#$20
    1540: 85 18        	sta	$18                     ; 0x18 <__rc8>
    1542: a5 12        	lda	$12                     ; 0x12 <__rc2>
    1544: 91 14        	sta	($14),y                 ; 0x14 <__rc4>
    1546: a0 01        	ldy	#$1
    1548: 86 16        	stx	$16                     ; 0x16 <__rc6>
    154a: 8a           	txa
    154b: 69 00        	adc	#$0
    154d: a6 18        	ldx	$18                     ; 0x18 <__rc8>
    154f: 86 14        	stx	$14                     ; 0x14 <__rc4>
    1551: 85 15        	sta	$15                     ; 0x15 <__rc5>
    1553: a5 13        	lda	$13                     ; 0x13 <__rc3>
    1555: 91 14        	sta	($14),y                 ; 0x14 <__rc4>
    1557: a5 27        	lda	$27                     ; 0x27 <__rc23>
    1559: d0 04        	bne	$155f <playEmbeddedDim+0x462>
    155b: a5 26        	lda	$26                     ; 0x26 <__rc22>
    155d: f0 35        	beq	$1594 <playEmbeddedDim+0x497>
    155f: a2 01        	ldx	#$1
    1561: 8a           	txa
    1562: 3a           	dec
    1563: 0a           	asl
    1564: 64 14        	stz	$14                     ; 0x14 <__rc4>
    1566: 26 14        	rol	$14                     ; 0x14 <__rc4>
    1568: 18           	clc
    1569: 65 12        	adc	$12                     ; 0x12 <__rc2>
    156b: 85 18        	sta	$18                     ; 0x18 <__rc8>
    156d: a5 14        	lda	$14                     ; 0x14 <__rc4>
    156f: 65 13        	adc	$13                     ; 0x13 <__rc3>
    1571: a4 18        	ldy	$18                     ; 0x18 <__rc8>
    1573: 84 14        	sty	$14                     ; 0x14 <__rc4>
    1575: 85 15        	sta	$15                     ; 0x15 <__rc5>
    1577: a9 00        	lda	#$0
    1579: 92 14        	sta	($14)                   ; 0x14 <__rc4>
    157b: a0 01        	ldy	#$1
    157d: 91 14        	sta	($14),y                 ; 0x14 <__rc4>
    157f: a8           	tay
    1580: 8a           	txa
    1581: 1a           	inc
    1582: c4 27        	cpy	$27                     ; 0x27 <__rc23>
    1584: d0 07        	bne	$158d <playEmbeddedDim+0x490>
    1586: e4 26        	cpx	$26                     ; 0x26 <__rc22>
    1588: aa           	tax
    1589: 90 d6        	bcc	$1561 <playEmbeddedDim+0x464>
    158b: 80 07        	bra	$1594 <playEmbeddedDim+0x497>
    158d: a2 00        	ldx	#$0
    158f: e4 27        	cpx	$27                     ; 0x27 <__rc23>
    1591: aa           	tax
    1592: 90 cd        	bcc	$1561 <playEmbeddedDim+0x464>
    1594: a6 24        	ldx	$24                     ; 0x24 <__rc20>
    1596: 86 12        	stx	$12                     ; 0x12 <__rc2>
    1598: a6 25        	ldx	$25                     ; 0x25 <__rc21>
    159a: 86 13        	stx	$13                     ; 0x13 <__rc3>
    159c: e6 12        	inc	$12                     ; 0x12 <__rc2>
    159e: d0 02        	bne	$15a2 <playEmbeddedDim+0x4a5>
    15a0: e6 13        	inc	$13                     ; 0x13 <__rc3>
    15a2: a0 01        	ldy	#$1
    15a4: b1 12        	lda	($12),y                 ; 0x12 <__rc2>
    15a6: d0 1e        	bne	$15c6 <playEmbeddedDim+0x4c9>
    15a8: b1 24        	lda	($24),y                 ; 0x24 <__rc20>
    15aa: c9 01        	cmp	#$1
    15ac: d0 18        	bne	$15c6 <playEmbeddedDim+0x4c9>
    15ae: a6 17        	ldx	$17                     ; 0x17 <__rc7>
    15b0: 86 12        	stx	$12                     ; 0x12 <__rc2>
    15b2: a6 16        	ldx	$16                     ; 0x16 <__rc6>
    15b4: 86 13        	stx	$13                     ; 0x13 <__rc3>
    15b6: a0 0c        	ldy	#$c
    15b8: b1 10        	lda	($10),y                 ; 0x10 <__rc0>
    15ba: 85 14        	sta	$14                     ; 0x14 <__rc4>
    15bc: c8           	iny
    15bd: b1 10        	lda	($10),y                 ; 0x10 <__rc0>
    15bf: 85 15        	sta	$15                     ; 0x15 <__rc5>
    15c1: 20 1f 16     	jsr	$161f <playmiditype0>
    15c4: 80 16        	bra	$15dc <playEmbeddedDim+0x4df>
    15c6: a6 17        	ldx	$17                     ; 0x17 <__rc7>
    15c8: 86 12        	stx	$12                     ; 0x12 <__rc2>
    15ca: a6 16        	ldx	$16                     ; 0x16 <__rc6>
    15cc: 86 13        	stx	$13                     ; 0x13 <__rc3>
    15ce: a0 0c        	ldy	#$c
    15d0: b1 10        	lda	($10),y                 ; 0x10 <__rc0>
    15d2: 85 14        	sta	$14                     ; 0x14 <__rc4>
    15d4: c8           	iny
    15d5: b1 10        	lda	($10),y                 ; 0x10 <__rc0>
    15d7: 85 15        	sta	$15                     ; 0x15 <__rc5>
    15d9: 20 72 1a     	jsr	$1a72 <playmidi>
    15dc: a0 00        	ldy	#$0
    15de: b1 10        	lda	($10),y                 ; 0x10 <__rc0>
    15e0: 85 2f        	sta	$2f                     ; 0x2f <__rc31>
    15e2: c8           	iny
    15e3: b1 10        	lda	($10),y                 ; 0x10 <__rc0>
    15e5: 85 2e        	sta	$2e                     ; 0x2e <__rc30>
    15e7: c8           	iny
    15e8: b1 10        	lda	($10),y                 ; 0x10 <__rc0>
    15ea: 85 2d        	sta	$2d                     ; 0x2d <__rc29>
    15ec: c8           	iny
    15ed: b1 10        	lda	($10),y                 ; 0x10 <__rc0>
    15ef: 85 2c        	sta	$2c                     ; 0x2c <__rc28>
    15f1: c8           	iny
    15f2: b1 10        	lda	($10),y                 ; 0x10 <__rc0>
    15f4: 85 2b        	sta	$2b                     ; 0x2b <__rc27>
    15f6: c8           	iny
    15f7: b1 10        	lda	($10),y                 ; 0x10 <__rc0>
    15f9: 85 2a        	sta	$2a                     ; 0x2a <__rc26>
    15fb: c8           	iny
    15fc: b1 10        	lda	($10),y                 ; 0x10 <__rc0>
    15fe: 85 29        	sta	$29                     ; 0x29 <__rc25>
    1600: c8           	iny
    1601: b1 10        	lda	($10),y                 ; 0x10 <__rc0>
    1603: 85 28        	sta	$28                     ; 0x28 <__rc24>
    1605: fa           	plx
    1606: 86 27        	stx	$27                     ; 0x27 <__rc23>
    1608: fa           	plx
    1609: 86 26        	stx	$26                     ; 0x26 <__rc22>
    160b: fa           	plx
    160c: 86 25        	stx	$25                     ; 0x25 <__rc21>
    160e: fa           	plx
    160f: 86 24        	stx	$24                     ; 0x24 <__rc20>
    1611: 18           	clc
    1612: a5 10        	lda	$10                     ; 0x10 <__rc0>
    1614: 69 47        	adc	#$47
    1616: 85 10        	sta	$10                     ; 0x10 <__rc0>
    1618: a5 11        	lda	$11                     ; 0x11 <__rc1>
    161a: 69 00        	adc	#$0
    161c: 85 11        	sta	$11                     ; 0x11 <__rc1>
    161e: 60           	rts

0000161f <playmiditype0>:
    161f: 18           	clc
    1620: a5 10        	lda	$10                     ; 0x10 <__rc0>
    1622: 69 ee        	adc	#$ee
    1624: 85 10        	sta	$10                     ; 0x10 <__rc0>
    1626: a5 11        	lda	$11                     ; 0x11 <__rc1>
    1628: 69 ff        	adc	#$ff
    162a: 85 11        	sta	$11                     ; 0x11 <__rc1>
    162c: a6 24        	ldx	$24                     ; 0x24 <__rc20>
    162e: da           	phx
    162f: a6 25        	ldx	$25                     ; 0x25 <__rc21>
    1631: da           	phx
    1632: a6 26        	ldx	$26                     ; 0x26 <__rc22>
    1634: da           	phx
    1635: a6 27        	ldx	$27                     ; 0x27 <__rc23>
    1637: da           	phx
    1638: a5 28        	lda	$28                     ; 0x28 <__rc24>
    163a: a0 07        	ldy	#$7
    163c: 91 10        	sta	($10),y                 ; 0x10 <__rc0>
    163e: a5 29        	lda	$29                     ; 0x29 <__rc25>
    1640: 88           	dey
    1641: 91 10        	sta	($10),y                 ; 0x10 <__rc0>
    1643: a5 2a        	lda	$2a                     ; 0x2a <__rc26>
    1645: 88           	dey
    1646: 91 10        	sta	($10),y                 ; 0x10 <__rc0>
    1648: a5 2b        	lda	$2b                     ; 0x2b <__rc27>
    164a: 88           	dey
    164b: 91 10        	sta	($10),y                 ; 0x10 <__rc0>
    164d: a5 2c        	lda	$2c                     ; 0x2c <__rc28>
    164f: 88           	dey
    1650: 91 10        	sta	($10),y                 ; 0x10 <__rc0>
    1652: a5 2d        	lda	$2d                     ; 0x2d <__rc29>
    1654: 88           	dey
    1655: 91 10        	sta	($10),y                 ; 0x10 <__rc0>
    1657: a5 2e        	lda	$2e                     ; 0x2e <__rc30>
    1659: 88           	dey
    165a: 91 10        	sta	($10),y                 ; 0x10 <__rc0>
    165c: a5 2f        	lda	$2f                     ; 0x2f <__rc31>
    165e: 88           	dey
    165f: 91 10        	sta	($10),y                 ; 0x10 <__rc0>
    1661: a6 12        	ldx	$12                     ; 0x12 <__rc2>
    1663: 86 24        	stx	$24                     ; 0x24 <__rc20>
    1665: a6 13        	ldx	$13                     ; 0x13 <__rc3>
    1667: 86 25        	stx	$25                     ; 0x25 <__rc21>
    1669: a6 14        	ldx	$14                     ; 0x14 <__rc4>
    166b: 86 12        	stx	$12                     ; 0x12 <__rc2>
    166d: a6 15        	ldx	$15                     ; 0x15 <__rc5>
    166f: 86 13        	stx	$13                     ; 0x13 <__rc3>
    1671: a5 12        	lda	$12                     ; 0x12 <__rc2>
    1673: a0 0b        	ldy	#$b
    1675: 91 10        	sta	($10),y                 ; 0x10 <__rc0>
    1677: a5 13        	lda	$13                     ; 0x13 <__rc3>
    1679: c8           	iny
    167a: 91 10        	sta	($10),y                 ; 0x10 <__rc0>
    167c: 20 68 10     	jsr	$1068 <getTotalLeft>
    167f: 85 28        	sta	$28                     ; 0x28 <__rc24>
    1681: 86 29        	stx	$29                     ; 0x29 <__rc25>
    1683: a5 29        	lda	$29                     ; 0x29 <__rc25>
    1685: d0 07        	bne	$168e <playmiditype0+0x6f>
    1687: a5 28        	lda	$28                     ; 0x28 <__rc24>
    1689: d0 03        	bne	$168e <playmiditype0+0x6f>
    168b: 4c 2a 1a     	jmp	$1a2a <playmiditype0+0x40b>
    168e: a0 0b        	ldy	#$b
    1690: b1 10        	lda	($10),y                 ; 0x10 <__rc0>
    1692: 85 14        	sta	$14                     ; 0x14 <__rc4>
    1694: c8           	iny
    1695: b1 10        	lda	($10),y                 ; 0x10 <__rc0>
    1697: 85 15        	sta	$15                     ; 0x15 <__rc5>
    1699: a6 14        	ldx	$14                     ; 0x14 <__rc4>
    169b: 8a           	txa
    169c: a0 0a        	ldy	#$a
    169e: 91 10        	sta	($10),y                 ; 0x10 <__rc0>
    16a0: a6 15        	ldx	$15                     ; 0x15 <__rc5>
    16a2: 8a           	txa
    16a3: 88           	dey
    16a4: 91 10        	sta	($10),y                 ; 0x10 <__rc0>
    16a6: a6 24        	ldx	$24                     ; 0x24 <__rc20>
    16a8: 8a           	txa
    16a9: 88           	dey
    16aa: 91 10        	sta	($10),y                 ; 0x10 <__rc0>
    16ac: 80 07        	bra	$16b5 <playmiditype0+0x96>
    16ae: a5 29        	lda	$29                     ; 0x29 <__rc25>
    16b0: d0 03        	bne	$16b5 <playmiditype0+0x96>
    16b2: 4c 23 1a     	jmp	$1a23 <playmiditype0+0x404>
    16b5: 18           	clc
    16b6: a0 0a        	ldy	#$a
    16b8: b1 10        	lda	($10),y                 ; 0x10 <__rc0>
    16ba: 69 03        	adc	#$3
    16bc: aa           	tax
    16bd: 88           	dey
    16be: b1 10        	lda	($10),y                 ; 0x10 <__rc0>
    16c0: 69 00        	adc	#$0
    16c2: 86 12        	stx	$12                     ; 0x12 <__rc2>
    16c4: 85 13        	sta	$13                     ; 0x13 <__rc3>
    16c6: a0 03        	ldy	#$3
    16c8: 5a           	phy
    16c9: a0 0b        	ldy	#$b
    16cb: b1 10        	lda	($10),y                 ; 0x10 <__rc0>
    16cd: 85 14        	sta	$14                     ; 0x14 <__rc4>
    16cf: c8           	iny
    16d0: b1 10        	lda	($10),y                 ; 0x10 <__rc0>
    16d2: 7a           	ply
    16d3: 85 15        	sta	$15                     ; 0x15 <__rc5>
    16d5: b1 14        	lda	($14),y                 ; 0x14 <__rc4>
    16d7: 85 14        	sta	$14                     ; 0x14 <__rc4>
    16d9: a0 01        	ldy	#$1
    16db: b1 12        	lda	($12),y                 ; 0x12 <__rc2>
    16dd: aa           	tax
    16de: a5 14        	lda	$14                     ; 0x14 <__rc4>
    16e0: 86 15        	stx	$15                     ; 0x15 <__rc5>
    16e2: 18           	clc
    16e3: 69 03        	adc	#$3
    16e5: 85 12        	sta	$12                     ; 0x12 <__rc2>
    16e7: 8a           	txa
    16e8: 69 00        	adc	#$0
    16ea: 85 13        	sta	$13                     ; 0x13 <__rc3>
    16ec: a0 08        	ldy	#$8
    16ee: b1 10        	lda	($10),y                 ; 0x10 <__rc0>
    16f0: aa           	tax
    16f1: 18           	clc
    16f2: 69 20        	adc	#$20
    16f4: 85 16        	sta	$16                     ; 0x16 <__rc6>
    16f6: a5 25        	lda	$25                     ; 0x25 <__rc21>
    16f8: 69 00        	adc	#$0
    16fa: 85 17        	sta	$17                     ; 0x17 <__rc7>
    16fc: a0 20        	ldy	#$20
    16fe: b1 24        	lda	($24),y                 ; 0x24 <__rc20>
    1700: 85 18        	sta	$18                     ; 0x18 <__rc8>
    1702: a0 01        	ldy	#$1
    1704: b1 16        	lda	($16),y                 ; 0x16 <__rc6>
    1706: 5a           	phy
    1707: a4 18        	ldy	$18                     ; 0x18 <__rc8>
    1709: 84 16        	sty	$16                     ; 0x16 <__rc6>
    170b: 7a           	ply
    170c: 85 17        	sta	$17                     ; 0x17 <__rc7>
    170e: b2 16        	lda	($16)                   ; 0x16 <__rc6>
    1710: 85 18        	sta	$18                     ; 0x18 <__rc8>
    1712: b1 16        	lda	($16),y                 ; 0x16 <__rc6>
    1714: 06 18        	asl	$18                     ; 0x18 <__rc8>
    1716: 2a           	rol
    1717: 64 16        	stz	$16                     ; 0x16 <__rc6>
    1719: 26 16        	rol	$16                     ; 0x16 <__rc6>
    171b: 64 17        	stz	$17                     ; 0x17 <__rc7>
    171d: 26 17        	rol	$17                     ; 0x17 <__rc7>
    171f: 06 18        	asl	$18                     ; 0x18 <__rc8>
    1721: 2a           	rol
    1722: 26 16        	rol	$16                     ; 0x16 <__rc6>
    1724: 26 17        	rol	$17                     ; 0x17 <__rc7>
    1726: 06 18        	asl	$18                     ; 0x18 <__rc8>
    1728: 2a           	rol
    1729: 85 19        	sta	$19                     ; 0x19 <__rc9>
    172b: 26 16        	rol	$16                     ; 0x16 <__rc6>
    172d: a4 16        	ldy	$16                     ; 0x16 <__rc6>
    172f: 84 1b        	sty	$1b                     ; 0x1b <__rc11>
    1731: a4 17        	ldy	$17                     ; 0x17 <__rc7>
    1733: 84 16        	sty	$16                     ; 0x16 <__rc6>
    1735: 26 16        	rol	$16                     ; 0x16 <__rc6>
    1737: 18           	clc
    1738: a5 18        	lda	$18                     ; 0x18 <__rc8>
    173a: a0 03        	ldy	#$3
    173c: 71 14        	adc	($14),y                 ; 0x14 <__rc4>
    173e: 85 2e        	sta	$2e                     ; 0x2e <__rc30>
    1740: a5 19        	lda	$19                     ; 0x19 <__rc9>
    1742: a0 01        	ldy	#$1
    1744: 71 12        	adc	($12),y                 ; 0x12 <__rc2>
    1746: 85 26        	sta	$26                     ; 0x26 <__rc22>
    1748: c8           	iny
    1749: a5 1b        	lda	$1b                     ; 0x1b <__rc11>
    174b: 71 12        	adc	($12),y                 ; 0x12 <__rc2>
    174d: 85 2f        	sta	$2f                     ; 0x2f <__rc31>
    174f: a5 16        	lda	$16                     ; 0x16 <__rc6>
    1751: c8           	iny
    1752: 71 12        	adc	($12),y                 ; 0x12 <__rc2>
    1754: 85 2d        	sta	$2d                     ; 0x2d <__rc29>
    1756: 8a           	txa
    1757: 18           	clc
    1758: 69 30        	adc	#$30
    175a: 85 2a        	sta	$2a                     ; 0x2a <__rc26>
    175c: a5 25        	lda	$25                     ; 0x25 <__rc21>
    175e: 69 00        	adc	#$0
    1760: 85 2b        	sta	$2b                     ; 0x2b <__rc27>
    1762: 18           	clc
    1763: a5 2e        	lda	$2e                     ; 0x2e <__rc30>
    1765: a0 30        	ldy	#$30
    1767: 71 24        	adc	($24),y                 ; 0x24 <__rc20>
    1769: 85 14        	sta	$14                     ; 0x14 <__rc4>
    176b: a5 26        	lda	$26                     ; 0x26 <__rc22>
    176d: a0 01        	ldy	#$1
    176f: 71 2a        	adc	($2a),y                 ; 0x2a <__rc26>
    1771: aa           	tax
    1772: a5 2f        	lda	$2f                     ; 0x2f <__rc31>
    1774: c8           	iny
    1775: 71 2a        	adc	($2a),y                 ; 0x2a <__rc26>
    1777: 85 12        	sta	$12                     ; 0x12 <__rc2>
    1779: a5 2d        	lda	$2d                     ; 0x2d <__rc29>
    177b: c8           	iny
    177c: 71 2a        	adc	($2a),y                 ; 0x2a <__rc26>
    177e: 85 13        	sta	$13                     ; 0x13 <__rc3>
    1780: a5 14        	lda	$14                     ; 0x14 <__rc4>
    1782: 20 dd 09     	jsr	$9dd <FAR_PEEK>
    1785: a0 11        	ldy	#$11
    1787: 91 10        	sta	($10),y                 ; 0x10 <__rc0>
    1789: 18           	clc
    178a: a5 2e        	lda	$2e                     ; 0x2e <__rc30>
    178c: a0 30        	ldy	#$30
    178e: 71 24        	adc	($24),y                 ; 0x24 <__rc20>
    1790: 85 14        	sta	$14                     ; 0x14 <__rc4>
    1792: a5 26        	lda	$26                     ; 0x26 <__rc22>
    1794: a0 01        	ldy	#$1
    1796: 71 2a        	adc	($2a),y                 ; 0x2a <__rc26>
    1798: aa           	tax
    1799: a5 2f        	lda	$2f                     ; 0x2f <__rc31>
    179b: c8           	iny
    179c: 71 2a        	adc	($2a),y                 ; 0x2a <__rc26>
    179e: 85 12        	sta	$12                     ; 0x12 <__rc2>
    17a0: a5 2d        	lda	$2d                     ; 0x2d <__rc29>
    17a2: c8           	iny
    17a3: 71 2a        	adc	($2a),y                 ; 0x2a <__rc26>
    17a5: e6 14        	inc	$14                     ; 0x14 <__rc4>
    17a7: d0 08        	bne	$17b1 <playmiditype0+0x192>
    17a9: e8           	inx
    17aa: d0 05        	bne	$17b1 <playmiditype0+0x192>
    17ac: e6 12        	inc	$12                     ; 0x12 <__rc2>
    17ae: d0 01        	bne	$17b1 <playmiditype0+0x192>
    17b0: 1a           	inc
    17b1: 85 13        	sta	$13                     ; 0x13 <__rc3>
    17b3: a5 14        	lda	$14                     ; 0x14 <__rc4>
    17b5: 20 dd 09     	jsr	$9dd <FAR_PEEK>
    17b8: 85 2c        	sta	$2c                     ; 0x2c <__rc28>
    17ba: 18           	clc
    17bb: a5 2e        	lda	$2e                     ; 0x2e <__rc30>
    17bd: a0 30        	ldy	#$30
    17bf: 71 24        	adc	($24),y                 ; 0x24 <__rc20>
    17c1: aa           	tax
    17c2: a5 26        	lda	$26                     ; 0x26 <__rc22>
    17c4: a0 01        	ldy	#$1
    17c6: 71 2a        	adc	($2a),y                 ; 0x2a <__rc26>
    17c8: 85 12        	sta	$12                     ; 0x12 <__rc2>
    17ca: a5 2f        	lda	$2f                     ; 0x2f <__rc31>
    17cc: c8           	iny
    17cd: 71 2a        	adc	($2a),y                 ; 0x2a <__rc26>
    17cf: 85 13        	sta	$13                     ; 0x13 <__rc3>
    17d1: a5 2d        	lda	$2d                     ; 0x2d <__rc29>
    17d3: c8           	iny
    17d4: 71 2a        	adc	($2a),y                 ; 0x2a <__rc26>
    17d6: 85 14        	sta	$14                     ; 0x14 <__rc4>
    17d8: 18           	clc
    17d9: 8a           	txa
    17da: 69 02        	adc	#$2
    17dc: a8           	tay
    17dd: a5 12        	lda	$12                     ; 0x12 <__rc2>
    17df: 69 00        	adc	#$0
    17e1: aa           	tax
    17e2: a5 13        	lda	$13                     ; 0x13 <__rc3>
    17e4: 69 00        	adc	#$0
    17e6: 85 12        	sta	$12                     ; 0x12 <__rc2>
    17e8: a5 14        	lda	$14                     ; 0x14 <__rc4>
    17ea: 69 00        	adc	#$0
    17ec: 85 13        	sta	$13                     ; 0x13 <__rc3>
    17ee: 98           	tya
    17ef: 20 dd 09     	jsr	$9dd <FAR_PEEK>
    17f2: a0 0e        	ldy	#$e
    17f4: 91 10        	sta	($10),y                 ; 0x10 <__rc0>
    17f6: 18           	clc
    17f7: a5 2e        	lda	$2e                     ; 0x2e <__rc30>
    17f9: a0 30        	ldy	#$30
    17fb: 71 24        	adc	($24),y                 ; 0x24 <__rc20>
    17fd: aa           	tax
    17fe: a5 26        	lda	$26                     ; 0x26 <__rc22>
    1800: a0 01        	ldy	#$1
    1802: 71 2a        	adc	($2a),y                 ; 0x2a <__rc26>
    1804: 85 12        	sta	$12                     ; 0x12 <__rc2>
    1806: a5 2f        	lda	$2f                     ; 0x2f <__rc31>
    1808: c8           	iny
    1809: 71 2a        	adc	($2a),y                 ; 0x2a <__rc26>
    180b: 85 13        	sta	$13                     ; 0x13 <__rc3>
    180d: a5 2d        	lda	$2d                     ; 0x2d <__rc29>
    180f: c8           	iny
    1810: 71 2a        	adc	($2a),y                 ; 0x2a <__rc26>
    1812: 85 14        	sta	$14                     ; 0x14 <__rc4>
    1814: 18           	clc
    1815: 8a           	txa
    1816: 69 03        	adc	#$3
    1818: a8           	tay
    1819: a5 12        	lda	$12                     ; 0x12 <__rc2>
    181b: 69 00        	adc	#$0
    181d: aa           	tax
    181e: a5 13        	lda	$13                     ; 0x13 <__rc3>
    1820: 69 00        	adc	#$0
    1822: 85 12        	sta	$12                     ; 0x12 <__rc2>
    1824: a5 14        	lda	$14                     ; 0x14 <__rc4>
    1826: 69 00        	adc	#$0
    1828: 85 13        	sta	$13                     ; 0x13 <__rc3>
    182a: 98           	tya
    182b: 20 dd 09     	jsr	$9dd <FAR_PEEK>
    182e: 85 27        	sta	$27                     ; 0x27 <__rc23>
    1830: 18           	clc
    1831: a5 2e        	lda	$2e                     ; 0x2e <__rc30>
    1833: a0 30        	ldy	#$30
    1835: 71 24        	adc	($24),y                 ; 0x24 <__rc20>
    1837: aa           	tax
    1838: a5 26        	lda	$26                     ; 0x26 <__rc22>
    183a: a0 01        	ldy	#$1
    183c: 71 2a        	adc	($2a),y                 ; 0x2a <__rc26>
    183e: 85 12        	sta	$12                     ; 0x12 <__rc2>
    1840: a5 2f        	lda	$2f                     ; 0x2f <__rc31>
    1842: c8           	iny
    1843: 71 2a        	adc	($2a),y                 ; 0x2a <__rc26>
    1845: 85 13        	sta	$13                     ; 0x13 <__rc3>
    1847: a5 2d        	lda	$2d                     ; 0x2d <__rc29>
    1849: c8           	iny
    184a: 71 2a        	adc	($2a),y                 ; 0x2a <__rc26>
    184c: 85 14        	sta	$14                     ; 0x14 <__rc4>
    184e: 18           	clc
    184f: 8a           	txa
    1850: 69 04        	adc	#$4
    1852: a8           	tay
    1853: a5 12        	lda	$12                     ; 0x12 <__rc2>
    1855: 69 00        	adc	#$0
    1857: aa           	tax
    1858: a5 13        	lda	$13                     ; 0x13 <__rc3>
    185a: 69 00        	adc	#$0
    185c: 85 12        	sta	$12                     ; 0x12 <__rc2>
    185e: a5 14        	lda	$14                     ; 0x14 <__rc4>
    1860: 69 00        	adc	#$0
    1862: 85 13        	sta	$13                     ; 0x13 <__rc3>
    1864: 98           	tya
    1865: 20 dd 09     	jsr	$9dd <FAR_PEEK>
    1868: a0 10        	ldy	#$10
    186a: 91 10        	sta	($10),y                 ; 0x10 <__rc0>
    186c: 18           	clc
    186d: a5 2e        	lda	$2e                     ; 0x2e <__rc30>
    186f: a0 30        	ldy	#$30
    1871: 71 24        	adc	($24),y                 ; 0x24 <__rc20>
    1873: aa           	tax
    1874: a5 26        	lda	$26                     ; 0x26 <__rc22>
    1876: a0 01        	ldy	#$1
    1878: 71 2a        	adc	($2a),y                 ; 0x2a <__rc26>
    187a: 85 12        	sta	$12                     ; 0x12 <__rc2>
    187c: a5 2f        	lda	$2f                     ; 0x2f <__rc31>
    187e: c8           	iny
    187f: 71 2a        	adc	($2a),y                 ; 0x2a <__rc26>
    1881: 85 13        	sta	$13                     ; 0x13 <__rc3>
    1883: a5 2d        	lda	$2d                     ; 0x2d <__rc29>
    1885: c8           	iny
    1886: 71 2a        	adc	($2a),y                 ; 0x2a <__rc26>
    1888: 85 14        	sta	$14                     ; 0x14 <__rc4>
    188a: 18           	clc
    188b: 8a           	txa
    188c: 69 05        	adc	#$5
    188e: a8           	tay
    188f: a5 12        	lda	$12                     ; 0x12 <__rc2>
    1891: 69 00        	adc	#$0
    1893: aa           	tax
    1894: a5 13        	lda	$13                     ; 0x13 <__rc3>
    1896: 69 00        	adc	#$0
    1898: 85 12        	sta	$12                     ; 0x12 <__rc2>
    189a: a5 14        	lda	$14                     ; 0x14 <__rc4>
    189c: 69 00        	adc	#$0
    189e: 85 13        	sta	$13                     ; 0x13 <__rc3>
    18a0: 98           	tya
    18a1: 20 dd 09     	jsr	$9dd <FAR_PEEK>
    18a4: a0 0f        	ldy	#$f
    18a6: 91 10        	sta	($10),y                 ; 0x10 <__rc0>
    18a8: 18           	clc
    18a9: a5 2e        	lda	$2e                     ; 0x2e <__rc30>
    18ab: a0 30        	ldy	#$30
    18ad: 71 24        	adc	($24),y                 ; 0x24 <__rc20>
    18af: aa           	tax
    18b0: a5 26        	lda	$26                     ; 0x26 <__rc22>
    18b2: a0 01        	ldy	#$1
    18b4: 71 2a        	adc	($2a),y                 ; 0x2a <__rc26>
    18b6: 85 12        	sta	$12                     ; 0x12 <__rc2>
    18b8: a5 2f        	lda	$2f                     ; 0x2f <__rc31>
    18ba: c8           	iny
    18bb: 71 2a        	adc	($2a),y                 ; 0x2a <__rc26>
    18bd: 85 13        	sta	$13                     ; 0x13 <__rc3>
    18bf: a5 2d        	lda	$2d                     ; 0x2d <__rc29>
    18c1: c8           	iny
    18c2: 71 2a        	adc	($2a),y                 ; 0x2a <__rc26>
    18c4: 85 14        	sta	$14                     ; 0x14 <__rc4>
    18c6: 18           	clc
    18c7: 8a           	txa
    18c8: 69 06        	adc	#$6
    18ca: a8           	tay
    18cb: a5 12        	lda	$12                     ; 0x12 <__rc2>
    18cd: 69 00        	adc	#$0
    18cf: aa           	tax
    18d0: a5 13        	lda	$13                     ; 0x13 <__rc3>
    18d2: 69 00        	adc	#$0
    18d4: 85 12        	sta	$12                     ; 0x12 <__rc2>
    18d6: a5 14        	lda	$14                     ; 0x14 <__rc4>
    18d8: 69 00        	adc	#$0
    18da: 85 13        	sta	$13                     ; 0x13 <__rc3>
    18dc: 98           	tya
    18dd: 20 dd 09     	jsr	$9dd <FAR_PEEK>
    18e0: a0 0d        	ldy	#$d
    18e2: 91 10        	sta	($10),y                 ; 0x10 <__rc0>
    18e4: 18           	clc
    18e5: a5 2e        	lda	$2e                     ; 0x2e <__rc30>
    18e7: a0 30        	ldy	#$30
    18e9: 71 24        	adc	($24),y                 ; 0x24 <__rc20>
    18eb: 85 14        	sta	$14                     ; 0x14 <__rc4>
    18ed: a5 26        	lda	$26                     ; 0x26 <__rc22>
    18ef: a0 01        	ldy	#$1
    18f1: 71 2a        	adc	($2a),y                 ; 0x2a <__rc26>
    18f3: 85 12        	sta	$12                     ; 0x12 <__rc2>
    18f5: a5 2f        	lda	$2f                     ; 0x2f <__rc31>
    18f7: c8           	iny
    18f8: 71 2a        	adc	($2a),y                 ; 0x2a <__rc26>
    18fa: 85 13        	sta	$13                     ; 0x13 <__rc3>
    18fc: a5 2d        	lda	$2d                     ; 0x2d <__rc29>
    18fe: c8           	iny
    18ff: 71 2a        	adc	($2a),y                 ; 0x2a <__rc26>
    1901: aa           	tax
    1902: 18           	clc
    1903: a5 14        	lda	$14                     ; 0x14 <__rc4>
    1905: 69 07        	adc	#$7
    1907: a8           	tay
    1908: a5 12        	lda	$12                     ; 0x12 <__rc2>
    190a: 69 00        	adc	#$0
    190c: 85 14        	sta	$14                     ; 0x14 <__rc4>
    190e: a5 13        	lda	$13                     ; 0x13 <__rc3>
    1910: 69 00        	adc	#$0
    1912: 85 12        	sta	$12                     ; 0x12 <__rc2>
    1914: 8a           	txa
    1915: 69 00        	adc	#$0
    1917: 85 13        	sta	$13                     ; 0x13 <__rc3>
    1919: a6 14        	ldx	$14                     ; 0x14 <__rc4>
    191b: 98           	tya
    191c: 20 dd 09     	jsr	$9dd <FAR_PEEK>
    191f: 48           	pha
    1920: a0 0e        	ldy	#$e
    1922: b1 10        	lda	($10),y                 ; 0x10 <__rc0>
    1924: a8           	tay
    1925: 5a           	phy
    1926: a0 11        	ldy	#$11
    1928: b1 10        	lda	($10),y                 ; 0x10 <__rc0>
    192a: 7a           	ply
    192b: 85 14        	sta	$14                     ; 0x14 <__rc4>
    192d: 68           	pla
    192e: a6 27        	ldx	$27                     ; 0x27 <__rc23>
    1930: d0 0f        	bne	$1941 <playmiditype0+0x322>
    1932: c0 00        	cpy	#$0
    1934: d0 0b        	bne	$1941 <playmiditype0+0x322>
    1936: a6 2c        	ldx	$2c                     ; 0x2c <__rc28>
    1938: d0 07        	bne	$1941 <playmiditype0+0x322>
    193a: a6 14        	ldx	$14                     ; 0x14 <__rc4>
    193c: d0 03        	bne	$1941 <playmiditype0+0x322>
    193e: 4c cb 19     	jmp	$19cb <playmiditype0+0x3ac>
    1941: a6 2c        	ldx	$2c                     ; 0x2c <__rc28>
    1943: 86 2b        	stx	$2b                     ; 0x2b <__rc27>
    1945: a6 14        	ldx	$14                     ; 0x14 <__rc4>
    1947: 84 12        	sty	$12                     ; 0x12 <__rc2>
    1949: a4 27        	ldy	$27                     ; 0x27 <__rc23>
    194b: d0 03        	bne	$1950 <playmiditype0+0x331>
    194d: 4c b6 19     	jmp	$19b6 <playmiditype0+0x397>
    1950: a4 27        	ldy	$27                     ; 0x27 <__rc23>
    1952: 84 2c        	sty	$2c                     ; 0x2c <__rc28>
    1954: 85 27        	sta	$27                     ; 0x27 <__rc23>
    1956: 8a           	txa
    1957: a6 12        	ldx	$12                     ; 0x12 <__rc2>
    1959: 86 26        	stx	$26                     ; 0x26 <__rc22>
    195b: 85 2a        	sta	$2a                     ; 0x2a <__rc26>
    195d: a2 ff        	ldx	#$ff
    195f: 86 12        	stx	$12                     ; 0x12 <__rc2>
    1961: 8a           	txa
    1962: 20 cc 26     	jsr	$26cc <setTimer0>
    1965: 20 ec 26     	jsr	$26ec <isTimer0Done>
    1968: aa           	tax
    1969: f0 fa        	beq	$1965 <playmiditype0+0x346>
    196b: a2 10        	ldx	#$10
    196d: 8e 60 d6     	stx	$d660                   ; 0xd660 <end_block9+0xaadc>
    1970: 18           	clc
    1971: a5 2a        	lda	$2a                     ; 0x2a <__rc26>
    1973: 69 01        	adc	#$1
    1975: a8           	tay
    1976: a5 2b        	lda	$2b                     ; 0x2b <__rc27>
    1978: 69 00        	adc	#$0
    197a: 85 2b        	sta	$2b                     ; 0x2b <__rc27>
    197c: a5 26        	lda	$26                     ; 0x26 <__rc22>
    197e: 69 00        	adc	#$0
    1980: aa           	tax
    1981: a5 2c        	lda	$2c                     ; 0x2c <__rc28>
    1983: 69 ff        	adc	#$ff
    1985: c9 01        	cmp	#$1
    1987: d0 12        	bne	$199b <playmiditype0+0x37c>
    1989: 85 2c        	sta	$2c                     ; 0x2c <__rc28>
    198b: 8a           	txa
    198c: d0 15        	bne	$19a3 <playmiditype0+0x384>
    198e: 86 12        	stx	$12                     ; 0x12 <__rc2>
    1990: 98           	tya
    1991: a6 2b        	ldx	$2b                     ; 0x2b <__rc27>
    1993: d0 18        	bne	$19ad <playmiditype0+0x38e>
    1995: c9 00        	cmp	#$0
    1997: b0 be        	bcs	$1957 <playmiditype0+0x338>
    1999: 80 1e        	bra	$19b9 <playmiditype0+0x39a>
    199b: 86 12        	stx	$12                     ; 0x12 <__rc2>
    199d: 85 2c        	sta	$2c                     ; 0x2c <__rc28>
    199f: c9 01        	cmp	#$1
    19a1: 80 04        	bra	$19a7 <playmiditype0+0x388>
    19a3: 86 12        	stx	$12                     ; 0x12 <__rc2>
    19a5: e0 00        	cpx	#$0
    19a7: 98           	tya
    19a8: 90 0f        	bcc	$19b9 <playmiditype0+0x39a>
    19aa: 4c 57 19     	jmp	$1957 <playmiditype0+0x338>
    19ad: a6 2b        	ldx	$2b                     ; 0x2b <__rc27>
    19af: e0 00        	cpx	#$0
    19b1: 90 06        	bcc	$19b9 <playmiditype0+0x39a>
    19b3: 4c 57 19     	jmp	$1957 <playmiditype0+0x338>
    19b6: 85 27        	sta	$27                     ; 0x27 <__rc23>
    19b8: 8a           	txa
    19b9: a6 2b        	ldx	$2b                     ; 0x2b <__rc27>
    19bb: 20 cc 26     	jsr	$26cc <setTimer0>
    19be: 20 ec 26     	jsr	$26ec <isTimer0Done>
    19c1: aa           	tax
    19c2: f0 fa        	beq	$19be <playmiditype0+0x39f>
    19c4: a2 10        	ldx	#$10
    19c6: 8e 60 d6     	stx	$d660                   ; 0xd660 <end_block9+0xaadc>
    19c9: a5 27        	lda	$27                     ; 0x27 <__rc23>
    19cb: 48           	pha
    19cc: a0 0f        	ldy	#$f
    19ce: b1 10        	lda	($10),y                 ; 0x10 <__rc0>
    19d0: 8d a1 dd     	sta	$dda1                   ; 0xdda1 <end_block9+0xb21d>
    19d3: a0 0d        	ldy	#$d
    19d5: b1 10        	lda	($10),y                 ; 0x10 <__rc0>
    19d7: 8d a1 dd     	sta	$dda1                   ; 0xdda1 <end_block9+0xb21d>
    19da: a0 10        	ldy	#$10
    19dc: b1 10        	lda	($10),y                 ; 0x10 <__rc0>
    19de: aa           	tax
    19df: 68           	pla
    19e0: e0 03        	cpx	#$3
    19e2: d0 03        	bne	$19e7 <playmiditype0+0x3c8>
    19e4: 8d a1 dd     	sta	$dda1                   ; 0xdda1 <end_block9+0xb21d>
    19e7: a5 24        	lda	$24                     ; 0x24 <__rc20>
    19e9: 18           	clc
    19ea: 69 20        	adc	#$20
    19ec: 85 12        	sta	$12                     ; 0x12 <__rc2>
    19ee: a5 25        	lda	$25                     ; 0x25 <__rc21>
    19f0: 69 00        	adc	#$0
    19f2: 85 13        	sta	$13                     ; 0x13 <__rc3>
    19f4: a0 20        	ldy	#$20
    19f6: b1 24        	lda	($24),y                 ; 0x24 <__rc20>
    19f8: aa           	tax
    19f9: a0 01        	ldy	#$1
    19fb: b1 12        	lda	($12),y                 ; 0x12 <__rc2>
    19fd: 86 12        	stx	$12                     ; 0x12 <__rc2>
    19ff: 85 13        	sta	$13                     ; 0x13 <__rc3>
    1a01: b2 12        	lda	($12)                   ; 0x12 <__rc2>
    1a03: 85 14        	sta	$14                     ; 0x14 <__rc4>
    1a05: b1 12        	lda	($12),y                 ; 0x12 <__rc2>
    1a07: aa           	tax
    1a08: a5 14        	lda	$14                     ; 0x14 <__rc4>
    1a0a: 1a           	inc
    1a0b: d0 01        	bne	$1a0e <playmiditype0+0x3ef>
    1a0d: e8           	inx
    1a0e: 92 12        	sta	($12)                   ; 0x12 <__rc2>
    1a10: 8a           	txa
    1a11: 91 12        	sta	($12),y                 ; 0x12 <__rc2>
    1a13: a2 ff        	ldx	#$ff
    1a15: c6 28        	dec	$28                     ; 0x28 <__rc24>
    1a17: e4 28        	cpx	$28                     ; 0x28 <__rc24>
    1a19: f0 03        	beq	$1a1e <playmiditype0+0x3ff>
    1a1b: 4c ae 16     	jmp	$16ae <playmiditype0+0x8f>
    1a1e: c6 29        	dec	$29                     ; 0x29 <__rc25>
    1a20: 4c ae 16     	jmp	$16ae <playmiditype0+0x8f>
    1a23: a5 28        	lda	$28                     ; 0x28 <__rc24>
    1a25: f0 03        	beq	$1a2a <playmiditype0+0x40b>
    1a27: 4c b5 16     	jmp	$16b5 <playmiditype0+0x96>
    1a2a: a9 00        	lda	#$0
    1a2c: 85 20        	sta	$20                     ; 0x20 <__rc16>
    1a2e: a8           	tay
    1a2f: b1 10        	lda	($10),y                 ; 0x10 <__rc0>
    1a31: 85 2f        	sta	$2f                     ; 0x2f <__rc31>
    1a33: c8           	iny
    1a34: b1 10        	lda	($10),y                 ; 0x10 <__rc0>
    1a36: 85 2e        	sta	$2e                     ; 0x2e <__rc30>
    1a38: c8           	iny
    1a39: b1 10        	lda	($10),y                 ; 0x10 <__rc0>
    1a3b: 85 2d        	sta	$2d                     ; 0x2d <__rc29>
    1a3d: c8           	iny
    1a3e: b1 10        	lda	($10),y                 ; 0x10 <__rc0>
    1a40: 85 2c        	sta	$2c                     ; 0x2c <__rc28>
    1a42: c8           	iny
    1a43: b1 10        	lda	($10),y                 ; 0x10 <__rc0>
    1a45: 85 2b        	sta	$2b                     ; 0x2b <__rc27>
    1a47: c8           	iny
    1a48: b1 10        	lda	($10),y                 ; 0x10 <__rc0>
    1a4a: 85 2a        	sta	$2a                     ; 0x2a <__rc26>
    1a4c: c8           	iny
    1a4d: b1 10        	lda	($10),y                 ; 0x10 <__rc0>
    1a4f: 85 29        	sta	$29                     ; 0x29 <__rc25>
    1a51: c8           	iny
    1a52: b1 10        	lda	($10),y                 ; 0x10 <__rc0>
    1a54: 85 28        	sta	$28                     ; 0x28 <__rc24>
    1a56: fa           	plx
    1a57: 86 27        	stx	$27                     ; 0x27 <__rc23>
    1a59: fa           	plx
    1a5a: 86 26        	stx	$26                     ; 0x26 <__rc22>
    1a5c: fa           	plx
    1a5d: 86 25        	stx	$25                     ; 0x25 <__rc21>
    1a5f: fa           	plx
    1a60: 86 24        	stx	$24                     ; 0x24 <__rc20>
    1a62: 18           	clc
    1a63: a5 10        	lda	$10                     ; 0x10 <__rc0>
    1a65: 69 12        	adc	#$12
    1a67: 85 10        	sta	$10                     ; 0x10 <__rc0>
    1a69: a5 11        	lda	$11                     ; 0x11 <__rc1>
    1a6b: 69 00        	adc	#$0
    1a6d: 85 11        	sta	$11                     ; 0x11 <__rc1>
    1a6f: a5 20        	lda	$20                     ; 0x20 <__rc16>
    1a71: 60           	rts

00001a72 <playmidi>:
    1a72: 18           	clc
    1a73: a5 10        	lda	$10                     ; 0x10 <__rc0>
    1a75: 69 dc        	adc	#$dc
    1a77: 85 10        	sta	$10                     ; 0x10 <__rc0>
    1a79: a5 11        	lda	$11                     ; 0x11 <__rc1>
    1a7b: 69 ff        	adc	#$ff
    1a7d: 85 11        	sta	$11                     ; 0x11 <__rc1>
    1a7f: a6 24        	ldx	$24                     ; 0x24 <__rc20>
    1a81: da           	phx
    1a82: a6 25        	ldx	$25                     ; 0x25 <__rc21>
    1a84: da           	phx
    1a85: a6 26        	ldx	$26                     ; 0x26 <__rc22>
    1a87: da           	phx
    1a88: a6 27        	ldx	$27                     ; 0x27 <__rc23>
    1a8a: da           	phx
    1a8b: a5 28        	lda	$28                     ; 0x28 <__rc24>
    1a8d: a0 07        	ldy	#$7
    1a8f: 91 10        	sta	($10),y                 ; 0x10 <__rc0>
    1a91: a5 29        	lda	$29                     ; 0x29 <__rc25>
    1a93: 88           	dey
    1a94: 91 10        	sta	($10),y                 ; 0x10 <__rc0>
    1a96: a5 2a        	lda	$2a                     ; 0x2a <__rc26>
    1a98: 88           	dey
    1a99: 91 10        	sta	($10),y                 ; 0x10 <__rc0>
    1a9b: a5 2b        	lda	$2b                     ; 0x2b <__rc27>
    1a9d: 88           	dey
    1a9e: 91 10        	sta	($10),y                 ; 0x10 <__rc0>
    1aa0: a5 2c        	lda	$2c                     ; 0x2c <__rc28>
    1aa2: 88           	dey
    1aa3: 91 10        	sta	($10),y                 ; 0x10 <__rc0>
    1aa5: a5 2d        	lda	$2d                     ; 0x2d <__rc29>
    1aa7: 88           	dey
    1aa8: 91 10        	sta	($10),y                 ; 0x10 <__rc0>
    1aaa: a5 2e        	lda	$2e                     ; 0x2e <__rc30>
    1aac: 88           	dey
    1aad: 91 10        	sta	($10),y                 ; 0x10 <__rc0>
    1aaf: a5 2f        	lda	$2f                     ; 0x2f <__rc31>
    1ab1: 88           	dey
    1ab2: 91 10        	sta	($10),y                 ; 0x10 <__rc0>
    1ab4: a5 12        	lda	$12                     ; 0x12 <__rc2>
    1ab6: a0 18        	ldy	#$18
    1ab8: 91 10        	sta	($10),y                 ; 0x10 <__rc0>
    1aba: a5 13        	lda	$13                     ; 0x13 <__rc3>
    1abc: c8           	iny
    1abd: 91 10        	sta	($10),y                 ; 0x10 <__rc0>
    1abf: a6 14        	ldx	$14                     ; 0x14 <__rc4>
    1ac1: 86 24        	stx	$24                     ; 0x24 <__rc20>
    1ac3: a6 15        	ldx	$15                     ; 0x15 <__rc5>
    1ac5: 86 25        	stx	$25                     ; 0x25 <__rc21>
    1ac7: a6 14        	ldx	$14                     ; 0x14 <__rc4>
    1ac9: 86 12        	stx	$12                     ; 0x12 <__rc2>
    1acb: a6 15        	ldx	$15                     ; 0x15 <__rc5>
    1acd: 86 13        	stx	$13                     ; 0x13 <__rc3>
    1acf: e6 12        	inc	$12                     ; 0x12 <__rc2>
    1ad1: d0 02        	bne	$1ad5 <playmidi+0x63>
    1ad3: e6 13        	inc	$13                     ; 0x13 <__rc3>
    1ad5: a0 01        	ldy	#$1
    1ad7: b1 14        	lda	($14),y                 ; 0x14 <__rc4>
    1ad9: 85 26        	sta	$26                     ; 0x26 <__rc22>
    1adb: b1 12        	lda	($12),y                 ; 0x12 <__rc2>
    1add: 85 27        	sta	$27                     ; 0x27 <__rc23>
    1adf: a5 26        	lda	$26                     ; 0x26 <__rc22>
    1ae1: 0a           	asl
    1ae2: a6 27        	ldx	$27                     ; 0x27 <__rc23>
    1ae4: 86 12        	stx	$12                     ; 0x12 <__rc2>
    1ae6: 26 12        	rol	$12                     ; 0x12 <__rc2>
    1ae8: 0a           	asl
    1ae9: 26 12        	rol	$12                     ; 0x12 <__rc2>
    1aeb: a6 12        	ldx	$12                     ; 0x12 <__rc2>
    1aed: 20 02 27     	jsr	$2702 <malloc>
    1af0: a5 12        	lda	$12                     ; 0x12 <__rc2>
    1af2: a0 14        	ldy	#$14
    1af4: 91 10        	sta	($10),y                 ; 0x10 <__rc0>
    1af6: a5 13        	lda	$13                     ; 0x13 <__rc3>
    1af8: c8           	iny
    1af9: 91 10        	sta	($10),y                 ; 0x10 <__rc0>
    1afb: a5 24        	lda	$24                     ; 0x24 <__rc20>
    1afd: a0 1a        	ldy	#$1a
    1aff: 91 10        	sta	($10),y                 ; 0x10 <__rc0>
    1b01: a5 25        	lda	$25                     ; 0x25 <__rc21>
    1b03: c8           	iny
    1b04: 91 10        	sta	($10),y                 ; 0x10 <__rc0>
    1b06: a6 24        	ldx	$24                     ; 0x24 <__rc20>
    1b08: 86 12        	stx	$12                     ; 0x12 <__rc2>
    1b0a: a6 25        	ldx	$25                     ; 0x25 <__rc21>
    1b0c: 86 13        	stx	$13                     ; 0x13 <__rc3>
    1b0e: 20 68 10     	jsr	$1068 <getTotalLeft>
    1b11: a0 13        	ldy	#$13
    1b13: 91 10        	sta	($10),y                 ; 0x10 <__rc0>
    1b15: 8a           	txa
    1b16: 88           	dey
    1b17: 91 10        	sta	($10),y                 ; 0x10 <__rc0>
    1b19: a6 26        	ldx	$26                     ; 0x26 <__rc22>
    1b1b: 86 14        	stx	$14                     ; 0x14 <__rc4>
    1b1d: a5 26        	lda	$26                     ; 0x26 <__rc22>
    1b1f: a0 16        	ldy	#$16
    1b21: 91 10        	sta	($10),y                 ; 0x10 <__rc0>
    1b23: a6 27        	ldx	$27                     ; 0x27 <__rc23>
    1b25: 86 15        	stx	$15                     ; 0x15 <__rc5>
    1b27: a5 27        	lda	$27                     ; 0x27 <__rc23>
    1b29: c8           	iny
    1b2a: 91 10        	sta	($10),y                 ; 0x10 <__rc0>
    1b2c: a5 15        	lda	$15                     ; 0x15 <__rc5>
    1b2e: d0 07        	bne	$1b37 <playmidi+0xc5>
    1b30: a5 14        	lda	$14                     ; 0x14 <__rc4>
    1b32: d0 03        	bne	$1b37 <playmidi+0xc5>
    1b34: 4c 41 1d     	jmp	$1d41 <playmidi+0x2cf>
    1b37: a2 03        	ldx	#$3
    1b39: 64 12        	stz	$12                     ; 0x12 <__rc2>
    1b3b: a9 00        	lda	#$0
    1b3d: a0 20        	ldy	#$20
    1b3f: 91 10        	sta	($10),y                 ; 0x10 <__rc0>
    1b41: 8a           	txa
    1b42: 88           	dey
    1b43: 91 10        	sta	($10),y                 ; 0x10 <__rc0>
    1b45: a0 14        	ldy	#$14
    1b47: b1 10        	lda	($10),y                 ; 0x10 <__rc0>
    1b49: 85 2c        	sta	$2c                     ; 0x2c <__rc28>
    1b4b: c8           	iny
    1b4c: b1 10        	lda	($10),y                 ; 0x10 <__rc0>
    1b4e: 85 2d        	sta	$2d                     ; 0x2d <__rc29>
    1b50: c8           	iny
    1b51: b1 10        	lda	($10),y                 ; 0x10 <__rc0>
    1b53: 85 28        	sta	$28                     ; 0x28 <__rc24>
    1b55: c8           	iny
    1b56: b1 10        	lda	($10),y                 ; 0x10 <__rc0>
    1b58: 85 29        	sta	$29                     ; 0x29 <__rc25>
    1b5a: 80 19        	bra	$1b75 <playmidi+0x103>
    1b5c: 85 2d        	sta	$2d                     ; 0x2d <__rc29>
    1b5e: 18           	clc
    1b5f: a0 1f        	ldy	#$1f
    1b61: b1 10        	lda	($10),y                 ; 0x10 <__rc0>
    1b63: 69 07        	adc	#$7
    1b65: 91 10        	sta	($10),y                 ; 0x10 <__rc0>
    1b67: c8           	iny
    1b68: b1 10        	lda	($10),y                 ; 0x10 <__rc0>
    1b6a: 69 00        	adc	#$0
    1b6c: 91 10        	sta	($10),y                 ; 0x10 <__rc0>
    1b6e: a5 29        	lda	$29                     ; 0x29 <__rc25>
    1b70: d0 03        	bne	$1b75 <playmidi+0x103>
    1b72: 4c 3a 1d     	jmp	$1d3a <playmidi+0x2c8>
    1b75: a0 1a        	ldy	#$1a
    1b77: b1 10        	lda	($10),y                 ; 0x10 <__rc0>
    1b79: 85 14        	sta	$14                     ; 0x14 <__rc4>
    1b7b: c8           	iny
    1b7c: b1 10        	lda	($10),y                 ; 0x10 <__rc0>
    1b7e: 85 15        	sta	$15                     ; 0x15 <__rc5>
    1b80: a5 14        	lda	$14                     ; 0x14 <__rc4>
    1b82: 18           	clc
    1b83: 69 03        	adc	#$3
    1b85: 85 12        	sta	$12                     ; 0x12 <__rc2>
    1b87: a5 15        	lda	$15                     ; 0x15 <__rc5>
    1b89: 69 00        	adc	#$0
    1b8b: 85 13        	sta	$13                     ; 0x13 <__rc3>
    1b8d: a0 03        	ldy	#$3
    1b8f: b1 14        	lda	($14),y                 ; 0x14 <__rc4>
    1b91: aa           	tax
    1b92: a0 01        	ldy	#$1
    1b94: b1 12        	lda	($12),y                 ; 0x12 <__rc2>
    1b96: 85 13        	sta	$13                     ; 0x13 <__rc3>
    1b98: 5a           	phy
    1b99: a0 1f        	ldy	#$1f
    1b9b: b1 10        	lda	($10),y                 ; 0x10 <__rc0>
    1b9d: 85 12        	sta	$12                     ; 0x12 <__rc2>
    1b9f: 8a           	txa
    1ba0: 86 16        	stx	$16                     ; 0x16 <__rc6>
    1ba2: 18           	clc
    1ba3: 65 12        	adc	$12                     ; 0x12 <__rc2>
    1ba5: aa           	tax
    1ba6: c8           	iny
    1ba7: b1 10        	lda	($10),y                 ; 0x10 <__rc0>
    1ba9: 7a           	ply
    1baa: 85 12        	sta	$12                     ; 0x12 <__rc2>
    1bac: a5 13        	lda	$13                     ; 0x13 <__rc3>
    1bae: 85 17        	sta	$17                     ; 0x17 <__rc7>
    1bb0: 65 12        	adc	$12                     ; 0x12 <__rc2>
    1bb2: 85 13        	sta	$13                     ; 0x13 <__rc3>
    1bb4: 18           	clc
    1bb5: 8a           	txa
    1bb6: 69 fe        	adc	#$fe
    1bb8: 85 12        	sta	$12                     ; 0x12 <__rc2>
    1bba: a5 13        	lda	$13                     ; 0x13 <__rc3>
    1bbc: 69 ff        	adc	#$ff
    1bbe: 85 13        	sta	$13                     ; 0x13 <__rc3>
    1bc0: b2 12        	lda	($12)                   ; 0x12 <__rc2>
    1bc2: 85 18        	sta	$18                     ; 0x18 <__rc8>
    1bc4: b1 12        	lda	($12),y                 ; 0x12 <__rc2>
    1bc6: 64 12        	stz	$12                     ; 0x12 <__rc2>
    1bc8: 48           	pha
    1bc9: a9 00        	lda	#$0
    1bcb: a0 1d        	ldy	#$1d
    1bcd: 91 10        	sta	($10),y                 ; 0x10 <__rc0>
    1bcf: 88           	dey
    1bd0: 91 10        	sta	($10),y                 ; 0x10 <__rc0>
    1bd2: 68           	pla
    1bd3: 64 25        	stz	$25                     ; 0x25 <__rc21>
    1bd5: a2 00        	ldx	#$0
    1bd7: a8           	tay
    1bd8: d0 07        	bne	$1be1 <playmidi+0x16f>
    1bda: a5 18        	lda	$18                     ; 0x18 <__rc8>
    1bdc: d0 03        	bne	$1be1 <playmidi+0x16f>
    1bde: 4c 05 1d     	jmp	$1d05 <playmidi+0x293>
    1be1: a0 1f        	ldy	#$1f
    1be3: b1 10        	lda	($10),y                 ; 0x10 <__rc0>
    1be5: 85 12        	sta	$12                     ; 0x12 <__rc2>
    1be7: a5 16        	lda	$16                     ; 0x16 <__rc6>
    1be9: 18           	clc
    1bea: 65 12        	adc	$12                     ; 0x12 <__rc2>
    1bec: aa           	tax
    1bed: c8           	iny
    1bee: b1 10        	lda	($10),y                 ; 0x10 <__rc0>
    1bf0: 85 12        	sta	$12                     ; 0x12 <__rc2>
    1bf2: a5 17        	lda	$17                     ; 0x17 <__rc7>
    1bf4: 65 12        	adc	$12                     ; 0x12 <__rc2>
    1bf6: 86 12        	stx	$12                     ; 0x12 <__rc2>
    1bf8: 85 13        	sta	$13                     ; 0x13 <__rc3>
    1bfa: b2 12        	lda	($12)                   ; 0x12 <__rc2>
    1bfc: 85 24        	sta	$24                     ; 0x24 <__rc20>
    1bfe: a0 01        	ldy	#$1
    1c00: b1 12        	lda	($12),y                 ; 0x12 <__rc2>
    1c02: 85 2f        	sta	$2f                     ; 0x2f <__rc31>
    1c04: c8           	iny
    1c05: b1 12        	lda	($12),y                 ; 0x12 <__rc2>
    1c07: a0 1e        	ldy	#$1e
    1c09: 91 10        	sta	($10),y                 ; 0x10 <__rc0>
    1c0b: a0 18        	ldy	#$18
    1c0d: b1 10        	lda	($10),y                 ; 0x10 <__rc0>
    1c0f: 85 26        	sta	$26                     ; 0x26 <__rc22>
    1c11: c8           	iny
    1c12: b1 10        	lda	($10),y                 ; 0x10 <__rc0>
    1c14: 85 27        	sta	$27                     ; 0x27 <__rc23>
    1c16: a5 26        	lda	$26                     ; 0x26 <__rc22>
    1c18: 18           	clc
    1c19: 69 30        	adc	#$30
    1c1b: 85 2a        	sta	$2a                     ; 0x2a <__rc26>
    1c1d: a5 27        	lda	$27                     ; 0x27 <__rc23>
    1c1f: 69 00        	adc	#$0
    1c21: 85 2b        	sta	$2b                     ; 0x2b <__rc27>
    1c23: a0 03        	ldy	#$3
    1c25: b1 12        	lda	($12),y                 ; 0x12 <__rc2>
    1c27: 85 2e        	sta	$2e                     ; 0x2e <__rc30>
    1c29: a5 24        	lda	$24                     ; 0x24 <__rc20>
    1c2b: 18           	clc
    1c2c: a0 30        	ldy	#$30
    1c2e: 71 26        	adc	($26),y                 ; 0x26 <__rc22>
    1c30: 85 14        	sta	$14                     ; 0x14 <__rc4>
    1c32: a5 2f        	lda	$2f                     ; 0x2f <__rc31>
    1c34: a0 01        	ldy	#$1
    1c36: 71 2a        	adc	($2a),y                 ; 0x2a <__rc26>
    1c38: aa           	tax
    1c39: a0 1e        	ldy	#$1e
    1c3b: b1 10        	lda	($10),y                 ; 0x10 <__rc0>
    1c3d: a0 02        	ldy	#$2
    1c3f: 71 2a        	adc	($2a),y                 ; 0x2a <__rc26>
    1c41: 85 12        	sta	$12                     ; 0x12 <__rc2>
    1c43: a5 2e        	lda	$2e                     ; 0x2e <__rc30>
    1c45: c8           	iny
    1c46: 71 2a        	adc	($2a),y                 ; 0x2a <__rc26>
    1c48: 85 13        	sta	$13                     ; 0x13 <__rc3>
    1c4a: a5 14        	lda	$14                     ; 0x14 <__rc4>
    1c4c: 20 dd 09     	jsr	$9dd <FAR_PEEK>
    1c4f: a0 1d        	ldy	#$1d
    1c51: 91 10        	sta	($10),y                 ; 0x10 <__rc0>
    1c53: a5 24        	lda	$24                     ; 0x24 <__rc20>
    1c55: 18           	clc
    1c56: a0 30        	ldy	#$30
    1c58: 71 26        	adc	($26),y                 ; 0x26 <__rc22>
    1c5a: 85 14        	sta	$14                     ; 0x14 <__rc4>
    1c5c: a5 2f        	lda	$2f                     ; 0x2f <__rc31>
    1c5e: a0 01        	ldy	#$1
    1c60: 71 2a        	adc	($2a),y                 ; 0x2a <__rc26>
    1c62: aa           	tax
    1c63: a0 1e        	ldy	#$1e
    1c65: b1 10        	lda	($10),y                 ; 0x10 <__rc0>
    1c67: a0 02        	ldy	#$2
    1c69: 71 2a        	adc	($2a),y                 ; 0x2a <__rc26>
    1c6b: 85 12        	sta	$12                     ; 0x12 <__rc2>
    1c6d: a5 2e        	lda	$2e                     ; 0x2e <__rc30>
    1c6f: c8           	iny
    1c70: 71 2a        	adc	($2a),y                 ; 0x2a <__rc26>
    1c72: e6 14        	inc	$14                     ; 0x14 <__rc4>
    1c74: d0 08        	bne	$1c7e <playmidi+0x20c>
    1c76: e8           	inx
    1c77: d0 05        	bne	$1c7e <playmidi+0x20c>
    1c79: e6 12        	inc	$12                     ; 0x12 <__rc2>
    1c7b: d0 01        	bne	$1c7e <playmidi+0x20c>
    1c7d: 1a           	inc
    1c7e: 85 13        	sta	$13                     ; 0x13 <__rc3>
    1c80: a5 14        	lda	$14                     ; 0x14 <__rc4>
    1c82: 20 dd 09     	jsr	$9dd <FAR_PEEK>
    1c85: a0 1c        	ldy	#$1c
    1c87: 91 10        	sta	($10),y                 ; 0x10 <__rc0>
    1c89: a5 24        	lda	$24                     ; 0x24 <__rc20>
    1c8b: 18           	clc
    1c8c: a0 30        	ldy	#$30
    1c8e: 71 26        	adc	($26),y                 ; 0x26 <__rc22>
    1c90: aa           	tax
    1c91: a5 2f        	lda	$2f                     ; 0x2f <__rc31>
    1c93: a0 01        	ldy	#$1
    1c95: 71 2a        	adc	($2a),y                 ; 0x2a <__rc26>
    1c97: 85 14        	sta	$14                     ; 0x14 <__rc4>
    1c99: a0 1e        	ldy	#$1e
    1c9b: b1 10        	lda	($10),y                 ; 0x10 <__rc0>
    1c9d: a0 02        	ldy	#$2
    1c9f: 71 2a        	adc	($2a),y                 ; 0x2a <__rc26>
    1ca1: 85 12        	sta	$12                     ; 0x12 <__rc2>
    1ca3: a5 2e        	lda	$2e                     ; 0x2e <__rc30>
    1ca5: c8           	iny
    1ca6: 71 2a        	adc	($2a),y                 ; 0x2a <__rc26>
    1ca8: 85 13        	sta	$13                     ; 0x13 <__rc3>
    1caa: 18           	clc
    1cab: 8a           	txa
    1cac: 69 02        	adc	#$2
    1cae: a8           	tay
    1caf: a5 14        	lda	$14                     ; 0x14 <__rc4>
    1cb1: 69 00        	adc	#$0
    1cb3: aa           	tax
    1cb4: a5 12        	lda	$12                     ; 0x12 <__rc2>
    1cb6: 69 00        	adc	#$0
    1cb8: 85 12        	sta	$12                     ; 0x12 <__rc2>
    1cba: a5 13        	lda	$13                     ; 0x13 <__rc3>
    1cbc: 69 00        	adc	#$0
    1cbe: 85 13        	sta	$13                     ; 0x13 <__rc3>
    1cc0: 98           	tya
    1cc1: 20 dd 09     	jsr	$9dd <FAR_PEEK>
    1cc4: 85 25        	sta	$25                     ; 0x25 <__rc21>
    1cc6: 18           	clc
    1cc7: a5 24        	lda	$24                     ; 0x24 <__rc20>
    1cc9: a0 30        	ldy	#$30
    1ccb: 71 26        	adc	($26),y                 ; 0x26 <__rc22>
    1ccd: 85 16        	sta	$16                     ; 0x16 <__rc6>
    1ccf: a0 01        	ldy	#$1
    1cd1: a5 2f        	lda	$2f                     ; 0x2f <__rc31>
    1cd3: 71 2a        	adc	($2a),y                 ; 0x2a <__rc26>
    1cd5: 85 13        	sta	$13                     ; 0x13 <__rc3>
    1cd7: a0 1e        	ldy	#$1e
    1cd9: b1 10        	lda	($10),y                 ; 0x10 <__rc0>
    1cdb: a0 02        	ldy	#$2
    1cdd: 71 2a        	adc	($2a),y                 ; 0x2a <__rc26>
    1cdf: 85 12        	sta	$12                     ; 0x12 <__rc2>
    1ce1: a5 2e        	lda	$2e                     ; 0x2e <__rc30>
    1ce3: c8           	iny
    1ce4: 71 2a        	adc	($2a),y                 ; 0x2a <__rc26>
    1ce6: aa           	tax
    1ce7: 18           	clc
    1ce8: a5 16        	lda	$16                     ; 0x16 <__rc6>
    1cea: 69 03        	adc	#$3
    1cec: a8           	tay
    1ced: a5 13        	lda	$13                     ; 0x13 <__rc3>
    1cef: 69 00        	adc	#$0
    1cf1: 85 14        	sta	$14                     ; 0x14 <__rc4>
    1cf3: a5 12        	lda	$12                     ; 0x12 <__rc2>
    1cf5: 69 00        	adc	#$0
    1cf7: 85 12        	sta	$12                     ; 0x12 <__rc2>
    1cf9: 8a           	txa
    1cfa: 69 00        	adc	#$0
    1cfc: 85 13        	sta	$13                     ; 0x13 <__rc3>
    1cfe: a6 14        	ldx	$14                     ; 0x14 <__rc4>
    1d00: 98           	tya
    1d01: 20 dd 09     	jsr	$9dd <FAR_PEEK>
    1d04: aa           	tax
    1d05: a0 1d        	ldy	#$1d
    1d07: b1 10        	lda	($10),y                 ; 0x10 <__rc0>
    1d09: 92 2c        	sta	($2c)                   ; 0x2c <__rc28>
    1d0b: a0 01        	ldy	#$1
    1d0d: 5a           	phy
    1d0e: a0 1c        	ldy	#$1c
    1d10: b1 10        	lda	($10),y                 ; 0x10 <__rc0>
    1d12: 7a           	ply
    1d13: 91 2c        	sta	($2c),y                 ; 0x2c <__rc28>
    1d15: a0 02        	ldy	#$2
    1d17: a5 25        	lda	$25                     ; 0x25 <__rc21>
    1d19: 91 2c        	sta	($2c),y                 ; 0x2c <__rc28>
    1d1b: c8           	iny
    1d1c: 8a           	txa
    1d1d: 91 2c        	sta	($2c),y                 ; 0x2c <__rc28>
    1d1f: a5 2c        	lda	$2c                     ; 0x2c <__rc28>
    1d21: 18           	clc
    1d22: 69 04        	adc	#$4
    1d24: 85 2c        	sta	$2c                     ; 0x2c <__rc28>
    1d26: a5 2d        	lda	$2d                     ; 0x2d <__rc29>
    1d28: 69 00        	adc	#$0
    1d2a: a2 ff        	ldx	#$ff
    1d2c: c6 28        	dec	$28                     ; 0x28 <__rc24>
    1d2e: e4 28        	cpx	$28                     ; 0x28 <__rc24>
    1d30: f0 03        	beq	$1d35 <playmidi+0x2c3>
    1d32: 4c 5c 1b     	jmp	$1b5c <playmidi+0xea>
    1d35: c6 29        	dec	$29                     ; 0x29 <__rc25>
    1d37: 4c 5c 1b     	jmp	$1b5c <playmidi+0xea>
    1d3a: a5 28        	lda	$28                     ; 0x28 <__rc24>
    1d3c: f0 03        	beq	$1d41 <playmidi+0x2cf>
    1d3e: 4c 75 1b     	jmp	$1b75 <playmidi+0x103>
    1d41: a0 13        	ldy	#$13
    1d43: b1 10        	lda	($10),y                 ; 0x10 <__rc0>
    1d45: 85 12        	sta	$12                     ; 0x12 <__rc2>
    1d47: 88           	dey
    1d48: b1 10        	lda	($10),y                 ; 0x10 <__rc0>
    1d4a: 85 13        	sta	$13                     ; 0x13 <__rc3>
    1d4c: a5 13        	lda	$13                     ; 0x13 <__rc3>
    1d4e: d0 07        	bne	$1d57 <playmidi+0x2e5>
    1d50: a5 12        	lda	$12                     ; 0x12 <__rc2>
    1d52: d0 03        	bne	$1d57 <playmidi+0x2e5>
    1d54: 4c 55 25     	jmp	$2555 <playmidi+0xae3>
    1d57: 64 12        	stz	$12                     ; 0x12 <__rc2>
    1d59: a9 00        	lda	#$0
    1d5b: a0 0e        	ldy	#$e
    1d5d: 91 10        	sta	($10),y                 ; 0x10 <__rc0>
    1d5f: a0 18        	ldy	#$18
    1d61: b1 10        	lda	($10),y                 ; 0x10 <__rc0>
    1d63: 85 14        	sta	$14                     ; 0x14 <__rc4>
    1d65: c8           	iny
    1d66: b1 10        	lda	($10),y                 ; 0x10 <__rc0>
    1d68: 85 15        	sta	$15                     ; 0x15 <__rc5>
    1d6a: a6 14        	ldx	$14                     ; 0x14 <__rc4>
    1d6c: 8a           	txa
    1d6d: a0 09        	ldy	#$9
    1d6f: 91 10        	sta	($10),y                 ; 0x10 <__rc0>
    1d71: a6 15        	ldx	$15                     ; 0x15 <__rc5>
    1d73: 8a           	txa
    1d74: 88           	dey
    1d75: 91 10        	sta	($10),y                 ; 0x10 <__rc0>
    1d77: a2 af        	ldx	#$af
    1d79: 86 2c        	stx	$2c                     ; 0x2c <__rc28>
    1d7b: a2 00        	ldx	#$0
    1d7d: 86 2d        	stx	$2d                     ; 0x2d <__rc29>
    1d7f: a9 00        	lda	#$0
    1d81: a0 0d        	ldy	#$d
    1d83: 91 10        	sta	($10),y                 ; 0x10 <__rc0>
    1d85: a0 16        	ldy	#$16
    1d87: b1 10        	lda	($10),y                 ; 0x10 <__rc0>
    1d89: 85 12        	sta	$12                     ; 0x12 <__rc2>
    1d8b: c8           	iny
    1d8c: b1 10        	lda	($10),y                 ; 0x10 <__rc0>
    1d8e: 85 13        	sta	$13                     ; 0x13 <__rc3>
    1d90: a5 13        	lda	$13                     ; 0x13 <__rc3>
    1d92: d0 07        	bne	$1d9b <playmidi+0x329>
    1d94: a5 12        	lda	$12                     ; 0x12 <__rc2>
    1d96: d0 03        	bne	$1d9b <playmidi+0x329>
    1d98: 4c e1 20     	jmp	$20e1 <playmidi+0x66f>
    1d9b: a0 18        	ldy	#$18
    1d9d: b1 10        	lda	($10),y                 ; 0x10 <__rc0>
    1d9f: 85 14        	sta	$14                     ; 0x14 <__rc4>
    1da1: c8           	iny
    1da2: b1 10        	lda	($10),y                 ; 0x10 <__rc0>
    1da4: 85 15        	sta	$15                     ; 0x15 <__rc5>
    1da6: a5 14        	lda	$14                     ; 0x14 <__rc4>
    1da8: 18           	clc
    1da9: 69 20        	adc	#$20
    1dab: 85 12        	sta	$12                     ; 0x12 <__rc2>
    1dad: a5 15        	lda	$15                     ; 0x15 <__rc5>
    1daf: 69 00        	adc	#$0
    1db1: 85 13        	sta	$13                     ; 0x13 <__rc3>
    1db3: a0 20        	ldy	#$20
    1db5: b1 14        	lda	($14),y                 ; 0x14 <__rc4>
    1db7: 85 16        	sta	$16                     ; 0x16 <__rc6>
    1db9: a0 01        	ldy	#$1
    1dbb: b1 12        	lda	($12),y                 ; 0x12 <__rc2>
    1dbd: 85 17        	sta	$17                     ; 0x17 <__rc7>
    1dbf: a0 1a        	ldy	#$1a
    1dc1: b1 10        	lda	($10),y                 ; 0x10 <__rc0>
    1dc3: 85 14        	sta	$14                     ; 0x14 <__rc4>
    1dc5: c8           	iny
    1dc6: b1 10        	lda	($10),y                 ; 0x10 <__rc0>
    1dc8: 85 15        	sta	$15                     ; 0x15 <__rc5>
    1dca: a5 14        	lda	$14                     ; 0x14 <__rc4>
    1dcc: 18           	clc
    1dcd: 69 03        	adc	#$3
    1dcf: 85 12        	sta	$12                     ; 0x12 <__rc2>
    1dd1: a5 15        	lda	$15                     ; 0x15 <__rc5>
    1dd3: 69 00        	adc	#$0
    1dd5: 85 13        	sta	$13                     ; 0x13 <__rc3>
    1dd7: a0 03        	ldy	#$3
    1dd9: b1 14        	lda	($14),y                 ; 0x14 <__rc4>
    1ddb: 85 14        	sta	$14                     ; 0x14 <__rc4>
    1ddd: a0 01        	ldy	#$1
    1ddf: b1 12        	lda	($12),y                 ; 0x12 <__rc2>
    1de1: 85 15        	sta	$15                     ; 0x15 <__rc5>
    1de3: a2 ff        	ldx	#$ff
    1de5: 86 24        	stx	$24                     ; 0x24 <__rc20>
    1de7: 86 22        	stx	$22                     ; 0x22 <__rc18>
    1de9: 86 23        	stx	$23                     ; 0x23 <__rc19>
    1deb: 86 26        	stx	$26                     ; 0x26 <__rc22>
    1ded: e6 14        	inc	$14                     ; 0x14 <__rc4>
    1def: d0 02        	bne	$1df3 <playmidi+0x381>
    1df1: e6 15        	inc	$15                     ; 0x15 <__rc5>
    1df3: 64 12        	stz	$12                     ; 0x12 <__rc2>
    1df5: 5a           	phy
    1df6: a0 14        	ldy	#$14
    1df8: b1 10        	lda	($10),y                 ; 0x10 <__rc0>
    1dfa: 85 18        	sta	$18                     ; 0x18 <__rc8>
    1dfc: c8           	iny
    1dfd: b1 10        	lda	($10),y                 ; 0x10 <__rc0>
    1dff: 7a           	ply
    1e00: 85 19        	sta	$19                     ; 0x19 <__rc9>
    1e02: 64 13        	stz	$13                     ; 0x13 <__rc3>
    1e04: b2 16        	lda	($16)                   ; 0x16 <__rc6>
    1e06: 85 1b        	sta	$1b                     ; 0x1b <__rc11>
    1e08: b1 16        	lda	($16),y                 ; 0x16 <__rc6>
    1e0a: d1 14        	cmp	($14),y                 ; 0x14 <__rc4>
    1e0c: d0 0f        	bne	$1e1d <playmidi+0x3ab>
    1e0e: aa           	tax
    1e0f: b2 14        	lda	($14)                   ; 0x14 <__rc4>
    1e11: 85 1a        	sta	$1a                     ; 0x1a <__rc10>
    1e13: 8a           	txa
    1e14: a6 1b        	ldx	$1b                     ; 0x1b <__rc11>
    1e16: e4 1a        	cpx	$1a                     ; 0x1a <__rc10>
    1e18: 90 0a        	bcc	$1e24 <playmidi+0x3b2>
    1e1a: 4c ed 1e     	jmp	$1eed <playmidi+0x47b>
    1e1d: d1 14        	cmp	($14),y                 ; 0x14 <__rc4>
    1e1f: 90 03        	bcc	$1e24 <playmidi+0x3b2>
    1e21: 4c ed 1e     	jmp	$1eed <playmidi+0x47b>
    1e24: 85 1c        	sta	$1c                     ; 0x1c <__rc12>
    1e26: b2 18        	lda	($18)                   ; 0x18 <__rc8>
    1e28: aa           	tax
    1e29: b1 18        	lda	($18),y                 ; 0x18 <__rc8>
    1e2b: 85 25        	sta	$25                     ; 0x25 <__rc21>
    1e2d: a0 02        	ldy	#$2
    1e2f: b1 18        	lda	($18),y                 ; 0x18 <__rc8>
    1e31: 85 28        	sta	$28                     ; 0x28 <__rc24>
    1e33: 06 1b        	asl	$1b                     ; 0x1b <__rc11>
    1e35: 26 1c        	rol	$1c                     ; 0x1c <__rc12>
    1e37: 64 1e        	stz	$1e                     ; 0x1e <__rc14>
    1e39: 26 1e        	rol	$1e                     ; 0x1e <__rc14>
    1e3b: a9 00        	lda	#$0
    1e3d: 2a           	rol
    1e3e: 06 1b        	asl	$1b                     ; 0x1b <__rc11>
    1e40: 26 1c        	rol	$1c                     ; 0x1c <__rc12>
    1e42: 26 1e        	rol	$1e                     ; 0x1e <__rc14>
    1e44: 2a           	rol
    1e45: 06 1b        	asl	$1b                     ; 0x1b <__rc11>
    1e47: a4 1b        	ldy	$1b                     ; 0x1b <__rc11>
    1e49: 84 1d        	sty	$1d                     ; 0x1d <__rc13>
    1e4b: 26 1c        	rol	$1c                     ; 0x1c <__rc12>
    1e4d: 26 1e        	rol	$1e                     ; 0x1e <__rc14>
    1e4f: 2a           	rol
    1e50: 85 27        	sta	$27                     ; 0x27 <__rc23>
    1e52: a0 03        	ldy	#$3
    1e54: b1 18        	lda	($18),y                 ; 0x18 <__rc8>
    1e56: d0 03        	bne	$1e5b <playmidi+0x3e9>
    1e58: 4c a5 25     	jmp	$25a5 <playmidi+0xb33>
    1e5b: 86 1a        	stx	$1a                     ; 0x1a <__rc10>
    1e5d: a6 25        	ldx	$25                     ; 0x25 <__rc21>
    1e5f: 86 1b        	stx	$1b                     ; 0x1b <__rc11>
    1e61: c5 26        	cmp	$26                     ; 0x26 <__rc22>
    1e63: d0 1f        	bne	$1e84 <playmidi+0x412>
    1e65: 85 25        	sta	$25                     ; 0x25 <__rc21>
    1e67: a0 01        	ldy	#$1
    1e69: a6 28        	ldx	$28                     ; 0x28 <__rc24>
    1e6b: e4 23        	cpx	$23                     ; 0x23 <__rc19>
    1e6d: f0 03        	beq	$1e72 <playmidi+0x400>
    1e6f: 4c 34 1f     	jmp	$1f34 <playmidi+0x4c2>
    1e72: a6 1b        	ldx	$1b                     ; 0x1b <__rc11>
    1e74: e4 22        	cpx	$22                     ; 0x22 <__rc18>
    1e76: f0 03        	beq	$1e7b <playmidi+0x409>
    1e78: 4c 3b 1f     	jmp	$1f3b <playmidi+0x4c9>
    1e7b: a6 1a        	ldx	$1a                     ; 0x1a <__rc10>
    1e7d: e4 24        	cpx	$24                     ; 0x24 <__rc20>
    1e7f: 90 0e        	bcc	$1e8f <playmidi+0x41d>
    1e81: 4c ed 1e     	jmp	$1eed <playmidi+0x47b>
    1e84: 85 25        	sta	$25                     ; 0x25 <__rc21>
    1e86: c5 26        	cmp	$26                     ; 0x26 <__rc22>
    1e88: a0 01        	ldy	#$1
    1e8a: 90 03        	bcc	$1e8f <playmidi+0x41d>
    1e8c: 4c ed 1e     	jmp	$1eed <playmidi+0x47b>
    1e8f: a6 1a        	ldx	$1a                     ; 0x1a <__rc10>
    1e91: 86 24        	stx	$24                     ; 0x24 <__rc20>
    1e93: a6 1b        	ldx	$1b                     ; 0x1b <__rc11>
    1e95: 86 22        	stx	$22                     ; 0x22 <__rc18>
    1e97: a5 14        	lda	$14                     ; 0x14 <__rc4>
    1e99: 18           	clc
    1e9a: 69 02        	adc	#$2
    1e9c: 85 1a        	sta	$1a                     ; 0x1a <__rc10>
    1e9e: a5 15        	lda	$15                     ; 0x15 <__rc5>
    1ea0: 69 00        	adc	#$0
    1ea2: 85 1b        	sta	$1b                     ; 0x1b <__rc11>
    1ea4: 18           	clc
    1ea5: a0 02        	ldy	#$2
    1ea7: a5 1d        	lda	$1d                     ; 0x1d <__rc13>
    1ea9: 71 14        	adc	($14),y                 ; 0x14 <__rc4>
    1eab: aa           	tax
    1eac: 88           	dey
    1ead: a5 1c        	lda	$1c                     ; 0x1c <__rc12>
    1eaf: 71 1a        	adc	($1a),y                 ; 0x1a <__rc10>
    1eb1: 85 1c        	sta	$1c                     ; 0x1c <__rc12>
    1eb3: a5 1e        	lda	$1e                     ; 0x1e <__rc14>
    1eb5: c8           	iny
    1eb6: 71 1a        	adc	($1a),y                 ; 0x1a <__rc10>
    1eb8: 85 1d        	sta	$1d                     ; 0x1d <__rc13>
    1eba: c8           	iny
    1ebb: a5 27        	lda	$27                     ; 0x27 <__rc23>
    1ebd: 71 1a        	adc	($1a),y                 ; 0x1a <__rc10>
    1ebf: a0 01        	ldy	#$1
    1ec1: 48           	pha
    1ec2: a5 28        	lda	$28                     ; 0x28 <__rc24>
    1ec4: 85 23        	sta	$23                     ; 0x23 <__rc19>
    1ec6: a5 25        	lda	$25                     ; 0x25 <__rc21>
    1ec8: 85 26        	sta	$26                     ; 0x26 <__rc22>
    1eca: 68           	pla
    1ecb: 5a           	phy
    1ecc: 48           	pha
    1ecd: 8a           	txa
    1ece: a0 1e        	ldy	#$1e
    1ed0: 91 10        	sta	($10),y                 ; 0x10 <__rc0>
    1ed2: a5 1c        	lda	$1c                     ; 0x1c <__rc12>
    1ed4: 88           	dey
    1ed5: 91 10        	sta	($10),y                 ; 0x10 <__rc0>
    1ed7: a5 1d        	lda	$1d                     ; 0x1d <__rc13>
    1ed9: 88           	dey
    1eda: 91 10        	sta	($10),y                 ; 0x10 <__rc0>
    1edc: 68           	pla
    1edd: a0 11        	ldy	#$11
    1edf: 91 10        	sta	($10),y                 ; 0x10 <__rc0>
    1ee1: a5 12        	lda	$12                     ; 0x12 <__rc2>
    1ee3: a0 0e        	ldy	#$e
    1ee5: 91 10        	sta	($10),y                 ; 0x10 <__rc0>
    1ee7: a5 13        	lda	$13                     ; 0x13 <__rc3>
    1ee9: 88           	dey
    1eea: 91 10        	sta	($10),y                 ; 0x10 <__rc0>
    1eec: 7a           	ply
    1eed: e6 12        	inc	$12                     ; 0x12 <__rc2>
    1eef: d0 02        	bne	$1ef3 <playmidi+0x481>
    1ef1: e6 13        	inc	$13                     ; 0x13 <__rc3>
    1ef3: a5 18        	lda	$18                     ; 0x18 <__rc8>
    1ef5: 18           	clc
    1ef6: 69 04        	adc	#$4
    1ef8: 85 18        	sta	$18                     ; 0x18 <__rc8>
    1efa: a5 19        	lda	$19                     ; 0x19 <__rc9>
    1efc: 69 00        	adc	#$0
    1efe: 85 19        	sta	$19                     ; 0x19 <__rc9>
    1f00: a5 14        	lda	$14                     ; 0x14 <__rc4>
    1f02: 18           	clc
    1f03: 69 07        	adc	#$7
    1f05: 85 14        	sta	$14                     ; 0x14 <__rc4>
    1f07: a5 15        	lda	$15                     ; 0x15 <__rc5>
    1f09: 69 00        	adc	#$0
    1f0b: 85 15        	sta	$15                     ; 0x15 <__rc5>
    1f0d: a5 16        	lda	$16                     ; 0x16 <__rc6>
    1f0f: 18           	clc
    1f10: 69 02        	adc	#$2
    1f12: 85 16        	sta	$16                     ; 0x16 <__rc6>
    1f14: a5 17        	lda	$17                     ; 0x17 <__rc7>
    1f16: 69 00        	adc	#$0
    1f18: 85 17        	sta	$17                     ; 0x17 <__rc7>
    1f1a: 5a           	phy
    1f1b: a0 17        	ldy	#$17
    1f1d: b1 10        	lda	($10),y                 ; 0x10 <__rc0>
    1f1f: 7a           	ply
    1f20: c5 13        	cmp	$13                     ; 0x13 <__rc3>
    1f22: f0 03        	beq	$1f27 <playmidi+0x4b5>
    1f24: 4c 04 1e     	jmp	$1e04 <playmidi+0x392>
    1f27: 5a           	phy
    1f28: a0 16        	ldy	#$16
    1f2a: b1 10        	lda	($10),y                 ; 0x10 <__rc0>
    1f2c: 7a           	ply
    1f2d: c5 12        	cmp	$12                     ; 0x12 <__rc2>
    1f2f: f0 11        	beq	$1f42 <playmidi+0x4d0>
    1f31: 4c 04 1e     	jmp	$1e04 <playmidi+0x392>
    1f34: e4 23        	cpx	$23                     ; 0x23 <__rc19>
    1f36: b0 b5        	bcs	$1eed <playmidi+0x47b>
    1f38: 4c 8f 1e     	jmp	$1e8f <playmidi+0x41d>
    1f3b: e4 22        	cpx	$22                     ; 0x22 <__rc18>
    1f3d: b0 ae        	bcs	$1eed <playmidi+0x47b>
    1f3f: 4c 8f 1e     	jmp	$1e8f <playmidi+0x41d>
    1f42: a5 22        	lda	$22                     ; 0x22 <__rc18>
    1f44: a0 20        	ldy	#$20
    1f46: 91 10        	sta	($10),y                 ; 0x10 <__rc0>
    1f48: a5 24        	lda	$24                     ; 0x24 <__rc20>
    1f4a: 88           	dey
    1f4b: 91 10        	sta	($10),y                 ; 0x10 <__rc0>
    1f4d: a5 23        	lda	$23                     ; 0x23 <__rc19>
    1f4f: a0 10        	ldy	#$10
    1f51: 91 10        	sta	($10),y                 ; 0x10 <__rc0>
    1f53: a5 26        	lda	$26                     ; 0x26 <__rc22>
    1f55: a0 0f        	ldy	#$f
    1f57: 91 10        	sta	($10),y                 ; 0x10 <__rc0>
    1f59: 18           	clc
    1f5a: a0 09        	ldy	#$9
    1f5c: b1 10        	lda	($10),y                 ; 0x10 <__rc0>
    1f5e: 69 30        	adc	#$30
    1f60: 85 2a        	sta	$2a                     ; 0x2a <__rc26>
    1f62: 88           	dey
    1f63: b1 10        	lda	($10),y                 ; 0x10 <__rc0>
    1f65: 48           	pha
    1f66: a9 01        	lda	#$1
    1f68: b0 02        	bcs	$1f6c <playmidi+0x4fa>
    1f6a: a9 00        	lda	#$0
    1f6c: a0 0b        	ldy	#$b
    1f6e: 91 10        	sta	($10),y                 ; 0x10 <__rc0>
    1f70: 68           	pla
    1f71: 69 00        	adc	#$0
    1f73: 48           	pha
    1f74: a5 2a        	lda	$2a                     ; 0x2a <__rc26>
    1f76: 88           	dey
    1f77: 91 10        	sta	($10),y                 ; 0x10 <__rc0>
    1f79: 68           	pla
    1f7a: 85 2b        	sta	$2b                     ; 0x2b <__rc27>
    1f7c: 18           	clc
    1f7d: a0 1e        	ldy	#$1e
    1f7f: b1 10        	lda	($10),y                 ; 0x10 <__rc0>
    1f81: 85 24        	sta	$24                     ; 0x24 <__rc20>
    1f83: a0 30        	ldy	#$30
    1f85: 48           	pha
    1f86: 5a           	phy
    1f87: a0 18        	ldy	#$18
    1f89: b1 10        	lda	($10),y                 ; 0x10 <__rc0>
    1f8b: 85 26        	sta	$26                     ; 0x26 <__rc22>
    1f8d: c8           	iny
    1f8e: b1 10        	lda	($10),y                 ; 0x10 <__rc0>
    1f90: 7a           	ply
    1f91: 85 27        	sta	$27                     ; 0x27 <__rc23>
    1f93: 68           	pla
    1f94: 71 26        	adc	($26),y                 ; 0x26 <__rc22>
    1f96: aa           	tax
    1f97: a0 1d        	ldy	#$1d
    1f99: b1 10        	lda	($10),y                 ; 0x10 <__rc0>
    1f9b: 85 2f        	sta	$2f                     ; 0x2f <__rc31>
    1f9d: a0 01        	ldy	#$1
    1f9f: 71 2a        	adc	($2a),y                 ; 0x2a <__rc26>
    1fa1: 85 15        	sta	$15                     ; 0x15 <__rc5>
    1fa3: a0 1c        	ldy	#$1c
    1fa5: b1 10        	lda	($10),y                 ; 0x10 <__rc0>
    1fa7: 85 28        	sta	$28                     ; 0x28 <__rc24>
    1fa9: a0 02        	ldy	#$2
    1fab: 71 2a        	adc	($2a),y                 ; 0x2a <__rc26>
    1fad: 85 14        	sta	$14                     ; 0x14 <__rc4>
    1faf: a0 11        	ldy	#$11
    1fb1: b1 10        	lda	($10),y                 ; 0x10 <__rc0>
    1fb3: 85 2e        	sta	$2e                     ; 0x2e <__rc30>
    1fb5: a0 03        	ldy	#$3
    1fb7: 71 2a        	adc	($2a),y                 ; 0x2a <__rc26>
    1fb9: 85 13        	sta	$13                     ; 0x13 <__rc3>
    1fbb: 18           	clc
    1fbc: 8a           	txa
    1fbd: 69 04        	adc	#$4
    1fbf: a8           	tay
    1fc0: a5 15        	lda	$15                     ; 0x15 <__rc5>
    1fc2: 69 00        	adc	#$0
    1fc4: aa           	tax
    1fc5: a5 14        	lda	$14                     ; 0x14 <__rc4>
    1fc7: 69 00        	adc	#$0
    1fc9: 85 12        	sta	$12                     ; 0x12 <__rc2>
    1fcb: a5 13        	lda	$13                     ; 0x13 <__rc3>
    1fcd: 69 00        	adc	#$0
    1fcf: 85 13        	sta	$13                     ; 0x13 <__rc3>
    1fd1: 98           	tya
    1fd2: 20 dd 09     	jsr	$9dd <FAR_PEEK>
    1fd5: a0 0c        	ldy	#$c
    1fd7: 91 10        	sta	($10),y                 ; 0x10 <__rc0>
    1fd9: 18           	clc
    1fda: a5 24        	lda	$24                     ; 0x24 <__rc20>
    1fdc: a0 30        	ldy	#$30
    1fde: 71 26        	adc	($26),y                 ; 0x26 <__rc22>
    1fe0: aa           	tax
    1fe1: a5 2f        	lda	$2f                     ; 0x2f <__rc31>
    1fe3: a0 01        	ldy	#$1
    1fe5: 71 2a        	adc	($2a),y                 ; 0x2a <__rc26>
    1fe7: 85 12        	sta	$12                     ; 0x12 <__rc2>
    1fe9: a5 28        	lda	$28                     ; 0x28 <__rc24>
    1feb: c8           	iny
    1fec: 71 2a        	adc	($2a),y                 ; 0x2a <__rc26>
    1fee: 85 13        	sta	$13                     ; 0x13 <__rc3>
    1ff0: a5 2e        	lda	$2e                     ; 0x2e <__rc30>
    1ff2: c8           	iny
    1ff3: 71 2a        	adc	($2a),y                 ; 0x2a <__rc26>
    1ff5: 85 14        	sta	$14                     ; 0x14 <__rc4>
    1ff7: 18           	clc
    1ff8: 8a           	txa
    1ff9: 69 05        	adc	#$5
    1ffb: a8           	tay
    1ffc: a5 12        	lda	$12                     ; 0x12 <__rc2>
    1ffe: 69 00        	adc	#$0
    2000: aa           	tax
    2001: a5 13        	lda	$13                     ; 0x13 <__rc3>
    2003: 69 00        	adc	#$0
    2005: 85 12        	sta	$12                     ; 0x12 <__rc2>
    2007: a5 14        	lda	$14                     ; 0x14 <__rc4>
    2009: 69 00        	adc	#$0
    200b: 85 13        	sta	$13                     ; 0x13 <__rc3>
    200d: 98           	tya
    200e: 20 dd 09     	jsr	$9dd <FAR_PEEK>
    2011: 85 25        	sta	$25                     ; 0x25 <__rc21>
    2013: 18           	clc
    2014: a5 24        	lda	$24                     ; 0x24 <__rc20>
    2016: a0 30        	ldy	#$30
    2018: 71 26        	adc	($26),y                 ; 0x26 <__rc22>
    201a: aa           	tax
    201b: a5 2f        	lda	$2f                     ; 0x2f <__rc31>
    201d: a0 01        	ldy	#$1
    201f: 71 2a        	adc	($2a),y                 ; 0x2a <__rc26>
    2021: 85 12        	sta	$12                     ; 0x12 <__rc2>
    2023: a5 28        	lda	$28                     ; 0x28 <__rc24>
    2025: c8           	iny
    2026: 71 2a        	adc	($2a),y                 ; 0x2a <__rc26>
    2028: 85 13        	sta	$13                     ; 0x13 <__rc3>
    202a: a5 2e        	lda	$2e                     ; 0x2e <__rc30>
    202c: c8           	iny
    202d: 71 2a        	adc	($2a),y                 ; 0x2a <__rc26>
    202f: 85 14        	sta	$14                     ; 0x14 <__rc4>
    2031: 18           	clc
    2032: 8a           	txa
    2033: 69 06        	adc	#$6
    2035: a8           	tay
    2036: a5 12        	lda	$12                     ; 0x12 <__rc2>
    2038: 69 00        	adc	#$0
    203a: aa           	tax
    203b: a5 13        	lda	$13                     ; 0x13 <__rc3>
    203d: 69 00        	adc	#$0
    203f: 85 12        	sta	$12                     ; 0x12 <__rc2>
    2041: a5 14        	lda	$14                     ; 0x14 <__rc4>
    2043: 69 00        	adc	#$0
    2045: 85 13        	sta	$13                     ; 0x13 <__rc3>
    2047: 98           	tya
    2048: 20 dd 09     	jsr	$9dd <FAR_PEEK>
    204b: 85 29        	sta	$29                     ; 0x29 <__rc25>
    204d: 18           	clc
    204e: a5 24        	lda	$24                     ; 0x24 <__rc20>
    2050: a0 30        	ldy	#$30
    2052: 71 26        	adc	($26),y                 ; 0x26 <__rc22>
    2054: 85 14        	sta	$14                     ; 0x14 <__rc4>
    2056: a5 2f        	lda	$2f                     ; 0x2f <__rc31>
    2058: a0 01        	ldy	#$1
    205a: 71 2a        	adc	($2a),y                 ; 0x2a <__rc26>
    205c: 85 13        	sta	$13                     ; 0x13 <__rc3>
    205e: a5 28        	lda	$28                     ; 0x28 <__rc24>
    2060: c8           	iny
    2061: 71 2a        	adc	($2a),y                 ; 0x2a <__rc26>
    2063: 85 12        	sta	$12                     ; 0x12 <__rc2>
    2065: a5 2e        	lda	$2e                     ; 0x2e <__rc30>
    2067: c8           	iny
    2068: 71 2a        	adc	($2a),y                 ; 0x2a <__rc26>
    206a: aa           	tax
    206b: 18           	clc
    206c: a5 14        	lda	$14                     ; 0x14 <__rc4>
    206e: 69 07        	adc	#$7
    2070: a8           	tay
    2071: a5 13        	lda	$13                     ; 0x13 <__rc3>
    2073: 69 00        	adc	#$0
    2075: 85 14        	sta	$14                     ; 0x14 <__rc4>
    2077: a5 12        	lda	$12                     ; 0x12 <__rc2>
    2079: 69 00        	adc	#$0
    207b: 85 12        	sta	$12                     ; 0x12 <__rc2>
    207d: 8a           	txa
    207e: 69 00        	adc	#$0
    2080: 85 13        	sta	$13                     ; 0x13 <__rc3>
    2082: a6 14        	ldx	$14                     ; 0x14 <__rc4>
    2084: 98           	tya
    2085: 20 dd 09     	jsr	$9dd <FAR_PEEK>
    2088: 48           	pha
    2089: a0 20        	ldy	#$20
    208b: b1 10        	lda	($10),y                 ; 0x10 <__rc0>
    208d: 85 2e        	sta	$2e                     ; 0x2e <__rc30>
    208f: a0 10        	ldy	#$10
    2091: b1 10        	lda	($10),y                 ; 0x10 <__rc0>
    2093: 85 26        	sta	$26                     ; 0x26 <__rc22>
    2095: a0 1f        	ldy	#$1f
    2097: b1 10        	lda	($10),y                 ; 0x10 <__rc0>
    2099: 85 14        	sta	$14                     ; 0x14 <__rc4>
    209b: a0 0f        	ldy	#$f
    209d: b1 10        	lda	($10),y                 ; 0x10 <__rc0>
    209f: 85 27        	sta	$27                     ; 0x27 <__rc23>
    20a1: 68           	pla
    20a2: a6 27        	ldx	$27                     ; 0x27 <__rc23>
    20a4: d0 0b        	bne	$20b1 <playmidi+0x63f>
    20a6: a6 26        	ldx	$26                     ; 0x26 <__rc22>
    20a8: d0 07        	bne	$20b1 <playmidi+0x63f>
    20aa: a6 2e        	ldx	$2e                     ; 0x2e <__rc30>
    20ac: d0 03        	bne	$20b1 <playmidi+0x63f>
    20ae: 4c 15 26     	jmp	$2615 <playmidi+0xba3>
    20b1: a6 29        	ldx	$29                     ; 0x29 <__rc25>
    20b3: 86 24        	stx	$24                     ; 0x24 <__rc20>
    20b5: a6 25        	ldx	$25                     ; 0x25 <__rc21>
    20b7: 86 2b        	stx	$2b                     ; 0x2b <__rc27>
    20b9: a6 27        	ldx	$27                     ; 0x27 <__rc23>
    20bb: e0 01        	cpx	#$1
    20bd: d0 10        	bne	$20cf <playmidi+0x65d>
    20bf: a6 26        	ldx	$26                     ; 0x26 <__rc22>
    20c1: d0 16        	bne	$20d9 <playmidi+0x667>
    20c3: a0 1e        	ldy	#$1e
    20c5: 91 10        	sta	($10),y                 ; 0x10 <__rc0>
    20c7: a5 2e        	lda	$2e                     ; 0x2e <__rc30>
    20c9: d0 27        	bne	$20f2 <playmidi+0x680>
    20cb: a6 14        	ldx	$14                     ; 0x14 <__rc4>
    20cd: 80 25        	bra	$20f4 <playmidi+0x682>
    20cf: a0 1e        	ldy	#$1e
    20d1: 91 10        	sta	($10),y                 ; 0x10 <__rc0>
    20d3: a6 27        	ldx	$27                     ; 0x27 <__rc23>
    20d5: e0 01        	cpx	#$1
    20d7: 80 1d        	bra	$20f6 <playmidi+0x684>
    20d9: a0 1e        	ldy	#$1e
    20db: 91 10        	sta	($10),y                 ; 0x10 <__rc0>
    20dd: a6 26        	ldx	$26                     ; 0x26 <__rc22>
    20df: 80 13        	bra	$20f4 <playmidi+0x682>
    20e1: a2 ff        	ldx	#$ff
    20e3: 8a           	txa
    20e4: a0 1f        	ldy	#$1f
    20e6: 91 10        	sta	($10),y                 ; 0x10 <__rc0>
    20e8: c8           	iny
    20e9: 91 10        	sta	($10),y                 ; 0x10 <__rc0>
    20eb: a0 10        	ldy	#$10
    20ed: 91 10        	sta	($10),y                 ; 0x10 <__rc0>
    20ef: 4c 55 1f     	jmp	$1f55 <playmidi+0x4e3>
    20f2: a6 2e        	ldx	$2e                     ; 0x2e <__rc30>
    20f4: e0 00        	cpx	#$0
    20f6: a5 14        	lda	$14                     ; 0x14 <__rc4>
    20f8: a6 2e        	ldx	$2e                     ; 0x2e <__rc30>
    20fa: 86 28        	stx	$28                     ; 0x28 <__rc24>
    20fc: a6 26        	ldx	$26                     ; 0x26 <__rc22>
    20fe: 86 2a        	stx	$2a                     ; 0x2a <__rc26>
    2100: a6 27        	ldx	$27                     ; 0x27 <__rc23>
    2102: 86 29        	stx	$29                     ; 0x29 <__rc25>
    2104: 90 03        	bcc	$2109 <playmidi+0x697>
    2106: 4c 26 25     	jmp	$2526 <playmidi+0xab4>
    2109: a6 2a        	ldx	$2a                     ; 0x2a <__rc26>
    210b: 86 12        	stx	$12                     ; 0x12 <__rc2>
    210d: a6 28        	ldx	$28                     ; 0x28 <__rc24>
    210f: 20 cc 26     	jsr	$26cc <setTimer0>
    2112: 20 ec 26     	jsr	$26ec <isTimer0Done>
    2115: aa           	tax
    2116: d0 22        	bne	$213a <playmidi+0x6c8>
    2118: 64 b0        	stz	$b0                     ; 0xb0 <kernelEventData>
    211a: 18           	clc
    211b: a5 10        	lda	$10                     ; 0x10 <__rc0>
    211d: 69 23        	adc	#$23
    211f: 85 12        	sta	$12                     ; 0x12 <__rc2>
    2121: a5 11        	lda	$11                     ; 0x11 <__rc1>
    2123: 69 00        	adc	#$0
    2125: 85 13        	sta	$13                     ; 0x13 <__rc3>
    2127: 20 00 ff     	jsr	$ff00 <end_block9+0xd37c>
    212a: 92 12        	sta	($12)                   ; 0x12 <__rc2>
    212c: a9 00        	lda	#$0
    212e: 6a           	ror
    212f: 85 2c        	sta	$2c                     ; 0x2c <__rc28>
    2131: a6 b0        	ldx	$b0                     ; 0xb0 <kernelEventData>
    2133: e0 08        	cpx	#$8
    2135: d0 db        	bne	$2112 <playmidi+0x6a0>
    2137: 4c 55 25     	jmp	$2555 <playmidi+0xae3>
    213a: a2 10        	ldx	#$10
    213c: 8e 60 d6     	stx	$d660                   ; 0xd660 <end_block9+0xaadc>
    213f: a6 2b        	ldx	$2b                     ; 0x2b <__rc27>
    2141: 8e a1 dd     	stx	$dda1                   ; 0xdda1 <end_block9+0xb21d>
    2144: a6 24        	ldx	$24                     ; 0x24 <__rc20>
    2146: 8e a1 dd     	stx	$dda1                   ; 0xdda1 <end_block9+0xb21d>
    2149: a0 0c        	ldy	#$c
    214b: b1 10        	lda	($10),y                 ; 0x10 <__rc0>
    214d: c9 03        	cmp	#$3
    214f: d0 07        	bne	$2158 <playmidi+0x6e6>
    2151: a0 1e        	ldy	#$1e
    2153: b1 10        	lda	($10),y                 ; 0x10 <__rc0>
    2155: 8d a1 dd     	sta	$dda1                   ; 0xdda1 <end_block9+0xb21d>
    2158: a6 26        	ldx	$26                     ; 0x26 <__rc22>
    215a: 86 29        	stx	$29                     ; 0x29 <__rc25>
    215c: a6 27        	ldx	$27                     ; 0x27 <__rc23>
    215e: 86 2f        	stx	$2f                     ; 0x2f <__rc31>
    2160: a0 18        	ldy	#$18
    2162: b1 10        	lda	($10),y                 ; 0x10 <__rc0>
    2164: 85 26        	sta	$26                     ; 0x26 <__rc22>
    2166: c8           	iny
    2167: b1 10        	lda	($10),y                 ; 0x10 <__rc0>
    2169: 85 27        	sta	$27                     ; 0x27 <__rc23>
    216b: a5 26        	lda	$26                     ; 0x26 <__rc22>
    216d: 18           	clc
    216e: 69 20        	adc	#$20
    2170: 85 12        	sta	$12                     ; 0x12 <__rc2>
    2172: a5 27        	lda	$27                     ; 0x27 <__rc23>
    2174: 69 00        	adc	#$0
    2176: 85 13        	sta	$13                     ; 0x13 <__rc3>
    2178: a0 0e        	ldy	#$e
    217a: b1 10        	lda	($10),y                 ; 0x10 <__rc0>
    217c: 85 16        	sta	$16                     ; 0x16 <__rc6>
    217e: 85 18        	sta	$18                     ; 0x18 <__rc8>
    2180: 06 18        	asl	$18                     ; 0x18 <__rc8>
    2182: 88           	dey
    2183: b1 10        	lda	($10),y                 ; 0x10 <__rc0>
    2185: 85 17        	sta	$17                     ; 0x17 <__rc7>
    2187: 85 2c        	sta	$2c                     ; 0x2c <__rc28>
    2189: 26 2c        	rol	$2c                     ; 0x2c <__rc28>
    218b: 18           	clc
    218c: a5 18        	lda	$18                     ; 0x18 <__rc8>
    218e: a0 20        	ldy	#$20
    2190: 71 26        	adc	($26),y                 ; 0x26 <__rc22>
    2192: 85 14        	sta	$14                     ; 0x14 <__rc4>
    2194: a5 2c        	lda	$2c                     ; 0x2c <__rc28>
    2196: a0 01        	ldy	#$1
    2198: 71 12        	adc	($12),y                 ; 0x12 <__rc2>
    219a: a6 14        	ldx	$14                     ; 0x14 <__rc4>
    219c: 86 12        	stx	$12                     ; 0x12 <__rc2>
    219e: 85 13        	sta	$13                     ; 0x13 <__rc3>
    21a0: 5a           	phy
    21a1: a0 1a        	ldy	#$1a
    21a3: b1 10        	lda	($10),y                 ; 0x10 <__rc0>
    21a5: 85 1a        	sta	$1a                     ; 0x1a <__rc10>
    21a7: c8           	iny
    21a8: b1 10        	lda	($10),y                 ; 0x10 <__rc0>
    21aa: 85 1b        	sta	$1b                     ; 0x1b <__rc11>
    21ac: a5 1a        	lda	$1a                     ; 0x1a <__rc10>
    21ae: 18           	clc
    21af: 69 03        	adc	#$3
    21b1: 85 14        	sta	$14                     ; 0x14 <__rc4>
    21b3: a5 1b        	lda	$1b                     ; 0x1b <__rc11>
    21b5: 69 00        	adc	#$0
    21b7: 85 15        	sta	$15                     ; 0x15 <__rc5>
    21b9: a5 18        	lda	$18                     ; 0x18 <__rc8>
    21bb: 0a           	asl
    21bc: a0 0c        	ldy	#$c
    21be: 91 10        	sta	($10),y                 ; 0x10 <__rc0>
    21c0: 7a           	ply
    21c1: 26 2c        	rol	$2c                     ; 0x2c <__rc28>
    21c3: 0a           	asl
    21c4: a6 2c        	ldx	$2c                     ; 0x2c <__rc28>
    21c6: 86 19        	stx	$19                     ; 0x19 <__rc9>
    21c8: 26 19        	rol	$19                     ; 0x19 <__rc9>
    21ca: 38           	sec
    21cb: e5 16        	sbc	$16                     ; 0x16 <__rc6>
    21cd: 85 18        	sta	$18                     ; 0x18 <__rc8>
    21cf: a5 19        	lda	$19                     ; 0x19 <__rc9>
    21d1: e5 17        	sbc	$17                     ; 0x17 <__rc7>
    21d3: 85 19        	sta	$19                     ; 0x19 <__rc9>
    21d5: b2 12        	lda	($12)                   ; 0x12 <__rc2>
    21d7: 85 16        	sta	$16                     ; 0x16 <__rc6>
    21d9: b1 12        	lda	($12),y                 ; 0x12 <__rc2>
    21db: e6 16        	inc	$16                     ; 0x16 <__rc6>
    21dd: d0 01        	bne	$21e0 <playmidi+0x76e>
    21df: 1a           	inc
    21e0: 85 17        	sta	$17                     ; 0x17 <__rc7>
    21e2: a5 16        	lda	$16                     ; 0x16 <__rc6>
    21e4: 92 12        	sta	($12)                   ; 0x12 <__rc2>
    21e6: a5 17        	lda	$17                     ; 0x17 <__rc7>
    21e8: 91 12        	sta	($12),y                 ; 0x12 <__rc2>
    21ea: 18           	clc
    21eb: a0 03        	ldy	#$3
    21ed: a5 18        	lda	$18                     ; 0x18 <__rc8>
    21ef: 71 1a        	adc	($1a),y                 ; 0x1a <__rc10>
    21f1: 85 12        	sta	$12                     ; 0x12 <__rc2>
    21f3: a5 19        	lda	$19                     ; 0x19 <__rc9>
    21f5: a0 01        	ldy	#$1
    21f7: 71 14        	adc	($14),y                 ; 0x14 <__rc4>
    21f9: a8           	tay
    21fa: a5 12        	lda	$12                     ; 0x12 <__rc2>
    21fc: 85 14        	sta	$14                     ; 0x14 <__rc4>
    21fe: 84 15        	sty	$15                     ; 0x15 <__rc5>
    2200: 18           	clc
    2201: 69 03        	adc	#$3
    2203: 85 12        	sta	$12                     ; 0x12 <__rc2>
    2205: 98           	tya
    2206: 69 00        	adc	#$0
    2208: 85 13        	sta	$13                     ; 0x13 <__rc3>
    220a: a5 16        	lda	$16                     ; 0x16 <__rc6>
    220c: 0a           	asl
    220d: 85 18        	sta	$18                     ; 0x18 <__rc8>
    220f: a5 17        	lda	$17                     ; 0x17 <__rc7>
    2211: 2a           	rol
    2212: 64 16        	stz	$16                     ; 0x16 <__rc6>
    2214: 26 16        	rol	$16                     ; 0x16 <__rc6>
    2216: 64 17        	stz	$17                     ; 0x17 <__rc7>
    2218: 26 17        	rol	$17                     ; 0x17 <__rc7>
    221a: 06 18        	asl	$18                     ; 0x18 <__rc8>
    221c: 2a           	rol
    221d: a8           	tay
    221e: 26 16        	rol	$16                     ; 0x16 <__rc6>
    2220: 26 17        	rol	$17                     ; 0x17 <__rc7>
    2222: a5 18        	lda	$18                     ; 0x18 <__rc8>
    2224: 0a           	asl
    2225: 84 18        	sty	$18                     ; 0x18 <__rc8>
    2227: 26 18        	rol	$18                     ; 0x18 <__rc8>
    2229: 26 16        	rol	$16                     ; 0x16 <__rc6>
    222b: 26 17        	rol	$17                     ; 0x17 <__rc7>
    222d: 18           	clc
    222e: a0 03        	ldy	#$3
    2230: 71 14        	adc	($14),y                 ; 0x14 <__rc4>
    2232: 85 25        	sta	$25                     ; 0x25 <__rc21>
    2234: a5 18        	lda	$18                     ; 0x18 <__rc8>
    2236: a0 01        	ldy	#$1
    2238: 71 12        	adc	($12),y                 ; 0x12 <__rc2>
    223a: 85 28        	sta	$28                     ; 0x28 <__rc24>
    223c: c8           	iny
    223d: a5 16        	lda	$16                     ; 0x16 <__rc6>
    223f: 71 12        	adc	($12),y                 ; 0x12 <__rc2>
    2241: 85 2d        	sta	$2d                     ; 0x2d <__rc29>
    2243: a5 17        	lda	$17                     ; 0x17 <__rc7>
    2245: c8           	iny
    2246: 71 12        	adc	($12),y                 ; 0x12 <__rc2>
    2248: 85 24        	sta	$24                     ; 0x24 <__rc20>
    224a: a0 0b        	ldy	#$b
    224c: b1 10        	lda	($10),y                 ; 0x10 <__rc0>
    224e: c9 01        	cmp	#$1
    2250: a5 27        	lda	$27                     ; 0x27 <__rc23>
    2252: 69 00        	adc	#$0
    2254: 48           	pha
    2255: 88           	dey
    2256: b1 10        	lda	($10),y                 ; 0x10 <__rc0>
    2258: 85 2a        	sta	$2a                     ; 0x2a <__rc26>
    225a: 68           	pla
    225b: 85 2b        	sta	$2b                     ; 0x2b <__rc27>
    225d: 18           	clc
    225e: a5 25        	lda	$25                     ; 0x25 <__rc21>
    2260: a0 30        	ldy	#$30
    2262: 71 26        	adc	($26),y                 ; 0x26 <__rc22>
    2264: 85 14        	sta	$14                     ; 0x14 <__rc4>
    2266: a5 28        	lda	$28                     ; 0x28 <__rc24>
    2268: a0 01        	ldy	#$1
    226a: 71 2a        	adc	($2a),y                 ; 0x2a <__rc26>
    226c: aa           	tax
    226d: a5 2d        	lda	$2d                     ; 0x2d <__rc29>
    226f: c8           	iny
    2270: 71 2a        	adc	($2a),y                 ; 0x2a <__rc26>
    2272: 85 12        	sta	$12                     ; 0x12 <__rc2>
    2274: a5 24        	lda	$24                     ; 0x24 <__rc20>
    2276: c8           	iny
    2277: 71 2a        	adc	($2a),y                 ; 0x2a <__rc26>
    2279: 85 13        	sta	$13                     ; 0x13 <__rc3>
    227b: a5 14        	lda	$14                     ; 0x14 <__rc4>
    227d: 20 dd 09     	jsr	$9dd <FAR_PEEK>
    2280: a0 0b        	ldy	#$b
    2282: 91 10        	sta	($10),y                 ; 0x10 <__rc0>
    2284: 18           	clc
    2285: a5 25        	lda	$25                     ; 0x25 <__rc21>
    2287: a0 30        	ldy	#$30
    2289: 71 26        	adc	($26),y                 ; 0x26 <__rc22>
    228b: 85 14        	sta	$14                     ; 0x14 <__rc4>
    228d: a5 28        	lda	$28                     ; 0x28 <__rc24>
    228f: a0 01        	ldy	#$1
    2291: 71 2a        	adc	($2a),y                 ; 0x2a <__rc26>
    2293: aa           	tax
    2294: a5 2d        	lda	$2d                     ; 0x2d <__rc29>
    2296: c8           	iny
    2297: 71 2a        	adc	($2a),y                 ; 0x2a <__rc26>
    2299: 85 12        	sta	$12                     ; 0x12 <__rc2>
    229b: a5 24        	lda	$24                     ; 0x24 <__rc20>
    229d: c8           	iny
    229e: 71 2a        	adc	($2a),y                 ; 0x2a <__rc26>
    22a0: e6 14        	inc	$14                     ; 0x14 <__rc4>
    22a2: d0 06        	bne	$22aa <playmidi+0x838>
    22a4: e8           	inx
    22a5: d0 03        	bne	$22aa <playmidi+0x838>
    22a7: 4c 9d 25     	jmp	$259d <playmidi+0xb2b>
    22aa: 85 13        	sta	$13                     ; 0x13 <__rc3>
    22ac: a5 14        	lda	$14                     ; 0x14 <__rc4>
    22ae: 20 dd 09     	jsr	$9dd <FAR_PEEK>
    22b1: 48           	pha
    22b2: a5 2e        	lda	$2e                     ; 0x2e <__rc30>
    22b4: a0 20        	ldy	#$20
    22b6: 91 10        	sta	($10),y                 ; 0x10 <__rc0>
    22b8: 68           	pla
    22b9: a0 0a        	ldy	#$a
    22bb: 91 10        	sta	($10),y                 ; 0x10 <__rc0>
    22bd: 18           	clc
    22be: a5 25        	lda	$25                     ; 0x25 <__rc21>
    22c0: a0 30        	ldy	#$30
    22c2: 71 26        	adc	($26),y                 ; 0x26 <__rc22>
    22c4: aa           	tax
    22c5: a5 28        	lda	$28                     ; 0x28 <__rc24>
    22c7: a0 01        	ldy	#$1
    22c9: 71 2a        	adc	($2a),y                 ; 0x2a <__rc26>
    22cb: 85 12        	sta	$12                     ; 0x12 <__rc2>
    22cd: a5 2d        	lda	$2d                     ; 0x2d <__rc29>
    22cf: c8           	iny
    22d0: 71 2a        	adc	($2a),y                 ; 0x2a <__rc26>
    22d2: 85 13        	sta	$13                     ; 0x13 <__rc3>
    22d4: a5 24        	lda	$24                     ; 0x24 <__rc20>
    22d6: c8           	iny
    22d7: 71 2a        	adc	($2a),y                 ; 0x2a <__rc26>
    22d9: 85 14        	sta	$14                     ; 0x14 <__rc4>
    22db: 18           	clc
    22dc: 8a           	txa
    22dd: 69 02        	adc	#$2
    22df: a8           	tay
    22e0: a5 12        	lda	$12                     ; 0x12 <__rc2>
    22e2: 69 00        	adc	#$0
    22e4: aa           	tax
    22e5: a5 13        	lda	$13                     ; 0x13 <__rc3>
    22e7: 69 00        	adc	#$0
    22e9: 85 12        	sta	$12                     ; 0x12 <__rc2>
    22eb: a5 14        	lda	$14                     ; 0x14 <__rc4>
    22ed: 69 00        	adc	#$0
    22ef: 85 13        	sta	$13                     ; 0x13 <__rc3>
    22f1: 98           	tya
    22f2: 20 dd 09     	jsr	$9dd <FAR_PEEK>
    22f5: 85 2e        	sta	$2e                     ; 0x2e <__rc30>
    22f7: 18           	clc
    22f8: a5 25        	lda	$25                     ; 0x25 <__rc21>
    22fa: a0 1e        	ldy	#$1e
    22fc: 91 10        	sta	($10),y                 ; 0x10 <__rc0>
    22fe: a0 30        	ldy	#$30
    2300: 71 26        	adc	($26),y                 ; 0x26 <__rc22>
    2302: aa           	tax
    2303: a5 28        	lda	$28                     ; 0x28 <__rc24>
    2305: a0 1d        	ldy	#$1d
    2307: 91 10        	sta	($10),y                 ; 0x10 <__rc0>
    2309: a0 01        	ldy	#$1
    230b: 71 2a        	adc	($2a),y                 ; 0x2a <__rc26>
    230d: 85 15        	sta	$15                     ; 0x15 <__rc5>
    230f: a5 2d        	lda	$2d                     ; 0x2d <__rc29>
    2311: a0 1c        	ldy	#$1c
    2313: 91 10        	sta	($10),y                 ; 0x10 <__rc0>
    2315: a0 02        	ldy	#$2
    2317: 71 2a        	adc	($2a),y                 ; 0x2a <__rc26>
    2319: 85 14        	sta	$14                     ; 0x14 <__rc4>
    231b: a5 24        	lda	$24                     ; 0x24 <__rc20>
    231d: a0 11        	ldy	#$11
    231f: 91 10        	sta	($10),y                 ; 0x10 <__rc0>
    2321: a0 03        	ldy	#$3
    2323: 71 2a        	adc	($2a),y                 ; 0x2a <__rc26>
    2325: 85 13        	sta	$13                     ; 0x13 <__rc3>
    2327: 18           	clc
    2328: 8a           	txa
    2329: 69 03        	adc	#$3
    232b: a8           	tay
    232c: a5 15        	lda	$15                     ; 0x15 <__rc5>
    232e: 69 00        	adc	#$0
    2330: aa           	tax
    2331: a5 14        	lda	$14                     ; 0x14 <__rc4>
    2333: 69 00        	adc	#$0
    2335: 85 12        	sta	$12                     ; 0x12 <__rc2>
    2337: a5 13        	lda	$13                     ; 0x13 <__rc3>
    2339: 69 00        	adc	#$0
    233b: 85 13        	sta	$13                     ; 0x13 <__rc3>
    233d: 98           	tya
    233e: 20 dd 09     	jsr	$9dd <FAR_PEEK>
    2341: aa           	tax
    2342: a0 14        	ldy	#$14
    2344: b1 10        	lda	($10),y                 ; 0x10 <__rc0>
    2346: 85 14        	sta	$14                     ; 0x14 <__rc4>
    2348: c8           	iny
    2349: b1 10        	lda	($10),y                 ; 0x10 <__rc0>
    234b: 85 15        	sta	$15                     ; 0x15 <__rc5>
    234d: 18           	clc
    234e: a0 0c        	ldy	#$c
    2350: b1 10        	lda	($10),y                 ; 0x10 <__rc0>
    2352: 65 14        	adc	$14                     ; 0x14 <__rc4>
    2354: 85 12        	sta	$12                     ; 0x12 <__rc2>
    2356: a5 2c        	lda	$2c                     ; 0x2c <__rc28>
    2358: 65 15        	adc	$15                     ; 0x15 <__rc5>
    235a: 85 13        	sta	$13                     ; 0x13 <__rc3>
    235c: 88           	dey
    235d: b1 10        	lda	($10),y                 ; 0x10 <__rc0>
    235f: 92 12        	sta	($12)                   ; 0x12 <__rc2>
    2361: a0 01        	ldy	#$1
    2363: 5a           	phy
    2364: a0 20        	ldy	#$20
    2366: b1 10        	lda	($10),y                 ; 0x10 <__rc0>
    2368: 85 1e        	sta	$1e                     ; 0x1e <__rc14>
    236a: a0 0a        	ldy	#$a
    236c: b1 10        	lda	($10),y                 ; 0x10 <__rc0>
    236e: 7a           	ply
    236f: 91 12        	sta	($12),y                 ; 0x12 <__rc2>
    2371: a0 02        	ldy	#$2
    2373: a5 2e        	lda	$2e                     ; 0x2e <__rc30>
    2375: 91 12        	sta	($12),y                 ; 0x12 <__rc2>
    2377: c8           	iny
    2378: 8a           	txa
    2379: 91 12        	sta	($12),y                 ; 0x12 <__rc2>
    237b: a0 16        	ldy	#$16
    237d: b1 10        	lda	($10),y                 ; 0x10 <__rc0>
    237f: 85 12        	sta	$12                     ; 0x12 <__rc2>
    2381: c8           	iny
    2382: b1 10        	lda	($10),y                 ; 0x10 <__rc0>
    2384: 85 13        	sta	$13                     ; 0x13 <__rc3>
    2386: a0 1f        	ldy	#$1f
    2388: b1 10        	lda	($10),y                 ; 0x10 <__rc0>
    238a: 85 1d        	sta	$1d                     ; 0x1d <__rc13>
    238c: a5 13        	lda	$13                     ; 0x13 <__rc3>
    238e: d0 07        	bne	$2397 <playmidi+0x925>
    2390: a5 12        	lda	$12                     ; 0x12 <__rc2>
    2392: d0 03        	bne	$2397 <playmidi+0x925>
    2394: 4c b8 24     	jmp	$24b8 <playmidi+0xa46>
    2397: a0 18        	ldy	#$18
    2399: b1 10        	lda	($10),y                 ; 0x10 <__rc0>
    239b: 85 14        	sta	$14                     ; 0x14 <__rc4>
    239d: c8           	iny
    239e: b1 10        	lda	($10),y                 ; 0x10 <__rc0>
    23a0: 85 15        	sta	$15                     ; 0x15 <__rc5>
    23a2: a5 14        	lda	$14                     ; 0x14 <__rc4>
    23a4: 18           	clc
    23a5: 69 20        	adc	#$20
    23a7: 85 12        	sta	$12                     ; 0x12 <__rc2>
    23a9: a5 15        	lda	$15                     ; 0x15 <__rc5>
    23ab: 69 00        	adc	#$0
    23ad: 85 13        	sta	$13                     ; 0x13 <__rc3>
    23af: a0 20        	ldy	#$20
    23b1: b1 14        	lda	($14),y                 ; 0x14 <__rc4>
    23b3: aa           	tax
    23b4: a0 01        	ldy	#$1
    23b6: b1 12        	lda	($12),y                 ; 0x12 <__rc2>
    23b8: 86 12        	stx	$12                     ; 0x12 <__rc2>
    23ba: 85 13        	sta	$13                     ; 0x13 <__rc3>
    23bc: a0 1a        	ldy	#$1a
    23be: b1 10        	lda	($10),y                 ; 0x10 <__rc0>
    23c0: 85 16        	sta	$16                     ; 0x16 <__rc6>
    23c2: c8           	iny
    23c3: b1 10        	lda	($10),y                 ; 0x10 <__rc0>
    23c5: 85 17        	sta	$17                     ; 0x17 <__rc7>
    23c7: a5 16        	lda	$16                     ; 0x16 <__rc6>
    23c9: 18           	clc
    23ca: 69 03        	adc	#$3
    23cc: 85 14        	sta	$14                     ; 0x14 <__rc4>
    23ce: a5 17        	lda	$17                     ; 0x17 <__rc7>
    23d0: 69 00        	adc	#$0
    23d2: 85 15        	sta	$15                     ; 0x15 <__rc5>
    23d4: a0 03        	ldy	#$3
    23d6: b1 16        	lda	($16),y                 ; 0x16 <__rc6>
    23d8: aa           	tax
    23d9: a0 01        	ldy	#$1
    23db: b1 14        	lda	($14),y                 ; 0x14 <__rc4>
    23dd: 86 14        	stx	$14                     ; 0x14 <__rc4>
    23df: 85 15        	sta	$15                     ; 0x15 <__rc5>
    23e1: e6 14        	inc	$14                     ; 0x14 <__rc4>
    23e3: d0 02        	bne	$23e7 <playmidi+0x975>
    23e5: e6 15        	inc	$15                     ; 0x15 <__rc5>
    23e7: a0 0e        	ldy	#$e
    23e9: b1 10        	lda	($10),y                 ; 0x10 <__rc0>
    23eb: aa           	tax
    23ec: 88           	dey
    23ed: b1 10        	lda	($10),y                 ; 0x10 <__rc0>
    23ef: 85 1c        	sta	$1c                     ; 0x1c <__rc12>
    23f1: a0 14        	ldy	#$14
    23f3: b1 10        	lda	($10),y                 ; 0x10 <__rc0>
    23f5: 85 18        	sta	$18                     ; 0x18 <__rc8>
    23f7: c8           	iny
    23f8: b1 10        	lda	($10),y                 ; 0x10 <__rc0>
    23fa: 85 19        	sta	$19                     ; 0x19 <__rc9>
    23fc: c8           	iny
    23fd: b1 10        	lda	($10),y                 ; 0x10 <__rc0>
    23ff: 85 17        	sta	$17                     ; 0x17 <__rc7>
    2401: c8           	iny
    2402: b1 10        	lda	($10),y                 ; 0x10 <__rc0>
    2404: 85 16        	sta	$16                     ; 0x16 <__rc6>
    2406: 80 21        	bra	$2429 <playmidi+0x9b7>
    2408: a5 14        	lda	$14                     ; 0x14 <__rc4>
    240a: 18           	clc
    240b: 69 07        	adc	#$7
    240d: 85 14        	sta	$14                     ; 0x14 <__rc4>
    240f: a5 15        	lda	$15                     ; 0x15 <__rc5>
    2411: 69 00        	adc	#$0
    2413: 85 15        	sta	$15                     ; 0x15 <__rc5>
    2415: a5 12        	lda	$12                     ; 0x12 <__rc2>
    2417: 18           	clc
    2418: 69 02        	adc	#$2
    241a: 85 12        	sta	$12                     ; 0x12 <__rc2>
    241c: a5 13        	lda	$13                     ; 0x13 <__rc3>
    241e: 69 00        	adc	#$0
    2420: 85 13        	sta	$13                     ; 0x13 <__rc3>
    2422: a5 16        	lda	$16                     ; 0x16 <__rc6>
    2424: d0 03        	bne	$2429 <playmidi+0x9b7>
    2426: 4c b1 24     	jmp	$24b1 <playmidi+0xa3f>
    2429: a0 01        	ldy	#$1
    242b: b1 12        	lda	($12),y                 ; 0x12 <__rc2>
    242d: d1 14        	cmp	($14),y                 ; 0x14 <__rc4>
    242f: d0 10        	bne	$2441 <playmidi+0x9cf>
    2431: b2 12        	lda	($12)                   ; 0x12 <__rc2>
    2433: 85 1b        	sta	$1b                     ; 0x1b <__rc11>
    2435: b2 14        	lda	($14)                   ; 0x14 <__rc4>
    2437: 85 1a        	sta	$1a                     ; 0x1a <__rc10>
    2439: a4 1b        	ldy	$1b                     ; 0x1b <__rc11>
    243b: c4 1a        	cpy	$1a                     ; 0x1a <__rc10>
    243d: 90 06        	bcc	$2445 <playmidi+0x9d3>
    243f: 80 4c        	bra	$248d <playmidi+0xa1b>
    2441: d1 14        	cmp	($14),y                 ; 0x14 <__rc4>
    2443: b0 48        	bcs	$248d <playmidi+0xa1b>
    2445: a5 1c        	lda	$1c                     ; 0x1c <__rc12>
    2447: d0 03        	bne	$244c <playmidi+0x9da>
    2449: 8a           	txa
    244a: f0 41        	beq	$248d <playmidi+0xa1b>
    244c: b2 18        	lda	($18)                   ; 0x18 <__rc8>
    244e: 85 1f        	sta	$1f                     ; 0x1f <__rc15>
    2450: a0 01        	ldy	#$1
    2452: b1 18        	lda	($18),y                 ; 0x18 <__rc8>
    2454: 85 1b        	sta	$1b                     ; 0x1b <__rc11>
    2456: c8           	iny
    2457: b1 18        	lda	($18),y                 ; 0x18 <__rc8>
    2459: 85 1a        	sta	$1a                     ; 0x1a <__rc10>
    245b: c8           	iny
    245c: b1 18        	lda	($18),y                 ; 0x18 <__rc8>
    245e: 85 22        	sta	$22                     ; 0x22 <__rc18>
    2460: 38           	sec
    2461: a5 1f        	lda	$1f                     ; 0x1f <__rc15>
    2463: e5 1d        	sbc	$1d                     ; 0x1d <__rc13>
    2465: 85 1f        	sta	$1f                     ; 0x1f <__rc15>
    2467: a5 1b        	lda	$1b                     ; 0x1b <__rc11>
    2469: e5 1e        	sbc	$1e                     ; 0x1e <__rc14>
    246b: 85 1b        	sta	$1b                     ; 0x1b <__rc11>
    246d: a5 1a        	lda	$1a                     ; 0x1a <__rc10>
    246f: e5 29        	sbc	$29                     ; 0x29 <__rc25>
    2471: 85 1a        	sta	$1a                     ; 0x1a <__rc10>
    2473: a5 22        	lda	$22                     ; 0x22 <__rc18>
    2475: e5 2f        	sbc	$2f                     ; 0x2f <__rc31>
    2477: 85 22        	sta	$22                     ; 0x22 <__rc18>
    2479: a5 1f        	lda	$1f                     ; 0x1f <__rc15>
    247b: 92 18        	sta	($18)                   ; 0x18 <__rc8>
    247d: a5 1b        	lda	$1b                     ; 0x1b <__rc11>
    247f: a0 01        	ldy	#$1
    2481: 91 18        	sta	($18),y                 ; 0x18 <__rc8>
    2483: a5 1a        	lda	$1a                     ; 0x1a <__rc10>
    2485: c8           	iny
    2486: 91 18        	sta	($18),y                 ; 0x18 <__rc8>
    2488: c8           	iny
    2489: a5 22        	lda	$22                     ; 0x22 <__rc18>
    248b: 91 18        	sta	($18),y                 ; 0x18 <__rc8>
    248d: a9 ff        	lda	#$ff
    248f: c6 17        	dec	$17                     ; 0x17 <__rc7>
    2491: c5 17        	cmp	$17                     ; 0x17 <__rc7>
    2493: d0 02        	bne	$2497 <playmidi+0xa25>
    2495: c6 16        	dec	$16                     ; 0x16 <__rc6>
    2497: a5 18        	lda	$18                     ; 0x18 <__rc8>
    2499: 18           	clc
    249a: 69 04        	adc	#$4
    249c: 85 18        	sta	$18                     ; 0x18 <__rc8>
    249e: a5 19        	lda	$19                     ; 0x19 <__rc9>
    24a0: 69 00        	adc	#$0
    24a2: 85 19        	sta	$19                     ; 0x19 <__rc9>
    24a4: ca           	dex
    24a5: e0 ff        	cpx	#$ff
    24a7: f0 03        	beq	$24ac <playmidi+0xa3a>
    24a9: 4c 08 24     	jmp	$2408 <playmidi+0x996>
    24ac: c6 1c        	dec	$1c                     ; 0x1c <__rc12>
    24ae: 4c 08 24     	jmp	$2408 <playmidi+0x996>
    24b1: a5 17        	lda	$17                     ; 0x17 <__rc7>
    24b3: f0 03        	beq	$24b8 <playmidi+0xa46>
    24b5: 4c 29 24     	jmp	$2429 <playmidi+0x9b7>
    24b8: a0 13        	ldy	#$13
    24ba: b1 10        	lda	($10),y                 ; 0x10 <__rc0>
    24bc: a8           	tay
    24bd: 5a           	phy
    24be: a0 12        	ldy	#$12
    24c0: b1 10        	lda	($10),y                 ; 0x10 <__rc0>
    24c2: 7a           	ply
    24c3: 88           	dey
    24c4: c0 ff        	cpy	#$ff
    24c6: d0 01        	bne	$24c9 <playmidi+0xa57>
    24c8: 3a           	dec
    24c9: 85 20        	sta	$20                     ; 0x20 <__rc16>
    24cb: 98           	tya
    24cc: 5a           	phy
    24cd: a0 13        	ldy	#$13
    24cf: 91 10        	sta	($10),y                 ; 0x10 <__rc0>
    24d1: a5 20        	lda	$20                     ; 0x20 <__rc16>
    24d3: 88           	dey
    24d4: 91 10        	sta	($10),y                 ; 0x10 <__rc0>
    24d6: 7a           	ply
    24d7: a2 af        	ldx	#$af
    24d9: 86 2c        	stx	$2c                     ; 0x2c <__rc28>
    24db: a2 00        	ldx	#$0
    24dd: 86 2d        	stx	$2d                     ; 0x2d <__rc29>
    24df: aa           	tax
    24e0: f0 03        	beq	$24e5 <playmidi+0xa73>
    24e2: 4c 85 1d     	jmp	$1d85 <playmidi+0x313>
    24e5: 4c 6f 26     	jmp	$266f <playmidi+0xbfd>
    24e8: a2 10        	ldx	#$10
    24ea: 8e 60 d6     	stx	$d660                   ; 0xd660 <end_block9+0xaadc>
    24ed: 18           	clc
    24ee: a5 25        	lda	$25                     ; 0x25 <__rc21>
    24f0: 69 01        	adc	#$1
    24f2: a8           	tay
    24f3: a5 28        	lda	$28                     ; 0x28 <__rc24>
    24f5: 69 00        	adc	#$0
    24f7: 85 28        	sta	$28                     ; 0x28 <__rc24>
    24f9: a5 2a        	lda	$2a                     ; 0x2a <__rc26>
    24fb: 69 00        	adc	#$0
    24fd: 85 2a        	sta	$2a                     ; 0x2a <__rc26>
    24ff: a5 29        	lda	$29                     ; 0x29 <__rc25>
    2501: 69 ff        	adc	#$ff
    2503: c9 01        	cmp	#$1
    2505: d0 11        	bne	$2518 <playmidi+0xaa6>
    2507: 85 29        	sta	$29                     ; 0x29 <__rc25>
    2509: a6 2a        	ldx	$2a                     ; 0x2a <__rc26>
    250b: d0 11        	bne	$251e <playmidi+0xaac>
    250d: 98           	tya
    250e: a6 28        	ldx	$28                     ; 0x28 <__rc24>
    2510: f0 03        	beq	$2515 <playmidi+0xaa3>
    2512: 4c 63 26     	jmp	$2663 <playmidi+0xbf1>
    2515: 4c 59 26     	jmp	$2659 <playmidi+0xbe7>
    2518: 85 29        	sta	$29                     ; 0x29 <__rc25>
    251a: c9 01        	cmp	#$1
    251c: 80 02        	bra	$2520 <playmidi+0xaae>
    251e: e0 00        	cpx	#$0
    2520: 98           	tya
    2521: b0 03        	bcs	$2526 <playmidi+0xab4>
    2523: 4c 09 21     	jmp	$2109 <playmidi+0x697>
    2526: 85 25        	sta	$25                     ; 0x25 <__rc21>
    2528: a2 ff        	ldx	#$ff
    252a: 86 12        	stx	$12                     ; 0x12 <__rc2>
    252c: 8a           	txa
    252d: 20 cc 26     	jsr	$26cc <setTimer0>
    2530: 20 ec 26     	jsr	$26ec <isTimer0Done>
    2533: aa           	tax
    2534: d0 b2        	bne	$24e8 <playmidi+0xa76>
    2536: 64 b0        	stz	$b0                     ; 0xb0 <kernelEventData>
    2538: 18           	clc
    2539: a5 10        	lda	$10                     ; 0x10 <__rc0>
    253b: 69 22        	adc	#$22
    253d: 85 12        	sta	$12                     ; 0x12 <__rc2>
    253f: a5 11        	lda	$11                     ; 0x11 <__rc1>
    2541: 69 00        	adc	#$0
    2543: 85 13        	sta	$13                     ; 0x13 <__rc3>
    2545: 20 00 ff     	jsr	$ff00 <end_block9+0xd37c>
    2548: 92 12        	sta	($12)                   ; 0x12 <__rc2>
    254a: a9 00        	lda	#$0
    254c: 6a           	ror
    254d: 85 2c        	sta	$2c                     ; 0x2c <__rc28>
    254f: a6 b0        	ldx	$b0                     ; 0xb0 <kernelEventData>
    2551: e0 08        	cpx	#$8
    2553: d0 db        	bne	$2530 <playmidi+0xabe>
    2555: a9 00        	lda	#$0
    2557: 85 20        	sta	$20                     ; 0x20 <__rc16>
    2559: a8           	tay
    255a: b1 10        	lda	($10),y                 ; 0x10 <__rc0>
    255c: 85 2f        	sta	$2f                     ; 0x2f <__rc31>
    255e: c8           	iny
    255f: b1 10        	lda	($10),y                 ; 0x10 <__rc0>
    2561: 85 2e        	sta	$2e                     ; 0x2e <__rc30>
    2563: c8           	iny
    2564: b1 10        	lda	($10),y                 ; 0x10 <__rc0>
    2566: 85 2d        	sta	$2d                     ; 0x2d <__rc29>
    2568: c8           	iny
    2569: b1 10        	lda	($10),y                 ; 0x10 <__rc0>
    256b: 85 2c        	sta	$2c                     ; 0x2c <__rc28>
    256d: c8           	iny
    256e: b1 10        	lda	($10),y                 ; 0x10 <__rc0>
    2570: 85 2b        	sta	$2b                     ; 0x2b <__rc27>
    2572: c8           	iny
    2573: b1 10        	lda	($10),y                 ; 0x10 <__rc0>
    2575: 85 2a        	sta	$2a                     ; 0x2a <__rc26>
    2577: c8           	iny
    2578: b1 10        	lda	($10),y                 ; 0x10 <__rc0>
    257a: 85 29        	sta	$29                     ; 0x29 <__rc25>
    257c: c8           	iny
    257d: b1 10        	lda	($10),y                 ; 0x10 <__rc0>
    257f: 85 28        	sta	$28                     ; 0x28 <__rc24>
    2581: fa           	plx
    2582: 86 27        	stx	$27                     ; 0x27 <__rc23>
    2584: fa           	plx
    2585: 86 26        	stx	$26                     ; 0x26 <__rc22>
    2587: fa           	plx
    2588: 86 25        	stx	$25                     ; 0x25 <__rc21>
    258a: fa           	plx
    258b: 86 24        	stx	$24                     ; 0x24 <__rc20>
    258d: 18           	clc
    258e: a5 10        	lda	$10                     ; 0x10 <__rc0>
    2590: 69 24        	adc	#$24
    2592: 85 10        	sta	$10                     ; 0x10 <__rc0>
    2594: a5 11        	lda	$11                     ; 0x11 <__rc1>
    2596: 69 00        	adc	#$0
    2598: 85 11        	sta	$11                     ; 0x11 <__rc1>
    259a: a5 20        	lda	$20                     ; 0x20 <__rc16>
    259c: 60           	rts
    259d: e6 12        	inc	$12                     ; 0x12 <__rc2>
    259f: d0 01        	bne	$25a2 <playmidi+0xb30>
    25a1: 1a           	inc
    25a2: 4c aa 22     	jmp	$22aa <playmidi+0x838>
    25a5: a4 28        	ldy	$28                     ; 0x28 <__rc24>
    25a7: f0 03        	beq	$25ac <playmidi+0xb3a>
    25a9: 4c 5b 1e     	jmp	$1e5b <playmidi+0x3e9>
    25ac: a4 25        	ldy	$25                     ; 0x25 <__rc21>
    25ae: f0 03        	beq	$25b3 <playmidi+0xb41>
    25b0: 4c 5b 1e     	jmp	$1e5b <playmidi+0x3e9>
    25b3: e0 00        	cpx	#$0
    25b5: f0 03        	beq	$25ba <playmidi+0xb48>
    25b7: 4c 5b 1e     	jmp	$1e5b <playmidi+0x3e9>
    25ba: a5 14        	lda	$14                     ; 0x14 <__rc4>
    25bc: 18           	clc
    25bd: 69 02        	adc	#$2
    25bf: 85 16        	sta	$16                     ; 0x16 <__rc6>
    25c1: a5 15        	lda	$15                     ; 0x15 <__rc5>
    25c3: 69 00        	adc	#$0
    25c5: 85 17        	sta	$17                     ; 0x17 <__rc7>
    25c7: 18           	clc
    25c8: a0 02        	ldy	#$2
    25ca: a5 1b        	lda	$1b                     ; 0x1b <__rc11>
    25cc: 71 14        	adc	($14),y                 ; 0x14 <__rc4>
    25ce: aa           	tax
    25cf: 88           	dey
    25d0: a5 1c        	lda	$1c                     ; 0x1c <__rc12>
    25d2: 71 16        	adc	($16),y                 ; 0x16 <__rc6>
    25d4: 85 18        	sta	$18                     ; 0x18 <__rc8>
    25d6: a5 1e        	lda	$1e                     ; 0x1e <__rc14>
    25d8: c8           	iny
    25d9: 71 16        	adc	($16),y                 ; 0x16 <__rc6>
    25db: 85 19        	sta	$19                     ; 0x19 <__rc9>
    25dd: c8           	iny
    25de: a5 27        	lda	$27                     ; 0x27 <__rc23>
    25e0: 71 16        	adc	($16),y                 ; 0x16 <__rc6>
    25e2: 64 14        	stz	$14                     ; 0x14 <__rc4>
    25e4: 48           	pha
    25e5: a9 00        	lda	#$0
    25e7: a0 1f        	ldy	#$1f
    25e9: 91 10        	sta	($10),y                 ; 0x10 <__rc0>
    25eb: c8           	iny
    25ec: 91 10        	sta	($10),y                 ; 0x10 <__rc0>
    25ee: a0 10        	ldy	#$10
    25f0: 91 10        	sta	($10),y                 ; 0x10 <__rc0>
    25f2: 88           	dey
    25f3: 91 10        	sta	($10),y                 ; 0x10 <__rc0>
    25f5: 8a           	txa
    25f6: a0 1e        	ldy	#$1e
    25f8: 91 10        	sta	($10),y                 ; 0x10 <__rc0>
    25fa: a5 18        	lda	$18                     ; 0x18 <__rc8>
    25fc: 88           	dey
    25fd: 91 10        	sta	($10),y                 ; 0x10 <__rc0>
    25ff: a5 19        	lda	$19                     ; 0x19 <__rc9>
    2601: 88           	dey
    2602: 91 10        	sta	($10),y                 ; 0x10 <__rc0>
    2604: 68           	pla
    2605: a0 11        	ldy	#$11
    2607: 91 10        	sta	($10),y                 ; 0x10 <__rc0>
    2609: a5 12        	lda	$12                     ; 0x12 <__rc2>
    260b: a0 0e        	ldy	#$e
    260d: 91 10        	sta	($10),y                 ; 0x10 <__rc0>
    260f: a5 13        	lda	$13                     ; 0x13 <__rc3>
    2611: 88           	dey
    2612: 4c 57 1f     	jmp	$1f57 <playmidi+0x4e5>
    2615: a6 14        	ldx	$14                     ; 0x14 <__rc4>
    2617: f0 03        	beq	$261c <playmidi+0xbaa>
    2619: 4c b1 20     	jmp	$20b1 <playmidi+0x63f>
    261c: a6 25        	ldx	$25                     ; 0x25 <__rc21>
    261e: 8e a1 dd     	stx	$dda1                   ; 0xdda1 <end_block9+0xb21d>
    2621: a6 29        	ldx	$29                     ; 0x29 <__rc25>
    2623: 8e a1 dd     	stx	$dda1                   ; 0xdda1 <end_block9+0xb21d>
    2626: 48           	pha
    2627: a0 0c        	ldy	#$c
    2629: b1 10        	lda	($10),y                 ; 0x10 <__rc0>
    262b: aa           	tax
    262c: 68           	pla
    262d: e0 03        	cpx	#$3
    262f: d0 03        	bne	$2634 <playmidi+0xbc2>
    2631: 8d a1 dd     	sta	$dda1                   ; 0xdda1 <end_block9+0xb21d>
    2634: 64 b0        	stz	$b0                     ; 0xb0 <kernelEventData>
    2636: 18           	clc
    2637: a5 10        	lda	$10                     ; 0x10 <__rc0>
    2639: 69 21        	adc	#$21
    263b: 85 12        	sta	$12                     ; 0x12 <__rc2>
    263d: a5 11        	lda	$11                     ; 0x11 <__rc1>
    263f: 69 00        	adc	#$0
    2641: 85 13        	sta	$13                     ; 0x13 <__rc3>
    2643: 20 00 ff     	jsr	$ff00 <end_block9+0xd37c>
    2646: 92 12        	sta	($12)                   ; 0x12 <__rc2>
    2648: a9 00        	lda	#$0
    264a: 6a           	ror
    264b: 85 2c        	sta	$2c                     ; 0x2c <__rc28>
    264d: a6 b0        	ldx	$b0                     ; 0xb0 <kernelEventData>
    264f: e0 08        	cpx	#$8
    2651: f0 03        	beq	$2656 <playmidi+0xbe4>
    2653: 4c 58 21     	jmp	$2158 <playmidi+0x6e6>
    2656: 4c 55 25     	jmp	$2555 <playmidi+0xae3>
    2659: c9 00        	cmp	#$0
    265b: 90 03        	bcc	$2660 <playmidi+0xbee>
    265d: 4c 26 25     	jmp	$2526 <playmidi+0xab4>
    2660: 4c 09 21     	jmp	$2109 <playmidi+0x697>
    2663: a6 28        	ldx	$28                     ; 0x28 <__rc24>
    2665: e0 00        	cpx	#$0
    2667: 90 03        	bcc	$266c <playmidi+0xbfa>
    2669: 4c 26 25     	jmp	$2526 <playmidi+0xab4>
    266c: 4c 09 21     	jmp	$2109 <playmidi+0x697>
    266f: 98           	tya
    2670: f0 03        	beq	$2675 <playmidi+0xc03>
    2672: 4c 85 1d     	jmp	$1d85 <playmidi+0x313>
    2675: 4c 55 25     	jmp	$2555 <playmidi+0xae3>

00002678 <setTimer>:
    2678: b2 12        	lda	($12)                   ; 0x12 <__rc2>
    267a: 85 f3        	sta	$f3                     ; 0xf3 <__zp_bss_size+0x9b>
    267c: a0 01        	ldy	#$1
    267e: b1 12        	lda	($12),y                 ; 0x12 <__rc2>
    2680: 85 f4        	sta	$f4                     ; 0xf4 <__zp_bss_size+0x9c>
    2682: c8           	iny
    2683: b1 12        	lda	($12),y                 ; 0x12 <__rc2>
    2685: 85 f5        	sta	$f5                     ; 0xf5 <__zp_bss_size+0x9d>
    2687: a2 bd        	ldx	#$bd
    2689: a0 00        	ldy	#$0
    268b: 86 12        	stx	$12                     ; 0x12 <__rc2>
    268d: 84 13        	sty	$13                     ; 0x13 <__rc3>
    268f: a2 af        	ldx	#$af
    2691: 86 14        	stx	$14                     ; 0x14 <__rc4>
    2693: a2 00        	ldx	#$0
    2695: 86 15        	stx	$15                     ; 0x15 <__rc5>
    2697: 20 f0 ff     	jsr	$fff0 <end_block9+0xd46c>
    269a: 92 12        	sta	($12)                   ; 0x12 <__rc2>
    269c: a9 00        	lda	#$0
    269e: 6a           	ror
    269f: 85 14        	sta	$14                     ; 0x14 <__rc4>
    26a1: a6 af        	ldx	$af                     ; 0xaf <kernelError>
    26a3: d0 03        	bne	$26a8 <setTimer+0x30>
    26a5: a9 01        	lda	#$1
    26a7: 60           	rts
    26a8: a9 00        	lda	#$0
    26aa: 60           	rts

000026ab <getTimerAbsolute>:
    26ab: 09 80        	ora	#$80
    26ad: 85 f3        	sta	$f3                     ; 0xf3 <__zp_bss_size+0x9b>
    26af: a2 bd        	ldx	#$bd
    26b1: a0 00        	ldy	#$0
    26b3: 86 12        	stx	$12                     ; 0x12 <__rc2>
    26b5: 84 13        	sty	$13                     ; 0x13 <__rc3>
    26b7: a2 af        	ldx	#$af
    26b9: 86 14        	stx	$14                     ; 0x14 <__rc4>
    26bb: a2 00        	ldx	#$0
    26bd: 86 15        	stx	$15                     ; 0x15 <__rc5>
    26bf: 20 f0 ff     	jsr	$fff0 <end_block9+0xd46c>
    26c2: 92 12        	sta	($12)                   ; 0x12 <__rc2>
    26c4: a9 00        	lda	#$0
    26c6: 6a           	ror
    26c7: 85 14        	sta	$14                     ; 0x14 <__rc4>
    26c9: a5 bd        	lda	$bd                     ; 0xbd <__zp_bss_size+0x65>
    26cb: 60           	rts

000026cc <setTimer0>:
    26cc: a0 02        	ldy	#$2
    26ce: 8c 50 d6     	sty	$d650                   ; 0xd650 <end_block9+0xaacc>
    26d1: a0 09        	ldy	#$9
    26d3: 8c 50 d6     	sty	$d650                   ; 0xd650 <end_block9+0xaacc>
    26d6: a0 10        	ldy	#$10
    26d8: 8c 60 d6     	sty	$d660                   ; 0xd660 <end_block9+0xaadc>
    26db: a0 01        	ldy	#$1
    26dd: 8c 54 d6     	sty	$d654                   ; 0xd654 <end_block9+0xaad0>
    26e0: 8d 55 d6     	sta	$d655                   ; 0xd655 <end_block9+0xaad1>
    26e3: 8e 56 d6     	stx	$d656                   ; 0xd656 <end_block9+0xaad2>
    26e6: a6 12        	ldx	$12                     ; 0x12 <__rc2>
    26e8: 8e 57 d6     	stx	$d657                   ; 0xd657 <end_block9+0xaad3>
    26eb: 60           	rts

000026ec <isTimer0Done>:
    26ec: ad 60 d6     	lda	$d660                   ; 0xd660 <end_block9+0xaadc>
    26ef: 29 10        	and	#$10
    26f1: 60           	rts

000026f2 <exit>:
    26f2: 85 bd        	sta	$bd                     ; 0xbd <__zp_bss_size+0x65>
    26f4: 86 be        	stx	$be                     ; 0xbe <__zp_bss_size+0x66>
    26f6: 20 4d 03     	jsr	$34d <_fini>
    26f9: a6 be        	ldx	$be                     ; 0xbe <__zp_bss_size+0x66>
    26fb: a5 bd        	lda	$bd                     ; 0xbd <__zp_bss_size+0x65>
    26fd: 20 00 27     	jsr	$2700 <_Exit>

00002700 <_Exit>:
    2700: 80 fe        	bra	$2700 <_Exit>

00002702 <malloc>:
    2702: a8           	tay
    2703: 8a           	txa
    2704: a2 00        	ldx	#$0
    2706: 86 12        	stx	$12                     ; 0x12 <__rc2>
    2708: a2 00        	ldx	#$0
    270a: 86 13        	stx	$13                     ; 0x13 <__rc3>
    270c: aa           	tax
    270d: d0 07        	bne	$2716 <malloc+0x14>
    270f: c0 00        	cpy	#$0
    2711: d0 03        	bne	$2716 <malloc+0x14>
    2713: 4c f2 27     	jmp	$27f2 <malloc+0xf0>
    2716: 84 16        	sty	$16                     ; 0x16 <__rc6>
    2718: aa           	tax
    2719: d0 0e        	bne	$2729 <malloc+0x27>
    271b: a6 16        	ldx	$16                     ; 0x16 <__rc6>
    271d: e0 07        	cpx	#$7
    271f: b0 0c        	bcs	$272d <malloc+0x2b>
    2721: a2 08        	ldx	#$8
    2723: 64 17        	stz	$17                     ; 0x17 <__rc7>
    2725: 86 16        	stx	$16                     ; 0x16 <__rc6>
    2727: 80 30        	bra	$2759 <malloc+0x57>
    2729: c9 00        	cmp	#$0
    272b: 90 f4        	bcc	$2721 <malloc+0x1f>
    272d: a8           	tay
    272e: a5 16        	lda	$16                     ; 0x16 <__rc6>
    2730: 29 01        	and	#$1
    2732: a2 02        	ldx	#$2
    2734: 64 14        	stz	$14                     ; 0x14 <__rc4>
    2736: c9 00        	cmp	#$0
    2738: f0 02        	beq	$273c <malloc+0x3a>
    273a: a2 03        	ldx	#$3
    273c: 86 15        	stx	$15                     ; 0x15 <__rc5>
    273e: 18           	clc
    273f: a5 16        	lda	$16                     ; 0x16 <__rc6>
    2741: 65 15        	adc	$15                     ; 0x15 <__rc5>
    2743: aa           	tax
    2744: 98           	tya
    2745: 65 14        	adc	$14                     ; 0x14 <__rc4>
    2747: 90 03        	bcc	$274c <malloc+0x4a>
    2749: 4c f2 27     	jmp	$27f2 <malloc+0xf0>
    274c: 86 16        	stx	$16                     ; 0x16 <__rc6>
    274e: 85 17        	sta	$17                     ; 0x17 <__rc7>
    2750: a8           	tay
    2751: d0 06        	bne	$2759 <malloc+0x57>
    2753: 8a           	txa
    2754: d0 03        	bne	$2759 <malloc+0x57>
    2756: 4c f2 27     	jmp	$27f2 <malloc+0xf0>
    2759: a5 b7        	lda	$b7                     ; 0xb7 <_ZN12_GLOBAL__N_111initializedE>
    275b: 29 01        	and	#$1
    275d: d0 3b        	bne	$279a <malloc+0x98>
    275f: a5 63        	lda	$63                     ; 0x63 <_ZN12_GLOBAL__N_110heap_limitE>
    2761: a6 64        	ldx	$64                     ; 0x64 <_ZN12_GLOBAL__N_110heap_limitE+0x1>
    2763: a0 84        	ldy	#$84
    2765: 84 12        	sty	$12                     ; 0x12 <__rc2>
    2767: a0 2b        	ldy	#$2b
    2769: 84 13        	sty	$13                     ; 0x13 <__rc3>
    276b: a4 16        	ldy	$16                     ; 0x16 <__rc6>
    276d: 84 cb        	sty	$cb                     ; 0xcb <__zp_bss_size+0x73>
    276f: a4 17        	ldy	$17                     ; 0x17 <__rc7>
    2771: 84 cc        	sty	$cc                     ; 0xcc <__zp_bss_size+0x74>
    2773: 20 4e 03     	jsr	$34e <_ZN12_GLOBAL__N_19FreeChunk6insertEPvj>
    2776: a6 cc        	ldx	$cc                     ; 0xcc <__zp_bss_size+0x74>
    2778: 86 17        	stx	$17                     ; 0x17 <__rc7>
    277a: a6 cb        	ldx	$cb                     ; 0xcb <__zp_bss_size+0x73>
    277c: 86 16        	stx	$16                     ; 0x16 <__rc6>
    277e: a2 00        	ldx	#$0
    2780: 86 12        	stx	$12                     ; 0x12 <__rc2>
    2782: a2 00        	ldx	#$0
    2784: 86 13        	stx	$13                     ; 0x13 <__rc3>
    2786: ae 85 2b     	ldx	$2b85                   ; 0x2b85 <end_block9+0x1>
    2789: a9 fe        	lda	#$fe
    278b: 2d 84 2b     	and	$2b84                   ; 0x2b84 <end_block9>
    278e: 8d 84 2b     	sta	$2b84                   ; 0x2b84 <end_block9>
    2791: 8e 85 2b     	stx	$2b85                   ; 0x2b85 <end_block9+0x1>
    2794: a2 01        	ldx	#$1
    2796: 86 b8        	stx	$b8                     ; 0xb8 <_ZN12_GLOBAL__N_19last_freeE>
    2798: 86 b7        	stx	$b7                     ; 0xb7 <_ZN12_GLOBAL__N_111initializedE>
    279a: a6 bb        	ldx	$bb                     ; 0xbb <_ZN12_GLOBAL__N_19free_listE>
    279c: 86 18        	stx	$18                     ; 0x18 <__rc8>
    279e: a4 bc        	ldy	$bc                     ; 0xbc <_ZN12_GLOBAL__N_19free_listE+0x1>
    27a0: 84 19        	sty	$19                     ; 0x19 <__rc9>
    27a2: a9 00        	lda	#$0
    27a4: 85 14        	sta	$14                     ; 0x14 <__rc4>
    27a6: a9 00        	lda	#$0
    27a8: 85 15        	sta	$15                     ; 0x15 <__rc5>
    27aa: c4 15        	cpy	$15                     ; 0x15 <__rc5>
    27ac: d0 04        	bne	$27b2 <malloc+0xb0>
    27ae: e4 14        	cpx	$14                     ; 0x14 <__rc4>
    27b0: f0 40        	beq	$27f2 <malloc+0xf0>
    27b2: a0 01        	ldy	#$1
    27b4: a6 18        	ldx	$18                     ; 0x18 <__rc8>
    27b6: 86 14        	stx	$14                     ; 0x14 <__rc4>
    27b8: a6 19        	ldx	$19                     ; 0x19 <__rc9>
    27ba: 86 15        	stx	$15                     ; 0x15 <__rc5>
    27bc: b1 14        	lda	($14),y                 ; 0x14 <__rc4>
    27be: c5 17        	cmp	$17                     ; 0x17 <__rc7>
    27c0: d0 0a        	bne	$27cc <malloc+0xca>
    27c2: b2 14        	lda	($14)                   ; 0x14 <__rc4>
    27c4: 29 fe        	and	#$fe
    27c6: c5 16        	cmp	$16                     ; 0x16 <__rc6>
    27c8: b0 29        	bcs	$27f3 <malloc+0xf1>
    27ca: 80 04        	bra	$27d0 <malloc+0xce>
    27cc: c5 17        	cmp	$17                     ; 0x17 <__rc7>
    27ce: b0 23        	bcs	$27f3 <malloc+0xf1>
    27d0: a5 14        	lda	$14                     ; 0x14 <__rc4>
    27d2: 18           	clc
    27d3: 69 02        	adc	#$2
    27d5: 85 1a        	sta	$1a                     ; 0x1a <__rc10>
    27d7: a5 15        	lda	$15                     ; 0x15 <__rc5>
    27d9: 69 00        	adc	#$0
    27db: 85 1b        	sta	$1b                     ; 0x1b <__rc11>
    27dd: a0 02        	ldy	#$2
    27df: b1 14        	lda	($14),y                 ; 0x14 <__rc4>
    27e1: 85 14        	sta	$14                     ; 0x14 <__rc4>
    27e3: 88           	dey
    27e4: b1 1a        	lda	($1a),y                 ; 0x1a <__rc10>
    27e6: 85 15        	sta	$15                     ; 0x15 <__rc5>
    27e8: c5 19        	cmp	$19                     ; 0x19 <__rc9>
    27ea: d0 d0        	bne	$27bc <malloc+0xba>
    27ec: a5 14        	lda	$14                     ; 0x14 <__rc4>
    27ee: c5 18        	cmp	$18                     ; 0x18 <__rc8>
    27f0: d0 ca        	bne	$27bc <malloc+0xba>
    27f2: 60           	rts
    27f3: a6 14        	ldx	$14                     ; 0x14 <__rc4>
    27f5: 86 12        	stx	$12                     ; 0x12 <__rc2>
    27f7: a6 15        	ldx	$15                     ; 0x15 <__rc5>
    27f9: 86 13        	stx	$13                     ; 0x13 <__rc3>
    27fb: a6 17        	ldx	$17                     ; 0x17 <__rc7>
    27fd: a5 16        	lda	$16                     ; 0x16 <__rc6>
    27ff: 4c 02 28     	jmp	$2802 <_ZN12_GLOBAL__N_119allocate_free_chunkEPNS_9FreeChunkEj>

00002802 <_ZN12_GLOBAL__N_119allocate_free_chunkEPNS_9FreeChunkEj>:
    2802: 85 cd        	sta	$cd                     ; 0xcd <__zp_bss_size+0x75>
    2804: 86 d0        	stx	$d0                     ; 0xd0 <__zp_bss_size+0x78>
    2806: a6 12        	ldx	$12                     ; 0x12 <__rc2>
    2808: 86 ce        	stx	$ce                     ; 0xce <__zp_bss_size+0x76>
    280a: a6 13        	ldx	$13                     ; 0x13 <__rc3>
    280c: 86 cf        	stx	$cf                     ; 0xcf <__zp_bss_size+0x77>
    280e: 20 84 04     	jsr	$484 <_ZN12_GLOBAL__N_19FreeChunk6removeEv>
    2811: a0 01        	ldy	#$1
    2813: b1 ce        	lda	($ce),y                 ; 0xce <__zp_bss_size+0x76>
    2815: 85 14        	sta	$14                     ; 0x14 <__rc4>
    2817: a9 fe        	lda	#$fe
    2819: 32 ce        	and	($ce)                   ; 0xce <__zp_bss_size+0x76>
    281b: 38           	sec
    281c: a6 cd        	ldx	$cd                     ; 0xcd <__zp_bss_size+0x75>
    281e: a8           	tay
    281f: e5 cd        	sbc	$cd                     ; 0xcd <__zp_bss_size+0x75>
    2821: 85 16        	sta	$16                     ; 0x16 <__rc6>
    2823: a5 d0        	lda	$d0                     ; 0xd0 <__zp_bss_size+0x78>
    2825: 85 13        	sta	$13                     ; 0x13 <__rc3>
    2827: 85 12        	sta	$12                     ; 0x12 <__rc2>
    2829: a5 14        	lda	$14                     ; 0x14 <__rc4>
    282b: e5 12        	sbc	$12                     ; 0x12 <__rc2>
    282d: f0 03        	beq	$2832 <_ZN12_GLOBAL__N_119allocate_free_chunkEPNS_9FreeChunkEj+0x30>
    282f: 4c ad 28     	jmp	$28ad <_ZN12_GLOBAL__N_119allocate_free_chunkEPNS_9FreeChunkEj+0xab>
    2832: 85 15        	sta	$15                     ; 0x15 <__rc5>
    2834: a5 16        	lda	$16                     ; 0x16 <__rc6>
    2836: c9 08        	cmp	#$8
    2838: 90 2e        	bcc	$2868 <_ZN12_GLOBAL__N_119allocate_free_chunkEPNS_9FreeChunkEj+0x66>
    283a: a8           	tay
    283b: 18           	clc
    283c: 8a           	txa
    283d: 65 ce        	adc	$ce                     ; 0xce <__zp_bss_size+0x76>
    283f: 85 12        	sta	$12                     ; 0x12 <__rc2>
    2841: a5 13        	lda	$13                     ; 0x13 <__rc3>
    2843: a6 13        	ldx	$13                     ; 0x13 <__rc3>
    2845: 86 d0        	stx	$d0                     ; 0xd0 <__zp_bss_size+0x78>
    2847: 65 cf        	adc	$cf                     ; 0xcf <__zp_bss_size+0x77>
    2849: 85 13        	sta	$13                     ; 0x13 <__rc3>
    284b: a6 15        	ldx	$15                     ; 0x15 <__rc5>
    284d: 98           	tya
    284e: 20 4e 03     	jsr	$34e <_ZN12_GLOBAL__N_19FreeChunk6insertEPvj>
    2851: a5 cd        	lda	$cd                     ; 0xcd <__zp_bss_size+0x75>
    2853: 29 fe        	and	#$fe
    2855: 85 12        	sta	$12                     ; 0x12 <__rc2>
    2857: a0 01        	ldy	#$1
    2859: 98           	tya
    285a: 32 ce        	and	($ce)                   ; 0xce <__zp_bss_size+0x76>
    285c: 05 12        	ora	$12                     ; 0x12 <__rc2>
    285e: 92 ce        	sta	($ce)                   ; 0xce <__zp_bss_size+0x76>
    2860: a5 d0        	lda	$d0                     ; 0xd0 <__zp_bss_size+0x78>
    2862: 91 ce        	sta	($ce),y                 ; 0xce <__zp_bss_size+0x76>
    2864: a4 12        	ldy	$12                     ; 0x12 <__rc2>
    2866: 85 14        	sta	$14                     ; 0x14 <__rc4>
    2868: 18           	clc
    2869: 98           	tya
    286a: 65 ce        	adc	$ce                     ; 0xce <__zp_bss_size+0x76>
    286c: a8           	tay
    286d: a5 14        	lda	$14                     ; 0x14 <__rc4>
    286f: 65 cf        	adc	$cf                     ; 0xcf <__zp_bss_size+0x77>
    2871: aa           	tax
    2872: 18           	clc
    2873: a9 84        	lda	#$84
    2875: 65 63        	adc	$63                     ; 0x63 <_ZN12_GLOBAL__N_110heap_limitE>
    2877: 85 13        	sta	$13                     ; 0x13 <__rc3>
    2879: a9 2b        	lda	#$2b
    287b: 65 64        	adc	$64                     ; 0x64 <_ZN12_GLOBAL__N_110heap_limitE+0x1>
    287d: 85 12        	sta	$12                     ; 0x12 <__rc2>
    287f: e4 12        	cpx	$12                     ; 0x12 <__rc2>
    2881: d0 08        	bne	$288b <_ZN12_GLOBAL__N_119allocate_free_chunkEPNS_9FreeChunkEj+0x89>
    2883: c4 13        	cpy	$13                     ; 0x13 <__rc3>
    2885: d0 04        	bne	$288b <_ZN12_GLOBAL__N_119allocate_free_chunkEPNS_9FreeChunkEj+0x89>
    2887: 64 b8        	stz	$b8                     ; 0xb8 <_ZN12_GLOBAL__N_19last_freeE>
    2889: 80 14        	bra	$289f <_ZN12_GLOBAL__N_119allocate_free_chunkEPNS_9FreeChunkEj+0x9d>
    288b: 84 12        	sty	$12                     ; 0x12 <__rc2>
    288d: 86 13        	stx	$13                     ; 0x13 <__rc3>
    288f: a0 01        	ldy	#$1
    2891: b1 12        	lda	($12),y                 ; 0x12 <__rc2>
    2893: 85 14        	sta	$14                     ; 0x14 <__rc4>
    2895: a9 fe        	lda	#$fe
    2897: 32 12        	and	($12)                   ; 0x12 <__rc2>
    2899: 92 12        	sta	($12)                   ; 0x12 <__rc2>
    289b: a5 14        	lda	$14                     ; 0x14 <__rc4>
    289d: 91 12        	sta	($12),y                 ; 0x12 <__rc2>
    289f: a5 ce        	lda	$ce                     ; 0xce <__zp_bss_size+0x76>
    28a1: 18           	clc
    28a2: 69 02        	adc	#$2
    28a4: 85 12        	sta	$12                     ; 0x12 <__rc2>
    28a6: a5 cf        	lda	$cf                     ; 0xcf <__zp_bss_size+0x77>
    28a8: 69 00        	adc	#$0
    28aa: 85 13        	sta	$13                     ; 0x13 <__rc3>
    28ac: 60           	rts
    28ad: 85 15        	sta	$15                     ; 0x15 <__rc5>
    28af: c9 00        	cmp	#$0
    28b1: a5 16        	lda	$16                     ; 0x16 <__rc6>
    28b3: 90 b3        	bcc	$2868 <_ZN12_GLOBAL__N_119allocate_free_chunkEPNS_9FreeChunkEj+0x66>
    28b5: 4c 3a 28     	jmp	$283a <_ZN12_GLOBAL__N_119allocate_free_chunkEPNS_9FreeChunkEj+0x38>

000028b8 <free>:
    28b8: a6 12        	ldx	$12                     ; 0x12 <__rc2>
    28ba: 86 14        	stx	$14                     ; 0x14 <__rc4>
    28bc: a6 13        	ldx	$13                     ; 0x13 <__rc3>
    28be: 86 15        	stx	$15                     ; 0x15 <__rc5>
    28c0: a2 00        	ldx	#$0
    28c2: 86 12        	stx	$12                     ; 0x12 <__rc2>
    28c4: a2 00        	ldx	#$0
    28c6: 86 13        	stx	$13                     ; 0x13 <__rc3>
    28c8: a6 15        	ldx	$15                     ; 0x15 <__rc5>
    28ca: e4 13        	cpx	$13                     ; 0x13 <__rc3>
    28cc: d0 09        	bne	$28d7 <free+0x1f>
    28ce: a6 14        	ldx	$14                     ; 0x14 <__rc4>
    28d0: e4 12        	cpx	$12                     ; 0x12 <__rc2>
    28d2: d0 03        	bne	$28d7 <free+0x1f>
    28d4: 4c 2f 2a     	jmp	$2a2f <free+0x177>
    28d7: a5 14        	lda	$14                     ; 0x14 <__rc4>
    28d9: 18           	clc
    28da: 69 fe        	adc	#$fe
    28dc: aa           	tax
    28dd: a5 15        	lda	$15                     ; 0x15 <__rc5>
    28df: 69 ff        	adc	#$ff
    28e1: 86 bd        	stx	$bd                     ; 0xbd <__zp_bss_size+0x65>
    28e3: 85 be        	sta	$be                     ; 0xbe <__zp_bss_size+0x66>
    28e5: 85 12        	sta	$12                     ; 0x12 <__rc2>
    28e7: a0 01        	ldy	#$1
    28e9: b1 bd        	lda	($bd),y                 ; 0xbd <__zp_bss_size+0x65>
    28eb: 85 16        	sta	$16                     ; 0x16 <__rc6>
    28ed: a9 fe        	lda	#$fe
    28ef: 32 bd        	and	($bd)                   ; 0xbd <__zp_bss_size+0x65>
    28f1: 85 17        	sta	$17                     ; 0x17 <__rc7>
    28f3: 8a           	txa
    28f4: 86 1b        	stx	$1b                     ; 0x1b <__rc11>
    28f6: 18           	clc
    28f7: 65 17        	adc	$17                     ; 0x17 <__rc7>
    28f9: aa           	tax
    28fa: a4 12        	ldy	$12                     ; 0x12 <__rc2>
    28fc: 84 1c        	sty	$1c                     ; 0x1c <__rc12>
    28fe: a5 12        	lda	$12                     ; 0x12 <__rc2>
    2900: 65 16        	adc	$16                     ; 0x16 <__rc6>
    2902: a8           	tay
    2903: b2 bd        	lda	($bd)                   ; 0xbd <__zp_bss_size+0x65>
    2905: 85 1a        	sta	$1a                     ; 0x1a <__rc10>
    2907: a9 84        	lda	#$84
    2909: 18           	clc
    290a: 65 63        	adc	$63                     ; 0x63 <_ZN12_GLOBAL__N_110heap_limitE>
    290c: 85 18        	sta	$18                     ; 0x18 <__rc8>
    290e: a9 2b        	lda	#$2b
    2910: 65 64        	adc	$64                     ; 0x64 <_ZN12_GLOBAL__N_110heap_limitE+0x1>
    2912: 85 19        	sta	$19                     ; 0x19 <__rc9>
    2914: c4 19        	cpy	$19                     ; 0x19 <__rc9>
    2916: d0 0e        	bne	$2926 <free+0x6e>
    2918: e4 18        	cpx	$18                     ; 0x18 <__rc8>
    291a: d0 0a        	bne	$2926 <free+0x6e>
    291c: a2 00        	ldx	#$0
    291e: 86 12        	stx	$12                     ; 0x12 <__rc2>
    2920: a2 00        	ldx	#$0
    2922: 86 13        	stx	$13                     ; 0x13 <__rc3>
    2924: 80 04        	bra	$292a <free+0x72>
    2926: 86 12        	stx	$12                     ; 0x12 <__rc2>
    2928: 84 13        	sty	$13                     ; 0x13 <__rc3>
    292a: a5 1a        	lda	$1a                     ; 0x1a <__rc10>
    292c: 29 01        	and	#$1
    292e: d0 03        	bne	$2933 <free+0x7b>
    2930: 4c ae 29     	jmp	$29ae <free+0xf6>
    2933: a5 14        	lda	$14                     ; 0x14 <__rc4>
    2935: 18           	clc
    2936: 69 fc        	adc	#$fc
    2938: 85 14        	sta	$14                     ; 0x14 <__rc4>
    293a: a5 15        	lda	$15                     ; 0x15 <__rc5>
    293c: 69 ff        	adc	#$ff
    293e: 85 15        	sta	$15                     ; 0x15 <__rc5>
    2940: a0 01        	ldy	#$1
    2942: 38           	sec
    2943: a9 00        	lda	#$0
    2945: f2 14        	sbc	($14)                   ; 0x14 <__rc4>
    2947: 85 1a        	sta	$1a                     ; 0x1a <__rc10>
    2949: a9 00        	lda	#$0
    294b: f1 14        	sbc	($14),y                 ; 0x14 <__rc4>
    294d: 85 14        	sta	$14                     ; 0x14 <__rc4>
    294f: a5 1b        	lda	$1b                     ; 0x1b <__rc11>
    2951: 18           	clc
    2952: 65 1a        	adc	$1a                     ; 0x1a <__rc10>
    2954: 85 bd        	sta	$bd                     ; 0xbd <__zp_bss_size+0x65>
    2956: a5 1c        	lda	$1c                     ; 0x1c <__rc12>
    2958: 65 14        	adc	$14                     ; 0x14 <__rc4>
    295a: 85 be        	sta	$be                     ; 0xbe <__zp_bss_size+0x66>
    295c: b1 bd        	lda	($bd),y                 ; 0xbd <__zp_bss_size+0x65>
    295e: 85 c5        	sta	$c5                     ; 0xc5 <__zp_bss_size+0x6d>
    2960: a9 fe        	lda	#$fe
    2962: 32 bd        	and	($bd)                   ; 0xbd <__zp_bss_size+0x65>
    2964: 85 c6        	sta	$c6                     ; 0xc6 <__zp_bss_size+0x6e>
    2966: a6 12        	ldx	$12                     ; 0x12 <__rc2>
    2968: 86 bf        	stx	$bf                     ; 0xbf <__zp_bss_size+0x67>
    296a: a6 13        	ldx	$13                     ; 0x13 <__rc3>
    296c: 86 c0        	stx	$c0                     ; 0xc0 <__zp_bss_size+0x68>
    296e: a6 bd        	ldx	$bd                     ; 0xbd <__zp_bss_size+0x65>
    2970: 86 12        	stx	$12                     ; 0x12 <__rc2>
    2972: a6 be        	ldx	$be                     ; 0xbe <__zp_bss_size+0x66>
    2974: 86 13        	stx	$13                     ; 0x13 <__rc3>
    2976: a6 16        	ldx	$16                     ; 0x16 <__rc6>
    2978: 86 c1        	stx	$c1                     ; 0xc1 <__zp_bss_size+0x69>
    297a: a6 17        	ldx	$17                     ; 0x17 <__rc7>
    297c: 86 c2        	stx	$c2                     ; 0xc2 <__zp_bss_size+0x6a>
    297e: a6 18        	ldx	$18                     ; 0x18 <__rc8>
    2980: 86 c3        	stx	$c3                     ; 0xc3 <__zp_bss_size+0x6b>
    2982: a6 19        	ldx	$19                     ; 0x19 <__rc9>
    2984: 86 c4        	stx	$c4                     ; 0xc4 <__zp_bss_size+0x6c>
    2986: 20 84 04     	jsr	$484 <_ZN12_GLOBAL__N_19FreeChunk6removeEv>
    2989: a6 c4        	ldx	$c4                     ; 0xc4 <__zp_bss_size+0x6c>
    298b: 86 19        	stx	$19                     ; 0x19 <__rc9>
    298d: a6 c3        	ldx	$c3                     ; 0xc3 <__zp_bss_size+0x6b>
    298f: 86 18        	stx	$18                     ; 0x18 <__rc8>
    2991: a6 bf        	ldx	$bf                     ; 0xbf <__zp_bss_size+0x67>
    2993: 86 12        	stx	$12                     ; 0x12 <__rc2>
    2995: a6 c0        	ldx	$c0                     ; 0xc0 <__zp_bss_size+0x68>
    2997: 86 13        	stx	$13                     ; 0x13 <__rc3>
    2999: 18           	clc
    299a: a5 c6        	lda	$c6                     ; 0xc6 <__zp_bss_size+0x6e>
    299c: a6 c2        	ldx	$c2                     ; 0xc2 <__zp_bss_size+0x6a>
    299e: 86 14        	stx	$14                     ; 0x14 <__rc4>
    29a0: 65 14        	adc	$14                     ; 0x14 <__rc4>
    29a2: 85 17        	sta	$17                     ; 0x17 <__rc7>
    29a4: a5 c5        	lda	$c5                     ; 0xc5 <__zp_bss_size+0x6d>
    29a6: a6 c1        	ldx	$c1                     ; 0xc1 <__zp_bss_size+0x69>
    29a8: 86 14        	stx	$14                     ; 0x14 <__rc4>
    29aa: 65 14        	adc	$14                     ; 0x14 <__rc4>
    29ac: 85 16        	sta	$16                     ; 0x16 <__rc6>
    29ae: a2 00        	ldx	#$0
    29b0: 86 14        	stx	$14                     ; 0x14 <__rc4>
    29b2: a2 00        	ldx	#$0
    29b4: 86 15        	stx	$15                     ; 0x15 <__rc5>
    29b6: a6 13        	ldx	$13                     ; 0x13 <__rc3>
    29b8: e4 15        	cpx	$15                     ; 0x15 <__rc5>
    29ba: d0 0d        	bne	$29c9 <free+0x111>
    29bc: a6 12        	ldx	$12                     ; 0x12 <__rc2>
    29be: e4 14        	cpx	$14                     ; 0x14 <__rc4>
    29c0: d0 07        	bne	$29c9 <free+0x111>
    29c2: a2 01        	ldx	#$1
    29c4: 86 b8        	stx	$b8                     ; 0xb8 <_ZN12_GLOBAL__N_19last_freeE>
    29c6: 4c 20 2a     	jmp	$2a20 <free+0x168>
    29c9: a0 01        	ldy	#$1
    29cb: b1 12        	lda	($12),y                 ; 0x12 <__rc2>
    29cd: a8           	tay
    29ce: a9 fe        	lda	#$fe
    29d0: 32 12        	and	($12)                   ; 0x12 <__rc2>
    29d2: 18           	clc
    29d3: 85 c3        	sta	$c3                     ; 0xc3 <__zp_bss_size+0x6b>
    29d5: 65 12        	adc	$12                     ; 0x12 <__rc2>
    29d7: 85 14        	sta	$14                     ; 0x14 <__rc4>
    29d9: 98           	tya
    29da: 85 bf        	sta	$bf                     ; 0xbf <__zp_bss_size+0x67>
    29dc: 65 13        	adc	$13                     ; 0x13 <__rc3>
    29de: c5 19        	cmp	$19                     ; 0x19 <__rc9>
    29e0: d0 0e        	bne	$29f0 <free+0x138>
    29e2: a6 14        	ldx	$14                     ; 0x14 <__rc4>
    29e4: e4 18        	cpx	$18                     ; 0x18 <__rc8>
    29e6: d0 08        	bne	$29f0 <free+0x138>
    29e8: a9 01        	lda	#$1
    29ea: 64 14        	stz	$14                     ; 0x14 <__rc4>
    29ec: 25 b8        	and	$b8                     ; 0xb8 <_ZN12_GLOBAL__N_19last_freeE>
    29ee: 80 08        	bra	$29f8 <free+0x140>
    29f0: 85 15        	sta	$15                     ; 0x15 <__rc5>
    29f2: a9 01        	lda	#$1
    29f4: 32 14        	and	($14)                   ; 0x14 <__rc4>
    29f6: 64 14        	stz	$14                     ; 0x14 <__rc4>
    29f8: a6 14        	ldx	$14                     ; 0x14 <__rc4>
    29fa: d0 03        	bne	$29ff <free+0x147>
    29fc: aa           	tax
    29fd: f0 31        	beq	$2a30 <free+0x178>
    29ff: a6 16        	ldx	$16                     ; 0x16 <__rc6>
    2a01: 86 c1        	stx	$c1                     ; 0xc1 <__zp_bss_size+0x69>
    2a03: a6 17        	ldx	$17                     ; 0x17 <__rc7>
    2a05: 86 c2        	stx	$c2                     ; 0xc2 <__zp_bss_size+0x6a>
    2a07: 20 84 04     	jsr	$484 <_ZN12_GLOBAL__N_19FreeChunk6removeEv>
    2a0a: 18           	clc
    2a0b: a6 c3        	ldx	$c3                     ; 0xc3 <__zp_bss_size+0x6b>
    2a0d: 8a           	txa
    2a0e: a6 c2        	ldx	$c2                     ; 0xc2 <__zp_bss_size+0x6a>
    2a10: 86 12        	stx	$12                     ; 0x12 <__rc2>
    2a12: 65 12        	adc	$12                     ; 0x12 <__rc2>
    2a14: 85 17        	sta	$17                     ; 0x17 <__rc7>
    2a16: a5 bf        	lda	$bf                     ; 0xbf <__zp_bss_size+0x67>
    2a18: a6 c1        	ldx	$c1                     ; 0xc1 <__zp_bss_size+0x69>
    2a1a: 86 12        	stx	$12                     ; 0x12 <__rc2>
    2a1c: 65 12        	adc	$12                     ; 0x12 <__rc2>
    2a1e: 85 16        	sta	$16                     ; 0x16 <__rc6>
    2a20: a6 bd        	ldx	$bd                     ; 0xbd <__zp_bss_size+0x65>
    2a22: 86 12        	stx	$12                     ; 0x12 <__rc2>
    2a24: a6 be        	ldx	$be                     ; 0xbe <__zp_bss_size+0x66>
    2a26: 86 13        	stx	$13                     ; 0x13 <__rc3>
    2a28: a6 16        	ldx	$16                     ; 0x16 <__rc6>
    2a2a: a5 17        	lda	$17                     ; 0x17 <__rc7>
    2a2c: 20 4e 03     	jsr	$34e <_ZN12_GLOBAL__N_19FreeChunk6insertEPvj>
    2a2f: 60           	rts
    2a30: b2 12        	lda	($12)                   ; 0x12 <__rc2>
    2a32: 09 01        	ora	#$1
    2a34: 92 12        	sta	($12)                   ; 0x12 <__rc2>
    2a36: a0 01        	ldy	#$1
    2a38: a5 bf        	lda	$bf                     ; 0xbf <__zp_bss_size+0x67>
    2a3a: 91 12        	sta	($12),y                 ; 0x12 <__rc2>
    2a3c: 80 e2        	bra	$2a20 <free+0x168>

00002a3e <memcpy>:
    2a3e: a8           	tay
    2a3f: 8a           	txa
    2a40: d0 03        	bne	$2a45 <memcpy+0x7>
    2a42: 98           	tya
    2a43: f0 24        	beq	$2a69 <memcpy+0x2b>
    2a45: a5 12        	lda	$12                     ; 0x12 <__rc2>
    2a47: 85 16        	sta	$16                     ; 0x16 <__rc6>
    2a49: a5 13        	lda	$13                     ; 0x13 <__rc3>
    2a4b: 85 17        	sta	$17                     ; 0x17 <__rc7>
    2a4d: b2 14        	lda	($14)                   ; 0x14 <__rc4>
    2a4f: 92 16        	sta	($16)                   ; 0x16 <__rc6>
    2a51: e6 16        	inc	$16                     ; 0x16 <__rc6>
    2a53: d0 02        	bne	$2a57 <memcpy+0x19>
    2a55: e6 17        	inc	$17                     ; 0x17 <__rc7>
    2a57: e6 14        	inc	$14                     ; 0x14 <__rc4>
    2a59: d0 02        	bne	$2a5d <memcpy+0x1f>
    2a5b: e6 15        	inc	$15                     ; 0x15 <__rc5>
    2a5d: 88           	dey
    2a5e: c0 ff        	cpy	#$ff
    2a60: d0 01        	bne	$2a63 <memcpy+0x25>
    2a62: ca           	dex
    2a63: 8a           	txa
    2a64: d0 e7        	bne	$2a4d <memcpy+0xf>
    2a66: 98           	tya
    2a67: d0 e4        	bne	$2a4d <memcpy+0xf>
    2a69: 60           	rts

00002a6a <__memset>:
    2a6a: a4 14        	ldy	$14                     ; 0x14 <__rc4>
    2a6c: d0 04        	bne	$2a72 <__memset+0x8>
    2a6e: e0 00        	cpx	#$0
    2a70: f0 17        	beq	$2a89 <__memset+0x1f>
    2a72: 92 12        	sta	($12)                   ; 0x12 <__rc2>
    2a74: e6 12        	inc	$12                     ; 0x12 <__rc2>
    2a76: d0 02        	bne	$2a7a <__memset+0x10>
    2a78: e6 13        	inc	$13                     ; 0x13 <__rc3>
    2a7a: ca           	dex
    2a7b: e0 ff        	cpx	#$ff
    2a7d: d0 02        	bne	$2a81 <__memset+0x17>
    2a7f: c6 14        	dec	$14                     ; 0x14 <__rc4>
    2a81: a4 14        	ldy	$14                     ; 0x14 <__rc4>
    2a83: d0 ed        	bne	$2a72 <__memset+0x8>
    2a85: e0 00        	cpx	#$0
    2a87: d0 e9        	bne	$2a72 <__memset+0x8>
    2a89: 60           	rts
