
FusionDrive.elf:	file format elf32-mos

SYMBOL TABLE:
00000000 l    df *ABS*	00000000 zero-bss.c
00000000 l    df *ABS*	00000000 ld-temp.o
00000542 l     F .text	00000436 f256Init
00001371 l     O .bss	00000007 kernelEventData
000012eb l     O .rodata	00000030 textColors
0000131b l     O .bss	00000001 _col
0000131c l     O .bss	00000001 _row
00001329 l     O .bss	00000001 _active
0000131d l     O .bss	00000004 _BITMAP_BASE.0
00001321 l     O .bss	00000004 _BITMAP_BASE.1
00001325 l     O .bss	00000004 _BITMAP_BASE.2
0000132a l     O .bss	00000003 _BITMAP_CLUT
0000132d l     O .bss	00000040 _spriteCtl
00001370 l     O .bss	00000001 kernelError
0000097e l     F .text	00000773 f256main
0000136d l     O .bss	00000001 carTimer.1
0000136e l     O .bss	00000001 laneTimer.1
0000136f l     O .bss	00000001 carForceTimer.1
000010f6 l     F .text	000001d5 malloc
00001378 l     O .bss	00000001 _ZN12_GLOBAL__N_111initializedE
0000137c l     O .bss	00000002 _ZN12_GLOBAL__N_19free_listE
0000137a l     O .bss	00000002 _ZN12_GLOBAL__N_19free_sizeE
00001379 l     O .bss	00000001 _ZN12_GLOBAL__N_19last_freeE
00000312 l     F .text	0000013d _ZN12_GLOBAL__N_19FreeChunk6insertEPvj
00000450 l     F .text	000000df _ZN12_GLOBAL__N_19FreeChunk6removeEv
00000978 g     F .text	00000006 main
00010c00 g       .carM	00000000 carM_start
00020000 g       .backbmp	00000000 backbmp_start
00013000 g       .yellow	00000000 yellow_end
00010400 g       .palback	00000000 palback_end
00011400 g       .carB	00000000 carB_start
00010000 g       .palback	00000000 palback_start
00032c00 g       .backbmp	00000000 backbmp_end
00050000 g       .music	00000000 music_start
000723dc g       .music	00000000 music_end
00010c00 g       .carF	00000000 carF_end
00011c00 g       .carB	00000000 carB_end
00011c00 g       .yellow	00000000 yellow_start
00010400 g       .carF	00000000 carF_start
00011400 g       .carM	00000000 carM_end
0000030e g       .text	00000000 __after_main
00000300 g       .text	00000000 __do_init_stack
00000308 g       .text	00000000 __do_zero_bss
0000052f g     F .text	00000013 __zero_bss
000010f1 g     F .text	00000005 exit
00000311 g       .text	00000000 _fini
000012cb  w    F .text	00000020 __memset
00001000  w      *ABS*	00000000 __heap_default_limit
0000137e g       .noinit	00000000 __heap_start
00000010 g       *ABS*	00000000 __rc0
00000012 g       *ABS*	00000000 __rc2
00000014 g       *ABS*	00000000 __rc4
00000016 g       *ABS*	00000000 __rc6
00000018 g       *ABS*	00000000 __rc8
0000001a g       *ABS*	00000000 __rc10
0000001c g       *ABS*	00000000 __rc12
0000001e g       *ABS*	00000000 __rc14
00000020 g       *ABS*	00000000 __rc16
00000022 g       *ABS*	00000000 __rc18
00000024 g       *ABS*	00000000 __rc20
00000026 g       *ABS*	00000000 __rc22
00000028 g       *ABS*	00000000 __rc24
0000002a g       *ABS*	00000000 __rc26
0000002c g       *ABS*	00000000 __rc28
0000002e g       *ABS*	00000000 __rc30
0000002f g       *ABS*	00000000 __rc31
00000300 g       *ABS*	00000000 __f256_start
0000c000 g       *ABS*	00000000 __stack
0000c000 g       *ABS*	00000000 __SLOT_ADDR
0800c000 g       *ABS*	00000000 __block8_lma
00002000 g       *ABS*	00000000 __BLOCK_SIZE
0900c000 g       *ABS*	00000000 __block9_lma
0a00c000 g       *ABS*	00000000 __block10_lma
0b00c000 g       *ABS*	00000000 __block11_lma
0c00c000 g       *ABS*	00000000 __block12_lma
0d00c000 g       *ABS*	00000000 __block13_lma
0e00c000 g       *ABS*	00000000 __block14_lma
0f00c000 g       *ABS*	00000000 __block15_lma
1000c000 g       *ABS*	00000000 __block16_lma
1100c000 g       *ABS*	00000000 __block17_lma
1200c000 g       *ABS*	00000000 __block18_lma
1300c000 g       *ABS*	00000000 __block19_lma
1400c000 g       *ABS*	00000000 __block20_lma
1500c000 g       *ABS*	00000000 __block21_lma
1600c000 g       *ABS*	00000000 __block22_lma
1700c000 g       *ABS*	00000000 __block23_lma
00010000 g       *ABS*	00000000 __palback_lma
00000400 g       *ABS*	00000000 __palback_size
00010400 g       *ABS*	00000000 __carF_lma
00000800 g       *ABS*	00000000 __carF_size
00010c00 g       *ABS*	00000000 __carM_lma
00000800 g       *ABS*	00000000 __carM_size
00011400 g       *ABS*	00000000 __carB_lma
00000800 g       *ABS*	00000000 __carB_size
00011c00 g       *ABS*	00000000 __yellow_lma
00001400 g       *ABS*	00000000 __yellow_size
00020000 g       *ABS*	00000000 __backbmp_lma
00012c00 g       *ABS*	00000000 __backbmp_size
00050000 g       *ABS*	00000000 __music_lma
000223dc g       *ABS*	00000000 __music_size
0000131b g       .bss	00000000 __bss_start
00010400 g       .palback	00000000 end_palback
00010c00 g       .carF	00000000 end_carF
00011400 g       .carM	00000000 end_carM
00011c00 g       .carB	00000000 end_carB
00013000 g       .yellow	00000000 end_yellow
00032c00 g       .backbmp	00000000 end_backbmp
000723dc g       .music	00000000 end_music
00000300 g       .text	00000000 _start
0000002d g       *ABS*	00000000 __rc29
0000002b g       *ABS*	00000000 __rc27
00000029 g       *ABS*	00000000 __rc25
00000027 g       *ABS*	00000000 __rc23
00000025 g       *ABS*	00000000 __rc21
00000023 g       *ABS*	00000000 __rc19
00000021 g       *ABS*	00000000 __rc17
0000001f g       *ABS*	00000000 __rc15
0000001d g       *ABS*	00000000 __rc13
0000001b g       *ABS*	00000000 __rc11
00000019 g       *ABS*	00000000 __rc9
00000017 g       *ABS*	00000000 __rc7
00000015 g       *ABS*	00000000 __rc5
00000013 g       *ABS*	00000000 __rc3
00000011 g       *ABS*	00000000 __rc1
00000030 g       .zp.data	00000000 __zp_data_start
00000300 g       *ABS*	00000000 __zp_data_load_start
00000000 g       *ABS*	00000000 __zp_data_size
00000030 g       .zp.bss	00000000 __zp_bss_start
00000000 g       *ABS*	00000000 __zp_bss_size
00000300 g       .text	00000000 _init
000012eb g       .text	00000000 __init_array_start
000012eb g       .text	00000000 __init_array_end
000012eb g       .text	00000000 __fini_array_start
000012eb g       .text	00000000 __fini_array_end
0000131b g       .data	00000000 __data_start
0000131b g       .data	00000000 __data_end
0000131b g       *ABS*	00000000 __data_load_start
00000000 g       *ABS*	00000000 __data_size
0000137e g       .bss	00000000 __bss_end
00000063 g       *ABS*	00000000 __bss_size
0000137e g       .noinit	00000000 end_block8
0000137e g       .noinit	00000000 end_block9
0000137e g       .noinit	00000000 end_block10
0000137e g       .noinit	00000000 end_block11
0000137e g       .noinit	00000000 end_block12
0000137e g       .noinit	00000000 end_block13
0000137e g       .noinit	00000000 end_block14
0000137e g       .noinit	00000000 end_block15
0000137e g       .noinit	00000000 end_block16
0000137e g       .noinit	00000000 end_block17
0000137e g       .noinit	00000000 end_block18
0000137e g       .noinit	00000000 end_block19
0000137e g       .noinit	00000000 end_block20
0000137e g       .noinit	00000000 end_block21
0000137e g       .noinit	00000000 end_block22
0000137e g       .noinit	00000000 end_block23

Disassembly of section .text:

00000300 <_start>:
     300: a9 00        	lda	#$0
     302: 85 10        	sta	$10                     ; 0x2010 <end_block9+0xc92>
     304: a9 c0        	lda	#$c0
     306: 85 11        	sta	$11                     ; 0x2011 <end_block9+0xc93>

00000308 <__do_zero_bss>:
     308: 20 2f 05     	jsr	$52f <__zero_bss>
     30b: 20 78 09     	jsr	$978 <main>

0000030e <__after_main>:
     30e: 4c f1 10     	jmp	$10f1 <exit>

00000311 <_fini>:
     311: 60           	rts

00000312 <_ZN12_GLOBAL__N_19FreeChunk6insertEPvj>:
     312: 85 16        	sta	$16                     ; 0x2016 <end_block9+0xc98>
     314: 29 fe        	and	#$fe
     316: 85 14        	sta	$14                     ; 0x2014 <end_block9+0xc96>
     318: a0 01        	ldy	#$1
     31a: 98           	tya
     31b: 32 12        	and	($12)                   ; 0x2012 <end_block9+0xc94>
     31d: 05 14        	ora	$14                     ; 0x2014 <end_block9+0xc96>
     31f: 92 12        	sta	($12)                   ; 0x2012 <end_block9+0xc94>
     321: a5 12        	lda	$12                     ; 0x2012 <end_block9+0xc94>
     323: 18           	clc
     324: 65 14        	adc	$14                     ; 0x2014 <end_block9+0xc96>
     326: 85 15        	sta	$15                     ; 0x2015 <end_block9+0xc97>
     328: 8a           	txa
     329: 65 13        	adc	$13                     ; 0x2013 <end_block9+0xc95>
     32b: 85 14        	sta	$14                     ; 0x2014 <end_block9+0xc96>
     32d: 18           	clc
     32e: a5 15        	lda	$15                     ; 0x2015 <end_block9+0xc97>
     330: 69 fe        	adc	#$fe
     332: 85 17        	sta	$17                     ; 0x2017 <end_block9+0xc99>
     334: a5 14        	lda	$14                     ; 0x2014 <end_block9+0xc96>
     336: 69 ff        	adc	#$ff
     338: 85 15        	sta	$15                     ; 0x2015 <end_block9+0xc97>
     33a: a5 17        	lda	$17                     ; 0x2017 <end_block9+0xc99>
     33c: 85 14        	sta	$14                     ; 0x2014 <end_block9+0xc96>
     33e: 8a           	txa
     33f: 91 12        	sta	($12),y                 ; 0x2012 <end_block9+0xc94>
     341: a5 16        	lda	$16                     ; 0x2016 <end_block9+0xc98>
     343: 92 14        	sta	($14)                   ; 0x2014 <end_block9+0xc96>
     345: 8a           	txa
     346: 91 14        	sta	($14),y                 ; 0x2014 <end_block9+0xc96>
     348: b1 12        	lda	($12),y                 ; 0x2012 <end_block9+0xc94>
     34a: 85 14        	sta	$14                     ; 0x2014 <end_block9+0xc96>
     34c: a9 fe        	lda	#$fe
     34e: 32 12        	and	($12)                   ; 0x2012 <end_block9+0xc94>
     350: 18           	clc
     351: 6d 7a 13     	adc	$137a                   ; 0x137a <_ZN12_GLOBAL__N_19free_sizeE>
     354: aa           	tax
     355: a5 14        	lda	$14                     ; 0x2014 <end_block9+0xc96>
     357: 6d 7b 13     	adc	$137b                   ; 0x137b <_ZN12_GLOBAL__N_19free_sizeE+0x1>
     35a: a8           	tay
     35b: 18           	clc
     35c: 8a           	txa
     35d: 69 fe        	adc	#$fe
     35f: aa           	tax
     360: 98           	tya
     361: 69 ff        	adc	#$ff
     363: 8e 7a 13     	stx	$137a                   ; 0x137a <_ZN12_GLOBAL__N_19free_sizeE>
     366: 8d 7b 13     	sta	$137b                   ; 0x137b <_ZN12_GLOBAL__N_19free_sizeE+0x1>
     369: ae 7c 13     	ldx	$137c                   ; 0x137c <_ZN12_GLOBAL__N_19free_listE>
     36c: 86 16        	stx	$16                     ; 0x2016 <end_block9+0xc98>
     36e: ac 7d 13     	ldy	$137d                   ; 0x137d <_ZN12_GLOBAL__N_19free_listE+0x1>
     371: a2 00        	ldx	#$0
     373: 86 14        	stx	$14                     ; 0x2014 <end_block9+0xc96>
     375: a2 00        	ldx	#$0
     377: 86 15        	stx	$15                     ; 0x2015 <end_block9+0xc97>
     379: c4 15        	cpy	$15                     ; 0x2015 <end_block9+0xc97>
     37b: d0 3e        	bne	$3bb <_ZN12_GLOBAL__N_19FreeChunk6insertEPvj+0xa9>
     37d: a6 16        	ldx	$16                     ; 0x2016 <end_block9+0xc98>
     37f: e4 14        	cpx	$14                     ; 0x2014 <end_block9+0xc96>
     381: d0 38        	bne	$3bb <_ZN12_GLOBAL__N_19FreeChunk6insertEPvj+0xa9>
     383: a0 04        	ldy	#$4
     385: a5 12        	lda	$12                     ; 0x2012 <end_block9+0xc94>
     387: 18           	clc
     388: 69 04        	adc	#$4
     38a: 85 14        	sta	$14                     ; 0x2014 <end_block9+0xc96>
     38c: a5 13        	lda	$13                     ; 0x2013 <end_block9+0xc95>
     38e: 69 00        	adc	#$0
     390: 18           	clc
     391: 85 15        	sta	$15                     ; 0x2015 <end_block9+0xc97>
     393: a5 12        	lda	$12                     ; 0x2012 <end_block9+0xc94>
     395: 91 12        	sta	($12),y                 ; 0x2012 <end_block9+0xc94>
     397: a0 02        	ldy	#$2
     399: 85 17        	sta	$17                     ; 0x2017 <end_block9+0xc99>
     39b: 69 02        	adc	#$2
     39d: 85 16        	sta	$16                     ; 0x2016 <end_block9+0xc98>
     39f: a5 17        	lda	$17                     ; 0x2017 <end_block9+0xc99>
     3a1: 91 12        	sta	($12),y                 ; 0x2012 <end_block9+0xc94>
     3a3: a5 13        	lda	$13                     ; 0x2013 <end_block9+0xc95>
     3a5: 69 00        	adc	#$0
     3a7: 85 17        	sta	$17                     ; 0x2017 <end_block9+0xc99>
     3a9: 88           	dey
     3aa: a5 13        	lda	$13                     ; 0x2013 <end_block9+0xc95>
     3ac: 91 14        	sta	($14),y                 ; 0x2014 <end_block9+0xc96>
     3ae: 91 16        	sta	($16),y                 ; 0x2016 <end_block9+0xc98>
     3b0: a6 12        	ldx	$12                     ; 0x2012 <end_block9+0xc94>
     3b2: 8e 7c 13     	stx	$137c                   ; 0x137c <_ZN12_GLOBAL__N_19free_listE>
     3b5: a6 13        	ldx	$13                     ; 0x2013 <end_block9+0xc95>
     3b7: 8e 7d 13     	stx	$137d                   ; 0x137d <_ZN12_GLOBAL__N_19free_listE+0x1>
     3ba: 60           	rts
     3bb: a6 12        	ldx	$12                     ; 0x2012 <end_block9+0xc94>
     3bd: a5 12        	lda	$12                     ; 0x2012 <end_block9+0xc94>
     3bf: 18           	clc
     3c0: 69 02        	adc	#$2
     3c2: 85 14        	sta	$14                     ; 0x2014 <end_block9+0xc96>
     3c4: 84 18        	sty	$18                     ; 0x2018 <end_block9+0xc9a>
     3c6: a5 13        	lda	$13                     ; 0x2013 <end_block9+0xc95>
     3c8: 69 00        	adc	#$0
     3ca: 85 15        	sta	$15                     ; 0x2015 <end_block9+0xc97>
     3cc: a5 16        	lda	$16                     ; 0x2016 <end_block9+0xc98>
     3ce: 84 17        	sty	$17                     ; 0x2017 <end_block9+0xc99>
     3d0: a0 02        	ldy	#$2
     3d2: 91 12        	sta	($12),y                 ; 0x2012 <end_block9+0xc94>
     3d4: 85 19        	sta	$19                     ; 0x2019 <end_block9+0xc9b>
     3d6: 88           	dey
     3d7: a5 18        	lda	$18                     ; 0x2018 <end_block9+0xc9a>
     3d9: 91 14        	sta	($14),y                 ; 0x2014 <end_block9+0xc96>
     3db: 18           	clc
     3dc: a5 19        	lda	$19                     ; 0x2019 <end_block9+0xc9b>
     3de: 69 04        	adc	#$4
     3e0: a8           	tay
     3e1: a5 18        	lda	$18                     ; 0x2018 <end_block9+0xc9a>
     3e3: 69 00        	adc	#$0
     3e5: 85 19        	sta	$19                     ; 0x2019 <end_block9+0xc9b>
     3e7: 84 18        	sty	$18                     ; 0x2018 <end_block9+0xc9a>
     3e9: 8a           	txa
     3ea: 18           	clc
     3eb: 69 04        	adc	#$4
     3ed: 85 1a        	sta	$1a                     ; 0x201a <end_block9+0xc9c>
     3ef: a5 13        	lda	$13                     ; 0x2013 <end_block9+0xc95>
     3f1: 69 00        	adc	#$0
     3f3: 85 1b        	sta	$1b                     ; 0x201b <end_block9+0xc9d>
     3f5: a0 04        	ldy	#$4
     3f7: b1 16        	lda	($16),y                 ; 0x2016 <end_block9+0xc98>
     3f9: 85 16        	sta	$16                     ; 0x2016 <end_block9+0xc98>
     3fb: 85 1d        	sta	$1d                     ; 0x201d <end_block9+0xc9f>
     3fd: a0 01        	ldy	#$1
     3ff: b1 18        	lda	($18),y                 ; 0x2018 <end_block9+0xc9a>
     401: 85 17        	sta	$17                     ; 0x2017 <end_block9+0xc99>
     403: 85 19        	sta	$19                     ; 0x2019 <end_block9+0xc9b>
     405: a0 04        	ldy	#$4
     407: a5 1d        	lda	$1d                     ; 0x201d <end_block9+0xc9f>
     409: 91 12        	sta	($12),y                 ; 0x2012 <end_block9+0xc94>
     40b: a5 19        	lda	$19                     ; 0x2019 <end_block9+0xc9b>
     40d: a0 01        	ldy	#$1
     40f: 91 1a        	sta	($1a),y                 ; 0x201a <end_block9+0xc9c>
     411: 18           	clc
     412: a5 1d        	lda	$1d                     ; 0x201d <end_block9+0xc9f>
     414: 69 02        	adc	#$2
     416: 85 18        	sta	$18                     ; 0x2018 <end_block9+0xc9a>
     418: a5 19        	lda	$19                     ; 0x2019 <end_block9+0xc9b>
     41a: 69 00        	adc	#$0
     41c: 85 19        	sta	$19                     ; 0x2019 <end_block9+0xc9b>
     41e: 8a           	txa
     41f: c8           	iny
     420: 91 16        	sta	($16),y                 ; 0x2016 <end_block9+0xc98>
     422: a5 13        	lda	$13                     ; 0x2013 <end_block9+0xc95>
     424: 88           	dey
     425: 91 18        	sta	($18),y                 ; 0x2018 <end_block9+0xc9a>
     427: c8           	iny
     428: b1 12        	lda	($12),y                 ; 0x2012 <end_block9+0xc94>
     42a: 85 16        	sta	$16                     ; 0x2016 <end_block9+0xc98>
     42c: 85 18        	sta	$18                     ; 0x2018 <end_block9+0xc9a>
     42e: 88           	dey
     42f: b1 14        	lda	($14),y                 ; 0x2014 <end_block9+0xc96>
     431: 85 17        	sta	$17                     ; 0x2017 <end_block9+0xc99>
     433: 85 14        	sta	$14                     ; 0x2014 <end_block9+0xc96>
     435: 8a           	txa
     436: a0 04        	ldy	#$4
     438: 91 16        	sta	($16),y                 ; 0x2016 <end_block9+0xc98>
     43a: 18           	clc
     43b: a5 18        	lda	$18                     ; 0x2018 <end_block9+0xc9a>
     43d: 69 04        	adc	#$4
     43f: a8           	tay
     440: a5 14        	lda	$14                     ; 0x2014 <end_block9+0xc96>
     442: 69 00        	adc	#$0
     444: 84 14        	sty	$14                     ; 0x2014 <end_block9+0xc96>
     446: 85 15        	sta	$15                     ; 0x2015 <end_block9+0xc97>
     448: a5 13        	lda	$13                     ; 0x2013 <end_block9+0xc95>
     44a: a0 01        	ldy	#$1
     44c: 91 14        	sta	($14),y                 ; 0x2014 <end_block9+0xc96>
     44e: 60           	rts
     44f: 00           	brk

00000450 <_ZN12_GLOBAL__N_19FreeChunk6removeEv>:
     450: a0 01        	ldy	#$1
     452: a9 fe        	lda	#$fe
     454: 32 12        	and	($12)                   ; 0x2012 <end_block9+0xc94>
     456: 85 14        	sta	$14                     ; 0x2014 <end_block9+0xc96>
     458: ad 7a 13     	lda	$137a                   ; 0x137a <_ZN12_GLOBAL__N_19free_sizeE>
     45b: ae 7b 13     	ldx	$137b                   ; 0x137b <_ZN12_GLOBAL__N_19free_sizeE+0x1>
     45e: 86 15        	stx	$15                     ; 0x2015 <end_block9+0xc97>
     460: 38           	sec
     461: e5 14        	sbc	$14                     ; 0x2014 <end_block9+0xc96>
     463: aa           	tax
     464: a5 15        	lda	$15                     ; 0x2015 <end_block9+0xc97>
     466: f1 12        	sbc	($12),y                 ; 0x2012 <end_block9+0xc94>
     468: 85 14        	sta	$14                     ; 0x2014 <end_block9+0xc96>
     46a: 18           	clc
     46b: 8a           	txa
     46c: 69 02        	adc	#$2
     46e: 85 15        	sta	$15                     ; 0x2015 <end_block9+0xc97>
     470: a5 14        	lda	$14                     ; 0x2014 <end_block9+0xc96>
     472: 69 00        	adc	#$0
     474: a6 15        	ldx	$15                     ; 0x2015 <end_block9+0xc97>
     476: 8e 7a 13     	stx	$137a                   ; 0x137a <_ZN12_GLOBAL__N_19free_sizeE>
     479: 8d 7b 13     	sta	$137b                   ; 0x137b <_ZN12_GLOBAL__N_19free_sizeE+0x1>
     47c: a5 12        	lda	$12                     ; 0x2012 <end_block9+0xc94>
     47e: 18           	clc
     47f: 69 02        	adc	#$2
     481: 85 14        	sta	$14                     ; 0x2014 <end_block9+0xc96>
     483: a5 13        	lda	$13                     ; 0x2013 <end_block9+0xc95>
     485: 69 00        	adc	#$0
     487: c8           	iny
     488: 85 15        	sta	$15                     ; 0x2015 <end_block9+0xc97>
     48a: b1 12        	lda	($12),y                 ; 0x2012 <end_block9+0xc94>
     48c: aa           	tax
     48d: 88           	dey
     48e: b1 14        	lda	($14),y                 ; 0x2014 <end_block9+0xc96>
     490: 85 19        	sta	$19                     ; 0x2019 <end_block9+0xc9b>
     492: c5 13        	cmp	$13                     ; 0x2013 <end_block9+0xc95>
     494: d0 0f        	bne	$4a5 <_ZN12_GLOBAL__N_19FreeChunk6removeEv+0x55>
     496: e4 12        	cpx	$12                     ; 0x2012 <end_block9+0xc94>
     498: d0 0b        	bne	$4a5 <_ZN12_GLOBAL__N_19FreeChunk6removeEv+0x55>
     49a: a2 00        	ldx	#$0
     49c: 86 14        	stx	$14                     ; 0x2014 <end_block9+0xc96>
     49e: a2 00        	ldx	#$0
     4a0: 86 15        	stx	$15                     ; 0x2015 <end_block9+0xc97>
     4a2: 4c 24 05     	jmp	$524 <_ZN12_GLOBAL__N_19FreeChunk6removeEv+0xd4>
     4a5: 86 18        	stx	$18                     ; 0x2018 <end_block9+0xc9a>
     4a7: a6 12        	ldx	$12                     ; 0x2012 <end_block9+0xc94>
     4a9: a5 12        	lda	$12                     ; 0x2012 <end_block9+0xc94>
     4ab: 86 1b        	stx	$1b                     ; 0x201b <end_block9+0xc9d>
     4ad: 18           	clc
     4ae: 69 04        	adc	#$4
     4b0: 85 14        	sta	$14                     ; 0x2014 <end_block9+0xc96>
     4b2: a5 13        	lda	$13                     ; 0x2013 <end_block9+0xc95>
     4b4: 69 00        	adc	#$0
     4b6: a0 04        	ldy	#$4
     4b8: 85 15        	sta	$15                     ; 0x2015 <end_block9+0xc97>
     4ba: b1 12        	lda	($12),y                 ; 0x2012 <end_block9+0xc94>
     4bc: 85 1c        	sta	$1c                     ; 0x201c <end_block9+0xc9e>
     4be: 18           	clc
     4bf: 69 02        	adc	#$2
     4c1: 85 16        	sta	$16                     ; 0x2016 <end_block9+0xc98>
     4c3: a0 01        	ldy	#$1
     4c5: b1 14        	lda	($14),y                 ; 0x2014 <end_block9+0xc96>
     4c7: aa           	tax
     4c8: 69 00        	adc	#$0
     4ca: a4 16        	ldy	$16                     ; 0x2016 <end_block9+0xc98>
     4cc: 84 14        	sty	$14                     ; 0x2014 <end_block9+0xc96>
     4ce: 85 15        	sta	$15                     ; 0x2015 <end_block9+0xc97>
     4d0: a4 1c        	ldy	$1c                     ; 0x201c <end_block9+0xc9e>
     4d2: 84 16        	sty	$16                     ; 0x2016 <end_block9+0xc98>
     4d4: 86 17        	stx	$17                     ; 0x2017 <end_block9+0xc99>
     4d6: a0 02        	ldy	#$2
     4d8: a5 18        	lda	$18                     ; 0x2018 <end_block9+0xc9a>
     4da: 91 16        	sta	($16),y                 ; 0x2016 <end_block9+0xc98>
     4dc: a5 19        	lda	$19                     ; 0x2019 <end_block9+0xc9b>
     4de: 88           	dey
     4df: 91 14        	sta	($14),y                 ; 0x2014 <end_block9+0xc96>
     4e1: 18           	clc
     4e2: a5 1b        	lda	$1b                     ; 0x201b <end_block9+0xc9d>
     4e4: 69 02        	adc	#$2
     4e6: 85 14        	sta	$14                     ; 0x2014 <end_block9+0xc96>
     4e8: a5 13        	lda	$13                     ; 0x2013 <end_block9+0xc95>
     4ea: 69 00        	adc	#$0
     4ec: 85 15        	sta	$15                     ; 0x2015 <end_block9+0xc97>
     4ee: c8           	iny
     4ef: b1 12        	lda	($12),y                 ; 0x2012 <end_block9+0xc94>
     4f1: 85 16        	sta	$16                     ; 0x2016 <end_block9+0xc98>
     4f3: 88           	dey
     4f4: b1 14        	lda	($14),y                 ; 0x2014 <end_block9+0xc96>
     4f6: a4 16        	ldy	$16                     ; 0x2016 <end_block9+0xc98>
     4f8: 84 14        	sty	$14                     ; 0x2014 <end_block9+0xc96>
     4fa: 85 15        	sta	$15                     ; 0x2015 <end_block9+0xc97>
     4fc: 85 17        	sta	$17                     ; 0x2017 <end_block9+0xc99>
     4fe: a0 04        	ldy	#$4
     500: a5 1c        	lda	$1c                     ; 0x201c <end_block9+0xc9e>
     502: 91 14        	sta	($14),y                 ; 0x2014 <end_block9+0xc96>
     504: 18           	clc
     505: a5 16        	lda	$16                     ; 0x2016 <end_block9+0xc98>
     507: 69 04        	adc	#$4
     509: 85 16        	sta	$16                     ; 0x2016 <end_block9+0xc98>
     50b: a5 17        	lda	$17                     ; 0x2017 <end_block9+0xc99>
     50d: 69 00        	adc	#$0
     50f: 85 17        	sta	$17                     ; 0x2017 <end_block9+0xc99>
     511: 8a           	txa
     512: a0 01        	ldy	#$1
     514: 91 16        	sta	($16),y                 ; 0x2016 <end_block9+0xc98>
     516: ae 7d 13     	ldx	$137d                   ; 0x137d <_ZN12_GLOBAL__N_19free_listE+0x1>
     519: e4 13        	cpx	$13                     ; 0x2013 <end_block9+0xc95>
     51b: d0 11        	bne	$52e <_ZN12_GLOBAL__N_19FreeChunk6removeEv+0xde>
     51d: ae 7c 13     	ldx	$137c                   ; 0x137c <_ZN12_GLOBAL__N_19free_listE>
     520: e4 12        	cpx	$12                     ; 0x2012 <end_block9+0xc94>
     522: d0 0a        	bne	$52e <_ZN12_GLOBAL__N_19FreeChunk6removeEv+0xde>
     524: a6 14        	ldx	$14                     ; 0x2014 <end_block9+0xc96>
     526: a4 15        	ldy	$15                     ; 0x2015 <end_block9+0xc97>
     528: 8e 7c 13     	stx	$137c                   ; 0x137c <_ZN12_GLOBAL__N_19free_listE>
     52b: 8c 7d 13     	sty	$137d                   ; 0x137d <_ZN12_GLOBAL__N_19free_listE+0x1>
     52e: 60           	rts

0000052f <__zero_bss>:
     52f: a2 63        	ldx	#$63
     531: a0 00        	ldy	#$0
     533: a9 1b        	lda	#$1b
     535: 85 12        	sta	$12                     ; 0x2012 <end_block9+0xc94>
     537: a9 13        	lda	#$13
     539: 85 13        	sta	$13                     ; 0x2013 <end_block9+0xc95>
     53b: a9 00        	lda	#$0
     53d: 84 14        	sty	$14                     ; 0x2014 <end_block9+0xc96>
     53f: 4c cb 12     	jmp	$12cb <__memset>

00000542 <f256Init>:
     542: 64 1c        	stz	$1c                     ; 0x201c <end_block9+0xc9e>
     544: a2 00        	ldx	#$0
     546: 86 1a        	stx	$1a                     ; 0x201a <end_block9+0xc9c>
     548: a2 d0        	ldx	#$d0
     54a: 86 1b        	stx	$1b                     ; 0x201b <end_block9+0xc9d>
     54c: a2 00        	ldx	#$0
     54e: 86 16        	stx	$16                     ; 0x2016 <end_block9+0xc98>
     550: a2 d8        	ldx	#$d8
     552: 86 17        	stx	$17                     ; 0x2017 <end_block9+0xc99>
     554: a2 00        	ldx	#$0
     556: 86 18        	stx	$18                     ; 0x2018 <end_block9+0xc9a>
     558: a2 d4        	ldx	#$d4
     55a: 86 19        	stx	$19                     ; 0x2019 <end_block9+0xc9b>
     55c: a2 00        	ldx	#$0
     55e: 86 14        	stx	$14                     ; 0x2014 <end_block9+0xc96>
     560: a2 dc        	ldx	#$dc
     562: 86 15        	stx	$15                     ; 0x2015 <end_block9+0xc97>
     564: a2 00        	ldx	#$0
     566: 86 12        	stx	$12                     ; 0x2012 <end_block9+0xc94>
     568: a2 c0        	ldx	#$c0
     56a: 86 13        	stx	$13                     ; 0x2013 <end_block9+0xc95>
     56c: 64 01        	stz	$1                      ; 0x2001 <end_block9+0xc83>
     56e: a2 3f        	ldx	#$3f
     570: 8e 00 d0     	stx	$d000                   ; 0xd000 <end_block9+0xbc82>
     573: a2 b3        	ldx	#$b3
     575: 86 00        	stx	$0                      ; 0x2000 <end_block9+0xc82>
     577: 64 08        	stz	$8                      ; 0x2008 <end_block9+0xc8a>
     579: a2 01        	ldx	#$1
     57b: 86 09        	stx	$9                      ; 0x2009 <end_block9+0xc8b>
     57d: e8           	inx
     57e: 86 0a        	stx	$a                      ; 0x200a <end_block9+0xc8c>
     580: e8           	inx
     581: 86 0b        	stx	$b                      ; 0x200b <end_block9+0xc8d>
     583: e8           	inx
     584: 86 0c        	stx	$c                      ; 0x200c <end_block9+0xc8e>
     586: e8           	inx
     587: 86 0d        	stx	$d                      ; 0x200d <end_block9+0xc8f>
     589: a2 71        	ldx	#$71
     58b: a9 13        	lda	#$13
     58d: 86 f0        	stx	$f0                     ; 0x20f0 <end_block9+0xd72>
     58f: 85 f1        	sta	$f1                     ; 0x20f1 <end_block9+0xd73>
     591: a6 01        	ldx	$1                      ; 0x2001 <end_block9+0xc83>
     593: a0 01        	ldy	#$1
     595: 84 01        	sty	$1                      ; 0x2001 <end_block9+0xc83>
     597: a5 1c        	lda	$1c                     ; 0x201c <end_block9+0xc9e>
     599: 92 1a        	sta	($1a)                   ; 0x201a <end_block9+0xc9c>
     59b: 91 1a        	sta	($1a),y                 ; 0x201a <end_block9+0xc9c>
     59d: c8           	iny
     59e: 91 1a        	sta	($1a),y                 ; 0x201a <end_block9+0xc9c>
     5a0: c8           	iny
     5a1: a9 ff        	lda	#$ff
     5a3: 91 1a        	sta	($1a),y                 ; 0x201a <end_block9+0xc9c>
     5a5: 86 01        	stx	$1                      ; 0x2001 <end_block9+0xc83>
     5a7: a5 1a        	lda	$1a                     ; 0x201a <end_block9+0xc9c>
     5a9: 18           	clc
     5aa: 69 04        	adc	#$4
     5ac: 85 1a        	sta	$1a                     ; 0x201a <end_block9+0xc9c>
     5ae: a5 1b        	lda	$1b                     ; 0x201b <end_block9+0xc9d>
     5b0: 69 00        	adc	#$0
     5b2: e6 1c        	inc	$1c                     ; 0x201c <end_block9+0xc9e>
     5b4: 85 1b        	sta	$1b                     ; 0x201b <end_block9+0xc9d>
     5b6: d0 d9        	bne	$591 <f256Init+0x4f>
     5b8: a9 00        	lda	#$0
     5ba: a6 01        	ldx	$1                      ; 0x2001 <end_block9+0xc83>
     5bc: a0 01        	ldy	#$1
     5be: 84 01        	sty	$1                      ; 0x2001 <end_block9+0xc83>
     5c0: 92 18        	sta	($18)                   ; 0x2018 <end_block9+0xc9a>
     5c2: 91 18        	sta	($18),y                 ; 0x2018 <end_block9+0xc9a>
     5c4: c8           	iny
     5c5: 91 18        	sta	($18),y                 ; 0x2018 <end_block9+0xc9a>
     5c7: c8           	iny
     5c8: 85 1a        	sta	$1a                     ; 0x201a <end_block9+0xc9c>
     5ca: a9 ff        	lda	#$ff
     5cc: 91 18        	sta	($18),y                 ; 0x2018 <end_block9+0xc9a>
     5ce: 86 01        	stx	$1                      ; 0x2001 <end_block9+0xc83>
     5d0: a5 18        	lda	$18                     ; 0x2018 <end_block9+0xc9a>
     5d2: 18           	clc
     5d3: 69 04        	adc	#$4
     5d5: 85 18        	sta	$18                     ; 0x2018 <end_block9+0xc9a>
     5d7: a5 19        	lda	$19                     ; 0x2019 <end_block9+0xc9b>
     5d9: 69 00        	adc	#$0
     5db: e6 1a        	inc	$1a                     ; 0x201a <end_block9+0xc9c>
     5dd: 85 19        	sta	$19                     ; 0x2019 <end_block9+0xc9b>
     5df: a5 1a        	lda	$1a                     ; 0x201a <end_block9+0xc9c>
     5e1: d0 d7        	bne	$5ba <f256Init+0x78>
     5e3: a9 00        	lda	#$0
     5e5: a6 01        	ldx	$1                      ; 0x2001 <end_block9+0xc83>
     5e7: a0 01        	ldy	#$1
     5e9: 84 01        	sty	$1                      ; 0x2001 <end_block9+0xc83>
     5eb: 92 16        	sta	($16)                   ; 0x2016 <end_block9+0xc98>
     5ed: 91 16        	sta	($16),y                 ; 0x2016 <end_block9+0xc98>
     5ef: c8           	iny
     5f0: 91 16        	sta	($16),y                 ; 0x2016 <end_block9+0xc98>
     5f2: c8           	iny
     5f3: 85 18        	sta	$18                     ; 0x2018 <end_block9+0xc9a>
     5f5: a9 ff        	lda	#$ff
     5f7: 91 16        	sta	($16),y                 ; 0x2016 <end_block9+0xc98>
     5f9: 86 01        	stx	$1                      ; 0x2001 <end_block9+0xc83>
     5fb: a5 16        	lda	$16                     ; 0x2016 <end_block9+0xc98>
     5fd: 18           	clc
     5fe: 69 04        	adc	#$4
     600: 85 16        	sta	$16                     ; 0x2016 <end_block9+0xc98>
     602: a5 17        	lda	$17                     ; 0x2017 <end_block9+0xc99>
     604: 69 00        	adc	#$0
     606: e6 18        	inc	$18                     ; 0x2018 <end_block9+0xc9a>
     608: 85 17        	sta	$17                     ; 0x2017 <end_block9+0xc99>
     60a: a5 18        	lda	$18                     ; 0x2018 <end_block9+0xc9a>
     60c: d0 d7        	bne	$5e5 <f256Init+0xa3>
     60e: a9 00        	lda	#$0
     610: a6 01        	ldx	$1                      ; 0x2001 <end_block9+0xc83>
     612: a0 01        	ldy	#$1
     614: 84 01        	sty	$1                      ; 0x2001 <end_block9+0xc83>
     616: 92 14        	sta	($14)                   ; 0x2014 <end_block9+0xc96>
     618: 91 14        	sta	($14),y                 ; 0x2014 <end_block9+0xc96>
     61a: c8           	iny
     61b: 91 14        	sta	($14),y                 ; 0x2014 <end_block9+0xc96>
     61d: c8           	iny
     61e: 85 16        	sta	$16                     ; 0x2016 <end_block9+0xc98>
     620: a9 ff        	lda	#$ff
     622: 91 14        	sta	($14),y                 ; 0x2014 <end_block9+0xc96>
     624: 86 01        	stx	$1                      ; 0x2001 <end_block9+0xc83>
     626: a5 14        	lda	$14                     ; 0x2014 <end_block9+0xc96>
     628: 18           	clc
     629: 69 04        	adc	#$4
     62b: 85 14        	sta	$14                     ; 0x2014 <end_block9+0xc96>
     62d: a5 15        	lda	$15                     ; 0x2015 <end_block9+0xc97>
     62f: 69 00        	adc	#$0
     631: e6 16        	inc	$16                     ; 0x2016 <end_block9+0xc98>
     633: 85 15        	sta	$15                     ; 0x2015 <end_block9+0xc97>
     635: a5 16        	lda	$16                     ; 0x2016 <end_block9+0xc98>
     637: d0 d7        	bne	$610 <f256Init+0xce>
     639: ad 02 d0     	lda	$d002                   ; 0xd002 <end_block9+0xbc84>
     63c: 29 f0        	and	#$f0
     63e: 8d 02 d0     	sta	$d002                   ; 0xd002 <end_block9+0xbc84>
     641: ad 02 d0     	lda	$d002                   ; 0xd002 <end_block9+0xbc84>
     644: 29 0f        	and	#$f
     646: 09 10        	ora	#$10
     648: 8d 02 d0     	sta	$d002                   ; 0xd002 <end_block9+0xbc84>
     64b: a2 02        	ldx	#$2
     64d: 8e 03 d0     	stx	$d003                   ; 0xd003 <end_block9+0xbc85>
     650: ad 01 d0     	lda	$d001                   ; 0xd001 <end_block9+0xbc83>
     653: 29 f9        	and	#$f9
     655: 09 04        	ora	#$4
     657: 8d 01 d0     	sta	$d001                   ; 0xd001 <end_block9+0xbc83>
     65a: 64 14        	stz	$14                     ; 0x2014 <end_block9+0xc96>
     65c: 9c 10 d0     	stz	$d010                   ; 0xd010 <end_block9+0xbc92>
     65f: a2 00        	ldx	#$0
     661: 64 15        	stz	$15                     ; 0x2015 <end_block9+0xc97>
     663: 86 18        	stx	$18                     ; 0x2018 <end_block9+0xc9a>
     665: a4 18        	ldy	$18                     ; 0x2018 <end_block9+0xc9a>
     667: be eb 12     	ldx	$12eb,y                 ; 0x12eb <textColors>
     66a: 86 19        	stx	$19                     ; 0x2019 <end_block9+0xc9b>
     66c: be ec 12     	ldx	$12ec,y                 ; 0x12ec <textColors+0x1>
     66f: 86 1a        	stx	$1a                     ; 0x201a <end_block9+0xc9c>
     671: be ed 12     	ldx	$12ed,y                 ; 0x12ed <textColors+0x2>
     674: 86 1b        	stx	$1b                     ; 0x201b <end_block9+0xc9d>
     676: a6 15        	ldx	$15                     ; 0x2015 <end_block9+0xc97>
     678: 8e 00 de     	stx	$de00                   ; 0xde00 <end_block9+0xca82>
     67b: 86 17        	stx	$17                     ; 0x2017 <end_block9+0xc99>
     67d: 9c 01 de     	stz	$de01                   ; 0xde01 <end_block9+0xca83>
     680: a2 04        	ldx	#$4
     682: 8e 02 de     	stx	$de02                   ; 0xde02 <end_block9+0xca84>
     685: 9c 03 de     	stz	$de03                   ; 0xde03 <end_block9+0xca85>
     688: ad 10 de     	lda	$de10                   ; 0xde10 <end_block9+0xca92>
     68b: ac 11 de     	ldy	$de11                   ; 0xde11 <end_block9+0xca93>
     68e: 84 15        	sty	$15                     ; 0x2015 <end_block9+0xc97>
     690: ac 12 de     	ldy	$de12                   ; 0xde12 <end_block9+0xca94>
     693: ac 13 de     	ldy	$de13                   ; 0xde13 <end_block9+0xca95>
     696: 18           	clc
     697: 65 14        	adc	$14                     ; 0x2014 <end_block9+0xc96>
     699: 85 16        	sta	$16                     ; 0x2016 <end_block9+0xc98>
     69b: a6 17        	ldx	$17                     ; 0x2017 <end_block9+0xc99>
     69d: a9 d8        	lda	#$d8
     69f: 65 15        	adc	$15                     ; 0x2015 <end_block9+0xc97>
     6a1: 85 17        	sta	$17                     ; 0x2017 <end_block9+0xc99>
     6a3: a5 1b        	lda	$1b                     ; 0x201b <end_block9+0xc9d>
     6a5: 92 16        	sta	($16)                   ; 0x2016 <end_block9+0xc98>
     6a7: a0 01        	ldy	#$1
     6a9: a5 1a        	lda	$1a                     ; 0x201a <end_block9+0xc9c>
     6ab: 91 16        	sta	($16),y                 ; 0x2016 <end_block9+0xc98>
     6ad: c8           	iny
     6ae: a5 19        	lda	$19                     ; 0x2019 <end_block9+0xc9b>
     6b0: 91 16        	sta	($16),y                 ; 0x2016 <end_block9+0xc98>
     6b2: c8           	iny
     6b3: a9 ff        	lda	#$ff
     6b5: 91 16        	sta	($16),y                 ; 0x2016 <end_block9+0xc98>
     6b7: 8e 00 de     	stx	$de00                   ; 0xde00 <end_block9+0xca82>
     6ba: 9c 01 de     	stz	$de01                   ; 0xde01 <end_block9+0xca83>
     6bd: c8           	iny
     6be: 8c 02 de     	sty	$de02                   ; 0xde02 <end_block9+0xca84>
     6c1: 9c 03 de     	stz	$de03                   ; 0xde03 <end_block9+0xca85>
     6c4: ad 10 de     	lda	$de10                   ; 0xde10 <end_block9+0xca92>
     6c7: 85 15        	sta	$15                     ; 0x2015 <end_block9+0xc97>
     6c9: ad 11 de     	lda	$de11                   ; 0xde11 <end_block9+0xca93>
     6cc: 85 16        	sta	$16                     ; 0x2016 <end_block9+0xc98>
     6ce: a9 40        	lda	#$40
     6d0: 18           	clc
     6d1: 65 15        	adc	$15                     ; 0x2015 <end_block9+0xc97>
     6d3: a8           	tay
     6d4: a9 d8        	lda	#$d8
     6d6: 65 16        	adc	$16                     ; 0x2016 <end_block9+0xc98>
     6d8: 85 17        	sta	$17                     ; 0x2017 <end_block9+0xc99>
     6da: 84 16        	sty	$16                     ; 0x2016 <end_block9+0xc98>
     6dc: ad 12 de     	lda	$de12                   ; 0xde12 <end_block9+0xca94>
     6df: ad 13 de     	lda	$de13                   ; 0xde13 <end_block9+0xca95>
     6e2: a5 1b        	lda	$1b                     ; 0x201b <end_block9+0xc9d>
     6e4: 92 16        	sta	($16)                   ; 0x2016 <end_block9+0xc98>
     6e6: a5 1a        	lda	$1a                     ; 0x201a <end_block9+0xc9c>
     6e8: a0 01        	ldy	#$1
     6ea: 91 16        	sta	($16),y                 ; 0x2016 <end_block9+0xc98>
     6ec: a5 19        	lda	$19                     ; 0x2019 <end_block9+0xc9b>
     6ee: c8           	iny
     6ef: 91 16        	sta	($16),y                 ; 0x2016 <end_block9+0xc98>
     6f1: c8           	iny
     6f2: a9 ff        	lda	#$ff
     6f4: 91 16        	sta	($16),y                 ; 0x2016 <end_block9+0xc98>
     6f6: e8           	inx
     6f7: 86 15        	stx	$15                     ; 0x2015 <end_block9+0xc97>
     6f9: 18           	clc
     6fa: a5 18        	lda	$18                     ; 0x2018 <end_block9+0xc9a>
     6fc: 69 03        	adc	#$3
     6fe: aa           	tax
     6ff: c9 30        	cmp	#$30
     701: f0 03        	beq	$706 <f256Init+0x1c4>
     703: 4c 63 06     	jmp	$663 <f256Init+0x121>
     706: a6 01        	ldx	$1                      ; 0x2001 <end_block9+0xc83>
     708: 86 18        	stx	$18                     ; 0x2018 <end_block9+0xc9a>
     70a: a2 50        	ldx	#$50
     70c: 8e 00 de     	stx	$de00                   ; 0xde00 <end_block9+0xca82>
     70f: 9c 01 de     	stz	$de01                   ; 0xde01 <end_block9+0xca83>
     712: a2 1e        	ldx	#$1e
     714: 8e 02 de     	stx	$de02                   ; 0xde02 <end_block9+0xca84>
     717: 9c 03 de     	stz	$de03                   ; 0xde03 <end_block9+0xca85>
     71a: ae 10 de     	ldx	$de10                   ; 0xde10 <end_block9+0xca92>
     71d: ac 11 de     	ldy	$de11                   ; 0xde11 <end_block9+0xca93>
     720: ad 12 de     	lda	$de12                   ; 0xde12 <end_block9+0xca94>
     723: ad 13 de     	lda	$de13                   ; 0xde13 <end_block9+0xca95>
     726: a9 02        	lda	#$2
     728: 85 01        	sta	$1                      ; 0x2001 <end_block9+0xc83>
     72a: e0 01        	cpx	#$1
     72c: 98           	tya
     72d: e9 00        	sbc	#$0
     72f: 50 02        	bvc	$733 <f256Init+0x1f1>
     731: 49 80        	eor	#$80
     733: c9 00        	cmp	#$0
     735: 10 03        	bpl	$73a <f256Init+0x1f8>
     737: 4c 91 07     	jmp	$791 <f256Init+0x24f>
     73a: a9 20        	lda	#$20
     73c: 86 19        	stx	$19                     ; 0x2019 <end_block9+0xc9b>
     73e: 86 14        	stx	$14                     ; 0x2014 <end_block9+0xc96>
     740: 84 15        	sty	$15                     ; 0x2015 <end_block9+0xc97>
     742: a2 00        	ldx	#$0
     744: 86 16        	stx	$16                     ; 0x2016 <end_block9+0xc98>
     746: a2 c0        	ldx	#$c0
     748: 86 17        	stx	$17                     ; 0x2017 <end_block9+0xc99>
     74a: 80 04        	bra	$750 <f256Init+0x20e>
     74c: a6 15        	ldx	$15                     ; 0x2015 <end_block9+0xc97>
     74e: f0 14        	beq	$764 <f256Init+0x222>
     750: 92 16        	sta	($16)                   ; 0x2016 <end_block9+0xc98>
     752: e6 16        	inc	$16                     ; 0x2016 <end_block9+0xc98>
     754: d0 02        	bne	$758 <f256Init+0x216>
     756: e6 17        	inc	$17                     ; 0x2017 <end_block9+0xc99>
     758: a2 ff        	ldx	#$ff
     75a: c6 14        	dec	$14                     ; 0x2014 <end_block9+0xc96>
     75c: e4 14        	cpx	$14                     ; 0x2014 <end_block9+0xc96>
     75e: d0 ec        	bne	$74c <f256Init+0x20a>
     760: c6 15        	dec	$15                     ; 0x2015 <end_block9+0xc97>
     762: 80 e8        	bra	$74c <f256Init+0x20a>
     764: a6 14        	ldx	$14                     ; 0x2014 <end_block9+0xc96>
     766: d0 e8        	bne	$750 <f256Init+0x20e>
     768: a2 03        	ldx	#$3
     76a: 86 01        	stx	$1                      ; 0x2001 <end_block9+0xc83>
     76c: a6 19        	ldx	$19                     ; 0x2019 <end_block9+0xc9b>
     76e: 80 03        	bra	$773 <f256Init+0x231>
     770: 98           	tya
     771: f0 19        	beq	$78c <f256Init+0x24a>
     773: a9 f0        	lda	#$f0
     775: 92 12        	sta	($12)                   ; 0x2012 <end_block9+0xc94>
     777: e6 12        	inc	$12                     ; 0x2012 <end_block9+0xc94>
     779: f0 07        	beq	$782 <f256Init+0x240>
     77b: ca           	dex
     77c: e0 ff        	cpx	#$ff
     77e: d0 f0        	bne	$770 <f256Init+0x22e>
     780: 80 07        	bra	$789 <f256Init+0x247>
     782: e6 13        	inc	$13                     ; 0x2013 <end_block9+0xc95>
     784: ca           	dex
     785: e0 ff        	cpx	#$ff
     787: d0 e7        	bne	$770 <f256Init+0x22e>
     789: 88           	dey
     78a: 80 e4        	bra	$770 <f256Init+0x22e>
     78c: 8a           	txa
     78d: d0 e4        	bne	$773 <f256Init+0x231>
     78f: 80 04        	bra	$795 <f256Init+0x253>
     791: a2 03        	ldx	#$3
     793: 86 01        	stx	$1                      ; 0x2001 <end_block9+0xc83>
     795: a6 18        	ldx	$18                     ; 0x2018 <end_block9+0xc9a>
     797: 86 01        	stx	$1                      ; 0x2001 <end_block9+0xc83>
     799: 9c 1b 13     	stz	$131b                   ; 0x131b <_col>
     79c: 9c 14 d0     	stz	$d014                   ; 0xd014 <end_block9+0xbc96>
     79f: 9c 15 d0     	stz	$d015                   ; 0xd015 <end_block9+0xbc97>
     7a2: 9c 1c 13     	stz	$131c                   ; 0x131c <_row>
     7a5: 9c 16 d0     	stz	$d016                   ; 0xd016 <end_block9+0xbc98>
     7a8: 9c 17 d0     	stz	$d017                   ; 0xd017 <end_block9+0xbc99>
     7ab: a2 40        	ldx	#$40
     7ad: 8e 00 de     	stx	$de00                   ; 0xde00 <end_block9+0xca82>
     7b0: a2 01        	ldx	#$1
     7b2: 8e 01 de     	stx	$de01                   ; 0xde01 <end_block9+0xca83>
     7b5: a2 f0        	ldx	#$f0
     7b7: 8e 02 de     	stx	$de02                   ; 0xde02 <end_block9+0xca84>
     7ba: 9c 03 de     	stz	$de03                   ; 0xde03 <end_block9+0xca85>
     7bd: ae 10 de     	ldx	$de10                   ; 0xde10 <end_block9+0xca92>
     7c0: 86 17        	stx	$17                     ; 0x2017 <end_block9+0xc99>
     7c2: ae 11 de     	ldx	$de11                   ; 0xde11 <end_block9+0xca93>
     7c5: 86 12        	stx	$12                     ; 0x2012 <end_block9+0xc94>
     7c7: ae 12 de     	ldx	$de12                   ; 0xde12 <end_block9+0xca94>
     7ca: 86 13        	stx	$13                     ; 0x2013 <end_block9+0xc95>
     7cc: ae 13 de     	ldx	$de13                   ; 0xde13 <end_block9+0xca95>
     7cf: 86 14        	stx	$14                     ; 0x2014 <end_block9+0xc96>
     7d1: 9c 29 13     	stz	$1329                   ; 0x1329 <_active>
     7d4: a4 12        	ldy	$12                     ; 0x2012 <end_block9+0xc94>
     7d6: 84 15        	sty	$15                     ; 0x2015 <end_block9+0xc97>
     7d8: 06 15        	asl	$15                     ; 0x2015 <end_block9+0xc97>
     7da: a5 13        	lda	$13                     ; 0x2013 <end_block9+0xc95>
     7dc: 2a           	rol
     7dd: 86 16        	stx	$16                     ; 0x2016 <end_block9+0xc98>
     7df: 26 16        	rol	$16                     ; 0x2016 <end_block9+0xc98>
     7e1: 06 15        	asl	$15                     ; 0x2015 <end_block9+0xc97>
     7e3: 2a           	rol
     7e4: 26 16        	rol	$16                     ; 0x2016 <end_block9+0xc98>
     7e6: 06 15        	asl	$15                     ; 0x2015 <end_block9+0xc97>
     7e8: 2a           	rol
     7e9: 26 16        	rol	$16                     ; 0x2016 <end_block9+0xc98>
     7eb: 85 15        	sta	$15                     ; 0x2015 <end_block9+0xc97>
     7ed: 8d 00 de     	sta	$de00                   ; 0xde00 <end_block9+0xca82>
     7f0: a5 16        	lda	$16                     ; 0x2016 <end_block9+0xc98>
     7f2: 8d 01 de     	sta	$de01                   ; 0xde01 <end_block9+0xca83>
     7f5: 9c 02 de     	stz	$de02                   ; 0xde02 <end_block9+0xca84>
     7f8: a2 20        	ldx	#$20
     7fa: 8e 03 de     	stx	$de03                   ; 0xde03 <end_block9+0xca85>
     7fd: ae 10 de     	ldx	$de10                   ; 0xde10 <end_block9+0xca92>
     800: 86 16        	stx	$16                     ; 0x2016 <end_block9+0xc98>
     802: ae 11 de     	ldx	$de11                   ; 0xde11 <end_block9+0xca93>
     805: 86 18        	stx	$18                     ; 0x2018 <end_block9+0xc9a>
     807: ac 12 de     	ldy	$de12                   ; 0xde12 <end_block9+0xca94>
     80a: ae 13 de     	ldx	$de13                   ; 0xde13 <end_block9+0xca95>
     80d: e4 14        	cpx	$14                     ; 0x2014 <end_block9+0xc96>
     80f: d0 14        	bne	$825 <f256Init+0x2e3>
     811: c4 13        	cpy	$13                     ; 0x2013 <end_block9+0xc95>
     813: d0 10        	bne	$825 <f256Init+0x2e3>
     815: a6 18        	ldx	$18                     ; 0x2018 <end_block9+0xc9a>
     817: e4 12        	cpx	$12                     ; 0x2012 <end_block9+0xc94>
     819: d0 0a        	bne	$825 <f256Init+0x2e3>
     81b: a6 16        	ldx	$16                     ; 0x2016 <end_block9+0xc98>
     81d: e4 17        	cpx	$17                     ; 0x2017 <end_block9+0xc99>
     81f: d0 04        	bne	$825 <f256Init+0x2e3>
     821: a6 15        	ldx	$15                     ; 0x2015 <end_block9+0xc97>
     823: 80 06        	bra	$82b <f256Init+0x2e9>
     825: a6 15        	ldx	$15                     ; 0x2015 <end_block9+0xc97>
     827: e8           	inx
     828: d0 01        	bne	$82b <f256Init+0x2e9>
     82a: 1a           	inc
     82b: 8e 00 de     	stx	$de00                   ; 0xde00 <end_block9+0xca82>
     82e: 8d 01 de     	sta	$de01                   ; 0xde01 <end_block9+0xca83>
     831: 9c 02 de     	stz	$de02                   ; 0xde02 <end_block9+0xca84>
     834: a2 20        	ldx	#$20
     836: 8e 03 de     	stx	$de03                   ; 0xde03 <end_block9+0xca85>
     839: ae 10 de     	ldx	$de10                   ; 0xde10 <end_block9+0xca92>
     83c: 86 12        	stx	$12                     ; 0x2012 <end_block9+0xc94>
     83e: ae 11 de     	ldx	$de11                   ; 0xde11 <end_block9+0xca93>
     841: 86 13        	stx	$13                     ; 0x2013 <end_block9+0xc95>
     843: ae 12 de     	ldx	$de12                   ; 0xde12 <end_block9+0xca94>
     846: 86 14        	stx	$14                     ; 0x2014 <end_block9+0xc96>
     848: ae 13 de     	ldx	$de13                   ; 0xde13 <end_block9+0xca95>
     84b: 86 15        	stx	$15                     ; 0x2015 <end_block9+0xc97>
     84d: a9 00        	lda	#$0
     84f: 38           	sec
     850: e5 12        	sbc	$12                     ; 0x2012 <end_block9+0xc94>
     852: 85 18        	sta	$18                     ; 0x2018 <end_block9+0xc9a>
     854: a9 00        	lda	#$0
     856: e5 13        	sbc	$13                     ; 0x2013 <end_block9+0xc95>
     858: a8           	tay
     859: a9 08        	lda	#$8
     85b: e5 14        	sbc	$14                     ; 0x2014 <end_block9+0xc96>
     85d: aa           	tax
     85e: a9 00        	lda	#$0
     860: e5 15        	sbc	$15                     ; 0x2015 <end_block9+0xc97>
     862: 85 17        	sta	$17                     ; 0x2017 <end_block9+0xc99>
     864: 8c 1e 13     	sty	$131e                   ; 0x131e <_BITMAP_BASE.0+0x1>
     867: 8e 1f 13     	stx	$131f                   ; 0x131f <_BITMAP_BASE.0+0x2>
     86a: 8d 20 13     	sta	$1320                   ; 0x1320 <_BITMAP_BASE.0+0x3>
     86d: a5 18        	lda	$18                     ; 0x2018 <end_block9+0xc9a>
     86f: 38           	sec
     870: e5 12        	sbc	$12                     ; 0x2012 <end_block9+0xc94>
     872: 85 19        	sta	$19                     ; 0x2019 <end_block9+0xc9b>
     874: 98           	tya
     875: e5 13        	sbc	$13                     ; 0x2013 <end_block9+0xc95>
     877: 85 16        	sta	$16                     ; 0x2016 <end_block9+0xc98>
     879: 8a           	txa
     87a: e5 14        	sbc	$14                     ; 0x2014 <end_block9+0xc96>
     87c: aa           	tax
     87d: a5 17        	lda	$17                     ; 0x2017 <end_block9+0xc99>
     87f: e5 15        	sbc	$15                     ; 0x2015 <end_block9+0xc97>
     881: 85 17        	sta	$17                     ; 0x2017 <end_block9+0xc99>
     883: 38           	sec
     884: a5 19        	lda	$19                     ; 0x2019 <end_block9+0xc9b>
     886: 8d 21 13     	sta	$1321                   ; 0x1321 <_BITMAP_BASE.1>
     889: a4 16        	ldy	$16                     ; 0x2016 <end_block9+0xc98>
     88b: 8c 22 13     	sty	$1322                   ; 0x1322 <_BITMAP_BASE.1+0x1>
     88e: 8e 23 13     	stx	$1323                   ; 0x1323 <_BITMAP_BASE.1+0x2>
     891: a4 17        	ldy	$17                     ; 0x2017 <end_block9+0xc99>
     893: 8c 24 13     	sty	$1324                   ; 0x1324 <_BITMAP_BASE.1+0x3>
     896: e5 12        	sbc	$12                     ; 0x2012 <end_block9+0xc94>
     898: a8           	tay
     899: a5 16        	lda	$16                     ; 0x2016 <end_block9+0xc98>
     89b: e5 13        	sbc	$13                     ; 0x2013 <end_block9+0xc95>
     89d: 85 12        	sta	$12                     ; 0x2012 <end_block9+0xc94>
     89f: 8a           	txa
     8a0: e5 14        	sbc	$14                     ; 0x2014 <end_block9+0xc96>
     8a2: 85 14        	sta	$14                     ; 0x2014 <end_block9+0xc96>
     8a4: a5 17        	lda	$17                     ; 0x2017 <end_block9+0xc99>
     8a6: e5 15        	sbc	$15                     ; 0x2015 <end_block9+0xc97>
     8a8: 8c 25 13     	sty	$1325                   ; 0x1325 <_BITMAP_BASE.2>
     8ab: a4 12        	ldy	$12                     ; 0x2012 <end_block9+0xc94>
     8ad: 8c 26 13     	sty	$1326                   ; 0x1326 <_BITMAP_BASE.2+0x1>
     8b0: a6 14        	ldx	$14                     ; 0x2014 <end_block9+0xc96>
     8b2: 8e 27 13     	stx	$1327                   ; 0x1327 <_BITMAP_BASE.2+0x2>
     8b5: a6 18        	ldx	$18                     ; 0x2018 <end_block9+0xc9a>
     8b7: 8e 1d 13     	stx	$131d                   ; 0x131d <_BITMAP_BASE.0>
     8ba: 8d 28 13     	sta	$1328                   ; 0x1328 <_BITMAP_BASE.2+0x3>
     8bd: 9c 2a 13     	stz	$132a                   ; 0x132a <_BITMAP_CLUT>
     8c0: 9c 2b 13     	stz	$132b                   ; 0x132b <_BITMAP_CLUT+0x1>
     8c3: 9c 2c 13     	stz	$132c                   ; 0x132c <_BITMAP_CLUT+0x2>
     8c6: 8e 01 d1     	stx	$d101                   ; 0xd101 <end_block9+0xbd83>
     8c9: ae 1e 13     	ldx	$131e                   ; 0x131e <_BITMAP_BASE.0+0x1>
     8cc: 8e 02 d1     	stx	$d102                   ; 0xd102 <end_block9+0xbd84>
     8cf: ae 1f 13     	ldx	$131f                   ; 0x131f <_BITMAP_BASE.0+0x2>
     8d2: 8e 03 d1     	stx	$d103                   ; 0xd103 <end_block9+0xbd85>
     8d5: ae 21 13     	ldx	$1321                   ; 0x1321 <_BITMAP_BASE.1>
     8d8: 8e 09 d1     	stx	$d109                   ; 0xd109 <end_block9+0xbd8b>
     8db: ae 22 13     	ldx	$1322                   ; 0x1322 <_BITMAP_BASE.1+0x1>
     8de: 8e 0a d1     	stx	$d10a                   ; 0xd10a <end_block9+0xbd8c>
     8e1: ae 23 13     	ldx	$1323                   ; 0x1323 <_BITMAP_BASE.1+0x2>
     8e4: 8e 0b d1     	stx	$d10b                   ; 0xd10b <end_block9+0xbd8d>
     8e7: ae 25 13     	ldx	$1325                   ; 0x1325 <_BITMAP_BASE.2>
     8ea: 8e 11 d1     	stx	$d111                   ; 0xd111 <end_block9+0xbd93>
     8ed: ae 26 13     	ldx	$1326                   ; 0x1326 <_BITMAP_BASE.2+0x1>
     8f0: 8e 12 d1     	stx	$d112                   ; 0xd112 <end_block9+0xbd94>
     8f3: ae 27 13     	ldx	$1327                   ; 0x1327 <_BITMAP_BASE.2+0x2>
     8f6: 8e 13 d1     	stx	$d113                   ; 0xd113 <end_block9+0xbd95>
     8f9: 9c 00 d1     	stz	$d100                   ; 0xd100 <end_block9+0xbd82>
     8fc: 9c 08 d1     	stz	$d108                   ; 0xd108 <end_block9+0xbd8a>
     8ff: 9c 10 d1     	stz	$d110                   ; 0xd110 <end_block9+0xbd92>
     902: a2 10        	ldx	#$10
     904: 8e 00 d2     	stx	$d200                   ; 0xd200 <end_block9+0xbe82>
     907: 8e 0c d2     	stx	$d20c                   ; 0xd20c <end_block9+0xbe8e>
     90a: 8e 18 d2     	stx	$d218                   ; 0xd218 <end_block9+0xbe9a>
     90d: a0 d9        	ldy	#$d9
     90f: 64 12        	stz	$12                     ; 0x2012 <end_block9+0xc94>
     911: a2 00        	ldx	#$0
     913: 84 13        	sty	$13                     ; 0x2013 <end_block9+0xc95>
     915: bd 2d 13     	lda	$132d,x                 ; 0x132d <_spriteCtl>
     918: 92 12        	sta	($12)                   ; 0x2012 <end_block9+0xc94>
     91a: a5 12        	lda	$12                     ; 0x2012 <end_block9+0xc94>
     91c: e8           	inx
     91d: 18           	clc
     91e: 69 08        	adc	#$8
     920: 85 12        	sta	$12                     ; 0x2012 <end_block9+0xc94>
     922: 98           	tya
     923: 69 00        	adc	#$0
     925: a8           	tay
     926: e0 40        	cpx	#$40
     928: d0 e9        	bne	$913 <f256Init+0x3d1>
     92a: a2 30        	ldx	#$30
     92c: a0 00        	ldy	#$0
     92e: 86 fb        	stx	$fb                     ; 0x20fb <end_block9+0xd7d>
     930: 84 fc        	sty	$fc                     ; 0x20fc <end_block9+0xd7e>
     932: a2 08        	ldx	#$8
     934: 86 fd        	stx	$fd                     ; 0x20fd <end_block9+0xd7f>
     936: a2 38        	ldx	#$38
     938: a0 00        	ldy	#$0
     93a: 86 12        	stx	$12                     ; 0x2012 <end_block9+0xc94>
     93c: 84 13        	sty	$13                     ; 0x2013 <end_block9+0xc95>
     93e: a2 70        	ldx	#$70
     940: 86 14        	stx	$14                     ; 0x2014 <end_block9+0xc96>
     942: a2 13        	ldx	#$13
     944: 86 15        	stx	$15                     ; 0x2015 <end_block9+0xc97>
     946: 20 dc ff     	jsr	$ffdc <end_block9+0xec5e>
     949: 92 12        	sta	($12)                   ; 0x2012 <end_block9+0xc94>
     94b: a9 00        	lda	#$0
     94d: 6a           	ror
     94e: 85 14        	sta	$14                     ; 0x2014 <end_block9+0xc96>
     950: a6 36        	ldx	$36                     ; 0x2036 <end_block9+0xcb8>
     952: a4 37        	ldy	$37                     ; 0x2037 <end_block9+0xcb9>
     954: 8e 00 de     	stx	$de00                   ; 0xde00 <end_block9+0xca82>
     957: 9c 01 de     	stz	$de01                   ; 0xde01 <end_block9+0xca83>
     95a: 8c 02 de     	sty	$de02                   ; 0xde02 <end_block9+0xca84>
     95d: 9c 03 de     	stz	$de03                   ; 0xde03 <end_block9+0xca85>
     960: ae 10 de     	ldx	$de10                   ; 0xde10 <end_block9+0xca92>
     963: ac 11 de     	ldy	$de11                   ; 0xde11 <end_block9+0xca93>
     966: ad 12 de     	lda	$de12                   ; 0xde12 <end_block9+0xca94>
     969: ad 13 de     	lda	$de13                   ; 0xde13 <end_block9+0xca95>
     96c: 8e a4 d6     	stx	$d6a4                   ; 0xd6a4 <end_block9+0xc326>
     96f: 8c a5 d6     	sty	$d6a5                   ; 0xd6a5 <end_block9+0xc327>
     972: a2 03        	ldx	#$3
     974: 8e a6 d6     	stx	$d6a6                   ; 0xd6a6 <end_block9+0xc328>
     977: 60           	rts

00000978 <main>:
     978: 20 42 05     	jsr	$542 <f256Init>
     97b: 20 7e 09     	jsr	$97e <f256main>

0000097e <f256main>:
     97e: 18           	clc
     97f: a5 10        	lda	$10                     ; 0x2010 <end_block9+0xc92>
     981: 69 f6        	adc	#$f6
     983: 85 10        	sta	$10                     ; 0x2010 <end_block9+0xc92>
     985: a5 11        	lda	$11                     ; 0x2011 <end_block9+0xc93>
     987: 69 ff        	adc	#$ff
     989: 85 11        	sta	$11                     ; 0x2011 <end_block9+0xc93>
     98b: a2 00        	ldx	#$0
     98d: 86 12        	stx	$12                     ; 0x2012 <end_block9+0xc94>
     98f: a2 d1        	ldx	#$d1
     991: 86 13        	stx	$13                     ; 0x2013 <end_block9+0xc95>
     993: a2 10        	ldx	#$10
     995: 64 01        	stz	$1                      ; 0x2001 <end_block9+0xc83>
     997: a0 2f        	ldy	#$2f
     999: 8c 00 d0     	sty	$d000                   ; 0xd000 <end_block9+0xbc82>
     99c: a0 14        	ldy	#$14
     99e: 8c 01 d0     	sty	$d001                   ; 0xd001 <end_block9+0xbc83>
     9a1: 8e 02 d0     	stx	$d002                   ; 0xd002 <end_block9+0xbc84>
     9a4: a2 02        	ldx	#$2
     9a6: 8e 03 d0     	stx	$d003                   ; 0xd003 <end_block9+0xbc85>
     9a9: 9c 0d d0     	stz	$d00d                   ; 0xd00d <end_block9+0xbc8f>
     9ac: 9c 0e d0     	stz	$d00e                   ; 0xd00e <end_block9+0xbc90>
     9af: 9c 0f d0     	stz	$d00f                   ; 0xd00f <end_block9+0xbc91>
     9b2: a0 01        	ldy	#$1
     9b4: 84 01        	sty	$1                      ; 0x2001 <end_block9+0xc83>
     9b6: a2 ff        	ldx	#$ff
     9b8: 86 14        	stx	$14                     ; 0x2014 <end_block9+0xc96>
     9ba: 86 15        	stx	$15                     ; 0x2015 <end_block9+0xc97>
     9bc: a2 fc        	ldx	#$fc
     9be: 80 27        	bra	$9e7 <f256main+0x69>
     9c0: 84 1a        	sty	$1a                     ; 0x201a <end_block9+0xc9c>
     9c2: 85 18        	sta	$18                     ; 0x2018 <end_block9+0xc9a>
     9c4: 8a           	txa
     9c5: 69 e3        	adc	#$e3
     9c7: a4 18        	ldy	$18                     ; 0x2018 <end_block9+0xc9a>
     9c9: 84 16        	sty	$16                     ; 0x2016 <end_block9+0xc98>
     9cb: 85 17        	sta	$17                     ; 0x2017 <end_block9+0xc99>
     9cd: b2 16        	lda	($16)                   ; 0x2016 <end_block9+0xc98>
     9cf: 85 1b        	sta	$1b                     ; 0x201b <end_block9+0xc9d>
     9d1: a5 19        	lda	$19                     ; 0x2019 <end_block9+0xc9b>
     9d3: 85 0f        	sta	$f                      ; 0x200f <end_block9+0xc91>
     9d5: 8a           	txa
     9d6: a4 1a        	ldy	$1a                     ; 0x201a <end_block9+0xc9c>
     9d8: c0 01        	cpy	#$1
     9da: 7a           	ply
     9db: 69 d3        	adc	#$d3
     9dd: 58           	cli
     9de: 85 17        	sta	$17                     ; 0x2017 <end_block9+0xc99>
     9e0: a5 1b        	lda	$1b                     ; 0x201b <end_block9+0xc9d>
     9e2: 92 16        	sta	($16)                   ; 0x2016 <end_block9+0xc98>
     9e4: c8           	iny
     9e5: f0 16        	beq	$9fd <f256main+0x7f>
     9e7: a5 0f        	lda	$f                      ; 0x200f <end_block9+0xc91>
     9e9: 85 19        	sta	$19                     ; 0x2019 <end_block9+0xc9b>
     9eb: 78           	sei
     9ec: a9 08        	lda	#$8
     9ee: 85 0f        	sta	$f                      ; 0x200f <end_block9+0xc91>
     9f0: 98           	tya
     9f1: 18           	clc
     9f2: 69 ff        	adc	#$ff
     9f4: 5a           	phy
     9f5: a0 01        	ldy	#$1
     9f7: b0 c7        	bcs	$9c0 <f256main+0x42>
     9f9: a0 00        	ldy	#$0
     9fb: 80 c3        	bra	$9c0 <f256main+0x42>
     9fd: e8           	inx
     9fe: d0 e7        	bne	$9e7 <f256main+0x69>
     a00: e6 14        	inc	$14                     ; 0x2014 <end_block9+0xc96>
     a02: d0 e3        	bne	$9e7 <f256main+0x69>
     a04: e6 15        	inc	$15                     ; 0x2015 <end_block9+0xc97>
     a06: d0 df        	bne	$9e7 <f256main+0x69>
     a08: 64 01        	stz	$1                      ; 0x2001 <end_block9+0xc83>
     a0a: a2 01        	ldx	#$1
     a0c: 8e 29 13     	stx	$1329                   ; 0x1329 <_active>
     a0f: 9c 25 13     	stz	$1325                   ; 0x1325 <_BITMAP_BASE.2>
     a12: 9c 26 13     	stz	$1326                   ; 0x1326 <_BITMAP_BASE.2+0x1>
     a15: e8           	inx
     a16: 8e 27 13     	stx	$1327                   ; 0x1327 <_BITMAP_BASE.2+0x2>
     a19: 9c 28 13     	stz	$1328                   ; 0x1328 <_BITMAP_BASE.2+0x3>
     a1c: 9c 11 d1     	stz	$d111                   ; 0xd111 <end_block9+0xbd93>
     a1f: 9c 12 d1     	stz	$d112                   ; 0xd112 <end_block9+0xbd94>
     a22: 8e 13 d1     	stx	$d113                   ; 0xd113 <end_block9+0xbd95>
     a25: ad 29 13     	lda	$1329                   ; 0x1329 <_active>
     a28: 29 01        	and	#$1
     a2a: d0 02        	bne	$a2e <f256main+0xb0>
     a2c: a2 00        	ldx	#$0
     a2e: 9e 2a 13     	stz	$132a,x                 ; 0x132a <_BITMAP_CLUT>
     a31: aa           	tax
     a32: f0 08        	beq	$a3c <f256main+0xbe>
     a34: a2 10        	ldx	#$10
     a36: 86 12        	stx	$12                     ; 0x2012 <end_block9+0xc94>
     a38: a2 d1        	ldx	#$d1
     a3a: 86 13        	stx	$13                     ; 0x2013 <end_block9+0xc95>
     a3c: b2 12        	lda	($12)                   ; 0x2012 <end_block9+0xc94>
     a3e: 29 f9        	and	#$f9
     a40: 92 12        	sta	($12)                   ; 0x2012 <end_block9+0xc94>
     a42: 9c 00 d1     	stz	$d100                   ; 0xd100 <end_block9+0xbd82>
     a45: 9c 08 d1     	stz	$d108                   ; 0xd108 <end_block9+0xbd8a>
     a48: a9 01        	lda	#$1
     a4a: 0d 2c 13     	ora	$132c                   ; 0x132c <_BITMAP_CLUT+0x2>
     a4d: 8d 10 d1     	sta	$d110                   ; 0xd110 <end_block9+0xbd92>
     a50: a0 08        	ldy	#$8
     a52: 8c 2d 13     	sty	$132d                   ; 0x132d <_spriteCtl>
     a55: 8c 00 d9     	sty	$d900                   ; 0xd900 <end_block9+0xc582>
     a58: 9c 01 d9     	stz	$d901                   ; 0xd901 <end_block9+0xc583>
     a5b: a2 14        	ldx	#$14
     a5d: 8e 02 d9     	stx	$d902                   ; 0xd902 <end_block9+0xc584>
     a60: a2 01        	ldx	#$1
     a62: 8e 03 d9     	stx	$d903                   ; 0xd903 <end_block9+0xc585>
     a65: a2 80        	ldx	#$80
     a67: 8e 04 d9     	stx	$d904                   ; 0xd904 <end_block9+0xc586>
     a6a: 9c 05 d9     	stz	$d905                   ; 0xd905 <end_block9+0xc587>
     a6d: a2 dc        	ldx	#$dc
     a6f: 8e 06 d9     	stx	$d906                   ; 0xd906 <end_block9+0xc588>
     a72: 9c 07 d9     	stz	$d907                   ; 0xd907 <end_block9+0xc589>
     a75: a9 01        	lda	#$1
     a77: 0d 2d 13     	ora	$132d                   ; 0x132d <_spriteCtl>
     a7a: 8d 00 d9     	sta	$d900                   ; 0xd900 <end_block9+0xc582>
     a7d: 8c 2e 13     	sty	$132e                   ; 0x132e <_spriteCtl+0x1>
     a80: 8c 08 d9     	sty	$d908                   ; 0xd908 <end_block9+0xc58a>
     a83: 9c 09 d9     	stz	$d909                   ; 0xd909 <end_block9+0xc58b>
     a86: a9 18        	lda	#$18
     a88: 8d 0a d9     	sta	$d90a                   ; 0xd90a <end_block9+0xc58c>
     a8b: a9 01        	lda	#$1
     a8d: 8d 0b d9     	sta	$d90b                   ; 0xd90b <end_block9+0xc58d>
     a90: a9 a0        	lda	#$a0
     a92: 8d 0c d9     	sta	$d90c                   ; 0xd90c <end_block9+0xc58e>
     a95: 9c 0d d9     	stz	$d90d                   ; 0xd90d <end_block9+0xc58f>
     a98: 8e 0e d9     	stx	$d90e                   ; 0xd90e <end_block9+0xc590>
     a9b: 9c 0f d9     	stz	$d90f                   ; 0xd90f <end_block9+0xc591>
     a9e: a9 01        	lda	#$1
     aa0: 0d 2e 13     	ora	$132e                   ; 0x132e <_spriteCtl+0x1>
     aa3: 8d 08 d9     	sta	$d908                   ; 0xd908 <end_block9+0xc58a>
     aa6: 8c 2f 13     	sty	$132f                   ; 0x132f <_spriteCtl+0x2>
     aa9: 8c 10 d9     	sty	$d910                   ; 0xd910 <end_block9+0xc592>
     aac: 9c 11 d9     	stz	$d911                   ; 0xd911 <end_block9+0xc593>
     aaf: a9 0c        	lda	#$c
     ab1: 8d 12 d9     	sta	$d912                   ; 0xd912 <end_block9+0xc594>
     ab4: a9 01        	lda	#$1
     ab6: 8d 13 d9     	sta	$d913                   ; 0xd913 <end_block9+0xc595>
     ab9: a9 80        	lda	#$80
     abb: 8d 14 d9     	sta	$d914                   ; 0xd914 <end_block9+0xc596>
     abe: 9c 15 d9     	stz	$d915                   ; 0xd915 <end_block9+0xc597>
     ac1: 8e 16 d9     	stx	$d916                   ; 0xd916 <end_block9+0xc598>
     ac4: 9c 17 d9     	stz	$d917                   ; 0xd917 <end_block9+0xc599>
     ac7: a9 01        	lda	#$1
     ac9: 0d 2f 13     	ora	$132f                   ; 0x132f <_spriteCtl+0x2>
     acc: 8d 10 d9     	sta	$d910                   ; 0xd910 <end_block9+0xc592>
     acf: 8c 30 13     	sty	$1330                   ; 0x1330 <_spriteCtl+0x3>
     ad2: 8c 18 d9     	sty	$d918                   ; 0xd918 <end_block9+0xc59a>
     ad5: 9c 19 d9     	stz	$d919                   ; 0xd919 <end_block9+0xc59b>
     ad8: a9 10        	lda	#$10
     ada: 8d 1a d9     	sta	$d91a                   ; 0xd91a <end_block9+0xc59c>
     add: a9 01        	lda	#$1
     adf: 8d 1b d9     	sta	$d91b                   ; 0xd91b <end_block9+0xc59d>
     ae2: a9 a0        	lda	#$a0
     ae4: 8d 1c d9     	sta	$d91c                   ; 0xd91c <end_block9+0xc59e>
     ae7: 9c 1d d9     	stz	$d91d                   ; 0xd91d <end_block9+0xc59f>
     aea: 8e 1e d9     	stx	$d91e                   ; 0xd91e <end_block9+0xc5a0>
     aed: 9c 1f d9     	stz	$d91f                   ; 0xd91f <end_block9+0xc5a1>
     af0: a9 01        	lda	#$1
     af2: 0d 30 13     	ora	$1330                   ; 0x1330 <_spriteCtl+0x3>
     af5: 8d 18 d9     	sta	$d918                   ; 0xd918 <end_block9+0xc59a>
     af8: 8c 31 13     	sty	$1331                   ; 0x1331 <_spriteCtl+0x4>
     afb: 8c 20 d9     	sty	$d920                   ; 0xd920 <end_block9+0xc5a2>
     afe: 9c 21 d9     	stz	$d921                   ; 0xd921 <end_block9+0xc5a3>
     b01: a9 04        	lda	#$4
     b03: 8d 22 d9     	sta	$d922                   ; 0xd922 <end_block9+0xc5a4>
     b06: a9 01        	lda	#$1
     b08: 8d 23 d9     	sta	$d923                   ; 0xd923 <end_block9+0xc5a5>
     b0b: a9 80        	lda	#$80
     b0d: 8d 24 d9     	sta	$d924                   ; 0xd924 <end_block9+0xc5a6>
     b10: 9c 25 d9     	stz	$d925                   ; 0xd925 <end_block9+0xc5a7>
     b13: 8e 26 d9     	stx	$d926                   ; 0xd926 <end_block9+0xc5a8>
     b16: 9c 27 d9     	stz	$d927                   ; 0xd927 <end_block9+0xc5a9>
     b19: a9 01        	lda	#$1
     b1b: 0d 31 13     	ora	$1331                   ; 0x1331 <_spriteCtl+0x4>
     b1e: 8d 20 d9     	sta	$d920                   ; 0xd920 <end_block9+0xc5a2>
     b21: 8c 32 13     	sty	$1332                   ; 0x1332 <_spriteCtl+0x5>
     b24: 8c 28 d9     	sty	$d928                   ; 0xd928 <end_block9+0xc5aa>
     b27: 9c 29 d9     	stz	$d929                   ; 0xd929 <end_block9+0xc5ab>
     b2a: 8c 2a d9     	sty	$d92a                   ; 0xd92a <end_block9+0xc5ac>
     b2d: a9 01        	lda	#$1
     b2f: 8d 2b d9     	sta	$d92b                   ; 0xd92b <end_block9+0xc5ad>
     b32: a9 a0        	lda	#$a0
     b34: 8d 2c d9     	sta	$d92c                   ; 0xd92c <end_block9+0xc5ae>
     b37: 9c 2d d9     	stz	$d92d                   ; 0xd92d <end_block9+0xc5af>
     b3a: 8e 2e d9     	stx	$d92e                   ; 0xd92e <end_block9+0xc5b0>
     b3d: 9c 2f d9     	stz	$d92f                   ; 0xd92f <end_block9+0xc5b1>
     b40: a9 01        	lda	#$1
     b42: 0d 32 13     	ora	$1332                   ; 0x1332 <_spriteCtl+0x5>
     b45: 8d 28 d9     	sta	$d928                   ; 0xd928 <end_block9+0xc5aa>
     b48: 8c 33 13     	sty	$1333                   ; 0x1333 <_spriteCtl+0x6>
     b4b: 8c 30 d9     	sty	$d930                   ; 0xd930 <end_block9+0xc5b2>
     b4e: 9c 31 d9     	stz	$d931                   ; 0xd931 <end_block9+0xc5b3>
     b51: a0 1c        	ldy	#$1c
     b53: 8c 32 d9     	sty	$d932                   ; 0xd932 <end_block9+0xc5b4>
     b56: a9 01        	lda	#$1
     b58: 8d 33 d9     	sta	$d933                   ; 0xd933 <end_block9+0xc5b5>
     b5b: a0 a5        	ldy	#$a5
     b5d: 8c 34 d9     	sty	$d934                   ; 0xd934 <end_block9+0xc5b6>
     b60: 9c 35 d9     	stz	$d935                   ; 0xd935 <end_block9+0xc5b7>
     b63: a0 aa        	ldy	#$aa
     b65: 8c 36 d9     	sty	$d936                   ; 0xd936 <end_block9+0xc5b8>
     b68: 9c 37 d9     	stz	$d937                   ; 0xd937 <end_block9+0xc5b9>
     b6b: ac 33 13     	ldy	$1333                   ; 0x1333 <_spriteCtl+0x6>
     b6e: 8c 30 d9     	sty	$d930                   ; 0xd930 <end_block9+0xc5b2>
     b71: a0 80        	ldy	#$80
     b73: 8c 04 d9     	sty	$d904                   ; 0xd904 <end_block9+0xc586>
     b76: 9c 05 d9     	stz	$d905                   ; 0xd905 <end_block9+0xc587>
     b79: 8e 06 d9     	stx	$d906                   ; 0xd906 <end_block9+0xc588>
     b7c: 9c 07 d9     	stz	$d907                   ; 0xd907 <end_block9+0xc589>
     b7f: a0 a0        	ldy	#$a0
     b81: 8c 0c d9     	sty	$d90c                   ; 0xd90c <end_block9+0xc58e>
     b84: 9c 0d d9     	stz	$d90d                   ; 0xd90d <end_block9+0xc58f>
     b87: 8e 0e d9     	stx	$d90e                   ; 0xd90e <end_block9+0xc590>
     b8a: 9c 0f d9     	stz	$d90f                   ; 0xd90f <end_block9+0xc591>
     b8d: a0 81        	ldy	#$81
     b8f: 8c 14 d9     	sty	$d914                   ; 0xd914 <end_block9+0xc596>
     b92: 9c 15 d9     	stz	$d915                   ; 0xd915 <end_block9+0xc597>
     b95: 8e 16 d9     	stx	$d916                   ; 0xd916 <end_block9+0xc598>
     b98: 9c 17 d9     	stz	$d917                   ; 0xd917 <end_block9+0xc599>
     b9b: a0 a1        	ldy	#$a1
     b9d: 8c 1c d9     	sty	$d91c                   ; 0xd91c <end_block9+0xc59e>
     ba0: 9c 1d d9     	stz	$d91d                   ; 0xd91d <end_block9+0xc59f>
     ba3: 8e 1e d9     	stx	$d91e                   ; 0xd91e <end_block9+0xc5a0>
     ba6: 9c 1f d9     	stz	$d91f                   ; 0xd91f <end_block9+0xc5a1>
     ba9: a0 82        	ldy	#$82
     bab: 8c 24 d9     	sty	$d924                   ; 0xd924 <end_block9+0xc5a6>
     bae: 9c 25 d9     	stz	$d925                   ; 0xd925 <end_block9+0xc5a7>
     bb1: 8e 26 d9     	stx	$d926                   ; 0xd926 <end_block9+0xc5a8>
     bb4: 9c 27 d9     	stz	$d927                   ; 0xd927 <end_block9+0xc5a9>
     bb7: a0 a2        	ldy	#$a2
     bb9: 8c 2c d9     	sty	$d92c                   ; 0xd92c <end_block9+0xc5ae>
     bbc: 9c 2d d9     	stz	$d92d                   ; 0xd92d <end_block9+0xc5af>
     bbf: 8e 2e d9     	stx	$d92e                   ; 0xd92e <end_block9+0xc5b0>
     bc2: 9c 2f d9     	stz	$d92f                   ; 0xd92f <end_block9+0xc5b1>
     bc5: 8d 80 d8     	sta	$d880                   ; 0xd880 <end_block9+0xc502>
     bc8: 64 01        	stz	$1                      ; 0x2001 <end_block9+0xc83>
     bca: a2 ff        	ldx	#$ff
     bcc: 8e a1 dd     	stx	$dda1                   ; 0xdda1 <end_block9+0xca23>
     bcf: a0 80        	ldy	#$80
     bd1: 84 f3        	sty	$f3                     ; 0x20f3 <end_block9+0xd75>
     bd3: 18           	clc
     bd4: a5 10        	lda	$10                     ; 0x2010 <end_block9+0xc92>
     bd6: 69 04        	adc	#$4
     bd8: 85 14        	sta	$14                     ; 0x2014 <end_block9+0xc96>
     bda: a5 11        	lda	$11                     ; 0x2011 <end_block9+0xc93>
     bdc: 69 00        	adc	#$0
     bde: 85 15        	sta	$15                     ; 0x2015 <end_block9+0xc97>
     be0: a2 70        	ldx	#$70
     be2: 86 12        	stx	$12                     ; 0x2012 <end_block9+0xc94>
     be4: a2 13        	ldx	#$13
     be6: 86 13        	stx	$13                     ; 0x2013 <end_block9+0xc95>
     be8: 20 f0 ff     	jsr	$fff0 <end_block9+0xec72>
     beb: 92 14        	sta	($14)                   ; 0x2014 <end_block9+0xc96>
     bed: a9 00        	lda	#$0
     bef: 6a           	ror
     bf0: 85 12        	sta	$12                     ; 0x2012 <end_block9+0xc94>
     bf2: b2 14        	lda	($14)                   ; 0x2014 <end_block9+0xc96>
     bf4: 1a           	inc
     bf5: 8d 6d 13     	sta	$136d                   ; 0x136d <carTimer.1>
     bf8: 64 f3        	stz	$f3                     ; 0x20f3 <end_block9+0xd75>
     bfa: ae 6d 13     	ldx	$136d                   ; 0x136d <carTimer.1>
     bfd: 86 f4        	stx	$f4                     ; 0x20f4 <end_block9+0xd76>
     bff: 64 f5        	stz	$f5                     ; 0x20f5 <end_block9+0xd77>
     c01: 18           	clc
     c02: a5 10        	lda	$10                     ; 0x2010 <end_block9+0xc92>
     c04: 69 05        	adc	#$5
     c06: 85 14        	sta	$14                     ; 0x2014 <end_block9+0xc96>
     c08: a5 11        	lda	$11                     ; 0x2011 <end_block9+0xc93>
     c0a: 69 00        	adc	#$0
     c0c: 85 15        	sta	$15                     ; 0x2015 <end_block9+0xc97>
     c0e: 20 f0 ff     	jsr	$fff0 <end_block9+0xec72>
     c11: 92 14        	sta	($14)                   ; 0x2014 <end_block9+0xc96>
     c13: a9 00        	lda	#$0
     c15: 6a           	ror
     c16: 85 12        	sta	$12                     ; 0x2012 <end_block9+0xc94>
     c18: 84 f3        	sty	$f3                     ; 0x20f3 <end_block9+0xd75>
     c1a: 18           	clc
     c1b: a5 10        	lda	$10                     ; 0x2010 <end_block9+0xc92>
     c1d: 69 06        	adc	#$6
     c1f: 85 14        	sta	$14                     ; 0x2014 <end_block9+0xc96>
     c21: a5 11        	lda	$11                     ; 0x2011 <end_block9+0xc93>
     c23: 69 00        	adc	#$0
     c25: 85 15        	sta	$15                     ; 0x2015 <end_block9+0xc97>
     c27: 20 f0 ff     	jsr	$fff0 <end_block9+0xec72>
     c2a: 92 14        	sta	($14)                   ; 0x2014 <end_block9+0xc96>
     c2c: a9 00        	lda	#$0
     c2e: 6a           	ror
     c2f: 85 12        	sta	$12                     ; 0x2012 <end_block9+0xc94>
     c31: 18           	clc
     c32: a9 03        	lda	#$3
     c34: 72 14        	adc	($14)                   ; 0x2014 <end_block9+0xc96>
     c36: 8d 6e 13     	sta	$136e                   ; 0x136e <laneTimer.1>
     c39: 64 f3        	stz	$f3                     ; 0x20f3 <end_block9+0xd75>
     c3b: ae 6e 13     	ldx	$136e                   ; 0x136e <laneTimer.1>
     c3e: 86 f4        	stx	$f4                     ; 0x20f4 <end_block9+0xd76>
     c40: a2 01        	ldx	#$1
     c42: 86 f5        	stx	$f5                     ; 0x20f5 <end_block9+0xd77>
     c44: 18           	clc
     c45: a5 10        	lda	$10                     ; 0x2010 <end_block9+0xc92>
     c47: 69 07        	adc	#$7
     c49: 85 14        	sta	$14                     ; 0x2014 <end_block9+0xc96>
     c4b: a5 11        	lda	$11                     ; 0x2011 <end_block9+0xc93>
     c4d: 69 00        	adc	#$0
     c4f: 85 15        	sta	$15                     ; 0x2015 <end_block9+0xc97>
     c51: 20 f0 ff     	jsr	$fff0 <end_block9+0xec72>
     c54: 92 14        	sta	($14)                   ; 0x2014 <end_block9+0xc96>
     c56: a9 00        	lda	#$0
     c58: 6a           	ror
     c59: 85 12        	sta	$12                     ; 0x2012 <end_block9+0xc94>
     c5b: 84 f3        	sty	$f3                     ; 0x20f3 <end_block9+0xd75>
     c5d: 18           	clc
     c5e: a5 10        	lda	$10                     ; 0x2010 <end_block9+0xc92>
     c60: 69 08        	adc	#$8
     c62: 85 14        	sta	$14                     ; 0x2014 <end_block9+0xc96>
     c64: a5 11        	lda	$11                     ; 0x2011 <end_block9+0xc93>
     c66: 69 00        	adc	#$0
     c68: 85 15        	sta	$15                     ; 0x2015 <end_block9+0xc97>
     c6a: 20 f0 ff     	jsr	$fff0 <end_block9+0xec72>
     c6d: 92 14        	sta	($14)                   ; 0x2014 <end_block9+0xc96>
     c6f: a9 00        	lda	#$0
     c71: 6a           	ror
     c72: 85 12        	sta	$12                     ; 0x2012 <end_block9+0xc94>
     c74: 18           	clc
     c75: a9 03        	lda	#$3
     c77: 72 14        	adc	($14)                   ; 0x2014 <end_block9+0xc96>
     c79: 8d 6f 13     	sta	$136f                   ; 0x136f <carForceTimer.1>
     c7c: 64 f3        	stz	$f3                     ; 0x20f3 <end_block9+0xd75>
     c7e: ae 6f 13     	ldx	$136f                   ; 0x136f <carForceTimer.1>
     c81: 86 f4        	stx	$f4                     ; 0x20f4 <end_block9+0xd76>
     c83: a9 02        	lda	#$2
     c85: aa           	tax
     c86: 48           	pha
     c87: 8a           	txa
     c88: a0 03        	ldy	#$3
     c8a: 91 10        	sta	($10),y                 ; 0x2010 <end_block9+0xc92>
     c8c: 68           	pla
     c8d: 85 f5        	sta	$f5                     ; 0x20f5 <end_block9+0xd77>
     c8f: 18           	clc
     c90: a5 10        	lda	$10                     ; 0x2010 <end_block9+0xc92>
     c92: 69 09        	adc	#$9
     c94: 85 14        	sta	$14                     ; 0x2014 <end_block9+0xc96>
     c96: a5 11        	lda	$11                     ; 0x2011 <end_block9+0xc93>
     c98: 69 00        	adc	#$0
     c9a: 85 15        	sta	$15                     ; 0x2015 <end_block9+0xc97>
     c9c: a2 c0        	ldx	#$c0
     c9e: 20 f0 ff     	jsr	$fff0 <end_block9+0xec72>
     ca1: 92 14        	sta	($14)                   ; 0x2014 <end_block9+0xc96>
     ca3: a9 00        	lda	#$0
     ca5: 6a           	ror
     ca6: 85 12        	sta	$12                     ; 0x2012 <end_block9+0xc94>
     ca8: 8e a1 dd     	stx	$dda1                   ; 0xdda1 <end_block9+0xca23>
     cab: 9c a1 dd     	stz	$dda1                   ; 0xdda1 <end_block9+0xca23>
     cae: e8           	inx
     caf: 8e a1 dd     	stx	$dda1                   ; 0xdda1 <end_block9+0xca23>
     cb2: 9c a1 dd     	stz	$dda1                   ; 0xdda1 <end_block9+0xca23>
     cb5: e8           	inx
     cb6: 8e a1 dd     	stx	$dda1                   ; 0xdda1 <end_block9+0xca23>
     cb9: 9c a1 dd     	stz	$dda1                   ; 0xdda1 <end_block9+0xca23>
     cbc: e8           	inx
     cbd: 8e a1 dd     	stx	$dda1                   ; 0xdda1 <end_block9+0xca23>
     cc0: 9c a1 dd     	stz	$dda1                   ; 0xdda1 <end_block9+0xca23>
     cc3: e8           	inx
     cc4: 8e a1 dd     	stx	$dda1                   ; 0xdda1 <end_block9+0xca23>
     cc7: 9c a1 dd     	stz	$dda1                   ; 0xdda1 <end_block9+0xca23>
     cca: e8           	inx
     ccb: 8e a1 dd     	stx	$dda1                   ; 0xdda1 <end_block9+0xca23>
     cce: 9c a1 dd     	stz	$dda1                   ; 0xdda1 <end_block9+0xca23>
     cd1: e8           	inx
     cd2: 8e a1 dd     	stx	$dda1                   ; 0xdda1 <end_block9+0xca23>
     cd5: 9c a1 dd     	stz	$dda1                   ; 0xdda1 <end_block9+0xca23>
     cd8: e8           	inx
     cd9: 8e a1 dd     	stx	$dda1                   ; 0xdda1 <end_block9+0xca23>
     cdc: 9c a1 dd     	stz	$dda1                   ; 0xdda1 <end_block9+0xca23>
     cdf: e8           	inx
     ce0: 8e a1 dd     	stx	$dda1                   ; 0xdda1 <end_block9+0xca23>
     ce3: 9c a1 dd     	stz	$dda1                   ; 0xdda1 <end_block9+0xca23>
     ce6: e8           	inx
     ce7: 8e a1 dd     	stx	$dda1                   ; 0xdda1 <end_block9+0xca23>
     cea: 9c a1 dd     	stz	$dda1                   ; 0xdda1 <end_block9+0xca23>
     ced: e8           	inx
     cee: 8e a1 dd     	stx	$dda1                   ; 0xdda1 <end_block9+0xca23>
     cf1: 9c a1 dd     	stz	$dda1                   ; 0xdda1 <end_block9+0xca23>
     cf4: e8           	inx
     cf5: 8e a1 dd     	stx	$dda1                   ; 0xdda1 <end_block9+0xca23>
     cf8: 9c a1 dd     	stz	$dda1                   ; 0xdda1 <end_block9+0xca23>
     cfb: e8           	inx
     cfc: 8e a1 dd     	stx	$dda1                   ; 0xdda1 <end_block9+0xca23>
     cff: 9c a1 dd     	stz	$dda1                   ; 0xdda1 <end_block9+0xca23>
     d02: e8           	inx
     d03: 8e a1 dd     	stx	$dda1                   ; 0xdda1 <end_block9+0xca23>
     d06: 9c a1 dd     	stz	$dda1                   ; 0xdda1 <end_block9+0xca23>
     d09: e8           	inx
     d0a: 8e a1 dd     	stx	$dda1                   ; 0xdda1 <end_block9+0xca23>
     d0d: 9c a1 dd     	stz	$dda1                   ; 0xdda1 <end_block9+0xca23>
     d10: e8           	inx
     d11: 8e a1 dd     	stx	$dda1                   ; 0xdda1 <end_block9+0xca23>
     d14: 9c a1 dd     	stz	$dda1                   ; 0xdda1 <end_block9+0xca23>
     d17: a2 ff        	ldx	#$ff
     d19: 8e a1 dd     	stx	$dda1                   ; 0xdda1 <end_block9+0xca23>
     d1c: 8e a1 dd     	stx	$dda1                   ; 0xdda1 <end_block9+0xca23>
     d1f: a4 0f        	ldy	$f                      ; 0x200f <end_block9+0xc91>
     d21: 78           	sei
     d22: a2 28        	ldx	#$28
     d24: 86 0f        	stx	$f                      ; 0x200f <end_block9+0xc91>
     d26: ad 00 e0     	lda	$e000                   ; 0xe000 <end_block9+0xcc82>
     d29: 85 24        	sta	$24                     ; 0x2024 <end_block9+0xca6>
     d2b: 84 0f        	sty	$f                      ; 0x200f <end_block9+0xc91>
     d2d: 58           	cli
     d2e: a4 0f        	ldy	$f                      ; 0x200f <end_block9+0xc91>
     d30: 78           	sei
     d31: 86 0f        	stx	$f                      ; 0x200f <end_block9+0xc91>
     d33: ae 01 e0     	ldx	$e001                   ; 0xe001 <end_block9+0xcc83>
     d36: 86 25        	stx	$25                     ; 0x2025 <end_block9+0xca7>
     d38: 84 0f        	sty	$f                      ; 0x200f <end_block9+0xc91>
     d3a: 0a           	asl
     d3b: aa           	tax
     d3c: a5 25        	lda	$25                     ; 0x2025 <end_block9+0xca7>
     d3e: 2a           	rol
     d3f: 86 12        	stx	$12                     ; 0x2012 <end_block9+0xc94>
     d41: 06 12        	asl	$12                     ; 0x2012 <end_block9+0xc94>
     d43: 2a           	rol
     d44: 06 12        	asl	$12                     ; 0x2012 <end_block9+0xc94>
     d46: 2a           	rol
     d47: aa           	tax
     d48: 38           	sec
     d49: a5 12        	lda	$12                     ; 0x2012 <end_block9+0xc94>
     d4b: e5 24        	sbc	$24                     ; 0x2024 <end_block9+0xca6>
     d4d: a8           	tay
     d4e: 8a           	txa
     d4f: e5 25        	sbc	$25                     ; 0x2025 <end_block9+0xca7>
     d51: a2 03        	ldx	#$3
     d53: 48           	pha
     d54: 8a           	txa
     d55: 5a           	phy
     d56: a0 02        	ldy	#$2
     d58: 91 10        	sta	($10),y                 ; 0x2010 <end_block9+0xc92>
     d5a: 7a           	ply
     d5b: 68           	pla
     d5c: 58           	cli
     d5d: aa           	tax
     d5e: 98           	tya
     d5f: 20 f6 10     	jsr	$10f6 <malloc>
     d62: a5 25        	lda	$25                     ; 0x2025 <end_block9+0xca7>
     d64: d0 07        	bne	$d6d <f256main+0x3ef>
     d66: a5 24        	lda	$24                     ; 0x2024 <end_block9+0xca6>
     d68: d0 03        	bne	$d6d <f256main+0x3ef>
     d6a: 4c cd 0f     	jmp	$fcd <f256main+0x64f>
     d6d: a2 05        	ldx	#$5
     d6f: 8a           	txa
     d70: a0 01        	ldy	#$1
     d72: 91 10        	sta	($10),y                 ; 0x2010 <end_block9+0xc92>
     d74: a2 01        	ldx	#$1
     d76: 64 18        	stz	$18                     ; 0x2018 <end_block9+0xc9a>
     d78: 64 14        	stz	$14                     ; 0x2014 <end_block9+0xc96>
     d7a: 64 15        	stz	$15                     ; 0x2015 <end_block9+0xc97>
     d7c: 64 1a        	stz	$1a                     ; 0x201a <end_block9+0xc9c>
     d7e: 64 19        	stz	$19                     ; 0x2019 <end_block9+0xc9b>
     d80: a0 05        	ldy	#$5
     d82: 98           	tya
     d83: a0 00        	ldy	#$0
     d85: 91 10        	sta	($10),y                 ; 0x2010 <end_block9+0xc92>
     d87: 64 1b        	stz	$1b                     ; 0x201b <end_block9+0xc9d>
     d89: a4 15        	ldy	$15                     ; 0x2015 <end_block9+0xc97>
     d8b: 84 1f        	sty	$1f                     ; 0x201f <end_block9+0xca1>
     d8d: a0 02        	ldy	#$2
     d8f: b1 10        	lda	($10),y                 ; 0x2010 <end_block9+0xc92>
     d91: 85 1c        	sta	$1c                     ; 0x201c <end_block9+0xc9e>
     d93: 18           	clc
     d94: 69 ff        	adc	#$ff
     d96: 88           	dey
     d97: b0 02        	bcs	$d9b <f256main+0x41d>
     d99: a0 00        	ldy	#$0
     d9b: 84 22        	sty	$22                     ; 0x2022 <end_block9+0xca4>
     d9d: 85 15        	sta	$15                     ; 0x2015 <end_block9+0xc97>
     d9f: a4 18        	ldy	$18                     ; 0x2018 <end_block9+0xc9a>
     da1: 84 1d        	sty	$1d                     ; 0x201d <end_block9+0xc9f>
     da3: a5 18        	lda	$18                     ; 0x2018 <end_block9+0xc9a>
     da5: 69 ff        	adc	#$ff
     da7: 85 23        	sta	$23                     ; 0x2023 <end_block9+0xca5>
     da9: a0 01        	ldy	#$1
     dab: b1 10        	lda	($10),y                 ; 0x2010 <end_block9+0xc92>
     dad: 85 1e        	sta	$1e                     ; 0x201e <end_block9+0xca0>
     daf: 69 1f        	adc	#$1f
     db1: 06 23        	asl	$23                     ; 0x2023 <end_block9+0xca5>
     db3: 2a           	rol
     db4: 06 23        	asl	$23                     ; 0x2023 <end_block9+0xca5>
     db6: 2a           	rol
     db7: a4 14        	ldy	$14                     ; 0x2014 <end_block9+0xc96>
     db9: 84 18        	sty	$18                     ; 0x2018 <end_block9+0xc9a>
     dbb: 86 14        	stx	$14                     ; 0x2014 <end_block9+0xc96>
     dbd: c6 14        	dec	$14                     ; 0x2014 <end_block9+0xc96>
     dbf: 06 23        	asl	$23                     ; 0x2023 <end_block9+0xca5>
     dc1: 2a           	rol
     dc2: a4 0f        	ldy	$f                      ; 0x200f <end_block9+0xc91>
     dc4: 78           	sei
     dc5: 85 0f        	sta	$f                      ; 0x200f <end_block9+0xc91>
     dc7: a5 1d        	lda	$1d                     ; 0x201d <end_block9+0xc9f>
     dc9: 5a           	phy
     dca: a4 22        	ldy	$22                     ; 0x2022 <end_block9+0xca4>
     dcc: c0 01        	cpy	#$1
     dce: 69 1f        	adc	#$1f
     dd0: 09 e0        	ora	#$e0
     dd2: a4 15        	ldy	$15                     ; 0x2015 <end_block9+0xc97>
     dd4: 84 16        	sty	$16                     ; 0x2016 <end_block9+0xc98>
     dd6: 7a           	ply
     dd7: 85 17        	sta	$17                     ; 0x2017 <end_block9+0xc99>
     dd9: b2 16        	lda	($16)                   ; 0x2016 <end_block9+0xc98>
     ddb: 85 22        	sta	$22                     ; 0x2022 <end_block9+0xca4>
     ddd: 84 0f        	sty	$f                      ; 0x200f <end_block9+0xc91>
     ddf: 58           	cli
     de0: a4 0f        	ldy	$f                      ; 0x200f <end_block9+0xc91>
     de2: 78           	sei
     de3: a5 1d        	lda	$1d                     ; 0x201d <end_block9+0xc9f>
     de5: 85 15        	sta	$15                     ; 0x2015 <end_block9+0xc97>
     de7: 06 15        	asl	$15                     ; 0x2015 <end_block9+0xc97>
     de9: a5 1e        	lda	$1e                     ; 0x201e <end_block9+0xca0>
     deb: 2a           	rol
     dec: 06 15        	asl	$15                     ; 0x2015 <end_block9+0xc97>
     dee: 2a           	rol
     def: 06 15        	asl	$15                     ; 0x2015 <end_block9+0xc97>
     df1: 2a           	rol
     df2: 85 0f        	sta	$f                      ; 0x200f <end_block9+0xc91>
     df4: 18           	clc
     df5: a5 18        	lda	$18                     ; 0x2018 <end_block9+0xc9a>
     df7: 69 03        	adc	#$3
     df9: 85 16        	sta	$16                     ; 0x2016 <end_block9+0xc98>
     dfb: a5 1f        	lda	$1f                     ; 0x201f <end_block9+0xca1>
     dfd: 69 00        	adc	#$0
     dff: 09 e0        	ora	#$e0
     e01: 85 17        	sta	$17                     ; 0x2017 <end_block9+0xc99>
     e03: b2 16        	lda	($16)                   ; 0x2016 <end_block9+0xc98>
     e05: 85 1f        	sta	$1f                     ; 0x201f <end_block9+0xca1>
     e07: 84 0f        	sty	$f                      ; 0x200f <end_block9+0xc91>
     e09: a5 14        	lda	$14                     ; 0x2014 <end_block9+0xc96>
     e0b: 0a           	asl
     e0c: 64 15        	stz	$15                     ; 0x2015 <end_block9+0xc97>
     e0e: 26 15        	rol	$15                     ; 0x2015 <end_block9+0xc97>
     e10: 0a           	asl
     e11: 26 15        	rol	$15                     ; 0x2015 <end_block9+0xc97>
     e13: 0a           	asl
     e14: 26 15        	rol	$15                     ; 0x2015 <end_block9+0xc97>
     e16: 38           	sec
     e17: e5 14        	sbc	$14                     ; 0x2014 <end_block9+0xc96>
     e19: a8           	tay
     e1a: a5 15        	lda	$15                     ; 0x2015 <end_block9+0xc97>
     e1c: e9 00        	sbc	#$0
     e1e: 85 14        	sta	$14                     ; 0x2014 <end_block9+0xc96>
     e20: 18           	clc
     e21: 98           	tya
     e22: 65 12        	adc	$12                     ; 0x2012 <end_block9+0xc94>
     e24: 85 16        	sta	$16                     ; 0x2016 <end_block9+0xc98>
     e26: a5 14        	lda	$14                     ; 0x2014 <end_block9+0xc96>
     e28: 65 13        	adc	$13                     ; 0x2013 <end_block9+0xc95>
     e2a: 85 17        	sta	$17                     ; 0x2017 <end_block9+0xc99>
     e2c: a4 19        	ldy	$19                     ; 0x2019 <end_block9+0xc9b>
     e2e: 84 15        	sty	$15                     ; 0x2015 <end_block9+0xc97>
     e30: a0 03        	ldy	#$3
     e32: b1 10        	lda	($10),y                 ; 0x2010 <end_block9+0xc92>
     e34: 85 26        	sta	$26                     ; 0x2026 <end_block9+0xca8>
     e36: 85 14        	sta	$14                     ; 0x2014 <end_block9+0xc96>
     e38: 58           	cli
     e39: a0 01        	ldy	#$1
     e3b: a5 22        	lda	$22                     ; 0x2022 <end_block9+0xca4>
     e3d: 91 16        	sta	($16),y                 ; 0x2016 <end_block9+0xc98>
     e3f: e6 16        	inc	$16                     ; 0x2016 <end_block9+0xc98>
     e41: d0 02        	bne	$e45 <f256main+0x4c7>
     e43: e6 17        	inc	$17                     ; 0x2017 <end_block9+0xc99>
     e45: a5 1f        	lda	$1f                     ; 0x201f <end_block9+0xca1>
     e47: 91 16        	sta	($16),y                 ; 0x2016 <end_block9+0xc98>
     e49: 18           	clc
     e4a: a5 26        	lda	$26                     ; 0x2026 <end_block9+0xca8>
     e4c: 69 02        	adc	#$2
     e4e: a0 03        	ldy	#$3
     e50: 91 10        	sta	($10),y                 ; 0x2010 <end_block9+0xc92>
     e52: a5 19        	lda	$19                     ; 0x2019 <end_block9+0xc9b>
     e54: 69 00        	adc	#$0
     e56: 85 19        	sta	$19                     ; 0x2019 <end_block9+0xc9b>
     e58: a0 00        	ldy	#$0
     e5a: b1 10        	lda	($10),y                 ; 0x2010 <end_block9+0xc92>
     e5c: 69 00        	adc	#$0
     e5e: 91 10        	sta	($10),y                 ; 0x2010 <end_block9+0xc92>
     e60: a5 1b        	lda	$1b                     ; 0x201b <end_block9+0xc9d>
     e62: 69 00        	adc	#$0
     e64: 85 1b        	sta	$1b                     ; 0x201b <end_block9+0xc9d>
     e66: 18           	clc
     e67: a5 1c        	lda	$1c                     ; 0x201c <end_block9+0xc9e>
     e69: 69 02        	adc	#$2
     e6b: a0 02        	ldy	#$2
     e6d: 91 10        	sta	($10),y                 ; 0x2010 <end_block9+0xc92>
     e6f: a5 1d        	lda	$1d                     ; 0x201d <end_block9+0xc9f>
     e71: 69 00        	adc	#$0
     e73: 85 18        	sta	$18                     ; 0x2018 <end_block9+0xc9a>
     e75: a5 1e        	lda	$1e                     ; 0x201e <end_block9+0xca0>
     e77: 69 00        	adc	#$0
     e79: 88           	dey
     e7a: 91 10        	sta	($10),y                 ; 0x2010 <end_block9+0xc92>
     e7c: a5 1a        	lda	$1a                     ; 0x201a <end_block9+0xc9c>
     e7e: 69 00        	adc	#$0
     e80: 85 1a        	sta	$1a                     ; 0x201a <end_block9+0xc9c>
     e82: 8a           	txa
     e83: 1a           	inc
     e84: 88           	dey
     e85: c4 25        	cpy	$25                     ; 0x2025 <end_block9+0xca7>
     e87: d0 08        	bne	$e91 <f256main+0x513>
     e89: e4 24        	cpx	$24                     ; 0x2024 <end_block9+0xca6>
     e8b: aa           	tax
     e8c: b0 0d        	bcs	$e9b <f256main+0x51d>
     e8e: 4c 89 0d     	jmp	$d89 <f256main+0x40b>
     e91: a2 00        	ldx	#$0
     e93: e4 25        	cpx	$25                     ; 0x2025 <end_block9+0xca7>
     e95: aa           	tax
     e96: b0 03        	bcs	$e9b <f256main+0x51d>
     e98: 4c 89 0d     	jmp	$d89 <f256main+0x40b>
     e9b: a6 12        	ldx	$12                     ; 0x2012 <end_block9+0xc94>
     e9d: 86 14        	stx	$14                     ; 0x2014 <end_block9+0xc96>
     e9f: a6 13        	ldx	$13                     ; 0x2013 <end_block9+0xc95>
     ea1: 86 15        	stx	$15                     ; 0x2015 <end_block9+0xc97>
     ea3: e6 14        	inc	$14                     ; 0x2014 <end_block9+0xc96>
     ea5: d0 02        	bne	$ea9 <f256main+0x52b>
     ea7: e6 15        	inc	$15                     ; 0x2015 <end_block9+0xc97>
     ea9: 64 16        	stz	$16                     ; 0x2016 <end_block9+0xc98>
     eab: 64 17        	stz	$17                     ; 0x2017 <end_block9+0xc99>
     ead: 80 0c        	bra	$ebb <f256main+0x53d>
     eaf: 1a           	inc
     eb0: 86 16        	stx	$16                     ; 0x2016 <end_block9+0xc98>
     eb2: 85 17        	sta	$17                     ; 0x2017 <end_block9+0xc99>
     eb4: c5 25        	cmp	$25                     ; 0x2025 <end_block9+0xca7>
     eb6: d0 03        	bne	$ebb <f256main+0x53d>
     eb8: 4c c2 0f     	jmp	$fc2 <f256main+0x644>
     ebb: a5 16        	lda	$16                     ; 0x2016 <end_block9+0xc98>
     ebd: 0a           	asl
     ebe: aa           	tax
     ebf: a5 17        	lda	$17                     ; 0x2017 <end_block9+0xc99>
     ec1: 2a           	rol
     ec2: 86 18        	stx	$18                     ; 0x2018 <end_block9+0xc9a>
     ec4: 06 18        	asl	$18                     ; 0x2018 <end_block9+0xc9a>
     ec6: 2a           	rol
     ec7: 06 18        	asl	$18                     ; 0x2018 <end_block9+0xc9a>
     ec9: 2a           	rol
     eca: aa           	tax
     ecb: 38           	sec
     ecc: a5 18        	lda	$18                     ; 0x2018 <end_block9+0xc9a>
     ece: e5 16        	sbc	$16                     ; 0x2016 <end_block9+0xc98>
     ed0: 85 18        	sta	$18                     ; 0x2018 <end_block9+0xc9a>
     ed2: 8a           	txa
     ed3: e5 17        	sbc	$17                     ; 0x2017 <end_block9+0xc99>
     ed5: 85 19        	sta	$19                     ; 0x2019 <end_block9+0xc9b>
     ed7: 18           	clc
     ed8: a5 18        	lda	$18                     ; 0x2018 <end_block9+0xc9a>
     eda: 65 12        	adc	$12                     ; 0x2012 <end_block9+0xc94>
     edc: aa           	tax
     edd: a5 19        	lda	$19                     ; 0x2019 <end_block9+0xc9b>
     edf: 65 13        	adc	$13                     ; 0x2013 <end_block9+0xc95>
     ee1: 86 18        	stx	$18                     ; 0x2018 <end_block9+0xc9a>
     ee3: 85 19        	sta	$19                     ; 0x2019 <end_block9+0xc9b>
     ee5: 85 1b        	sta	$1b                     ; 0x201b <end_block9+0xc9d>
     ee7: 18           	clc
     ee8: 8a           	txa
     ee9: 69 03        	adc	#$3
     eeb: 85 1a        	sta	$1a                     ; 0x201a <end_block9+0xc9c>
     eed: a5 1b        	lda	$1b                     ; 0x201b <end_block9+0xc9d>
     eef: 69 00        	adc	#$0
     ef1: 85 1b        	sta	$1b                     ; 0x201b <end_block9+0xc9d>
     ef3: a9 00        	lda	#$0
     ef5: a0 03        	ldy	#$3
     ef7: 91 18        	sta	($18),y                 ; 0x2018 <end_block9+0xc9a>
     ef9: a0 01        	ldy	#$1
     efb: 91 1a        	sta	($1a),y                 ; 0x201a <end_block9+0xc9c>
     efd: c8           	iny
     efe: 91 1a        	sta	($1a),y                 ; 0x201a <end_block9+0xc9c>
     f00: c8           	iny
     f01: 91 1a        	sta	($1a),y                 ; 0x201a <end_block9+0xc9c>
     f03: a5 17        	lda	$17                     ; 0x2017 <end_block9+0xc99>
     f05: d0 07        	bne	$f0e <f256main+0x590>
     f07: a5 16        	lda	$16                     ; 0x2016 <end_block9+0xc98>
     f09: d0 03        	bne	$f0e <f256main+0x590>
     f0b: 4c ad 0f     	jmp	$fad <f256main+0x62f>
     f0e: 64 27        	stz	$27                     ; 0x2027 <end_block9+0xca9>
     f10: a6 14        	ldx	$14                     ; 0x2014 <end_block9+0xc96>
     f12: 86 1e        	stx	$1e                     ; 0x201e <end_block9+0xca0>
     f14: a6 15        	ldx	$15                     ; 0x2015 <end_block9+0xc97>
     f16: 86 1f        	stx	$1f                     ; 0x201f <end_block9+0xca1>
     f18: a6 16        	ldx	$16                     ; 0x2016 <end_block9+0xc98>
     f1a: a4 17        	ldy	$17                     ; 0x2017 <end_block9+0xc99>
     f1c: 84 1c        	sty	$1c                     ; 0x201c <end_block9+0xc9e>
     f1e: 64 28        	stz	$28                     ; 0x2028 <end_block9+0xcaa>
     f20: 64 29        	stz	$29                     ; 0x2029 <end_block9+0xcab>
     f22: 64 2a        	stz	$2a                     ; 0x202a <end_block9+0xcac>
     f24: a0 01        	ldy	#$1
     f26: 80 07        	bra	$f2f <f256main+0x5b1>
     f28: a5 1c        	lda	$1c                     ; 0x201c <end_block9+0xc9e>
     f2a: d0 03        	bne	$f2f <f256main+0x5b1>
     f2c: 4c 91 0f     	jmp	$f91 <f256main+0x613>
     f2f: b2 1e        	lda	($1e)                   ; 0x201e <end_block9+0xca0>
     f31: 85 22        	sta	$22                     ; 0x2022 <end_block9+0xca4>
     f33: b1 1e        	lda	($1e),y                 ; 0x201e <end_block9+0xca0>
     f35: 85 1d        	sta	$1d                     ; 0x201d <end_block9+0xc9f>
     f37: a5 22        	lda	$22                     ; 0x2022 <end_block9+0xca4>
     f39: 0a           	asl
     f3a: 26 1d        	rol	$1d                     ; 0x201d <end_block9+0xc9f>
     f3c: 5a           	phy
     f3d: a4 1d        	ldy	$1d                     ; 0x201d <end_block9+0xc9f>
     f3f: 84 23        	sty	$23                     ; 0x2023 <end_block9+0xca5>
     f41: 64 1d        	stz	$1d                     ; 0x201d <end_block9+0xc9f>
     f43: 26 1d        	rol	$1d                     ; 0x201d <end_block9+0xc9f>
     f45: 64 22        	stz	$22                     ; 0x2022 <end_block9+0xca4>
     f47: 26 22        	rol	$22                     ; 0x2022 <end_block9+0xca4>
     f49: 0a           	asl
     f4a: 26 23        	rol	$23                     ; 0x2023 <end_block9+0xca5>
     f4c: a4 23        	ldy	$23                     ; 0x2023 <end_block9+0xca5>
     f4e: 84 26        	sty	$26                     ; 0x2026 <end_block9+0xca8>
     f50: 7a           	ply
     f51: 26 1d        	rol	$1d                     ; 0x201d <end_block9+0xc9f>
     f53: 26 22        	rol	$22                     ; 0x2022 <end_block9+0xca4>
     f55: 0a           	asl
     f56: 85 23        	sta	$23                     ; 0x2023 <end_block9+0xca5>
     f58: 26 26        	rol	$26                     ; 0x2026 <end_block9+0xca8>
     f5a: 26 1d        	rol	$1d                     ; 0x201d <end_block9+0xc9f>
     f5c: 26 22        	rol	$22                     ; 0x2022 <end_block9+0xca4>
     f5e: a5 27        	lda	$27                     ; 0x2027 <end_block9+0xca9>
     f60: 18           	clc
     f61: 65 23        	adc	$23                     ; 0x2023 <end_block9+0xca5>
     f63: 85 27        	sta	$27                     ; 0x2027 <end_block9+0xca9>
     f65: a5 28        	lda	$28                     ; 0x2028 <end_block9+0xcaa>
     f67: 65 26        	adc	$26                     ; 0x2026 <end_block9+0xca8>
     f69: 85 28        	sta	$28                     ; 0x2028 <end_block9+0xcaa>
     f6b: a5 29        	lda	$29                     ; 0x2029 <end_block9+0xcab>
     f6d: 65 1d        	adc	$1d                     ; 0x201d <end_block9+0xc9f>
     f6f: 85 29        	sta	$29                     ; 0x2029 <end_block9+0xcab>
     f71: a5 2a        	lda	$2a                     ; 0x202a <end_block9+0xcac>
     f73: 65 22        	adc	$22                     ; 0x2022 <end_block9+0xca4>
     f75: 85 2a        	sta	$2a                     ; 0x202a <end_block9+0xcac>
     f77: a5 1e        	lda	$1e                     ; 0x201e <end_block9+0xca0>
     f79: 18           	clc
     f7a: 69 07        	adc	#$7
     f7c: 85 1e        	sta	$1e                     ; 0x201e <end_block9+0xca0>
     f7e: a5 1f        	lda	$1f                     ; 0x201f <end_block9+0xca1>
     f80: 69 00        	adc	#$0
     f82: 85 1f        	sta	$1f                     ; 0x201f <end_block9+0xca1>
     f84: ca           	dex
     f85: e0 ff        	cpx	#$ff
     f87: f0 03        	beq	$f8c <f256main+0x60e>
     f89: 4c 28 0f     	jmp	$f28 <f256main+0x5aa>
     f8c: c6 1c        	dec	$1c                     ; 0x201c <end_block9+0xc9e>
     f8e: 4c 28 0f     	jmp	$f28 <f256main+0x5aa>
     f91: 8a           	txa
     f92: f0 03        	beq	$f97 <f256main+0x619>
     f94: 4c 2f 0f     	jmp	$f2f <f256main+0x5b1>
     f97: a5 27        	lda	$27                     ; 0x2027 <end_block9+0xca9>
     f99: a0 03        	ldy	#$3
     f9b: 91 18        	sta	($18),y                 ; 0x2018 <end_block9+0xc9a>
     f9d: a5 28        	lda	$28                     ; 0x2028 <end_block9+0xcaa>
     f9f: a0 01        	ldy	#$1
     fa1: 91 1a        	sta	($1a),y                 ; 0x201a <end_block9+0xc9c>
     fa3: c8           	iny
     fa4: a5 29        	lda	$29                     ; 0x2029 <end_block9+0xcab>
     fa6: 91 1a        	sta	($1a),y                 ; 0x201a <end_block9+0xc9c>
     fa8: a5 2a        	lda	$2a                     ; 0x202a <end_block9+0xcac>
     faa: c8           	iny
     fab: 91 1a        	sta	($1a),y                 ; 0x201a <end_block9+0xc9c>
     fad: a6 16        	ldx	$16                     ; 0x2016 <end_block9+0xc98>
     faf: a5 17        	lda	$17                     ; 0x2017 <end_block9+0xc99>
     fb1: e8           	inx
     fb2: d0 03        	bne	$fb7 <f256main+0x639>
     fb4: 4c af 0e     	jmp	$eaf <f256main+0x531>
     fb7: 86 16        	stx	$16                     ; 0x2016 <end_block9+0xc98>
     fb9: 85 17        	sta	$17                     ; 0x2017 <end_block9+0xc99>
     fbb: c5 25        	cmp	$25                     ; 0x2025 <end_block9+0xca7>
     fbd: f0 03        	beq	$fc2 <f256main+0x644>
     fbf: 4c bb 0e     	jmp	$ebb <f256main+0x53d>
     fc2: 86 16        	stx	$16                     ; 0x2016 <end_block9+0xc98>
     fc4: 85 17        	sta	$17                     ; 0x2017 <end_block9+0xc99>
     fc6: e4 24        	cpx	$24                     ; 0x2024 <end_block9+0xca6>
     fc8: f0 03        	beq	$fcd <f256main+0x64f>
     fca: 4c bb 0e     	jmp	$ebb <f256main+0x53d>
     fcd: ad 78 13     	lda	$1378                   ; 0x1378 <_ZN12_GLOBAL__N_111initializedE>
     fd0: 29 01        	and	#$1
     fd2: f0 03        	beq	$fd7 <f256main+0x659>
     fd4: 4c ef 10     	jmp	$10ef <f256main+0x771>
     fd7: a2 10        	ldx	#$10
     fd9: 86 12        	stx	$12                     ; 0x2012 <end_block9+0xc94>
     fdb: a9 00        	lda	#$0
     fdd: 29 fe        	and	#$fe
     fdf: 85 13        	sta	$13                     ; 0x2013 <end_block9+0xc95>
     fe1: a9 01        	lda	#$1
     fe3: 2d 7e 13     	and	$137e                   ; 0x137e <end_block9>
     fe6: 05 13        	ora	$13                     ; 0x2013 <end_block9+0xc95>
     fe8: 8d 7e 13     	sta	$137e                   ; 0x137e <end_block9>
     feb: 8e 7f 13     	stx	$137f                   ; 0x137f <end_block9+0x1>
     fee: a9 7e        	lda	#$7e
     ff0: 18           	clc
     ff1: 65 13        	adc	$13                     ; 0x2013 <end_block9+0xc95>
     ff3: aa           	tax
     ff4: a9 13        	lda	#$13
     ff6: 65 12        	adc	$12                     ; 0x2012 <end_block9+0xc94>
     ff8: 85 12        	sta	$12                     ; 0x2012 <end_block9+0xc94>
     ffa: 18           	clc
     ffb: 8a           	txa
     ffc: 69 fe        	adc	#$fe
     ffe: a8           	tay
     fff: a5 12        	lda	$12                     ; 0x2012 <end_block9+0xc94>
    1001: 69 ff        	adc	#$ff
    1003: 85 13        	sta	$13                     ; 0x2013 <end_block9+0xc95>
    1005: ae 7c 13     	ldx	$137c                   ; 0x137c <_ZN12_GLOBAL__N_19free_listE>
    1008: 86 14        	stx	$14                     ; 0x2014 <end_block9+0xc96>
    100a: 84 12        	sty	$12                     ; 0x2012 <end_block9+0xc94>
    100c: ae 7d 13     	ldx	$137d                   ; 0x137d <_ZN12_GLOBAL__N_19free_listE+0x1>
    100f: a9 00        	lda	#$0
    1011: 92 12        	sta	($12)                   ; 0x2012 <end_block9+0xc94>
    1013: a0 01        	ldy	#$1
    1015: a9 10        	lda	#$10
    1017: 91 12        	sta	($12),y                 ; 0x2012 <end_block9+0xc94>
    1019: ac 7f 13     	ldy	$137f                   ; 0x137f <end_block9+0x1>
    101c: 84 17        	sty	$17                     ; 0x2017 <end_block9+0xc99>
    101e: a9 fe        	lda	#$fe
    1020: 2d 7e 13     	and	$137e                   ; 0x137e <end_block9>
    1023: ac 7b 13     	ldy	$137b                   ; 0x137b <_ZN12_GLOBAL__N_19free_sizeE+0x1>
    1026: 84 12        	sty	$12                     ; 0x2012 <end_block9+0xc94>
    1028: 18           	clc
    1029: 85 16        	sta	$16                     ; 0x2016 <end_block9+0xc98>
    102b: 6d 7a 13     	adc	$137a                   ; 0x137a <_ZN12_GLOBAL__N_19free_sizeE>
    102e: a8           	tay
    102f: a5 12        	lda	$12                     ; 0x2012 <end_block9+0xc94>
    1031: 6d 7f 13     	adc	$137f                   ; 0x137f <end_block9+0x1>
    1034: 85 12        	sta	$12                     ; 0x2012 <end_block9+0xc94>
    1036: 18           	clc
    1037: 98           	tya
    1038: 69 fe        	adc	#$fe
    103a: 85 13        	sta	$13                     ; 0x2013 <end_block9+0xc95>
    103c: a5 12        	lda	$12                     ; 0x2012 <end_block9+0xc94>
    103e: 69 ff        	adc	#$ff
    1040: a4 13        	ldy	$13                     ; 0x2013 <end_block9+0xc95>
    1042: 8c 7a 13     	sty	$137a                   ; 0x137a <_ZN12_GLOBAL__N_19free_sizeE>
    1045: 8d 7b 13     	sta	$137b                   ; 0x137b <_ZN12_GLOBAL__N_19free_sizeE+0x1>
    1048: a0 00        	ldy	#$0
    104a: 84 12        	sty	$12                     ; 0x2012 <end_block9+0xc94>
    104c: a0 00        	ldy	#$0
    104e: 84 13        	sty	$13                     ; 0x2013 <end_block9+0xc95>
    1050: da           	phx
    1051: 7a           	ply
    1052: e4 13        	cpx	$13                     ; 0x2013 <end_block9+0xc95>
    1054: d0 1f        	bne	$1075 <f256main+0x6f7>
    1056: a6 14        	ldx	$14                     ; 0x2014 <end_block9+0xc96>
    1058: e4 12        	cpx	$12                     ; 0x2012 <end_block9+0xc94>
    105a: d0 19        	bne	$1075 <f256main+0x6f7>
    105c: a0 7e        	ldy	#$7e
    105e: a9 13        	lda	#$13
    1060: 8c 82 13     	sty	$1382                   ; 0x1382 <end_block9+0x4>
    1063: 8d 83 13     	sta	$1383                   ; 0x1383 <end_block9+0x5>
    1066: 8c 80 13     	sty	$1380                   ; 0x1380 <end_block9+0x2>
    1069: 8d 81 13     	sta	$1381                   ; 0x1381 <end_block9+0x3>
    106c: 8c 7c 13     	sty	$137c                   ; 0x137c <_ZN12_GLOBAL__N_19free_listE>
    106f: 8d 7d 13     	sta	$137d                   ; 0x137d <_ZN12_GLOBAL__N_19free_listE+0x1>
    1072: 4c dd 10     	jmp	$10dd <f256main+0x75f>
    1075: a6 14        	ldx	$14                     ; 0x2014 <end_block9+0xc96>
    1077: 86 12        	stx	$12                     ; 0x2012 <end_block9+0xc94>
    1079: 84 13        	sty	$13                     ; 0x2013 <end_block9+0xc95>
    107b: a5 14        	lda	$14                     ; 0x2014 <end_block9+0xc96>
    107d: 8d 80 13     	sta	$1380                   ; 0x1380 <end_block9+0x2>
    1080: 8c 81 13     	sty	$1381                   ; 0x1381 <end_block9+0x3>
    1083: 18           	clc
    1084: 69 04        	adc	#$4
    1086: 85 14        	sta	$14                     ; 0x2014 <end_block9+0xc96>
    1088: 98           	tya
    1089: 69 00        	adc	#$0
    108b: 85 15        	sta	$15                     ; 0x2015 <end_block9+0xc97>
    108d: a0 04        	ldy	#$4
    108f: b1 12        	lda	($12),y                 ; 0x2012 <end_block9+0xc94>
    1091: 85 12        	sta	$12                     ; 0x2012 <end_block9+0xc94>
    1093: a0 01        	ldy	#$1
    1095: b1 14        	lda	($14),y                 ; 0x2014 <end_block9+0xc96>
    1097: aa           	tax
    1098: a4 12        	ldy	$12                     ; 0x2012 <end_block9+0xc94>
    109a: 85 13        	sta	$13                     ; 0x2013 <end_block9+0xc95>
    109c: 8c 82 13     	sty	$1382                   ; 0x1382 <end_block9+0x4>
    109f: 8d 83 13     	sta	$1383                   ; 0x1383 <end_block9+0x5>
    10a2: 18           	clc
    10a3: a5 12        	lda	$12                     ; 0x2012 <end_block9+0xc94>
    10a5: 69 02        	adc	#$2
    10a7: 85 14        	sta	$14                     ; 0x2014 <end_block9+0xc96>
    10a9: 8a           	txa
    10aa: 69 00        	adc	#$0
    10ac: a0 02        	ldy	#$2
    10ae: 85 15        	sta	$15                     ; 0x2015 <end_block9+0xc97>
    10b0: a9 7e        	lda	#$7e
    10b2: 91 12        	sta	($12),y                 ; 0x2012 <end_block9+0xc94>
    10b4: a9 13        	lda	#$13
    10b6: 88           	dey
    10b7: 91 14        	sta	($14),y                 ; 0x2014 <end_block9+0xc96>
    10b9: ae 80 13     	ldx	$1380                   ; 0x1380 <end_block9+0x2>
    10bc: ac 81 13     	ldy	$1381                   ; 0x1381 <end_block9+0x3>
    10bf: 86 12        	stx	$12                     ; 0x2012 <end_block9+0xc94>
    10c1: 84 13        	sty	$13                     ; 0x2013 <end_block9+0xc95>
    10c3: 84 14        	sty	$14                     ; 0x2014 <end_block9+0xc96>
    10c5: a0 04        	ldy	#$4
    10c7: a9 7e        	lda	#$7e
    10c9: 91 12        	sta	($12),y                 ; 0x2012 <end_block9+0xc94>
    10cb: 18           	clc
    10cc: 8a           	txa
    10cd: 69 04        	adc	#$4
    10cf: 85 12        	sta	$12                     ; 0x2012 <end_block9+0xc94>
    10d1: a5 14        	lda	$14                     ; 0x2014 <end_block9+0xc96>
    10d3: 69 00        	adc	#$0
    10d5: 85 13        	sta	$13                     ; 0x2013 <end_block9+0xc95>
    10d7: a9 13        	lda	#$13
    10d9: a0 01        	ldy	#$1
    10db: 91 12        	sta	($12),y                 ; 0x2012 <end_block9+0xc94>
    10dd: a4 16        	ldy	$16                     ; 0x2016 <end_block9+0xc98>
    10df: 8c 7e 13     	sty	$137e                   ; 0x137e <end_block9>
    10e2: a6 17        	ldx	$17                     ; 0x2017 <end_block9+0xc99>
    10e4: 8e 7f 13     	stx	$137f                   ; 0x137f <end_block9+0x1>
    10e7: a2 01        	ldx	#$1
    10e9: 8e 79 13     	stx	$1379                   ; 0x1379 <_ZN12_GLOBAL__N_19last_freeE>
    10ec: 8e 78 13     	stx	$1378                   ; 0x1378 <_ZN12_GLOBAL__N_111initializedE>
    10ef: 80 fe        	bra	$10ef <f256main+0x771>

000010f1 <exit>:
    10f1: 20 11 03     	jsr	$311 <_fini>
    10f4: 80 fe        	bra	$10f4 <exit+0x3>

000010f6 <malloc>:
    10f6: a8           	tay
    10f7: 8a           	txa
    10f8: a2 00        	ldx	#$0
    10fa: 86 12        	stx	$12                     ; 0x2012 <end_block9+0xc94>
    10fc: a2 00        	ldx	#$0
    10fe: 86 13        	stx	$13                     ; 0x2013 <end_block9+0xc95>
    1100: aa           	tax
    1101: d0 07        	bne	$110a <malloc+0x14>
    1103: c0 00        	cpy	#$0
    1105: d0 03        	bne	$110a <malloc+0x14>
    1107: 4c fc 11     	jmp	$11fc <malloc+0x106>
    110a: 84 16        	sty	$16                     ; 0x2016 <end_block9+0xc98>
    110c: aa           	tax
    110d: d0 0e        	bne	$111d <malloc+0x27>
    110f: a6 16        	ldx	$16                     ; 0x2016 <end_block9+0xc98>
    1111: e0 07        	cpx	#$7
    1113: b0 0c        	bcs	$1121 <malloc+0x2b>
    1115: a2 08        	ldx	#$8
    1117: 86 31        	stx	$31                     ; 0x2031 <end_block9+0xcb3>
    1119: a9 00        	lda	#$0
    111b: 80 2f        	bra	$114c <malloc+0x56>
    111d: c9 00        	cmp	#$0
    111f: 90 f4        	bcc	$1115 <malloc+0x1f>
    1121: a8           	tay
    1122: a5 16        	lda	$16                     ; 0x2016 <end_block9+0xc98>
    1124: 29 01        	and	#$1
    1126: a2 02        	ldx	#$2
    1128: 64 14        	stz	$14                     ; 0x2014 <end_block9+0xc96>
    112a: c9 00        	cmp	#$0
    112c: f0 02        	beq	$1130 <malloc+0x3a>
    112e: a2 03        	ldx	#$3
    1130: 86 15        	stx	$15                     ; 0x2015 <end_block9+0xc97>
    1132: 18           	clc
    1133: a5 16        	lda	$16                     ; 0x2016 <end_block9+0xc98>
    1135: 65 15        	adc	$15                     ; 0x2015 <end_block9+0xc97>
    1137: aa           	tax
    1138: 98           	tya
    1139: 65 14        	adc	$14                     ; 0x2014 <end_block9+0xc96>
    113b: 90 03        	bcc	$1140 <malloc+0x4a>
    113d: 4c fc 11     	jmp	$11fc <malloc+0x106>
    1140: 86 31        	stx	$31                     ; 0x2031 <end_block9+0xcb3>
    1142: a8           	tay
    1143: d0 07        	bne	$114c <malloc+0x56>
    1145: e0 00        	cpx	#$0
    1147: d0 03        	bne	$114c <malloc+0x56>
    1149: 4c fc 11     	jmp	$11fc <malloc+0x106>
    114c: 85 30        	sta	$30                     ; 0x2030 <end_block9+0xcb2>
    114e: ad 78 13     	lda	$1378                   ; 0x1378 <_ZN12_GLOBAL__N_111initializedE>
    1151: 29 01        	and	#$1
    1153: d0 2d        	bne	$1182 <malloc+0x8c>
    1155: a9 00        	lda	#$0
    1157: a2 10        	ldx	#$10
    1159: a0 7e        	ldy	#$7e
    115b: 84 12        	sty	$12                     ; 0x2012 <end_block9+0xc94>
    115d: a0 13        	ldy	#$13
    115f: 84 13        	sty	$13                     ; 0x2013 <end_block9+0xc95>
    1161: 20 12 03     	jsr	$312 <_ZN12_GLOBAL__N_19FreeChunk6insertEPvj>
    1164: a2 00        	ldx	#$0
    1166: 86 12        	stx	$12                     ; 0x2012 <end_block9+0xc94>
    1168: a2 00        	ldx	#$0
    116a: 86 13        	stx	$13                     ; 0x2013 <end_block9+0xc95>
    116c: ae 7f 13     	ldx	$137f                   ; 0x137f <end_block9+0x1>
    116f: a9 fe        	lda	#$fe
    1171: 2d 7e 13     	and	$137e                   ; 0x137e <end_block9>
    1174: 8d 7e 13     	sta	$137e                   ; 0x137e <end_block9>
    1177: 8e 7f 13     	stx	$137f                   ; 0x137f <end_block9+0x1>
    117a: a2 01        	ldx	#$1
    117c: 8e 79 13     	stx	$1379                   ; 0x1379 <_ZN12_GLOBAL__N_19last_freeE>
    117f: 8e 78 13     	stx	$1378                   ; 0x1378 <_ZN12_GLOBAL__N_111initializedE>
    1182: ae 7c 13     	ldx	$137c                   ; 0x137c <_ZN12_GLOBAL__N_19free_listE>
    1185: 86 16        	stx	$16                     ; 0x2016 <end_block9+0xc98>
    1187: ac 7d 13     	ldy	$137d                   ; 0x137d <_ZN12_GLOBAL__N_19free_listE+0x1>
    118a: 84 17        	sty	$17                     ; 0x2017 <end_block9+0xc99>
    118c: a9 00        	lda	#$0
    118e: 85 14        	sta	$14                     ; 0x2014 <end_block9+0xc96>
    1190: a9 00        	lda	#$0
    1192: 85 15        	sta	$15                     ; 0x2015 <end_block9+0xc97>
    1194: c4 15        	cpy	$15                     ; 0x2015 <end_block9+0xc97>
    1196: d0 07        	bne	$119f <malloc+0xa9>
    1198: e4 14        	cpx	$14                     ; 0x2014 <end_block9+0xc96>
    119a: d0 03        	bne	$119f <malloc+0xa9>
    119c: 4c fc 11     	jmp	$11fc <malloc+0x106>
    119f: a2 00        	ldx	#$0
    11a1: a0 10        	ldy	#$10
    11a3: 86 14        	stx	$14                     ; 0x2014 <end_block9+0xc96>
    11a5: 84 15        	sty	$15                     ; 0x2015 <end_block9+0xc97>
    11a7: 18           	clc
    11a8: a9 7e        	lda	#$7e
    11aa: 65 14        	adc	$14                     ; 0x2014 <end_block9+0xc96>
    11ac: 85 18        	sta	$18                     ; 0x2018 <end_block9+0xc9a>
    11ae: a9 13        	lda	#$13
    11b0: 65 15        	adc	$15                     ; 0x2015 <end_block9+0xc97>
    11b2: 85 34        	sta	$34                     ; 0x2034 <end_block9+0xcb6>
    11b4: a0 01        	ldy	#$1
    11b6: a6 30        	ldx	$30                     ; 0x2030 <end_block9+0xcb2>
    11b8: 86 19        	stx	$19                     ; 0x2019 <end_block9+0xc9b>
    11ba: a6 16        	ldx	$16                     ; 0x2016 <end_block9+0xc98>
    11bc: 86 14        	stx	$14                     ; 0x2014 <end_block9+0xc96>
    11be: a6 17        	ldx	$17                     ; 0x2017 <end_block9+0xc99>
    11c0: 86 15        	stx	$15                     ; 0x2015 <end_block9+0xc97>
    11c2: b1 14        	lda	($14),y                 ; 0x2014 <end_block9+0xc96>
    11c4: c5 19        	cmp	$19                     ; 0x2019 <end_block9+0xc9b>
    11c6: d0 0e        	bne	$11d6 <malloc+0xe0>
    11c8: b2 14        	lda	($14)                   ; 0x2014 <end_block9+0xc96>
    11ca: 29 fe        	and	#$fe
    11cc: a6 31        	ldx	$31                     ; 0x2031 <end_block9+0xcb3>
    11ce: 86 1a        	stx	$1a                     ; 0x201a <end_block9+0xc9c>
    11d0: c5 1a        	cmp	$1a                     ; 0x201a <end_block9+0xc9c>
    11d2: b0 29        	bcs	$11fd <malloc+0x107>
    11d4: 80 04        	bra	$11da <malloc+0xe4>
    11d6: c5 19        	cmp	$19                     ; 0x2019 <end_block9+0xc9b>
    11d8: b0 23        	bcs	$11fd <malloc+0x107>
    11da: a5 14        	lda	$14                     ; 0x2014 <end_block9+0xc96>
    11dc: 18           	clc
    11dd: 69 02        	adc	#$2
    11df: 85 1a        	sta	$1a                     ; 0x201a <end_block9+0xc9c>
    11e1: a5 15        	lda	$15                     ; 0x2015 <end_block9+0xc97>
    11e3: 69 00        	adc	#$0
    11e5: 85 1b        	sta	$1b                     ; 0x201b <end_block9+0xc9d>
    11e7: a0 02        	ldy	#$2
    11e9: b1 14        	lda	($14),y                 ; 0x2014 <end_block9+0xc96>
    11eb: 85 14        	sta	$14                     ; 0x2014 <end_block9+0xc96>
    11ed: 88           	dey
    11ee: b1 1a        	lda	($1a),y                 ; 0x201a <end_block9+0xc9c>
    11f0: 85 15        	sta	$15                     ; 0x2015 <end_block9+0xc97>
    11f2: c5 17        	cmp	$17                     ; 0x2017 <end_block9+0xc99>
    11f4: d0 cc        	bne	$11c2 <malloc+0xcc>
    11f6: a5 14        	lda	$14                     ; 0x2014 <end_block9+0xc96>
    11f8: c5 16        	cmp	$16                     ; 0x2016 <end_block9+0xc98>
    11fa: d0 c6        	bne	$11c2 <malloc+0xcc>
    11fc: 60           	rts
    11fd: a6 18        	ldx	$18                     ; 0x2018 <end_block9+0xc9a>
    11ff: 86 35        	stx	$35                     ; 0x2035 <end_block9+0xcb7>
    1201: a6 14        	ldx	$14                     ; 0x2014 <end_block9+0xc96>
    1203: 86 12        	stx	$12                     ; 0x2012 <end_block9+0xc94>
    1205: a6 15        	ldx	$15                     ; 0x2015 <end_block9+0xc97>
    1207: 86 13        	stx	$13                     ; 0x2013 <end_block9+0xc95>
    1209: a6 14        	ldx	$14                     ; 0x2014 <end_block9+0xc96>
    120b: 86 32        	stx	$32                     ; 0x2032 <end_block9+0xcb4>
    120d: a6 15        	ldx	$15                     ; 0x2015 <end_block9+0xc97>
    120f: 86 33        	stx	$33                     ; 0x2033 <end_block9+0xcb5>
    1211: 20 50 04     	jsr	$450 <_ZN12_GLOBAL__N_19FreeChunk6removeEv>
    1214: a6 32        	ldx	$32                     ; 0x2032 <end_block9+0xcb4>
    1216: 86 12        	stx	$12                     ; 0x2012 <end_block9+0xc94>
    1218: a6 33        	ldx	$33                     ; 0x2033 <end_block9+0xcb5>
    121a: 86 13        	stx	$13                     ; 0x2013 <end_block9+0xc95>
    121c: a0 01        	ldy	#$1
    121e: b1 12        	lda	($12),y                 ; 0x2012 <end_block9+0xc94>
    1220: 85 15        	sta	$15                     ; 0x2015 <end_block9+0xc97>
    1222: a9 fe        	lda	#$fe
    1224: 32 12        	and	($12)                   ; 0x2012 <end_block9+0xc94>
    1226: 38           	sec
    1227: a6 31        	ldx	$31                     ; 0x2031 <end_block9+0xcb3>
    1229: 86 14        	stx	$14                     ; 0x2014 <end_block9+0xc96>
    122b: 85 17        	sta	$17                     ; 0x2017 <end_block9+0xc99>
    122d: e5 14        	sbc	$14                     ; 0x2014 <end_block9+0xc96>
    122f: a8           	tay
    1230: a6 30        	ldx	$30                     ; 0x2030 <end_block9+0xcb2>
    1232: 86 14        	stx	$14                     ; 0x2014 <end_block9+0xc96>
    1234: a5 15        	lda	$15                     ; 0x2015 <end_block9+0xc97>
    1236: 85 16        	sta	$16                     ; 0x2016 <end_block9+0xc98>
    1238: e5 14        	sbc	$14                     ; 0x2014 <end_block9+0xc96>
    123a: d0 06        	bne	$1242 <malloc+0x14c>
    123c: 85 18        	sta	$18                     ; 0x2018 <end_block9+0xc9a>
    123e: c0 08        	cpy	#$8
    1240: 80 04        	bra	$1246 <malloc+0x150>
    1242: 85 18        	sta	$18                     ; 0x2018 <end_block9+0xc9a>
    1244: c9 00        	cmp	#$0
    1246: a6 35        	ldx	$35                     ; 0x2035 <end_block9+0xcb7>
    1248: 86 14        	stx	$14                     ; 0x2014 <end_block9+0xc96>
    124a: a6 34        	ldx	$34                     ; 0x2034 <end_block9+0xcb6>
    124c: 86 15        	stx	$15                     ; 0x2015 <end_block9+0xc97>
    124e: a5 17        	lda	$17                     ; 0x2017 <end_block9+0xc99>
    1250: 90 42        	bcc	$1294 <malloc+0x19e>
    1252: 18           	clc
    1253: a5 31        	lda	$31                     ; 0x2031 <end_block9+0xcb3>
    1255: 85 31        	sta	$31                     ; 0x2031 <end_block9+0xcb3>
    1257: 65 12        	adc	$12                     ; 0x2012 <end_block9+0xc94>
    1259: 85 12        	sta	$12                     ; 0x2012 <end_block9+0xc94>
    125b: a6 30        	ldx	$30                     ; 0x2030 <end_block9+0xcb2>
    125d: 86 30        	stx	$30                     ; 0x2030 <end_block9+0xcb2>
    125f: a5 30        	lda	$30                     ; 0x2030 <end_block9+0xcb2>
    1261: 65 13        	adc	$13                     ; 0x2013 <end_block9+0xc95>
    1263: 85 13        	sta	$13                     ; 0x2013 <end_block9+0xc95>
    1265: a6 18        	ldx	$18                     ; 0x2018 <end_block9+0xc9a>
    1267: 98           	tya
    1268: 20 12 03     	jsr	$312 <_ZN12_GLOBAL__N_19FreeChunk6insertEPvj>
    126b: a6 32        	ldx	$32                     ; 0x2032 <end_block9+0xcb4>
    126d: 86 12        	stx	$12                     ; 0x2012 <end_block9+0xc94>
    126f: a6 33        	ldx	$33                     ; 0x2033 <end_block9+0xcb5>
    1271: 86 13        	stx	$13                     ; 0x2013 <end_block9+0xc95>
    1273: a5 31        	lda	$31                     ; 0x2031 <end_block9+0xcb3>
    1275: 29 fe        	and	#$fe
    1277: 85 14        	sta	$14                     ; 0x2014 <end_block9+0xc96>
    1279: a0 01        	ldy	#$1
    127b: 98           	tya
    127c: 32 12        	and	($12)                   ; 0x2012 <end_block9+0xc94>
    127e: 05 14        	ora	$14                     ; 0x2014 <end_block9+0xc96>
    1280: 92 12        	sta	($12)                   ; 0x2012 <end_block9+0xc94>
    1282: a5 30        	lda	$30                     ; 0x2030 <end_block9+0xcb2>
    1284: 91 12        	sta	($12),y                 ; 0x2012 <end_block9+0xc94>
    1286: a5 14        	lda	$14                     ; 0x2014 <end_block9+0xc96>
    1288: a6 30        	ldx	$30                     ; 0x2030 <end_block9+0xcb2>
    128a: 86 16        	stx	$16                     ; 0x2016 <end_block9+0xc98>
    128c: a6 35        	ldx	$35                     ; 0x2035 <end_block9+0xcb7>
    128e: 86 14        	stx	$14                     ; 0x2014 <end_block9+0xc96>
    1290: a6 34        	ldx	$34                     ; 0x2034 <end_block9+0xcb6>
    1292: 86 15        	stx	$15                     ; 0x2015 <end_block9+0xc97>
    1294: 18           	clc
    1295: 65 12        	adc	$12                     ; 0x2012 <end_block9+0xc94>
    1297: a8           	tay
    1298: a5 16        	lda	$16                     ; 0x2016 <end_block9+0xc98>
    129a: 65 13        	adc	$13                     ; 0x2013 <end_block9+0xc95>
    129c: c5 15        	cmp	$15                     ; 0x2015 <end_block9+0xc97>
    129e: d0 09        	bne	$12a9 <malloc+0x1b3>
    12a0: c4 14        	cpy	$14                     ; 0x2014 <end_block9+0xc96>
    12a2: d0 05        	bne	$12a9 <malloc+0x1b3>
    12a4: 9c 79 13     	stz	$1379                   ; 0x1379 <_ZN12_GLOBAL__N_19last_freeE>
    12a7: 80 14        	bra	$12bd <malloc+0x1c7>
    12a9: 84 14        	sty	$14                     ; 0x2014 <end_block9+0xc96>
    12ab: 85 15        	sta	$15                     ; 0x2015 <end_block9+0xc97>
    12ad: a0 01        	ldy	#$1
    12af: b1 14        	lda	($14),y                 ; 0x2014 <end_block9+0xc96>
    12b1: 85 16        	sta	$16                     ; 0x2016 <end_block9+0xc98>
    12b3: a9 fe        	lda	#$fe
    12b5: 32 14        	and	($14)                   ; 0x2014 <end_block9+0xc96>
    12b7: 92 14        	sta	($14)                   ; 0x2014 <end_block9+0xc96>
    12b9: a5 16        	lda	$16                     ; 0x2016 <end_block9+0xc98>
    12bb: 91 14        	sta	($14),y                 ; 0x2014 <end_block9+0xc96>
    12bd: a5 12        	lda	$12                     ; 0x2012 <end_block9+0xc94>
    12bf: 18           	clc
    12c0: 69 02        	adc	#$2
    12c2: 85 12        	sta	$12                     ; 0x2012 <end_block9+0xc94>
    12c4: a5 13        	lda	$13                     ; 0x2013 <end_block9+0xc95>
    12c6: 69 00        	adc	#$0
    12c8: 85 13        	sta	$13                     ; 0x2013 <end_block9+0xc95>
    12ca: 60           	rts

000012cb <__memset>:
    12cb: a4 14        	ldy	$14                     ; 0x2014 <end_block9+0xc96>
    12cd: d0 04        	bne	$12d3 <__memset+0x8>
    12cf: e0 00        	cpx	#$0
    12d1: f0 17        	beq	$12ea <__memset+0x1f>
    12d3: 92 12        	sta	($12)                   ; 0x2012 <end_block9+0xc94>
    12d5: e6 12        	inc	$12                     ; 0x2012 <end_block9+0xc94>
    12d7: d0 02        	bne	$12db <__memset+0x10>
    12d9: e6 13        	inc	$13                     ; 0x2013 <end_block9+0xc95>
    12db: ca           	dex
    12dc: e0 ff        	cpx	#$ff
    12de: d0 02        	bne	$12e2 <__memset+0x17>
    12e0: c6 14        	dec	$14                     ; 0x2014 <end_block9+0xc96>
    12e2: a4 14        	ldy	$14                     ; 0x2014 <end_block9+0xc96>
    12e4: d0 ed        	bne	$12d3 <__memset+0x8>
    12e6: e0 00        	cpx	#$0
    12e8: d0 e9        	bne	$12d3 <__memset+0x8>
    12ea: 60           	rts
